ARM GAS  G:\Users\Jaxb\AppData\Local\Temp\cch2fzHR.s 			page 1


   1              		.cpu cortex-m3
   2              		.eabi_attribute 20, 1
   3              		.eabi_attribute 21, 1
   4              		.eabi_attribute 23, 3
   5              		.eabi_attribute 24, 1
   6              		.eabi_attribute 25, 1
   7              		.eabi_attribute 26, 1
   8              		.eabi_attribute 30, 2
   9              		.eabi_attribute 34, 1
  10              		.eabi_attribute 18, 4
  11              		.file	"os_time.c"
  12              		.text
  13              	.Ltext0:
  14              		.cfi_sections	.debug_frame
  15              		.align	1
  16              		.p2align 2,,3
  17              		.global	get_tick
  18              		.syntax unified
  19              		.thumb
  20              		.thumb_func
  21              		.fpu softvfp
  22              		.type	get_tick, %function
  23              	get_tick:
  24              	.LFB0:
  25              		.file 1 "../../source/src/user/OS_CORE/os_time.c"
   1:../../source/src/user/OS_CORE/os_time.c **** #include <os_time.h>
   2:../../source/src/user/OS_CORE/os_time.c **** #include <os_cpu.h>
   3:../../source/src/user/OS_CORE/os_time.c **** #include <myMicroLIB.h>
   4:../../source/src/user/OS_CORE/os_time.c **** #include <myassert.h>
   5:../../source/src/user/OS_CORE/os_time.c **** #include <os_error.h>
   6:../../source/src/user/OS_CORE/os_time.c **** 
   7:../../source/src/user/OS_CORE/os_time.c **** volatile UINT64 g_time_tick_count = 0;
   8:../../source/src/user/OS_CORE/os_time.c **** 
   9:../../source/src/user/OS_CORE/os_time.c **** inline UINT64 
  10:../../source/src/user/OS_CORE/os_time.c **** get_tick(void)
  11:../../source/src/user/OS_CORE/os_time.c **** {
  26              		.loc 1 11 0
  27              		.cfi_startproc
  28              		@ args = 0, pretend = 0, frame = 0
  29              		@ frame_needed = 0, uses_anonymous_args = 0
  30              	.LVL0:
  31 0000 38B5     		push	{r3, r4, r5, lr}
  32              	.LCFI0:
  33              		.cfi_def_cfa_offset 16
  34              		.cfi_offset 3, -16
  35              		.cfi_offset 4, -12
  36              		.cfi_offset 5, -8
  37              		.cfi_offset 14, -4
  12:../../source/src/user/OS_CORE/os_time.c **** 	UINT64 num;
  13:../../source/src/user/OS_CORE/os_time.c **** 	CPU_SR_ALLOC();
  14:../../source/src/user/OS_CORE/os_time.c **** 	CPU_CRITICAL_ENTER();
  38              		.loc 1 14 0
  39 0002 FFF7FEFF 		bl	CPU_SR_Save
  40              	.LVL1:
  15:../../source/src/user/OS_CORE/os_time.c **** 	num = g_time_tick_count;
  41              		.loc 1 15 0
  42 0006 044B     		ldr	r3, .L3
ARM GAS  G:\Users\Jaxb\AppData\Local\Temp\cch2fzHR.s 			page 2


  43 0008 D3E90045 		ldrd	r4, [r3]
  44              	.LVL2:
  16:../../source/src/user/OS_CORE/os_time.c **** 	CPU_CRITICAL_EXIT();
  45              		.loc 1 16 0
  46 000c FFF7FEFF 		bl	CPU_SR_Restore
  47              	.LVL3:
  17:../../source/src/user/OS_CORE/os_time.c **** 	return num;
  18:../../source/src/user/OS_CORE/os_time.c **** }
  48              		.loc 1 18 0
  49 0010 2046     		mov	r0, r4
  50 0012 2946     		mov	r1, r5
  51 0014 38BD     		pop	{r3, r4, r5, pc}
  52              	.LVL4:
  53              	.L4:
  54 0016 00BF     		.align	2
  55              	.L3:
  56 0018 00000000 		.word	.LANCHOR0
  57              		.cfi_endproc
  58              	.LFE0:
  59              		.size	get_tick, .-get_tick
  60              		.align	1
  61              		.p2align 2,,3
  62              		.global	__init_system_time
  63              		.syntax unified
  64              		.thumb
  65              		.thumb_func
  66              		.fpu softvfp
  67              		.type	__init_system_time, %function
  68              	__init_system_time:
  69              	.LFB1:
  19:../../source/src/user/OS_CORE/os_time.c **** 
  20:../../source/src/user/OS_CORE/os_time.c **** #if CONFIG_TIME_EN
  21:../../source/src/user/OS_CORE/os_time.c **** 
  22:../../source/src/user/OS_CORE/os_time.c **** static struct time sys_time;
  23:../../source/src/user/OS_CORE/os_time.c **** 
  24:../../source/src/user/OS_CORE/os_time.c **** static const UINT8 month_date_table[] = {
  25:../../source/src/user/OS_CORE/os_time.c **** 	31, //January
  26:../../source/src/user/OS_CORE/os_time.c **** 	28, //Feburary
  27:../../source/src/user/OS_CORE/os_time.c **** 	31, //March
  28:../../source/src/user/OS_CORE/os_time.c **** 	30, //April
  29:../../source/src/user/OS_CORE/os_time.c **** 	31, //May
  30:../../source/src/user/OS_CORE/os_time.c **** 	30, //June
  31:../../source/src/user/OS_CORE/os_time.c **** 	31, //July
  32:../../source/src/user/OS_CORE/os_time.c **** 	31, //August
  33:../../source/src/user/OS_CORE/os_time.c **** 	30, //September
  34:../../source/src/user/OS_CORE/os_time.c **** 	31, //October
  35:../../source/src/user/OS_CORE/os_time.c **** 	30, //November
  36:../../source/src/user/OS_CORE/os_time.c **** 	31  //December
  37:../../source/src/user/OS_CORE/os_time.c **** };
  38:../../source/src/user/OS_CORE/os_time.c **** 
  39:../../source/src/user/OS_CORE/os_time.c **** void 
  40:../../source/src/user/OS_CORE/os_time.c **** __init_system_time(void)
  41:../../source/src/user/OS_CORE/os_time.c **** {
  70              		.loc 1 41 0
  71              		.cfi_startproc
  72              		@ args = 0, pretend = 0, frame = 0
  73              		@ frame_needed = 0, uses_anonymous_args = 0
ARM GAS  G:\Users\Jaxb\AppData\Local\Temp\cch2fzHR.s 			page 3


  74              		@ link register save eliminated.
  42:../../source/src/user/OS_CORE/os_time.c **** 	sys_time.date    =  OS_DATE;
  43:../../source/src/user/OS_CORE/os_time.c **** 	sys_time.hour    =  OS_HOUR;
  44:../../source/src/user/OS_CORE/os_time.c **** 	sys_time.minute  = 	OS_MINUTE;
  45:../../source/src/user/OS_CORE/os_time.c **** 	sys_time.month   =  OS_MONTH;
  46:../../source/src/user/OS_CORE/os_time.c **** 	sys_time.second  = 	OS_SECOND;
  75              		.loc 1 46 0
  76 001c 024B     		ldr	r3, .L6
  42:../../source/src/user/OS_CORE/os_time.c **** 	sys_time.date    =  OS_DATE;
  77              		.loc 1 42 0
  78 001e 0349     		ldr	r1, .L6+4
  79 0020 034A     		ldr	r2, .L6+8
  80 0022 C3E90212 		strd	r1, r2, [r3, #8]
  47:../../source/src/user/OS_CORE/os_time.c **** 	sys_time.year    =  OS_YEAR;
  48:../../source/src/user/OS_CORE/os_time.c **** 	sys_time.day     =  OS_DAY;
  49:../../source/src/user/OS_CORE/os_time.c **** }
  81              		.loc 1 49 0
  82 0026 7047     		bx	lr
  83              	.L7:
  84              		.align	2
  85              	.L6:
  86 0028 00000000 		.word	.LANCHOR0
  87 002c 00160B05 		.word	84612608
  88 0030 0A05E207 		.word	132252938
  89              		.cfi_endproc
  90              	.LFE1:
  91              		.size	__init_system_time, .-__init_system_time
  92              		.align	1
  93              		.p2align 2,,3
  94              		.global	system_time_increase
  95              		.syntax unified
  96              		.thumb
  97              		.thumb_func
  98              		.fpu softvfp
  99              		.type	system_time_increase, %function
 100              	system_time_increase:
 101              	.LFB2:
  50:../../source/src/user/OS_CORE/os_time.c **** 
  51:../../source/src/user/OS_CORE/os_time.c **** 
  52:../../source/src/user/OS_CORE/os_time.c **** /**
  53:../../source/src/user/OS_CORE/os_time.c ****  * This is a system function
  54:../../source/src/user/OS_CORE/os_time.c ****  * @Author      kaka
  55:../../source/src/user/OS_CORE/os_time.c ****  * @DateTime    2018-10-12
  56:../../source/src/user/OS_CORE/os_time.c ****  * @description : this function can only be used by os
  57:../../source/src/user/OS_CORE/os_time.c ****  */
  58:../../source/src/user/OS_CORE/os_time.c **** void 
  59:../../source/src/user/OS_CORE/os_time.c **** system_time_increase(void)
  60:../../source/src/user/OS_CORE/os_time.c **** {
 102              		.loc 1 60 0
 103              		.cfi_startproc
 104              		@ args = 0, pretend = 0, frame = 0
 105              		@ frame_needed = 0, uses_anonymous_args = 0
 106              		@ link register save eliminated.
 107 0034 30B4     		push	{r4, r5}
 108              	.LCFI1:
 109              		.cfi_def_cfa_offset 8
 110              		.cfi_offset 4, -8
ARM GAS  G:\Users\Jaxb\AppData\Local\Temp\cch2fzHR.s 			page 4


 111              		.cfi_offset 5, -4
  61:../../source/src/user/OS_CORE/os_time.c **** 	++sys_time.second;
 112              		.loc 1 61 0
 113 0036 1E4A     		ldr	r2, .L18
 114 0038 137A     		ldrb	r3, [r2, #8]	@ zero_extendqisi2
 115 003a 0133     		adds	r3, r3, #1
 116 003c DBB2     		uxtb	r3, r3
  62:../../source/src/user/OS_CORE/os_time.c **** 	if(60 == sys_time.second)
 117              		.loc 1 62 0
 118 003e 3C2B     		cmp	r3, #60
 119 0040 02D0     		beq	.L9
  61:../../source/src/user/OS_CORE/os_time.c **** 	++sys_time.second;
 120              		.loc 1 61 0
 121 0042 1372     		strb	r3, [r2, #8]
 122              	.L8:
  63:../../source/src/user/OS_CORE/os_time.c **** 	{
  64:../../source/src/user/OS_CORE/os_time.c **** 		sys_time.second = 0;
  65:../../source/src/user/OS_CORE/os_time.c **** 		++sys_time.minute;
  66:../../source/src/user/OS_CORE/os_time.c **** 		if(60 == sys_time.minute)
  67:../../source/src/user/OS_CORE/os_time.c **** 		{
  68:../../source/src/user/OS_CORE/os_time.c **** 			sys_time.minute = 0;
  69:../../source/src/user/OS_CORE/os_time.c **** 		  	++sys_time.hour;
  70:../../source/src/user/OS_CORE/os_time.c **** 			if(24 == sys_time.hour)
  71:../../source/src/user/OS_CORE/os_time.c **** 			{
  72:../../source/src/user/OS_CORE/os_time.c **** 				sys_time.hour = 0;
  73:../../source/src/user/OS_CORE/os_time.c **** 				++sys_time.date;
  74:../../source/src/user/OS_CORE/os_time.c **** 				++sys_time.day;
  75:../../source/src/user/OS_CORE/os_time.c **** 				if(month_date_table[sys_time.month-1] < sys_time.date)
  76:../../source/src/user/OS_CORE/os_time.c **** 				{
  77:../../source/src/user/OS_CORE/os_time.c **** 					sys_time.date = 1;
  78:../../source/src/user/OS_CORE/os_time.c **** 					++sys_time.month;
  79:../../source/src/user/OS_CORE/os_time.c **** 					if(sys_time.month == 13)
  80:../../source/src/user/OS_CORE/os_time.c **** 					{
  81:../../source/src/user/OS_CORE/os_time.c **** 						sys_time.month = 1;
  82:../../source/src/user/OS_CORE/os_time.c **** 						++sys_time.year;
  83:../../source/src/user/OS_CORE/os_time.c **** 					}
  84:../../source/src/user/OS_CORE/os_time.c **** 				}
  85:../../source/src/user/OS_CORE/os_time.c **** 				if(8 == sys_time.day)
  86:../../source/src/user/OS_CORE/os_time.c **** 				{
  87:../../source/src/user/OS_CORE/os_time.c **** 					sys_time.day = 1;
  88:../../source/src/user/OS_CORE/os_time.c **** 				}
  89:../../source/src/user/OS_CORE/os_time.c **** 			}
  90:../../source/src/user/OS_CORE/os_time.c **** 		}
  91:../../source/src/user/OS_CORE/os_time.c **** 	}
  92:../../source/src/user/OS_CORE/os_time.c **** }
 123              		.loc 1 92 0
 124 0044 30BC     		pop	{r4, r5}
 125              	.LCFI2:
 126              		.cfi_remember_state
 127              		.cfi_restore 5
 128              		.cfi_restore 4
 129              		.cfi_def_cfa_offset 0
 130 0046 7047     		bx	lr
 131              	.L9:
 132              	.LCFI3:
 133              		.cfi_restore_state
  64:../../source/src/user/OS_CORE/os_time.c **** 		++sys_time.minute;
ARM GAS  G:\Users\Jaxb\AppData\Local\Temp\cch2fzHR.s 			page 5


 134              		.loc 1 64 0
 135 0048 0021     		movs	r1, #0
  65:../../source/src/user/OS_CORE/os_time.c **** 		if(60 == sys_time.minute)
 136              		.loc 1 65 0
 137 004a 537A     		ldrb	r3, [r2, #9]	@ zero_extendqisi2
  64:../../source/src/user/OS_CORE/os_time.c **** 		++sys_time.minute;
 138              		.loc 1 64 0
 139 004c 1172     		strb	r1, [r2, #8]
  65:../../source/src/user/OS_CORE/os_time.c **** 		if(60 == sys_time.minute)
 140              		.loc 1 65 0
 141 004e 0133     		adds	r3, r3, #1
 142 0050 DBB2     		uxtb	r3, r3
  66:../../source/src/user/OS_CORE/os_time.c **** 		{
 143              		.loc 1 66 0
 144 0052 3C2B     		cmp	r3, #60
 145 0054 02D0     		beq	.L11
  65:../../source/src/user/OS_CORE/os_time.c **** 		if(60 == sys_time.minute)
 146              		.loc 1 65 0
 147 0056 5372     		strb	r3, [r2, #9]
 148              		.loc 1 92 0
 149 0058 30BC     		pop	{r4, r5}
 150              	.LCFI4:
 151              		.cfi_remember_state
 152              		.cfi_restore 5
 153              		.cfi_restore 4
 154              		.cfi_def_cfa_offset 0
 155 005a 7047     		bx	lr
 156              	.L11:
 157              	.LCFI5:
 158              		.cfi_restore_state
  69:../../source/src/user/OS_CORE/os_time.c **** 			if(24 == sys_time.hour)
 159              		.loc 1 69 0
 160 005c 937A     		ldrb	r3, [r2, #10]	@ zero_extendqisi2
  68:../../source/src/user/OS_CORE/os_time.c **** 		  	++sys_time.hour;
 161              		.loc 1 68 0
 162 005e 5172     		strb	r1, [r2, #9]
  69:../../source/src/user/OS_CORE/os_time.c **** 			if(24 == sys_time.hour)
 163              		.loc 1 69 0
 164 0060 0133     		adds	r3, r3, #1
 165 0062 DBB2     		uxtb	r3, r3
  70:../../source/src/user/OS_CORE/os_time.c **** 			{
 166              		.loc 1 70 0
 167 0064 182B     		cmp	r3, #24
 168 0066 01D0     		beq	.L13
  69:../../source/src/user/OS_CORE/os_time.c **** 			if(24 == sys_time.hour)
 169              		.loc 1 69 0
 170 0068 9372     		strb	r3, [r2, #10]
 171 006a EBE7     		b	.L8
 172              	.L13:
  75:../../source/src/user/OS_CORE/os_time.c **** 				{
 173              		.loc 1 75 0
 174 006c 147B     		ldrb	r4, [r2, #12]	@ zero_extendqisi2
 175 006e 114D     		ldr	r5, .L18+4
  73:../../source/src/user/OS_CORE/os_time.c **** 				++sys_time.day;
 176              		.loc 1 73 0
 177 0070 D07A     		ldrb	r0, [r2, #11]	@ zero_extendqisi2
  74:../../source/src/user/OS_CORE/os_time.c **** 				if(month_date_table[sys_time.month-1] < sys_time.date)
ARM GAS  G:\Users\Jaxb\AppData\Local\Temp\cch2fzHR.s 			page 6


 178              		.loc 1 74 0
 179 0072 537B     		ldrb	r3, [r2, #13]	@ zero_extendqisi2
  75:../../source/src/user/OS_CORE/os_time.c **** 				{
 180              		.loc 1 75 0
 181 0074 2544     		add	r5, r5, r4
  73:../../source/src/user/OS_CORE/os_time.c **** 				++sys_time.day;
 182              		.loc 1 73 0
 183 0076 0130     		adds	r0, r0, #1
  75:../../source/src/user/OS_CORE/os_time.c **** 				{
 184              		.loc 1 75 0
 185 0078 15F8015C 		ldrb	r5, [r5, #-1]	@ zero_extendqisi2
  73:../../source/src/user/OS_CORE/os_time.c **** 				++sys_time.day;
 186              		.loc 1 73 0
 187 007c C0B2     		uxtb	r0, r0
  74:../../source/src/user/OS_CORE/os_time.c **** 				if(month_date_table[sys_time.month-1] < sys_time.date)
 188              		.loc 1 74 0
 189 007e 0133     		adds	r3, r3, #1
 190 0080 DBB2     		uxtb	r3, r3
  75:../../source/src/user/OS_CORE/os_time.c **** 				{
 191              		.loc 1 75 0
 192 0082 8542     		cmp	r5, r0
  72:../../source/src/user/OS_CORE/os_time.c **** 				++sys_time.date;
 193              		.loc 1 72 0
 194 0084 9172     		strb	r1, [r2, #10]
  73:../../source/src/user/OS_CORE/os_time.c **** 				++sys_time.day;
 195              		.loc 1 73 0
 196 0086 D072     		strb	r0, [r2, #11]
  74:../../source/src/user/OS_CORE/os_time.c **** 				if(month_date_table[sys_time.month-1] < sys_time.date)
 197              		.loc 1 74 0
 198 0088 5373     		strb	r3, [r2, #13]
  75:../../source/src/user/OS_CORE/os_time.c **** 				{
 199              		.loc 1 75 0
 200 008a 06D2     		bcs	.L15
  77:../../source/src/user/OS_CORE/os_time.c **** 					++sys_time.month;
 201              		.loc 1 77 0
 202 008c 0121     		movs	r1, #1
  78:../../source/src/user/OS_CORE/os_time.c **** 					if(sys_time.month == 13)
 203              		.loc 1 78 0
 204 008e 0C44     		add	r4, r4, r1
 205 0090 E4B2     		uxtb	r4, r4
  79:../../source/src/user/OS_CORE/os_time.c **** 					{
 206              		.loc 1 79 0
 207 0092 0D2C     		cmp	r4, #13
  77:../../source/src/user/OS_CORE/os_time.c **** 					++sys_time.month;
 208              		.loc 1 77 0
 209 0094 D172     		strb	r1, [r2, #11]
  79:../../source/src/user/OS_CORE/os_time.c **** 					{
 210              		.loc 1 79 0
 211 0096 05D0     		beq	.L16
  78:../../source/src/user/OS_CORE/os_time.c **** 					if(sys_time.month == 13)
 212              		.loc 1 78 0
 213 0098 1473     		strb	r4, [r2, #12]
 214              	.L15:
  85:../../source/src/user/OS_CORE/os_time.c **** 				{
 215              		.loc 1 85 0
 216 009a 082B     		cmp	r3, #8
  87:../../source/src/user/OS_CORE/os_time.c **** 				}
ARM GAS  G:\Users\Jaxb\AppData\Local\Temp\cch2fzHR.s 			page 7


 217              		.loc 1 87 0
 218 009c 04BF     		itt	eq
 219 009e 0123     		moveq	r3, #1
 220 00a0 5373     		strbeq	r3, [r2, #13]
 221              		.loc 1 92 0
 222 00a2 CFE7     		b	.L8
 223              	.L16:
  82:../../source/src/user/OS_CORE/os_time.c **** 					}
 224              		.loc 1 82 0
 225 00a4 D089     		ldrh	r0, [r2, #14]
  81:../../source/src/user/OS_CORE/os_time.c **** 						++sys_time.year;
 226              		.loc 1 81 0
 227 00a6 1173     		strb	r1, [r2, #12]
  82:../../source/src/user/OS_CORE/os_time.c **** 					}
 228              		.loc 1 82 0
 229 00a8 411C     		adds	r1, r0, #1
 230 00aa D181     		strh	r1, [r2, #14]	@ movhi
 231 00ac F5E7     		b	.L15
 232              	.L19:
 233 00ae 00BF     		.align	2
 234              	.L18:
 235 00b0 00000000 		.word	.LANCHOR0
 236 00b4 00000000 		.word	.LANCHOR1
 237              		.cfi_endproc
 238              	.LFE2:
 239              		.size	system_time_increase, .-system_time_increase
 240              		.align	1
 241              		.p2align 2,,3
 242              		.global	system_time_display
 243              		.syntax unified
 244              		.thumb
 245              		.thumb_func
 246              		.fpu softvfp
 247              		.type	system_time_display, %function
 248              	system_time_display:
 249              	.LFB3:
  93:../../source/src/user/OS_CORE/os_time.c **** 
  94:../../source/src/user/OS_CORE/os_time.c **** void 
  95:../../source/src/user/OS_CORE/os_time.c **** system_time_display(void)
  96:../../source/src/user/OS_CORE/os_time.c **** {
 250              		.loc 1 96 0
 251              		.cfi_startproc
 252              		@ args = 0, pretend = 0, frame = 0
 253              		@ frame_needed = 0, uses_anonymous_args = 0
 254              	.LVL5:
 255 00b8 F0B5     		push	{r4, r5, r6, r7, lr}
 256              	.LCFI6:
 257              		.cfi_def_cfa_offset 20
 258              		.cfi_offset 4, -20
 259              		.cfi_offset 5, -16
 260              		.cfi_offset 6, -12
 261              		.cfi_offset 7, -8
 262              		.cfi_offset 14, -4
 263 00ba 85B0     		sub	sp, sp, #20
 264              	.LCFI7:
 265              		.cfi_def_cfa_offset 40
  97:../../source/src/user/OS_CORE/os_time.c **** 	CPU_SR_ALLOC();
ARM GAS  G:\Users\Jaxb\AppData\Local\Temp\cch2fzHR.s 			page 8


  98:../../source/src/user/OS_CORE/os_time.c **** 	CPU_CRITICAL_ENTER();
 266              		.loc 1 98 0
 267 00bc FFF7FEFF 		bl	CPU_SR_Save
 268              	.LVL6:
 269 00c0 0546     		mov	r5, r0
 270              	.LVL7:
  99:../../source/src/user/OS_CORE/os_time.c **** 	ka_printf("%d年%d月%d日--%d时%d分%d秒--星期%d\r\n",sys_time.year,
 100:../../source/src/user/OS_CORE/os_time.c **** 	sys_time.month,sys_time.date,sys_time.hour,sys_time.minute,sys_time.second,sys_time.day);
 271              		.loc 1 100 0
 272 00c2 0A4C     		ldr	r4, .L21
  99:../../source/src/user/OS_CORE/os_time.c **** 	ka_printf("%d年%d月%d日--%d时%d分%d秒--星期%d\r\n",sys_time.year,
 273              		.loc 1 99 0
 274 00c4 0A48     		ldr	r0, .L21+4
 275              	.LVL8:
 276 00c6 677B     		ldrb	r7, [r4, #13]	@ zero_extendqisi2
 277 00c8 267A     		ldrb	r6, [r4, #8]	@ zero_extendqisi2
 278 00ca E37A     		ldrb	r3, [r4, #11]	@ zero_extendqisi2
 279 00cc 227B     		ldrb	r2, [r4, #12]	@ zero_extendqisi2
 280 00ce E189     		ldrh	r1, [r4, #14]
 281 00d0 CDE90267 		strd	r6, r7, [sp, #8]
 282 00d4 667A     		ldrb	r6, [r4, #9]	@ zero_extendqisi2
 283 00d6 A47A     		ldrb	r4, [r4, #10]	@ zero_extendqisi2
 284 00d8 CDE90046 		strd	r4, r6, [sp]
 285 00dc FFF7FEFF 		bl	ka_printf
 286              	.LVL9:
 101:../../source/src/user/OS_CORE/os_time.c **** 	CPU_CRITICAL_EXIT();
 287              		.loc 1 101 0
 288 00e0 2846     		mov	r0, r5
 102:../../source/src/user/OS_CORE/os_time.c **** }
 289              		.loc 1 102 0
 290 00e2 05B0     		add	sp, sp, #20
 291              	.LCFI8:
 292              		.cfi_def_cfa_offset 20
 293              		@ sp needed
 294 00e4 BDE8F040 		pop	{r4, r5, r6, r7, lr}
 295              	.LCFI9:
 296              		.cfi_restore 14
 297              		.cfi_restore 7
 298              		.cfi_restore 6
 299              		.cfi_restore 5
 300              		.cfi_restore 4
 301              		.cfi_def_cfa_offset 0
 302              	.LVL10:
 101:../../source/src/user/OS_CORE/os_time.c **** 	CPU_CRITICAL_EXIT();
 303              		.loc 1 101 0
 304 00e8 FFF7FEBF 		b	CPU_SR_Restore
 305              	.LVL11:
 306              	.L22:
 307              		.align	2
 308              	.L21:
 309 00ec 00000000 		.word	.LANCHOR0
 310 00f0 00000000 		.word	.LC0
 311              		.cfi_endproc
 312              	.LFE3:
 313              		.size	system_time_display, .-system_time_display
 314              		.align	1
 315              		.p2align 2,,3
ARM GAS  G:\Users\Jaxb\AppData\Local\Temp\cch2fzHR.s 			page 9


 316              		.global	set_time
 317              		.syntax unified
 318              		.thumb
 319              		.thumb_func
 320              		.fpu softvfp
 321              		.type	set_time, %function
 322              	set_time:
 323              	.LFB4:
 103:../../source/src/user/OS_CORE/os_time.c **** 
 104:../../source/src/user/OS_CORE/os_time.c **** int set_time(struct time *time_ptr)
 105:../../source/src/user/OS_CORE/os_time.c **** {
 324              		.loc 1 105 0
 325              		.cfi_startproc
 326              		@ args = 0, pretend = 0, frame = 0
 327              		@ frame_needed = 0, uses_anonymous_args = 0
 328              	.LVL12:
 329 00f4 70B5     		push	{r4, r5, r6, lr}
 330              	.LCFI10:
 331              		.cfi_def_cfa_offset 16
 332              		.cfi_offset 4, -16
 333              		.cfi_offset 5, -12
 334              		.cfi_offset 6, -8
 335              		.cfi_offset 14, -4
 106:../../source/src/user/OS_CORE/os_time.c **** 	ASSERT(NULL != time_ptr);
 336              		.loc 1 106 0
 337 00f6 0446     		mov	r4, r0
 338 00f8 A0B1     		cbz	r0, .L26
 339              	.LVL13:
 107:../../source/src/user/OS_CORE/os_time.c **** #if CONFIG_PARA_CHECK
 108:../../source/src/user/OS_CORE/os_time.c **** 	if(NULL == time_ptr)
 109:../../source/src/user/OS_CORE/os_time.c **** 	{
 110:../../source/src/user/OS_CORE/os_time.c **** 		OS_ERROR_PARA_MESSAGE_DISPLAY(set_time,time_ptr);
 111:../../source/src/user/OS_CORE/os_time.c **** 		return -ERROR_NULL_INPUT_PTR;
 112:../../source/src/user/OS_CORE/os_time.c **** 	}
 113:../../source/src/user/OS_CORE/os_time.c **** #endif
 114:../../source/src/user/OS_CORE/os_time.c **** 	CPU_SR_ALLOC();
 115:../../source/src/user/OS_CORE/os_time.c **** 	CPU_CRITICAL_ENTER();
 340              		.loc 1 115 0
 341 00fa FFF7FEFF 		bl	CPU_SR_Save
 342              	.LVL14:
 116:../../source/src/user/OS_CORE/os_time.c **** 	sys_time.date    =   time_ptr->date;
 343              		.loc 1 116 0
 344 00fe 0E4B     		ldr	r3, .L27
 345 0100 E578     		ldrb	r5, [r4, #3]	@ zero_extendqisi2
 117:../../source/src/user/OS_CORE/os_time.c **** 	sys_time.hour    =   time_ptr->hour;
 346              		.loc 1 117 0
 347 0102 A178     		ldrb	r1, [r4, #2]	@ zero_extendqisi2
 118:../../source/src/user/OS_CORE/os_time.c **** 	sys_time.minute  = 	 time_ptr->minute;
 348              		.loc 1 118 0
 349 0104 6278     		ldrb	r2, [r4, #1]	@ zero_extendqisi2
 116:../../source/src/user/OS_CORE/os_time.c **** 	sys_time.date    =   time_ptr->date;
 350              		.loc 1 116 0
 351 0106 DD72     		strb	r5, [r3, #11]
 119:../../source/src/user/OS_CORE/os_time.c **** 	sys_time.month   =   time_ptr->month;
 352              		.loc 1 119 0
 353 0108 2679     		ldrb	r6, [r4, #4]	@ zero_extendqisi2
 117:../../source/src/user/OS_CORE/os_time.c **** 	sys_time.hour    =   time_ptr->hour;
ARM GAS  G:\Users\Jaxb\AppData\Local\Temp\cch2fzHR.s 			page 10


 354              		.loc 1 117 0
 355 010a 9972     		strb	r1, [r3, #10]
 120:../../source/src/user/OS_CORE/os_time.c **** 	sys_time.second  =   time_ptr->second;
 356              		.loc 1 120 0
 357 010c 2578     		ldrb	r5, [r4]	@ zero_extendqisi2
 118:../../source/src/user/OS_CORE/os_time.c **** 	sys_time.minute  = 	 time_ptr->minute;
 358              		.loc 1 118 0
 359 010e 5A72     		strb	r2, [r3, #9]
 121:../../source/src/user/OS_CORE/os_time.c **** 	sys_time.year    =   time_ptr->year;
 360              		.loc 1 121 0
 361 0110 E188     		ldrh	r1, [r4, #6]
 122:../../source/src/user/OS_CORE/os_time.c **** 	sys_time.day     =   time_ptr->day;
 362              		.loc 1 122 0
 363 0112 6279     		ldrb	r2, [r4, #5]	@ zero_extendqisi2
 119:../../source/src/user/OS_CORE/os_time.c **** 	sys_time.second  =   time_ptr->second;
 364              		.loc 1 119 0
 365 0114 1E73     		strb	r6, [r3, #12]
 120:../../source/src/user/OS_CORE/os_time.c **** 	sys_time.year    =   time_ptr->year;
 366              		.loc 1 120 0
 367 0116 1D72     		strb	r5, [r3, #8]
 121:../../source/src/user/OS_CORE/os_time.c **** 	sys_time.day     =   time_ptr->day;
 368              		.loc 1 121 0
 369 0118 D981     		strh	r1, [r3, #14]	@ movhi
 370              		.loc 1 122 0
 371 011a 5A73     		strb	r2, [r3, #13]
 123:../../source/src/user/OS_CORE/os_time.c **** 	CPU_CRITICAL_EXIT();
 372              		.loc 1 123 0
 373 011c FFF7FEFF 		bl	CPU_SR_Restore
 374              	.LVL15:
 124:../../source/src/user/OS_CORE/os_time.c **** 	return FUN_EXECUTE_SUCCESSFULLY;
 375              		.loc 1 124 0
 376 0120 0020     		movs	r0, #0
 125:../../source/src/user/OS_CORE/os_time.c **** }
 377              		.loc 1 125 0
 378 0122 70BD     		pop	{r4, r5, r6, pc}
 379              	.LVL16:
 380              	.L26:
 106:../../source/src/user/OS_CORE/os_time.c **** #if CONFIG_PARA_CHECK
 381              		.loc 1 106 0 discriminator 1
 382 0124 6A21     		movs	r1, #106
 383 0126 0548     		ldr	r0, .L27+4
 384              	.LVL17:
 385 0128 FFF7FEFF 		bl	_ASSERT
 386              	.LVL18:
 110:../../source/src/user/OS_CORE/os_time.c **** 		return -ERROR_NULL_INPUT_PTR;
 387              		.loc 1 110 0 discriminator 1
 388 012c 0448     		ldr	r0, .L27+8
 389 012e FFF7FEFF 		bl	ka_printf
 390              	.LVL19:
 111:../../source/src/user/OS_CORE/os_time.c **** 	}
 391              		.loc 1 111 0 discriminator 1
 392 0132 6FF0FE00 		mvn	r0, #254
 393              		.loc 1 125 0 discriminator 1
 394 0136 70BD     		pop	{r4, r5, r6, pc}
 395              	.LVL20:
 396              	.L28:
 397              		.align	2
ARM GAS  G:\Users\Jaxb\AppData\Local\Temp\cch2fzHR.s 			page 11


 398              	.L27:
 399 0138 00000000 		.word	.LANCHOR0
 400 013c 30000000 		.word	.LC1
 401 0140 58000000 		.word	.LC2
 402              		.cfi_endproc
 403              	.LFE4:
 404              		.size	set_time, .-set_time
 405              		.global	g_time_tick_count
 406              		.section	.rodata
 407              		.align	2
 408              		.set	.LANCHOR1,. + 0
 409              		.type	month_date_table, %object
 410              		.size	month_date_table, 12
 411              	month_date_table:
 412 0000 1F       		.byte	31
 413 0001 1C       		.byte	28
 414 0002 1F       		.byte	31
 415 0003 1E       		.byte	30
 416 0004 1F       		.byte	31
 417 0005 1E       		.byte	30
 418 0006 1F       		.byte	31
 419 0007 1F       		.byte	31
 420 0008 1E       		.byte	30
 421 0009 1F       		.byte	31
 422 000a 1E       		.byte	30
 423 000b 1F       		.byte	31
 424              		.bss
 425              		.align	3
 426              		.set	.LANCHOR0,. + 0
 427              		.type	g_time_tick_count, %object
 428              		.size	g_time_tick_count, 8
 429              	g_time_tick_count:
 430 0000 00000000 		.space	8
 430      00000000 
 431              		.type	sys_time, %object
 432              		.size	sys_time, 8
 433              	sys_time:
 434 0008 00000000 		.space	8
 434      00000000 
 435              		.section	.rodata.str1.4,"aMS",%progbits,1
 436              		.align	2
 437              	.LC0:
 438 0000 2564E5B9 		.ascii	"%d\345\271\264%d\346\234\210%d\346\227\245--%d\346\227"
 438      B42564E6 
 438      9C882564 
 438      E697A52D 
 438      2D2564E6 
 439 0015 B62564E5 		.ascii	"\266%d\345\210\206%d\347\247\222--\346\230\237\346\234"
 439      88862564 
 439      E7A7922D 
 439      2DE6989F 
 439      E69C
 440 0027 9F25640D 		.ascii	"\237%d\015\012\000"
 440      0A00
 441 002d 000000   		.space	3
 442              	.LC1:
 443 0030 2E2E2F2E 		.ascii	"../../source/src/user/OS_CORE/os_time.c\000"
ARM GAS  G:\Users\Jaxb\AppData\Local\Temp\cch2fzHR.s 			page 12


 443      2E2F736F 
 443      75726365 
 443      2F737263 
 443      2F757365 
 444              	.LC2:
 445 0058 6572726F 		.ascii	"error fun name : set_time\012error para : time_ptr\012"
 445      72206675 
 445      6E206E61 
 445      6D65203A 
 445      20736574 
 446 0088 00       		.ascii	"\000"
 447              		.text
 448              	.Letext0:
 449              		.file 2 "../../source/include/os_cpu/kakaosstdint.h"
 450              		.file 3 "../../source/include/os_core/os_time.h"
 451              		.file 4 "../../source/include/os_cpu/os_cpu_stm32.h"
 452              		.file 5 "../../source/include/os_lib/myassert.h"
 453              		.file 6 "../../source/include/os_lib/myMicroLIB.h"
 454              		.section	.debug_info,"",%progbits
 455              	.Ldebug_info0:
 456 0000 EF020000 		.4byte	0x2ef
 457 0004 0200     		.2byte	0x2
 458 0006 00000000 		.4byte	.Ldebug_abbrev0
 459 000a 04       		.byte	0x4
 460 000b 01       		.uleb128 0x1
 461 000c DA010000 		.4byte	.LASF29
 462 0010 0C       		.byte	0xc
 463 0011 85000000 		.4byte	.LASF30
 464 0015 0F010000 		.4byte	.LASF31
 465 0019 00000000 		.4byte	.Ltext0
 466 001d 44010000 		.4byte	.Letext0
 467 0021 00000000 		.4byte	.Ldebug_line0
 468 0025 02       		.uleb128 0x2
 469 0026 01       		.byte	0x1
 470 0027 06       		.byte	0x6
 471 0028 86010000 		.4byte	.LASF0
 472 002c 02       		.uleb128 0x2
 473 002d 02       		.byte	0x2
 474 002e 05       		.byte	0x5
 475 002f C1010000 		.4byte	.LASF1
 476 0033 03       		.uleb128 0x3
 477 0034 04       		.byte	0x4
 478 0035 05       		.byte	0x5
 479 0036 696E7400 		.ascii	"int\000"
 480 003a 02       		.uleb128 0x2
 481 003b 08       		.byte	0x8
 482 003c 05       		.byte	0x5
 483 003d 00000000 		.4byte	.LASF2
 484 0041 04       		.uleb128 0x4
 485 0042 17000000 		.4byte	.LASF4
 486 0046 02       		.byte	0x2
 487 0047 0A       		.byte	0xa
 488 0048 51000000 		.4byte	0x51
 489 004c 05       		.uleb128 0x5
 490 004d 41000000 		.4byte	0x41
 491 0051 02       		.uleb128 0x2
 492 0052 01       		.byte	0x1
ARM GAS  G:\Users\Jaxb\AppData\Local\Temp\cch2fzHR.s 			page 13


 493 0053 08       		.byte	0x8
 494 0054 D7000000 		.4byte	.LASF3
 495 0058 04       		.uleb128 0x4
 496 0059 80020000 		.4byte	.LASF5
 497 005d 02       		.byte	0x2
 498 005e 0B       		.byte	0xb
 499 005f 63000000 		.4byte	0x63
 500 0063 02       		.uleb128 0x2
 501 0064 02       		.byte	0x2
 502 0065 07       		.byte	0x7
 503 0066 73010000 		.4byte	.LASF6
 504 006a 02       		.uleb128 0x2
 505 006b 04       		.byte	0x4
 506 006c 07       		.byte	0x7
 507 006d 1D000000 		.4byte	.LASF7
 508 0071 04       		.uleb128 0x4
 509 0072 BF000000 		.4byte	.LASF8
 510 0076 02       		.byte	0x2
 511 0077 0D       		.byte	0xd
 512 0078 81000000 		.4byte	0x81
 513 007c 06       		.uleb128 0x6
 514 007d 71000000 		.4byte	0x71
 515 0081 02       		.uleb128 0x2
 516 0082 08       		.byte	0x8
 517 0083 07       		.byte	0x7
 518 0084 69000000 		.4byte	.LASF9
 519 0088 07       		.uleb128 0x7
 520 0089 80000000 		.4byte	.LASF32
 521 008d 08       		.byte	0x8
 522 008e 03       		.byte	0x3
 523 008f 13       		.byte	0x13
 524 0090 F7000000 		.4byte	0xf7
 525 0094 08       		.uleb128 0x8
 526 0095 92010000 		.4byte	.LASF10
 527 0099 03       		.byte	0x3
 528 009a 14       		.byte	0x14
 529 009b 41000000 		.4byte	0x41
 530 009f 02       		.byte	0x2
 531 00a0 23       		.byte	0x23
 532 00a1 00       		.uleb128 0
 533 00a2 08       		.uleb128 0x8
 534 00a3 AF010000 		.4byte	.LASF11
 535 00a7 03       		.byte	0x3
 536 00a8 15       		.byte	0x15
 537 00a9 41000000 		.4byte	0x41
 538 00ad 02       		.byte	0x2
 539 00ae 23       		.byte	0x23
 540 00af 01       		.uleb128 0x1
 541 00b0 08       		.uleb128 0x8
 542 00b1 A3010000 		.4byte	.LASF12
 543 00b5 03       		.byte	0x3
 544 00b6 16       		.byte	0x16
 545 00b7 41000000 		.4byte	0x41
 546 00bb 02       		.byte	0x2
 547 00bc 23       		.byte	0x23
 548 00bd 02       		.uleb128 0x2
 549 00be 08       		.uleb128 0x8
ARM GAS  G:\Users\Jaxb\AppData\Local\Temp\cch2fzHR.s 			page 14


 550 00bf 0A010000 		.4byte	.LASF13
 551 00c3 03       		.byte	0x3
 552 00c4 17       		.byte	0x17
 553 00c5 41000000 		.4byte	0x41
 554 00c9 02       		.byte	0x2
 555 00ca 23       		.byte	0x23
 556 00cb 03       		.uleb128 0x3
 557 00cc 08       		.uleb128 0x8
 558 00cd 63000000 		.4byte	.LASF14
 559 00d1 03       		.byte	0x3
 560 00d2 18       		.byte	0x18
 561 00d3 41000000 		.4byte	0x41
 562 00d7 02       		.byte	0x2
 563 00d8 23       		.byte	0x23
 564 00d9 04       		.uleb128 0x4
 565 00da 09       		.uleb128 0x9
 566 00db 64617900 		.ascii	"day\000"
 567 00df 03       		.byte	0x3
 568 00e0 19       		.byte	0x19
 569 00e1 41000000 		.4byte	0x41
 570 00e5 02       		.byte	0x2
 571 00e6 23       		.byte	0x23
 572 00e7 05       		.uleb128 0x5
 573 00e8 08       		.uleb128 0x8
 574 00e9 6E010000 		.4byte	.LASF15
 575 00ed 03       		.byte	0x3
 576 00ee 1A       		.byte	0x1a
 577 00ef 58000000 		.4byte	0x58
 578 00f3 02       		.byte	0x2
 579 00f4 23       		.byte	0x23
 580 00f5 06       		.uleb128 0x6
 581 00f6 00       		.byte	0
 582 00f7 04       		.uleb128 0x4
 583 00f8 B6010000 		.4byte	.LASF16
 584 00fc 04       		.byte	0x4
 585 00fd 04       		.byte	0x4
 586 00fe 6A000000 		.4byte	0x6a
 587 0102 04       		.uleb128 0x4
 588 0103 A8010000 		.4byte	.LASF17
 589 0107 04       		.byte	0x4
 590 0108 06       		.byte	0x6
 591 0109 F7000000 		.4byte	0xf7
 592 010d 0A       		.uleb128 0xa
 593 010e AD000000 		.4byte	.LASF33
 594 0112 01       		.byte	0x1
 595 0113 07       		.byte	0x7
 596 0114 7C000000 		.4byte	0x7c
 597 0118 01       		.byte	0x1
 598 0119 05       		.byte	0x5
 599 011a 03       		.byte	0x3
 600 011b 00000000 		.4byte	g_time_tick_count
 601 011f 0B       		.uleb128 0xb
 602 0120 0E000000 		.4byte	.LASF18
 603 0124 01       		.byte	0x1
 604 0125 16       		.byte	0x16
 605 0126 88000000 		.4byte	0x88
 606 012a 05       		.byte	0x5
ARM GAS  G:\Users\Jaxb\AppData\Local\Temp\cch2fzHR.s 			page 15


 607 012b 03       		.byte	0x3
 608 012c 08000000 		.4byte	sys_time
 609 0130 0C       		.uleb128 0xc
 610 0131 4C000000 		.4byte	0x4c
 611 0135 40010000 		.4byte	0x140
 612 0139 0D       		.uleb128 0xd
 613 013a 6A000000 		.4byte	0x6a
 614 013e 0B       		.byte	0xb
 615 013f 00       		.byte	0
 616 0140 05       		.uleb128 0x5
 617 0141 30010000 		.4byte	0x130
 618 0145 0B       		.uleb128 0xb
 619 0146 C6000000 		.4byte	.LASF19
 620 014a 01       		.byte	0x1
 621 014b 18       		.byte	0x18
 622 014c 40010000 		.4byte	0x140
 623 0150 05       		.byte	0x5
 624 0151 03       		.byte	0x3
 625 0152 00000000 		.4byte	month_date_table
 626 0156 0E       		.uleb128 0xe
 627 0157 01       		.byte	0x1
 628 0158 2A000000 		.4byte	.LASF23
 629 015c 01       		.byte	0x1
 630 015d 68       		.byte	0x68
 631 015e 01       		.byte	0x1
 632 015f 33000000 		.4byte	0x33
 633 0163 F4000000 		.4byte	.LFB4
 634 0167 44010000 		.4byte	.LFE4
 635 016b 00000000 		.4byte	.LLST6
 636 016f 01       		.byte	0x1
 637 0170 D5010000 		.4byte	0x1d5
 638 0174 0F       		.uleb128 0xf
 639 0175 33000000 		.4byte	.LASF34
 640 0179 01       		.byte	0x1
 641 017a 68       		.byte	0x68
 642 017b D5010000 		.4byte	0x1d5
 643 017f 20000000 		.4byte	.LLST7
 644 0183 10       		.uleb128 0x10
 645 0184 03010000 		.4byte	.LASF20
 646 0188 01       		.byte	0x1
 647 0189 72       		.byte	0x72
 648 018a 02010000 		.4byte	0x102
 649 018e 62000000 		.4byte	.LLST8
 650 0192 11       		.uleb128 0x11
 651 0193 FE000000 		.4byte	.LVL14
 652 0197 BE020000 		.4byte	0x2be
 653 019b 11       		.uleb128 0x11
 654 019c 20010000 		.4byte	.LVL15
 655 01a0 CB020000 		.4byte	0x2cb
 656 01a4 12       		.uleb128 0x12
 657 01a5 2C010000 		.4byte	.LVL18
 658 01a9 D8020000 		.4byte	0x2d8
 659 01ad C1010000 		.4byte	0x1c1
 660 01b1 13       		.uleb128 0x13
 661 01b2 01       		.byte	0x1
 662 01b3 50       		.byte	0x50
 663 01b4 05       		.byte	0x5
ARM GAS  G:\Users\Jaxb\AppData\Local\Temp\cch2fzHR.s 			page 16


 664 01b5 03       		.byte	0x3
 665 01b6 30000000 		.4byte	.LC1
 666 01ba 13       		.uleb128 0x13
 667 01bb 01       		.byte	0x1
 668 01bc 51       		.byte	0x51
 669 01bd 02       		.byte	0x2
 670 01be 08       		.byte	0x8
 671 01bf 6A       		.byte	0x6a
 672 01c0 00       		.byte	0
 673 01c1 14       		.uleb128 0x14
 674 01c2 32010000 		.4byte	.LVL19
 675 01c6 E5020000 		.4byte	0x2e5
 676 01ca 13       		.uleb128 0x13
 677 01cb 01       		.byte	0x1
 678 01cc 50       		.byte	0x50
 679 01cd 05       		.byte	0x5
 680 01ce 03       		.byte	0x3
 681 01cf 58000000 		.4byte	.LC2
 682 01d3 00       		.byte	0
 683 01d4 00       		.byte	0
 684 01d5 15       		.uleb128 0x15
 685 01d6 04       		.byte	0x4
 686 01d7 88000000 		.4byte	0x88
 687 01db 16       		.uleb128 0x16
 688 01dc 01       		.byte	0x1
 689 01dd 5A010000 		.4byte	.LASF35
 690 01e1 01       		.byte	0x1
 691 01e2 5F       		.byte	0x5f
 692 01e3 01       		.byte	0x1
 693 01e4 B8000000 		.4byte	.LFB3
 694 01e8 F4000000 		.4byte	.LFE3
 695 01ec 81000000 		.4byte	.LLST4
 696 01f0 01       		.byte	0x1
 697 01f1 44020000 		.4byte	0x244
 698 01f5 10       		.uleb128 0x10
 699 01f6 03010000 		.4byte	.LASF20
 700 01fa 01       		.byte	0x1
 701 01fb 61       		.byte	0x61
 702 01fc 02010000 		.4byte	0x102
 703 0200 C5000000 		.4byte	.LLST5
 704 0204 11       		.uleb128 0x11
 705 0205 C0000000 		.4byte	.LVL6
 706 0209 BE020000 		.4byte	0x2be
 707 020d 12       		.uleb128 0x12
 708 020e E0000000 		.4byte	.LVL9
 709 0212 E5020000 		.4byte	0x2e5
 710 0216 39020000 		.4byte	0x239
 711 021a 13       		.uleb128 0x13
 712 021b 01       		.byte	0x1
 713 021c 50       		.byte	0x50
 714 021d 05       		.byte	0x5
 715 021e 03       		.byte	0x3
 716 021f 00000000 		.4byte	.LC0
 717 0223 13       		.uleb128 0x13
 718 0224 02       		.byte	0x2
 719 0225 7D       		.byte	0x7d
 720 0226 00       		.sleb128 0
ARM GAS  G:\Users\Jaxb\AppData\Local\Temp\cch2fzHR.s 			page 17


 721 0227 02       		.byte	0x2
 722 0228 74       		.byte	0x74
 723 0229 00       		.sleb128 0
 724 022a 13       		.uleb128 0x13
 725 022b 02       		.byte	0x2
 726 022c 7D       		.byte	0x7d
 727 022d 04       		.sleb128 4
 728 022e 02       		.byte	0x2
 729 022f 76       		.byte	0x76
 730 0230 00       		.sleb128 0
 731 0231 13       		.uleb128 0x13
 732 0232 02       		.byte	0x2
 733 0233 7D       		.byte	0x7d
 734 0234 0C       		.sleb128 12
 735 0235 02       		.byte	0x2
 736 0236 77       		.byte	0x77
 737 0237 00       		.sleb128 0
 738 0238 00       		.byte	0
 739 0239 17       		.uleb128 0x17
 740 023a EC000000 		.4byte	.LVL11
 741 023e 01       		.byte	0x1
 742 023f CB020000 		.4byte	0x2cb
 743 0243 00       		.byte	0
 744 0244 18       		.uleb128 0x18
 745 0245 01       		.byte	0x1
 746 0246 EE000000 		.4byte	.LASF21
 747 024a 01       		.byte	0x1
 748 024b 3B       		.byte	0x3b
 749 024c 01       		.byte	0x1
 750 024d 34000000 		.4byte	.LFB2
 751 0251 B8000000 		.4byte	.LFE2
 752 0255 FA000000 		.4byte	.LLST3
 753 0259 01       		.byte	0x1
 754 025a 19       		.uleb128 0x19
 755 025b 01       		.byte	0x1
 756 025c 48000000 		.4byte	.LASF22
 757 0260 01       		.byte	0x1
 758 0261 28       		.byte	0x28
 759 0262 01       		.byte	0x1
 760 0263 1C000000 		.4byte	.LFB1
 761 0267 34000000 		.4byte	.LFE1
 762 026b 02       		.byte	0x2
 763 026c 7D       		.byte	0x7d
 764 026d 00       		.sleb128 0
 765 026e 01       		.byte	0x1
 766 026f 0E       		.uleb128 0xe
 767 0270 01       		.byte	0x1
 768 0271 E5000000 		.4byte	.LASF24
 769 0275 01       		.byte	0x1
 770 0276 0A       		.byte	0xa
 771 0277 01       		.byte	0x1
 772 0278 71000000 		.4byte	0x71
 773 027c 00000000 		.4byte	.LFB0
 774 0280 1C000000 		.4byte	.LFE0
 775 0284 4A010000 		.4byte	.LLST0
 776 0288 01       		.byte	0x1
 777 0289 BE020000 		.4byte	0x2be
ARM GAS  G:\Users\Jaxb\AppData\Local\Temp\cch2fzHR.s 			page 18


 778 028d 1A       		.uleb128 0x1a
 779 028e 6E756D00 		.ascii	"num\000"
 780 0292 01       		.byte	0x1
 781 0293 0C       		.byte	0xc
 782 0294 71000000 		.4byte	0x71
 783 0298 6A010000 		.4byte	.LLST1
 784 029c 10       		.uleb128 0x10
 785 029d 03010000 		.4byte	.LASF20
 786 02a1 01       		.byte	0x1
 787 02a2 0D       		.byte	0xd
 788 02a3 02010000 		.4byte	0x102
 789 02a7 82010000 		.4byte	.LLST2
 790 02ab 11       		.uleb128 0x11
 791 02ac 06000000 		.4byte	.LVL1
 792 02b0 BE020000 		.4byte	0x2be
 793 02b4 11       		.uleb128 0x11
 794 02b5 10000000 		.4byte	.LVL3
 795 02b9 CB020000 		.4byte	0x2cb
 796 02bd 00       		.byte	0
 797 02be 1B       		.uleb128 0x1b
 798 02bf 01       		.byte	0x1
 799 02c0 01       		.byte	0x1
 800 02c1 3C000000 		.4byte	.LASF25
 801 02c5 3C000000 		.4byte	.LASF25
 802 02c9 04       		.byte	0x4
 803 02ca 35       		.byte	0x35
 804 02cb 1B       		.uleb128 0x1b
 805 02cc 01       		.byte	0x1
 806 02cd 01       		.byte	0x1
 807 02ce CB010000 		.4byte	.LASF26
 808 02d2 CB010000 		.4byte	.LASF26
 809 02d6 04       		.byte	0x4
 810 02d7 36       		.byte	0x36
 811 02d8 1B       		.uleb128 0x1b
 812 02d9 01       		.byte	0x1
 813 02da 01       		.byte	0x1
 814 02db 5B000000 		.4byte	.LASF27
 815 02df 5B000000 		.4byte	.LASF27
 816 02e3 05       		.byte	0x5
 817 02e4 06       		.byte	0x6
 818 02e5 1B       		.uleb128 0x1b
 819 02e6 01       		.byte	0x1
 820 02e7 01       		.byte	0x1
 821 02e8 99010000 		.4byte	.LASF28
 822 02ec 99010000 		.4byte	.LASF28
 823 02f0 06       		.byte	0x6
 824 02f1 0C       		.byte	0xc
 825 02f2 00       		.byte	0
 826              		.section	.debug_abbrev,"",%progbits
 827              	.Ldebug_abbrev0:
 828 0000 01       		.uleb128 0x1
 829 0001 11       		.uleb128 0x11
 830 0002 01       		.byte	0x1
 831 0003 25       		.uleb128 0x25
 832 0004 0E       		.uleb128 0xe
 833 0005 13       		.uleb128 0x13
 834 0006 0B       		.uleb128 0xb
ARM GAS  G:\Users\Jaxb\AppData\Local\Temp\cch2fzHR.s 			page 19


 835 0007 03       		.uleb128 0x3
 836 0008 0E       		.uleb128 0xe
 837 0009 1B       		.uleb128 0x1b
 838 000a 0E       		.uleb128 0xe
 839 000b 11       		.uleb128 0x11
 840 000c 01       		.uleb128 0x1
 841 000d 12       		.uleb128 0x12
 842 000e 01       		.uleb128 0x1
 843 000f 10       		.uleb128 0x10
 844 0010 06       		.uleb128 0x6
 845 0011 00       		.byte	0
 846 0012 00       		.byte	0
 847 0013 02       		.uleb128 0x2
 848 0014 24       		.uleb128 0x24
 849 0015 00       		.byte	0
 850 0016 0B       		.uleb128 0xb
 851 0017 0B       		.uleb128 0xb
 852 0018 3E       		.uleb128 0x3e
 853 0019 0B       		.uleb128 0xb
 854 001a 03       		.uleb128 0x3
 855 001b 0E       		.uleb128 0xe
 856 001c 00       		.byte	0
 857 001d 00       		.byte	0
 858 001e 03       		.uleb128 0x3
 859 001f 24       		.uleb128 0x24
 860 0020 00       		.byte	0
 861 0021 0B       		.uleb128 0xb
 862 0022 0B       		.uleb128 0xb
 863 0023 3E       		.uleb128 0x3e
 864 0024 0B       		.uleb128 0xb
 865 0025 03       		.uleb128 0x3
 866 0026 08       		.uleb128 0x8
 867 0027 00       		.byte	0
 868 0028 00       		.byte	0
 869 0029 04       		.uleb128 0x4
 870 002a 16       		.uleb128 0x16
 871 002b 00       		.byte	0
 872 002c 03       		.uleb128 0x3
 873 002d 0E       		.uleb128 0xe
 874 002e 3A       		.uleb128 0x3a
 875 002f 0B       		.uleb128 0xb
 876 0030 3B       		.uleb128 0x3b
 877 0031 0B       		.uleb128 0xb
 878 0032 49       		.uleb128 0x49
 879 0033 13       		.uleb128 0x13
 880 0034 00       		.byte	0
 881 0035 00       		.byte	0
 882 0036 05       		.uleb128 0x5
 883 0037 26       		.uleb128 0x26
 884 0038 00       		.byte	0
 885 0039 49       		.uleb128 0x49
 886 003a 13       		.uleb128 0x13
 887 003b 00       		.byte	0
 888 003c 00       		.byte	0
 889 003d 06       		.uleb128 0x6
 890 003e 35       		.uleb128 0x35
 891 003f 00       		.byte	0
ARM GAS  G:\Users\Jaxb\AppData\Local\Temp\cch2fzHR.s 			page 20


 892 0040 49       		.uleb128 0x49
 893 0041 13       		.uleb128 0x13
 894 0042 00       		.byte	0
 895 0043 00       		.byte	0
 896 0044 07       		.uleb128 0x7
 897 0045 13       		.uleb128 0x13
 898 0046 01       		.byte	0x1
 899 0047 03       		.uleb128 0x3
 900 0048 0E       		.uleb128 0xe
 901 0049 0B       		.uleb128 0xb
 902 004a 0B       		.uleb128 0xb
 903 004b 3A       		.uleb128 0x3a
 904 004c 0B       		.uleb128 0xb
 905 004d 3B       		.uleb128 0x3b
 906 004e 0B       		.uleb128 0xb
 907 004f 01       		.uleb128 0x1
 908 0050 13       		.uleb128 0x13
 909 0051 00       		.byte	0
 910 0052 00       		.byte	0
 911 0053 08       		.uleb128 0x8
 912 0054 0D       		.uleb128 0xd
 913 0055 00       		.byte	0
 914 0056 03       		.uleb128 0x3
 915 0057 0E       		.uleb128 0xe
 916 0058 3A       		.uleb128 0x3a
 917 0059 0B       		.uleb128 0xb
 918 005a 3B       		.uleb128 0x3b
 919 005b 0B       		.uleb128 0xb
 920 005c 49       		.uleb128 0x49
 921 005d 13       		.uleb128 0x13
 922 005e 38       		.uleb128 0x38
 923 005f 0A       		.uleb128 0xa
 924 0060 00       		.byte	0
 925 0061 00       		.byte	0
 926 0062 09       		.uleb128 0x9
 927 0063 0D       		.uleb128 0xd
 928 0064 00       		.byte	0
 929 0065 03       		.uleb128 0x3
 930 0066 08       		.uleb128 0x8
 931 0067 3A       		.uleb128 0x3a
 932 0068 0B       		.uleb128 0xb
 933 0069 3B       		.uleb128 0x3b
 934 006a 0B       		.uleb128 0xb
 935 006b 49       		.uleb128 0x49
 936 006c 13       		.uleb128 0x13
 937 006d 38       		.uleb128 0x38
 938 006e 0A       		.uleb128 0xa
 939 006f 00       		.byte	0
 940 0070 00       		.byte	0
 941 0071 0A       		.uleb128 0xa
 942 0072 34       		.uleb128 0x34
 943 0073 00       		.byte	0
 944 0074 03       		.uleb128 0x3
 945 0075 0E       		.uleb128 0xe
 946 0076 3A       		.uleb128 0x3a
 947 0077 0B       		.uleb128 0xb
 948 0078 3B       		.uleb128 0x3b
ARM GAS  G:\Users\Jaxb\AppData\Local\Temp\cch2fzHR.s 			page 21


 949 0079 0B       		.uleb128 0xb
 950 007a 49       		.uleb128 0x49
 951 007b 13       		.uleb128 0x13
 952 007c 3F       		.uleb128 0x3f
 953 007d 0C       		.uleb128 0xc
 954 007e 02       		.uleb128 0x2
 955 007f 0A       		.uleb128 0xa
 956 0080 00       		.byte	0
 957 0081 00       		.byte	0
 958 0082 0B       		.uleb128 0xb
 959 0083 34       		.uleb128 0x34
 960 0084 00       		.byte	0
 961 0085 03       		.uleb128 0x3
 962 0086 0E       		.uleb128 0xe
 963 0087 3A       		.uleb128 0x3a
 964 0088 0B       		.uleb128 0xb
 965 0089 3B       		.uleb128 0x3b
 966 008a 0B       		.uleb128 0xb
 967 008b 49       		.uleb128 0x49
 968 008c 13       		.uleb128 0x13
 969 008d 02       		.uleb128 0x2
 970 008e 0A       		.uleb128 0xa
 971 008f 00       		.byte	0
 972 0090 00       		.byte	0
 973 0091 0C       		.uleb128 0xc
 974 0092 01       		.uleb128 0x1
 975 0093 01       		.byte	0x1
 976 0094 49       		.uleb128 0x49
 977 0095 13       		.uleb128 0x13
 978 0096 01       		.uleb128 0x1
 979 0097 13       		.uleb128 0x13
 980 0098 00       		.byte	0
 981 0099 00       		.byte	0
 982 009a 0D       		.uleb128 0xd
 983 009b 21       		.uleb128 0x21
 984 009c 00       		.byte	0
 985 009d 49       		.uleb128 0x49
 986 009e 13       		.uleb128 0x13
 987 009f 2F       		.uleb128 0x2f
 988 00a0 0B       		.uleb128 0xb
 989 00a1 00       		.byte	0
 990 00a2 00       		.byte	0
 991 00a3 0E       		.uleb128 0xe
 992 00a4 2E       		.uleb128 0x2e
 993 00a5 01       		.byte	0x1
 994 00a6 3F       		.uleb128 0x3f
 995 00a7 0C       		.uleb128 0xc
 996 00a8 03       		.uleb128 0x3
 997 00a9 0E       		.uleb128 0xe
 998 00aa 3A       		.uleb128 0x3a
 999 00ab 0B       		.uleb128 0xb
 1000 00ac 3B       		.uleb128 0x3b
 1001 00ad 0B       		.uleb128 0xb
 1002 00ae 27       		.uleb128 0x27
 1003 00af 0C       		.uleb128 0xc
 1004 00b0 49       		.uleb128 0x49
 1005 00b1 13       		.uleb128 0x13
ARM GAS  G:\Users\Jaxb\AppData\Local\Temp\cch2fzHR.s 			page 22


 1006 00b2 11       		.uleb128 0x11
 1007 00b3 01       		.uleb128 0x1
 1008 00b4 12       		.uleb128 0x12
 1009 00b5 01       		.uleb128 0x1
 1010 00b6 40       		.uleb128 0x40
 1011 00b7 06       		.uleb128 0x6
 1012 00b8 9742     		.uleb128 0x2117
 1013 00ba 0C       		.uleb128 0xc
 1014 00bb 01       		.uleb128 0x1
 1015 00bc 13       		.uleb128 0x13
 1016 00bd 00       		.byte	0
 1017 00be 00       		.byte	0
 1018 00bf 0F       		.uleb128 0xf
 1019 00c0 05       		.uleb128 0x5
 1020 00c1 00       		.byte	0
 1021 00c2 03       		.uleb128 0x3
 1022 00c3 0E       		.uleb128 0xe
 1023 00c4 3A       		.uleb128 0x3a
 1024 00c5 0B       		.uleb128 0xb
 1025 00c6 3B       		.uleb128 0x3b
 1026 00c7 0B       		.uleb128 0xb
 1027 00c8 49       		.uleb128 0x49
 1028 00c9 13       		.uleb128 0x13
 1029 00ca 02       		.uleb128 0x2
 1030 00cb 06       		.uleb128 0x6
 1031 00cc 00       		.byte	0
 1032 00cd 00       		.byte	0
 1033 00ce 10       		.uleb128 0x10
 1034 00cf 34       		.uleb128 0x34
 1035 00d0 00       		.byte	0
 1036 00d1 03       		.uleb128 0x3
 1037 00d2 0E       		.uleb128 0xe
 1038 00d3 3A       		.uleb128 0x3a
 1039 00d4 0B       		.uleb128 0xb
 1040 00d5 3B       		.uleb128 0x3b
 1041 00d6 0B       		.uleb128 0xb
 1042 00d7 49       		.uleb128 0x49
 1043 00d8 13       		.uleb128 0x13
 1044 00d9 02       		.uleb128 0x2
 1045 00da 06       		.uleb128 0x6
 1046 00db 00       		.byte	0
 1047 00dc 00       		.byte	0
 1048 00dd 11       		.uleb128 0x11
 1049 00de 898201   		.uleb128 0x4109
 1050 00e1 00       		.byte	0
 1051 00e2 11       		.uleb128 0x11
 1052 00e3 01       		.uleb128 0x1
 1053 00e4 31       		.uleb128 0x31
 1054 00e5 13       		.uleb128 0x13
 1055 00e6 00       		.byte	0
 1056 00e7 00       		.byte	0
 1057 00e8 12       		.uleb128 0x12
 1058 00e9 898201   		.uleb128 0x4109
 1059 00ec 01       		.byte	0x1
 1060 00ed 11       		.uleb128 0x11
 1061 00ee 01       		.uleb128 0x1
 1062 00ef 31       		.uleb128 0x31
ARM GAS  G:\Users\Jaxb\AppData\Local\Temp\cch2fzHR.s 			page 23


 1063 00f0 13       		.uleb128 0x13
 1064 00f1 01       		.uleb128 0x1
 1065 00f2 13       		.uleb128 0x13
 1066 00f3 00       		.byte	0
 1067 00f4 00       		.byte	0
 1068 00f5 13       		.uleb128 0x13
 1069 00f6 8A8201   		.uleb128 0x410a
 1070 00f9 00       		.byte	0
 1071 00fa 02       		.uleb128 0x2
 1072 00fb 0A       		.uleb128 0xa
 1073 00fc 9142     		.uleb128 0x2111
 1074 00fe 0A       		.uleb128 0xa
 1075 00ff 00       		.byte	0
 1076 0100 00       		.byte	0
 1077 0101 14       		.uleb128 0x14
 1078 0102 898201   		.uleb128 0x4109
 1079 0105 01       		.byte	0x1
 1080 0106 11       		.uleb128 0x11
 1081 0107 01       		.uleb128 0x1
 1082 0108 31       		.uleb128 0x31
 1083 0109 13       		.uleb128 0x13
 1084 010a 00       		.byte	0
 1085 010b 00       		.byte	0
 1086 010c 15       		.uleb128 0x15
 1087 010d 0F       		.uleb128 0xf
 1088 010e 00       		.byte	0
 1089 010f 0B       		.uleb128 0xb
 1090 0110 0B       		.uleb128 0xb
 1091 0111 49       		.uleb128 0x49
 1092 0112 13       		.uleb128 0x13
 1093 0113 00       		.byte	0
 1094 0114 00       		.byte	0
 1095 0115 16       		.uleb128 0x16
 1096 0116 2E       		.uleb128 0x2e
 1097 0117 01       		.byte	0x1
 1098 0118 3F       		.uleb128 0x3f
 1099 0119 0C       		.uleb128 0xc
 1100 011a 03       		.uleb128 0x3
 1101 011b 0E       		.uleb128 0xe
 1102 011c 3A       		.uleb128 0x3a
 1103 011d 0B       		.uleb128 0xb
 1104 011e 3B       		.uleb128 0x3b
 1105 011f 0B       		.uleb128 0xb
 1106 0120 27       		.uleb128 0x27
 1107 0121 0C       		.uleb128 0xc
 1108 0122 11       		.uleb128 0x11
 1109 0123 01       		.uleb128 0x1
 1110 0124 12       		.uleb128 0x12
 1111 0125 01       		.uleb128 0x1
 1112 0126 40       		.uleb128 0x40
 1113 0127 06       		.uleb128 0x6
 1114 0128 9742     		.uleb128 0x2117
 1115 012a 0C       		.uleb128 0xc
 1116 012b 01       		.uleb128 0x1
 1117 012c 13       		.uleb128 0x13
 1118 012d 00       		.byte	0
 1119 012e 00       		.byte	0
ARM GAS  G:\Users\Jaxb\AppData\Local\Temp\cch2fzHR.s 			page 24


 1120 012f 17       		.uleb128 0x17
 1121 0130 898201   		.uleb128 0x4109
 1122 0133 00       		.byte	0
 1123 0134 11       		.uleb128 0x11
 1124 0135 01       		.uleb128 0x1
 1125 0136 9542     		.uleb128 0x2115
 1126 0138 0C       		.uleb128 0xc
 1127 0139 31       		.uleb128 0x31
 1128 013a 13       		.uleb128 0x13
 1129 013b 00       		.byte	0
 1130 013c 00       		.byte	0
 1131 013d 18       		.uleb128 0x18
 1132 013e 2E       		.uleb128 0x2e
 1133 013f 00       		.byte	0
 1134 0140 3F       		.uleb128 0x3f
 1135 0141 0C       		.uleb128 0xc
 1136 0142 03       		.uleb128 0x3
 1137 0143 0E       		.uleb128 0xe
 1138 0144 3A       		.uleb128 0x3a
 1139 0145 0B       		.uleb128 0xb
 1140 0146 3B       		.uleb128 0x3b
 1141 0147 0B       		.uleb128 0xb
 1142 0148 27       		.uleb128 0x27
 1143 0149 0C       		.uleb128 0xc
 1144 014a 11       		.uleb128 0x11
 1145 014b 01       		.uleb128 0x1
 1146 014c 12       		.uleb128 0x12
 1147 014d 01       		.uleb128 0x1
 1148 014e 40       		.uleb128 0x40
 1149 014f 06       		.uleb128 0x6
 1150 0150 9742     		.uleb128 0x2117
 1151 0152 0C       		.uleb128 0xc
 1152 0153 00       		.byte	0
 1153 0154 00       		.byte	0
 1154 0155 19       		.uleb128 0x19
 1155 0156 2E       		.uleb128 0x2e
 1156 0157 00       		.byte	0
 1157 0158 3F       		.uleb128 0x3f
 1158 0159 0C       		.uleb128 0xc
 1159 015a 03       		.uleb128 0x3
 1160 015b 0E       		.uleb128 0xe
 1161 015c 3A       		.uleb128 0x3a
 1162 015d 0B       		.uleb128 0xb
 1163 015e 3B       		.uleb128 0x3b
 1164 015f 0B       		.uleb128 0xb
 1165 0160 27       		.uleb128 0x27
 1166 0161 0C       		.uleb128 0xc
 1167 0162 11       		.uleb128 0x11
 1168 0163 01       		.uleb128 0x1
 1169 0164 12       		.uleb128 0x12
 1170 0165 01       		.uleb128 0x1
 1171 0166 40       		.uleb128 0x40
 1172 0167 0A       		.uleb128 0xa
 1173 0168 9742     		.uleb128 0x2117
 1174 016a 0C       		.uleb128 0xc
 1175 016b 00       		.byte	0
 1176 016c 00       		.byte	0
ARM GAS  G:\Users\Jaxb\AppData\Local\Temp\cch2fzHR.s 			page 25


 1177 016d 1A       		.uleb128 0x1a
 1178 016e 34       		.uleb128 0x34
 1179 016f 00       		.byte	0
 1180 0170 03       		.uleb128 0x3
 1181 0171 08       		.uleb128 0x8
 1182 0172 3A       		.uleb128 0x3a
 1183 0173 0B       		.uleb128 0xb
 1184 0174 3B       		.uleb128 0x3b
 1185 0175 0B       		.uleb128 0xb
 1186 0176 49       		.uleb128 0x49
 1187 0177 13       		.uleb128 0x13
 1188 0178 02       		.uleb128 0x2
 1189 0179 06       		.uleb128 0x6
 1190 017a 00       		.byte	0
 1191 017b 00       		.byte	0
 1192 017c 1B       		.uleb128 0x1b
 1193 017d 2E       		.uleb128 0x2e
 1194 017e 00       		.byte	0
 1195 017f 3F       		.uleb128 0x3f
 1196 0180 0C       		.uleb128 0xc
 1197 0181 3C       		.uleb128 0x3c
 1198 0182 0C       		.uleb128 0xc
 1199 0183 8740     		.uleb128 0x2007
 1200 0185 0E       		.uleb128 0xe
 1201 0186 03       		.uleb128 0x3
 1202 0187 0E       		.uleb128 0xe
 1203 0188 3A       		.uleb128 0x3a
 1204 0189 0B       		.uleb128 0xb
 1205 018a 3B       		.uleb128 0x3b
 1206 018b 0B       		.uleb128 0xb
 1207 018c 00       		.byte	0
 1208 018d 00       		.byte	0
 1209 018e 00       		.byte	0
 1210              		.section	.debug_loc,"",%progbits
 1211              	.Ldebug_loc0:
 1212              	.LLST6:
 1213 0000 F4000000 		.4byte	.LFB4-.Ltext0
 1214 0004 F6000000 		.4byte	.LCFI10-.Ltext0
 1215 0008 0200     		.2byte	0x2
 1216 000a 7D       		.byte	0x7d
 1217 000b 00       		.sleb128 0
 1218 000c F6000000 		.4byte	.LCFI10-.Ltext0
 1219 0010 44010000 		.4byte	.LFE4-.Ltext0
 1220 0014 0200     		.2byte	0x2
 1221 0016 7D       		.byte	0x7d
 1222 0017 10       		.sleb128 16
 1223 0018 00000000 		.4byte	0
 1224 001c 00000000 		.4byte	0
 1225              	.LLST7:
 1226 0020 F4000000 		.4byte	.LVL12-.Ltext0
 1227 0024 FD000000 		.4byte	.LVL14-1-.Ltext0
 1228 0028 0100     		.2byte	0x1
 1229 002a 50       		.byte	0x50
 1230 002b FD000000 		.4byte	.LVL14-1-.Ltext0
 1231 002f 24010000 		.4byte	.LVL16-.Ltext0
 1232 0033 0100     		.2byte	0x1
 1233 0035 54       		.byte	0x54
ARM GAS  G:\Users\Jaxb\AppData\Local\Temp\cch2fzHR.s 			page 26


 1234 0036 24010000 		.4byte	.LVL16-.Ltext0
 1235 003a 28010000 		.4byte	.LVL17-.Ltext0
 1236 003e 0100     		.2byte	0x1
 1237 0040 50       		.byte	0x50
 1238 0041 28010000 		.4byte	.LVL17-.Ltext0
 1239 0045 38010000 		.4byte	.LVL20-.Ltext0
 1240 0049 0100     		.2byte	0x1
 1241 004b 54       		.byte	0x54
 1242 004c 38010000 		.4byte	.LVL20-.Ltext0
 1243 0050 44010000 		.4byte	.LFE4-.Ltext0
 1244 0054 0400     		.2byte	0x4
 1245 0056 F3       		.byte	0xf3
 1246 0057 01       		.uleb128 0x1
 1247 0058 50       		.byte	0x50
 1248 0059 9F       		.byte	0x9f
 1249 005a 00000000 		.4byte	0
 1250 005e 00000000 		.4byte	0
 1251              	.LLST8:
 1252 0062 FA000000 		.4byte	.LVL13-.Ltext0
 1253 0066 FE000000 		.4byte	.LVL14-.Ltext0
 1254 006a 0200     		.2byte	0x2
 1255 006c 30       		.byte	0x30
 1256 006d 9F       		.byte	0x9f
 1257 006e FE000000 		.4byte	.LVL14-.Ltext0
 1258 0072 1F010000 		.4byte	.LVL15-1-.Ltext0
 1259 0076 0100     		.2byte	0x1
 1260 0078 50       		.byte	0x50
 1261 0079 00000000 		.4byte	0
 1262 007d 00000000 		.4byte	0
 1263              	.LLST4:
 1264 0081 B8000000 		.4byte	.LFB3-.Ltext0
 1265 0085 BA000000 		.4byte	.LCFI6-.Ltext0
 1266 0089 0200     		.2byte	0x2
 1267 008b 7D       		.byte	0x7d
 1268 008c 00       		.sleb128 0
 1269 008d BA000000 		.4byte	.LCFI6-.Ltext0
 1270 0091 BC000000 		.4byte	.LCFI7-.Ltext0
 1271 0095 0200     		.2byte	0x2
 1272 0097 7D       		.byte	0x7d
 1273 0098 14       		.sleb128 20
 1274 0099 BC000000 		.4byte	.LCFI7-.Ltext0
 1275 009d E4000000 		.4byte	.LCFI8-.Ltext0
 1276 00a1 0200     		.2byte	0x2
 1277 00a3 7D       		.byte	0x7d
 1278 00a4 28       		.sleb128 40
 1279 00a5 E4000000 		.4byte	.LCFI8-.Ltext0
 1280 00a9 E8000000 		.4byte	.LCFI9-.Ltext0
 1281 00ad 0200     		.2byte	0x2
 1282 00af 7D       		.byte	0x7d
 1283 00b0 14       		.sleb128 20
 1284 00b1 E8000000 		.4byte	.LCFI9-.Ltext0
 1285 00b5 F4000000 		.4byte	.LFE3-.Ltext0
 1286 00b9 0200     		.2byte	0x2
 1287 00bb 7D       		.byte	0x7d
 1288 00bc 00       		.sleb128 0
 1289 00bd 00000000 		.4byte	0
 1290 00c1 00000000 		.4byte	0
ARM GAS  G:\Users\Jaxb\AppData\Local\Temp\cch2fzHR.s 			page 27


 1291              	.LLST5:
 1292 00c5 B8000000 		.4byte	.LVL5-.Ltext0
 1293 00c9 C2000000 		.4byte	.LVL7-.Ltext0
 1294 00cd 0200     		.2byte	0x2
 1295 00cf 30       		.byte	0x30
 1296 00d0 9F       		.byte	0x9f
 1297 00d1 C2000000 		.4byte	.LVL7-.Ltext0
 1298 00d5 C6000000 		.4byte	.LVL8-.Ltext0
 1299 00d9 0100     		.2byte	0x1
 1300 00db 50       		.byte	0x50
 1301 00dc C6000000 		.4byte	.LVL8-.Ltext0
 1302 00e0 E8000000 		.4byte	.LVL10-.Ltext0
 1303 00e4 0100     		.2byte	0x1
 1304 00e6 55       		.byte	0x55
 1305 00e7 E8000000 		.4byte	.LVL10-.Ltext0
 1306 00eb EB000000 		.4byte	.LVL11-1-.Ltext0
 1307 00ef 0100     		.2byte	0x1
 1308 00f1 50       		.byte	0x50
 1309 00f2 00000000 		.4byte	0
 1310 00f6 00000000 		.4byte	0
 1311              	.LLST3:
 1312 00fa 34000000 		.4byte	.LFB2-.Ltext0
 1313 00fe 36000000 		.4byte	.LCFI1-.Ltext0
 1314 0102 0200     		.2byte	0x2
 1315 0104 7D       		.byte	0x7d
 1316 0105 00       		.sleb128 0
 1317 0106 36000000 		.4byte	.LCFI1-.Ltext0
 1318 010a 46000000 		.4byte	.LCFI2-.Ltext0
 1319 010e 0200     		.2byte	0x2
 1320 0110 7D       		.byte	0x7d
 1321 0111 08       		.sleb128 8
 1322 0112 46000000 		.4byte	.LCFI2-.Ltext0
 1323 0116 48000000 		.4byte	.LCFI3-.Ltext0
 1324 011a 0200     		.2byte	0x2
 1325 011c 7D       		.byte	0x7d
 1326 011d 00       		.sleb128 0
 1327 011e 48000000 		.4byte	.LCFI3-.Ltext0
 1328 0122 5A000000 		.4byte	.LCFI4-.Ltext0
 1329 0126 0200     		.2byte	0x2
 1330 0128 7D       		.byte	0x7d
 1331 0129 08       		.sleb128 8
 1332 012a 5A000000 		.4byte	.LCFI4-.Ltext0
 1333 012e 5C000000 		.4byte	.LCFI5-.Ltext0
 1334 0132 0200     		.2byte	0x2
 1335 0134 7D       		.byte	0x7d
 1336 0135 00       		.sleb128 0
 1337 0136 5C000000 		.4byte	.LCFI5-.Ltext0
 1338 013a B8000000 		.4byte	.LFE2-.Ltext0
 1339 013e 0200     		.2byte	0x2
 1340 0140 7D       		.byte	0x7d
 1341 0141 08       		.sleb128 8
 1342 0142 00000000 		.4byte	0
 1343 0146 00000000 		.4byte	0
 1344              	.LLST0:
 1345 014a 00000000 		.4byte	.LFB0-.Ltext0
 1346 014e 02000000 		.4byte	.LCFI0-.Ltext0
 1347 0152 0200     		.2byte	0x2
ARM GAS  G:\Users\Jaxb\AppData\Local\Temp\cch2fzHR.s 			page 28


 1348 0154 7D       		.byte	0x7d
 1349 0155 00       		.sleb128 0
 1350 0156 02000000 		.4byte	.LCFI0-.Ltext0
 1351 015a 1C000000 		.4byte	.LFE0-.Ltext0
 1352 015e 0200     		.2byte	0x2
 1353 0160 7D       		.byte	0x7d
 1354 0161 10       		.sleb128 16
 1355 0162 00000000 		.4byte	0
 1356 0166 00000000 		.4byte	0
 1357              	.LLST1:
 1358 016a 0C000000 		.4byte	.LVL2-.Ltext0
 1359 016e 16000000 		.4byte	.LVL4-.Ltext0
 1360 0172 0600     		.2byte	0x6
 1361 0174 54       		.byte	0x54
 1362 0175 93       		.byte	0x93
 1363 0176 04       		.uleb128 0x4
 1364 0177 55       		.byte	0x55
 1365 0178 93       		.byte	0x93
 1366 0179 04       		.uleb128 0x4
 1367 017a 00000000 		.4byte	0
 1368 017e 00000000 		.4byte	0
 1369              	.LLST2:
 1370 0182 00000000 		.4byte	.LVL0-.Ltext0
 1371 0186 06000000 		.4byte	.LVL1-.Ltext0
 1372 018a 0200     		.2byte	0x2
 1373 018c 30       		.byte	0x30
 1374 018d 9F       		.byte	0x9f
 1375 018e 06000000 		.4byte	.LVL1-.Ltext0
 1376 0192 0F000000 		.4byte	.LVL3-1-.Ltext0
 1377 0196 0100     		.2byte	0x1
 1378 0198 50       		.byte	0x50
 1379 0199 00000000 		.4byte	0
 1380 019d 00000000 		.4byte	0
 1381              		.section	.debug_aranges,"",%progbits
 1382 0000 1C000000 		.4byte	0x1c
 1383 0004 0200     		.2byte	0x2
 1384 0006 00000000 		.4byte	.Ldebug_info0
 1385 000a 04       		.byte	0x4
 1386 000b 00       		.byte	0
 1387 000c 0000     		.2byte	0
 1388 000e 0000     		.2byte	0
 1389 0010 00000000 		.4byte	.Ltext0
 1390 0014 44010000 		.4byte	.Letext0-.Ltext0
 1391 0018 00000000 		.4byte	0
 1392 001c 00000000 		.4byte	0
 1393              		.section	.debug_line,"",%progbits
 1394              	.Ldebug_line0:
 1395 0000 6E010000 		.section	.debug_str,"MS",%progbits,1
 1395      0200E200 
 1395      00000201 
 1395      FB0E0D00 
 1395      01010101 
 1396              	.LASF2:
 1397 0000 6C6F6E67 		.ascii	"long long int\000"
 1397      206C6F6E 
 1397      6720696E 
 1397      7400
ARM GAS  G:\Users\Jaxb\AppData\Local\Temp\cch2fzHR.s 			page 29


 1398              	.LASF18:
 1399 000e 7379735F 		.ascii	"sys_time\000"
 1399      74696D65 
 1399      00
 1400              	.LASF4:
 1401 0017 55494E54 		.ascii	"UINT8\000"
 1401      3800
 1402              	.LASF7:
 1403 001d 756E7369 		.ascii	"unsigned int\000"
 1403      676E6564 
 1403      20696E74 
 1403      00
 1404              	.LASF23:
 1405 002a 7365745F 		.ascii	"set_time\000"
 1405      74696D65 
 1405      00
 1406              	.LASF34:
 1407 0033 74696D65 		.ascii	"time_ptr\000"
 1407      5F707472 
 1407      00
 1408              	.LASF25:
 1409 003c 4350555F 		.ascii	"CPU_SR_Save\000"
 1409      53525F53 
 1409      61766500 
 1410              	.LASF22:
 1411 0048 5F5F696E 		.ascii	"__init_system_time\000"
 1411      69745F73 
 1411      79737465 
 1411      6D5F7469 
 1411      6D6500
 1412              	.LASF27:
 1413 005b 5F415353 		.ascii	"_ASSERT\000"
 1413      45525400 
 1414              	.LASF14:
 1415 0063 6D6F6E74 		.ascii	"month\000"
 1415      6800
 1416              	.LASF9:
 1417 0069 6C6F6E67 		.ascii	"long long unsigned int\000"
 1417      206C6F6E 
 1417      6720756E 
 1417      7369676E 
 1417      65642069 
 1418              	.LASF32:
 1419 0080 74696D65 		.ascii	"time\000"
 1419      00
 1420              	.LASF30:
 1421 0085 2E2E2F2E 		.ascii	"../../source/src/user/OS_CORE/os_time.c\000"
 1421      2E2F736F 
 1421      75726365 
 1421      2F737263 
 1421      2F757365 
 1422              	.LASF33:
 1423 00ad 675F7469 		.ascii	"g_time_tick_count\000"
 1423      6D655F74 
 1423      69636B5F 
 1423      636F756E 
 1423      7400
ARM GAS  G:\Users\Jaxb\AppData\Local\Temp\cch2fzHR.s 			page 30


 1424              	.LASF8:
 1425 00bf 55494E54 		.ascii	"UINT64\000"
 1425      363400
 1426              	.LASF19:
 1427 00c6 6D6F6E74 		.ascii	"month_date_table\000"
 1427      685F6461 
 1427      74655F74 
 1427      61626C65 
 1427      00
 1428              	.LASF3:
 1429 00d7 756E7369 		.ascii	"unsigned char\000"
 1429      676E6564 
 1429      20636861 
 1429      7200
 1430              	.LASF24:
 1431 00e5 6765745F 		.ascii	"get_tick\000"
 1431      7469636B 
 1431      00
 1432              	.LASF21:
 1433 00ee 73797374 		.ascii	"system_time_increase\000"
 1433      656D5F74 
 1433      696D655F 
 1433      696E6372 
 1433      65617365 
 1434              	.LASF20:
 1435 0103 6370755F 		.ascii	"cpu_sr\000"
 1435      737200
 1436              	.LASF13:
 1437 010a 64617465 		.ascii	"date\000"
 1437      00
 1438              	.LASF31:
 1439 010f 473A5C55 		.ascii	"G:\\Users\\Jaxb\\Desktop\\KAKAOS-0.07  2019.2.21  f"
 1439      73657273 
 1439      5C4A6178 
 1439      625C4465 
 1439      736B746F 
 1440 013e 6F722067 		.ascii	"or gcc\\Project\\RVMDK\243\250uv5\243\251\000"
 1440      63635C50 
 1440      726F6A65 
 1440      63745C52 
 1440      564D444B 
 1441              	.LASF35:
 1442 015a 73797374 		.ascii	"system_time_display\000"
 1442      656D5F74 
 1442      696D655F 
 1442      64697370 
 1442      6C617900 
 1443              	.LASF15:
 1444 016e 79656172 		.ascii	"year\000"
 1444      00
 1445              	.LASF6:
 1446 0173 73686F72 		.ascii	"short unsigned int\000"
 1446      7420756E 
 1446      7369676E 
 1446      65642069 
 1446      6E7400
 1447              	.LASF0:
ARM GAS  G:\Users\Jaxb\AppData\Local\Temp\cch2fzHR.s 			page 31


 1448 0186 7369676E 		.ascii	"signed char\000"
 1448      65642063 
 1448      68617200 
 1449              	.LASF10:
 1450 0192 7365636F 		.ascii	"second\000"
 1450      6E6400
 1451              	.LASF28:
 1452 0199 6B615F70 		.ascii	"ka_printf\000"
 1452      72696E74 
 1452      6600
 1453              	.LASF12:
 1454 01a3 686F7572 		.ascii	"hour\000"
 1454      00
 1455              	.LASF17:
 1456 01a8 4350555F 		.ascii	"CPU_SR\000"
 1456      535200
 1457              	.LASF11:
 1458 01af 6D696E75 		.ascii	"minute\000"
 1458      746500
 1459              	.LASF16:
 1460 01b6 4350555F 		.ascii	"CPU_INT32U\000"
 1460      494E5433 
 1460      325500
 1461              	.LASF1:
 1462 01c1 73686F72 		.ascii	"short int\000"
 1462      7420696E 
 1462      7400
 1463              	.LASF26:
 1464 01cb 4350555F 		.ascii	"CPU_SR_Restore\000"
 1464      53525F52 
 1464      6573746F 
 1464      726500
 1465              	.LASF29:
 1466 01da 474E5520 		.ascii	"GNU C11 7.3.1 20180622 (release) [ARM/embedded-7-br"
 1466      43313120 
 1466      372E332E 
 1466      31203230 
 1466      31383036 
 1467 020d 616E6368 		.ascii	"anch revision 261907] -mcpu=cortex-m3 -mthumb -mapc"
 1467      20726576 
 1467      6973696F 
 1467      6E203236 
 1467      31393037 
 1468 0240 732D6672 		.ascii	"s-frame -mthumb-interwork -mcpu=cortex-m3 -mthumb -"
 1468      616D6520 
 1468      2D6D7468 
 1468      756D622D 
 1468      696E7465 
 1469 0273 67647761 		.ascii	"gdwarf-2 -O2\000"
 1469      72662D32 
 1469      202D4F32 
 1469      00
 1470              	.LASF5:
 1471 0280 55494E54 		.ascii	"UINT16\000"
 1471      313600
 1472              		.ident	"GCC: (GNU Tools for Arm Embedded Processors 7-2018-q2-update) 7.3.1 20180622 (release) [AR
ARM GAS  G:\Users\Jaxb\AppData\Local\Temp\cch2fzHR.s 			page 32


DEFINED SYMBOLS
                            *ABS*:00000000 os_time.c
G:\Users\Jaxb\AppData\Local\Temp\cch2fzHR.s:15     .text:00000000 $t
G:\Users\Jaxb\AppData\Local\Temp\cch2fzHR.s:23     .text:00000000 get_tick
G:\Users\Jaxb\AppData\Local\Temp\cch2fzHR.s:56     .text:00000018 $d
G:\Users\Jaxb\AppData\Local\Temp\cch2fzHR.s:60     .text:0000001c $t
G:\Users\Jaxb\AppData\Local\Temp\cch2fzHR.s:68     .text:0000001c __init_system_time
G:\Users\Jaxb\AppData\Local\Temp\cch2fzHR.s:86     .text:00000028 $d
G:\Users\Jaxb\AppData\Local\Temp\cch2fzHR.s:92     .text:00000034 $t
G:\Users\Jaxb\AppData\Local\Temp\cch2fzHR.s:100    .text:00000034 system_time_increase
G:\Users\Jaxb\AppData\Local\Temp\cch2fzHR.s:235    .text:000000b0 $d
G:\Users\Jaxb\AppData\Local\Temp\cch2fzHR.s:240    .text:000000b8 $t
G:\Users\Jaxb\AppData\Local\Temp\cch2fzHR.s:248    .text:000000b8 system_time_display
G:\Users\Jaxb\AppData\Local\Temp\cch2fzHR.s:309    .text:000000ec $d
G:\Users\Jaxb\AppData\Local\Temp\cch2fzHR.s:314    .text:000000f4 $t
G:\Users\Jaxb\AppData\Local\Temp\cch2fzHR.s:322    .text:000000f4 set_time
G:\Users\Jaxb\AppData\Local\Temp\cch2fzHR.s:399    .text:00000138 $d
G:\Users\Jaxb\AppData\Local\Temp\cch2fzHR.s:429    .bss:00000000 g_time_tick_count
G:\Users\Jaxb\AppData\Local\Temp\cch2fzHR.s:407    .rodata:00000000 $d
G:\Users\Jaxb\AppData\Local\Temp\cch2fzHR.s:411    .rodata:00000000 month_date_table
G:\Users\Jaxb\AppData\Local\Temp\cch2fzHR.s:425    .bss:00000000 $d
G:\Users\Jaxb\AppData\Local\Temp\cch2fzHR.s:433    .bss:00000008 sys_time
G:\Users\Jaxb\AppData\Local\Temp\cch2fzHR.s:436    .rodata.str1.4:00000000 $d

UNDEFINED SYMBOLS
CPU_SR_Save
CPU_SR_Restore
ka_printf
_ASSERT
