ARM GAS  G:\Users\Jaxb\AppData\Local\Temp\ccJKnjOK.s 			page 1


   1              		.cpu cortex-m3
   2              		.eabi_attribute 20, 1
   3              		.eabi_attribute 21, 1
   4              		.eabi_attribute 23, 3
   5              		.eabi_attribute 24, 1
   6              		.eabi_attribute 25, 1
   7              		.eabi_attribute 26, 1
   8              		.eabi_attribute 30, 6
   9              		.eabi_attribute 34, 1
  10              		.eabi_attribute 18, 4
  11              		.file	"os_time.c"
  12              		.text
  13              	.Ltext0:
  14              		.cfi_sections	.debug_frame
  15              		.global	g_time_tick_count
  16              		.bss
  17              		.align	3
  18              		.type	g_time_tick_count, %object
  19              		.size	g_time_tick_count, 8
  20              	g_time_tick_count:
  21 0000 00000000 		.space	8
  21      00000000 
  22              		.text
  23              		.align	1
  24              		.global	_get_tick
  25              		.syntax unified
  26              		.thumb
  27              		.thumb_func
  28              		.fpu softvfp
  29              		.type	_get_tick, %function
  30              	_get_tick:
  31              	.LFB0:
  32              		.file 1 "../../source/src/kernel/OS_CORE/time/os_time.c"
   1:../../source/src/kernel/OS_CORE/time/os_time.c **** #include <os_time.h>
   2:../../source/src/kernel/OS_CORE/time/os_time.c **** #include <os_cpu.h>
   3:../../source/src/kernel/OS_CORE/time/os_time.c **** #include <myMicroLIB.h>
   4:../../source/src/kernel/OS_CORE/time/os_time.c **** #include <myassert.h>
   5:../../source/src/kernel/OS_CORE/time/os_time.c **** #include <os_error.h>
   6:../../source/src/kernel/OS_CORE/time/os_time.c **** #include <export.h>
   7:../../source/src/kernel/OS_CORE/time/os_time.c **** 
   8:../../source/src/kernel/OS_CORE/time/os_time.c **** volatile UINT64 g_time_tick_count = 0;
   9:../../source/src/kernel/OS_CORE/time/os_time.c **** 
  10:../../source/src/kernel/OS_CORE/time/os_time.c **** UINT64 _get_tick(void)
  11:../../source/src/kernel/OS_CORE/time/os_time.c **** {
  33              		.loc 1 11 0
  34              		.cfi_startproc
  35              		@ args = 0, pretend = 0, frame = 8
  36              		@ frame_needed = 1, uses_anonymous_args = 0
  37              		@ link register save eliminated.
  38 0000 90B4     		push	{r4, r7}
  39              	.LCFI0:
  40              		.cfi_def_cfa_offset 8
  41              		.cfi_offset 4, -8
  42              		.cfi_offset 7, -4
  43 0002 82B0     		sub	sp, sp, #8
  44              	.LCFI1:
  45              		.cfi_def_cfa_offset 16
ARM GAS  G:\Users\Jaxb\AppData\Local\Temp\ccJKnjOK.s 			page 2


  46 0004 00AF     		add	r7, sp, #0
  47              	.LCFI2:
  48              		.cfi_def_cfa_register 7
  12:../../source/src/kernel/OS_CORE/time/os_time.c **** 	UINT64 num;
  13:../../source/src/kernel/OS_CORE/time/os_time.c **** 	num = g_time_tick_count;
  49              		.loc 1 13 0
  50 0006 064B     		ldr	r3, .L3
  51 0008 18CB     		ldmia	r3, {r3-r4}
  52 000a C7E90034 		strd	r3, [r7]
  14:../../source/src/kernel/OS_CORE/time/os_time.c **** 	return num;
  53              		.loc 1 14 0
  54 000e D7E90034 		ldrd	r3, [r7]
  15:../../source/src/kernel/OS_CORE/time/os_time.c **** }
  55              		.loc 1 15 0
  56 0012 1846     		mov	r0, r3
  57 0014 2146     		mov	r1, r4
  58 0016 0837     		adds	r7, r7, #8
  59              	.LCFI3:
  60              		.cfi_def_cfa_offset 8
  61 0018 BD46     		mov	sp, r7
  62              	.LCFI4:
  63              		.cfi_def_cfa_register 13
  64              		@ sp needed
  65 001a 90BC     		pop	{r4, r7}
  66              	.LCFI5:
  67              		.cfi_restore 7
  68              		.cfi_restore 4
  69              		.cfi_def_cfa_offset 0
  70 001c 7047     		bx	lr
  71              	.L4:
  72 001e 00BF     		.align	2
  73              	.L3:
  74 0020 00000000 		.word	g_time_tick_count
  75              		.cfi_endproc
  76              	.LFE0:
  77              		.size	_get_tick, .-_get_tick
  78              		.align	1
  79              		.global	get_tick
  80              		.syntax unified
  81              		.thumb
  82              		.thumb_func
  83              		.fpu softvfp
  84              		.type	get_tick, %function
  85              	get_tick:
  86              	.LFB1:
  16:../../source/src/kernel/OS_CORE/time/os_time.c **** 
  17:../../source/src/kernel/OS_CORE/time/os_time.c **** UINT64 get_tick(void)
  18:../../source/src/kernel/OS_CORE/time/os_time.c **** {
  87              		.loc 1 18 0
  88              		.cfi_startproc
  89              		@ args = 0, pretend = 0, frame = 0
  90              		@ frame_needed = 1, uses_anonymous_args = 0
  91 0024 98B5     		push	{r3, r4, r7, lr}
  92              	.LCFI6:
  93              		.cfi_def_cfa_offset 16
  94              		.cfi_offset 3, -16
  95              		.cfi_offset 4, -12
ARM GAS  G:\Users\Jaxb\AppData\Local\Temp\ccJKnjOK.s 			page 3


  96              		.cfi_offset 7, -8
  97              		.cfi_offset 14, -4
  98 0026 00AF     		add	r7, sp, #0
  99              	.LCFI7:
 100              		.cfi_def_cfa_register 7
  19:../../source/src/kernel/OS_CORE/time/os_time.c **** 	return _get_tick();
 101              		.loc 1 19 0
 102 0028 FFF7FEFF 		bl	_get_tick
 103 002c 0346     		mov	r3, r0
 104 002e 0C46     		mov	r4, r1
  20:../../source/src/kernel/OS_CORE/time/os_time.c **** }
 105              		.loc 1 20 0
 106 0030 1846     		mov	r0, r3
 107 0032 2146     		mov	r1, r4
 108 0034 98BD     		pop	{r3, r4, r7, pc}
 109              		.cfi_endproc
 110              	.LFE1:
 111              		.size	get_tick, .-get_tick
 112              		.global	__rtmsym_get_tick_name
 113              		.section	.rodata.name,"a",%progbits
 114              		.align	2
 115              		.type	__rtmsym_get_tick_name, %object
 116              		.size	__rtmsym_get_tick_name, 9
 117              	__rtmsym_get_tick_name:
 118 0000 6765745F 		.ascii	"get_tick\000"
 118      7469636B 
 118      00
 119              		.global	__rtmsym_get_tick
 120              		.section	.RTMSymTab,"a",%progbits
 121              		.align	2
 122              		.type	__rtmsym_get_tick, %object
 123              		.size	__rtmsym_get_tick, 8
 124              	__rtmsym_get_tick:
 125 0000 00000000 		.word	get_tick
 126 0004 00000000 		.word	__rtmsym_get_tick_name
 127              		.bss
 128              		.align	2
 129              	sys_time:
 130 0008 00000000 		.space	8
 130      00000000 
 131              		.size	sys_time, 8
 132              		.section	.rodata
 133              		.align	2
 134              		.type	month_date_table, %object
 135              		.size	month_date_table, 12
 136              	month_date_table:
 137 0000 1F       		.byte	31
 138 0001 1C       		.byte	28
 139 0002 1F       		.byte	31
 140 0003 1E       		.byte	30
 141 0004 1F       		.byte	31
 142 0005 1E       		.byte	30
 143 0006 1F       		.byte	31
 144 0007 1F       		.byte	31
 145 0008 1E       		.byte	30
 146 0009 1F       		.byte	31
 147 000a 1E       		.byte	30
ARM GAS  G:\Users\Jaxb\AppData\Local\Temp\ccJKnjOK.s 			page 4


 148 000b 1F       		.byte	31
 149              		.text
 150              		.align	1
 151              		.global	__init_system_time
 152              		.syntax unified
 153              		.thumb
 154              		.thumb_func
 155              		.fpu softvfp
 156              		.type	__init_system_time, %function
 157              	__init_system_time:
 158              	.LFB2:
  21:../../source/src/kernel/OS_CORE/time/os_time.c **** EXPORT_SYMBOL(get_tick);
  22:../../source/src/kernel/OS_CORE/time/os_time.c **** 
  23:../../source/src/kernel/OS_CORE/time/os_time.c **** #if CONFIG_TIME_EN
  24:../../source/src/kernel/OS_CORE/time/os_time.c **** 
  25:../../source/src/kernel/OS_CORE/time/os_time.c **** static struct time sys_time;
  26:../../source/src/kernel/OS_CORE/time/os_time.c **** 
  27:../../source/src/kernel/OS_CORE/time/os_time.c **** static const UINT8 month_date_table[] = {
  28:../../source/src/kernel/OS_CORE/time/os_time.c **** 	31, /*January*/
  29:../../source/src/kernel/OS_CORE/time/os_time.c **** 	28, /*Feburary*/
  30:../../source/src/kernel/OS_CORE/time/os_time.c **** 	31, /*March*/
  31:../../source/src/kernel/OS_CORE/time/os_time.c **** 	30, /*April*/
  32:../../source/src/kernel/OS_CORE/time/os_time.c **** 	31, /*May*/
  33:../../source/src/kernel/OS_CORE/time/os_time.c **** 	30, /*June*/
  34:../../source/src/kernel/OS_CORE/time/os_time.c **** 	31, /*July*/
  35:../../source/src/kernel/OS_CORE/time/os_time.c **** 	31, /*August*/
  36:../../source/src/kernel/OS_CORE/time/os_time.c **** 	30, /*September*/
  37:../../source/src/kernel/OS_CORE/time/os_time.c **** 	31, /*October*/
  38:../../source/src/kernel/OS_CORE/time/os_time.c **** 	30, /*November*/
  39:../../source/src/kernel/OS_CORE/time/os_time.c **** 	31  /*December*/
  40:../../source/src/kernel/OS_CORE/time/os_time.c **** };
  41:../../source/src/kernel/OS_CORE/time/os_time.c **** 
  42:../../source/src/kernel/OS_CORE/time/os_time.c **** void 
  43:../../source/src/kernel/OS_CORE/time/os_time.c **** __init_system_time(void)
  44:../../source/src/kernel/OS_CORE/time/os_time.c **** {
 159              		.loc 1 44 0
 160              		.cfi_startproc
 161              		@ args = 0, pretend = 0, frame = 0
 162              		@ frame_needed = 1, uses_anonymous_args = 0
 163              		@ link register save eliminated.
 164 0036 80B4     		push	{r7}
 165              	.LCFI8:
 166              		.cfi_def_cfa_offset 4
 167              		.cfi_offset 7, -4
 168 0038 00AF     		add	r7, sp, #0
 169              	.LCFI9:
 170              		.cfi_def_cfa_register 7
  45:../../source/src/kernel/OS_CORE/time/os_time.c **** 	sys_time.date    =  OS_DATE;
 171              		.loc 1 45 0
 172 003a 0D4B     		ldr	r3, .L8
 173 003c 0522     		movs	r2, #5
 174 003e DA70     		strb	r2, [r3, #3]
  46:../../source/src/kernel/OS_CORE/time/os_time.c **** 	sys_time.hour    =  OS_HOUR;
 175              		.loc 1 46 0
 176 0040 0B4B     		ldr	r3, .L8
 177 0042 0B22     		movs	r2, #11
 178 0044 9A70     		strb	r2, [r3, #2]
ARM GAS  G:\Users\Jaxb\AppData\Local\Temp\ccJKnjOK.s 			page 5


  47:../../source/src/kernel/OS_CORE/time/os_time.c **** 	sys_time.minute  = 	OS_MINUTE;
 179              		.loc 1 47 0
 180 0046 0A4B     		ldr	r3, .L8
 181 0048 1622     		movs	r2, #22
 182 004a 5A70     		strb	r2, [r3, #1]
  48:../../source/src/kernel/OS_CORE/time/os_time.c **** 	sys_time.month   =  OS_MONTH;
 183              		.loc 1 48 0
 184 004c 084B     		ldr	r3, .L8
 185 004e 0A22     		movs	r2, #10
 186 0050 1A71     		strb	r2, [r3, #4]
  49:../../source/src/kernel/OS_CORE/time/os_time.c **** 	sys_time.second  = 	OS_SECOND;
 187              		.loc 1 49 0
 188 0052 074B     		ldr	r3, .L8
 189 0054 0022     		movs	r2, #0
 190 0056 1A70     		strb	r2, [r3]
  50:../../source/src/kernel/OS_CORE/time/os_time.c **** 	sys_time.year    =  OS_YEAR;
 191              		.loc 1 50 0
 192 0058 054B     		ldr	r3, .L8
 193 005a 40F2E272 		movw	r2, #2018
 194 005e DA80     		strh	r2, [r3, #6]	@ movhi
  51:../../source/src/kernel/OS_CORE/time/os_time.c **** 	sys_time.day     =  OS_DAY;
 195              		.loc 1 51 0
 196 0060 034B     		ldr	r3, .L8
 197 0062 0522     		movs	r2, #5
 198 0064 5A71     		strb	r2, [r3, #5]
  52:../../source/src/kernel/OS_CORE/time/os_time.c **** }
 199              		.loc 1 52 0
 200 0066 00BF     		nop
 201 0068 BD46     		mov	sp, r7
 202              	.LCFI10:
 203              		.cfi_def_cfa_register 13
 204              		@ sp needed
 205 006a 80BC     		pop	{r7}
 206              	.LCFI11:
 207              		.cfi_restore 7
 208              		.cfi_def_cfa_offset 0
 209 006c 7047     		bx	lr
 210              	.L9:
 211 006e 00BF     		.align	2
 212              	.L8:
 213 0070 08000000 		.word	sys_time
 214              		.cfi_endproc
 215              	.LFE2:
 216              		.size	__init_system_time, .-__init_system_time
 217              		.align	1
 218              		.global	_system_time_increase
 219              		.syntax unified
 220              		.thumb
 221              		.thumb_func
 222              		.fpu softvfp
 223              		.type	_system_time_increase, %function
 224              	_system_time_increase:
 225              	.LFB3:
  53:../../source/src/kernel/OS_CORE/time/os_time.c **** 
  54:../../source/src/kernel/OS_CORE/time/os_time.c **** 
  55:../../source/src/kernel/OS_CORE/time/os_time.c **** /**
  56:../../source/src/kernel/OS_CORE/time/os_time.c ****  * This is a system function
ARM GAS  G:\Users\Jaxb\AppData\Local\Temp\ccJKnjOK.s 			page 6


  57:../../source/src/kernel/OS_CORE/time/os_time.c ****  * @Author      kaka
  58:../../source/src/kernel/OS_CORE/time/os_time.c ****  * @DateTime    2018-10-12
  59:../../source/src/kernel/OS_CORE/time/os_time.c ****  * @description : this function can only be used by os
  60:../../source/src/kernel/OS_CORE/time/os_time.c ****  */
  61:../../source/src/kernel/OS_CORE/time/os_time.c **** void 
  62:../../source/src/kernel/OS_CORE/time/os_time.c **** _system_time_increase(void)
  63:../../source/src/kernel/OS_CORE/time/os_time.c **** {
 226              		.loc 1 63 0
 227              		.cfi_startproc
 228              		@ args = 0, pretend = 0, frame = 0
 229              		@ frame_needed = 1, uses_anonymous_args = 0
 230              		@ link register save eliminated.
 231 0074 80B4     		push	{r7}
 232              	.LCFI12:
 233              		.cfi_def_cfa_offset 4
 234              		.cfi_offset 7, -4
 235 0076 00AF     		add	r7, sp, #0
 236              	.LCFI13:
 237              		.cfi_def_cfa_register 7
  64:../../source/src/kernel/OS_CORE/time/os_time.c **** 	++sys_time.second;
 238              		.loc 1 64 0
 239 0078 2E4B     		ldr	r3, .L14
 240 007a 1B78     		ldrb	r3, [r3]	@ zero_extendqisi2
 241 007c 0133     		adds	r3, r3, #1
 242 007e DAB2     		uxtb	r2, r3
 243 0080 2C4B     		ldr	r3, .L14
 244 0082 1A70     		strb	r2, [r3]
  65:../../source/src/kernel/OS_CORE/time/os_time.c **** 	if(60 == sys_time.second)
 245              		.loc 1 65 0
 246 0084 2B4B     		ldr	r3, .L14
 247 0086 1B78     		ldrb	r3, [r3]	@ zero_extendqisi2
 248 0088 3C2B     		cmp	r3, #60
 249 008a 4ED1     		bne	.L13
  66:../../source/src/kernel/OS_CORE/time/os_time.c **** 	{
  67:../../source/src/kernel/OS_CORE/time/os_time.c **** 		sys_time.second = 0;
 250              		.loc 1 67 0
 251 008c 294B     		ldr	r3, .L14
 252 008e 0022     		movs	r2, #0
 253 0090 1A70     		strb	r2, [r3]
  68:../../source/src/kernel/OS_CORE/time/os_time.c **** 		++sys_time.minute;
 254              		.loc 1 68 0
 255 0092 284B     		ldr	r3, .L14
 256 0094 5B78     		ldrb	r3, [r3, #1]	@ zero_extendqisi2
 257 0096 0133     		adds	r3, r3, #1
 258 0098 DAB2     		uxtb	r2, r3
 259 009a 264B     		ldr	r3, .L14
 260 009c 5A70     		strb	r2, [r3, #1]
  69:../../source/src/kernel/OS_CORE/time/os_time.c **** 		if(60 == sys_time.minute)
 261              		.loc 1 69 0
 262 009e 254B     		ldr	r3, .L14
 263 00a0 5B78     		ldrb	r3, [r3, #1]	@ zero_extendqisi2
 264 00a2 3C2B     		cmp	r3, #60
 265 00a4 41D1     		bne	.L13
  70:../../source/src/kernel/OS_CORE/time/os_time.c **** 		{
  71:../../source/src/kernel/OS_CORE/time/os_time.c **** 			sys_time.minute = 0;
 266              		.loc 1 71 0
 267 00a6 234B     		ldr	r3, .L14
ARM GAS  G:\Users\Jaxb\AppData\Local\Temp\ccJKnjOK.s 			page 7


 268 00a8 0022     		movs	r2, #0
 269 00aa 5A70     		strb	r2, [r3, #1]
  72:../../source/src/kernel/OS_CORE/time/os_time.c **** 		  	++sys_time.hour;
 270              		.loc 1 72 0
 271 00ac 214B     		ldr	r3, .L14
 272 00ae 9B78     		ldrb	r3, [r3, #2]	@ zero_extendqisi2
 273 00b0 0133     		adds	r3, r3, #1
 274 00b2 DAB2     		uxtb	r2, r3
 275 00b4 1F4B     		ldr	r3, .L14
 276 00b6 9A70     		strb	r2, [r3, #2]
  73:../../source/src/kernel/OS_CORE/time/os_time.c **** 			if(24 == sys_time.hour)
 277              		.loc 1 73 0
 278 00b8 1E4B     		ldr	r3, .L14
 279 00ba 9B78     		ldrb	r3, [r3, #2]	@ zero_extendqisi2
 280 00bc 182B     		cmp	r3, #24
 281 00be 34D1     		bne	.L13
  74:../../source/src/kernel/OS_CORE/time/os_time.c **** 			{
  75:../../source/src/kernel/OS_CORE/time/os_time.c **** 				sys_time.hour = 0;
 282              		.loc 1 75 0
 283 00c0 1C4B     		ldr	r3, .L14
 284 00c2 0022     		movs	r2, #0
 285 00c4 9A70     		strb	r2, [r3, #2]
  76:../../source/src/kernel/OS_CORE/time/os_time.c **** 				++sys_time.date;
 286              		.loc 1 76 0
 287 00c6 1B4B     		ldr	r3, .L14
 288 00c8 DB78     		ldrb	r3, [r3, #3]	@ zero_extendqisi2
 289 00ca 0133     		adds	r3, r3, #1
 290 00cc DAB2     		uxtb	r2, r3
 291 00ce 194B     		ldr	r3, .L14
 292 00d0 DA70     		strb	r2, [r3, #3]
  77:../../source/src/kernel/OS_CORE/time/os_time.c **** 				++sys_time.day;
 293              		.loc 1 77 0
 294 00d2 184B     		ldr	r3, .L14
 295 00d4 5B79     		ldrb	r3, [r3, #5]	@ zero_extendqisi2
 296 00d6 0133     		adds	r3, r3, #1
 297 00d8 DAB2     		uxtb	r2, r3
 298 00da 164B     		ldr	r3, .L14
 299 00dc 5A71     		strb	r2, [r3, #5]
  78:../../source/src/kernel/OS_CORE/time/os_time.c **** 				if(month_date_table[sys_time.month-1] < sys_time.date)
 300              		.loc 1 78 0
 301 00de 154B     		ldr	r3, .L14
 302 00e0 1B79     		ldrb	r3, [r3, #4]	@ zero_extendqisi2
 303 00e2 013B     		subs	r3, r3, #1
 304 00e4 144A     		ldr	r2, .L14+4
 305 00e6 D25C     		ldrb	r2, [r2, r3]	@ zero_extendqisi2
 306 00e8 124B     		ldr	r3, .L14
 307 00ea DB78     		ldrb	r3, [r3, #3]	@ zero_extendqisi2
 308 00ec 9A42     		cmp	r2, r3
 309 00ee 15D2     		bcs	.L12
  79:../../source/src/kernel/OS_CORE/time/os_time.c **** 				{
  80:../../source/src/kernel/OS_CORE/time/os_time.c **** 					sys_time.date = 1;
 310              		.loc 1 80 0
 311 00f0 104B     		ldr	r3, .L14
 312 00f2 0122     		movs	r2, #1
 313 00f4 DA70     		strb	r2, [r3, #3]
  81:../../source/src/kernel/OS_CORE/time/os_time.c **** 					++sys_time.month;
 314              		.loc 1 81 0
ARM GAS  G:\Users\Jaxb\AppData\Local\Temp\ccJKnjOK.s 			page 8


 315 00f6 0F4B     		ldr	r3, .L14
 316 00f8 1B79     		ldrb	r3, [r3, #4]	@ zero_extendqisi2
 317 00fa 0133     		adds	r3, r3, #1
 318 00fc DAB2     		uxtb	r2, r3
 319 00fe 0D4B     		ldr	r3, .L14
 320 0100 1A71     		strb	r2, [r3, #4]
  82:../../source/src/kernel/OS_CORE/time/os_time.c **** 					if(sys_time.month == 13)
 321              		.loc 1 82 0
 322 0102 0C4B     		ldr	r3, .L14
 323 0104 1B79     		ldrb	r3, [r3, #4]	@ zero_extendqisi2
 324 0106 0D2B     		cmp	r3, #13
 325 0108 08D1     		bne	.L12
  83:../../source/src/kernel/OS_CORE/time/os_time.c **** 					{
  84:../../source/src/kernel/OS_CORE/time/os_time.c **** 						sys_time.month = 1;
 326              		.loc 1 84 0
 327 010a 0A4B     		ldr	r3, .L14
 328 010c 0122     		movs	r2, #1
 329 010e 1A71     		strb	r2, [r3, #4]
  85:../../source/src/kernel/OS_CORE/time/os_time.c **** 						++sys_time.year;
 330              		.loc 1 85 0
 331 0110 084B     		ldr	r3, .L14
 332 0112 DB88     		ldrh	r3, [r3, #6]
 333 0114 0133     		adds	r3, r3, #1
 334 0116 9AB2     		uxth	r2, r3
 335 0118 064B     		ldr	r3, .L14
 336 011a DA80     		strh	r2, [r3, #6]	@ movhi
 337              	.L12:
  86:../../source/src/kernel/OS_CORE/time/os_time.c **** 					}
  87:../../source/src/kernel/OS_CORE/time/os_time.c **** 				}
  88:../../source/src/kernel/OS_CORE/time/os_time.c **** 				if(8 == sys_time.day)
 338              		.loc 1 88 0
 339 011c 054B     		ldr	r3, .L14
 340 011e 5B79     		ldrb	r3, [r3, #5]	@ zero_extendqisi2
 341 0120 082B     		cmp	r3, #8
 342 0122 02D1     		bne	.L13
  89:../../source/src/kernel/OS_CORE/time/os_time.c **** 				{
  90:../../source/src/kernel/OS_CORE/time/os_time.c **** 					sys_time.day = 1;
 343              		.loc 1 90 0
 344 0124 034B     		ldr	r3, .L14
 345 0126 0122     		movs	r2, #1
 346 0128 5A71     		strb	r2, [r3, #5]
 347              	.L13:
  91:../../source/src/kernel/OS_CORE/time/os_time.c **** 				}
  92:../../source/src/kernel/OS_CORE/time/os_time.c **** 			}
  93:../../source/src/kernel/OS_CORE/time/os_time.c **** 		}
  94:../../source/src/kernel/OS_CORE/time/os_time.c **** 	}
  95:../../source/src/kernel/OS_CORE/time/os_time.c **** }
 348              		.loc 1 95 0
 349 012a 00BF     		nop
 350 012c BD46     		mov	sp, r7
 351              	.LCFI14:
 352              		.cfi_def_cfa_register 13
 353              		@ sp needed
 354 012e 80BC     		pop	{r7}
 355              	.LCFI15:
 356              		.cfi_restore 7
 357              		.cfi_def_cfa_offset 0
ARM GAS  G:\Users\Jaxb\AppData\Local\Temp\ccJKnjOK.s 			page 9


 358 0130 7047     		bx	lr
 359              	.L15:
 360 0132 00BF     		.align	2
 361              	.L14:
 362 0134 08000000 		.word	sys_time
 363 0138 00000000 		.word	month_date_table
 364              		.cfi_endproc
 365              	.LFE3:
 366              		.size	_system_time_increase, .-_system_time_increase
 367              		.section	.rodata
 368              		.align	2
 369              	.LC0:
 370 000c 2564E5B9 		.ascii	"%d\345\271\264%d\346\234\210%d\346\227\245--%d\346\227"
 370      B42564E6 
 370      9C882564 
 370      E697A52D 
 370      2D2564E6 
 371 0021 B62564E5 		.ascii	"\266%d\345\210\206%d\347\247\222--\346\230\237\346\234"
 371      88862564 
 371      E7A7922D 
 371      2DE6989F 
 371      E69C
 372 0033 9F25640D 		.ascii	"\237%d\015\012\000"
 372      0A00
 373              		.text
 374              		.align	1
 375              		.global	_system_time_display
 376              		.syntax unified
 377              		.thumb
 378              		.thumb_func
 379              		.fpu softvfp
 380              		.type	_system_time_display, %function
 381              	_system_time_display:
 382              	.LFB4:
  96:../../source/src/kernel/OS_CORE/time/os_time.c **** 
  97:../../source/src/kernel/OS_CORE/time/os_time.c **** void _system_time_display(void)
  98:../../source/src/kernel/OS_CORE/time/os_time.c **** {
 383              		.loc 1 98 0
 384              		.cfi_startproc
 385              		@ args = 0, pretend = 0, frame = 8
 386              		@ frame_needed = 1, uses_anonymous_args = 0
 387 013c F0B5     		push	{r4, r5, r6, r7, lr}
 388              	.LCFI16:
 389              		.cfi_def_cfa_offset 20
 390              		.cfi_offset 4, -20
 391              		.cfi_offset 5, -16
 392              		.cfi_offset 6, -12
 393              		.cfi_offset 7, -8
 394              		.cfi_offset 14, -4
 395 013e 87B0     		sub	sp, sp, #28
 396              	.LCFI17:
 397              		.cfi_def_cfa_offset 48
 398 0140 04AF     		add	r7, sp, #16
 399              	.LCFI18:
 400              		.cfi_def_cfa 7, 32
  99:../../source/src/kernel/OS_CORE/time/os_time.c **** 	CPU_SR_ALLOC();
 401              		.loc 1 99 0
ARM GAS  G:\Users\Jaxb\AppData\Local\Temp\ccJKnjOK.s 			page 10


 402 0142 0023     		movs	r3, #0
 403 0144 7B60     		str	r3, [r7, #4]
 100:../../source/src/kernel/OS_CORE/time/os_time.c **** 	CPU_CRITICAL_ENTER();
 404              		.loc 1 100 0
 405 0146 FFF7FEFF 		bl	CPU_SR_Save
 406 014a 7860     		str	r0, [r7, #4]
 101:../../source/src/kernel/OS_CORE/time/os_time.c **** 	ka_printf("%d年%d月%d日--%d时%d分%d秒--星期%d\r\n",sys_time.year,
 407              		.loc 1 101 0
 408 014c 124B     		ldr	r3, .L17
 409 014e DB88     		ldrh	r3, [r3, #6]
 410 0150 1C46     		mov	r4, r3
 102:../../source/src/kernel/OS_CORE/time/os_time.c **** 	sys_time.month,sys_time.date,sys_time.hour,sys_time.minute,sys_time.second,sys_time.day);
 411              		.loc 1 102 0
 412 0152 114B     		ldr	r3, .L17
 413 0154 1B79     		ldrb	r3, [r3, #4]	@ zero_extendqisi2
 101:../../source/src/kernel/OS_CORE/time/os_time.c **** 	ka_printf("%d年%d月%d日--%d时%d分%d秒--星期%d\r\n",sys_time.year,
 414              		.loc 1 101 0
 415 0156 1D46     		mov	r5, r3
 416              		.loc 1 102 0
 417 0158 0F4B     		ldr	r3, .L17
 418 015a DB78     		ldrb	r3, [r3, #3]	@ zero_extendqisi2
 101:../../source/src/kernel/OS_CORE/time/os_time.c **** 	ka_printf("%d年%d月%d日--%d时%d分%d秒--星期%d\r\n",sys_time.year,
 419              		.loc 1 101 0
 420 015c 1E46     		mov	r6, r3
 421              		.loc 1 102 0
 422 015e 0E4B     		ldr	r3, .L17
 423 0160 9B78     		ldrb	r3, [r3, #2]	@ zero_extendqisi2
 101:../../source/src/kernel/OS_CORE/time/os_time.c **** 	ka_printf("%d年%d月%d日--%d时%d分%d秒--星期%d\r\n",sys_time.year,
 424              		.loc 1 101 0
 425 0162 1A46     		mov	r2, r3
 426              		.loc 1 102 0
 427 0164 0C4B     		ldr	r3, .L17
 428 0166 5B78     		ldrb	r3, [r3, #1]	@ zero_extendqisi2
 101:../../source/src/kernel/OS_CORE/time/os_time.c **** 	ka_printf("%d年%d月%d日--%d时%d分%d秒--星期%d\r\n",sys_time.year,
 429              		.loc 1 101 0
 430 0168 1946     		mov	r1, r3
 431              		.loc 1 102 0
 432 016a 0B4B     		ldr	r3, .L17
 433 016c 1B78     		ldrb	r3, [r3]	@ zero_extendqisi2
 101:../../source/src/kernel/OS_CORE/time/os_time.c **** 	ka_printf("%d年%d月%d日--%d时%d分%d秒--星期%d\r\n",sys_time.year,
 434              		.loc 1 101 0
 435 016e 1846     		mov	r0, r3
 436              		.loc 1 102 0
 437 0170 094B     		ldr	r3, .L17
 438 0172 5B79     		ldrb	r3, [r3, #5]	@ zero_extendqisi2
 101:../../source/src/kernel/OS_CORE/time/os_time.c **** 	ka_printf("%d年%d月%d日--%d时%d分%d秒--星期%d\r\n",sys_time.year,
 439              		.loc 1 101 0
 440 0174 0393     		str	r3, [sp, #12]
 441 0176 0290     		str	r0, [sp, #8]
 442 0178 0191     		str	r1, [sp, #4]
 443 017a 0092     		str	r2, [sp]
 444 017c 3346     		mov	r3, r6
 445 017e 2A46     		mov	r2, r5
 446 0180 2146     		mov	r1, r4
 447 0182 0648     		ldr	r0, .L17+4
 448 0184 FFF7FEFF 		bl	ka_printf
 103:../../source/src/kernel/OS_CORE/time/os_time.c **** 	CPU_CRITICAL_EXIT();
ARM GAS  G:\Users\Jaxb\AppData\Local\Temp\ccJKnjOK.s 			page 11


 449              		.loc 1 103 0
 450 0188 7868     		ldr	r0, [r7, #4]
 451 018a FFF7FEFF 		bl	CPU_SR_Restore
 104:../../source/src/kernel/OS_CORE/time/os_time.c **** }
 452              		.loc 1 104 0
 453 018e 00BF     		nop
 454 0190 0C37     		adds	r7, r7, #12
 455              	.LCFI19:
 456              		.cfi_def_cfa_offset 20
 457 0192 BD46     		mov	sp, r7
 458              	.LCFI20:
 459              		.cfi_def_cfa_register 13
 460              		@ sp needed
 461 0194 F0BD     		pop	{r4, r5, r6, r7, pc}
 462              	.L18:
 463 0196 00BF     		.align	2
 464              	.L17:
 465 0198 08000000 		.word	sys_time
 466 019c 0C000000 		.word	.LC0
 467              		.cfi_endproc
 468              	.LFE4:
 469              		.size	_system_time_display, .-_system_time_display
 470              		.align	1
 471              		.global	system_time_display
 472              		.syntax unified
 473              		.thumb
 474              		.thumb_func
 475              		.fpu softvfp
 476              		.type	system_time_display, %function
 477              	system_time_display:
 478              	.LFB5:
 105:../../source/src/kernel/OS_CORE/time/os_time.c **** 
 106:../../source/src/kernel/OS_CORE/time/os_time.c **** void system_time_display(void)
 107:../../source/src/kernel/OS_CORE/time/os_time.c **** {
 479              		.loc 1 107 0
 480              		.cfi_startproc
 481              		@ args = 0, pretend = 0, frame = 0
 482              		@ frame_needed = 1, uses_anonymous_args = 0
 483 01a0 80B5     		push	{r7, lr}
 484              	.LCFI21:
 485              		.cfi_def_cfa_offset 8
 486              		.cfi_offset 7, -8
 487              		.cfi_offset 14, -4
 488 01a2 00AF     		add	r7, sp, #0
 489              	.LCFI22:
 490              		.cfi_def_cfa_register 7
 108:../../source/src/kernel/OS_CORE/time/os_time.c **** 	_system_time_display();
 491              		.loc 1 108 0
 492 01a4 FFF7FEFF 		bl	_system_time_display
 109:../../source/src/kernel/OS_CORE/time/os_time.c **** }
 493              		.loc 1 109 0
 494 01a8 00BF     		nop
 495 01aa 80BD     		pop	{r7, pc}
 496              		.cfi_endproc
 497              	.LFE5:
 498              		.size	system_time_display, .-system_time_display
 499              		.global	__rtmsym_system_time_display_name
ARM GAS  G:\Users\Jaxb\AppData\Local\Temp\ccJKnjOK.s 			page 12


 500              		.section	.rodata.name
 501 0009 000000   		.align	2
 502              		.type	__rtmsym_system_time_display_name, %object
 503              		.size	__rtmsym_system_time_display_name, 20
 504              	__rtmsym_system_time_display_name:
 505 000c 73797374 		.ascii	"system_time_display\000"
 505      656D5F74 
 505      696D655F 
 505      64697370 
 505      6C617900 
 506              		.global	__rtmsym_system_time_display
 507              		.section	.RTMSymTab
 508              		.align	2
 509              		.type	__rtmsym_system_time_display, %object
 510              		.size	__rtmsym_system_time_display, 8
 511              	__rtmsym_system_time_display:
 512 0008 00000000 		.word	system_time_display
 513 000c 00000000 		.word	__rtmsym_system_time_display_name
 514              		.section	.rodata
 515 0039 000000   		.align	2
 516              	.LC1:
 517 003c 2E2E2F2E 		.ascii	"../../source/src/kernel/OS_CORE/time/os_time.c\000"
 517      2E2F736F 
 517      75726365 
 517      2F737263 
 517      2F6B6572 
 518              		.text
 519              		.align	1
 520              		.global	_set_time
 521              		.syntax unified
 522              		.thumb
 523              		.thumb_func
 524              		.fpu softvfp
 525              		.type	_set_time, %function
 526              	_set_time:
 527              	.LFB6:
 110:../../source/src/kernel/OS_CORE/time/os_time.c **** EXPORT_SYMBOL(system_time_display);
 111:../../source/src/kernel/OS_CORE/time/os_time.c **** 
 112:../../source/src/kernel/OS_CORE/time/os_time.c **** int _set_time(struct time *time_ptr)
 113:../../source/src/kernel/OS_CORE/time/os_time.c **** {
 528              		.loc 1 113 0
 529              		.cfi_startproc
 530              		@ args = 0, pretend = 0, frame = 16
 531              		@ frame_needed = 1, uses_anonymous_args = 0
 532 01ac 80B5     		push	{r7, lr}
 533              	.LCFI23:
 534              		.cfi_def_cfa_offset 8
 535              		.cfi_offset 7, -8
 536              		.cfi_offset 14, -4
 537 01ae 84B0     		sub	sp, sp, #16
 538              	.LCFI24:
 539              		.cfi_def_cfa_offset 24
 540 01b0 00AF     		add	r7, sp, #0
 541              	.LCFI25:
 542              		.cfi_def_cfa_register 7
 543 01b2 7860     		str	r0, [r7, #4]
 114:../../source/src/kernel/OS_CORE/time/os_time.c **** 	ASSERT(NULL != time_ptr);
ARM GAS  G:\Users\Jaxb\AppData\Local\Temp\ccJKnjOK.s 			page 13


 544              		.loc 1 114 0
 545 01b4 7B68     		ldr	r3, [r7, #4]
 546 01b6 002B     		cmp	r3, #0
 547 01b8 03D1     		bne	.L21
 548              		.loc 1 114 0 is_stmt 0 discriminator 1
 549 01ba 7221     		movs	r1, #114
 550 01bc 1548     		ldr	r0, .L23
 551 01be FFF7FEFF 		bl	_ASSERT
 552              	.L21:
 115:../../source/src/kernel/OS_CORE/time/os_time.c **** 	CPU_SR_ALLOC();
 553              		.loc 1 115 0 is_stmt 1
 554 01c2 0023     		movs	r3, #0
 555 01c4 FB60     		str	r3, [r7, #12]
 116:../../source/src/kernel/OS_CORE/time/os_time.c **** 	CPU_CRITICAL_ENTER();
 556              		.loc 1 116 0
 557 01c6 FFF7FEFF 		bl	CPU_SR_Save
 558 01ca F860     		str	r0, [r7, #12]
 117:../../source/src/kernel/OS_CORE/time/os_time.c **** 	sys_time.date    =   time_ptr->date;
 559              		.loc 1 117 0
 560 01cc 7B68     		ldr	r3, [r7, #4]
 561 01ce DA78     		ldrb	r2, [r3, #3]	@ zero_extendqisi2
 562 01d0 114B     		ldr	r3, .L23+4
 563 01d2 DA70     		strb	r2, [r3, #3]
 118:../../source/src/kernel/OS_CORE/time/os_time.c **** 	sys_time.hour    =   time_ptr->hour;
 564              		.loc 1 118 0
 565 01d4 7B68     		ldr	r3, [r7, #4]
 566 01d6 9A78     		ldrb	r2, [r3, #2]	@ zero_extendqisi2
 567 01d8 0F4B     		ldr	r3, .L23+4
 568 01da 9A70     		strb	r2, [r3, #2]
 119:../../source/src/kernel/OS_CORE/time/os_time.c **** 	sys_time.minute  = 	 time_ptr->minute;
 569              		.loc 1 119 0
 570 01dc 7B68     		ldr	r3, [r7, #4]
 571 01de 5A78     		ldrb	r2, [r3, #1]	@ zero_extendqisi2
 572 01e0 0D4B     		ldr	r3, .L23+4
 573 01e2 5A70     		strb	r2, [r3, #1]
 120:../../source/src/kernel/OS_CORE/time/os_time.c **** 	sys_time.month   =   time_ptr->month;
 574              		.loc 1 120 0
 575 01e4 7B68     		ldr	r3, [r7, #4]
 576 01e6 1A79     		ldrb	r2, [r3, #4]	@ zero_extendqisi2
 577 01e8 0B4B     		ldr	r3, .L23+4
 578 01ea 1A71     		strb	r2, [r3, #4]
 121:../../source/src/kernel/OS_CORE/time/os_time.c **** 	sys_time.second  =   time_ptr->second;
 579              		.loc 1 121 0
 580 01ec 7B68     		ldr	r3, [r7, #4]
 581 01ee 1A78     		ldrb	r2, [r3]	@ zero_extendqisi2
 582 01f0 094B     		ldr	r3, .L23+4
 583 01f2 1A70     		strb	r2, [r3]
 122:../../source/src/kernel/OS_CORE/time/os_time.c **** 	sys_time.year    =   time_ptr->year;
 584              		.loc 1 122 0
 585 01f4 7B68     		ldr	r3, [r7, #4]
 586 01f6 DA88     		ldrh	r2, [r3, #6]
 587 01f8 074B     		ldr	r3, .L23+4
 588 01fa DA80     		strh	r2, [r3, #6]	@ movhi
 123:../../source/src/kernel/OS_CORE/time/os_time.c **** 	sys_time.day     =   time_ptr->day;
 589              		.loc 1 123 0
 590 01fc 7B68     		ldr	r3, [r7, #4]
 591 01fe 5A79     		ldrb	r2, [r3, #5]	@ zero_extendqisi2
ARM GAS  G:\Users\Jaxb\AppData\Local\Temp\ccJKnjOK.s 			page 14


 592 0200 054B     		ldr	r3, .L23+4
 593 0202 5A71     		strb	r2, [r3, #5]
 124:../../source/src/kernel/OS_CORE/time/os_time.c **** 	CPU_CRITICAL_EXIT();
 594              		.loc 1 124 0
 595 0204 F868     		ldr	r0, [r7, #12]
 596 0206 FFF7FEFF 		bl	CPU_SR_Restore
 125:../../source/src/kernel/OS_CORE/time/os_time.c **** 	return FUN_EXECUTE_SUCCESSFULLY;
 597              		.loc 1 125 0
 598 020a 0023     		movs	r3, #0
 126:../../source/src/kernel/OS_CORE/time/os_time.c **** }
 599              		.loc 1 126 0
 600 020c 1846     		mov	r0, r3
 601 020e 1037     		adds	r7, r7, #16
 602              	.LCFI26:
 603              		.cfi_def_cfa_offset 8
 604 0210 BD46     		mov	sp, r7
 605              	.LCFI27:
 606              		.cfi_def_cfa_register 13
 607              		@ sp needed
 608 0212 80BD     		pop	{r7, pc}
 609              	.L24:
 610              		.align	2
 611              	.L23:
 612 0214 3C000000 		.word	.LC1
 613 0218 08000000 		.word	sys_time
 614              		.cfi_endproc
 615              	.LFE6:
 616              		.size	_set_time, .-_set_time
 617              		.section	.rodata
 618 006b 00       		.align	2
 619              	.LC2:
 620 006c 6572726F 		.ascii	"error fun name : set_time\012error para : time_ptr\012"
 620      72206675 
 620      6E206E61 
 620      6D65203A 
 620      20736574 
 621 009c 00       		.ascii	"\000"
 622              		.text
 623              		.align	1
 624              		.global	set_time
 625              		.syntax unified
 626              		.thumb
 627              		.thumb_func
 628              		.fpu softvfp
 629              		.type	set_time, %function
 630              	set_time:
 631              	.LFB7:
 127:../../source/src/kernel/OS_CORE/time/os_time.c **** 
 128:../../source/src/kernel/OS_CORE/time/os_time.c **** int set_time(struct time *time_ptr)
 129:../../source/src/kernel/OS_CORE/time/os_time.c **** {
 632              		.loc 1 129 0
 633              		.cfi_startproc
 634              		@ args = 0, pretend = 0, frame = 8
 635              		@ frame_needed = 1, uses_anonymous_args = 0
 636 021c 80B5     		push	{r7, lr}
 637              	.LCFI28:
 638              		.cfi_def_cfa_offset 8
ARM GAS  G:\Users\Jaxb\AppData\Local\Temp\ccJKnjOK.s 			page 15


 639              		.cfi_offset 7, -8
 640              		.cfi_offset 14, -4
 641 021e 82B0     		sub	sp, sp, #8
 642              	.LCFI29:
 643              		.cfi_def_cfa_offset 16
 644 0220 00AF     		add	r7, sp, #0
 645              	.LCFI30:
 646              		.cfi_def_cfa_register 7
 647 0222 7860     		str	r0, [r7, #4]
 130:../../source/src/kernel/OS_CORE/time/os_time.c **** 	if(NULL == time_ptr)
 648              		.loc 1 130 0
 649 0224 7B68     		ldr	r3, [r7, #4]
 650 0226 002B     		cmp	r3, #0
 651 0228 05D1     		bne	.L26
 131:../../source/src/kernel/OS_CORE/time/os_time.c **** 	{
 132:../../source/src/kernel/OS_CORE/time/os_time.c **** 		OS_ERROR_PARA_MESSAGE_DISPLAY(set_time,time_ptr);
 652              		.loc 1 132 0
 653 022a 1548     		ldr	r0, .L30
 654 022c FFF7FEFF 		bl	ka_printf
 133:../../source/src/kernel/OS_CORE/time/os_time.c **** 		return -ERROR_NULL_INPUT_PTR;
 655              		.loc 1 133 0
 656 0230 6FF0FE03 		mvn	r3, #254
 657 0234 1FE0     		b	.L27
 658              	.L26:
 134:../../source/src/kernel/OS_CORE/time/os_time.c **** 	}
 135:../../source/src/kernel/OS_CORE/time/os_time.c **** 	if((time_ptr->second >= 60) || (time_ptr->month >= 13)
 659              		.loc 1 135 0
 660 0236 7B68     		ldr	r3, [r7, #4]
 661 0238 1B78     		ldrb	r3, [r3]	@ zero_extendqisi2
 662 023a 3B2B     		cmp	r3, #59
 663 023c 14D8     		bhi	.L28
 664              		.loc 1 135 0 is_stmt 0 discriminator 1
 665 023e 7B68     		ldr	r3, [r7, #4]
 666 0240 1B79     		ldrb	r3, [r3, #4]	@ zero_extendqisi2
 667 0242 0C2B     		cmp	r3, #12
 668 0244 10D8     		bhi	.L28
 136:../../source/src/kernel/OS_CORE/time/os_time.c **** 			|| (time_ptr->hour >= 24) || (time_ptr->day > 7)
 669              		.loc 1 136 0 is_stmt 1
 670 0246 7B68     		ldr	r3, [r7, #4]
 671 0248 9B78     		ldrb	r3, [r3, #2]	@ zero_extendqisi2
 672 024a 172B     		cmp	r3, #23
 673 024c 0CD8     		bhi	.L28
 674              		.loc 1 136 0 is_stmt 0 discriminator 1
 675 024e 7B68     		ldr	r3, [r7, #4]
 676 0250 5B79     		ldrb	r3, [r3, #5]	@ zero_extendqisi2
 677 0252 072B     		cmp	r3, #7
 678 0254 08D8     		bhi	.L28
 137:../../source/src/kernel/OS_CORE/time/os_time.c **** 			|| (time_ptr->date > month_date_table[time_ptr->month]))
 679              		.loc 1 137 0 is_stmt 1
 680 0256 7B68     		ldr	r3, [r7, #4]
 681 0258 DA78     		ldrb	r2, [r3, #3]	@ zero_extendqisi2
 682 025a 7B68     		ldr	r3, [r7, #4]
 683 025c 1B79     		ldrb	r3, [r3, #4]	@ zero_extendqisi2
 684 025e 1946     		mov	r1, r3
 685 0260 084B     		ldr	r3, .L30+4
 686 0262 5B5C     		ldrb	r3, [r3, r1]	@ zero_extendqisi2
 687 0264 9A42     		cmp	r2, r3
ARM GAS  G:\Users\Jaxb\AppData\Local\Temp\ccJKnjOK.s 			page 16


 688 0266 02D9     		bls	.L29
 689              	.L28:
 138:../../source/src/kernel/OS_CORE/time/os_time.c **** 	{
 139:../../source/src/kernel/OS_CORE/time/os_time.c **** 		return -ERROR_VALUELESS_INPUT;
 690              		.loc 1 139 0
 691 0268 6FF0FD03 		mvn	r3, #253
 692 026c 03E0     		b	.L27
 693              	.L29:
 140:../../source/src/kernel/OS_CORE/time/os_time.c **** 	}
 141:../../source/src/kernel/OS_CORE/time/os_time.c **** 	return _set_time(time_ptr);
 694              		.loc 1 141 0
 695 026e 7868     		ldr	r0, [r7, #4]
 696 0270 FFF7FEFF 		bl	_set_time
 697 0274 0346     		mov	r3, r0
 698              	.L27:
 142:../../source/src/kernel/OS_CORE/time/os_time.c **** }
 699              		.loc 1 142 0
 700 0276 1846     		mov	r0, r3
 701 0278 0837     		adds	r7, r7, #8
 702              	.LCFI31:
 703              		.cfi_def_cfa_offset 8
 704 027a BD46     		mov	sp, r7
 705              	.LCFI32:
 706              		.cfi_def_cfa_register 13
 707              		@ sp needed
 708 027c 80BD     		pop	{r7, pc}
 709              	.L31:
 710 027e 00BF     		.align	2
 711              	.L30:
 712 0280 6C000000 		.word	.LC2
 713 0284 00000000 		.word	month_date_table
 714              		.cfi_endproc
 715              	.LFE7:
 716              		.size	set_time, .-set_time
 717              		.global	__rtmsym_set_time_name
 718              		.section	.rodata.name
 719              		.align	2
 720              		.type	__rtmsym_set_time_name, %object
 721              		.size	__rtmsym_set_time_name, 9
 722              	__rtmsym_set_time_name:
 723 0020 7365745F 		.ascii	"set_time\000"
 723      74696D65 
 723      00
 724              		.global	__rtmsym_set_time
 725              		.section	.RTMSymTab
 726              		.align	2
 727              		.type	__rtmsym_set_time, %object
 728              		.size	__rtmsym_set_time, 8
 729              	__rtmsym_set_time:
 730 0010 00000000 		.word	set_time
 731 0014 00000000 		.word	__rtmsym_set_time_name
 732              		.text
 733              	.Letext0:
 734              		.file 2 "../../source/include/os_cpu/kakaosstdint.h"
 735              		.file 3 "../../source/include/os_core/time/os_time.h"
 736              		.file 4 "../../source/include/os_cpu/os_cpu_stm32.h"
 737              		.file 5 "../../source/include/os_core/dmodule/export.h"
ARM GAS  G:\Users\Jaxb\AppData\Local\Temp\ccJKnjOK.s 			page 17


 738              		.section	.debug_info,"",%progbits
 739              	.Ldebug_info0:
 740 0000 47030000 		.4byte	0x347
 741 0004 0200     		.2byte	0x2
 742 0006 00000000 		.4byte	.Ldebug_abbrev0
 743 000a 04       		.byte	0x4
 744 000b 01       		.uleb128 0x1
 745 000c 1E020000 		.4byte	.LASF41
 746 0010 0C       		.byte	0xc
 747 0011 6F000000 		.4byte	.LASF42
 748 0015 F1020000 		.4byte	.LASF43
 749 0019 00000000 		.4byte	.Ltext0
 750 001d 88020000 		.4byte	.Letext0
 751 0021 00000000 		.4byte	.Ldebug_line0
 752 0025 02       		.uleb128 0x2
 753 0026 01       		.byte	0x1
 754 0027 06       		.byte	0x6
 755 0028 D3020000 		.4byte	.LASF0
 756 002c 02       		.uleb128 0x2
 757 002d 02       		.byte	0x2
 758 002e 05       		.byte	0x5
 759 002f DE010000 		.4byte	.LASF1
 760 0033 03       		.uleb128 0x3
 761 0034 04       		.byte	0x4
 762 0035 05       		.byte	0x5
 763 0036 696E7400 		.ascii	"int\000"
 764 003a 02       		.uleb128 0x2
 765 003b 08       		.byte	0x8
 766 003c 05       		.byte	0x5
 767 003d 97010000 		.4byte	.LASF2
 768 0041 04       		.uleb128 0x4
 769 0042 5D000000 		.4byte	.LASF4
 770 0046 02       		.byte	0x2
 771 0047 0A       		.byte	0xa
 772 0048 51000000 		.4byte	0x51
 773 004c 05       		.uleb128 0x5
 774 004d 41000000 		.4byte	0x41
 775 0051 02       		.uleb128 0x2
 776 0052 01       		.byte	0x1
 777 0053 08       		.byte	0x8
 778 0054 BE000000 		.4byte	.LASF3
 779 0058 04       		.uleb128 0x4
 780 0059 A5010000 		.4byte	.LASF5
 781 005d 02       		.byte	0x2
 782 005e 0B       		.byte	0xb
 783 005f 63000000 		.4byte	0x63
 784 0063 02       		.uleb128 0x2
 785 0064 02       		.byte	0x2
 786 0065 07       		.byte	0x7
 787 0066 E9000000 		.4byte	.LASF6
 788 006a 02       		.uleb128 0x2
 789 006b 04       		.byte	0x4
 790 006c 07       		.byte	0x7
 791 006d 29010000 		.4byte	.LASF7
 792 0071 04       		.uleb128 0x4
 793 0072 E2000000 		.4byte	.LASF8
 794 0076 02       		.byte	0x2
ARM GAS  G:\Users\Jaxb\AppData\Local\Temp\ccJKnjOK.s 			page 18


 795 0077 0D       		.byte	0xd
 796 0078 81000000 		.4byte	0x81
 797 007c 06       		.uleb128 0x6
 798 007d 71000000 		.4byte	0x71
 799 0081 02       		.uleb128 0x2
 800 0082 08       		.byte	0x8
 801 0083 07       		.byte	0x7
 802 0084 36010000 		.4byte	.LASF9
 803 0088 07       		.uleb128 0x7
 804 0089 6F010000 		.4byte	.LASF18
 805 008d 08       		.byte	0x8
 806 008e 03       		.byte	0x3
 807 008f 14       		.byte	0x14
 808 0090 F7000000 		.4byte	0xf7
 809 0094 08       		.uleb128 0x8
 810 0095 22010000 		.4byte	.LASF10
 811 0099 03       		.byte	0x3
 812 009a 15       		.byte	0x15
 813 009b 41000000 		.4byte	0x41
 814 009f 02       		.byte	0x2
 815 00a0 23       		.byte	0x23
 816 00a1 00       		.uleb128 0
 817 00a2 08       		.uleb128 0x8
 818 00a3 68000000 		.4byte	.LASF11
 819 00a7 03       		.byte	0x3
 820 00a8 16       		.byte	0x16
 821 00a9 41000000 		.4byte	0x41
 822 00ad 02       		.byte	0x2
 823 00ae 23       		.byte	0x23
 824 00af 01       		.uleb128 0x1
 825 00b0 08       		.uleb128 0x8
 826 00b1 6A010000 		.4byte	.LASF12
 827 00b5 03       		.byte	0x3
 828 00b6 17       		.byte	0x17
 829 00b7 41000000 		.4byte	0x41
 830 00bb 02       		.byte	0x2
 831 00bc 23       		.byte	0x23
 832 00bd 02       		.uleb128 0x2
 833 00be 08       		.uleb128 0x8
 834 00bf A4000000 		.4byte	.LASF13
 835 00c3 03       		.byte	0x3
 836 00c4 18       		.byte	0x18
 837 00c5 41000000 		.4byte	0x41
 838 00c9 02       		.byte	0x2
 839 00ca 23       		.byte	0x23
 840 00cb 03       		.uleb128 0x3
 841 00cc 08       		.uleb128 0x8
 842 00cd 9E000000 		.4byte	.LASF14
 843 00d1 03       		.byte	0x3
 844 00d2 19       		.byte	0x19
 845 00d3 41000000 		.4byte	0x41
 846 00d7 02       		.byte	0x2
 847 00d8 23       		.byte	0x23
 848 00d9 04       		.uleb128 0x4
 849 00da 09       		.uleb128 0x9
 850 00db 64617900 		.ascii	"day\000"
 851 00df 03       		.byte	0x3
ARM GAS  G:\Users\Jaxb\AppData\Local\Temp\ccJKnjOK.s 			page 19


 852 00e0 1A       		.byte	0x1a
 853 00e1 41000000 		.4byte	0x41
 854 00e5 02       		.byte	0x2
 855 00e6 23       		.byte	0x23
 856 00e7 05       		.uleb128 0x5
 857 00e8 08       		.uleb128 0x8
 858 00e9 63000000 		.4byte	.LASF15
 859 00ed 03       		.byte	0x3
 860 00ee 1B       		.byte	0x1b
 861 00ef 58000000 		.4byte	0x58
 862 00f3 02       		.byte	0x2
 863 00f4 23       		.byte	0x23
 864 00f5 06       		.uleb128 0x6
 865 00f6 00       		.byte	0
 866 00f7 04       		.uleb128 0x4
 867 00f8 D3010000 		.4byte	.LASF16
 868 00fc 04       		.byte	0x4
 869 00fd 06       		.byte	0x6
 870 00fe 6A000000 		.4byte	0x6a
 871 0102 04       		.uleb128 0x4
 872 0103 B7000000 		.4byte	.LASF17
 873 0107 04       		.byte	0x4
 874 0108 08       		.byte	0x8
 875 0109 F7000000 		.4byte	0xf7
 876 010d 07       		.uleb128 0x7
 877 010e 74010000 		.4byte	.LASF19
 878 0112 08       		.byte	0x8
 879 0113 05       		.byte	0x5
 880 0114 08       		.byte	0x8
 881 0115 36010000 		.4byte	0x136
 882 0119 08       		.uleb128 0x8
 883 011a A9000000 		.4byte	.LASF20
 884 011e 05       		.byte	0x5
 885 011f 0A       		.byte	0xa
 886 0120 3B010000 		.4byte	0x13b
 887 0124 02       		.byte	0x2
 888 0125 23       		.byte	0x23
 889 0126 00       		.uleb128 0
 890 0127 08       		.uleb128 0x8
 891 0128 AC010000 		.4byte	.LASF21
 892 012c 05       		.byte	0x5
 893 012d 0B       		.byte	0xb
 894 012e 3D010000 		.4byte	0x13d
 895 0132 02       		.byte	0x2
 896 0133 23       		.byte	0x23
 897 0134 04       		.uleb128 0x4
 898 0135 00       		.byte	0
 899 0136 05       		.uleb128 0x5
 900 0137 0D010000 		.4byte	0x10d
 901 013b 0A       		.uleb128 0xa
 902 013c 04       		.byte	0x4
 903 013d 0B       		.uleb128 0xb
 904 013e 04       		.byte	0x4
 905 013f 4A010000 		.4byte	0x14a
 906 0143 02       		.uleb128 0x2
 907 0144 01       		.byte	0x1
 908 0145 08       		.byte	0x8
ARM GAS  G:\Users\Jaxb\AppData\Local\Temp\ccJKnjOK.s 			page 20


 909 0146 C4020000 		.4byte	.LASF22
 910 014a 05       		.uleb128 0x5
 911 014b 43010000 		.4byte	0x143
 912 014f 0C       		.uleb128 0xc
 913 0150 10010000 		.4byte	.LASF23
 914 0154 01       		.byte	0x1
 915 0155 08       		.byte	0x8
 916 0156 7C000000 		.4byte	0x7c
 917 015a 01       		.byte	0x1
 918 015b 05       		.byte	0x5
 919 015c 03       		.byte	0x3
 920 015d 00000000 		.4byte	g_time_tick_count
 921 0161 0D       		.uleb128 0xd
 922 0162 4A010000 		.4byte	0x14a
 923 0166 71010000 		.4byte	0x171
 924 016a 0E       		.uleb128 0xe
 925 016b 6A000000 		.4byte	0x6a
 926 016f 08       		.byte	0x8
 927 0170 00       		.byte	0
 928 0171 05       		.uleb128 0x5
 929 0172 61010000 		.4byte	0x161
 930 0176 0C       		.uleb128 0xc
 931 0177 21000000 		.4byte	.LASF24
 932 017b 01       		.byte	0x1
 933 017c 15       		.byte	0x15
 934 017d 71010000 		.4byte	0x171
 935 0181 01       		.byte	0x1
 936 0182 05       		.byte	0x5
 937 0183 03       		.byte	0x3
 938 0184 00000000 		.4byte	__rtmsym_get_tick_name
 939 0188 0C       		.uleb128 0xc
 940 0189 85010000 		.4byte	.LASF25
 941 018d 01       		.byte	0x1
 942 018e 15       		.byte	0x15
 943 018f 36010000 		.4byte	0x136
 944 0193 01       		.byte	0x1
 945 0194 05       		.byte	0x5
 946 0195 03       		.byte	0x3
 947 0196 00000000 		.4byte	__rtmsym_get_tick
 948 019a 0F       		.uleb128 0xf
 949 019b AE000000 		.4byte	.LASF26
 950 019f 01       		.byte	0x1
 951 01a0 19       		.byte	0x19
 952 01a1 88000000 		.4byte	0x88
 953 01a5 05       		.byte	0x5
 954 01a6 03       		.byte	0x3
 955 01a7 08000000 		.4byte	sys_time
 956 01ab 0D       		.uleb128 0xd
 957 01ac 4C000000 		.4byte	0x4c
 958 01b0 BB010000 		.4byte	0x1bb
 959 01b4 0E       		.uleb128 0xe
 960 01b5 6A000000 		.4byte	0x6a
 961 01b9 0B       		.byte	0xb
 962 01ba 00       		.byte	0
 963 01bb 05       		.uleb128 0x5
 964 01bc AB010000 		.4byte	0x1ab
 965 01c0 0F       		.uleb128 0xf
ARM GAS  G:\Users\Jaxb\AppData\Local\Temp\ccJKnjOK.s 			page 21


 966 01c1 E8010000 		.4byte	.LASF27
 967 01c5 01       		.byte	0x1
 968 01c6 1B       		.byte	0x1b
 969 01c7 BB010000 		.4byte	0x1bb
 970 01cb 05       		.byte	0x5
 971 01cc 03       		.byte	0x3
 972 01cd 00000000 		.4byte	month_date_table
 973 01d1 0D       		.uleb128 0xd
 974 01d2 4A010000 		.4byte	0x14a
 975 01d6 E1010000 		.4byte	0x1e1
 976 01da 0E       		.uleb128 0xe
 977 01db 6A000000 		.4byte	0x6a
 978 01df 13       		.byte	0x13
 979 01e0 00       		.byte	0
 980 01e1 05       		.uleb128 0x5
 981 01e2 D1010000 		.4byte	0x1d1
 982 01e6 0C       		.uleb128 0xc
 983 01e7 B1010000 		.4byte	.LASF28
 984 01eb 01       		.byte	0x1
 985 01ec 6E       		.byte	0x6e
 986 01ed E1010000 		.4byte	0x1e1
 987 01f1 01       		.byte	0x1
 988 01f2 05       		.byte	0x5
 989 01f3 03       		.byte	0x3
 990 01f4 00000000 		.4byte	__rtmsym_system_time_display_name
 991 01f8 0C       		.uleb128 0xc
 992 01f9 4D010000 		.4byte	.LASF29
 993 01fd 01       		.byte	0x1
 994 01fe 6E       		.byte	0x6e
 995 01ff 36010000 		.4byte	0x136
 996 0203 01       		.byte	0x1
 997 0204 05       		.byte	0x5
 998 0205 03       		.byte	0x3
 999 0206 00000000 		.4byte	__rtmsym_system_time_display
 1000 020a 0C       		.uleb128 0xc
 1001 020b 0A000000 		.4byte	.LASF30
 1002 020f 01       		.byte	0x1
 1003 0210 8F       		.byte	0x8f
 1004 0211 71010000 		.4byte	0x171
 1005 0215 01       		.byte	0x1
 1006 0216 05       		.byte	0x5
 1007 0217 03       		.byte	0x3
 1008 0218 00000000 		.4byte	__rtmsym_set_time_name
 1009 021c 0C       		.uleb128 0xc
 1010 021d 0C020000 		.4byte	.LASF31
 1011 0221 01       		.byte	0x1
 1012 0222 8F       		.byte	0x8f
 1013 0223 36010000 		.4byte	0x136
 1014 0227 01       		.byte	0x1
 1015 0228 05       		.byte	0x5
 1016 0229 03       		.byte	0x3
 1017 022a 00000000 		.4byte	__rtmsym_set_time
 1018 022e 10       		.uleb128 0x10
 1019 022f 01       		.byte	0x1
 1020 0230 E8020000 		.4byte	.LASF32
 1021 0234 01       		.byte	0x1
 1022 0235 80       		.byte	0x80
ARM GAS  G:\Users\Jaxb\AppData\Local\Temp\ccJKnjOK.s 			page 22


 1023 0236 01       		.byte	0x1
 1024 0237 33000000 		.4byte	0x33
 1025 023b 1C020000 		.4byte	.LFB7
 1026 023f 88020000 		.4byte	.LFE7
 1027 0243 00000000 		.4byte	.LLST7
 1028 0247 01       		.byte	0x1
 1029 0248 5B020000 		.4byte	0x25b
 1030 024c 11       		.uleb128 0x11
 1031 024d 38000000 		.4byte	.LASF34
 1032 0251 01       		.byte	0x1
 1033 0252 80       		.byte	0x80
 1034 0253 5B020000 		.4byte	0x25b
 1035 0257 02       		.byte	0x2
 1036 0258 91       		.byte	0x91
 1037 0259 74       		.sleb128 -12
 1038 025a 00       		.byte	0
 1039 025b 0B       		.uleb128 0xb
 1040 025c 04       		.byte	0x4
 1041 025d 88000000 		.4byte	0x88
 1042 0261 10       		.uleb128 0x10
 1043 0262 01       		.byte	0x1
 1044 0263 C9020000 		.4byte	.LASF33
 1045 0267 01       		.byte	0x1
 1046 0268 70       		.byte	0x70
 1047 0269 01       		.byte	0x1
 1048 026a 33000000 		.4byte	0x33
 1049 026e AC010000 		.4byte	.LFB6
 1050 0272 1C020000 		.4byte	.LFE6
 1051 0276 50000000 		.4byte	.LLST6
 1052 027a 01       		.byte	0x1
 1053 027b 9C020000 		.4byte	0x29c
 1054 027f 11       		.uleb128 0x11
 1055 0280 38000000 		.4byte	.LASF34
 1056 0284 01       		.byte	0x1
 1057 0285 70       		.byte	0x70
 1058 0286 5B020000 		.4byte	0x25b
 1059 028a 02       		.byte	0x2
 1060 028b 91       		.byte	0x91
 1061 028c 6C       		.sleb128 -20
 1062 028d 0F       		.uleb128 0xf
 1063 028e 41000000 		.4byte	.LASF35
 1064 0292 01       		.byte	0x1
 1065 0293 73       		.byte	0x73
 1066 0294 02010000 		.4byte	0x102
 1067 0298 02       		.byte	0x2
 1068 0299 91       		.byte	0x91
 1069 029a 74       		.sleb128 -12
 1070 029b 00       		.byte	0
 1071 029c 12       		.uleb128 0x12
 1072 029d 01       		.byte	0x1
 1073 029e FC000000 		.4byte	.LASF36
 1074 02a2 01       		.byte	0x1
 1075 02a3 6A       		.byte	0x6a
 1076 02a4 01       		.byte	0x1
 1077 02a5 A0010000 		.4byte	.LFB5
 1078 02a9 AC010000 		.4byte	.LFE5
 1079 02ad A0000000 		.4byte	.LLST5
ARM GAS  G:\Users\Jaxb\AppData\Local\Temp\ccJKnjOK.s 			page 23


 1080 02b1 01       		.byte	0x1
 1081 02b2 13       		.uleb128 0x13
 1082 02b3 01       		.byte	0x1
 1083 02b4 48000000 		.4byte	.LASF39
 1084 02b8 01       		.byte	0x1
 1085 02b9 61       		.byte	0x61
 1086 02ba 01       		.byte	0x1
 1087 02bb 3C010000 		.4byte	.LFB4
 1088 02bf A0010000 		.4byte	.LFE4
 1089 02c3 CC000000 		.4byte	.LLST4
 1090 02c7 01       		.byte	0x1
 1091 02c8 DB020000 		.4byte	0x2db
 1092 02cc 0F       		.uleb128 0xf
 1093 02cd 41000000 		.4byte	.LASF35
 1094 02d1 01       		.byte	0x1
 1095 02d2 63       		.byte	0x63
 1096 02d3 02010000 		.4byte	0x102
 1097 02d7 02       		.byte	0x2
 1098 02d8 91       		.byte	0x91
 1099 02d9 64       		.sleb128 -28
 1100 02da 00       		.byte	0
 1101 02db 14       		.uleb128 0x14
 1102 02dc 01       		.byte	0x1
 1103 02dd CC000000 		.4byte	.LASF37
 1104 02e1 01       		.byte	0x1
 1105 02e2 3E       		.byte	0x3e
 1106 02e3 01       		.byte	0x1
 1107 02e4 74000000 		.4byte	.LFB3
 1108 02e8 3C010000 		.4byte	.LFE3
 1109 02ec 1C010000 		.4byte	.LLST3
 1110 02f0 01       		.byte	0x1
 1111 02f1 14       		.uleb128 0x14
 1112 02f2 01       		.byte	0x1
 1113 02f3 F9010000 		.4byte	.LASF38
 1114 02f7 01       		.byte	0x1
 1115 02f8 2B       		.byte	0x2b
 1116 02f9 01       		.byte	0x1
 1117 02fa 36000000 		.4byte	.LFB2
 1118 02fe 74000000 		.4byte	.LFE2
 1119 0302 60010000 		.4byte	.LLST2
 1120 0306 01       		.byte	0x1
 1121 0307 15       		.uleb128 0x15
 1122 0308 01       		.byte	0x1
 1123 0309 DF020000 		.4byte	.LASF44
 1124 030d 01       		.byte	0x1
 1125 030e 11       		.byte	0x11
 1126 030f 01       		.byte	0x1
 1127 0310 71000000 		.4byte	0x71
 1128 0314 24000000 		.4byte	.LFB1
 1129 0318 36000000 		.4byte	.LFE1
 1130 031c A4010000 		.4byte	.LLST1
 1131 0320 01       		.byte	0x1
 1132 0321 16       		.uleb128 0x16
 1133 0322 01       		.byte	0x1
 1134 0323 00000000 		.4byte	.LASF40
 1135 0327 01       		.byte	0x1
 1136 0328 0A       		.byte	0xa
ARM GAS  G:\Users\Jaxb\AppData\Local\Temp\ccJKnjOK.s 			page 24


 1137 0329 01       		.byte	0x1
 1138 032a 71000000 		.4byte	0x71
 1139 032e 00000000 		.4byte	.LFB0
 1140 0332 24000000 		.4byte	.LFE0
 1141 0336 D0010000 		.4byte	.LLST0
 1142 033a 01       		.byte	0x1
 1143 033b 17       		.uleb128 0x17
 1144 033c 6E756D00 		.ascii	"num\000"
 1145 0340 01       		.byte	0x1
 1146 0341 0C       		.byte	0xc
 1147 0342 71000000 		.4byte	0x71
 1148 0346 02       		.byte	0x2
 1149 0347 91       		.byte	0x91
 1150 0348 70       		.sleb128 -16
 1151 0349 00       		.byte	0
 1152 034a 00       		.byte	0
 1153              		.section	.debug_abbrev,"",%progbits
 1154              	.Ldebug_abbrev0:
 1155 0000 01       		.uleb128 0x1
 1156 0001 11       		.uleb128 0x11
 1157 0002 01       		.byte	0x1
 1158 0003 25       		.uleb128 0x25
 1159 0004 0E       		.uleb128 0xe
 1160 0005 13       		.uleb128 0x13
 1161 0006 0B       		.uleb128 0xb
 1162 0007 03       		.uleb128 0x3
 1163 0008 0E       		.uleb128 0xe
 1164 0009 1B       		.uleb128 0x1b
 1165 000a 0E       		.uleb128 0xe
 1166 000b 11       		.uleb128 0x11
 1167 000c 01       		.uleb128 0x1
 1168 000d 12       		.uleb128 0x12
 1169 000e 01       		.uleb128 0x1
 1170 000f 10       		.uleb128 0x10
 1171 0010 06       		.uleb128 0x6
 1172 0011 00       		.byte	0
 1173 0012 00       		.byte	0
 1174 0013 02       		.uleb128 0x2
 1175 0014 24       		.uleb128 0x24
 1176 0015 00       		.byte	0
 1177 0016 0B       		.uleb128 0xb
 1178 0017 0B       		.uleb128 0xb
 1179 0018 3E       		.uleb128 0x3e
 1180 0019 0B       		.uleb128 0xb
 1181 001a 03       		.uleb128 0x3
 1182 001b 0E       		.uleb128 0xe
 1183 001c 00       		.byte	0
 1184 001d 00       		.byte	0
 1185 001e 03       		.uleb128 0x3
 1186 001f 24       		.uleb128 0x24
 1187 0020 00       		.byte	0
 1188 0021 0B       		.uleb128 0xb
 1189 0022 0B       		.uleb128 0xb
 1190 0023 3E       		.uleb128 0x3e
 1191 0024 0B       		.uleb128 0xb
 1192 0025 03       		.uleb128 0x3
 1193 0026 08       		.uleb128 0x8
ARM GAS  G:\Users\Jaxb\AppData\Local\Temp\ccJKnjOK.s 			page 25


 1194 0027 00       		.byte	0
 1195 0028 00       		.byte	0
 1196 0029 04       		.uleb128 0x4
 1197 002a 16       		.uleb128 0x16
 1198 002b 00       		.byte	0
 1199 002c 03       		.uleb128 0x3
 1200 002d 0E       		.uleb128 0xe
 1201 002e 3A       		.uleb128 0x3a
 1202 002f 0B       		.uleb128 0xb
 1203 0030 3B       		.uleb128 0x3b
 1204 0031 0B       		.uleb128 0xb
 1205 0032 49       		.uleb128 0x49
 1206 0033 13       		.uleb128 0x13
 1207 0034 00       		.byte	0
 1208 0035 00       		.byte	0
 1209 0036 05       		.uleb128 0x5
 1210 0037 26       		.uleb128 0x26
 1211 0038 00       		.byte	0
 1212 0039 49       		.uleb128 0x49
 1213 003a 13       		.uleb128 0x13
 1214 003b 00       		.byte	0
 1215 003c 00       		.byte	0
 1216 003d 06       		.uleb128 0x6
 1217 003e 35       		.uleb128 0x35
 1218 003f 00       		.byte	0
 1219 0040 49       		.uleb128 0x49
 1220 0041 13       		.uleb128 0x13
 1221 0042 00       		.byte	0
 1222 0043 00       		.byte	0
 1223 0044 07       		.uleb128 0x7
 1224 0045 13       		.uleb128 0x13
 1225 0046 01       		.byte	0x1
 1226 0047 03       		.uleb128 0x3
 1227 0048 0E       		.uleb128 0xe
 1228 0049 0B       		.uleb128 0xb
 1229 004a 0B       		.uleb128 0xb
 1230 004b 3A       		.uleb128 0x3a
 1231 004c 0B       		.uleb128 0xb
 1232 004d 3B       		.uleb128 0x3b
 1233 004e 0B       		.uleb128 0xb
 1234 004f 01       		.uleb128 0x1
 1235 0050 13       		.uleb128 0x13
 1236 0051 00       		.byte	0
 1237 0052 00       		.byte	0
 1238 0053 08       		.uleb128 0x8
 1239 0054 0D       		.uleb128 0xd
 1240 0055 00       		.byte	0
 1241 0056 03       		.uleb128 0x3
 1242 0057 0E       		.uleb128 0xe
 1243 0058 3A       		.uleb128 0x3a
 1244 0059 0B       		.uleb128 0xb
 1245 005a 3B       		.uleb128 0x3b
 1246 005b 0B       		.uleb128 0xb
 1247 005c 49       		.uleb128 0x49
 1248 005d 13       		.uleb128 0x13
 1249 005e 38       		.uleb128 0x38
 1250 005f 0A       		.uleb128 0xa
ARM GAS  G:\Users\Jaxb\AppData\Local\Temp\ccJKnjOK.s 			page 26


 1251 0060 00       		.byte	0
 1252 0061 00       		.byte	0
 1253 0062 09       		.uleb128 0x9
 1254 0063 0D       		.uleb128 0xd
 1255 0064 00       		.byte	0
 1256 0065 03       		.uleb128 0x3
 1257 0066 08       		.uleb128 0x8
 1258 0067 3A       		.uleb128 0x3a
 1259 0068 0B       		.uleb128 0xb
 1260 0069 3B       		.uleb128 0x3b
 1261 006a 0B       		.uleb128 0xb
 1262 006b 49       		.uleb128 0x49
 1263 006c 13       		.uleb128 0x13
 1264 006d 38       		.uleb128 0x38
 1265 006e 0A       		.uleb128 0xa
 1266 006f 00       		.byte	0
 1267 0070 00       		.byte	0
 1268 0071 0A       		.uleb128 0xa
 1269 0072 0F       		.uleb128 0xf
 1270 0073 00       		.byte	0
 1271 0074 0B       		.uleb128 0xb
 1272 0075 0B       		.uleb128 0xb
 1273 0076 00       		.byte	0
 1274 0077 00       		.byte	0
 1275 0078 0B       		.uleb128 0xb
 1276 0079 0F       		.uleb128 0xf
 1277 007a 00       		.byte	0
 1278 007b 0B       		.uleb128 0xb
 1279 007c 0B       		.uleb128 0xb
 1280 007d 49       		.uleb128 0x49
 1281 007e 13       		.uleb128 0x13
 1282 007f 00       		.byte	0
 1283 0080 00       		.byte	0
 1284 0081 0C       		.uleb128 0xc
 1285 0082 34       		.uleb128 0x34
 1286 0083 00       		.byte	0
 1287 0084 03       		.uleb128 0x3
 1288 0085 0E       		.uleb128 0xe
 1289 0086 3A       		.uleb128 0x3a
 1290 0087 0B       		.uleb128 0xb
 1291 0088 3B       		.uleb128 0x3b
 1292 0089 0B       		.uleb128 0xb
 1293 008a 49       		.uleb128 0x49
 1294 008b 13       		.uleb128 0x13
 1295 008c 3F       		.uleb128 0x3f
 1296 008d 0C       		.uleb128 0xc
 1297 008e 02       		.uleb128 0x2
 1298 008f 0A       		.uleb128 0xa
 1299 0090 00       		.byte	0
 1300 0091 00       		.byte	0
 1301 0092 0D       		.uleb128 0xd
 1302 0093 01       		.uleb128 0x1
 1303 0094 01       		.byte	0x1
 1304 0095 49       		.uleb128 0x49
 1305 0096 13       		.uleb128 0x13
 1306 0097 01       		.uleb128 0x1
 1307 0098 13       		.uleb128 0x13
ARM GAS  G:\Users\Jaxb\AppData\Local\Temp\ccJKnjOK.s 			page 27


 1308 0099 00       		.byte	0
 1309 009a 00       		.byte	0
 1310 009b 0E       		.uleb128 0xe
 1311 009c 21       		.uleb128 0x21
 1312 009d 00       		.byte	0
 1313 009e 49       		.uleb128 0x49
 1314 009f 13       		.uleb128 0x13
 1315 00a0 2F       		.uleb128 0x2f
 1316 00a1 0B       		.uleb128 0xb
 1317 00a2 00       		.byte	0
 1318 00a3 00       		.byte	0
 1319 00a4 0F       		.uleb128 0xf
 1320 00a5 34       		.uleb128 0x34
 1321 00a6 00       		.byte	0
 1322 00a7 03       		.uleb128 0x3
 1323 00a8 0E       		.uleb128 0xe
 1324 00a9 3A       		.uleb128 0x3a
 1325 00aa 0B       		.uleb128 0xb
 1326 00ab 3B       		.uleb128 0x3b
 1327 00ac 0B       		.uleb128 0xb
 1328 00ad 49       		.uleb128 0x49
 1329 00ae 13       		.uleb128 0x13
 1330 00af 02       		.uleb128 0x2
 1331 00b0 0A       		.uleb128 0xa
 1332 00b1 00       		.byte	0
 1333 00b2 00       		.byte	0
 1334 00b3 10       		.uleb128 0x10
 1335 00b4 2E       		.uleb128 0x2e
 1336 00b5 01       		.byte	0x1
 1337 00b6 3F       		.uleb128 0x3f
 1338 00b7 0C       		.uleb128 0xc
 1339 00b8 03       		.uleb128 0x3
 1340 00b9 0E       		.uleb128 0xe
 1341 00ba 3A       		.uleb128 0x3a
 1342 00bb 0B       		.uleb128 0xb
 1343 00bc 3B       		.uleb128 0x3b
 1344 00bd 0B       		.uleb128 0xb
 1345 00be 27       		.uleb128 0x27
 1346 00bf 0C       		.uleb128 0xc
 1347 00c0 49       		.uleb128 0x49
 1348 00c1 13       		.uleb128 0x13
 1349 00c2 11       		.uleb128 0x11
 1350 00c3 01       		.uleb128 0x1
 1351 00c4 12       		.uleb128 0x12
 1352 00c5 01       		.uleb128 0x1
 1353 00c6 40       		.uleb128 0x40
 1354 00c7 06       		.uleb128 0x6
 1355 00c8 9642     		.uleb128 0x2116
 1356 00ca 0C       		.uleb128 0xc
 1357 00cb 01       		.uleb128 0x1
 1358 00cc 13       		.uleb128 0x13
 1359 00cd 00       		.byte	0
 1360 00ce 00       		.byte	0
 1361 00cf 11       		.uleb128 0x11
 1362 00d0 05       		.uleb128 0x5
 1363 00d1 00       		.byte	0
 1364 00d2 03       		.uleb128 0x3
ARM GAS  G:\Users\Jaxb\AppData\Local\Temp\ccJKnjOK.s 			page 28


 1365 00d3 0E       		.uleb128 0xe
 1366 00d4 3A       		.uleb128 0x3a
 1367 00d5 0B       		.uleb128 0xb
 1368 00d6 3B       		.uleb128 0x3b
 1369 00d7 0B       		.uleb128 0xb
 1370 00d8 49       		.uleb128 0x49
 1371 00d9 13       		.uleb128 0x13
 1372 00da 02       		.uleb128 0x2
 1373 00db 0A       		.uleb128 0xa
 1374 00dc 00       		.byte	0
 1375 00dd 00       		.byte	0
 1376 00de 12       		.uleb128 0x12
 1377 00df 2E       		.uleb128 0x2e
 1378 00e0 00       		.byte	0
 1379 00e1 3F       		.uleb128 0x3f
 1380 00e2 0C       		.uleb128 0xc
 1381 00e3 03       		.uleb128 0x3
 1382 00e4 0E       		.uleb128 0xe
 1383 00e5 3A       		.uleb128 0x3a
 1384 00e6 0B       		.uleb128 0xb
 1385 00e7 3B       		.uleb128 0x3b
 1386 00e8 0B       		.uleb128 0xb
 1387 00e9 27       		.uleb128 0x27
 1388 00ea 0C       		.uleb128 0xc
 1389 00eb 11       		.uleb128 0x11
 1390 00ec 01       		.uleb128 0x1
 1391 00ed 12       		.uleb128 0x12
 1392 00ee 01       		.uleb128 0x1
 1393 00ef 40       		.uleb128 0x40
 1394 00f0 06       		.uleb128 0x6
 1395 00f1 9642     		.uleb128 0x2116
 1396 00f3 0C       		.uleb128 0xc
 1397 00f4 00       		.byte	0
 1398 00f5 00       		.byte	0
 1399 00f6 13       		.uleb128 0x13
 1400 00f7 2E       		.uleb128 0x2e
 1401 00f8 01       		.byte	0x1
 1402 00f9 3F       		.uleb128 0x3f
 1403 00fa 0C       		.uleb128 0xc
 1404 00fb 03       		.uleb128 0x3
 1405 00fc 0E       		.uleb128 0xe
 1406 00fd 3A       		.uleb128 0x3a
 1407 00fe 0B       		.uleb128 0xb
 1408 00ff 3B       		.uleb128 0x3b
 1409 0100 0B       		.uleb128 0xb
 1410 0101 27       		.uleb128 0x27
 1411 0102 0C       		.uleb128 0xc
 1412 0103 11       		.uleb128 0x11
 1413 0104 01       		.uleb128 0x1
 1414 0105 12       		.uleb128 0x12
 1415 0106 01       		.uleb128 0x1
 1416 0107 40       		.uleb128 0x40
 1417 0108 06       		.uleb128 0x6
 1418 0109 9642     		.uleb128 0x2116
 1419 010b 0C       		.uleb128 0xc
 1420 010c 01       		.uleb128 0x1
 1421 010d 13       		.uleb128 0x13
ARM GAS  G:\Users\Jaxb\AppData\Local\Temp\ccJKnjOK.s 			page 29


 1422 010e 00       		.byte	0
 1423 010f 00       		.byte	0
 1424 0110 14       		.uleb128 0x14
 1425 0111 2E       		.uleb128 0x2e
 1426 0112 00       		.byte	0
 1427 0113 3F       		.uleb128 0x3f
 1428 0114 0C       		.uleb128 0xc
 1429 0115 03       		.uleb128 0x3
 1430 0116 0E       		.uleb128 0xe
 1431 0117 3A       		.uleb128 0x3a
 1432 0118 0B       		.uleb128 0xb
 1433 0119 3B       		.uleb128 0x3b
 1434 011a 0B       		.uleb128 0xb
 1435 011b 27       		.uleb128 0x27
 1436 011c 0C       		.uleb128 0xc
 1437 011d 11       		.uleb128 0x11
 1438 011e 01       		.uleb128 0x1
 1439 011f 12       		.uleb128 0x12
 1440 0120 01       		.uleb128 0x1
 1441 0121 40       		.uleb128 0x40
 1442 0122 06       		.uleb128 0x6
 1443 0123 9742     		.uleb128 0x2117
 1444 0125 0C       		.uleb128 0xc
 1445 0126 00       		.byte	0
 1446 0127 00       		.byte	0
 1447 0128 15       		.uleb128 0x15
 1448 0129 2E       		.uleb128 0x2e
 1449 012a 00       		.byte	0
 1450 012b 3F       		.uleb128 0x3f
 1451 012c 0C       		.uleb128 0xc
 1452 012d 03       		.uleb128 0x3
 1453 012e 0E       		.uleb128 0xe
 1454 012f 3A       		.uleb128 0x3a
 1455 0130 0B       		.uleb128 0xb
 1456 0131 3B       		.uleb128 0x3b
 1457 0132 0B       		.uleb128 0xb
 1458 0133 27       		.uleb128 0x27
 1459 0134 0C       		.uleb128 0xc
 1460 0135 49       		.uleb128 0x49
 1461 0136 13       		.uleb128 0x13
 1462 0137 11       		.uleb128 0x11
 1463 0138 01       		.uleb128 0x1
 1464 0139 12       		.uleb128 0x12
 1465 013a 01       		.uleb128 0x1
 1466 013b 40       		.uleb128 0x40
 1467 013c 06       		.uleb128 0x6
 1468 013d 9642     		.uleb128 0x2116
 1469 013f 0C       		.uleb128 0xc
 1470 0140 00       		.byte	0
 1471 0141 00       		.byte	0
 1472 0142 16       		.uleb128 0x16
 1473 0143 2E       		.uleb128 0x2e
 1474 0144 01       		.byte	0x1
 1475 0145 3F       		.uleb128 0x3f
 1476 0146 0C       		.uleb128 0xc
 1477 0147 03       		.uleb128 0x3
 1478 0148 0E       		.uleb128 0xe
ARM GAS  G:\Users\Jaxb\AppData\Local\Temp\ccJKnjOK.s 			page 30


 1479 0149 3A       		.uleb128 0x3a
 1480 014a 0B       		.uleb128 0xb
 1481 014b 3B       		.uleb128 0x3b
 1482 014c 0B       		.uleb128 0xb
 1483 014d 27       		.uleb128 0x27
 1484 014e 0C       		.uleb128 0xc
 1485 014f 49       		.uleb128 0x49
 1486 0150 13       		.uleb128 0x13
 1487 0151 11       		.uleb128 0x11
 1488 0152 01       		.uleb128 0x1
 1489 0153 12       		.uleb128 0x12
 1490 0154 01       		.uleb128 0x1
 1491 0155 40       		.uleb128 0x40
 1492 0156 06       		.uleb128 0x6
 1493 0157 9742     		.uleb128 0x2117
 1494 0159 0C       		.uleb128 0xc
 1495 015a 00       		.byte	0
 1496 015b 00       		.byte	0
 1497 015c 17       		.uleb128 0x17
 1498 015d 34       		.uleb128 0x34
 1499 015e 00       		.byte	0
 1500 015f 03       		.uleb128 0x3
 1501 0160 08       		.uleb128 0x8
 1502 0161 3A       		.uleb128 0x3a
 1503 0162 0B       		.uleb128 0xb
 1504 0163 3B       		.uleb128 0x3b
 1505 0164 0B       		.uleb128 0xb
 1506 0165 49       		.uleb128 0x49
 1507 0166 13       		.uleb128 0x13
 1508 0167 02       		.uleb128 0x2
 1509 0168 0A       		.uleb128 0xa
 1510 0169 00       		.byte	0
 1511 016a 00       		.byte	0
 1512 016b 00       		.byte	0
 1513              		.section	.debug_loc,"",%progbits
 1514              	.Ldebug_loc0:
 1515              	.LLST7:
 1516 0000 1C020000 		.4byte	.LFB7-.Ltext0
 1517 0004 1E020000 		.4byte	.LCFI28-.Ltext0
 1518 0008 0200     		.2byte	0x2
 1519 000a 7D       		.byte	0x7d
 1520 000b 00       		.sleb128 0
 1521 000c 1E020000 		.4byte	.LCFI28-.Ltext0
 1522 0010 20020000 		.4byte	.LCFI29-.Ltext0
 1523 0014 0200     		.2byte	0x2
 1524 0016 7D       		.byte	0x7d
 1525 0017 08       		.sleb128 8
 1526 0018 20020000 		.4byte	.LCFI29-.Ltext0
 1527 001c 22020000 		.4byte	.LCFI30-.Ltext0
 1528 0020 0200     		.2byte	0x2
 1529 0022 7D       		.byte	0x7d
 1530 0023 10       		.sleb128 16
 1531 0024 22020000 		.4byte	.LCFI30-.Ltext0
 1532 0028 7A020000 		.4byte	.LCFI31-.Ltext0
 1533 002c 0200     		.2byte	0x2
 1534 002e 77       		.byte	0x77
 1535 002f 10       		.sleb128 16
ARM GAS  G:\Users\Jaxb\AppData\Local\Temp\ccJKnjOK.s 			page 31


 1536 0030 7A020000 		.4byte	.LCFI31-.Ltext0
 1537 0034 7C020000 		.4byte	.LCFI32-.Ltext0
 1538 0038 0200     		.2byte	0x2
 1539 003a 77       		.byte	0x77
 1540 003b 08       		.sleb128 8
 1541 003c 7C020000 		.4byte	.LCFI32-.Ltext0
 1542 0040 88020000 		.4byte	.LFE7-.Ltext0
 1543 0044 0200     		.2byte	0x2
 1544 0046 7D       		.byte	0x7d
 1545 0047 08       		.sleb128 8
 1546 0048 00000000 		.4byte	0
 1547 004c 00000000 		.4byte	0
 1548              	.LLST6:
 1549 0050 AC010000 		.4byte	.LFB6-.Ltext0
 1550 0054 AE010000 		.4byte	.LCFI23-.Ltext0
 1551 0058 0200     		.2byte	0x2
 1552 005a 7D       		.byte	0x7d
 1553 005b 00       		.sleb128 0
 1554 005c AE010000 		.4byte	.LCFI23-.Ltext0
 1555 0060 B0010000 		.4byte	.LCFI24-.Ltext0
 1556 0064 0200     		.2byte	0x2
 1557 0066 7D       		.byte	0x7d
 1558 0067 08       		.sleb128 8
 1559 0068 B0010000 		.4byte	.LCFI24-.Ltext0
 1560 006c B2010000 		.4byte	.LCFI25-.Ltext0
 1561 0070 0200     		.2byte	0x2
 1562 0072 7D       		.byte	0x7d
 1563 0073 18       		.sleb128 24
 1564 0074 B2010000 		.4byte	.LCFI25-.Ltext0
 1565 0078 10020000 		.4byte	.LCFI26-.Ltext0
 1566 007c 0200     		.2byte	0x2
 1567 007e 77       		.byte	0x77
 1568 007f 18       		.sleb128 24
 1569 0080 10020000 		.4byte	.LCFI26-.Ltext0
 1570 0084 12020000 		.4byte	.LCFI27-.Ltext0
 1571 0088 0200     		.2byte	0x2
 1572 008a 77       		.byte	0x77
 1573 008b 08       		.sleb128 8
 1574 008c 12020000 		.4byte	.LCFI27-.Ltext0
 1575 0090 1C020000 		.4byte	.LFE6-.Ltext0
 1576 0094 0200     		.2byte	0x2
 1577 0096 7D       		.byte	0x7d
 1578 0097 08       		.sleb128 8
 1579 0098 00000000 		.4byte	0
 1580 009c 00000000 		.4byte	0
 1581              	.LLST5:
 1582 00a0 A0010000 		.4byte	.LFB5-.Ltext0
 1583 00a4 A2010000 		.4byte	.LCFI21-.Ltext0
 1584 00a8 0200     		.2byte	0x2
 1585 00aa 7D       		.byte	0x7d
 1586 00ab 00       		.sleb128 0
 1587 00ac A2010000 		.4byte	.LCFI21-.Ltext0
 1588 00b0 A4010000 		.4byte	.LCFI22-.Ltext0
 1589 00b4 0200     		.2byte	0x2
 1590 00b6 7D       		.byte	0x7d
 1591 00b7 08       		.sleb128 8
 1592 00b8 A4010000 		.4byte	.LCFI22-.Ltext0
ARM GAS  G:\Users\Jaxb\AppData\Local\Temp\ccJKnjOK.s 			page 32


 1593 00bc AC010000 		.4byte	.LFE5-.Ltext0
 1594 00c0 0200     		.2byte	0x2
 1595 00c2 77       		.byte	0x77
 1596 00c3 08       		.sleb128 8
 1597 00c4 00000000 		.4byte	0
 1598 00c8 00000000 		.4byte	0
 1599              	.LLST4:
 1600 00cc 3C010000 		.4byte	.LFB4-.Ltext0
 1601 00d0 3E010000 		.4byte	.LCFI16-.Ltext0
 1602 00d4 0200     		.2byte	0x2
 1603 00d6 7D       		.byte	0x7d
 1604 00d7 00       		.sleb128 0
 1605 00d8 3E010000 		.4byte	.LCFI16-.Ltext0
 1606 00dc 40010000 		.4byte	.LCFI17-.Ltext0
 1607 00e0 0200     		.2byte	0x2
 1608 00e2 7D       		.byte	0x7d
 1609 00e3 14       		.sleb128 20
 1610 00e4 40010000 		.4byte	.LCFI17-.Ltext0
 1611 00e8 42010000 		.4byte	.LCFI18-.Ltext0
 1612 00ec 0200     		.2byte	0x2
 1613 00ee 7D       		.byte	0x7d
 1614 00ef 30       		.sleb128 48
 1615 00f0 42010000 		.4byte	.LCFI18-.Ltext0
 1616 00f4 92010000 		.4byte	.LCFI19-.Ltext0
 1617 00f8 0200     		.2byte	0x2
 1618 00fa 77       		.byte	0x77
 1619 00fb 20       		.sleb128 32
 1620 00fc 92010000 		.4byte	.LCFI19-.Ltext0
 1621 0100 94010000 		.4byte	.LCFI20-.Ltext0
 1622 0104 0200     		.2byte	0x2
 1623 0106 77       		.byte	0x77
 1624 0107 14       		.sleb128 20
 1625 0108 94010000 		.4byte	.LCFI20-.Ltext0
 1626 010c A0010000 		.4byte	.LFE4-.Ltext0
 1627 0110 0200     		.2byte	0x2
 1628 0112 7D       		.byte	0x7d
 1629 0113 14       		.sleb128 20
 1630 0114 00000000 		.4byte	0
 1631 0118 00000000 		.4byte	0
 1632              	.LLST3:
 1633 011c 74000000 		.4byte	.LFB3-.Ltext0
 1634 0120 76000000 		.4byte	.LCFI12-.Ltext0
 1635 0124 0200     		.2byte	0x2
 1636 0126 7D       		.byte	0x7d
 1637 0127 00       		.sleb128 0
 1638 0128 76000000 		.4byte	.LCFI12-.Ltext0
 1639 012c 78000000 		.4byte	.LCFI13-.Ltext0
 1640 0130 0200     		.2byte	0x2
 1641 0132 7D       		.byte	0x7d
 1642 0133 04       		.sleb128 4
 1643 0134 78000000 		.4byte	.LCFI13-.Ltext0
 1644 0138 2E010000 		.4byte	.LCFI14-.Ltext0
 1645 013c 0200     		.2byte	0x2
 1646 013e 77       		.byte	0x77
 1647 013f 04       		.sleb128 4
 1648 0140 2E010000 		.4byte	.LCFI14-.Ltext0
 1649 0144 30010000 		.4byte	.LCFI15-.Ltext0
ARM GAS  G:\Users\Jaxb\AppData\Local\Temp\ccJKnjOK.s 			page 33


 1650 0148 0200     		.2byte	0x2
 1651 014a 7D       		.byte	0x7d
 1652 014b 04       		.sleb128 4
 1653 014c 30010000 		.4byte	.LCFI15-.Ltext0
 1654 0150 3C010000 		.4byte	.LFE3-.Ltext0
 1655 0154 0200     		.2byte	0x2
 1656 0156 7D       		.byte	0x7d
 1657 0157 00       		.sleb128 0
 1658 0158 00000000 		.4byte	0
 1659 015c 00000000 		.4byte	0
 1660              	.LLST2:
 1661 0160 36000000 		.4byte	.LFB2-.Ltext0
 1662 0164 38000000 		.4byte	.LCFI8-.Ltext0
 1663 0168 0200     		.2byte	0x2
 1664 016a 7D       		.byte	0x7d
 1665 016b 00       		.sleb128 0
 1666 016c 38000000 		.4byte	.LCFI8-.Ltext0
 1667 0170 3A000000 		.4byte	.LCFI9-.Ltext0
 1668 0174 0200     		.2byte	0x2
 1669 0176 7D       		.byte	0x7d
 1670 0177 04       		.sleb128 4
 1671 0178 3A000000 		.4byte	.LCFI9-.Ltext0
 1672 017c 6A000000 		.4byte	.LCFI10-.Ltext0
 1673 0180 0200     		.2byte	0x2
 1674 0182 77       		.byte	0x77
 1675 0183 04       		.sleb128 4
 1676 0184 6A000000 		.4byte	.LCFI10-.Ltext0
 1677 0188 6C000000 		.4byte	.LCFI11-.Ltext0
 1678 018c 0200     		.2byte	0x2
 1679 018e 7D       		.byte	0x7d
 1680 018f 04       		.sleb128 4
 1681 0190 6C000000 		.4byte	.LCFI11-.Ltext0
 1682 0194 74000000 		.4byte	.LFE2-.Ltext0
 1683 0198 0200     		.2byte	0x2
 1684 019a 7D       		.byte	0x7d
 1685 019b 00       		.sleb128 0
 1686 019c 00000000 		.4byte	0
 1687 01a0 00000000 		.4byte	0
 1688              	.LLST1:
 1689 01a4 24000000 		.4byte	.LFB1-.Ltext0
 1690 01a8 26000000 		.4byte	.LCFI6-.Ltext0
 1691 01ac 0200     		.2byte	0x2
 1692 01ae 7D       		.byte	0x7d
 1693 01af 00       		.sleb128 0
 1694 01b0 26000000 		.4byte	.LCFI6-.Ltext0
 1695 01b4 28000000 		.4byte	.LCFI7-.Ltext0
 1696 01b8 0200     		.2byte	0x2
 1697 01ba 7D       		.byte	0x7d
 1698 01bb 10       		.sleb128 16
 1699 01bc 28000000 		.4byte	.LCFI7-.Ltext0
 1700 01c0 36000000 		.4byte	.LFE1-.Ltext0
 1701 01c4 0200     		.2byte	0x2
 1702 01c6 77       		.byte	0x77
 1703 01c7 10       		.sleb128 16
 1704 01c8 00000000 		.4byte	0
 1705 01cc 00000000 		.4byte	0
 1706              	.LLST0:
ARM GAS  G:\Users\Jaxb\AppData\Local\Temp\ccJKnjOK.s 			page 34


 1707 01d0 00000000 		.4byte	.LFB0-.Ltext0
 1708 01d4 02000000 		.4byte	.LCFI0-.Ltext0
 1709 01d8 0200     		.2byte	0x2
 1710 01da 7D       		.byte	0x7d
 1711 01db 00       		.sleb128 0
 1712 01dc 02000000 		.4byte	.LCFI0-.Ltext0
 1713 01e0 04000000 		.4byte	.LCFI1-.Ltext0
 1714 01e4 0200     		.2byte	0x2
 1715 01e6 7D       		.byte	0x7d
 1716 01e7 08       		.sleb128 8
 1717 01e8 04000000 		.4byte	.LCFI1-.Ltext0
 1718 01ec 06000000 		.4byte	.LCFI2-.Ltext0
 1719 01f0 0200     		.2byte	0x2
 1720 01f2 7D       		.byte	0x7d
 1721 01f3 10       		.sleb128 16
 1722 01f4 06000000 		.4byte	.LCFI2-.Ltext0
 1723 01f8 18000000 		.4byte	.LCFI3-.Ltext0
 1724 01fc 0200     		.2byte	0x2
 1725 01fe 77       		.byte	0x77
 1726 01ff 10       		.sleb128 16
 1727 0200 18000000 		.4byte	.LCFI3-.Ltext0
 1728 0204 1A000000 		.4byte	.LCFI4-.Ltext0
 1729 0208 0200     		.2byte	0x2
 1730 020a 77       		.byte	0x77
 1731 020b 08       		.sleb128 8
 1732 020c 1A000000 		.4byte	.LCFI4-.Ltext0
 1733 0210 1C000000 		.4byte	.LCFI5-.Ltext0
 1734 0214 0200     		.2byte	0x2
 1735 0216 7D       		.byte	0x7d
 1736 0217 08       		.sleb128 8
 1737 0218 1C000000 		.4byte	.LCFI5-.Ltext0
 1738 021c 24000000 		.4byte	.LFE0-.Ltext0
 1739 0220 0200     		.2byte	0x2
 1740 0222 7D       		.byte	0x7d
 1741 0223 00       		.sleb128 0
 1742 0224 00000000 		.4byte	0
 1743 0228 00000000 		.4byte	0
 1744              		.section	.debug_aranges,"",%progbits
 1745 0000 1C000000 		.4byte	0x1c
 1746 0004 0200     		.2byte	0x2
 1747 0006 00000000 		.4byte	.Ldebug_info0
 1748 000a 04       		.byte	0x4
 1749 000b 00       		.byte	0
 1750 000c 0000     		.2byte	0
 1751 000e 0000     		.2byte	0
 1752 0010 00000000 		.4byte	.Ltext0
 1753 0014 88020000 		.4byte	.Letext0-.Ltext0
 1754 0018 00000000 		.4byte	0
 1755 001c 00000000 		.4byte	0
 1756              		.section	.debug_line,"",%progbits
 1757              	.Ldebug_line0:
 1758 0000 64010000 		.section	.debug_str,"MS",%progbits,1
 1758      0200E500 
 1758      00000201 
 1758      FB0E0D00 
 1758      01010101 
 1759              	.LASF40:
ARM GAS  G:\Users\Jaxb\AppData\Local\Temp\ccJKnjOK.s 			page 35


 1760 0000 5F676574 		.ascii	"_get_tick\000"
 1760      5F746963 
 1760      6B00
 1761              	.LASF30:
 1762 000a 5F5F7274 		.ascii	"__rtmsym_set_time_name\000"
 1762      6D73796D 
 1762      5F736574 
 1762      5F74696D 
 1762      655F6E61 
 1763              	.LASF24:
 1764 0021 5F5F7274 		.ascii	"__rtmsym_get_tick_name\000"
 1764      6D73796D 
 1764      5F676574 
 1764      5F746963 
 1764      6B5F6E61 
 1765              	.LASF34:
 1766 0038 74696D65 		.ascii	"time_ptr\000"
 1766      5F707472 
 1766      00
 1767              	.LASF35:
 1768 0041 6370755F 		.ascii	"cpu_sr\000"
 1768      737200
 1769              	.LASF39:
 1770 0048 5F737973 		.ascii	"_system_time_display\000"
 1770      74656D5F 
 1770      74696D65 
 1770      5F646973 
 1770      706C6179 
 1771              	.LASF4:
 1772 005d 55494E54 		.ascii	"UINT8\000"
 1772      3800
 1773              	.LASF15:
 1774 0063 79656172 		.ascii	"year\000"
 1774      00
 1775              	.LASF11:
 1776 0068 6D696E75 		.ascii	"minute\000"
 1776      746500
 1777              	.LASF42:
 1778 006f 2E2E2F2E 		.ascii	"../../source/src/kernel/OS_CORE/time/os_time.c\000"
 1778      2E2F736F 
 1778      75726365 
 1778      2F737263 
 1778      2F6B6572 
 1779              	.LASF14:
 1780 009e 6D6F6E74 		.ascii	"month\000"
 1780      6800
 1781              	.LASF13:
 1782 00a4 64617465 		.ascii	"date\000"
 1782      00
 1783              	.LASF20:
 1784 00a9 61646472 		.ascii	"addr\000"
 1784      00
 1785              	.LASF26:
 1786 00ae 7379735F 		.ascii	"sys_time\000"
 1786      74696D65 
 1786      00
 1787              	.LASF17:
ARM GAS  G:\Users\Jaxb\AppData\Local\Temp\ccJKnjOK.s 			page 36


 1788 00b7 4350555F 		.ascii	"CPU_SR\000"
 1788      535200
 1789              	.LASF3:
 1790 00be 756E7369 		.ascii	"unsigned char\000"
 1790      676E6564 
 1790      20636861 
 1790      7200
 1791              	.LASF37:
 1792 00cc 5F737973 		.ascii	"_system_time_increase\000"
 1792      74656D5F 
 1792      74696D65 
 1792      5F696E63 
 1792      72656173 
 1793              	.LASF8:
 1794 00e2 55494E54 		.ascii	"UINT64\000"
 1794      363400
 1795              	.LASF6:
 1796 00e9 73686F72 		.ascii	"short unsigned int\000"
 1796      7420756E 
 1796      7369676E 
 1796      65642069 
 1796      6E7400
 1797              	.LASF36:
 1798 00fc 73797374 		.ascii	"system_time_display\000"
 1798      656D5F74 
 1798      696D655F 
 1798      64697370 
 1798      6C617900 
 1799              	.LASF23:
 1800 0110 675F7469 		.ascii	"g_time_tick_count\000"
 1800      6D655F74 
 1800      69636B5F 
 1800      636F756E 
 1800      7400
 1801              	.LASF10:
 1802 0122 7365636F 		.ascii	"second\000"
 1802      6E6400
 1803              	.LASF7:
 1804 0129 756E7369 		.ascii	"unsigned int\000"
 1804      676E6564 
 1804      20696E74 
 1804      00
 1805              	.LASF9:
 1806 0136 6C6F6E67 		.ascii	"long long unsigned int\000"
 1806      206C6F6E 
 1806      6720756E 
 1806      7369676E 
 1806      65642069 
 1807              	.LASF29:
 1808 014d 5F5F7274 		.ascii	"__rtmsym_system_time_display\000"
 1808      6D73796D 
 1808      5F737973 
 1808      74656D5F 
 1808      74696D65 
 1809              	.LASF12:
 1810 016a 686F7572 		.ascii	"hour\000"
 1810      00
ARM GAS  G:\Users\Jaxb\AppData\Local\Temp\ccJKnjOK.s 			page 37


 1811              	.LASF18:
 1812 016f 74696D65 		.ascii	"time\000"
 1812      00
 1813              	.LASF19:
 1814 0174 6B615F6D 		.ascii	"ka_module_symtab\000"
 1814      6F64756C 
 1814      655F7379 
 1814      6D746162 
 1814      00
 1815              	.LASF25:
 1816 0185 5F5F7274 		.ascii	"__rtmsym_get_tick\000"
 1816      6D73796D 
 1816      5F676574 
 1816      5F746963 
 1816      6B00
 1817              	.LASF2:
 1818 0197 6C6F6E67 		.ascii	"long long int\000"
 1818      206C6F6E 
 1818      6720696E 
 1818      7400
 1819              	.LASF5:
 1820 01a5 55494E54 		.ascii	"UINT16\000"
 1820      313600
 1821              	.LASF21:
 1822 01ac 6E616D65 		.ascii	"name\000"
 1822      00
 1823              	.LASF28:
 1824 01b1 5F5F7274 		.ascii	"__rtmsym_system_time_display_name\000"
 1824      6D73796D 
 1824      5F737973 
 1824      74656D5F 
 1824      74696D65 
 1825              	.LASF16:
 1826 01d3 4350555F 		.ascii	"CPU_INT32U\000"
 1826      494E5433 
 1826      325500
 1827              	.LASF1:
 1828 01de 73686F72 		.ascii	"short int\000"
 1828      7420696E 
 1828      7400
 1829              	.LASF27:
 1830 01e8 6D6F6E74 		.ascii	"month_date_table\000"
 1830      685F6461 
 1830      74655F74 
 1830      61626C65 
 1830      00
 1831              	.LASF38:
 1832 01f9 5F5F696E 		.ascii	"__init_system_time\000"
 1832      69745F73 
 1832      79737465 
 1832      6D5F7469 
 1832      6D6500
 1833              	.LASF31:
 1834 020c 5F5F7274 		.ascii	"__rtmsym_set_time\000"
 1834      6D73796D 
 1834      5F736574 
 1834      5F74696D 
ARM GAS  G:\Users\Jaxb\AppData\Local\Temp\ccJKnjOK.s 			page 38


 1834      6500
 1835              	.LASF41:
 1836 021e 474E5520 		.ascii	"GNU C11 7.3.1 20180622 (release) [ARM/embedded-7-br"
 1836      43313120 
 1836      372E332E 
 1836      31203230 
 1836      31383036 
 1837 0251 616E6368 		.ascii	"anch revision 261907] -mcpu=cortex-m3 -mthumb -mapc"
 1837      20726576 
 1837      6973696F 
 1837      6E203236 
 1837      31393037 
 1838 0284 732D6672 		.ascii	"s-frame -mthumb-interwork -mcpu=cortex-m3 -mthumb -"
 1838      616D6520 
 1838      2D6D7468 
 1838      756D622D 
 1838      696E7465 
 1839 02b7 67647761 		.ascii	"gdwarf-2 -O0\000"
 1839      72662D32 
 1839      202D4F30 
 1839      00
 1840              	.LASF22:
 1841 02c4 63686172 		.ascii	"char\000"
 1841      00
 1842              	.LASF33:
 1843 02c9 5F736574 		.ascii	"_set_time\000"
 1843      5F74696D 
 1843      6500
 1844              	.LASF0:
 1845 02d3 7369676E 		.ascii	"signed char\000"
 1845      65642063 
 1845      68617200 
 1846              	.LASF44:
 1847 02df 6765745F 		.ascii	"get_tick\000"
 1847      7469636B 
 1847      00
 1848              	.LASF32:
 1849 02e8 7365745F 		.ascii	"set_time\000"
 1849      74696D65 
 1849      00
 1850              	.LASF43:
 1851 02f1 463A5C6B 		.ascii	"F:\\kaka\\KAKAOS\\C\\windows\\Project\\RVMDK\243\250"
 1851      616B615C 
 1851      4B414B41 
 1851      4F535C43 
 1851      5C77696E 
 1852 0319 757635A3 		.ascii	"uv5\243\251\000"
 1852      A900
 1853              		.ident	"GCC: (GNU Tools for Arm Embedded Processors 7-2018-q2-update) 7.3.1 20180622 (release) [AR
ARM GAS  G:\Users\Jaxb\AppData\Local\Temp\ccJKnjOK.s 			page 39


DEFINED SYMBOLS
                            *ABS*:00000000 os_time.c
G:\Users\Jaxb\AppData\Local\Temp\ccJKnjOK.s:20     .bss:00000000 g_time_tick_count
G:\Users\Jaxb\AppData\Local\Temp\ccJKnjOK.s:17     .bss:00000000 $d
G:\Users\Jaxb\AppData\Local\Temp\ccJKnjOK.s:23     .text:00000000 $t
G:\Users\Jaxb\AppData\Local\Temp\ccJKnjOK.s:30     .text:00000000 _get_tick
G:\Users\Jaxb\AppData\Local\Temp\ccJKnjOK.s:74     .text:00000020 $d
G:\Users\Jaxb\AppData\Local\Temp\ccJKnjOK.s:78     .text:00000024 $t
G:\Users\Jaxb\AppData\Local\Temp\ccJKnjOK.s:85     .text:00000024 get_tick
G:\Users\Jaxb\AppData\Local\Temp\ccJKnjOK.s:117    .rodata.name:00000000 __rtmsym_get_tick_name
G:\Users\Jaxb\AppData\Local\Temp\ccJKnjOK.s:114    .rodata.name:00000000 $d
G:\Users\Jaxb\AppData\Local\Temp\ccJKnjOK.s:124    .RTMSymTab:00000000 __rtmsym_get_tick
G:\Users\Jaxb\AppData\Local\Temp\ccJKnjOK.s:121    .RTMSymTab:00000000 $d
G:\Users\Jaxb\AppData\Local\Temp\ccJKnjOK.s:129    .bss:00000008 sys_time
G:\Users\Jaxb\AppData\Local\Temp\ccJKnjOK.s:133    .rodata:00000000 $d
G:\Users\Jaxb\AppData\Local\Temp\ccJKnjOK.s:136    .rodata:00000000 month_date_table
G:\Users\Jaxb\AppData\Local\Temp\ccJKnjOK.s:157    .text:00000036 __init_system_time
G:\Users\Jaxb\AppData\Local\Temp\ccJKnjOK.s:213    .text:00000070 $d
G:\Users\Jaxb\AppData\Local\Temp\ccJKnjOK.s:217    .text:00000074 $t
G:\Users\Jaxb\AppData\Local\Temp\ccJKnjOK.s:224    .text:00000074 _system_time_increase
G:\Users\Jaxb\AppData\Local\Temp\ccJKnjOK.s:362    .text:00000134 $d
G:\Users\Jaxb\AppData\Local\Temp\ccJKnjOK.s:374    .text:0000013c $t
G:\Users\Jaxb\AppData\Local\Temp\ccJKnjOK.s:381    .text:0000013c _system_time_display
G:\Users\Jaxb\AppData\Local\Temp\ccJKnjOK.s:465    .text:00000198 $d
G:\Users\Jaxb\AppData\Local\Temp\ccJKnjOK.s:470    .text:000001a0 $t
G:\Users\Jaxb\AppData\Local\Temp\ccJKnjOK.s:477    .text:000001a0 system_time_display
G:\Users\Jaxb\AppData\Local\Temp\ccJKnjOK.s:504    .rodata.name:0000000c __rtmsym_system_time_display_name
G:\Users\Jaxb\AppData\Local\Temp\ccJKnjOK.s:511    .RTMSymTab:00000008 __rtmsym_system_time_display
G:\Users\Jaxb\AppData\Local\Temp\ccJKnjOK.s:526    .text:000001ac _set_time
G:\Users\Jaxb\AppData\Local\Temp\ccJKnjOK.s:612    .text:00000214 $d
G:\Users\Jaxb\AppData\Local\Temp\ccJKnjOK.s:623    .text:0000021c $t
G:\Users\Jaxb\AppData\Local\Temp\ccJKnjOK.s:630    .text:0000021c set_time
G:\Users\Jaxb\AppData\Local\Temp\ccJKnjOK.s:712    .text:00000280 $d
G:\Users\Jaxb\AppData\Local\Temp\ccJKnjOK.s:722    .rodata.name:00000020 __rtmsym_set_time_name
G:\Users\Jaxb\AppData\Local\Temp\ccJKnjOK.s:729    .RTMSymTab:00000010 __rtmsym_set_time

UNDEFINED SYMBOLS
CPU_SR_Save
ka_printf
CPU_SR_Restore
_ASSERT
