ARM GAS  G:\Users\Jaxb\AppData\Local\Temp\ccPfilDf.s 			page 1


   1              		.cpu cortex-m3
   2              		.eabi_attribute 20, 1
   3              		.eabi_attribute 21, 1
   4              		.eabi_attribute 23, 3
   5              		.eabi_attribute 24, 1
   6              		.eabi_attribute 25, 1
   7              		.eabi_attribute 26, 1
   8              		.eabi_attribute 30, 2
   9              		.eabi_attribute 34, 1
  10              		.eabi_attribute 18, 4
  11              		.file	"os_timer.c"
  12              		.text
  13              	.Ltext0:
  14              		.cfi_sections	.debug_frame
  15              		.align	1
  16              		.p2align 2,,3
  17              		.syntax unified
  18              		.thumb
  19              		.thumb_func
  20              		.fpu softvfp
  21              		.type	index_change_record, %function
  22              	index_change_record:
  23              	.LFB13:
  24              		.file 1 "../../source/src/kernel/OS_CORE/os_timer.c"
   1:../../source/src/kernel/OS_CORE/os_timer.c **** #include <os_timer.h>
   2:../../source/src/kernel/OS_CORE/os_timer.c **** #include <os_error.h>
   3:../../source/src/kernel/OS_CORE/os_timer.c **** #include <myassert.h>
   4:../../source/src/kernel/OS_CORE/os_timer.c **** #include <myMicroLIB.h>
   5:../../source/src/kernel/OS_CORE/os_timer.c **** #include <heap_oo.h>
   6:../../source/src/kernel/OS_CORE/os_timer.c **** #include <os_schedule.h>
   7:../../source/src/kernel/OS_CORE/os_timer.c **** #include <os_time.h>
   8:../../source/src/kernel/OS_CORE/os_timer.c **** #include <os_cpu.h>
   9:../../source/src/kernel/OS_CORE/os_timer.c **** #include <export.h>
  10:../../source/src/kernel/OS_CORE/os_timer.c **** 
  11:../../source/src/kernel/OS_CORE/os_timer.c **** #if CONFIG_TIMER_EN
  12:../../source/src/kernel/OS_CORE/os_timer.c **** 
  13:../../source/src/kernel/OS_CORE/os_timer.c **** static struct little_heap timer_heap;
  14:../../source/src/kernel/OS_CORE/os_timer.c **** 
  15:../../source/src/kernel/OS_CORE/os_timer.c **** static int cmp(Vector *Vector_ptr,unsigned int index1,unsigned int index2)
  16:../../source/src/kernel/OS_CORE/os_timer.c **** {
  17:../../source/src/kernel/OS_CORE/os_timer.c **** 	const struct timer **a, **b;
  18:../../source/src/kernel/OS_CORE/os_timer.c **** 	Vector_get_index_address (Vector_ptr, index1, (void **)&a);
  19:../../source/src/kernel/OS_CORE/os_timer.c **** 	Vector_get_index_address (Vector_ptr, index2, (void **)&b);
  20:../../source/src/kernel/OS_CORE/os_timer.c **** 	if (TIME_FIRST_SMALLER_THAN_SECOND((*a)->wake_time,(*b)->wake_time))
  21:../../source/src/kernel/OS_CORE/os_timer.c **** 	{
  22:../../source/src/kernel/OS_CORE/os_timer.c **** 	  return -1;
  23:../../source/src/kernel/OS_CORE/os_timer.c **** 	}
  24:../../source/src/kernel/OS_CORE/os_timer.c **** 	else if (TIME_FIRST_BIGGER_THAN_SECOND((*a)->wake_time,(*b)->wake_time))
  25:../../source/src/kernel/OS_CORE/os_timer.c **** 	{
  26:../../source/src/kernel/OS_CORE/os_timer.c **** 	  return 1;
  27:../../source/src/kernel/OS_CORE/os_timer.c **** 	}
  28:../../source/src/kernel/OS_CORE/os_timer.c **** 	else
  29:../../source/src/kernel/OS_CORE/os_timer.c **** 	{
  30:../../source/src/kernel/OS_CORE/os_timer.c **** 	  return 0;
  31:../../source/src/kernel/OS_CORE/os_timer.c **** 	}
  32:../../source/src/kernel/OS_CORE/os_timer.c **** }
  33:../../source/src/kernel/OS_CORE/os_timer.c **** 
ARM GAS  G:\Users\Jaxb\AppData\Local\Temp\ccPfilDf.s 			page 2


  34:../../source/src/kernel/OS_CORE/os_timer.c **** static inline void index_change_record(Vector *Vector_ptr,int index)
  35:../../source/src/kernel/OS_CORE/os_timer.c **** {
  25              		.loc 1 35 0
  26              		.cfi_startproc
  27              		@ args = 0, pretend = 0, frame = 8
  28              		@ frame_needed = 0, uses_anonymous_args = 0
  29              	.LVL0:
  30 0000 10B5     		push	{r4, lr}
  31              	.LCFI0:
  32              		.cfi_def_cfa_offset 8
  33              		.cfi_offset 4, -8
  34              		.cfi_offset 14, -4
  35 0002 82B0     		sub	sp, sp, #8
  36              	.LCFI1:
  37              		.cfi_def_cfa_offset 16
  36:../../source/src/kernel/OS_CORE/os_timer.c **** 	struct timer *timer_ptr;
  37:../../source/src/kernel/OS_CORE/os_timer.c **** 	Vector_get_index_data(Vector_ptr,index,&timer_ptr);
  38              		.loc 1 37 0
  39 0004 01AA     		add	r2, sp, #4
  35:../../source/src/kernel/OS_CORE/os_timer.c **** 	struct timer *timer_ptr;
  40              		.loc 1 35 0
  41 0006 0C46     		mov	r4, r1
  42              		.loc 1 37 0
  43 0008 FFF7FEFF 		bl	Vector_get_index_data
  44              	.LVL1:
  38:../../source/src/kernel/OS_CORE/os_timer.c **** 	timer_ptr->heap_position_index = index;
  45              		.loc 1 38 0
  46 000c 019B     		ldr	r3, [sp, #4]
  47 000e 9C61     		str	r4, [r3, #24]
  39:../../source/src/kernel/OS_CORE/os_timer.c **** }
  48              		.loc 1 39 0
  49 0010 02B0     		add	sp, sp, #8
  50              	.LCFI2:
  51              		.cfi_def_cfa_offset 8
  52              		@ sp needed
  53 0012 10BD     		pop	{r4, pc}
  54              		.cfi_endproc
  55              	.LFE13:
  56              		.size	index_change_record, .-index_change_record
  57              		.align	1
  58              		.p2align 2,,3
  59              		.syntax unified
  60              		.thumb
  61              		.thumb_func
  62              		.fpu softvfp
  63              		.type	cmp, %function
  64              	cmp:
  65              	.LFB12:
  16:../../source/src/kernel/OS_CORE/os_timer.c **** 	const struct timer **a, **b;
  66              		.loc 1 16 0
  67              		.cfi_startproc
  68              		@ args = 0, pretend = 0, frame = 8
  69              		@ frame_needed = 0, uses_anonymous_args = 0
  70              	.LVL2:
  71 0014 30B5     		push	{r4, r5, lr}
  72              	.LCFI3:
  73              		.cfi_def_cfa_offset 12
ARM GAS  G:\Users\Jaxb\AppData\Local\Temp\ccPfilDf.s 			page 3


  74              		.cfi_offset 4, -12
  75              		.cfi_offset 5, -8
  76              		.cfi_offset 14, -4
  77 0016 1546     		mov	r5, r2
  78 0018 0446     		mov	r4, r0
  79 001a 83B0     		sub	sp, sp, #12
  80              	.LCFI4:
  81              		.cfi_def_cfa_offset 24
  18:../../source/src/kernel/OS_CORE/os_timer.c **** 	Vector_get_index_address (Vector_ptr, index2, (void **)&b);
  82              		.loc 1 18 0
  83 001c 6A46     		mov	r2, sp
  84              	.LVL3:
  85 001e FFF7FEFF 		bl	Vector_get_index_address
  86              	.LVL4:
  19:../../source/src/kernel/OS_CORE/os_timer.c **** 	if (TIME_FIRST_SMALLER_THAN_SECOND((*a)->wake_time,(*b)->wake_time))
  87              		.loc 1 19 0
  88 0022 2946     		mov	r1, r5
  89 0024 01AA     		add	r2, sp, #4
  90 0026 2046     		mov	r0, r4
  91 0028 FFF7FEFF 		bl	Vector_get_index_address
  92              	.LVL5:
  20:../../source/src/kernel/OS_CORE/os_timer.c **** 	{
  93              		.loc 1 20 0
  94 002c DDE90032 		ldrd	r3, r2, [sp]
  95 0030 1168     		ldr	r1, [r2]
  96 0032 1B68     		ldr	r3, [r3]
  97 0034 D1E90801 		ldrd	r0, [r1, #32]
  98 0038 D3E90823 		ldrd	r2, [r3, #32]
  99 003c 121A     		subs	r2, r2, r0
 100 003e 63EB0103 		sbc	r3, r3, r1
 101 0042 1D46     		mov	r5, r3
 102              	.LVL6:
 103 0044 002A     		cmp	r2, #0
 104 0046 75F10003 		sbcs	r3, r5, #0
 105 004a 06DB     		blt	.L5
  24:../../source/src/kernel/OS_CORE/os_timer.c **** 	{
 106              		.loc 1 24 0
 107 004c 52EA0503 		orrs	r3, r2, r5
 108 0050 14BF     		ite	ne
 109 0052 0120     		movne	r0, #1
 110 0054 0020     		moveq	r0, #0
 111              	.L3:
  32:../../source/src/kernel/OS_CORE/os_timer.c **** 
 112              		.loc 1 32 0
 113 0056 03B0     		add	sp, sp, #12
 114              	.LCFI5:
 115              		.cfi_remember_state
 116              		.cfi_def_cfa_offset 12
 117              		@ sp needed
 118 0058 30BD     		pop	{r4, r5, pc}
 119              	.LVL7:
 120              	.L5:
 121              	.LCFI6:
 122              		.cfi_restore_state
  22:../../source/src/kernel/OS_CORE/os_timer.c **** 	}
 123              		.loc 1 22 0
 124 005a 4FF0FF30 		mov	r0, #-1
ARM GAS  G:\Users\Jaxb\AppData\Local\Temp\ccPfilDf.s 			page 4


 125 005e FAE7     		b	.L3
 126              		.cfi_endproc
 127              	.LFE12:
 128              		.size	cmp, .-cmp
 129              		.align	1
 130              		.p2align 2,,3
 131              		.global	timer_enable
 132              		.syntax unified
 133              		.thumb
 134              		.thumb_func
 135              		.fpu softvfp
 136              		.type	timer_enable, %function
 137              	timer_enable:
 138              	.LFB17:
  40:../../source/src/kernel/OS_CORE/os_timer.c **** 
  41:../../source/src/kernel/OS_CORE/os_timer.c **** /**
  42:../../source/src/kernel/OS_CORE/os_timer.c ****  * This is a system function
  43:../../source/src/kernel/OS_CORE/os_timer.c ****  * @Author      kaka
  44:../../source/src/kernel/OS_CORE/os_timer.c ****  * @DateTime    2018-10-03
  45:../../source/src/kernel/OS_CORE/os_timer.c ****  * @description : used while os's initialization
  46:../../source/src/kernel/OS_CORE/os_timer.c ****  */
  47:../../source/src/kernel/OS_CORE/os_timer.c **** void __init_timer(void)
  48:../../source/src/kernel/OS_CORE/os_timer.c **** {
  49:../../source/src/kernel/OS_CORE/os_timer.c **** 	if(0 != heap_init(&timer_heap,16,sizeof(struct timer *),cmp,index_change_record))
  50:../../source/src/kernel/OS_CORE/os_timer.c **** 	{
  51:../../source/src/kernel/OS_CORE/os_timer.c **** 		ka_printf("init_delay_heap error!\nstop booting.....\n");
  52:../../source/src/kernel/OS_CORE/os_timer.c **** 		while(1);
  53:../../source/src/kernel/OS_CORE/os_timer.c **** 		//os stop here
  54:../../source/src/kernel/OS_CORE/os_timer.c **** 	}
  55:../../source/src/kernel/OS_CORE/os_timer.c **** }
  56:../../source/src/kernel/OS_CORE/os_timer.c **** 
  57:../../source/src/kernel/OS_CORE/os_timer.c **** /**
  58:../../source/src/kernel/OS_CORE/os_timer.c ****  * This is a system function
  59:../../source/src/kernel/OS_CORE/os_timer.c ****  * @Author      kaka
  60:../../source/src/kernel/OS_CORE/os_timer.c ****  * @DateTime    2018-10-03
  61:../../source/src/kernel/OS_CORE/os_timer.c ****  * @description : initialize the timer
  62:../../source/src/kernel/OS_CORE/os_timer.c ****  */
  63:../../source/src/kernel/OS_CORE/os_timer.c **** int timer_init(
  64:../../source/src/kernel/OS_CORE/os_timer.c **** 	struct timer *timer_ptr,
  65:../../source/src/kernel/OS_CORE/os_timer.c **** 	TIMER_TYPE type,
  66:../../source/src/kernel/OS_CORE/os_timer.c **** 	char *name,
  67:../../source/src/kernel/OS_CORE/os_timer.c **** 	void (*fun)(void *para),
  68:../../source/src/kernel/OS_CORE/os_timer.c **** 	void *para,
  69:../../source/src/kernel/OS_CORE/os_timer.c **** 	unsigned int period,
  70:../../source/src/kernel/OS_CORE/os_timer.c **** 	unsigned int num)
  71:../../source/src/kernel/OS_CORE/os_timer.c **** {
  72:../../source/src/kernel/OS_CORE/os_timer.c **** 	ASSERT((NULL != timer_ptr) && (NULL != name) && (NULL != fun));
  73:../../source/src/kernel/OS_CORE/os_timer.c **** #if CONFIG_PARA_CHECK
  74:../../source/src/kernel/OS_CORE/os_timer.c **** 	if((NULL == timer_ptr) || (NULL == name) || (NULL == fun))
  75:../../source/src/kernel/OS_CORE/os_timer.c **** 	{
  76:../../source/src/kernel/OS_CORE/os_timer.c **** 		OS_ERROR_PARA_MESSAGE_DISPLAY(timer_init,timer_ptr);
  77:../../source/src/kernel/OS_CORE/os_timer.c **** 		OS_ERROR_PARA_MESSAGE_DISPLAY(timer_init,name);
  78:../../source/src/kernel/OS_CORE/os_timer.c **** 		OS_ERROR_PARA_MESSAGE_DISPLAY(timer_init,fun);
  79:../../source/src/kernel/OS_CORE/os_timer.c **** 		return -ERROR_NULL_INPUT_PTR;
  80:../../source/src/kernel/OS_CORE/os_timer.c **** 	}
  81:../../source/src/kernel/OS_CORE/os_timer.c **** #endif
  82:../../source/src/kernel/OS_CORE/os_timer.c **** 	CPU_SR_ALLOC();
ARM GAS  G:\Users\Jaxb\AppData\Local\Temp\ccPfilDf.s 			page 5


  83:../../source/src/kernel/OS_CORE/os_timer.c **** 	CPU_CRITICAL_ENTER();
  84:../../source/src/kernel/OS_CORE/os_timer.c **** 	if (g_interrupt_count > 0)
  85:../../source/src/kernel/OS_CORE/os_timer.c **** 	{
  86:../../source/src/kernel/OS_CORE/os_timer.c **** 		CPU_CRITICAL_EXIT();
  87:../../source/src/kernel/OS_CORE/os_timer.c **** 		return -ERROR_FUN_USE_IN_INTER;
  88:../../source/src/kernel/OS_CORE/os_timer.c **** 	}
  89:../../source/src/kernel/OS_CORE/os_timer.c **** 	timer_ptr->type  			= type;
  90:../../source/src/kernel/OS_CORE/os_timer.c **** 	timer_ptr->state 			= DISABLE;
  91:../../source/src/kernel/OS_CORE/os_timer.c **** 	timer_ptr->timer_name 		= name;
  92:../../source/src/kernel/OS_CORE/os_timer.c **** 	timer_ptr->fun 				= fun;
  93:../../source/src/kernel/OS_CORE/os_timer.c **** 	timer_ptr->para 			= para;
  94:../../source/src/kernel/OS_CORE/os_timer.c **** 	timer_ptr->period 			= period;
  95:../../source/src/kernel/OS_CORE/os_timer.c **** 	timer_ptr->rest_num 		= INIT_REST_NUM(num);
  96:../../source/src/kernel/OS_CORE/os_timer.c **** 	CPU_CRITICAL_EXIT();
  97:../../source/src/kernel/OS_CORE/os_timer.c **** 	return FUN_EXECUTE_SUCCESSFULLY;
  98:../../source/src/kernel/OS_CORE/os_timer.c **** }
  99:../../source/src/kernel/OS_CORE/os_timer.c **** EXPORT_SYMBOL(timer_init);
 100:../../source/src/kernel/OS_CORE/os_timer.c **** 
 101:../../source/src/kernel/OS_CORE/os_timer.c **** /**
 102:../../source/src/kernel/OS_CORE/os_timer.c ****  * This is a system function
 103:../../source/src/kernel/OS_CORE/os_timer.c ****  * @Author      kaka
 104:../../source/src/kernel/OS_CORE/os_timer.c ****  * @DateTime    2018-10-03
 105:../../source/src/kernel/OS_CORE/os_timer.c ****  * @description : create and initialize the timer
 106:../../source/src/kernel/OS_CORE/os_timer.c ****  */
 107:../../source/src/kernel/OS_CORE/os_timer.c **** int timer_create(
 108:../../source/src/kernel/OS_CORE/os_timer.c **** 	struct timer **timer_ptr,
 109:../../source/src/kernel/OS_CORE/os_timer.c **** 	TIMER_TYPE type,
 110:../../source/src/kernel/OS_CORE/os_timer.c **** 	char *name,
 111:../../source/src/kernel/OS_CORE/os_timer.c **** 	void (*fun)(void *para),
 112:../../source/src/kernel/OS_CORE/os_timer.c **** 	void *para,
 113:../../source/src/kernel/OS_CORE/os_timer.c **** 	unsigned int period,
 114:../../source/src/kernel/OS_CORE/os_timer.c **** 	unsigned int num)
 115:../../source/src/kernel/OS_CORE/os_timer.c **** {
 116:../../source/src/kernel/OS_CORE/os_timer.c **** 	struct timer *ptr;
 117:../../source/src/kernel/OS_CORE/os_timer.c **** 	ptr = ka_malloc(sizeof(struct timer));
 118:../../source/src/kernel/OS_CORE/os_timer.c **** 	if(NULL == ptr)
 119:../../source/src/kernel/OS_CORE/os_timer.c **** 	{
 120:../../source/src/kernel/OS_CORE/os_timer.c **** 		return -ERROR_NO_MEM;
 121:../../source/src/kernel/OS_CORE/os_timer.c **** 	}
 122:../../source/src/kernel/OS_CORE/os_timer.c **** 	if(NULL != timer_ptr)
 123:../../source/src/kernel/OS_CORE/os_timer.c **** 	{
 124:../../source/src/kernel/OS_CORE/os_timer.c **** 		*timer_ptr = ptr;
 125:../../source/src/kernel/OS_CORE/os_timer.c **** 	}
 126:../../source/src/kernel/OS_CORE/os_timer.c **** 	CPU_SR_ALLOC();
 127:../../source/src/kernel/OS_CORE/os_timer.c **** 	CPU_CRITICAL_ENTER();
 128:../../source/src/kernel/OS_CORE/os_timer.c **** 	timer_init(ptr,type,name,fun,para,period,num);
 129:../../source/src/kernel/OS_CORE/os_timer.c **** 	ptr->rest_num = CREAT_REST_NUM(num);
 130:../../source/src/kernel/OS_CORE/os_timer.c **** 	CPU_CRITICAL_EXIT();
 131:../../source/src/kernel/OS_CORE/os_timer.c **** 	return FUN_EXECUTE_SUCCESSFULLY;
 132:../../source/src/kernel/OS_CORE/os_timer.c **** }
 133:../../source/src/kernel/OS_CORE/os_timer.c **** EXPORT_SYMBOL(timer_create);
 134:../../source/src/kernel/OS_CORE/os_timer.c **** 
 135:../../source/src/kernel/OS_CORE/os_timer.c **** /**
 136:../../source/src/kernel/OS_CORE/os_timer.c ****  * This is a system function
 137:../../source/src/kernel/OS_CORE/os_timer.c ****  * @Author      kaka
 138:../../source/src/kernel/OS_CORE/os_timer.c ****  * @DateTime    2018-10-03
 139:../../source/src/kernel/OS_CORE/os_timer.c ****  * @description : after using timer_create(), use this function to 
ARM GAS  G:\Users\Jaxb\AppData\Local\Temp\ccPfilDf.s 			page 6


 140:../../source/src/kernel/OS_CORE/os_timer.c ****  * activate the timer
 141:../../source/src/kernel/OS_CORE/os_timer.c ****  * @param       timer_ptr  
 142:../../source/src/kernel/OS_CORE/os_timer.c ****  * @return      0 means success
 143:../../source/src/kernel/OS_CORE/os_timer.c ****  */
 144:../../source/src/kernel/OS_CORE/os_timer.c **** int timer_enable(struct timer *timer_ptr)
 145:../../source/src/kernel/OS_CORE/os_timer.c **** {
 139              		.loc 1 145 0
 140              		.cfi_startproc
 141              		@ args = 0, pretend = 0, frame = 8
 142              		@ frame_needed = 0, uses_anonymous_args = 0
 143              	.LVL8:
 144 0060 2DE9F041 		push	{r4, r5, r6, r7, r8, lr}
 145              	.LCFI7:
 146              		.cfi_def_cfa_offset 24
 147              		.cfi_offset 4, -24
 148              		.cfi_offset 5, -20
 149              		.cfi_offset 6, -16
 150              		.cfi_offset 7, -12
 151              		.cfi_offset 8, -8
 152              		.cfi_offset 14, -4
 153 0064 82B0     		sub	sp, sp, #8
 154              	.LCFI8:
 155              		.cfi_def_cfa_offset 32
 156              		.loc 1 145 0
 157 0066 0190     		str	r0, [sp, #4]
 146:../../source/src/kernel/OS_CORE/os_timer.c **** 	ASSERT(NULL != timer_ptr);
 158              		.loc 1 146 0
 159 0068 F0B1     		cbz	r0, .L9
 160              	.LVL9:
 161              	.L7:
 147:../../source/src/kernel/OS_CORE/os_timer.c **** #if CONFIG_PARA_CHECK
 148:../../source/src/kernel/OS_CORE/os_timer.c **** 	if(NULL == timer_ptr)
 149:../../source/src/kernel/OS_CORE/os_timer.c **** 	{
 150:../../source/src/kernel/OS_CORE/os_timer.c **** 		OS_ERROR_PARA_MESSAGE_DISPLAY(timer_enable,timer_ptr);
 151:../../source/src/kernel/OS_CORE/os_timer.c **** 		return -ERROR_NULL_INPUT_PTR;
 152:../../source/src/kernel/OS_CORE/os_timer.c **** 	}
 153:../../source/src/kernel/OS_CORE/os_timer.c **** #endif	
 154:../../source/src/kernel/OS_CORE/os_timer.c **** 	CPU_SR_ALLOC();
 155:../../source/src/kernel/OS_CORE/os_timer.c **** 	CPU_CRITICAL_ENTER();
 162              		.loc 1 155 0
 163 006a FFF7FEFF 		bl	CPU_SR_Save
 164              	.LVL10:
 156:../../source/src/kernel/OS_CORE/os_timer.c **** 	timer_ptr->state = ENABLE;
 165              		.loc 1 156 0
 166 006e 0122     		movs	r2, #1
 167 0070 019B     		ldr	r3, [sp, #4]
 155:../../source/src/kernel/OS_CORE/os_timer.c **** 	timer_ptr->state = ENABLE;
 168              		.loc 1 155 0
 169 0072 0646     		mov	r6, r0
 170              	.LVL11:
 171              		.loc 1 156 0
 172 0074 5A70     		strb	r2, [r3, #1]
 157:../../source/src/kernel/OS_CORE/os_timer.c **** 	timer_ptr->wake_time = timer_ptr->period + get_tick();
 173              		.loc 1 157 0
 174 0076 5C69     		ldr	r4, [r3, #20]
 175 0078 FFF7FEFF 		bl	get_tick
 176              	.LVL12:
ARM GAS  G:\Users\Jaxb\AppData\Local\Temp\ccPfilDf.s 			page 7


 177 007c 4FF00008 		mov	r8, #0
 178 0080 02AB     		add	r3, sp, #8
 179 0082 2418     		adds	r4, r4, r0
 180 0084 53F8042D 		ldr	r2, [r3, #-4]!
 181 0088 48EB0105 		adc	r5, r8, r1
 182 008c C2E90845 		strd	r4, [r2, #32]
 158:../../source/src/kernel/OS_CORE/os_timer.c **** 	int ret = heap_push(&timer_heap,&timer_ptr);
 183              		.loc 1 158 0
 184 0090 0C48     		ldr	r0, .L10
 185 0092 1946     		mov	r1, r3
 186 0094 FFF7FEFF 		bl	heap_push
 187              	.LVL13:
 188 0098 0446     		mov	r4, r0
 189              	.LVL14:
 159:../../source/src/kernel/OS_CORE/os_timer.c **** 	CPU_CRITICAL_EXIT();
 190              		.loc 1 159 0
 191 009a 3046     		mov	r0, r6
 192              	.LVL15:
 193 009c FFF7FEFF 		bl	CPU_SR_Restore
 194              	.LVL16:
 195              	.L6:
 160:../../source/src/kernel/OS_CORE/os_timer.c **** 	return ret;
 161:../../source/src/kernel/OS_CORE/os_timer.c **** }
 196              		.loc 1 161 0
 197 00a0 2046     		mov	r0, r4
 198 00a2 02B0     		add	sp, sp, #8
 199              	.LCFI9:
 200              		.cfi_remember_state
 201              		.cfi_def_cfa_offset 24
 202              		@ sp needed
 203 00a4 BDE8F081 		pop	{r4, r5, r6, r7, r8, pc}
 204              	.LVL17:
 205              	.L9:
 206              	.LCFI10:
 207              		.cfi_restore_state
 146:../../source/src/kernel/OS_CORE/os_timer.c **** #if CONFIG_PARA_CHECK
 208              		.loc 1 146 0 discriminator 1
 209 00a8 9221     		movs	r1, #146
 210 00aa 0748     		ldr	r0, .L10+4
 211              	.LVL18:
 212 00ac FFF7FEFF 		bl	_ASSERT
 213              	.LVL19:
 148:../../source/src/kernel/OS_CORE/os_timer.c **** 	{
 214              		.loc 1 148 0 discriminator 1
 215 00b0 019B     		ldr	r3, [sp, #4]
 216 00b2 002B     		cmp	r3, #0
 217 00b4 D9D1     		bne	.L7
 150:../../source/src/kernel/OS_CORE/os_timer.c **** 		return -ERROR_NULL_INPUT_PTR;
 218              		.loc 1 150 0
 219 00b6 0548     		ldr	r0, .L10+8
 220 00b8 FFF7FEFF 		bl	ka_printf
 221              	.LVL20:
 151:../../source/src/kernel/OS_CORE/os_timer.c **** 	}
 222              		.loc 1 151 0
 223 00bc 6FF0FE04 		mvn	r4, #254
 224 00c0 EEE7     		b	.L6
 225              	.L11:
ARM GAS  G:\Users\Jaxb\AppData\Local\Temp\ccPfilDf.s 			page 8


 226 00c2 00BF     		.align	2
 227              	.L10:
 228 00c4 00000000 		.word	.LANCHOR0
 229 00c8 00000000 		.word	.LC0
 230 00cc 2C000000 		.word	.LC1
 231              		.cfi_endproc
 232              	.LFE17:
 233              		.size	timer_enable, .-timer_enable
 234              		.align	1
 235              		.p2align 2,,3
 236              		.global	timer_disable
 237              		.syntax unified
 238              		.thumb
 239              		.thumb_func
 240              		.fpu softvfp
 241              		.type	timer_disable, %function
 242              	timer_disable:
 243              	.LFB18:
 162:../../source/src/kernel/OS_CORE/os_timer.c **** EXPORT_SYMBOL(timer_enable);
 163:../../source/src/kernel/OS_CORE/os_timer.c **** 
 164:../../source/src/kernel/OS_CORE/os_timer.c **** /**
 165:../../source/src/kernel/OS_CORE/os_timer.c ****  * This is a system function
 166:../../source/src/kernel/OS_CORE/os_timer.c ****  * @Author      kaka
 167:../../source/src/kernel/OS_CORE/os_timer.c ****  * @DateTime    2018-10-03
 168:../../source/src/kernel/OS_CORE/os_timer.c ****  * @description :	use this function to inactivate the timer
 169:../../source/src/kernel/OS_CORE/os_timer.c ****  * @param       timer_ptr  
 170:../../source/src/kernel/OS_CORE/os_timer.c ****  * @return      0 means success
 171:../../source/src/kernel/OS_CORE/os_timer.c ****  */
 172:../../source/src/kernel/OS_CORE/os_timer.c **** int timer_disable(struct timer *timer_ptr)
 173:../../source/src/kernel/OS_CORE/os_timer.c **** {
 244              		.loc 1 173 0
 245              		.cfi_startproc
 246              		@ args = 0, pretend = 0, frame = 0
 247              		@ frame_needed = 0, uses_anonymous_args = 0
 248              	.LVL21:
 249 00d0 70B5     		push	{r4, r5, r6, lr}
 250              	.LCFI11:
 251              		.cfi_def_cfa_offset 16
 252              		.cfi_offset 4, -16
 253              		.cfi_offset 5, -12
 254              		.cfi_offset 6, -8
 255              		.cfi_offset 14, -4
 174:../../source/src/kernel/OS_CORE/os_timer.c **** 	ASSERT(NULL != timer_ptr);
 256              		.loc 1 174 0
 257 00d2 0546     		mov	r5, r0
 258 00d4 A8B1     		cbz	r0, .L18
 259              	.LVL22:
 175:../../source/src/kernel/OS_CORE/os_timer.c **** #if CONFIG_PARA_CHECK
 176:../../source/src/kernel/OS_CORE/os_timer.c **** 	if(NULL == timer_ptr)
 177:../../source/src/kernel/OS_CORE/os_timer.c **** 	{
 178:../../source/src/kernel/OS_CORE/os_timer.c **** 		OS_ERROR_PARA_MESSAGE_DISPLAY(timer_disable,timer_ptr);
 179:../../source/src/kernel/OS_CORE/os_timer.c **** 		return -ERROR_NULL_INPUT_PTR;
 180:../../source/src/kernel/OS_CORE/os_timer.c **** 	}
 181:../../source/src/kernel/OS_CORE/os_timer.c **** #endif
 182:../../source/src/kernel/OS_CORE/os_timer.c **** 	CPU_SR_ALLOC();
 183:../../source/src/kernel/OS_CORE/os_timer.c **** 	CPU_CRITICAL_ENTER();
 260              		.loc 1 183 0
ARM GAS  G:\Users\Jaxb\AppData\Local\Temp\ccPfilDf.s 			page 9


 261 00d6 FFF7FEFF 		bl	CPU_SR_Save
 262              	.LVL23:
 184:../../source/src/kernel/OS_CORE/os_timer.c **** 	int ret = heap_remove_index_data(&timer_heap,timer_ptr->heap_position_index,NULL);
 263              		.loc 1 184 0
 264 00da 0022     		movs	r2, #0
 183:../../source/src/kernel/OS_CORE/os_timer.c **** 	int ret = heap_remove_index_data(&timer_heap,timer_ptr->heap_position_index,NULL);
 265              		.loc 1 183 0
 266 00dc 0646     		mov	r6, r0
 267              	.LVL24:
 268              		.loc 1 184 0
 269 00de A969     		ldr	r1, [r5, #24]
 270 00e0 0D48     		ldr	r0, .L20
 271              	.LVL25:
 272 00e2 FFF7FEFF 		bl	heap_remove_index_data
 273              	.LVL26:
 185:../../source/src/kernel/OS_CORE/os_timer.c **** 	if(ret < 0)
 274              		.loc 1 185 0
 275 00e6 041E     		subs	r4, r0, #0
 276 00e8 06DB     		blt	.L19
 186:../../source/src/kernel/OS_CORE/os_timer.c **** 	{
 187:../../source/src/kernel/OS_CORE/os_timer.c **** 		CPU_CRITICAL_EXIT();
 188:../../source/src/kernel/OS_CORE/os_timer.c **** 		return ret;
 189:../../source/src/kernel/OS_CORE/os_timer.c **** 	}
 190:../../source/src/kernel/OS_CORE/os_timer.c **** 	timer_ptr->state = DISABLE;
 277              		.loc 1 190 0
 278 00ea 0024     		movs	r4, #0
 191:../../source/src/kernel/OS_CORE/os_timer.c **** 	CPU_CRITICAL_EXIT();
 279              		.loc 1 191 0
 280 00ec 3046     		mov	r0, r6
 281              	.LVL27:
 190:../../source/src/kernel/OS_CORE/os_timer.c **** 	CPU_CRITICAL_EXIT();
 282              		.loc 1 190 0
 283 00ee 6C70     		strb	r4, [r5, #1]
 284              		.loc 1 191 0
 285 00f0 FFF7FEFF 		bl	CPU_SR_Restore
 286              	.LVL28:
 192:../../source/src/kernel/OS_CORE/os_timer.c **** 	return FUN_EXECUTE_SUCCESSFULLY;
 193:../../source/src/kernel/OS_CORE/os_timer.c **** }
 287              		.loc 1 193 0
 288 00f4 2046     		mov	r0, r4
 289 00f6 70BD     		pop	{r4, r5, r6, pc}
 290              	.LVL29:
 291              	.L19:
 187:../../source/src/kernel/OS_CORE/os_timer.c **** 		return ret;
 292              		.loc 1 187 0
 293 00f8 3046     		mov	r0, r6
 294              	.LVL30:
 295 00fa FFF7FEFF 		bl	CPU_SR_Restore
 296              	.LVL31:
 297              		.loc 1 193 0
 298 00fe 2046     		mov	r0, r4
 299 0100 70BD     		pop	{r4, r5, r6, pc}
 300              	.LVL32:
 301              	.L18:
 179:../../source/src/kernel/OS_CORE/os_timer.c **** 	}
 302              		.loc 1 179 0 discriminator 1
 303 0102 6FF0FE04 		mvn	r4, #254
ARM GAS  G:\Users\Jaxb\AppData\Local\Temp\ccPfilDf.s 			page 10


 174:../../source/src/kernel/OS_CORE/os_timer.c **** #if CONFIG_PARA_CHECK
 304              		.loc 1 174 0 discriminator 1
 305 0106 AE21     		movs	r1, #174
 306 0108 0448     		ldr	r0, .L20+4
 307              	.LVL33:
 308 010a FFF7FEFF 		bl	_ASSERT
 309              	.LVL34:
 178:../../source/src/kernel/OS_CORE/os_timer.c **** 		return -ERROR_NULL_INPUT_PTR;
 310              		.loc 1 178 0 discriminator 1
 311 010e 0448     		ldr	r0, .L20+8
 312 0110 FFF7FEFF 		bl	ka_printf
 313              	.LVL35:
 314              		.loc 1 193 0 discriminator 1
 315 0114 2046     		mov	r0, r4
 316 0116 70BD     		pop	{r4, r5, r6, pc}
 317              	.LVL36:
 318              	.L21:
 319              		.align	2
 320              	.L20:
 321 0118 00000000 		.word	.LANCHOR0
 322 011c 00000000 		.word	.LC0
 323 0120 64000000 		.word	.LC2
 324              		.cfi_endproc
 325              	.LFE18:
 326              		.size	timer_disable, .-timer_disable
 327              		.align	1
 328              		.p2align 2,,3
 329              		.global	timer_delete
 330              		.syntax unified
 331              		.thumb
 332              		.thumb_func
 333              		.fpu softvfp
 334              		.type	timer_delete, %function
 335              	timer_delete:
 336              	.LFB19:
 194:../../source/src/kernel/OS_CORE/os_timer.c **** EXPORT_SYMBOL(timer_disable);
 195:../../source/src/kernel/OS_CORE/os_timer.c **** 
 196:../../source/src/kernel/OS_CORE/os_timer.c **** /**
 197:../../source/src/kernel/OS_CORE/os_timer.c ****  * This is a system function
 198:../../source/src/kernel/OS_CORE/os_timer.c ****  * @Author      kaka
 199:../../source/src/kernel/OS_CORE/os_timer.c ****  * @DateTime    2018-10-03
 200:../../source/src/kernel/OS_CORE/os_timer.c ****  * @description :	use this function to inactivate the timer and free
 201:../../source/src/kernel/OS_CORE/os_timer.c ****  * the memory if necessary
 202:../../source/src/kernel/OS_CORE/os_timer.c ****  * @param       timer_ptr  
 203:../../source/src/kernel/OS_CORE/os_timer.c ****  * @return                 
 204:../../source/src/kernel/OS_CORE/os_timer.c ****  */
 205:../../source/src/kernel/OS_CORE/os_timer.c **** int timer_delete(struct timer *timer_ptr)
 206:../../source/src/kernel/OS_CORE/os_timer.c **** {
 337              		.loc 1 206 0
 338              		.cfi_startproc
 339              		@ args = 0, pretend = 0, frame = 0
 340              		@ frame_needed = 0, uses_anonymous_args = 0
 341              	.LVL37:
 342 0124 38B5     		push	{r3, r4, r5, lr}
 343              	.LCFI12:
 344              		.cfi_def_cfa_offset 16
 345              		.cfi_offset 3, -16
ARM GAS  G:\Users\Jaxb\AppData\Local\Temp\ccPfilDf.s 			page 11


 346              		.cfi_offset 4, -12
 347              		.cfi_offset 5, -8
 348              		.cfi_offset 14, -4
 207:../../source/src/kernel/OS_CORE/os_timer.c **** 	ASSERT(NULL != timer_ptr);
 349              		.loc 1 207 0
 350 0126 0446     		mov	r4, r0
 351 0128 A8B1     		cbz	r0, .L28
 352              	.LVL38:
 208:../../source/src/kernel/OS_CORE/os_timer.c **** #if CONFIG_PARA_CHECK
 209:../../source/src/kernel/OS_CORE/os_timer.c **** 	if(NULL == timer_ptr)
 210:../../source/src/kernel/OS_CORE/os_timer.c **** 	{
 211:../../source/src/kernel/OS_CORE/os_timer.c **** 		OS_ERROR_PARA_MESSAGE_DISPLAY(timer_delete,timer_ptr);
 212:../../source/src/kernel/OS_CORE/os_timer.c **** 		return -ERROR_NULL_INPUT_PTR;
 213:../../source/src/kernel/OS_CORE/os_timer.c **** 	}
 214:../../source/src/kernel/OS_CORE/os_timer.c **** #endif
 215:../../source/src/kernel/OS_CORE/os_timer.c **** 	CPU_SR_ALLOC();
 216:../../source/src/kernel/OS_CORE/os_timer.c **** 	CPU_CRITICAL_ENTER();
 353              		.loc 1 216 0
 354 012a FFF7FEFF 		bl	CPU_SR_Save
 355              	.LVL39:
 217:../../source/src/kernel/OS_CORE/os_timer.c **** 	if(ENABLE == timer_ptr->state)
 356              		.loc 1 217 0
 357 012e 6378     		ldrb	r3, [r4, #1]	@ zero_extendqisi2
 216:../../source/src/kernel/OS_CORE/os_timer.c **** 	if(ENABLE == timer_ptr->state)
 358              		.loc 1 216 0
 359 0130 0546     		mov	r5, r0
 360              	.LVL40:
 361              		.loc 1 217 0
 362 0132 012B     		cmp	r3, #1
 363 0134 0BD0     		beq	.L29
 364              	.LVL41:
 365              	.L27:
 218:../../source/src/kernel/OS_CORE/os_timer.c **** 	{
 219:../../source/src/kernel/OS_CORE/os_timer.c **** 		timer_disable(timer_ptr);
 220:../../source/src/kernel/OS_CORE/os_timer.c **** 	}
 221:../../source/src/kernel/OS_CORE/os_timer.c **** 	if(TIMER_IS_CREAT(timer_ptr))
 366              		.loc 1 221 0
 367 0136 6368     		ldr	r3, [r4, #4]
 368 0138 002B     		cmp	r3, #0
 369 013a 04DB     		blt	.L30
 370              	.L25:
 222:../../source/src/kernel/OS_CORE/os_timer.c **** 	{
 223:../../source/src/kernel/OS_CORE/os_timer.c **** 		ka_free(timer_ptr);
 224:../../source/src/kernel/OS_CORE/os_timer.c **** 	}
 225:../../source/src/kernel/OS_CORE/os_timer.c **** 	CPU_CRITICAL_EXIT();
 371              		.loc 1 225 0
 372 013c 2846     		mov	r0, r5
 373 013e FFF7FEFF 		bl	CPU_SR_Restore
 374              	.LVL42:
 226:../../source/src/kernel/OS_CORE/os_timer.c **** 	return FUN_EXECUTE_SUCCESSFULLY;
 375              		.loc 1 226 0
 376 0142 0020     		movs	r0, #0
 227:../../source/src/kernel/OS_CORE/os_timer.c **** }
 377              		.loc 1 227 0
 378 0144 38BD     		pop	{r3, r4, r5, pc}
 379              	.LVL43:
 380              	.L30:
ARM GAS  G:\Users\Jaxb\AppData\Local\Temp\ccPfilDf.s 			page 12


 223:../../source/src/kernel/OS_CORE/os_timer.c **** 	}
 381              		.loc 1 223 0
 382 0146 2046     		mov	r0, r4
 383 0148 FFF7FEFF 		bl	ka_free
 384              	.LVL44:
 385 014c F6E7     		b	.L25
 386              	.LVL45:
 387              	.L29:
 219:../../source/src/kernel/OS_CORE/os_timer.c **** 	}
 388              		.loc 1 219 0
 389 014e 2046     		mov	r0, r4
 390              	.LVL46:
 391 0150 FFF7FEFF 		bl	timer_disable
 392              	.LVL47:
 393 0154 EFE7     		b	.L27
 394              	.LVL48:
 395              	.L28:
 207:../../source/src/kernel/OS_CORE/os_timer.c **** #if CONFIG_PARA_CHECK
 396              		.loc 1 207 0 discriminator 1
 397 0156 CF21     		movs	r1, #207
 398 0158 0448     		ldr	r0, .L31
 399              	.LVL49:
 400 015a FFF7FEFF 		bl	_ASSERT
 401              	.LVL50:
 211:../../source/src/kernel/OS_CORE/os_timer.c **** 		return -ERROR_NULL_INPUT_PTR;
 402              		.loc 1 211 0 discriminator 1
 403 015e 0448     		ldr	r0, .L31+4
 404 0160 FFF7FEFF 		bl	ka_printf
 405              	.LVL51:
 212:../../source/src/kernel/OS_CORE/os_timer.c **** 	}
 406              		.loc 1 212 0 discriminator 1
 407 0164 6FF0FE00 		mvn	r0, #254
 408              		.loc 1 227 0 discriminator 1
 409 0168 38BD     		pop	{r3, r4, r5, pc}
 410              	.LVL52:
 411              	.L32:
 412 016a 00BF     		.align	2
 413              	.L31:
 414 016c 00000000 		.word	.LC0
 415 0170 9C000000 		.word	.LC3
 416              		.cfi_endproc
 417              	.LFE19:
 418              		.size	timer_delete, .-timer_delete
 419              		.align	1
 420              		.p2align 2,,3
 421              		.global	timer_init
 422              		.syntax unified
 423              		.thumb
 424              		.thumb_func
 425              		.fpu softvfp
 426              		.type	timer_init, %function
 427              	timer_init:
 428              	.LFB15:
  71:../../source/src/kernel/OS_CORE/os_timer.c **** 	ASSERT((NULL != timer_ptr) && (NULL != name) && (NULL != fun));
 429              		.loc 1 71 0
 430              		.cfi_startproc
 431              		@ args = 12, pretend = 0, frame = 0
ARM GAS  G:\Users\Jaxb\AppData\Local\Temp\ccPfilDf.s 			page 13


 432              		@ frame_needed = 0, uses_anonymous_args = 0
 433              	.LVL53:
 434 0174 2DE9F041 		push	{r4, r5, r6, r7, r8, lr}
 435              	.LCFI13:
 436              		.cfi_def_cfa_offset 24
 437              		.cfi_offset 4, -24
 438              		.cfi_offset 5, -20
 439              		.cfi_offset 6, -16
 440              		.cfi_offset 7, -12
 441              		.cfi_offset 8, -8
 442              		.cfi_offset 14, -4
  71:../../source/src/kernel/OS_CORE/os_timer.c **** 	ASSERT((NULL != timer_ptr) && (NULL != name) && (NULL != fun));
 443              		.loc 1 71 0
 444 0178 8846     		mov	r8, r1
 445 017a 1646     		mov	r6, r2
 446 017c 1F46     		mov	r7, r3
  72:../../source/src/kernel/OS_CORE/os_timer.c **** #if CONFIG_PARA_CHECK
 447              		.loc 1 72 0
 448 017e 0446     		mov	r4, r0
 449 0180 C0B1     		cbz	r0, .L41
  72:../../source/src/kernel/OS_CORE/os_timer.c **** #if CONFIG_PARA_CHECK
 450              		.loc 1 72 0 is_stmt 0 discriminator 1
 451 0182 BAB1     		cbz	r2, .L41
  72:../../source/src/kernel/OS_CORE/os_timer.c **** #if CONFIG_PARA_CHECK
 452              		.loc 1 72 0 discriminator 3
 453 0184 B3B1     		cbz	r3, .L41
 454              	.LVL54:
  83:../../source/src/kernel/OS_CORE/os_timer.c **** 	if (g_interrupt_count > 0)
 455              		.loc 1 83 0 is_stmt 1
 456 0186 FFF7FEFF 		bl	CPU_SR_Save
 457              	.LVL55:
  84:../../source/src/kernel/OS_CORE/os_timer.c **** 	{
 458              		.loc 1 84 0
 459 018a 154B     		ldr	r3, .L43
 460 018c 1B68     		ldr	r3, [r3]
 461 018e 002B     		cmp	r3, #0
 462 0190 21DC     		bgt	.L42
  90:../../source/src/kernel/OS_CORE/os_timer.c **** 	timer_ptr->timer_name 		= name;
 463              		.loc 1 90 0
 464 0192 0025     		movs	r5, #0
  93:../../source/src/kernel/OS_CORE/os_timer.c **** 	timer_ptr->period 			= period;
 465              		.loc 1 93 0
 466 0194 069B     		ldr	r3, [sp, #24]
  89:../../source/src/kernel/OS_CORE/os_timer.c **** 	timer_ptr->state 			= DISABLE;
 467              		.loc 1 89 0
 468 0196 84F80080 		strb	r8, [r4]
  93:../../source/src/kernel/OS_CORE/os_timer.c **** 	timer_ptr->period 			= period;
 469              		.loc 1 93 0
 470 019a 2361     		str	r3, [r4, #16]
  94:../../source/src/kernel/OS_CORE/os_timer.c **** 	timer_ptr->rest_num 		= INIT_REST_NUM(num);
 471              		.loc 1 94 0
 472 019c 079B     		ldr	r3, [sp, #28]
  92:../../source/src/kernel/OS_CORE/os_timer.c **** 	timer_ptr->para 			= para;
 473              		.loc 1 92 0
 474 019e C4E90267 		strd	r6, r7, [r4, #8]
  94:../../source/src/kernel/OS_CORE/os_timer.c **** 	timer_ptr->rest_num 		= INIT_REST_NUM(num);
 475              		.loc 1 94 0
ARM GAS  G:\Users\Jaxb\AppData\Local\Temp\ccPfilDf.s 			page 14


 476 01a2 6361     		str	r3, [r4, #20]
  95:../../source/src/kernel/OS_CORE/os_timer.c **** 	CPU_CRITICAL_EXIT();
 477              		.loc 1 95 0
 478 01a4 089B     		ldr	r3, [sp, #32]
  90:../../source/src/kernel/OS_CORE/os_timer.c **** 	timer_ptr->timer_name 		= name;
 479              		.loc 1 90 0
 480 01a6 6570     		strb	r5, [r4, #1]
  95:../../source/src/kernel/OS_CORE/os_timer.c **** 	CPU_CRITICAL_EXIT();
 481              		.loc 1 95 0
 482 01a8 6360     		str	r3, [r4, #4]
  96:../../source/src/kernel/OS_CORE/os_timer.c **** 	return FUN_EXECUTE_SUCCESSFULLY;
 483              		.loc 1 96 0
 484 01aa FFF7FEFF 		bl	CPU_SR_Restore
 485              	.LVL56:
  97:../../source/src/kernel/OS_CORE/os_timer.c **** }
 486              		.loc 1 97 0
 487 01ae 2846     		mov	r0, r5
 488              	.L33:
  98:../../source/src/kernel/OS_CORE/os_timer.c **** EXPORT_SYMBOL(timer_init);
 489              		.loc 1 98 0
 490 01b0 BDE8F081 		pop	{r4, r5, r6, r7, r8, pc}
 491              	.LVL57:
 492              	.L41:
  72:../../source/src/kernel/OS_CORE/os_timer.c **** #if CONFIG_PARA_CHECK
 493              		.loc 1 72 0
 494 01b4 4821     		movs	r1, #72
 495              	.LVL58:
 496 01b6 0B48     		ldr	r0, .L43+4
 497              	.LVL59:
 498 01b8 FFF7FEFF 		bl	_ASSERT
 499              	.LVL60:
 500              	.LBB4:
 501              	.LBB5:
  76:../../source/src/kernel/OS_CORE/os_timer.c **** 		OS_ERROR_PARA_MESSAGE_DISPLAY(timer_init,name);
 502              		.loc 1 76 0
 503 01bc 0A48     		ldr	r0, .L43+8
 504 01be FFF7FEFF 		bl	ka_printf
 505              	.LVL61:
  77:../../source/src/kernel/OS_CORE/os_timer.c **** 		OS_ERROR_PARA_MESSAGE_DISPLAY(timer_init,fun);
 506              		.loc 1 77 0
 507 01c2 0A48     		ldr	r0, .L43+12
 508 01c4 FFF7FEFF 		bl	ka_printf
 509              	.LVL62:
  78:../../source/src/kernel/OS_CORE/os_timer.c **** 		return -ERROR_NULL_INPUT_PTR;
 510              		.loc 1 78 0
 511 01c8 0948     		ldr	r0, .L43+16
 512 01ca FFF7FEFF 		bl	ka_printf
 513              	.LVL63:
 514 01ce 6FF0FE00 		mvn	r0, #254
 515              	.LBE5:
 516              	.LBE4:
  98:../../source/src/kernel/OS_CORE/os_timer.c **** EXPORT_SYMBOL(timer_init);
 517              		.loc 1 98 0
 518 01d2 BDE8F081 		pop	{r4, r5, r6, r7, r8, pc}
 519              	.LVL64:
 520              	.L42:
  86:../../source/src/kernel/OS_CORE/os_timer.c **** 		return -ERROR_FUN_USE_IN_INTER;
ARM GAS  G:\Users\Jaxb\AppData\Local\Temp\ccPfilDf.s 			page 15


 521              		.loc 1 86 0
 522 01d6 FFF7FEFF 		bl	CPU_SR_Restore
 523              	.LVL65:
  87:../../source/src/kernel/OS_CORE/os_timer.c **** 	}
 524              		.loc 1 87 0
 525 01da 6FF0FC00 		mvn	r0, #252
 526 01de E7E7     		b	.L33
 527              	.L44:
 528              		.align	2
 529              	.L43:
 530 01e0 00000000 		.word	g_interrupt_count
 531 01e4 00000000 		.word	.LC0
 532 01e8 D4000000 		.word	.LC4
 533 01ec 08010000 		.word	.LC5
 534 01f0 38010000 		.word	.LC6
 535              		.cfi_endproc
 536              	.LFE15:
 537              		.size	timer_init, .-timer_init
 538              		.align	1
 539              		.p2align 2,,3
 540              		.global	timer_create
 541              		.syntax unified
 542              		.thumb
 543              		.thumb_func
 544              		.fpu softvfp
 545              		.type	timer_create, %function
 546              	timer_create:
 547              	.LFB16:
 115:../../source/src/kernel/OS_CORE/os_timer.c **** 	struct timer *ptr;
 548              		.loc 1 115 0
 549              		.cfi_startproc
 550              		@ args = 12, pretend = 0, frame = 0
 551              		@ frame_needed = 0, uses_anonymous_args = 0
 552              	.LVL66:
 553 01f4 2DE9F043 		push	{r4, r5, r6, r7, r8, r9, lr}
 554              	.LCFI14:
 555              		.cfi_def_cfa_offset 28
 556              		.cfi_offset 4, -28
 557              		.cfi_offset 5, -24
 558              		.cfi_offset 6, -20
 559              		.cfi_offset 7, -16
 560              		.cfi_offset 8, -12
 561              		.cfi_offset 9, -8
 562              		.cfi_offset 14, -4
 563 01f8 0646     		mov	r6, r0
 564 01fa 85B0     		sub	sp, sp, #20
 565              	.LCFI15:
 566              		.cfi_def_cfa_offset 48
 117:../../source/src/kernel/OS_CORE/os_timer.c **** 	if(NULL == ptr)
 567              		.loc 1 117 0
 568 01fc 2820     		movs	r0, #40
 569              	.LVL67:
 115:../../source/src/kernel/OS_CORE/os_timer.c **** 	struct timer *ptr;
 570              		.loc 1 115 0
 571 01fe 0F46     		mov	r7, r1
 572 0200 9046     		mov	r8, r2
 573 0202 9946     		mov	r9, r3
ARM GAS  G:\Users\Jaxb\AppData\Local\Temp\ccPfilDf.s 			page 16


 574 0204 0E9C     		ldr	r4, [sp, #56]
 117:../../source/src/kernel/OS_CORE/os_timer.c **** 	if(NULL == ptr)
 575              		.loc 1 117 0
 576 0206 FFF7FEFF 		bl	ka_malloc
 577              	.LVL68:
 118:../../source/src/kernel/OS_CORE/os_timer.c **** 	{
 578              		.loc 1 118 0
 579 020a 0546     		mov	r5, r0
 580 020c C8B1     		cbz	r0, .L48
 122:../../source/src/kernel/OS_CORE/os_timer.c **** 	{
 581              		.loc 1 122 0
 582 020e 06B1     		cbz	r6, .L47
 124:../../source/src/kernel/OS_CORE/os_timer.c **** 	}
 583              		.loc 1 124 0
 584 0210 3060     		str	r0, [r6]
 585              	.L47:
 586              	.LVL69:
 127:../../source/src/kernel/OS_CORE/os_timer.c **** 	timer_init(ptr,type,name,fun,para,period,num);
 587              		.loc 1 127 0
 588 0212 FFF7FEFF 		bl	CPU_SR_Save
 589              	.LVL70:
 590 0216 0646     		mov	r6, r0
 591              	.LVL71:
 128:../../source/src/kernel/OS_CORE/os_timer.c **** 	ptr->rest_num = CREAT_REST_NUM(num);
 592              		.loc 1 128 0
 593 0218 0D9B     		ldr	r3, [sp, #52]
 594 021a 0294     		str	r4, [sp, #8]
 595 021c 0193     		str	r3, [sp, #4]
 596 021e 0C9B     		ldr	r3, [sp, #48]
 597 0220 4246     		mov	r2, r8
 598 0222 0093     		str	r3, [sp]
 599 0224 3946     		mov	r1, r7
 600 0226 4B46     		mov	r3, r9
 601 0228 2846     		mov	r0, r5
 602              	.LVL72:
 129:../../source/src/kernel/OS_CORE/os_timer.c **** 	CPU_CRITICAL_EXIT();
 603              		.loc 1 129 0
 604 022a 44F00044 		orr	r4, r4, #-2147483648
 128:../../source/src/kernel/OS_CORE/os_timer.c **** 	ptr->rest_num = CREAT_REST_NUM(num);
 605              		.loc 1 128 0
 606 022e FFF7FEFF 		bl	timer_init
 607              	.LVL73:
 130:../../source/src/kernel/OS_CORE/os_timer.c **** 	return FUN_EXECUTE_SUCCESSFULLY;
 608              		.loc 1 130 0
 609 0232 3046     		mov	r0, r6
 129:../../source/src/kernel/OS_CORE/os_timer.c **** 	CPU_CRITICAL_EXIT();
 610              		.loc 1 129 0
 611 0234 6C60     		str	r4, [r5, #4]
 130:../../source/src/kernel/OS_CORE/os_timer.c **** 	return FUN_EXECUTE_SUCCESSFULLY;
 612              		.loc 1 130 0
 613 0236 FFF7FEFF 		bl	CPU_SR_Restore
 614              	.LVL74:
 131:../../source/src/kernel/OS_CORE/os_timer.c **** }
 615              		.loc 1 131 0
 616 023a 0020     		movs	r0, #0
 617              	.LVL75:
 618              	.L45:
ARM GAS  G:\Users\Jaxb\AppData\Local\Temp\ccPfilDf.s 			page 17


 132:../../source/src/kernel/OS_CORE/os_timer.c **** EXPORT_SYMBOL(timer_create);
 619              		.loc 1 132 0
 620 023c 05B0     		add	sp, sp, #20
 621              	.LCFI16:
 622              		.cfi_remember_state
 623              		.cfi_def_cfa_offset 28
 624              		@ sp needed
 625 023e BDE8F083 		pop	{r4, r5, r6, r7, r8, r9, pc}
 626              	.LVL76:
 627              	.L48:
 628              	.LCFI17:
 629              		.cfi_restore_state
 120:../../source/src/kernel/OS_CORE/os_timer.c **** 	}
 630              		.loc 1 120 0
 631 0242 6FF0FA00 		mvn	r0, #250
 632              	.LVL77:
 633 0246 F9E7     		b	.L45
 634              		.cfi_endproc
 635              	.LFE16:
 636              		.size	timer_create, .-timer_create
 637              		.align	1
 638              		.p2align 2,,3
 639              		.global	__init_timer
 640              		.syntax unified
 641              		.thumb
 642              		.thumb_func
 643              		.fpu softvfp
 644              		.type	__init_timer, %function
 645              	__init_timer:
 646              	.LFB14:
  48:../../source/src/kernel/OS_CORE/os_timer.c **** 	if(0 != heap_init(&timer_heap,16,sizeof(struct timer *),cmp,index_change_record))
 647              		.loc 1 48 0
 648              		.cfi_startproc
 649              		@ args = 0, pretend = 0, frame = 0
 650              		@ frame_needed = 0, uses_anonymous_args = 0
 651 0248 00B5     		push	{lr}
 652              	.LCFI18:
 653              		.cfi_def_cfa_offset 4
 654              		.cfi_offset 14, -4
  49:../../source/src/kernel/OS_CORE/os_timer.c **** 	{
 655              		.loc 1 49 0
 656 024a 084A     		ldr	r2, .L56
  48:../../source/src/kernel/OS_CORE/os_timer.c **** 	if(0 != heap_init(&timer_heap,16,sizeof(struct timer *),cmp,index_change_record))
 657              		.loc 1 48 0
 658 024c 83B0     		sub	sp, sp, #12
 659              	.LCFI19:
 660              		.cfi_def_cfa_offset 16
  49:../../source/src/kernel/OS_CORE/os_timer.c **** 	{
 661              		.loc 1 49 0
 662 024e 0092     		str	r2, [sp]
 663 0250 074B     		ldr	r3, .L56+4
 664 0252 0422     		movs	r2, #4
 665 0254 1021     		movs	r1, #16
 666 0256 0748     		ldr	r0, .L56+8
 667 0258 FFF7FEFF 		bl	heap_init
 668              	.LVL78:
 669 025c 10B9     		cbnz	r0, .L55
ARM GAS  G:\Users\Jaxb\AppData\Local\Temp\ccPfilDf.s 			page 18


  55:../../source/src/kernel/OS_CORE/os_timer.c **** 
 670              		.loc 1 55 0
 671 025e 03B0     		add	sp, sp, #12
 672              	.LCFI20:
 673              		.cfi_remember_state
 674              		.cfi_def_cfa_offset 4
 675              		@ sp needed
 676 0260 5DF804FB 		ldr	pc, [sp], #4
 677              	.L55:
 678              	.LCFI21:
 679              		.cfi_restore_state
  51:../../source/src/kernel/OS_CORE/os_timer.c **** 		while(1);
 680              		.loc 1 51 0
 681 0264 0448     		ldr	r0, .L56+12
 682 0266 FFF7FEFF 		bl	ka_printf
 683              	.LVL79:
 684              	.L54:
 685 026a FEE7     		b	.L54
 686              	.L57:
 687              		.align	2
 688              	.L56:
 689 026c 00000000 		.word	index_change_record
 690 0270 00000000 		.word	cmp
 691 0274 00000000 		.word	.LANCHOR0
 692 0278 68010000 		.word	.LC7
 693              		.cfi_endproc
 694              	.LFE14:
 695              		.size	__init_timer, .-__init_timer
 696              		.align	1
 697              		.p2align 2,,3
 698              		.global	get_timer_heap_top
 699              		.syntax unified
 700              		.thumb
 701              		.thumb_func
 702              		.fpu softvfp
 703              		.type	get_timer_heap_top, %function
 704              	get_timer_heap_top:
 705              	.LFB20:
 228:../../source/src/kernel/OS_CORE/os_timer.c **** EXPORT_SYMBOL(timer_delete);
 229:../../source/src/kernel/OS_CORE/os_timer.c **** 
 230:../../source/src/kernel/OS_CORE/os_timer.c **** /**
 231:../../source/src/kernel/OS_CORE/os_timer.c ****  * This is a system function
 232:../../source/src/kernel/OS_CORE/os_timer.c ****  * @Author      kaka
 233:../../source/src/kernel/OS_CORE/os_timer.c ****  * @DateTime    2018-10-03
 234:../../source/src/kernel/OS_CORE/os_timer.c ****  * @description :	this function is used by system tick function
 235:../../source/src/kernel/OS_CORE/os_timer.c ****  * to check if waking up the timer task is needed or not
 236:../../source/src/kernel/OS_CORE/os_timer.c ****  * @param       timer_ptr  [description]
 237:../../source/src/kernel/OS_CORE/os_timer.c ****  * @return                 [description]
 238:../../source/src/kernel/OS_CORE/os_timer.c ****  */
 239:../../source/src/kernel/OS_CORE/os_timer.c **** int get_timer_heap_top(struct timer **timer_ptr)
 240:../../source/src/kernel/OS_CORE/os_timer.c **** {
 706              		.loc 1 240 0
 707              		.cfi_startproc
 708              		@ args = 0, pretend = 0, frame = 0
 709              		@ frame_needed = 0, uses_anonymous_args = 0
 710              	.LVL80:
 711 027c 38B5     		push	{r3, r4, r5, lr}
ARM GAS  G:\Users\Jaxb\AppData\Local\Temp\ccPfilDf.s 			page 19


 712              	.LCFI22:
 713              		.cfi_def_cfa_offset 16
 714              		.cfi_offset 3, -16
 715              		.cfi_offset 4, -12
 716              		.cfi_offset 5, -8
 717              		.cfi_offset 14, -4
 241:../../source/src/kernel/OS_CORE/os_timer.c **** 	ASSERT(NULL != timer_ptr);
 718              		.loc 1 241 0
 719 027e 0446     		mov	r4, r0
 720 0280 68B1     		cbz	r0, .L61
 721              	.LVL81:
 242:../../source/src/kernel/OS_CORE/os_timer.c **** #if CONFIG_PARA_CHECK
 243:../../source/src/kernel/OS_CORE/os_timer.c **** 	if(NULL == timer_ptr)
 244:../../source/src/kernel/OS_CORE/os_timer.c **** 	{
 245:../../source/src/kernel/OS_CORE/os_timer.c **** 		OS_ERROR_PARA_MESSAGE_DISPLAY(get_timer_heap_top,timer_ptr);
 246:../../source/src/kernel/OS_CORE/os_timer.c **** 		return -ERROR_NULL_INPUT_PTR;
 247:../../source/src/kernel/OS_CORE/os_timer.c **** 	}
 248:../../source/src/kernel/OS_CORE/os_timer.c **** #endif
 249:../../source/src/kernel/OS_CORE/os_timer.c **** 	CPU_SR_ALLOC();
 250:../../source/src/kernel/OS_CORE/os_timer.c **** 	CPU_CRITICAL_ENTER();
 722              		.loc 1 250 0
 723 0282 FFF7FEFF 		bl	CPU_SR_Save
 724              	.LVL82:
 251:../../source/src/kernel/OS_CORE/os_timer.c **** 	int ret = heap_get_top_safe(&timer_heap,(void *)timer_ptr);
 725              		.loc 1 251 0
 726 0286 2146     		mov	r1, r4
 250:../../source/src/kernel/OS_CORE/os_timer.c **** 	int ret = heap_get_top_safe(&timer_heap,(void *)timer_ptr);
 727              		.loc 1 250 0
 728 0288 0546     		mov	r5, r0
 729              	.LVL83:
 730              		.loc 1 251 0
 731 028a 0122     		movs	r2, #1
 732 028c 0948     		ldr	r0, .L62
 733              	.LVL84:
 734 028e FFF7FEFF 		bl	heap_get_index_data_safe
 735              	.LVL85:
 736 0292 0446     		mov	r4, r0
 737              	.LVL86:
 252:../../source/src/kernel/OS_CORE/os_timer.c **** 	CPU_CRITICAL_EXIT();
 738              		.loc 1 252 0
 739 0294 2846     		mov	r0, r5
 740              	.LVL87:
 741 0296 FFF7FEFF 		bl	CPU_SR_Restore
 742              	.LVL88:
 253:../../source/src/kernel/OS_CORE/os_timer.c **** 	return ret;
 254:../../source/src/kernel/OS_CORE/os_timer.c **** }
 743              		.loc 1 254 0
 744 029a 2046     		mov	r0, r4
 745 029c 38BD     		pop	{r3, r4, r5, pc}
 746              	.LVL89:
 747              	.L61:
 246:../../source/src/kernel/OS_CORE/os_timer.c **** 	}
 748              		.loc 1 246 0 discriminator 1
 749 029e 6FF0FE04 		mvn	r4, #254
 241:../../source/src/kernel/OS_CORE/os_timer.c **** #if CONFIG_PARA_CHECK
 750              		.loc 1 241 0 discriminator 1
 751 02a2 F121     		movs	r1, #241
ARM GAS  G:\Users\Jaxb\AppData\Local\Temp\ccPfilDf.s 			page 20


 752 02a4 0448     		ldr	r0, .L62+4
 753              	.LVL90:
 754 02a6 FFF7FEFF 		bl	_ASSERT
 755              	.LVL91:
 245:../../source/src/kernel/OS_CORE/os_timer.c **** 		return -ERROR_NULL_INPUT_PTR;
 756              		.loc 1 245 0 discriminator 1
 757 02aa 0448     		ldr	r0, .L62+8
 758 02ac FFF7FEFF 		bl	ka_printf
 759              	.LVL92:
 760              		.loc 1 254 0 discriminator 1
 761 02b0 2046     		mov	r0, r4
 762 02b2 38BD     		pop	{r3, r4, r5, pc}
 763              	.L63:
 764              		.align	2
 765              	.L62:
 766 02b4 00000000 		.word	.LANCHOR0
 767 02b8 00000000 		.word	.LC0
 768 02bc 94010000 		.word	.LC8
 769              		.cfi_endproc
 770              	.LFE20:
 771              		.size	get_timer_heap_top, .-get_timer_heap_top
 772              		.align	1
 773              		.p2align 2,,3
 774              		.global	timer_task
 775              		.syntax unified
 776              		.thumb
 777              		.thumb_func
 778              		.fpu softvfp
 779              		.type	timer_task, %function
 780              	timer_task:
 781              	.LFB21:
 255:../../source/src/kernel/OS_CORE/os_timer.c **** 
 256:../../source/src/kernel/OS_CORE/os_timer.c **** /**
 257:../../source/src/kernel/OS_CORE/os_timer.c ****  * This is a system function
 258:../../source/src/kernel/OS_CORE/os_timer.c ****  * @Author      kaka
 259:../../source/src/kernel/OS_CORE/os_timer.c ****  * @DateTime    2018-10-03
 260:../../source/src/kernel/OS_CORE/os_timer.c ****  * @description : timer task, all the works are being done in
 261:../../source/src/kernel/OS_CORE/os_timer.c ****  * this task, whose priority is 0(the max priority)
 262:../../source/src/kernel/OS_CORE/os_timer.c ****  * @param       para       [description]
 263:../../source/src/kernel/OS_CORE/os_timer.c ****  */
 264:../../source/src/kernel/OS_CORE/os_timer.c **** void timer_task(void *para)
 265:../../source/src/kernel/OS_CORE/os_timer.c **** {
 782              		.loc 1 265 0
 783              		.cfi_startproc
 784              		@ args = 0, pretend = 0, frame = 8
 785              		@ frame_needed = 0, uses_anonymous_args = 0
 786              	.LVL93:
 787 02c0 2DE93048 		push	{r4, r5, fp, lr}
 788              	.LCFI23:
 789              		.cfi_def_cfa_offset 16
 790              		.cfi_offset 4, -16
 791              		.cfi_offset 5, -12
 792              		.cfi_offset 11, -8
 793              		.cfi_offset 14, -4
 794 02c4 82B0     		sub	sp, sp, #8
 795              	.LCFI24:
 796              		.cfi_def_cfa_offset 24
ARM GAS  G:\Users\Jaxb\AppData\Local\Temp\ccPfilDf.s 			page 21


 266:../../source/src/kernel/OS_CORE/os_timer.c **** 	(void)para;
 267:../../source/src/kernel/OS_CORE/os_timer.c **** 	UINT64 tick;
 268:../../source/src/kernel/OS_CORE/os_timer.c **** 	struct timer *timer_ptr;
 269:../../source/src/kernel/OS_CORE/os_timer.c **** 	int ret = heap_get_top_safe(&timer_heap,&timer_ptr);
 797              		.loc 1 269 0
 798 02c6 01A9     		add	r1, sp, #4
 799 02c8 0122     		movs	r2, #1
 800 02ca 2748     		ldr	r0, .L81
 801              	.LVL94:
 802 02cc FFF7FEFF 		bl	heap_get_index_data_safe
 803              	.LVL95:
 270:../../source/src/kernel/OS_CORE/os_timer.c **** 	while(1)
 271:../../source/src/kernel/OS_CORE/os_timer.c **** 	{
 272:../../source/src/kernel/OS_CORE/os_timer.c **** 		if(ret < 0)
 273:../../source/src/kernel/OS_CORE/os_timer.c **** 		{
 274:../../source/src/kernel/OS_CORE/os_timer.c **** 			suspend();
 275:../../source/src/kernel/OS_CORE/os_timer.c **** 		}
 276:../../source/src/kernel/OS_CORE/os_timer.c **** 		else
 277:../../source/src/kernel/OS_CORE/os_timer.c **** 		{
 278:../../source/src/kernel/OS_CORE/os_timer.c **** 			tick = get_tick();
 279:../../source/src/kernel/OS_CORE/os_timer.c **** 			if(TIME_FIRST_SMALLER_THAN_SECOND(tick,timer_ptr->wake_time))
 280:../../source/src/kernel/OS_CORE/os_timer.c **** 			{
 281:../../source/src/kernel/OS_CORE/os_timer.c **** 				suspend();
 282:../../source/src/kernel/OS_CORE/os_timer.c **** 			}
 283:../../source/src/kernel/OS_CORE/os_timer.c **** 			else
 284:../../source/src/kernel/OS_CORE/os_timer.c **** 			{
 285:../../source/src/kernel/OS_CORE/os_timer.c **** 				heap_remove_top(&timer_heap,&timer_ptr);
 804              		.loc 1 285 0
 805 02d0 254C     		ldr	r4, .L81
 286:../../source/src/kernel/OS_CORE/os_timer.c **** 				(timer_ptr->fun)(timer_ptr->para);
 287:../../source/src/kernel/OS_CORE/os_timer.c **** 				switch(timer_ptr->type)
 288:../../source/src/kernel/OS_CORE/os_timer.c **** 				{
 289:../../source/src/kernel/OS_CORE/os_timer.c **** 					case TIMER_ONE_TIME:
 290:../../source/src/kernel/OS_CORE/os_timer.c **** 						if(TIMER_IS_CREAT(timer_ptr))
 291:../../source/src/kernel/OS_CORE/os_timer.c **** 						{
 292:../../source/src/kernel/OS_CORE/os_timer.c **** 							ka_free(timer_ptr);
 293:../../source/src/kernel/OS_CORE/os_timer.c **** 						}
 294:../../source/src/kernel/OS_CORE/os_timer.c **** 						break;
 295:../../source/src/kernel/OS_CORE/os_timer.c **** 					case TIMER_TIME:
 296:../../source/src/kernel/OS_CORE/os_timer.c **** 						--(timer_ptr->rest_num);
 297:../../source/src/kernel/OS_CORE/os_timer.c **** 						if(0 == GET_REST_NUM(timer_ptr->rest_num))
 298:../../source/src/kernel/OS_CORE/os_timer.c **** 						{
 299:../../source/src/kernel/OS_CORE/os_timer.c **** 							if(TIMER_IS_CREAT(timer_ptr))
 300:../../source/src/kernel/OS_CORE/os_timer.c **** 							{
 301:../../source/src/kernel/OS_CORE/os_timer.c **** 								ka_free(timer_ptr);
 302:../../source/src/kernel/OS_CORE/os_timer.c **** 							}
 303:../../source/src/kernel/OS_CORE/os_timer.c **** 							break;
 304:../../source/src/kernel/OS_CORE/os_timer.c **** 						}
 305:../../source/src/kernel/OS_CORE/os_timer.c **** 					case TIMER_PERIODIC:
 306:../../source/src/kernel/OS_CORE/os_timer.c **** 						timer_ptr->wake_time += timer_ptr->period;
 307:../../source/src/kernel/OS_CORE/os_timer.c **** 						heap_push(&timer_heap,&timer_ptr);
 308:../../source/src/kernel/OS_CORE/os_timer.c **** 						break;
 309:../../source/src/kernel/OS_CORE/os_timer.c **** 					default:
 310:../../source/src/kernel/OS_CORE/os_timer.c **** 						ASSERT(0);
 806              		.loc 1 310 0
 807 02d2 264D     		ldr	r5, .L81+4
 808 02d4 28E0     		b	.L74
ARM GAS  G:\Users\Jaxb\AppData\Local\Temp\ccPfilDf.s 			page 22


 809              	.L65:
 278:../../source/src/kernel/OS_CORE/os_timer.c **** 			if(TIME_FIRST_SMALLER_THAN_SECOND(tick,timer_ptr->wake_time))
 810              		.loc 1 278 0
 811 02d6 FFF7FEFF 		bl	get_tick
 812              	.LVL96:
 279:../../source/src/kernel/OS_CORE/os_timer.c **** 			{
 813              		.loc 1 279 0
 814 02da 019B     		ldr	r3, [sp, #4]
 815 02dc D3E90823 		ldrd	r2, [r3, #32]
 816 02e0 821A     		subs	r2, r0, r2
 817 02e2 61EB0303 		sbc	r3, r1, r3
 818 02e6 9C46     		mov	ip, r3
 819 02e8 002A     		cmp	r2, #0
 820 02ea 7CF10003 		sbcs	r3, ip, #0
 821 02ee 1DDB     		blt	.L67
 285:../../source/src/kernel/OS_CORE/os_timer.c **** 				(timer_ptr->fun)(timer_ptr->para);
 822              		.loc 1 285 0
 823 02f0 01AA     		add	r2, sp, #4
 824 02f2 0121     		movs	r1, #1
 825 02f4 2046     		mov	r0, r4
 826              	.LVL97:
 827 02f6 FFF7FEFF 		bl	heap_remove_index_data
 828              	.LVL98:
 286:../../source/src/kernel/OS_CORE/os_timer.c **** 				switch(timer_ptr->type)
 829              		.loc 1 286 0
 830 02fa 019B     		ldr	r3, [sp, #4]
 831 02fc D3E90320 		ldrd	r2, r0, [r3, #12]
 832 0300 9047     		blx	r2
 833              	.LVL99:
 287:../../source/src/kernel/OS_CORE/os_timer.c **** 				{
 834              		.loc 1 287 0
 835 0302 0198     		ldr	r0, [sp, #4]
 836 0304 0378     		ldrb	r3, [r0]	@ zero_extendqisi2
 837 0306 012B     		cmp	r3, #1
 838 0308 14D0     		beq	.L69
 839 030a 21D3     		bcc	.L70
 840 030c 022B     		cmp	r3, #2
 841 030e 25D1     		bne	.L80
 296:../../source/src/kernel/OS_CORE/os_timer.c **** 						if(0 == GET_REST_NUM(timer_ptr->rest_num))
 842              		.loc 1 296 0
 843 0310 4368     		ldr	r3, [r0, #4]
 844 0312 013B     		subs	r3, r3, #1
 297:../../source/src/kernel/OS_CORE/os_timer.c **** 						{
 845              		.loc 1 297 0
 846 0314 5A06     		lsls	r2, r3, #25
 296:../../source/src/kernel/OS_CORE/os_timer.c **** 						if(0 == GET_REST_NUM(timer_ptr->rest_num))
 847              		.loc 1 296 0
 848 0316 4360     		str	r3, [r0, #4]
 297:../../source/src/kernel/OS_CORE/os_timer.c **** 						{
 849              		.loc 1 297 0
 850 0318 0CD1     		bne	.L69
 299:../../source/src/kernel/OS_CORE/os_timer.c **** 							{
 851              		.loc 1 299 0
 852 031a 002B     		cmp	r3, #0
 853 031c 1BDB     		blt	.L79
 854              	.L66:
 311:../../source/src/kernel/OS_CORE/os_timer.c **** 						break;
ARM GAS  G:\Users\Jaxb\AppData\Local\Temp\ccPfilDf.s 			page 23


 312:../../source/src/kernel/OS_CORE/os_timer.c **** 				}
 313:../../source/src/kernel/OS_CORE/os_timer.c **** 			}
 314:../../source/src/kernel/OS_CORE/os_timer.c **** 		}
 315:../../source/src/kernel/OS_CORE/os_timer.c **** 		ret = heap_get_top_safe(&timer_heap,&timer_ptr);
 855              		.loc 1 315 0
 856 031e 0122     		movs	r2, #1
 857 0320 01A9     		add	r1, sp, #4
 858 0322 2046     		mov	r0, r4
 859 0324 FFF7FEFF 		bl	heap_get_index_data_safe
 860              	.LVL100:
 861              	.L74:
 272:../../source/src/kernel/OS_CORE/os_timer.c **** 		{
 862              		.loc 1 272 0
 863 0328 0028     		cmp	r0, #0
 864 032a D4DA     		bge	.L65
 865              	.LVL101:
 866              	.L67:
 274:../../source/src/kernel/OS_CORE/os_timer.c **** 		}
 867              		.loc 1 274 0
 868 032c 0320     		movs	r0, #3
 869 032e FFF7FEFF 		bl	sys_suspend
 870              	.LVL102:
 871 0332 F4E7     		b	.L66
 872              	.L69:
 306:../../source/src/kernel/OS_CORE/os_timer.c **** 						heap_push(&timer_heap,&timer_ptr);
 873              		.loc 1 306 0
 874 0334 4169     		ldr	r1, [r0, #20]
 875 0336 D0E90823 		ldrd	r2, [r0, #32]
 876 033a 12EB010B 		adds	fp, r2, r1
 877 033e 43F1000C 		adc	ip, r3, #0
 878 0342 C0E908BC 		strd	fp, [r0, #32]
 307:../../source/src/kernel/OS_CORE/os_timer.c **** 						break;
 879              		.loc 1 307 0
 880 0346 01A9     		add	r1, sp, #4
 881 0348 2046     		mov	r0, r4
 882 034a FFF7FEFF 		bl	heap_push
 883              	.LVL103:
 308:../../source/src/kernel/OS_CORE/os_timer.c **** 					default:
 884              		.loc 1 308 0
 885 034e E6E7     		b	.L66
 886              	.L70:
 290:../../source/src/kernel/OS_CORE/os_timer.c **** 						{
 887              		.loc 1 290 0
 888 0350 4368     		ldr	r3, [r0, #4]
 889 0352 002B     		cmp	r3, #0
 890 0354 E3DA     		bge	.L66
 891              	.L79:
 301:../../source/src/kernel/OS_CORE/os_timer.c **** 							}
 892              		.loc 1 301 0
 893 0356 FFF7FEFF 		bl	ka_free
 894              	.LVL104:
 895 035a E0E7     		b	.L66
 896              	.L80:
 310:../../source/src/kernel/OS_CORE/os_timer.c **** 						break;
 897              		.loc 1 310 0 discriminator 1
 898 035c 4FF49B71 		mov	r1, #310
 899 0360 2846     		mov	r0, r5
ARM GAS  G:\Users\Jaxb\AppData\Local\Temp\ccPfilDf.s 			page 24


 900 0362 FFF7FEFF 		bl	_ASSERT
 901              	.LVL105:
 311:../../source/src/kernel/OS_CORE/os_timer.c **** 				}
 902              		.loc 1 311 0 discriminator 1
 903 0366 DAE7     		b	.L66
 904              	.L82:
 905              		.align	2
 906              	.L81:
 907 0368 00000000 		.word	.LANCHOR0
 908 036c 00000000 		.word	.LC0
 909              		.cfi_endproc
 910              	.LFE21:
 911              		.size	timer_task, .-timer_task
 912              		.global	__rtmsym_timer_delete
 913              		.global	__rtmsym_timer_delete_name
 914              		.global	__rtmsym_timer_disable
 915              		.global	__rtmsym_timer_disable_name
 916              		.global	__rtmsym_timer_enable
 917              		.global	__rtmsym_timer_enable_name
 918              		.global	__rtmsym_timer_create
 919              		.global	__rtmsym_timer_create_name
 920              		.global	__rtmsym_timer_init
 921              		.global	__rtmsym_timer_init_name
 922              		.bss
 923              		.align	2
 924              		.set	.LANCHOR0,. + 0
 925              		.type	timer_heap, %object
 926              		.size	timer_heap, 28
 927              	timer_heap:
 928 0000 00000000 		.space	28
 928      00000000 
 928      00000000 
 928      00000000 
 928      00000000 
 929              		.section	.RTMSymTab,"a",%progbits
 930              		.align	2
 931              		.type	__rtmsym_timer_delete, %object
 932              		.size	__rtmsym_timer_delete, 8
 933              	__rtmsym_timer_delete:
 934 0000 00000000 		.word	timer_delete
 935 0004 00000000 		.word	__rtmsym_timer_delete_name
 936              		.type	__rtmsym_timer_disable, %object
 937              		.size	__rtmsym_timer_disable, 8
 938              	__rtmsym_timer_disable:
 939 0008 00000000 		.word	timer_disable
 940 000c 00000000 		.word	__rtmsym_timer_disable_name
 941              		.type	__rtmsym_timer_enable, %object
 942              		.size	__rtmsym_timer_enable, 8
 943              	__rtmsym_timer_enable:
 944 0010 00000000 		.word	timer_enable
 945 0014 00000000 		.word	__rtmsym_timer_enable_name
 946              		.type	__rtmsym_timer_create, %object
 947              		.size	__rtmsym_timer_create, 8
 948              	__rtmsym_timer_create:
 949 0018 00000000 		.word	timer_create
 950 001c 00000000 		.word	__rtmsym_timer_create_name
 951              		.type	__rtmsym_timer_init, %object
ARM GAS  G:\Users\Jaxb\AppData\Local\Temp\ccPfilDf.s 			page 25


 952              		.size	__rtmsym_timer_init, 8
 953              	__rtmsym_timer_init:
 954 0020 00000000 		.word	timer_init
 955 0024 00000000 		.word	__rtmsym_timer_init_name
 956              		.section	.rodata.name,"a",%progbits
 957              		.align	2
 958              		.type	__rtmsym_timer_delete_name, %object
 959              		.size	__rtmsym_timer_delete_name, 13
 960              	__rtmsym_timer_delete_name:
 961 0000 74696D65 		.ascii	"timer_delete\000"
 961      725F6465 
 961      6C657465 
 961      00
 962 000d 000000   		.space	3
 963              		.type	__rtmsym_timer_disable_name, %object
 964              		.size	__rtmsym_timer_disable_name, 14
 965              	__rtmsym_timer_disable_name:
 966 0010 74696D65 		.ascii	"timer_disable\000"
 966      725F6469 
 966      7361626C 
 966      6500
 967 001e 0000     		.space	2
 968              		.type	__rtmsym_timer_enable_name, %object
 969              		.size	__rtmsym_timer_enable_name, 13
 970              	__rtmsym_timer_enable_name:
 971 0020 74696D65 		.ascii	"timer_enable\000"
 971      725F656E 
 971      61626C65 
 971      00
 972 002d 000000   		.space	3
 973              		.type	__rtmsym_timer_create_name, %object
 974              		.size	__rtmsym_timer_create_name, 13
 975              	__rtmsym_timer_create_name:
 976 0030 74696D65 		.ascii	"timer_create\000"
 976      725F6372 
 976      65617465 
 976      00
 977 003d 000000   		.space	3
 978              		.type	__rtmsym_timer_init_name, %object
 979              		.size	__rtmsym_timer_init_name, 11
 980              	__rtmsym_timer_init_name:
 981 0040 74696D65 		.ascii	"timer_init\000"
 981      725F696E 
 981      697400
 982              		.section	.rodata.str1.4,"aMS",%progbits,1
 983              		.align	2
 984              	.LC0:
 985 0000 2E2E2F2E 		.ascii	"../../source/src/kernel/OS_CORE/os_timer.c\000"
 985      2E2F736F 
 985      75726365 
 985      2F737263 
 985      2F6B6572 
 986 002b 00       		.space	1
 987              	.LC1:
 988 002c 6572726F 		.ascii	"error fun name : timer_enable\012error para : timer"
 988      72206675 
 988      6E206E61 
ARM GAS  G:\Users\Jaxb\AppData\Local\Temp\ccPfilDf.s 			page 26


 988      6D65203A 
 988      2074696D 
 989 005c 5F707472 		.ascii	"_ptr\012\000"
 989      0A00
 990 0062 0000     		.space	2
 991              	.LC2:
 992 0064 6572726F 		.ascii	"error fun name : timer_disable\012error para : time"
 992      72206675 
 992      6E206E61 
 992      6D65203A 
 992      2074696D 
 993 0094 725F7074 		.ascii	"r_ptr\012\000"
 993      720A00
 994 009b 00       		.space	1
 995              	.LC3:
 996 009c 6572726F 		.ascii	"error fun name : timer_delete\012error para : timer"
 996      72206675 
 996      6E206E61 
 996      6D65203A 
 996      2074696D 
 997 00cc 5F707472 		.ascii	"_ptr\012\000"
 997      0A00
 998 00d2 0000     		.space	2
 999              	.LC4:
 1000 00d4 6572726F 		.ascii	"error fun name : timer_init\012error para : timer_p"
 1000      72206675 
 1000      6E206E61 
 1000      6D65203A 
 1000      2074696D 
 1001 0104 74720A00 		.ascii	"tr\012\000"
 1002              	.LC5:
 1003 0108 6572726F 		.ascii	"error fun name : timer_init\012error para : name\012"
 1003      72206675 
 1003      6E206E61 
 1003      6D65203A 
 1003      2074696D 
 1004 0136 00       		.ascii	"\000"
 1005 0137 00       		.space	1
 1006              	.LC6:
 1007 0138 6572726F 		.ascii	"error fun name : timer_init\012error para : fun\012"
 1007      72206675 
 1007      6E206E61 
 1007      6D65203A 
 1007      2074696D 
 1008 0165 00       		.ascii	"\000"
 1009 0166 0000     		.space	2
 1010              	.LC7:
 1011 0168 696E6974 		.ascii	"init_delay_heap error!\012stop booting.....\012\000"
 1011      5F64656C 
 1011      61795F68 
 1011      65617020 
 1011      6572726F 
 1012 0192 0000     		.space	2
 1013              	.LC8:
 1014 0194 6572726F 		.ascii	"error fun name : get_timer_heap_top\012error para :"
 1014      72206675 
 1014      6E206E61 
ARM GAS  G:\Users\Jaxb\AppData\Local\Temp\ccPfilDf.s 			page 27


 1014      6D65203A 
 1014      20676574 
 1015 01c4 2074696D 		.ascii	" timer_ptr\012\000"
 1015      65725F70 
 1015      74720A00 
 1016              		.text
 1017              	.Letext0:
 1018              		.file 2 "../../source/include/os_cpu/kakaosstdint.h"
 1019              		.file 3 "../../source/include/os_core/os_timer.h"
 1020              		.file 4 "../../source/include/os_lib/vector.h"
 1021              		.file 5 "../../source/include/os_lib/heap_oo.h"
 1022              		.file 6 "../../source/include/os_core/task_state.h"
 1023              		.file 7 "../../source/include/os_cpu/os_cpu_stm32.h"
 1024              		.file 8 "../../source/include/os_core/export.h"
 1025              		.file 9 "../../source/include/os_core/TCB.h"
 1026              		.file 10 "../../source/include/os_core/os_time.h"
 1027              		.file 11 "../../source/include/os_core/schedule/os_schedule.h"
 1028              		.file 12 "../../source/include/os_lib/myMicroLIB.h"
 1029              		.file 13 "../../source/include/os_lib/myassert.h"