ARM GAS  G:\Users\Jaxb\AppData\Local\Temp\ccPpMHTg.s 			page 1


   1              		.cpu cortex-m3
   2              		.eabi_attribute 20, 1
   3              		.eabi_attribute 21, 1
   4              		.eabi_attribute 23, 3
   5              		.eabi_attribute 24, 1
   6              		.eabi_attribute 25, 1
   7              		.eabi_attribute 26, 1
   8              		.eabi_attribute 30, 6
   9              		.eabi_attribute 34, 1
  10              		.eabi_attribute 18, 4
  11              		.file	"osinit.c"
  12              		.text
  13              	.Ltext0:
  14              		.cfi_sections	.debug_frame
  15              		.align	1
  16              		.syntax unified
  17              		.thumb
  18              		.thumb_func
  19              		.fpu softvfp
  20              		.type	__list_del, %function
  21              	__list_del:
  22              	.LFB6:
  23              		.file 1 "../../source/include/os_lib/double_linked_list.h"
   1:../../source/include/os_lib/double_linked_list.h **** #ifndef _DOUBLE_LINKED_LIST_H
   2:../../source/include/os_lib/double_linked_list.h **** #define _DOUBLE_LINKED_LIST_H
   3:../../source/include/os_lib/double_linked_list.h **** 
   4:../../source/include/os_lib/double_linked_list.h **** struct list_head {
   5:../../source/include/os_lib/double_linked_list.h ****     struct list_head *next, *prev;
   6:../../source/include/os_lib/double_linked_list.h **** };
   7:../../source/include/os_lib/double_linked_list.h **** 
   8:../../source/include/os_lib/double_linked_list.h **** 
   9:../../source/include/os_lib/double_linked_list.h **** #define LIST_HEAD_INIT(name) { &(name), &(name) }
  10:../../source/include/os_lib/double_linked_list.h **** 
  11:../../source/include/os_lib/double_linked_list.h **** 
  12:../../source/include/os_lib/double_linked_list.h **** #define LIST_HEAD(name) \
  13:../../source/include/os_lib/double_linked_list.h ****     struct list_head name = LIST_HEAD_INIT(name)
  14:../../source/include/os_lib/double_linked_list.h **** 
  15:../../source/include/os_lib/double_linked_list.h **** 
  16:../../source/include/os_lib/double_linked_list.h **** static inline void INIT_LIST_HEAD(struct list_head *list)
  17:../../source/include/os_lib/double_linked_list.h **** {
  18:../../source/include/os_lib/double_linked_list.h ****     list->next = list;
  19:../../source/include/os_lib/double_linked_list.h ****     list->prev = list;
  20:../../source/include/os_lib/double_linked_list.h **** }
  21:../../source/include/os_lib/double_linked_list.h **** 
  22:../../source/include/os_lib/double_linked_list.h **** 
  23:../../source/include/os_lib/double_linked_list.h **** static inline void __list_add(struct list_head *new,
  24:../../source/include/os_lib/double_linked_list.h ****                   struct list_head *prev,
  25:../../source/include/os_lib/double_linked_list.h ****                   struct list_head *next)
  26:../../source/include/os_lib/double_linked_list.h **** {
  27:../../source/include/os_lib/double_linked_list.h ****     next->prev = new;
  28:../../source/include/os_lib/double_linked_list.h ****     new->next = next;
  29:../../source/include/os_lib/double_linked_list.h ****     new->prev = prev;
  30:../../source/include/os_lib/double_linked_list.h ****     prev->next = new;
  31:../../source/include/os_lib/double_linked_list.h **** }
  32:../../source/include/os_lib/double_linked_list.h **** 
  33:../../source/include/os_lib/double_linked_list.h **** 
  34:../../source/include/os_lib/double_linked_list.h **** static inline void list_add(struct list_head *new, struct list_head *head)
ARM GAS  G:\Users\Jaxb\AppData\Local\Temp\ccPpMHTg.s 			page 2


  35:../../source/include/os_lib/double_linked_list.h **** {
  36:../../source/include/os_lib/double_linked_list.h ****     __list_add(new, head, head->next);
  37:../../source/include/os_lib/double_linked_list.h **** }
  38:../../source/include/os_lib/double_linked_list.h **** 
  39:../../source/include/os_lib/double_linked_list.h **** 
  40:../../source/include/os_lib/double_linked_list.h **** static inline void list_add_tail(struct list_head *new, struct list_head *head)
  41:../../source/include/os_lib/double_linked_list.h **** {
  42:../../source/include/os_lib/double_linked_list.h ****     __list_add(new, head->prev, head);
  43:../../source/include/os_lib/double_linked_list.h **** }
  44:../../source/include/os_lib/double_linked_list.h **** 
  45:../../source/include/os_lib/double_linked_list.h **** 
  46:../../source/include/os_lib/double_linked_list.h **** static inline void __list_del(struct list_head * prev, struct list_head * next)
  47:../../source/include/os_lib/double_linked_list.h **** {
  24              		.loc 1 47 0
  25              		.cfi_startproc
  26              		@ args = 0, pretend = 0, frame = 8
  27              		@ frame_needed = 1, uses_anonymous_args = 0
  28              		@ link register save eliminated.
  29 0000 80B4     		push	{r7}
  30              	.LCFI0:
  31              		.cfi_def_cfa_offset 4
  32              		.cfi_offset 7, -4
  33 0002 83B0     		sub	sp, sp, #12
  34              	.LCFI1:
  35              		.cfi_def_cfa_offset 16
  36 0004 00AF     		add	r7, sp, #0
  37              	.LCFI2:
  38              		.cfi_def_cfa_register 7
  39 0006 7860     		str	r0, [r7, #4]
  40 0008 3960     		str	r1, [r7]
  48:../../source/include/os_lib/double_linked_list.h ****     next->prev = prev;
  41              		.loc 1 48 0
  42 000a 3B68     		ldr	r3, [r7]
  43 000c 7A68     		ldr	r2, [r7, #4]
  44 000e 5A60     		str	r2, [r3, #4]
  49:../../source/include/os_lib/double_linked_list.h ****     prev->next = next;
  45              		.loc 1 49 0
  46 0010 7B68     		ldr	r3, [r7, #4]
  47 0012 3A68     		ldr	r2, [r7]
  48 0014 1A60     		str	r2, [r3]
  50:../../source/include/os_lib/double_linked_list.h **** }
  49              		.loc 1 50 0
  50 0016 00BF     		nop
  51 0018 0C37     		adds	r7, r7, #12
  52              	.LCFI3:
  53              		.cfi_def_cfa_offset 4
  54 001a BD46     		mov	sp, r7
  55              	.LCFI4:
  56              		.cfi_def_cfa_register 13
  57              		@ sp needed
  58 001c 80BC     		pop	{r7}
  59              	.LCFI5:
  60              		.cfi_restore 7
  61              		.cfi_def_cfa_offset 0
  62 001e 7047     		bx	lr
  63              		.cfi_endproc
  64              	.LFE6:
ARM GAS  G:\Users\Jaxb\AppData\Local\Temp\ccPpMHTg.s 			page 3


  65              		.size	__list_del, .-__list_del
  66              		.align	1
  67              		.syntax unified
  68              		.thumb
  69              		.thumb_func
  70              		.fpu softvfp
  71              		.type	list_del, %function
  72              	list_del:
  73              	.LFB7:
  51:../../source/include/os_lib/double_linked_list.h **** 
  52:../../source/include/os_lib/double_linked_list.h **** 
  53:../../source/include/os_lib/double_linked_list.h **** static inline void list_del(struct list_head *entry)
  54:../../source/include/os_lib/double_linked_list.h **** {
  74              		.loc 1 54 0
  75              		.cfi_startproc
  76              		@ args = 0, pretend = 0, frame = 8
  77              		@ frame_needed = 1, uses_anonymous_args = 0
  78 0020 80B5     		push	{r7, lr}
  79              	.LCFI6:
  80              		.cfi_def_cfa_offset 8
  81              		.cfi_offset 7, -8
  82              		.cfi_offset 14, -4
  83 0022 82B0     		sub	sp, sp, #8
  84              	.LCFI7:
  85              		.cfi_def_cfa_offset 16
  86 0024 00AF     		add	r7, sp, #0
  87              	.LCFI8:
  88              		.cfi_def_cfa_register 7
  89 0026 7860     		str	r0, [r7, #4]
  55:../../source/include/os_lib/double_linked_list.h ****     __list_del(entry->prev, entry->next);
  90              		.loc 1 55 0
  91 0028 7B68     		ldr	r3, [r7, #4]
  92 002a 5A68     		ldr	r2, [r3, #4]
  93 002c 7B68     		ldr	r3, [r7, #4]
  94 002e 1B68     		ldr	r3, [r3]
  95 0030 1946     		mov	r1, r3
  96 0032 1046     		mov	r0, r2
  97 0034 FFF7E4FF 		bl	__list_del
  56:../../source/include/os_lib/double_linked_list.h **** }
  98              		.loc 1 56 0
  99 0038 00BF     		nop
 100 003a 0837     		adds	r7, r7, #8
 101              	.LCFI9:
 102              		.cfi_def_cfa_offset 8
 103 003c BD46     		mov	sp, r7
 104              	.LCFI10:
 105              		.cfi_def_cfa_register 13
 106              		@ sp needed
 107 003e 80BD     		pop	{r7, pc}
 108              		.cfi_endproc
 109              	.LFE7:
 110              		.size	list_del, .-list_del
 111              		.align	1
 112              		.syntax unified
 113              		.thumb
 114              		.thumb_func
 115              		.fpu softvfp
ARM GAS  G:\Users\Jaxb\AppData\Local\Temp\ccPpMHTg.s 			page 4


 116              		.type	list_empty, %function
 117              	list_empty:
 118              	.LFB11:
  57:../../source/include/os_lib/double_linked_list.h **** 
  58:../../source/include/os_lib/double_linked_list.h **** 
  59:../../source/include/os_lib/double_linked_list.h **** static inline void __list_del_entry(struct list_head *entry)
  60:../../source/include/os_lib/double_linked_list.h **** {
  61:../../source/include/os_lib/double_linked_list.h ****     __list_del(entry->prev, entry->next);
  62:../../source/include/os_lib/double_linked_list.h **** }
  63:../../source/include/os_lib/double_linked_list.h **** 
  64:../../source/include/os_lib/double_linked_list.h **** 
  65:../../source/include/os_lib/double_linked_list.h **** static inline void list_del_init(struct list_head *entry)
  66:../../source/include/os_lib/double_linked_list.h **** {
  67:../../source/include/os_lib/double_linked_list.h ****     __list_del_entry(entry);
  68:../../source/include/os_lib/double_linked_list.h ****     INIT_LIST_HEAD(entry);
  69:../../source/include/os_lib/double_linked_list.h **** }
  70:../../source/include/os_lib/double_linked_list.h **** 
  71:../../source/include/os_lib/double_linked_list.h **** 
  72:../../source/include/os_lib/double_linked_list.h **** static inline void list_replace(struct list_head *old,
  73:../../source/include/os_lib/double_linked_list.h ****                 struct list_head *new)
  74:../../source/include/os_lib/double_linked_list.h **** {
  75:../../source/include/os_lib/double_linked_list.h ****     new->next = old->next;
  76:../../source/include/os_lib/double_linked_list.h ****     new->next->prev = new;
  77:../../source/include/os_lib/double_linked_list.h ****     new->prev = old->prev;
  78:../../source/include/os_lib/double_linked_list.h ****     new->prev->next = new;
  79:../../source/include/os_lib/double_linked_list.h **** }
  80:../../source/include/os_lib/double_linked_list.h **** 
  81:../../source/include/os_lib/double_linked_list.h **** 
  82:../../source/include/os_lib/double_linked_list.h **** static inline int list_empty(const struct list_head *head)
  83:../../source/include/os_lib/double_linked_list.h **** {
 119              		.loc 1 83 0
 120              		.cfi_startproc
 121              		@ args = 0, pretend = 0, frame = 8
 122              		@ frame_needed = 1, uses_anonymous_args = 0
 123              		@ link register save eliminated.
 124 0040 80B4     		push	{r7}
 125              	.LCFI11:
 126              		.cfi_def_cfa_offset 4
 127              		.cfi_offset 7, -4
 128 0042 83B0     		sub	sp, sp, #12
 129              	.LCFI12:
 130              		.cfi_def_cfa_offset 16
 131 0044 00AF     		add	r7, sp, #0
 132              	.LCFI13:
 133              		.cfi_def_cfa_register 7
 134 0046 7860     		str	r0, [r7, #4]
  84:../../source/include/os_lib/double_linked_list.h ****     return head->next == head;
 135              		.loc 1 84 0
 136 0048 7B68     		ldr	r3, [r7, #4]
 137 004a 1B68     		ldr	r3, [r3]
 138 004c 7A68     		ldr	r2, [r7, #4]
 139 004e 9A42     		cmp	r2, r3
 140 0050 0CBF     		ite	eq
 141 0052 0123     		moveq	r3, #1
 142 0054 0023     		movne	r3, #0
 143 0056 DBB2     		uxtb	r3, r3
  85:../../source/include/os_lib/double_linked_list.h **** }
ARM GAS  G:\Users\Jaxb\AppData\Local\Temp\ccPpMHTg.s 			page 5


 144              		.loc 1 85 0
 145 0058 1846     		mov	r0, r3
 146 005a 0C37     		adds	r7, r7, #12
 147              	.LCFI14:
 148              		.cfi_def_cfa_offset 4
 149 005c BD46     		mov	sp, r7
 150              	.LCFI15:
 151              		.cfi_def_cfa_register 13
 152              		@ sp needed
 153 005e 80BC     		pop	{r7}
 154              	.LCFI16:
 155              		.cfi_restore 7
 156              		.cfi_def_cfa_offset 0
 157 0060 7047     		bx	lr
 158              		.cfi_endproc
 159              	.LFE11:
 160              		.size	list_empty, .-list_empty
 161              		.bss
 162              		.align	3
 163              	TCB_shell:
 164 0000 00000000 		.space	72
 164      00000000 
 164      00000000 
 164      00000000 
 164      00000000 
 165              		.size	TCB_shell, 72
 166              		.align	3
 167              	TCB_init:
 168 0048 00000000 		.space	72
 168      00000000 
 168      00000000 
 168      00000000 
 168      00000000 
 169              		.size	TCB_init, 72
 170              		.align	3
 171              	TCB_idle:
 172 0090 00000000 		.space	72
 172      00000000 
 172      00000000 
 172      00000000 
 172      00000000 
 173              		.size	TCB_idle, 72
 174              		.comm	TCB_count_init,72,8
 175              		.comm	TCB_timer_task,72,8
 176              		.global	idle_num
 177              		.align	3
 178              		.type	idle_num, %object
 179              		.size	idle_num, 8
 180              	idle_num:
 181 00d8 00000000 		.space	8
 181      00000000 
 182              		.global	count_max_num
 183              		.align	2
 184              		.type	count_max_num, %object
 185              		.size	count_max_num, 4
 186              	count_max_num:
 187 00e0 00000000 		.space	4
ARM GAS  G:\Users\Jaxb\AppData\Local\Temp\ccPpMHTg.s 			page 6


 188              		.section	.INIT.TEXT,"ax",%progbits
 189              		.align	1
 190              		.syntax unified
 191              		.thumb
 192              		.thumb_func
 193              		.fpu softvfp
 194              		.type	os_init, %function
 195              	os_init:
 196              	.LFB18:
 197              		.file 2 "../../source/src/kernel/OS_CORE/osinit.c"
   1:../../source/src/kernel/OS_CORE/osinit.c **** #include <ka_configuration.h>
   2:../../source/src/kernel/OS_CORE/osinit.c **** #include <osinit.h>
   3:../../source/src/kernel/OS_CORE/osinit.c **** #include <os_delay.h>
   4:../../source/src/kernel/OS_CORE/osinit.c **** #include <os_ready.h>
   5:../../source/src/kernel/OS_CORE/osinit.c **** #include <os_suspend.h>
   6:../../source/src/kernel/OS_CORE/osinit.c **** #include <os_TCB_list.h>
   7:../../source/src/kernel/OS_CORE/osinit.c **** #include <os_schedule.h>
   8:../../source/src/kernel/OS_CORE/osinit.c **** #include <TCB.h>
   9:../../source/src/kernel/OS_CORE/osinit.c **** #include <os_cpu.h>
  10:../../source/src/kernel/OS_CORE/osinit.c **** #include <kakaosstdint.h>
  11:../../source/src/kernel/OS_CORE/osinit.c **** #include <myMicroLIB.h>
  12:../../source/src/kernel/OS_CORE/osinit.c **** #include <shell.h>
  13:../../source/src/kernel/OS_CORE/osinit.c **** #include <user.h>
  14:../../source/src/kernel/OS_CORE/osinit.c **** #include <myassert.h>
  15:../../source/src/kernel/OS_CORE/osinit.c **** #include <slab.h>
  16:../../source/src/kernel/OS_CORE/osinit.c **** #include <double_linked_list.h>
  17:../../source/src/kernel/OS_CORE/osinit.c **** #include <module.h>
  18:../../source/src/kernel/OS_CORE/osinit.c **** 
  19:../../source/src/kernel/OS_CORE/osinit.c **** 
  20:../../source/src/kernel/OS_CORE/osinit.c **** #if CONFIG_SHELL_EN
  21:../../source/src/kernel/OS_CORE/osinit.c **** 	static TCB TCB_shell;
  22:../../source/src/kernel/OS_CORE/osinit.c **** #endif
  23:../../source/src/kernel/OS_CORE/osinit.c **** static TCB TCB_init;
  24:../../source/src/kernel/OS_CORE/osinit.c **** static TCB TCB_idle;
  25:../../source/src/kernel/OS_CORE/osinit.c **** TCB TCB_count_init;
  26:../../source/src/kernel/OS_CORE/osinit.c **** 
  27:../../source/src/kernel/OS_CORE/osinit.c **** #if CONFIG_TIMER_EN
  28:../../source/src/kernel/OS_CORE/osinit.c **** 	TCB TCB_timer_task;
  29:../../source/src/kernel/OS_CORE/osinit.c **** #endif
  30:../../source/src/kernel/OS_CORE/osinit.c **** 
  31:../../source/src/kernel/OS_CORE/osinit.c **** UINT64 idle_num = 0;
  32:../../source/src/kernel/OS_CORE/osinit.c **** unsigned int  count_max_num = 0;//used for counting cpu used rate
  33:../../source/src/kernel/OS_CORE/osinit.c **** #if PRECISE_TIME_DELAY
  34:../../source/src/kernel/OS_CORE/osinit.c **** 	UINT64 num_pre_tick = 0;//used for precise timing
  35:../../source/src/kernel/OS_CORE/osinit.c **** 	TCB TCB_precise_timing;
  36:../../source/src/kernel/OS_CORE/osinit.c **** #endif
  37:../../source/src/kernel/OS_CORE/osinit.c **** 
  38:../../source/src/kernel/OS_CORE/osinit.c **** extern int g_schedule_lock;
  39:../../source/src/kernel/OS_CORE/osinit.c **** extern UINT64 g_time_tick_count;
  40:../../source/src/kernel/OS_CORE/osinit.c **** extern volatile int g_interrupt_count;
  41:../../source/src/kernel/OS_CORE/osinit.c **** extern TCB *OSTCBCurPtr;
  42:../../source/src/kernel/OS_CORE/osinit.c **** extern TCB *OSTCBHighRdyPtr;
  43:../../source/src/kernel/OS_CORE/osinit.c **** extern struct list_head *const cache_chain_head_ptr;
  44:../../source/src/kernel/OS_CORE/osinit.c **** 
  45:../../source/src/kernel/OS_CORE/osinit.c **** #if CONFIG_TIMER_EN
  46:../../source/src/kernel/OS_CORE/osinit.c **** 	extern void __init_timer(void);
  47:../../source/src/kernel/OS_CORE/osinit.c **** 	extern void timer_task(void *para);
ARM GAS  G:\Users\Jaxb\AppData\Local\Temp\ccPpMHTg.s 			page 7


  48:../../source/src/kernel/OS_CORE/osinit.c **** #endif
  49:../../source/src/kernel/OS_CORE/osinit.c **** 
  50:../../source/src/kernel/OS_CORE/osinit.c **** static void thread_init(void *para);
  51:../../source/src/kernel/OS_CORE/osinit.c **** 
  52:../../source/src/kernel/OS_CORE/osinit.c **** static void __INIT os_init(void)
  53:../../source/src/kernel/OS_CORE/osinit.c **** {
 198              		.loc 2 53 0
 199              		.cfi_startproc
 200              		@ args = 0, pretend = 0, frame = 0
 201              		@ frame_needed = 1, uses_anonymous_args = 0
 202 0000 98B5     		push	{r3, r4, r7, lr}
 203              	.LCFI17:
 204              		.cfi_def_cfa_offset 16
 205              		.cfi_offset 3, -16
 206              		.cfi_offset 4, -12
 207              		.cfi_offset 7, -8
 208              		.cfi_offset 14, -4
 209 0002 00AF     		add	r7, sp, #0
 210              	.LCFI18:
 211              		.cfi_def_cfa_register 7
  54:../../source/src/kernel/OS_CORE/osinit.c **** 	bsp_init();
 212              		.loc 2 54 0
 213 0004 FFF7FEFF 		bl	bsp_init
  55:../../source/src/kernel/OS_CORE/osinit.c **** 
  56:../../source/src/kernel/OS_CORE/osinit.c **** 	g_time_tick_count = 0;
 214              		.loc 2 56 0
 215 0008 0E4A     		ldr	r2, .L6
 216 000a 4FF00003 		mov	r3, #0
 217 000e 4FF00004 		mov	r4, #0
 218 0012 C2E90034 		strd	r3, [r2]
  57:../../source/src/kernel/OS_CORE/osinit.c **** 	g_interrupt_count = 0;
 219              		.loc 2 57 0
 220 0016 0C4B     		ldr	r3, .L6+4
 221 0018 0022     		movs	r2, #0
 222 001a 1A60     		str	r2, [r3]
  58:../../source/src/kernel/OS_CORE/osinit.c **** 
  59:../../source/src/kernel/OS_CORE/osinit.c **** //===========my_lib==========================
  60:../../source/src/kernel/OS_CORE/osinit.c **** 	__init_my_micro_lib();
 223              		.loc 2 60 0
 224 001c FFF7FEFF 		bl	__init_my_micro_lib
  61:../../source/src/kernel/OS_CORE/osinit.c **** 
  62:../../source/src/kernel/OS_CORE/osinit.c **** //===========TCB=======schedule==============	
  63:../../source/src/kernel/OS_CORE/osinit.c **** 	__init_ready_group();
 225              		.loc 2 63 0
 226 0020 FFF7FEFF 		bl	__init_ready_group
  64:../../source/src/kernel/OS_CORE/osinit.c **** 	__init_delay_heap();
 227              		.loc 2 64 0
 228 0024 FFF7FEFF 		bl	__init_delay_heap
  65:../../source/src/kernel/OS_CORE/osinit.c **** 	__init_TCB_list();
 229              		.loc 2 65 0
 230 0028 FFF7FEFF 		bl	__init_TCB_list
  66:../../source/src/kernel/OS_CORE/osinit.c **** 	__init_suspend_list();
 231              		.loc 2 66 0
 232 002c FFF7FEFF 		bl	__init_suspend_list
  67:../../source/src/kernel/OS_CORE/osinit.c **** 
  68:../../source/src/kernel/OS_CORE/osinit.c **** #if CONFIG_TIME_EN
  69:../../source/src/kernel/OS_CORE/osinit.c **** 	__init_system_time();
ARM GAS  G:\Users\Jaxb\AppData\Local\Temp\ccPpMHTg.s 			page 8


 233              		.loc 2 69 0
 234 0030 FFF7FEFF 		bl	__init_system_time
  70:../../source/src/kernel/OS_CORE/osinit.c **** #endif	
  71:../../source/src/kernel/OS_CORE/osinit.c **** 
  72:../../source/src/kernel/OS_CORE/osinit.c **** #if CONFIG_TIMER_EN
  73:../../source/src/kernel/OS_CORE/osinit.c **** 	__init_timer();
 235              		.loc 2 73 0
 236 0034 FFF7FEFF 		bl	__init_timer
  74:../../source/src/kernel/OS_CORE/osinit.c **** #endif
  75:../../source/src/kernel/OS_CORE/osinit.c **** 
  76:../../source/src/kernel/OS_CORE/osinit.c **** #if CONFIG_SHELL_DEBUG_EN && CONFIG_SHELL_EN
  77:../../source/src/kernel/OS_CORE/osinit.c **** 	__init_shell_debug();
 237              		.loc 2 77 0
 238 0038 FFF7FEFF 		bl	__init_shell_debug
  78:../../source/src/kernel/OS_CORE/osinit.c **** #endif
  79:../../source/src/kernel/OS_CORE/osinit.c **** 
  80:../../source/src/kernel/OS_CORE/osinit.c **** #if CONFIG_MODULE
  81:../../source/src/kernel/OS_CORE/osinit.c **** 	__init_module();
 239              		.loc 2 81 0
 240 003c FFF7FEFF 		bl	__init_module
  82:../../source/src/kernel/OS_CORE/osinit.c **** #endif
  83:../../source/src/kernel/OS_CORE/osinit.c **** }
 241              		.loc 2 83 0
 242 0040 00BF     		nop
 243 0042 98BD     		pop	{r3, r4, r7, pc}
 244              	.L7:
 245              		.align	2
 246              	.L6:
 247 0044 00000000 		.word	g_time_tick_count
 248 0048 00000000 		.word	g_interrupt_count
 249              		.cfi_endproc
 250              	.LFE18:
 251              		.size	os_init, .-os_init
 252              		.text
 253              		.align	1
 254              		.global	start_kernel
 255              		.syntax unified
 256              		.thumb
 257              		.thumb_func
 258              		.fpu softvfp
 259              		.type	start_kernel, %function
 260              	start_kernel:
 261              	.LFB19:
  84:../../source/src/kernel/OS_CORE/osinit.c **** 
  85:../../source/src/kernel/OS_CORE/osinit.c **** void start_kernel()
  86:../../source/src/kernel/OS_CORE/osinit.c **** {
 262              		.loc 2 86 0
 263              		.cfi_startproc
 264              		@ args = 0, pretend = 0, frame = 0
 265              		@ frame_needed = 1, uses_anonymous_args = 0
 266 0062 80B5     		push	{r7, lr}
 267              	.LCFI19:
 268              		.cfi_def_cfa_offset 8
 269              		.cfi_offset 7, -8
 270              		.cfi_offset 14, -4
 271 0064 00AF     		add	r7, sp, #0
 272              	.LCFI20:
ARM GAS  G:\Users\Jaxb\AppData\Local\Temp\ccPpMHTg.s 			page 9


 273              		.cfi_def_cfa_register 7
  87:../../source/src/kernel/OS_CORE/osinit.c **** 	CPU_IntDis();
 274              		.loc 2 87 0
 275 0066 FFF7FEFF 		bl	CPU_IntDis
  88:../../source/src/kernel/OS_CORE/osinit.c **** 	os_start();
 276              		.loc 2 88 0
 277 006a FFF7FEFF 		bl	os_start
 278              	.L9:
  89:../../source/src/kernel/OS_CORE/osinit.c **** 	while(1)
 279              		.loc 2 89 0 discriminator 1
 280 006e FEE7     		b	.L9
 281              		.cfi_endproc
 282              	.LFE19:
 283              		.size	start_kernel, .-start_kernel
 284              		.section	.rodata.str1.4,"aMS",%progbits,1
 285              		.align	2
 286              	.LC0:
 287 0000 696E6974 		.ascii	"init\000"
 287      00
 288 0005 000000   		.align	2
 289              	.LC1:
 290 0008 6F735F69 		.ascii	"os_init_fail...stop booting...\012\000"
 290      6E69745F 
 290      6661696C 
 290      2E2E2E73 
 290      746F7020 
 291              		.align	2
 292              	.LC2:
 293 0028 7368656C 		.ascii	"shell\000"
 293      6C00
 294 002e 0000     		.align	2
 295              	.LC3:
 296 0030 74696D65 		.ascii	"timer_task\000"
 296      725F7461 
 296      736B00
 297 003b 00       		.align	2
 298              	.LC4:
 299 003c 74687265 		.ascii	"three\000"
 299      6500
 300              		.text
 301              		.align	1
 302              		.global	task_start
 303              		.syntax unified
 304              		.thumb
 305              		.thumb_func
 306              		.fpu softvfp
 307              		.type	task_start, %function
 308              	task_start:
 309              	.LFB20:
  90:../../source/src/kernel/OS_CORE/osinit.c **** 	{
  91:../../source/src/kernel/OS_CORE/osinit.c **** 		;//should never go here;
  92:../../source/src/kernel/OS_CORE/osinit.c **** 	}
  93:../../source/src/kernel/OS_CORE/osinit.c **** }
  94:../../source/src/kernel/OS_CORE/osinit.c **** 
  95:../../source/src/kernel/OS_CORE/osinit.c **** void task_start(void)
  96:../../source/src/kernel/OS_CORE/osinit.c **** {
 310              		.loc 2 96 0
ARM GAS  G:\Users\Jaxb\AppData\Local\Temp\ccPpMHTg.s 			page 10


 311              		.cfi_startproc
 312              		@ args = 0, pretend = 0, frame = 0
 313              		@ frame_needed = 1, uses_anonymous_args = 0
 314 0070 80B5     		push	{r7, lr}
 315              	.LCFI21:
 316              		.cfi_def_cfa_offset 8
 317              		.cfi_offset 7, -8
 318              		.cfi_offset 14, -4
 319 0072 84B0     		sub	sp, sp, #16
 320              	.LCFI22:
 321              		.cfi_def_cfa_offset 24
 322 0074 04AF     		add	r7, sp, #16
 323              	.LCFI23:
 324              		.cfi_def_cfa 7, 8
  97:../../source/src/kernel/OS_CORE/osinit.c **** 	if(0 != task_init_ready(&TCB_init,500,0,3,"init",thread_init,NULL))
 325              		.loc 2 97 0
 326 0076 0023     		movs	r3, #0
 327 0078 0293     		str	r3, [sp, #8]
 328 007a 284B     		ldr	r3, .L20
 329 007c 0193     		str	r3, [sp, #4]
 330 007e 284B     		ldr	r3, .L20+4
 331 0080 0093     		str	r3, [sp]
 332 0082 0323     		movs	r3, #3
 333 0084 0022     		movs	r2, #0
 334 0086 4FF4FA71 		mov	r1, #500
 335 008a 2648     		ldr	r0, .L20+8
 336 008c FFF7FEFF 		bl	task_init_ready
 337 0090 0346     		mov	r3, r0
 338 0092 002B     		cmp	r3, #0
 339 0094 03D0     		beq	.L11
  98:../../source/src/kernel/OS_CORE/osinit.c **** 	{
  99:../../source/src/kernel/OS_CORE/osinit.c **** 		ka_printf("os_init_fail...stop booting...\n");
 340              		.loc 2 99 0
 341 0096 2448     		ldr	r0, .L20+12
 342 0098 FFF7FEFF 		bl	ka_printf
 343              	.L12:
 100:../../source/src/kernel/OS_CORE/osinit.c **** 		while(1);
 344              		.loc 2 100 0 discriminator 1
 345 009c FEE7     		b	.L12
 346              	.L11:
 101:../../source/src/kernel/OS_CORE/osinit.c **** 	}
 102:../../source/src/kernel/OS_CORE/osinit.c **** #if CONFIG_SHELL_EN
 103:../../source/src/kernel/OS_CORE/osinit.c **** 	if(0 != task_init_ready(&TCB_shell,1000,0,3,"shell",shell,NULL))
 347              		.loc 2 103 0
 348 009e 0023     		movs	r3, #0
 349 00a0 0293     		str	r3, [sp, #8]
 350 00a2 224B     		ldr	r3, .L20+16
 351 00a4 0193     		str	r3, [sp, #4]
 352 00a6 224B     		ldr	r3, .L20+20
 353 00a8 0093     		str	r3, [sp]
 354 00aa 0323     		movs	r3, #3
 355 00ac 0022     		movs	r2, #0
 356 00ae 4FF47A71 		mov	r1, #1000
 357 00b2 2048     		ldr	r0, .L20+24
 358 00b4 FFF7FEFF 		bl	task_init_ready
 359 00b8 0346     		mov	r3, r0
 360 00ba 002B     		cmp	r3, #0
ARM GAS  G:\Users\Jaxb\AppData\Local\Temp\ccPpMHTg.s 			page 11


 361 00bc 03D0     		beq	.L13
 104:../../source/src/kernel/OS_CORE/osinit.c **** 	{
 105:../../source/src/kernel/OS_CORE/osinit.c **** 		ka_printf("os_init_fail...stop booting...\n");
 362              		.loc 2 105 0
 363 00be 1A48     		ldr	r0, .L20+12
 364 00c0 FFF7FEFF 		bl	ka_printf
 365              	.L14:
 106:../../source/src/kernel/OS_CORE/osinit.c **** 		while(1);
 366              		.loc 2 106 0 discriminator 2
 367 00c4 FEE7     		b	.L14
 368              	.L13:
 107:../../source/src/kernel/OS_CORE/osinit.c **** 	}
 108:../../source/src/kernel/OS_CORE/osinit.c **** 	#endif
 109:../../source/src/kernel/OS_CORE/osinit.c **** #if CONFIG_TIMER_EN
 110:../../source/src/kernel/OS_CORE/osinit.c **** 	if(0 != task_init_ready(&TCB_timer_task,256,0,3,"timer_task",timer_task,NULL))
 369              		.loc 2 110 0
 370 00c6 0023     		movs	r3, #0
 371 00c8 0293     		str	r3, [sp, #8]
 372 00ca 1B4B     		ldr	r3, .L20+28
 373 00cc 0193     		str	r3, [sp, #4]
 374 00ce 1B4B     		ldr	r3, .L20+32
 375 00d0 0093     		str	r3, [sp]
 376 00d2 0323     		movs	r3, #3
 377 00d4 0022     		movs	r2, #0
 378 00d6 4FF48071 		mov	r1, #256
 379 00da 1948     		ldr	r0, .L20+36
 380 00dc FFF7FEFF 		bl	task_init_ready
 381 00e0 0346     		mov	r3, r0
 382 00e2 002B     		cmp	r3, #0
 383 00e4 03D0     		beq	.L15
 111:../../source/src/kernel/OS_CORE/osinit.c **** 	{
 112:../../source/src/kernel/OS_CORE/osinit.c **** 		ka_printf("os_init_fail...stop booting...\n");
 384              		.loc 2 112 0
 385 00e6 1048     		ldr	r0, .L20+12
 386 00e8 FFF7FEFF 		bl	ka_printf
 387              	.L16:
 113:../../source/src/kernel/OS_CORE/osinit.c **** 		while(1);
 388              		.loc 2 113 0 discriminator 3
 389 00ec FEE7     		b	.L16
 390              	.L15:
 114:../../source/src/kernel/OS_CORE/osinit.c **** 	}
 115:../../source/src/kernel/OS_CORE/osinit.c **** #endif
 116:../../source/src/kernel/OS_CORE/osinit.c **** 	if(0 != task_creat_ready(500,4,5,"three",three,NULL,NULL))
 391              		.loc 2 116 0
 392 00ee 0023     		movs	r3, #0
 393 00f0 0293     		str	r3, [sp, #8]
 394 00f2 0023     		movs	r3, #0
 395 00f4 0193     		str	r3, [sp, #4]
 396 00f6 134B     		ldr	r3, .L20+40
 397 00f8 0093     		str	r3, [sp]
 398 00fa 134B     		ldr	r3, .L20+44
 399 00fc 0522     		movs	r2, #5
 400 00fe 0421     		movs	r1, #4
 401 0100 4FF4FA70 		mov	r0, #500
 402 0104 FFF7FEFF 		bl	task_creat_ready
 403 0108 0346     		mov	r3, r0
 404 010a 002B     		cmp	r3, #0
ARM GAS  G:\Users\Jaxb\AppData\Local\Temp\ccPpMHTg.s 			page 12


 405 010c 03D0     		beq	.L19
 117:../../source/src/kernel/OS_CORE/osinit.c **** 	{
 118:../../source/src/kernel/OS_CORE/osinit.c **** 		ka_printf("os_init_fail...stop booting...\n");
 406              		.loc 2 118 0
 407 010e 0648     		ldr	r0, .L20+12
 408 0110 FFF7FEFF 		bl	ka_printf
 409              	.L18:
 119:../../source/src/kernel/OS_CORE/osinit.c **** 		while(1);
 410              		.loc 2 119 0 discriminator 4
 411 0114 FEE7     		b	.L18
 412              	.L19:
 120:../../source/src/kernel/OS_CORE/osinit.c **** 	}
 121:../../source/src/kernel/OS_CORE/osinit.c **** //	if(0 != task_creat_ready(256,5,5,"four",four,NULL,NULL))
 122:../../source/src/kernel/OS_CORE/osinit.c **** //	{
 123:../../source/src/kernel/OS_CORE/osinit.c **** //		ka_printf("os_init_fail...stop booting...\n");
 124:../../source/src/kernel/OS_CORE/osinit.c **** //		while(1);
 125:../../source/src/kernel/OS_CORE/osinit.c **** //	}
 126:../../source/src/kernel/OS_CORE/osinit.c **** //	if(0 != task_creat_ready(256,6,5,"five",five,NULL,NULL))
 127:../../source/src/kernel/OS_CORE/osinit.c **** //	{
 128:../../source/src/kernel/OS_CORE/osinit.c **** //		ka_printf("os_init_fail...stop booting...\n");
 129:../../source/src/kernel/OS_CORE/osinit.c **** //		while(1);
 130:../../source/src/kernel/OS_CORE/osinit.c **** //	}
 131:../../source/src/kernel/OS_CORE/osinit.c **** //	if(0 != task_creat_ready(256,7,3,"six",six,NULL,NULL))
 132:../../source/src/kernel/OS_CORE/osinit.c **** //	{
 133:../../source/src/kernel/OS_CORE/osinit.c **** //		ka_printf("os_init_fail...stop booting...\n");
 134:../../source/src/kernel/OS_CORE/osinit.c **** //		while(1);
 135:../../source/src/kernel/OS_CORE/osinit.c **** //	}
 136:../../source/src/kernel/OS_CORE/osinit.c **** }
 413              		.loc 2 136 0
 414 0116 00BF     		nop
 415 0118 BD46     		mov	sp, r7
 416              	.LCFI24:
 417              		.cfi_def_cfa_register 13
 418              		@ sp needed
 419 011a 80BD     		pop	{r7, pc}
 420              	.L21:
 421              		.align	2
 422              	.L20:
 423 011c 00000000 		.word	thread_init
 424 0120 00000000 		.word	.LC0
 425 0124 48000000 		.word	TCB_init
 426 0128 08000000 		.word	.LC1
 427 012c 00000000 		.word	shell
 428 0130 28000000 		.word	.LC2
 429 0134 00000000 		.word	TCB_shell
 430 0138 00000000 		.word	timer_task
 431 013c 30000000 		.word	.LC3
 432 0140 00000000 		.word	TCB_timer_task
 433 0144 00000000 		.word	three
 434 0148 3C000000 		.word	.LC4
 435              		.cfi_endproc
 436              	.LFE20:
 437              		.size	task_start, .-task_start
 438              		.global	__aeabi_uldivmod
 439              		.section	.rodata.str1.4
 440 0042 0000     		.align	2
 441              	.LC5:
ARM GAS  G:\Users\Jaxb\AppData\Local\Temp\ccPpMHTg.s 			page 13


 442 0044 73756363 		.ascii	"succeed to get count_max_num = %u\012\000"
 442      65656420 
 442      746F2067 
 442      65742063 
 442      6F756E74 
 443              		.text
 444              		.align	1
 445              		.syntax unified
 446              		.thumb
 447              		.thumb_func
 448              		.fpu softvfp
 449              		.type	count_init, %function
 450              	count_init:
 451              	.LFB21:
 137:../../source/src/kernel/OS_CORE/osinit.c **** 
 138:../../source/src/kernel/OS_CORE/osinit.c **** static void count_init(void *para)	
 139:../../source/src/kernel/OS_CORE/osinit.c **** {
 452              		.loc 2 139 0
 453              		.cfi_startproc
 454              		@ args = 0, pretend = 0, frame = 8
 455              		@ frame_needed = 1, uses_anonymous_args = 0
 456 014c 90B5     		push	{r4, r7, lr}
 457              	.LCFI25:
 458              		.cfi_def_cfa_offset 12
 459              		.cfi_offset 4, -12
 460              		.cfi_offset 7, -8
 461              		.cfi_offset 14, -4
 462 014e 83B0     		sub	sp, sp, #12
 463              	.LCFI26:
 464              		.cfi_def_cfa_offset 24
 465 0150 00AF     		add	r7, sp, #0
 466              	.LCFI27:
 467              		.cfi_def_cfa_register 7
 468 0152 7860     		str	r0, [r7, #4]
 140:../../source/src/kernel/OS_CORE/osinit.c **** 	(void)para;
 141:../../source/src/kernel/OS_CORE/osinit.c **** #if PRECISE_TIME_DELAY
 142:../../source/src/kernel/OS_CORE/osinit.c **** 	sleep(2); // for synchronization
 143:../../source/src/kernel/OS_CORE/osinit.c **** 	num_pre_tick = 0;
 144:../../source/src/kernel/OS_CORE/osinit.c **** 	sleep(PRECISE_DELAY_NUM);
 145:../../source/src/kernel/OS_CORE/osinit.c **** 	num_pre_tick /= PRECISE_DELAY_NUM;
 146:../../source/src/kernel/OS_CORE/osinit.c **** #if CONFIG_DEBUG_COUNT_INIT
 147:../../source/src/kernel/OS_CORE/osinit.c **** 	ka_printf("succeed to get num_pre_tick = %l \n",num_pre_tick);
 148:../../source/src/kernel/OS_CORE/osinit.c **** #endif
 149:../../source/src/kernel/OS_CORE/osinit.c **** 	task_delete(&TCB_precise_timing);
 150:../../source/src/kernel/OS_CORE/osinit.c **** #endif
 151:../../source/src/kernel/OS_CORE/osinit.c **** 	
 152:../../source/src/kernel/OS_CORE/osinit.c **** 	sleep(2); // for synchronization
 469              		.loc 2 152 0
 470 0154 0221     		movs	r1, #2
 471 0156 0220     		movs	r0, #2
 472 0158 FFF7FEFF 		bl	sys_delay
 153:../../source/src/kernel/OS_CORE/osinit.c **** 	idle_num = 0;
 473              		.loc 2 153 0
 474 015c 1B4A     		ldr	r2, .L23
 475 015e 4FF00003 		mov	r3, #0
 476 0162 4FF00004 		mov	r4, #0
 477 0166 C2E90034 		strd	r3, [r2]
ARM GAS  G:\Users\Jaxb\AppData\Local\Temp\ccPpMHTg.s 			page 14


 154:../../source/src/kernel/OS_CORE/osinit.c **** 	sleep(COUNT_DELAY_NUM);
 478              		.loc 2 154 0
 479 016a 0221     		movs	r1, #2
 480 016c 0A20     		movs	r0, #10
 481 016e FFF7FEFF 		bl	sys_delay
 155:../../source/src/kernel/OS_CORE/osinit.c **** 	count_max_num = idle_num / COUNT_DELAY_NUM; // COUNT_DELAY_NUM;
 482              		.loc 2 155 0
 483 0172 164B     		ldr	r3, .L23
 484 0174 D3E90001 		ldrd	r0, [r3]
 485 0178 4FF00A02 		mov	r2, #10
 486 017c 4FF00003 		mov	r3, #0
 487 0180 FFF7FEFF 		bl	__aeabi_uldivmod
 488              	.LVL0:
 489 0184 0346     		mov	r3, r0
 490 0186 0C46     		mov	r4, r1
 491 0188 1A46     		mov	r2, r3
 492 018a 114B     		ldr	r3, .L23+4
 493 018c 1A60     		str	r2, [r3]
 156:../../source/src/kernel/OS_CORE/osinit.c **** 	idle_num = 0;
 494              		.loc 2 156 0
 495 018e 0F4A     		ldr	r2, .L23
 496 0190 4FF00003 		mov	r3, #0
 497 0194 4FF00004 		mov	r4, #0
 498 0198 C2E90034 		strd	r3, [r2]
 157:../../source/src/kernel/OS_CORE/osinit.c **** 	
 158:../../source/src/kernel/OS_CORE/osinit.c **** #if CONFIG_DEBUG_COUNT_INIT
 159:../../source/src/kernel/OS_CORE/osinit.c **** 	ka_printf("succeed to get count_max_num = %u\n",count_max_num);
 499              		.loc 2 159 0
 500 019c 0C4B     		ldr	r3, .L23+4
 501 019e 1B68     		ldr	r3, [r3]
 502 01a0 1946     		mov	r1, r3
 503 01a2 0C48     		ldr	r0, .L23+8
 504 01a4 FFF7FEFF 		bl	ka_printf
 160:../../source/src/kernel/OS_CORE/osinit.c **** #endif
 161:../../source/src/kernel/OS_CORE/osinit.c **** 
 162:../../source/src/kernel/OS_CORE/osinit.c **** 	SYS_ENTER_CRITICAL();
 505              		.loc 2 162 0
 506 01a8 0B4B     		ldr	r3, .L23+12
 507 01aa 1B68     		ldr	r3, [r3]
 508 01ac 0133     		adds	r3, r3, #1
 509 01ae 0A4A     		ldr	r2, .L23+12
 510 01b0 1360     		str	r3, [r2]
 163:../../source/src/kernel/OS_CORE/osinit.c **** 	task_start();
 511              		.loc 2 163 0
 512 01b2 FFF7FEFF 		bl	task_start
 164:../../source/src/kernel/OS_CORE/osinit.c **** 	SYS_EXIT_CRITICAL();
 513              		.loc 2 164 0
 514 01b6 084B     		ldr	r3, .L23+12
 515 01b8 1B68     		ldr	r3, [r3]
 516 01ba 013B     		subs	r3, r3, #1
 517 01bc 064A     		ldr	r2, .L23+12
 518 01be 1360     		str	r3, [r2]
 165:../../source/src/kernel/OS_CORE/osinit.c **** 	schedule();
 519              		.loc 2 165 0
 520 01c0 FFF7FEFF 		bl	schedule
 166:../../source/src/kernel/OS_CORE/osinit.c **** }
 521              		.loc 2 166 0
ARM GAS  G:\Users\Jaxb\AppData\Local\Temp\ccPpMHTg.s 			page 15


 522 01c4 00BF     		nop
 523 01c6 0C37     		adds	r7, r7, #12
 524              	.LCFI28:
 525              		.cfi_def_cfa_offset 12
 526 01c8 BD46     		mov	sp, r7
 527              	.LCFI29:
 528              		.cfi_def_cfa_register 13
 529              		@ sp needed
 530 01ca 90BD     		pop	{r4, r7, pc}
 531              	.L24:
 532              		.align	2
 533              	.L23:
 534 01cc 00000000 		.word	idle_num
 535 01d0 00000000 		.word	count_max_num
 536 01d4 44000000 		.word	.LC5
 537 01d8 00000000 		.word	g_schedule_lock
 538              		.cfi_endproc
 539              	.LFE21:
 540              		.size	count_init, .-count_init
 541              		.align	1
 542              		.syntax unified
 543              		.thumb
 544              		.thumb_func
 545              		.fpu softvfp
 546              		.type	idle, %function
 547              	idle:
 548              	.LFB22:
 167:../../source/src/kernel/OS_CORE/osinit.c **** 
 168:../../source/src/kernel/OS_CORE/osinit.c **** static void  idle(void *para)
 169:../../source/src/kernel/OS_CORE/osinit.c **** {
 549              		.loc 2 169 0
 550              		.cfi_startproc
 551              		@ args = 0, pretend = 0, frame = 16
 552              		@ frame_needed = 1, uses_anonymous_args = 0
 553 01dc 90B5     		push	{r4, r7, lr}
 554              	.LCFI30:
 555              		.cfi_def_cfa_offset 12
 556              		.cfi_offset 4, -12
 557              		.cfi_offset 7, -8
 558              		.cfi_offset 14, -4
 559 01de 85B0     		sub	sp, sp, #20
 560              	.LCFI31:
 561              		.cfi_def_cfa_offset 32
 562 01e0 00AF     		add	r7, sp, #0
 563              	.LCFI32:
 564              		.cfi_def_cfa_register 7
 565 01e2 7860     		str	r0, [r7, #4]
 170:../../source/src/kernel/OS_CORE/osinit.c **** 	CPU_SR_ALLOC();
 566              		.loc 2 170 0
 567 01e4 0023     		movs	r3, #0
 568 01e6 FB60     		str	r3, [r7, #12]
 569              	.L26:
 171:../../source/src/kernel/OS_CORE/osinit.c **** 	(void)para;
 172:../../source/src/kernel/OS_CORE/osinit.c **** 	while(1)
 173:../../source/src/kernel/OS_CORE/osinit.c **** 	{
 174:../../source/src/kernel/OS_CORE/osinit.c **** 		CPU_CRITICAL_ENTER();
 570              		.loc 2 174 0 discriminator 1
ARM GAS  G:\Users\Jaxb\AppData\Local\Temp\ccPpMHTg.s 			page 16


 571 01e8 FFF7FEFF 		bl	CPU_SR_Save
 572 01ec F860     		str	r0, [r7, #12]
 175:../../source/src/kernel/OS_CORE/osinit.c **** 		++idle_num;
 573              		.loc 2 175 0 discriminator 1
 574 01ee 064B     		ldr	r3, .L27
 575 01f0 D3E90012 		ldrd	r1, [r3]
 576 01f4 4B1C     		adds	r3, r1, #1
 577 01f6 42F10004 		adc	r4, r2, #0
 578 01fa 034A     		ldr	r2, .L27
 579 01fc C2E90034 		strd	r3, [r2]
 176:../../source/src/kernel/OS_CORE/osinit.c **** 		CPU_CRITICAL_EXIT();
 580              		.loc 2 176 0 discriminator 1
 581 0200 F868     		ldr	r0, [r7, #12]
 582 0202 FFF7FEFF 		bl	CPU_SR_Restore
 174:../../source/src/kernel/OS_CORE/osinit.c **** 		++idle_num;
 583              		.loc 2 174 0 discriminator 1
 584 0206 EFE7     		b	.L26
 585              	.L28:
 586              		.align	2
 587              	.L27:
 588 0208 00000000 		.word	idle_num
 589              		.cfi_endproc
 590              	.LFE22:
 591              		.size	idle, .-idle
 592              		.align	1
 593              		.syntax unified
 594              		.thumb
 595              		.thumb_func
 596              		.fpu softvfp
 597              		.type	set_inter_stack, %function
 598              	set_inter_stack:
 599              	.LFB23:
 177:../../source/src/kernel/OS_CORE/osinit.c **** 	}
 178:../../source/src/kernel/OS_CORE/osinit.c **** }
 179:../../source/src/kernel/OS_CORE/osinit.c **** 
 180:../../source/src/kernel/OS_CORE/osinit.c **** #if PRECISE_TIME_DELAY
 181:../../source/src/kernel/OS_CORE/osinit.c **** static void precise_timing(void *para)
 182:../../source/src/kernel/OS_CORE/osinit.c **** {
 183:../../source/src/kernel/OS_CORE/osinit.c **** 	(void)para;
 184:../../source/src/kernel/OS_CORE/osinit.c **** 	while(1)
 185:../../source/src/kernel/OS_CORE/osinit.c **** 	{
 186:../../source/src/kernel/OS_CORE/osinit.c **** 		++num_pre_tick;
 187:../../source/src/kernel/OS_CORE/osinit.c **** 	}
 188:../../source/src/kernel/OS_CORE/osinit.c **** }
 189:../../source/src/kernel/OS_CORE/osinit.c **** #endif
 190:../../source/src/kernel/OS_CORE/osinit.c **** 
 191:../../source/src/kernel/OS_CORE/osinit.c **** static void set_inter_stack(void)
 192:../../source/src/kernel/OS_CORE/osinit.c **** {
 600              		.loc 2 192 0
 601              		.cfi_startproc
 602              		@ args = 0, pretend = 0, frame = 8
 603              		@ frame_needed = 1, uses_anonymous_args = 0
 604 020c 80B5     		push	{r7, lr}
 605              	.LCFI33:
 606              		.cfi_def_cfa_offset 8
 607              		.cfi_offset 7, -8
 608              		.cfi_offset 14, -4
ARM GAS  G:\Users\Jaxb\AppData\Local\Temp\ccPpMHTg.s 			page 17


 609 020e 82B0     		sub	sp, sp, #8
 610              	.LCFI34:
 611              		.cfi_def_cfa_offset 16
 612 0210 00AF     		add	r7, sp, #0
 613              	.LCFI35:
 614              		.cfi_def_cfa_register 7
 193:../../source/src/kernel/OS_CORE/osinit.c **** 	unsigned int MSP_top = (unsigned int)alloc_power1_page(); // allocate one page for interrupt stack
 615              		.loc 2 193 0
 616 0212 FFF7FEFF 		bl	alloc_power1_page
 617 0216 0346     		mov	r3, r0
 618 0218 7B60     		str	r3, [r7, #4]
 194:../../source/src/kernel/OS_CORE/osinit.c **** 	MSP_top += PAGE_SIZE_BYTE;
 619              		.loc 2 194 0
 620 021a 7B68     		ldr	r3, [r7, #4]
 621 021c 03F58063 		add	r3, r3, #1024
 622 0220 7B60     		str	r3, [r7, #4]
 195:../../source/src/kernel/OS_CORE/osinit.c **** 	asm("MOVS R0, %0\t\n"
 623              		.loc 2 195 0
 624 0222 7B68     		ldr	r3, [r7, #4]
 625              		.syntax unified
 626              	@ 195 "../../source/src/kernel/OS_CORE/osinit.c" 1
 627 0224 1800     		MOVS R0, r3	
 628 0226 80F30888 	MSR MSP, R0	
 629              	
 630              	@ 0 "" 2
 196:../../source/src/kernel/OS_CORE/osinit.c **** 		"MSR MSP, R0\t\n"
 197:../../source/src/kernel/OS_CORE/osinit.c **** 		:
 198:../../source/src/kernel/OS_CORE/osinit.c **** 		:"r"(MSP_top)
 199:../../source/src/kernel/OS_CORE/osinit.c **** 		);
 200:../../source/src/kernel/OS_CORE/osinit.c **** }
 631              		.loc 2 200 0
 632              		.thumb
 633              		.syntax unified
 634 022a 00BF     		nop
 635 022c 0837     		adds	r7, r7, #8
 636              	.LCFI36:
 637              		.cfi_def_cfa_offset 8
 638 022e BD46     		mov	sp, r7
 639              	.LCFI37:
 640              		.cfi_def_cfa_register 13
 641              		@ sp needed
 642 0230 80BD     		pop	{r7, pc}
 643              		.cfi_endproc
 644              	.LFE23:
 645              		.size	set_inter_stack, .-set_inter_stack
 646              		.section	.rodata.str1.4
 647 0067 00       		.align	2
 648              	.LC6:
 649 0068 636F756E 		.ascii	"count_init\000"
 649      745F696E 
 649      697400
 650 0073 00       		.align	2
 651              	.LC7:
 652 0074 69646C65 		.ascii	"idle\000"
 652      00
 653 0079 000000   		.align	2
 654              	.LC8:
ARM GAS  G:\Users\Jaxb\AppData\Local\Temp\ccPpMHTg.s 			page 18


 655 007c 2E2E2F2E 		.ascii	"../../source/src/kernel/OS_CORE/osinit.c\000"
 655      2E2F736F 
 655      75726365 
 655      2F737263 
 655      2F6B6572 
 656              		.section	.INIT.TEXT
 657              		.align	1
 658              		.global	os_start
 659              		.syntax unified
 660              		.thumb
 661              		.thumb_func
 662              		.fpu softvfp
 663              		.type	os_start, %function
 664              	os_start:
 665              	.LFB24:
 201:../../source/src/kernel/OS_CORE/osinit.c **** 
 202:../../source/src/kernel/OS_CORE/osinit.c **** void __INIT os_start(void)
 203:../../source/src/kernel/OS_CORE/osinit.c **** {
 666              		.loc 2 203 0
 667              		.cfi_startproc
 668              		@ args = 0, pretend = 0, frame = 0
 669              		@ frame_needed = 1, uses_anonymous_args = 0
 670 004c 80B5     		push	{r7, lr}
 671              	.LCFI38:
 672              		.cfi_def_cfa_offset 8
 673              		.cfi_offset 7, -8
 674              		.cfi_offset 14, -4
 675 004e 84B0     		sub	sp, sp, #16
 676              	.LCFI39:
 677              		.cfi_def_cfa_offset 24
 678 0050 04AF     		add	r7, sp, #16
 679              	.LCFI40:
 680              		.cfi_def_cfa 7, 8
 204:../../source/src/kernel/OS_CORE/osinit.c **** //===========init all module==================
 205:../../source/src/kernel/OS_CORE/osinit.c **** 	os_init();
 681              		.loc 2 205 0
 682 0052 FFF7D5FF 		bl	os_init
 206:../../source/src/kernel/OS_CORE/osinit.c **** //============================================
 207:../../source/src/kernel/OS_CORE/osinit.c **** 
 208:../../source/src/kernel/OS_CORE/osinit.c **** //==============register initialization task===================
 209:../../source/src/kernel/OS_CORE/osinit.c **** 	if(0 != task_init_ready(&TCB_count_init,256,PRIO_MAX-2,5,"count_init",count_init,NULL))
 683              		.loc 2 209 0
 684 0056 0023     		movs	r3, #0
 685 0058 0293     		str	r3, [sp, #8]
 686 005a 1C4B     		ldr	r3, .L36
 687 005c 0193     		str	r3, [sp, #4]
 688 005e 1C4B     		ldr	r3, .L36+4
 689 0060 0093     		str	r3, [sp]
 690 0062 0523     		movs	r3, #5
 691 0064 3E22     		movs	r2, #62
 692 0066 4FF48071 		mov	r1, #256
 693 006a 1A48     		ldr	r0, .L36+8
 694 006c FFF7FEFF 		bl	task_init_ready
 695 0070 0346     		mov	r3, r0
 696 0072 002B     		cmp	r3, #0
 697 0074 03D0     		beq	.L31
 210:../../source/src/kernel/OS_CORE/osinit.c **** 	{
ARM GAS  G:\Users\Jaxb\AppData\Local\Temp\ccPpMHTg.s 			page 19


 211:../../source/src/kernel/OS_CORE/osinit.c **** 		ka_printf("os_init_fail...stop booting...\n");
 698              		.loc 2 211 0
 699 0076 1848     		ldr	r0, .L36+12
 700 0078 FFF7FEFF 		bl	ka_printf
 701              	.L32:
 212:../../source/src/kernel/OS_CORE/osinit.c **** 		while(1);
 702              		.loc 2 212 0 discriminator 1
 703 007c FEE7     		b	.L32
 704              	.L31:
 213:../../source/src/kernel/OS_CORE/osinit.c **** 	}
 214:../../source/src/kernel/OS_CORE/osinit.c **** 	if(0 != task_init_ready(&TCB_idle,128,PRIO_MAX-1,HZ,"idle",idle,NULL))
 705              		.loc 2 214 0
 706 007e 0023     		movs	r3, #0
 707 0080 0293     		str	r3, [sp, #8]
 708 0082 164B     		ldr	r3, .L36+16
 709 0084 0193     		str	r3, [sp, #4]
 710 0086 164B     		ldr	r3, .L36+20
 711 0088 0093     		str	r3, [sp]
 712 008a 6423     		movs	r3, #100
 713 008c 3F22     		movs	r2, #63
 714 008e 8021     		movs	r1, #128
 715 0090 1448     		ldr	r0, .L36+24
 716 0092 FFF7FEFF 		bl	task_init_ready
 717 0096 0346     		mov	r3, r0
 718 0098 002B     		cmp	r3, #0
 719 009a 03D0     		beq	.L33
 215:../../source/src/kernel/OS_CORE/osinit.c **** 	{
 216:../../source/src/kernel/OS_CORE/osinit.c **** 		ka_printf("os_init_fail...stop booting...\n");
 720              		.loc 2 216 0
 721 009c 0E48     		ldr	r0, .L36+12
 722 009e FFF7FEFF 		bl	ka_printf
 723              	.L34:
 217:../../source/src/kernel/OS_CORE/osinit.c **** 		while(1);
 724              		.loc 2 217 0 discriminator 2
 725 00a2 FEE7     		b	.L34
 726              	.L33:
 218:../../source/src/kernel/OS_CORE/osinit.c **** 	}
 219:../../source/src/kernel/OS_CORE/osinit.c **** #if PRECISE_TIME_DELAY
 220:../../source/src/kernel/OS_CORE/osinit.c **** 	if(0 != task_init_ready(&TCB_precise_timing,128,PRIO_MAX-2,HZ,"precise timing",precise_timing,NULL
 221:../../source/src/kernel/OS_CORE/osinit.c **** 	{
 222:../../source/src/kernel/OS_CORE/osinit.c **** 		ka_printf("os_init_fail...stop booting...\n");
 223:../../source/src/kernel/OS_CORE/osinit.c **** 		while(1);
 224:../../source/src/kernel/OS_CORE/osinit.c **** 	}
 225:../../source/src/kernel/OS_CORE/osinit.c **** #endif
 226:../../source/src/kernel/OS_CORE/osinit.c **** //==================================================================
 227:../../source/src/kernel/OS_CORE/osinit.c **** 
 228:../../source/src/kernel/OS_CORE/osinit.c **** 	OSTCBCurPtr = get_highest_prio_ready_TCB();
 727              		.loc 2 228 0
 728 00a4 FFF7FEFF 		bl	get_highest_prio_ready_TCB
 729 00a8 0246     		mov	r2, r0
 730 00aa 0F4B     		ldr	r3, .L36+28
 731 00ac 1A60     		str	r2, [r3]
 229:../../source/src/kernel/OS_CORE/osinit.c **** 	OSTCBHighRdyPtr = OSTCBCurPtr;
 732              		.loc 2 229 0
 733 00ae 0E4B     		ldr	r3, .L36+28
 734 00b0 1B68     		ldr	r3, [r3]
 735 00b2 0E4A     		ldr	r2, .L36+32
ARM GAS  G:\Users\Jaxb\AppData\Local\Temp\ccPpMHTg.s 			page 20


 736 00b4 1360     		str	r3, [r2]
 230:../../source/src/kernel/OS_CORE/osinit.c **** 
 231:../../source/src/kernel/OS_CORE/osinit.c **** //===========system_tick====================
 232:../../source/src/kernel/OS_CORE/osinit.c **** 	__init_systick();
 737              		.loc 2 232 0
 738 00b6 FFF7FEFF 		bl	__init_systick
 233:../../source/src/kernel/OS_CORE/osinit.c **** //==========================================
 234:../../source/src/kernel/OS_CORE/osinit.c **** 	set_inter_stack();
 739              		.loc 2 234 0
 740 00ba FFF7FEFF 		bl	set_inter_stack
 235:../../source/src/kernel/OS_CORE/osinit.c **** 	OSStartHighRdy();
 741              		.loc 2 235 0
 742 00be FFF7FEFF 		bl	OSStartHighRdy
 236:../../source/src/kernel/OS_CORE/osinit.c **** 	ASSERT(0);
 743              		.loc 2 236 0
 744 00c2 EC21     		movs	r1, #236
 745 00c4 0A48     		ldr	r0, .L36+36
 746 00c6 FFF7FEFF 		bl	_ASSERT
 747              	.L35:
 237:../../source/src/kernel/OS_CORE/osinit.c **** 	while(1);//should no go here
 748              		.loc 2 237 0 discriminator 4
 749 00ca FEE7     		b	.L35
 750              	.L37:
 751              		.align	2
 752              	.L36:
 753 00cc 00000000 		.word	count_init
 754 00d0 68000000 		.word	.LC6
 755 00d4 00000000 		.word	TCB_count_init
 756 00d8 08000000 		.word	.LC1
 757 00dc 00000000 		.word	idle
 758 00e0 74000000 		.word	.LC7
 759 00e4 90000000 		.word	TCB_idle
 760 00e8 00000000 		.word	OSTCBCurPtr
 761 00ec 00000000 		.word	OSTCBHighRdyPtr
 762 00f0 7C000000 		.word	.LC8
 763              		.cfi_endproc
 764              	.LFE24:
 765              		.size	os_start, .-os_start
 766              		.global	__aeabi_i2f
 767              		.text
 768              		.align	1
 769              		.syntax unified
 770              		.thumb
 771              		.thumb_func
 772              		.fpu softvfp
 773              		.type	FastLog2, %function
 774              	FastLog2:
 775              	.LFB25:
 238:../../source/src/kernel/OS_CORE/osinit.c **** }
 239:../../source/src/kernel/OS_CORE/osinit.c **** 
 240:../../source/src/kernel/OS_CORE/osinit.c **** static int __attribute__((optimize("O1"))) FastLog2(int x)
 241:../../source/src/kernel/OS_CORE/osinit.c **** {
 776              		.loc 2 241 0
 777              		.cfi_startproc
 778              		@ args = 0, pretend = 0, frame = 0
 779              		@ frame_needed = 0, uses_anonymous_args = 0
 780 0232 08B5     		push	{r3, lr}
ARM GAS  G:\Users\Jaxb\AppData\Local\Temp\ccPpMHTg.s 			page 21


 781              	.LCFI41:
 782              		.cfi_def_cfa_offset 8
 783              		.cfi_offset 3, -8
 784              		.cfi_offset 14, -4
 242:../../source/src/kernel/OS_CORE/osinit.c ****     float fx;
 243:../../source/src/kernel/OS_CORE/osinit.c ****     unsigned long ix, exp;
 244:../../source/src/kernel/OS_CORE/osinit.c ****  
 245:../../source/src/kernel/OS_CORE/osinit.c ****     fx = (float)x;
 785              		.loc 2 245 0
 786 0234 FFF7FEFF 		bl	__aeabi_i2f
 246:../../source/src/kernel/OS_CORE/osinit.c ****     ix = *(unsigned long*)&fx;
 247:../../source/src/kernel/OS_CORE/osinit.c ****     exp = (ix >> 23) & 0xFF;
 787              		.loc 2 247 0
 788 0238 C0F3C750 		ubfx	r0, r0, #23, #8
 248:../../source/src/kernel/OS_CORE/osinit.c ****  
 249:../../source/src/kernel/OS_CORE/osinit.c ****     return exp - 127;
 250:../../source/src/kernel/OS_CORE/osinit.c **** }
 789              		.loc 2 250 0
 790 023c 7F38     		subs	r0, r0, #127
 791 023e 08BD     		pop	{r3, pc}
 792              		.cfi_endproc
 793              	.LFE25:
 794              		.size	FastLog2, .-FastLog2
 795              		.section	.rodata.str1.4
 796 00a5 000000   		.align	2
 797              	.LC9:
 798 00a8 6572726F 		.ascii	"error fun name : _case_free_buddy\012error para : p"
 798      72206675 
 798      6E206E61 
 798      6D65203A 
 798      205F6361 
 799 00d8 74720A00 		.ascii	"tr\012\000"
 800              		.align	2
 801              	.LC10:
 802 00dc 6572726F 		.ascii	"error level! FATAL ERROR!\012\000"
 802      72206C65 
 802      76656C21 
 802      20464154 
 802      414C2045 
 803 00f7 00       		.align	2
 804              	.LC11:
 805 00f8 70747220 		.ascii	"ptr fatal error!!!\012\000"
 805      66617461 
 805      6C206572 
 805      726F7221 
 805      21210A00 
 806              		.text
 807              		.align	1
 808              		.global	_case_slab_free_buddy
 809              		.syntax unified
 810              		.thumb
 811              		.thumb_func
 812              		.fpu softvfp
 813              		.type	_case_slab_free_buddy, %function
 814              	_case_slab_free_buddy:
 815              	.LFB26:
 251:../../source/src/kernel/OS_CORE/osinit.c **** 
ARM GAS  G:\Users\Jaxb\AppData\Local\Temp\ccPpMHTg.s 			page 22


 252:../../source/src/kernel/OS_CORE/osinit.c **** extern int in_buddy_range(void *ptr);
 253:../../source/src/kernel/OS_CORE/osinit.c **** extern int in_os_memory(void *ptr);
 254:../../source/src/kernel/OS_CORE/osinit.c **** void _case_slab_free_buddy(void *ptr,void *end_ptr)
 255:../../source/src/kernel/OS_CORE/osinit.c **** {
 816              		.loc 2 255 0
 817              		.cfi_startproc
 818              		@ args = 0, pretend = 0, frame = 16
 819              		@ frame_needed = 1, uses_anonymous_args = 0
 820 0240 80B5     		push	{r7, lr}
 821              	.LCFI42:
 822              		.cfi_def_cfa_offset 8
 823              		.cfi_offset 7, -8
 824              		.cfi_offset 14, -4
 825 0242 84B0     		sub	sp, sp, #16
 826              	.LCFI43:
 827              		.cfi_def_cfa_offset 24
 828 0244 00AF     		add	r7, sp, #0
 829              	.LCFI44:
 830              		.cfi_def_cfa_register 7
 831 0246 7860     		str	r0, [r7, #4]
 832 0248 3960     		str	r1, [r7]
 256:../../source/src/kernel/OS_CORE/osinit.c **** 	if(NULL == ptr)
 833              		.loc 2 256 0
 834 024a 7B68     		ldr	r3, [r7, #4]
 835 024c 002B     		cmp	r3, #0
 836 024e 00F08680 		beq	.L60
 257:../../source/src/kernel/OS_CORE/osinit.c **** 	{
 258:../../source/src/kernel/OS_CORE/osinit.c **** 		return ;
 259:../../source/src/kernel/OS_CORE/osinit.c **** 	}
 260:../../source/src/kernel/OS_CORE/osinit.c **** 	ASSERT(0 == in_os_memory(ptr));
 837              		.loc 2 260 0
 838 0252 7868     		ldr	r0, [r7, #4]
 839 0254 FFF7FEFF 		bl	in_os_memory
 840 0258 0346     		mov	r3, r0
 841 025a 002B     		cmp	r3, #0
 842 025c 04D0     		beq	.L43
 843              		.loc 2 260 0 is_stmt 0 discriminator 1
 844 025e 4FF48271 		mov	r1, #260
 845 0262 4148     		ldr	r0, .L61
 846 0264 FFF7FEFF 		bl	_ASSERT
 847              	.L43:
 261:../../source/src/kernel/OS_CORE/osinit.c **** #if CONFIG_PARA_CHECK
 262:../../source/src/kernel/OS_CORE/osinit.c **** 	if(0 != in_os_memory(ptr))
 848              		.loc 2 262 0 is_stmt 1
 849 0268 7868     		ldr	r0, [r7, #4]
 850 026a FFF7FEFF 		bl	in_os_memory
 851 026e 0346     		mov	r3, r0
 852 0270 002B     		cmp	r3, #0
 853 0272 03D0     		beq	.L44
 263:../../source/src/kernel/OS_CORE/osinit.c **** 	{
 264:../../source/src/kernel/OS_CORE/osinit.c **** 		OS_ERROR_PARA_MESSAGE_DISPLAY(_case_free_buddy,ptr);
 854              		.loc 2 264 0
 855 0274 3D48     		ldr	r0, .L61+4
 856 0276 FFF7FEFF 		bl	ka_printf
 265:../../source/src/kernel/OS_CORE/osinit.c **** 		return ;
 857              		.loc 2 265 0
 858 027a 71E0     		b	.L40
ARM GAS  G:\Users\Jaxb\AppData\Local\Temp\ccPpMHTg.s 			page 23


 859              	.L44:
 266:../../source/src/kernel/OS_CORE/osinit.c **** 	}
 267:../../source/src/kernel/OS_CORE/osinit.c **** #endif
 268:../../source/src/kernel/OS_CORE/osinit.c **** 	unsigned int level = ((unsigned int)end_ptr - (unsigned int)ptr) / PAGE_SIZE_BYTE;
 860              		.loc 2 268 0
 861 027c 3A68     		ldr	r2, [r7]
 862 027e 7B68     		ldr	r3, [r7, #4]
 863 0280 D31A     		subs	r3, r2, r3
 864 0282 9B0A     		lsrs	r3, r3, #10
 865 0284 BB60     		str	r3, [r7, #8]
 269:../../source/src/kernel/OS_CORE/osinit.c **** 	ASSERT(0 == (level & (level-1)));
 866              		.loc 2 269 0
 867 0286 BB68     		ldr	r3, [r7, #8]
 868 0288 5A1E     		subs	r2, r3, #1
 869 028a BB68     		ldr	r3, [r7, #8]
 870 028c 1340     		ands	r3, r3, r2
 871 028e 002B     		cmp	r3, #0
 872 0290 04D0     		beq	.L45
 873              		.loc 2 269 0 is_stmt 0 discriminator 1
 874 0292 40F20D11 		movw	r1, #269
 875 0296 3448     		ldr	r0, .L61
 876 0298 FFF7FEFF 		bl	_ASSERT
 877              	.L45:
 270:../../source/src/kernel/OS_CORE/osinit.c **** 	level = FastLog2(level) + 1;
 878              		.loc 2 270 0 is_stmt 1
 879 029c BB68     		ldr	r3, [r7, #8]
 880 029e 1846     		mov	r0, r3
 881 02a0 FFF7C7FF 		bl	FastLog2
 882 02a4 0346     		mov	r3, r0
 883 02a6 0133     		adds	r3, r3, #1
 884 02a8 BB60     		str	r3, [r7, #8]
 271:../../source/src/kernel/OS_CORE/osinit.c **** 	struct buddy *buddy_ptr = (struct buddy *)get_os_buddy_ptr_head();
 885              		.loc 2 271 0
 886 02aa FFF7FEFF 		bl	get_os_buddy_ptr_head
 887 02ae F860     		str	r0, [r7, #12]
 272:../../source/src/kernel/OS_CORE/osinit.c **** 	ASSERT(NULL != buddy_ptr);
 888              		.loc 2 272 0
 889 02b0 FB68     		ldr	r3, [r7, #12]
 890 02b2 002B     		cmp	r3, #0
 891 02b4 4BD1     		bne	.L47
 892              		.loc 2 272 0 is_stmt 0 discriminator 1
 893 02b6 4FF48871 		mov	r1, #272
 894 02ba 2B48     		ldr	r0, .L61
 895 02bc FFF7FEFF 		bl	_ASSERT
 273:../../source/src/kernel/OS_CORE/osinit.c **** 	while(NULL != buddy_ptr)
 896              		.loc 2 273 0 is_stmt 1 discriminator 1
 897 02c0 45E0     		b	.L47
 898              	.L59:
 274:../../source/src/kernel/OS_CORE/osinit.c **** 	{
 275:../../source/src/kernel/OS_CORE/osinit.c **** 		if(0 == in_buddy_range(ptr))
 899              		.loc 2 275 0
 900 02c2 7868     		ldr	r0, [r7, #4]
 901 02c4 FFF7FEFF 		bl	in_buddy_range
 902 02c8 0346     		mov	r3, r0
 903 02ca 002B     		cmp	r3, #0
 904 02cc 3AD1     		bne	.L48
 276:../../source/src/kernel/OS_CORE/osinit.c **** 		{
ARM GAS  G:\Users\Jaxb\AppData\Local\Temp\ccPpMHTg.s 			page 24


 277:../../source/src/kernel/OS_CORE/osinit.c **** 			switch(level)
 905              		.loc 2 277 0
 906 02ce BB68     		ldr	r3, [r7, #8]
 907 02d0 013B     		subs	r3, r3, #1
 908 02d2 062B     		cmp	r3, #6
 909 02d4 2CD8     		bhi	.L49
 910 02d6 01A2     		adr	r2, .L51
 911 02d8 52F823F0 		ldr	pc, [r2, r3, lsl #2]
 912              		.p2align 2
 913              	.L51:
 914 02dc F9020000 		.word	.L50+1
 915 02e0 01030000 		.word	.L52+1
 916 02e4 09030000 		.word	.L53+1
 917 02e8 11030000 		.word	.L54+1
 918 02ec 19030000 		.word	.L55+1
 919 02f0 21030000 		.word	.L56+1
 920 02f4 29030000 		.word	.L57+1
 921              		.p2align 1
 922              	.L50:
 278:../../source/src/kernel/OS_CORE/osinit.c **** 			{
 279:../../source/src/kernel/OS_CORE/osinit.c **** 				case 1 :
 280:../../source/src/kernel/OS_CORE/osinit.c **** 					return_power1_page(ptr);
 923              		.loc 2 280 0
 924 02f8 7868     		ldr	r0, [r7, #4]
 925 02fa FFF7FEFF 		bl	return_power1_page
 281:../../source/src/kernel/OS_CORE/osinit.c **** 					break;
 926              		.loc 2 281 0
 927 02fe 20E0     		b	.L58
 928              	.L52:
 282:../../source/src/kernel/OS_CORE/osinit.c **** 				case 2 :
 283:../../source/src/kernel/OS_CORE/osinit.c **** 					return_power2_page(ptr);
 929              		.loc 2 283 0
 930 0300 7868     		ldr	r0, [r7, #4]
 931 0302 FFF7FEFF 		bl	return_power2_page
 284:../../source/src/kernel/OS_CORE/osinit.c **** 					break;
 932              		.loc 2 284 0
 933 0306 1CE0     		b	.L58
 934              	.L53:
 285:../../source/src/kernel/OS_CORE/osinit.c **** 				case 3 :
 286:../../source/src/kernel/OS_CORE/osinit.c **** 					return_power3_page(ptr);
 935              		.loc 2 286 0
 936 0308 7868     		ldr	r0, [r7, #4]
 937 030a FFF7FEFF 		bl	return_power3_page
 287:../../source/src/kernel/OS_CORE/osinit.c **** 					break;
 938              		.loc 2 287 0
 939 030e 18E0     		b	.L58
 940              	.L54:
 288:../../source/src/kernel/OS_CORE/osinit.c **** 				case 4 :
 289:../../source/src/kernel/OS_CORE/osinit.c **** 					return_power4_page(ptr);
 941              		.loc 2 289 0
 942 0310 7868     		ldr	r0, [r7, #4]
 943 0312 FFF7FEFF 		bl	return_power4_page
 290:../../source/src/kernel/OS_CORE/osinit.c **** 					break;
 944              		.loc 2 290 0
 945 0316 14E0     		b	.L58
 946              	.L55:
 291:../../source/src/kernel/OS_CORE/osinit.c **** 				case 5 :
ARM GAS  G:\Users\Jaxb\AppData\Local\Temp\ccPpMHTg.s 			page 25


 292:../../source/src/kernel/OS_CORE/osinit.c **** 					return_power5_page(ptr);
 947              		.loc 2 292 0
 948 0318 7868     		ldr	r0, [r7, #4]
 949 031a FFF7FEFF 		bl	return_power5_page
 293:../../source/src/kernel/OS_CORE/osinit.c **** 					break;
 950              		.loc 2 293 0
 951 031e 10E0     		b	.L58
 952              	.L56:
 294:../../source/src/kernel/OS_CORE/osinit.c **** 				case 6 :
 295:../../source/src/kernel/OS_CORE/osinit.c **** 					return_power6_page(ptr);
 953              		.loc 2 295 0
 954 0320 7868     		ldr	r0, [r7, #4]
 955 0322 FFF7FEFF 		bl	return_power6_page
 296:../../source/src/kernel/OS_CORE/osinit.c **** 					break;
 956              		.loc 2 296 0
 957 0326 0CE0     		b	.L58
 958              	.L57:
 297:../../source/src/kernel/OS_CORE/osinit.c **** 				case 7 :
 298:../../source/src/kernel/OS_CORE/osinit.c **** 					return_power7_page(ptr);
 959              		.loc 2 298 0
 960 0328 7868     		ldr	r0, [r7, #4]
 961 032a FFF7FEFF 		bl	return_power7_page
 299:../../source/src/kernel/OS_CORE/osinit.c **** 					break;
 962              		.loc 2 299 0
 963 032e 08E0     		b	.L58
 964              	.L49:
 300:../../source/src/kernel/OS_CORE/osinit.c **** 				default :
 301:../../source/src/kernel/OS_CORE/osinit.c **** 					ka_printf("error level! FATAL ERROR!\n");
 965              		.loc 2 301 0
 966 0330 0F48     		ldr	r0, .L61+8
 967 0332 FFF7FEFF 		bl	ka_printf
 302:../../source/src/kernel/OS_CORE/osinit.c **** 					ASSERT(0);
 968              		.loc 2 302 0
 969 0336 4FF49771 		mov	r1, #302
 970 033a 0B48     		ldr	r0, .L61
 971 033c FFF7FEFF 		bl	_ASSERT
 303:../../source/src/kernel/OS_CORE/osinit.c **** 			}
 304:../../source/src/kernel/OS_CORE/osinit.c **** 			return ;
 972              		.loc 2 304 0
 973 0340 0EE0     		b	.L40
 974              	.L58:
 975              		.loc 2 304 0 is_stmt 0 discriminator 3
 976 0342 0DE0     		b	.L40
 977              	.L48:
 305:../../source/src/kernel/OS_CORE/osinit.c **** 		}
 306:../../source/src/kernel/OS_CORE/osinit.c **** 		else
 307:../../source/src/kernel/OS_CORE/osinit.c **** 		{
 308:../../source/src/kernel/OS_CORE/osinit.c **** 			buddy_ptr = (struct buddy *)get_next_buddy_ptr_head(buddy_ptr);
 978              		.loc 2 308 0 is_stmt 1
 979 0344 F868     		ldr	r0, [r7, #12]
 980 0346 FFF7FEFF 		bl	get_next_buddy_ptr_head
 981 034a F860     		str	r0, [r7, #12]
 309:../../source/src/kernel/OS_CORE/osinit.c **** 			continue;
 982              		.loc 2 309 0
 983 034c 00BF     		nop
 984              	.L47:
 273:../../source/src/kernel/OS_CORE/osinit.c **** 	{
ARM GAS  G:\Users\Jaxb\AppData\Local\Temp\ccPpMHTg.s 			page 26


 985              		.loc 2 273 0
 986 034e FB68     		ldr	r3, [r7, #12]
 987 0350 002B     		cmp	r3, #0
 988 0352 B6D1     		bne	.L59
 310:../../source/src/kernel/OS_CORE/osinit.c **** 		}
 311:../../source/src/kernel/OS_CORE/osinit.c **** 	}
 312:../../source/src/kernel/OS_CORE/osinit.c **** 	ka_printf("ptr fatal error!!!\n");
 989              		.loc 2 312 0
 990 0354 0748     		ldr	r0, .L61+12
 991 0356 FFF7FEFF 		bl	ka_printf
 313:../../source/src/kernel/OS_CORE/osinit.c **** 	return ;
 992              		.loc 2 313 0
 993 035a 00BF     		nop
 994 035c 00E0     		b	.L40
 995              	.L60:
 258:../../source/src/kernel/OS_CORE/osinit.c **** 	}
 996              		.loc 2 258 0
 997 035e 00BF     		nop
 998              	.L40:
 314:../../source/src/kernel/OS_CORE/osinit.c **** }
 999              		.loc 2 314 0
 1000 0360 1037     		adds	r7, r7, #16
 1001              	.LCFI45:
 1002              		.cfi_def_cfa_offset 8
 1003 0362 BD46     		mov	sp, r7
 1004              	.LCFI46:
 1005              		.cfi_def_cfa_register 13
 1006              		@ sp needed
 1007 0364 80BD     		pop	{r7, pc}
 1008              	.L62:
 1009 0366 00BF     		.align	2
 1010              	.L61:
 1011 0368 7C000000 		.word	.LC8
 1012 036c A8000000 		.word	.LC9
 1013 0370 DC000000 		.word	.LC10
 1014 0374 F8000000 		.word	.LC11
 1015              		.cfi_endproc
 1016              	.LFE26:
 1017              		.size	_case_slab_free_buddy, .-_case_slab_free_buddy
 1018              		.align	1
 1019              		.syntax unified
 1020              		.thumb
 1021              		.thumb_func
 1022              		.fpu softvfp
 1023              		.type	thread_init, %function
 1024              	thread_init:
 1025              	.LFB27:
 315:../../source/src/kernel/OS_CORE/osinit.c **** 
 316:../../source/src/kernel/OS_CORE/osinit.c **** static void thread_init(void *para)	
 317:../../source/src/kernel/OS_CORE/osinit.c **** {
 1026              		.loc 2 317 0
 1027              		.cfi_startproc
 1028              		@ args = 0, pretend = 0, frame = 48
 1029              		@ frame_needed = 1, uses_anonymous_args = 0
 1030 0378 80B5     		push	{r7, lr}
 1031              	.LCFI47:
 1032              		.cfi_def_cfa_offset 8
ARM GAS  G:\Users\Jaxb\AppData\Local\Temp\ccPpMHTg.s 			page 27


 1033              		.cfi_offset 7, -8
 1034              		.cfi_offset 14, -4
 1035 037a 8CB0     		sub	sp, sp, #48
 1036              	.LCFI48:
 1037              		.cfi_def_cfa_offset 56
 1038 037c 00AF     		add	r7, sp, #0
 1039              	.LCFI49:
 1040              		.cfi_def_cfa_register 7
 1041 037e 7860     		str	r0, [r7, #4]
 1042              	.L71:
 318:../../source/src/kernel/OS_CORE/osinit.c **** 	(void)para;
 319:../../source/src/kernel/OS_CORE/osinit.c **** 	struct list_head *pos;
 320:../../source/src/kernel/OS_CORE/osinit.c **** 	IL *IL_ptr;
 321:../../source/src/kernel/OS_CORE/osinit.c **** 	struct kmem_cache *kmem_cache_ptr;
 322:../../source/src/kernel/OS_CORE/osinit.c **** 	while(1)
 323:../../source/src/kernel/OS_CORE/osinit.c **** 	{
 324:../../source/src/kernel/OS_CORE/osinit.c **** 		sleep(THREAD_INIT_PERIOD * HZ); //period
 1043              		.loc 2 324 0
 1044 0380 0221     		movs	r1, #2
 1045 0382 40F6B830 		movw	r0, #3000
 1046 0386 FFF7FEFF 		bl	sys_delay
 325:../../source/src/kernel/OS_CORE/osinit.c **** 		//free the memory 
 326:../../source/src/kernel/OS_CORE/osinit.c **** 		list_for_each(pos,cache_chain_head_ptr)
 1047              		.loc 2 326 0
 1048 038a 294B     		ldr	r3, .L72
 1049 038c 1B68     		ldr	r3, [r3]
 1050 038e 1B68     		ldr	r3, [r3]
 1051 0390 FB62     		str	r3, [r7, #44]
 1052 0392 47E0     		b	.L64
 1053              	.L70:
 1054              	.LBB2:
 327:../../source/src/kernel/OS_CORE/osinit.c **** 		{
 328:../../source/src/kernel/OS_CORE/osinit.c **** 			IL_ptr = list_entry(pos,IL,insert);
 1055              		.loc 2 328 0
 1056 0394 FB6A     		ldr	r3, [r7, #44]
 1057 0396 3B62     		str	r3, [r7, #32]
 1058 0398 3B6A     		ldr	r3, [r7, #32]
 1059              	.LBE2:
 1060 039a FB61     		str	r3, [r7, #28]
 1061              	.LBB3:
 329:../../source/src/kernel/OS_CORE/osinit.c **** 			kmem_cache_ptr = list_entry(IL_ptr,struct kmem_cache,kmem_cache_insert_chain);
 1062              		.loc 2 329 0
 1063 039c FB69     		ldr	r3, [r7, #28]
 1064 039e BB61     		str	r3, [r7, #24]
 1065 03a0 BB69     		ldr	r3, [r7, #24]
 1066              	.LBE3:
 1067 03a2 7B61     		str	r3, [r7, #20]
 330:../../source/src/kernel/OS_CORE/osinit.c **** 			if(!list_empty(&kmem_cache_ptr->slabs_empty))
 1068              		.loc 2 330 0
 1069 03a4 7B69     		ldr	r3, [r7, #20]
 1070 03a6 1C33     		adds	r3, r3, #28
 1071 03a8 1846     		mov	r0, r3
 1072 03aa FFF749FE 		bl	list_empty
 1073 03ae 0346     		mov	r3, r0
 1074 03b0 002B     		cmp	r3, #0
 1075 03b2 34D1     		bne	.L65
 1076              	.LBB4:
ARM GAS  G:\Users\Jaxb\AppData\Local\Temp\ccPpMHTg.s 			page 28


 331:../../source/src/kernel/OS_CORE/osinit.c **** 			{
 332:../../source/src/kernel/OS_CORE/osinit.c **** 				struct list_head *pos1,*pos2;
 333:../../source/src/kernel/OS_CORE/osinit.c **** 				list_for_each_safe(pos1,pos2,&kmem_cache_ptr->slabs_empty)
 1077              		.loc 2 333 0
 1078 03b4 7B69     		ldr	r3, [r7, #20]
 1079 03b6 DB69     		ldr	r3, [r3, #28]
 1080 03b8 BB62     		str	r3, [r7, #40]
 1081 03ba BB6A     		ldr	r3, [r7, #40]
 1082 03bc 1B68     		ldr	r3, [r3]
 1083 03be 7B62     		str	r3, [r7, #36]
 1084 03c0 28E0     		b	.L66
 1085              	.L69:
 1086              	.LBB5:
 1087              	.LBB6:
 334:../../source/src/kernel/OS_CORE/osinit.c **** 				{
 335:../../source/src/kernel/OS_CORE/osinit.c **** 					struct slab *slab_ptr = list_entry(pos1,struct slab,slab_chain);
 1088              		.loc 2 335 0
 1089 03c2 BB6A     		ldr	r3, [r7, #40]
 1090 03c4 3B61     		str	r3, [r7, #16]
 1091 03c6 3B69     		ldr	r3, [r7, #16]
 1092 03c8 143B     		subs	r3, r3, #20
 1093              	.LBE6:
 1094 03ca FB60     		str	r3, [r7, #12]
 336:../../source/src/kernel/OS_CORE/osinit.c **** 					ASSERT(slab_ptr->current_block_num == slab_ptr->full_block_num);
 1095              		.loc 2 336 0
 1096 03cc FB68     		ldr	r3, [r7, #12]
 1097 03ce 9A68     		ldr	r2, [r3, #8]
 1098 03d0 FB68     		ldr	r3, [r7, #12]
 1099 03d2 DB68     		ldr	r3, [r3, #12]
 1100 03d4 9A42     		cmp	r2, r3
 1101 03d6 04D0     		beq	.L67
 1102              		.loc 2 336 0 is_stmt 0 discriminator 1
 1103 03d8 4FF4A871 		mov	r1, #336
 1104 03dc 1548     		ldr	r0, .L72+4
 1105 03de FFF7FEFF 		bl	_ASSERT
 1106              	.L67:
 337:../../source/src/kernel/OS_CORE/osinit.c **** 					ASSERT(slab_ptr->block_size == kmem_cache_ptr->kmem_cache_insert_chain.prio);
 1107              		.loc 2 337 0 is_stmt 1
 1108 03e2 FB68     		ldr	r3, [r7, #12]
 1109 03e4 1A69     		ldr	r2, [r3, #16]
 1110 03e6 7B69     		ldr	r3, [r7, #20]
 1111 03e8 9B68     		ldr	r3, [r3, #8]
 1112 03ea 9A42     		cmp	r2, r3
 1113 03ec 04D0     		beq	.L68
 1114              		.loc 2 337 0 is_stmt 0 discriminator 1
 1115 03ee 40F25111 		movw	r1, #337
 1116 03f2 1048     		ldr	r0, .L72+4
 1117 03f4 FFF7FEFF 		bl	_ASSERT
 1118              	.L68:
 338:../../source/src/kernel/OS_CORE/osinit.c **** 					list_del(pos1);
 1119              		.loc 2 338 0 is_stmt 1 discriminator 2
 1120 03f8 B86A     		ldr	r0, [r7, #40]
 1121 03fa FFF711FE 		bl	list_del
 339:../../source/src/kernel/OS_CORE/osinit.c **** 					_case_slab_free_buddy(slab_ptr,slab_ptr->end_ptr);
 1122              		.loc 2 339 0 discriminator 2
 1123 03fe FB68     		ldr	r3, [r7, #12]
 1124 0400 5B68     		ldr	r3, [r3, #4]
ARM GAS  G:\Users\Jaxb\AppData\Local\Temp\ccPpMHTg.s 			page 29


 1125 0402 1946     		mov	r1, r3
 1126 0404 F868     		ldr	r0, [r7, #12]
 1127 0406 FFF7FEFF 		bl	_case_slab_free_buddy
 1128              	.LBE5:
 333:../../source/src/kernel/OS_CORE/osinit.c **** 				{
 1129              		.loc 2 333 0 discriminator 2
 1130 040a 7B6A     		ldr	r3, [r7, #36]
 1131 040c BB62     		str	r3, [r7, #40]
 1132 040e BB6A     		ldr	r3, [r7, #40]
 1133 0410 1B68     		ldr	r3, [r3]
 1134 0412 7B62     		str	r3, [r7, #36]
 1135              	.L66:
 333:../../source/src/kernel/OS_CORE/osinit.c **** 				{
 1136              		.loc 2 333 0 is_stmt 0 discriminator 1
 1137 0414 7B69     		ldr	r3, [r7, #20]
 1138 0416 1C33     		adds	r3, r3, #28
 1139 0418 BA6A     		ldr	r2, [r7, #40]
 1140 041a 9A42     		cmp	r2, r3
 1141 041c D1D1     		bne	.L69
 1142              	.L65:
 1143              	.LBE4:
 326:../../source/src/kernel/OS_CORE/osinit.c **** 		{
 1144              		.loc 2 326 0 is_stmt 1 discriminator 2
 1145 041e FB6A     		ldr	r3, [r7, #44]
 1146 0420 1B68     		ldr	r3, [r3]
 1147 0422 FB62     		str	r3, [r7, #44]
 1148              	.L64:
 326:../../source/src/kernel/OS_CORE/osinit.c **** 		{
 1149              		.loc 2 326 0 is_stmt 0 discriminator 1
 1150 0424 024B     		ldr	r3, .L72
 1151 0426 1B68     		ldr	r3, [r3]
 1152 0428 FA6A     		ldr	r2, [r7, #44]
 1153 042a 9A42     		cmp	r2, r3
 1154 042c B2D1     		bne	.L70
 324:../../source/src/kernel/OS_CORE/osinit.c **** 		//free the memory 
 1155              		.loc 2 324 0 is_stmt 1
 1156 042e A7E7     		b	.L71
 1157              	.L73:
 1158              		.align	2
 1159              	.L72:
 1160 0430 00000000 		.word	cache_chain_head_ptr
 1161 0434 7C000000 		.word	.LC8
 1162              		.cfi_endproc
 1163              	.LFE27:
 1164              		.size	thread_init, .-thread_init
 1165              		.align	1
 1166              		.global	recycle_memory
 1167              		.syntax unified
 1168              		.thumb
 1169              		.thumb_func
 1170              		.fpu softvfp
 1171              		.type	recycle_memory, %function
 1172              	recycle_memory:
 1173              	.LFB28:
 340:../../source/src/kernel/OS_CORE/osinit.c **** 				}
 341:../../source/src/kernel/OS_CORE/osinit.c **** 			}
 342:../../source/src/kernel/OS_CORE/osinit.c **** 		}
ARM GAS  G:\Users\Jaxb\AppData\Local\Temp\ccPpMHTg.s 			page 30


 343:../../source/src/kernel/OS_CORE/osinit.c **** 	}
 344:../../source/src/kernel/OS_CORE/osinit.c **** }
 345:../../source/src/kernel/OS_CORE/osinit.c **** 
 346:../../source/src/kernel/OS_CORE/osinit.c **** void recycle_memory(void)
 347:../../source/src/kernel/OS_CORE/osinit.c **** {
 1174              		.loc 2 347 0
 1175              		.cfi_startproc
 1176              		@ args = 0, pretend = 0, frame = 0
 1177              		@ frame_needed = 1, uses_anonymous_args = 0
 1178 0438 80B5     		push	{r7, lr}
 1179              	.LCFI50:
 1180              		.cfi_def_cfa_offset 8
 1181              		.cfi_offset 7, -8
 1182              		.cfi_offset 14, -4
 1183 043a 00AF     		add	r7, sp, #0
 1184              	.LCFI51:
 1185              		.cfi_def_cfa_register 7
 348:../../source/src/kernel/OS_CORE/osinit.c **** 	remove_from_delay_heap(&TCB_init);
 1186              		.loc 2 348 0
 1187 043c 0248     		ldr	r0, .L75
 1188 043e FFF7FEFF 		bl	remove_from_delay_heap
 349:../../source/src/kernel/OS_CORE/osinit.c **** }
 1189              		.loc 2 349 0
 1190 0442 00BF     		nop
 1191 0444 80BD     		pop	{r7, pc}
 1192              	.L76:
 1193 0446 00BF     		.align	2
 1194              	.L75:
 1195 0448 48000000 		.word	TCB_init
 1196              		.cfi_endproc
 1197              	.LFE28:
 1198              		.size	recycle_memory, .-recycle_memory
 1199              	.Letext0:
 1200              		.file 3 "../../source/include/os_cpu/kakaosstdint.h"
 1201              		.file 4 "../../source/include/os_core/task_state.h"
 1202              		.file 5 "../../source/include/os_core/TCB.h"
 1203              		.file 6 "../../source/include/os_core/module.h"
 1204              		.file 7 "../../source/include/os_cpu/os_cpu_stm32.h"
 1205              		.file 8 "../../source/include/os_lib/buddy.h"
 1206              		.file 9 "../../source/include/os_lib/insert_sort.h"
 1207              		.file 10 "../../source/include/os_lib/slab.h"
 1208              		.file 11 "../../source/include/os_core/export.h"