ARM GAS  G:\Users\Jaxb\AppData\Local\Temp\ccK3fA7G.s 			page 1


   1              		.cpu cortex-m3
   2              		.eabi_attribute 20, 1
   3              		.eabi_attribute 21, 1
   4              		.eabi_attribute 23, 3
   5              		.eabi_attribute 24, 1
   6              		.eabi_attribute 25, 1
   7              		.eabi_attribute 26, 1
   8              		.eabi_attribute 30, 6
   9              		.eabi_attribute 34, 1
  10              		.eabi_attribute 18, 4
  11              		.file	"osinit.c"
  12              		.text
  13              	.Ltext0:
  14              		.cfi_sections	.debug_frame
  15              		.align	1
  16              		.syntax unified
  17              		.thumb
  18              		.thumb_func
  19              		.fpu softvfp
  20              		.type	__list_del, %function
  21              	__list_del:
  22              	.LFB6:
  23              		.file 1 "../../source/include/os_lib/double_linked_list.h"
   1:../../source/include/os_lib/double_linked_list.h **** #ifndef _DOUBLE_LINKED_LIST_H
   2:../../source/include/os_lib/double_linked_list.h **** #define _DOUBLE_LINKED_LIST_H
   3:../../source/include/os_lib/double_linked_list.h **** 
   4:../../source/include/os_lib/double_linked_list.h **** struct list_head {
   5:../../source/include/os_lib/double_linked_list.h ****     struct list_head *next, *prev;
   6:../../source/include/os_lib/double_linked_list.h **** };
   7:../../source/include/os_lib/double_linked_list.h **** 
   8:../../source/include/os_lib/double_linked_list.h **** 
   9:../../source/include/os_lib/double_linked_list.h **** #define LIST_HEAD_INIT(name) { &(name), &(name) }
  10:../../source/include/os_lib/double_linked_list.h **** 
  11:../../source/include/os_lib/double_linked_list.h **** 
  12:../../source/include/os_lib/double_linked_list.h **** #define LIST_HEAD(name) \
  13:../../source/include/os_lib/double_linked_list.h ****     struct list_head name = LIST_HEAD_INIT(name)
  14:../../source/include/os_lib/double_linked_list.h **** 
  15:../../source/include/os_lib/double_linked_list.h **** 
  16:../../source/include/os_lib/double_linked_list.h **** static inline void INIT_LIST_HEAD(struct list_head *list)
  17:../../source/include/os_lib/double_linked_list.h **** {
  18:../../source/include/os_lib/double_linked_list.h ****     list->next = list;
  19:../../source/include/os_lib/double_linked_list.h ****     list->prev = list;
  20:../../source/include/os_lib/double_linked_list.h **** }
  21:../../source/include/os_lib/double_linked_list.h **** 
  22:../../source/include/os_lib/double_linked_list.h **** 
  23:../../source/include/os_lib/double_linked_list.h **** static inline void __list_add(struct list_head *new,
  24:../../source/include/os_lib/double_linked_list.h ****                   struct list_head *prev,
  25:../../source/include/os_lib/double_linked_list.h ****                   struct list_head *next)
  26:../../source/include/os_lib/double_linked_list.h **** {
  27:../../source/include/os_lib/double_linked_list.h ****     next->prev = new;
  28:../../source/include/os_lib/double_linked_list.h ****     new->next = next;
  29:../../source/include/os_lib/double_linked_list.h ****     new->prev = prev;
  30:../../source/include/os_lib/double_linked_list.h ****     prev->next = new;
  31:../../source/include/os_lib/double_linked_list.h **** }
  32:../../source/include/os_lib/double_linked_list.h **** 
  33:../../source/include/os_lib/double_linked_list.h **** 
  34:../../source/include/os_lib/double_linked_list.h **** static inline void list_add(struct list_head *new, struct list_head *head)
ARM GAS  G:\Users\Jaxb\AppData\Local\Temp\ccK3fA7G.s 			page 2


  35:../../source/include/os_lib/double_linked_list.h **** {
  36:../../source/include/os_lib/double_linked_list.h ****     __list_add(new, head, head->next);
  37:../../source/include/os_lib/double_linked_list.h **** }
  38:../../source/include/os_lib/double_linked_list.h **** 
  39:../../source/include/os_lib/double_linked_list.h **** 
  40:../../source/include/os_lib/double_linked_list.h **** static inline void list_add_tail(struct list_head *new, struct list_head *head)
  41:../../source/include/os_lib/double_linked_list.h **** {
  42:../../source/include/os_lib/double_linked_list.h ****     __list_add(new, head->prev, head);
  43:../../source/include/os_lib/double_linked_list.h **** }
  44:../../source/include/os_lib/double_linked_list.h **** 
  45:../../source/include/os_lib/double_linked_list.h **** 
  46:../../source/include/os_lib/double_linked_list.h **** static inline void __list_del(struct list_head * prev, struct list_head * next)
  47:../../source/include/os_lib/double_linked_list.h **** {
  24              		.loc 1 47 0
  25              		.cfi_startproc
  26              		@ args = 0, pretend = 0, frame = 8
  27              		@ frame_needed = 1, uses_anonymous_args = 0
  28              		@ link register save eliminated.
  29 0000 80B4     		push	{r7}
  30              	.LCFI0:
  31              		.cfi_def_cfa_offset 4
  32              		.cfi_offset 7, -4
  33 0002 83B0     		sub	sp, sp, #12
  34              	.LCFI1:
  35              		.cfi_def_cfa_offset 16
  36 0004 00AF     		add	r7, sp, #0
  37              	.LCFI2:
  38              		.cfi_def_cfa_register 7
  39 0006 7860     		str	r0, [r7, #4]
  40 0008 3960     		str	r1, [r7]
  48:../../source/include/os_lib/double_linked_list.h ****     next->prev = prev;
  41              		.loc 1 48 0
  42 000a 3B68     		ldr	r3, [r7]
  43 000c 7A68     		ldr	r2, [r7, #4]
  44 000e 5A60     		str	r2, [r3, #4]
  49:../../source/include/os_lib/double_linked_list.h ****     prev->next = next;
  45              		.loc 1 49 0
  46 0010 7B68     		ldr	r3, [r7, #4]
  47 0012 3A68     		ldr	r2, [r7]
  48 0014 1A60     		str	r2, [r3]
  50:../../source/include/os_lib/double_linked_list.h **** }
  49              		.loc 1 50 0
  50 0016 00BF     		nop
  51 0018 0C37     		adds	r7, r7, #12
  52              	.LCFI3:
  53              		.cfi_def_cfa_offset 4
  54 001a BD46     		mov	sp, r7
  55              	.LCFI4:
  56              		.cfi_def_cfa_register 13
  57              		@ sp needed
  58 001c 80BC     		pop	{r7}
  59              	.LCFI5:
  60              		.cfi_restore 7
  61              		.cfi_def_cfa_offset 0
  62 001e 7047     		bx	lr
  63              		.cfi_endproc
  64              	.LFE6:
ARM GAS  G:\Users\Jaxb\AppData\Local\Temp\ccK3fA7G.s 			page 3


  65              		.size	__list_del, .-__list_del
  66              		.align	1
  67              		.syntax unified
  68              		.thumb
  69              		.thumb_func
  70              		.fpu softvfp
  71              		.type	list_del, %function
  72              	list_del:
  73              	.LFB7:
  51:../../source/include/os_lib/double_linked_list.h **** 
  52:../../source/include/os_lib/double_linked_list.h **** 
  53:../../source/include/os_lib/double_linked_list.h **** static inline void list_del(struct list_head *entry)
  54:../../source/include/os_lib/double_linked_list.h **** {
  74              		.loc 1 54 0
  75              		.cfi_startproc
  76              		@ args = 0, pretend = 0, frame = 8
  77              		@ frame_needed = 1, uses_anonymous_args = 0
  78 0020 80B5     		push	{r7, lr}
  79              	.LCFI6:
  80              		.cfi_def_cfa_offset 8
  81              		.cfi_offset 7, -8
  82              		.cfi_offset 14, -4
  83 0022 82B0     		sub	sp, sp, #8
  84              	.LCFI7:
  85              		.cfi_def_cfa_offset 16
  86 0024 00AF     		add	r7, sp, #0
  87              	.LCFI8:
  88              		.cfi_def_cfa_register 7
  89 0026 7860     		str	r0, [r7, #4]
  55:../../source/include/os_lib/double_linked_list.h ****     __list_del(entry->prev, entry->next);
  90              		.loc 1 55 0
  91 0028 7B68     		ldr	r3, [r7, #4]
  92 002a 5A68     		ldr	r2, [r3, #4]
  93 002c 7B68     		ldr	r3, [r7, #4]
  94 002e 1B68     		ldr	r3, [r3]
  95 0030 1946     		mov	r1, r3
  96 0032 1046     		mov	r0, r2
  97 0034 FFF7E4FF 		bl	__list_del
  56:../../source/include/os_lib/double_linked_list.h **** }
  98              		.loc 1 56 0
  99 0038 00BF     		nop
 100 003a 0837     		adds	r7, r7, #8
 101              	.LCFI9:
 102              		.cfi_def_cfa_offset 8
 103 003c BD46     		mov	sp, r7
 104              	.LCFI10:
 105              		.cfi_def_cfa_register 13
 106              		@ sp needed
 107 003e 80BD     		pop	{r7, pc}
 108              		.cfi_endproc
 109              	.LFE7:
 110              		.size	list_del, .-list_del
 111              		.align	1
 112              		.syntax unified
 113              		.thumb
 114              		.thumb_func
 115              		.fpu softvfp
ARM GAS  G:\Users\Jaxb\AppData\Local\Temp\ccK3fA7G.s 			page 4


 116              		.type	list_empty, %function
 117              	list_empty:
 118              	.LFB11:
  57:../../source/include/os_lib/double_linked_list.h **** 
  58:../../source/include/os_lib/double_linked_list.h **** 
  59:../../source/include/os_lib/double_linked_list.h **** static inline void __list_del_entry(struct list_head *entry)
  60:../../source/include/os_lib/double_linked_list.h **** {
  61:../../source/include/os_lib/double_linked_list.h ****     __list_del(entry->prev, entry->next);
  62:../../source/include/os_lib/double_linked_list.h **** }
  63:../../source/include/os_lib/double_linked_list.h **** 
  64:../../source/include/os_lib/double_linked_list.h **** 
  65:../../source/include/os_lib/double_linked_list.h **** static inline void list_del_init(struct list_head *entry)
  66:../../source/include/os_lib/double_linked_list.h **** {
  67:../../source/include/os_lib/double_linked_list.h ****     __list_del_entry(entry);
  68:../../source/include/os_lib/double_linked_list.h ****     INIT_LIST_HEAD(entry);
  69:../../source/include/os_lib/double_linked_list.h **** }
  70:../../source/include/os_lib/double_linked_list.h **** 
  71:../../source/include/os_lib/double_linked_list.h **** 
  72:../../source/include/os_lib/double_linked_list.h **** static inline void list_replace(struct list_head *old,
  73:../../source/include/os_lib/double_linked_list.h ****                 struct list_head *new)
  74:../../source/include/os_lib/double_linked_list.h **** {
  75:../../source/include/os_lib/double_linked_list.h ****     new->next = old->next;
  76:../../source/include/os_lib/double_linked_list.h ****     new->next->prev = new;
  77:../../source/include/os_lib/double_linked_list.h ****     new->prev = old->prev;
  78:../../source/include/os_lib/double_linked_list.h ****     new->prev->next = new;
  79:../../source/include/os_lib/double_linked_list.h **** }
  80:../../source/include/os_lib/double_linked_list.h **** 
  81:../../source/include/os_lib/double_linked_list.h **** 
  82:../../source/include/os_lib/double_linked_list.h **** static inline int list_empty(const struct list_head *head)
  83:../../source/include/os_lib/double_linked_list.h **** {
 119              		.loc 1 83 0
 120              		.cfi_startproc
 121              		@ args = 0, pretend = 0, frame = 8
 122              		@ frame_needed = 1, uses_anonymous_args = 0
 123              		@ link register save eliminated.
 124 0040 80B4     		push	{r7}
 125              	.LCFI11:
 126              		.cfi_def_cfa_offset 4
 127              		.cfi_offset 7, -4
 128 0042 83B0     		sub	sp, sp, #12
 129              	.LCFI12:
 130              		.cfi_def_cfa_offset 16
 131 0044 00AF     		add	r7, sp, #0
 132              	.LCFI13:
 133              		.cfi_def_cfa_register 7
 134 0046 7860     		str	r0, [r7, #4]
  84:../../source/include/os_lib/double_linked_list.h ****     return head->next == head;
 135              		.loc 1 84 0
 136 0048 7B68     		ldr	r3, [r7, #4]
 137 004a 1B68     		ldr	r3, [r3]
 138 004c 7A68     		ldr	r2, [r7, #4]
 139 004e 9A42     		cmp	r2, r3
 140 0050 0CBF     		ite	eq
 141 0052 0123     		moveq	r3, #1
 142 0054 0023     		movne	r3, #0
 143 0056 DBB2     		uxtb	r3, r3
  85:../../source/include/os_lib/double_linked_list.h **** }
ARM GAS  G:\Users\Jaxb\AppData\Local\Temp\ccK3fA7G.s 			page 5


 144              		.loc 1 85 0
 145 0058 1846     		mov	r0, r3
 146 005a 0C37     		adds	r7, r7, #12
 147              	.LCFI14:
 148              		.cfi_def_cfa_offset 4
 149 005c BD46     		mov	sp, r7
 150              	.LCFI15:
 151              		.cfi_def_cfa_register 13
 152              		@ sp needed
 153 005e 80BC     		pop	{r7}
 154              	.LCFI16:
 155              		.cfi_restore 7
 156              		.cfi_def_cfa_offset 0
 157 0060 7047     		bx	lr
 158              		.cfi_endproc
 159              	.LFE11:
 160              		.size	list_empty, .-list_empty
 161              		.bss
 162              		.align	3
 163              	TCB_shell:
 164 0000 00000000 		.space	72
 164      00000000 
 164      00000000 
 164      00000000 
 164      00000000 
 165              		.size	TCB_shell, 72
 166              		.align	3
 167              	TCB_init:
 168 0048 00000000 		.space	72
 168      00000000 
 168      00000000 
 168      00000000 
 168      00000000 
 169              		.size	TCB_init, 72
 170              		.align	3
 171              	TCB_idle:
 172 0090 00000000 		.space	72
 172      00000000 
 172      00000000 
 172      00000000 
 172      00000000 
 173              		.size	TCB_idle, 72
 174              		.comm	TCB_count_init,72,8
 175              		.comm	TCB_timer_task,72,8
 176              		.global	idle_num
 177              		.align	3
 178              		.type	idle_num, %object
 179              		.size	idle_num, 8
 180              	idle_num:
 181 00d8 00000000 		.space	8
 181      00000000 
 182              		.global	count_max_num
 183              		.align	2
 184              		.type	count_max_num, %object
 185              		.size	count_max_num, 4
 186              	count_max_num:
 187 00e0 00000000 		.space	4
ARM GAS  G:\Users\Jaxb\AppData\Local\Temp\ccK3fA7G.s 			page 6


 188              		.section	.INIT.TEXT,"ax",%progbits
 189              		.align	1
 190              		.syntax unified
 191              		.thumb
 192              		.thumb_func
 193              		.fpu softvfp
 194              		.type	os_init, %function
 195              	os_init:
 196              	.LFB16:
 197              		.file 2 "../../source/src/kernel/OS_CORE/osinit.c"
   1:../../source/src/kernel/OS_CORE/osinit.c **** #include <ka_configuration.h>
   2:../../source/src/kernel/OS_CORE/osinit.c **** #include <osinit.h>
   3:../../source/src/kernel/OS_CORE/osinit.c **** #include <os_delay.h>
   4:../../source/src/kernel/OS_CORE/osinit.c **** #include <os_ready.h>
   5:../../source/src/kernel/OS_CORE/osinit.c **** #include <os_suspend.h>
   6:../../source/src/kernel/OS_CORE/osinit.c **** #include <os_TCB_list.h>
   7:../../source/src/kernel/OS_CORE/osinit.c **** #include <os_schedule.h>
   8:../../source/src/kernel/OS_CORE/osinit.c **** #include <TCB.h>
   9:../../source/src/kernel/OS_CORE/osinit.c **** #include <os_cpu_stm32.h>
  10:../../source/src/kernel/OS_CORE/osinit.c **** #include <kakaosstdint.h>
  11:../../source/src/kernel/OS_CORE/osinit.c **** #include <myMicroLIB.h>
  12:../../source/src/kernel/OS_CORE/osinit.c **** #include <shell.h>
  13:../../source/src/kernel/OS_CORE/osinit.c **** #include <user.h>
  14:../../source/src/kernel/OS_CORE/osinit.c **** #include <myassert.h>
  15:../../source/src/kernel/OS_CORE/osinit.c **** #include <slab.h>
  16:../../source/src/kernel/OS_CORE/osinit.c **** #include <double_linked_list.h>
  17:../../source/src/kernel/OS_CORE/osinit.c **** 
  18:../../source/src/kernel/OS_CORE/osinit.c **** 
  19:../../source/src/kernel/OS_CORE/osinit.c **** #if CONFIG_SHELL_EN
  20:../../source/src/kernel/OS_CORE/osinit.c **** 	static TCB TCB_shell;
  21:../../source/src/kernel/OS_CORE/osinit.c **** #endif
  22:../../source/src/kernel/OS_CORE/osinit.c **** static TCB TCB_init;
  23:../../source/src/kernel/OS_CORE/osinit.c **** static TCB TCB_idle;
  24:../../source/src/kernel/OS_CORE/osinit.c **** TCB TCB_count_init;
  25:../../source/src/kernel/OS_CORE/osinit.c **** 
  26:../../source/src/kernel/OS_CORE/osinit.c **** #if CONFIG_TIMER_EN
  27:../../source/src/kernel/OS_CORE/osinit.c **** 	TCB TCB_timer_task;
  28:../../source/src/kernel/OS_CORE/osinit.c **** #endif
  29:../../source/src/kernel/OS_CORE/osinit.c **** 
  30:../../source/src/kernel/OS_CORE/osinit.c **** UINT64 idle_num = 0;
  31:../../source/src/kernel/OS_CORE/osinit.c **** unsigned int  count_max_num = 0;//used for counting cpu used rate
  32:../../source/src/kernel/OS_CORE/osinit.c **** #if PRECISE_TIME_DELAY
  33:../../source/src/kernel/OS_CORE/osinit.c **** 	UINT64 num_pre_tick = 0;//used for precise timing
  34:../../source/src/kernel/OS_CORE/osinit.c **** 	TCB TCB_precise_timing;
  35:../../source/src/kernel/OS_CORE/osinit.c **** #endif
  36:../../source/src/kernel/OS_CORE/osinit.c **** 
  37:../../source/src/kernel/OS_CORE/osinit.c **** extern int g_schedule_lock;
  38:../../source/src/kernel/OS_CORE/osinit.c **** extern UINT64 g_time_tick_count;
  39:../../source/src/kernel/OS_CORE/osinit.c **** extern volatile int g_interrupt_count;
  40:../../source/src/kernel/OS_CORE/osinit.c **** extern TCB *OSTCBCurPtr;
  41:../../source/src/kernel/OS_CORE/osinit.c **** extern TCB *OSTCBHighRdyPtr;
  42:../../source/src/kernel/OS_CORE/osinit.c **** extern struct list_head *const cache_chain_head_ptr;
  43:../../source/src/kernel/OS_CORE/osinit.c **** 
  44:../../source/src/kernel/OS_CORE/osinit.c **** #if CONFIG_TIMER_EN
  45:../../source/src/kernel/OS_CORE/osinit.c **** 	extern void __init_timer(void);
  46:../../source/src/kernel/OS_CORE/osinit.c **** 	extern void timer_task(void *para);
  47:../../source/src/kernel/OS_CORE/osinit.c **** #endif
ARM GAS  G:\Users\Jaxb\AppData\Local\Temp\ccK3fA7G.s 			page 7


  48:../../source/src/kernel/OS_CORE/osinit.c **** 
  49:../../source/src/kernel/OS_CORE/osinit.c **** static void thread_init(void *para);
  50:../../source/src/kernel/OS_CORE/osinit.c **** 
  51:../../source/src/kernel/OS_CORE/osinit.c **** static void __INIT os_init(void)
  52:../../source/src/kernel/OS_CORE/osinit.c **** {
 198              		.loc 2 52 0
 199              		.cfi_startproc
 200              		@ args = 0, pretend = 0, frame = 0
 201              		@ frame_needed = 1, uses_anonymous_args = 0
 202 0000 98B5     		push	{r3, r4, r7, lr}
 203              	.LCFI17:
 204              		.cfi_def_cfa_offset 16
 205              		.cfi_offset 3, -16
 206              		.cfi_offset 4, -12
 207              		.cfi_offset 7, -8
 208              		.cfi_offset 14, -4
 209 0002 00AF     		add	r7, sp, #0
 210              	.LCFI18:
 211              		.cfi_def_cfa_register 7
  53:../../source/src/kernel/OS_CORE/osinit.c **** 	bsp_init();
 212              		.loc 2 53 0
 213 0004 FFF7FEFF 		bl	bsp_init
  54:../../source/src/kernel/OS_CORE/osinit.c **** 
  55:../../source/src/kernel/OS_CORE/osinit.c **** 	g_time_tick_count = 0;
 214              		.loc 2 55 0
 215 0008 0D4A     		ldr	r2, .L6
 216 000a 4FF00003 		mov	r3, #0
 217 000e 4FF00004 		mov	r4, #0
 218 0012 C2E90034 		strd	r3, [r2]
  56:../../source/src/kernel/OS_CORE/osinit.c **** 	g_interrupt_count = 0;
 219              		.loc 2 56 0
 220 0016 0B4B     		ldr	r3, .L6+4
 221 0018 0022     		movs	r2, #0
 222 001a 1A60     		str	r2, [r3]
  57:../../source/src/kernel/OS_CORE/osinit.c **** 
  58:../../source/src/kernel/OS_CORE/osinit.c **** //===========my_lib==========================
  59:../../source/src/kernel/OS_CORE/osinit.c **** 	__init_my_micro_lib();
 223              		.loc 2 59 0
 224 001c FFF7FEFF 		bl	__init_my_micro_lib
  60:../../source/src/kernel/OS_CORE/osinit.c **** 
  61:../../source/src/kernel/OS_CORE/osinit.c **** //===========TCB=======schedule==============	
  62:../../source/src/kernel/OS_CORE/osinit.c **** 	__init_ready_group();
 225              		.loc 2 62 0
 226 0020 FFF7FEFF 		bl	__init_ready_group
  63:../../source/src/kernel/OS_CORE/osinit.c **** 	__init_delay_heap();
 227              		.loc 2 63 0
 228 0024 FFF7FEFF 		bl	__init_delay_heap
  64:../../source/src/kernel/OS_CORE/osinit.c **** 	__init_TCB_list();
 229              		.loc 2 64 0
 230 0028 FFF7FEFF 		bl	__init_TCB_list
  65:../../source/src/kernel/OS_CORE/osinit.c **** 	__init_suspend_list();
 231              		.loc 2 65 0
 232 002c FFF7FEFF 		bl	__init_suspend_list
  66:../../source/src/kernel/OS_CORE/osinit.c **** 
  67:../../source/src/kernel/OS_CORE/osinit.c **** #if CONFIG_TIME_EN
  68:../../source/src/kernel/OS_CORE/osinit.c **** 	__init_system_time();
 233              		.loc 2 68 0
ARM GAS  G:\Users\Jaxb\AppData\Local\Temp\ccK3fA7G.s 			page 8


 234 0030 FFF7FEFF 		bl	__init_system_time
  69:../../source/src/kernel/OS_CORE/osinit.c **** #endif	
  70:../../source/src/kernel/OS_CORE/osinit.c **** 
  71:../../source/src/kernel/OS_CORE/osinit.c **** #if CONFIG_TIMER_EN
  72:../../source/src/kernel/OS_CORE/osinit.c **** 	__init_timer();
 235              		.loc 2 72 0
 236 0034 FFF7FEFF 		bl	__init_timer
  73:../../source/src/kernel/OS_CORE/osinit.c **** #endif
  74:../../source/src/kernel/OS_CORE/osinit.c **** 
  75:../../source/src/kernel/OS_CORE/osinit.c **** #if CONFIG_SHELL_DEBUG_EN && CONFIG_SHELL_EN
  76:../../source/src/kernel/OS_CORE/osinit.c **** 	__init_shell_debug();
 237              		.loc 2 76 0
 238 0038 FFF7FEFF 		bl	__init_shell_debug
  77:../../source/src/kernel/OS_CORE/osinit.c **** #endif
  78:../../source/src/kernel/OS_CORE/osinit.c **** }
 239              		.loc 2 78 0
 240 003c 00BF     		nop
 241 003e 98BD     		pop	{r3, r4, r7, pc}
 242              	.L7:
 243              		.align	2
 244              	.L6:
 245 0040 00000000 		.word	g_time_tick_count
 246 0044 00000000 		.word	g_interrupt_count
 247              		.cfi_endproc
 248              	.LFE16:
 249              		.size	os_init, .-os_init
 250              		.section	.rodata.str1.4,"aMS",%progbits,1
 251              		.align	2
 252              	.LC0:
 253 0000 696E6974 		.ascii	"init\000"
 253      00
 254 0005 000000   		.align	2
 255              	.LC1:
 256 0008 6F735F69 		.ascii	"os_init_fail...stop booting...\012\000"
 256      6E69745F 
 256      6661696C 
 256      2E2E2E73 
 256      746F7020 
 257              		.align	2
 258              	.LC2:
 259 0028 7368656C 		.ascii	"shell\000"
 259      6C00
 260 002e 0000     		.align	2
 261              	.LC3:
 262 0030 74696D65 		.ascii	"timer_task\000"
 262      725F7461 
 262      736B00
 263 003b 00       		.align	2
 264              	.LC4:
 265 003c 74687265 		.ascii	"three\000"
 265      6500
 266              		.text
 267              		.align	1
 268              		.global	task_start
 269              		.syntax unified
 270              		.thumb
 271              		.thumb_func
ARM GAS  G:\Users\Jaxb\AppData\Local\Temp\ccK3fA7G.s 			page 9


 272              		.fpu softvfp
 273              		.type	task_start, %function
 274              	task_start:
 275              	.LFB17:
  79:../../source/src/kernel/OS_CORE/osinit.c **** 
  80:../../source/src/kernel/OS_CORE/osinit.c **** void task_start(void)
  81:../../source/src/kernel/OS_CORE/osinit.c **** {
 276              		.loc 2 81 0
 277              		.cfi_startproc
 278              		@ args = 0, pretend = 0, frame = 0
 279              		@ frame_needed = 1, uses_anonymous_args = 0
 280 0062 80B5     		push	{r7, lr}
 281              	.LCFI19:
 282              		.cfi_def_cfa_offset 8
 283              		.cfi_offset 7, -8
 284              		.cfi_offset 14, -4
 285 0064 84B0     		sub	sp, sp, #16
 286              	.LCFI20:
 287              		.cfi_def_cfa_offset 24
 288 0066 04AF     		add	r7, sp, #16
 289              	.LCFI21:
 290              		.cfi_def_cfa 7, 8
  82:../../source/src/kernel/OS_CORE/osinit.c **** 	if(0 != task_init_ready(&TCB_init,500,0,3,"init",thread_init,NULL))
 291              		.loc 2 82 0
 292 0068 0023     		movs	r3, #0
 293 006a 0293     		str	r3, [sp, #8]
 294 006c 284B     		ldr	r3, .L18
 295 006e 0193     		str	r3, [sp, #4]
 296 0070 284B     		ldr	r3, .L18+4
 297 0072 0093     		str	r3, [sp]
 298 0074 0323     		movs	r3, #3
 299 0076 0022     		movs	r2, #0
 300 0078 4FF4FA71 		mov	r1, #500
 301 007c 2648     		ldr	r0, .L18+8
 302 007e FFF7FEFF 		bl	task_init_ready
 303 0082 0346     		mov	r3, r0
 304 0084 002B     		cmp	r3, #0
 305 0086 03D0     		beq	.L9
  83:../../source/src/kernel/OS_CORE/osinit.c **** 	{
  84:../../source/src/kernel/OS_CORE/osinit.c **** 		ka_printf("os_init_fail...stop booting...\n");
 306              		.loc 2 84 0
 307 0088 2448     		ldr	r0, .L18+12
 308 008a FFF7FEFF 		bl	ka_printf
 309              	.L10:
  85:../../source/src/kernel/OS_CORE/osinit.c **** 		while(1);
 310              		.loc 2 85 0 discriminator 1
 311 008e FEE7     		b	.L10
 312              	.L9:
  86:../../source/src/kernel/OS_CORE/osinit.c **** 	}
  87:../../source/src/kernel/OS_CORE/osinit.c **** #if CONFIG_SHELL_EN
  88:../../source/src/kernel/OS_CORE/osinit.c **** 	if(0 != task_init_ready(&TCB_shell,1000,0,3,"shell",shell,NULL))
 313              		.loc 2 88 0
 314 0090 0023     		movs	r3, #0
 315 0092 0293     		str	r3, [sp, #8]
 316 0094 224B     		ldr	r3, .L18+16
 317 0096 0193     		str	r3, [sp, #4]
 318 0098 224B     		ldr	r3, .L18+20
ARM GAS  G:\Users\Jaxb\AppData\Local\Temp\ccK3fA7G.s 			page 10


 319 009a 0093     		str	r3, [sp]
 320 009c 0323     		movs	r3, #3
 321 009e 0022     		movs	r2, #0
 322 00a0 4FF47A71 		mov	r1, #1000
 323 00a4 2048     		ldr	r0, .L18+24
 324 00a6 FFF7FEFF 		bl	task_init_ready
 325 00aa 0346     		mov	r3, r0
 326 00ac 002B     		cmp	r3, #0
 327 00ae 03D0     		beq	.L11
  89:../../source/src/kernel/OS_CORE/osinit.c **** 	{
  90:../../source/src/kernel/OS_CORE/osinit.c **** 		ka_printf("os_init_fail...stop booting...\n");
 328              		.loc 2 90 0
 329 00b0 1A48     		ldr	r0, .L18+12
 330 00b2 FFF7FEFF 		bl	ka_printf
 331              	.L12:
  91:../../source/src/kernel/OS_CORE/osinit.c **** 		while(1);
 332              		.loc 2 91 0 discriminator 2
 333 00b6 FEE7     		b	.L12
 334              	.L11:
  92:../../source/src/kernel/OS_CORE/osinit.c **** 	}
  93:../../source/src/kernel/OS_CORE/osinit.c **** 	#endif
  94:../../source/src/kernel/OS_CORE/osinit.c **** #if CONFIG_TIMER_EN
  95:../../source/src/kernel/OS_CORE/osinit.c **** 	if(0 != task_init_ready(&TCB_timer_task,256,0,3,"timer_task",timer_task,NULL))
 335              		.loc 2 95 0
 336 00b8 0023     		movs	r3, #0
 337 00ba 0293     		str	r3, [sp, #8]
 338 00bc 1B4B     		ldr	r3, .L18+28
 339 00be 0193     		str	r3, [sp, #4]
 340 00c0 1B4B     		ldr	r3, .L18+32
 341 00c2 0093     		str	r3, [sp]
 342 00c4 0323     		movs	r3, #3
 343 00c6 0022     		movs	r2, #0
 344 00c8 4FF48071 		mov	r1, #256
 345 00cc 1948     		ldr	r0, .L18+36
 346 00ce FFF7FEFF 		bl	task_init_ready
 347 00d2 0346     		mov	r3, r0
 348 00d4 002B     		cmp	r3, #0
 349 00d6 03D0     		beq	.L13
  96:../../source/src/kernel/OS_CORE/osinit.c **** 	{
  97:../../source/src/kernel/OS_CORE/osinit.c **** 		ka_printf("os_init_fail...stop booting...\n");
 350              		.loc 2 97 0
 351 00d8 1048     		ldr	r0, .L18+12
 352 00da FFF7FEFF 		bl	ka_printf
 353              	.L14:
  98:../../source/src/kernel/OS_CORE/osinit.c **** 		while(1);
 354              		.loc 2 98 0 discriminator 3
 355 00de FEE7     		b	.L14
 356              	.L13:
  99:../../source/src/kernel/OS_CORE/osinit.c **** 	}
 100:../../source/src/kernel/OS_CORE/osinit.c **** #endif
 101:../../source/src/kernel/OS_CORE/osinit.c **** 	if(0 != task_creat_ready(500,4,5,"three",three,NULL,NULL))
 357              		.loc 2 101 0
 358 00e0 0023     		movs	r3, #0
 359 00e2 0293     		str	r3, [sp, #8]
 360 00e4 0023     		movs	r3, #0
 361 00e6 0193     		str	r3, [sp, #4]
 362 00e8 134B     		ldr	r3, .L18+40
ARM GAS  G:\Users\Jaxb\AppData\Local\Temp\ccK3fA7G.s 			page 11


 363 00ea 0093     		str	r3, [sp]
 364 00ec 134B     		ldr	r3, .L18+44
 365 00ee 0522     		movs	r2, #5
 366 00f0 0421     		movs	r1, #4
 367 00f2 4FF4FA70 		mov	r0, #500
 368 00f6 FFF7FEFF 		bl	task_creat_ready
 369 00fa 0346     		mov	r3, r0
 370 00fc 002B     		cmp	r3, #0
 371 00fe 03D0     		beq	.L17
 102:../../source/src/kernel/OS_CORE/osinit.c **** 	{
 103:../../source/src/kernel/OS_CORE/osinit.c **** 		ka_printf("os_init_fail...stop booting...\n");
 372              		.loc 2 103 0
 373 0100 0648     		ldr	r0, .L18+12
 374 0102 FFF7FEFF 		bl	ka_printf
 375              	.L16:
 104:../../source/src/kernel/OS_CORE/osinit.c **** 		while(1);
 376              		.loc 2 104 0 discriminator 4
 377 0106 FEE7     		b	.L16
 378              	.L17:
 105:../../source/src/kernel/OS_CORE/osinit.c **** 	}
 106:../../source/src/kernel/OS_CORE/osinit.c **** //	if(0 != task_creat_ready(256,5,5,"four",four,NULL,NULL))
 107:../../source/src/kernel/OS_CORE/osinit.c **** //	{
 108:../../source/src/kernel/OS_CORE/osinit.c **** //		ka_printf("os_init_fail...stop booting...\n");
 109:../../source/src/kernel/OS_CORE/osinit.c **** //		while(1);
 110:../../source/src/kernel/OS_CORE/osinit.c **** //	}
 111:../../source/src/kernel/OS_CORE/osinit.c **** //	if(0 != task_creat_ready(256,6,5,"five",five,NULL,NULL))
 112:../../source/src/kernel/OS_CORE/osinit.c **** //	{
 113:../../source/src/kernel/OS_CORE/osinit.c **** //		ka_printf("os_init_fail...stop booting...\n");
 114:../../source/src/kernel/OS_CORE/osinit.c **** //		while(1);
 115:../../source/src/kernel/OS_CORE/osinit.c **** //	}
 116:../../source/src/kernel/OS_CORE/osinit.c **** //	if(0 != task_creat_ready(256,7,3,"six",six,NULL,NULL))
 117:../../source/src/kernel/OS_CORE/osinit.c **** //	{
 118:../../source/src/kernel/OS_CORE/osinit.c **** //		ka_printf("os_init_fail...stop booting...\n");
 119:../../source/src/kernel/OS_CORE/osinit.c **** //		while(1);
 120:../../source/src/kernel/OS_CORE/osinit.c **** //	}
 121:../../source/src/kernel/OS_CORE/osinit.c **** }
 379              		.loc 2 121 0
 380 0108 00BF     		nop
 381 010a BD46     		mov	sp, r7
 382              	.LCFI22:
 383              		.cfi_def_cfa_register 13
 384              		@ sp needed
 385 010c 80BD     		pop	{r7, pc}
 386              	.L19:
 387 010e 00BF     		.align	2
 388              	.L18:
 389 0110 00000000 		.word	thread_init
 390 0114 00000000 		.word	.LC0
 391 0118 48000000 		.word	TCB_init
 392 011c 08000000 		.word	.LC1
 393 0120 00000000 		.word	shell
 394 0124 28000000 		.word	.LC2
 395 0128 00000000 		.word	TCB_shell
 396 012c 00000000 		.word	timer_task
 397 0130 30000000 		.word	.LC3
 398 0134 00000000 		.word	TCB_timer_task
 399 0138 00000000 		.word	three
ARM GAS  G:\Users\Jaxb\AppData\Local\Temp\ccK3fA7G.s 			page 12


 400 013c 3C000000 		.word	.LC4
 401              		.cfi_endproc
 402              	.LFE17:
 403              		.size	task_start, .-task_start
 404              		.global	__aeabi_uldivmod
 405              		.section	.rodata.str1.4
 406 0042 0000     		.align	2
 407              	.LC5:
 408 0044 73756363 		.ascii	"succeed to get count_max_num = %u\012\000"
 408      65656420 
 408      746F2067 
 408      65742063 
 408      6F756E74 
 409              		.text
 410              		.align	1
 411              		.syntax unified
 412              		.thumb
 413              		.thumb_func
 414              		.fpu softvfp
 415              		.type	count_init, %function
 416              	count_init:
 417              	.LFB18:
 122:../../source/src/kernel/OS_CORE/osinit.c **** 
 123:../../source/src/kernel/OS_CORE/osinit.c **** static void count_init(void *para)	
 124:../../source/src/kernel/OS_CORE/osinit.c **** {
 418              		.loc 2 124 0
 419              		.cfi_startproc
 420              		@ args = 0, pretend = 0, frame = 8
 421              		@ frame_needed = 1, uses_anonymous_args = 0
 422 0140 90B5     		push	{r4, r7, lr}
 423              	.LCFI23:
 424              		.cfi_def_cfa_offset 12
 425              		.cfi_offset 4, -12
 426              		.cfi_offset 7, -8
 427              		.cfi_offset 14, -4
 428 0142 83B0     		sub	sp, sp, #12
 429              	.LCFI24:
 430              		.cfi_def_cfa_offset 24
 431 0144 00AF     		add	r7, sp, #0
 432              	.LCFI25:
 433              		.cfi_def_cfa_register 7
 434 0146 7860     		str	r0, [r7, #4]
 125:../../source/src/kernel/OS_CORE/osinit.c **** 	(void)para;
 126:../../source/src/kernel/OS_CORE/osinit.c **** #if PRECISE_TIME_DELAY
 127:../../source/src/kernel/OS_CORE/osinit.c **** 	sleep(2); // for synchronization
 128:../../source/src/kernel/OS_CORE/osinit.c **** 	num_pre_tick = 0;
 129:../../source/src/kernel/OS_CORE/osinit.c **** 	sleep(PRECISE_DELAY_NUM);
 130:../../source/src/kernel/OS_CORE/osinit.c **** 	num_pre_tick /= PRECISE_DELAY_NUM;
 131:../../source/src/kernel/OS_CORE/osinit.c **** #if CONFIG_DEBUG_COUNT_INIT
 132:../../source/src/kernel/OS_CORE/osinit.c **** 	ka_printf("succeed to get num_pre_tick = %l \n",num_pre_tick);
 133:../../source/src/kernel/OS_CORE/osinit.c **** #endif
 134:../../source/src/kernel/OS_CORE/osinit.c **** 	task_delete(&TCB_precise_timing);
 135:../../source/src/kernel/OS_CORE/osinit.c **** #endif
 136:../../source/src/kernel/OS_CORE/osinit.c **** 	
 137:../../source/src/kernel/OS_CORE/osinit.c **** 	sleep(2); // for synchronization
 435              		.loc 2 137 0
 436 0148 0221     		movs	r1, #2
ARM GAS  G:\Users\Jaxb\AppData\Local\Temp\ccK3fA7G.s 			page 13


 437 014a 0220     		movs	r0, #2
 438 014c FFF7FEFF 		bl	sys_delay
 138:../../source/src/kernel/OS_CORE/osinit.c **** 	idle_num = 0;
 439              		.loc 2 138 0
 440 0150 1B4A     		ldr	r2, .L21
 441 0152 4FF00003 		mov	r3, #0
 442 0156 4FF00004 		mov	r4, #0
 443 015a C2E90034 		strd	r3, [r2]
 139:../../source/src/kernel/OS_CORE/osinit.c **** 	sleep(COUNT_DELAY_NUM);
 444              		.loc 2 139 0
 445 015e 0221     		movs	r1, #2
 446 0160 0A20     		movs	r0, #10
 447 0162 FFF7FEFF 		bl	sys_delay
 140:../../source/src/kernel/OS_CORE/osinit.c **** 	count_max_num = idle_num / COUNT_DELAY_NUM; // COUNT_DELAY_NUM;
 448              		.loc 2 140 0
 449 0166 164B     		ldr	r3, .L21
 450 0168 D3E90001 		ldrd	r0, [r3]
 451 016c 4FF00A02 		mov	r2, #10
 452 0170 4FF00003 		mov	r3, #0
 453 0174 FFF7FEFF 		bl	__aeabi_uldivmod
 454              	.LVL0:
 455 0178 0346     		mov	r3, r0
 456 017a 0C46     		mov	r4, r1
 457 017c 1A46     		mov	r2, r3
 458 017e 114B     		ldr	r3, .L21+4
 459 0180 1A60     		str	r2, [r3]
 141:../../source/src/kernel/OS_CORE/osinit.c **** 	idle_num = 0;
 460              		.loc 2 141 0
 461 0182 0F4A     		ldr	r2, .L21
 462 0184 4FF00003 		mov	r3, #0
 463 0188 4FF00004 		mov	r4, #0
 464 018c C2E90034 		strd	r3, [r2]
 142:../../source/src/kernel/OS_CORE/osinit.c **** 	
 143:../../source/src/kernel/OS_CORE/osinit.c **** #if CONFIG_DEBUG_COUNT_INIT
 144:../../source/src/kernel/OS_CORE/osinit.c **** 	ka_printf("succeed to get count_max_num = %u\n",count_max_num);
 465              		.loc 2 144 0
 466 0190 0C4B     		ldr	r3, .L21+4
 467 0192 1B68     		ldr	r3, [r3]
 468 0194 1946     		mov	r1, r3
 469 0196 0C48     		ldr	r0, .L21+8
 470 0198 FFF7FEFF 		bl	ka_printf
 145:../../source/src/kernel/OS_CORE/osinit.c **** #endif
 146:../../source/src/kernel/OS_CORE/osinit.c **** 
 147:../../source/src/kernel/OS_CORE/osinit.c **** 	SYS_ENTER_CRITICAL();
 471              		.loc 2 147 0
 472 019c 0B4B     		ldr	r3, .L21+12
 473 019e 1B68     		ldr	r3, [r3]
 474 01a0 0133     		adds	r3, r3, #1
 475 01a2 0A4A     		ldr	r2, .L21+12
 476 01a4 1360     		str	r3, [r2]
 148:../../source/src/kernel/OS_CORE/osinit.c **** 	task_start();
 477              		.loc 2 148 0
 478 01a6 FFF7FEFF 		bl	task_start
 149:../../source/src/kernel/OS_CORE/osinit.c **** 	SYS_EXIT_CRITICAL();
 479              		.loc 2 149 0
 480 01aa 084B     		ldr	r3, .L21+12
 481 01ac 1B68     		ldr	r3, [r3]
ARM GAS  G:\Users\Jaxb\AppData\Local\Temp\ccK3fA7G.s 			page 14


 482 01ae 013B     		subs	r3, r3, #1
 483 01b0 064A     		ldr	r2, .L21+12
 484 01b2 1360     		str	r3, [r2]
 150:../../source/src/kernel/OS_CORE/osinit.c **** 	schedule();
 485              		.loc 2 150 0
 486 01b4 FFF7FEFF 		bl	schedule
 151:../../source/src/kernel/OS_CORE/osinit.c **** }
 487              		.loc 2 151 0
 488 01b8 00BF     		nop
 489 01ba 0C37     		adds	r7, r7, #12
 490              	.LCFI26:
 491              		.cfi_def_cfa_offset 12
 492 01bc BD46     		mov	sp, r7
 493              	.LCFI27:
 494              		.cfi_def_cfa_register 13
 495              		@ sp needed
 496 01be 90BD     		pop	{r4, r7, pc}
 497              	.L22:
 498              		.align	2
 499              	.L21:
 500 01c0 00000000 		.word	idle_num
 501 01c4 00000000 		.word	count_max_num
 502 01c8 44000000 		.word	.LC5
 503 01cc 00000000 		.word	g_schedule_lock
 504              		.cfi_endproc
 505              	.LFE18:
 506              		.size	count_init, .-count_init
 507              		.align	1
 508              		.syntax unified
 509              		.thumb
 510              		.thumb_func
 511              		.fpu softvfp
 512              		.type	idle, %function
 513              	idle:
 514              	.LFB19:
 152:../../source/src/kernel/OS_CORE/osinit.c **** 
 153:../../source/src/kernel/OS_CORE/osinit.c **** static void  idle(void *para)
 154:../../source/src/kernel/OS_CORE/osinit.c **** {
 515              		.loc 2 154 0
 516              		.cfi_startproc
 517              		@ args = 0, pretend = 0, frame = 16
 518              		@ frame_needed = 1, uses_anonymous_args = 0
 519 01d0 90B5     		push	{r4, r7, lr}
 520              	.LCFI28:
 521              		.cfi_def_cfa_offset 12
 522              		.cfi_offset 4, -12
 523              		.cfi_offset 7, -8
 524              		.cfi_offset 14, -4
 525 01d2 85B0     		sub	sp, sp, #20
 526              	.LCFI29:
 527              		.cfi_def_cfa_offset 32
 528 01d4 00AF     		add	r7, sp, #0
 529              	.LCFI30:
 530              		.cfi_def_cfa_register 7
 531 01d6 7860     		str	r0, [r7, #4]
 155:../../source/src/kernel/OS_CORE/osinit.c **** 	CPU_SR_ALLOC();
 532              		.loc 2 155 0
ARM GAS  G:\Users\Jaxb\AppData\Local\Temp\ccK3fA7G.s 			page 15


 533 01d8 0023     		movs	r3, #0
 534 01da FB60     		str	r3, [r7, #12]
 535              	.L24:
 156:../../source/src/kernel/OS_CORE/osinit.c **** 	(void)para;
 157:../../source/src/kernel/OS_CORE/osinit.c **** 	while(1)
 158:../../source/src/kernel/OS_CORE/osinit.c **** 	{
 159:../../source/src/kernel/OS_CORE/osinit.c **** 		CPU_CRITICAL_ENTER();
 536              		.loc 2 159 0 discriminator 1
 537 01dc FFF7FEFF 		bl	CPU_SR_Save
 538 01e0 F860     		str	r0, [r7, #12]
 160:../../source/src/kernel/OS_CORE/osinit.c **** 		++idle_num;
 539              		.loc 2 160 0 discriminator 1
 540 01e2 064B     		ldr	r3, .L25
 541 01e4 D3E90012 		ldrd	r1, [r3]
 542 01e8 4B1C     		adds	r3, r1, #1
 543 01ea 42F10004 		adc	r4, r2, #0
 544 01ee 034A     		ldr	r2, .L25
 545 01f0 C2E90034 		strd	r3, [r2]
 161:../../source/src/kernel/OS_CORE/osinit.c **** 		CPU_CRITICAL_EXIT();
 546              		.loc 2 161 0 discriminator 1
 547 01f4 F868     		ldr	r0, [r7, #12]
 548 01f6 FFF7FEFF 		bl	CPU_SR_Restore
 159:../../source/src/kernel/OS_CORE/osinit.c **** 		++idle_num;
 549              		.loc 2 159 0 discriminator 1
 550 01fa EFE7     		b	.L24
 551              	.L26:
 552              		.align	2
 553              	.L25:
 554 01fc 00000000 		.word	idle_num
 555              		.cfi_endproc
 556              	.LFE19:
 557              		.size	idle, .-idle
 558              		.align	1
 559              		.syntax unified
 560              		.thumb
 561              		.thumb_func
 562              		.fpu softvfp
 563              		.type	set_inter_stack, %function
 564              	set_inter_stack:
 565              	.LFB20:
 162:../../source/src/kernel/OS_CORE/osinit.c **** 	}
 163:../../source/src/kernel/OS_CORE/osinit.c **** }
 164:../../source/src/kernel/OS_CORE/osinit.c **** 
 165:../../source/src/kernel/OS_CORE/osinit.c **** #if PRECISE_TIME_DELAY
 166:../../source/src/kernel/OS_CORE/osinit.c **** static void precise_timing(void *para)
 167:../../source/src/kernel/OS_CORE/osinit.c **** {
 168:../../source/src/kernel/OS_CORE/osinit.c **** 	(void)para;
 169:../../source/src/kernel/OS_CORE/osinit.c **** 	while(1)
 170:../../source/src/kernel/OS_CORE/osinit.c **** 	{
 171:../../source/src/kernel/OS_CORE/osinit.c **** 		++num_pre_tick;
 172:../../source/src/kernel/OS_CORE/osinit.c **** 	}
 173:../../source/src/kernel/OS_CORE/osinit.c **** }
 174:../../source/src/kernel/OS_CORE/osinit.c **** #endif
 175:../../source/src/kernel/OS_CORE/osinit.c **** 
 176:../../source/src/kernel/OS_CORE/osinit.c **** static void set_inter_stack(void)
 177:../../source/src/kernel/OS_CORE/osinit.c **** {
 566              		.loc 2 177 0
ARM GAS  G:\Users\Jaxb\AppData\Local\Temp\ccK3fA7G.s 			page 16


 567              		.cfi_startproc
 568              		@ args = 0, pretend = 0, frame = 8
 569              		@ frame_needed = 1, uses_anonymous_args = 0
 570 0200 80B5     		push	{r7, lr}
 571              	.LCFI31:
 572              		.cfi_def_cfa_offset 8
 573              		.cfi_offset 7, -8
 574              		.cfi_offset 14, -4
 575 0202 82B0     		sub	sp, sp, #8
 576              	.LCFI32:
 577              		.cfi_def_cfa_offset 16
 578 0204 00AF     		add	r7, sp, #0
 579              	.LCFI33:
 580              		.cfi_def_cfa_register 7
 178:../../source/src/kernel/OS_CORE/osinit.c **** 	unsigned int MSP_top = (unsigned int)alloc_power1_page(); // allocate one page for interrupt stack
 581              		.loc 2 178 0
 582 0206 FFF7FEFF 		bl	alloc_power1_page
 583 020a 0346     		mov	r3, r0
 584 020c 7B60     		str	r3, [r7, #4]
 179:../../source/src/kernel/OS_CORE/osinit.c **** 	MSP_top += PAGE_SIZE_BYTE;
 585              		.loc 2 179 0
 586 020e 7B68     		ldr	r3, [r7, #4]
 587 0210 03F58063 		add	r3, r3, #1024
 588 0214 7B60     		str	r3, [r7, #4]
 180:../../source/src/kernel/OS_CORE/osinit.c **** 	asm("MOVS R0, %0\t\n"
 589              		.loc 2 180 0
 590 0216 7B68     		ldr	r3, [r7, #4]
 591              		.syntax unified
 592              	@ 180 "../../source/src/kernel/OS_CORE/osinit.c" 1
 593 0218 1800     		MOVS R0, r3	
 594 021a 80F30888 	MSR MSP, R0	
 595              	
 596              	@ 0 "" 2
 181:../../source/src/kernel/OS_CORE/osinit.c **** 		"MSR MSP, R0\t\n"
 182:../../source/src/kernel/OS_CORE/osinit.c **** 		:
 183:../../source/src/kernel/OS_CORE/osinit.c **** 		:"r"(MSP_top)
 184:../../source/src/kernel/OS_CORE/osinit.c **** 		);
 185:../../source/src/kernel/OS_CORE/osinit.c **** }
 597              		.loc 2 185 0
 598              		.thumb
 599              		.syntax unified
 600 021e 00BF     		nop
 601 0220 0837     		adds	r7, r7, #8
 602              	.LCFI34:
 603              		.cfi_def_cfa_offset 8
 604 0222 BD46     		mov	sp, r7
 605              	.LCFI35:
 606              		.cfi_def_cfa_register 13
 607              		@ sp needed
 608 0224 80BD     		pop	{r7, pc}
 609              		.cfi_endproc
 610              	.LFE20:
 611              		.size	set_inter_stack, .-set_inter_stack
 612              		.section	.rodata.str1.4
 613 0067 00       		.align	2
 614              	.LC6:
 615 0068 636F756E 		.ascii	"count_init\000"
ARM GAS  G:\Users\Jaxb\AppData\Local\Temp\ccK3fA7G.s 			page 17


 615      745F696E 
 615      697400
 616 0073 00       		.align	2
 617              	.LC7:
 618 0074 69646C65 		.ascii	"idle\000"
 618      00
 619 0079 000000   		.align	2
 620              	.LC8:
 621 007c 2E2E2F2E 		.ascii	"../../source/src/kernel/OS_CORE/osinit.c\000"
 621      2E2F736F 
 621      75726365 
 621      2F737263 
 621      2F6B6572 
 622              		.section	.INIT.TEXT
 623              		.align	1
 624              		.global	os_start
 625              		.syntax unified
 626              		.thumb
 627              		.thumb_func
 628              		.fpu softvfp
 629              		.type	os_start, %function
 630              	os_start:
 631              	.LFB21:
 186:../../source/src/kernel/OS_CORE/osinit.c **** 
 187:../../source/src/kernel/OS_CORE/osinit.c **** void __INIT os_start(void)
 188:../../source/src/kernel/OS_CORE/osinit.c **** {
 632              		.loc 2 188 0
 633              		.cfi_startproc
 634              		@ args = 0, pretend = 0, frame = 0
 635              		@ frame_needed = 1, uses_anonymous_args = 0
 636 0048 80B5     		push	{r7, lr}
 637              	.LCFI36:
 638              		.cfi_def_cfa_offset 8
 639              		.cfi_offset 7, -8
 640              		.cfi_offset 14, -4
 641 004a 84B0     		sub	sp, sp, #16
 642              	.LCFI37:
 643              		.cfi_def_cfa_offset 24
 644 004c 04AF     		add	r7, sp, #16
 645              	.LCFI38:
 646              		.cfi_def_cfa 7, 8
 189:../../source/src/kernel/OS_CORE/osinit.c **** //===========init all module==================
 190:../../source/src/kernel/OS_CORE/osinit.c **** 	os_init();
 647              		.loc 2 190 0
 648 004e FFF7D7FF 		bl	os_init
 191:../../source/src/kernel/OS_CORE/osinit.c **** //============================================
 192:../../source/src/kernel/OS_CORE/osinit.c **** 
 193:../../source/src/kernel/OS_CORE/osinit.c **** //==============register initialization task===================
 194:../../source/src/kernel/OS_CORE/osinit.c **** 	if(0 != task_init_ready(&TCB_count_init,256,PRIO_MAX-2,5,"count_init",count_init,NULL))
 649              		.loc 2 194 0
 650 0052 0023     		movs	r3, #0
 651 0054 0293     		str	r3, [sp, #8]
 652 0056 1C4B     		ldr	r3, .L34
 653 0058 0193     		str	r3, [sp, #4]
 654 005a 1C4B     		ldr	r3, .L34+4
 655 005c 0093     		str	r3, [sp]
 656 005e 0523     		movs	r3, #5
ARM GAS  G:\Users\Jaxb\AppData\Local\Temp\ccK3fA7G.s 			page 18


 657 0060 3E22     		movs	r2, #62
 658 0062 4FF48071 		mov	r1, #256
 659 0066 1A48     		ldr	r0, .L34+8
 660 0068 FFF7FEFF 		bl	task_init_ready
 661 006c 0346     		mov	r3, r0
 662 006e 002B     		cmp	r3, #0
 663 0070 03D0     		beq	.L29
 195:../../source/src/kernel/OS_CORE/osinit.c **** 	{
 196:../../source/src/kernel/OS_CORE/osinit.c **** 		ka_printf("os_init_fail...stop booting...\n");
 664              		.loc 2 196 0
 665 0072 1848     		ldr	r0, .L34+12
 666 0074 FFF7FEFF 		bl	ka_printf
 667              	.L30:
 197:../../source/src/kernel/OS_CORE/osinit.c **** 		while(1);
 668              		.loc 2 197 0 discriminator 1
 669 0078 FEE7     		b	.L30
 670              	.L29:
 198:../../source/src/kernel/OS_CORE/osinit.c **** 	}
 199:../../source/src/kernel/OS_CORE/osinit.c **** 	if(0 != task_init_ready(&TCB_idle,128,PRIO_MAX-1,HZ,"idle",idle,NULL))
 671              		.loc 2 199 0
 672 007a 0023     		movs	r3, #0
 673 007c 0293     		str	r3, [sp, #8]
 674 007e 164B     		ldr	r3, .L34+16
 675 0080 0193     		str	r3, [sp, #4]
 676 0082 164B     		ldr	r3, .L34+20
 677 0084 0093     		str	r3, [sp]
 678 0086 6423     		movs	r3, #100
 679 0088 3F22     		movs	r2, #63
 680 008a 8021     		movs	r1, #128
 681 008c 1448     		ldr	r0, .L34+24
 682 008e FFF7FEFF 		bl	task_init_ready
 683 0092 0346     		mov	r3, r0
 684 0094 002B     		cmp	r3, #0
 685 0096 03D0     		beq	.L31
 200:../../source/src/kernel/OS_CORE/osinit.c **** 	{
 201:../../source/src/kernel/OS_CORE/osinit.c **** 		ka_printf("os_init_fail...stop booting...\n");
 686              		.loc 2 201 0
 687 0098 0E48     		ldr	r0, .L34+12
 688 009a FFF7FEFF 		bl	ka_printf
 689              	.L32:
 202:../../source/src/kernel/OS_CORE/osinit.c **** 		while(1);
 690              		.loc 2 202 0 discriminator 2
 691 009e FEE7     		b	.L32
 692              	.L31:
 203:../../source/src/kernel/OS_CORE/osinit.c **** 	}
 204:../../source/src/kernel/OS_CORE/osinit.c **** #if PRECISE_TIME_DELAY
 205:../../source/src/kernel/OS_CORE/osinit.c **** 	if(0 != task_init_ready(&TCB_precise_timing,128,PRIO_MAX-2,HZ,"precise timing",precise_timing,NULL
 206:../../source/src/kernel/OS_CORE/osinit.c **** 	{
 207:../../source/src/kernel/OS_CORE/osinit.c **** 		ka_printf("os_init_fail...stop booting...\n");
 208:../../source/src/kernel/OS_CORE/osinit.c **** 		while(1);
 209:../../source/src/kernel/OS_CORE/osinit.c **** 	}
 210:../../source/src/kernel/OS_CORE/osinit.c **** #endif
 211:../../source/src/kernel/OS_CORE/osinit.c **** //==================================================================
 212:../../source/src/kernel/OS_CORE/osinit.c **** 
 213:../../source/src/kernel/OS_CORE/osinit.c **** 	OSTCBCurPtr = get_highest_prio_ready_TCB();
 693              		.loc 2 213 0
 694 00a0 FFF7FEFF 		bl	get_highest_prio_ready_TCB
ARM GAS  G:\Users\Jaxb\AppData\Local\Temp\ccK3fA7G.s 			page 19


 695 00a4 0246     		mov	r2, r0
 696 00a6 0F4B     		ldr	r3, .L34+28
 697 00a8 1A60     		str	r2, [r3]
 214:../../source/src/kernel/OS_CORE/osinit.c **** 	OSTCBHighRdyPtr = OSTCBCurPtr;
 698              		.loc 2 214 0
 699 00aa 0E4B     		ldr	r3, .L34+28
 700 00ac 1B68     		ldr	r3, [r3]
 701 00ae 0E4A     		ldr	r2, .L34+32
 702 00b0 1360     		str	r3, [r2]
 215:../../source/src/kernel/OS_CORE/osinit.c **** 
 216:../../source/src/kernel/OS_CORE/osinit.c **** //===========system_tick====================
 217:../../source/src/kernel/OS_CORE/osinit.c **** 	__init_systick();
 703              		.loc 2 217 0
 704 00b2 FFF7FEFF 		bl	__init_systick
 218:../../source/src/kernel/OS_CORE/osinit.c **** //==========================================
 219:../../source/src/kernel/OS_CORE/osinit.c **** 	set_inter_stack();
 705              		.loc 2 219 0
 706 00b6 FFF7FEFF 		bl	set_inter_stack
 220:../../source/src/kernel/OS_CORE/osinit.c **** 	OSStartHighRdy();
 707              		.loc 2 220 0
 708 00ba FFF7FEFF 		bl	OSStartHighRdy
 221:../../source/src/kernel/OS_CORE/osinit.c **** 	ASSERT(0);
 709              		.loc 2 221 0
 710 00be DD21     		movs	r1, #221
 711 00c0 0A48     		ldr	r0, .L34+36
 712 00c2 FFF7FEFF 		bl	_ASSERT
 713              	.L33:
 222:../../source/src/kernel/OS_CORE/osinit.c **** 	while(1);//should no go here
 714              		.loc 2 222 0 discriminator 4
 715 00c6 FEE7     		b	.L33
 716              	.L35:
 717              		.align	2
 718              	.L34:
 719 00c8 00000000 		.word	count_init
 720 00cc 68000000 		.word	.LC6
 721 00d0 00000000 		.word	TCB_count_init
 722 00d4 08000000 		.word	.LC1
 723 00d8 00000000 		.word	idle
 724 00dc 74000000 		.word	.LC7
 725 00e0 90000000 		.word	TCB_idle
 726 00e4 00000000 		.word	OSTCBCurPtr
 727 00e8 00000000 		.word	OSTCBHighRdyPtr
 728 00ec 7C000000 		.word	.LC8
 729              		.cfi_endproc
 730              	.LFE21:
 731              		.size	os_start, .-os_start
 732              		.global	__aeabi_i2f
 733              		.text
 734              		.align	1
 735              		.syntax unified
 736              		.thumb
 737              		.thumb_func
 738              		.fpu softvfp
 739              		.type	FastLog2, %function
 740              	FastLog2:
 741              	.LFB22:
 223:../../source/src/kernel/OS_CORE/osinit.c **** }
ARM GAS  G:\Users\Jaxb\AppData\Local\Temp\ccK3fA7G.s 			page 20


 224:../../source/src/kernel/OS_CORE/osinit.c **** 
 225:../../source/src/kernel/OS_CORE/osinit.c **** static int __attribute__((optimize("O1"))) FastLog2(int x)
 226:../../source/src/kernel/OS_CORE/osinit.c **** {
 742              		.loc 2 226 0
 743              		.cfi_startproc
 744              		@ args = 0, pretend = 0, frame = 0
 745              		@ frame_needed = 0, uses_anonymous_args = 0
 746 0226 08B5     		push	{r3, lr}
 747              	.LCFI39:
 748              		.cfi_def_cfa_offset 8
 749              		.cfi_offset 3, -8
 750              		.cfi_offset 14, -4
 227:../../source/src/kernel/OS_CORE/osinit.c ****     float fx;
 228:../../source/src/kernel/OS_CORE/osinit.c ****     unsigned long ix, exp;
 229:../../source/src/kernel/OS_CORE/osinit.c ****  
 230:../../source/src/kernel/OS_CORE/osinit.c ****     fx = (float)x;
 751              		.loc 2 230 0
 752 0228 FFF7FEFF 		bl	__aeabi_i2f
 231:../../source/src/kernel/OS_CORE/osinit.c ****     ix = *(unsigned long*)&fx;
 232:../../source/src/kernel/OS_CORE/osinit.c ****     exp = (ix >> 23) & 0xFF;
 753              		.loc 2 232 0
 754 022c C0F3C750 		ubfx	r0, r0, #23, #8
 233:../../source/src/kernel/OS_CORE/osinit.c ****  
 234:../../source/src/kernel/OS_CORE/osinit.c ****     return exp - 127;
 235:../../source/src/kernel/OS_CORE/osinit.c **** }
 755              		.loc 2 235 0
 756 0230 7F38     		subs	r0, r0, #127
 757 0232 08BD     		pop	{r3, pc}
 758              		.cfi_endproc
 759              	.LFE22:
 760              		.size	FastLog2, .-FastLog2
 761              		.section	.rodata.str1.4
 762 00a5 000000   		.align	2
 763              	.LC9:
 764 00a8 6572726F 		.ascii	"error fun name : _case_free_buddy\012error para : p"
 764      72206675 
 764      6E206E61 
 764      6D65203A 
 764      205F6361 
 765 00d8 74720A00 		.ascii	"tr\012\000"
 766              		.align	2
 767              	.LC10:
 768 00dc 6572726F 		.ascii	"error level! FATAL ERROR!\012\000"
 768      72206C65 
 768      76656C21 
 768      20464154 
 768      414C2045 
 769 00f7 00       		.align	2
 770              	.LC11:
 771 00f8 70747220 		.ascii	"ptr fatal error!!!\012\000"
 771      66617461 
 771      6C206572 
 771      726F7221 
 771      21210A00 
 772              		.text
 773              		.align	1
 774              		.global	_case_slab_free_buddy
ARM GAS  G:\Users\Jaxb\AppData\Local\Temp\ccK3fA7G.s 			page 21


 775              		.syntax unified
 776              		.thumb
 777              		.thumb_func
 778              		.fpu softvfp
 779              		.type	_case_slab_free_buddy, %function
 780              	_case_slab_free_buddy:
 781              	.LFB23:
 236:../../source/src/kernel/OS_CORE/osinit.c **** 
 237:../../source/src/kernel/OS_CORE/osinit.c **** extern int in_buddy_range(void *ptr);
 238:../../source/src/kernel/OS_CORE/osinit.c **** extern int in_os_memory(void *ptr);
 239:../../source/src/kernel/OS_CORE/osinit.c **** void _case_slab_free_buddy(void *ptr,void *end_ptr)
 240:../../source/src/kernel/OS_CORE/osinit.c **** {
 782              		.loc 2 240 0
 783              		.cfi_startproc
 784              		@ args = 0, pretend = 0, frame = 16
 785              		@ frame_needed = 1, uses_anonymous_args = 0
 786 0234 80B5     		push	{r7, lr}
 787              	.LCFI40:
 788              		.cfi_def_cfa_offset 8
 789              		.cfi_offset 7, -8
 790              		.cfi_offset 14, -4
 791 0236 84B0     		sub	sp, sp, #16
 792              	.LCFI41:
 793              		.cfi_def_cfa_offset 24
 794 0238 00AF     		add	r7, sp, #0
 795              	.LCFI42:
 796              		.cfi_def_cfa_register 7
 797 023a 7860     		str	r0, [r7, #4]
 798 023c 3960     		str	r1, [r7]
 241:../../source/src/kernel/OS_CORE/osinit.c **** 	if(NULL == ptr)
 799              		.loc 2 241 0
 800 023e 7B68     		ldr	r3, [r7, #4]
 801 0240 002B     		cmp	r3, #0
 802 0242 00F08480 		beq	.L58
 242:../../source/src/kernel/OS_CORE/osinit.c **** 	{
 243:../../source/src/kernel/OS_CORE/osinit.c **** 		return ;
 244:../../source/src/kernel/OS_CORE/osinit.c **** 	}
 245:../../source/src/kernel/OS_CORE/osinit.c **** 	ASSERT(0 == in_os_memory(ptr));
 803              		.loc 2 245 0
 804 0246 7868     		ldr	r0, [r7, #4]
 805 0248 FFF7FEFF 		bl	in_os_memory
 806 024c 0346     		mov	r3, r0
 807 024e 002B     		cmp	r3, #0
 808 0250 03D0     		beq	.L41
 809              		.loc 2 245 0 is_stmt 0 discriminator 1
 810 0252 F521     		movs	r1, #245
 811 0254 4048     		ldr	r0, .L59
 812 0256 FFF7FEFF 		bl	_ASSERT
 813              	.L41:
 246:../../source/src/kernel/OS_CORE/osinit.c **** #if CONFIG_PARA_CHECK
 247:../../source/src/kernel/OS_CORE/osinit.c **** 	if(0 != in_os_memory(ptr))
 814              		.loc 2 247 0 is_stmt 1
 815 025a 7868     		ldr	r0, [r7, #4]
 816 025c FFF7FEFF 		bl	in_os_memory
 817 0260 0346     		mov	r3, r0
 818 0262 002B     		cmp	r3, #0
 819 0264 03D0     		beq	.L42
ARM GAS  G:\Users\Jaxb\AppData\Local\Temp\ccK3fA7G.s 			page 22


 248:../../source/src/kernel/OS_CORE/osinit.c **** 	{
 249:../../source/src/kernel/OS_CORE/osinit.c **** 		OS_ERROR_PARA_MESSAGE_DISPLAY(_case_free_buddy,ptr);
 820              		.loc 2 249 0
 821 0266 3D48     		ldr	r0, .L59+4
 822 0268 FFF7FEFF 		bl	ka_printf
 250:../../source/src/kernel/OS_CORE/osinit.c **** 		return ;
 823              		.loc 2 250 0
 824 026c 70E0     		b	.L38
 825              	.L42:
 251:../../source/src/kernel/OS_CORE/osinit.c **** 	}
 252:../../source/src/kernel/OS_CORE/osinit.c **** #endif
 253:../../source/src/kernel/OS_CORE/osinit.c **** 	unsigned int level = ((unsigned int)end_ptr - (unsigned int)ptr) / PAGE_SIZE_BYTE;
 826              		.loc 2 253 0
 827 026e 3A68     		ldr	r2, [r7]
 828 0270 7B68     		ldr	r3, [r7, #4]
 829 0272 D31A     		subs	r3, r2, r3
 830 0274 9B0A     		lsrs	r3, r3, #10
 831 0276 BB60     		str	r3, [r7, #8]
 254:../../source/src/kernel/OS_CORE/osinit.c **** 	ASSERT(0 == (level & (level-1)));
 832              		.loc 2 254 0
 833 0278 BB68     		ldr	r3, [r7, #8]
 834 027a 5A1E     		subs	r2, r3, #1
 835 027c BB68     		ldr	r3, [r7, #8]
 836 027e 1340     		ands	r3, r3, r2
 837 0280 002B     		cmp	r3, #0
 838 0282 03D0     		beq	.L43
 839              		.loc 2 254 0 is_stmt 0 discriminator 1
 840 0284 FE21     		movs	r1, #254
 841 0286 3448     		ldr	r0, .L59
 842 0288 FFF7FEFF 		bl	_ASSERT
 843              	.L43:
 255:../../source/src/kernel/OS_CORE/osinit.c **** 	level = FastLog2(level) + 1;
 844              		.loc 2 255 0 is_stmt 1
 845 028c BB68     		ldr	r3, [r7, #8]
 846 028e 1846     		mov	r0, r3
 847 0290 FFF7C9FF 		bl	FastLog2
 848 0294 0346     		mov	r3, r0
 849 0296 0133     		adds	r3, r3, #1
 850 0298 BB60     		str	r3, [r7, #8]
 256:../../source/src/kernel/OS_CORE/osinit.c **** 	struct buddy *buddy_ptr = (struct buddy *)get_os_buddy_ptr_head();
 851              		.loc 2 256 0
 852 029a FFF7FEFF 		bl	get_os_buddy_ptr_head
 853 029e F860     		str	r0, [r7, #12]
 257:../../source/src/kernel/OS_CORE/osinit.c **** 	ASSERT(NULL != buddy_ptr);
 854              		.loc 2 257 0
 855 02a0 FB68     		ldr	r3, [r7, #12]
 856 02a2 002B     		cmp	r3, #0
 857 02a4 4BD1     		bne	.L45
 858              		.loc 2 257 0 is_stmt 0 discriminator 1
 859 02a6 40F20111 		movw	r1, #257
 860 02aa 2B48     		ldr	r0, .L59
 861 02ac FFF7FEFF 		bl	_ASSERT
 258:../../source/src/kernel/OS_CORE/osinit.c **** 	while(NULL != buddy_ptr)
 862              		.loc 2 258 0 is_stmt 1 discriminator 1
 863 02b0 45E0     		b	.L45
 864              	.L57:
 259:../../source/src/kernel/OS_CORE/osinit.c **** 	{
ARM GAS  G:\Users\Jaxb\AppData\Local\Temp\ccK3fA7G.s 			page 23


 260:../../source/src/kernel/OS_CORE/osinit.c **** 		if(0 == in_buddy_range(ptr))
 865              		.loc 2 260 0
 866 02b2 7868     		ldr	r0, [r7, #4]
 867 02b4 FFF7FEFF 		bl	in_buddy_range
 868 02b8 0346     		mov	r3, r0
 869 02ba 002B     		cmp	r3, #0
 870 02bc 3AD1     		bne	.L46
 261:../../source/src/kernel/OS_CORE/osinit.c **** 		{
 262:../../source/src/kernel/OS_CORE/osinit.c **** 			switch(level)
 871              		.loc 2 262 0
 872 02be BB68     		ldr	r3, [r7, #8]
 873 02c0 013B     		subs	r3, r3, #1
 874 02c2 062B     		cmp	r3, #6
 875 02c4 2CD8     		bhi	.L47
 876 02c6 01A2     		adr	r2, .L49
 877 02c8 52F823F0 		ldr	pc, [r2, r3, lsl #2]
 878              		.p2align 2
 879              	.L49:
 880 02cc E9020000 		.word	.L48+1
 881 02d0 F1020000 		.word	.L50+1
 882 02d4 F9020000 		.word	.L51+1
 883 02d8 01030000 		.word	.L52+1
 884 02dc 09030000 		.word	.L53+1
 885 02e0 11030000 		.word	.L54+1
 886 02e4 19030000 		.word	.L55+1
 887              		.p2align 1
 888              	.L48:
 263:../../source/src/kernel/OS_CORE/osinit.c **** 			{
 264:../../source/src/kernel/OS_CORE/osinit.c **** 				case 1 :
 265:../../source/src/kernel/OS_CORE/osinit.c **** 					return_power1_page(ptr);
 889              		.loc 2 265 0
 890 02e8 7868     		ldr	r0, [r7, #4]
 891 02ea FFF7FEFF 		bl	return_power1_page
 266:../../source/src/kernel/OS_CORE/osinit.c **** 					break;
 892              		.loc 2 266 0
 893 02ee 20E0     		b	.L56
 894              	.L50:
 267:../../source/src/kernel/OS_CORE/osinit.c **** 				case 2 :
 268:../../source/src/kernel/OS_CORE/osinit.c **** 					return_power2_page(ptr);
 895              		.loc 2 268 0
 896 02f0 7868     		ldr	r0, [r7, #4]
 897 02f2 FFF7FEFF 		bl	return_power2_page
 269:../../source/src/kernel/OS_CORE/osinit.c **** 					break;
 898              		.loc 2 269 0
 899 02f6 1CE0     		b	.L56
 900              	.L51:
 270:../../source/src/kernel/OS_CORE/osinit.c **** 				case 3 :
 271:../../source/src/kernel/OS_CORE/osinit.c **** 					return_power3_page(ptr);
 901              		.loc 2 271 0
 902 02f8 7868     		ldr	r0, [r7, #4]
 903 02fa FFF7FEFF 		bl	return_power3_page
 272:../../source/src/kernel/OS_CORE/osinit.c **** 					break;
 904              		.loc 2 272 0
 905 02fe 18E0     		b	.L56
 906              	.L52:
 273:../../source/src/kernel/OS_CORE/osinit.c **** 				case 4 :
 274:../../source/src/kernel/OS_CORE/osinit.c **** 					return_power4_page(ptr);
ARM GAS  G:\Users\Jaxb\AppData\Local\Temp\ccK3fA7G.s 			page 24


 907              		.loc 2 274 0
 908 0300 7868     		ldr	r0, [r7, #4]
 909 0302 FFF7FEFF 		bl	return_power4_page
 275:../../source/src/kernel/OS_CORE/osinit.c **** 					break;
 910              		.loc 2 275 0
 911 0306 14E0     		b	.L56
 912              	.L53:
 276:../../source/src/kernel/OS_CORE/osinit.c **** 				case 5 :
 277:../../source/src/kernel/OS_CORE/osinit.c **** 					return_power5_page(ptr);
 913              		.loc 2 277 0
 914 0308 7868     		ldr	r0, [r7, #4]
 915 030a FFF7FEFF 		bl	return_power5_page
 278:../../source/src/kernel/OS_CORE/osinit.c **** 					break;
 916              		.loc 2 278 0
 917 030e 10E0     		b	.L56
 918              	.L54:
 279:../../source/src/kernel/OS_CORE/osinit.c **** 				case 6 :
 280:../../source/src/kernel/OS_CORE/osinit.c **** 					return_power6_page(ptr);
 919              		.loc 2 280 0
 920 0310 7868     		ldr	r0, [r7, #4]
 921 0312 FFF7FEFF 		bl	return_power6_page
 281:../../source/src/kernel/OS_CORE/osinit.c **** 					break;
 922              		.loc 2 281 0
 923 0316 0CE0     		b	.L56
 924              	.L55:
 282:../../source/src/kernel/OS_CORE/osinit.c **** 				case 7 :
 283:../../source/src/kernel/OS_CORE/osinit.c **** 					return_power7_page(ptr);
 925              		.loc 2 283 0
 926 0318 7868     		ldr	r0, [r7, #4]
 927 031a FFF7FEFF 		bl	return_power7_page
 284:../../source/src/kernel/OS_CORE/osinit.c **** 					break;
 928              		.loc 2 284 0
 929 031e 08E0     		b	.L56
 930              	.L47:
 285:../../source/src/kernel/OS_CORE/osinit.c **** 				default :
 286:../../source/src/kernel/OS_CORE/osinit.c **** 					ka_printf("error level! FATAL ERROR!\n");
 931              		.loc 2 286 0
 932 0320 0F48     		ldr	r0, .L59+8
 933 0322 FFF7FEFF 		bl	ka_printf
 287:../../source/src/kernel/OS_CORE/osinit.c **** 					ASSERT(0);
 934              		.loc 2 287 0
 935 0326 40F21F11 		movw	r1, #287
 936 032a 0B48     		ldr	r0, .L59
 937 032c FFF7FEFF 		bl	_ASSERT
 288:../../source/src/kernel/OS_CORE/osinit.c **** 			}
 289:../../source/src/kernel/OS_CORE/osinit.c **** 			return ;
 938              		.loc 2 289 0
 939 0330 0EE0     		b	.L38
 940              	.L56:
 941              		.loc 2 289 0 is_stmt 0 discriminator 3
 942 0332 0DE0     		b	.L38
 943              	.L46:
 290:../../source/src/kernel/OS_CORE/osinit.c **** 		}
 291:../../source/src/kernel/OS_CORE/osinit.c **** 		else
 292:../../source/src/kernel/OS_CORE/osinit.c **** 		{
 293:../../source/src/kernel/OS_CORE/osinit.c **** 			buddy_ptr = (struct buddy *)get_next_buddy_ptr_head(buddy_ptr);
 944              		.loc 2 293 0 is_stmt 1
ARM GAS  G:\Users\Jaxb\AppData\Local\Temp\ccK3fA7G.s 			page 25


 945 0334 F868     		ldr	r0, [r7, #12]
 946 0336 FFF7FEFF 		bl	get_next_buddy_ptr_head
 947 033a F860     		str	r0, [r7, #12]
 294:../../source/src/kernel/OS_CORE/osinit.c **** 			continue;
 948              		.loc 2 294 0
 949 033c 00BF     		nop
 950              	.L45:
 258:../../source/src/kernel/OS_CORE/osinit.c **** 	{
 951              		.loc 2 258 0
 952 033e FB68     		ldr	r3, [r7, #12]
 953 0340 002B     		cmp	r3, #0
 954 0342 B6D1     		bne	.L57
 295:../../source/src/kernel/OS_CORE/osinit.c **** 		}
 296:../../source/src/kernel/OS_CORE/osinit.c **** 	}
 297:../../source/src/kernel/OS_CORE/osinit.c **** 	ka_printf("ptr fatal error!!!\n");
 955              		.loc 2 297 0
 956 0344 0748     		ldr	r0, .L59+12
 957 0346 FFF7FEFF 		bl	ka_printf
 298:../../source/src/kernel/OS_CORE/osinit.c **** 	return ;
 958              		.loc 2 298 0
 959 034a 00BF     		nop
 960 034c 00E0     		b	.L38
 961              	.L58:
 243:../../source/src/kernel/OS_CORE/osinit.c **** 	}
 962              		.loc 2 243 0
 963 034e 00BF     		nop
 964              	.L38:
 299:../../source/src/kernel/OS_CORE/osinit.c **** }
 965              		.loc 2 299 0
 966 0350 1037     		adds	r7, r7, #16
 967              	.LCFI43:
 968              		.cfi_def_cfa_offset 8
 969 0352 BD46     		mov	sp, r7
 970              	.LCFI44:
 971              		.cfi_def_cfa_register 13
 972              		@ sp needed
 973 0354 80BD     		pop	{r7, pc}
 974              	.L60:
 975 0356 00BF     		.align	2
 976              	.L59:
 977 0358 7C000000 		.word	.LC8
 978 035c A8000000 		.word	.LC9
 979 0360 DC000000 		.word	.LC10
 980 0364 F8000000 		.word	.LC11
 981              		.cfi_endproc
 982              	.LFE23:
 983              		.size	_case_slab_free_buddy, .-_case_slab_free_buddy
 984              		.align	1
 985              		.syntax unified
 986              		.thumb
 987              		.thumb_func
 988              		.fpu softvfp
 989              		.type	thread_init, %function
 990              	thread_init:
 991              	.LFB24:
 300:../../source/src/kernel/OS_CORE/osinit.c **** 
 301:../../source/src/kernel/OS_CORE/osinit.c **** static void thread_init(void *para)	
ARM GAS  G:\Users\Jaxb\AppData\Local\Temp\ccK3fA7G.s 			page 26


 302:../../source/src/kernel/OS_CORE/osinit.c **** {
 992              		.loc 2 302 0
 993              		.cfi_startproc
 994              		@ args = 0, pretend = 0, frame = 48
 995              		@ frame_needed = 1, uses_anonymous_args = 0
 996 0368 80B5     		push	{r7, lr}
 997              	.LCFI45:
 998              		.cfi_def_cfa_offset 8
 999              		.cfi_offset 7, -8
 1000              		.cfi_offset 14, -4
 1001 036a 8CB0     		sub	sp, sp, #48
 1002              	.LCFI46:
 1003              		.cfi_def_cfa_offset 56
 1004 036c 00AF     		add	r7, sp, #0
 1005              	.LCFI47:
 1006              		.cfi_def_cfa_register 7
 1007 036e 7860     		str	r0, [r7, #4]
 1008              	.L69:
 303:../../source/src/kernel/OS_CORE/osinit.c **** 	(void)para;
 304:../../source/src/kernel/OS_CORE/osinit.c **** 	struct list_head *pos;
 305:../../source/src/kernel/OS_CORE/osinit.c **** 	IL *IL_ptr;
 306:../../source/src/kernel/OS_CORE/osinit.c **** 	struct kmem_cache *kmem_cache_ptr;
 307:../../source/src/kernel/OS_CORE/osinit.c **** 	while(1)
 308:../../source/src/kernel/OS_CORE/osinit.c **** 	{
 309:../../source/src/kernel/OS_CORE/osinit.c **** 		sleep(THREAD_INIT_PERIOD * HZ); //period
 1009              		.loc 2 309 0
 1010 0370 0221     		movs	r1, #2
 1011 0372 40F6B830 		movw	r0, #3000
 1012 0376 FFF7FEFF 		bl	sys_delay
 310:../../source/src/kernel/OS_CORE/osinit.c **** 		//free the memory 
 311:../../source/src/kernel/OS_CORE/osinit.c **** 		list_for_each(pos,cache_chain_head_ptr)
 1013              		.loc 2 311 0
 1014 037a 294B     		ldr	r3, .L70
 1015 037c 1B68     		ldr	r3, [r3]
 1016 037e 1B68     		ldr	r3, [r3]
 1017 0380 FB62     		str	r3, [r7, #44]
 1018 0382 47E0     		b	.L62
 1019              	.L68:
 1020              	.LBB2:
 312:../../source/src/kernel/OS_CORE/osinit.c **** 		{
 313:../../source/src/kernel/OS_CORE/osinit.c **** 			IL_ptr = list_entry(pos,IL,insert);
 1021              		.loc 2 313 0
 1022 0384 FB6A     		ldr	r3, [r7, #44]
 1023 0386 3B62     		str	r3, [r7, #32]
 1024 0388 3B6A     		ldr	r3, [r7, #32]
 1025              	.LBE2:
 1026 038a FB61     		str	r3, [r7, #28]
 1027              	.LBB3:
 314:../../source/src/kernel/OS_CORE/osinit.c **** 			kmem_cache_ptr = list_entry(IL_ptr,struct kmem_cache,kmem_cache_insert_chain);
 1028              		.loc 2 314 0
 1029 038c FB69     		ldr	r3, [r7, #28]
 1030 038e BB61     		str	r3, [r7, #24]
 1031 0390 BB69     		ldr	r3, [r7, #24]
 1032              	.LBE3:
 1033 0392 7B61     		str	r3, [r7, #20]
 315:../../source/src/kernel/OS_CORE/osinit.c **** 			if(!list_empty(&kmem_cache_ptr->slabs_empty))
 1034              		.loc 2 315 0
ARM GAS  G:\Users\Jaxb\AppData\Local\Temp\ccK3fA7G.s 			page 27


 1035 0394 7B69     		ldr	r3, [r7, #20]
 1036 0396 1C33     		adds	r3, r3, #28
 1037 0398 1846     		mov	r0, r3
 1038 039a FFF751FE 		bl	list_empty
 1039 039e 0346     		mov	r3, r0
 1040 03a0 002B     		cmp	r3, #0
 1041 03a2 34D1     		bne	.L63
 1042              	.LBB4:
 316:../../source/src/kernel/OS_CORE/osinit.c **** 			{
 317:../../source/src/kernel/OS_CORE/osinit.c **** 				struct list_head *pos1,*pos2;
 318:../../source/src/kernel/OS_CORE/osinit.c **** 				list_for_each_safe(pos1,pos2,&kmem_cache_ptr->slabs_empty)
 1043              		.loc 2 318 0
 1044 03a4 7B69     		ldr	r3, [r7, #20]
 1045 03a6 DB69     		ldr	r3, [r3, #28]
 1046 03a8 BB62     		str	r3, [r7, #40]
 1047 03aa BB6A     		ldr	r3, [r7, #40]
 1048 03ac 1B68     		ldr	r3, [r3]
 1049 03ae 7B62     		str	r3, [r7, #36]
 1050 03b0 28E0     		b	.L64
 1051              	.L67:
 1052              	.LBB5:
 1053              	.LBB6:
 319:../../source/src/kernel/OS_CORE/osinit.c **** 				{
 320:../../source/src/kernel/OS_CORE/osinit.c **** 					struct slab *slab_ptr = list_entry(pos1,struct slab,slab_chain);
 1054              		.loc 2 320 0
 1055 03b2 BB6A     		ldr	r3, [r7, #40]
 1056 03b4 3B61     		str	r3, [r7, #16]
 1057 03b6 3B69     		ldr	r3, [r7, #16]
 1058 03b8 143B     		subs	r3, r3, #20
 1059              	.LBE6:
 1060 03ba FB60     		str	r3, [r7, #12]
 321:../../source/src/kernel/OS_CORE/osinit.c **** 					ASSERT(slab_ptr->current_block_num == slab_ptr->full_block_num);
 1061              		.loc 2 321 0
 1062 03bc FB68     		ldr	r3, [r7, #12]
 1063 03be 9A68     		ldr	r2, [r3, #8]
 1064 03c0 FB68     		ldr	r3, [r7, #12]
 1065 03c2 DB68     		ldr	r3, [r3, #12]
 1066 03c4 9A42     		cmp	r2, r3
 1067 03c6 04D0     		beq	.L65
 1068              		.loc 2 321 0 is_stmt 0 discriminator 1
 1069 03c8 40F24111 		movw	r1, #321
 1070 03cc 1548     		ldr	r0, .L70+4
 1071 03ce FFF7FEFF 		bl	_ASSERT
 1072              	.L65:
 322:../../source/src/kernel/OS_CORE/osinit.c **** 					ASSERT(slab_ptr->block_size == kmem_cache_ptr->kmem_cache_insert_chain.prio);
 1073              		.loc 2 322 0 is_stmt 1
 1074 03d2 FB68     		ldr	r3, [r7, #12]
 1075 03d4 1A69     		ldr	r2, [r3, #16]
 1076 03d6 7B69     		ldr	r3, [r7, #20]
 1077 03d8 9B68     		ldr	r3, [r3, #8]
 1078 03da 9A42     		cmp	r2, r3
 1079 03dc 04D0     		beq	.L66
 1080              		.loc 2 322 0 is_stmt 0 discriminator 1
 1081 03de 4FF4A171 		mov	r1, #322
 1082 03e2 1048     		ldr	r0, .L70+4
 1083 03e4 FFF7FEFF 		bl	_ASSERT
 1084              	.L66:
ARM GAS  G:\Users\Jaxb\AppData\Local\Temp\ccK3fA7G.s 			page 28


 323:../../source/src/kernel/OS_CORE/osinit.c **** 					list_del(pos1);
 1085              		.loc 2 323 0 is_stmt 1 discriminator 2
 1086 03e8 B86A     		ldr	r0, [r7, #40]
 1087 03ea FFF719FE 		bl	list_del
 324:../../source/src/kernel/OS_CORE/osinit.c **** 					_case_slab_free_buddy(slab_ptr,slab_ptr->end_ptr);
 1088              		.loc 2 324 0 discriminator 2
 1089 03ee FB68     		ldr	r3, [r7, #12]
 1090 03f0 5B68     		ldr	r3, [r3, #4]
 1091 03f2 1946     		mov	r1, r3
 1092 03f4 F868     		ldr	r0, [r7, #12]
 1093 03f6 FFF7FEFF 		bl	_case_slab_free_buddy
 1094              	.LBE5:
 318:../../source/src/kernel/OS_CORE/osinit.c **** 				{
 1095              		.loc 2 318 0 discriminator 2
 1096 03fa 7B6A     		ldr	r3, [r7, #36]
 1097 03fc BB62     		str	r3, [r7, #40]
 1098 03fe BB6A     		ldr	r3, [r7, #40]
 1099 0400 1B68     		ldr	r3, [r3]
 1100 0402 7B62     		str	r3, [r7, #36]
 1101              	.L64:
 318:../../source/src/kernel/OS_CORE/osinit.c **** 				{
 1102              		.loc 2 318 0 is_stmt 0 discriminator 1
 1103 0404 7B69     		ldr	r3, [r7, #20]
 1104 0406 1C33     		adds	r3, r3, #28
 1105 0408 BA6A     		ldr	r2, [r7, #40]
 1106 040a 9A42     		cmp	r2, r3
 1107 040c D1D1     		bne	.L67
 1108              	.L63:
 1109              	.LBE4:
 311:../../source/src/kernel/OS_CORE/osinit.c **** 		{
 1110              		.loc 2 311 0 is_stmt 1 discriminator 2
 1111 040e FB6A     		ldr	r3, [r7, #44]
 1112 0410 1B68     		ldr	r3, [r3]
 1113 0412 FB62     		str	r3, [r7, #44]
 1114              	.L62:
 311:../../source/src/kernel/OS_CORE/osinit.c **** 		{
 1115              		.loc 2 311 0 is_stmt 0 discriminator 1
 1116 0414 024B     		ldr	r3, .L70
 1117 0416 1B68     		ldr	r3, [r3]
 1118 0418 FA6A     		ldr	r2, [r7, #44]
 1119 041a 9A42     		cmp	r2, r3
 1120 041c B2D1     		bne	.L68
 309:../../source/src/kernel/OS_CORE/osinit.c **** 		//free the memory 
 1121              		.loc 2 309 0 is_stmt 1
 1122 041e A7E7     		b	.L69
 1123              	.L71:
 1124              		.align	2
 1125              	.L70:
 1126 0420 00000000 		.word	cache_chain_head_ptr
 1127 0424 7C000000 		.word	.LC8
 1128              		.cfi_endproc
 1129              	.LFE24:
 1130              		.size	thread_init, .-thread_init
 1131              		.align	1
 1132              		.global	recycle_memory
 1133              		.syntax unified
 1134              		.thumb
ARM GAS  G:\Users\Jaxb\AppData\Local\Temp\ccK3fA7G.s 			page 29


 1135              		.thumb_func
 1136              		.fpu softvfp
 1137              		.type	recycle_memory, %function
 1138              	recycle_memory:
 1139              	.LFB25:
 325:../../source/src/kernel/OS_CORE/osinit.c **** 				}
 326:../../source/src/kernel/OS_CORE/osinit.c **** 			}
 327:../../source/src/kernel/OS_CORE/osinit.c **** 		}
 328:../../source/src/kernel/OS_CORE/osinit.c **** 	}
 329:../../source/src/kernel/OS_CORE/osinit.c **** }
 330:../../source/src/kernel/OS_CORE/osinit.c **** 
 331:../../source/src/kernel/OS_CORE/osinit.c **** void recycle_memory(void)
 332:../../source/src/kernel/OS_CORE/osinit.c **** {
 1140              		.loc 2 332 0
 1141              		.cfi_startproc
 1142              		@ args = 0, pretend = 0, frame = 0
 1143              		@ frame_needed = 1, uses_anonymous_args = 0
 1144 0428 80B5     		push	{r7, lr}
 1145              	.LCFI48:
 1146              		.cfi_def_cfa_offset 8
 1147              		.cfi_offset 7, -8
 1148              		.cfi_offset 14, -4
 1149 042a 00AF     		add	r7, sp, #0
 1150              	.LCFI49:
 1151              		.cfi_def_cfa_register 7
 333:../../source/src/kernel/OS_CORE/osinit.c **** 	remove_from_delay_heap(&TCB_init);
 1152              		.loc 2 333 0
 1153 042c 0248     		ldr	r0, .L73
 1154 042e FFF7FEFF 		bl	remove_from_delay_heap
 334:../../source/src/kernel/OS_CORE/osinit.c **** }
 1155              		.loc 2 334 0
 1156 0432 00BF     		nop
 1157 0434 80BD     		pop	{r7, pc}
 1158              	.L74:
 1159 0436 00BF     		.align	2
 1160              	.L73:
 1161 0438 48000000 		.word	TCB_init
 1162              		.cfi_endproc
 1163              	.LFE25:
 1164              		.size	recycle_memory, .-recycle_memory
 1165              	.Letext0:
 1166              		.file 3 "../../source/include/os_cpu/kakaosstdint.h"
 1167              		.file 4 "../../source/include/os_core/task_state.h"
 1168              		.file 5 "../../source/include/os_core/TCB.h"
 1169              		.file 6 "../../source/include/os_cpu/os_cpu_stm32.h"
 1170              		.file 7 "../../source/include/os_lib/buddy.h"
 1171              		.file 8 "../../source/include/os_lib/insert_sort.h"
 1172              		.file 9 "../../source/include/os_lib/slab.h"
 1173              		.section	.debug_info,"",%progbits
 1174              	.Ldebug_info0:
 1175 0000 B4080000 		.4byte	0x8b4
 1176 0004 0200     		.2byte	0x2
 1177 0006 00000000 		.4byte	.Ldebug_abbrev0
 1178 000a 04       		.byte	0x4
 1179 000b 01       		.uleb128 0x1
 1180 000c 45040000 		.4byte	.LASF120
 1181 0010 0C       		.byte	0xc
ARM GAS  G:\Users\Jaxb\AppData\Local\Temp\ccK3fA7G.s 			page 30


 1182 0011 D6030000 		.4byte	.LASF121
 1183 0015 3F060000 		.4byte	.LASF122
 1184 0019 00000000 		.4byte	.Ldebug_ranges0+0
 1185 001d 00000000 		.4byte	0
 1186 0021 00000000 		.4byte	0
 1187 0025 00000000 		.4byte	.Ldebug_line0
 1188 0029 02       		.uleb128 0x2
 1189 002a 04       		.byte	0x4
 1190 002b 03       		.uleb128 0x3
 1191 002c 04       		.byte	0x4
 1192 002d 07       		.byte	0x7
 1193 002e FE010000 		.4byte	.LASF0
 1194 0032 04       		.uleb128 0x4
 1195 0033 04       		.byte	0x4
 1196 0034 05       		.byte	0x5
 1197 0035 696E7400 		.ascii	"int\000"
 1198 0039 05       		.uleb128 0x5
 1199 003a 32000000 		.4byte	0x32
 1200 003e 03       		.uleb128 0x3
 1201 003f 01       		.byte	0x1
 1202 0040 06       		.byte	0x6
 1203 0041 F1000000 		.4byte	.LASF1
 1204 0045 03       		.uleb128 0x3
 1205 0046 02       		.byte	0x2
 1206 0047 05       		.byte	0x5
 1207 0048 13050000 		.4byte	.LASF2
 1208 004c 03       		.uleb128 0x3
 1209 004d 08       		.byte	0x8
 1210 004e 05       		.byte	0x5
 1211 004f E3000000 		.4byte	.LASF3
 1212 0053 03       		.uleb128 0x3
 1213 0054 01       		.byte	0x1
 1214 0055 08       		.byte	0x8
 1215 0056 FD040000 		.4byte	.LASF4
 1216 005a 06       		.uleb128 0x6
 1217 005b 90010000 		.4byte	.LASF6
 1218 005f 03       		.byte	0x3
 1219 0060 0B       		.byte	0xb
 1220 0061 65000000 		.4byte	0x65
 1221 0065 03       		.uleb128 0x3
 1222 0066 02       		.byte	0x2
 1223 0067 07       		.byte	0x7
 1224 0068 89020000 		.4byte	.LASF5
 1225 006c 06       		.uleb128 0x6
 1226 006d 64030000 		.4byte	.LASF7
 1227 0071 03       		.byte	0x3
 1228 0072 0C       		.byte	0xc
 1229 0073 2B000000 		.4byte	0x2b
 1230 0077 06       		.uleb128 0x6
 1231 0078 A4060000 		.4byte	.LASF8
 1232 007c 03       		.byte	0x3
 1233 007d 0D       		.byte	0xd
 1234 007e 82000000 		.4byte	0x82
 1235 0082 03       		.uleb128 0x3
 1236 0083 08       		.byte	0x8
 1237 0084 07       		.byte	0x7
 1238 0085 7E000000 		.4byte	.LASF9
ARM GAS  G:\Users\Jaxb\AppData\Local\Temp\ccK3fA7G.s 			page 31


 1239 0089 06       		.uleb128 0x6
 1240 008a 2D000000 		.4byte	.LASF10
 1241 008e 03       		.byte	0x3
 1242 008f 23       		.byte	0x23
 1243 0090 2B000000 		.4byte	0x2b
 1244 0094 07       		.uleb128 0x7
 1245 0095 A5050000 		.4byte	.LASF26
 1246 0099 08       		.byte	0x8
 1247 009a 01       		.byte	0x1
 1248 009b 04       		.byte	0x4
 1249 009c BD000000 		.4byte	0xbd
 1250 00a0 08       		.uleb128 0x8
 1251 00a1 C4000000 		.4byte	.LASF11
 1252 00a5 01       		.byte	0x1
 1253 00a6 05       		.byte	0x5
 1254 00a7 C2000000 		.4byte	0xc2
 1255 00ab 02       		.byte	0x2
 1256 00ac 23       		.byte	0x23
 1257 00ad 00       		.uleb128 0
 1258 00ae 08       		.uleb128 0x8
 1259 00af 4E000000 		.4byte	.LASF12
 1260 00b3 01       		.byte	0x1
 1261 00b4 05       		.byte	0x5
 1262 00b5 C2000000 		.4byte	0xc2
 1263 00b9 02       		.byte	0x2
 1264 00ba 23       		.byte	0x23
 1265 00bb 04       		.uleb128 0x4
 1266 00bc 00       		.byte	0
 1267 00bd 09       		.uleb128 0x9
 1268 00be 94000000 		.4byte	0x94
 1269 00c2 0A       		.uleb128 0xa
 1270 00c3 04       		.byte	0x4
 1271 00c4 94000000 		.4byte	0x94
 1272 00c8 09       		.uleb128 0x9
 1273 00c9 C2000000 		.4byte	0xc2
 1274 00cd 0B       		.uleb128 0xb
 1275 00ce EE020000 		.4byte	.LASF123
 1276 00d2 07       		.byte	0x7
 1277 00d3 01       		.byte	0x1
 1278 00d4 53000000 		.4byte	0x53
 1279 00d8 04       		.byte	0x4
 1280 00d9 04       		.byte	0x4
 1281 00da 1B010000 		.4byte	0x11b
 1282 00de 0C       		.uleb128 0xc
 1283 00df 58030000 		.4byte	.LASF13
 1284 00e3 01       		.byte	0x1
 1285 00e4 0C       		.uleb128 0xc
 1286 00e5 2C020000 		.4byte	.LASF14
 1287 00e9 02       		.byte	0x2
 1288 00ea 0C       		.uleb128 0xc
 1289 00eb 1B060000 		.4byte	.LASF15
 1290 00ef 03       		.byte	0x3
 1291 00f0 0C       		.uleb128 0xc
 1292 00f1 B1030000 		.4byte	.LASF16
 1293 00f5 04       		.byte	0x4
 1294 00f6 0C       		.uleb128 0xc
 1295 00f7 10070000 		.4byte	.LASF17
ARM GAS  G:\Users\Jaxb\AppData\Local\Temp\ccK3fA7G.s 			page 32


 1296 00fb 05       		.byte	0x5
 1297 00fc 0C       		.uleb128 0xc
 1298 00fd 6D060000 		.4byte	.LASF18
 1299 0101 06       		.byte	0x6
 1300 0102 0C       		.uleb128 0xc
 1301 0103 A1010000 		.4byte	.LASF19
 1302 0107 07       		.byte	0x7
 1303 0108 0C       		.uleb128 0xc
 1304 0109 D7010000 		.4byte	.LASF20
 1305 010d 08       		.byte	0x8
 1306 010e 0C       		.uleb128 0xc
 1307 010f 4E050000 		.4byte	.LASF21
 1308 0113 09       		.byte	0x9
 1309 0114 0C       		.uleb128 0xc
 1310 0115 0F040000 		.4byte	.LASF22
 1311 0119 0A       		.byte	0xa
 1312 011a 00       		.byte	0
 1313 011b 06       		.uleb128 0x6
 1314 011c B9000000 		.4byte	.LASF23
 1315 0120 04       		.byte	0x4
 1316 0121 0F       		.byte	0xf
 1317 0122 CD000000 		.4byte	0xcd
 1318 0126 06       		.uleb128 0x6
 1319 0127 D7050000 		.4byte	.LASF24
 1320 012b 05       		.byte	0x5
 1321 012c 09       		.byte	0x9
 1322 012d 2B000000 		.4byte	0x2b
 1323 0131 06       		.uleb128 0x6
 1324 0132 1E000000 		.4byte	.LASF25
 1325 0136 05       		.byte	0x5
 1326 0137 0B       		.byte	0xb
 1327 0138 2B000000 		.4byte	0x2b
 1328 013c 0D       		.uleb128 0xd
 1329 013d EB040000 		.4byte	.LASF85
 1330 0141 05       		.byte	0x5
 1331 0142 12       		.byte	0x12
 1332 0143 39000000 		.4byte	0x39
 1333 0147 01       		.byte	0x1
 1334 0148 01       		.byte	0x1
 1335 0149 07       		.uleb128 0x7
 1336 014a C9000000 		.4byte	.LASF27
 1337 014e 48       		.byte	0x48
 1338 014f 05       		.byte	0x5
 1339 0150 2F       		.byte	0x2f
 1340 0151 1A020000 		.4byte	0x21a
 1341 0155 08       		.uleb128 0x8
 1342 0156 F8060000 		.4byte	.LASF28
 1343 015a 05       		.byte	0x5
 1344 015b 30       		.byte	0x30
 1345 015c 1A020000 		.4byte	0x21a
 1346 0160 02       		.byte	0x2
 1347 0161 23       		.byte	0x23
 1348 0162 00       		.uleb128 0
 1349 0163 08       		.uleb128 0x8
 1350 0164 8E060000 		.4byte	.LASF29
 1351 0168 05       		.byte	0x5
 1352 0169 31       		.byte	0x31
ARM GAS  G:\Users\Jaxb\AppData\Local\Temp\ccK3fA7G.s 			page 33


 1353 016a 2B000000 		.4byte	0x2b
 1354 016e 02       		.byte	0x2
 1355 016f 23       		.byte	0x23
 1356 0170 04       		.uleb128 0x4
 1357 0171 08       		.uleb128 0x8
 1358 0172 FF030000 		.4byte	.LASF30
 1359 0176 05       		.byte	0x5
 1360 0177 32       		.byte	0x32
 1361 0178 1A020000 		.4byte	0x21a
 1362 017c 02       		.byte	0x2
 1363 017d 23       		.byte	0x23
 1364 017e 08       		.uleb128 0x8
 1365 017f 08       		.uleb128 0x8
 1366 0180 AC030000 		.4byte	.LASF31
 1367 0184 05       		.byte	0x5
 1368 0185 33       		.byte	0x33
 1369 0186 31010000 		.4byte	0x131
 1370 018a 02       		.byte	0x2
 1371 018b 23       		.byte	0x23
 1372 018c 0C       		.uleb128 0xc
 1373 018d 08       		.uleb128 0x8
 1374 018e FD000000 		.4byte	.LASF32
 1375 0192 05       		.byte	0x5
 1376 0193 34       		.byte	0x34
 1377 0194 31010000 		.4byte	0x131
 1378 0198 02       		.byte	0x2
 1379 0199 23       		.byte	0x23
 1380 019a 10       		.uleb128 0x10
 1381 019b 08       		.uleb128 0x8
 1382 019c E2050000 		.4byte	.LASF33
 1383 01a0 05       		.byte	0x5
 1384 01a1 35       		.byte	0x35
 1385 01a2 1B010000 		.4byte	0x11b
 1386 01a6 02       		.byte	0x2
 1387 01a7 23       		.byte	0x23
 1388 01a8 14       		.uleb128 0x14
 1389 01a9 08       		.uleb128 0x8
 1390 01aa 27070000 		.4byte	.LASF34
 1391 01ae 05       		.byte	0x5
 1392 01af 36       		.byte	0x36
 1393 01b0 32000000 		.4byte	0x32
 1394 01b4 02       		.byte	0x2
 1395 01b5 23       		.byte	0x23
 1396 01b6 18       		.uleb128 0x18
 1397 01b7 08       		.uleb128 0x8
 1398 01b8 64010000 		.4byte	.LASF35
 1399 01bc 05       		.byte	0x5
 1400 01bd 37       		.byte	0x37
 1401 01be 94000000 		.4byte	0x94
 1402 01c2 02       		.byte	0x2
 1403 01c3 23       		.byte	0x23
 1404 01c4 1C       		.uleb128 0x1c
 1405 01c5 08       		.uleb128 0x8
 1406 01c6 11000000 		.4byte	.LASF36
 1407 01ca 05       		.byte	0x5
 1408 01cb 38       		.byte	0x38
 1409 01cc 94000000 		.4byte	0x94
ARM GAS  G:\Users\Jaxb\AppData\Local\Temp\ccK3fA7G.s 			page 34


 1410 01d0 02       		.byte	0x2
 1411 01d1 23       		.byte	0x23
 1412 01d2 24       		.uleb128 0x24
 1413 01d3 08       		.uleb128 0x8
 1414 01d4 7E020000 		.4byte	.LASF37
 1415 01d8 05       		.byte	0x5
 1416 01d9 39       		.byte	0x39
 1417 01da 20020000 		.4byte	0x220
 1418 01de 02       		.byte	0x2
 1419 01df 23       		.byte	0x23
 1420 01e0 2C       		.uleb128 0x2c
 1421 01e1 08       		.uleb128 0x8
 1422 01e2 88050000 		.4byte	.LASF38
 1423 01e6 05       		.byte	0x5
 1424 01e7 3A       		.byte	0x3a
 1425 01e8 2B000000 		.4byte	0x2b
 1426 01ec 02       		.byte	0x2
 1427 01ed 23       		.byte	0x23
 1428 01ee 30       		.uleb128 0x30
 1429 01ef 08       		.uleb128 0x8
 1430 01f0 98030000 		.4byte	.LASF39
 1431 01f4 05       		.byte	0x5
 1432 01f5 3B       		.byte	0x3b
 1433 01f6 2B000000 		.4byte	0x2b
 1434 01fa 02       		.byte	0x2
 1435 01fb 23       		.byte	0x23
 1436 01fc 34       		.uleb128 0x34
 1437 01fd 08       		.uleb128 0x8
 1438 01fe 53000000 		.4byte	.LASF40
 1439 0202 05       		.byte	0x5
 1440 0203 3C       		.byte	0x3c
 1441 0204 6C000000 		.4byte	0x6c
 1442 0208 02       		.byte	0x2
 1443 0209 23       		.byte	0x23
 1444 020a 38       		.uleb128 0x38
 1445 020b 08       		.uleb128 0x8
 1446 020c C1050000 		.4byte	.LASF41
 1447 0210 05       		.byte	0x5
 1448 0211 3D       		.byte	0x3d
 1449 0212 77000000 		.4byte	0x77
 1450 0216 02       		.byte	0x2
 1451 0217 23       		.byte	0x23
 1452 0218 40       		.uleb128 0x40
 1453 0219 00       		.byte	0
 1454 021a 0A       		.uleb128 0xa
 1455 021b 04       		.byte	0x4
 1456 021c 26010000 		.4byte	0x126
 1457 0220 0A       		.uleb128 0xa
 1458 0221 04       		.byte	0x4
 1459 0222 26020000 		.4byte	0x226
 1460 0226 03       		.uleb128 0x3
 1461 0227 01       		.byte	0x1
 1462 0228 08       		.byte	0x8
 1463 0229 83050000 		.4byte	.LASF42
 1464 022d 0E       		.uleb128 0xe
 1465 022e 54434200 		.ascii	"TCB\000"
 1466 0232 05       		.byte	0x5
ARM GAS  G:\Users\Jaxb\AppData\Local\Temp\ccK3fA7G.s 			page 35


 1467 0233 3E       		.byte	0x3e
 1468 0234 49010000 		.4byte	0x149
 1469 0238 06       		.uleb128 0x6
 1470 0239 34000000 		.4byte	.LASF43
 1471 023d 06       		.byte	0x6
 1472 023e 04       		.byte	0x4
 1473 023f 2B000000 		.4byte	0x2b
 1474 0243 06       		.uleb128 0x6
 1475 0244 E7020000 		.4byte	.LASF44
 1476 0248 06       		.byte	0x6
 1477 0249 06       		.byte	0x6
 1478 024a 38020000 		.4byte	0x238
 1479 024e 0F       		.uleb128 0xf
 1480 024f 0004     		.2byte	0x400
 1481 0251 07       		.byte	0x7
 1482 0252 10       		.byte	0x10
 1483 0253 64020000 		.4byte	0x264
 1484 0257 10       		.uleb128 0x10
 1485 0258 6100     		.ascii	"a\000"
 1486 025a 07       		.byte	0x7
 1487 025b 11       		.byte	0x11
 1488 025c 64020000 		.4byte	0x264
 1489 0260 02       		.byte	0x2
 1490 0261 23       		.byte	0x23
 1491 0262 00       		.uleb128 0
 1492 0263 00       		.byte	0
 1493 0264 11       		.uleb128 0x11
 1494 0265 32000000 		.4byte	0x32
 1495 0269 74020000 		.4byte	0x274
 1496 026d 12       		.uleb128 0x12
 1497 026e 2B000000 		.4byte	0x2b
 1498 0272 FF       		.byte	0xff
 1499 0273 00       		.byte	0
 1500 0274 06       		.uleb128 0x6
 1501 0275 95000000 		.4byte	.LASF45
 1502 0279 07       		.byte	0x7
 1503 027a 12       		.byte	0x12
 1504 027b 4E020000 		.4byte	0x24e
 1505 027f 06       		.uleb128 0x6
 1506 0280 9C020000 		.4byte	.LASF46
 1507 0284 07       		.byte	0x7
 1508 0285 14       		.byte	0x14
 1509 0286 6C000000 		.4byte	0x6c
 1510 028a 06       		.uleb128 0x6
 1511 028b 70020000 		.4byte	.LASF47
 1512 028f 07       		.byte	0x7
 1513 0290 15       		.byte	0x15
 1514 0291 5A000000 		.4byte	0x5a
 1515 0295 06       		.uleb128 0x6
 1516 0296 54020000 		.4byte	.LASF48
 1517 029a 07       		.byte	0x7
 1518 029b 16       		.byte	0x16
 1519 029c 74020000 		.4byte	0x274
 1520 02a0 07       		.uleb128 0x7
 1521 02a1 39050000 		.4byte	.LASF49
 1522 02a5 14       		.byte	0x14
 1523 02a6 07       		.byte	0x7
ARM GAS  G:\Users\Jaxb\AppData\Local\Temp\ccK3fA7G.s 			page 36


 1524 02a7 19       		.byte	0x19
 1525 02a8 F3020000 		.4byte	0x2f3
 1526 02ac 08       		.uleb128 0x8
 1527 02ad 6F000000 		.4byte	.LASF50
 1528 02b1 07       		.byte	0x7
 1529 02b2 1A       		.byte	0x1a
 1530 02b3 2B000000 		.4byte	0x2b
 1531 02b7 02       		.byte	0x2
 1532 02b8 23       		.byte	0x23
 1533 02b9 00       		.uleb128 0
 1534 02ba 08       		.uleb128 0x8
 1535 02bb 12060000 		.4byte	.LASF51
 1536 02bf 07       		.byte	0x7
 1537 02c0 1B       		.byte	0x1b
 1538 02c1 2B000000 		.4byte	0x2b
 1539 02c5 02       		.byte	0x2
 1540 02c6 23       		.byte	0x23
 1541 02c7 04       		.uleb128 0x4
 1542 02c8 08       		.uleb128 0x8
 1543 02c9 97010000 		.4byte	.LASF52
 1544 02cd 07       		.byte	0x7
 1545 02ce 1C       		.byte	0x1c
 1546 02cf 2B000000 		.4byte	0x2b
 1547 02d3 02       		.byte	0x2
 1548 02d4 23       		.byte	0x23
 1549 02d5 08       		.uleb128 0x8
 1550 02d6 08       		.uleb128 0x8
 1551 02d7 AC030000 		.4byte	.LASF31
 1552 02db 07       		.byte	0x7
 1553 02dc 1D       		.byte	0x1d
 1554 02dd 2B000000 		.4byte	0x2b
 1555 02e1 02       		.byte	0x2
 1556 02e2 23       		.byte	0x23
 1557 02e3 0C       		.uleb128 0xc
 1558 02e4 08       		.uleb128 0x8
 1559 02e5 30040000 		.4byte	.LASF53
 1560 02e9 07       		.byte	0x7
 1561 02ea 1E       		.byte	0x1e
 1562 02eb 2B000000 		.4byte	0x2b
 1563 02ef 02       		.byte	0x2
 1564 02f0 23       		.byte	0x23
 1565 02f1 10       		.uleb128 0x10
 1566 02f2 00       		.byte	0
 1567 02f3 07       		.uleb128 0x7
 1568 02f4 27050000 		.4byte	.LASF54
 1569 02f8 04       		.byte	0x4
 1570 02f9 07       		.byte	0x7
 1571 02fa 21       		.byte	0x21
 1572 02fb 1C030000 		.4byte	0x31c
 1573 02ff 10       		.uleb128 0x10
 1574 0300 6E756D00 		.ascii	"num\000"
 1575 0304 07       		.byte	0x7
 1576 0305 22       		.byte	0x22
 1577 0306 8A020000 		.4byte	0x28a
 1578 030a 02       		.byte	0x2
 1579 030b 23       		.byte	0x23
 1580 030c 00       		.uleb128 0
ARM GAS  G:\Users\Jaxb\AppData\Local\Temp\ccK3fA7G.s 			page 37


 1581 030d 08       		.uleb128 0x8
 1582 030e C4000000 		.4byte	.LASF11
 1583 0312 07       		.byte	0x7
 1584 0313 23       		.byte	0x23
 1585 0314 8A020000 		.4byte	0x28a
 1586 0318 02       		.byte	0x2
 1587 0319 23       		.byte	0x23
 1588 031a 02       		.uleb128 0x2
 1589 031b 00       		.byte	0
 1590 031c 07       		.uleb128 0x7
 1591 031d 09030000 		.4byte	.LASF55
 1592 0321 3C       		.byte	0x3c
 1593 0322 07       		.byte	0x7
 1594 0323 39       		.byte	0x39
 1595 0324 C3030000 		.4byte	0x3c3
 1596 0328 08       		.uleb128 0x8
 1597 0329 22050000 		.4byte	.LASF56
 1598 032d 07       		.byte	0x7
 1599 032e 3A       		.byte	0x3a
 1600 032f C3030000 		.4byte	0x3c3
 1601 0333 02       		.byte	0x2
 1602 0334 23       		.byte	0x23
 1603 0335 00       		.uleb128 0
 1604 0336 08       		.uleb128 0x8
 1605 0337 2A010000 		.4byte	.LASF57
 1606 033b 07       		.byte	0x7
 1607 033c 3B       		.byte	0x3b
 1608 033d C9030000 		.4byte	0x3c9
 1609 0341 02       		.byte	0x2
 1610 0342 23       		.byte	0x23
 1611 0343 04       		.uleb128 0x4
 1612 0344 08       		.uleb128 0x8
 1613 0345 A8000000 		.4byte	.LASF58
 1614 0349 07       		.byte	0x7
 1615 034a 3C       		.byte	0x3c
 1616 034b 8A020000 		.4byte	0x28a
 1617 034f 02       		.byte	0x2
 1618 0350 23       		.byte	0x23
 1619 0351 08       		.uleb128 0x8
 1620 0352 08       		.uleb128 0x8
 1621 0353 1A010000 		.4byte	.LASF59
 1622 0357 07       		.byte	0x7
 1623 0358 3D       		.byte	0x3d
 1624 0359 CF030000 		.4byte	0x3cf
 1625 035d 02       		.byte	0x2
 1626 035e 23       		.byte	0x23
 1627 035f 0C       		.uleb128 0xc
 1628 0360 08       		.uleb128 0x8
 1629 0361 84010000 		.4byte	.LASF60
 1630 0365 07       		.byte	0x7
 1631 0366 3E       		.byte	0x3e
 1632 0367 CF030000 		.4byte	0x3cf
 1633 036b 02       		.byte	0x2
 1634 036c 23       		.byte	0x23
 1635 036d 10       		.uleb128 0x10
 1636 036e 08       		.uleb128 0x8
 1637 036f F9020000 		.4byte	.LASF61
ARM GAS  G:\Users\Jaxb\AppData\Local\Temp\ccK3fA7G.s 			page 38


 1638 0373 07       		.byte	0x7
 1639 0374 3F       		.byte	0x3f
 1640 0375 D5030000 		.4byte	0x3d5
 1641 0379 02       		.byte	0x2
 1642 037a 23       		.byte	0x23
 1643 037b 14       		.uleb128 0x14
 1644 037c 08       		.uleb128 0x8
 1645 037d FE060000 		.4byte	.LASF62
 1646 0381 07       		.byte	0x7
 1647 0382 40       		.byte	0x40
 1648 0383 2B000000 		.4byte	0x2b
 1649 0387 02       		.byte	0x2
 1650 0388 23       		.byte	0x23
 1651 0389 18       		.uleb128 0x18
 1652 038a 08       		.uleb128 0x8
 1653 038b 00000000 		.4byte	.LASF63
 1654 038f 07       		.byte	0x7
 1655 0390 41       		.byte	0x41
 1656 0391 2B000000 		.4byte	0x2b
 1657 0395 02       		.byte	0x2
 1658 0396 23       		.byte	0x23
 1659 0397 1C       		.uleb128 0x1c
 1660 0398 08       		.uleb128 0x8
 1661 0399 1D050000 		.4byte	.LASF64
 1662 039d 07       		.byte	0x7
 1663 039e 42       		.byte	0x42
 1664 039f A0020000 		.4byte	0x2a0
 1665 03a3 02       		.byte	0x2
 1666 03a4 23       		.byte	0x23
 1667 03a5 20       		.uleb128 0x20
 1668 03a6 08       		.uleb128 0x8
 1669 03a7 C4000000 		.4byte	.LASF11
 1670 03ab 07       		.byte	0x7
 1671 03ac 43       		.byte	0x43
 1672 03ad DB030000 		.4byte	0x3db
 1673 03b1 02       		.byte	0x2
 1674 03b2 23       		.byte	0x23
 1675 03b3 34       		.uleb128 0x34
 1676 03b4 08       		.uleb128 0x8
 1677 03b5 16020000 		.4byte	.LASF65
 1678 03b9 07       		.byte	0x7
 1679 03ba 44       		.byte	0x44
 1680 03bb E1030000 		.4byte	0x3e1
 1681 03bf 02       		.byte	0x2
 1682 03c0 23       		.byte	0x23
 1683 03c1 38       		.uleb128 0x38
 1684 03c2 00       		.byte	0
 1685 03c3 0A       		.uleb128 0xa
 1686 03c4 04       		.byte	0x4
 1687 03c5 7F020000 		.4byte	0x27f
 1688 03c9 0A       		.uleb128 0xa
 1689 03ca 04       		.byte	0x4
 1690 03cb F3020000 		.4byte	0x2f3
 1691 03cf 0A       		.uleb128 0xa
 1692 03d0 04       		.byte	0x4
 1693 03d1 8A020000 		.4byte	0x28a
 1694 03d5 0A       		.uleb128 0xa
ARM GAS  G:\Users\Jaxb\AppData\Local\Temp\ccK3fA7G.s 			page 39


 1695 03d6 04       		.byte	0x4
 1696 03d7 5A000000 		.4byte	0x5a
 1697 03db 0A       		.uleb128 0xa
 1698 03dc 04       		.byte	0x4
 1699 03dd 1C030000 		.4byte	0x31c
 1700 03e1 0A       		.uleb128 0xa
 1701 03e2 04       		.byte	0x4
 1702 03e3 95020000 		.4byte	0x295
 1703 03e7 0A       		.uleb128 0xa
 1704 03e8 04       		.byte	0x4
 1705 03e9 2D020000 		.4byte	0x22d
 1706 03ed 06       		.uleb128 0x6
 1707 03ee F9050000 		.4byte	.LASF66
 1708 03f2 08       		.byte	0x8
 1709 03f3 07       		.byte	0x7
 1710 03f4 6C000000 		.4byte	0x6c
 1711 03f8 07       		.uleb128 0x7
 1712 03f9 78010000 		.4byte	.LASF67
 1713 03fd 0C       		.byte	0xc
 1714 03fe 08       		.byte	0x8
 1715 03ff 09       		.byte	0x9
 1716 0400 21040000 		.4byte	0x421
 1717 0404 08       		.uleb128 0x8
 1718 0405 F7010000 		.4byte	.LASF68
 1719 0409 08       		.byte	0x8
 1720 040a 0A       		.byte	0xa
 1721 040b 94000000 		.4byte	0x94
 1722 040f 02       		.byte	0x2
 1723 0410 23       		.byte	0x23
 1724 0411 00       		.uleb128 0
 1725 0412 08       		.uleb128 0x8
 1726 0413 AC030000 		.4byte	.LASF31
 1727 0417 08       		.byte	0x8
 1728 0418 0B       		.byte	0xb
 1729 0419 ED030000 		.4byte	0x3ed
 1730 041d 02       		.byte	0x2
 1731 041e 23       		.byte	0x23
 1732 041f 08       		.uleb128 0x8
 1733 0420 00       		.byte	0
 1734 0421 0E       		.uleb128 0xe
 1735 0422 494C00   		.ascii	"IL\000"
 1736 0425 08       		.byte	0x8
 1737 0426 0C       		.byte	0xc
 1738 0427 F8030000 		.4byte	0x3f8
 1739 042b 09       		.uleb128 0x9
 1740 042c 21040000 		.4byte	0x421
 1741 0430 07       		.uleb128 0x7
 1742 0431 99060000 		.4byte	.LASF69
 1743 0435 24       		.byte	0x24
 1744 0436 09       		.byte	0x9
 1745 0437 06       		.byte	0x6
 1746 0438 75040000 		.4byte	0x475
 1747 043c 08       		.uleb128 0x8
 1748 043d 6B030000 		.4byte	.LASF70
 1749 0441 09       		.byte	0x9
 1750 0442 08       		.byte	0x8
 1751 0443 21040000 		.4byte	0x421
ARM GAS  G:\Users\Jaxb\AppData\Local\Temp\ccK3fA7G.s 			page 40


 1752 0447 02       		.byte	0x2
 1753 0448 23       		.byte	0x23
 1754 0449 00       		.uleb128 0
 1755 044a 08       		.uleb128 0x8
 1756 044b 4D010000 		.4byte	.LASF71
 1757 044f 09       		.byte	0x9
 1758 0450 09       		.byte	0x9
 1759 0451 94000000 		.4byte	0x94
 1760 0455 02       		.byte	0x2
 1761 0456 23       		.byte	0x23
 1762 0457 0C       		.uleb128 0xc
 1763 0458 08       		.uleb128 0x8
 1764 0459 3F010000 		.4byte	.LASF72
 1765 045d 09       		.byte	0x9
 1766 045e 0A       		.byte	0xa
 1767 045f 94000000 		.4byte	0x94
 1768 0463 02       		.byte	0x2
 1769 0464 23       		.byte	0x23
 1770 0465 14       		.uleb128 0x14
 1771 0466 08       		.uleb128 0x8
 1772 0467 58010000 		.4byte	.LASF73
 1773 046b 09       		.byte	0x9
 1774 046c 0B       		.byte	0xb
 1775 046d 94000000 		.4byte	0x94
 1776 0471 02       		.byte	0x2
 1777 0472 23       		.byte	0x23
 1778 0473 1C       		.uleb128 0x1c
 1779 0474 00       		.byte	0
 1780 0475 07       		.uleb128 0x7
 1781 0476 93030000 		.4byte	.LASF74
 1782 047a 24       		.byte	0x24
 1783 047b 09       		.byte	0x9
 1784 047c 12       		.byte	0x12
 1785 047d E4040000 		.4byte	0x4e4
 1786 0481 08       		.uleb128 0x8
 1787 0482 C7020000 		.4byte	.LASF75
 1788 0486 09       		.byte	0x9
 1789 0487 14       		.byte	0x14
 1790 0488 29000000 		.4byte	0x29
 1791 048c 02       		.byte	0x2
 1792 048d 23       		.byte	0x23
 1793 048e 00       		.uleb128 0
 1794 048f 08       		.uleb128 0x8
 1795 0490 0F030000 		.4byte	.LASF76
 1796 0494 09       		.byte	0x9
 1797 0495 15       		.byte	0x15
 1798 0496 29000000 		.4byte	0x29
 1799 049a 02       		.byte	0x2
 1800 049b 23       		.byte	0x23
 1801 049c 04       		.uleb128 0x4
 1802 049d 08       		.uleb128 0x8
 1803 049e DD060000 		.4byte	.LASF77
 1804 04a2 09       		.byte	0x9
 1805 04a3 16       		.byte	0x16
 1806 04a4 2B000000 		.4byte	0x2b
 1807 04a8 02       		.byte	0x2
 1808 04a9 23       		.byte	0x23
ARM GAS  G:\Users\Jaxb\AppData\Local\Temp\ccK3fA7G.s 			page 41


 1809 04aa 08       		.uleb128 0x8
 1810 04ab 08       		.uleb128 0x8
 1811 04ac 3F000000 		.4byte	.LASF78
 1812 04b0 09       		.byte	0x9
 1813 04b1 17       		.byte	0x17
 1814 04b2 2B000000 		.4byte	0x2b
 1815 04b6 02       		.byte	0x2
 1816 04b7 23       		.byte	0x23
 1817 04b8 0C       		.uleb128 0xc
 1818 04b9 08       		.uleb128 0x8
 1819 04ba 0B020000 		.4byte	.LASF79
 1820 04be 09       		.byte	0x9
 1821 04bf 18       		.byte	0x18
 1822 04c0 2B000000 		.4byte	0x2b
 1823 04c4 02       		.byte	0x2
 1824 04c5 23       		.byte	0x23
 1825 04c6 10       		.uleb128 0x10
 1826 04c7 08       		.uleb128 0x8
 1827 04c8 17030000 		.4byte	.LASF80
 1828 04cc 09       		.byte	0x9
 1829 04cd 19       		.byte	0x19
 1830 04ce 94000000 		.4byte	0x94
 1831 04d2 02       		.byte	0x2
 1832 04d3 23       		.byte	0x23
 1833 04d4 14       		.uleb128 0x14
 1834 04d5 08       		.uleb128 0x8
 1835 04d6 BA060000 		.4byte	.LASF81
 1836 04da 09       		.byte	0x9
 1837 04db 1A       		.byte	0x1a
 1838 04dc 94000000 		.4byte	0x94
 1839 04e0 02       		.byte	0x2
 1840 04e1 23       		.byte	0x23
 1841 04e2 1C       		.uleb128 0x1c
 1842 04e3 00       		.byte	0
 1843 04e4 13       		.uleb128 0x13
 1844 04e5 44050000 		.4byte	.LASF82
 1845 04e9 02       		.byte	0x2
 1846 04ea 14       		.byte	0x14
 1847 04eb 2D020000 		.4byte	0x22d
 1848 04ef 05       		.byte	0x5
 1849 04f0 03       		.byte	0x3
 1850 04f1 00000000 		.4byte	TCB_shell
 1851 04f5 13       		.uleb128 0x13
 1852 04f6 9C050000 		.4byte	.LASF83
 1853 04fa 02       		.byte	0x2
 1854 04fb 16       		.byte	0x16
 1855 04fc 2D020000 		.4byte	0x22d
 1856 0500 05       		.byte	0x5
 1857 0501 03       		.byte	0x3
 1858 0502 48000000 		.4byte	TCB_init
 1859 0506 13       		.uleb128 0x13
 1860 0507 B8020000 		.4byte	.LASF84
 1861 050b 02       		.byte	0x2
 1862 050c 17       		.byte	0x17
 1863 050d 2D020000 		.4byte	0x22d
 1864 0511 05       		.byte	0x5
 1865 0512 03       		.byte	0x3
ARM GAS  G:\Users\Jaxb\AppData\Local\Temp\ccK3fA7G.s 			page 42


 1866 0513 90000000 		.4byte	TCB_idle
 1867 0517 14       		.uleb128 0x14
 1868 0518 CE060000 		.4byte	.LASF86
 1869 051c 02       		.byte	0x2
 1870 051d 18       		.byte	0x18
 1871 051e 2D020000 		.4byte	0x22d
 1872 0522 01       		.byte	0x1
 1873 0523 05       		.byte	0x5
 1874 0524 03       		.byte	0x3
 1875 0525 00000000 		.4byte	TCB_count_init
 1876 0529 14       		.uleb128 0x14
 1877 052a 30060000 		.4byte	.LASF87
 1878 052e 02       		.byte	0x2
 1879 052f 1B       		.byte	0x1b
 1880 0530 2D020000 		.4byte	0x22d
 1881 0534 01       		.byte	0x1
 1882 0535 05       		.byte	0x5
 1883 0536 03       		.byte	0x3
 1884 0537 00000000 		.4byte	TCB_timer_task
 1885 053b 14       		.uleb128 0x14
 1886 053c AF020000 		.4byte	.LASF88
 1887 0540 02       		.byte	0x2
 1888 0541 1E       		.byte	0x1e
 1889 0542 77000000 		.4byte	0x77
 1890 0546 01       		.byte	0x1
 1891 0547 05       		.byte	0x5
 1892 0548 03       		.byte	0x3
 1893 0549 00000000 		.4byte	idle_num
 1894 054d 14       		.uleb128 0x14
 1895 054e C8030000 		.4byte	.LASF89
 1896 0552 02       		.byte	0x2
 1897 0553 1F       		.byte	0x1f
 1898 0554 2B000000 		.4byte	0x2b
 1899 0558 01       		.byte	0x1
 1900 0559 05       		.byte	0x5
 1901 055a 03       		.byte	0x3
 1902 055b 00000000 		.4byte	count_max_num
 1903 055f 0D       		.uleb128 0xd
 1904 0560 73050000 		.4byte	.LASF90
 1905 0564 02       		.byte	0x2
 1906 0565 25       		.byte	0x25
 1907 0566 32000000 		.4byte	0x32
 1908 056a 01       		.byte	0x1
 1909 056b 01       		.byte	0x1
 1910 056c 0D       		.uleb128 0xd
 1911 056d AF050000 		.4byte	.LASF91
 1912 0571 02       		.byte	0x2
 1913 0572 26       		.byte	0x26
 1914 0573 77000000 		.4byte	0x77
 1915 0577 01       		.byte	0x1
 1916 0578 01       		.byte	0x1
 1917 0579 0D       		.uleb128 0xd
 1918 057a 06060000 		.4byte	.LASF92
 1919 057e 02       		.byte	0x2
 1920 057f 28       		.byte	0x28
 1921 0580 E7030000 		.4byte	0x3e7
 1922 0584 01       		.byte	0x1
ARM GAS  G:\Users\Jaxb\AppData\Local\Temp\ccK3fA7G.s 			page 43


 1923 0585 01       		.byte	0x1
 1924 0586 0D       		.uleb128 0xd
 1925 0587 83030000 		.4byte	.LASF93
 1926 058b 02       		.byte	0x2
 1927 058c 29       		.byte	0x29
 1928 058d E7030000 		.4byte	0x3e7
 1929 0591 01       		.byte	0x1
 1930 0592 01       		.byte	0x1
 1931 0593 0D       		.uleb128 0xd
 1932 0594 43030000 		.4byte	.LASF94
 1933 0598 02       		.byte	0x2
 1934 0599 2A       		.byte	0x2a
 1935 059a C8000000 		.4byte	0xc8
 1936 059e 01       		.byte	0x1
 1937 059f 01       		.byte	0x1
 1938 05a0 15       		.uleb128 0x15
 1939 05a1 01       		.byte	0x1
 1940 05a2 29030000 		.4byte	.LASF106
 1941 05a6 02       		.byte	0x2
 1942 05a7 4B01     		.2byte	0x14b
 1943 05a9 01       		.byte	0x1
 1944 05aa 28040000 		.4byte	.LFB25
 1945 05ae 3C040000 		.4byte	.LFE25
 1946 05b2 00000000 		.4byte	.LLST12
 1947 05b6 01       		.byte	0x1
 1948 05b7 16       		.uleb128 0x16
 1949 05b8 ED050000 		.4byte	.LASF108
 1950 05bc 02       		.byte	0x2
 1951 05bd 2D01     		.2byte	0x12d
 1952 05bf 01       		.byte	0x1
 1953 05c0 68030000 		.4byte	.LFB24
 1954 05c4 28040000 		.4byte	.LFE24
 1955 05c8 2C000000 		.4byte	.LLST11
 1956 05cc 01       		.byte	0x1
 1957 05cd A2060000 		.4byte	0x6a2
 1958 05d1 17       		.uleb128 0x17
 1959 05d2 D2050000 		.4byte	.LASF101
 1960 05d6 02       		.byte	0x2
 1961 05d7 2D01     		.2byte	0x12d
 1962 05d9 29000000 		.4byte	0x29
 1963 05dd 02       		.byte	0x2
 1964 05de 91       		.byte	0x91
 1965 05df 4C       		.sleb128 -52
 1966 05e0 18       		.uleb128 0x18
 1967 05e1 706F7300 		.ascii	"pos\000"
 1968 05e5 02       		.byte	0x2
 1969 05e6 3001     		.2byte	0x130
 1970 05e8 C2000000 		.4byte	0xc2
 1971 05ec 02       		.byte	0x2
 1972 05ed 91       		.byte	0x91
 1973 05ee 74       		.sleb128 -12
 1974 05ef 19       		.uleb128 0x19
 1975 05f0 22030000 		.4byte	.LASF95
 1976 05f4 02       		.byte	0x2
 1977 05f5 3101     		.2byte	0x131
 1978 05f7 A2060000 		.4byte	0x6a2
 1979 05fb 02       		.byte	0x2
ARM GAS  G:\Users\Jaxb\AppData\Local\Temp\ccK3fA7G.s 			page 44


 1980 05fc 91       		.byte	0x91
 1981 05fd 64       		.sleb128 -28
 1982 05fe 19       		.uleb128 0x19
 1983 05ff AB060000 		.4byte	.LASF96
 1984 0603 02       		.byte	0x2
 1985 0604 3201     		.2byte	0x132
 1986 0606 A8060000 		.4byte	0x6a8
 1987 060a 02       		.byte	0x2
 1988 060b 91       		.byte	0x91
 1989 060c 5C       		.sleb128 -36
 1990 060d 1A       		.uleb128 0x1a
 1991 060e 84030000 		.4byte	.LBB2
 1992 0612 8A030000 		.4byte	.LBE2
 1993 0616 2A060000 		.4byte	0x62a
 1994 061a 19       		.uleb128 0x19
 1995 061b 32050000 		.4byte	.LASF97
 1996 061f 02       		.byte	0x2
 1997 0620 3901     		.2byte	0x139
 1998 0622 AE060000 		.4byte	0x6ae
 1999 0626 02       		.byte	0x2
 2000 0627 91       		.byte	0x91
 2001 0628 68       		.sleb128 -24
 2002 0629 00       		.byte	0
 2003 062a 1A       		.uleb128 0x1a
 2004 062b 8C030000 		.4byte	.LBB3
 2005 062f 92030000 		.4byte	.LBE3
 2006 0633 47060000 		.4byte	0x647
 2007 0637 19       		.uleb128 0x19
 2008 0638 32050000 		.4byte	.LASF97
 2009 063c 02       		.byte	0x2
 2010 063d 3A01     		.2byte	0x13a
 2011 063f B4060000 		.4byte	0x6b4
 2012 0643 02       		.byte	0x2
 2013 0644 91       		.byte	0x91
 2014 0645 60       		.sleb128 -32
 2015 0646 00       		.byte	0
 2016 0647 1B       		.uleb128 0x1b
 2017 0648 A4030000 		.4byte	.LBB4
 2018 064c 0E040000 		.4byte	.LBE4
 2019 0650 19       		.uleb128 0x19
 2020 0651 CD010000 		.4byte	.LASF98
 2021 0655 02       		.byte	0x2
 2022 0656 3D01     		.2byte	0x13d
 2023 0658 C2000000 		.4byte	0xc2
 2024 065c 02       		.byte	0x2
 2025 065d 91       		.byte	0x91
 2026 065e 70       		.sleb128 -16
 2027 065f 19       		.uleb128 0x19
 2028 0660 D2010000 		.4byte	.LASF99
 2029 0664 02       		.byte	0x2
 2030 0665 3D01     		.2byte	0x13d
 2031 0667 C2000000 		.4byte	0xc2
 2032 066b 02       		.byte	0x2
 2033 066c 91       		.byte	0x91
 2034 066d 6C       		.sleb128 -20
 2035 066e 1B       		.uleb128 0x1b
 2036 066f B2030000 		.4byte	.LBB5
ARM GAS  G:\Users\Jaxb\AppData\Local\Temp\ccK3fA7G.s 			page 45


 2037 0673 FA030000 		.4byte	.LBE5
 2038 0677 19       		.uleb128 0x19
 2039 0678 A6020000 		.4byte	.LASF100
 2040 067c 02       		.byte	0x2
 2041 067d 4001     		.2byte	0x140
 2042 067f BA060000 		.4byte	0x6ba
 2043 0683 02       		.byte	0x2
 2044 0684 91       		.byte	0x91
 2045 0685 54       		.sleb128 -44
 2046 0686 1B       		.uleb128 0x1b
 2047 0687 B2030000 		.4byte	.LBB6
 2048 068b BA030000 		.4byte	.LBE6
 2049 068f 19       		.uleb128 0x19
 2050 0690 32050000 		.4byte	.LASF97
 2051 0694 02       		.byte	0x2
 2052 0695 4001     		.2byte	0x140
 2053 0697 AE060000 		.4byte	0x6ae
 2054 069b 02       		.byte	0x2
 2055 069c 91       		.byte	0x91
 2056 069d 58       		.sleb128 -40
 2057 069e 00       		.byte	0
 2058 069f 00       		.byte	0
 2059 06a0 00       		.byte	0
 2060 06a1 00       		.byte	0
 2061 06a2 0A       		.uleb128 0xa
 2062 06a3 04       		.byte	0x4
 2063 06a4 21040000 		.4byte	0x421
 2064 06a8 0A       		.uleb128 0xa
 2065 06a9 04       		.byte	0x4
 2066 06aa 30040000 		.4byte	0x430
 2067 06ae 0A       		.uleb128 0xa
 2068 06af 04       		.byte	0x4
 2069 06b0 BD000000 		.4byte	0xbd
 2070 06b4 0A       		.uleb128 0xa
 2071 06b5 04       		.byte	0x4
 2072 06b6 2B040000 		.4byte	0x42b
 2073 06ba 0A       		.uleb128 0xa
 2074 06bb 04       		.byte	0x4
 2075 06bc 75040000 		.4byte	0x475
 2076 06c0 1C       		.uleb128 0x1c
 2077 06c1 01       		.byte	0x1
 2078 06c2 D1020000 		.4byte	.LASF124
 2079 06c6 02       		.byte	0x2
 2080 06c7 EF       		.byte	0xef
 2081 06c8 01       		.byte	0x1
 2082 06c9 34020000 		.4byte	.LFB23
 2083 06cd 68030000 		.4byte	.LFE23
 2084 06d1 64000000 		.4byte	.LLST10
 2085 06d5 01       		.byte	0x1
 2086 06d6 14070000 		.4byte	0x714
 2087 06da 1D       		.uleb128 0x1d
 2088 06db 70747200 		.ascii	"ptr\000"
 2089 06df 02       		.byte	0x2
 2090 06e0 EF       		.byte	0xef
 2091 06e1 29000000 		.4byte	0x29
 2092 06e5 02       		.byte	0x2
 2093 06e6 91       		.byte	0x91
ARM GAS  G:\Users\Jaxb\AppData\Local\Temp\ccK3fA7G.s 			page 46


 2094 06e7 6C       		.sleb128 -20
 2095 06e8 1E       		.uleb128 0x1e
 2096 06e9 0F030000 		.4byte	.LASF76
 2097 06ed 02       		.byte	0x2
 2098 06ee EF       		.byte	0xef
 2099 06ef 29000000 		.4byte	0x29
 2100 06f3 02       		.byte	0x2
 2101 06f4 91       		.byte	0x91
 2102 06f5 68       		.sleb128 -24
 2103 06f6 13       		.uleb128 0x13
 2104 06f7 83020000 		.4byte	.LASF102
 2105 06fb 02       		.byte	0x2
 2106 06fc FD       		.byte	0xfd
 2107 06fd 2B000000 		.4byte	0x2b
 2108 0701 02       		.byte	0x2
 2109 0702 91       		.byte	0x91
 2110 0703 70       		.sleb128 -16
 2111 0704 19       		.uleb128 0x19
 2112 0705 38020000 		.4byte	.LASF103
 2113 0709 02       		.byte	0x2
 2114 070a 0001     		.2byte	0x100
 2115 070c DB030000 		.4byte	0x3db
 2116 0710 02       		.byte	0x2
 2117 0711 91       		.byte	0x91
 2118 0712 74       		.sleb128 -12
 2119 0713 00       		.byte	0
 2120 0714 1F       		.uleb128 0x1f
 2121 0715 5F000000 		.4byte	.LASF115
 2122 0719 02       		.byte	0x2
 2123 071a E1       		.byte	0xe1
 2124 071b 01       		.byte	0x1
 2125 071c 32000000 		.4byte	0x32
 2126 0720 26020000 		.4byte	.LFB22
 2127 0724 34020000 		.4byte	.LFE22
 2128 0728 B4000000 		.4byte	.LLST9
 2129 072c 01       		.byte	0x1
 2130 072d 5C070000 		.4byte	0x75c
 2131 0731 1D       		.uleb128 0x1d
 2132 0732 7800     		.ascii	"x\000"
 2133 0734 02       		.byte	0x2
 2134 0735 E1       		.byte	0xe1
 2135 0736 32000000 		.4byte	0x32
 2136 073a 01       		.byte	0x1
 2137 073b 50       		.byte	0x50
 2138 073c 20       		.uleb128 0x20
 2139 073d 667800   		.ascii	"fx\000"
 2140 0740 02       		.byte	0x2
 2141 0741 E3       		.byte	0xe3
 2142 0742 5C070000 		.4byte	0x75c
 2143 0746 20       		.uleb128 0x20
 2144 0747 697800   		.ascii	"ix\000"
 2145 074a 02       		.byte	0x2
 2146 074b E4       		.byte	0xe4
 2147 074c 63070000 		.4byte	0x763
 2148 0750 20       		.uleb128 0x20
 2149 0751 65787000 		.ascii	"exp\000"
 2150 0755 02       		.byte	0x2
ARM GAS  G:\Users\Jaxb\AppData\Local\Temp\ccK3fA7G.s 			page 47


 2151 0756 E4       		.byte	0xe4
 2152 0757 63070000 		.4byte	0x763
 2153 075b 00       		.byte	0
 2154 075c 03       		.uleb128 0x3
 2155 075d 04       		.byte	0x4
 2156 075e 04       		.byte	0x4
 2157 075f 09040000 		.4byte	.LASF104
 2158 0763 03       		.uleb128 0x3
 2159 0764 04       		.byte	0x4
 2160 0765 07       		.byte	0x7
 2161 0766 42020000 		.4byte	.LASF105
 2162 076a 21       		.uleb128 0x21
 2163 076b 01       		.byte	0x1
 2164 076c C5060000 		.4byte	.LASF107
 2165 0770 02       		.byte	0x2
 2166 0771 BB       		.byte	0xbb
 2167 0772 01       		.byte	0x1
 2168 0773 48000000 		.4byte	.LFB21
 2169 0777 F0000000 		.4byte	.LFE21
 2170 077b D4000000 		.4byte	.LLST8
 2171 077f 01       		.byte	0x1
 2172 0780 22       		.uleb128 0x22
 2173 0781 0A010000 		.4byte	.LASF109
 2174 0785 02       		.byte	0x2
 2175 0786 B0       		.byte	0xb0
 2176 0787 01       		.byte	0x1
 2177 0788 00020000 		.4byte	.LFB20
 2178 078c 26020000 		.4byte	.LFE20
 2179 0790 0C010000 		.4byte	.LLST7
 2180 0794 01       		.byte	0x1
 2181 0795 A8070000 		.4byte	0x7a8
 2182 0799 13       		.uleb128 0x13
 2183 079a 28040000 		.4byte	.LASF110
 2184 079e 02       		.byte	0x2
 2185 079f B2       		.byte	0xb2
 2186 07a0 2B000000 		.4byte	0x2b
 2187 07a4 02       		.byte	0x2
 2188 07a5 91       		.byte	0x91
 2189 07a6 74       		.sleb128 -12
 2190 07a7 00       		.byte	0
 2191 07a8 22       		.uleb128 0x22
 2192 07a9 73010000 		.4byte	.LASF111
 2193 07ad 02       		.byte	0x2
 2194 07ae 99       		.byte	0x99
 2195 07af 01       		.byte	0x1
 2196 07b0 D0010000 		.4byte	.LFB19
 2197 07b4 00020000 		.4byte	.LFE19
 2198 07b8 5C010000 		.4byte	.LLST6
 2199 07bc 01       		.byte	0x1
 2200 07bd DE070000 		.4byte	0x7de
 2201 07c1 1E       		.uleb128 0x1e
 2202 07c2 D2050000 		.4byte	.LASF101
 2203 07c6 02       		.byte	0x2
 2204 07c7 99       		.byte	0x99
 2205 07c8 29000000 		.4byte	0x29
 2206 07cc 02       		.byte	0x2
 2207 07cd 91       		.byte	0x91
ARM GAS  G:\Users\Jaxb\AppData\Local\Temp\ccK3fA7G.s 			page 48


 2208 07ce 64       		.sleb128 -28
 2209 07cf 13       		.uleb128 0x13
 2210 07d0 68000000 		.4byte	.LASF112
 2211 07d4 02       		.byte	0x2
 2212 07d5 9B       		.byte	0x9b
 2213 07d6 43020000 		.4byte	0x243
 2214 07da 02       		.byte	0x2
 2215 07db 91       		.byte	0x91
 2216 07dc 6C       		.sleb128 -20
 2217 07dd 00       		.byte	0
 2218 07de 22       		.uleb128 0x22
 2219 07df 65020000 		.4byte	.LASF113
 2220 07e3 02       		.byte	0x2
 2221 07e4 7B       		.byte	0x7b
 2222 07e5 01       		.byte	0x1
 2223 07e6 40010000 		.4byte	.LFB18
 2224 07ea D0010000 		.4byte	.LFE18
 2225 07ee 94010000 		.4byte	.LLST5
 2226 07f2 01       		.byte	0x1
 2227 07f3 06080000 		.4byte	0x806
 2228 07f7 1E       		.uleb128 0x1e
 2229 07f8 D2050000 		.4byte	.LASF101
 2230 07fc 02       		.byte	0x2
 2231 07fd 7B       		.byte	0x7b
 2232 07fe 29000000 		.4byte	0x29
 2233 0802 02       		.byte	0x2
 2234 0803 91       		.byte	0x91
 2235 0804 6C       		.sleb128 -20
 2236 0805 00       		.byte	0
 2237 0806 21       		.uleb128 0x21
 2238 0807 01       		.byte	0x1
 2239 0808 34010000 		.4byte	.LASF114
 2240 080c 02       		.byte	0x2
 2241 080d 50       		.byte	0x50
 2242 080e 01       		.byte	0x1
 2243 080f 62000000 		.4byte	.LFB17
 2244 0813 40010000 		.4byte	.LFE17
 2245 0817 E4010000 		.4byte	.LLST4
 2246 081b 01       		.byte	0x1
 2247 081c 23       		.uleb128 0x23
 2248 081d 0B050000 		.4byte	.LASF125
 2249 0821 02       		.byte	0x2
 2250 0822 33       		.byte	0x33
 2251 0823 01       		.byte	0x1
 2252 0824 00000000 		.4byte	.LFB16
 2253 0828 48000000 		.4byte	.LFE16
 2254 082c 28020000 		.4byte	.LLST3
 2255 0830 01       		.byte	0x1
 2256 0831 24       		.uleb128 0x24
 2257 0832 38030000 		.4byte	.LASF116
 2258 0836 01       		.byte	0x1
 2259 0837 52       		.byte	0x52
 2260 0838 01       		.byte	0x1
 2261 0839 32000000 		.4byte	0x32
 2262 083d 40000000 		.4byte	.LFB11
 2263 0841 62000000 		.4byte	.LFE11
 2264 0845 54020000 		.4byte	.LLST2
ARM GAS  G:\Users\Jaxb\AppData\Local\Temp\ccK3fA7G.s 			page 49


 2265 0849 01       		.byte	0x1
 2266 084a 5D080000 		.4byte	0x85d
 2267 084e 1E       		.uleb128 0x1e
 2268 084f 6E050000 		.4byte	.LASF117
 2269 0853 01       		.byte	0x1
 2270 0854 52       		.byte	0x52
 2271 0855 AE060000 		.4byte	0x6ae
 2272 0859 02       		.byte	0x2
 2273 085a 91       		.byte	0x91
 2274 085b 74       		.sleb128 -12
 2275 085c 00       		.byte	0
 2276 085d 22       		.uleb128 0x22
 2277 085e EF060000 		.4byte	.LASF118
 2278 0862 01       		.byte	0x1
 2279 0863 35       		.byte	0x35
 2280 0864 01       		.byte	0x1
 2281 0865 20000000 		.4byte	.LFB7
 2282 0869 40000000 		.4byte	.LFE7
 2283 086d B0020000 		.4byte	.LLST1
 2284 0871 01       		.byte	0x1
 2285 0872 85080000 		.4byte	0x885
 2286 0876 1E       		.uleb128 0x1e
 2287 0877 C1020000 		.4byte	.LASF119
 2288 087b 01       		.byte	0x1
 2289 087c 35       		.byte	0x35
 2290 087d C2000000 		.4byte	0xc2
 2291 0881 02       		.byte	0x2
 2292 0882 91       		.byte	0x91
 2293 0883 74       		.sleb128 -12
 2294 0884 00       		.byte	0
 2295 0885 25       		.uleb128 0x25
 2296 0886 C2010000 		.4byte	.LASF126
 2297 088a 01       		.byte	0x1
 2298 088b 2E       		.byte	0x2e
 2299 088c 01       		.byte	0x1
 2300 088d 00000000 		.4byte	.LFB6
 2301 0891 20000000 		.4byte	.LFE6
 2302 0895 00030000 		.4byte	.LLST0
 2303 0899 01       		.byte	0x1
 2304 089a 1E       		.uleb128 0x1e
 2305 089b 4E000000 		.4byte	.LASF12
 2306 089f 01       		.byte	0x1
 2307 08a0 2E       		.byte	0x2e
 2308 08a1 C2000000 		.4byte	0xc2
 2309 08a5 02       		.byte	0x2
 2310 08a6 91       		.byte	0x91
 2311 08a7 74       		.sleb128 -12
 2312 08a8 1E       		.uleb128 0x1e
 2313 08a9 C4000000 		.4byte	.LASF11
 2314 08ad 01       		.byte	0x1
 2315 08ae 2E       		.byte	0x2e
 2316 08af C2000000 		.4byte	0xc2
 2317 08b3 02       		.byte	0x2
 2318 08b4 91       		.byte	0x91
 2319 08b5 70       		.sleb128 -16
 2320 08b6 00       		.byte	0
 2321 08b7 00       		.byte	0
ARM GAS  G:\Users\Jaxb\AppData\Local\Temp\ccK3fA7G.s 			page 50


 2322              		.section	.debug_abbrev,"",%progbits
 2323              	.Ldebug_abbrev0:
 2324 0000 01       		.uleb128 0x1
 2325 0001 11       		.uleb128 0x11
 2326 0002 01       		.byte	0x1
 2327 0003 25       		.uleb128 0x25
 2328 0004 0E       		.uleb128 0xe
 2329 0005 13       		.uleb128 0x13
 2330 0006 0B       		.uleb128 0xb
 2331 0007 03       		.uleb128 0x3
 2332 0008 0E       		.uleb128 0xe
 2333 0009 1B       		.uleb128 0x1b
 2334 000a 0E       		.uleb128 0xe
 2335 000b 55       		.uleb128 0x55
 2336 000c 06       		.uleb128 0x6
 2337 000d 11       		.uleb128 0x11
 2338 000e 01       		.uleb128 0x1
 2339 000f 52       		.uleb128 0x52
 2340 0010 01       		.uleb128 0x1
 2341 0011 10       		.uleb128 0x10
 2342 0012 06       		.uleb128 0x6
 2343 0013 00       		.byte	0
 2344 0014 00       		.byte	0
 2345 0015 02       		.uleb128 0x2
 2346 0016 0F       		.uleb128 0xf
 2347 0017 00       		.byte	0
 2348 0018 0B       		.uleb128 0xb
 2349 0019 0B       		.uleb128 0xb
 2350 001a 00       		.byte	0
 2351 001b 00       		.byte	0
 2352 001c 03       		.uleb128 0x3
 2353 001d 24       		.uleb128 0x24
 2354 001e 00       		.byte	0
 2355 001f 0B       		.uleb128 0xb
 2356 0020 0B       		.uleb128 0xb
 2357 0021 3E       		.uleb128 0x3e
 2358 0022 0B       		.uleb128 0xb
 2359 0023 03       		.uleb128 0x3
 2360 0024 0E       		.uleb128 0xe
 2361 0025 00       		.byte	0
 2362 0026 00       		.byte	0
 2363 0027 04       		.uleb128 0x4
 2364 0028 24       		.uleb128 0x24
 2365 0029 00       		.byte	0
 2366 002a 0B       		.uleb128 0xb
 2367 002b 0B       		.uleb128 0xb
 2368 002c 3E       		.uleb128 0x3e
 2369 002d 0B       		.uleb128 0xb
 2370 002e 03       		.uleb128 0x3
 2371 002f 08       		.uleb128 0x8
 2372 0030 00       		.byte	0
 2373 0031 00       		.byte	0
 2374 0032 05       		.uleb128 0x5
 2375 0033 35       		.uleb128 0x35
 2376 0034 00       		.byte	0
 2377 0035 49       		.uleb128 0x49
 2378 0036 13       		.uleb128 0x13
ARM GAS  G:\Users\Jaxb\AppData\Local\Temp\ccK3fA7G.s 			page 51


 2379 0037 00       		.byte	0
 2380 0038 00       		.byte	0
 2381 0039 06       		.uleb128 0x6
 2382 003a 16       		.uleb128 0x16
 2383 003b 00       		.byte	0
 2384 003c 03       		.uleb128 0x3
 2385 003d 0E       		.uleb128 0xe
 2386 003e 3A       		.uleb128 0x3a
 2387 003f 0B       		.uleb128 0xb
 2388 0040 3B       		.uleb128 0x3b
 2389 0041 0B       		.uleb128 0xb
 2390 0042 49       		.uleb128 0x49
 2391 0043 13       		.uleb128 0x13
 2392 0044 00       		.byte	0
 2393 0045 00       		.byte	0
 2394 0046 07       		.uleb128 0x7
 2395 0047 13       		.uleb128 0x13
 2396 0048 01       		.byte	0x1
 2397 0049 03       		.uleb128 0x3
 2398 004a 0E       		.uleb128 0xe
 2399 004b 0B       		.uleb128 0xb
 2400 004c 0B       		.uleb128 0xb
 2401 004d 3A       		.uleb128 0x3a
 2402 004e 0B       		.uleb128 0xb
 2403 004f 3B       		.uleb128 0x3b
 2404 0050 0B       		.uleb128 0xb
 2405 0051 01       		.uleb128 0x1
 2406 0052 13       		.uleb128 0x13
 2407 0053 00       		.byte	0
 2408 0054 00       		.byte	0
 2409 0055 08       		.uleb128 0x8
 2410 0056 0D       		.uleb128 0xd
 2411 0057 00       		.byte	0
 2412 0058 03       		.uleb128 0x3
 2413 0059 0E       		.uleb128 0xe
 2414 005a 3A       		.uleb128 0x3a
 2415 005b 0B       		.uleb128 0xb
 2416 005c 3B       		.uleb128 0x3b
 2417 005d 0B       		.uleb128 0xb
 2418 005e 49       		.uleb128 0x49
 2419 005f 13       		.uleb128 0x13
 2420 0060 38       		.uleb128 0x38
 2421 0061 0A       		.uleb128 0xa
 2422 0062 00       		.byte	0
 2423 0063 00       		.byte	0
 2424 0064 09       		.uleb128 0x9
 2425 0065 26       		.uleb128 0x26
 2426 0066 00       		.byte	0
 2427 0067 49       		.uleb128 0x49
 2428 0068 13       		.uleb128 0x13
 2429 0069 00       		.byte	0
 2430 006a 00       		.byte	0
 2431 006b 0A       		.uleb128 0xa
 2432 006c 0F       		.uleb128 0xf
 2433 006d 00       		.byte	0
 2434 006e 0B       		.uleb128 0xb
 2435 006f 0B       		.uleb128 0xb
ARM GAS  G:\Users\Jaxb\AppData\Local\Temp\ccK3fA7G.s 			page 52


 2436 0070 49       		.uleb128 0x49
 2437 0071 13       		.uleb128 0x13
 2438 0072 00       		.byte	0
 2439 0073 00       		.byte	0
 2440 0074 0B       		.uleb128 0xb
 2441 0075 04       		.uleb128 0x4
 2442 0076 01       		.byte	0x1
 2443 0077 03       		.uleb128 0x3
 2444 0078 0E       		.uleb128 0xe
 2445 0079 3E       		.uleb128 0x3e
 2446 007a 0B       		.uleb128 0xb
 2447 007b 0B       		.uleb128 0xb
 2448 007c 0B       		.uleb128 0xb
 2449 007d 49       		.uleb128 0x49
 2450 007e 13       		.uleb128 0x13
 2451 007f 3A       		.uleb128 0x3a
 2452 0080 0B       		.uleb128 0xb
 2453 0081 3B       		.uleb128 0x3b
 2454 0082 0B       		.uleb128 0xb
 2455 0083 01       		.uleb128 0x1
 2456 0084 13       		.uleb128 0x13
 2457 0085 00       		.byte	0
 2458 0086 00       		.byte	0
 2459 0087 0C       		.uleb128 0xc
 2460 0088 28       		.uleb128 0x28
 2461 0089 00       		.byte	0
 2462 008a 03       		.uleb128 0x3
 2463 008b 0E       		.uleb128 0xe
 2464 008c 1C       		.uleb128 0x1c
 2465 008d 0B       		.uleb128 0xb
 2466 008e 00       		.byte	0
 2467 008f 00       		.byte	0
 2468 0090 0D       		.uleb128 0xd
 2469 0091 34       		.uleb128 0x34
 2470 0092 00       		.byte	0
 2471 0093 03       		.uleb128 0x3
 2472 0094 0E       		.uleb128 0xe
 2473 0095 3A       		.uleb128 0x3a
 2474 0096 0B       		.uleb128 0xb
 2475 0097 3B       		.uleb128 0x3b
 2476 0098 0B       		.uleb128 0xb
 2477 0099 49       		.uleb128 0x49
 2478 009a 13       		.uleb128 0x13
 2479 009b 3F       		.uleb128 0x3f
 2480 009c 0C       		.uleb128 0xc
 2481 009d 3C       		.uleb128 0x3c
 2482 009e 0C       		.uleb128 0xc
 2483 009f 00       		.byte	0
 2484 00a0 00       		.byte	0
 2485 00a1 0E       		.uleb128 0xe
 2486 00a2 16       		.uleb128 0x16
 2487 00a3 00       		.byte	0
 2488 00a4 03       		.uleb128 0x3
 2489 00a5 08       		.uleb128 0x8
 2490 00a6 3A       		.uleb128 0x3a
 2491 00a7 0B       		.uleb128 0xb
 2492 00a8 3B       		.uleb128 0x3b
ARM GAS  G:\Users\Jaxb\AppData\Local\Temp\ccK3fA7G.s 			page 53


 2493 00a9 0B       		.uleb128 0xb
 2494 00aa 49       		.uleb128 0x49
 2495 00ab 13       		.uleb128 0x13
 2496 00ac 00       		.byte	0
 2497 00ad 00       		.byte	0
 2498 00ae 0F       		.uleb128 0xf
 2499 00af 13       		.uleb128 0x13
 2500 00b0 01       		.byte	0x1
 2501 00b1 0B       		.uleb128 0xb
 2502 00b2 05       		.uleb128 0x5
 2503 00b3 3A       		.uleb128 0x3a
 2504 00b4 0B       		.uleb128 0xb
 2505 00b5 3B       		.uleb128 0x3b
 2506 00b6 0B       		.uleb128 0xb
 2507 00b7 01       		.uleb128 0x1
 2508 00b8 13       		.uleb128 0x13
 2509 00b9 00       		.byte	0
 2510 00ba 00       		.byte	0
 2511 00bb 10       		.uleb128 0x10
 2512 00bc 0D       		.uleb128 0xd
 2513 00bd 00       		.byte	0
 2514 00be 03       		.uleb128 0x3
 2515 00bf 08       		.uleb128 0x8
 2516 00c0 3A       		.uleb128 0x3a
 2517 00c1 0B       		.uleb128 0xb
 2518 00c2 3B       		.uleb128 0x3b
 2519 00c3 0B       		.uleb128 0xb
 2520 00c4 49       		.uleb128 0x49
 2521 00c5 13       		.uleb128 0x13
 2522 00c6 38       		.uleb128 0x38
 2523 00c7 0A       		.uleb128 0xa
 2524 00c8 00       		.byte	0
 2525 00c9 00       		.byte	0
 2526 00ca 11       		.uleb128 0x11
 2527 00cb 01       		.uleb128 0x1
 2528 00cc 01       		.byte	0x1
 2529 00cd 49       		.uleb128 0x49
 2530 00ce 13       		.uleb128 0x13
 2531 00cf 01       		.uleb128 0x1
 2532 00d0 13       		.uleb128 0x13
 2533 00d1 00       		.byte	0
 2534 00d2 00       		.byte	0
 2535 00d3 12       		.uleb128 0x12
 2536 00d4 21       		.uleb128 0x21
 2537 00d5 00       		.byte	0
 2538 00d6 49       		.uleb128 0x49
 2539 00d7 13       		.uleb128 0x13
 2540 00d8 2F       		.uleb128 0x2f
 2541 00d9 0B       		.uleb128 0xb
 2542 00da 00       		.byte	0
 2543 00db 00       		.byte	0
 2544 00dc 13       		.uleb128 0x13
 2545 00dd 34       		.uleb128 0x34
 2546 00de 00       		.byte	0
 2547 00df 03       		.uleb128 0x3
 2548 00e0 0E       		.uleb128 0xe
 2549 00e1 3A       		.uleb128 0x3a
ARM GAS  G:\Users\Jaxb\AppData\Local\Temp\ccK3fA7G.s 			page 54


 2550 00e2 0B       		.uleb128 0xb
 2551 00e3 3B       		.uleb128 0x3b
 2552 00e4 0B       		.uleb128 0xb
 2553 00e5 49       		.uleb128 0x49
 2554 00e6 13       		.uleb128 0x13
 2555 00e7 02       		.uleb128 0x2
 2556 00e8 0A       		.uleb128 0xa
 2557 00e9 00       		.byte	0
 2558 00ea 00       		.byte	0
 2559 00eb 14       		.uleb128 0x14
 2560 00ec 34       		.uleb128 0x34
 2561 00ed 00       		.byte	0
 2562 00ee 03       		.uleb128 0x3
 2563 00ef 0E       		.uleb128 0xe
 2564 00f0 3A       		.uleb128 0x3a
 2565 00f1 0B       		.uleb128 0xb
 2566 00f2 3B       		.uleb128 0x3b
 2567 00f3 0B       		.uleb128 0xb
 2568 00f4 49       		.uleb128 0x49
 2569 00f5 13       		.uleb128 0x13
 2570 00f6 3F       		.uleb128 0x3f
 2571 00f7 0C       		.uleb128 0xc
 2572 00f8 02       		.uleb128 0x2
 2573 00f9 0A       		.uleb128 0xa
 2574 00fa 00       		.byte	0
 2575 00fb 00       		.byte	0
 2576 00fc 15       		.uleb128 0x15
 2577 00fd 2E       		.uleb128 0x2e
 2578 00fe 00       		.byte	0
 2579 00ff 3F       		.uleb128 0x3f
 2580 0100 0C       		.uleb128 0xc
 2581 0101 03       		.uleb128 0x3
 2582 0102 0E       		.uleb128 0xe
 2583 0103 3A       		.uleb128 0x3a
 2584 0104 0B       		.uleb128 0xb
 2585 0105 3B       		.uleb128 0x3b
 2586 0106 05       		.uleb128 0x5
 2587 0107 27       		.uleb128 0x27
 2588 0108 0C       		.uleb128 0xc
 2589 0109 11       		.uleb128 0x11
 2590 010a 01       		.uleb128 0x1
 2591 010b 12       		.uleb128 0x12
 2592 010c 01       		.uleb128 0x1
 2593 010d 40       		.uleb128 0x40
 2594 010e 06       		.uleb128 0x6
 2595 010f 9642     		.uleb128 0x2116
 2596 0111 0C       		.uleb128 0xc
 2597 0112 00       		.byte	0
 2598 0113 00       		.byte	0
 2599 0114 16       		.uleb128 0x16
 2600 0115 2E       		.uleb128 0x2e
 2601 0116 01       		.byte	0x1
 2602 0117 03       		.uleb128 0x3
 2603 0118 0E       		.uleb128 0xe
 2604 0119 3A       		.uleb128 0x3a
 2605 011a 0B       		.uleb128 0xb
 2606 011b 3B       		.uleb128 0x3b
ARM GAS  G:\Users\Jaxb\AppData\Local\Temp\ccK3fA7G.s 			page 55


 2607 011c 05       		.uleb128 0x5
 2608 011d 27       		.uleb128 0x27
 2609 011e 0C       		.uleb128 0xc
 2610 011f 11       		.uleb128 0x11
 2611 0120 01       		.uleb128 0x1
 2612 0121 12       		.uleb128 0x12
 2613 0122 01       		.uleb128 0x1
 2614 0123 40       		.uleb128 0x40
 2615 0124 06       		.uleb128 0x6
 2616 0125 9642     		.uleb128 0x2116
 2617 0127 0C       		.uleb128 0xc
 2618 0128 01       		.uleb128 0x1
 2619 0129 13       		.uleb128 0x13
 2620 012a 00       		.byte	0
 2621 012b 00       		.byte	0
 2622 012c 17       		.uleb128 0x17
 2623 012d 05       		.uleb128 0x5
 2624 012e 00       		.byte	0
 2625 012f 03       		.uleb128 0x3
 2626 0130 0E       		.uleb128 0xe
 2627 0131 3A       		.uleb128 0x3a
 2628 0132 0B       		.uleb128 0xb
 2629 0133 3B       		.uleb128 0x3b
 2630 0134 05       		.uleb128 0x5
 2631 0135 49       		.uleb128 0x49
 2632 0136 13       		.uleb128 0x13
 2633 0137 02       		.uleb128 0x2
 2634 0138 0A       		.uleb128 0xa
 2635 0139 00       		.byte	0
 2636 013a 00       		.byte	0
 2637 013b 18       		.uleb128 0x18
 2638 013c 34       		.uleb128 0x34
 2639 013d 00       		.byte	0
 2640 013e 03       		.uleb128 0x3
 2641 013f 08       		.uleb128 0x8
 2642 0140 3A       		.uleb128 0x3a
 2643 0141 0B       		.uleb128 0xb
 2644 0142 3B       		.uleb128 0x3b
 2645 0143 05       		.uleb128 0x5
 2646 0144 49       		.uleb128 0x49
 2647 0145 13       		.uleb128 0x13
 2648 0146 02       		.uleb128 0x2
 2649 0147 0A       		.uleb128 0xa
 2650 0148 00       		.byte	0
 2651 0149 00       		.byte	0
 2652 014a 19       		.uleb128 0x19
 2653 014b 34       		.uleb128 0x34
 2654 014c 00       		.byte	0
 2655 014d 03       		.uleb128 0x3
 2656 014e 0E       		.uleb128 0xe
 2657 014f 3A       		.uleb128 0x3a
 2658 0150 0B       		.uleb128 0xb
 2659 0151 3B       		.uleb128 0x3b
 2660 0152 05       		.uleb128 0x5
 2661 0153 49       		.uleb128 0x49
 2662 0154 13       		.uleb128 0x13
 2663 0155 02       		.uleb128 0x2
ARM GAS  G:\Users\Jaxb\AppData\Local\Temp\ccK3fA7G.s 			page 56


 2664 0156 0A       		.uleb128 0xa
 2665 0157 00       		.byte	0
 2666 0158 00       		.byte	0
 2667 0159 1A       		.uleb128 0x1a
 2668 015a 0B       		.uleb128 0xb
 2669 015b 01       		.byte	0x1
 2670 015c 11       		.uleb128 0x11
 2671 015d 01       		.uleb128 0x1
 2672 015e 12       		.uleb128 0x12
 2673 015f 01       		.uleb128 0x1
 2674 0160 01       		.uleb128 0x1
 2675 0161 13       		.uleb128 0x13
 2676 0162 00       		.byte	0
 2677 0163 00       		.byte	0
 2678 0164 1B       		.uleb128 0x1b
 2679 0165 0B       		.uleb128 0xb
 2680 0166 01       		.byte	0x1
 2681 0167 11       		.uleb128 0x11
 2682 0168 01       		.uleb128 0x1
 2683 0169 12       		.uleb128 0x12
 2684 016a 01       		.uleb128 0x1
 2685 016b 00       		.byte	0
 2686 016c 00       		.byte	0
 2687 016d 1C       		.uleb128 0x1c
 2688 016e 2E       		.uleb128 0x2e
 2689 016f 01       		.byte	0x1
 2690 0170 3F       		.uleb128 0x3f
 2691 0171 0C       		.uleb128 0xc
 2692 0172 03       		.uleb128 0x3
 2693 0173 0E       		.uleb128 0xe
 2694 0174 3A       		.uleb128 0x3a
 2695 0175 0B       		.uleb128 0xb
 2696 0176 3B       		.uleb128 0x3b
 2697 0177 0B       		.uleb128 0xb
 2698 0178 27       		.uleb128 0x27
 2699 0179 0C       		.uleb128 0xc
 2700 017a 11       		.uleb128 0x11
 2701 017b 01       		.uleb128 0x1
 2702 017c 12       		.uleb128 0x12
 2703 017d 01       		.uleb128 0x1
 2704 017e 40       		.uleb128 0x40
 2705 017f 06       		.uleb128 0x6
 2706 0180 9642     		.uleb128 0x2116
 2707 0182 0C       		.uleb128 0xc
 2708 0183 01       		.uleb128 0x1
 2709 0184 13       		.uleb128 0x13
 2710 0185 00       		.byte	0
 2711 0186 00       		.byte	0
 2712 0187 1D       		.uleb128 0x1d
 2713 0188 05       		.uleb128 0x5
 2714 0189 00       		.byte	0
 2715 018a 03       		.uleb128 0x3
 2716 018b 08       		.uleb128 0x8
 2717 018c 3A       		.uleb128 0x3a
 2718 018d 0B       		.uleb128 0xb
 2719 018e 3B       		.uleb128 0x3b
 2720 018f 0B       		.uleb128 0xb
ARM GAS  G:\Users\Jaxb\AppData\Local\Temp\ccK3fA7G.s 			page 57


 2721 0190 49       		.uleb128 0x49
 2722 0191 13       		.uleb128 0x13
 2723 0192 02       		.uleb128 0x2
 2724 0193 0A       		.uleb128 0xa
 2725 0194 00       		.byte	0
 2726 0195 00       		.byte	0
 2727 0196 1E       		.uleb128 0x1e
 2728 0197 05       		.uleb128 0x5
 2729 0198 00       		.byte	0
 2730 0199 03       		.uleb128 0x3
 2731 019a 0E       		.uleb128 0xe
 2732 019b 3A       		.uleb128 0x3a
 2733 019c 0B       		.uleb128 0xb
 2734 019d 3B       		.uleb128 0x3b
 2735 019e 0B       		.uleb128 0xb
 2736 019f 49       		.uleb128 0x49
 2737 01a0 13       		.uleb128 0x13
 2738 01a1 02       		.uleb128 0x2
 2739 01a2 0A       		.uleb128 0xa
 2740 01a3 00       		.byte	0
 2741 01a4 00       		.byte	0
 2742 01a5 1F       		.uleb128 0x1f
 2743 01a6 2E       		.uleb128 0x2e
 2744 01a7 01       		.byte	0x1
 2745 01a8 03       		.uleb128 0x3
 2746 01a9 0E       		.uleb128 0xe
 2747 01aa 3A       		.uleb128 0x3a
 2748 01ab 0B       		.uleb128 0xb
 2749 01ac 3B       		.uleb128 0x3b
 2750 01ad 0B       		.uleb128 0xb
 2751 01ae 27       		.uleb128 0x27
 2752 01af 0C       		.uleb128 0xc
 2753 01b0 49       		.uleb128 0x49
 2754 01b1 13       		.uleb128 0x13
 2755 01b2 11       		.uleb128 0x11
 2756 01b3 01       		.uleb128 0x1
 2757 01b4 12       		.uleb128 0x12
 2758 01b5 01       		.uleb128 0x1
 2759 01b6 40       		.uleb128 0x40
 2760 01b7 06       		.uleb128 0x6
 2761 01b8 9642     		.uleb128 0x2116
 2762 01ba 0C       		.uleb128 0xc
 2763 01bb 01       		.uleb128 0x1
 2764 01bc 13       		.uleb128 0x13
 2765 01bd 00       		.byte	0
 2766 01be 00       		.byte	0
 2767 01bf 20       		.uleb128 0x20
 2768 01c0 34       		.uleb128 0x34
 2769 01c1 00       		.byte	0
 2770 01c2 03       		.uleb128 0x3
 2771 01c3 08       		.uleb128 0x8
 2772 01c4 3A       		.uleb128 0x3a
 2773 01c5 0B       		.uleb128 0xb
 2774 01c6 3B       		.uleb128 0x3b
 2775 01c7 0B       		.uleb128 0xb
 2776 01c8 49       		.uleb128 0x49
 2777 01c9 13       		.uleb128 0x13
ARM GAS  G:\Users\Jaxb\AppData\Local\Temp\ccK3fA7G.s 			page 58


 2778 01ca 00       		.byte	0
 2779 01cb 00       		.byte	0
 2780 01cc 21       		.uleb128 0x21
 2781 01cd 2E       		.uleb128 0x2e
 2782 01ce 00       		.byte	0
 2783 01cf 3F       		.uleb128 0x3f
 2784 01d0 0C       		.uleb128 0xc
 2785 01d1 03       		.uleb128 0x3
 2786 01d2 0E       		.uleb128 0xe
 2787 01d3 3A       		.uleb128 0x3a
 2788 01d4 0B       		.uleb128 0xb
 2789 01d5 3B       		.uleb128 0x3b
 2790 01d6 0B       		.uleb128 0xb
 2791 01d7 27       		.uleb128 0x27
 2792 01d8 0C       		.uleb128 0xc
 2793 01d9 11       		.uleb128 0x11
 2794 01da 01       		.uleb128 0x1
 2795 01db 12       		.uleb128 0x12
 2796 01dc 01       		.uleb128 0x1
 2797 01dd 40       		.uleb128 0x40
 2798 01de 06       		.uleb128 0x6
 2799 01df 9642     		.uleb128 0x2116
 2800 01e1 0C       		.uleb128 0xc
 2801 01e2 00       		.byte	0
 2802 01e3 00       		.byte	0
 2803 01e4 22       		.uleb128 0x22
 2804 01e5 2E       		.uleb128 0x2e
 2805 01e6 01       		.byte	0x1
 2806 01e7 03       		.uleb128 0x3
 2807 01e8 0E       		.uleb128 0xe
 2808 01e9 3A       		.uleb128 0x3a
 2809 01ea 0B       		.uleb128 0xb
 2810 01eb 3B       		.uleb128 0x3b
 2811 01ec 0B       		.uleb128 0xb
 2812 01ed 27       		.uleb128 0x27
 2813 01ee 0C       		.uleb128 0xc
 2814 01ef 11       		.uleb128 0x11
 2815 01f0 01       		.uleb128 0x1
 2816 01f1 12       		.uleb128 0x12
 2817 01f2 01       		.uleb128 0x1
 2818 01f3 40       		.uleb128 0x40
 2819 01f4 06       		.uleb128 0x6
 2820 01f5 9642     		.uleb128 0x2116
 2821 01f7 0C       		.uleb128 0xc
 2822 01f8 01       		.uleb128 0x1
 2823 01f9 13       		.uleb128 0x13
 2824 01fa 00       		.byte	0
 2825 01fb 00       		.byte	0
 2826 01fc 23       		.uleb128 0x23
 2827 01fd 2E       		.uleb128 0x2e
 2828 01fe 00       		.byte	0
 2829 01ff 03       		.uleb128 0x3
 2830 0200 0E       		.uleb128 0xe
 2831 0201 3A       		.uleb128 0x3a
 2832 0202 0B       		.uleb128 0xb
 2833 0203 3B       		.uleb128 0x3b
 2834 0204 0B       		.uleb128 0xb
ARM GAS  G:\Users\Jaxb\AppData\Local\Temp\ccK3fA7G.s 			page 59


 2835 0205 27       		.uleb128 0x27
 2836 0206 0C       		.uleb128 0xc
 2837 0207 11       		.uleb128 0x11
 2838 0208 01       		.uleb128 0x1
 2839 0209 12       		.uleb128 0x12
 2840 020a 01       		.uleb128 0x1
 2841 020b 40       		.uleb128 0x40
 2842 020c 06       		.uleb128 0x6
 2843 020d 9642     		.uleb128 0x2116
 2844 020f 0C       		.uleb128 0xc
 2845 0210 00       		.byte	0
 2846 0211 00       		.byte	0
 2847 0212 24       		.uleb128 0x24
 2848 0213 2E       		.uleb128 0x2e
 2849 0214 01       		.byte	0x1
 2850 0215 03       		.uleb128 0x3
 2851 0216 0E       		.uleb128 0xe
 2852 0217 3A       		.uleb128 0x3a
 2853 0218 0B       		.uleb128 0xb
 2854 0219 3B       		.uleb128 0x3b
 2855 021a 0B       		.uleb128 0xb
 2856 021b 27       		.uleb128 0x27
 2857 021c 0C       		.uleb128 0xc
 2858 021d 49       		.uleb128 0x49
 2859 021e 13       		.uleb128 0x13
 2860 021f 11       		.uleb128 0x11
 2861 0220 01       		.uleb128 0x1
 2862 0221 12       		.uleb128 0x12
 2863 0222 01       		.uleb128 0x1
 2864 0223 40       		.uleb128 0x40
 2865 0224 06       		.uleb128 0x6
 2866 0225 9742     		.uleb128 0x2117
 2867 0227 0C       		.uleb128 0xc
 2868 0228 01       		.uleb128 0x1
 2869 0229 13       		.uleb128 0x13
 2870 022a 00       		.byte	0
 2871 022b 00       		.byte	0
 2872 022c 25       		.uleb128 0x25
 2873 022d 2E       		.uleb128 0x2e
 2874 022e 01       		.byte	0x1
 2875 022f 03       		.uleb128 0x3
 2876 0230 0E       		.uleb128 0xe
 2877 0231 3A       		.uleb128 0x3a
 2878 0232 0B       		.uleb128 0xb
 2879 0233 3B       		.uleb128 0x3b
 2880 0234 0B       		.uleb128 0xb
 2881 0235 27       		.uleb128 0x27
 2882 0236 0C       		.uleb128 0xc
 2883 0237 11       		.uleb128 0x11
 2884 0238 01       		.uleb128 0x1
 2885 0239 12       		.uleb128 0x12
 2886 023a 01       		.uleb128 0x1
 2887 023b 40       		.uleb128 0x40
 2888 023c 06       		.uleb128 0x6
 2889 023d 9742     		.uleb128 0x2117
 2890 023f 0C       		.uleb128 0xc
 2891 0240 00       		.byte	0
ARM GAS  G:\Users\Jaxb\AppData\Local\Temp\ccK3fA7G.s 			page 60


 2892 0241 00       		.byte	0
 2893 0242 00       		.byte	0
 2894              		.section	.debug_loc,"",%progbits
 2895              	.Ldebug_loc0:
 2896              	.LLST12:
 2897 0000 28040000 		.4byte	.LFB25
 2898 0004 2A040000 		.4byte	.LCFI48
 2899 0008 0200     		.2byte	0x2
 2900 000a 7D       		.byte	0x7d
 2901 000b 00       		.sleb128 0
 2902 000c 2A040000 		.4byte	.LCFI48
 2903 0010 2C040000 		.4byte	.LCFI49
 2904 0014 0200     		.2byte	0x2
 2905 0016 7D       		.byte	0x7d
 2906 0017 08       		.sleb128 8
 2907 0018 2C040000 		.4byte	.LCFI49
 2908 001c 3C040000 		.4byte	.LFE25
 2909 0020 0200     		.2byte	0x2
 2910 0022 77       		.byte	0x77
 2911 0023 08       		.sleb128 8
 2912 0024 00000000 		.4byte	0
 2913 0028 00000000 		.4byte	0
 2914              	.LLST11:
 2915 002c 68030000 		.4byte	.LFB24
 2916 0030 6A030000 		.4byte	.LCFI45
 2917 0034 0200     		.2byte	0x2
 2918 0036 7D       		.byte	0x7d
 2919 0037 00       		.sleb128 0
 2920 0038 6A030000 		.4byte	.LCFI45
 2921 003c 6C030000 		.4byte	.LCFI46
 2922 0040 0200     		.2byte	0x2
 2923 0042 7D       		.byte	0x7d
 2924 0043 08       		.sleb128 8
 2925 0044 6C030000 		.4byte	.LCFI46
 2926 0048 6E030000 		.4byte	.LCFI47
 2927 004c 0200     		.2byte	0x2
 2928 004e 7D       		.byte	0x7d
 2929 004f 38       		.sleb128 56
 2930 0050 6E030000 		.4byte	.LCFI47
 2931 0054 28040000 		.4byte	.LFE24
 2932 0058 0200     		.2byte	0x2
 2933 005a 77       		.byte	0x77
 2934 005b 38       		.sleb128 56
 2935 005c 00000000 		.4byte	0
 2936 0060 00000000 		.4byte	0
 2937              	.LLST10:
 2938 0064 34020000 		.4byte	.LFB23
 2939 0068 36020000 		.4byte	.LCFI40
 2940 006c 0200     		.2byte	0x2
 2941 006e 7D       		.byte	0x7d
 2942 006f 00       		.sleb128 0
 2943 0070 36020000 		.4byte	.LCFI40
 2944 0074 38020000 		.4byte	.LCFI41
 2945 0078 0200     		.2byte	0x2
 2946 007a 7D       		.byte	0x7d
 2947 007b 08       		.sleb128 8
 2948 007c 38020000 		.4byte	.LCFI41
ARM GAS  G:\Users\Jaxb\AppData\Local\Temp\ccK3fA7G.s 			page 61


 2949 0080 3A020000 		.4byte	.LCFI42
 2950 0084 0200     		.2byte	0x2
 2951 0086 7D       		.byte	0x7d
 2952 0087 18       		.sleb128 24
 2953 0088 3A020000 		.4byte	.LCFI42
 2954 008c 52030000 		.4byte	.LCFI43
 2955 0090 0200     		.2byte	0x2
 2956 0092 77       		.byte	0x77
 2957 0093 18       		.sleb128 24
 2958 0094 52030000 		.4byte	.LCFI43
 2959 0098 54030000 		.4byte	.LCFI44
 2960 009c 0200     		.2byte	0x2
 2961 009e 77       		.byte	0x77
 2962 009f 08       		.sleb128 8
 2963 00a0 54030000 		.4byte	.LCFI44
 2964 00a4 68030000 		.4byte	.LFE23
 2965 00a8 0200     		.2byte	0x2
 2966 00aa 7D       		.byte	0x7d
 2967 00ab 08       		.sleb128 8
 2968 00ac 00000000 		.4byte	0
 2969 00b0 00000000 		.4byte	0
 2970              	.LLST9:
 2971 00b4 26020000 		.4byte	.LFB22
 2972 00b8 28020000 		.4byte	.LCFI39
 2973 00bc 0200     		.2byte	0x2
 2974 00be 7D       		.byte	0x7d
 2975 00bf 00       		.sleb128 0
 2976 00c0 28020000 		.4byte	.LCFI39
 2977 00c4 34020000 		.4byte	.LFE22
 2978 00c8 0200     		.2byte	0x2
 2979 00ca 7D       		.byte	0x7d
 2980 00cb 08       		.sleb128 8
 2981 00cc 00000000 		.4byte	0
 2982 00d0 00000000 		.4byte	0
 2983              	.LLST8:
 2984 00d4 48000000 		.4byte	.LFB21
 2985 00d8 4A000000 		.4byte	.LCFI36
 2986 00dc 0200     		.2byte	0x2
 2987 00de 7D       		.byte	0x7d
 2988 00df 00       		.sleb128 0
 2989 00e0 4A000000 		.4byte	.LCFI36
 2990 00e4 4C000000 		.4byte	.LCFI37
 2991 00e8 0200     		.2byte	0x2
 2992 00ea 7D       		.byte	0x7d
 2993 00eb 08       		.sleb128 8
 2994 00ec 4C000000 		.4byte	.LCFI37
 2995 00f0 4E000000 		.4byte	.LCFI38
 2996 00f4 0200     		.2byte	0x2
 2997 00f6 7D       		.byte	0x7d
 2998 00f7 18       		.sleb128 24
 2999 00f8 4E000000 		.4byte	.LCFI38
 3000 00fc F0000000 		.4byte	.LFE21
 3001 0100 0200     		.2byte	0x2
 3002 0102 77       		.byte	0x77
 3003 0103 08       		.sleb128 8
 3004 0104 00000000 		.4byte	0
 3005 0108 00000000 		.4byte	0
ARM GAS  G:\Users\Jaxb\AppData\Local\Temp\ccK3fA7G.s 			page 62


 3006              	.LLST7:
 3007 010c 00020000 		.4byte	.LFB20
 3008 0110 02020000 		.4byte	.LCFI31
 3009 0114 0200     		.2byte	0x2
 3010 0116 7D       		.byte	0x7d
 3011 0117 00       		.sleb128 0
 3012 0118 02020000 		.4byte	.LCFI31
 3013 011c 04020000 		.4byte	.LCFI32
 3014 0120 0200     		.2byte	0x2
 3015 0122 7D       		.byte	0x7d
 3016 0123 08       		.sleb128 8
 3017 0124 04020000 		.4byte	.LCFI32
 3018 0128 06020000 		.4byte	.LCFI33
 3019 012c 0200     		.2byte	0x2
 3020 012e 7D       		.byte	0x7d
 3021 012f 10       		.sleb128 16
 3022 0130 06020000 		.4byte	.LCFI33
 3023 0134 22020000 		.4byte	.LCFI34
 3024 0138 0200     		.2byte	0x2
 3025 013a 77       		.byte	0x77
 3026 013b 10       		.sleb128 16
 3027 013c 22020000 		.4byte	.LCFI34
 3028 0140 24020000 		.4byte	.LCFI35
 3029 0144 0200     		.2byte	0x2
 3030 0146 77       		.byte	0x77
 3031 0147 08       		.sleb128 8
 3032 0148 24020000 		.4byte	.LCFI35
 3033 014c 26020000 		.4byte	.LFE20
 3034 0150 0200     		.2byte	0x2
 3035 0152 7D       		.byte	0x7d
 3036 0153 08       		.sleb128 8
 3037 0154 00000000 		.4byte	0
 3038 0158 00000000 		.4byte	0
 3039              	.LLST6:
 3040 015c D0010000 		.4byte	.LFB19
 3041 0160 D2010000 		.4byte	.LCFI28
 3042 0164 0200     		.2byte	0x2
 3043 0166 7D       		.byte	0x7d
 3044 0167 00       		.sleb128 0
 3045 0168 D2010000 		.4byte	.LCFI28
 3046 016c D4010000 		.4byte	.LCFI29
 3047 0170 0200     		.2byte	0x2
 3048 0172 7D       		.byte	0x7d
 3049 0173 0C       		.sleb128 12
 3050 0174 D4010000 		.4byte	.LCFI29
 3051 0178 D6010000 		.4byte	.LCFI30
 3052 017c 0200     		.2byte	0x2
 3053 017e 7D       		.byte	0x7d
 3054 017f 20       		.sleb128 32
 3055 0180 D6010000 		.4byte	.LCFI30
 3056 0184 00020000 		.4byte	.LFE19
 3057 0188 0200     		.2byte	0x2
 3058 018a 77       		.byte	0x77
 3059 018b 20       		.sleb128 32
 3060 018c 00000000 		.4byte	0
 3061 0190 00000000 		.4byte	0
 3062              	.LLST5:
ARM GAS  G:\Users\Jaxb\AppData\Local\Temp\ccK3fA7G.s 			page 63


 3063 0194 40010000 		.4byte	.LFB18
 3064 0198 42010000 		.4byte	.LCFI23
 3065 019c 0200     		.2byte	0x2
 3066 019e 7D       		.byte	0x7d
 3067 019f 00       		.sleb128 0
 3068 01a0 42010000 		.4byte	.LCFI23
 3069 01a4 44010000 		.4byte	.LCFI24
 3070 01a8 0200     		.2byte	0x2
 3071 01aa 7D       		.byte	0x7d
 3072 01ab 0C       		.sleb128 12
 3073 01ac 44010000 		.4byte	.LCFI24
 3074 01b0 46010000 		.4byte	.LCFI25
 3075 01b4 0200     		.2byte	0x2
 3076 01b6 7D       		.byte	0x7d
 3077 01b7 18       		.sleb128 24
 3078 01b8 46010000 		.4byte	.LCFI25
 3079 01bc BC010000 		.4byte	.LCFI26
 3080 01c0 0200     		.2byte	0x2
 3081 01c2 77       		.byte	0x77
 3082 01c3 18       		.sleb128 24
 3083 01c4 BC010000 		.4byte	.LCFI26
 3084 01c8 BE010000 		.4byte	.LCFI27
 3085 01cc 0200     		.2byte	0x2
 3086 01ce 77       		.byte	0x77
 3087 01cf 0C       		.sleb128 12
 3088 01d0 BE010000 		.4byte	.LCFI27
 3089 01d4 D0010000 		.4byte	.LFE18
 3090 01d8 0200     		.2byte	0x2
 3091 01da 7D       		.byte	0x7d
 3092 01db 0C       		.sleb128 12
 3093 01dc 00000000 		.4byte	0
 3094 01e0 00000000 		.4byte	0
 3095              	.LLST4:
 3096 01e4 62000000 		.4byte	.LFB17
 3097 01e8 64000000 		.4byte	.LCFI19
 3098 01ec 0200     		.2byte	0x2
 3099 01ee 7D       		.byte	0x7d
 3100 01ef 00       		.sleb128 0
 3101 01f0 64000000 		.4byte	.LCFI19
 3102 01f4 66000000 		.4byte	.LCFI20
 3103 01f8 0200     		.2byte	0x2
 3104 01fa 7D       		.byte	0x7d
 3105 01fb 08       		.sleb128 8
 3106 01fc 66000000 		.4byte	.LCFI20
 3107 0200 68000000 		.4byte	.LCFI21
 3108 0204 0200     		.2byte	0x2
 3109 0206 7D       		.byte	0x7d
 3110 0207 18       		.sleb128 24
 3111 0208 68000000 		.4byte	.LCFI21
 3112 020c 0C010000 		.4byte	.LCFI22
 3113 0210 0200     		.2byte	0x2
 3114 0212 77       		.byte	0x77
 3115 0213 08       		.sleb128 8
 3116 0214 0C010000 		.4byte	.LCFI22
 3117 0218 40010000 		.4byte	.LFE17
 3118 021c 0200     		.2byte	0x2
 3119 021e 7D       		.byte	0x7d
ARM GAS  G:\Users\Jaxb\AppData\Local\Temp\ccK3fA7G.s 			page 64


 3120 021f 08       		.sleb128 8
 3121 0220 00000000 		.4byte	0
 3122 0224 00000000 		.4byte	0
 3123              	.LLST3:
 3124 0228 00000000 		.4byte	.LFB16
 3125 022c 02000000 		.4byte	.LCFI17
 3126 0230 0200     		.2byte	0x2
 3127 0232 7D       		.byte	0x7d
 3128 0233 00       		.sleb128 0
 3129 0234 02000000 		.4byte	.LCFI17
 3130 0238 04000000 		.4byte	.LCFI18
 3131 023c 0200     		.2byte	0x2
 3132 023e 7D       		.byte	0x7d
 3133 023f 10       		.sleb128 16
 3134 0240 04000000 		.4byte	.LCFI18
 3135 0244 48000000 		.4byte	.LFE16
 3136 0248 0200     		.2byte	0x2
 3137 024a 77       		.byte	0x77
 3138 024b 10       		.sleb128 16
 3139 024c 00000000 		.4byte	0
 3140 0250 00000000 		.4byte	0
 3141              	.LLST2:
 3142 0254 40000000 		.4byte	.LFB11
 3143 0258 42000000 		.4byte	.LCFI11
 3144 025c 0200     		.2byte	0x2
 3145 025e 7D       		.byte	0x7d
 3146 025f 00       		.sleb128 0
 3147 0260 42000000 		.4byte	.LCFI11
 3148 0264 44000000 		.4byte	.LCFI12
 3149 0268 0200     		.2byte	0x2
 3150 026a 7D       		.byte	0x7d
 3151 026b 04       		.sleb128 4
 3152 026c 44000000 		.4byte	.LCFI12
 3153 0270 46000000 		.4byte	.LCFI13
 3154 0274 0200     		.2byte	0x2
 3155 0276 7D       		.byte	0x7d
 3156 0277 10       		.sleb128 16
 3157 0278 46000000 		.4byte	.LCFI13
 3158 027c 5C000000 		.4byte	.LCFI14
 3159 0280 0200     		.2byte	0x2
 3160 0282 77       		.byte	0x77
 3161 0283 10       		.sleb128 16
 3162 0284 5C000000 		.4byte	.LCFI14
 3163 0288 5E000000 		.4byte	.LCFI15
 3164 028c 0200     		.2byte	0x2
 3165 028e 77       		.byte	0x77
 3166 028f 04       		.sleb128 4
 3167 0290 5E000000 		.4byte	.LCFI15
 3168 0294 60000000 		.4byte	.LCFI16
 3169 0298 0200     		.2byte	0x2
 3170 029a 7D       		.byte	0x7d
 3171 029b 04       		.sleb128 4
 3172 029c 60000000 		.4byte	.LCFI16
 3173 02a0 62000000 		.4byte	.LFE11
 3174 02a4 0200     		.2byte	0x2
 3175 02a6 7D       		.byte	0x7d
 3176 02a7 00       		.sleb128 0
ARM GAS  G:\Users\Jaxb\AppData\Local\Temp\ccK3fA7G.s 			page 65


 3177 02a8 00000000 		.4byte	0
 3178 02ac 00000000 		.4byte	0
 3179              	.LLST1:
 3180 02b0 20000000 		.4byte	.LFB7
 3181 02b4 22000000 		.4byte	.LCFI6
 3182 02b8 0200     		.2byte	0x2
 3183 02ba 7D       		.byte	0x7d
 3184 02bb 00       		.sleb128 0
 3185 02bc 22000000 		.4byte	.LCFI6
 3186 02c0 24000000 		.4byte	.LCFI7
 3187 02c4 0200     		.2byte	0x2
 3188 02c6 7D       		.byte	0x7d
 3189 02c7 08       		.sleb128 8
 3190 02c8 24000000 		.4byte	.LCFI7
 3191 02cc 26000000 		.4byte	.LCFI8
 3192 02d0 0200     		.2byte	0x2
 3193 02d2 7D       		.byte	0x7d
 3194 02d3 10       		.sleb128 16
 3195 02d4 26000000 		.4byte	.LCFI8
 3196 02d8 3C000000 		.4byte	.LCFI9
 3197 02dc 0200     		.2byte	0x2
 3198 02de 77       		.byte	0x77
 3199 02df 10       		.sleb128 16
 3200 02e0 3C000000 		.4byte	.LCFI9
 3201 02e4 3E000000 		.4byte	.LCFI10
 3202 02e8 0200     		.2byte	0x2
 3203 02ea 77       		.byte	0x77
 3204 02eb 08       		.sleb128 8
 3205 02ec 3E000000 		.4byte	.LCFI10
 3206 02f0 40000000 		.4byte	.LFE7
 3207 02f4 0200     		.2byte	0x2
 3208 02f6 7D       		.byte	0x7d
 3209 02f7 08       		.sleb128 8
 3210 02f8 00000000 		.4byte	0
 3211 02fc 00000000 		.4byte	0
 3212              	.LLST0:
 3213 0300 00000000 		.4byte	.LFB6
 3214 0304 02000000 		.4byte	.LCFI0
 3215 0308 0200     		.2byte	0x2
 3216 030a 7D       		.byte	0x7d
 3217 030b 00       		.sleb128 0
 3218 030c 02000000 		.4byte	.LCFI0
 3219 0310 04000000 		.4byte	.LCFI1
 3220 0314 0200     		.2byte	0x2
 3221 0316 7D       		.byte	0x7d
 3222 0317 04       		.sleb128 4
 3223 0318 04000000 		.4byte	.LCFI1
 3224 031c 06000000 		.4byte	.LCFI2
 3225 0320 0200     		.2byte	0x2
 3226 0322 7D       		.byte	0x7d
 3227 0323 10       		.sleb128 16
 3228 0324 06000000 		.4byte	.LCFI2
 3229 0328 1A000000 		.4byte	.LCFI3
 3230 032c 0200     		.2byte	0x2
 3231 032e 77       		.byte	0x77
 3232 032f 10       		.sleb128 16
 3233 0330 1A000000 		.4byte	.LCFI3
ARM GAS  G:\Users\Jaxb\AppData\Local\Temp\ccK3fA7G.s 			page 66


 3234 0334 1C000000 		.4byte	.LCFI4
 3235 0338 0200     		.2byte	0x2
 3236 033a 77       		.byte	0x77
 3237 033b 04       		.sleb128 4
 3238 033c 1C000000 		.4byte	.LCFI4
 3239 0340 1E000000 		.4byte	.LCFI5
 3240 0344 0200     		.2byte	0x2
 3241 0346 7D       		.byte	0x7d
 3242 0347 04       		.sleb128 4
 3243 0348 1E000000 		.4byte	.LCFI5
 3244 034c 20000000 		.4byte	.LFE6
 3245 0350 0200     		.2byte	0x2
 3246 0352 7D       		.byte	0x7d
 3247 0353 00       		.sleb128 0
 3248 0354 00000000 		.4byte	0
 3249 0358 00000000 		.4byte	0
 3250              		.section	.debug_aranges,"",%progbits
 3251 0000 2C000000 		.4byte	0x2c
 3252 0004 0200     		.2byte	0x2
 3253 0006 00000000 		.4byte	.Ldebug_info0
 3254 000a 04       		.byte	0x4
 3255 000b 00       		.byte	0
 3256 000c 0000     		.2byte	0
 3257 000e 0000     		.2byte	0
 3258 0010 00000000 		.4byte	.Ltext0
 3259 0014 3C040000 		.4byte	.Letext0-.Ltext0
 3260 0018 00000000 		.4byte	.LFB16
 3261 001c 48000000 		.4byte	.LFE16-.LFB16
 3262 0020 48000000 		.4byte	.LFB21
 3263 0024 A8000000 		.4byte	.LFE21-.LFB21
 3264 0028 00000000 		.4byte	0
 3265 002c 00000000 		.4byte	0
 3266              		.section	.debug_ranges,"",%progbits
 3267              	.Ldebug_ranges0:
 3268 0000 00000000 		.4byte	.Ltext0
 3269 0004 3C040000 		.4byte	.Letext0
 3270 0008 00000000 		.4byte	.LFB16
 3271 000c 48000000 		.4byte	.LFE16
 3272 0010 48000000 		.4byte	.LFB21
 3273 0014 F0000000 		.4byte	.LFE21
 3274 0018 00000000 		.4byte	0
 3275 001c 00000000 		.4byte	0
 3276              		.section	.debug_line,"",%progbits
 3277              	.Ldebug_line0:
 3278 0000 53020000 		.section	.debug_str,"MS",%progbits,1
 3278      02000F01 
 3278      00000201 
 3278      FB0E0D00 
 3278      01010101 
 3279              	.LASF63:
 3280 0000 63757272 		.ascii	"current_page_num\000"
 3280      656E745F 
 3280      70616765 
 3280      5F6E756D 
 3280      00
 3281              	.LASF36:
 3282 0011 73757370 		.ascii	"suspend_list\000"
ARM GAS  G:\Users\Jaxb\AppData\Local\Temp\ccK3fA7G.s 			page 67


 3282      656E645F 
 3282      6C697374 
 3282      00
 3283              	.LASF25:
 3284 001e 5441534B 		.ascii	"TASK_PRIO_TYPE\000"
 3284      5F505249 
 3284      4F5F5459 
 3284      504500
 3285              	.LASF10:
 3286 002d 73697A65 		.ascii	"size_t\000"
 3286      5F7400
 3287              	.LASF43:
 3288 0034 4350555F 		.ascii	"CPU_INT32U\000"
 3288      494E5433 
 3288      325500
 3289              	.LASF78:
 3290 003f 66756C6C 		.ascii	"full_block_num\000"
 3290      5F626C6F 
 3290      636B5F6E 
 3290      756D00
 3291              	.LASF12:
 3292 004e 70726576 		.ascii	"prev\000"
 3292      00
 3293              	.LASF40:
 3294 0053 61747472 		.ascii	"attribution\000"
 3294      69627574 
 3294      696F6E00 
 3295              	.LASF115:
 3296 005f 46617374 		.ascii	"FastLog2\000"
 3296      4C6F6732 
 3296      00
 3297              	.LASF112:
 3298 0068 6370755F 		.ascii	"cpu_sr\000"
 3298      737200
 3299              	.LASF50:
 3300 006f 666C6167 		.ascii	"flag_array_num\000"
 3300      5F617272 
 3300      61795F6E 
 3300      756D00
 3301              	.LASF9:
 3302 007e 6C6F6E67 		.ascii	"long long unsigned int\000"
 3302      206C6F6E 
 3302      6720756E 
 3302      7369676E 
 3302      65642069 
 3303              	.LASF45:
 3304 0095 62756464 		.ascii	"buddy_space_struct\000"
 3304      795F7370 
 3304      6163655F 
 3304      73747275 
 3304      637400
 3305              	.LASF58:
 3306 00a8 6F726465 		.ascii	"order_link_first\000"
 3306      725F6C69 
 3306      6E6B5F66 
 3306      69727374 
 3306      00
ARM GAS  G:\Users\Jaxb\AppData\Local\Temp\ccK3fA7G.s 			page 68


 3307              	.LASF23:
 3308 00b9 5441534B 		.ascii	"TASK_STATE\000"
 3308      5F535441 
 3308      544500
 3309              	.LASF11:
 3310 00c4 6E657874 		.ascii	"next\000"
 3310      00
 3311              	.LASF27:
 3312 00c9 7461736B 		.ascii	"task_control_block_struct\000"
 3312      5F636F6E 
 3312      74726F6C 
 3312      5F626C6F 
 3312      636B5F73 
 3313              	.LASF3:
 3314 00e3 6C6F6E67 		.ascii	"long long int\000"
 3314      206C6F6E 
 3314      6720696E 
 3314      7400
 3315              	.LASF1:
 3316 00f1 7369676E 		.ascii	"signed char\000"
 3316      65642063 
 3316      68617200 
 3317              	.LASF32:
 3318 00fd 72657365 		.ascii	"reserve_prio\000"
 3318      7276655F 
 3318      7072696F 
 3318      00
 3319              	.LASF109:
 3320 010a 7365745F 		.ascii	"set_inter_stack\000"
 3320      696E7465 
 3320      725F7374 
 3320      61636B00 
 3321              	.LASF59:
 3322 011a 6F726465 		.ascii	"order_link_flag\000"
 3322      725F6C69 
 3322      6E6B5F66 
 3322      6C616700 
 3323              	.LASF57:
 3324 012a 6C696E6B 		.ascii	"link_body\000"
 3324      5F626F64 
 3324      7900
 3325              	.LASF114:
 3326 0134 7461736B 		.ascii	"task_start\000"
 3326      5F737461 
 3326      727400
 3327              	.LASF72:
 3328 013f 736C6162 		.ascii	"slabs_partial\000"
 3328      735F7061 
 3328      72746961 
 3328      6C00
 3329              	.LASF71:
 3330 014d 736C6162 		.ascii	"slabs_full\000"
 3330      735F6675 
 3330      6C6C00
 3331              	.LASF73:
 3332 0158 736C6162 		.ascii	"slabs_empty\000"
 3332      735F656D 
ARM GAS  G:\Users\Jaxb\AppData\Local\Temp\ccK3fA7G.s 			page 69


 3332      70747900 
 3333              	.LASF35:
 3334 0164 73616D65 		.ascii	"same_prio_list\000"
 3334      5F707269 
 3334      6F5F6C69 
 3334      737400
 3335              	.LASF111:
 3336 0173 69646C65 		.ascii	"idle\000"
 3336      00
 3337              	.LASF67:
 3338 0178 696E7365 		.ascii	"insert_list\000"
 3338      72745F6C 
 3338      69737400 
 3339              	.LASF60:
 3340 0184 6F726465 		.ascii	"order_array\000"
 3340      725F6172 
 3340      72617900 
 3341              	.LASF6:
 3342 0190 55494E54 		.ascii	"UINT16\000"
 3342      313600
 3343              	.LASF52:
 3344 0197 6D61785F 		.ascii	"max_level\000"
 3344      6C657665 
 3344      6C00
 3345              	.LASF19:
 3346 01a1 53544154 		.ascii	"STATE_WAIT_MESSAGE_QUEUE_TIMEOUT\000"
 3346      455F5741 
 3346      49545F4D 
 3346      45535341 
 3346      47455F51 
 3347              	.LASF126:
 3348 01c2 5F5F6C69 		.ascii	"__list_del\000"
 3348      73745F64 
 3348      656C00
 3349              	.LASF98:
 3350 01cd 706F7331 		.ascii	"pos1\000"
 3350      00
 3351              	.LASF99:
 3352 01d2 706F7332 		.ascii	"pos2\000"
 3352      00
 3353              	.LASF20:
 3354 01d7 53544154 		.ascii	"STATE_PUT_MESSAGE_QUEUE_FOREVER\000"
 3354      455F5055 
 3354      545F4D45 
 3354      53534147 
 3354      455F5155 
 3355              	.LASF68:
 3356 01f7 696E7365 		.ascii	"insert\000"
 3356      727400
 3357              	.LASF0:
 3358 01fe 756E7369 		.ascii	"unsigned int\000"
 3358      676E6564 
 3358      20696E74 
 3358      00
 3359              	.LASF79:
 3360 020b 626C6F63 		.ascii	"block_size\000"
 3360      6B5F7369 
ARM GAS  G:\Users\Jaxb\AppData\Local\Temp\ccK3fA7G.s 			page 70


 3360      7A6500
 3361              	.LASF65:
 3362 0216 62756464 		.ascii	"buddy_space_start_ptr\000"
 3362      795F7370 
 3362      6163655F 
 3362      73746172 
 3362      745F7074 
 3363              	.LASF14:
 3364 022c 53544154 		.ascii	"STATE_DELAY\000"
 3364      455F4445 
 3364      4C415900 
 3365              	.LASF103:
 3366 0238 62756464 		.ascii	"buddy_ptr\000"
 3366      795F7074 
 3366      7200
 3367              	.LASF105:
 3368 0242 6C6F6E67 		.ascii	"long unsigned int\000"
 3368      20756E73 
 3368      69676E65 
 3368      6420696E 
 3368      7400
 3369              	.LASF48:
 3370 0254 42756464 		.ascii	"Buddy_Space_Type\000"
 3370      795F5370 
 3370      6163655F 
 3370      54797065 
 3370      00
 3371              	.LASF113:
 3372 0265 636F756E 		.ascii	"count_init\000"
 3372      745F696E 
 3372      697400
 3373              	.LASF47:
 3374 0270 50616765 		.ascii	"Page_Num_Type\000"
 3374      5F4E756D 
 3374      5F547970 
 3374      6500
 3375              	.LASF37:
 3376 027e 6E616D65 		.ascii	"name\000"
 3376      00
 3377              	.LASF102:
 3378 0283 6C657665 		.ascii	"level\000"
 3378      6C00
 3379              	.LASF5:
 3380 0289 73686F72 		.ascii	"short unsigned int\000"
 3380      7420756E 
 3380      7369676E 
 3380      65642069 
 3380      6E7400
 3381              	.LASF46:
 3382 029c 466C6167 		.ascii	"Flag_Type\000"
 3382      5F547970 
 3382      6500
 3383              	.LASF100:
 3384 02a6 736C6162 		.ascii	"slab_ptr\000"
 3384      5F707472 
 3384      00
 3385              	.LASF88:
ARM GAS  G:\Users\Jaxb\AppData\Local\Temp\ccK3fA7G.s 			page 71


 3386 02af 69646C65 		.ascii	"idle_num\000"
 3386      5F6E756D 
 3386      00
 3387              	.LASF84:
 3388 02b8 5443425F 		.ascii	"TCB_idle\000"
 3388      69646C65 
 3388      00
 3389              	.LASF119:
 3390 02c1 656E7472 		.ascii	"entry\000"
 3390      7900
 3391              	.LASF75:
 3392 02c7 73746172 		.ascii	"start_ptr\000"
 3392      745F7074 
 3392      7200
 3393              	.LASF124:
 3394 02d1 5F636173 		.ascii	"_case_slab_free_buddy\000"
 3394      655F736C 
 3394      61625F66 
 3394      7265655F 
 3394      62756464 
 3395              	.LASF44:
 3396 02e7 4350555F 		.ascii	"CPU_SR\000"
 3396      535200
 3397              	.LASF123:
 3398 02ee 5461736B 		.ascii	"Task_State\000"
 3398      5F537461 
 3398      746500
 3399              	.LASF61:
 3400 02f9 6C657665 		.ascii	"level_flag_base\000"
 3400      6C5F666C 
 3400      61675F62 
 3400      61736500 
 3401              	.LASF55:
 3402 0309 62756464 		.ascii	"buddy\000"
 3402      7900
 3403              	.LASF76:
 3404 030f 656E645F 		.ascii	"end_ptr\000"
 3404      70747200 
 3405              	.LASF80:
 3406 0317 736C6162 		.ascii	"slab_chain\000"
 3406      5F636861 
 3406      696E00
 3407              	.LASF95:
 3408 0322 494C5F70 		.ascii	"IL_ptr\000"
 3408      747200
 3409              	.LASF106:
 3410 0329 72656379 		.ascii	"recycle_memory\000"
 3410      636C655F 
 3410      6D656D6F 
 3410      727900
 3411              	.LASF116:
 3412 0338 6C697374 		.ascii	"list_empty\000"
 3412      5F656D70 
 3412      747900
 3413              	.LASF94:
 3414 0343 63616368 		.ascii	"cache_chain_head_ptr\000"
 3414      655F6368 
ARM GAS  G:\Users\Jaxb\AppData\Local\Temp\ccK3fA7G.s 			page 72


 3414      61696E5F 
 3414      68656164 
 3414      5F707472 
 3415              	.LASF13:
 3416 0358 53544154 		.ascii	"STATE_READY\000"
 3416      455F5245 
 3416      41445900 
 3417              	.LASF7:
 3418 0364 55494E54 		.ascii	"UINT32\000"
 3418      333200
 3419              	.LASF70:
 3420 036b 6B6D656D 		.ascii	"kmem_cache_insert_chain\000"
 3420      5F636163 
 3420      68655F69 
 3420      6E736572 
 3420      745F6368 
 3421              	.LASF93:
 3422 0383 4F535443 		.ascii	"OSTCBHighRdyPtr\000"
 3422      42486967 
 3422      68526479 
 3422      50747200 
 3423              	.LASF74:
 3424 0393 736C6162 		.ascii	"slab\000"
 3424      00
 3425              	.LASF39:
 3426 0398 74696D65 		.ascii	"timeslice_rest_time\000"
 3426      736C6963 
 3426      655F7265 
 3426      73745F74 
 3426      696D6500 
 3427              	.LASF31:
 3428 03ac 7072696F 		.ascii	"prio\000"
 3428      00
 3429              	.LASF16:
 3430 03b1 53544154 		.ascii	"STATE_WAIT_MCB_FOREVER\000"
 3430      455F5741 
 3430      49545F4D 
 3430      43425F46 
 3430      4F524556 
 3431              	.LASF89:
 3432 03c8 636F756E 		.ascii	"count_max_num\000"
 3432      745F6D61 
 3432      785F6E75 
 3432      6D00
 3433              	.LASF121:
 3434 03d6 2E2E2F2E 		.ascii	"../../source/src/kernel/OS_CORE/osinit.c\000"
 3434      2E2F736F 
 3434      75726365 
 3434      2F737263 
 3434      2F6B6572 
 3435              	.LASF30:
 3436 03ff 73746163 		.ascii	"stack_end\000"
 3436      6B5F656E 
 3436      6400
 3437              	.LASF104:
 3438 0409 666C6F61 		.ascii	"float\000"
 3438      7400
ARM GAS  G:\Users\Jaxb\AppData\Local\Temp\ccK3fA7G.s 			page 73


 3439              	.LASF22:
 3440 040f 53544154 		.ascii	"STATE_WAIT_MUTEX_FOREVER\000"
 3440      455F5741 
 3440      49545F4D 
 3440      55544558 
 3440      5F464F52 
 3441              	.LASF110:
 3442 0428 4D53505F 		.ascii	"MSP_top\000"
 3442      746F7000 
 3443              	.LASF53:
 3444 0430 6C657665 		.ascii	"level_flag_base_size\000"
 3444      6C5F666C 
 3444      61675F62 
 3444      6173655F 
 3444      73697A65 
 3445              	.LASF120:
 3446 0445 474E5520 		.ascii	"GNU C11 7.3.1 20180622 (release) [ARM/embedded-7-br"
 3446      43313120 
 3446      372E332E 
 3446      31203230 
 3446      31383036 
 3447 0478 616E6368 		.ascii	"anch revision 261907] -mcpu=cortex-m3 -mthumb -mapc"
 3447      20726576 
 3447      6973696F 
 3447      6E203236 
 3447      31393037 
 3448 04ab 732D6672 		.ascii	"s-frame -mthumb-interwork -mcpu=cortex-m3 -mthumb -"
 3448      616D6520 
 3448      2D6D7468 
 3448      756D622D 
 3448      696E7465 
 3449 04de 67647761 		.ascii	"gdwarf-2 -O0\000"
 3449      72662D32 
 3449      202D4F30 
 3449      00
 3450              	.LASF85:
 3451 04eb 675F696E 		.ascii	"g_interrupt_count\000"
 3451      74657272 
 3451      7570745F 
 3451      636F756E 
 3451      7400
 3452              	.LASF4:
 3453 04fd 756E7369 		.ascii	"unsigned char\000"
 3453      676E6564 
 3453      20636861 
 3453      7200
 3454              	.LASF125:
 3455 050b 6F735F69 		.ascii	"os_init\000"
 3455      6E697400 
 3456              	.LASF2:
 3457 0513 73686F72 		.ascii	"short int\000"
 3457      7420696E 
 3457      7400
 3458              	.LASF64:
 3459 051d 696E666F 		.ascii	"info\000"
 3459      00
 3460              	.LASF56:
ARM GAS  G:\Users\Jaxb\AppData\Local\Temp\ccK3fA7G.s 			page 74


 3461 0522 666C6167 		.ascii	"flag\000"
 3461      00
 3462              	.LASF54:
 3463 0527 6F726465 		.ascii	"order_link\000"
 3463      725F6C69 
 3463      6E6B00
 3464              	.LASF97:
 3465 0532 5F5F6D70 		.ascii	"__mptr\000"
 3465      747200
 3466              	.LASF49:
 3467 0539 62756464 		.ascii	"buddy_info\000"
 3467      795F696E 
 3467      666F00
 3468              	.LASF82:
 3469 0544 5443425F 		.ascii	"TCB_shell\000"
 3469      7368656C 
 3469      6C00
 3470              	.LASF21:
 3471 054e 53544154 		.ascii	"STATE_PUT_MESSAGE_QUEUE_TIMEOUT\000"
 3471      455F5055 
 3471      545F4D45 
 3471      53534147 
 3471      455F5155 
 3472              	.LASF117:
 3473 056e 68656164 		.ascii	"head\000"
 3473      00
 3474              	.LASF90:
 3475 0573 675F7363 		.ascii	"g_schedule_lock\000"
 3475      68656475 
 3475      6C655F6C 
 3475      6F636B00 
 3476              	.LASF42:
 3477 0583 63686172 		.ascii	"char\000"
 3477      00
 3478              	.LASF38:
 3479 0588 74696D65 		.ascii	"timeslice_hope_time\000"
 3479      736C6963 
 3479      655F686F 
 3479      70655F74 
 3479      696D6500 
 3480              	.LASF83:
 3481 059c 5443425F 		.ascii	"TCB_init\000"
 3481      696E6974 
 3481      00
 3482              	.LASF26:
 3483 05a5 6C697374 		.ascii	"list_head\000"
 3483      5F686561 
 3483      6400
 3484              	.LASF91:
 3485 05af 675F7469 		.ascii	"g_time_tick_count\000"
 3485      6D655F74 
 3485      69636B5F 
 3485      636F756E 
 3485      7400
 3486              	.LASF41:
 3487 05c1 64656C61 		.ascii	"delay_reach_time\000"
 3487      795F7265 
ARM GAS  G:\Users\Jaxb\AppData\Local\Temp\ccK3fA7G.s 			page 75


 3487      6163685F 
 3487      74696D65 
 3487      00
 3488              	.LASF101:
 3489 05d2 70617261 		.ascii	"para\000"
 3489      00
 3490              	.LASF24:
 3491 05d7 53544143 		.ascii	"STACK_TYPE\000"
 3491      4B5F5459 
 3491      504500
 3492              	.LASF33:
 3493 05e2 7461736B 		.ascii	"task_state\000"
 3493      5F737461 
 3493      746500
 3494              	.LASF108:
 3495 05ed 74687265 		.ascii	"thread_init\000"
 3495      61645F69 
 3495      6E697400 
 3496              	.LASF66:
 3497 05f9 434F4D50 		.ascii	"COMPARE_TYPE\000"
 3497      4152455F 
 3497      54595045 
 3497      00
 3498              	.LASF92:
 3499 0606 4F535443 		.ascii	"OSTCBCurPtr\000"
 3499      42437572 
 3499      50747200 
 3500              	.LASF51:
 3501 0612 70616765 		.ascii	"page_num\000"
 3501      5F6E756D 
 3501      00
 3502              	.LASF15:
 3503 061b 53544154 		.ascii	"STATE_SUSPEND_NORMAL\000"
 3503      455F5355 
 3503      5350454E 
 3503      445F4E4F 
 3503      524D414C 
 3504              	.LASF87:
 3505 0630 5443425F 		.ascii	"TCB_timer_task\000"
 3505      74696D65 
 3505      725F7461 
 3505      736B00
 3506              	.LASF122:
 3507 063f 463A5C6B 		.ascii	"F:\\kaka\\KAKAOS\\C\\windows\\Project\\RVMDK\243\250"
 3507      616B615C 
 3507      4B414B41 
 3507      4F535C43 
 3507      5C77696E 
 3508 0667 757635A3 		.ascii	"uv5\243\251\000"
 3508      A900
 3509              	.LASF18:
 3510 066d 53544154 		.ascii	"STATE_WAIT_MESSAGE_QUEUE_FOREVER\000"
 3510      455F5741 
 3510      49545F4D 
 3510      45535341 
 3510      47455F51 
 3511              	.LASF29:
ARM GAS  G:\Users\Jaxb\AppData\Local\Temp\ccK3fA7G.s 			page 76


 3512 068e 73746163 		.ascii	"stack_size\000"
 3512      6B5F7369 
 3512      7A6500
 3513              	.LASF69:
 3514 0699 6B6D656D 		.ascii	"kmem_cache\000"
 3514      5F636163 
 3514      686500
 3515              	.LASF8:
 3516 06a4 55494E54 		.ascii	"UINT64\000"
 3516      363400
 3517              	.LASF96:
 3518 06ab 6B6D656D 		.ascii	"kmem_cache_ptr\000"
 3518      5F636163 
 3518      68655F70 
 3518      747200
 3519              	.LASF81:
 3520 06ba 626C6F63 		.ascii	"block_head\000"
 3520      6B5F6865 
 3520      616400
 3521              	.LASF107:
 3522 06c5 6F735F73 		.ascii	"os_start\000"
 3522      74617274 
 3522      00
 3523              	.LASF86:
 3524 06ce 5443425F 		.ascii	"TCB_count_init\000"
 3524      636F756E 
 3524      745F696E 
 3524      697400
 3525              	.LASF77:
 3526 06dd 63757272 		.ascii	"current_block_num\000"
 3526      656E745F 
 3526      626C6F63 
 3526      6B5F6E75 
 3526      6D00
 3527              	.LASF118:
 3528 06ef 6C697374 		.ascii	"list_del\000"
 3528      5F64656C 
 3528      00
 3529              	.LASF28:
 3530 06f8 73746163 		.ascii	"stack\000"
 3530      6B00
 3531              	.LASF62:
 3532 06fe 62756464 		.ascii	"buddy_struct_size\000"
 3532      795F7374 
 3532      72756374 
 3532      5F73697A 
 3532      6500
 3533              	.LASF17:
 3534 0710 53544154 		.ascii	"STATE_WAIT_MCB_TIMEOUT\000"
 3534      455F5741 
 3534      49545F4D 
 3534      43425F54 
 3534      494D454F 
 3535              	.LASF34:
 3536 0727 64656C61 		.ascii	"delay_heap_position\000"
 3536      795F6865 
 3536      61705F70 
ARM GAS  G:\Users\Jaxb\AppData\Local\Temp\ccK3fA7G.s 			page 77


 3536      6F736974 
 3536      696F6E00 
 3537              		.ident	"GCC: (GNU Tools for Arm Embedded Processors 7-2018-q2-update) 7.3.1 20180622 (release) [AR
ARM GAS  G:\Users\Jaxb\AppData\Local\Temp\ccK3fA7G.s 			page 78


DEFINED SYMBOLS
                            *ABS*:00000000 osinit.c
G:\Users\Jaxb\AppData\Local\Temp\ccK3fA7G.s:15     .text:00000000 $t
G:\Users\Jaxb\AppData\Local\Temp\ccK3fA7G.s:21     .text:00000000 __list_del
G:\Users\Jaxb\AppData\Local\Temp\ccK3fA7G.s:72     .text:00000020 list_del
G:\Users\Jaxb\AppData\Local\Temp\ccK3fA7G.s:117    .text:00000040 list_empty
G:\Users\Jaxb\AppData\Local\Temp\ccK3fA7G.s:162    .bss:00000000 $d
G:\Users\Jaxb\AppData\Local\Temp\ccK3fA7G.s:163    .bss:00000000 TCB_shell
G:\Users\Jaxb\AppData\Local\Temp\ccK3fA7G.s:167    .bss:00000048 TCB_init
G:\Users\Jaxb\AppData\Local\Temp\ccK3fA7G.s:171    .bss:00000090 TCB_idle
                            *COM*:00000048 TCB_count_init
                            *COM*:00000048 TCB_timer_task
G:\Users\Jaxb\AppData\Local\Temp\ccK3fA7G.s:180    .bss:000000d8 idle_num
G:\Users\Jaxb\AppData\Local\Temp\ccK3fA7G.s:186    .bss:000000e0 count_max_num
G:\Users\Jaxb\AppData\Local\Temp\ccK3fA7G.s:189    .INIT.TEXT:00000000 $t
G:\Users\Jaxb\AppData\Local\Temp\ccK3fA7G.s:195    .INIT.TEXT:00000000 os_init
G:\Users\Jaxb\AppData\Local\Temp\ccK3fA7G.s:245    .INIT.TEXT:00000040 $d
G:\Users\Jaxb\AppData\Local\Temp\ccK3fA7G.s:251    .rodata.str1.4:00000000 $d
G:\Users\Jaxb\AppData\Local\Temp\ccK3fA7G.s:274    .text:00000062 task_start
G:\Users\Jaxb\AppData\Local\Temp\ccK3fA7G.s:389    .text:00000110 $d
G:\Users\Jaxb\AppData\Local\Temp\ccK3fA7G.s:990    .text:00000368 thread_init
G:\Users\Jaxb\AppData\Local\Temp\ccK3fA7G.s:410    .text:00000140 $t
G:\Users\Jaxb\AppData\Local\Temp\ccK3fA7G.s:416    .text:00000140 count_init
G:\Users\Jaxb\AppData\Local\Temp\ccK3fA7G.s:500    .text:000001c0 $d
G:\Users\Jaxb\AppData\Local\Temp\ccK3fA7G.s:507    .text:000001d0 $t
G:\Users\Jaxb\AppData\Local\Temp\ccK3fA7G.s:513    .text:000001d0 idle
G:\Users\Jaxb\AppData\Local\Temp\ccK3fA7G.s:554    .text:000001fc $d
G:\Users\Jaxb\AppData\Local\Temp\ccK3fA7G.s:558    .text:00000200 $t
G:\Users\Jaxb\AppData\Local\Temp\ccK3fA7G.s:564    .text:00000200 set_inter_stack
G:\Users\Jaxb\AppData\Local\Temp\ccK3fA7G.s:623    .INIT.TEXT:00000048 $t
G:\Users\Jaxb\AppData\Local\Temp\ccK3fA7G.s:630    .INIT.TEXT:00000048 os_start
G:\Users\Jaxb\AppData\Local\Temp\ccK3fA7G.s:719    .INIT.TEXT:000000c8 $d
G:\Users\Jaxb\AppData\Local\Temp\ccK3fA7G.s:740    .text:00000226 FastLog2
G:\Users\Jaxb\AppData\Local\Temp\ccK3fA7G.s:780    .text:00000234 _case_slab_free_buddy
G:\Users\Jaxb\AppData\Local\Temp\ccK3fA7G.s:880    .text:000002cc $d
G:\Users\Jaxb\AppData\Local\Temp\ccK3fA7G.s:887    .text:000002e8 $t
G:\Users\Jaxb\AppData\Local\Temp\ccK3fA7G.s:977    .text:00000358 $d
G:\Users\Jaxb\AppData\Local\Temp\ccK3fA7G.s:984    .text:00000368 $t
G:\Users\Jaxb\AppData\Local\Temp\ccK3fA7G.s:1126   .text:00000420 $d
G:\Users\Jaxb\AppData\Local\Temp\ccK3fA7G.s:1131   .text:00000428 $t
G:\Users\Jaxb\AppData\Local\Temp\ccK3fA7G.s:1138   .text:00000428 recycle_memory
G:\Users\Jaxb\AppData\Local\Temp\ccK3fA7G.s:1161   .text:00000438 $d

UNDEFINED SYMBOLS
bsp_init
__init_my_micro_lib
__init_ready_group
__init_delay_heap
__init_TCB_list
__init_suspend_list
__init_system_time
__init_timer
__init_shell_debug
g_time_tick_count
g_interrupt_count
task_init_ready
ka_printf
ARM GAS  G:\Users\Jaxb\AppData\Local\Temp\ccK3fA7G.s 			page 79


task_creat_ready
shell
timer_task
three
__aeabi_uldivmod
sys_delay
schedule
g_schedule_lock
CPU_SR_Save
CPU_SR_Restore
alloc_power1_page
get_highest_prio_ready_TCB
__init_systick
OSStartHighRdy
_ASSERT
OSTCBCurPtr
OSTCBHighRdyPtr
__aeabi_i2f
in_os_memory
get_os_buddy_ptr_head
in_buddy_range
return_power1_page
return_power2_page
return_power3_page
return_power4_page
return_power5_page
return_power6_page
return_power7_page
get_next_buddy_ptr_head
cache_chain_head_ptr
remove_from_delay_heap
