ARM GAS  G:\Users\Jaxb\AppData\Local\Temp\cczgCVf5.s 			page 1


   1              		.cpu cortex-m3
   2              		.eabi_attribute 20, 1
   3              		.eabi_attribute 21, 1
   4              		.eabi_attribute 23, 3
   5              		.eabi_attribute 24, 1
   6              		.eabi_attribute 25, 1
   7              		.eabi_attribute 26, 1
   8              		.eabi_attribute 30, 2
   9              		.eabi_attribute 34, 1
  10              		.eabi_attribute 18, 4
  11              		.file	"shell_debug.c"
  12              		.text
  13              	.Ltext0:
  14              		.cfi_sections	.debug_frame
  15              		.align	1
  16              		.p2align 2,,3
  17              		.global	__init_shell_debug
  18              		.syntax unified
  19              		.thumb
  20              		.thumb_func
  21              		.fpu softvfp
  22              		.type	__init_shell_debug, %function
  23              	__init_shell_debug:
  24              	.LFB14:
  25              		.file 1 "../../source/src/kernel/SHELL/shell_debug.c"
   1:../../source/src/kernel/SHELL/shell_debug.c **** #include <shell_debug.h>
   2:../../source/src/kernel/SHELL/shell_debug.c **** #include <MCB.h>
   3:../../source/src/kernel/SHELL/shell_debug.c **** #include <myassert.h>
   4:../../source/src/kernel/SHELL/shell_debug.c **** #include <myMicroLIB.h>
   5:../../source/src/kernel/SHELL/shell_debug.c **** #include <kakaosstdint.h>
   6:../../source/src/kernel/SHELL/shell_debug.c **** 
   7:../../source/src/kernel/SHELL/shell_debug.c **** #if CONFIG_SHELL_DEBUG_EN && CONFIG_SHELL_EN
   8:../../source/src/kernel/SHELL/shell_debug.c **** 
   9:../../source/src/kernel/SHELL/shell_debug.c **** static MCB MCB_for_shell_debug;
  10:../../source/src/kernel/SHELL/shell_debug.c **** static int flag_for_shell_debug = 1;
  11:../../source/src/kernel/SHELL/shell_debug.c **** 
  12:../../source/src/kernel/SHELL/shell_debug.c **** static void __init_shell_variable_array(void);
  13:../../source/src/kernel/SHELL/shell_debug.c **** 
  14:../../source/src/kernel/SHELL/shell_debug.c **** inline void __init_shell_debug(void)
  15:../../source/src/kernel/SHELL/shell_debug.c **** {
  26              		.loc 1 15 0
  27              		.cfi_startproc
  28              		@ args = 0, pretend = 0, frame = 0
  29              		@ frame_needed = 0, uses_anonymous_args = 0
  30 0000 38B5     		push	{r3, r4, r5, lr}
  31              	.LCFI0:
  32              		.cfi_def_cfa_offset 16
  33              		.cfi_offset 3, -16
  34              		.cfi_offset 4, -12
  35              		.cfi_offset 5, -8
  36              		.cfi_offset 14, -4
  16:../../source/src/kernel/SHELL/shell_debug.c **** #if CONFIG_ASSERT_DEBUG
  17:../../source/src/kernel/SHELL/shell_debug.c **** 	int error;
  18:../../source/src/kernel/SHELL/shell_debug.c **** 	error = init_MCB(&MCB_for_shell_debug,0,MCB_TYPE_FLAG_BINARY);
  37              		.loc 1 18 0
  38 0002 0122     		movs	r2, #1
  39 0004 0021     		movs	r1, #0
ARM GAS  G:\Users\Jaxb\AppData\Local\Temp\cczgCVf5.s 			page 2


  40 0006 1148     		ldr	r0, .L8
  41 0008 FFF7FEFF 		bl	init_MCB
  42              	.LVL0:
  19:../../source/src/kernel/SHELL/shell_debug.c **** #else
  20:../../source/src/kernel/SHELL/shell_debug.c **** 	init_MCB(&MCB_for_shell_debug,0,MCB_TYPE_FLAG_BINARY);
  21:../../source/src/kernel/SHELL/shell_debug.c **** #endif
  22:../../source/src/kernel/SHELL/shell_debug.c **** 	ASSERT(FUN_EXECUTE_SUCCESSFULLY == error);
  43              		.loc 1 22 0
  44 000c C8B9     		cbnz	r0, .L7
  45              	.LVL1:
  46              	.L2:
  47              	.LBB18:
  48              	.LBB19:
  49              	.LBB20:
  50              	.LBB21:
  51              		.file 2 "../../source/include/os_lib/singly_linked_list.h"
   1:../../source/include/os_lib/singly_linked_list.h **** #ifndef _SINGLY_LINKED_LIST_H
   2:../../source/include/os_lib/singly_linked_list.h **** #define _SINGLY_LINKED_LIST_H
   3:../../source/include/os_lib/singly_linked_list.h **** 
   4:../../source/include/os_lib/singly_linked_list.h **** struct singly_list_head{
   5:../../source/include/os_lib/singly_linked_list.h **** 	struct singly_list_head *next;
   6:../../source/include/os_lib/singly_linked_list.h **** };
   7:../../source/include/os_lib/singly_linked_list.h **** 
   8:../../source/include/os_lib/singly_linked_list.h **** #define SINGLY_LIST_HEAD_INIT(name) { &(name) }
   9:../../source/include/os_lib/singly_linked_list.h **** 
  10:../../source/include/os_lib/singly_linked_list.h **** #define SINGLY_LIST_HEAD(name) \
  11:../../source/include/os_lib/singly_linked_list.h ****     struct singly_list_head name = SINGLY_LIST_HEAD_INIT(name)
  12:../../source/include/os_lib/singly_linked_list.h **** 
  13:../../source/include/os_lib/singly_linked_list.h **** static inline void INIT_SINGLY_LIST_HEAD(struct singly_list_head *list)
  14:../../source/include/os_lib/singly_linked_list.h **** {
  15:../../source/include/os_lib/singly_linked_list.h **** 	list->next = list;
  52              		.loc 2 15 0
  53 000e 0F4B     		ldr	r3, .L8
  54 0010 03F12000 		add	r0, r3, #32
  55 0014 03F12401 		add	r1, r3, #36
  56 0018 03F12802 		add	r2, r3, #40
  57 001c 03F12C05 		add	r5, r3, #44
  58 0020 03F13004 		add	r4, r3, #48
  59 0024 1862     		str	r0, [r3, #32]
  60              	.LVL2:
  61 0026 5962     		str	r1, [r3, #36]
  62              	.LVL3:
  63 0028 03F13400 		add	r0, r3, #52
  64 002c 03F13801 		add	r1, r3, #56
  65 0030 9A62     		str	r2, [r3, #40]
  66              	.LVL4:
  67 0032 03F13C02 		add	r2, r3, #60
  68 0036 C3E90B54 		strd	r5, r4, [r3, #44]
  69              	.LVL5:
  70 003a C3E90D01 		strd	r0, r1, [r3, #52]
  71              	.LVL6:
  72 003e DA63     		str	r2, [r3, #60]
  73              	.LVL7:
  74              	.LBE21:
  75              	.LBE20:
  76              	.LBE19:
  77              	.LBE18:
ARM GAS  G:\Users\Jaxb\AppData\Local\Temp\cczgCVf5.s 			page 3


  23:../../source/src/kernel/SHELL/shell_debug.c **** 	__init_shell_variable_array();
  24:../../source/src/kernel/SHELL/shell_debug.c **** }
  78              		.loc 1 24 0
  79 0040 38BD     		pop	{r3, r4, r5, pc}
  80              	.LVL8:
  81              	.L7:
  22:../../source/src/kernel/SHELL/shell_debug.c **** 	__init_shell_variable_array();
  82              		.loc 1 22 0 discriminator 1
  83 0042 1621     		movs	r1, #22
  84 0044 0248     		ldr	r0, .L8+4
  85              	.LVL9:
  86 0046 FFF7FEFF 		bl	_ASSERT
  87              	.LVL10:
  88 004a E0E7     		b	.L2
  89              	.L9:
  90              		.align	2
  91              	.L8:
  92 004c 00000000 		.word	.LANCHOR0
  93 0050 00000000 		.word	.LC0
  94              		.cfi_endproc
  95              	.LFE14:
  96              		.size	__init_shell_debug, .-__init_shell_debug
  97              		.align	1
  98              		.p2align 2,,3
  99              		.global	insert_break_point
 100              		.syntax unified
 101              		.thumb
 102              		.thumb_func
 103              		.fpu softvfp
 104              		.type	insert_break_point, %function
 105              	insert_break_point:
 106              	.LFB15:
  25:../../source/src/kernel/SHELL/shell_debug.c **** 
  26:../../source/src/kernel/SHELL/shell_debug.c **** void insert_break_point(char* file_name,unsigned line,const char* function_name)
  27:../../source/src/kernel/SHELL/shell_debug.c **** {
 107              		.loc 1 27 0
 108              		.cfi_startproc
 109              		@ args = 0, pretend = 0, frame = 0
 110              		@ frame_needed = 0, uses_anonymous_args = 0
 111              	.LVL11:
  28:../../source/src/kernel/SHELL/shell_debug.c **** #if CONFIG_ASSERT_DEBUG
  29:../../source/src/kernel/SHELL/shell_debug.c **** 	int error;
  30:../../source/src/kernel/SHELL/shell_debug.c **** #endif
  31:../../source/src/kernel/SHELL/shell_debug.c **** 	if(flag_for_shell_debug)
 112              		.loc 1 31 0
 113 0054 0D4B     		ldr	r3, .L18
  27:../../source/src/kernel/SHELL/shell_debug.c **** #if CONFIG_ASSERT_DEBUG
 114              		.loc 1 27 0
 115 0056 10B5     		push	{r4, lr}
 116              	.LCFI1:
 117              		.cfi_def_cfa_offset 8
 118              		.cfi_offset 4, -8
 119              		.cfi_offset 14, -4
 120              		.loc 1 31 0
 121 0058 1C68     		ldr	r4, [r3]
 122 005a 04B9     		cbnz	r4, .L17
 123              	.LVL12:
ARM GAS  G:\Users\Jaxb\AppData\Local\Temp\cczgCVf5.s 			page 4


 124              	.L10:
  32:../../source/src/kernel/SHELL/shell_debug.c **** 	{
  33:../../source/src/kernel/SHELL/shell_debug.c **** 		ka_printf("program stop,now going to file: %s,line %u,function name is %s\n",file_name,line,funct
  34:../../source/src/kernel/SHELL/shell_debug.c **** 		ka_printf("%s","kaka_os>>");
  35:../../source/src/kernel/SHELL/shell_debug.c **** #if CONFIG_ASSERT_DEBUG
  36:../../source/src/kernel/SHELL/shell_debug.c **** 		error = p(&MCB_for_shell_debug,MCB_FLAG_WAIT,0);
  37:../../source/src/kernel/SHELL/shell_debug.c **** #else
  38:../../source/src/kernel/SHELL/shell_debug.c **** 		p(&MCB_for_shell_debug,MCB_FLAG_WAIT,0);
  39:../../source/src/kernel/SHELL/shell_debug.c **** #endif
  40:../../source/src/kernel/SHELL/shell_debug.c **** 		ASSERT(FUN_EXECUTE_SUCCESSFULLY == error);
  41:../../source/src/kernel/SHELL/shell_debug.c **** 	}
  42:../../source/src/kernel/SHELL/shell_debug.c **** }
 125              		.loc 1 42 0
 126 005c 10BD     		pop	{r4, pc}
 127              	.LVL13:
 128              	.L17:
  33:../../source/src/kernel/SHELL/shell_debug.c **** 		ka_printf("%s","kaka_os>>");
 129              		.loc 1 33 0
 130 005e 1346     		mov	r3, r2
 131 0060 0A46     		mov	r2, r1
 132              	.LVL14:
 133 0062 0146     		mov	r1, r0
 134              	.LVL15:
 135 0064 0A48     		ldr	r0, .L18+4
 136              	.LVL16:
 137 0066 FFF7FEFF 		bl	ka_printf
 138              	.LVL17:
  34:../../source/src/kernel/SHELL/shell_debug.c **** #if CONFIG_ASSERT_DEBUG
 139              		.loc 1 34 0
 140 006a 0A49     		ldr	r1, .L18+8
 141 006c 0A48     		ldr	r0, .L18+12
 142 006e FFF7FEFF 		bl	ka_printf
 143              	.LVL18:
  36:../../source/src/kernel/SHELL/shell_debug.c **** #else
 144              		.loc 1 36 0
 145 0072 0022     		movs	r2, #0
 146 0074 0948     		ldr	r0, .L18+16
 147 0076 1146     		mov	r1, r2
 148 0078 FFF7FEFF 		bl	p
 149              	.LVL19:
  40:../../source/src/kernel/SHELL/shell_debug.c **** 	}
 150              		.loc 1 40 0
 151 007c 0028     		cmp	r0, #0
 152 007e EDD0     		beq	.L10
 153              		.loc 1 42 0 discriminator 1
 154 0080 BDE81040 		pop	{r4, lr}
 155              	.LCFI2:
 156              		.cfi_restore 14
 157              		.cfi_restore 4
 158              		.cfi_def_cfa_offset 0
  40:../../source/src/kernel/SHELL/shell_debug.c **** 	}
 159              		.loc 1 40 0 discriminator 1
 160 0084 2821     		movs	r1, #40
 161 0086 0648     		ldr	r0, .L18+20
 162              	.LVL20:
 163 0088 FFF7FEBF 		b	_ASSERT
 164              	.LVL21:
ARM GAS  G:\Users\Jaxb\AppData\Local\Temp\cczgCVf5.s 			page 5


 165              	.L19:
 166              		.align	2
 167              	.L18:
 168 008c 00000000 		.word	.LANCHOR1
 169 0090 2C000000 		.word	.LC1
 170 0094 6C000000 		.word	.LC2
 171 0098 78000000 		.word	.LC3
 172 009c 00000000 		.word	.LANCHOR0
 173 00a0 00000000 		.word	.LC0
 174              		.cfi_endproc
 175              	.LFE15:
 176              		.size	insert_break_point, .-insert_break_point
 177              		.align	1
 178              		.p2align 2,,3
 179              		.global	shell_debug_next
 180              		.syntax unified
 181              		.thumb
 182              		.thumb_func
 183              		.fpu softvfp
 184              		.type	shell_debug_next, %function
 185              	shell_debug_next:
 186              	.LFB16:
  43:../../source/src/kernel/SHELL/shell_debug.c **** 
  44:../../source/src/kernel/SHELL/shell_debug.c **** inline void shell_debug_next(int argc, char const *argv[])
  45:../../source/src/kernel/SHELL/shell_debug.c **** {
 187              		.loc 1 45 0
 188              		.cfi_startproc
 189              		@ args = 0, pretend = 0, frame = 0
 190              		@ frame_needed = 0, uses_anonymous_args = 0
 191              		@ link register save eliminated.
 192              	.LVL22:
  46:../../source/src/kernel/SHELL/shell_debug.c **** 	(void)argc;
  47:../../source/src/kernel/SHELL/shell_debug.c **** 	(void)argv;
  48:../../source/src/kernel/SHELL/shell_debug.c **** 	v(&MCB_for_shell_debug);
 193              		.loc 1 48 0
 194 00a4 0148     		ldr	r0, .L21
 195              	.LVL23:
 196 00a6 FFF7FEBF 		b	v
 197              	.LVL24:
 198              	.L22:
 199 00aa 00BF     		.align	2
 200              	.L21:
 201 00ac 00000000 		.word	.LANCHOR0
 202              		.cfi_endproc
 203              	.LFE16:
 204              		.size	shell_debug_next, .-shell_debug_next
 205              		.align	1
 206              		.p2align 2,,3
 207              		.global	shell_debug_run
 208              		.syntax unified
 209              		.thumb
 210              		.thumb_func
 211              		.fpu softvfp
 212              		.type	shell_debug_run, %function
 213              	shell_debug_run:
 214              	.LFB17:
  49:../../source/src/kernel/SHELL/shell_debug.c **** }
ARM GAS  G:\Users\Jaxb\AppData\Local\Temp\cczgCVf5.s 			page 6


  50:../../source/src/kernel/SHELL/shell_debug.c **** 
  51:../../source/src/kernel/SHELL/shell_debug.c **** inline void shell_debug_run(int argc, char const *argv[])
  52:../../source/src/kernel/SHELL/shell_debug.c **** {
 215              		.loc 1 52 0
 216              		.cfi_startproc
 217              		@ args = 0, pretend = 0, frame = 0
 218              		@ frame_needed = 0, uses_anonymous_args = 0
 219              	.LVL25:
 220 00b0 08B5     		push	{r3, lr}
 221              	.LCFI3:
 222              		.cfi_def_cfa_offset 8
 223              		.cfi_offset 3, -8
 224              		.cfi_offset 14, -4
  53:../../source/src/kernel/SHELL/shell_debug.c **** 	(void)argc;
  54:../../source/src/kernel/SHELL/shell_debug.c **** 	(void)argv;
  55:../../source/src/kernel/SHELL/shell_debug.c **** 	v(&MCB_for_shell_debug);
 225              		.loc 1 55 0
 226 00b2 0348     		ldr	r0, .L24
 227              	.LVL26:
 228 00b4 FFF7FEFF 		bl	v
 229              	.LVL27:
  56:../../source/src/kernel/SHELL/shell_debug.c **** 	flag_for_shell_debug = 0;
 230              		.loc 1 56 0
 231 00b8 0022     		movs	r2, #0
 232 00ba 024B     		ldr	r3, .L24+4
 233 00bc 1A60     		str	r2, [r3]
  57:../../source/src/kernel/SHELL/shell_debug.c **** }
 234              		.loc 1 57 0
 235 00be 08BD     		pop	{r3, pc}
 236              	.L25:
 237              		.align	2
 238              	.L24:
 239 00c0 00000000 		.word	.LANCHOR0
 240 00c4 00000000 		.word	.LANCHOR1
 241              		.cfi_endproc
 242              	.LFE17:
 243              		.size	shell_debug_run, .-shell_debug_run
 244              		.align	1
 245              		.p2align 2,,3
 246              		.global	shell_debug_stop
 247              		.syntax unified
 248              		.thumb
 249              		.thumb_func
 250              		.fpu softvfp
 251              		.type	shell_debug_stop, %function
 252              	shell_debug_stop:
 253              	.LFB18:
  58:../../source/src/kernel/SHELL/shell_debug.c **** 
  59:../../source/src/kernel/SHELL/shell_debug.c **** inline void shell_debug_stop(int argc, char const *argv[])
  60:../../source/src/kernel/SHELL/shell_debug.c **** {
 254              		.loc 1 60 0
 255              		.cfi_startproc
 256              		@ args = 0, pretend = 0, frame = 0
 257              		@ frame_needed = 0, uses_anonymous_args = 0
 258              		@ link register save eliminated.
 259              	.LVL28:
  61:../../source/src/kernel/SHELL/shell_debug.c **** 	(void)argc;
ARM GAS  G:\Users\Jaxb\AppData\Local\Temp\cczgCVf5.s 			page 7


  62:../../source/src/kernel/SHELL/shell_debug.c **** 	(void)argv;
  63:../../source/src/kernel/SHELL/shell_debug.c **** 	flag_for_shell_debug = 1;
 260              		.loc 1 63 0
 261 00c8 0122     		movs	r2, #1
 262 00ca 014B     		ldr	r3, .L27
 263 00cc 1A60     		str	r2, [r3]
  64:../../source/src/kernel/SHELL/shell_debug.c **** }
 264              		.loc 1 64 0
 265 00ce 7047     		bx	lr
 266              	.L28:
 267              		.align	2
 268              	.L27:
 269 00d0 00000000 		.word	.LANCHOR1
 270              		.cfi_endproc
 271              	.LFE18:
 272              		.size	shell_debug_stop, .-shell_debug_stop
 273              		.align	1
 274              		.p2align 2,,3
 275              		.global	shell_debug_info
 276              		.syntax unified
 277              		.thumb
 278              		.thumb_func
 279              		.fpu softvfp
 280              		.type	shell_debug_info, %function
 281              	shell_debug_info:
 282              	.LFB19:
  65:../../source/src/kernel/SHELL/shell_debug.c **** 
  66:../../source/src/kernel/SHELL/shell_debug.c **** //the following is about shell variable
  67:../../source/src/kernel/SHELL/shell_debug.c **** static struct singly_list_head variable_array[SHELL_V_ARRAY_SIZE];
  68:../../source/src/kernel/SHELL/shell_debug.c **** 
  69:../../source/src/kernel/SHELL/shell_debug.c **** void shell_debug_info(int argc, char const *argv[])
  70:../../source/src/kernel/SHELL/shell_debug.c **** {
 283              		.loc 1 70 0
 284              		.cfi_startproc
 285              		@ args = 0, pretend = 0, frame = 0
 286              		@ frame_needed = 0, uses_anonymous_args = 0
 287              	.LVL29:
 288 00d4 2DE9F041 		push	{r4, r5, r6, r7, r8, lr}
 289              	.LCFI4:
 290              		.cfi_def_cfa_offset 24
 291              		.cfi_offset 4, -24
 292              		.cfi_offset 5, -20
 293              		.cfi_offset 6, -16
 294              		.cfi_offset 7, -12
 295              		.cfi_offset 8, -8
 296              		.cfi_offset 14, -4
 297 00d8 0A4E     		ldr	r6, .L35
  71:../../source/src/kernel/SHELL/shell_debug.c **** 	int i;
  72:../../source/src/kernel/SHELL/shell_debug.c **** 	(void)argc;
  73:../../source/src/kernel/SHELL/shell_debug.c **** 	(void)argv;
  74:../../source/src/kernel/SHELL/shell_debug.c **** 	struct shell_variable *buffer;
  75:../../source/src/kernel/SHELL/shell_debug.c **** 	struct singly_list_head *pos;
  76:../../source/src/kernel/SHELL/shell_debug.c **** 	for(i=0;i<SHELL_V_ARRAY_SIZE;++i)
  77:../../source/src/kernel/SHELL/shell_debug.c **** 	{
  78:../../source/src/kernel/SHELL/shell_debug.c **** 		if(!singly_list_empty(&variable_array[i]))
  79:../../source/src/kernel/SHELL/shell_debug.c **** 		{	
  80:../../source/src/kernel/SHELL/shell_debug.c **** 			singly_list_for_each(pos,&variable_array[i])
ARM GAS  G:\Users\Jaxb\AppData\Local\Temp\cczgCVf5.s 			page 8


  81:../../source/src/kernel/SHELL/shell_debug.c **** 			{
  82:../../source/src/kernel/SHELL/shell_debug.c **** 				buffer = singly_list_entry(pos,struct shell_variable,list);
  83:../../source/src/kernel/SHELL/shell_debug.c **** 				ka_printf("shell_variable's name is \"%s\"\n",buffer->shell_v_name);
 298              		.loc 1 83 0
 299 00da 0B4F     		ldr	r7, .L35+4
 300 00dc 06F12008 		add	r8, r6, #32
 301              	.LVL30:
 302              	.L32:
  78:../../source/src/kernel/SHELL/shell_debug.c **** 		{	
 303              		.loc 1 78 0
 304 00e0 3546     		mov	r5, r6
 305              	.LVL31:
 306              	.LBB22:
 307              	.LBB23:
  16:../../source/include/os_lib/singly_linked_list.h **** }
  17:../../source/include/os_lib/singly_linked_list.h **** 
  18:../../source/include/os_lib/singly_linked_list.h **** static inline void singly_list_add(struct singly_list_head *new,struct singly_list_head *head)
  19:../../source/include/os_lib/singly_linked_list.h **** {
  20:../../source/include/os_lib/singly_linked_list.h **** 	new->next = head->next;
  21:../../source/include/os_lib/singly_linked_list.h **** 	head->next = new;
  22:../../source/include/os_lib/singly_linked_list.h **** }
  23:../../source/include/os_lib/singly_linked_list.h **** 
  24:../../source/include/os_lib/singly_linked_list.h **** static inline void _singly_list_del_next(struct singly_list_head *pre)
  25:../../source/include/os_lib/singly_linked_list.h **** {
  26:../../source/include/os_lib/singly_linked_list.h **** 	pre->next = pre->next->next;
  27:../../source/include/os_lib/singly_linked_list.h **** }
  28:../../source/include/os_lib/singly_linked_list.h **** 
  29:../../source/include/os_lib/singly_linked_list.h **** static inline int singly_list_empty(struct singly_list_head *head)
  30:../../source/include/os_lib/singly_linked_list.h **** {
  31:../../source/include/os_lib/singly_linked_list.h **** 	return head->next == head;
 308              		.loc 2 31 0
 309 00e2 56F8044B 		ldr	r4, [r6], #4
 310              	.LVL32:
 311              	.LBE23:
 312              	.LBE22:
  78:../../source/src/kernel/SHELL/shell_debug.c **** 		{	
 313              		.loc 1 78 0
 314 00e6 A542     		cmp	r5, r4
 315 00e8 07D0     		beq	.L30
 316              	.L31:
 317              	.LVL33:
 318              		.loc 1 83 0 discriminator 3
 319 00ea 54F80C1C 		ldr	r1, [r4, #-12]
 320 00ee 3846     		mov	r0, r7
 321 00f0 FFF7FEFF 		bl	ka_printf
 322              	.LVL34:
  80:../../source/src/kernel/SHELL/shell_debug.c **** 			{
 323              		.loc 1 80 0 discriminator 3
 324 00f4 2468     		ldr	r4, [r4]
 325              	.LVL35:
 326 00f6 A542     		cmp	r5, r4
 327 00f8 F7D1     		bne	.L31
 328              	.LVL36:
 329              	.L30:
  76:../../source/src/kernel/SHELL/shell_debug.c **** 	{
 330              		.loc 1 76 0
 331 00fa B045     		cmp	r8, r6
ARM GAS  G:\Users\Jaxb\AppData\Local\Temp\cczgCVf5.s 			page 9


 332 00fc F0D1     		bne	.L32
  84:../../source/src/kernel/SHELL/shell_debug.c **** 			}
  85:../../source/src/kernel/SHELL/shell_debug.c **** 		}
  86:../../source/src/kernel/SHELL/shell_debug.c **** 	}
  87:../../source/src/kernel/SHELL/shell_debug.c **** }
 333              		.loc 1 87 0
 334 00fe BDE8F081 		pop	{r4, r5, r6, r7, r8, pc}
 335              	.L36:
 336 0102 00BF     		.align	2
 337              	.L35:
 338 0104 20000000 		.word	.LANCHOR0+32
 339 0108 7C000000 		.word	.LC4
 340              		.cfi_endproc
 341              	.LFE19:
 342              		.size	shell_debug_info, .-shell_debug_info
 343              		.align	1
 344              		.p2align 2,,3
 345              		.global	find_in_variable_array
 346              		.syntax unified
 347              		.thumb
 348              		.thumb_func
 349              		.fpu softvfp
 350              		.type	find_in_variable_array, %function
 351              	find_in_variable_array:
 352              	.LFB21:
  88:../../source/src/kernel/SHELL/shell_debug.c **** 
  89:../../source/src/kernel/SHELL/shell_debug.c **** static void __init_shell_variable_array(void)
  90:../../source/src/kernel/SHELL/shell_debug.c **** {
  91:../../source/src/kernel/SHELL/shell_debug.c **** 	int i;
  92:../../source/src/kernel/SHELL/shell_debug.c **** 	for(i=0;i<SHELL_V_ARRAY_SIZE;++i)
  93:../../source/src/kernel/SHELL/shell_debug.c **** 	{
  94:../../source/src/kernel/SHELL/shell_debug.c **** 		INIT_SINGLY_LIST_HEAD(&variable_array[i]);
  95:../../source/src/kernel/SHELL/shell_debug.c **** 	}
  96:../../source/src/kernel/SHELL/shell_debug.c **** }
  97:../../source/src/kernel/SHELL/shell_debug.c **** 
  98:../../source/src/kernel/SHELL/shell_debug.c **** struct shell_variable *find_in_variable_array(const char *name)
  99:../../source/src/kernel/SHELL/shell_debug.c **** {
 353              		.loc 1 99 0
 354              		.cfi_startproc
 355              		@ args = 0, pretend = 0, frame = 0
 356              		@ frame_needed = 0, uses_anonymous_args = 0
 357              	.LVL37:
 358 010c F8B5     		push	{r3, r4, r5, r6, r7, lr}
 359              	.LCFI5:
 360              		.cfi_def_cfa_offset 24
 361              		.cfi_offset 3, -24
 362              		.cfi_offset 4, -20
 363              		.cfi_offset 5, -16
 364              		.cfi_offset 6, -12
 365              		.cfi_offset 7, -8
 366              		.cfi_offset 14, -4
 100:../../source/src/kernel/SHELL/shell_debug.c **** 	if(NULL == name)
 367              		.loc 1 100 0
 368 010e 0646     		mov	r6, r0
 369 0110 88B3     		cbz	r0, .L38
 370              	.LVL38:
 371              	.LBB24:
ARM GAS  G:\Users\Jaxb\AppData\Local\Temp\cczgCVf5.s 			page 10


 372              	.LBB25:
 101:../../source/src/kernel/SHELL/shell_debug.c **** 	{
 102:../../source/src/kernel/SHELL/shell_debug.c **** 		return NULL;
 103:../../source/src/kernel/SHELL/shell_debug.c **** 	}
 104:../../source/src/kernel/SHELL/shell_debug.c **** 	unsigned int hash_value = shell_v_hash(name);
 105:../../source/src/kernel/SHELL/shell_debug.c **** 	ASSERT(hash_value < SHELL_V_ARRAY_SIZE);
 106:../../source/src/kernel/SHELL/shell_debug.c **** 	struct shell_variable *shell_variable_ptr;
 107:../../source/src/kernel/SHELL/shell_debug.c **** 	struct singly_list_head *pos;
 108:../../source/src/kernel/SHELL/shell_debug.c **** 	singly_list_for_each(pos,&variable_array[hash_value])
 109:../../source/src/kernel/SHELL/shell_debug.c **** 	{
 110:../../source/src/kernel/SHELL/shell_debug.c **** 		shell_variable_ptr = singly_list_entry(pos,struct shell_variable,list);
 111:../../source/src/kernel/SHELL/shell_debug.c **** 		if(0 == ka_strncmp(name,shell_variable_ptr->shell_v_name,ka_strlen(shell_variable_ptr->shell_v_na
 112:../../source/src/kernel/SHELL/shell_debug.c **** 		{
 113:../../source/src/kernel/SHELL/shell_debug.c **** 			return shell_variable_ptr;
 114:../../source/src/kernel/SHELL/shell_debug.c **** 		}
 115:../../source/src/kernel/SHELL/shell_debug.c **** 	}
 116:../../source/src/kernel/SHELL/shell_debug.c **** 	return NULL;
 117:../../source/src/kernel/SHELL/shell_debug.c **** }
 118:../../source/src/kernel/SHELL/shell_debug.c **** 
 119:../../source/src/kernel/SHELL/shell_debug.c **** void shell_insert_variable(char *name,void *data_ptr,Shell_V_Type type)
 120:../../source/src/kernel/SHELL/shell_debug.c **** {
 121:../../source/src/kernel/SHELL/shell_debug.c **** 	ASSERT(NULL != data_ptr);
 122:../../source/src/kernel/SHELL/shell_debug.c **** 	ASSERT( (SHELL_V_TYPE_UINT8  == type)  ||
 123:../../source/src/kernel/SHELL/shell_debug.c **** 			(SHELL_V_TYPE_UINT16 == type)  ||
 124:../../source/src/kernel/SHELL/shell_debug.c **** 			(SHELL_V_TYPE_UINT32 == type)  ||
 125:../../source/src/kernel/SHELL/shell_debug.c **** 			(SHELL_V_TYPE_INT8   == type)  ||
 126:../../source/src/kernel/SHELL/shell_debug.c **** 			(SHELL_V_TYPE_INT16  == type)  ||
 127:../../source/src/kernel/SHELL/shell_debug.c **** 			(SHELL_V_TYPE_INT32  == type)  ||
 128:../../source/src/kernel/SHELL/shell_debug.c **** 			(SHELL_V_TYPE_FLOAT  == type)  ||
 129:../../source/src/kernel/SHELL/shell_debug.c **** 			(SHELL_V_TYPE_DOUBLE == type)  ||
 130:../../source/src/kernel/SHELL/shell_debug.c **** 			(SHELL_V_TYPE_CHAR   == type)   ) ;
 131:../../source/src/kernel/SHELL/shell_debug.c **** 	struct shell_variable *ptr = ka_malloc(sizeof(struct shell_variable));
 132:../../source/src/kernel/SHELL/shell_debug.c **** 	ASSERT(NULL != ptr);
 133:../../source/src/kernel/SHELL/shell_debug.c **** 	ptr->shell_v_name = name;
 134:../../source/src/kernel/SHELL/shell_debug.c **** 	ptr->shell_v_type = type;
 135:../../source/src/kernel/SHELL/shell_debug.c **** 	ptr->data_ptr = data_ptr;
 136:../../source/src/kernel/SHELL/shell_debug.c **** 	unsigned int hash = shell_v_hash(name);
 137:../../source/src/kernel/SHELL/shell_debug.c **** 	singly_list_add(&ptr->list,&variable_array[hash]);
 138:../../source/src/kernel/SHELL/shell_debug.c **** }
 139:../../source/src/kernel/SHELL/shell_debug.c **** 
 140:../../source/src/kernel/SHELL/shell_debug.c **** unsigned int shell_v_hash(const char *name)
 141:../../source/src/kernel/SHELL/shell_debug.c **** {
 142:../../source/src/kernel/SHELL/shell_debug.c **** 	unsigned int sum = 0;
 143:../../source/src/kernel/SHELL/shell_debug.c **** 	while((*name != '\0') && (*name != ' ') && (*name != 0x0d) && (*name != 0x0a))
 373              		.loc 1 143 0
 374 0112 0378     		ldrb	r3, [r0]	@ zero_extendqisi2
 375 0114 13F0DF02 		ands	r2, r3, #223
 376 0118 30D0     		beq	.L54
 377 011a 0D2B     		cmp	r3, #13
 378 011c 30D0     		beq	.L47
 379 011e 0A2B     		cmp	r3, #10
 380 0120 2BD0     		beq	.L48
 381 0122 0146     		mov	r1, r0
 142:../../source/src/kernel/SHELL/shell_debug.c **** 	while((*name != '\0') && (*name != ' ') && (*name != 0x0d) && (*name != 0x0a))
 382              		.loc 1 142 0
 383 0124 0022     		movs	r2, #0
 384 0126 03E0     		b	.L42
ARM GAS  G:\Users\Jaxb\AppData\Local\Temp\cczgCVf5.s 			page 11


 385              	.LVL39:
 386              	.L40:
 387              		.loc 1 143 0
 388 0128 0D2B     		cmp	r3, #13
 389 012a 07D0     		beq	.L55
 390 012c 0A2B     		cmp	r3, #10
 391 012e 05D0     		beq	.L55
 392              	.LVL40:
 393              	.L42:
 144:../../source/src/kernel/SHELL/shell_debug.c **** 	{
 145:../../source/src/kernel/SHELL/shell_debug.c **** 		sum += *name++;
 394              		.loc 1 145 0
 395 0130 1A44     		add	r2, r2, r3
 396              	.LVL41:
 143:../../source/src/kernel/SHELL/shell_debug.c **** 	{
 397              		.loc 1 143 0
 398 0132 11F8013F 		ldrb	r3, [r1, #1]!	@ zero_extendqisi2
 399              	.LVL42:
 400 0136 13F0DF0F 		tst	r3, #223
 401 013a F5D1     		bne	.L40
 402              	.L55:
 403 013c 02F00702 		and	r2, r2, #7
 404              	.LVL43:
 405 0140 114F     		ldr	r7, .L56
 406 0142 9200     		lsls	r2, r2, #2
 407 0144 1744     		add	r7, r7, r2
 408              	.LVL44:
 409              	.L39:
 410              	.LBE25:
 411              	.LBE24:
 108:../../source/src/kernel/SHELL/shell_debug.c **** 	{
 412              		.loc 1 108 0
 413 0146 114B     		ldr	r3, .L56+4
 414 0148 1A44     		add	r2, r2, r3
 415 014a 146A     		ldr	r4, [r2, #32]
 416              	.LVL45:
 417 014c BC42     		cmp	r4, r7
 418 014e 03D1     		bne	.L45
 419 0150 11E0     		b	.L38
 420              	.LVL46:
 421              	.L43:
 108:../../source/src/kernel/SHELL/shell_debug.c **** 	{
 422              		.loc 1 108 0 is_stmt 0 discriminator 2
 423 0152 2468     		ldr	r4, [r4]
 424              	.LVL47:
 425 0154 BC42     		cmp	r4, r7
 426 0156 0ED0     		beq	.L38
 427              	.L45:
 428              	.LVL48:
 111:../../source/src/kernel/SHELL/shell_debug.c **** 		{
 429              		.loc 1 111 0 is_stmt 1
 430 0158 54F80C5C 		ldr	r5, [r4, #-12]
 431 015c 2846     		mov	r0, r5
 432 015e FFF7FEFF 		bl	ka_strlen
 433              	.LVL49:
 434 0162 2946     		mov	r1, r5
 435 0164 0246     		mov	r2, r0
ARM GAS  G:\Users\Jaxb\AppData\Local\Temp\cczgCVf5.s 			page 12


 436 0166 3046     		mov	r0, r6
 437 0168 FFF7FEFF 		bl	ka_strncmp
 438              	.LVL50:
 439 016c 0028     		cmp	r0, #0
 440 016e F0D1     		bne	.L43
 441              	.LBB27:
 110:../../source/src/kernel/SHELL/shell_debug.c **** 		if(0 == ka_strncmp(name,shell_variable_ptr->shell_v_name,ka_strlen(shell_variable_ptr->shell_v_na
 442              		.loc 1 110 0
 443 0170 A4F10C00 		sub	r0, r4, #12
 444              	.LVL51:
 445              	.LBE27:
 117:../../source/src/kernel/SHELL/shell_debug.c **** 
 446              		.loc 1 117 0
 447 0174 F8BD     		pop	{r3, r4, r5, r6, r7, pc}
 448              	.LVL52:
 449              	.L38:
 102:../../source/src/kernel/SHELL/shell_debug.c **** 	}
 450              		.loc 1 102 0
 451 0176 0020     		movs	r0, #0
 117:../../source/src/kernel/SHELL/shell_debug.c **** 
 452              		.loc 1 117 0
 453 0178 F8BD     		pop	{r3, r4, r5, r6, r7, pc}
 454              	.LVL53:
 455              	.L48:
 456 017a 0022     		movs	r2, #0
 457              	.L54:
 458              	.LBB28:
 459              	.LBB26:
 143:../../source/src/kernel/SHELL/shell_debug.c **** 	{
 460              		.loc 1 143 0
 461 017c 024F     		ldr	r7, .L56
 462 017e E2E7     		b	.L39
 463              	.L47:
 464 0180 014F     		ldr	r7, .L56
 465 0182 0022     		movs	r2, #0
 466 0184 DFE7     		b	.L39
 467              	.L57:
 468 0186 00BF     		.align	2
 469              	.L56:
 470 0188 20000000 		.word	.LANCHOR0+32
 471 018c 00000000 		.word	.LANCHOR0
 472              	.LBE26:
 473              	.LBE28:
 474              		.cfi_endproc
 475              	.LFE21:
 476              		.size	find_in_variable_array, .-find_in_variable_array
 477              		.align	1
 478              		.p2align 2,,3
 479              		.global	shell_insert_variable
 480              		.syntax unified
 481              		.thumb
 482              		.thumb_func
 483              		.fpu softvfp
 484              		.type	shell_insert_variable, %function
 485              	shell_insert_variable:
 486              	.LFB22:
 120:../../source/src/kernel/SHELL/shell_debug.c **** 	ASSERT(NULL != data_ptr);
ARM GAS  G:\Users\Jaxb\AppData\Local\Temp\cczgCVf5.s 			page 13


 487              		.loc 1 120 0
 488              		.cfi_startproc
 489              		@ args = 0, pretend = 0, frame = 0
 490              		@ frame_needed = 0, uses_anonymous_args = 0
 491              	.LVL54:
 492 0190 F8B5     		push	{r3, r4, r5, r6, r7, lr}
 493              	.LCFI6:
 494              		.cfi_def_cfa_offset 24
 495              		.cfi_offset 3, -24
 496              		.cfi_offset 4, -20
 497              		.cfi_offset 5, -16
 498              		.cfi_offset 6, -12
 499              		.cfi_offset 7, -8
 500              		.cfi_offset 14, -4
 120:../../source/src/kernel/SHELL/shell_debug.c **** 	ASSERT(NULL != data_ptr);
 501              		.loc 1 120 0
 502 0192 0446     		mov	r4, r0
 503 0194 1746     		mov	r7, r2
 121:../../source/src/kernel/SHELL/shell_debug.c **** 	ASSERT( (SHELL_V_TYPE_UINT8  == type)  ||
 504              		.loc 1 121 0
 505 0196 0E46     		mov	r6, r1
 506 0198 0029     		cmp	r1, #0
 507 019a 38D0     		beq	.L71
 508              	.LVL55:
 509              	.L59:
 122:../../source/src/kernel/SHELL/shell_debug.c **** 			(SHELL_V_TYPE_UINT16 == type)  ||
 510              		.loc 1 122 0
 511 019c 7B1E     		subs	r3, r7, #1
 512 019e 082B     		cmp	r3, #8
 513 01a0 26D8     		bhi	.L72
 131:../../source/src/kernel/SHELL/shell_debug.c **** 	ASSERT(NULL != ptr);
 514              		.loc 1 131 0
 515 01a2 1020     		movs	r0, #16
 516 01a4 FFF7FEFF 		bl	ka_malloc
 517              	.LVL56:
 132:../../source/src/kernel/SHELL/shell_debug.c **** 	ptr->shell_v_name = name;
 518              		.loc 1 132 0
 519 01a8 0546     		mov	r5, r0
 520 01aa 58B3     		cbz	r0, .L73
 521              	.LVL57:
 522              	.L61:
 133:../../source/src/kernel/SHELL/shell_debug.c **** 	ptr->shell_v_type = type;
 523              		.loc 1 133 0
 524 01ac 2C60     		str	r4, [r5]
 134:../../source/src/kernel/SHELL/shell_debug.c **** 	ptr->data_ptr = data_ptr;
 525              		.loc 1 134 0
 526 01ae 2F71     		strb	r7, [r5, #4]
 135:../../source/src/kernel/SHELL/shell_debug.c **** 	unsigned int hash = shell_v_hash(name);
 527              		.loc 1 135 0
 528 01b0 AE60     		str	r6, [r5, #8]
 529              	.LVL58:
 530              	.LBB29:
 531              	.LBB30:
 143:../../source/src/kernel/SHELL/shell_debug.c **** 	{
 532              		.loc 1 143 0
 533 01b2 2378     		ldrb	r3, [r4]	@ zero_extendqisi2
 534 01b4 13F0DF02 		ands	r2, r3, #223
ARM GAS  G:\Users\Jaxb\AppData\Local\Temp\cczgCVf5.s 			page 14


 535 01b8 12D0     		beq	.L62
 536              	.LVL59:
 537 01ba 0D2B     		cmp	r3, #13
 142:../../source/src/kernel/SHELL/shell_debug.c **** 	while((*name != '\0') && (*name != ' ') && (*name != 0x0d) && (*name != 0x0a))
 538              		.loc 1 142 0
 539 01bc 4FF00002 		mov	r2, #0
 143:../../source/src/kernel/SHELL/shell_debug.c **** 	{
 540              		.loc 1 143 0
 541 01c0 0ED0     		beq	.L62
 542 01c2 0A2B     		cmp	r3, #10
 543 01c4 04D1     		bne	.L65
 544 01c6 0BE0     		b	.L62
 545              	.LVL60:
 546              	.L63:
 547 01c8 0D2B     		cmp	r3, #13
 548 01ca 07D0     		beq	.L70
 549 01cc 0A2B     		cmp	r3, #10
 550 01ce 05D0     		beq	.L70
 551              	.LVL61:
 552              	.L65:
 553              		.loc 1 145 0
 554 01d0 1A44     		add	r2, r2, r3
 555              	.LVL62:
 143:../../source/src/kernel/SHELL/shell_debug.c **** 	{
 556              		.loc 1 143 0
 557 01d2 14F8013F 		ldrb	r3, [r4, #1]!	@ zero_extendqisi2
 558              	.LVL63:
 559 01d6 13F0DF0F 		tst	r3, #223
 560 01da F5D1     		bne	.L63
 561              	.L70:
 562 01dc 02F00702 		and	r2, r2, #7
 563              	.LVL64:
 564              	.L62:
 565              	.LBE30:
 566              	.LBE29:
 567              	.LBB31:
 568              	.LBB32:
  20:../../source/include/os_lib/singly_linked_list.h **** 	head->next = new;
 569              		.loc 2 20 0
 570 01e0 0D4B     		ldr	r3, .L74
 571 01e2 03EB8202 		add	r2, r3, r2, lsl #2
 572 01e6 136A     		ldr	r3, [r2, #32]
 573 01e8 45F80C3F 		str	r3, [r5, #12]!
 574              	.LVL65:
  21:../../source/include/os_lib/singly_linked_list.h **** }
 575              		.loc 2 21 0
 576 01ec 1562     		str	r5, [r2, #32]
 577              	.LVL66:
 578              	.LBE32:
 579              	.LBE31:
 138:../../source/src/kernel/SHELL/shell_debug.c **** 
 580              		.loc 1 138 0
 581 01ee F8BD     		pop	{r3, r4, r5, r6, r7, pc}
 582              	.LVL67:
 583              	.L72:
 122:../../source/src/kernel/SHELL/shell_debug.c **** 			(SHELL_V_TYPE_UINT16 == type)  ||
 584              		.loc 1 122 0 discriminator 1
ARM GAS  G:\Users\Jaxb\AppData\Local\Temp\cczgCVf5.s 			page 15


 585 01f0 8221     		movs	r1, #130
 586 01f2 0A48     		ldr	r0, .L74+4
 587 01f4 FFF7FEFF 		bl	_ASSERT
 588              	.LVL68:
 131:../../source/src/kernel/SHELL/shell_debug.c **** 	ASSERT(NULL != ptr);
 589              		.loc 1 131 0 discriminator 1
 590 01f8 1020     		movs	r0, #16
 591 01fa FFF7FEFF 		bl	ka_malloc
 592              	.LVL69:
 132:../../source/src/kernel/SHELL/shell_debug.c **** 	ptr->shell_v_name = name;
 593              		.loc 1 132 0 discriminator 1
 594 01fe 0546     		mov	r5, r0
 595 0200 0028     		cmp	r0, #0
 596 0202 D3D1     		bne	.L61
 597              	.L73:
 598 0204 8421     		movs	r1, #132
 599 0206 0548     		ldr	r0, .L74+4
 600              	.LVL70:
 601 0208 FFF7FEFF 		bl	_ASSERT
 602              	.LVL71:
 603 020c CEE7     		b	.L61
 604              	.LVL72:
 605              	.L71:
 121:../../source/src/kernel/SHELL/shell_debug.c **** 	ASSERT( (SHELL_V_TYPE_UINT8  == type)  ||
 606              		.loc 1 121 0 discriminator 1
 607 020e 7921     		movs	r1, #121
 608              	.LVL73:
 609 0210 0248     		ldr	r0, .L74+4
 610              	.LVL74:
 611 0212 FFF7FEFF 		bl	_ASSERT
 612              	.LVL75:
 613 0216 C1E7     		b	.L59
 614              	.L75:
 615              		.align	2
 616              	.L74:
 617 0218 00000000 		.word	.LANCHOR0
 618 021c 00000000 		.word	.LC0
 619              		.cfi_endproc
 620              	.LFE22:
 621              		.size	shell_insert_variable, .-shell_insert_variable
 622              		.align	1
 623              		.p2align 2,,3
 624              		.global	shell_v_hash
 625              		.syntax unified
 626              		.thumb
 627              		.thumb_func
 628              		.fpu softvfp
 629              		.type	shell_v_hash, %function
 630              	shell_v_hash:
 631              	.LFB23:
 141:../../source/src/kernel/SHELL/shell_debug.c **** 	unsigned int sum = 0;
 632              		.loc 1 141 0
 633              		.cfi_startproc
 634              		@ args = 0, pretend = 0, frame = 0
 635              		@ frame_needed = 0, uses_anonymous_args = 0
 636              		@ link register save eliminated.
 637              	.LVL76:
ARM GAS  G:\Users\Jaxb\AppData\Local\Temp\cczgCVf5.s 			page 16


 143:../../source/src/kernel/SHELL/shell_debug.c **** 	{
 638              		.loc 1 143 0
 639 0220 0378     		ldrb	r3, [r0]	@ zero_extendqisi2
 640 0222 13F0DF02 		ands	r2, r3, #223
 641 0226 12D0     		beq	.L83
 642 0228 0D2B     		cmp	r3, #13
 643 022a 10D0     		beq	.L83
 644 022c 0A2B     		cmp	r3, #10
 645 022e 0ED0     		beq	.L83
 142:../../source/src/kernel/SHELL/shell_debug.c **** 	while((*name != '\0') && (*name != ' ') && (*name != 0x0d) && (*name != 0x0a))
 646              		.loc 1 142 0
 647 0230 0022     		movs	r2, #0
 648 0232 03E0     		b	.L80
 649              	.LVL77:
 650              	.L78:
 143:../../source/src/kernel/SHELL/shell_debug.c **** 	{
 651              		.loc 1 143 0 discriminator 2
 652 0234 0D2B     		cmp	r3, #13
 653 0236 07D0     		beq	.L86
 143:../../source/src/kernel/SHELL/shell_debug.c **** 	{
 654              		.loc 1 143 0 is_stmt 0 discriminator 3
 655 0238 0A2B     		cmp	r3, #10
 656 023a 05D0     		beq	.L86
 657              	.LVL78:
 658              	.L80:
 659              		.loc 1 145 0 is_stmt 1
 660 023c 1A44     		add	r2, r2, r3
 661              	.LVL79:
 143:../../source/src/kernel/SHELL/shell_debug.c **** 	{
 662              		.loc 1 143 0
 663 023e 10F8013F 		ldrb	r3, [r0, #1]!	@ zero_extendqisi2
 664              	.LVL80:
 665 0242 13F0DF0F 		tst	r3, #223
 666 0246 F5D1     		bne	.L78
 667              	.L86:
 668 0248 02F00700 		and	r0, r2, #7
 669              	.LVL81:
 670 024c 7047     		bx	lr
 671              	.LVL82:
 672              	.L83:
 673 024e 0020     		movs	r0, #0
 674              	.LVL83:
 146:../../source/src/kernel/SHELL/shell_debug.c **** 	}
 147:../../source/src/kernel/SHELL/shell_debug.c **** 	return sum % SHELL_V_ARRAY_SIZE;
 148:../../source/src/kernel/SHELL/shell_debug.c **** }
 675              		.loc 1 148 0
 676 0250 7047     		bx	lr
 677              		.cfi_endproc
 678              	.LFE23:
 679              		.size	shell_v_hash, .-shell_v_hash
 680              		.global	__aeabi_f2d
 681              		.align	1
 682 0252 00BF     		.p2align 2,,3
 683              		.global	shell_v_display
 684              		.syntax unified
 685              		.thumb
 686              		.thumb_func
ARM GAS  G:\Users\Jaxb\AppData\Local\Temp\cczgCVf5.s 			page 17


 687              		.fpu softvfp
 688              		.type	shell_v_display, %function
 689              	shell_v_display:
 690              	.LFB24:
 149:../../source/src/kernel/SHELL/shell_debug.c **** 
 150:../../source/src/kernel/SHELL/shell_debug.c **** void shell_v_display(struct shell_variable *shell_variable_ptr)
 151:../../source/src/kernel/SHELL/shell_debug.c **** {
 691              		.loc 1 151 0
 692              		.cfi_startproc
 693              		@ args = 0, pretend = 0, frame = 0
 694              		@ frame_needed = 0, uses_anonymous_args = 0
 695              	.LVL84:
 696 0254 10B5     		push	{r4, lr}
 697              	.LCFI7:
 698              		.cfi_def_cfa_offset 8
 699              		.cfi_offset 4, -8
 700              		.cfi_offset 14, -4
 152:../../source/src/kernel/SHELL/shell_debug.c **** 	ASSERT(shell_variable_ptr != NULL);
 701              		.loc 1 152 0
 702 0256 0446     		mov	r4, r0
 703 0258 0028     		cmp	r0, #0
 704 025a 32D0     		beq	.L96
 705              	.LVL85:
 706              	.L88:
 153:../../source/src/kernel/SHELL/shell_debug.c **** 	switch(shell_variable_ptr->shell_v_type)
 707              		.loc 1 153 0
 708 025c 2379     		ldrb	r3, [r4, #4]	@ zero_extendqisi2
 709 025e 013B     		subs	r3, r3, #1
 710 0260 082B     		cmp	r3, #8
 711 0262 33D8     		bhi	.L89
 712 0264 DFE803F0 		tbb	[pc, r3]
 713              	.L91:
 714 0268 0C       		.byte	(.L90-.L91)/2
 715 0269 0C       		.byte	(.L90-.L91)/2
 716 026a 0C       		.byte	(.L90-.L91)/2
 717 026b 13       		.byte	(.L92-.L91)/2
 718 026c 13       		.byte	(.L92-.L91)/2
 719 026d 13       		.byte	(.L92-.L91)/2
 720 026e 1A       		.byte	(.L93-.L91)/2
 721 026f 25       		.byte	(.L94-.L91)/2
 722 0270 05       		.byte	(.L95-.L91)/2
 723 0271 00       		.p2align 1
 724              	.L95:
 154:../../source/src/kernel/SHELL/shell_debug.c **** 	{
 155:../../source/src/kernel/SHELL/shell_debug.c **** 		case SHELL_V_TYPE_UINT8:
 156:../../source/src/kernel/SHELL/shell_debug.c **** 		case SHELL_V_TYPE_UINT16:
 157:../../source/src/kernel/SHELL/shell_debug.c **** 		case SHELL_V_TYPE_UINT32:
 158:../../source/src/kernel/SHELL/shell_debug.c **** 			ka_printf("%u\n",*(unsigned int*)shell_variable_ptr->data_ptr);
 159:../../source/src/kernel/SHELL/shell_debug.c **** 			break ;
 160:../../source/src/kernel/SHELL/shell_debug.c **** 
 161:../../source/src/kernel/SHELL/shell_debug.c **** 		case SHELL_V_TYPE_INT8:
 162:../../source/src/kernel/SHELL/shell_debug.c **** 		case SHELL_V_TYPE_INT16:
 163:../../source/src/kernel/SHELL/shell_debug.c **** 		case SHELL_V_TYPE_INT32:
 164:../../source/src/kernel/SHELL/shell_debug.c **** 			ka_printf("%d\n",*(int*)shell_variable_ptr->data_ptr);
 165:../../source/src/kernel/SHELL/shell_debug.c **** 			break ;
 166:../../source/src/kernel/SHELL/shell_debug.c **** 
 167:../../source/src/kernel/SHELL/shell_debug.c **** 		case SHELL_V_TYPE_FLOAT:
ARM GAS  G:\Users\Jaxb\AppData\Local\Temp\cczgCVf5.s 			page 18


 168:../../source/src/kernel/SHELL/shell_debug.c **** 			ka_printf("%f\n",*(float*)shell_variable_ptr->data_ptr);
 169:../../source/src/kernel/SHELL/shell_debug.c **** 			break;
 170:../../source/src/kernel/SHELL/shell_debug.c **** 		case SHELL_V_TYPE_DOUBLE:
 171:../../source/src/kernel/SHELL/shell_debug.c **** 			ka_printf("%f\n",*(double*)shell_variable_ptr->data_ptr);
 172:../../source/src/kernel/SHELL/shell_debug.c **** 			break ;
 173:../../source/src/kernel/SHELL/shell_debug.c **** 
 174:../../source/src/kernel/SHELL/shell_debug.c **** 		case SHELL_V_TYPE_CHAR:
 175:../../source/src/kernel/SHELL/shell_debug.c **** 			ka_printf("%c\n",*(char*)shell_variable_ptr->data_ptr);
 725              		.loc 1 175 0
 726 0272 A368     		ldr	r3, [r4, #8]
 727 0274 1848     		ldr	r0, .L97
 728 0276 1978     		ldrb	r1, [r3]	@ zero_extendqisi2
 176:../../source/src/kernel/SHELL/shell_debug.c **** 			break ;
 177:../../source/src/kernel/SHELL/shell_debug.c **** 
 178:../../source/src/kernel/SHELL/shell_debug.c **** 		default :
 179:../../source/src/kernel/SHELL/shell_debug.c **** 			ASSERT(0);
 180:../../source/src/kernel/SHELL/shell_debug.c **** 			break ;
 181:../../source/src/kernel/SHELL/shell_debug.c **** 	}
 182:../../source/src/kernel/SHELL/shell_debug.c **** }
 729              		.loc 1 182 0
 730 0278 BDE81040 		pop	{r4, lr}
 731              	.LCFI8:
 732              		.cfi_remember_state
 733              		.cfi_restore 14
 734              		.cfi_restore 4
 735              		.cfi_def_cfa_offset 0
 736              	.LVL86:
 175:../../source/src/kernel/SHELL/shell_debug.c **** 			break ;
 737              		.loc 1 175 0
 738 027c FFF7FEBF 		b	ka_printf
 739              	.LVL87:
 740              	.L90:
 741              	.LCFI9:
 742              		.cfi_restore_state
 158:../../source/src/kernel/SHELL/shell_debug.c **** 			break ;
 743              		.loc 1 158 0
 744 0280 A368     		ldr	r3, [r4, #8]
 745 0282 1648     		ldr	r0, .L97+4
 746 0284 1968     		ldr	r1, [r3]
 747              		.loc 1 182 0
 748 0286 BDE81040 		pop	{r4, lr}
 749              	.LCFI10:
 750              		.cfi_remember_state
 751              		.cfi_restore 14
 752              		.cfi_restore 4
 753              		.cfi_def_cfa_offset 0
 754              	.LVL88:
 158:../../source/src/kernel/SHELL/shell_debug.c **** 			break ;
 755              		.loc 1 158 0
 756 028a FFF7FEBF 		b	ka_printf
 757              	.LVL89:
 758              	.L92:
 759              	.LCFI11:
 760              		.cfi_restore_state
 164:../../source/src/kernel/SHELL/shell_debug.c **** 			break ;
 761              		.loc 1 164 0
 762 028e A368     		ldr	r3, [r4, #8]
ARM GAS  G:\Users\Jaxb\AppData\Local\Temp\cczgCVf5.s 			page 19


 763 0290 1348     		ldr	r0, .L97+8
 764 0292 1968     		ldr	r1, [r3]
 765              		.loc 1 182 0
 766 0294 BDE81040 		pop	{r4, lr}
 767              	.LCFI12:
 768              		.cfi_remember_state
 769              		.cfi_restore 14
 770              		.cfi_restore 4
 771              		.cfi_def_cfa_offset 0
 772              	.LVL90:
 164:../../source/src/kernel/SHELL/shell_debug.c **** 			break ;
 773              		.loc 1 164 0
 774 0298 FFF7FEBF 		b	ka_printf
 775              	.LVL91:
 776              	.L93:
 777              	.LCFI13:
 778              		.cfi_restore_state
 168:../../source/src/kernel/SHELL/shell_debug.c **** 			break;
 779              		.loc 1 168 0
 780 029c A368     		ldr	r3, [r4, #8]
 781 029e 1868     		ldr	r0, [r3]	@ float
 782 02a0 FFF7FEFF 		bl	__aeabi_f2d
 783              	.LVL92:
 784              		.loc 1 182 0
 785 02a4 BDE81040 		pop	{r4, lr}
 786              	.LCFI14:
 787              		.cfi_remember_state
 788              		.cfi_restore 14
 789              		.cfi_restore 4
 790              		.cfi_def_cfa_offset 0
 791              	.LVL93:
 168:../../source/src/kernel/SHELL/shell_debug.c **** 			break;
 792              		.loc 1 168 0
 793 02a8 0246     		mov	r2, r0
 794 02aa 0B46     		mov	r3, r1
 795 02ac 0D48     		ldr	r0, .L97+12
 796 02ae FFF7FEBF 		b	ka_printf
 797              	.LVL94:
 798              	.L94:
 799              	.LCFI15:
 800              		.cfi_restore_state
 171:../../source/src/kernel/SHELL/shell_debug.c **** 			break ;
 801              		.loc 1 171 0
 802 02b2 A368     		ldr	r3, [r4, #8]
 803 02b4 0B48     		ldr	r0, .L97+12
 804 02b6 D3E90023 		ldrd	r2, [r3]
 805              		.loc 1 182 0
 806 02ba BDE81040 		pop	{r4, lr}
 807              	.LCFI16:
 808              		.cfi_remember_state
 809              		.cfi_restore 14
 810              		.cfi_restore 4
 811              		.cfi_def_cfa_offset 0
 812              	.LVL95:
 171:../../source/src/kernel/SHELL/shell_debug.c **** 			break ;
 813              		.loc 1 171 0
 814 02be FFF7FEBF 		b	ka_printf
ARM GAS  G:\Users\Jaxb\AppData\Local\Temp\cczgCVf5.s 			page 20


 815              	.LVL96:
 816              	.L96:
 817              	.LCFI17:
 818              		.cfi_restore_state
 152:../../source/src/kernel/SHELL/shell_debug.c **** 	switch(shell_variable_ptr->shell_v_type)
 819              		.loc 1 152 0 discriminator 1
 820 02c2 9821     		movs	r1, #152
 821 02c4 0848     		ldr	r0, .L97+16
 822              	.LVL97:
 823 02c6 FFF7FEFF 		bl	_ASSERT
 824              	.LVL98:
 825 02ca C7E7     		b	.L88
 826              	.L89:
 179:../../source/src/kernel/SHELL/shell_debug.c **** 			break ;
 827              		.loc 1 179 0 discriminator 1
 828 02cc B321     		movs	r1, #179
 829              		.loc 1 182 0 discriminator 1
 830 02ce BDE81040 		pop	{r4, lr}
 831              	.LVL99:
 179:../../source/src/kernel/SHELL/shell_debug.c **** 			break ;
 832              		.loc 1 179 0 discriminator 1
 833 02d2 0548     		ldr	r0, .L97+16
 834 02d4 FFF7FEBF 		b	_ASSERT
 835              	.LVL100:
 836              	.L98:
 837              		.align	2
 838              	.L97:
 839 02d8 A8000000 		.word	.LC8
 840 02dc 9C000000 		.word	.LC5
 841 02e0 A0000000 		.word	.LC6
 842 02e4 A4000000 		.word	.LC7
 843 02e8 00000000 		.word	.LC0
 844              		.cfi_endproc
 845              	.LFE24:
 846              		.size	shell_v_display, .-shell_v_display
 847              		.align	1
 848              		.p2align 2,,3
 849              		.global	shell_v_display_addr
 850              		.syntax unified
 851              		.thumb
 852              		.thumb_func
 853              		.fpu softvfp
 854              		.type	shell_v_display_addr, %function
 855              	shell_v_display_addr:
 856              	.LFB25:
 183:../../source/src/kernel/SHELL/shell_debug.c **** 
 184:../../source/src/kernel/SHELL/shell_debug.c **** inline void shell_v_display_addr(struct shell_variable *shell_variable_ptr)
 185:../../source/src/kernel/SHELL/shell_debug.c **** {
 857              		.loc 1 185 0
 858              		.cfi_startproc
 859              		@ args = 0, pretend = 0, frame = 0
 860              		@ frame_needed = 0, uses_anonymous_args = 0
 861              	.LVL101:
 862 02ec 10B5     		push	{r4, lr}
 863              	.LCFI18:
 864              		.cfi_def_cfa_offset 8
 865              		.cfi_offset 4, -8
ARM GAS  G:\Users\Jaxb\AppData\Local\Temp\cczgCVf5.s 			page 21


 866              		.cfi_offset 14, -4
 186:../../source/src/kernel/SHELL/shell_debug.c **** 	ASSERT(shell_variable_ptr != NULL);
 867              		.loc 1 186 0
 868 02ee 0446     		mov	r4, r0
 869 02f0 30B1     		cbz	r0, .L101
 870              	.LVL102:
 871              	.L100:
 187:../../source/src/kernel/SHELL/shell_debug.c **** 	ka_printf("variable %s address is %p\n",shell_variable_ptr->shell_v_name,shell_variable_ptr->data_
 872              		.loc 1 187 0
 873 02f2 A268     		ldr	r2, [r4, #8]
 874 02f4 2168     		ldr	r1, [r4]
 875 02f6 0548     		ldr	r0, .L102
 188:../../source/src/kernel/SHELL/shell_debug.c **** }
 876              		.loc 1 188 0
 877 02f8 BDE81040 		pop	{r4, lr}
 878              	.LCFI19:
 879              		.cfi_remember_state
 880              		.cfi_restore 14
 881              		.cfi_restore 4
 882              		.cfi_def_cfa_offset 0
 883              	.LVL103:
 187:../../source/src/kernel/SHELL/shell_debug.c **** 	ka_printf("variable %s address is %p\n",shell_variable_ptr->shell_v_name,shell_variable_ptr->data_
 884              		.loc 1 187 0
 885 02fc FFF7FEBF 		b	ka_printf
 886              	.LVL104:
 887              	.L101:
 888              	.LCFI20:
 889              		.cfi_restore_state
 186:../../source/src/kernel/SHELL/shell_debug.c **** 	ASSERT(shell_variable_ptr != NULL);
 890              		.loc 1 186 0 discriminator 1
 891 0300 BA21     		movs	r1, #186
 892 0302 0348     		ldr	r0, .L102+4
 893              	.LVL105:
 894 0304 FFF7FEFF 		bl	_ASSERT
 895              	.LVL106:
 896 0308 F3E7     		b	.L100
 897              	.L103:
 898 030a 00BF     		.align	2
 899              	.L102:
 900 030c AC000000 		.word	.LC9
 901 0310 00000000 		.word	.LC0
 902              		.cfi_endproc
 903              	.LFE25:
 904              		.size	shell_v_display_addr, .-shell_v_display_addr
 905              		.global	__aeabi_d2f
 906              		.align	1
 907              		.p2align 2,,3
 908              		.global	shell_v_write
 909              		.syntax unified
 910              		.thumb
 911              		.thumb_func
 912              		.fpu softvfp
 913              		.type	shell_v_write, %function
 914              	shell_v_write:
 915              	.LFB26:
 189:../../source/src/kernel/SHELL/shell_debug.c **** 
 190:../../source/src/kernel/SHELL/shell_debug.c **** void shell_v_write(struct shell_variable *shell_variable_ptr,const char *input_buffer_ptr)
ARM GAS  G:\Users\Jaxb\AppData\Local\Temp\cczgCVf5.s 			page 22


 191:../../source/src/kernel/SHELL/shell_debug.c **** {
 916              		.loc 1 191 0
 917              		.cfi_startproc
 918              		@ args = 0, pretend = 0, frame = 0
 919              		@ frame_needed = 0, uses_anonymous_args = 0
 920              	.LVL107:
 921 0314 38B5     		push	{r3, r4, r5, lr}
 922              	.LCFI21:
 923              		.cfi_def_cfa_offset 16
 924              		.cfi_offset 3, -16
 925              		.cfi_offset 4, -12
 926              		.cfi_offset 5, -8
 927              		.cfi_offset 14, -4
 928              		.loc 1 191 0
 929 0316 0D46     		mov	r5, r1
 192:../../source/src/kernel/SHELL/shell_debug.c **** 	ASSERT(NULL != shell_variable_ptr);
 930              		.loc 1 192 0
 931 0318 0446     		mov	r4, r0
 932 031a 58B3     		cbz	r0, .L114
 193:../../source/src/kernel/SHELL/shell_debug.c **** 	ASSERT(NULL != input_buffer_ptr);
 933              		.loc 1 193 0
 934 031c 002D     		cmp	r5, #0
 935 031e 2FD0     		beq	.L115
 936              	.LVL108:
 937              	.L106:
 194:../../source/src/kernel/SHELL/shell_debug.c **** 	switch(shell_variable_ptr->shell_v_type)
 938              		.loc 1 194 0
 939 0320 2379     		ldrb	r3, [r4, #4]	@ zero_extendqisi2
 940 0322 013B     		subs	r3, r3, #1
 941 0324 082B     		cmp	r3, #8
 942 0326 1FD8     		bhi	.L107
 943 0328 DFE803F0 		tbb	[pc, r3]
 944              	.L109:
 945 032c 18       		.byte	(.L108-.L109)/2
 946 032d 18       		.byte	(.L108-.L109)/2
 947 032e 18       		.byte	(.L108-.L109)/2
 948 032f 18       		.byte	(.L108-.L109)/2
 949 0330 18       		.byte	(.L108-.L109)/2
 950 0331 18       		.byte	(.L108-.L109)/2
 951 0332 10       		.byte	(.L110-.L109)/2
 952 0333 09       		.byte	(.L111-.L109)/2
 953 0334 05       		.byte	(.L112-.L109)/2
 954 0335 00       		.p2align 1
 955              	.L112:
 956              	.LBB33:
 195:../../source/src/kernel/SHELL/shell_debug.c **** 	{
 196:../../source/src/kernel/SHELL/shell_debug.c **** 		case SHELL_V_TYPE_UINT8:
 197:../../source/src/kernel/SHELL/shell_debug.c **** 		case SHELL_V_TYPE_UINT16:
 198:../../source/src/kernel/SHELL/shell_debug.c **** 		case SHELL_V_TYPE_UINT32:
 199:../../source/src/kernel/SHELL/shell_debug.c **** 		case SHELL_V_TYPE_INT8:
 200:../../source/src/kernel/SHELL/shell_debug.c **** 		case SHELL_V_TYPE_INT16:
 201:../../source/src/kernel/SHELL/shell_debug.c **** 		case SHELL_V_TYPE_INT32:
 202:../../source/src/kernel/SHELL/shell_debug.c **** 		{
 203:../../source/src/kernel/SHELL/shell_debug.c **** 			INT32 int_buffer;
 204:../../source/src/kernel/SHELL/shell_debug.c **** 			int_buffer = ka_atoi(input_buffer_ptr);
 205:../../source/src/kernel/SHELL/shell_debug.c **** 			*(INT32 *)(shell_variable_ptr->data_ptr) = int_buffer;
 206:../../source/src/kernel/SHELL/shell_debug.c **** 			break ;
ARM GAS  G:\Users\Jaxb\AppData\Local\Temp\cczgCVf5.s 			page 23


 207:../../source/src/kernel/SHELL/shell_debug.c **** 		}
 208:../../source/src/kernel/SHELL/shell_debug.c **** 
 209:../../source/src/kernel/SHELL/shell_debug.c **** 		case SHELL_V_TYPE_FLOAT:
 210:../../source/src/kernel/SHELL/shell_debug.c **** 		{
 211:../../source/src/kernel/SHELL/shell_debug.c **** 			float float_buffer;
 212:../../source/src/kernel/SHELL/shell_debug.c **** 			float_buffer = ka_atof(input_buffer_ptr);
 213:../../source/src/kernel/SHELL/shell_debug.c **** 			*(float *)(shell_variable_ptr->data_ptr) = float_buffer;
 214:../../source/src/kernel/SHELL/shell_debug.c **** 			break ;
 215:../../source/src/kernel/SHELL/shell_debug.c **** 		}
 216:../../source/src/kernel/SHELL/shell_debug.c **** 		case SHELL_V_TYPE_DOUBLE:
 217:../../source/src/kernel/SHELL/shell_debug.c **** 		{
 218:../../source/src/kernel/SHELL/shell_debug.c **** 			double double_buffer;
 219:../../source/src/kernel/SHELL/shell_debug.c **** 			double_buffer = ka_atof(input_buffer_ptr);
 220:../../source/src/kernel/SHELL/shell_debug.c **** 			*(double *)(shell_variable_ptr->data_ptr) = double_buffer;
 221:../../source/src/kernel/SHELL/shell_debug.c **** 			break ;
 222:../../source/src/kernel/SHELL/shell_debug.c **** 		}
 223:../../source/src/kernel/SHELL/shell_debug.c **** 
 224:../../source/src/kernel/SHELL/shell_debug.c **** 		case SHELL_V_TYPE_CHAR:
 225:../../source/src/kernel/SHELL/shell_debug.c **** 		{
 226:../../source/src/kernel/SHELL/shell_debug.c **** 			char char_buffer;
 227:../../source/src/kernel/SHELL/shell_debug.c **** 			char_buffer = *input_buffer_ptr;
 957              		.loc 1 227 0
 958 0336 2A78     		ldrb	r2, [r5]	@ zero_extendqisi2
 959              	.LVL109:
 228:../../source/src/kernel/SHELL/shell_debug.c **** 			*(char *)(shell_variable_ptr->data_ptr) = char_buffer;
 960              		.loc 1 228 0
 961 0338 A368     		ldr	r3, [r4, #8]
 962 033a 1A70     		strb	r2, [r3]
 963              	.LBE33:
 229:../../source/src/kernel/SHELL/shell_debug.c **** 			break ;
 230:../../source/src/kernel/SHELL/shell_debug.c **** 		}
 231:../../source/src/kernel/SHELL/shell_debug.c **** 
 232:../../source/src/kernel/SHELL/shell_debug.c **** 		default :
 233:../../source/src/kernel/SHELL/shell_debug.c **** 			ASSERT(0);
 234:../../source/src/kernel/SHELL/shell_debug.c **** 			break ;
 235:../../source/src/kernel/SHELL/shell_debug.c **** 	}
 236:../../source/src/kernel/SHELL/shell_debug.c **** }
 964              		.loc 1 236 0
 965 033c 38BD     		pop	{r3, r4, r5, pc}
 966              	.LVL110:
 967              	.L111:
 968              	.LBB34:
 219:../../source/src/kernel/SHELL/shell_debug.c **** 			*(double *)(shell_variable_ptr->data_ptr) = double_buffer;
 969              		.loc 1 219 0
 970 033e 2846     		mov	r0, r5
 971 0340 FFF7FEFF 		bl	ka_atof
 972              	.LVL111:
 220:../../source/src/kernel/SHELL/shell_debug.c **** 			break ;
 973              		.loc 1 220 0
 974 0344 A368     		ldr	r3, [r4, #8]
 975 0346 C3E90001 		strd	r0, [r3]
 976              	.LBE34:
 977              		.loc 1 236 0
 978 034a 38BD     		pop	{r3, r4, r5, pc}
 979              	.LVL112:
 980              	.L110:
 981              	.LBB35:
ARM GAS  G:\Users\Jaxb\AppData\Local\Temp\cczgCVf5.s 			page 24


 212:../../source/src/kernel/SHELL/shell_debug.c **** 			*(float *)(shell_variable_ptr->data_ptr) = float_buffer;
 982              		.loc 1 212 0
 983 034c 2846     		mov	r0, r5
 984 034e FFF7FEFF 		bl	ka_atof
 985              	.LVL113:
 986 0352 FFF7FEFF 		bl	__aeabi_d2f
 987              	.LVL114:
 213:../../source/src/kernel/SHELL/shell_debug.c **** 			break ;
 988              		.loc 1 213 0
 989 0356 A368     		ldr	r3, [r4, #8]
 212:../../source/src/kernel/SHELL/shell_debug.c **** 			*(float *)(shell_variable_ptr->data_ptr) = float_buffer;
 990              		.loc 1 212 0
 991 0358 1860     		str	r0, [r3]	@ float
 992              	.LBE35:
 993              		.loc 1 236 0
 994 035a 38BD     		pop	{r3, r4, r5, pc}
 995              	.LVL115:
 996              	.L108:
 997              	.LBB36:
 204:../../source/src/kernel/SHELL/shell_debug.c **** 			*(INT32 *)(shell_variable_ptr->data_ptr) = int_buffer;
 998              		.loc 1 204 0
 999 035c 2846     		mov	r0, r5
 1000 035e FFF7FEFF 		bl	ka_atoi
 1001              	.LVL116:
 205:../../source/src/kernel/SHELL/shell_debug.c **** 			break ;
 1002              		.loc 1 205 0
 1003 0362 A368     		ldr	r3, [r4, #8]
 1004 0364 1860     		str	r0, [r3]
 1005              	.LBE36:
 1006              		.loc 1 236 0
 1007 0366 38BD     		pop	{r3, r4, r5, pc}
 1008              	.LVL117:
 1009              	.L107:
 233:../../source/src/kernel/SHELL/shell_debug.c **** 			break ;
 1010              		.loc 1 233 0 discriminator 1
 1011 0368 E921     		movs	r1, #233
 1012              		.loc 1 236 0 discriminator 1
 1013 036a BDE83840 		pop	{r3, r4, r5, lr}
 1014              	.LVL118:
 233:../../source/src/kernel/SHELL/shell_debug.c **** 			break ;
 1015              		.loc 1 233 0 discriminator 1
 1016 036e 0748     		ldr	r0, .L116
 1017 0370 FFF7FEBF 		b	_ASSERT
 1018              	.LVL119:
 1019              	.L114:
 192:../../source/src/kernel/SHELL/shell_debug.c **** 	ASSERT(NULL != input_buffer_ptr);
 1020              		.loc 1 192 0 discriminator 1
 1021 0374 C021     		movs	r1, #192
 1022              	.LVL120:
 1023 0376 0548     		ldr	r0, .L116
 1024              	.LVL121:
 1025 0378 FFF7FEFF 		bl	_ASSERT
 1026              	.LVL122:
 193:../../source/src/kernel/SHELL/shell_debug.c **** 	switch(shell_variable_ptr->shell_v_type)
 1027              		.loc 1 193 0 discriminator 1
 1028 037c 002D     		cmp	r5, #0
 1029 037e CFD1     		bne	.L106
ARM GAS  G:\Users\Jaxb\AppData\Local\Temp\cczgCVf5.s 			page 25


 1030              	.L115:
 1031 0380 C121     		movs	r1, #193
 1032 0382 0248     		ldr	r0, .L116
 1033 0384 FFF7FEFF 		bl	_ASSERT
 1034              	.LVL123:
 1035 0388 CAE7     		b	.L106
 1036              	.L117:
 1037 038a 00BF     		.align	2
 1038              	.L116:
 1039 038c 00000000 		.word	.LC0
 1040              		.cfi_endproc
 1041              	.LFE26:
 1042              		.size	shell_v_write, .-shell_v_write
 1043              		.data
 1044              		.align	2
 1045              		.set	.LANCHOR1,. + 0
 1046              		.type	flag_for_shell_debug, %object
 1047              		.size	flag_for_shell_debug, 4
 1048              	flag_for_shell_debug:
 1049 0000 01000000 		.word	1
 1050              		.bss
 1051              		.align	2
 1052              		.set	.LANCHOR0,. + 0
 1053              		.type	MCB_for_shell_debug, %object
 1054              		.size	MCB_for_shell_debug, 32
 1055              	MCB_for_shell_debug:
 1056 0000 00000000 		.space	32
 1056      00000000 
 1056      00000000 
 1056      00000000 
 1056      00000000 
 1057              		.type	variable_array, %object
 1058              		.size	variable_array, 32
 1059              	variable_array:
 1060 0020 00000000 		.space	32
 1060      00000000 
 1060      00000000 
 1060      00000000 
 1060      00000000 
 1061              		.section	.rodata.str1.4,"aMS",%progbits,1
 1062              		.align	2
 1063              	.LC0:
 1064 0000 2E2E2F2E 		.ascii	"../../source/src/kernel/SHELL/shell_debug.c\000"
 1064      2E2F736F 
 1064      75726365 
 1064      2F737263 
 1064      2F6B6572 
 1065              	.LC1:
 1066 002c 70726F67 		.ascii	"program stop,now going to file: %s,line %u,function"
 1066      72616D20 
 1066      73746F70 
 1066      2C6E6F77 
 1066      20676F69 
 1067 005f 206E616D 		.ascii	" name is %s\012\000"
 1067      65206973 
 1067      2025730A 
 1067      00
ARM GAS  G:\Users\Jaxb\AppData\Local\Temp\cczgCVf5.s 			page 26


 1068              	.LC2:
 1069 006c 6B616B61 		.ascii	"kaka_os>>\000"
 1069      5F6F733E 
 1069      3E00
 1070 0076 0000     		.space	2
 1071              	.LC3:
 1072 0078 257300   		.ascii	"%s\000"
 1073 007b 00       		.space	1
 1074              	.LC4:
 1075 007c 7368656C 		.ascii	"shell_variable's name is \"%s\"\012\000"
 1075      6C5F7661 
 1075      72696162 
 1075      6C652773 
 1075      206E616D 
 1076 009b 00       		.space	1
 1077              	.LC5:
 1078 009c 25750A00 		.ascii	"%u\012\000"
 1079              	.LC6:
 1080 00a0 25640A00 		.ascii	"%d\012\000"
 1081              	.LC7:
 1082 00a4 25660A00 		.ascii	"%f\012\000"
 1083              	.LC8:
 1084 00a8 25630A00 		.ascii	"%c\012\000"
 1085              	.LC9:
 1086 00ac 76617269 		.ascii	"variable %s address is %p\012\000"
 1086      61626C65 
 1086      20257320 
 1086      61646472 
 1086      65737320 
 1087              		.text
 1088              	.Letext0:
 1089              		.file 3 "../../source/include/shell/shell_debug.h"
 1090              		.file 4 "../../source/include/os_cpu/kakaosstdint.h"
 1091              		.file 5 "../../source/include/os_lib/double_linked_list.h"
 1092              		.file 6 "../../source/include/os_lib/insert_sort_oo.h"
 1093              		.file 7 "../../source/include/os_core/MCB.h"
 1094              		.file 8 "../../source/include/os_lib/myMicroLIB.h"
 1095              		.file 9 "../../source/include/os_lib/myassert.h"
 1096              		.file 10 "../../source/include/os_core/TCB.h"