ARM GAS  G:\Users\Jaxb\AppData\Local\Temp\cch2S2ie.s 			page 1


   1              		.cpu cortex-m3
   2              		.eabi_attribute 20, 1
   3              		.eabi_attribute 21, 1
   4              		.eabi_attribute 23, 3
   5              		.eabi_attribute 24, 1
   6              		.eabi_attribute 25, 1
   7              		.eabi_attribute 26, 1
   8              		.eabi_attribute 30, 6
   9              		.eabi_attribute 34, 1
  10              		.eabi_attribute 18, 4
  11              		.file	"shell.c"
  12              		.text
  13              	.Ltext0:
  14              		.cfi_sections	.debug_frame
  15              		.bss
  16              		.align	2
  17              	MCB_for_shell:
  18 0000 00000000 		.space	32
  18      00000000 
  18      00000000 
  18      00000000 
  18      00000000 
  19              		.size	MCB_for_shell, 32
  20              		.align	2
  21              	main_shell_buffer:
  22 0020 00000000 		.space	96
  22      00000000 
  22      00000000 
  22      00000000 
  22      00000000 
  23              		.size	main_shell_buffer, 96
  24              		.align	2
  25              	main_buffer:
  26 0080 00000000 		.space	100
  26      00000000 
  26      00000000 
  26      00000000 
  26      00000000 
  27              		.size	main_buffer, 100
  28              		.align	2
  29              	main_buffer_reserve:
  30 00e4 00000000 		.space	100
  30      00000000 
  30      00000000 
  30      00000000 
  30      00000000 
  31              		.size	main_buffer_reserve, 100
  32              		.align	2
  33              	using_shell_buffer_ptr:
  34 0148 00000000 		.space	4
  35              		.size	using_shell_buffer_ptr, 4
  36              		.text
  37              		.align	1
  38              		.syntax unified
  39              		.thumb
  40              		.thumb_func
  41              		.fpu softvfp
ARM GAS  G:\Users\Jaxb\AppData\Local\Temp\cch2S2ie.s 			page 2


  42              		.type	clear_input_buffer, %function
  43              	clear_input_buffer:
  44              	.LFB15:
  45              		.file 1 "../../source/src/kernel/SHELL/shell.c"
   1:../../source/src/kernel/SHELL/shell.c **** #include <myMicroLIB.h>
   2:../../source/src/kernel/SHELL/shell.c **** #include <command_processor.h>
   3:../../source/src/kernel/SHELL/shell.c **** #include <MCB.h>
   4:../../source/src/kernel/SHELL/shell.c **** #include <myassert.h>
   5:../../source/src/kernel/SHELL/shell.c **** #include <shell_fun.h>
   6:../../source/src/kernel/SHELL/shell.c **** #include <TCB.h>
   7:../../source/src/kernel/SHELL/shell.c **** #include <slab.h>
   8:../../source/src/kernel/SHELL/shell.c **** #include <shell_debug.h>
   9:../../source/src/kernel/SHELL/shell.c **** #include <shell.h>
  10:../../source/src/kernel/SHELL/shell.c **** #include <buddy.h>
  11:../../source/src/kernel/SHELL/shell.c **** #include <os_ready.h>
  12:../../source/src/kernel/SHELL/shell.c **** #include <os_TCB_list.h>
  13:../../source/src/kernel/SHELL/shell.c **** #include <os_cpu.h>
  14:../../source/src/kernel/SHELL/shell.c **** #include <export.h>
  15:../../source/src/kernel/SHELL/shell.c **** #include <module.h>
  16:../../source/src/kernel/SHELL/shell.c **** 
  17:../../source/src/kernel/SHELL/shell.c **** #if CONFIG_SHELL_EN
  18:../../source/src/kernel/SHELL/shell.c **** 
  19:../../source/src/kernel/SHELL/shell.c **** static MCB MCB_for_shell;
  20:../../source/src/kernel/SHELL/shell.c **** 
  21:../../source/src/kernel/SHELL/shell.c **** static struct shell_buffer main_shell_buffer;
  22:../../source/src/kernel/SHELL/shell.c **** static char main_buffer[BUFFER_SIZE];
  23:../../source/src/kernel/SHELL/shell.c **** static char main_buffer_reserve[BUFFER_SIZE];
  24:../../source/src/kernel/SHELL/shell.c **** 
  25:../../source/src/kernel/SHELL/shell.c **** static struct shell_buffer *using_shell_buffer_ptr = NULL;
  26:../../source/src/kernel/SHELL/shell.c **** 
  27:../../source/src/kernel/SHELL/shell.c **** static inline void clear_input_buffer(void)
  28:../../source/src/kernel/SHELL/shell.c **** {
  46              		.loc 1 28 0
  47              		.cfi_startproc
  48              		@ args = 0, pretend = 0, frame = 0
  49              		@ frame_needed = 1, uses_anonymous_args = 0
  50              		@ link register save eliminated.
  51 0000 80B4     		push	{r7}
  52              	.LCFI0:
  53              		.cfi_def_cfa_offset 4
  54              		.cfi_offset 7, -4
  55 0002 00AF     		add	r7, sp, #0
  56              	.LCFI1:
  57              		.cfi_def_cfa_register 7
  29:../../source/src/kernel/SHELL/shell.c **** 	using_shell_buffer_ptr->index = 0;
  58              		.loc 1 29 0
  59 0004 064B     		ldr	r3, .L2
  60 0006 1B68     		ldr	r3, [r3]
  61 0008 0022     		movs	r2, #0
  62 000a 9A65     		str	r2, [r3, #88]
  30:../../source/src/kernel/SHELL/shell.c **** 	using_shell_buffer_ptr->buffer[0] = '\0';
  63              		.loc 1 30 0
  64 000c 044B     		ldr	r3, .L2
  65 000e 1B68     		ldr	r3, [r3]
  66 0010 1B6D     		ldr	r3, [r3, #80]
  67 0012 0022     		movs	r2, #0
  68 0014 1A70     		strb	r2, [r3]
ARM GAS  G:\Users\Jaxb\AppData\Local\Temp\cch2S2ie.s 			page 3


  31:../../source/src/kernel/SHELL/shell.c **** }
  69              		.loc 1 31 0
  70 0016 00BF     		nop
  71 0018 BD46     		mov	sp, r7
  72              	.LCFI2:
  73              		.cfi_def_cfa_register 13
  74              		@ sp needed
  75 001a 80BC     		pop	{r7}
  76              	.LCFI3:
  77              		.cfi_restore 7
  78              		.cfi_def_cfa_offset 0
  79 001c 7047     		bx	lr
  80              	.L3:
  81 001e 00BF     		.align	2
  82              	.L2:
  83 0020 48010000 		.word	using_shell_buffer_ptr
  84              		.cfi_endproc
  85              	.LFE15:
  86              		.size	clear_input_buffer, .-clear_input_buffer
  87              		.section	.rodata
  88              		.align	2
  89              	.LC0:
  90 0000 2E2E2F2E 		.ascii	"../../source/src/kernel/SHELL/shell.c\000"
  90      2E2F736F 
  90      75726365 
  90      2F737263 
  90      2F6B6572 
  91 0026 0000     		.align	2
  92              	.LC1:
  93 0028 6572726F 		.ascii	"error fun name : shell_buffer_wait_str\012error par"
  93      72206675 
  93      6E206E61 
  93      6D65203A 
  93      20736865 
  94 0058 61203A20 		.ascii	"a : str_ptr\012\000"
  94      7374725F 
  94      7074720A 
  94      00
  95 0065 000000   		.align	2
  96              	.LC2:
  97 0068 77726F6E 		.ascii	"wrong input\012\000"
  97      6720696E 
  97      7075740A 
  97      00
  98              		.text
  99              		.align	1
 100              		.global	shell_buffer_wait_str
 101              		.syntax unified
 102              		.thumb
 103              		.thumb_func
 104              		.fpu softvfp
 105              		.type	shell_buffer_wait_str, %function
 106              	shell_buffer_wait_str:
 107              	.LFB16:
  32:../../source/src/kernel/SHELL/shell.c **** 
  33:../../source/src/kernel/SHELL/shell.c **** void shell_buffer_wait_str(const char *str_ptr) // thread will going to sleep
  34:../../source/src/kernel/SHELL/shell.c **** {
ARM GAS  G:\Users\Jaxb\AppData\Local\Temp\cch2S2ie.s 			page 4


 108              		.loc 1 34 0
 109              		.cfi_startproc
 110              		@ args = 0, pretend = 0, frame = 16
 111              		@ frame_needed = 1, uses_anonymous_args = 0
 112 0024 90B5     		push	{r4, r7, lr}
 113              	.LCFI4:
 114              		.cfi_def_cfa_offset 12
 115              		.cfi_offset 4, -12
 116              		.cfi_offset 7, -8
 117              		.cfi_offset 14, -4
 118 0026 85B0     		sub	sp, sp, #20
 119              	.LCFI5:
 120              		.cfi_def_cfa_offset 32
 121 0028 00AF     		add	r7, sp, #0
 122              	.LCFI6:
 123              		.cfi_def_cfa_register 7
 124 002a 7860     		str	r0, [r7, #4]
  35:../../source/src/kernel/SHELL/shell.c **** 	ASSERT(NULL != str_ptr);
 125              		.loc 1 35 0
 126 002c 7B68     		ldr	r3, [r7, #4]
 127 002e 002B     		cmp	r3, #0
 128 0030 03D1     		bne	.L5
 129              		.loc 1 35 0 is_stmt 0 discriminator 1
 130 0032 2321     		movs	r1, #35
 131 0034 1748     		ldr	r0, .L11
 132 0036 FFF7FEFF 		bl	_ASSERT
 133              	.L5:
  36:../../source/src/kernel/SHELL/shell.c **** #if CONFIG_PARA_CHECK	
  37:../../source/src/kernel/SHELL/shell.c **** 	if(NULL == str_ptr)
 134              		.loc 1 37 0 is_stmt 1
 135 003a 7B68     		ldr	r3, [r7, #4]
 136 003c 002B     		cmp	r3, #0
 137 003e 03D1     		bne	.L6
  38:../../source/src/kernel/SHELL/shell.c **** 	{
  39:../../source/src/kernel/SHELL/shell.c **** 		OS_ERROR_PARA_MESSAGE_DISPLAY(shell_buffer_wait_str,str_ptr);
 138              		.loc 1 39 0
 139 0040 1548     		ldr	r0, .L11+4
 140 0042 FFF7FEFF 		bl	ka_printf
  40:../../source/src/kernel/SHELL/shell.c **** 		return ;
 141              		.loc 1 40 0
 142 0046 22E0     		b	.L4
 143              	.L6:
  41:../../source/src/kernel/SHELL/shell.c **** 	}
  42:../../source/src/kernel/SHELL/shell.c **** #endif
  43:../../source/src/kernel/SHELL/shell.c **** #if CONFIG_ASSERT_DEBUG
  44:../../source/src/kernel/SHELL/shell.c **** 	int error;
  45:../../source/src/kernel/SHELL/shell.c **** #endif
  46:../../source/src/kernel/SHELL/shell.c **** 	while(1)
  47:../../source/src/kernel/SHELL/shell.c **** 	{
  48:../../source/src/kernel/SHELL/shell.c **** #if CONFIG_ASSERT_DEBUG
  49:../../source/src/kernel/SHELL/shell.c **** 		error = p(&MCB_for_shell,MCB_FLAG_WAIT,0);
 144              		.loc 1 49 0
 145 0048 0022     		movs	r2, #0
 146 004a 0021     		movs	r1, #0
 147 004c 1348     		ldr	r0, .L11+8
 148 004e FFF7FEFF 		bl	p
 149 0052 F860     		str	r0, [r7, #12]
ARM GAS  G:\Users\Jaxb\AppData\Local\Temp\cch2S2ie.s 			page 5


  50:../../source/src/kernel/SHELL/shell.c **** #else
  51:../../source/src/kernel/SHELL/shell.c **** 		p(&MCB_for_shell,MCB_FLAG_WAIT,0);
  52:../../source/src/kernel/SHELL/shell.c **** #endif
  53:../../source/src/kernel/SHELL/shell.c **** 		ASSERT(FUN_EXECUTE_SUCCESSFULLY == error);
 150              		.loc 1 53 0
 151 0054 FB68     		ldr	r3, [r7, #12]
 152 0056 002B     		cmp	r3, #0
 153 0058 03D0     		beq	.L8
 154              		.loc 1 53 0 is_stmt 0 discriminator 1
 155 005a 3521     		movs	r1, #53
 156 005c 0D48     		ldr	r0, .L11
 157 005e FFF7FEFF 		bl	_ASSERT
 158              	.L8:
  54:../../source/src/kernel/SHELL/shell.c **** 		if(0 == ka_strncmp(using_shell_buffer_ptr->buffer,str_ptr,ka_strlen(str_ptr)))
 159              		.loc 1 54 0 is_stmt 1
 160 0062 0F4B     		ldr	r3, .L11+12
 161 0064 1B68     		ldr	r3, [r3]
 162 0066 1C6D     		ldr	r4, [r3, #80]
 163 0068 7868     		ldr	r0, [r7, #4]
 164 006a FFF7FEFF 		bl	ka_strlen
 165 006e 0346     		mov	r3, r0
 166 0070 1A46     		mov	r2, r3
 167 0072 7968     		ldr	r1, [r7, #4]
 168 0074 2046     		mov	r0, r4
 169 0076 FFF7FEFF 		bl	ka_strncmp
 170 007a 0346     		mov	r3, r0
 171 007c 002B     		cmp	r3, #0
 172 007e 05D0     		beq	.L10
  55:../../source/src/kernel/SHELL/shell.c **** 		{
  56:../../source/src/kernel/SHELL/shell.c **** 			return ;
  57:../../source/src/kernel/SHELL/shell.c **** 		}
  58:../../source/src/kernel/SHELL/shell.c **** 		ka_printf("wrong input\n");
 173              		.loc 1 58 0
 174 0080 0848     		ldr	r0, .L11+16
 175 0082 FFF7FEFF 		bl	ka_printf
  59:../../source/src/kernel/SHELL/shell.c **** 		clear_input_buffer();
 176              		.loc 1 59 0
 177 0086 FFF7BBFF 		bl	clear_input_buffer
  49:../../source/src/kernel/SHELL/shell.c **** #else
 178              		.loc 1 49 0
 179 008a DDE7     		b	.L6
 180              	.L10:
  56:../../source/src/kernel/SHELL/shell.c **** 		}
 181              		.loc 1 56 0
 182 008c 00BF     		nop
 183              	.L4:
  60:../../source/src/kernel/SHELL/shell.c **** 	}
  61:../../source/src/kernel/SHELL/shell.c **** }
 184              		.loc 1 61 0
 185 008e 1437     		adds	r7, r7, #20
 186              	.LCFI7:
 187              		.cfi_def_cfa_offset 12
 188 0090 BD46     		mov	sp, r7
 189              	.LCFI8:
 190              		.cfi_def_cfa_register 13
 191              		@ sp needed
 192 0092 90BD     		pop	{r4, r7, pc}
ARM GAS  G:\Users\Jaxb\AppData\Local\Temp\cch2S2ie.s 			page 6


 193              	.L12:
 194              		.align	2
 195              	.L11:
 196 0094 00000000 		.word	.LC0
 197 0098 28000000 		.word	.LC1
 198 009c 00000000 		.word	MCB_for_shell
 199 00a0 48010000 		.word	using_shell_buffer_ptr
 200 00a4 68000000 		.word	.LC2
 201              		.cfi_endproc
 202              	.LFE16:
 203              		.size	shell_buffer_wait_str, .-shell_buffer_wait_str
 204              		.align	1
 205              		.global	get_para_add
 206              		.syntax unified
 207              		.thumb
 208              		.thumb_func
 209              		.fpu softvfp
 210              		.type	get_para_add, %function
 211              	get_para_add:
 212              	.LFB17:
  62:../../source/src/kernel/SHELL/shell.c **** 
  63:../../source/src/kernel/SHELL/shell.c **** char *get_para_add(int argc, char const *argv[], const char *pre_name)
  64:../../source/src/kernel/SHELL/shell.c **** {
 213              		.loc 1 64 0
 214              		.cfi_startproc
 215              		@ args = 0, pretend = 0, frame = 24
 216              		@ frame_needed = 1, uses_anonymous_args = 0
 217 00a8 90B5     		push	{r4, r7, lr}
 218              	.LCFI9:
 219              		.cfi_def_cfa_offset 12
 220              		.cfi_offset 4, -12
 221              		.cfi_offset 7, -8
 222              		.cfi_offset 14, -4
 223 00aa 87B0     		sub	sp, sp, #28
 224              	.LCFI10:
 225              		.cfi_def_cfa_offset 40
 226 00ac 00AF     		add	r7, sp, #0
 227              	.LCFI11:
 228              		.cfi_def_cfa_register 7
 229 00ae F860     		str	r0, [r7, #12]
 230 00b0 B960     		str	r1, [r7, #8]
 231 00b2 7A60     		str	r2, [r7, #4]
  65:../../source/src/kernel/SHELL/shell.c **** 	unsigned int i;
  66:../../source/src/kernel/SHELL/shell.c **** 	for(i=1;i<argc;++i)
 232              		.loc 1 66 0
 233 00b4 0123     		movs	r3, #1
 234 00b6 7B61     		str	r3, [r7, #20]
 235 00b8 1EE0     		b	.L14
 236              	.L17:
  67:../../source/src/kernel/SHELL/shell.c **** 	{
  68:../../source/src/kernel/SHELL/shell.c **** 		if(0 == ka_strncmp(pre_name,argv[i],ka_strlen(pre_name)))
 237              		.loc 1 68 0
 238 00ba 7B69     		ldr	r3, [r7, #20]
 239 00bc 9B00     		lsls	r3, r3, #2
 240 00be BA68     		ldr	r2, [r7, #8]
 241 00c0 1344     		add	r3, r3, r2
 242 00c2 1C68     		ldr	r4, [r3]
ARM GAS  G:\Users\Jaxb\AppData\Local\Temp\cch2S2ie.s 			page 7


 243 00c4 7868     		ldr	r0, [r7, #4]
 244 00c6 FFF7FEFF 		bl	ka_strlen
 245 00ca 0346     		mov	r3, r0
 246 00cc 1A46     		mov	r2, r3
 247 00ce 2146     		mov	r1, r4
 248 00d0 7868     		ldr	r0, [r7, #4]
 249 00d2 FFF7FEFF 		bl	ka_strncmp
 250 00d6 0346     		mov	r3, r0
 251 00d8 002B     		cmp	r3, #0
 252 00da 0AD1     		bne	.L15
  69:../../source/src/kernel/SHELL/shell.c **** 		{
  70:../../source/src/kernel/SHELL/shell.c **** 			return (char *)(argv[i] + ka_strlen(pre_name));
 253              		.loc 1 70 0
 254 00dc 7B69     		ldr	r3, [r7, #20]
 255 00de 9B00     		lsls	r3, r3, #2
 256 00e0 BA68     		ldr	r2, [r7, #8]
 257 00e2 1344     		add	r3, r3, r2
 258 00e4 1C68     		ldr	r4, [r3]
 259 00e6 7868     		ldr	r0, [r7, #4]
 260 00e8 FFF7FEFF 		bl	ka_strlen
 261 00ec 0346     		mov	r3, r0
 262 00ee 2344     		add	r3, r3, r4
 263 00f0 07E0     		b	.L16
 264              	.L15:
  66:../../source/src/kernel/SHELL/shell.c **** 	{
 265              		.loc 1 66 0 discriminator 2
 266 00f2 7B69     		ldr	r3, [r7, #20]
 267 00f4 0133     		adds	r3, r3, #1
 268 00f6 7B61     		str	r3, [r7, #20]
 269              	.L14:
  66:../../source/src/kernel/SHELL/shell.c **** 	{
 270              		.loc 1 66 0 is_stmt 0 discriminator 1
 271 00f8 FB68     		ldr	r3, [r7, #12]
 272 00fa 7A69     		ldr	r2, [r7, #20]
 273 00fc 9A42     		cmp	r2, r3
 274 00fe DCD3     		bcc	.L17
  71:../../source/src/kernel/SHELL/shell.c **** 		}
  72:../../source/src/kernel/SHELL/shell.c **** 	}
  73:../../source/src/kernel/SHELL/shell.c **** 	return NULL;
 275              		.loc 1 73 0 is_stmt 1
 276 0100 0023     		movs	r3, #0
 277              	.L16:
  74:../../source/src/kernel/SHELL/shell.c **** }
 278              		.loc 1 74 0
 279 0102 1846     		mov	r0, r3
 280 0104 1C37     		adds	r7, r7, #28
 281              	.LCFI12:
 282              		.cfi_def_cfa_offset 12
 283 0106 BD46     		mov	sp, r7
 284              	.LCFI13:
 285              		.cfi_def_cfa_register 13
 286              		@ sp needed
 287 0108 90BD     		pop	{r4, r7, pc}
 288              		.cfi_endproc
 289              	.LFE17:
 290              		.size	get_para_add, .-get_para_add
 291              		.section	.rodata
ARM GAS  G:\Users\Jaxb\AppData\Local\Temp\cch2S2ie.s 			page 8


 292 0075 000000   		.align	2
 293              	.LC3:
 294 0078 6572726F 		.ascii	"error fun name : change_shell_buffer\012error para "
 294      72206675 
 294      6E206E61 
 294      6D65203A 
 294      20636861 
 295 00a8 3A207368 		.ascii	": shell_buffer_ptr\012\000"
 295      656C6C5F 
 295      62756666 
 295      65725F70 
 295      74720A00 
 296              		.text
 297              		.align	1
 298              		.global	change_shell_buffer
 299              		.syntax unified
 300              		.thumb
 301              		.thumb_func
 302              		.fpu softvfp
 303              		.type	change_shell_buffer, %function
 304              	change_shell_buffer:
 305              	.LFB18:
  75:../../source/src/kernel/SHELL/shell.c **** 
  76:../../source/src/kernel/SHELL/shell.c **** struct shell_buffer *change_shell_buffer(struct shell_buffer *shell_buffer_ptr)
  77:../../source/src/kernel/SHELL/shell.c **** {
 306              		.loc 1 77 0
 307              		.cfi_startproc
 308              		@ args = 0, pretend = 0, frame = 16
 309              		@ frame_needed = 1, uses_anonymous_args = 0
 310 010a 80B5     		push	{r7, lr}
 311              	.LCFI14:
 312              		.cfi_def_cfa_offset 8
 313              		.cfi_offset 7, -8
 314              		.cfi_offset 14, -4
 315 010c 84B0     		sub	sp, sp, #16
 316              	.LCFI15:
 317              		.cfi_def_cfa_offset 24
 318 010e 00AF     		add	r7, sp, #0
 319              	.LCFI16:
 320              		.cfi_def_cfa_register 7
 321 0110 7860     		str	r0, [r7, #4]
  78:../../source/src/kernel/SHELL/shell.c **** 	ASSERT(NULL != shell_buffer_ptr);
 322              		.loc 1 78 0
 323 0112 7B68     		ldr	r3, [r7, #4]
 324 0114 002B     		cmp	r3, #0
 325 0116 03D1     		bne	.L19
 326              		.loc 1 78 0 is_stmt 0 discriminator 1
 327 0118 4E21     		movs	r1, #78
 328 011a 0F48     		ldr	r0, .L22
 329 011c FFF7FEFF 		bl	_ASSERT
 330              	.L19:
  79:../../source/src/kernel/SHELL/shell.c **** #if CONFIG_PARA_CHECK
  80:../../source/src/kernel/SHELL/shell.c **** 	if(NULL == shell_buffer_ptr)
 331              		.loc 1 80 0 is_stmt 1
 332 0120 7B68     		ldr	r3, [r7, #4]
 333 0122 002B     		cmp	r3, #0
 334 0124 04D1     		bne	.L20
ARM GAS  G:\Users\Jaxb\AppData\Local\Temp\cch2S2ie.s 			page 9


  81:../../source/src/kernel/SHELL/shell.c **** 	{
  82:../../source/src/kernel/SHELL/shell.c **** 		OS_ERROR_PARA_MESSAGE_DISPLAY(change_shell_buffer,shell_buffer_ptr);
 335              		.loc 1 82 0
 336 0126 0D48     		ldr	r0, .L22+4
 337 0128 FFF7FEFF 		bl	ka_printf
  83:../../source/src/kernel/SHELL/shell.c **** 		return NULL;
 338              		.loc 1 83 0
 339 012c 0023     		movs	r3, #0
 340 012e 0EE0     		b	.L21
 341              	.L20:
  84:../../source/src/kernel/SHELL/shell.c **** 	}
  85:../../source/src/kernel/SHELL/shell.c **** #endif
  86:../../source/src/kernel/SHELL/shell.c **** 	CPU_SR_ALLOC();
 342              		.loc 1 86 0
 343 0130 0023     		movs	r3, #0
 344 0132 FB60     		str	r3, [r7, #12]
  87:../../source/src/kernel/SHELL/shell.c **** 	CPU_CRITICAL_ENTER();
 345              		.loc 1 87 0
 346 0134 FFF7FEFF 		bl	CPU_SR_Save
 347 0138 F860     		str	r0, [r7, #12]
  88:../../source/src/kernel/SHELL/shell.c **** 	struct shell_buffer *buffer = using_shell_buffer_ptr;
 348              		.loc 1 88 0
 349 013a 094B     		ldr	r3, .L22+8
 350 013c 1B68     		ldr	r3, [r3]
 351 013e BB60     		str	r3, [r7, #8]
  89:../../source/src/kernel/SHELL/shell.c **** 	using_shell_buffer_ptr = shell_buffer_ptr;
 352              		.loc 1 89 0
 353 0140 074A     		ldr	r2, .L22+8
 354 0142 7B68     		ldr	r3, [r7, #4]
 355 0144 1360     		str	r3, [r2]
  90:../../source/src/kernel/SHELL/shell.c **** 	CPU_CRITICAL_EXIT();
 356              		.loc 1 90 0
 357 0146 F868     		ldr	r0, [r7, #12]
 358 0148 FFF7FEFF 		bl	CPU_SR_Restore
  91:../../source/src/kernel/SHELL/shell.c **** 	return buffer;
 359              		.loc 1 91 0
 360 014c BB68     		ldr	r3, [r7, #8]
 361              	.L21:
  92:../../source/src/kernel/SHELL/shell.c **** }
 362              		.loc 1 92 0
 363 014e 1846     		mov	r0, r3
 364 0150 1037     		adds	r7, r7, #16
 365              	.LCFI17:
 366              		.cfi_def_cfa_offset 8
 367 0152 BD46     		mov	sp, r7
 368              	.LCFI18:
 369              		.cfi_def_cfa_register 13
 370              		@ sp needed
 371 0154 80BD     		pop	{r7, pc}
 372              	.L23:
 373 0156 00BF     		.align	2
 374              	.L22:
 375 0158 00000000 		.word	.LC0
 376 015c 78000000 		.word	.LC3
 377 0160 48010000 		.word	using_shell_buffer_ptr
 378              		.cfi_endproc
 379              	.LFE18:
ARM GAS  G:\Users\Jaxb\AppData\Local\Temp\cch2S2ie.s 			page 10


 380              		.size	change_shell_buffer, .-change_shell_buffer
 381              		.section	.rodata
 382              		.align	2
 383              	.LC4:
 384 00bc 6572726F 		.ascii	"error fun name : __init_shell_buffer\012error para "
 384      72206675 
 384      6E206E61 
 384      6D65203A 
 384      205F5F69 
 385 00ec 3A207468 		.ascii	": three_shell_buffer\012\000"
 385      7265655F 
 385      7368656C 
 385      6C5F6275 
 385      66666572 
 386              		.text
 387              		.align	1
 388              		.global	__init_shell_buffer
 389              		.syntax unified
 390              		.thumb
 391              		.thumb_func
 392              		.fpu softvfp
 393              		.type	__init_shell_buffer, %function
 394              	__init_shell_buffer:
 395              	.LFB19:
  93:../../source/src/kernel/SHELL/shell.c **** 
  94:../../source/src/kernel/SHELL/shell.c **** int __init_shell_buffer(struct shell_buffer *shell_buffer_ptr,
  95:../../source/src/kernel/SHELL/shell.c **** 	char *buffer_ptr,
  96:../../source/src/kernel/SHELL/shell.c **** 	char *buffer_reserve_ptr) // if buffer_reserve_ptr is NULL,means no reserve buffer
  97:../../source/src/kernel/SHELL/shell.c **** {
 396              		.loc 1 97 0
 397              		.cfi_startproc
 398              		@ args = 0, pretend = 0, frame = 16
 399              		@ frame_needed = 1, uses_anonymous_args = 0
 400 0164 80B5     		push	{r7, lr}
 401              	.LCFI19:
 402              		.cfi_def_cfa_offset 8
 403              		.cfi_offset 7, -8
 404              		.cfi_offset 14, -4
 405 0166 84B0     		sub	sp, sp, #16
 406              	.LCFI20:
 407              		.cfi_def_cfa_offset 24
 408 0168 00AF     		add	r7, sp, #0
 409              	.LCFI21:
 410              		.cfi_def_cfa_register 7
 411 016a F860     		str	r0, [r7, #12]
 412 016c B960     		str	r1, [r7, #8]
 413 016e 7A60     		str	r2, [r7, #4]
  98:../../source/src/kernel/SHELL/shell.c **** 	ASSERT((shell_buffer_ptr != NULL) 	&& 
 414              		.loc 1 98 0
 415 0170 FB68     		ldr	r3, [r7, #12]
 416 0172 002B     		cmp	r3, #0
 417 0174 02D0     		beq	.L25
 418              		.loc 1 98 0 is_stmt 0 discriminator 1
 419 0176 FB68     		ldr	r3, [r7, #12]
 420 0178 002B     		cmp	r3, #0
 421 017a 03D1     		bne	.L26
 422              	.L25:
ARM GAS  G:\Users\Jaxb\AppData\Local\Temp\cch2S2ie.s 			page 11


 423              		.loc 1 98 0 discriminator 3
 424 017c 6321     		movs	r1, #99
 425 017e 1048     		ldr	r0, .L30
 426 0180 FFF7FEFF 		bl	_ASSERT
 427              	.L26:
  99:../../source/src/kernel/SHELL/shell.c **** 			(shell_buffer_ptr != NULL));
 100:../../source/src/kernel/SHELL/shell.c **** #if CONFIG_PARA_CHECK
 101:../../source/src/kernel/SHELL/shell.c **** 	if((NULL == shell_buffer_ptr) 	|| 
 428              		.loc 1 101 0 is_stmt 1
 429 0184 FB68     		ldr	r3, [r7, #12]
 430 0186 002B     		cmp	r3, #0
 431 0188 02D0     		beq	.L27
 432              		.loc 1 101 0 is_stmt 0 discriminator 1
 433 018a FB68     		ldr	r3, [r7, #12]
 434 018c 002B     		cmp	r3, #0
 435 018e 05D1     		bne	.L28
 436              	.L27:
 102:../../source/src/kernel/SHELL/shell.c **** 		(NULL == shell_buffer_ptr))
 103:../../source/src/kernel/SHELL/shell.c **** 	{
 104:../../source/src/kernel/SHELL/shell.c **** 		OS_ERROR_PARA_MESSAGE_DISPLAY(__init_shell_buffer,three_shell_buffer);
 437              		.loc 1 104 0 is_stmt 1
 438 0190 0C48     		ldr	r0, .L30+4
 439 0192 FFF7FEFF 		bl	ka_printf
 105:../../source/src/kernel/SHELL/shell.c **** 		return -ERROR_NULL_INPUT_PTR;
 440              		.loc 1 105 0
 441 0196 6FF0FE03 		mvn	r3, #254
 442 019a 0CE0     		b	.L29
 443              	.L28:
 106:../../source/src/kernel/SHELL/shell.c **** 	}
 107:../../source/src/kernel/SHELL/shell.c **** #endif
 108:../../source/src/kernel/SHELL/shell.c **** 	shell_buffer_ptr->buffer 			= buffer_ptr;
 444              		.loc 1 108 0
 445 019c FB68     		ldr	r3, [r7, #12]
 446 019e BA68     		ldr	r2, [r7, #8]
 447 01a0 1A65     		str	r2, [r3, #80]
 109:../../source/src/kernel/SHELL/shell.c **** 	shell_buffer_ptr->buffer_reserve 	= buffer_reserve_ptr;
 448              		.loc 1 109 0
 449 01a2 FB68     		ldr	r3, [r7, #12]
 450 01a4 7A68     		ldr	r2, [r7, #4]
 451 01a6 5A65     		str	r2, [r3, #84]
 110:../../source/src/kernel/SHELL/shell.c **** 	shell_buffer_ptr->index 			= 0;
 452              		.loc 1 110 0
 453 01a8 FB68     		ldr	r3, [r7, #12]
 454 01aa 0022     		movs	r2, #0
 455 01ac 9A65     		str	r2, [r3, #88]
 111:../../source/src/kernel/SHELL/shell.c **** 	shell_buffer_ptr->index_reserve 	= 0;
 456              		.loc 1 111 0
 457 01ae FB68     		ldr	r3, [r7, #12]
 458 01b0 0022     		movs	r2, #0
 459 01b2 DA65     		str	r2, [r3, #92]
 112:../../source/src/kernel/SHELL/shell.c **** 	return FUN_EXECUTE_SUCCESSFULLY;
 460              		.loc 1 112 0
 461 01b4 0023     		movs	r3, #0
 462              	.L29:
 113:../../source/src/kernel/SHELL/shell.c **** }
 463              		.loc 1 113 0
 464 01b6 1846     		mov	r0, r3
ARM GAS  G:\Users\Jaxb\AppData\Local\Temp\cch2S2ie.s 			page 12


 465 01b8 1037     		adds	r7, r7, #16
 466              	.LCFI22:
 467              		.cfi_def_cfa_offset 8
 468 01ba BD46     		mov	sp, r7
 469              	.LCFI23:
 470              		.cfi_def_cfa_register 13
 471              		@ sp needed
 472 01bc 80BD     		pop	{r7, pc}
 473              	.L31:
 474 01be 00BF     		.align	2
 475              	.L30:
 476 01c0 00000000 		.word	.LC0
 477 01c4 BC000000 		.word	.LC4
 478              		.cfi_endproc
 479              	.LFE19:
 480              		.size	__init_shell_buffer, .-__init_shell_buffer
 481              		.section	.rodata
 482 0102 0000     		.align	2
 483              	.LC5:
 484 0104 0A657272 		.ascii	"\012error input\012\000"
 484      6F722069 
 484      6E707574 
 484      0A00
 485 0112 0000     		.align	2
 486              	.LC6:
 487 0114 257300   		.ascii	"%s\000"
 488 0117 00       		.align	2
 489              	.LC7:
 490 0118 200800   		.ascii	" \010\000"
 491              		.global	__aeabi_ui2d
 492              		.global	__aeabi_dcmplt
 493 011b 00       		.align	2
 494              	.LC8:
 495 011c 0A746F6F 		.ascii	"\012too long,invalid input,clear buffer...\012\000"
 495      206C6F6E 
 495      672C696E 
 495      76616C69 
 495      6420696E 
 496              		.text
 497              		.align	1
 498              		.global	put_in_shell_buffer
 499              		.syntax unified
 500              		.thumb
 501              		.thumb_func
 502              		.fpu softvfp
 503              		.type	put_in_shell_buffer, %function
 504              	put_in_shell_buffer:
 505              	.LFB20:
 114:../../source/src/kernel/SHELL/shell.c **** 
 115:../../source/src/kernel/SHELL/shell.c **** void put_in_shell_buffer(char c)  // deal with input layer
 116:../../source/src/kernel/SHELL/shell.c **** {
 506              		.loc 1 116 0
 507              		.cfi_startproc
 508              		@ args = 0, pretend = 0, frame = 8
 509              		@ frame_needed = 1, uses_anonymous_args = 0
 510 01c8 80B5     		push	{r7, lr}
 511              	.LCFI24:
ARM GAS  G:\Users\Jaxb\AppData\Local\Temp\cch2S2ie.s 			page 13


 512              		.cfi_def_cfa_offset 8
 513              		.cfi_offset 7, -8
 514              		.cfi_offset 14, -4
 515 01ca 82B0     		sub	sp, sp, #8
 516              	.LCFI25:
 517              		.cfi_def_cfa_offset 16
 518 01cc 00AF     		add	r7, sp, #0
 519              	.LCFI26:
 520              		.cfi_def_cfa_register 7
 521 01ce 0346     		mov	r3, r0
 522 01d0 FB71     		strb	r3, [r7, #7]
 117:../../source/src/kernel/SHELL/shell.c **** 	if(c == 0x0a)
 523              		.loc 1 117 0
 524 01d2 FB79     		ldrb	r3, [r7, #7]	@ zero_extendqisi2
 525 01d4 0A2B     		cmp	r3, #10
 526 01d6 00F08E80 		beq	.L50
 118:../../source/src/kernel/SHELL/shell.c **** 	{
 119:../../source/src/kernel/SHELL/shell.c **** 		return ;
 120:../../source/src/kernel/SHELL/shell.c **** 	}
 121:../../source/src/kernel/SHELL/shell.c **** 	if( ! (	IS_LOWER(c) || IS_UPPER(c) || (0x0d == c) || 
 527              		.loc 1 121 0
 528 01da FB79     		ldrb	r3, [r7, #7]	@ zero_extendqisi2
 529 01dc 602B     		cmp	r3, #96
 530 01de 02D9     		bls	.L35
 531              		.loc 1 121 0 is_stmt 0 discriminator 2
 532 01e0 FB79     		ldrb	r3, [r7, #7]	@ zero_extendqisi2
 533 01e2 7A2B     		cmp	r3, #122
 534 01e4 2ED9     		bls	.L36
 535              	.L35:
 536              		.loc 1 121 0 discriminator 3
 537 01e6 FB79     		ldrb	r3, [r7, #7]	@ zero_extendqisi2
 538 01e8 402B     		cmp	r3, #64
 539 01ea 02D9     		bls	.L37
 540              		.loc 1 121 0 discriminator 5
 541 01ec FB79     		ldrb	r3, [r7, #7]	@ zero_extendqisi2
 542 01ee 5A2B     		cmp	r3, #90
 543 01f0 28D9     		bls	.L36
 544              	.L37:
 545              		.loc 1 121 0 discriminator 6
 546 01f2 FB79     		ldrb	r3, [r7, #7]	@ zero_extendqisi2
 547 01f4 0D2B     		cmp	r3, #13
 548 01f6 25D0     		beq	.L36
 549              		.loc 1 121 0 discriminator 7
 550 01f8 FB79     		ldrb	r3, [r7, #7]	@ zero_extendqisi2
 551 01fa 032B     		cmp	r3, #3
 552 01fc 22D0     		beq	.L36
 122:../../source/src/kernel/SHELL/shell.c **** 			(0x03 == c) || (0x08 == c) || (' ' == c)  || 
 553              		.loc 1 122 0 is_stmt 1
 554 01fe FB79     		ldrb	r3, [r7, #7]	@ zero_extendqisi2
 555 0200 082B     		cmp	r3, #8
 556 0202 1FD0     		beq	.L36
 557              		.loc 1 122 0 is_stmt 0 discriminator 1
 558 0204 FB79     		ldrb	r3, [r7, #7]	@ zero_extendqisi2
 559 0206 202B     		cmp	r3, #32
 560 0208 1CD0     		beq	.L36
 561              		.loc 1 122 0 discriminator 2
 562 020a FB79     		ldrb	r3, [r7, #7]	@ zero_extendqisi2
ARM GAS  G:\Users\Jaxb\AppData\Local\Temp\cch2S2ie.s 			page 14


 563 020c 2F2B     		cmp	r3, #47
 564 020e 02D9     		bls	.L38
 123:../../source/src/kernel/SHELL/shell.c **** 			IS_NUM(c) 	|| IS_DOT(c)   || ('-' == c)  || 
 565              		.loc 1 123 0 is_stmt 1
 566 0210 FB79     		ldrb	r3, [r7, #7]	@ zero_extendqisi2
 567 0212 392B     		cmp	r3, #57
 568 0214 16D9     		bls	.L36
 569              	.L38:
 570              		.loc 1 123 0 is_stmt 0 discriminator 1
 571 0216 FB79     		ldrb	r3, [r7, #7]	@ zero_extendqisi2
 572 0218 2E2B     		cmp	r3, #46
 573 021a 13D0     		beq	.L36
 574              		.loc 1 123 0 discriminator 2
 575 021c FB79     		ldrb	r3, [r7, #7]	@ zero_extendqisi2
 576 021e 2D2B     		cmp	r3, #45
 577 0220 10D0     		beq	.L36
 578              		.loc 1 123 0 discriminator 3
 579 0222 FB79     		ldrb	r3, [r7, #7]	@ zero_extendqisi2
 580 0224 2B2B     		cmp	r3, #43
 581 0226 0DD0     		beq	.L36
 121:../../source/src/kernel/SHELL/shell.c **** 			(0x03 == c) || (0x08 == c) || (' ' == c)  || 
 582              		.loc 1 121 0 is_stmt 1
 583 0228 FB79     		ldrb	r3, [r7, #7]	@ zero_extendqisi2
 584 022a 3D2B     		cmp	r3, #61
 585 022c 0AD0     		beq	.L36
 124:../../source/src/kernel/SHELL/shell.c **** 			('+' == c)	|| ('=' == c)))
 125:../../source/src/kernel/SHELL/shell.c **** 	{
 126:../../source/src/kernel/SHELL/shell.c **** 		ka_printf("\nerror input\n");
 586              		.loc 1 126 0
 587 022e 3448     		ldr	r0, .L51
 588 0230 FFF7FEFF 		bl	ka_printf
 127:../../source/src/kernel/SHELL/shell.c **** 		ka_printf("%s",using_shell_buffer_ptr->buffer);
 589              		.loc 1 127 0
 590 0234 334B     		ldr	r3, .L51+4
 591 0236 1B68     		ldr	r3, [r3]
 592 0238 1B6D     		ldr	r3, [r3, #80]
 593 023a 1946     		mov	r1, r3
 594 023c 3248     		ldr	r0, .L51+8
 595 023e FFF7FEFF 		bl	ka_printf
 128:../../source/src/kernel/SHELL/shell.c **** 		return ;
 596              		.loc 1 128 0
 597 0242 59E0     		b	.L32
 598              	.L36:
 129:../../source/src/kernel/SHELL/shell.c **** 	}
 130:../../source/src/kernel/SHELL/shell.c **** 	if(IS_UPPER(c)) 
 599              		.loc 1 130 0
 600 0244 FB79     		ldrb	r3, [r7, #7]	@ zero_extendqisi2
 601 0246 402B     		cmp	r3, #64
 602 0248 05D9     		bls	.L39
 603              		.loc 1 130 0 is_stmt 0 discriminator 1
 604 024a FB79     		ldrb	r3, [r7, #7]	@ zero_extendqisi2
 605 024c 5A2B     		cmp	r3, #90
 606 024e 02D8     		bhi	.L39
 131:../../source/src/kernel/SHELL/shell.c **** 	{
 132:../../source/src/kernel/SHELL/shell.c **** 		c += 'a' - 'A'; 
 607              		.loc 1 132 0 is_stmt 1
 608 0250 FB79     		ldrb	r3, [r7, #7]
ARM GAS  G:\Users\Jaxb\AppData\Local\Temp\cch2S2ie.s 			page 15


 609 0252 2033     		adds	r3, r3, #32
 610 0254 FB71     		strb	r3, [r7, #7]
 611              	.L39:
 133:../../source/src/kernel/SHELL/shell.c **** 	}
 134:../../source/src/kernel/SHELL/shell.c **** 	if(0x08 == c) // backspace key
 612              		.loc 1 134 0
 613 0256 FB79     		ldrb	r3, [r7, #7]	@ zero_extendqisi2
 614 0258 082B     		cmp	r3, #8
 615 025a 1AD1     		bne	.L40
 135:../../source/src/kernel/SHELL/shell.c **** 	{
 136:../../source/src/kernel/SHELL/shell.c **** 		if(using_shell_buffer_ptr->index>0)
 616              		.loc 1 136 0
 617 025c 294B     		ldr	r3, .L51+4
 618 025e 1B68     		ldr	r3, [r3]
 619 0260 9B6D     		ldr	r3, [r3, #88]
 620 0262 002B     		cmp	r3, #0
 621 0264 08D0     		beq	.L41
 137:../../source/src/kernel/SHELL/shell.c **** 		{
 138:../../source/src/kernel/SHELL/shell.c **** 			--(using_shell_buffer_ptr->index);
 622              		.loc 1 138 0
 623 0266 274B     		ldr	r3, .L51+4
 624 0268 1B68     		ldr	r3, [r3]
 625 026a 9A6D     		ldr	r2, [r3, #88]
 626 026c 013A     		subs	r2, r2, #1
 627 026e 9A65     		str	r2, [r3, #88]
 139:../../source/src/kernel/SHELL/shell.c **** 			ka_printf(" \b");
 628              		.loc 1 139 0
 629 0270 2648     		ldr	r0, .L51+12
 630 0272 FFF7FEFF 		bl	ka_printf
 140:../../source/src/kernel/SHELL/shell.c **** 		}
 141:../../source/src/kernel/SHELL/shell.c **** 		else
 142:../../source/src/kernel/SHELL/shell.c **** 		{
 143:../../source/src/kernel/SHELL/shell.c **** 			ASSERT(0 == using_shell_buffer_ptr->index);
 144:../../source/src/kernel/SHELL/shell.c **** 			ka_putchar('\a');
 145:../../source/src/kernel/SHELL/shell.c **** 		}
 146:../../source/src/kernel/SHELL/shell.c **** 		return ;
 631              		.loc 1 146 0
 632 0276 3FE0     		b	.L32
 633              	.L41:
 143:../../source/src/kernel/SHELL/shell.c **** 			ka_putchar('\a');
 634              		.loc 1 143 0
 635 0278 224B     		ldr	r3, .L51+4
 636 027a 1B68     		ldr	r3, [r3]
 637 027c 9B6D     		ldr	r3, [r3, #88]
 638 027e 002B     		cmp	r3, #0
 639 0280 03D0     		beq	.L43
 143:../../source/src/kernel/SHELL/shell.c **** 			ka_putchar('\a');
 640              		.loc 1 143 0 is_stmt 0 discriminator 1
 641 0282 8F21     		movs	r1, #143
 642 0284 2248     		ldr	r0, .L51+16
 643 0286 FFF7FEFF 		bl	_ASSERT
 644              	.L43:
 144:../../source/src/kernel/SHELL/shell.c **** 		}
 645              		.loc 1 144 0 is_stmt 1
 646 028a 0720     		movs	r0, #7
 647 028c FFF7FEFF 		bl	ka_putchar
 648              		.loc 1 146 0
ARM GAS  G:\Users\Jaxb\AppData\Local\Temp\cch2S2ie.s 			page 16


 649 0290 32E0     		b	.L32
 650              	.L40:
 147:../../source/src/kernel/SHELL/shell.c **** 	}
 148:../../source/src/kernel/SHELL/shell.c **** 	if(using_shell_buffer_ptr->index < BUFFER_SIZE*0.8)
 651              		.loc 1 148 0
 652 0292 1C4B     		ldr	r3, .L51+4
 653 0294 1B68     		ldr	r3, [r3]
 654 0296 9B6D     		ldr	r3, [r3, #88]
 655 0298 1846     		mov	r0, r3
 656 029a FFF7FEFF 		bl	__aeabi_ui2d
 657              	.LVL0:
 658 029e 4FF00002 		mov	r2, #0
 659 02a2 1C4B     		ldr	r3, .L51+20
 660 02a4 FFF7FEFF 		bl	__aeabi_dcmplt
 661              	.LVL1:
 662 02a8 0346     		mov	r3, r0
 663 02aa 002B     		cmp	r3, #0
 664 02ac 17D0     		beq	.L48
 149:../../source/src/kernel/SHELL/shell.c **** 	{
 150:../../source/src/kernel/SHELL/shell.c **** 		using_shell_buffer_ptr->buffer[(using_shell_buffer_ptr->index)++] = c;
 665              		.loc 1 150 0
 666 02ae 154B     		ldr	r3, .L51+4
 667 02b0 1B68     		ldr	r3, [r3]
 668 02b2 196D     		ldr	r1, [r3, #80]
 669 02b4 134B     		ldr	r3, .L51+4
 670 02b6 1A68     		ldr	r2, [r3]
 671 02b8 936D     		ldr	r3, [r2, #88]
 672 02ba 581C     		adds	r0, r3, #1
 673 02bc 9065     		str	r0, [r2, #88]
 674 02be 0B44     		add	r3, r3, r1
 675 02c0 FA79     		ldrb	r2, [r7, #7]
 676 02c2 1A70     		strb	r2, [r3]
 151:../../source/src/kernel/SHELL/shell.c **** 		using_shell_buffer_ptr->buffer[using_shell_buffer_ptr->index] = '\0';
 677              		.loc 1 151 0
 678 02c4 0F4B     		ldr	r3, .L51+4
 679 02c6 1B68     		ldr	r3, [r3]
 680 02c8 1A6D     		ldr	r2, [r3, #80]
 681 02ca 0E4B     		ldr	r3, .L51+4
 682 02cc 1B68     		ldr	r3, [r3]
 683 02ce 9B6D     		ldr	r3, [r3, #88]
 684 02d0 1344     		add	r3, r3, r2
 685 02d2 0022     		movs	r2, #0
 686 02d4 1A70     		strb	r2, [r3]
 152:../../source/src/kernel/SHELL/shell.c **** 	}
 153:../../source/src/kernel/SHELL/shell.c **** 	else
 154:../../source/src/kernel/SHELL/shell.c **** 	{
 155:../../source/src/kernel/SHELL/shell.c **** 		ka_printf("\ntoo long,invalid input,clear buffer...\n");
 156:../../source/src/kernel/SHELL/shell.c **** 		using_shell_buffer_ptr->index = 0;
 157:../../source/src/kernel/SHELL/shell.c **** 		return ;
 158:../../source/src/kernel/SHELL/shell.c **** 	}
 159:../../source/src/kernel/SHELL/shell.c **** 	if(0x0d == c)
 687              		.loc 1 159 0
 688 02d6 FB79     		ldrb	r3, [r7, #7]	@ zero_extendqisi2
 689 02d8 0D2B     		cmp	r3, #13
 690 02da 0DD1     		bne	.L32
 691 02dc 07E0     		b	.L49
 692              	.L48:
ARM GAS  G:\Users\Jaxb\AppData\Local\Temp\cch2S2ie.s 			page 17


 155:../../source/src/kernel/SHELL/shell.c **** 		using_shell_buffer_ptr->index = 0;
 693              		.loc 1 155 0
 694 02de 0E48     		ldr	r0, .L51+24
 695 02e0 FFF7FEFF 		bl	ka_printf
 156:../../source/src/kernel/SHELL/shell.c **** 		return ;
 696              		.loc 1 156 0
 697 02e4 074B     		ldr	r3, .L51+4
 698 02e6 1B68     		ldr	r3, [r3]
 699 02e8 0022     		movs	r2, #0
 700 02ea 9A65     		str	r2, [r3, #88]
 157:../../source/src/kernel/SHELL/shell.c **** 	}
 701              		.loc 1 157 0
 702 02ec 04E0     		b	.L32
 703              	.L49:
 160:../../source/src/kernel/SHELL/shell.c **** 	{
 161:../../source/src/kernel/SHELL/shell.c **** #if DEBUG_SHELL
 162:../../source/src/kernel/SHELL/shell.c **** 		using_shell_buffer_ptr->buffer[using_shell_buffer_ptr->index-1] = '\0';
 163:../../source/src/kernel/SHELL/shell.c **** 		ka_printf("%s\n",using_shell_buffer_ptr->buffer);
 164:../../source/src/kernel/SHELL/shell.c **** #endif
 165:../../source/src/kernel/SHELL/shell.c **** 		v(&MCB_for_shell);
 704              		.loc 1 165 0
 705 02ee 0B48     		ldr	r0, .L51+28
 706 02f0 FFF7FEFF 		bl	v
 707 02f4 00E0     		b	.L32
 708              	.L50:
 119:../../source/src/kernel/SHELL/shell.c **** 	}
 709              		.loc 1 119 0
 710 02f6 00BF     		nop
 711              	.L32:
 166:../../source/src/kernel/SHELL/shell.c **** 	}
 167:../../source/src/kernel/SHELL/shell.c **** }
 712              		.loc 1 167 0
 713 02f8 0837     		adds	r7, r7, #8
 714              	.LCFI27:
 715              		.cfi_def_cfa_offset 8
 716 02fa BD46     		mov	sp, r7
 717              	.LCFI28:
 718              		.cfi_def_cfa_register 13
 719              		@ sp needed
 720 02fc 80BD     		pop	{r7, pc}
 721              	.L52:
 722 02fe 00BF     		.align	2
 723              	.L51:
 724 0300 04010000 		.word	.LC5
 725 0304 48010000 		.word	using_shell_buffer_ptr
 726 0308 14010000 		.word	.LC6
 727 030c 18010000 		.word	.LC7
 728 0310 00000000 		.word	.LC0
 729 0314 00005440 		.word	1079246848
 730 0318 1C010000 		.word	.LC8
 731 031c 00000000 		.word	MCB_for_shell
 732              		.cfi_endproc
 733              	.LFE20:
 734              		.size	put_in_shell_buffer, .-put_in_shell_buffer
 735              		.section	.rodata
 736 0145 000000   		.align	2
 737              	.LC9:
ARM GAS  G:\Users\Jaxb\AppData\Local\Temp\cch2S2ie.s 			page 18


 738 0148 7265646F 		.ascii	"redo command: \000"
 738      20636F6D 
 738      6D616E64 
 738      3A2000
 739 0157 00       		.align	2
 740              	.LC10:
 741 0158 6E6F2072 		.ascii	"no reserved buffer,command not saved\012\000"
 741      65736572 
 741      76656420 
 741      62756666 
 741      65722C63 
 742              		.text
 743              		.align	1
 744              		.syntax unified
 745              		.thumb
 746              		.thumb_func
 747              		.fpu softvfp
 748              		.type	redo, %function
 749              	redo:
 750              	.LFB21:
 168:../../source/src/kernel/SHELL/shell.c **** 
 169:../../source/src/kernel/SHELL/shell.c **** 
 170:../../source/src/kernel/SHELL/shell.c **** //static int process(char *buffer_ptr);
 171:../../source/src/kernel/SHELL/shell.c **** static void redo(int argc, char const *argv[])
 172:../../source/src/kernel/SHELL/shell.c **** {
 751              		.loc 1 172 0
 752              		.cfi_startproc
 753              		@ args = 0, pretend = 0, frame = 16
 754              		@ frame_needed = 1, uses_anonymous_args = 0
 755 0320 B0B5     		push	{r4, r5, r7, lr}
 756              	.LCFI29:
 757              		.cfi_def_cfa_offset 16
 758              		.cfi_offset 4, -16
 759              		.cfi_offset 5, -12
 760              		.cfi_offset 7, -8
 761              		.cfi_offset 14, -4
 762 0322 84B0     		sub	sp, sp, #16
 763              	.LCFI30:
 764              		.cfi_def_cfa_offset 32
 765 0324 00AF     		add	r7, sp, #0
 766              	.LCFI31:
 767              		.cfi_def_cfa_register 7
 768 0326 7860     		str	r0, [r7, #4]
 769 0328 3960     		str	r1, [r7]
 173:../../source/src/kernel/SHELL/shell.c **** 	(void)argc;
 174:../../source/src/kernel/SHELL/shell.c **** 	(void)argv;
 175:../../source/src/kernel/SHELL/shell.c **** 	if(using_shell_buffer_ptr->buffer_reserve)
 770              		.loc 1 175 0
 771 032a 244B     		ldr	r3, .L60
 772 032c 1B68     		ldr	r3, [r3]
 773 032e 5B6D     		ldr	r3, [r3, #84]
 774 0330 002B     		cmp	r3, #0
 775 0332 3CD0     		beq	.L54
 776              	.LBB2:
 176:../../source/src/kernel/SHELL/shell.c **** 	{
 177:../../source/src/kernel/SHELL/shell.c **** 		unsigned int i;
 178:../../source/src/kernel/SHELL/shell.c **** 		ASSERT(using_shell_buffer_ptr->index_reserve < BUFFER_SIZE);
ARM GAS  G:\Users\Jaxb\AppData\Local\Temp\cch2S2ie.s 			page 19


 777              		.loc 1 178 0
 778 0334 214B     		ldr	r3, .L60
 779 0336 1B68     		ldr	r3, [r3]
 780 0338 DB6D     		ldr	r3, [r3, #92]
 781 033a 632B     		cmp	r3, #99
 782 033c 03D9     		bls	.L55
 783              		.loc 1 178 0 is_stmt 0 discriminator 1
 784 033e B221     		movs	r1, #178
 785 0340 1F48     		ldr	r0, .L60+4
 786 0342 FFF7FEFF 		bl	_ASSERT
 787              	.L55:
 179:../../source/src/kernel/SHELL/shell.c **** 		ka_printf("redo command: ");
 788              		.loc 1 179 0 is_stmt 1
 789 0346 1F48     		ldr	r0, .L60+8
 790 0348 FFF7FEFF 		bl	ka_printf
 180:../../source/src/kernel/SHELL/shell.c **** 		for(i=0;i<using_shell_buffer_ptr->index_reserve;++i)
 791              		.loc 1 180 0
 792 034c 0023     		movs	r3, #0
 793 034e FB60     		str	r3, [r7, #12]
 794 0350 0BE0     		b	.L56
 795              	.L57:
 181:../../source/src/kernel/SHELL/shell.c **** 		{
 182:../../source/src/kernel/SHELL/shell.c **** 			ka_puts((const char *)(using_shell_buffer_ptr->argv_reserve)[i]);
 796              		.loc 1 182 0 discriminator 3
 797 0352 1A4B     		ldr	r3, .L60
 798 0354 1B68     		ldr	r3, [r3]
 799 0356 FA68     		ldr	r2, [r7, #12]
 800 0358 0A32     		adds	r2, r2, #10
 801 035a 53F82230 		ldr	r3, [r3, r2, lsl #2]
 802 035e 1846     		mov	r0, r3
 803 0360 FFF7FEFF 		bl	ka_puts
 180:../../source/src/kernel/SHELL/shell.c **** 		for(i=0;i<using_shell_buffer_ptr->index_reserve;++i)
 804              		.loc 1 180 0 discriminator 3
 805 0364 FB68     		ldr	r3, [r7, #12]
 806 0366 0133     		adds	r3, r3, #1
 807 0368 FB60     		str	r3, [r7, #12]
 808              	.L56:
 180:../../source/src/kernel/SHELL/shell.c **** 		for(i=0;i<using_shell_buffer_ptr->index_reserve;++i)
 809              		.loc 1 180 0 is_stmt 0 discriminator 1
 810 036a 144B     		ldr	r3, .L60
 811 036c 1B68     		ldr	r3, [r3]
 812 036e DB6D     		ldr	r3, [r3, #92]
 813 0370 FA68     		ldr	r2, [r7, #12]
 814 0372 9A42     		cmp	r2, r3
 815 0374 EDD3     		bcc	.L57
 183:../../source/src/kernel/SHELL/shell.c **** 		}
 184:../../source/src/kernel/SHELL/shell.c **** 		ka_putchar('\n');
 816              		.loc 1 184 0 is_stmt 1
 817 0376 0A20     		movs	r0, #10
 818 0378 FFF7FEFF 		bl	ka_putchar
 185:../../source/src/kernel/SHELL/shell.c **** 		match_and_execute_command(using_shell_buffer_ptr->index_reserve,
 819              		.loc 1 185 0
 820 037c 0F4B     		ldr	r3, .L60
 821 037e 1B68     		ldr	r3, [r3]
 822 0380 DB6D     		ldr	r3, [r3, #92]
 823 0382 1D46     		mov	r5, r3
 186:../../source/src/kernel/SHELL/shell.c **** 			(const char **)(using_shell_buffer_ptr->argv_reserve),
ARM GAS  G:\Users\Jaxb\AppData\Local\Temp\cch2S2ie.s 			page 20


 824              		.loc 1 186 0
 825 0384 0D4B     		ldr	r3, .L60
 826 0386 1B68     		ldr	r3, [r3]
 827 0388 03F12804 		add	r4, r3, #40
 187:../../source/src/kernel/SHELL/shell.c **** 			get_command_processer(ka_strlen((using_shell_buffer_ptr->argv_reserve)[0])));
 828              		.loc 1 187 0
 829 038c 0B4B     		ldr	r3, .L60
 830 038e 1B68     		ldr	r3, [r3]
 831 0390 9B6A     		ldr	r3, [r3, #40]
 185:../../source/src/kernel/SHELL/shell.c **** 		match_and_execute_command(using_shell_buffer_ptr->index_reserve,
 832              		.loc 1 185 0
 833 0392 1846     		mov	r0, r3
 834 0394 FFF7FEFF 		bl	ka_strlen
 835 0398 0346     		mov	r3, r0
 836 039a 1846     		mov	r0, r3
 837 039c FFF7FEFF 		bl	get_command_processer
 838 03a0 0346     		mov	r3, r0
 839 03a2 1A46     		mov	r2, r3
 840 03a4 2146     		mov	r1, r4
 841 03a6 2846     		mov	r0, r5
 842 03a8 FFF7FEFF 		bl	match_and_execute_command
 843              	.LBE2:
 188:../../source/src/kernel/SHELL/shell.c **** 	}
 189:../../source/src/kernel/SHELL/shell.c **** 	else
 190:../../source/src/kernel/SHELL/shell.c **** 	{
 191:../../source/src/kernel/SHELL/shell.c **** 		ka_printf("no reserved buffer,command not saved\n");
 192:../../source/src/kernel/SHELL/shell.c **** 	}
 193:../../source/src/kernel/SHELL/shell.c **** }
 844              		.loc 1 193 0
 845 03ac 02E0     		b	.L59
 846              	.L54:
 191:../../source/src/kernel/SHELL/shell.c **** 	}
 847              		.loc 1 191 0
 848 03ae 0648     		ldr	r0, .L60+12
 849 03b0 FFF7FEFF 		bl	ka_printf
 850              	.L59:
 851              		.loc 1 193 0
 852 03b4 00BF     		nop
 853 03b6 1037     		adds	r7, r7, #16
 854              	.LCFI32:
 855              		.cfi_def_cfa_offset 16
 856 03b8 BD46     		mov	sp, r7
 857              	.LCFI33:
 858              		.cfi_def_cfa_register 13
 859              		@ sp needed
 860 03ba B0BD     		pop	{r4, r5, r7, pc}
 861              	.L61:
 862              		.align	2
 863              	.L60:
 864 03bc 48010000 		.word	using_shell_buffer_ptr
 865 03c0 00000000 		.word	.LC0
 866 03c4 48010000 		.word	.LC9
 867 03c8 58010000 		.word	.LC10
 868              		.cfi_endproc
 869              	.LFE21:
 870              		.size	redo, .-redo
 871              		.section	.rodata
ARM GAS  G:\Users\Jaxb\AppData\Local\Temp\cch2S2ie.s 			page 21


 872 017e 0000     		.align	2
 873              	.LC11:
 874 0180 7200     		.ascii	"r\000"
 875              		.data
 876              		.align	2
 877              		.type	resident_command_1, %object
 878              		.size	resident_command_1, 12
 879              	resident_command_1:
 880 0000 80010000 		.word	.LC11
 881 0004 00000000 		.word	redo
 882 0008 00000000 		.space	4
 883              		.section	.rodata
 884 0182 0000     		.align	2
 885              	.LC12:
 886 0184 6B6100   		.ascii	"ka\000"
 887 0187 00       		.align	2
 888              	.LC13:
 889 0188 6D6D00   		.ascii	"mm\000"
 890              		.data
 891              		.align	2
 892              		.type	resident_command_2, %object
 893              		.size	resident_command_2, 24
 894              	resident_command_2:
 895 000c 84010000 		.word	.LC12
 896 0010 00000000 		.word	test
 897 0014 00000000 		.space	4
 898 0018 88010000 		.word	.LC13
 899 001c 00000000 		.word	shell_memory
 900 0020 00000000 		.space	4
 901              		.section	.rodata
 902 018b 00       		.align	2
 903              	.LC14:
 904 018c 72756E00 		.ascii	"run\000"
 905              		.align	2
 906              	.LC15:
 907 0190 73657400 		.ascii	"set\000"
 908              		.align	2
 909              	.LC16:
 910 0194 74636200 		.ascii	"tcb\000"
 911              		.data
 912              		.align	2
 913              		.type	resident_command_3, %object
 914              		.size	resident_command_3, 36
 915              	resident_command_3:
 916 0024 8C010000 		.word	.LC14
 917 0028 00000000 		.word	shell_debug_run
 918 002c 00000000 		.space	4
 919 0030 90010000 		.word	.LC15
 920 0034 00000000 		.word	shell_set
 921 0038 00000000 		.space	4
 922 003c 94010000 		.word	.LC16
 923 0040 00000000 		.word	shell_TCB_check
 924 0044 00000000 		.space	4
 925              		.section	.rodata
 926              		.align	2
 927              	.LC17:
 928 0198 74696D65 		.ascii	"time\000"
ARM GAS  G:\Users\Jaxb\AppData\Local\Temp\cch2S2ie.s 			page 22


 928      00
 929 019d 000000   		.align	2
 930              	.LC18:
 931 01a0 6B6D656D 		.ascii	"kmem\000"
 931      00
 932 01a5 000000   		.align	2
 933              	.LC19:
 934 01a8 736C6162 		.ascii	"slab\000"
 934      00
 935 01ad 000000   		.align	2
 936              	.LC20:
 937 01b0 6E657874 		.ascii	"next\000"
 937      00
 938 01b5 000000   		.align	2
 939              	.LC21:
 940 01b8 73746F70 		.ascii	"stop\000"
 940      00
 941 01bd 000000   		.align	2
 942              	.LC22:
 943 01c0 6563686F 		.ascii	"echo\000"
 943      00
 944 01c5 000000   		.align	2
 945              	.LC23:
 946 01c8 61646472 		.ascii	"addr\000"
 946      00
 947              		.data
 948              		.align	2
 949              		.type	resident_command_4, %object
 950              		.size	resident_command_4, 84
 951              	resident_command_4:
 952 0048 98010000 		.word	.LC17
 953 004c 00000000 		.word	shell_time
 954 0050 00000000 		.space	4
 955 0054 A0010000 		.word	.LC18
 956 0058 00000000 		.word	shell_check_kmem
 957 005c 00000000 		.space	4
 958 0060 A8010000 		.word	.LC19
 959 0064 00000000 		.word	shell_check_slab
 960 0068 00000000 		.space	4
 961 006c B0010000 		.word	.LC20
 962 0070 00000000 		.word	shell_debug_next
 963 0074 00000000 		.space	4
 964 0078 B8010000 		.word	.LC21
 965 007c 00000000 		.word	shell_debug_stop
 966 0080 00000000 		.space	4
 967 0084 C0010000 		.word	.LC22
 968 0088 00000000 		.word	shell_echo
 969 008c 00000000 		.space	4
 970 0090 C8010000 		.word	.LC23
 971 0094 00000000 		.word	shell_addr
 972 0098 00000000 		.space	4
 973              		.section	.rodata
 974 01cd 000000   		.align	2
 975              	.LC24:
 976 01d0 73746163 		.ascii	"stack\000"
 976      6B00
 977 01d6 0000     		.align	2
ARM GAS  G:\Users\Jaxb\AppData\Local\Temp\cch2S2ie.s 			page 23


 978              	.LC25:
 979 01d8 636C6561 		.ascii	"clear\000"
 979      7200
 980 01de 0000     		.align	2
 981              	.LC26:
 982 01e0 62756464 		.ascii	"buddy\000"
 982      7900
 983 01e6 0000     		.align	2
 984              	.LC27:
 985 01e8 736C6565 		.ascii	"sleep\000"
 985      7000
 986 01ee 0000     		.align	2
 987              	.LC28:
 988 01f0 6C736D6F 		.ascii	"lsmod\000"
 988      6400
 989              		.data
 990              		.align	2
 991              		.type	resident_command_5, %object
 992              		.size	resident_command_5, 60
 993              	resident_command_5:
 994 009c D0010000 		.word	.LC24
 995 00a0 00000000 		.word	shell_stack_check
 996 00a4 00000000 		.space	4
 997 00a8 D8010000 		.word	.LC25
 998 00ac 00000000 		.word	shell_clear
 999 00b0 00000000 		.space	4
 1000 00b4 E0010000 		.word	.LC26
 1001 00b8 00000000 		.word	shell_buddy_debug
 1002 00bc 00000000 		.space	4
 1003 00c0 E8010000 		.word	.LC27
 1004 00c4 00000000 		.word	shell_sleep
 1005 00c8 00000000 		.space	4
 1006 00cc F0010000 		.word	.LC28
 1007 00d0 00000000 		.word	shell_list_module
 1008 00d4 00000000 		.space	4
 1009              		.section	.rodata
 1010 01f6 0000     		.align	2
 1011              	.LC29:
 1012 01f8 7265626F 		.ascii	"reboot\000"
 1012      6F7400
 1013 01ff 00       		.align	2
 1014              	.LC30:
 1015 0200 696E736D 		.ascii	"insmod\000"
 1015      6F6400
 1016              		.data
 1017              		.align	2
 1018              		.type	resident_command_6, %object
 1019              		.size	resident_command_6, 24
 1020              	resident_command_6:
 1021 00d8 F8010000 		.word	.LC29
 1022 00dc 00000000 		.word	shell_reboot
 1023 00e0 00000000 		.space	4
 1024 00e4 00020000 		.word	.LC30
 1025 00e8 00000000 		.word	shell_module
 1026 00ec 00000000 		.space	4
 1027              		.section	.rodata
 1028 0207 00       		.align	2
ARM GAS  G:\Users\Jaxb\AppData\Local\Temp\cch2S2ie.s 			page 24


 1029              	.LC31:
 1030 0208 76657273 		.ascii	"version\000"
 1030      696F6E00 
 1031              		.align	2
 1032              	.LC32:
 1033 0210 64656269 		.ascii	"debinfo\000"
 1033      6E666F00 
 1034              		.align	2
 1035              	.LC33:
 1036 0218 73796D6C 		.ascii	"symlist\000"
 1036      69737400 
 1037              		.align	2
 1038              	.LC34:
 1039 0220 6D6F6469 		.ascii	"modinfo\000"
 1039      6E666F00 
 1040              		.align	2
 1041              	.LC35:
 1042 0228 73686F77 		.ascii	"showreg\000"
 1042      72656700 
 1043              		.data
 1044              		.align	2
 1045              		.type	resident_command_7, %object
 1046              		.size	resident_command_7, 60
 1047              	resident_command_7:
 1048 00f0 08020000 		.word	.LC31
 1049 00f4 00000000 		.word	shell_version
 1050 00f8 00000000 		.space	4
 1051 00fc 10020000 		.word	.LC32
 1052 0100 00000000 		.word	shell_debug_info
 1053 0104 00000000 		.space	4
 1054 0108 18020000 		.word	.LC33
 1055 010c 00000000 		.word	shell_symbol_list_display
 1056 0110 00000000 		.space	4
 1057 0114 20020000 		.word	.LC34
 1058 0118 00000000 		.word	shell_modinfo
 1059 011c 00000000 		.space	4
 1060 0120 28020000 		.word	.LC35
 1061 0124 00000000 		.word	shell_show_tasks_registers
 1062 0128 00000000 		.space	4
 1063              		.section	.rodata
 1064              		.align	2
 1065              	.LC36:
 1066 0230 73687574 		.ascii	"shutdown\000"
 1066      646F776E 
 1066      00
 1067              		.data
 1068              		.align	2
 1069              		.type	resident_command_8, %object
 1070              		.size	resident_command_8, 12
 1071              	resident_command_8:
 1072 012c 30020000 		.word	.LC36
 1073 0130 00000000 		.word	shell_shutdown
 1074 0134 00000000 		.space	4
 1075              		.text
 1076              		.align	1
 1077              		.syntax unified
 1078              		.thumb
ARM GAS  G:\Users\Jaxb\AppData\Local\Temp\cch2S2ie.s 			page 25


 1079              		.thumb_func
 1080              		.fpu softvfp
 1081              		.type	shell_init, %function
 1082              	shell_init:
 1083              	.LFB22:
 194:../../source/src/kernel/SHELL/shell.c **** 
 195:../../source/src/kernel/SHELL/shell.c **** 
 196:../../source/src/kernel/SHELL/shell.c **** //struct command -- add command in the corresponding array here(step 2)
 197:../../source/src/kernel/SHELL/shell.c **** // and write the function to execute
 198:../../source/src/kernel/SHELL/shell.c **** static struct command resident_command_1[] = 
 199:../../source/src/kernel/SHELL/shell.c **** {
 200:../../source/src/kernel/SHELL/shell.c **** 	{
 201:../../source/src/kernel/SHELL/shell.c **** 		.command_name = "r",
 202:../../source/src/kernel/SHELL/shell.c **** 		.f = redo,
 203:../../source/src/kernel/SHELL/shell.c **** 	}
 204:../../source/src/kernel/SHELL/shell.c **** };
 205:../../source/src/kernel/SHELL/shell.c **** static struct command resident_command_2[] = 
 206:../../source/src/kernel/SHELL/shell.c **** {
 207:../../source/src/kernel/SHELL/shell.c **** 	{
 208:../../source/src/kernel/SHELL/shell.c **** 		.command_name = "ka",
 209:../../source/src/kernel/SHELL/shell.c **** 		.f = test,
 210:../../source/src/kernel/SHELL/shell.c **** 	},
 211:../../source/src/kernel/SHELL/shell.c **** 	{
 212:../../source/src/kernel/SHELL/shell.c **** 		.command_name = "mm",
 213:../../source/src/kernel/SHELL/shell.c **** 		.f = shell_memory,
 214:../../source/src/kernel/SHELL/shell.c **** 	}
 215:../../source/src/kernel/SHELL/shell.c **** };
 216:../../source/src/kernel/SHELL/shell.c **** static struct command resident_command_3[] = 
 217:../../source/src/kernel/SHELL/shell.c **** {
 218:../../source/src/kernel/SHELL/shell.c **** #if CONFIG_SHELL_DEBUG_EN && CONFIG_SHELL_EN
 219:../../source/src/kernel/SHELL/shell.c **** 	{
 220:../../source/src/kernel/SHELL/shell.c **** 		.command_name = "run",
 221:../../source/src/kernel/SHELL/shell.c **** 		.f = shell_debug_run,
 222:../../source/src/kernel/SHELL/shell.c **** 	},
 223:../../source/src/kernel/SHELL/shell.c **** 	{
 224:../../source/src/kernel/SHELL/shell.c **** 		.command_name = "set",
 225:../../source/src/kernel/SHELL/shell.c **** 		.f = shell_set,
 226:../../source/src/kernel/SHELL/shell.c **** 	},
 227:../../source/src/kernel/SHELL/shell.c **** #endif
 228:../../source/src/kernel/SHELL/shell.c **** #if CONFIG_CPU_USE_RATE_CALCULATION
 229:../../source/src/kernel/SHELL/shell.c **** 	{
 230:../../source/src/kernel/SHELL/shell.c **** 		.command_name = "cpu",
 231:../../source/src/kernel/SHELL/shell.c **** 		.f = cpu_rate,
 232:../../source/src/kernel/SHELL/shell.c **** 	},
 233:../../source/src/kernel/SHELL/shell.c **** #endif
 234:../../source/src/kernel/SHELL/shell.c **** 	{
 235:../../source/src/kernel/SHELL/shell.c **** 		.command_name = "tcb",
 236:../../source/src/kernel/SHELL/shell.c **** 		.f = shell_TCB_check,
 237:../../source/src/kernel/SHELL/shell.c **** 	}
 238:../../source/src/kernel/SHELL/shell.c **** };
 239:../../source/src/kernel/SHELL/shell.c **** static struct command resident_command_4[] = 
 240:../../source/src/kernel/SHELL/shell.c **** {
 241:../../source/src/kernel/SHELL/shell.c **** #if CONFIG_TIME_EN
 242:../../source/src/kernel/SHELL/shell.c **** 	{
 243:../../source/src/kernel/SHELL/shell.c **** 		.command_name = "time",
 244:../../source/src/kernel/SHELL/shell.c **** 		.f = shell_time,
 245:../../source/src/kernel/SHELL/shell.c **** 	},
ARM GAS  G:\Users\Jaxb\AppData\Local\Temp\cch2S2ie.s 			page 26


 246:../../source/src/kernel/SHELL/shell.c **** #endif
 247:../../source/src/kernel/SHELL/shell.c **** 	{
 248:../../source/src/kernel/SHELL/shell.c **** 		.command_name = "kmem",
 249:../../source/src/kernel/SHELL/shell.c **** 		.f = shell_check_kmem,
 250:../../source/src/kernel/SHELL/shell.c **** 	},
 251:../../source/src/kernel/SHELL/shell.c **** 	{
 252:../../source/src/kernel/SHELL/shell.c **** 		.command_name = "slab",
 253:../../source/src/kernel/SHELL/shell.c **** 		.f = shell_check_slab,
 254:../../source/src/kernel/SHELL/shell.c **** 	}
 255:../../source/src/kernel/SHELL/shell.c **** #if CONFIG_SHELL_DEBUG_EN && CONFIG_SHELL_EN
 256:../../source/src/kernel/SHELL/shell.c **** 	,{
 257:../../source/src/kernel/SHELL/shell.c **** 		.command_name = "next",
 258:../../source/src/kernel/SHELL/shell.c **** 		.f = shell_debug_next,
 259:../../source/src/kernel/SHELL/shell.c **** 	},
 260:../../source/src/kernel/SHELL/shell.c **** 	{
 261:../../source/src/kernel/SHELL/shell.c **** 		.command_name = "stop",
 262:../../source/src/kernel/SHELL/shell.c **** 		.f = shell_debug_stop,
 263:../../source/src/kernel/SHELL/shell.c **** 	},
 264:../../source/src/kernel/SHELL/shell.c **** 	{
 265:../../source/src/kernel/SHELL/shell.c **** 		.command_name = "echo",
 266:../../source/src/kernel/SHELL/shell.c **** 		.f = shell_echo,
 267:../../source/src/kernel/SHELL/shell.c **** 	},
 268:../../source/src/kernel/SHELL/shell.c **** 	{
 269:../../source/src/kernel/SHELL/shell.c **** 		.command_name = "addr",
 270:../../source/src/kernel/SHELL/shell.c **** 		.f = shell_addr,
 271:../../source/src/kernel/SHELL/shell.c **** 	}
 272:../../source/src/kernel/SHELL/shell.c **** #endif
 273:../../source/src/kernel/SHELL/shell.c **** };
 274:../../source/src/kernel/SHELL/shell.c **** static struct command resident_command_5[] = 
 275:../../source/src/kernel/SHELL/shell.c **** {	
 276:../../source/src/kernel/SHELL/shell.c **** 	{
 277:../../source/src/kernel/SHELL/shell.c **** 		.command_name = "stack",
 278:../../source/src/kernel/SHELL/shell.c **** 		.f = shell_stack_check,
 279:../../source/src/kernel/SHELL/shell.c **** 	},
 280:../../source/src/kernel/SHELL/shell.c **** 	{
 281:../../source/src/kernel/SHELL/shell.c **** 		.command_name = "clear",
 282:../../source/src/kernel/SHELL/shell.c **** 		.f = shell_clear,
 283:../../source/src/kernel/SHELL/shell.c **** 	},
 284:../../source/src/kernel/SHELL/shell.c **** 	{
 285:../../source/src/kernel/SHELL/shell.c **** 		.command_name = "buddy",
 286:../../source/src/kernel/SHELL/shell.c **** 		.f = shell_buddy_debug,
 287:../../source/src/kernel/SHELL/shell.c **** 	}
 288:../../source/src/kernel/SHELL/shell.c **** #if CONFIG_POWER_MANAGEMENT
 289:../../source/src/kernel/SHELL/shell.c **** 	,{
 290:../../source/src/kernel/SHELL/shell.c **** 		.command_name = "sleep",
 291:../../source/src/kernel/SHELL/shell.c **** 		.f = shell_sleep,
 292:../../source/src/kernel/SHELL/shell.c **** 	}
 293:../../source/src/kernel/SHELL/shell.c **** #endif
 294:../../source/src/kernel/SHELL/shell.c **** #if CONFIG_MODULE
 295:../../source/src/kernel/SHELL/shell.c **** 	,{
 296:../../source/src/kernel/SHELL/shell.c **** 		.command_name = "lsmod",
 297:../../source/src/kernel/SHELL/shell.c **** 		.f = shell_list_module,
 298:../../source/src/kernel/SHELL/shell.c **** 	}
 299:../../source/src/kernel/SHELL/shell.c **** #endif
 300:../../source/src/kernel/SHELL/shell.c **** };
 301:../../source/src/kernel/SHELL/shell.c **** static struct command resident_command_6[] = 
 302:../../source/src/kernel/SHELL/shell.c **** {
ARM GAS  G:\Users\Jaxb\AppData\Local\Temp\cch2S2ie.s 			page 27


 303:../../source/src/kernel/SHELL/shell.c **** 	{
 304:../../source/src/kernel/SHELL/shell.c **** 		.command_name = "reboot",
 305:../../source/src/kernel/SHELL/shell.c **** 		.f = shell_reboot,
 306:../../source/src/kernel/SHELL/shell.c **** 	}
 307:../../source/src/kernel/SHELL/shell.c **** #if CONFIG_MODULE
 308:../../source/src/kernel/SHELL/shell.c **** 	,{
 309:../../source/src/kernel/SHELL/shell.c **** 		.command_name = "insmod",
 310:../../source/src/kernel/SHELL/shell.c **** 		.f = shell_module,
 311:../../source/src/kernel/SHELL/shell.c **** 	}
 312:../../source/src/kernel/SHELL/shell.c **** #endif
 313:../../source/src/kernel/SHELL/shell.c **** };
 314:../../source/src/kernel/SHELL/shell.c **** static struct command resident_command_7[] = 
 315:../../source/src/kernel/SHELL/shell.c **** {
 316:../../source/src/kernel/SHELL/shell.c **** 	{
 317:../../source/src/kernel/SHELL/shell.c **** 		.command_name = "version",
 318:../../source/src/kernel/SHELL/shell.c **** 		.f = shell_version,
 319:../../source/src/kernel/SHELL/shell.c **** 	}
 320:../../source/src/kernel/SHELL/shell.c **** #if CONFIG_SHELL_DEBUG_EN && CONFIG_SHELL_EN
 321:../../source/src/kernel/SHELL/shell.c **** 	,{
 322:../../source/src/kernel/SHELL/shell.c **** 		.command_name = "debinfo",
 323:../../source/src/kernel/SHELL/shell.c **** 		.f = shell_debug_info,
 324:../../source/src/kernel/SHELL/shell.c **** 	}
 325:../../source/src/kernel/SHELL/shell.c **** #endif
 326:../../source/src/kernel/SHELL/shell.c **** #if CONFIG_MODULE
 327:../../source/src/kernel/SHELL/shell.c **** 	,{
 328:../../source/src/kernel/SHELL/shell.c **** 		.command_name = "symlist",
 329:../../source/src/kernel/SHELL/shell.c **** 		.f = shell_symbol_list_display,
 330:../../source/src/kernel/SHELL/shell.c **** 	}
 331:../../source/src/kernel/SHELL/shell.c **** 	,{
 332:../../source/src/kernel/SHELL/shell.c **** 		.command_name = "modinfo",
 333:../../source/src/kernel/SHELL/shell.c **** 		.f = shell_modinfo,
 334:../../source/src/kernel/SHELL/shell.c **** 	}
 335:../../source/src/kernel/SHELL/shell.c **** #endif
 336:../../source/src/kernel/SHELL/shell.c **** 	,{
 337:../../source/src/kernel/SHELL/shell.c **** 		.command_name = "showreg",
 338:../../source/src/kernel/SHELL/shell.c **** 		.f = shell_show_tasks_registers,
 339:../../source/src/kernel/SHELL/shell.c **** 	}
 340:../../source/src/kernel/SHELL/shell.c **** };
 341:../../source/src/kernel/SHELL/shell.c **** static struct command resident_command_8[] = 
 342:../../source/src/kernel/SHELL/shell.c **** {
 343:../../source/src/kernel/SHELL/shell.c **** #if CONFIG_POWER_MANAGEMENT
 344:../../source/src/kernel/SHELL/shell.c **** 	{
 345:../../source/src/kernel/SHELL/shell.c **** 		.command_name = "shutdown",
 346:../../source/src/kernel/SHELL/shell.c **** 		.f = shell_shutdown,
 347:../../source/src/kernel/SHELL/shell.c **** 	}
 348:../../source/src/kernel/SHELL/shell.c **** #endif
 349:../../source/src/kernel/SHELL/shell.c **** };
 350:../../source/src/kernel/SHELL/shell.c **** 
 351:../../source/src/kernel/SHELL/shell.c **** extern void __init_command_n_ptr_hash_array(void);
 352:../../source/src/kernel/SHELL/shell.c **** static void shell_init(void)
 353:../../source/src/kernel/SHELL/shell.c **** {
 1084              		.loc 1 353 0
 1085              		.cfi_startproc
 1086              		@ args = 0, pretend = 0, frame = 8
 1087              		@ frame_needed = 1, uses_anonymous_args = 0
 1088 03cc 80B5     		push	{r7, lr}
 1089              	.LCFI34:
ARM GAS  G:\Users\Jaxb\AppData\Local\Temp\cch2S2ie.s 			page 28


 1090              		.cfi_def_cfa_offset 8
 1091              		.cfi_offset 7, -8
 1092              		.cfi_offset 14, -4
 1093 03ce 82B0     		sub	sp, sp, #8
 1094              	.LCFI35:
 1095              		.cfi_def_cfa_offset 16
 1096 03d0 00AF     		add	r7, sp, #0
 1097              	.LCFI36:
 1098              		.cfi_def_cfa_register 7
 354:../../source/src/kernel/SHELL/shell.c **** 	unsigned int i;
 355:../../source/src/kernel/SHELL/shell.c **** #if CONFIG_ASSERT_DEBUG
 356:../../source/src/kernel/SHELL/shell.c **** 	int error;
 357:../../source/src/kernel/SHELL/shell.c **** #endif
 358:../../source/src/kernel/SHELL/shell.c **** 	__init_command_n_ptr_hash_array();
 1099              		.loc 1 358 0
 1100 03d2 FFF7FEFF 		bl	__init_command_n_ptr_hash_array
 359:../../source/src/kernel/SHELL/shell.c **** 	for(i=0;i<sizeof(resident_command_1)/sizeof(struct command);++i)
 1101              		.loc 1 359 0
 1102 03d6 0023     		movs	r3, #0
 1103 03d8 7B60     		str	r3, [r7, #4]
 1104 03da 0DE0     		b	.L63
 1105              	.L64:
 360:../../source/src/kernel/SHELL/shell.c **** 	{
 361:../../source/src/kernel/SHELL/shell.c **** 		insert_struct_command_1(resident_command_1+i);
 1106              		.loc 1 361 0 discriminator 3
 1107 03dc 7A68     		ldr	r2, [r7, #4]
 1108 03de 1346     		mov	r3, r2
 1109 03e0 5B00     		lsls	r3, r3, #1
 1110 03e2 1344     		add	r3, r3, r2
 1111 03e4 9B00     		lsls	r3, r3, #2
 1112 03e6 1A46     		mov	r2, r3
 1113 03e8 5C4B     		ldr	r3, .L81
 1114 03ea 1344     		add	r3, r3, r2
 1115 03ec 1846     		mov	r0, r3
 1116 03ee FFF7FEFF 		bl	insert_struct_command_1
 359:../../source/src/kernel/SHELL/shell.c **** 	for(i=0;i<sizeof(resident_command_1)/sizeof(struct command);++i)
 1117              		.loc 1 359 0 discriminator 3
 1118 03f2 7B68     		ldr	r3, [r7, #4]
 1119 03f4 0133     		adds	r3, r3, #1
 1120 03f6 7B60     		str	r3, [r7, #4]
 1121              	.L63:
 359:../../source/src/kernel/SHELL/shell.c **** 	for(i=0;i<sizeof(resident_command_1)/sizeof(struct command);++i)
 1122              		.loc 1 359 0 is_stmt 0 discriminator 1
 1123 03f8 7B68     		ldr	r3, [r7, #4]
 1124 03fa 002B     		cmp	r3, #0
 1125 03fc EED0     		beq	.L64
 362:../../source/src/kernel/SHELL/shell.c **** 	}
 363:../../source/src/kernel/SHELL/shell.c **** 	for(i=0;i<sizeof(resident_command_2)/sizeof(struct command);++i)
 1126              		.loc 1 363 0 is_stmt 1
 1127 03fe 0023     		movs	r3, #0
 1128 0400 7B60     		str	r3, [r7, #4]
 1129 0402 0DE0     		b	.L65
 1130              	.L66:
 364:../../source/src/kernel/SHELL/shell.c **** 	{
 365:../../source/src/kernel/SHELL/shell.c **** 		insert_struct_command_2(resident_command_2+i);
 1131              		.loc 1 365 0 discriminator 3
 1132 0404 7A68     		ldr	r2, [r7, #4]
ARM GAS  G:\Users\Jaxb\AppData\Local\Temp\cch2S2ie.s 			page 29


 1133 0406 1346     		mov	r3, r2
 1134 0408 5B00     		lsls	r3, r3, #1
 1135 040a 1344     		add	r3, r3, r2
 1136 040c 9B00     		lsls	r3, r3, #2
 1137 040e 1A46     		mov	r2, r3
 1138 0410 534B     		ldr	r3, .L81+4
 1139 0412 1344     		add	r3, r3, r2
 1140 0414 1846     		mov	r0, r3
 1141 0416 FFF7FEFF 		bl	insert_struct_command_2
 363:../../source/src/kernel/SHELL/shell.c **** 	{
 1142              		.loc 1 363 0 discriminator 3
 1143 041a 7B68     		ldr	r3, [r7, #4]
 1144 041c 0133     		adds	r3, r3, #1
 1145 041e 7B60     		str	r3, [r7, #4]
 1146              	.L65:
 363:../../source/src/kernel/SHELL/shell.c **** 	{
 1147              		.loc 1 363 0 is_stmt 0 discriminator 1
 1148 0420 7B68     		ldr	r3, [r7, #4]
 1149 0422 012B     		cmp	r3, #1
 1150 0424 EED9     		bls	.L66
 366:../../source/src/kernel/SHELL/shell.c **** 	}
 367:../../source/src/kernel/SHELL/shell.c **** 	for(i=0;i<sizeof(resident_command_3)/sizeof(struct command);++i)
 1151              		.loc 1 367 0 is_stmt 1
 1152 0426 0023     		movs	r3, #0
 1153 0428 7B60     		str	r3, [r7, #4]
 1154 042a 0DE0     		b	.L67
 1155              	.L68:
 368:../../source/src/kernel/SHELL/shell.c **** 	{
 369:../../source/src/kernel/SHELL/shell.c **** 		insert_struct_command_3(resident_command_3+i);
 1156              		.loc 1 369 0 discriminator 3
 1157 042c 7A68     		ldr	r2, [r7, #4]
 1158 042e 1346     		mov	r3, r2
 1159 0430 5B00     		lsls	r3, r3, #1
 1160 0432 1344     		add	r3, r3, r2
 1161 0434 9B00     		lsls	r3, r3, #2
 1162 0436 1A46     		mov	r2, r3
 1163 0438 4A4B     		ldr	r3, .L81+8
 1164 043a 1344     		add	r3, r3, r2
 1165 043c 1846     		mov	r0, r3
 1166 043e FFF7FEFF 		bl	insert_struct_command_3
 367:../../source/src/kernel/SHELL/shell.c **** 	{
 1167              		.loc 1 367 0 discriminator 3
 1168 0442 7B68     		ldr	r3, [r7, #4]
 1169 0444 0133     		adds	r3, r3, #1
 1170 0446 7B60     		str	r3, [r7, #4]
 1171              	.L67:
 367:../../source/src/kernel/SHELL/shell.c **** 	{
 1172              		.loc 1 367 0 is_stmt 0 discriminator 1
 1173 0448 7B68     		ldr	r3, [r7, #4]
 1174 044a 022B     		cmp	r3, #2
 1175 044c EED9     		bls	.L68
 370:../../source/src/kernel/SHELL/shell.c **** 	}
 371:../../source/src/kernel/SHELL/shell.c **** 	for(i=0;i<sizeof(resident_command_4)/sizeof(struct command);++i)
 1176              		.loc 1 371 0 is_stmt 1
 1177 044e 0023     		movs	r3, #0
 1178 0450 7B60     		str	r3, [r7, #4]
 1179 0452 0DE0     		b	.L69
ARM GAS  G:\Users\Jaxb\AppData\Local\Temp\cch2S2ie.s 			page 30


 1180              	.L70:
 372:../../source/src/kernel/SHELL/shell.c **** 	{
 373:../../source/src/kernel/SHELL/shell.c **** 		insert_struct_command_4(resident_command_4+i);
 1181              		.loc 1 373 0 discriminator 3
 1182 0454 7A68     		ldr	r2, [r7, #4]
 1183 0456 1346     		mov	r3, r2
 1184 0458 5B00     		lsls	r3, r3, #1
 1185 045a 1344     		add	r3, r3, r2
 1186 045c 9B00     		lsls	r3, r3, #2
 1187 045e 1A46     		mov	r2, r3
 1188 0460 414B     		ldr	r3, .L81+12
 1189 0462 1344     		add	r3, r3, r2
 1190 0464 1846     		mov	r0, r3
 1191 0466 FFF7FEFF 		bl	insert_struct_command_4
 371:../../source/src/kernel/SHELL/shell.c **** 	{
 1192              		.loc 1 371 0 discriminator 3
 1193 046a 7B68     		ldr	r3, [r7, #4]
 1194 046c 0133     		adds	r3, r3, #1
 1195 046e 7B60     		str	r3, [r7, #4]
 1196              	.L69:
 371:../../source/src/kernel/SHELL/shell.c **** 	{
 1197              		.loc 1 371 0 is_stmt 0 discriminator 1
 1198 0470 7B68     		ldr	r3, [r7, #4]
 1199 0472 062B     		cmp	r3, #6
 1200 0474 EED9     		bls	.L70
 374:../../source/src/kernel/SHELL/shell.c **** 	}
 375:../../source/src/kernel/SHELL/shell.c **** 	for(i=0;i<sizeof(resident_command_5)/sizeof(struct command);++i)
 1201              		.loc 1 375 0 is_stmt 1
 1202 0476 0023     		movs	r3, #0
 1203 0478 7B60     		str	r3, [r7, #4]
 1204 047a 0DE0     		b	.L71
 1205              	.L72:
 376:../../source/src/kernel/SHELL/shell.c **** 	{
 377:../../source/src/kernel/SHELL/shell.c **** 		insert_struct_command_5(resident_command_5+i);
 1206              		.loc 1 377 0 discriminator 3
 1207 047c 7A68     		ldr	r2, [r7, #4]
 1208 047e 1346     		mov	r3, r2
 1209 0480 5B00     		lsls	r3, r3, #1
 1210 0482 1344     		add	r3, r3, r2
 1211 0484 9B00     		lsls	r3, r3, #2
 1212 0486 1A46     		mov	r2, r3
 1213 0488 384B     		ldr	r3, .L81+16
 1214 048a 1344     		add	r3, r3, r2
 1215 048c 1846     		mov	r0, r3
 1216 048e FFF7FEFF 		bl	insert_struct_command_5
 375:../../source/src/kernel/SHELL/shell.c **** 	{
 1217              		.loc 1 375 0 discriminator 3
 1218 0492 7B68     		ldr	r3, [r7, #4]
 1219 0494 0133     		adds	r3, r3, #1
 1220 0496 7B60     		str	r3, [r7, #4]
 1221              	.L71:
 375:../../source/src/kernel/SHELL/shell.c **** 	{
 1222              		.loc 1 375 0 is_stmt 0 discriminator 1
 1223 0498 7B68     		ldr	r3, [r7, #4]
 1224 049a 042B     		cmp	r3, #4
 1225 049c EED9     		bls	.L72
 378:../../source/src/kernel/SHELL/shell.c **** 	}
ARM GAS  G:\Users\Jaxb\AppData\Local\Temp\cch2S2ie.s 			page 31


 379:../../source/src/kernel/SHELL/shell.c **** 	for(i=0;i<sizeof(resident_command_6)/sizeof(struct command);++i)
 1226              		.loc 1 379 0 is_stmt 1
 1227 049e 0023     		movs	r3, #0
 1228 04a0 7B60     		str	r3, [r7, #4]
 1229 04a2 0DE0     		b	.L73
 1230              	.L74:
 380:../../source/src/kernel/SHELL/shell.c **** 	{
 381:../../source/src/kernel/SHELL/shell.c **** 		insert_struct_command_6(resident_command_6+i);
 1231              		.loc 1 381 0 discriminator 3
 1232 04a4 7A68     		ldr	r2, [r7, #4]
 1233 04a6 1346     		mov	r3, r2
 1234 04a8 5B00     		lsls	r3, r3, #1
 1235 04aa 1344     		add	r3, r3, r2
 1236 04ac 9B00     		lsls	r3, r3, #2
 1237 04ae 1A46     		mov	r2, r3
 1238 04b0 2F4B     		ldr	r3, .L81+20
 1239 04b2 1344     		add	r3, r3, r2
 1240 04b4 1846     		mov	r0, r3
 1241 04b6 FFF7FEFF 		bl	insert_struct_command_6
 379:../../source/src/kernel/SHELL/shell.c **** 	{
 1242              		.loc 1 379 0 discriminator 3
 1243 04ba 7B68     		ldr	r3, [r7, #4]
 1244 04bc 0133     		adds	r3, r3, #1
 1245 04be 7B60     		str	r3, [r7, #4]
 1246              	.L73:
 379:../../source/src/kernel/SHELL/shell.c **** 	{
 1247              		.loc 1 379 0 is_stmt 0 discriminator 1
 1248 04c0 7B68     		ldr	r3, [r7, #4]
 1249 04c2 012B     		cmp	r3, #1
 1250 04c4 EED9     		bls	.L74
 382:../../source/src/kernel/SHELL/shell.c **** 	}
 383:../../source/src/kernel/SHELL/shell.c **** 	for(i=0;i<sizeof(resident_command_7)/sizeof(struct command);++i)
 1251              		.loc 1 383 0 is_stmt 1
 1252 04c6 0023     		movs	r3, #0
 1253 04c8 7B60     		str	r3, [r7, #4]
 1254 04ca 0DE0     		b	.L75
 1255              	.L76:
 384:../../source/src/kernel/SHELL/shell.c **** 	{
 385:../../source/src/kernel/SHELL/shell.c **** 		insert_struct_command_7(resident_command_7+i);
 1256              		.loc 1 385 0 discriminator 3
 1257 04cc 7A68     		ldr	r2, [r7, #4]
 1258 04ce 1346     		mov	r3, r2
 1259 04d0 5B00     		lsls	r3, r3, #1
 1260 04d2 1344     		add	r3, r3, r2
 1261 04d4 9B00     		lsls	r3, r3, #2
 1262 04d6 1A46     		mov	r2, r3
 1263 04d8 264B     		ldr	r3, .L81+24
 1264 04da 1344     		add	r3, r3, r2
 1265 04dc 1846     		mov	r0, r3
 1266 04de FFF7FEFF 		bl	insert_struct_command_7
 383:../../source/src/kernel/SHELL/shell.c **** 	{
 1267              		.loc 1 383 0 discriminator 3
 1268 04e2 7B68     		ldr	r3, [r7, #4]
 1269 04e4 0133     		adds	r3, r3, #1
 1270 04e6 7B60     		str	r3, [r7, #4]
 1271              	.L75:
 383:../../source/src/kernel/SHELL/shell.c **** 	{
ARM GAS  G:\Users\Jaxb\AppData\Local\Temp\cch2S2ie.s 			page 32


 1272              		.loc 1 383 0 is_stmt 0 discriminator 1
 1273 04e8 7B68     		ldr	r3, [r7, #4]
 1274 04ea 042B     		cmp	r3, #4
 1275 04ec EED9     		bls	.L76
 386:../../source/src/kernel/SHELL/shell.c **** 	}
 387:../../source/src/kernel/SHELL/shell.c **** 	for(i=0;i<sizeof(resident_command_8)/sizeof(struct command);++i)
 1276              		.loc 1 387 0 is_stmt 1
 1277 04ee 0023     		movs	r3, #0
 1278 04f0 7B60     		str	r3, [r7, #4]
 1279 04f2 0DE0     		b	.L77
 1280              	.L78:
 388:../../source/src/kernel/SHELL/shell.c **** 	{
 389:../../source/src/kernel/SHELL/shell.c **** 		insert_struct_command_8(resident_command_8+i);
 1281              		.loc 1 389 0 discriminator 3
 1282 04f4 7A68     		ldr	r2, [r7, #4]
 1283 04f6 1346     		mov	r3, r2
 1284 04f8 5B00     		lsls	r3, r3, #1
 1285 04fa 1344     		add	r3, r3, r2
 1286 04fc 9B00     		lsls	r3, r3, #2
 1287 04fe 1A46     		mov	r2, r3
 1288 0500 1D4B     		ldr	r3, .L81+28
 1289 0502 1344     		add	r3, r3, r2
 1290 0504 1846     		mov	r0, r3
 1291 0506 FFF7FEFF 		bl	insert_struct_command_8
 387:../../source/src/kernel/SHELL/shell.c **** 	{
 1292              		.loc 1 387 0 discriminator 3
 1293 050a 7B68     		ldr	r3, [r7, #4]
 1294 050c 0133     		adds	r3, r3, #1
 1295 050e 7B60     		str	r3, [r7, #4]
 1296              	.L77:
 387:../../source/src/kernel/SHELL/shell.c **** 	{
 1297              		.loc 1 387 0 is_stmt 0 discriminator 1
 1298 0510 7B68     		ldr	r3, [r7, #4]
 1299 0512 002B     		cmp	r3, #0
 1300 0514 EED0     		beq	.L78
 390:../../source/src/kernel/SHELL/shell.c **** 	}
 391:../../source/src/kernel/SHELL/shell.c **** #if CONFIG_ASSERT_DEBUG
 392:../../source/src/kernel/SHELL/shell.c **** 	error = init_MCB(&MCB_for_shell,0,MCB_TYPE_FLAG_BINARY);
 1301              		.loc 1 392 0 is_stmt 1
 1302 0516 0122     		movs	r2, #1
 1303 0518 0021     		movs	r1, #0
 1304 051a 1848     		ldr	r0, .L81+32
 1305 051c FFF7FEFF 		bl	init_MCB
 1306 0520 3860     		str	r0, [r7]
 393:../../source/src/kernel/SHELL/shell.c **** #else
 394:../../source/src/kernel/SHELL/shell.c **** 	init_MCB(&MCB_for_shell,0,MCB_TYPE_FLAG_BINARY);
 395:../../source/src/kernel/SHELL/shell.c **** #endif
 396:../../source/src/kernel/SHELL/shell.c **** 	ASSERT(FUN_EXECUTE_SUCCESSFULLY == error);
 1307              		.loc 1 396 0
 1308 0522 3B68     		ldr	r3, [r7]
 1309 0524 002B     		cmp	r3, #0
 1310 0526 04D0     		beq	.L79
 1311              		.loc 1 396 0 is_stmt 0 discriminator 1
 1312 0528 4FF4C671 		mov	r1, #396
 1313 052c 1448     		ldr	r0, .L81+36
 1314 052e FFF7FEFF 		bl	_ASSERT
 1315              	.L79:
ARM GAS  G:\Users\Jaxb\AppData\Local\Temp\cch2S2ie.s 			page 33


 397:../../source/src/kernel/SHELL/shell.c **** #if CONFIG_ASSERT_DEBUG
 398:../../source/src/kernel/SHELL/shell.c **** 	error = __init_shell_buffer(&main_shell_buffer,main_buffer,main_buffer_reserve);
 1316              		.loc 1 398 0 is_stmt 1
 1317 0532 144A     		ldr	r2, .L81+40
 1318 0534 1449     		ldr	r1, .L81+44
 1319 0536 1548     		ldr	r0, .L81+48
 1320 0538 FFF7FEFF 		bl	__init_shell_buffer
 1321 053c 3860     		str	r0, [r7]
 399:../../source/src/kernel/SHELL/shell.c **** #else
 400:../../source/src/kernel/SHELL/shell.c **** 	__init_shell_buffer(&main_shell_buffer,main_buffer,main_buffer_reserve);
 401:../../source/src/kernel/SHELL/shell.c **** #endif
 402:../../source/src/kernel/SHELL/shell.c **** 	ASSERT(FUN_EXECUTE_SUCCESSFULLY == error);
 1322              		.loc 1 402 0
 1323 053e 3B68     		ldr	r3, [r7]
 1324 0540 002B     		cmp	r3, #0
 1325 0542 04D0     		beq	.L80
 1326              		.loc 1 402 0 is_stmt 0 discriminator 1
 1327 0544 4FF4C971 		mov	r1, #402
 1328 0548 0D48     		ldr	r0, .L81+36
 1329 054a FFF7FEFF 		bl	_ASSERT
 1330              	.L80:
 403:../../source/src/kernel/SHELL/shell.c **** 	using_shell_buffer_ptr = &main_shell_buffer;
 1331              		.loc 1 403 0 is_stmt 1
 1332 054e 104B     		ldr	r3, .L81+52
 1333 0550 0E4A     		ldr	r2, .L81+48
 1334 0552 1A60     		str	r2, [r3]
 404:../../source/src/kernel/SHELL/shell.c **** }
 1335              		.loc 1 404 0
 1336 0554 00BF     		nop
 1337 0556 0837     		adds	r7, r7, #8
 1338              	.LCFI37:
 1339              		.cfi_def_cfa_offset 8
 1340 0558 BD46     		mov	sp, r7
 1341              	.LCFI38:
 1342              		.cfi_def_cfa_register 13
 1343              		@ sp needed
 1344 055a 80BD     		pop	{r7, pc}
 1345              	.L82:
 1346              		.align	2
 1347              	.L81:
 1348 055c 00000000 		.word	resident_command_1
 1349 0560 0C000000 		.word	resident_command_2
 1350 0564 24000000 		.word	resident_command_3
 1351 0568 48000000 		.word	resident_command_4
 1352 056c 9C000000 		.word	resident_command_5
 1353 0570 D8000000 		.word	resident_command_6
 1354 0574 F0000000 		.word	resident_command_7
 1355 0578 2C010000 		.word	resident_command_8
 1356 057c 00000000 		.word	MCB_for_shell
 1357 0580 00000000 		.word	.LC0
 1358 0584 E4000000 		.word	main_buffer_reserve
 1359 0588 80000000 		.word	main_buffer
 1360 058c 20000000 		.word	main_shell_buffer
 1361 0590 48010000 		.word	using_shell_buffer_ptr
 1362              		.cfi_endproc
 1363              	.LFE22:
 1364              		.size	shell_init, .-shell_init
ARM GAS  G:\Users\Jaxb\AppData\Local\Temp\cch2S2ie.s 			page 34


 1365              		.section	.rodata
 1366 0239 000000   		.align	2
 1367              	.LC37:
 1368 023c 746F6F20 		.ascii	"too many argument\012\000"
 1368      6D616E79 
 1368      20617267 
 1368      756D656E 
 1368      740A00
 1369              		.text
 1370              		.align	1
 1371              		.syntax unified
 1372              		.thumb
 1373              		.thumb_func
 1374              		.fpu softvfp
 1375              		.type	process, %function
 1376              	process:
 1377              	.LFB23:
 405:../../source/src/kernel/SHELL/shell.c **** 
 406:../../source/src/kernel/SHELL/shell.c **** //public
 407:../../source/src/kernel/SHELL/shell.c **** static int process(char *buffer_ptr)
 408:../../source/src/kernel/SHELL/shell.c **** {
 1378              		.loc 1 408 0
 1379              		.cfi_startproc
 1380              		@ args = 0, pretend = 0, frame = 24
 1381              		@ frame_needed = 1, uses_anonymous_args = 0
 1382 0594 B0B5     		push	{r4, r5, r7, lr}
 1383              	.LCFI39:
 1384              		.cfi_def_cfa_offset 16
 1385              		.cfi_offset 4, -16
 1386              		.cfi_offset 5, -12
 1387              		.cfi_offset 7, -8
 1388              		.cfi_offset 14, -4
 1389 0596 86B0     		sub	sp, sp, #24
 1390              	.LCFI40:
 1391              		.cfi_def_cfa_offset 40
 1392 0598 00AF     		add	r7, sp, #0
 1393              	.LCFI41:
 1394              		.cfi_def_cfa_register 7
 1395 059a 7860     		str	r0, [r7, #4]
 409:../../source/src/kernel/SHELL/shell.c **** 	char *ptr = buffer_ptr;
 1396              		.loc 1 409 0
 1397 059c 7B68     		ldr	r3, [r7, #4]
 1398 059e 7B61     		str	r3, [r7, #20]
 410:../../source/src/kernel/SHELL/shell.c **** 	unsigned int num = 0;
 1399              		.loc 1 410 0
 1400 05a0 0023     		movs	r3, #0
 1401 05a2 3B61     		str	r3, [r7, #16]
 411:../../source/src/kernel/SHELL/shell.c **** 	int result;
 412:../../source/src/kernel/SHELL/shell.c **** 	while(*ptr == ' ')
 1402              		.loc 1 412 0
 1403 05a4 02E0     		b	.L84
 1404              	.L85:
 413:../../source/src/kernel/SHELL/shell.c **** 	{
 414:../../source/src/kernel/SHELL/shell.c **** 		++ptr;
 1405              		.loc 1 414 0
 1406 05a6 7B69     		ldr	r3, [r7, #20]
 1407 05a8 0133     		adds	r3, r3, #1
ARM GAS  G:\Users\Jaxb\AppData\Local\Temp\cch2S2ie.s 			page 35


 1408 05aa 7B61     		str	r3, [r7, #20]
 1409              	.L84:
 412:../../source/src/kernel/SHELL/shell.c **** 	{
 1410              		.loc 1 412 0
 1411 05ac 7B69     		ldr	r3, [r7, #20]
 1412 05ae 1B78     		ldrb	r3, [r3]	@ zero_extendqisi2
 1413 05b0 202B     		cmp	r3, #32
 1414 05b2 F8D0     		beq	.L85
 415:../../source/src/kernel/SHELL/shell.c **** 	}
 416:../../source/src/kernel/SHELL/shell.c **** 	if((0x0d == *ptr) || (0x0a == *ptr))
 1415              		.loc 1 416 0
 1416 05b4 7B69     		ldr	r3, [r7, #20]
 1417 05b6 1B78     		ldrb	r3, [r3]	@ zero_extendqisi2
 1418 05b8 0D2B     		cmp	r3, #13
 1419 05ba 03D0     		beq	.L86
 1420              		.loc 1 416 0 is_stmt 0 discriminator 1
 1421 05bc 7B69     		ldr	r3, [r7, #20]
 1422 05be 1B78     		ldrb	r3, [r3]	@ zero_extendqisi2
 1423 05c0 0A2B     		cmp	r3, #10
 1424 05c2 01D1     		bne	.L87
 1425              	.L86:
 417:../../source/src/kernel/SHELL/shell.c **** 	{
 418:../../source/src/kernel/SHELL/shell.c **** 		return 0;
 1426              		.loc 1 418 0 is_stmt 1
 1427 05c4 0023     		movs	r3, #0
 1428 05c6 5CE0     		b	.L88
 1429              	.L87:
 419:../../source/src/kernel/SHELL/shell.c **** 	}
 420:../../source/src/kernel/SHELL/shell.c **** 	using_shell_buffer_ptr->argv[num++] = ptr;
 1430              		.loc 1 420 0
 1431 05c8 304B     		ldr	r3, .L96
 1432 05ca 1A68     		ldr	r2, [r3]
 1433 05cc 3B69     		ldr	r3, [r7, #16]
 1434 05ce 591C     		adds	r1, r3, #1
 1435 05d0 3961     		str	r1, [r7, #16]
 1436 05d2 7969     		ldr	r1, [r7, #20]
 1437 05d4 42F82310 		str	r1, [r2, r3, lsl #2]
 421:../../source/src/kernel/SHELL/shell.c **** 	while((0x0d != *ptr) && (0x0a != *ptr))
 1438              		.loc 1 421 0
 1439 05d8 2DE0     		b	.L89
 1440              	.L94:
 422:../../source/src/kernel/SHELL/shell.c **** 	{
 423:../../source/src/kernel/SHELL/shell.c **** 		if(' ' != *ptr)
 1441              		.loc 1 423 0
 1442 05da 7B69     		ldr	r3, [r7, #20]
 1443 05dc 1B78     		ldrb	r3, [r3]	@ zero_extendqisi2
 1444 05de 202B     		cmp	r3, #32
 1445 05e0 03D0     		beq	.L90
 424:../../source/src/kernel/SHELL/shell.c **** 		{
 425:../../source/src/kernel/SHELL/shell.c **** 			++ptr;
 1446              		.loc 1 425 0
 1447 05e2 7B69     		ldr	r3, [r7, #20]
 1448 05e4 0133     		adds	r3, r3, #1
 1449 05e6 7B61     		str	r3, [r7, #20]
 426:../../source/src/kernel/SHELL/shell.c **** 			continue;
 1450              		.loc 1 426 0
 1451 05e8 25E0     		b	.L89
ARM GAS  G:\Users\Jaxb\AppData\Local\Temp\cch2S2ie.s 			page 36


 1452              	.L90:
 427:../../source/src/kernel/SHELL/shell.c **** 		}
 428:../../source/src/kernel/SHELL/shell.c **** 		else
 429:../../source/src/kernel/SHELL/shell.c **** 		{
 430:../../source/src/kernel/SHELL/shell.c **** 			*ptr = '\0';
 1453              		.loc 1 430 0
 1454 05ea 7B69     		ldr	r3, [r7, #20]
 1455 05ec 0022     		movs	r2, #0
 1456 05ee 1A70     		strb	r2, [r3]
 431:../../source/src/kernel/SHELL/shell.c **** 			++ptr;
 1457              		.loc 1 431 0
 1458 05f0 7B69     		ldr	r3, [r7, #20]
 1459 05f2 0133     		adds	r3, r3, #1
 1460 05f4 7B61     		str	r3, [r7, #20]
 432:../../source/src/kernel/SHELL/shell.c **** 			while(' ' == *ptr)
 1461              		.loc 1 432 0
 1462 05f6 02E0     		b	.L91
 1463              	.L92:
 433:../../source/src/kernel/SHELL/shell.c **** 			{
 434:../../source/src/kernel/SHELL/shell.c **** 				++ptr;
 1464              		.loc 1 434 0
 1465 05f8 7B69     		ldr	r3, [r7, #20]
 1466 05fa 0133     		adds	r3, r3, #1
 1467 05fc 7B61     		str	r3, [r7, #20]
 1468              	.L91:
 432:../../source/src/kernel/SHELL/shell.c **** 			while(' ' == *ptr)
 1469              		.loc 1 432 0
 1470 05fe 7B69     		ldr	r3, [r7, #20]
 1471 0600 1B78     		ldrb	r3, [r3]	@ zero_extendqisi2
 1472 0602 202B     		cmp	r3, #32
 1473 0604 F8D0     		beq	.L92
 435:../../source/src/kernel/SHELL/shell.c **** 			}
 436:../../source/src/kernel/SHELL/shell.c **** 			if((0x0d != *ptr) && (0x0a != *ptr))
 1474              		.loc 1 436 0
 1475 0606 7B69     		ldr	r3, [r7, #20]
 1476 0608 1B78     		ldrb	r3, [r3]	@ zero_extendqisi2
 1477 060a 0D2B     		cmp	r3, #13
 1478 060c 13D0     		beq	.L89
 1479              		.loc 1 436 0 is_stmt 0 discriminator 1
 1480 060e 7B69     		ldr	r3, [r7, #20]
 1481 0610 1B78     		ldrb	r3, [r3]	@ zero_extendqisi2
 1482 0612 0A2B     		cmp	r3, #10
 1483 0614 0FD0     		beq	.L89
 437:../../source/src/kernel/SHELL/shell.c **** 			{
 438:../../source/src/kernel/SHELL/shell.c **** 				using_shell_buffer_ptr->argv[num++] = ptr;
 1484              		.loc 1 438 0 is_stmt 1
 1485 0616 1D4B     		ldr	r3, .L96
 1486 0618 1A68     		ldr	r2, [r3]
 1487 061a 3B69     		ldr	r3, [r7, #16]
 1488 061c 591C     		adds	r1, r3, #1
 1489 061e 3961     		str	r1, [r7, #16]
 1490 0620 7969     		ldr	r1, [r7, #20]
 1491 0622 42F82310 		str	r1, [r2, r3, lsl #2]
 439:../../source/src/kernel/SHELL/shell.c **** 				if(ARGV_SIZE+1 == num)
 1492              		.loc 1 439 0
 1493 0626 3B69     		ldr	r3, [r7, #16]
 1494 0628 0B2B     		cmp	r3, #11
ARM GAS  G:\Users\Jaxb\AppData\Local\Temp\cch2S2ie.s 			page 37


 1495 062a 04D1     		bne	.L89
 440:../../source/src/kernel/SHELL/shell.c **** 				{
 441:../../source/src/kernel/SHELL/shell.c **** 					ka_printf("too many argument\n");
 1496              		.loc 1 441 0
 1497 062c 1848     		ldr	r0, .L96+4
 1498 062e FFF7FEFF 		bl	ka_printf
 442:../../source/src/kernel/SHELL/shell.c **** 					return 0;
 1499              		.loc 1 442 0
 1500 0632 0023     		movs	r3, #0
 1501 0634 25E0     		b	.L88
 1502              	.L89:
 421:../../source/src/kernel/SHELL/shell.c **** 	{
 1503              		.loc 1 421 0
 1504 0636 7B69     		ldr	r3, [r7, #20]
 1505 0638 1B78     		ldrb	r3, [r3]	@ zero_extendqisi2
 1506 063a 0D2B     		cmp	r3, #13
 1507 063c 03D0     		beq	.L93
 421:../../source/src/kernel/SHELL/shell.c **** 	{
 1508              		.loc 1 421 0 is_stmt 0 discriminator 1
 1509 063e 7B69     		ldr	r3, [r7, #20]
 1510 0640 1B78     		ldrb	r3, [r3]	@ zero_extendqisi2
 1511 0642 0A2B     		cmp	r3, #10
 1512 0644 C9D1     		bne	.L94
 1513              	.L93:
 443:../../source/src/kernel/SHELL/shell.c **** 				}
 444:../../source/src/kernel/SHELL/shell.c **** 			}
 445:../../source/src/kernel/SHELL/shell.c **** 		}
 446:../../source/src/kernel/SHELL/shell.c **** 	}
 447:../../source/src/kernel/SHELL/shell.c **** 	*ptr = '\0';
 1514              		.loc 1 447 0 is_stmt 1
 1515 0646 7B69     		ldr	r3, [r7, #20]
 1516 0648 0022     		movs	r2, #0
 1517 064a 1A70     		strb	r2, [r3]
 448:../../source/src/kernel/SHELL/shell.c **** 		
 449:../../source/src/kernel/SHELL/shell.c **** 	result = match_and_execute_command(num,
 1518              		.loc 1 449 0
 1519 064c 3C69     		ldr	r4, [r7, #16]
 450:../../source/src/kernel/SHELL/shell.c **** 		(const char **)(using_shell_buffer_ptr->argv),
 1520              		.loc 1 450 0
 1521 064e 0F4B     		ldr	r3, .L96
 1522 0650 1B68     		ldr	r3, [r3]
 1523 0652 1D46     		mov	r5, r3
 451:../../source/src/kernel/SHELL/shell.c **** 		get_command_processer(ka_strlen(using_shell_buffer_ptr->argv[0])));
 1524              		.loc 1 451 0
 1525 0654 0D4B     		ldr	r3, .L96
 1526 0656 1B68     		ldr	r3, [r3]
 1527 0658 1B68     		ldr	r3, [r3]
 449:../../source/src/kernel/SHELL/shell.c **** 		(const char **)(using_shell_buffer_ptr->argv),
 1528              		.loc 1 449 0
 1529 065a 1846     		mov	r0, r3
 1530 065c FFF7FEFF 		bl	ka_strlen
 1531 0660 0346     		mov	r3, r0
 1532 0662 1846     		mov	r0, r3
 1533 0664 FFF7FEFF 		bl	get_command_processer
 1534 0668 0346     		mov	r3, r0
 1535 066a 1A46     		mov	r2, r3
 1536 066c 2946     		mov	r1, r5
ARM GAS  G:\Users\Jaxb\AppData\Local\Temp\cch2S2ie.s 			page 38


 1537 066e 2046     		mov	r0, r4
 1538 0670 FFF7FEFF 		bl	match_and_execute_command
 1539 0674 F860     		str	r0, [r7, #12]
 452:../../source/src/kernel/SHELL/shell.c ****     if(result == 1)
 1540              		.loc 1 452 0
 1541 0676 FB68     		ldr	r3, [r7, #12]
 1542 0678 012B     		cmp	r3, #1
 1543 067a 01D1     		bne	.L95
 453:../../source/src/kernel/SHELL/shell.c ****     {
 454:../../source/src/kernel/SHELL/shell.c ****     	return 0;
 1544              		.loc 1 454 0
 1545 067c 0023     		movs	r3, #0
 1546 067e 00E0     		b	.L88
 1547              	.L95:
 455:../../source/src/kernel/SHELL/shell.c ****     }
 456:../../source/src/kernel/SHELL/shell.c ****     return num;
 1548              		.loc 1 456 0
 1549 0680 3B69     		ldr	r3, [r7, #16]
 1550              	.L88:
 457:../../source/src/kernel/SHELL/shell.c **** }
 1551              		.loc 1 457 0
 1552 0682 1846     		mov	r0, r3
 1553 0684 1837     		adds	r7, r7, #24
 1554              	.LCFI42:
 1555              		.cfi_def_cfa_offset 16
 1556 0686 BD46     		mov	sp, r7
 1557              	.LCFI43:
 1558              		.cfi_def_cfa_register 13
 1559              		@ sp needed
 1560 0688 B0BD     		pop	{r4, r5, r7, pc}
 1561              	.L97:
 1562 068a 00BF     		.align	2
 1563              	.L96:
 1564 068c 48010000 		.word	using_shell_buffer_ptr
 1565 0690 3C020000 		.word	.LC37
 1566              		.cfi_endproc
 1567              	.LFE23:
 1568              		.size	process, .-process
 1569              		.section	.rodata
 1570 024f 00       		.align	2
 1571              	.LC38:
 1572 0250 2F2A2A2A 		.ascii	"/*************************\000"
 1572      2A2A2A2A 
 1572      2A2A2A2A 
 1572      2A2A2A2A 
 1572      2A2A2A2A 
 1573 026b 00       		.align	2
 1574              	.LC39:
 1575 026c 25730A00 		.ascii	"%s\012\000"
 1576              		.align	2
 1577              	.LC40:
 1578 0270 2A00     		.ascii	"*\000"
 1579 0272 0000     		.align	2
 1580              	.LC41:
 1581 0274 2A202020 		.ascii	"*   kaka_os  shell\000"
 1581      6B616B61 
 1581      5F6F7320 
ARM GAS  G:\Users\Jaxb\AppData\Local\Temp\cch2S2ie.s 			page 39


 1581      20736865 
 1581      6C6C00
 1582 0287 00       		.align	2
 1583              	.LC42:
 1584 0288 2A2A2A2A 		.ascii	"*************************/\000"
 1584      2A2A2A2A 
 1584      2A2A2A2A 
 1584      2A2A2A2A 
 1584      2A2A2A2A 
 1585 02a3 00       		.align	2
 1586              	.LC43:
 1587 02a4 6B616B61 		.ascii	"kaka_os>>\000"
 1587      5F6F733E 
 1587      3E00
 1588              		.text
 1589              		.align	1
 1590              		.global	shell
 1591              		.syntax unified
 1592              		.thumb
 1593              		.thumb_func
 1594              		.fpu softvfp
 1595              		.type	shell, %function
 1596              	shell:
 1597              	.LFB24:
 458:../../source/src/kernel/SHELL/shell.c **** 
 459:../../source/src/kernel/SHELL/shell.c **** extern TCB TCB_count_init;
 460:../../source/src/kernel/SHELL/shell.c **** void shell(void *para)
 461:../../source/src/kernel/SHELL/shell.c **** {
 1598              		.loc 1 461 0
 1599              		.cfi_startproc
 1600              		@ args = 0, pretend = 0, frame = 24
 1601              		@ frame_needed = 1, uses_anonymous_args = 0
 1602 0694 80B5     		push	{r7, lr}
 1603              	.LCFI44:
 1604              		.cfi_def_cfa_offset 8
 1605              		.cfi_offset 7, -8
 1606              		.cfi_offset 14, -4
 1607 0696 86B0     		sub	sp, sp, #24
 1608              	.LCFI45:
 1609              		.cfi_def_cfa_offset 32
 1610 0698 00AF     		add	r7, sp, #0
 1611              	.LCFI46:
 1612              		.cfi_def_cfa_register 7
 1613 069a 7860     		str	r0, [r7, #4]
 462:../../source/src/kernel/SHELL/shell.c **** #if CONFIG_ASSERT_DEBUG
 463:../../source/src/kernel/SHELL/shell.c **** 	int error;
 464:../../source/src/kernel/SHELL/shell.c **** #endif
 465:../../source/src/kernel/SHELL/shell.c **** 	(void)para;
 466:../../source/src/kernel/SHELL/shell.c **** 	int result;
 467:../../source/src/kernel/SHELL/shell.c **** 	task_delete(&TCB_count_init);
 1614              		.loc 1 467 0
 1615 069c 3E48     		ldr	r0, .L104
 1616 069e FFF7FEFF 		bl	task_delete
 468:../../source/src/kernel/SHELL/shell.c **** 	shell_init();
 1617              		.loc 1 468 0
 1618 06a2 FFF793FE 		bl	shell_init
 469:../../source/src/kernel/SHELL/shell.c **** 	ka_printf("%s\n","/*************************");
ARM GAS  G:\Users\Jaxb\AppData\Local\Temp\cch2S2ie.s 			page 40


 1619              		.loc 1 469 0
 1620 06a6 3D49     		ldr	r1, .L104+4
 1621 06a8 3D48     		ldr	r0, .L104+8
 1622 06aa FFF7FEFF 		bl	ka_printf
 470:../../source/src/kernel/SHELL/shell.c **** 	ka_printf("%s\n","*");
 1623              		.loc 1 470 0
 1624 06ae 3D49     		ldr	r1, .L104+12
 1625 06b0 3B48     		ldr	r0, .L104+8
 1626 06b2 FFF7FEFF 		bl	ka_printf
 471:../../source/src/kernel/SHELL/shell.c **** 	ka_printf("%s\n","*   kaka_os  shell");
 1627              		.loc 1 471 0
 1628 06b6 3C49     		ldr	r1, .L104+16
 1629 06b8 3948     		ldr	r0, .L104+8
 1630 06ba FFF7FEFF 		bl	ka_printf
 472:../../source/src/kernel/SHELL/shell.c **** 	ka_printf("%s\n","*");
 1631              		.loc 1 472 0
 1632 06be 3949     		ldr	r1, .L104+12
 1633 06c0 3748     		ldr	r0, .L104+8
 1634 06c2 FFF7FEFF 		bl	ka_printf
 473:../../source/src/kernel/SHELL/shell.c **** 	ka_printf("%s\n","*************************/");
 1635              		.loc 1 473 0
 1636 06c6 3949     		ldr	r1, .L104+20
 1637 06c8 3548     		ldr	r0, .L104+8
 1638 06ca FFF7FEFF 		bl	ka_printf
 474:../../source/src/kernel/SHELL/shell.c **** 	ka_printf("%s","kaka_os>>");
 1639              		.loc 1 474 0
 1640 06ce 3849     		ldr	r1, .L104+24
 1641 06d0 3848     		ldr	r0, .L104+28
 1642 06d2 FFF7FEFF 		bl	ka_printf
 1643              	.L103:
 475:../../source/src/kernel/SHELL/shell.c **** 	while(1)
 476:../../source/src/kernel/SHELL/shell.c **** 	{
 477:../../source/src/kernel/SHELL/shell.c **** #if CONFIG_ASSERT_DEBUG
 478:../../source/src/kernel/SHELL/shell.c **** 		error = p(&MCB_for_shell,MCB_FLAG_WAIT,0);
 1644              		.loc 1 478 0
 1645 06d6 0022     		movs	r2, #0
 1646 06d8 0021     		movs	r1, #0
 1647 06da 3748     		ldr	r0, .L104+32
 1648 06dc FFF7FEFF 		bl	p
 1649 06e0 3861     		str	r0, [r7, #16]
 479:../../source/src/kernel/SHELL/shell.c **** #else
 480:../../source/src/kernel/SHELL/shell.c **** 		p(&MCB_for_shell,MCB_FLAG_WAIT,0);
 481:../../source/src/kernel/SHELL/shell.c **** #endif
 482:../../source/src/kernel/SHELL/shell.c **** 		ASSERT(FUN_EXECUTE_SUCCESSFULLY == error);
 1650              		.loc 1 482 0
 1651 06e2 3B69     		ldr	r3, [r7, #16]
 1652 06e4 002B     		cmp	r3, #0
 1653 06e6 04D0     		beq	.L99
 1654              		.loc 1 482 0 is_stmt 0 discriminator 1
 1655 06e8 4FF4F171 		mov	r1, #482
 1656 06ec 3348     		ldr	r0, .L104+36
 1657 06ee FFF7FEFF 		bl	_ASSERT
 1658              	.L99:
 483:../../source/src/kernel/SHELL/shell.c **** 		result = process(using_shell_buffer_ptr->buffer);
 1659              		.loc 1 483 0 is_stmt 1
 1660 06f2 334B     		ldr	r3, .L104+40
 1661 06f4 1B68     		ldr	r3, [r3]
ARM GAS  G:\Users\Jaxb\AppData\Local\Temp\cch2S2ie.s 			page 41


 1662 06f6 1B6D     		ldr	r3, [r3, #80]
 1663 06f8 1846     		mov	r0, r3
 1664 06fa FFF74BFF 		bl	process
 1665 06fe F860     		str	r0, [r7, #12]
 484:../../source/src/kernel/SHELL/shell.c **** 		if(0 != result && using_shell_buffer_ptr->buffer_reserve)
 1666              		.loc 1 484 0
 1667 0700 FB68     		ldr	r3, [r7, #12]
 1668 0702 002B     		cmp	r3, #0
 1669 0704 41D0     		beq	.L100
 1670              		.loc 1 484 0 is_stmt 0 discriminator 1
 1671 0706 2E4B     		ldr	r3, .L104+40
 1672 0708 1B68     		ldr	r3, [r3]
 1673 070a 5B6D     		ldr	r3, [r3, #84]
 1674 070c 002B     		cmp	r3, #0
 1675 070e 3CD0     		beq	.L100
 1676              	.LBB3:
 485:../../source/src/kernel/SHELL/shell.c **** 		{
 486:../../source/src/kernel/SHELL/shell.c **** 			ka_memcpy(using_shell_buffer_ptr->buffer_reserve,
 1677              		.loc 1 486 0 is_stmt 1
 1678 0710 2B4B     		ldr	r3, .L104+40
 1679 0712 1B68     		ldr	r3, [r3]
 1680 0714 586D     		ldr	r0, [r3, #84]
 487:../../source/src/kernel/SHELL/shell.c **** 				using_shell_buffer_ptr->buffer,
 1681              		.loc 1 487 0
 1682 0716 2A4B     		ldr	r3, .L104+40
 1683 0718 1B68     		ldr	r3, [r3]
 1684 071a 196D     		ldr	r1, [r3, #80]
 488:../../source/src/kernel/SHELL/shell.c **** 				using_shell_buffer_ptr->index);
 1685              		.loc 1 488 0
 1686 071c 284B     		ldr	r3, .L104+40
 1687 071e 1B68     		ldr	r3, [r3]
 1688 0720 9B6D     		ldr	r3, [r3, #88]
 486:../../source/src/kernel/SHELL/shell.c **** 				using_shell_buffer_ptr->buffer,
 1689              		.loc 1 486 0
 1690 0722 1A46     		mov	r2, r3
 1691 0724 FFF7FEFF 		bl	ka_memcpy
 489:../../source/src/kernel/SHELL/shell.c **** 			ka_memcpy(using_shell_buffer_ptr->argv_reserve,using_shell_buffer_ptr->argv,result*sizeof(char *
 1692              		.loc 1 489 0
 1693 0728 254B     		ldr	r3, .L104+40
 1694 072a 1B68     		ldr	r3, [r3]
 1695 072c 03F12800 		add	r0, r3, #40
 1696 0730 234B     		ldr	r3, .L104+40
 1697 0732 1B68     		ldr	r3, [r3]
 1698 0734 1946     		mov	r1, r3
 1699 0736 FB68     		ldr	r3, [r7, #12]
 1700 0738 9B00     		lsls	r3, r3, #2
 1701 073a 1A46     		mov	r2, r3
 1702 073c FFF7FEFF 		bl	ka_memcpy
 490:../../source/src/kernel/SHELL/shell.c **** 			unsigned int i;
 491:../../source/src/kernel/SHELL/shell.c **** 			unsigned int buf = (unsigned int)(using_shell_buffer_ptr->buffer_reserve) - (unsigned int)(using
 1703              		.loc 1 491 0
 1704 0740 1F4B     		ldr	r3, .L104+40
 1705 0742 1B68     		ldr	r3, [r3]
 1706 0744 5B6D     		ldr	r3, [r3, #84]
 1707 0746 1A46     		mov	r2, r3
 1708 0748 1D4B     		ldr	r3, .L104+40
 1709 074a 1B68     		ldr	r3, [r3]
ARM GAS  G:\Users\Jaxb\AppData\Local\Temp\cch2S2ie.s 			page 42


 1710 074c 1B6D     		ldr	r3, [r3, #80]
 1711 074e D31A     		subs	r3, r2, r3
 1712 0750 BB60     		str	r3, [r7, #8]
 492:../../source/src/kernel/SHELL/shell.c **** 			for(i=0;i<result;++i)
 1713              		.loc 1 492 0
 1714 0752 0023     		movs	r3, #0
 1715 0754 7B61     		str	r3, [r7, #20]
 1716 0756 10E0     		b	.L101
 1717              	.L102:
 493:../../source/src/kernel/SHELL/shell.c **** 			{
 494:../../source/src/kernel/SHELL/shell.c **** 				using_shell_buffer_ptr->argv_reserve[i] += buf;
 1718              		.loc 1 494 0 discriminator 3
 1719 0758 194B     		ldr	r3, .L104+40
 1720 075a 1B68     		ldr	r3, [r3]
 1721 075c 7A69     		ldr	r2, [r7, #20]
 1722 075e 0A32     		adds	r2, r2, #10
 1723 0760 53F82210 		ldr	r1, [r3, r2, lsl #2]
 1724 0764 164B     		ldr	r3, .L104+40
 1725 0766 1B68     		ldr	r3, [r3]
 1726 0768 BA68     		ldr	r2, [r7, #8]
 1727 076a 1144     		add	r1, r1, r2
 1728 076c 7A69     		ldr	r2, [r7, #20]
 1729 076e 0A32     		adds	r2, r2, #10
 1730 0770 43F82210 		str	r1, [r3, r2, lsl #2]
 492:../../source/src/kernel/SHELL/shell.c **** 			for(i=0;i<result;++i)
 1731              		.loc 1 492 0 discriminator 3
 1732 0774 7B69     		ldr	r3, [r7, #20]
 1733 0776 0133     		adds	r3, r3, #1
 1734 0778 7B61     		str	r3, [r7, #20]
 1735              	.L101:
 492:../../source/src/kernel/SHELL/shell.c **** 			for(i=0;i<result;++i)
 1736              		.loc 1 492 0 is_stmt 0 discriminator 1
 1737 077a FB68     		ldr	r3, [r7, #12]
 1738 077c 7A69     		ldr	r2, [r7, #20]
 1739 077e 9A42     		cmp	r2, r3
 1740 0780 EAD3     		bcc	.L102
 495:../../source/src/kernel/SHELL/shell.c **** 			}
 496:../../source/src/kernel/SHELL/shell.c **** 			using_shell_buffer_ptr->index_reserve = result;
 1741              		.loc 1 496 0 is_stmt 1
 1742 0782 0F4B     		ldr	r3, .L104+40
 1743 0784 1B68     		ldr	r3, [r3]
 1744 0786 FA68     		ldr	r2, [r7, #12]
 1745 0788 DA65     		str	r2, [r3, #92]
 1746              	.L100:
 1747              	.LBE3:
 497:../../source/src/kernel/SHELL/shell.c **** 		}
 498:../../source/src/kernel/SHELL/shell.c **** 		clear_input_buffer();
 1748              		.loc 1 498 0
 1749 078a FFF739FC 		bl	clear_input_buffer
 499:../../source/src/kernel/SHELL/shell.c **** 		ka_printf("%s","kaka_os>>");
 1750              		.loc 1 499 0
 1751 078e 0849     		ldr	r1, .L104+24
 1752 0790 0848     		ldr	r0, .L104+28
 1753 0792 FFF7FEFF 		bl	ka_printf
 478:../../source/src/kernel/SHELL/shell.c **** #else
 1754              		.loc 1 478 0
 1755 0796 9EE7     		b	.L103
ARM GAS  G:\Users\Jaxb\AppData\Local\Temp\cch2S2ie.s 			page 43


 1756              	.L105:
 1757              		.align	2
 1758              	.L104:
 1759 0798 00000000 		.word	TCB_count_init
 1760 079c 50020000 		.word	.LC38
 1761 07a0 6C020000 		.word	.LC39
 1762 07a4 70020000 		.word	.LC40
 1763 07a8 74020000 		.word	.LC41
 1764 07ac 88020000 		.word	.LC42
 1765 07b0 A4020000 		.word	.LC43
 1766 07b4 14010000 		.word	.LC6
 1767 07b8 00000000 		.word	MCB_for_shell
 1768 07bc 00000000 		.word	.LC0
 1769 07c0 48010000 		.word	using_shell_buffer_ptr
 1770              		.cfi_endproc
 1771              	.LFE24:
 1772              		.size	shell, .-shell
 1773              	.Letext0:
 1774              		.file 2 "../../source/include/os_lib/singly_linked_list.h"
 1775              		.file 3 "../../source/include/shell/command_processor.h"
 1776              		.file 4 "../../source/include/os_cpu/kakaosstdint.h"
 1777              		.file 5 "../../source/include/os_lib/double_linked_list.h"
 1778              		.file 6 "../../source/include/os_core/task_state.h"
 1779              		.file 7 "../../source/include/os_core/TCB.h"
 1780              		.file 8 "../../source/include/os_lib/insert_sort_oo.h"
 1781              		.file 9 "../../source/include/os_core/MCB.h"
 1782              		.file 10 "../../source/include/shell/shell.h"
 1783              		.file 11 "../../source/include/os_cpu/os_cpu_stm32.h"
 1784              		.section	.debug_info,"",%progbits
 1785              	.Ldebug_info0:
 1786 0000 69080000 		.4byte	0x869
 1787 0004 0200     		.2byte	0x2
 1788 0006 00000000 		.4byte	.Ldebug_abbrev0
 1789 000a 04       		.byte	0x4
 1790 000b 01       		.uleb128 0x1
 1791 000c 14040000 		.4byte	.LASF107
 1792 0010 0C       		.byte	0xc
 1793 0011 DB020000 		.4byte	.LASF108
 1794 0015 20060000 		.4byte	.LASF109
 1795 0019 00000000 		.4byte	.Ltext0
 1796 001d C4070000 		.4byte	.Letext0
 1797 0021 00000000 		.4byte	.Ldebug_line0
 1798 0025 02       		.uleb128 0x2
 1799 0026 74000000 		.4byte	.LASF0
 1800 002a 04       		.byte	0x4
 1801 002b 02       		.byte	0x2
 1802 002c 04       		.byte	0x4
 1803 002d 40000000 		.4byte	0x40
 1804 0031 03       		.uleb128 0x3
 1805 0032 90000000 		.4byte	.LASF2
 1806 0036 02       		.byte	0x2
 1807 0037 05       		.byte	0x5
 1808 0038 40000000 		.4byte	0x40
 1809 003c 02       		.byte	0x2
 1810 003d 23       		.byte	0x23
 1811 003e 00       		.uleb128 0
 1812 003f 00       		.byte	0
ARM GAS  G:\Users\Jaxb\AppData\Local\Temp\cch2S2ie.s 			page 44


 1813 0040 04       		.uleb128 0x4
 1814 0041 04       		.byte	0x4
 1815 0042 25000000 		.4byte	0x25
 1816 0046 02       		.uleb128 0x2
 1817 0047 D6010000 		.4byte	.LASF1
 1818 004b 0C       		.byte	0xc
 1819 004c 03       		.byte	0x3
 1820 004d 0D       		.byte	0xd
 1821 004e 7B000000 		.4byte	0x7b
 1822 0052 03       		.uleb128 0x3
 1823 0053 0C010000 		.4byte	.LASF3
 1824 0057 03       		.byte	0x3
 1825 0058 0E       		.byte	0xe
 1826 0059 7B000000 		.4byte	0x7b
 1827 005d 02       		.byte	0x2
 1828 005e 23       		.byte	0x23
 1829 005f 00       		.uleb128 0
 1830 0060 05       		.uleb128 0x5
 1831 0061 6600     		.ascii	"f\000"
 1832 0063 03       		.byte	0x3
 1833 0064 0F       		.byte	0xf
 1834 0065 B6000000 		.4byte	0xb6
 1835 0069 02       		.byte	0x2
 1836 006a 23       		.byte	0x23
 1837 006b 04       		.uleb128 0x4
 1838 006c 03       		.uleb128 0x3
 1839 006d 9A060000 		.4byte	.LASF4
 1840 0071 03       		.byte	0x3
 1841 0072 10       		.byte	0x10
 1842 0073 25000000 		.4byte	0x25
 1843 0077 02       		.byte	0x2
 1844 0078 23       		.byte	0x23
 1845 0079 08       		.uleb128 0x8
 1846 007a 00       		.byte	0
 1847 007b 04       		.uleb128 0x4
 1848 007c 04       		.byte	0x4
 1849 007d 88000000 		.4byte	0x88
 1850 0081 06       		.uleb128 0x6
 1851 0082 01       		.byte	0x1
 1852 0083 08       		.byte	0x8
 1853 0084 84050000 		.4byte	.LASF5
 1854 0088 07       		.uleb128 0x7
 1855 0089 81000000 		.4byte	0x81
 1856 008d 08       		.uleb128 0x8
 1857 008e 01       		.byte	0x1
 1858 008f 9E000000 		.4byte	0x9e
 1859 0093 09       		.uleb128 0x9
 1860 0094 9E000000 		.4byte	0x9e
 1861 0098 09       		.uleb128 0x9
 1862 0099 AA000000 		.4byte	0xaa
 1863 009d 00       		.byte	0
 1864 009e 0A       		.uleb128 0xa
 1865 009f 04       		.byte	0x4
 1866 00a0 05       		.byte	0x5
 1867 00a1 696E7400 		.ascii	"int\000"
 1868 00a5 0B       		.uleb128 0xb
 1869 00a6 9E000000 		.4byte	0x9e
ARM GAS  G:\Users\Jaxb\AppData\Local\Temp\cch2S2ie.s 			page 45


 1870 00aa 04       		.uleb128 0x4
 1871 00ab 04       		.byte	0x4
 1872 00ac 7B000000 		.4byte	0x7b
 1873 00b0 04       		.uleb128 0x4
 1874 00b1 04       		.byte	0x4
 1875 00b2 8D000000 		.4byte	0x8d
 1876 00b6 07       		.uleb128 0x7
 1877 00b7 B0000000 		.4byte	0xb0
 1878 00bb 06       		.uleb128 0x6
 1879 00bc 04       		.byte	0x4
 1880 00bd 07       		.byte	0x7
 1881 00be A4010000 		.4byte	.LASF6
 1882 00c2 06       		.uleb128 0x6
 1883 00c3 01       		.byte	0x1
 1884 00c4 06       		.byte	0x6
 1885 00c5 CE000000 		.4byte	.LASF7
 1886 00c9 06       		.uleb128 0x6
 1887 00ca 02       		.byte	0x2
 1888 00cb 05       		.byte	0x5
 1889 00cc F4040000 		.4byte	.LASF8
 1890 00d0 06       		.uleb128 0x6
 1891 00d1 08       		.byte	0x8
 1892 00d2 05       		.byte	0x5
 1893 00d3 C0000000 		.4byte	.LASF9
 1894 00d7 06       		.uleb128 0x6
 1895 00d8 01       		.byte	0x1
 1896 00d9 08       		.byte	0x8
 1897 00da CC040000 		.4byte	.LASF10
 1898 00de 06       		.uleb128 0x6
 1899 00df 02       		.byte	0x2
 1900 00e0 07       		.byte	0x7
 1901 00e1 5A020000 		.4byte	.LASF11
 1902 00e5 0C       		.uleb128 0xc
 1903 00e6 95030000 		.4byte	.LASF12
 1904 00ea 04       		.byte	0x4
 1905 00eb 0C       		.byte	0xc
 1906 00ec BB000000 		.4byte	0xbb
 1907 00f0 0C       		.uleb128 0xc
 1908 00f1 7A060000 		.4byte	.LASF13
 1909 00f5 04       		.byte	0x4
 1910 00f6 0D       		.byte	0xd
 1911 00f7 FB000000 		.4byte	0xfb
 1912 00fb 06       		.uleb128 0x6
 1913 00fc 08       		.byte	0x8
 1914 00fd 07       		.byte	0x7
 1915 00fe 53000000 		.4byte	.LASF14
 1916 0102 02       		.uleb128 0x2
 1917 0103 89050000 		.4byte	.LASF15
 1918 0107 08       		.byte	0x8
 1919 0108 05       		.byte	0x5
 1920 0109 04       		.byte	0x4
 1921 010a 2B010000 		.4byte	0x12b
 1922 010e 03       		.uleb128 0x3
 1923 010f 90000000 		.4byte	.LASF2
 1924 0113 05       		.byte	0x5
 1925 0114 05       		.byte	0x5
 1926 0115 2B010000 		.4byte	0x12b
ARM GAS  G:\Users\Jaxb\AppData\Local\Temp\cch2S2ie.s 			page 46


 1927 0119 02       		.byte	0x2
 1928 011a 23       		.byte	0x23
 1929 011b 00       		.uleb128 0
 1930 011c 03       		.uleb128 0x3
 1931 011d 27000000 		.4byte	.LASF16
 1932 0121 05       		.byte	0x5
 1933 0122 05       		.byte	0x5
 1934 0123 2B010000 		.4byte	0x12b
 1935 0127 02       		.byte	0x2
 1936 0128 23       		.byte	0x23
 1937 0129 04       		.uleb128 0x4
 1938 012a 00       		.byte	0
 1939 012b 04       		.uleb128 0x4
 1940 012c 04       		.byte	0x4
 1941 012d 02010000 		.4byte	0x102
 1942 0131 0D       		.uleb128 0xd
 1943 0132 01030000 		.4byte	.LASF56
 1944 0136 07       		.byte	0x7
 1945 0137 01       		.byte	0x1
 1946 0138 D7000000 		.4byte	0xd7
 1947 013c 06       		.byte	0x6
 1948 013d 04       		.byte	0x4
 1949 013e 7F010000 		.4byte	0x17f
 1950 0142 0E       		.uleb128 0xe
 1951 0143 7B030000 		.4byte	.LASF17
 1952 0147 01       		.byte	0x1
 1953 0148 0E       		.uleb128 0xe
 1954 0149 CA010000 		.4byte	.LASF18
 1955 014d 02       		.byte	0x2
 1956 014e 0E       		.uleb128 0xe
 1957 014f 03060000 		.4byte	.LASF19
 1958 0153 03       		.byte	0x3
 1959 0154 0E       		.uleb128 0xe
 1960 0155 C5030000 		.4byte	.LASF20
 1961 0159 04       		.byte	0x4
 1962 015a 0E       		.uleb128 0xe
 1963 015b AA060000 		.4byte	.LASF21
 1964 015f 05       		.byte	0x5
 1965 0160 0E       		.uleb128 0xe
 1966 0161 4E060000 		.4byte	.LASF22
 1967 0165 06       		.byte	0x6
 1968 0166 0E       		.uleb128 0xe
 1969 0167 63010000 		.4byte	.LASF23
 1970 016b 07       		.byte	0x7
 1971 016c 0E       		.uleb128 0xe
 1972 016d 84010000 		.4byte	.LASF24
 1973 0171 08       		.byte	0x8
 1974 0172 0E       		.uleb128 0xe
 1975 0173 2A050000 		.4byte	.LASF25
 1976 0177 09       		.byte	0x9
 1977 0178 0E       		.uleb128 0xe
 1978 0179 EC030000 		.4byte	.LASF26
 1979 017d 0A       		.byte	0xa
 1980 017e 00       		.byte	0
 1981 017f 0C       		.uleb128 0xc
 1982 0180 85000000 		.4byte	.LASF27
 1983 0184 06       		.byte	0x6
ARM GAS  G:\Users\Jaxb\AppData\Local\Temp\cch2S2ie.s 			page 47


 1984 0185 0F       		.byte	0xf
 1985 0186 31010000 		.4byte	0x131
 1986 018a 0C       		.uleb128 0xc
 1987 018b C2050000 		.4byte	.LASF28
 1988 018f 07       		.byte	0x7
 1989 0190 09       		.byte	0x9
 1990 0191 BB000000 		.4byte	0xbb
 1991 0195 0C       		.uleb128 0xc
 1992 0196 0D000000 		.4byte	.LASF29
 1993 019a 07       		.byte	0x7
 1994 019b 0B       		.byte	0xb
 1995 019c BB000000 		.4byte	0xbb
 1996 01a0 0F       		.uleb128 0xf
 1997 01a1 04       		.byte	0x4
 1998 01a2 10       		.uleb128 0x10
 1999 01a3 BA040000 		.4byte	.LASF87
 2000 01a7 07       		.byte	0x7
 2001 01a8 12       		.byte	0x12
 2002 01a9 A5000000 		.4byte	0xa5
 2003 01ad 01       		.byte	0x1
 2004 01ae 01       		.byte	0x1
 2005 01af 02       		.uleb128 0x2
 2006 01b0 A6000000 		.4byte	.LASF30
 2007 01b4 48       		.byte	0x48
 2008 01b5 07       		.byte	0x7
 2009 01b6 2F       		.byte	0x2f
 2010 01b7 80020000 		.4byte	0x280
 2011 01bb 03       		.uleb128 0x3
 2012 01bc 9F060000 		.4byte	.LASF31
 2013 01c0 07       		.byte	0x7
 2014 01c1 30       		.byte	0x30
 2015 01c2 80020000 		.4byte	0x280
 2016 01c6 02       		.byte	0x2
 2017 01c7 23       		.byte	0x23
 2018 01c8 00       		.uleb128 0
 2019 01c9 03       		.uleb128 0x3
 2020 01ca 6F060000 		.4byte	.LASF32
 2021 01ce 07       		.byte	0x7
 2022 01cf 31       		.byte	0x31
 2023 01d0 BB000000 		.4byte	0xbb
 2024 01d4 02       		.byte	0x2
 2025 01d5 23       		.byte	0x23
 2026 01d6 04       		.uleb128 0x4
 2027 01d7 03       		.uleb128 0x3
 2028 01d8 DC030000 		.4byte	.LASF33
 2029 01dc 07       		.byte	0x7
 2030 01dd 32       		.byte	0x32
 2031 01de 80020000 		.4byte	0x280
 2032 01e2 02       		.byte	0x2
 2033 01e3 23       		.byte	0x23
 2034 01e4 08       		.uleb128 0x8
 2035 01e5 03       		.uleb128 0x3
 2036 01e6 C0030000 		.4byte	.LASF34
 2037 01ea 07       		.byte	0x7
 2038 01eb 33       		.byte	0x33
 2039 01ec 95010000 		.4byte	0x195
 2040 01f0 02       		.byte	0x2
ARM GAS  G:\Users\Jaxb\AppData\Local\Temp\cch2S2ie.s 			page 48


 2041 01f1 23       		.byte	0x23
 2042 01f2 0C       		.uleb128 0xc
 2043 01f3 03       		.uleb128 0x3
 2044 01f4 DA000000 		.4byte	.LASF35
 2045 01f8 07       		.byte	0x7
 2046 01f9 34       		.byte	0x34
 2047 01fa 95010000 		.4byte	0x195
 2048 01fe 02       		.byte	0x2
 2049 01ff 23       		.byte	0x23
 2050 0200 10       		.uleb128 0x10
 2051 0201 03       		.uleb128 0x3
 2052 0202 CD050000 		.4byte	.LASF36
 2053 0206 07       		.byte	0x7
 2054 0207 35       		.byte	0x35
 2055 0208 7F010000 		.4byte	0x17f
 2056 020c 02       		.byte	0x2
 2057 020d 23       		.byte	0x23
 2058 020e 14       		.uleb128 0x14
 2059 020f 03       		.uleb128 0x3
 2060 0210 DA060000 		.4byte	.LASF37
 2061 0214 07       		.byte	0x7
 2062 0215 36       		.byte	0x36
 2063 0216 9E000000 		.4byte	0x9e
 2064 021a 02       		.byte	0x2
 2065 021b 23       		.byte	0x23
 2066 021c 18       		.uleb128 0x18
 2067 021d 03       		.uleb128 0x3
 2068 021e 19010000 		.4byte	.LASF38
 2069 0222 07       		.byte	0x7
 2070 0223 37       		.byte	0x37
 2071 0224 02010000 		.4byte	0x102
 2072 0228 02       		.byte	0x2
 2073 0229 23       		.byte	0x23
 2074 022a 1C       		.uleb128 0x1c
 2075 022b 03       		.uleb128 0x3
 2076 022c 00000000 		.4byte	.LASF39
 2077 0230 07       		.byte	0x7
 2078 0231 38       		.byte	0x38
 2079 0232 02010000 		.4byte	0x102
 2080 0236 02       		.byte	0x2
 2081 0237 23       		.byte	0x23
 2082 0238 24       		.uleb128 0x24
 2083 0239 03       		.uleb128 0x3
 2084 023a E3010000 		.4byte	.LASF40
 2085 023e 07       		.byte	0x7
 2086 023f 39       		.byte	0x39
 2087 0240 86020000 		.4byte	0x286
 2088 0244 02       		.byte	0x2
 2089 0245 23       		.byte	0x23
 2090 0246 2C       		.uleb128 0x2c
 2091 0247 03       		.uleb128 0x3
 2092 0248 11050000 		.4byte	.LASF41
 2093 024c 07       		.byte	0x7
 2094 024d 3A       		.byte	0x3a
 2095 024e BB000000 		.4byte	0xbb
 2096 0252 02       		.byte	0x2
 2097 0253 23       		.byte	0x23
ARM GAS  G:\Users\Jaxb\AppData\Local\Temp\cch2S2ie.s 			page 49


 2098 0254 30       		.uleb128 0x30
 2099 0255 03       		.uleb128 0x3
 2100 0256 AC030000 		.4byte	.LASF42
 2101 025a 07       		.byte	0x7
 2102 025b 3B       		.byte	0x3b
 2103 025c BB000000 		.4byte	0xbb
 2104 0260 02       		.byte	0x2
 2105 0261 23       		.byte	0x23
 2106 0262 34       		.uleb128 0x34
 2107 0263 03       		.uleb128 0x3
 2108 0264 39000000 		.4byte	.LASF43
 2109 0268 07       		.byte	0x7
 2110 0269 3C       		.byte	0x3c
 2111 026a E5000000 		.4byte	0xe5
 2112 026e 02       		.byte	0x2
 2113 026f 23       		.byte	0x23
 2114 0270 38       		.uleb128 0x38
 2115 0271 03       		.uleb128 0x3
 2116 0272 AC050000 		.4byte	.LASF44
 2117 0276 07       		.byte	0x7
 2118 0277 3D       		.byte	0x3d
 2119 0278 F0000000 		.4byte	0xf0
 2120 027c 02       		.byte	0x2
 2121 027d 23       		.byte	0x23
 2122 027e 40       		.uleb128 0x40
 2123 027f 00       		.byte	0
 2124 0280 04       		.uleb128 0x4
 2125 0281 04       		.byte	0x4
 2126 0282 8A010000 		.4byte	0x18a
 2127 0286 04       		.uleb128 0x4
 2128 0287 04       		.byte	0x4
 2129 0288 81000000 		.4byte	0x81
 2130 028c 11       		.uleb128 0x11
 2131 028d 54434200 		.ascii	"TCB\000"
 2132 0291 07       		.byte	0x7
 2133 0292 3E       		.byte	0x3e
 2134 0293 AF010000 		.4byte	0x1af
 2135 0297 0C       		.uleb128 0xc
 2136 0298 9C030000 		.4byte	.LASF45
 2137 029c 08       		.byte	0x8
 2138 029d 0D       		.byte	0xd
 2139 029e F0000000 		.4byte	0xf0
 2140 02a2 02       		.uleb128 0x2
 2141 02a3 95000000 		.4byte	.LASF46
 2142 02a7 18       		.byte	0x18
 2143 02a8 08       		.byte	0x8
 2144 02a9 0F       		.byte	0xf
 2145 02aa D9020000 		.4byte	0x2d9
 2146 02ae 03       		.uleb128 0x3
 2147 02af 86060000 		.4byte	.LASF47
 2148 02b3 08       		.byte	0x8
 2149 02b4 11       		.byte	0x11
 2150 02b5 A0010000 		.4byte	0x1a0
 2151 02b9 02       		.byte	0x2
 2152 02ba 23       		.byte	0x23
 2153 02bb 00       		.uleb128 0
 2154 02bc 03       		.uleb128 0x3
ARM GAS  G:\Users\Jaxb\AppData\Local\Temp\cch2S2ie.s 			page 50


 2155 02bd 87030000 		.4byte	.LASF48
 2156 02c1 08       		.byte	0x8
 2157 02c2 12       		.byte	0x12
 2158 02c3 97020000 		.4byte	0x297
 2159 02c7 02       		.byte	0x2
 2160 02c8 23       		.byte	0x23
 2161 02c9 08       		.uleb128 0x8
 2162 02ca 03       		.uleb128 0x3
 2163 02cb 6A000000 		.4byte	.LASF49
 2164 02cf 08       		.byte	0x8
 2165 02d0 13       		.byte	0x13
 2166 02d1 02010000 		.4byte	0x102
 2167 02d5 02       		.byte	0x2
 2168 02d6 23       		.byte	0x23
 2169 02d7 10       		.uleb128 0x10
 2170 02d8 00       		.byte	0
 2171 02d9 02       		.uleb128 0x2
 2172 02da 4A050000 		.4byte	.LASF50
 2173 02de 18       		.byte	0x18
 2174 02df 08       		.byte	0x8
 2175 02e0 1D       		.byte	0x1d
 2176 02e1 2C030000 		.4byte	0x32c
 2177 02e5 03       		.uleb128 0x3
 2178 02e6 30010000 		.4byte	.LASF51
 2179 02ea 08       		.byte	0x8
 2180 02eb 27       		.byte	0x27
 2181 02ec 02010000 		.4byte	0x102
 2182 02f0 02       		.byte	0x2
 2183 02f1 23       		.byte	0x23
 2184 02f2 00       		.uleb128 0
 2185 02f3 03       		.uleb128 0x3
 2186 02f4 BE020000 		.4byte	.LASF52
 2187 02f8 08       		.byte	0x8
 2188 02f9 28       		.byte	0x28
 2189 02fa BB000000 		.4byte	0xbb
 2190 02fe 02       		.byte	0x2
 2191 02ff 23       		.byte	0x23
 2192 0300 08       		.uleb128 0x8
 2193 0301 03       		.uleb128 0x3
 2194 0302 A4030000 		.4byte	.LASF53
 2195 0306 08       		.byte	0x8
 2196 0307 2C       		.byte	0x2c
 2197 0308 47030000 		.4byte	0x347
 2198 030c 02       		.byte	0x2
 2199 030d 23       		.byte	0x23
 2200 030e 0C       		.uleb128 0xc
 2201 030f 03       		.uleb128 0x3
 2202 0310 DA040000 		.4byte	.LASF54
 2203 0314 08       		.byte	0x8
 2204 0315 2D       		.byte	0x2d
 2205 0316 62030000 		.4byte	0x362
 2206 031a 02       		.byte	0x2
 2207 031b 23       		.byte	0x23
 2208 031c 10       		.uleb128 0x10
 2209 031d 03       		.uleb128 0x3
 2210 031e C0010000 		.4byte	.LASF55
 2211 0322 08       		.byte	0x8
ARM GAS  G:\Users\Jaxb\AppData\Local\Temp\cch2S2ie.s 			page 51


 2212 0323 2E       		.byte	0x2e
 2213 0324 7D030000 		.4byte	0x37d
 2214 0328 02       		.byte	0x2
 2215 0329 23       		.byte	0x23
 2216 032a 14       		.uleb128 0x14
 2217 032b 00       		.byte	0
 2218 032c 12       		.uleb128 0x12
 2219 032d 01       		.byte	0x1
 2220 032e 9E000000 		.4byte	0x9e
 2221 0332 41030000 		.4byte	0x341
 2222 0336 09       		.uleb128 0x9
 2223 0337 41030000 		.4byte	0x341
 2224 033b 09       		.uleb128 0x9
 2225 033c 41030000 		.4byte	0x341
 2226 0340 00       		.byte	0
 2227 0341 04       		.uleb128 0x4
 2228 0342 04       		.byte	0x4
 2229 0343 A2020000 		.4byte	0x2a2
 2230 0347 04       		.uleb128 0x4
 2231 0348 04       		.byte	0x4
 2232 0349 2C030000 		.4byte	0x32c
 2233 034d 12       		.uleb128 0x12
 2234 034e 01       		.byte	0x1
 2235 034f 9E000000 		.4byte	0x9e
 2236 0353 62030000 		.4byte	0x362
 2237 0357 09       		.uleb128 0x9
 2238 0358 41030000 		.4byte	0x341
 2239 035c 09       		.uleb128 0x9
 2240 035d A0010000 		.4byte	0x1a0
 2241 0361 00       		.byte	0
 2242 0362 04       		.uleb128 0x4
 2243 0363 04       		.byte	0x4
 2244 0364 4D030000 		.4byte	0x34d
 2245 0368 12       		.uleb128 0x12
 2246 0369 01       		.byte	0x1
 2247 036a 9E000000 		.4byte	0x9e
 2248 036e 7D030000 		.4byte	0x37d
 2249 0372 09       		.uleb128 0x9
 2250 0373 A0010000 		.4byte	0x1a0
 2251 0377 09       		.uleb128 0x9
 2252 0378 A0010000 		.4byte	0x1a0
 2253 037c 00       		.byte	0
 2254 037d 04       		.uleb128 0x4
 2255 037e 04       		.byte	0x4
 2256 037f 68030000 		.4byte	0x368
 2257 0383 0D       		.uleb128 0xd
 2258 0384 45000000 		.4byte	.LASF57
 2259 0388 07       		.byte	0x7
 2260 0389 01       		.byte	0x1
 2261 038a D7000000 		.4byte	0xd7
 2262 038e 09       		.byte	0x9
 2263 038f 07       		.byte	0x7
 2264 0390 A7030000 		.4byte	0x3a7
 2265 0394 0E       		.uleb128 0xe
 2266 0395 6D030000 		.4byte	.LASF58
 2267 0399 00       		.byte	0
 2268 039a 0E       		.uleb128 0xe
ARM GAS  G:\Users\Jaxb\AppData\Local\Temp\cch2S2ie.s 			page 52


 2269 039b 80020000 		.4byte	.LASF59
 2270 039f 01       		.byte	0x1
 2271 03a0 0E       		.uleb128 0xe
 2272 03a1 E7000000 		.4byte	.LASF60
 2273 03a5 02       		.byte	0x2
 2274 03a6 00       		.byte	0
 2275 03a7 02       		.uleb128 0x2
 2276 03a8 B1010000 		.4byte	.LASF61
 2277 03ac 20       		.byte	0x20
 2278 03ad 09       		.byte	0x9
 2279 03ae 15       		.byte	0x15
 2280 03af DE030000 		.4byte	0x3de
 2281 03b3 03       		.uleb128 0x3
 2282 03b4 3F010000 		.4byte	.LASF62
 2283 03b8 09       		.byte	0x9
 2284 03b9 16       		.byte	0x16
 2285 03ba D9020000 		.4byte	0x2d9
 2286 03be 02       		.byte	0x2
 2287 03bf 23       		.byte	0x23
 2288 03c0 00       		.uleb128 0
 2289 03c1 03       		.uleb128 0x3
 2290 03c2 2C000000 		.4byte	.LASF63
 2291 03c6 09       		.byte	0x9
 2292 03c7 17       		.byte	0x17
 2293 03c8 9E000000 		.4byte	0x9e
 2294 03cc 02       		.byte	0x2
 2295 03cd 23       		.byte	0x23
 2296 03ce 18       		.uleb128 0x18
 2297 03cf 03       		.uleb128 0x3
 2298 03d0 25050000 		.4byte	.LASF64
 2299 03d4 09       		.byte	0x9
 2300 03d5 18       		.byte	0x18
 2301 03d6 BB000000 		.4byte	0xbb
 2302 03da 02       		.byte	0x2
 2303 03db 23       		.byte	0x23
 2304 03dc 1C       		.uleb128 0x1c
 2305 03dd 00       		.byte	0
 2306 03de 11       		.uleb128 0x11
 2307 03df 4D434200 		.ascii	"MCB\000"
 2308 03e3 09       		.byte	0x9
 2309 03e4 19       		.byte	0x19
 2310 03e5 A7030000 		.4byte	0x3a7
 2311 03e9 02       		.uleb128 0x2
 2312 03ea 71050000 		.4byte	.LASF65
 2313 03ee 60       		.byte	0x60
 2314 03ef 0A       		.byte	0xa
 2315 03f0 09       		.byte	0x9
 2316 03f1 4A040000 		.4byte	0x44a
 2317 03f5 03       		.uleb128 0x3
 2318 03f6 A5060000 		.4byte	.LASF66
 2319 03fa 0A       		.byte	0xa
 2320 03fb 0B       		.byte	0xb
 2321 03fc 4A040000 		.4byte	0x44a
 2322 0400 02       		.byte	0x2
 2323 0401 23       		.byte	0x23
 2324 0402 00       		.uleb128 0
 2325 0403 03       		.uleb128 0x3
ARM GAS  G:\Users\Jaxb\AppData\Local\Temp\cch2S2ie.s 			page 53


 2326 0404 57030000 		.4byte	.LASF67
 2327 0408 0A       		.byte	0xa
 2328 0409 0C       		.byte	0xc
 2329 040a 4A040000 		.4byte	0x44a
 2330 040e 02       		.byte	0x2
 2331 040f 23       		.byte	0x23
 2332 0410 28       		.uleb128 0x28
 2333 0411 03       		.uleb128 0x3
 2334 0412 A5050000 		.4byte	.LASF68
 2335 0416 0A       		.byte	0xa
 2336 0417 0D       		.byte	0xd
 2337 0418 86020000 		.4byte	0x286
 2338 041c 02       		.byte	0x2
 2339 041d 23       		.byte	0x23
 2340 041e 50       		.uleb128 0x50
 2341 041f 03       		.uleb128 0x3
 2342 0420 54010000 		.4byte	.LASF69
 2343 0424 0A       		.byte	0xa
 2344 0425 0E       		.byte	0xe
 2345 0426 86020000 		.4byte	0x286
 2346 042a 02       		.byte	0x2
 2347 042b 23       		.byte	0x23
 2348 042c 54       		.uleb128 0x54
 2349 042d 03       		.uleb128 0x3
 2350 042e 93050000 		.4byte	.LASF70
 2351 0432 0A       		.byte	0xa
 2352 0433 0F       		.byte	0xf
 2353 0434 BB000000 		.4byte	0xbb
 2354 0438 02       		.byte	0x2
 2355 0439 23       		.byte	0x23
 2356 043a 58       		.uleb128 0x58
 2357 043b 03       		.uleb128 0x3
 2358 043c EE060000 		.4byte	.LASF71
 2359 0440 0A       		.byte	0xa
 2360 0441 10       		.byte	0x10
 2361 0442 BB000000 		.4byte	0xbb
 2362 0446 02       		.byte	0x2
 2363 0447 23       		.byte	0x23
 2364 0448 5C       		.uleb128 0x5c
 2365 0449 00       		.byte	0
 2366 044a 13       		.uleb128 0x13
 2367 044b 86020000 		.4byte	0x286
 2368 044f 5A040000 		.4byte	0x45a
 2369 0453 14       		.uleb128 0x14
 2370 0454 BB000000 		.4byte	0xbb
 2371 0458 09       		.byte	0x9
 2372 0459 00       		.byte	0
 2373 045a 0C       		.uleb128 0xc
 2374 045b 1C000000 		.4byte	.LASF72
 2375 045f 0B       		.byte	0xb
 2376 0460 04       		.byte	0x4
 2377 0461 BB000000 		.4byte	0xbb
 2378 0465 0C       		.uleb128 0xc
 2379 0466 B7020000 		.4byte	.LASF73
 2380 046a 0B       		.byte	0xb
 2381 046b 06       		.byte	0x6
 2382 046c 5A040000 		.4byte	0x45a
ARM GAS  G:\Users\Jaxb\AppData\Local\Temp\cch2S2ie.s 			page 54


 2383 0470 15       		.uleb128 0x15
 2384 0471 F7000000 		.4byte	.LASF74
 2385 0475 01       		.byte	0x1
 2386 0476 13       		.byte	0x13
 2387 0477 DE030000 		.4byte	0x3de
 2388 047b 05       		.byte	0x5
 2389 047c 03       		.byte	0x3
 2390 047d 00000000 		.4byte	MCB_for_shell
 2391 0481 15       		.uleb128 0x15
 2392 0482 C8060000 		.4byte	.LASF75
 2393 0486 01       		.byte	0x1
 2394 0487 15       		.byte	0x15
 2395 0488 E9030000 		.4byte	0x3e9
 2396 048c 05       		.byte	0x5
 2397 048d 03       		.byte	0x3
 2398 048e 20000000 		.4byte	main_shell_buffer
 2399 0492 13       		.uleb128 0x13
 2400 0493 81000000 		.4byte	0x81
 2401 0497 A2040000 		.4byte	0x4a2
 2402 049b 14       		.uleb128 0x14
 2403 049c BB000000 		.4byte	0xbb
 2404 04a0 63       		.byte	0x63
 2405 04a1 00       		.byte	0
 2406 04a2 15       		.uleb128 0x15
 2407 04a3 99050000 		.4byte	.LASF76
 2408 04a7 01       		.byte	0x1
 2409 04a8 16       		.byte	0x16
 2410 04a9 92040000 		.4byte	0x492
 2411 04ad 05       		.byte	0x5
 2412 04ae 03       		.byte	0x3
 2413 04af 80000000 		.4byte	main_buffer
 2414 04b3 15       		.uleb128 0x15
 2415 04b4 C7020000 		.4byte	.LASF77
 2416 04b8 01       		.byte	0x1
 2417 04b9 17       		.byte	0x17
 2418 04ba 92040000 		.4byte	0x492
 2419 04be 05       		.byte	0x5
 2420 04bf 03       		.byte	0x3
 2421 04c0 E4000000 		.4byte	main_buffer_reserve
 2422 04c4 15       		.uleb128 0x15
 2423 04c5 D8050000 		.4byte	.LASF78
 2424 04c9 01       		.byte	0x1
 2425 04ca 19       		.byte	0x19
 2426 04cb D5040000 		.4byte	0x4d5
 2427 04cf 05       		.byte	0x5
 2428 04d0 03       		.byte	0x3
 2429 04d1 48010000 		.4byte	using_shell_buffer_ptr
 2430 04d5 04       		.uleb128 0x4
 2431 04d6 04       		.byte	0x4
 2432 04d7 E9030000 		.4byte	0x3e9
 2433 04db 13       		.uleb128 0x13
 2434 04dc 46000000 		.4byte	0x46
 2435 04e0 EB040000 		.4byte	0x4eb
 2436 04e4 14       		.uleb128 0x14
 2437 04e5 BB000000 		.4byte	0xbb
 2438 04e9 00       		.byte	0
 2439 04ea 00       		.byte	0
ARM GAS  G:\Users\Jaxb\AppData\Local\Temp\cch2S2ie.s 			page 55


 2440 04eb 15       		.uleb128 0x15
 2441 04ec E8010000 		.4byte	.LASF79
 2442 04f0 01       		.byte	0x1
 2443 04f1 C6       		.byte	0xc6
 2444 04f2 DB040000 		.4byte	0x4db
 2445 04f6 05       		.byte	0x5
 2446 04f7 03       		.byte	0x3
 2447 04f8 00000000 		.4byte	resident_command_1
 2448 04fc 13       		.uleb128 0x13
 2449 04fd 46000000 		.4byte	0x46
 2450 0501 0C050000 		.4byte	0x50c
 2451 0505 14       		.uleb128 0x14
 2452 0506 BB000000 		.4byte	0xbb
 2453 050a 01       		.byte	0x1
 2454 050b 00       		.byte	0
 2455 050c 15       		.uleb128 0x15
 2456 050d FB010000 		.4byte	.LASF80
 2457 0511 01       		.byte	0x1
 2458 0512 CD       		.byte	0xcd
 2459 0513 FC040000 		.4byte	0x4fc
 2460 0517 05       		.byte	0x5
 2461 0518 03       		.byte	0x3
 2462 0519 0C000000 		.4byte	resident_command_2
 2463 051d 13       		.uleb128 0x13
 2464 051e 46000000 		.4byte	0x46
 2465 0522 2D050000 		.4byte	0x52d
 2466 0526 14       		.uleb128 0x14
 2467 0527 BB000000 		.4byte	0xbb
 2468 052b 02       		.byte	0x2
 2469 052c 00       		.byte	0
 2470 052d 15       		.uleb128 0x15
 2471 052e 0E020000 		.4byte	.LASF81
 2472 0532 01       		.byte	0x1
 2473 0533 D8       		.byte	0xd8
 2474 0534 1D050000 		.4byte	0x51d
 2475 0538 05       		.byte	0x5
 2476 0539 03       		.byte	0x3
 2477 053a 24000000 		.4byte	resident_command_3
 2478 053e 13       		.uleb128 0x13
 2479 053f 46000000 		.4byte	0x46
 2480 0543 4E050000 		.4byte	0x54e
 2481 0547 14       		.uleb128 0x14
 2482 0548 BB000000 		.4byte	0xbb
 2483 054c 06       		.byte	0x6
 2484 054d 00       		.byte	0
 2485 054e 15       		.uleb128 0x15
 2486 054f 21020000 		.4byte	.LASF82
 2487 0553 01       		.byte	0x1
 2488 0554 EF       		.byte	0xef
 2489 0555 3E050000 		.4byte	0x53e
 2490 0559 05       		.byte	0x5
 2491 055a 03       		.byte	0x3
 2492 055b 48000000 		.4byte	resident_command_4
 2493 055f 13       		.uleb128 0x13
 2494 0560 46000000 		.4byte	0x46
 2495 0564 6F050000 		.4byte	0x56f
 2496 0568 14       		.uleb128 0x14
ARM GAS  G:\Users\Jaxb\AppData\Local\Temp\cch2S2ie.s 			page 56


 2497 0569 BB000000 		.4byte	0xbb
 2498 056d 04       		.byte	0x4
 2499 056e 00       		.byte	0
 2500 056f 16       		.uleb128 0x16
 2501 0570 34020000 		.4byte	.LASF83
 2502 0574 01       		.byte	0x1
 2503 0575 1201     		.2byte	0x112
 2504 0577 5F050000 		.4byte	0x55f
 2505 057b 05       		.byte	0x5
 2506 057c 03       		.byte	0x3
 2507 057d 9C000000 		.4byte	resident_command_5
 2508 0581 16       		.uleb128 0x16
 2509 0582 47020000 		.4byte	.LASF84
 2510 0586 01       		.byte	0x1
 2511 0587 2D01     		.2byte	0x12d
 2512 0589 FC040000 		.4byte	0x4fc
 2513 058d 05       		.byte	0x5
 2514 058e 03       		.byte	0x3
 2515 058f D8000000 		.4byte	resident_command_6
 2516 0593 16       		.uleb128 0x16
 2517 0594 FE040000 		.4byte	.LASF85
 2518 0598 01       		.byte	0x1
 2519 0599 3A01     		.2byte	0x13a
 2520 059b 5F050000 		.4byte	0x55f
 2521 059f 05       		.byte	0x5
 2522 05a0 03       		.byte	0x3
 2523 05a1 F0000000 		.4byte	resident_command_7
 2524 05a5 16       		.uleb128 0x16
 2525 05a6 6D020000 		.4byte	.LASF86
 2526 05aa 01       		.byte	0x1
 2527 05ab 5501     		.2byte	0x155
 2528 05ad DB040000 		.4byte	0x4db
 2529 05b1 05       		.byte	0x5
 2530 05b2 03       		.byte	0x3
 2531 05b3 2C010000 		.4byte	resident_command_8
 2532 05b7 17       		.uleb128 0x17
 2533 05b8 05040000 		.4byte	.LASF88
 2534 05bc 01       		.byte	0x1
 2535 05bd CB01     		.2byte	0x1cb
 2536 05bf 8C020000 		.4byte	0x28c
 2537 05c3 01       		.byte	0x1
 2538 05c4 01       		.byte	0x1
 2539 05c5 18       		.uleb128 0x18
 2540 05c6 01       		.byte	0x1
 2541 05c7 7E050000 		.4byte	.LASF96
 2542 05cb 01       		.byte	0x1
 2543 05cc CC01     		.2byte	0x1cc
 2544 05ce 01       		.byte	0x1
 2545 05cf 94060000 		.4byte	.LFB24
 2546 05d3 C4070000 		.4byte	.LFE24
 2547 05d7 00000000 		.4byte	.LLST9
 2548 05db 01       		.byte	0x1
 2549 05dc 34060000 		.4byte	0x634
 2550 05e0 19       		.uleb128 0x19
 2551 05e1 BD050000 		.4byte	.LASF91
 2552 05e5 01       		.byte	0x1
 2553 05e6 CC01     		.2byte	0x1cc
ARM GAS  G:\Users\Jaxb\AppData\Local\Temp\cch2S2ie.s 			page 57


 2554 05e8 A0010000 		.4byte	0x1a0
 2555 05ec 02       		.byte	0x2
 2556 05ed 91       		.byte	0x91
 2557 05ee 64       		.sleb128 -28
 2558 05ef 16       		.uleb128 0x16
 2559 05f0 E6030000 		.4byte	.LASF89
 2560 05f4 01       		.byte	0x1
 2561 05f5 CF01     		.2byte	0x1cf
 2562 05f7 9E000000 		.4byte	0x9e
 2563 05fb 02       		.byte	0x2
 2564 05fc 91       		.byte	0x91
 2565 05fd 70       		.sleb128 -16
 2566 05fe 16       		.uleb128 0x16
 2567 05ff C1060000 		.4byte	.LASF90
 2568 0603 01       		.byte	0x1
 2569 0604 D201     		.2byte	0x1d2
 2570 0606 9E000000 		.4byte	0x9e
 2571 060a 02       		.byte	0x2
 2572 060b 91       		.byte	0x91
 2573 060c 6C       		.sleb128 -20
 2574 060d 1A       		.uleb128 0x1a
 2575 060e 10070000 		.4byte	.LBB3
 2576 0612 8A070000 		.4byte	.LBE3
 2577 0616 1B       		.uleb128 0x1b
 2578 0617 6900     		.ascii	"i\000"
 2579 0619 01       		.byte	0x1
 2580 061a EA01     		.2byte	0x1ea
 2581 061c BB000000 		.4byte	0xbb
 2582 0620 02       		.byte	0x2
 2583 0621 91       		.byte	0x91
 2584 0622 74       		.sleb128 -12
 2585 0623 1B       		.uleb128 0x1b
 2586 0624 62756600 		.ascii	"buf\000"
 2587 0628 01       		.byte	0x1
 2588 0629 EB01     		.2byte	0x1eb
 2589 062b BB000000 		.4byte	0xbb
 2590 062f 02       		.byte	0x2
 2591 0630 91       		.byte	0x91
 2592 0631 68       		.sleb128 -24
 2593 0632 00       		.byte	0
 2594 0633 00       		.byte	0
 2595 0634 1C       		.uleb128 0x1c
 2596 0635 28010000 		.4byte	.LASF110
 2597 0639 01       		.byte	0x1
 2598 063a 9701     		.2byte	0x197
 2599 063c 01       		.byte	0x1
 2600 063d 9E000000 		.4byte	0x9e
 2601 0641 94050000 		.4byte	.LFB23
 2602 0645 94060000 		.4byte	.LFE23
 2603 0649 38000000 		.4byte	.LLST8
 2604 064d 01       		.byte	0x1
 2605 064e 8F060000 		.4byte	0x68f
 2606 0652 19       		.uleb128 0x19
 2607 0653 AC020000 		.4byte	.LASF92
 2608 0657 01       		.byte	0x1
 2609 0658 9701     		.2byte	0x197
 2610 065a 86020000 		.4byte	0x286
ARM GAS  G:\Users\Jaxb\AppData\Local\Temp\cch2S2ie.s 			page 58


 2611 065e 02       		.byte	0x2
 2612 065f 91       		.byte	0x91
 2613 0660 5C       		.sleb128 -36
 2614 0661 1B       		.uleb128 0x1b
 2615 0662 70747200 		.ascii	"ptr\000"
 2616 0666 01       		.byte	0x1
 2617 0667 9901     		.2byte	0x199
 2618 0669 86020000 		.4byte	0x286
 2619 066d 02       		.byte	0x2
 2620 066e 91       		.byte	0x91
 2621 066f 6C       		.sleb128 -20
 2622 0670 1B       		.uleb128 0x1b
 2623 0671 6E756D00 		.ascii	"num\000"
 2624 0675 01       		.byte	0x1
 2625 0676 9A01     		.2byte	0x19a
 2626 0678 BB000000 		.4byte	0xbb
 2627 067c 02       		.byte	0x2
 2628 067d 91       		.byte	0x91
 2629 067e 68       		.sleb128 -24
 2630 067f 16       		.uleb128 0x16
 2631 0680 C1060000 		.4byte	.LASF90
 2632 0684 01       		.byte	0x1
 2633 0685 9B01     		.2byte	0x19b
 2634 0687 9E000000 		.4byte	0x9e
 2635 068b 02       		.byte	0x2
 2636 068c 91       		.byte	0x91
 2637 068d 64       		.sleb128 -28
 2638 068e 00       		.byte	0
 2639 068f 1D       		.uleb128 0x1d
 2640 0690 8F060000 		.4byte	.LASF93
 2641 0694 01       		.byte	0x1
 2642 0695 6001     		.2byte	0x160
 2643 0697 01       		.byte	0x1
 2644 0698 CC030000 		.4byte	.LFB22
 2645 069c 94050000 		.4byte	.LFE22
 2646 06a0 88000000 		.4byte	.LLST7
 2647 06a4 01       		.byte	0x1
 2648 06a5 C6060000 		.4byte	0x6c6
 2649 06a9 1B       		.uleb128 0x1b
 2650 06aa 6900     		.ascii	"i\000"
 2651 06ac 01       		.byte	0x1
 2652 06ad 6201     		.2byte	0x162
 2653 06af BB000000 		.4byte	0xbb
 2654 06b3 02       		.byte	0x2
 2655 06b4 91       		.byte	0x91
 2656 06b5 74       		.sleb128 -12
 2657 06b6 16       		.uleb128 0x16
 2658 06b7 E6030000 		.4byte	.LASF89
 2659 06bb 01       		.byte	0x1
 2660 06bc 6401     		.2byte	0x164
 2661 06be 9E000000 		.4byte	0x9e
 2662 06c2 02       		.byte	0x2
 2663 06c3 91       		.byte	0x91
 2664 06c4 70       		.sleb128 -16
 2665 06c5 00       		.byte	0
 2666 06c6 1E       		.uleb128 0x1e
 2667 06c7 DE010000 		.4byte	.LASF94
ARM GAS  G:\Users\Jaxb\AppData\Local\Temp\cch2S2ie.s 			page 59


 2668 06cb 01       		.byte	0x1
 2669 06cc AB       		.byte	0xab
 2670 06cd 01       		.byte	0x1
 2671 06ce 20030000 		.4byte	.LFB21
 2672 06d2 CC030000 		.4byte	.LFE21
 2673 06d6 D8000000 		.4byte	.LLST6
 2674 06da 01       		.byte	0x1
 2675 06db 12070000 		.4byte	0x712
 2676 06df 1F       		.uleb128 0x1f
 2677 06e0 81060000 		.4byte	.LASF95
 2678 06e4 01       		.byte	0x1
 2679 06e5 AB       		.byte	0xab
 2680 06e6 9E000000 		.4byte	0x9e
 2681 06ea 02       		.byte	0x2
 2682 06eb 91       		.byte	0x91
 2683 06ec 64       		.sleb128 -28
 2684 06ed 1F       		.uleb128 0x1f
 2685 06ee A5060000 		.4byte	.LASF66
 2686 06f2 01       		.byte	0x1
 2687 06f3 AB       		.byte	0xab
 2688 06f4 AA000000 		.4byte	0xaa
 2689 06f8 02       		.byte	0x2
 2690 06f9 91       		.byte	0x91
 2691 06fa 60       		.sleb128 -32
 2692 06fb 1A       		.uleb128 0x1a
 2693 06fc 34030000 		.4byte	.LBB2
 2694 0700 AC030000 		.4byte	.LBE2
 2695 0704 20       		.uleb128 0x20
 2696 0705 6900     		.ascii	"i\000"
 2697 0707 01       		.byte	0x1
 2698 0708 B1       		.byte	0xb1
 2699 0709 BB000000 		.4byte	0xbb
 2700 070d 02       		.byte	0x2
 2701 070e 91       		.byte	0x91
 2702 070f 6C       		.sleb128 -20
 2703 0710 00       		.byte	0
 2704 0711 00       		.byte	0
 2705 0712 21       		.uleb128 0x21
 2706 0713 01       		.byte	0x1
 2707 0714 5D050000 		.4byte	.LASF97
 2708 0718 01       		.byte	0x1
 2709 0719 73       		.byte	0x73
 2710 071a 01       		.byte	0x1
 2711 071b C8010000 		.4byte	.LFB20
 2712 071f 20030000 		.4byte	.LFE20
 2713 0723 28010000 		.4byte	.LLST5
 2714 0727 01       		.byte	0x1
 2715 0728 39070000 		.4byte	0x739
 2716 072c 22       		.uleb128 0x22
 2717 072d 6300     		.ascii	"c\000"
 2718 072f 01       		.byte	0x1
 2719 0730 73       		.byte	0x73
 2720 0731 81000000 		.4byte	0x81
 2721 0735 02       		.byte	0x2
 2722 0736 91       		.byte	0x91
 2723 0737 77       		.sleb128 -9
 2724 0738 00       		.byte	0
ARM GAS  G:\Users\Jaxb\AppData\Local\Temp\cch2S2ie.s 			page 60


 2725 0739 23       		.uleb128 0x23
 2726 073a 01       		.byte	0x1
 2727 073b 30030000 		.4byte	.LASF100
 2728 073f 01       		.byte	0x1
 2729 0740 5E       		.byte	0x5e
 2730 0741 01       		.byte	0x1
 2731 0742 9E000000 		.4byte	0x9e
 2732 0746 64010000 		.4byte	.LFB19
 2733 074a C8010000 		.4byte	.LFE19
 2734 074e 78010000 		.4byte	.LLST4
 2735 0752 01       		.byte	0x1
 2736 0753 82070000 		.4byte	0x782
 2737 0757 1F       		.uleb128 0x1f
 2738 0758 1F030000 		.4byte	.LASF98
 2739 075c 01       		.byte	0x1
 2740 075d 5E       		.byte	0x5e
 2741 075e D5040000 		.4byte	0x4d5
 2742 0762 02       		.byte	0x2
 2743 0763 91       		.byte	0x91
 2744 0764 74       		.sleb128 -12
 2745 0765 1F       		.uleb128 0x1f
 2746 0766 AC020000 		.4byte	.LASF92
 2747 076a 01       		.byte	0x1
 2748 076b 5F       		.byte	0x5f
 2749 076c 86020000 		.4byte	0x286
 2750 0770 02       		.byte	0x2
 2751 0771 91       		.byte	0x91
 2752 0772 70       		.sleb128 -16
 2753 0773 1F       		.uleb128 0x1f
 2754 0774 44030000 		.4byte	.LASF99
 2755 0778 01       		.byte	0x1
 2756 0779 60       		.byte	0x60
 2757 077a 86020000 		.4byte	0x286
 2758 077e 02       		.byte	0x2
 2759 077f 91       		.byte	0x91
 2760 0780 6C       		.sleb128 -20
 2761 0781 00       		.byte	0
 2762 0782 23       		.uleb128 0x23
 2763 0783 01       		.byte	0x1
 2764 0784 EF050000 		.4byte	.LASF101
 2765 0788 01       		.byte	0x1
 2766 0789 4C       		.byte	0x4c
 2767 078a 01       		.byte	0x1
 2768 078b D5040000 		.4byte	0x4d5
 2769 078f 0A010000 		.4byte	.LFB18
 2770 0793 64010000 		.4byte	.LFE18
 2771 0797 C8010000 		.4byte	.LLST3
 2772 079b 01       		.byte	0x1
 2773 079c CB070000 		.4byte	0x7cb
 2774 07a0 1F       		.uleb128 0x1f
 2775 07a1 1F030000 		.4byte	.LASF98
 2776 07a5 01       		.byte	0x1
 2777 07a6 4C       		.byte	0x4c
 2778 07a7 D5040000 		.4byte	0x4d5
 2779 07ab 02       		.byte	0x2
 2780 07ac 91       		.byte	0x91
 2781 07ad 6C       		.sleb128 -20
ARM GAS  G:\Users\Jaxb\AppData\Local\Temp\cch2S2ie.s 			page 61


 2782 07ae 15       		.uleb128 0x15
 2783 07af 05010000 		.4byte	.LASF102
 2784 07b3 01       		.byte	0x1
 2785 07b4 56       		.byte	0x56
 2786 07b5 65040000 		.4byte	0x465
 2787 07b9 02       		.byte	0x2
 2788 07ba 91       		.byte	0x91
 2789 07bb 74       		.sleb128 -12
 2790 07bc 15       		.uleb128 0x15
 2791 07bd A5050000 		.4byte	.LASF68
 2792 07c1 01       		.byte	0x1
 2793 07c2 58       		.byte	0x58
 2794 07c3 D5040000 		.4byte	0x4d5
 2795 07c7 02       		.byte	0x2
 2796 07c8 91       		.byte	0x91
 2797 07c9 70       		.sleb128 -16
 2798 07ca 00       		.byte	0
 2799 07cb 23       		.uleb128 0x23
 2800 07cc 01       		.byte	0x1
 2801 07cd E7040000 		.4byte	.LASF103
 2802 07d1 01       		.byte	0x1
 2803 07d2 3F       		.byte	0x3f
 2804 07d3 01       		.byte	0x1
 2805 07d4 86020000 		.4byte	0x286
 2806 07d8 A8000000 		.4byte	.LFB17
 2807 07dc 0A010000 		.4byte	.LFE17
 2808 07e0 18020000 		.4byte	.LLST2
 2809 07e4 01       		.byte	0x1
 2810 07e5 20080000 		.4byte	0x820
 2811 07e9 1F       		.uleb128 0x1f
 2812 07ea 81060000 		.4byte	.LASF95
 2813 07ee 01       		.byte	0x1
 2814 07ef 3F       		.byte	0x3f
 2815 07f0 9E000000 		.4byte	0x9e
 2816 07f4 02       		.byte	0x2
 2817 07f5 91       		.byte	0x91
 2818 07f6 64       		.sleb128 -28
 2819 07f7 1F       		.uleb128 0x1f
 2820 07f8 A5060000 		.4byte	.LASF66
 2821 07fc 01       		.byte	0x1
 2822 07fd 3F       		.byte	0x3f
 2823 07fe AA000000 		.4byte	0xaa
 2824 0802 02       		.byte	0x2
 2825 0803 91       		.byte	0x91
 2826 0804 60       		.sleb128 -32
 2827 0805 1F       		.uleb128 0x1f
 2828 0806 64030000 		.4byte	.LASF104
 2829 080a 01       		.byte	0x1
 2830 080b 3F       		.byte	0x3f
 2831 080c 7B000000 		.4byte	0x7b
 2832 0810 02       		.byte	0x2
 2833 0811 91       		.byte	0x91
 2834 0812 5C       		.sleb128 -36
 2835 0813 20       		.uleb128 0x20
 2836 0814 6900     		.ascii	"i\000"
 2837 0816 01       		.byte	0x1
 2838 0817 41       		.byte	0x41
ARM GAS  G:\Users\Jaxb\AppData\Local\Temp\cch2S2ie.s 			page 62


 2839 0818 BB000000 		.4byte	0xbb
 2840 081c 02       		.byte	0x2
 2841 081d 91       		.byte	0x91
 2842 081e 6C       		.sleb128 -20
 2843 081f 00       		.byte	0
 2844 0820 21       		.uleb128 0x21
 2845 0821 01       		.byte	0x1
 2846 0822 96020000 		.4byte	.LASF105
 2847 0826 01       		.byte	0x1
 2848 0827 21       		.byte	0x21
 2849 0828 01       		.byte	0x1
 2850 0829 24000000 		.4byte	.LFB16
 2851 082d A8000000 		.4byte	.LFE16
 2852 0831 68020000 		.4byte	.LLST1
 2853 0835 01       		.byte	0x1
 2854 0836 57080000 		.4byte	0x857
 2855 083a 1F       		.uleb128 0x1f
 2856 083b 18060000 		.4byte	.LASF106
 2857 083f 01       		.byte	0x1
 2858 0840 21       		.byte	0x21
 2859 0841 7B000000 		.4byte	0x7b
 2860 0845 02       		.byte	0x2
 2861 0846 91       		.byte	0x91
 2862 0847 64       		.sleb128 -28
 2863 0848 15       		.uleb128 0x15
 2864 0849 E6030000 		.4byte	.LASF89
 2865 084d 01       		.byte	0x1
 2866 084e 2C       		.byte	0x2c
 2867 084f 9E000000 		.4byte	0x9e
 2868 0853 02       		.byte	0x2
 2869 0854 91       		.byte	0x91
 2870 0855 6C       		.sleb128 -20
 2871 0856 00       		.byte	0
 2872 0857 24       		.uleb128 0x24
 2873 0858 0C030000 		.4byte	.LASF111
 2874 085c 01       		.byte	0x1
 2875 085d 1B       		.byte	0x1b
 2876 085e 01       		.byte	0x1
 2877 085f 00000000 		.4byte	.LFB15
 2878 0863 24000000 		.4byte	.LFE15
 2879 0867 B8020000 		.4byte	.LLST0
 2880 086b 01       		.byte	0x1
 2881 086c 00       		.byte	0
 2882              		.section	.debug_abbrev,"",%progbits
 2883              	.Ldebug_abbrev0:
 2884 0000 01       		.uleb128 0x1
 2885 0001 11       		.uleb128 0x11
 2886 0002 01       		.byte	0x1
 2887 0003 25       		.uleb128 0x25
 2888 0004 0E       		.uleb128 0xe
 2889 0005 13       		.uleb128 0x13
 2890 0006 0B       		.uleb128 0xb
 2891 0007 03       		.uleb128 0x3
 2892 0008 0E       		.uleb128 0xe
 2893 0009 1B       		.uleb128 0x1b
 2894 000a 0E       		.uleb128 0xe
 2895 000b 11       		.uleb128 0x11
ARM GAS  G:\Users\Jaxb\AppData\Local\Temp\cch2S2ie.s 			page 63


 2896 000c 01       		.uleb128 0x1
 2897 000d 12       		.uleb128 0x12
 2898 000e 01       		.uleb128 0x1
 2899 000f 10       		.uleb128 0x10
 2900 0010 06       		.uleb128 0x6
 2901 0011 00       		.byte	0
 2902 0012 00       		.byte	0
 2903 0013 02       		.uleb128 0x2
 2904 0014 13       		.uleb128 0x13
 2905 0015 01       		.byte	0x1
 2906 0016 03       		.uleb128 0x3
 2907 0017 0E       		.uleb128 0xe
 2908 0018 0B       		.uleb128 0xb
 2909 0019 0B       		.uleb128 0xb
 2910 001a 3A       		.uleb128 0x3a
 2911 001b 0B       		.uleb128 0xb
 2912 001c 3B       		.uleb128 0x3b
 2913 001d 0B       		.uleb128 0xb
 2914 001e 01       		.uleb128 0x1
 2915 001f 13       		.uleb128 0x13
 2916 0020 00       		.byte	0
 2917 0021 00       		.byte	0
 2918 0022 03       		.uleb128 0x3
 2919 0023 0D       		.uleb128 0xd
 2920 0024 00       		.byte	0
 2921 0025 03       		.uleb128 0x3
 2922 0026 0E       		.uleb128 0xe
 2923 0027 3A       		.uleb128 0x3a
 2924 0028 0B       		.uleb128 0xb
 2925 0029 3B       		.uleb128 0x3b
 2926 002a 0B       		.uleb128 0xb
 2927 002b 49       		.uleb128 0x49
 2928 002c 13       		.uleb128 0x13
 2929 002d 38       		.uleb128 0x38
 2930 002e 0A       		.uleb128 0xa
 2931 002f 00       		.byte	0
 2932 0030 00       		.byte	0
 2933 0031 04       		.uleb128 0x4
 2934 0032 0F       		.uleb128 0xf
 2935 0033 00       		.byte	0
 2936 0034 0B       		.uleb128 0xb
 2937 0035 0B       		.uleb128 0xb
 2938 0036 49       		.uleb128 0x49
 2939 0037 13       		.uleb128 0x13
 2940 0038 00       		.byte	0
 2941 0039 00       		.byte	0
 2942 003a 05       		.uleb128 0x5
 2943 003b 0D       		.uleb128 0xd
 2944 003c 00       		.byte	0
 2945 003d 03       		.uleb128 0x3
 2946 003e 08       		.uleb128 0x8
 2947 003f 3A       		.uleb128 0x3a
 2948 0040 0B       		.uleb128 0xb
 2949 0041 3B       		.uleb128 0x3b
 2950 0042 0B       		.uleb128 0xb
 2951 0043 49       		.uleb128 0x49
 2952 0044 13       		.uleb128 0x13
ARM GAS  G:\Users\Jaxb\AppData\Local\Temp\cch2S2ie.s 			page 64


 2953 0045 38       		.uleb128 0x38
 2954 0046 0A       		.uleb128 0xa
 2955 0047 00       		.byte	0
 2956 0048 00       		.byte	0
 2957 0049 06       		.uleb128 0x6
 2958 004a 24       		.uleb128 0x24
 2959 004b 00       		.byte	0
 2960 004c 0B       		.uleb128 0xb
 2961 004d 0B       		.uleb128 0xb
 2962 004e 3E       		.uleb128 0x3e
 2963 004f 0B       		.uleb128 0xb
 2964 0050 03       		.uleb128 0x3
 2965 0051 0E       		.uleb128 0xe
 2966 0052 00       		.byte	0
 2967 0053 00       		.byte	0
 2968 0054 07       		.uleb128 0x7
 2969 0055 26       		.uleb128 0x26
 2970 0056 00       		.byte	0
 2971 0057 49       		.uleb128 0x49
 2972 0058 13       		.uleb128 0x13
 2973 0059 00       		.byte	0
 2974 005a 00       		.byte	0
 2975 005b 08       		.uleb128 0x8
 2976 005c 15       		.uleb128 0x15
 2977 005d 01       		.byte	0x1
 2978 005e 27       		.uleb128 0x27
 2979 005f 0C       		.uleb128 0xc
 2980 0060 01       		.uleb128 0x1
 2981 0061 13       		.uleb128 0x13
 2982 0062 00       		.byte	0
 2983 0063 00       		.byte	0
 2984 0064 09       		.uleb128 0x9
 2985 0065 05       		.uleb128 0x5
 2986 0066 00       		.byte	0
 2987 0067 49       		.uleb128 0x49
 2988 0068 13       		.uleb128 0x13
 2989 0069 00       		.byte	0
 2990 006a 00       		.byte	0
 2991 006b 0A       		.uleb128 0xa
 2992 006c 24       		.uleb128 0x24
 2993 006d 00       		.byte	0
 2994 006e 0B       		.uleb128 0xb
 2995 006f 0B       		.uleb128 0xb
 2996 0070 3E       		.uleb128 0x3e
 2997 0071 0B       		.uleb128 0xb
 2998 0072 03       		.uleb128 0x3
 2999 0073 08       		.uleb128 0x8
 3000 0074 00       		.byte	0
 3001 0075 00       		.byte	0
 3002 0076 0B       		.uleb128 0xb
 3003 0077 35       		.uleb128 0x35
 3004 0078 00       		.byte	0
 3005 0079 49       		.uleb128 0x49
 3006 007a 13       		.uleb128 0x13
 3007 007b 00       		.byte	0
 3008 007c 00       		.byte	0
 3009 007d 0C       		.uleb128 0xc
ARM GAS  G:\Users\Jaxb\AppData\Local\Temp\cch2S2ie.s 			page 65


 3010 007e 16       		.uleb128 0x16
 3011 007f 00       		.byte	0
 3012 0080 03       		.uleb128 0x3
 3013 0081 0E       		.uleb128 0xe
 3014 0082 3A       		.uleb128 0x3a
 3015 0083 0B       		.uleb128 0xb
 3016 0084 3B       		.uleb128 0x3b
 3017 0085 0B       		.uleb128 0xb
 3018 0086 49       		.uleb128 0x49
 3019 0087 13       		.uleb128 0x13
 3020 0088 00       		.byte	0
 3021 0089 00       		.byte	0
 3022 008a 0D       		.uleb128 0xd
 3023 008b 04       		.uleb128 0x4
 3024 008c 01       		.byte	0x1
 3025 008d 03       		.uleb128 0x3
 3026 008e 0E       		.uleb128 0xe
 3027 008f 3E       		.uleb128 0x3e
 3028 0090 0B       		.uleb128 0xb
 3029 0091 0B       		.uleb128 0xb
 3030 0092 0B       		.uleb128 0xb
 3031 0093 49       		.uleb128 0x49
 3032 0094 13       		.uleb128 0x13
 3033 0095 3A       		.uleb128 0x3a
 3034 0096 0B       		.uleb128 0xb
 3035 0097 3B       		.uleb128 0x3b
 3036 0098 0B       		.uleb128 0xb
 3037 0099 01       		.uleb128 0x1
 3038 009a 13       		.uleb128 0x13
 3039 009b 00       		.byte	0
 3040 009c 00       		.byte	0
 3041 009d 0E       		.uleb128 0xe
 3042 009e 28       		.uleb128 0x28
 3043 009f 00       		.byte	0
 3044 00a0 03       		.uleb128 0x3
 3045 00a1 0E       		.uleb128 0xe
 3046 00a2 1C       		.uleb128 0x1c
 3047 00a3 0B       		.uleb128 0xb
 3048 00a4 00       		.byte	0
 3049 00a5 00       		.byte	0
 3050 00a6 0F       		.uleb128 0xf
 3051 00a7 0F       		.uleb128 0xf
 3052 00a8 00       		.byte	0
 3053 00a9 0B       		.uleb128 0xb
 3054 00aa 0B       		.uleb128 0xb
 3055 00ab 00       		.byte	0
 3056 00ac 00       		.byte	0
 3057 00ad 10       		.uleb128 0x10
 3058 00ae 34       		.uleb128 0x34
 3059 00af 00       		.byte	0
 3060 00b0 03       		.uleb128 0x3
 3061 00b1 0E       		.uleb128 0xe
 3062 00b2 3A       		.uleb128 0x3a
 3063 00b3 0B       		.uleb128 0xb
 3064 00b4 3B       		.uleb128 0x3b
 3065 00b5 0B       		.uleb128 0xb
 3066 00b6 49       		.uleb128 0x49
ARM GAS  G:\Users\Jaxb\AppData\Local\Temp\cch2S2ie.s 			page 66


 3067 00b7 13       		.uleb128 0x13
 3068 00b8 3F       		.uleb128 0x3f
 3069 00b9 0C       		.uleb128 0xc
 3070 00ba 3C       		.uleb128 0x3c
 3071 00bb 0C       		.uleb128 0xc
 3072 00bc 00       		.byte	0
 3073 00bd 00       		.byte	0
 3074 00be 11       		.uleb128 0x11
 3075 00bf 16       		.uleb128 0x16
 3076 00c0 00       		.byte	0
 3077 00c1 03       		.uleb128 0x3
 3078 00c2 08       		.uleb128 0x8
 3079 00c3 3A       		.uleb128 0x3a
 3080 00c4 0B       		.uleb128 0xb
 3081 00c5 3B       		.uleb128 0x3b
 3082 00c6 0B       		.uleb128 0xb
 3083 00c7 49       		.uleb128 0x49
 3084 00c8 13       		.uleb128 0x13
 3085 00c9 00       		.byte	0
 3086 00ca 00       		.byte	0
 3087 00cb 12       		.uleb128 0x12
 3088 00cc 15       		.uleb128 0x15
 3089 00cd 01       		.byte	0x1
 3090 00ce 27       		.uleb128 0x27
 3091 00cf 0C       		.uleb128 0xc
 3092 00d0 49       		.uleb128 0x49
 3093 00d1 13       		.uleb128 0x13
 3094 00d2 01       		.uleb128 0x1
 3095 00d3 13       		.uleb128 0x13
 3096 00d4 00       		.byte	0
 3097 00d5 00       		.byte	0
 3098 00d6 13       		.uleb128 0x13
 3099 00d7 01       		.uleb128 0x1
 3100 00d8 01       		.byte	0x1
 3101 00d9 49       		.uleb128 0x49
 3102 00da 13       		.uleb128 0x13
 3103 00db 01       		.uleb128 0x1
 3104 00dc 13       		.uleb128 0x13
 3105 00dd 00       		.byte	0
 3106 00de 00       		.byte	0
 3107 00df 14       		.uleb128 0x14
 3108 00e0 21       		.uleb128 0x21
 3109 00e1 00       		.byte	0
 3110 00e2 49       		.uleb128 0x49
 3111 00e3 13       		.uleb128 0x13
 3112 00e4 2F       		.uleb128 0x2f
 3113 00e5 0B       		.uleb128 0xb
 3114 00e6 00       		.byte	0
 3115 00e7 00       		.byte	0
 3116 00e8 15       		.uleb128 0x15
 3117 00e9 34       		.uleb128 0x34
 3118 00ea 00       		.byte	0
 3119 00eb 03       		.uleb128 0x3
 3120 00ec 0E       		.uleb128 0xe
 3121 00ed 3A       		.uleb128 0x3a
 3122 00ee 0B       		.uleb128 0xb
 3123 00ef 3B       		.uleb128 0x3b
ARM GAS  G:\Users\Jaxb\AppData\Local\Temp\cch2S2ie.s 			page 67


 3124 00f0 0B       		.uleb128 0xb
 3125 00f1 49       		.uleb128 0x49
 3126 00f2 13       		.uleb128 0x13
 3127 00f3 02       		.uleb128 0x2
 3128 00f4 0A       		.uleb128 0xa
 3129 00f5 00       		.byte	0
 3130 00f6 00       		.byte	0
 3131 00f7 16       		.uleb128 0x16
 3132 00f8 34       		.uleb128 0x34
 3133 00f9 00       		.byte	0
 3134 00fa 03       		.uleb128 0x3
 3135 00fb 0E       		.uleb128 0xe
 3136 00fc 3A       		.uleb128 0x3a
 3137 00fd 0B       		.uleb128 0xb
 3138 00fe 3B       		.uleb128 0x3b
 3139 00ff 05       		.uleb128 0x5
 3140 0100 49       		.uleb128 0x49
 3141 0101 13       		.uleb128 0x13
 3142 0102 02       		.uleb128 0x2
 3143 0103 0A       		.uleb128 0xa
 3144 0104 00       		.byte	0
 3145 0105 00       		.byte	0
 3146 0106 17       		.uleb128 0x17
 3147 0107 34       		.uleb128 0x34
 3148 0108 00       		.byte	0
 3149 0109 03       		.uleb128 0x3
 3150 010a 0E       		.uleb128 0xe
 3151 010b 3A       		.uleb128 0x3a
 3152 010c 0B       		.uleb128 0xb
 3153 010d 3B       		.uleb128 0x3b
 3154 010e 05       		.uleb128 0x5
 3155 010f 49       		.uleb128 0x49
 3156 0110 13       		.uleb128 0x13
 3157 0111 3F       		.uleb128 0x3f
 3158 0112 0C       		.uleb128 0xc
 3159 0113 3C       		.uleb128 0x3c
 3160 0114 0C       		.uleb128 0xc
 3161 0115 00       		.byte	0
 3162 0116 00       		.byte	0
 3163 0117 18       		.uleb128 0x18
 3164 0118 2E       		.uleb128 0x2e
 3165 0119 01       		.byte	0x1
 3166 011a 3F       		.uleb128 0x3f
 3167 011b 0C       		.uleb128 0xc
 3168 011c 03       		.uleb128 0x3
 3169 011d 0E       		.uleb128 0xe
 3170 011e 3A       		.uleb128 0x3a
 3171 011f 0B       		.uleb128 0xb
 3172 0120 3B       		.uleb128 0x3b
 3173 0121 05       		.uleb128 0x5
 3174 0122 27       		.uleb128 0x27
 3175 0123 0C       		.uleb128 0xc
 3176 0124 11       		.uleb128 0x11
 3177 0125 01       		.uleb128 0x1
 3178 0126 12       		.uleb128 0x12
 3179 0127 01       		.uleb128 0x1
 3180 0128 40       		.uleb128 0x40
ARM GAS  G:\Users\Jaxb\AppData\Local\Temp\cch2S2ie.s 			page 68


 3181 0129 06       		.uleb128 0x6
 3182 012a 9642     		.uleb128 0x2116
 3183 012c 0C       		.uleb128 0xc
 3184 012d 01       		.uleb128 0x1
 3185 012e 13       		.uleb128 0x13
 3186 012f 00       		.byte	0
 3187 0130 00       		.byte	0
 3188 0131 19       		.uleb128 0x19
 3189 0132 05       		.uleb128 0x5
 3190 0133 00       		.byte	0
 3191 0134 03       		.uleb128 0x3
 3192 0135 0E       		.uleb128 0xe
 3193 0136 3A       		.uleb128 0x3a
 3194 0137 0B       		.uleb128 0xb
 3195 0138 3B       		.uleb128 0x3b
 3196 0139 05       		.uleb128 0x5
 3197 013a 49       		.uleb128 0x49
 3198 013b 13       		.uleb128 0x13
 3199 013c 02       		.uleb128 0x2
 3200 013d 0A       		.uleb128 0xa
 3201 013e 00       		.byte	0
 3202 013f 00       		.byte	0
 3203 0140 1A       		.uleb128 0x1a
 3204 0141 0B       		.uleb128 0xb
 3205 0142 01       		.byte	0x1
 3206 0143 11       		.uleb128 0x11
 3207 0144 01       		.uleb128 0x1
 3208 0145 12       		.uleb128 0x12
 3209 0146 01       		.uleb128 0x1
 3210 0147 00       		.byte	0
 3211 0148 00       		.byte	0
 3212 0149 1B       		.uleb128 0x1b
 3213 014a 34       		.uleb128 0x34
 3214 014b 00       		.byte	0
 3215 014c 03       		.uleb128 0x3
 3216 014d 08       		.uleb128 0x8
 3217 014e 3A       		.uleb128 0x3a
 3218 014f 0B       		.uleb128 0xb
 3219 0150 3B       		.uleb128 0x3b
 3220 0151 05       		.uleb128 0x5
 3221 0152 49       		.uleb128 0x49
 3222 0153 13       		.uleb128 0x13
 3223 0154 02       		.uleb128 0x2
 3224 0155 0A       		.uleb128 0xa
 3225 0156 00       		.byte	0
 3226 0157 00       		.byte	0
 3227 0158 1C       		.uleb128 0x1c
 3228 0159 2E       		.uleb128 0x2e
 3229 015a 01       		.byte	0x1
 3230 015b 03       		.uleb128 0x3
 3231 015c 0E       		.uleb128 0xe
 3232 015d 3A       		.uleb128 0x3a
 3233 015e 0B       		.uleb128 0xb
 3234 015f 3B       		.uleb128 0x3b
 3235 0160 05       		.uleb128 0x5
 3236 0161 27       		.uleb128 0x27
 3237 0162 0C       		.uleb128 0xc
ARM GAS  G:\Users\Jaxb\AppData\Local\Temp\cch2S2ie.s 			page 69


 3238 0163 49       		.uleb128 0x49
 3239 0164 13       		.uleb128 0x13
 3240 0165 11       		.uleb128 0x11
 3241 0166 01       		.uleb128 0x1
 3242 0167 12       		.uleb128 0x12
 3243 0168 01       		.uleb128 0x1
 3244 0169 40       		.uleb128 0x40
 3245 016a 06       		.uleb128 0x6
 3246 016b 9642     		.uleb128 0x2116
 3247 016d 0C       		.uleb128 0xc
 3248 016e 01       		.uleb128 0x1
 3249 016f 13       		.uleb128 0x13
 3250 0170 00       		.byte	0
 3251 0171 00       		.byte	0
 3252 0172 1D       		.uleb128 0x1d
 3253 0173 2E       		.uleb128 0x2e
 3254 0174 01       		.byte	0x1
 3255 0175 03       		.uleb128 0x3
 3256 0176 0E       		.uleb128 0xe
 3257 0177 3A       		.uleb128 0x3a
 3258 0178 0B       		.uleb128 0xb
 3259 0179 3B       		.uleb128 0x3b
 3260 017a 05       		.uleb128 0x5
 3261 017b 27       		.uleb128 0x27
 3262 017c 0C       		.uleb128 0xc
 3263 017d 11       		.uleb128 0x11
 3264 017e 01       		.uleb128 0x1
 3265 017f 12       		.uleb128 0x12
 3266 0180 01       		.uleb128 0x1
 3267 0181 40       		.uleb128 0x40
 3268 0182 06       		.uleb128 0x6
 3269 0183 9642     		.uleb128 0x2116
 3270 0185 0C       		.uleb128 0xc
 3271 0186 01       		.uleb128 0x1
 3272 0187 13       		.uleb128 0x13
 3273 0188 00       		.byte	0
 3274 0189 00       		.byte	0
 3275 018a 1E       		.uleb128 0x1e
 3276 018b 2E       		.uleb128 0x2e
 3277 018c 01       		.byte	0x1
 3278 018d 03       		.uleb128 0x3
 3279 018e 0E       		.uleb128 0xe
 3280 018f 3A       		.uleb128 0x3a
 3281 0190 0B       		.uleb128 0xb
 3282 0191 3B       		.uleb128 0x3b
 3283 0192 0B       		.uleb128 0xb
 3284 0193 27       		.uleb128 0x27
 3285 0194 0C       		.uleb128 0xc
 3286 0195 11       		.uleb128 0x11
 3287 0196 01       		.uleb128 0x1
 3288 0197 12       		.uleb128 0x12
 3289 0198 01       		.uleb128 0x1
 3290 0199 40       		.uleb128 0x40
 3291 019a 06       		.uleb128 0x6
 3292 019b 9642     		.uleb128 0x2116
 3293 019d 0C       		.uleb128 0xc
 3294 019e 01       		.uleb128 0x1
ARM GAS  G:\Users\Jaxb\AppData\Local\Temp\cch2S2ie.s 			page 70


 3295 019f 13       		.uleb128 0x13
 3296 01a0 00       		.byte	0
 3297 01a1 00       		.byte	0
 3298 01a2 1F       		.uleb128 0x1f
 3299 01a3 05       		.uleb128 0x5
 3300 01a4 00       		.byte	0
 3301 01a5 03       		.uleb128 0x3
 3302 01a6 0E       		.uleb128 0xe
 3303 01a7 3A       		.uleb128 0x3a
 3304 01a8 0B       		.uleb128 0xb
 3305 01a9 3B       		.uleb128 0x3b
 3306 01aa 0B       		.uleb128 0xb
 3307 01ab 49       		.uleb128 0x49
 3308 01ac 13       		.uleb128 0x13
 3309 01ad 02       		.uleb128 0x2
 3310 01ae 0A       		.uleb128 0xa
 3311 01af 00       		.byte	0
 3312 01b0 00       		.byte	0
 3313 01b1 20       		.uleb128 0x20
 3314 01b2 34       		.uleb128 0x34
 3315 01b3 00       		.byte	0
 3316 01b4 03       		.uleb128 0x3
 3317 01b5 08       		.uleb128 0x8
 3318 01b6 3A       		.uleb128 0x3a
 3319 01b7 0B       		.uleb128 0xb
 3320 01b8 3B       		.uleb128 0x3b
 3321 01b9 0B       		.uleb128 0xb
 3322 01ba 49       		.uleb128 0x49
 3323 01bb 13       		.uleb128 0x13
 3324 01bc 02       		.uleb128 0x2
 3325 01bd 0A       		.uleb128 0xa
 3326 01be 00       		.byte	0
 3327 01bf 00       		.byte	0
 3328 01c0 21       		.uleb128 0x21
 3329 01c1 2E       		.uleb128 0x2e
 3330 01c2 01       		.byte	0x1
 3331 01c3 3F       		.uleb128 0x3f
 3332 01c4 0C       		.uleb128 0xc
 3333 01c5 03       		.uleb128 0x3
 3334 01c6 0E       		.uleb128 0xe
 3335 01c7 3A       		.uleb128 0x3a
 3336 01c8 0B       		.uleb128 0xb
 3337 01c9 3B       		.uleb128 0x3b
 3338 01ca 0B       		.uleb128 0xb
 3339 01cb 27       		.uleb128 0x27
 3340 01cc 0C       		.uleb128 0xc
 3341 01cd 11       		.uleb128 0x11
 3342 01ce 01       		.uleb128 0x1
 3343 01cf 12       		.uleb128 0x12
 3344 01d0 01       		.uleb128 0x1
 3345 01d1 40       		.uleb128 0x40
 3346 01d2 06       		.uleb128 0x6
 3347 01d3 9642     		.uleb128 0x2116
 3348 01d5 0C       		.uleb128 0xc
 3349 01d6 01       		.uleb128 0x1
 3350 01d7 13       		.uleb128 0x13
 3351 01d8 00       		.byte	0
ARM GAS  G:\Users\Jaxb\AppData\Local\Temp\cch2S2ie.s 			page 71


 3352 01d9 00       		.byte	0
 3353 01da 22       		.uleb128 0x22
 3354 01db 05       		.uleb128 0x5
 3355 01dc 00       		.byte	0
 3356 01dd 03       		.uleb128 0x3
 3357 01de 08       		.uleb128 0x8
 3358 01df 3A       		.uleb128 0x3a
 3359 01e0 0B       		.uleb128 0xb
 3360 01e1 3B       		.uleb128 0x3b
 3361 01e2 0B       		.uleb128 0xb
 3362 01e3 49       		.uleb128 0x49
 3363 01e4 13       		.uleb128 0x13
 3364 01e5 02       		.uleb128 0x2
 3365 01e6 0A       		.uleb128 0xa
 3366 01e7 00       		.byte	0
 3367 01e8 00       		.byte	0
 3368 01e9 23       		.uleb128 0x23
 3369 01ea 2E       		.uleb128 0x2e
 3370 01eb 01       		.byte	0x1
 3371 01ec 3F       		.uleb128 0x3f
 3372 01ed 0C       		.uleb128 0xc
 3373 01ee 03       		.uleb128 0x3
 3374 01ef 0E       		.uleb128 0xe
 3375 01f0 3A       		.uleb128 0x3a
 3376 01f1 0B       		.uleb128 0xb
 3377 01f2 3B       		.uleb128 0x3b
 3378 01f3 0B       		.uleb128 0xb
 3379 01f4 27       		.uleb128 0x27
 3380 01f5 0C       		.uleb128 0xc
 3381 01f6 49       		.uleb128 0x49
 3382 01f7 13       		.uleb128 0x13
 3383 01f8 11       		.uleb128 0x11
 3384 01f9 01       		.uleb128 0x1
 3385 01fa 12       		.uleb128 0x12
 3386 01fb 01       		.uleb128 0x1
 3387 01fc 40       		.uleb128 0x40
 3388 01fd 06       		.uleb128 0x6
 3389 01fe 9642     		.uleb128 0x2116
 3390 0200 0C       		.uleb128 0xc
 3391 0201 01       		.uleb128 0x1
 3392 0202 13       		.uleb128 0x13
 3393 0203 00       		.byte	0
 3394 0204 00       		.byte	0
 3395 0205 24       		.uleb128 0x24
 3396 0206 2E       		.uleb128 0x2e
 3397 0207 00       		.byte	0
 3398 0208 03       		.uleb128 0x3
 3399 0209 0E       		.uleb128 0xe
 3400 020a 3A       		.uleb128 0x3a
 3401 020b 0B       		.uleb128 0xb
 3402 020c 3B       		.uleb128 0x3b
 3403 020d 0B       		.uleb128 0xb
 3404 020e 27       		.uleb128 0x27
 3405 020f 0C       		.uleb128 0xc
 3406 0210 11       		.uleb128 0x11
 3407 0211 01       		.uleb128 0x1
 3408 0212 12       		.uleb128 0x12
ARM GAS  G:\Users\Jaxb\AppData\Local\Temp\cch2S2ie.s 			page 72


 3409 0213 01       		.uleb128 0x1
 3410 0214 40       		.uleb128 0x40
 3411 0215 06       		.uleb128 0x6
 3412 0216 9742     		.uleb128 0x2117
 3413 0218 0C       		.uleb128 0xc
 3414 0219 00       		.byte	0
 3415 021a 00       		.byte	0
 3416 021b 00       		.byte	0
 3417              		.section	.debug_loc,"",%progbits
 3418              	.Ldebug_loc0:
 3419              	.LLST9:
 3420 0000 94060000 		.4byte	.LFB24-.Ltext0
 3421 0004 96060000 		.4byte	.LCFI44-.Ltext0
 3422 0008 0200     		.2byte	0x2
 3423 000a 7D       		.byte	0x7d
 3424 000b 00       		.sleb128 0
 3425 000c 96060000 		.4byte	.LCFI44-.Ltext0
 3426 0010 98060000 		.4byte	.LCFI45-.Ltext0
 3427 0014 0200     		.2byte	0x2
 3428 0016 7D       		.byte	0x7d
 3429 0017 08       		.sleb128 8
 3430 0018 98060000 		.4byte	.LCFI45-.Ltext0
 3431 001c 9A060000 		.4byte	.LCFI46-.Ltext0
 3432 0020 0200     		.2byte	0x2
 3433 0022 7D       		.byte	0x7d
 3434 0023 20       		.sleb128 32
 3435 0024 9A060000 		.4byte	.LCFI46-.Ltext0
 3436 0028 C4070000 		.4byte	.LFE24-.Ltext0
 3437 002c 0200     		.2byte	0x2
 3438 002e 77       		.byte	0x77
 3439 002f 20       		.sleb128 32
 3440 0030 00000000 		.4byte	0
 3441 0034 00000000 		.4byte	0
 3442              	.LLST8:
 3443 0038 94050000 		.4byte	.LFB23-.Ltext0
 3444 003c 96050000 		.4byte	.LCFI39-.Ltext0
 3445 0040 0200     		.2byte	0x2
 3446 0042 7D       		.byte	0x7d
 3447 0043 00       		.sleb128 0
 3448 0044 96050000 		.4byte	.LCFI39-.Ltext0
 3449 0048 98050000 		.4byte	.LCFI40-.Ltext0
 3450 004c 0200     		.2byte	0x2
 3451 004e 7D       		.byte	0x7d
 3452 004f 10       		.sleb128 16
 3453 0050 98050000 		.4byte	.LCFI40-.Ltext0
 3454 0054 9A050000 		.4byte	.LCFI41-.Ltext0
 3455 0058 0200     		.2byte	0x2
 3456 005a 7D       		.byte	0x7d
 3457 005b 28       		.sleb128 40
 3458 005c 9A050000 		.4byte	.LCFI41-.Ltext0
 3459 0060 86060000 		.4byte	.LCFI42-.Ltext0
 3460 0064 0200     		.2byte	0x2
 3461 0066 77       		.byte	0x77
 3462 0067 28       		.sleb128 40
 3463 0068 86060000 		.4byte	.LCFI42-.Ltext0
 3464 006c 88060000 		.4byte	.LCFI43-.Ltext0
 3465 0070 0200     		.2byte	0x2
ARM GAS  G:\Users\Jaxb\AppData\Local\Temp\cch2S2ie.s 			page 73


 3466 0072 77       		.byte	0x77
 3467 0073 10       		.sleb128 16
 3468 0074 88060000 		.4byte	.LCFI43-.Ltext0
 3469 0078 94060000 		.4byte	.LFE23-.Ltext0
 3470 007c 0200     		.2byte	0x2
 3471 007e 7D       		.byte	0x7d
 3472 007f 10       		.sleb128 16
 3473 0080 00000000 		.4byte	0
 3474 0084 00000000 		.4byte	0
 3475              	.LLST7:
 3476 0088 CC030000 		.4byte	.LFB22-.Ltext0
 3477 008c CE030000 		.4byte	.LCFI34-.Ltext0
 3478 0090 0200     		.2byte	0x2
 3479 0092 7D       		.byte	0x7d
 3480 0093 00       		.sleb128 0
 3481 0094 CE030000 		.4byte	.LCFI34-.Ltext0
 3482 0098 D0030000 		.4byte	.LCFI35-.Ltext0
 3483 009c 0200     		.2byte	0x2
 3484 009e 7D       		.byte	0x7d
 3485 009f 08       		.sleb128 8
 3486 00a0 D0030000 		.4byte	.LCFI35-.Ltext0
 3487 00a4 D2030000 		.4byte	.LCFI36-.Ltext0
 3488 00a8 0200     		.2byte	0x2
 3489 00aa 7D       		.byte	0x7d
 3490 00ab 10       		.sleb128 16
 3491 00ac D2030000 		.4byte	.LCFI36-.Ltext0
 3492 00b0 58050000 		.4byte	.LCFI37-.Ltext0
 3493 00b4 0200     		.2byte	0x2
 3494 00b6 77       		.byte	0x77
 3495 00b7 10       		.sleb128 16
 3496 00b8 58050000 		.4byte	.LCFI37-.Ltext0
 3497 00bc 5A050000 		.4byte	.LCFI38-.Ltext0
 3498 00c0 0200     		.2byte	0x2
 3499 00c2 77       		.byte	0x77
 3500 00c3 08       		.sleb128 8
 3501 00c4 5A050000 		.4byte	.LCFI38-.Ltext0
 3502 00c8 94050000 		.4byte	.LFE22-.Ltext0
 3503 00cc 0200     		.2byte	0x2
 3504 00ce 7D       		.byte	0x7d
 3505 00cf 08       		.sleb128 8
 3506 00d0 00000000 		.4byte	0
 3507 00d4 00000000 		.4byte	0
 3508              	.LLST6:
 3509 00d8 20030000 		.4byte	.LFB21-.Ltext0
 3510 00dc 22030000 		.4byte	.LCFI29-.Ltext0
 3511 00e0 0200     		.2byte	0x2
 3512 00e2 7D       		.byte	0x7d
 3513 00e3 00       		.sleb128 0
 3514 00e4 22030000 		.4byte	.LCFI29-.Ltext0
 3515 00e8 24030000 		.4byte	.LCFI30-.Ltext0
 3516 00ec 0200     		.2byte	0x2
 3517 00ee 7D       		.byte	0x7d
 3518 00ef 10       		.sleb128 16
 3519 00f0 24030000 		.4byte	.LCFI30-.Ltext0
 3520 00f4 26030000 		.4byte	.LCFI31-.Ltext0
 3521 00f8 0200     		.2byte	0x2
 3522 00fa 7D       		.byte	0x7d
ARM GAS  G:\Users\Jaxb\AppData\Local\Temp\cch2S2ie.s 			page 74


 3523 00fb 20       		.sleb128 32
 3524 00fc 26030000 		.4byte	.LCFI31-.Ltext0
 3525 0100 B8030000 		.4byte	.LCFI32-.Ltext0
 3526 0104 0200     		.2byte	0x2
 3527 0106 77       		.byte	0x77
 3528 0107 20       		.sleb128 32
 3529 0108 B8030000 		.4byte	.LCFI32-.Ltext0
 3530 010c BA030000 		.4byte	.LCFI33-.Ltext0
 3531 0110 0200     		.2byte	0x2
 3532 0112 77       		.byte	0x77
 3533 0113 10       		.sleb128 16
 3534 0114 BA030000 		.4byte	.LCFI33-.Ltext0
 3535 0118 CC030000 		.4byte	.LFE21-.Ltext0
 3536 011c 0200     		.2byte	0x2
 3537 011e 7D       		.byte	0x7d
 3538 011f 10       		.sleb128 16
 3539 0120 00000000 		.4byte	0
 3540 0124 00000000 		.4byte	0
 3541              	.LLST5:
 3542 0128 C8010000 		.4byte	.LFB20-.Ltext0
 3543 012c CA010000 		.4byte	.LCFI24-.Ltext0
 3544 0130 0200     		.2byte	0x2
 3545 0132 7D       		.byte	0x7d
 3546 0133 00       		.sleb128 0
 3547 0134 CA010000 		.4byte	.LCFI24-.Ltext0
 3548 0138 CC010000 		.4byte	.LCFI25-.Ltext0
 3549 013c 0200     		.2byte	0x2
 3550 013e 7D       		.byte	0x7d
 3551 013f 08       		.sleb128 8
 3552 0140 CC010000 		.4byte	.LCFI25-.Ltext0
 3553 0144 CE010000 		.4byte	.LCFI26-.Ltext0
 3554 0148 0200     		.2byte	0x2
 3555 014a 7D       		.byte	0x7d
 3556 014b 10       		.sleb128 16
 3557 014c CE010000 		.4byte	.LCFI26-.Ltext0
 3558 0150 FA020000 		.4byte	.LCFI27-.Ltext0
 3559 0154 0200     		.2byte	0x2
 3560 0156 77       		.byte	0x77
 3561 0157 10       		.sleb128 16
 3562 0158 FA020000 		.4byte	.LCFI27-.Ltext0
 3563 015c FC020000 		.4byte	.LCFI28-.Ltext0
 3564 0160 0200     		.2byte	0x2
 3565 0162 77       		.byte	0x77
 3566 0163 08       		.sleb128 8
 3567 0164 FC020000 		.4byte	.LCFI28-.Ltext0
 3568 0168 20030000 		.4byte	.LFE20-.Ltext0
 3569 016c 0200     		.2byte	0x2
 3570 016e 7D       		.byte	0x7d
 3571 016f 08       		.sleb128 8
 3572 0170 00000000 		.4byte	0
 3573 0174 00000000 		.4byte	0
 3574              	.LLST4:
 3575 0178 64010000 		.4byte	.LFB19-.Ltext0
 3576 017c 66010000 		.4byte	.LCFI19-.Ltext0
 3577 0180 0200     		.2byte	0x2
 3578 0182 7D       		.byte	0x7d
 3579 0183 00       		.sleb128 0
ARM GAS  G:\Users\Jaxb\AppData\Local\Temp\cch2S2ie.s 			page 75


 3580 0184 66010000 		.4byte	.LCFI19-.Ltext0
 3581 0188 68010000 		.4byte	.LCFI20-.Ltext0
 3582 018c 0200     		.2byte	0x2
 3583 018e 7D       		.byte	0x7d
 3584 018f 08       		.sleb128 8
 3585 0190 68010000 		.4byte	.LCFI20-.Ltext0
 3586 0194 6A010000 		.4byte	.LCFI21-.Ltext0
 3587 0198 0200     		.2byte	0x2
 3588 019a 7D       		.byte	0x7d
 3589 019b 18       		.sleb128 24
 3590 019c 6A010000 		.4byte	.LCFI21-.Ltext0
 3591 01a0 BA010000 		.4byte	.LCFI22-.Ltext0
 3592 01a4 0200     		.2byte	0x2
 3593 01a6 77       		.byte	0x77
 3594 01a7 18       		.sleb128 24
 3595 01a8 BA010000 		.4byte	.LCFI22-.Ltext0
 3596 01ac BC010000 		.4byte	.LCFI23-.Ltext0
 3597 01b0 0200     		.2byte	0x2
 3598 01b2 77       		.byte	0x77
 3599 01b3 08       		.sleb128 8
 3600 01b4 BC010000 		.4byte	.LCFI23-.Ltext0
 3601 01b8 C8010000 		.4byte	.LFE19-.Ltext0
 3602 01bc 0200     		.2byte	0x2
 3603 01be 7D       		.byte	0x7d
 3604 01bf 08       		.sleb128 8
 3605 01c0 00000000 		.4byte	0
 3606 01c4 00000000 		.4byte	0
 3607              	.LLST3:
 3608 01c8 0A010000 		.4byte	.LFB18-.Ltext0
 3609 01cc 0C010000 		.4byte	.LCFI14-.Ltext0
 3610 01d0 0200     		.2byte	0x2
 3611 01d2 7D       		.byte	0x7d
 3612 01d3 00       		.sleb128 0
 3613 01d4 0C010000 		.4byte	.LCFI14-.Ltext0
 3614 01d8 0E010000 		.4byte	.LCFI15-.Ltext0
 3615 01dc 0200     		.2byte	0x2
 3616 01de 7D       		.byte	0x7d
 3617 01df 08       		.sleb128 8
 3618 01e0 0E010000 		.4byte	.LCFI15-.Ltext0
 3619 01e4 10010000 		.4byte	.LCFI16-.Ltext0
 3620 01e8 0200     		.2byte	0x2
 3621 01ea 7D       		.byte	0x7d
 3622 01eb 18       		.sleb128 24
 3623 01ec 10010000 		.4byte	.LCFI16-.Ltext0
 3624 01f0 52010000 		.4byte	.LCFI17-.Ltext0
 3625 01f4 0200     		.2byte	0x2
 3626 01f6 77       		.byte	0x77
 3627 01f7 18       		.sleb128 24
 3628 01f8 52010000 		.4byte	.LCFI17-.Ltext0
 3629 01fc 54010000 		.4byte	.LCFI18-.Ltext0
 3630 0200 0200     		.2byte	0x2
 3631 0202 77       		.byte	0x77
 3632 0203 08       		.sleb128 8
 3633 0204 54010000 		.4byte	.LCFI18-.Ltext0
 3634 0208 64010000 		.4byte	.LFE18-.Ltext0
 3635 020c 0200     		.2byte	0x2
 3636 020e 7D       		.byte	0x7d
ARM GAS  G:\Users\Jaxb\AppData\Local\Temp\cch2S2ie.s 			page 76


 3637 020f 08       		.sleb128 8
 3638 0210 00000000 		.4byte	0
 3639 0214 00000000 		.4byte	0
 3640              	.LLST2:
 3641 0218 A8000000 		.4byte	.LFB17-.Ltext0
 3642 021c AA000000 		.4byte	.LCFI9-.Ltext0
 3643 0220 0200     		.2byte	0x2
 3644 0222 7D       		.byte	0x7d
 3645 0223 00       		.sleb128 0
 3646 0224 AA000000 		.4byte	.LCFI9-.Ltext0
 3647 0228 AC000000 		.4byte	.LCFI10-.Ltext0
 3648 022c 0200     		.2byte	0x2
 3649 022e 7D       		.byte	0x7d
 3650 022f 0C       		.sleb128 12
 3651 0230 AC000000 		.4byte	.LCFI10-.Ltext0
 3652 0234 AE000000 		.4byte	.LCFI11-.Ltext0
 3653 0238 0200     		.2byte	0x2
 3654 023a 7D       		.byte	0x7d
 3655 023b 28       		.sleb128 40
 3656 023c AE000000 		.4byte	.LCFI11-.Ltext0
 3657 0240 06010000 		.4byte	.LCFI12-.Ltext0
 3658 0244 0200     		.2byte	0x2
 3659 0246 77       		.byte	0x77
 3660 0247 28       		.sleb128 40
 3661 0248 06010000 		.4byte	.LCFI12-.Ltext0
 3662 024c 08010000 		.4byte	.LCFI13-.Ltext0
 3663 0250 0200     		.2byte	0x2
 3664 0252 77       		.byte	0x77
 3665 0253 0C       		.sleb128 12
 3666 0254 08010000 		.4byte	.LCFI13-.Ltext0
 3667 0258 0A010000 		.4byte	.LFE17-.Ltext0
 3668 025c 0200     		.2byte	0x2
 3669 025e 7D       		.byte	0x7d
 3670 025f 0C       		.sleb128 12
 3671 0260 00000000 		.4byte	0
 3672 0264 00000000 		.4byte	0
 3673              	.LLST1:
 3674 0268 24000000 		.4byte	.LFB16-.Ltext0
 3675 026c 26000000 		.4byte	.LCFI4-.Ltext0
 3676 0270 0200     		.2byte	0x2
 3677 0272 7D       		.byte	0x7d
 3678 0273 00       		.sleb128 0
 3679 0274 26000000 		.4byte	.LCFI4-.Ltext0
 3680 0278 28000000 		.4byte	.LCFI5-.Ltext0
 3681 027c 0200     		.2byte	0x2
 3682 027e 7D       		.byte	0x7d
 3683 027f 0C       		.sleb128 12
 3684 0280 28000000 		.4byte	.LCFI5-.Ltext0
 3685 0284 2A000000 		.4byte	.LCFI6-.Ltext0
 3686 0288 0200     		.2byte	0x2
 3687 028a 7D       		.byte	0x7d
 3688 028b 20       		.sleb128 32
 3689 028c 2A000000 		.4byte	.LCFI6-.Ltext0
 3690 0290 90000000 		.4byte	.LCFI7-.Ltext0
 3691 0294 0200     		.2byte	0x2
 3692 0296 77       		.byte	0x77
 3693 0297 20       		.sleb128 32
ARM GAS  G:\Users\Jaxb\AppData\Local\Temp\cch2S2ie.s 			page 77


 3694 0298 90000000 		.4byte	.LCFI7-.Ltext0
 3695 029c 92000000 		.4byte	.LCFI8-.Ltext0
 3696 02a0 0200     		.2byte	0x2
 3697 02a2 77       		.byte	0x77
 3698 02a3 0C       		.sleb128 12
 3699 02a4 92000000 		.4byte	.LCFI8-.Ltext0
 3700 02a8 A8000000 		.4byte	.LFE16-.Ltext0
 3701 02ac 0200     		.2byte	0x2
 3702 02ae 7D       		.byte	0x7d
 3703 02af 0C       		.sleb128 12
 3704 02b0 00000000 		.4byte	0
 3705 02b4 00000000 		.4byte	0
 3706              	.LLST0:
 3707 02b8 00000000 		.4byte	.LFB15-.Ltext0
 3708 02bc 02000000 		.4byte	.LCFI0-.Ltext0
 3709 02c0 0200     		.2byte	0x2
 3710 02c2 7D       		.byte	0x7d
 3711 02c3 00       		.sleb128 0
 3712 02c4 02000000 		.4byte	.LCFI0-.Ltext0
 3713 02c8 04000000 		.4byte	.LCFI1-.Ltext0
 3714 02cc 0200     		.2byte	0x2
 3715 02ce 7D       		.byte	0x7d
 3716 02cf 04       		.sleb128 4
 3717 02d0 04000000 		.4byte	.LCFI1-.Ltext0
 3718 02d4 1A000000 		.4byte	.LCFI2-.Ltext0
 3719 02d8 0200     		.2byte	0x2
 3720 02da 77       		.byte	0x77
 3721 02db 04       		.sleb128 4
 3722 02dc 1A000000 		.4byte	.LCFI2-.Ltext0
 3723 02e0 1C000000 		.4byte	.LCFI3-.Ltext0
 3724 02e4 0200     		.2byte	0x2
 3725 02e6 7D       		.byte	0x7d
 3726 02e7 04       		.sleb128 4
 3727 02e8 1C000000 		.4byte	.LCFI3-.Ltext0
 3728 02ec 24000000 		.4byte	.LFE15-.Ltext0
 3729 02f0 0200     		.2byte	0x2
 3730 02f2 7D       		.byte	0x7d
 3731 02f3 00       		.sleb128 0
 3732 02f4 00000000 		.4byte	0
 3733 02f8 00000000 		.4byte	0
 3734              		.section	.debug_aranges,"",%progbits
 3735 0000 1C000000 		.4byte	0x1c
 3736 0004 0200     		.2byte	0x2
 3737 0006 00000000 		.4byte	.Ldebug_info0
 3738 000a 04       		.byte	0x4
 3739 000b 00       		.byte	0
 3740 000c 0000     		.2byte	0
 3741 000e 0000     		.2byte	0
 3742 0010 00000000 		.4byte	.Ltext0
 3743 0014 C4070000 		.4byte	.Letext0-.Ltext0
 3744 0018 00000000 		.4byte	0
 3745 001c 00000000 		.4byte	0
 3746              		.section	.debug_line,"",%progbits
 3747              	.Ldebug_line0:
 3748 0000 7D030000 		.section	.debug_str,"MS",%progbits,1
 3748      02005801 
 3748      00000201 
ARM GAS  G:\Users\Jaxb\AppData\Local\Temp\cch2S2ie.s 			page 78


 3748      FB0E0D00 
 3748      01010101 
 3749              	.LASF39:
 3750 0000 73757370 		.ascii	"suspend_list\000"
 3750      656E645F 
 3750      6C697374 
 3750      00
 3751              	.LASF29:
 3752 000d 5441534B 		.ascii	"TASK_PRIO_TYPE\000"
 3752      5F505249 
 3752      4F5F5459 
 3752      504500
 3753              	.LASF72:
 3754 001c 4350555F 		.ascii	"CPU_INT32U\000"
 3754      494E5433 
 3754      325500
 3755              	.LASF16:
 3756 0027 70726576 		.ascii	"prev\000"
 3756      00
 3757              	.LASF63:
 3758 002c 7265736F 		.ascii	"resource_num\000"
 3758      75726365 
 3758      5F6E756D 
 3758      00
 3759              	.LASF43:
 3760 0039 61747472 		.ascii	"attribution\000"
 3760      69627574 
 3760      696F6E00 
 3761              	.LASF57:
 3762 0045 4D43425F 		.ascii	"MCB_WAIT_FLAG\000"
 3762      57414954 
 3762      5F464C41 
 3762      4700
 3763              	.LASF14:
 3764 0053 6C6F6E67 		.ascii	"long long unsigned int\000"
 3764      206C6F6E 
 3764      6720756E 
 3764      7369676E 
 3764      65642069 
 3765              	.LASF49:
 3766 006a 64617461 		.ascii	"data_list\000"
 3766      5F6C6973 
 3766      7400
 3767              	.LASF0:
 3768 0074 73696E67 		.ascii	"singly_list_head\000"
 3768      6C795F6C 
 3768      6973745F 
 3768      68656164 
 3768      00
 3769              	.LASF27:
 3770 0085 5441534B 		.ascii	"TASK_STATE\000"
 3770      5F535441 
 3770      544500
 3771              	.LASF2:
 3772 0090 6E657874 		.ascii	"next\000"
 3772      00
 3773              	.LASF46:
ARM GAS  G:\Users\Jaxb\AppData\Local\Temp\cch2S2ie.s 			page 79


 3774 0095 696E7365 		.ascii	"insert_sort_data\000"
 3774      72745F73 
 3774      6F72745F 
 3774      64617461 
 3774      00
 3775              	.LASF30:
 3776 00a6 7461736B 		.ascii	"task_control_block_struct\000"
 3776      5F636F6E 
 3776      74726F6C 
 3776      5F626C6F 
 3776      636B5F73 
 3777              	.LASF9:
 3778 00c0 6C6F6E67 		.ascii	"long long int\000"
 3778      206C6F6E 
 3778      6720696E 
 3778      7400
 3779              	.LASF7:
 3780 00ce 7369676E 		.ascii	"signed char\000"
 3780      65642063 
 3780      68617200 
 3781              	.LASF35:
 3782 00da 72657365 		.ascii	"reserve_prio\000"
 3782      7276655F 
 3782      7072696F 
 3782      00
 3783              	.LASF60:
 3784 00e7 4D43425F 		.ascii	"MCB_FLAG_BINARY\000"
 3784      464C4147 
 3784      5F42494E 
 3784      41525900 
 3785              	.LASF74:
 3786 00f7 4D43425F 		.ascii	"MCB_for_shell\000"
 3786      666F725F 
 3786      7368656C 
 3786      6C00
 3787              	.LASF102:
 3788 0105 6370755F 		.ascii	"cpu_sr\000"
 3788      737200
 3789              	.LASF3:
 3790 010c 636F6D6D 		.ascii	"command_name\000"
 3790      616E645F 
 3790      6E616D65 
 3790      00
 3791              	.LASF38:
 3792 0119 73616D65 		.ascii	"same_prio_list\000"
 3792      5F707269 
 3792      6F5F6C69 
 3792      737400
 3793              	.LASF110:
 3794 0128 70726F63 		.ascii	"process\000"
 3794      65737300 
 3795              	.LASF51:
 3796 0130 64617461 		.ascii	"data_list_head\000"
 3796      5F6C6973 
 3796      745F6865 
 3796      616400
 3797              	.LASF62:
ARM GAS  G:\Users\Jaxb\AppData\Local\Temp\cch2S2ie.s 			page 80


 3798 013f 4D43425F 		.ascii	"MCB_insert_sort_list\000"
 3798      696E7365 
 3798      72745F73 
 3798      6F72745F 
 3798      6C697374 
 3799              	.LASF69:
 3800 0154 62756666 		.ascii	"buffer_reserve\000"
 3800      65725F72 
 3800      65736572 
 3800      766500
 3801              	.LASF23:
 3802 0163 53544154 		.ascii	"STATE_WAIT_MESSAGE_QUEUE_TIMEOUT\000"
 3802      455F5741 
 3802      49545F4D 
 3802      45535341 
 3802      47455F51 
 3803              	.LASF24:
 3804 0184 53544154 		.ascii	"STATE_PUT_MESSAGE_QUEUE_FOREVER\000"
 3804      455F5055 
 3804      545F4D45 
 3804      53534147 
 3804      455F5155 
 3805              	.LASF6:
 3806 01a4 756E7369 		.ascii	"unsigned int\000"
 3806      676E6564 
 3806      20696E74 
 3806      00
 3807              	.LASF61:
 3808 01b1 6D657373 		.ascii	"message_struct\000"
 3808      6167655F 
 3808      73747275 
 3808      637400
 3809              	.LASF55:
 3810 01c0 76616C75 		.ascii	"value_cmp\000"
 3810      655F636D 
 3810      7000
 3811              	.LASF18:
 3812 01ca 53544154 		.ascii	"STATE_DELAY\000"
 3812      455F4445 
 3812      4C415900 
 3813              	.LASF1:
 3814 01d6 636F6D6D 		.ascii	"command\000"
 3814      616E6400 
 3815              	.LASF94:
 3816 01de 7265646F 		.ascii	"redo\000"
 3816      00
 3817              	.LASF40:
 3818 01e3 6E616D65 		.ascii	"name\000"
 3818      00
 3819              	.LASF79:
 3820 01e8 72657369 		.ascii	"resident_command_1\000"
 3820      64656E74 
 3820      5F636F6D 
 3820      6D616E64 
 3820      5F3100
 3821              	.LASF80:
 3822 01fb 72657369 		.ascii	"resident_command_2\000"
ARM GAS  G:\Users\Jaxb\AppData\Local\Temp\cch2S2ie.s 			page 81


 3822      64656E74 
 3822      5F636F6D 
 3822      6D616E64 
 3822      5F3200
 3823              	.LASF81:
 3824 020e 72657369 		.ascii	"resident_command_3\000"
 3824      64656E74 
 3824      5F636F6D 
 3824      6D616E64 
 3824      5F3300
 3825              	.LASF82:
 3826 0221 72657369 		.ascii	"resident_command_4\000"
 3826      64656E74 
 3826      5F636F6D 
 3826      6D616E64 
 3826      5F3400
 3827              	.LASF83:
 3828 0234 72657369 		.ascii	"resident_command_5\000"
 3828      64656E74 
 3828      5F636F6D 
 3828      6D616E64 
 3828      5F3500
 3829              	.LASF84:
 3830 0247 72657369 		.ascii	"resident_command_6\000"
 3830      64656E74 
 3830      5F636F6D 
 3830      6D616E64 
 3830      5F3600
 3831              	.LASF11:
 3832 025a 73686F72 		.ascii	"short unsigned int\000"
 3832      7420756E 
 3832      7369676E 
 3832      65642069 
 3832      6E7400
 3833              	.LASF86:
 3834 026d 72657369 		.ascii	"resident_command_8\000"
 3834      64656E74 
 3834      5F636F6D 
 3834      6D616E64 
 3834      5F3800
 3835              	.LASF59:
 3836 0280 4D43425F 		.ascii	"MCB_FLAG_NON_BLOCKING\000"
 3836      464C4147 
 3836      5F4E4F4E 
 3836      5F424C4F 
 3836      434B494E 
 3837              	.LASF105:
 3838 0296 7368656C 		.ascii	"shell_buffer_wait_str\000"
 3838      6C5F6275 
 3838      66666572 
 3838      5F776169 
 3838      745F7374 
 3839              	.LASF92:
 3840 02ac 62756666 		.ascii	"buffer_ptr\000"
 3840      65725F70 
 3840      747200
 3841              	.LASF73:
ARM GAS  G:\Users\Jaxb\AppData\Local\Temp\cch2S2ie.s 			page 82


 3842 02b7 4350555F 		.ascii	"CPU_SR\000"
 3842      535200
 3843              	.LASF52:
 3844 02be 64617461 		.ascii	"data_num\000"
 3844      5F6E756D 
 3844      00
 3845              	.LASF77:
 3846 02c7 6D61696E 		.ascii	"main_buffer_reserve\000"
 3846      5F627566 
 3846      6665725F 
 3846      72657365 
 3846      72766500 
 3847              	.LASF108:
 3848 02db 2E2E2F2E 		.ascii	"../../source/src/kernel/SHELL/shell.c\000"
 3848      2E2F736F 
 3848      75726365 
 3848      2F737263 
 3848      2F6B6572 
 3849              	.LASF56:
 3850 0301 5461736B 		.ascii	"Task_State\000"
 3850      5F537461 
 3850      746500
 3851              	.LASF111:
 3852 030c 636C6561 		.ascii	"clear_input_buffer\000"
 3852      725F696E 
 3852      7075745F 
 3852      62756666 
 3852      657200
 3853              	.LASF98:
 3854 031f 7368656C 		.ascii	"shell_buffer_ptr\000"
 3854      6C5F6275 
 3854      66666572 
 3854      5F707472 
 3854      00
 3855              	.LASF100:
 3856 0330 5F5F696E 		.ascii	"__init_shell_buffer\000"
 3856      69745F73 
 3856      68656C6C 
 3856      5F627566 
 3856      66657200 
 3857              	.LASF99:
 3858 0344 62756666 		.ascii	"buffer_reserve_ptr\000"
 3858      65725F72 
 3858      65736572 
 3858      76655F70 
 3858      747200
 3859              	.LASF67:
 3860 0357 61726776 		.ascii	"argv_reserve\000"
 3860      5F726573 
 3860      65727665 
 3860      00
 3861              	.LASF104:
 3862 0364 7072655F 		.ascii	"pre_name\000"
 3862      6E616D65 
 3862      00
 3863              	.LASF58:
 3864 036d 4D43425F 		.ascii	"MCB_FLAG_WAIT\000"
ARM GAS  G:\Users\Jaxb\AppData\Local\Temp\cch2S2ie.s 			page 83


 3864      464C4147 
 3864      5F574149 
 3864      5400
 3865              	.LASF17:
 3866 037b 53544154 		.ascii	"STATE_READY\000"
 3866      455F5245 
 3866      41445900 
 3867              	.LASF48:
 3868 0387 6964656E 		.ascii	"identify_data\000"
 3868      74696679 
 3868      5F646174 
 3868      6100
 3869              	.LASF12:
 3870 0395 55494E54 		.ascii	"UINT32\000"
 3870      333200
 3871              	.LASF45:
 3872 039c 69645F74 		.ascii	"id_type\000"
 3872      79706500 
 3873              	.LASF53:
 3874 03a4 636F6D70 		.ascii	"compare\000"
 3874      61726500 
 3875              	.LASF42:
 3876 03ac 74696D65 		.ascii	"timeslice_rest_time\000"
 3876      736C6963 
 3876      655F7265 
 3876      73745F74 
 3876      696D6500 
 3877              	.LASF34:
 3878 03c0 7072696F 		.ascii	"prio\000"
 3878      00
 3879              	.LASF20:
 3880 03c5 53544154 		.ascii	"STATE_WAIT_MCB_FOREVER\000"
 3880      455F5741 
 3880      49545F4D 
 3880      43425F46 
 3880      4F524556 
 3881              	.LASF33:
 3882 03dc 73746163 		.ascii	"stack_end\000"
 3882      6B5F656E 
 3882      6400
 3883              	.LASF89:
 3884 03e6 6572726F 		.ascii	"error\000"
 3884      7200
 3885              	.LASF26:
 3886 03ec 53544154 		.ascii	"STATE_WAIT_MUTEX_FOREVER\000"
 3886      455F5741 
 3886      49545F4D 
 3886      55544558 
 3886      5F464F52 
 3887              	.LASF88:
 3888 0405 5443425F 		.ascii	"TCB_count_init\000"
 3888      636F756E 
 3888      745F696E 
 3888      697400
 3889              	.LASF107:
 3890 0414 474E5520 		.ascii	"GNU C11 7.3.1 20180622 (release) [ARM/embedded-7-br"
 3890      43313120 
ARM GAS  G:\Users\Jaxb\AppData\Local\Temp\cch2S2ie.s 			page 84


 3890      372E332E 
 3890      31203230 
 3890      31383036 
 3891 0447 616E6368 		.ascii	"anch revision 261907] -mcpu=cortex-m3 -mthumb -mapc"
 3891      20726576 
 3891      6973696F 
 3891      6E203236 
 3891      31393037 
 3892 047a 732D6672 		.ascii	"s-frame -mthumb-interwork -mcpu=cortex-m3 -mthumb -"
 3892      616D6520 
 3892      2D6D7468 
 3892      756D622D 
 3892      696E7465 
 3893 04ad 67647761 		.ascii	"gdwarf-2 -O0\000"
 3893      72662D32 
 3893      202D4F30 
 3893      00
 3894              	.LASF87:
 3895 04ba 675F696E 		.ascii	"g_interrupt_count\000"
 3895      74657272 
 3895      7570745F 
 3895      636F756E 
 3895      7400
 3896              	.LASF10:
 3897 04cc 756E7369 		.ascii	"unsigned char\000"
 3897      676E6564 
 3897      20636861 
 3897      7200
 3898              	.LASF54:
 3899 04da 6765745F 		.ascii	"get_data_ptr\000"
 3899      64617461 
 3899      5F707472 
 3899      00
 3900              	.LASF103:
 3901 04e7 6765745F 		.ascii	"get_para_add\000"
 3901      70617261 
 3901      5F616464 
 3901      00
 3902              	.LASF8:
 3903 04f4 73686F72 		.ascii	"short int\000"
 3903      7420696E 
 3903      7400
 3904              	.LASF85:
 3905 04fe 72657369 		.ascii	"resident_command_7\000"
 3905      64656E74 
 3905      5F636F6D 
 3905      6D616E64 
 3905      5F3700
 3906              	.LASF41:
 3907 0511 74696D65 		.ascii	"timeslice_hope_time\000"
 3907      736C6963 
 3907      655F686F 
 3907      70655F74 
 3907      696D6500 
 3908              	.LASF64:
 3909 0525 666C6167 		.ascii	"flag\000"
 3909      00
ARM GAS  G:\Users\Jaxb\AppData\Local\Temp\cch2S2ie.s 			page 85


 3910              	.LASF25:
 3911 052a 53544154 		.ascii	"STATE_PUT_MESSAGE_QUEUE_TIMEOUT\000"
 3911      455F5055 
 3911      545F4D45 
 3911      53534147 
 3911      455F5155 
 3912              	.LASF50:
 3913 054a 696E7365 		.ascii	"insert_sort_entity\000"
 3913      72745F73 
 3913      6F72745F 
 3913      656E7469 
 3913      747900
 3914              	.LASF97:
 3915 055d 7075745F 		.ascii	"put_in_shell_buffer\000"
 3915      696E5F73 
 3915      68656C6C 
 3915      5F627566 
 3915      66657200 
 3916              	.LASF65:
 3917 0571 7368656C 		.ascii	"shell_buffer\000"
 3917      6C5F6275 
 3917      66666572 
 3917      00
 3918              	.LASF96:
 3919 057e 7368656C 		.ascii	"shell\000"
 3919      6C00
 3920              	.LASF5:
 3921 0584 63686172 		.ascii	"char\000"
 3921      00
 3922              	.LASF15:
 3923 0589 6C697374 		.ascii	"list_head\000"
 3923      5F686561 
 3923      6400
 3924              	.LASF70:
 3925 0593 696E6465 		.ascii	"index\000"
 3925      7800
 3926              	.LASF76:
 3927 0599 6D61696E 		.ascii	"main_buffer\000"
 3927      5F627566 
 3927      66657200 
 3928              	.LASF68:
 3929 05a5 62756666 		.ascii	"buffer\000"
 3929      657200
 3930              	.LASF44:
 3931 05ac 64656C61 		.ascii	"delay_reach_time\000"
 3931      795F7265 
 3931      6163685F 
 3931      74696D65 
 3931      00
 3932              	.LASF91:
 3933 05bd 70617261 		.ascii	"para\000"
 3933      00
 3934              	.LASF28:
 3935 05c2 53544143 		.ascii	"STACK_TYPE\000"
 3935      4B5F5459 
 3935      504500
 3936              	.LASF36:
ARM GAS  G:\Users\Jaxb\AppData\Local\Temp\cch2S2ie.s 			page 86


 3937 05cd 7461736B 		.ascii	"task_state\000"
 3937      5F737461 
 3937      746500
 3938              	.LASF78:
 3939 05d8 7573696E 		.ascii	"using_shell_buffer_ptr\000"
 3939      675F7368 
 3939      656C6C5F 
 3939      62756666 
 3939      65725F70 
 3940              	.LASF101:
 3941 05ef 6368616E 		.ascii	"change_shell_buffer\000"
 3941      67655F73 
 3941      68656C6C 
 3941      5F627566 
 3941      66657200 
 3942              	.LASF19:
 3943 0603 53544154 		.ascii	"STATE_SUSPEND_NORMAL\000"
 3943      455F5355 
 3943      5350454E 
 3943      445F4E4F 
 3943      524D414C 
 3944              	.LASF106:
 3945 0618 7374725F 		.ascii	"str_ptr\000"
 3945      70747200 
 3946              	.LASF109:
 3947 0620 463A5C6B 		.ascii	"F:\\kaka\\KAKAOS\\C\\windows\\Project\\RVMDK\243\250"
 3947      616B615C 
 3947      4B414B41 
 3947      4F535C43 
 3947      5C77696E 
 3948 0648 757635A3 		.ascii	"uv5\243\251\000"
 3948      A900
 3949              	.LASF22:
 3950 064e 53544154 		.ascii	"STATE_WAIT_MESSAGE_QUEUE_FOREVER\000"
 3950      455F5741 
 3950      49545F4D 
 3950      45535341 
 3950      47455F51 
 3951              	.LASF32:
 3952 066f 73746163 		.ascii	"stack_size\000"
 3952      6B5F7369 
 3952      7A6500
 3953              	.LASF13:
 3954 067a 55494E54 		.ascii	"UINT64\000"
 3954      363400
 3955              	.LASF95:
 3956 0681 61726763 		.ascii	"argc\000"
 3956      00
 3957              	.LASF47:
 3958 0686 64617461 		.ascii	"data_ptr\000"
 3958      5F707472 
 3958      00
 3959              	.LASF93:
 3960 068f 7368656C 		.ascii	"shell_init\000"
 3960      6C5F696E 
 3960      697400
 3961              	.LASF4:
ARM GAS  G:\Users\Jaxb\AppData\Local\Temp\cch2S2ie.s 			page 87


 3962 069a 6C697374 		.ascii	"list\000"
 3962      00
 3963              	.LASF31:
 3964 069f 73746163 		.ascii	"stack\000"
 3964      6B00
 3965              	.LASF66:
 3966 06a5 61726776 		.ascii	"argv\000"
 3966      00
 3967              	.LASF21:
 3968 06aa 53544154 		.ascii	"STATE_WAIT_MCB_TIMEOUT\000"
 3968      455F5741 
 3968      49545F4D 
 3968      43425F54 
 3968      494D454F 
 3969              	.LASF90:
 3970 06c1 72657375 		.ascii	"result\000"
 3970      6C7400
 3971              	.LASF75:
 3972 06c8 6D61696E 		.ascii	"main_shell_buffer\000"
 3972      5F736865 
 3972      6C6C5F62 
 3972      75666665 
 3972      7200
 3973              	.LASF37:
 3974 06da 64656C61 		.ascii	"delay_heap_position\000"
 3974      795F6865 
 3974      61705F70 
 3974      6F736974 
 3974      696F6E00 
 3975              	.LASF71:
 3976 06ee 696E6465 		.ascii	"index_reserve\000"
 3976      785F7265 
 3976      73657276 
 3976      6500
 3977              		.ident	"GCC: (GNU Tools for Arm Embedded Processors 7-2018-q2-update) 7.3.1 20180622 (release) [AR
ARM GAS  G:\Users\Jaxb\AppData\Local\Temp\cch2S2ie.s 			page 88


DEFINED SYMBOLS
                            *ABS*:00000000 shell.c
G:\Users\Jaxb\AppData\Local\Temp\cch2S2ie.s:16     .bss:00000000 $d
G:\Users\Jaxb\AppData\Local\Temp\cch2S2ie.s:17     .bss:00000000 MCB_for_shell
G:\Users\Jaxb\AppData\Local\Temp\cch2S2ie.s:21     .bss:00000020 main_shell_buffer
G:\Users\Jaxb\AppData\Local\Temp\cch2S2ie.s:25     .bss:00000080 main_buffer
G:\Users\Jaxb\AppData\Local\Temp\cch2S2ie.s:29     .bss:000000e4 main_buffer_reserve
G:\Users\Jaxb\AppData\Local\Temp\cch2S2ie.s:33     .bss:00000148 using_shell_buffer_ptr
G:\Users\Jaxb\AppData\Local\Temp\cch2S2ie.s:37     .text:00000000 $t
G:\Users\Jaxb\AppData\Local\Temp\cch2S2ie.s:43     .text:00000000 clear_input_buffer
G:\Users\Jaxb\AppData\Local\Temp\cch2S2ie.s:83     .text:00000020 $d
G:\Users\Jaxb\AppData\Local\Temp\cch2S2ie.s:88     .rodata:00000000 $d
G:\Users\Jaxb\AppData\Local\Temp\cch2S2ie.s:99     .text:00000024 $t
G:\Users\Jaxb\AppData\Local\Temp\cch2S2ie.s:106    .text:00000024 shell_buffer_wait_str
G:\Users\Jaxb\AppData\Local\Temp\cch2S2ie.s:196    .text:00000094 $d
G:\Users\Jaxb\AppData\Local\Temp\cch2S2ie.s:204    .text:000000a8 $t
G:\Users\Jaxb\AppData\Local\Temp\cch2S2ie.s:211    .text:000000a8 get_para_add
G:\Users\Jaxb\AppData\Local\Temp\cch2S2ie.s:304    .text:0000010a change_shell_buffer
G:\Users\Jaxb\AppData\Local\Temp\cch2S2ie.s:375    .text:00000158 $d
G:\Users\Jaxb\AppData\Local\Temp\cch2S2ie.s:387    .text:00000164 $t
G:\Users\Jaxb\AppData\Local\Temp\cch2S2ie.s:394    .text:00000164 __init_shell_buffer
G:\Users\Jaxb\AppData\Local\Temp\cch2S2ie.s:476    .text:000001c0 $d
G:\Users\Jaxb\AppData\Local\Temp\cch2S2ie.s:497    .text:000001c8 $t
G:\Users\Jaxb\AppData\Local\Temp\cch2S2ie.s:504    .text:000001c8 put_in_shell_buffer
G:\Users\Jaxb\AppData\Local\Temp\cch2S2ie.s:724    .text:00000300 $d
G:\Users\Jaxb\AppData\Local\Temp\cch2S2ie.s:743    .text:00000320 $t
G:\Users\Jaxb\AppData\Local\Temp\cch2S2ie.s:749    .text:00000320 redo
G:\Users\Jaxb\AppData\Local\Temp\cch2S2ie.s:864    .text:000003bc $d
G:\Users\Jaxb\AppData\Local\Temp\cch2S2ie.s:876    .data:00000000 $d
G:\Users\Jaxb\AppData\Local\Temp\cch2S2ie.s:879    .data:00000000 resident_command_1
G:\Users\Jaxb\AppData\Local\Temp\cch2S2ie.s:894    .data:0000000c resident_command_2
G:\Users\Jaxb\AppData\Local\Temp\cch2S2ie.s:915    .data:00000024 resident_command_3
G:\Users\Jaxb\AppData\Local\Temp\cch2S2ie.s:951    .data:00000048 resident_command_4
G:\Users\Jaxb\AppData\Local\Temp\cch2S2ie.s:993    .data:0000009c resident_command_5
G:\Users\Jaxb\AppData\Local\Temp\cch2S2ie.s:1020   .data:000000d8 resident_command_6
G:\Users\Jaxb\AppData\Local\Temp\cch2S2ie.s:1047   .data:000000f0 resident_command_7
G:\Users\Jaxb\AppData\Local\Temp\cch2S2ie.s:1071   .data:0000012c resident_command_8
G:\Users\Jaxb\AppData\Local\Temp\cch2S2ie.s:1076   .text:000003cc $t
G:\Users\Jaxb\AppData\Local\Temp\cch2S2ie.s:1082   .text:000003cc shell_init
G:\Users\Jaxb\AppData\Local\Temp\cch2S2ie.s:1348   .text:0000055c $d
G:\Users\Jaxb\AppData\Local\Temp\cch2S2ie.s:1370   .text:00000594 $t
G:\Users\Jaxb\AppData\Local\Temp\cch2S2ie.s:1376   .text:00000594 process
G:\Users\Jaxb\AppData\Local\Temp\cch2S2ie.s:1564   .text:0000068c $d
G:\Users\Jaxb\AppData\Local\Temp\cch2S2ie.s:1589   .text:00000694 $t
G:\Users\Jaxb\AppData\Local\Temp\cch2S2ie.s:1596   .text:00000694 shell
G:\Users\Jaxb\AppData\Local\Temp\cch2S2ie.s:1759   .text:00000798 $d

UNDEFINED SYMBOLS
_ASSERT
ka_printf
p
ka_strlen
ka_strncmp
CPU_SR_Save
CPU_SR_Restore
__aeabi_ui2d
__aeabi_dcmplt
ARM GAS  G:\Users\Jaxb\AppData\Local\Temp\cch2S2ie.s 			page 89


ka_putchar
v
ka_puts
get_command_processer
match_and_execute_command
test
shell_memory
shell_debug_run
shell_set
shell_TCB_check
shell_time
shell_check_kmem
shell_check_slab
shell_debug_next
shell_debug_stop
shell_echo
shell_addr
shell_stack_check
shell_clear
shell_buddy_debug
shell_sleep
shell_list_module
shell_reboot
shell_module
shell_version
shell_debug_info
shell_symbol_list_display
shell_modinfo
shell_show_tasks_registers
shell_shutdown
__init_command_n_ptr_hash_array
insert_struct_command_1
insert_struct_command_2
insert_struct_command_3
insert_struct_command_4
insert_struct_command_5
insert_struct_command_6
insert_struct_command_7
insert_struct_command_8
init_MCB
task_delete
ka_memcpy
TCB_count_init
