ARM GAS  G:\Users\Jaxb\AppData\Local\Temp\cccjJPb5.s 			page 1


   1              		.cpu cortex-m3
   2              		.eabi_attribute 20, 1
   3              		.eabi_attribute 21, 1
   4              		.eabi_attribute 23, 3
   5              		.eabi_attribute 24, 1
   6              		.eabi_attribute 25, 1
   7              		.eabi_attribute 26, 1
   8              		.eabi_attribute 30, 2
   9              		.eabi_attribute 34, 1
  10              		.eabi_attribute 18, 4
  11              		.file	"shell.c"
  12              		.text
  13              	.Ltext0:
  14              		.cfi_sections	.debug_frame
  15              		.align	1
  16              		.p2align 2,,3
  17              		.syntax unified
  18              		.thumb
  19              		.thumb_func
  20              		.fpu softvfp
  21              		.type	redo, %function
  22              	redo:
  23              	.LFB15:
  24              		.file 1 "../../source/src/user/shell/shell.c"
   1:../../source/src/user/shell/shell.c **** #include <myMicroLIB.h>
   2:../../source/src/user/shell/shell.c **** #include <command_processor.h>
   3:../../source/src/user/shell/shell.c **** #include <MCB.h>
   4:../../source/src/user/shell/shell.c **** #include <myassert.h>
   5:../../source/src/user/shell/shell.c **** #include <shell_fun.h>
   6:../../source/src/user/shell/shell.c **** #include <TCB.h>
   7:../../source/src/user/shell/shell.c **** #include <slab.h>
   8:../../source/src/user/shell/shell.c **** #include <shell_debug.h>
   9:../../source/src/user/shell/shell.c **** #include <shell.h>
  10:../../source/src/user/shell/shell.c **** #include <buddy.h>
  11:../../source/src/user/shell/shell.c **** #include <os_ready.h>
  12:../../source/src/user/shell/shell.c **** #include <os_TCB_list.h>
  13:../../source/src/user/shell/shell.c **** 
  14:../../source/src/user/shell/shell.c **** #if CONFIG_SHELL_EN
  15:../../source/src/user/shell/shell.c **** 
  16:../../source/src/user/shell/shell.c **** static MCB MCB_for_shell;
  17:../../source/src/user/shell/shell.c **** 
  18:../../source/src/user/shell/shell.c **** static char *argv[ARGV_SIZE];
  19:../../source/src/user/shell/shell.c **** static char *argv_reserve[ARGV_SIZE];
  20:../../source/src/user/shell/shell.c **** 
  21:../../source/src/user/shell/shell.c **** static char buffer[BUFFER_SIZE];
  22:../../source/src/user/shell/shell.c **** static char buffer_reserve[BUFFER_SIZE];
  23:../../source/src/user/shell/shell.c **** static unsigned int index = 0;
  24:../../source/src/user/shell/shell.c **** static unsigned int index_reserve = 0;
  25:../../source/src/user/shell/shell.c **** 
  26:../../source/src/user/shell/shell.c **** void put_in_shell_buffer(char c)  // deal with input layer
  27:../../source/src/user/shell/shell.c **** {
  28:../../source/src/user/shell/shell.c **** 	if(c == 0x0a)
  29:../../source/src/user/shell/shell.c **** 	{
  30:../../source/src/user/shell/shell.c **** 		return ;
  31:../../source/src/user/shell/shell.c **** 	}
  32:../../source/src/user/shell/shell.c **** 	if( ! (	IS_LOWER(c) || IS_UPPER(c) || (0x0d == c) || 
  33:../../source/src/user/shell/shell.c **** 			(0x03 == c) || (0x08 == c) || (' ' == c)  || 
ARM GAS  G:\Users\Jaxb\AppData\Local\Temp\cccjJPb5.s 			page 2


  34:../../source/src/user/shell/shell.c **** 			IS_NUM(c) 	|| IS_DOT(c)   || ('-' == c)  || 
  35:../../source/src/user/shell/shell.c **** 			('+' == c)))
  36:../../source/src/user/shell/shell.c **** 	{
  37:../../source/src/user/shell/shell.c **** 		ka_printf("\nerror input\n");
  38:../../source/src/user/shell/shell.c **** 		ka_printf("%s",buffer);
  39:../../source/src/user/shell/shell.c **** 		return ;
  40:../../source/src/user/shell/shell.c **** 	}
  41:../../source/src/user/shell/shell.c **** 	if(IS_UPPER(c)) 
  42:../../source/src/user/shell/shell.c **** 	{
  43:../../source/src/user/shell/shell.c **** 		c += 'a' - 'A'; 
  44:../../source/src/user/shell/shell.c **** 	}
  45:../../source/src/user/shell/shell.c **** 	if(0x08 == c) // backspace key
  46:../../source/src/user/shell/shell.c **** 	{
  47:../../source/src/user/shell/shell.c **** 		if(index>0)
  48:../../source/src/user/shell/shell.c **** 		{
  49:../../source/src/user/shell/shell.c **** 			--index;
  50:../../source/src/user/shell/shell.c **** 			ka_printf(" \b");
  51:../../source/src/user/shell/shell.c **** 		}
  52:../../source/src/user/shell/shell.c **** 		else
  53:../../source/src/user/shell/shell.c **** 		{
  54:../../source/src/user/shell/shell.c **** 			ASSERT(0 == index);
  55:../../source/src/user/shell/shell.c **** 			ka_putchar('\a');
  56:../../source/src/user/shell/shell.c **** 		}
  57:../../source/src/user/shell/shell.c **** 		return ;
  58:../../source/src/user/shell/shell.c **** 	}
  59:../../source/src/user/shell/shell.c **** 	if(index < BUFFER_SIZE*0.8)
  60:../../source/src/user/shell/shell.c **** 	{
  61:../../source/src/user/shell/shell.c **** 		buffer[index++] = c;
  62:../../source/src/user/shell/shell.c **** 		buffer[index] = '\0';
  63:../../source/src/user/shell/shell.c **** 	}
  64:../../source/src/user/shell/shell.c **** 	else
  65:../../source/src/user/shell/shell.c **** 	{
  66:../../source/src/user/shell/shell.c **** 		ka_printf("\ntoo long,invalid input,clear buffer...\n");
  67:../../source/src/user/shell/shell.c **** 		index = 0;
  68:../../source/src/user/shell/shell.c **** 		return ;
  69:../../source/src/user/shell/shell.c **** 	}
  70:../../source/src/user/shell/shell.c **** 	if((0x0d == c) || (0x0a == c))
  71:../../source/src/user/shell/shell.c **** 	{
  72:../../source/src/user/shell/shell.c **** #if DEBUG_SHELL
  73:../../source/src/user/shell/shell.c **** 		buffer[index-1] = '\0';
  74:../../source/src/user/shell/shell.c **** 		ka_printf("%s\n",buffer);
  75:../../source/src/user/shell/shell.c **** #endif
  76:../../source/src/user/shell/shell.c **** 		v(&MCB_for_shell);
  77:../../source/src/user/shell/shell.c **** 	}
  78:../../source/src/user/shell/shell.c **** }
  79:../../source/src/user/shell/shell.c **** 
  80:../../source/src/user/shell/shell.c **** 
  81:../../source/src/user/shell/shell.c **** //static int process(char *buffer_ptr);
  82:../../source/src/user/shell/shell.c **** static void redo(int argc, char const *argv[])
  83:../../source/src/user/shell/shell.c **** {
  25              		.loc 1 83 0
  26              		.cfi_startproc
  27              		@ args = 0, pretend = 0, frame = 0
  28              		@ frame_needed = 0, uses_anonymous_args = 0
  29              	.LVL0:
  30 0000 70B5     		push	{r4, r5, r6, lr}
  31              	.LCFI0:
ARM GAS  G:\Users\Jaxb\AppData\Local\Temp\cccjJPb5.s 			page 3


  32              		.cfi_def_cfa_offset 16
  33              		.cfi_offset 4, -16
  34              		.cfi_offset 5, -12
  35              		.cfi_offset 6, -8
  36              		.cfi_offset 14, -4
  84:../../source/src/user/shell/shell.c **** 	(void)argc;
  85:../../source/src/user/shell/shell.c **** 	(void)argv;
  86:../../source/src/user/shell/shell.c **** 	unsigned int i;
  87:../../source/src/user/shell/shell.c **** 	ASSERT(index_reserve < BUFFER_SIZE);
  37              		.loc 1 87 0
  38 0002 144E     		ldr	r6, .L11
  39 0004 3368     		ldr	r3, [r6]
  40 0006 632B     		cmp	r3, #99
  41 0008 1ED8     		bhi	.L10
  42              	.LVL1:
  43              	.L2:
  88:../../source/src/user/shell/shell.c **** 	ka_printf("redo command: ");
  44              		.loc 1 88 0
  45 000a 1348     		ldr	r0, .L11+4
  46 000c FFF7FEFF 		bl	ka_printf
  47              	.LVL2:
  89:../../source/src/user/shell/shell.c **** 	for(i=0;i<index_reserve;++i)
  48              		.loc 1 89 0
  49 0010 3368     		ldr	r3, [r6]
  50 0012 4BB1     		cbz	r3, .L3
  51 0014 0024     		movs	r4, #0
  52 0016 114D     		ldr	r5, .L11+8
  53              	.LVL3:
  54              	.L4:
  90:../../source/src/user/shell/shell.c **** 	{
  91:../../source/src/user/shell/shell.c **** 		ka_puts((const char *)argv_reserve[i]);
  55              		.loc 1 91 0 discriminator 3
  56 0018 55F8040B 		ldr	r0, [r5], #4
  57 001c FFF7FEFF 		bl	ka_puts
  58              	.LVL4:
  89:../../source/src/user/shell/shell.c **** 	for(i=0;i<index_reserve;++i)
  59              		.loc 1 89 0 discriminator 3
  60 0020 3368     		ldr	r3, [r6]
  61 0022 0134     		adds	r4, r4, #1
  62              	.LVL5:
  63 0024 A342     		cmp	r3, r4
  64 0026 F7D8     		bhi	.L4
  65              	.LVL6:
  66              	.L3:
  92:../../source/src/user/shell/shell.c **** 	}
  93:../../source/src/user/shell/shell.c **** 	ka_putchar('\n');
  67              		.loc 1 93 0
  68 0028 0A20     		movs	r0, #10
  69 002a FFF7FEFF 		bl	ka_putchar
  70              	.LVL7:
  94:../../source/src/user/shell/shell.c **** 	match_and_execute_command(index_reserve,(const char **)argv_reserve,get_command_processer(ka_strle
  71              		.loc 1 94 0
  72 002e D6E90040 		ldrd	r4, r0, [r6]
  73 0032 FFF7FEFF 		bl	ka_strlen
  74              	.LVL8:
  75 0036 FFF7FEFF 		bl	get_command_processer
  76              	.LVL9:
ARM GAS  G:\Users\Jaxb\AppData\Local\Temp\cccjJPb5.s 			page 4


  77 003a 0849     		ldr	r1, .L11+8
  78 003c 0246     		mov	r2, r0
  79 003e 2046     		mov	r0, r4
  95:../../source/src/user/shell/shell.c **** }
  80              		.loc 1 95 0
  81 0040 BDE87040 		pop	{r4, r5, r6, lr}
  82              	.LCFI1:
  83              		.cfi_remember_state
  84              		.cfi_restore 14
  85              		.cfi_restore 6
  86              		.cfi_restore 5
  87              		.cfi_restore 4
  88              		.cfi_def_cfa_offset 0
  94:../../source/src/user/shell/shell.c **** 	match_and_execute_command(index_reserve,(const char **)argv_reserve,get_command_processer(ka_strle
  89              		.loc 1 94 0
  90 0044 FFF7FEBF 		b	match_and_execute_command
  91              	.LVL10:
  92              	.L10:
  93              	.LCFI2:
  94              		.cfi_restore_state
  87:../../source/src/user/shell/shell.c **** 	ka_printf("redo command: ");
  95              		.loc 1 87 0 discriminator 1
  96 0048 5721     		movs	r1, #87
  97              	.LVL11:
  98 004a 0548     		ldr	r0, .L11+12
  99              	.LVL12:
 100 004c FFF7FEFF 		bl	_ASSERT
 101              	.LVL13:
 102 0050 DBE7     		b	.L2
 103              	.L12:
 104 0052 00BF     		.align	2
 105              	.L11:
 106 0054 00000000 		.word	.LANCHOR0
 107 0058 24000000 		.word	.LC1
 108 005c 04000000 		.word	.LANCHOR0+4
 109 0060 00000000 		.word	.LC0
 110              		.cfi_endproc
 111              	.LFE15:
 112              		.size	redo, .-redo
 113              		.global	__aeabi_ui2d
 114              		.global	__aeabi_dcmplt
 115              		.align	1
 116              		.p2align 2,,3
 117              		.global	put_in_shell_buffer
 118              		.syntax unified
 119              		.thumb
 120              		.thumb_func
 121              		.fpu softvfp
 122              		.type	put_in_shell_buffer, %function
 123              	put_in_shell_buffer:
 124              	.LFB14:
  27:../../source/src/user/shell/shell.c **** 	if(c == 0x0a)
 125              		.loc 1 27 0
 126              		.cfi_startproc
 127              		@ args = 0, pretend = 0, frame = 0
 128              		@ frame_needed = 0, uses_anonymous_args = 0
 129              	.LVL14:
ARM GAS  G:\Users\Jaxb\AppData\Local\Temp\cccjJPb5.s 			page 5


  28:../../source/src/user/shell/shell.c **** 	{
 130              		.loc 1 28 0
 131 0064 0A28     		cmp	r0, #10
  27:../../source/src/user/shell/shell.c **** 	if(c == 0x0a)
 132              		.loc 1 27 0
 133 0066 70B5     		push	{r4, r5, r6, lr}
 134              	.LCFI3:
 135              		.cfi_def_cfa_offset 16
 136              		.cfi_offset 4, -16
 137              		.cfi_offset 5, -12
 138              		.cfi_offset 6, -8
 139              		.cfi_offset 14, -4
  27:../../source/src/user/shell/shell.c **** 	if(c == 0x0a)
 140              		.loc 1 27 0
 141 0068 0446     		mov	r4, r0
  28:../../source/src/user/shell/shell.c **** 	{
 142              		.loc 1 28 0
 143 006a 2DD0     		beq	.L13
  32:../../source/src/user/shell/shell.c **** 			(0x03 == c) || (0x08 == c) || (' ' == c)  || 
 144              		.loc 1 32 0
 145 006c A0F16102 		sub	r2, r0, #97
 146 0070 A0F14103 		sub	r3, r0, #65
 147 0074 192A     		cmp	r2, #25
 148 0076 DBB2     		uxtb	r3, r3
 149 0078 27D9     		bls	.L16
  32:../../source/src/user/shell/shell.c **** 			(0x03 == c) || (0x08 == c) || (' ' == c)  || 
 150              		.loc 1 32 0 is_stmt 0 discriminator 1
 151 007a 192B     		cmp	r3, #25
 152 007c 27D9     		bls	.L17
  32:../../source/src/user/shell/shell.c **** 			(0x03 == c) || (0x08 == c) || (' ' == c)  || 
 153              		.loc 1 32 0 discriminator 2
 154 007e 0D28     		cmp	r0, #13
 155 0080 34D0     		beq	.L18
  32:../../source/src/user/shell/shell.c **** 			(0x03 == c) || (0x08 == c) || (' ' == c)  || 
 156              		.loc 1 32 0 discriminator 3
 157 0082 0328     		cmp	r0, #3
 158 0084 0BD0     		beq	.L22
  33:../../source/src/user/shell/shell.c **** 			IS_NUM(c) 	|| IS_DOT(c)   || ('-' == c)  || 
 159              		.loc 1 33 0 is_stmt 1
 160 0086 0828     		cmp	r0, #8
 161 0088 24D0     		beq	.L20
  33:../../source/src/user/shell/shell.c **** 			IS_NUM(c) 	|| IS_DOT(c)   || ('-' == c)  || 
 162              		.loc 1 33 0 is_stmt 0 discriminator 1
 163 008a A0F12003 		sub	r3, r0, #32
 164 008e DBB2     		uxtb	r3, r3
 165 0090 192B     		cmp	r3, #25
 166 0092 52D8     		bhi	.L21
 167 0094 2D4A     		ldr	r2, .L35
 168 0096 22FA03F3 		lsr	r3, r2, r3
 169 009a DB07     		lsls	r3, r3, #31
 170 009c 4DD5     		bpl	.L21
 171              	.LVL15:
 172              	.L22:
  59:../../source/src/user/shell/shell.c **** 	{
 173              		.loc 1 59 0 is_stmt 1
 174 009e 2C4D     		ldr	r5, .L35+4
 175 00a0 D5F89060 		ldr	r6, [r5, #144]
ARM GAS  G:\Users\Jaxb\AppData\Local\Temp\cccjJPb5.s 			page 6


 176 00a4 3046     		mov	r0, r6
 177 00a6 FFF7FEFF 		bl	__aeabi_ui2d
 178              	.LVL16:
 179 00aa 0022     		movs	r2, #0
 180 00ac 294B     		ldr	r3, .L35+8
 181 00ae FFF7FEFF 		bl	__aeabi_dcmplt
 182              	.LVL17:
 183 00b2 30B3     		cbz	r0, .L25
  62:../../source/src/user/shell/shell.c **** 	}
 184              		.loc 1 62 0
 185 00b4 0021     		movs	r1, #0
  61:../../source/src/user/shell/shell.c **** 		buffer[index] = '\0';
 186              		.loc 1 61 0
 187 00b6 731C     		adds	r3, r6, #1
  62:../../source/src/user/shell/shell.c **** 	}
 188              		.loc 1 62 0
 189 00b8 EA18     		adds	r2, r5, r3
  61:../../source/src/user/shell/shell.c **** 		buffer[index] = '\0';
 190              		.loc 1 61 0
 191 00ba 2E44     		add	r6, r6, r5
 192 00bc 86F82C40 		strb	r4, [r6, #44]
 193 00c0 C5F89030 		str	r3, [r5, #144]
  62:../../source/src/user/shell/shell.c **** 	}
 194              		.loc 1 62 0
 195 00c4 82F82C10 		strb	r1, [r2, #44]
 196              	.LVL18:
 197              	.L13:
  78:../../source/src/user/shell/shell.c **** 
 198              		.loc 1 78 0
 199 00c8 70BD     		pop	{r4, r5, r6, pc}
 200              	.LVL19:
 201              	.L16:
  41:../../source/src/user/shell/shell.c **** 	{
 202              		.loc 1 41 0
 203 00ca 192B     		cmp	r3, #25
 204 00cc E7D8     		bhi	.L22
 205              	.L17:
  43:../../source/src/user/shell/shell.c **** 	}
 206              		.loc 1 43 0
 207 00ce 2034     		adds	r4, r4, #32
 208 00d0 E4B2     		uxtb	r4, r4
 209              	.LVL20:
 210 00d2 E4E7     		b	.L22
 211              	.LVL21:
 212              	.L20:
  47:../../source/src/user/shell/shell.c **** 		{
 213              		.loc 1 47 0
 214 00d4 1E4A     		ldr	r2, .L35+4
 215 00d6 D2F89030 		ldr	r3, [r2, #144]
 216 00da CBB1     		cbz	r3, .L23
  78:../../source/src/user/shell/shell.c **** 
 217              		.loc 1 78 0
 218 00dc BDE87040 		pop	{r4, r5, r6, lr}
 219              	.LCFI4:
 220              		.cfi_remember_state
 221              		.cfi_restore 14
 222              		.cfi_restore 6
ARM GAS  G:\Users\Jaxb\AppData\Local\Temp\cccjJPb5.s 			page 7


 223              		.cfi_restore 5
 224              		.cfi_restore 4
 225              		.cfi_def_cfa_offset 0
  49:../../source/src/user/shell/shell.c **** 			ka_printf(" \b");
 226              		.loc 1 49 0
 227 00e0 013B     		subs	r3, r3, #1
  50:../../source/src/user/shell/shell.c **** 		}
 228              		.loc 1 50 0
 229 00e2 1D48     		ldr	r0, .L35+12
  49:../../source/src/user/shell/shell.c **** 			ka_printf(" \b");
 230              		.loc 1 49 0
 231 00e4 C2F89030 		str	r3, [r2, #144]
  50:../../source/src/user/shell/shell.c **** 		}
 232              		.loc 1 50 0
 233 00e8 FFF7FEBF 		b	ka_printf
 234              	.LVL22:
 235              	.L18:
 236              	.LCFI5:
 237              		.cfi_restore_state
  59:../../source/src/user/shell/shell.c **** 	{
 238              		.loc 1 59 0
 239 00ec 184D     		ldr	r5, .L35+4
 240 00ee D5F89060 		ldr	r6, [r5, #144]
 241 00f2 3046     		mov	r0, r6
 242 00f4 FFF7FEFF 		bl	__aeabi_ui2d
 243              	.LVL23:
 244 00f8 0022     		movs	r2, #0
 245 00fa 164B     		ldr	r3, .L35+8
 246 00fc FFF7FEFF 		bl	__aeabi_dcmplt
 247              	.LVL24:
 248 0100 58B9     		cbnz	r0, .L24
 249              	.LVL25:
 250              	.L25:
  66:../../source/src/user/shell/shell.c **** 		index = 0;
 251              		.loc 1 66 0
 252 0102 1648     		ldr	r0, .L35+16
 253 0104 FFF7FEFF 		bl	ka_printf
 254              	.LVL26:
  67:../../source/src/user/shell/shell.c **** 		return ;
 255              		.loc 1 67 0
 256 0108 0023     		movs	r3, #0
 257 010a C5F89030 		str	r3, [r5, #144]
  78:../../source/src/user/shell/shell.c **** 
 258              		.loc 1 78 0
 259 010e 70BD     		pop	{r4, r5, r6, pc}
 260              	.LVL27:
 261              	.L23:
  55:../../source/src/user/shell/shell.c **** 		}
 262              		.loc 1 55 0
 263 0110 0720     		movs	r0, #7
  78:../../source/src/user/shell/shell.c **** 
 264              		.loc 1 78 0
 265 0112 BDE87040 		pop	{r4, r5, r6, lr}
 266              	.LCFI6:
 267              		.cfi_remember_state
 268              		.cfi_restore 14
 269              		.cfi_restore 6
ARM GAS  G:\Users\Jaxb\AppData\Local\Temp\cccjJPb5.s 			page 8


 270              		.cfi_restore 5
 271              		.cfi_restore 4
 272              		.cfi_def_cfa_offset 0
  55:../../source/src/user/shell/shell.c **** 		}
 273              		.loc 1 55 0
 274 0116 FFF7FEBF 		b	ka_putchar
 275              	.LVL28:
 276              	.L24:
 277              	.LCFI7:
 278              		.cfi_restore_state
  62:../../source/src/user/shell/shell.c **** 	}
 279              		.loc 1 62 0
 280 011a 0021     		movs	r1, #0
  61:../../source/src/user/shell/shell.c **** 		buffer[index] = '\0';
 281              		.loc 1 61 0
 282 011c 731C     		adds	r3, r6, #1
  62:../../source/src/user/shell/shell.c **** 	}
 283              		.loc 1 62 0
 284 011e EA18     		adds	r2, r5, r3
  61:../../source/src/user/shell/shell.c **** 		buffer[index] = '\0';
 285              		.loc 1 61 0
 286 0120 2E44     		add	r6, r6, r5
 287 0122 86F82C40 		strb	r4, [r6, #44]
  62:../../source/src/user/shell/shell.c **** 	}
 288              		.loc 1 62 0
 289 0126 82F82C10 		strb	r1, [r2, #44]
  76:../../source/src/user/shell/shell.c **** 	}
 290              		.loc 1 76 0
 291 012a 05F19400 		add	r0, r5, #148
  61:../../source/src/user/shell/shell.c **** 		buffer[index] = '\0';
 292              		.loc 1 61 0
 293 012e C5F89030 		str	r3, [r5, #144]
  78:../../source/src/user/shell/shell.c **** 
 294              		.loc 1 78 0
 295 0132 BDE87040 		pop	{r4, r5, r6, lr}
 296              	.LCFI8:
 297              		.cfi_remember_state
 298              		.cfi_restore 14
 299              		.cfi_restore 6
 300              		.cfi_restore 5
 301              		.cfi_restore 4
 302              		.cfi_def_cfa_offset 0
  76:../../source/src/user/shell/shell.c **** 	}
 303              		.loc 1 76 0
 304 0136 FFF7FEBF 		b	v
 305              	.LVL29:
 306              	.L21:
 307              	.LCFI9:
 308              		.cfi_restore_state
  37:../../source/src/user/shell/shell.c **** 		ka_printf("%s",buffer);
 309              		.loc 1 37 0 discriminator 2
 310 013a 0948     		ldr	r0, .L35+20
 311              	.LVL30:
 312 013c FFF7FEFF 		bl	ka_printf
 313              	.LVL31:
  78:../../source/src/user/shell/shell.c **** 
 314              		.loc 1 78 0 discriminator 2
ARM GAS  G:\Users\Jaxb\AppData\Local\Temp\cccjJPb5.s 			page 9


 315 0140 BDE87040 		pop	{r4, r5, r6, lr}
 316              	.LCFI10:
 317              		.cfi_restore 14
 318              		.cfi_restore 6
 319              		.cfi_restore 5
 320              		.cfi_restore 4
 321              		.cfi_def_cfa_offset 0
  38:../../source/src/user/shell/shell.c **** 		return ;
 322              		.loc 1 38 0 discriminator 2
 323 0144 0749     		ldr	r1, .L35+24
 324 0146 0848     		ldr	r0, .L35+28
 325 0148 FFF7FEBF 		b	ka_printf
 326              	.LVL32:
 327              	.L36:
 328              		.align	2
 329              	.L35:
 330 014c 0168FF03 		.word	67069953
 331 0150 00000000 		.word	.LANCHOR0
 332 0154 00005440 		.word	1079246848
 333 0158 48000000 		.word	.LC4
 334 015c 4C000000 		.word	.LC5
 335 0160 34000000 		.word	.LC2
 336 0164 2C000000 		.word	.LANCHOR0+44
 337 0168 44000000 		.word	.LC3
 338              		.cfi_endproc
 339              	.LFE14:
 340              		.size	put_in_shell_buffer, .-put_in_shell_buffer
 341              		.align	1
 342              		.p2align 2,,3
 343              		.global	shell
 344              		.syntax unified
 345              		.thumb
 346              		.thumb_func
 347              		.fpu softvfp
 348              		.type	shell, %function
 349              	shell:
 350              	.LFB18:
  96:../../source/src/user/shell/shell.c **** 
  97:../../source/src/user/shell/shell.c **** 
  98:../../source/src/user/shell/shell.c **** //struct command -- add command in the corresponding array here(step 2)
  99:../../source/src/user/shell/shell.c **** // and write the function to execute
 100:../../source/src/user/shell/shell.c **** static struct command resident_command_1[] = 
 101:../../source/src/user/shell/shell.c **** {
 102:../../source/src/user/shell/shell.c **** 	{
 103:../../source/src/user/shell/shell.c **** 		.command_name = "r",
 104:../../source/src/user/shell/shell.c **** 		.f = redo,
 105:../../source/src/user/shell/shell.c **** 	}
 106:../../source/src/user/shell/shell.c **** };
 107:../../source/src/user/shell/shell.c **** static struct command resident_command_2[] = 
 108:../../source/src/user/shell/shell.c **** {
 109:../../source/src/user/shell/shell.c **** 	{
 110:../../source/src/user/shell/shell.c **** 		.command_name = "ka",
 111:../../source/src/user/shell/shell.c **** 		.f = test,
 112:../../source/src/user/shell/shell.c **** 	},
 113:../../source/src/user/shell/shell.c **** 	{
 114:../../source/src/user/shell/shell.c **** 		.command_name = "mm",
 115:../../source/src/user/shell/shell.c **** 		.f = shell_memory,
ARM GAS  G:\Users\Jaxb\AppData\Local\Temp\cccjJPb5.s 			page 10


 116:../../source/src/user/shell/shell.c **** 	}
 117:../../source/src/user/shell/shell.c **** };
 118:../../source/src/user/shell/shell.c **** static struct command resident_command_3[] = 
 119:../../source/src/user/shell/shell.c **** {
 120:../../source/src/user/shell/shell.c **** #if CONFIG_SHELL_DEBUG_EN && CONFIG_SHELL_EN
 121:../../source/src/user/shell/shell.c **** 	{
 122:../../source/src/user/shell/shell.c **** 		.command_name = "run",
 123:../../source/src/user/shell/shell.c **** 		.f = shell_debug_run,
 124:../../source/src/user/shell/shell.c **** 	},
 125:../../source/src/user/shell/shell.c **** 	{
 126:../../source/src/user/shell/shell.c **** 		.command_name = "set",
 127:../../source/src/user/shell/shell.c **** 		.f = shell_set,
 128:../../source/src/user/shell/shell.c **** 	},
 129:../../source/src/user/shell/shell.c **** #endif
 130:../../source/src/user/shell/shell.c **** #if CONFIG_CPU_USE_RATE_CALCULATION
 131:../../source/src/user/shell/shell.c **** 	{
 132:../../source/src/user/shell/shell.c **** 		.command_name = "cpu",
 133:../../source/src/user/shell/shell.c **** 		.f = cpu_rate,
 134:../../source/src/user/shell/shell.c **** 	},
 135:../../source/src/user/shell/shell.c **** #endif
 136:../../source/src/user/shell/shell.c **** 	{
 137:../../source/src/user/shell/shell.c **** 		.command_name = "tcb",
 138:../../source/src/user/shell/shell.c **** 		.f = shell_TCB_check,
 139:../../source/src/user/shell/shell.c **** 	}
 140:../../source/src/user/shell/shell.c **** };
 141:../../source/src/user/shell/shell.c **** static struct command resident_command_4[] = 
 142:../../source/src/user/shell/shell.c **** {
 143:../../source/src/user/shell/shell.c **** #if CONFIG_TIME_EN
 144:../../source/src/user/shell/shell.c **** 	{
 145:../../source/src/user/shell/shell.c **** 		.command_name = "time",
 146:../../source/src/user/shell/shell.c **** 		.f = shell_time,
 147:../../source/src/user/shell/shell.c **** 	},
 148:../../source/src/user/shell/shell.c **** #endif
 149:../../source/src/user/shell/shell.c **** 	{
 150:../../source/src/user/shell/shell.c **** 		.command_name = "kmem",
 151:../../source/src/user/shell/shell.c **** 		.f = shell_check_kmem,
 152:../../source/src/user/shell/shell.c **** 	},
 153:../../source/src/user/shell/shell.c **** 	{
 154:../../source/src/user/shell/shell.c **** 		.command_name = "slab",
 155:../../source/src/user/shell/shell.c **** 		.f = shell_check_slab,
 156:../../source/src/user/shell/shell.c **** 	}
 157:../../source/src/user/shell/shell.c **** #if CONFIG_SHELL_DEBUG_EN && CONFIG_SHELL_EN
 158:../../source/src/user/shell/shell.c **** 	,{
 159:../../source/src/user/shell/shell.c **** 		.command_name = "next",
 160:../../source/src/user/shell/shell.c **** 		.f = shell_debug_next,
 161:../../source/src/user/shell/shell.c **** 	},
 162:../../source/src/user/shell/shell.c **** 	{
 163:../../source/src/user/shell/shell.c **** 		.command_name = "stop",
 164:../../source/src/user/shell/shell.c **** 		.f = shell_debug_stop,
 165:../../source/src/user/shell/shell.c **** 	},
 166:../../source/src/user/shell/shell.c **** 	{
 167:../../source/src/user/shell/shell.c **** 		.command_name = "echo",
 168:../../source/src/user/shell/shell.c **** 		.f = shell_echo,
 169:../../source/src/user/shell/shell.c **** 	},
 170:../../source/src/user/shell/shell.c **** 	{
 171:../../source/src/user/shell/shell.c **** 		.command_name = "addr",
 172:../../source/src/user/shell/shell.c **** 		.f = shell_addr,
ARM GAS  G:\Users\Jaxb\AppData\Local\Temp\cccjJPb5.s 			page 11


 173:../../source/src/user/shell/shell.c **** 	}
 174:../../source/src/user/shell/shell.c **** #endif
 175:../../source/src/user/shell/shell.c **** };
 176:../../source/src/user/shell/shell.c **** static struct command resident_command_5[] = 
 177:../../source/src/user/shell/shell.c **** {	
 178:../../source/src/user/shell/shell.c **** 	{
 179:../../source/src/user/shell/shell.c **** 		.command_name = "stack",
 180:../../source/src/user/shell/shell.c **** 		.f = shell_stack_check,
 181:../../source/src/user/shell/shell.c **** 	},
 182:../../source/src/user/shell/shell.c **** 	{
 183:../../source/src/user/shell/shell.c **** 		.command_name = "clear",
 184:../../source/src/user/shell/shell.c **** 		.f = shell_clear,
 185:../../source/src/user/shell/shell.c **** 	},
 186:../../source/src/user/shell/shell.c **** 	{
 187:../../source/src/user/shell/shell.c **** 		.command_name = "buddy",
 188:../../source/src/user/shell/shell.c **** 		.f = shell_buddy_debug,
 189:../../source/src/user/shell/shell.c **** 	}
 190:../../source/src/user/shell/shell.c **** #if CONFIG_POWER_MANAGEMENT
 191:../../source/src/user/shell/shell.c **** 	,{
 192:../../source/src/user/shell/shell.c **** 		.command_name = "sleep",
 193:../../source/src/user/shell/shell.c **** 		.f = shell_sleep,
 194:../../source/src/user/shell/shell.c **** 	}
 195:../../source/src/user/shell/shell.c **** #endif
 196:../../source/src/user/shell/shell.c **** };
 197:../../source/src/user/shell/shell.c **** static struct command resident_command_6[] = 
 198:../../source/src/user/shell/shell.c **** {
 199:../../source/src/user/shell/shell.c **** 	{
 200:../../source/src/user/shell/shell.c **** 		.command_name = "reboot",
 201:../../source/src/user/shell/shell.c **** 		.f = shell_reboot,
 202:../../source/src/user/shell/shell.c **** 	}
 203:../../source/src/user/shell/shell.c **** };
 204:../../source/src/user/shell/shell.c **** static struct command resident_command_7[] = 
 205:../../source/src/user/shell/shell.c **** {
 206:../../source/src/user/shell/shell.c **** 	{
 207:../../source/src/user/shell/shell.c **** 		.command_name = "version",
 208:../../source/src/user/shell/shell.c **** 		.f = shell_version,
 209:../../source/src/user/shell/shell.c **** 	}
 210:../../source/src/user/shell/shell.c **** #if CONFIG_SHELL_DEBUG_EN && CONFIG_SHELL_EN
 211:../../source/src/user/shell/shell.c **** 	,{
 212:../../source/src/user/shell/shell.c **** 		.command_name = "debinfo",
 213:../../source/src/user/shell/shell.c **** 		.f = shell_debug_info,
 214:../../source/src/user/shell/shell.c **** 	}
 215:../../source/src/user/shell/shell.c **** #endif
 216:../../source/src/user/shell/shell.c **** 	,{
 217:../../source/src/user/shell/shell.c **** 		.command_name = "showreg",
 218:../../source/src/user/shell/shell.c **** 		.f = shell_show_tasks_registers,
 219:../../source/src/user/shell/shell.c **** 	}
 220:../../source/src/user/shell/shell.c **** };
 221:../../source/src/user/shell/shell.c **** static struct command resident_command_8[] = 
 222:../../source/src/user/shell/shell.c **** {
 223:../../source/src/user/shell/shell.c **** #if CONFIG_POWER_MANAGEMENT
 224:../../source/src/user/shell/shell.c **** 	{
 225:../../source/src/user/shell/shell.c **** 		.command_name = "shutdown",
 226:../../source/src/user/shell/shell.c **** 		.f = shell_shutdown,
 227:../../source/src/user/shell/shell.c **** 	}
 228:../../source/src/user/shell/shell.c **** #endif
 229:../../source/src/user/shell/shell.c **** };
ARM GAS  G:\Users\Jaxb\AppData\Local\Temp\cccjJPb5.s 			page 12


 230:../../source/src/user/shell/shell.c **** 
 231:../../source/src/user/shell/shell.c **** extern void __init_command_n_ptr_hash_array(void);
 232:../../source/src/user/shell/shell.c **** static void shell_init(void)
 233:../../source/src/user/shell/shell.c **** {
 234:../../source/src/user/shell/shell.c **** 	unsigned int i;
 235:../../source/src/user/shell/shell.c **** #if CONFIG_ASSERT_DEBUG
 236:../../source/src/user/shell/shell.c **** 	int error;
 237:../../source/src/user/shell/shell.c **** #endif
 238:../../source/src/user/shell/shell.c **** 	__init_command_n_ptr_hash_array();
 239:../../source/src/user/shell/shell.c **** 	for(i=0;i<sizeof(resident_command_1)/sizeof(struct command);++i)
 240:../../source/src/user/shell/shell.c **** 	{
 241:../../source/src/user/shell/shell.c **** 		insert_struct_command_1(resident_command_1+i);
 242:../../source/src/user/shell/shell.c **** 	}
 243:../../source/src/user/shell/shell.c **** 	for(i=0;i<sizeof(resident_command_2)/sizeof(struct command);++i)
 244:../../source/src/user/shell/shell.c **** 	{
 245:../../source/src/user/shell/shell.c **** 		insert_struct_command_2(resident_command_2+i);
 246:../../source/src/user/shell/shell.c **** 	}
 247:../../source/src/user/shell/shell.c **** 	for(i=0;i<sizeof(resident_command_3)/sizeof(struct command);++i)
 248:../../source/src/user/shell/shell.c **** 	{
 249:../../source/src/user/shell/shell.c **** 		insert_struct_command_3(resident_command_3+i);
 250:../../source/src/user/shell/shell.c **** 	}
 251:../../source/src/user/shell/shell.c **** 	for(i=0;i<sizeof(resident_command_4)/sizeof(struct command);++i)
 252:../../source/src/user/shell/shell.c **** 	{
 253:../../source/src/user/shell/shell.c **** 		insert_struct_command_4(resident_command_4+i);
 254:../../source/src/user/shell/shell.c **** 	}
 255:../../source/src/user/shell/shell.c **** 	for(i=0;i<sizeof(resident_command_5)/sizeof(struct command);++i)
 256:../../source/src/user/shell/shell.c **** 	{
 257:../../source/src/user/shell/shell.c **** 		insert_struct_command_5(resident_command_5+i);
 258:../../source/src/user/shell/shell.c **** 	}
 259:../../source/src/user/shell/shell.c **** 	for(i=0;i<sizeof(resident_command_6)/sizeof(struct command);++i)
 260:../../source/src/user/shell/shell.c **** 	{
 261:../../source/src/user/shell/shell.c **** 		insert_struct_command_6(resident_command_6+i);
 262:../../source/src/user/shell/shell.c **** 	}
 263:../../source/src/user/shell/shell.c **** 	for(i=0;i<sizeof(resident_command_7)/sizeof(struct command);++i)
 264:../../source/src/user/shell/shell.c **** 	{
 265:../../source/src/user/shell/shell.c **** 		insert_struct_command_7(resident_command_7+i);
 266:../../source/src/user/shell/shell.c **** 	}
 267:../../source/src/user/shell/shell.c **** 	for(i=0;i<sizeof(resident_command_8)/sizeof(struct command);++i)
 268:../../source/src/user/shell/shell.c **** 	{
 269:../../source/src/user/shell/shell.c **** 		insert_struct_command_8(resident_command_8+i);
 270:../../source/src/user/shell/shell.c **** 	}
 271:../../source/src/user/shell/shell.c **** #if CONFIG_ASSERT_DEBUG
 272:../../source/src/user/shell/shell.c **** 	error = init_MCB(&MCB_for_shell,0,MCB_TYPE_FLAG_BINARY);
 273:../../source/src/user/shell/shell.c **** #else
 274:../../source/src/user/shell/shell.c **** 	init_MCB(&MCB_for_shell,0,MCB_TYPE_FLAG_BINARY);
 275:../../source/src/user/shell/shell.c **** #endif
 276:../../source/src/user/shell/shell.c **** 	ASSERT(FUN_EXECUTE_SUCCESSFULLY == error);
 277:../../source/src/user/shell/shell.c **** 	index = 0;
 278:../../source/src/user/shell/shell.c **** 	index_reserve = 0;
 279:../../source/src/user/shell/shell.c **** }
 280:../../source/src/user/shell/shell.c **** 
 281:../../source/src/user/shell/shell.c **** 
 282:../../source/src/user/shell/shell.c **** //public
 283:../../source/src/user/shell/shell.c **** static int process(char *buffer_ptr)
 284:../../source/src/user/shell/shell.c **** {
 285:../../source/src/user/shell/shell.c **** 	char *ptr = buffer_ptr;
 286:../../source/src/user/shell/shell.c **** 	unsigned int num = 0;
ARM GAS  G:\Users\Jaxb\AppData\Local\Temp\cccjJPb5.s 			page 13


 287:../../source/src/user/shell/shell.c **** 	int result;
 288:../../source/src/user/shell/shell.c **** 	while(*ptr == ' ')
 289:../../source/src/user/shell/shell.c **** 	{
 290:../../source/src/user/shell/shell.c **** 		++ptr;
 291:../../source/src/user/shell/shell.c **** 	}
 292:../../source/src/user/shell/shell.c **** 	if((0x0d == *ptr) || (0x0a == *ptr))
 293:../../source/src/user/shell/shell.c **** 	{
 294:../../source/src/user/shell/shell.c **** 		return 0;
 295:../../source/src/user/shell/shell.c **** 	}
 296:../../source/src/user/shell/shell.c **** 	argv[num++] = ptr;
 297:../../source/src/user/shell/shell.c **** 	while((0x0d != *ptr) && (0x0a != *ptr))
 298:../../source/src/user/shell/shell.c **** 	{
 299:../../source/src/user/shell/shell.c **** 		if(' ' != *ptr)
 300:../../source/src/user/shell/shell.c **** 		{
 301:../../source/src/user/shell/shell.c **** 			++ptr;
 302:../../source/src/user/shell/shell.c **** 			continue;
 303:../../source/src/user/shell/shell.c **** 		}
 304:../../source/src/user/shell/shell.c **** 		else
 305:../../source/src/user/shell/shell.c **** 		{
 306:../../source/src/user/shell/shell.c **** 			*ptr = '\0';
 307:../../source/src/user/shell/shell.c **** 			++ptr;
 308:../../source/src/user/shell/shell.c **** 			while(' ' == *ptr)
 309:../../source/src/user/shell/shell.c **** 			{
 310:../../source/src/user/shell/shell.c **** 				++ptr;
 311:../../source/src/user/shell/shell.c **** 			}
 312:../../source/src/user/shell/shell.c **** 			if((0x0d != *ptr) && (0x0a != *ptr))
 313:../../source/src/user/shell/shell.c **** 			{
 314:../../source/src/user/shell/shell.c **** 				argv[num++] = ptr;
 315:../../source/src/user/shell/shell.c **** 				if(ARGV_SIZE+1 == num)
 316:../../source/src/user/shell/shell.c **** 				{
 317:../../source/src/user/shell/shell.c **** 					ka_printf("too many argument\n");
 318:../../source/src/user/shell/shell.c **** 					return 0;
 319:../../source/src/user/shell/shell.c **** 				}
 320:../../source/src/user/shell/shell.c **** 			}
 321:../../source/src/user/shell/shell.c **** 		}
 322:../../source/src/user/shell/shell.c **** 	}
 323:../../source/src/user/shell/shell.c **** 	*ptr = '\0';
 324:../../source/src/user/shell/shell.c **** 		
 325:../../source/src/user/shell/shell.c **** 	result = match_and_execute_command(num,(const char **)argv,get_command_processer(ka_strlen(argv[0]
 326:../../source/src/user/shell/shell.c ****     if(result == 1)
 327:../../source/src/user/shell/shell.c ****     {
 328:../../source/src/user/shell/shell.c ****     	return 0;
 329:../../source/src/user/shell/shell.c ****     }
 330:../../source/src/user/shell/shell.c ****     return num;
 331:../../source/src/user/shell/shell.c **** }
 332:../../source/src/user/shell/shell.c **** 
 333:../../source/src/user/shell/shell.c **** extern TCB TCB_count_init;
 334:../../source/src/user/shell/shell.c **** void shell(void *para)
 335:../../source/src/user/shell/shell.c **** {
 351              		.loc 1 335 0
 352              		.cfi_startproc
 353              		@ args = 0, pretend = 0, frame = 0
 354              		@ frame_needed = 0, uses_anonymous_args = 0
 355              	.LVL33:
 356 016c 2DE9F047 		push	{r4, r5, r6, r7, r8, r9, r10, lr}
 357              	.LCFI11:
 358              		.cfi_def_cfa_offset 32
ARM GAS  G:\Users\Jaxb\AppData\Local\Temp\cccjJPb5.s 			page 14


 359              		.cfi_offset 4, -32
 360              		.cfi_offset 5, -28
 361              		.cfi_offset 6, -24
 362              		.cfi_offset 7, -20
 363              		.cfi_offset 8, -16
 364              		.cfi_offset 9, -12
 365              		.cfi_offset 10, -8
 366              		.cfi_offset 14, -4
 336:../../source/src/user/shell/shell.c **** #if CONFIG_ASSERT_DEBUG
 337:../../source/src/user/shell/shell.c **** 	int error;
 338:../../source/src/user/shell/shell.c **** #endif
 339:../../source/src/user/shell/shell.c **** 	(void)para;
 340:../../source/src/user/shell/shell.c **** 	int result;
 341:../../source/src/user/shell/shell.c **** 	task_delete(&TCB_count_init);
 367              		.loc 1 341 0
 368 0170 7648     		ldr	r0, .L83
 369              	.LVL34:
 370 0172 FFF7FEFF 		bl	task_delete
 371              	.LVL35:
 372              	.LBB7:
 373              	.LBB8:
 238:../../source/src/user/shell/shell.c **** 	for(i=0;i<sizeof(resident_command_1)/sizeof(struct command);++i)
 374              		.loc 1 238 0
 375 0176 FFF7FEFF 		bl	__init_command_n_ptr_hash_array
 376              	.LVL36:
 241:../../source/src/user/shell/shell.c **** 	}
 377              		.loc 1 241 0
 378 017a 7548     		ldr	r0, .L83+4
 379 017c FFF7FEFF 		bl	insert_struct_command_1
 380              	.LVL37:
 245:../../source/src/user/shell/shell.c **** 	}
 381              		.loc 1 245 0
 382 0180 7448     		ldr	r0, .L83+8
 383 0182 FFF7FEFF 		bl	insert_struct_command_2
 384              	.LVL38:
 385 0186 7448     		ldr	r0, .L83+12
 386 0188 FFF7FEFF 		bl	insert_struct_command_2
 387              	.LVL39:
 249:../../source/src/user/shell/shell.c **** 	}
 388              		.loc 1 249 0
 389 018c 7348     		ldr	r0, .L83+16
 390 018e FFF7FEFF 		bl	insert_struct_command_3
 391              	.LVL40:
 392 0192 7348     		ldr	r0, .L83+20
 393 0194 FFF7FEFF 		bl	insert_struct_command_3
 394              	.LVL41:
 395 0198 7248     		ldr	r0, .L83+24
 396 019a FFF7FEFF 		bl	insert_struct_command_3
 397              	.LVL42:
 398 019e 724C     		ldr	r4, .L83+28
 399 01a0 04F15405 		add	r5, r4, #84
 400              	.LVL43:
 401              	.L38:
 253:../../source/src/user/shell/shell.c **** 	}
 402              		.loc 1 253 0
 403 01a4 2046     		mov	r0, r4
 404 01a6 0C34     		adds	r4, r4, #12
ARM GAS  G:\Users\Jaxb\AppData\Local\Temp\cccjJPb5.s 			page 15


 405 01a8 FFF7FEFF 		bl	insert_struct_command_4
 406              	.LVL44:
 251:../../source/src/user/shell/shell.c **** 	{
 407              		.loc 1 251 0
 408 01ac AC42     		cmp	r4, r5
 409 01ae F9D1     		bne	.L38
 410              	.LVL45:
 257:../../source/src/user/shell/shell.c **** 	}
 411              		.loc 1 257 0
 412 01b0 6E48     		ldr	r0, .L83+32
 413 01b2 FFF7FEFF 		bl	insert_struct_command_5
 414              	.LVL46:
 415 01b6 6E48     		ldr	r0, .L83+36
 416 01b8 FFF7FEFF 		bl	insert_struct_command_5
 417              	.LVL47:
 418 01bc 6D48     		ldr	r0, .L83+40
 419 01be FFF7FEFF 		bl	insert_struct_command_5
 420              	.LVL48:
 421 01c2 6D48     		ldr	r0, .L83+44
 422 01c4 FFF7FEFF 		bl	insert_struct_command_5
 423              	.LVL49:
 261:../../source/src/user/shell/shell.c **** 	}
 424              		.loc 1 261 0
 425 01c8 6C48     		ldr	r0, .L83+48
 426 01ca FFF7FEFF 		bl	insert_struct_command_6
 427              	.LVL50:
 265:../../source/src/user/shell/shell.c **** 	}
 428              		.loc 1 265 0
 429 01ce 6C48     		ldr	r0, .L83+52
 430 01d0 FFF7FEFF 		bl	insert_struct_command_7
 431              	.LVL51:
 432 01d4 6B48     		ldr	r0, .L83+56
 433 01d6 FFF7FEFF 		bl	insert_struct_command_7
 434              	.LVL52:
 435 01da 6B48     		ldr	r0, .L83+60
 436 01dc FFF7FEFF 		bl	insert_struct_command_7
 437              	.LVL53:
 269:../../source/src/user/shell/shell.c **** 	}
 438              		.loc 1 269 0
 439 01e0 6A48     		ldr	r0, .L83+64
 440 01e2 FFF7FEFF 		bl	insert_struct_command_8
 441              	.LVL54:
 272:../../source/src/user/shell/shell.c **** #else
 442              		.loc 1 272 0
 443 01e6 0122     		movs	r2, #1
 444 01e8 0021     		movs	r1, #0
 445 01ea 6948     		ldr	r0, .L83+68
 446 01ec FFF7FEFF 		bl	init_MCB
 447              	.LVL55:
 276:../../source/src/user/shell/shell.c **** 	index = 0;
 448              		.loc 1 276 0
 449 01f0 20B1     		cbz	r0, .L39
 450 01f2 4FF48A71 		mov	r1, #276
 451 01f6 6748     		ldr	r0, .L83+72
 452              	.LVL56:
 453 01f8 FFF7FEFF 		bl	_ASSERT
 454              	.LVL57:
ARM GAS  G:\Users\Jaxb\AppData\Local\Temp\cccjJPb5.s 			page 16


 455              	.L39:
 277:../../source/src/user/shell/shell.c **** 	index_reserve = 0;
 456              		.loc 1 277 0
 457 01fc 664C     		ldr	r4, .L83+76
 458 01fe 0023     		movs	r3, #0
 278:../../source/src/user/shell/shell.c **** }
 459              		.loc 1 278 0
 460 0200 A046     		mov	r8, r4
 461              	.LBE8:
 462              	.LBE7:
 342:../../source/src/user/shell/shell.c **** 	shell_init();
 343:../../source/src/user/shell/shell.c **** 	ka_printf("%s\n","/*************************");
 463              		.loc 1 343 0
 464 0202 6649     		ldr	r1, .L83+80
 465 0204 6648     		ldr	r0, .L83+84
 466              	.LBB10:
 467              	.LBB9:
 278:../../source/src/user/shell/shell.c **** }
 468              		.loc 1 278 0
 469 0206 48F8043B 		str	r3, [r8], #4
 470              	.LVL58:
 277:../../source/src/user/shell/shell.c **** 	index_reserve = 0;
 471              		.loc 1 277 0
 472 020a C4F89030 		str	r3, [r4, #144]
 473              	.LBE9:
 474              	.LBE10:
 475              		.loc 1 343 0
 476 020e FFF7FEFF 		bl	ka_printf
 477              	.LVL59:
 344:../../source/src/user/shell/shell.c **** 	ka_printf("%s\n","*");
 478              		.loc 1 344 0
 479 0212 6449     		ldr	r1, .L83+88
 480 0214 6248     		ldr	r0, .L83+84
 481 0216 FFF7FEFF 		bl	ka_printf
 482              	.LVL60:
 345:../../source/src/user/shell/shell.c **** 	ka_printf("%s\n","*   kaka_os  shell");
 483              		.loc 1 345 0
 484 021a 6349     		ldr	r1, .L83+92
 485 021c 6048     		ldr	r0, .L83+84
 486 021e FFF7FEFF 		bl	ka_printf
 487              	.LVL61:
 346:../../source/src/user/shell/shell.c **** 	ka_printf("%s\n","*");
 488              		.loc 1 346 0
 489 0222 6049     		ldr	r1, .L83+88
 490 0224 5E48     		ldr	r0, .L83+84
 491 0226 FFF7FEFF 		bl	ka_printf
 492              	.LVL62:
 347:../../source/src/user/shell/shell.c **** 	ka_printf("%s\n","*************************/");
 493              		.loc 1 347 0
 494 022a 6049     		ldr	r1, .L83+96
 495 022c 5C48     		ldr	r0, .L83+84
 496 022e FFF7FEFF 		bl	ka_printf
 497              	.LVL63:
 348:../../source/src/user/shell/shell.c **** 	ka_printf("%s","kaka_os>>");
 498              		.loc 1 348 0
 499 0232 5F49     		ldr	r1, .L83+100
 500 0234 5F48     		ldr	r0, .L83+104
ARM GAS  G:\Users\Jaxb\AppData\Local\Temp\cccjJPb5.s 			page 17


 501 0236 FFF7FEFF 		bl	ka_printf
 502              	.LVL64:
 349:../../source/src/user/shell/shell.c **** 	while(1)
 350:../../source/src/user/shell/shell.c **** 	{
 351:../../source/src/user/shell/shell.c **** #if CONFIG_ASSERT_DEBUG
 352:../../source/src/user/shell/shell.c **** 		error = p(&MCB_for_shell,MCB_FLAG_WAIT,0);
 503              		.loc 1 352 0
 504 023a 0022     		movs	r2, #0
 505 023c 04F19405 		add	r5, r4, #148
 506 0240 2846     		mov	r0, r5
 507 0242 1146     		mov	r1, r2
 353:../../source/src/user/shell/shell.c **** #else
 354:../../source/src/user/shell/shell.c **** 		p(&MCB_for_shell,MCB_FLAG_WAIT,0);
 355:../../source/src/user/shell/shell.c **** #endif
 356:../../source/src/user/shell/shell.c **** 		ASSERT(FUN_EXECUTE_SUCCESSFULLY == error);
 508              		.loc 1 356 0
 509 0244 534F     		ldr	r7, .L83+72
 510              	.LBB11:
 511              	.LBB12:
 325:../../source/src/user/shell/shell.c ****     if(result == 1)
 512              		.loc 1 325 0
 513 0246 04F1B406 		add	r6, r4, #180
 514              	.LBE12:
 515              	.LBE11:
 352:../../source/src/user/shell/shell.c **** #else
 516              		.loc 1 352 0
 517 024a FFF7FEFF 		bl	p
 518              	.LVL65:
 519              		.loc 1 356 0
 520 024e 0028     		cmp	r0, #0
 521 0250 71D1     		bne	.L82
 522              	.LVL66:
 523              	.L40:
 524              	.LBB15:
 525              	.LBB13:
 288:../../source/src/user/shell/shell.c **** 	{
 526              		.loc 1 288 0
 527 0252 94F82C30 		ldrb	r3, [r4, #44]	@ zero_extendqisi2
 285:../../source/src/user/shell/shell.c **** 	unsigned int num = 0;
 528              		.loc 1 285 0
 529 0256 584A     		ldr	r2, .L83+108
 288:../../source/src/user/shell/shell.c **** 	{
 530              		.loc 1 288 0
 531 0258 202B     		cmp	r3, #32
 532 025a 03D1     		bne	.L41
 533              	.LVL67:
 534              	.L42:
 535 025c 12F8013F 		ldrb	r3, [r2, #1]!	@ zero_extendqisi2
 536              	.LVL68:
 537 0260 202B     		cmp	r3, #32
 538 0262 FBD0     		beq	.L42
 539              	.LVL69:
 540              	.L41:
 292:../../source/src/user/shell/shell.c **** 	{
 541              		.loc 1 292 0
 542 0264 0D2B     		cmp	r3, #13
 543 0266 56D0     		beq	.L44
ARM GAS  G:\Users\Jaxb\AppData\Local\Temp\cccjJPb5.s 			page 18


 544 0268 0A2B     		cmp	r3, #10
 545 026a 54D0     		beq	.L44
 546              	.LVL70:
 296:../../source/src/user/shell/shell.c **** 	while((0x0d != *ptr) && (0x0a != *ptr))
 547              		.loc 1 296 0
 548 026c C4F8B420 		str	r2, [r4, #180]
 549 0270 1078     		ldrb	r0, [r2]	@ zero_extendqisi2
 550 0272 4FF00109 		mov	r9, #1
 306:../../source/src/user/shell/shell.c **** 			++ptr;
 551              		.loc 1 306 0
 552 0276 4FF0000C 		mov	ip, #0
 553 027a 01E0     		b	.L46
 554              	.LVL71:
 555              	.L47:
 315:../../source/src/user/shell/shell.c **** 				{
 556              		.loc 1 315 0
 557 027c 1846     		mov	r0, r3
 558 027e 0A46     		mov	r2, r1
 559              	.LVL72:
 560              	.L46:
 297:../../source/src/user/shell/shell.c **** 	{
 561              		.loc 1 297 0
 562 0280 0D28     		cmp	r0, #13
 563 0282 1DD0     		beq	.L53
 564 0284 0A28     		cmp	r0, #10
 565 0286 1BD0     		beq	.L53
 299:../../source/src/user/shell/shell.c **** 		{
 566              		.loc 1 299 0
 567 0288 2028     		cmp	r0, #32
 568 028a 02F10101 		add	r1, r2, #1
 569 028e 5378     		ldrb	r3, [r2, #1]	@ zero_extendqisi2
 570 0290 F4D1     		bne	.L47
 308:../../source/src/user/shell/shell.c **** 			{
 571              		.loc 1 308 0
 572 0292 202B     		cmp	r3, #32
 306:../../source/src/user/shell/shell.c **** 			++ptr;
 573              		.loc 1 306 0
 574 0294 82F800C0 		strb	ip, [r2]
 308:../../source/src/user/shell/shell.c **** 			{
 575              		.loc 1 308 0
 576 0298 03D1     		bne	.L48
 577              	.L49:
 578              	.LVL73:
 579 029a 11F8013F 		ldrb	r3, [r1, #1]!	@ zero_extendqisi2
 580              	.LVL74:
 581 029e 202B     		cmp	r3, #32
 582 02a0 FBD0     		beq	.L49
 583              	.LVL75:
 584              	.L48:
 312:../../source/src/user/shell/shell.c **** 			{
 585              		.loc 1 312 0
 586 02a2 0D2B     		cmp	r3, #13
 587 02a4 0AD0     		beq	.L50
 588 02a6 0A2B     		cmp	r3, #10
 589 02a8 08D0     		beq	.L50
 314:../../source/src/user/shell/shell.c **** 				if(ARGV_SIZE+1 == num)
 590              		.loc 1 314 0
ARM GAS  G:\Users\Jaxb\AppData\Local\Temp\cccjJPb5.s 			page 19


 591 02aa 04EB8903 		add	r3, r4, r9, lsl #2
 592 02ae 09F10109 		add	r9, r9, #1
 593              	.LVL76:
 315:../../source/src/user/shell/shell.c **** 				{
 594              		.loc 1 315 0
 595 02b2 B9F10B0F 		cmp	r9, #11
 314:../../source/src/user/shell/shell.c **** 				if(ARGV_SIZE+1 == num)
 596              		.loc 1 314 0
 597 02b6 C3F8B410 		str	r1, [r3, #180]
 315:../../source/src/user/shell/shell.c **** 				{
 598              		.loc 1 315 0
 599 02ba 42D0     		beq	.L52
 600              	.L50:
 601 02bc 0B78     		ldrb	r3, [r1]	@ zero_extendqisi2
 602 02be DDE7     		b	.L47
 603              	.L53:
 323:../../source/src/user/shell/shell.c **** 		
 604              		.loc 1 323 0
 605 02c0 0023     		movs	r3, #0
 325:../../source/src/user/shell/shell.c ****     if(result == 1)
 606              		.loc 1 325 0
 607 02c2 D4F8B400 		ldr	r0, [r4, #180]
 323:../../source/src/user/shell/shell.c **** 		
 608              		.loc 1 323 0
 609 02c6 1370     		strb	r3, [r2]
 325:../../source/src/user/shell/shell.c ****     if(result == 1)
 610              		.loc 1 325 0
 611 02c8 FFF7FEFF 		bl	ka_strlen
 612              	.LVL77:
 613 02cc FFF7FEFF 		bl	get_command_processer
 614              	.LVL78:
 615 02d0 3146     		mov	r1, r6
 616 02d2 0246     		mov	r2, r0
 617 02d4 4846     		mov	r0, r9
 618 02d6 FFF7FEFF 		bl	match_and_execute_command
 619              	.LVL79:
 326:../../source/src/user/shell/shell.c ****     {
 620              		.loc 1 326 0
 621 02da 0128     		cmp	r0, #1
 622 02dc 1BD0     		beq	.L44
 623              	.LVL80:
 624              	.LBE13:
 625              	.LBE15:
 357:../../source/src/user/shell/shell.c **** 		result = process(buffer);
 358:../../source/src/user/shell/shell.c **** 		if(0 != result)
 626              		.loc 1 358 0
 627 02de B9F1000F 		cmp	r9, #0
 628 02e2 18D0     		beq	.L44
 629              	.LBB16:
 359:../../source/src/user/shell/shell.c **** 		{
 360:../../source/src/user/shell/shell.c **** 			ka_memcpy(buffer_reserve,buffer,index);
 630              		.loc 1 360 0
 631 02e4 3449     		ldr	r1, .L83+108
 632 02e6 D4F89020 		ldr	r2, [r4, #144]
 633 02ea 01F1B000 		add	r0, r1, #176
 361:../../source/src/user/shell/shell.c **** 			ka_memcpy(argv_reserve,argv,result*sizeof(char *));
 634              		.loc 1 361 0
ARM GAS  G:\Users\Jaxb\AppData\Local\Temp\cccjJPb5.s 			page 20


 635 02ee 4FEA890A 		lsl	r10, r9, #2
 360:../../source/src/user/shell/shell.c **** 			ka_memcpy(argv_reserve,argv,result*sizeof(char *));
 636              		.loc 1 360 0
 637 02f2 FFF7FEFF 		bl	ka_memcpy
 638              	.LVL81:
 639              		.loc 1 361 0
 640 02f6 3146     		mov	r1, r6
 641 02f8 5246     		mov	r2, r10
 642 02fa 3048     		ldr	r0, .L83+112
 643 02fc FFF7FEFF 		bl	ka_memcpy
 644              	.LVL82:
 645 0300 2E4B     		ldr	r3, .L83+112
 646 0302 08EB0A01 		add	r1, r8, r10
 647              	.LVL83:
 648              	.L55:
 362:../../source/src/user/shell/shell.c **** 			unsigned int i;
 363:../../source/src/user/shell/shell.c **** 			unsigned int buf = (unsigned int)buffer_reserve - (unsigned int)buffer;
 364:../../source/src/user/shell/shell.c **** 			for(i=0;i<result;++i)
 365:../../source/src/user/shell/shell.c **** 			{
 366:../../source/src/user/shell/shell.c **** 				argv_reserve[i] += buf;
 649              		.loc 1 366 0 discriminator 3
 650 0306 1A68     		ldr	r2, [r3]
 651 0308 B032     		adds	r2, r2, #176
 652 030a 43F8042B 		str	r2, [r3], #4
 364:../../source/src/user/shell/shell.c **** 			{
 653              		.loc 1 364 0 discriminator 3
 654 030e 8B42     		cmp	r3, r1
 655 0310 F9D1     		bne	.L55
 367:../../source/src/user/shell/shell.c **** 			}
 368:../../source/src/user/shell/shell.c **** 			index_reserve = result;
 656              		.loc 1 368 0
 657 0312 C4F80090 		str	r9, [r4]
 658              	.LVL84:
 659              	.L44:
 660              	.LBE16:
 369:../../source/src/user/shell/shell.c **** 		}
 370:../../source/src/user/shell/shell.c **** 		index = 0;
 661              		.loc 1 370 0
 662 0316 0023     		movs	r3, #0
 371:../../source/src/user/shell/shell.c **** 		buffer[0] = '\0';
 372:../../source/src/user/shell/shell.c **** 		ka_printf("%s","kaka_os>>");
 663              		.loc 1 372 0
 664 0318 2549     		ldr	r1, .L83+100
 665 031a 2648     		ldr	r0, .L83+104
 370:../../source/src/user/shell/shell.c **** 		buffer[0] = '\0';
 666              		.loc 1 370 0
 667 031c C4F89030 		str	r3, [r4, #144]
 371:../../source/src/user/shell/shell.c **** 		buffer[0] = '\0';
 668              		.loc 1 371 0
 669 0320 84F82C30 		strb	r3, [r4, #44]
 670              		.loc 1 372 0
 671 0324 FFF7FEFF 		bl	ka_printf
 672              	.LVL85:
 352:../../source/src/user/shell/shell.c **** #else
 673              		.loc 1 352 0
 674 0328 0022     		movs	r2, #0
 675 032a 2846     		mov	r0, r5
ARM GAS  G:\Users\Jaxb\AppData\Local\Temp\cccjJPb5.s 			page 21


 676 032c 1146     		mov	r1, r2
 677 032e FFF7FEFF 		bl	p
 678              	.LVL86:
 356:../../source/src/user/shell/shell.c **** 		result = process(buffer);
 679              		.loc 1 356 0
 680 0332 0028     		cmp	r0, #0
 681 0334 8DD0     		beq	.L40
 682              	.L82:
 356:../../source/src/user/shell/shell.c **** 		result = process(buffer);
 683              		.loc 1 356 0 is_stmt 0 discriminator 1
 684 0336 4FF4B271 		mov	r1, #356
 685 033a 3846     		mov	r0, r7
 686              	.LVL87:
 687 033c FFF7FEFF 		bl	_ASSERT
 688              	.LVL88:
 689 0340 87E7     		b	.L40
 690              	.LVL89:
 691              	.L52:
 692              	.LBB17:
 693              	.LBB14:
 317:../../source/src/user/shell/shell.c **** 					return 0;
 694              		.loc 1 317 0 is_stmt 1
 695 0342 1F48     		ldr	r0, .L83+116
 696 0344 FFF7FEFF 		bl	ka_printf
 697              	.LVL90:
 698 0348 E5E7     		b	.L44
 699              	.L84:
 700 034a 00BF     		.align	2
 701              	.L83:
 702 034c 00000000 		.word	TCB_count_init
 703 0350 00000000 		.word	.LANCHOR1
 704 0354 0C000000 		.word	.LANCHOR1+12
 705 0358 18000000 		.word	.LANCHOR1+24
 706 035c 24000000 		.word	.LANCHOR1+36
 707 0360 30000000 		.word	.LANCHOR1+48
 708 0364 3C000000 		.word	.LANCHOR1+60
 709 0368 48000000 		.word	.LANCHOR1+72
 710 036c 9C000000 		.word	.LANCHOR1+156
 711 0370 A8000000 		.word	.LANCHOR1+168
 712 0374 B4000000 		.word	.LANCHOR1+180
 713 0378 C0000000 		.word	.LANCHOR1+192
 714 037c CC000000 		.word	.LANCHOR1+204
 715 0380 D8000000 		.word	.LANCHOR1+216
 716 0384 E4000000 		.word	.LANCHOR1+228
 717 0388 F0000000 		.word	.LANCHOR1+240
 718 038c FC000000 		.word	.LANCHOR1+252
 719 0390 94000000 		.word	.LANCHOR0+148
 720 0394 00000000 		.word	.LC0
 721 0398 00000000 		.word	.LANCHOR0
 722 039c 78000000 		.word	.LC6
 723 03a0 94000000 		.word	.LC7
 724 03a4 98000000 		.word	.LC8
 725 03a8 9C000000 		.word	.LC9
 726 03ac B0000000 		.word	.LC10
 727 03b0 CC000000 		.word	.LC11
 728 03b4 44000000 		.word	.LC3
 729 03b8 2C000000 		.word	.LANCHOR0+44
ARM GAS  G:\Users\Jaxb\AppData\Local\Temp\cccjJPb5.s 			page 22


 730 03bc 04000000 		.word	.LANCHOR0+4
 731 03c0 D8000000 		.word	.LC12
 732              	.LBE14:
 733              	.LBE17:
 734              		.cfi_endproc
 735              	.LFE18:
 736              		.size	shell, .-shell
 737              		.data
 738              		.align	2
 739              		.set	.LANCHOR1,. + 0
 740              		.type	resident_command_1, %object
 741              		.size	resident_command_1, 12
 742              	resident_command_1:
 743 0000 84010000 		.word	.LC34
 744 0004 00000000 		.word	redo
 745 0008 00000000 		.space	4
 746              		.type	resident_command_2, %object
 747              		.size	resident_command_2, 24
 748              	resident_command_2:
 749 000c 7C010000 		.word	.LC32
 750 0010 00000000 		.word	test
 751 0014 00000000 		.space	4
 752 0018 80010000 		.word	.LC33
 753 001c 00000000 		.word	shell_memory
 754 0020 00000000 		.space	4
 755              		.type	resident_command_3, %object
 756              		.size	resident_command_3, 36
 757              	resident_command_3:
 758 0024 70010000 		.word	.LC29
 759 0028 00000000 		.word	shell_debug_run
 760 002c 00000000 		.space	4
 761 0030 74010000 		.word	.LC30
 762 0034 00000000 		.word	shell_set
 763 0038 00000000 		.space	4
 764 003c 78010000 		.word	.LC31
 765 0040 00000000 		.word	shell_TCB_check
 766 0044 00000000 		.space	4
 767              		.type	resident_command_4, %object
 768              		.size	resident_command_4, 84
 769              	resident_command_4:
 770 0048 38010000 		.word	.LC22
 771 004c 00000000 		.word	shell_time
 772 0050 00000000 		.space	4
 773 0054 40010000 		.word	.LC23
 774 0058 00000000 		.word	shell_check_kmem
 775 005c 00000000 		.space	4
 776 0060 48010000 		.word	.LC24
 777 0064 00000000 		.word	shell_check_slab
 778 0068 00000000 		.space	4
 779 006c 50010000 		.word	.LC25
 780 0070 00000000 		.word	shell_debug_next
 781 0074 00000000 		.space	4
 782 0078 58010000 		.word	.LC26
 783 007c 00000000 		.word	shell_debug_stop
 784 0080 00000000 		.space	4
 785 0084 60010000 		.word	.LC27
 786 0088 00000000 		.word	shell_echo
ARM GAS  G:\Users\Jaxb\AppData\Local\Temp\cccjJPb5.s 			page 23


 787 008c 00000000 		.space	4
 788 0090 68010000 		.word	.LC28
 789 0094 00000000 		.word	shell_addr
 790 0098 00000000 		.space	4
 791              		.type	resident_command_5, %object
 792              		.size	resident_command_5, 48
 793              	resident_command_5:
 794 009c 18010000 		.word	.LC18
 795 00a0 00000000 		.word	shell_stack_check
 796 00a4 00000000 		.space	4
 797 00a8 20010000 		.word	.LC19
 798 00ac 00000000 		.word	shell_clear
 799 00b0 00000000 		.space	4
 800 00b4 28010000 		.word	.LC20
 801 00b8 00000000 		.word	shell_buddy_debug
 802 00bc 00000000 		.space	4
 803 00c0 30010000 		.word	.LC21
 804 00c4 00000000 		.word	shell_sleep
 805 00c8 00000000 		.space	4
 806              		.type	resident_command_6, %object
 807              		.size	resident_command_6, 12
 808              	resident_command_6:
 809 00cc 10010000 		.word	.LC17
 810 00d0 00000000 		.word	shell_reboot
 811 00d4 00000000 		.space	4
 812              		.type	resident_command_7, %object
 813              		.size	resident_command_7, 36
 814              	resident_command_7:
 815 00d8 F8000000 		.word	.LC14
 816 00dc 00000000 		.word	shell_version
 817 00e0 00000000 		.space	4
 818 00e4 00010000 		.word	.LC15
 819 00e8 00000000 		.word	shell_debug_info
 820 00ec 00000000 		.space	4
 821 00f0 08010000 		.word	.LC16
 822 00f4 00000000 		.word	shell_show_tasks_registers
 823 00f8 00000000 		.space	4
 824              		.type	resident_command_8, %object
 825              		.size	resident_command_8, 12
 826              	resident_command_8:
 827 00fc EC000000 		.word	.LC13
 828 0100 00000000 		.word	shell_shutdown
 829 0104 00000000 		.space	4
 830              		.bss
 831              		.align	2
 832              		.set	.LANCHOR0,. + 0
 833              		.type	index_reserve, %object
 834              		.size	index_reserve, 4
 835              	index_reserve:
 836 0000 00000000 		.space	4
 837              		.type	argv_reserve, %object
 838              		.size	argv_reserve, 40
 839              	argv_reserve:
 840 0004 00000000 		.space	40
 840      00000000 
 840      00000000 
 840      00000000 
ARM GAS  G:\Users\Jaxb\AppData\Local\Temp\cccjJPb5.s 			page 24


 840      00000000 
 841              		.type	buffer, %object
 842              		.size	buffer, 100
 843              	buffer:
 844 002c 00000000 		.space	100
 844      00000000 
 844      00000000 
 844      00000000 
 844      00000000 
 845              		.type	index, %object
 846              		.size	index, 4
 847              	index:
 848 0090 00000000 		.space	4
 849              		.type	MCB_for_shell, %object
 850              		.size	MCB_for_shell, 32
 851              	MCB_for_shell:
 852 0094 00000000 		.space	32
 852      00000000 
 852      00000000 
 852      00000000 
 852      00000000 
 853              		.type	argv, %object
 854              		.size	argv, 40
 855              	argv:
 856 00b4 00000000 		.space	40
 856      00000000 
 856      00000000 
 856      00000000 
 856      00000000 
 857              		.type	buffer_reserve, %object
 858              		.size	buffer_reserve, 100
 859              	buffer_reserve:
 860 00dc 00000000 		.space	100
 860      00000000 
 860      00000000 
 860      00000000 
 860      00000000 
 861              		.section	.rodata.str1.4,"aMS",%progbits,1
 862              		.align	2
 863              	.LC0:
 864 0000 2E2E2F2E 		.ascii	"../../source/src/user/shell/shell.c\000"
 864      2E2F736F 
 864      75726365 
 864      2F737263 
 864      2F757365 
 865              	.LC1:
 866 0024 7265646F 		.ascii	"redo command: \000"
 866      20636F6D 
 866      6D616E64 
 866      3A2000
 867 0033 00       		.space	1
 868              	.LC2:
 869 0034 0A657272 		.ascii	"\012error input\012\000"
 869      6F722069 
 869      6E707574 
 869      0A00
 870 0042 0000     		.space	2
ARM GAS  G:\Users\Jaxb\AppData\Local\Temp\cccjJPb5.s 			page 25


 871              	.LC3:
 872 0044 257300   		.ascii	"%s\000"
 873 0047 00       		.space	1
 874              	.LC4:
 875 0048 200800   		.ascii	" \010\000"
 876 004b 00       		.space	1
 877              	.LC5:
 878 004c 0A746F6F 		.ascii	"\012too long,invalid input,clear buffer...\012\000"
 878      206C6F6E 
 878      672C696E 
 878      76616C69 
 878      6420696E 
 879 0075 000000   		.space	3
 880              	.LC6:
 881 0078 2F2A2A2A 		.ascii	"/*************************\000"
 881      2A2A2A2A 
 881      2A2A2A2A 
 881      2A2A2A2A 
 881      2A2A2A2A 
 882 0093 00       		.space	1
 883              	.LC7:
 884 0094 25730A00 		.ascii	"%s\012\000"
 885              	.LC8:
 886 0098 2A00     		.ascii	"*\000"
 887 009a 0000     		.space	2
 888              	.LC9:
 889 009c 2A202020 		.ascii	"*   kaka_os  shell\000"
 889      6B616B61 
 889      5F6F7320 
 889      20736865 
 889      6C6C00
 890 00af 00       		.space	1
 891              	.LC10:
 892 00b0 2A2A2A2A 		.ascii	"*************************/\000"
 892      2A2A2A2A 
 892      2A2A2A2A 
 892      2A2A2A2A 
 892      2A2A2A2A 
 893 00cb 00       		.space	1
 894              	.LC11:
 895 00cc 6B616B61 		.ascii	"kaka_os>>\000"
 895      5F6F733E 
 895      3E00
 896 00d6 0000     		.space	2
 897              	.LC12:
 898 00d8 746F6F20 		.ascii	"too many argument\012\000"
 898      6D616E79 
 898      20617267 
 898      756D656E 
 898      740A00
 899 00eb 00       		.space	1
 900              	.LC13:
 901 00ec 73687574 		.ascii	"shutdown\000"
 901      646F776E 
 901      00
 902 00f5 000000   		.space	3
 903              	.LC14:
ARM GAS  G:\Users\Jaxb\AppData\Local\Temp\cccjJPb5.s 			page 26


 904 00f8 76657273 		.ascii	"version\000"
 904      696F6E00 
 905              	.LC15:
 906 0100 64656269 		.ascii	"debinfo\000"
 906      6E666F00 
 907              	.LC16:
 908 0108 73686F77 		.ascii	"showreg\000"
 908      72656700 
 909              	.LC17:
 910 0110 7265626F 		.ascii	"reboot\000"
 910      6F7400
 911 0117 00       		.space	1
 912              	.LC18:
 913 0118 73746163 		.ascii	"stack\000"
 913      6B00
 914 011e 0000     		.space	2
 915              	.LC19:
 916 0120 636C6561 		.ascii	"clear\000"
 916      7200
 917 0126 0000     		.space	2
 918              	.LC20:
 919 0128 62756464 		.ascii	"buddy\000"
 919      7900
 920 012e 0000     		.space	2
 921              	.LC21:
 922 0130 736C6565 		.ascii	"sleep\000"
 922      7000
 923 0136 0000     		.space	2
 924              	.LC22:
 925 0138 74696D65 		.ascii	"time\000"
 925      00
 926 013d 000000   		.space	3
 927              	.LC23:
 928 0140 6B6D656D 		.ascii	"kmem\000"
 928      00
 929 0145 000000   		.space	3
 930              	.LC24:
 931 0148 736C6162 		.ascii	"slab\000"
 931      00
 932 014d 000000   		.space	3
 933              	.LC25:
 934 0150 6E657874 		.ascii	"next\000"
 934      00
 935 0155 000000   		.space	3
 936              	.LC26:
 937 0158 73746F70 		.ascii	"stop\000"
 937      00
 938 015d 000000   		.space	3
 939              	.LC27:
 940 0160 6563686F 		.ascii	"echo\000"
 940      00
 941 0165 000000   		.space	3
 942              	.LC28:
 943 0168 61646472 		.ascii	"addr\000"
 943      00
 944 016d 000000   		.space	3
 945              	.LC29:
ARM GAS  G:\Users\Jaxb\AppData\Local\Temp\cccjJPb5.s 			page 27


 946 0170 72756E00 		.ascii	"run\000"
 947              	.LC30:
 948 0174 73657400 		.ascii	"set\000"
 949              	.LC31:
 950 0178 74636200 		.ascii	"tcb\000"
 951              	.LC32:
 952 017c 6B6100   		.ascii	"ka\000"
 953 017f 00       		.space	1
 954              	.LC33:
 955 0180 6D6D00   		.ascii	"mm\000"
 956 0183 00       		.space	1
 957              	.LC34:
 958 0184 7200     		.ascii	"r\000"
 959              		.text
 960              	.Letext0:
 961              		.file 2 "../../source/include/os_lib/singly_linked_list.h"
 962              		.file 3 "../../source/include/shell/command_processor.h"
 963              		.file 4 "../../source/include/os_cpu/kakaosstdint.h"
 964              		.file 5 "../../source/include/os_lib/double_linked_list.h"
 965              		.file 6 "../../source/include/os_core/task_state.h"
 966              		.file 7 "../../source/include/os_core/TCB.h"
 967              		.file 8 "../../source/include/os_lib/insert_sort_oo.h"
 968              		.file 9 "../../source/include/os_core/MCB.h"
 969              		.file 10 "../../source/include/os_lib/myMicroLIB.h"
 970              		.file 11 "../../source/include/os_lib/myassert.h"