ARM GAS  G:\Users\Jaxb\AppData\Local\Temp\ccdq8815.s 			page 1


   1              		.cpu cortex-m3
   2              		.eabi_attribute 20, 1
   3              		.eabi_attribute 21, 1
   4              		.eabi_attribute 23, 3
   5              		.eabi_attribute 24, 1
   6              		.eabi_attribute 25, 1
   7              		.eabi_attribute 26, 1
   8              		.eabi_attribute 30, 6
   9              		.eabi_attribute 34, 1
  10              		.eabi_attribute 18, 4
  11              		.file	"shell.c"
  12              		.text
  13              	.Ltext0:
  14              		.cfi_sections	.debug_frame
  15              		.bss
  16              		.align	2
  17              	MCB_for_shell:
  18 0000 00000000 		.space	32
  18      00000000 
  18      00000000 
  18      00000000 
  18      00000000 
  19              		.size	MCB_for_shell, 32
  20              		.align	2
  21              	main_shell_buffer:
  22 0020 00000000 		.space	96
  22      00000000 
  22      00000000 
  22      00000000 
  22      00000000 
  23              		.size	main_shell_buffer, 96
  24              		.align	2
  25              	main_buffer:
  26 0080 00000000 		.space	100
  26      00000000 
  26      00000000 
  26      00000000 
  26      00000000 
  27              		.size	main_buffer, 100
  28              		.align	2
  29              	main_buffer_reserve:
  30 00e4 00000000 		.space	100
  30      00000000 
  30      00000000 
  30      00000000 
  30      00000000 
  31              		.size	main_buffer_reserve, 100
  32              		.align	2
  33              	using_shell_buffer_ptr:
  34 0148 00000000 		.space	4
  35              		.size	using_shell_buffer_ptr, 4
  36              		.text
  37              		.align	1
  38              		.syntax unified
  39              		.thumb
  40              		.thumb_func
  41              		.fpu softvfp
ARM GAS  G:\Users\Jaxb\AppData\Local\Temp\ccdq8815.s 			page 2


  42              		.type	clear_input_buffer, %function
  43              	clear_input_buffer:
  44              	.LFB14:
  45              		.file 1 "../../source/src/kernel/SHELL/shell.c"
   1:../../source/src/kernel/SHELL/shell.c **** #include <myMicroLIB.h>
   2:../../source/src/kernel/SHELL/shell.c **** #include <command_processor.h>
   3:../../source/src/kernel/SHELL/shell.c **** #include <MCB.h>
   4:../../source/src/kernel/SHELL/shell.c **** #include <myassert.h>
   5:../../source/src/kernel/SHELL/shell.c **** #include <shell_fun.h>
   6:../../source/src/kernel/SHELL/shell.c **** #include <TCB.h>
   7:../../source/src/kernel/SHELL/shell.c **** #include <slab.h>
   8:../../source/src/kernel/SHELL/shell.c **** #include <shell_debug.h>
   9:../../source/src/kernel/SHELL/shell.c **** #include <shell.h>
  10:../../source/src/kernel/SHELL/shell.c **** #include <buddy.h>
  11:../../source/src/kernel/SHELL/shell.c **** #include <os_ready.h>
  12:../../source/src/kernel/SHELL/shell.c **** #include <os_TCB_list.h>
  13:../../source/src/kernel/SHELL/shell.c **** #include <os_cpu.h>
  14:../../source/src/kernel/SHELL/shell.c **** #include <export.h>
  15:../../source/src/kernel/SHELL/shell.c **** 
  16:../../source/src/kernel/SHELL/shell.c **** #if CONFIG_SHELL_EN
  17:../../source/src/kernel/SHELL/shell.c **** 
  18:../../source/src/kernel/SHELL/shell.c **** static MCB MCB_for_shell;
  19:../../source/src/kernel/SHELL/shell.c **** 
  20:../../source/src/kernel/SHELL/shell.c **** static struct shell_buffer main_shell_buffer;
  21:../../source/src/kernel/SHELL/shell.c **** static char main_buffer[BUFFER_SIZE];
  22:../../source/src/kernel/SHELL/shell.c **** static char main_buffer_reserve[BUFFER_SIZE];
  23:../../source/src/kernel/SHELL/shell.c **** 
  24:../../source/src/kernel/SHELL/shell.c **** static struct shell_buffer *using_shell_buffer_ptr = NULL;
  25:../../source/src/kernel/SHELL/shell.c **** 
  26:../../source/src/kernel/SHELL/shell.c **** static inline void clear_input_buffer(void)
  27:../../source/src/kernel/SHELL/shell.c **** {
  46              		.loc 1 27 0
  47              		.cfi_startproc
  48              		@ args = 0, pretend = 0, frame = 0
  49              		@ frame_needed = 1, uses_anonymous_args = 0
  50              		@ link register save eliminated.
  51 0000 80B4     		push	{r7}
  52              	.LCFI0:
  53              		.cfi_def_cfa_offset 4
  54              		.cfi_offset 7, -4
  55 0002 00AF     		add	r7, sp, #0
  56              	.LCFI1:
  57              		.cfi_def_cfa_register 7
  28:../../source/src/kernel/SHELL/shell.c **** 	using_shell_buffer_ptr->index = 0;
  58              		.loc 1 28 0
  59 0004 064B     		ldr	r3, .L2
  60 0006 1B68     		ldr	r3, [r3]
  61 0008 0022     		movs	r2, #0
  62 000a 9A65     		str	r2, [r3, #88]
  29:../../source/src/kernel/SHELL/shell.c **** 	using_shell_buffer_ptr->buffer[0] = '\0';
  63              		.loc 1 29 0
  64 000c 044B     		ldr	r3, .L2
  65 000e 1B68     		ldr	r3, [r3]
  66 0010 1B6D     		ldr	r3, [r3, #80]
  67 0012 0022     		movs	r2, #0
  68 0014 1A70     		strb	r2, [r3]
  30:../../source/src/kernel/SHELL/shell.c **** }
ARM GAS  G:\Users\Jaxb\AppData\Local\Temp\ccdq8815.s 			page 3


  69              		.loc 1 30 0
  70 0016 00BF     		nop
  71 0018 BD46     		mov	sp, r7
  72              	.LCFI2:
  73              		.cfi_def_cfa_register 13
  74              		@ sp needed
  75 001a 80BC     		pop	{r7}
  76              	.LCFI3:
  77              		.cfi_restore 7
  78              		.cfi_def_cfa_offset 0
  79 001c 7047     		bx	lr
  80              	.L3:
  81 001e 00BF     		.align	2
  82              	.L2:
  83 0020 48010000 		.word	using_shell_buffer_ptr
  84              		.cfi_endproc
  85              	.LFE14:
  86              		.size	clear_input_buffer, .-clear_input_buffer
  87              		.section	.rodata
  88              		.align	2
  89              	.LC0:
  90 0000 2E2E2F2E 		.ascii	"../../source/src/kernel/SHELL/shell.c\000"
  90      2E2F736F 
  90      75726365 
  90      2F737263 
  90      2F6B6572 
  91 0026 0000     		.align	2
  92              	.LC1:
  93 0028 6572726F 		.ascii	"error fun name : shell_buffer_wait_str\012error par"
  93      72206675 
  93      6E206E61 
  93      6D65203A 
  93      20736865 
  94 0058 61203A20 		.ascii	"a : str_ptr\012\000"
  94      7374725F 
  94      7074720A 
  94      00
  95 0065 000000   		.align	2
  96              	.LC2:
  97 0068 77726F6E 		.ascii	"wrong input\012\000"
  97      6720696E 
  97      7075740A 
  97      00
  98              		.text
  99              		.align	1
 100              		.global	shell_buffer_wait_str
 101              		.syntax unified
 102              		.thumb
 103              		.thumb_func
 104              		.fpu softvfp
 105              		.type	shell_buffer_wait_str, %function
 106              	shell_buffer_wait_str:
 107              	.LFB15:
  31:../../source/src/kernel/SHELL/shell.c **** 
  32:../../source/src/kernel/SHELL/shell.c **** void shell_buffer_wait_str(const char *str_ptr) // thread will going to sleep
  33:../../source/src/kernel/SHELL/shell.c **** {
 108              		.loc 1 33 0
ARM GAS  G:\Users\Jaxb\AppData\Local\Temp\ccdq8815.s 			page 4


 109              		.cfi_startproc
 110              		@ args = 0, pretend = 0, frame = 16
 111              		@ frame_needed = 1, uses_anonymous_args = 0
 112 0024 90B5     		push	{r4, r7, lr}
 113              	.LCFI4:
 114              		.cfi_def_cfa_offset 12
 115              		.cfi_offset 4, -12
 116              		.cfi_offset 7, -8
 117              		.cfi_offset 14, -4
 118 0026 85B0     		sub	sp, sp, #20
 119              	.LCFI5:
 120              		.cfi_def_cfa_offset 32
 121 0028 00AF     		add	r7, sp, #0
 122              	.LCFI6:
 123              		.cfi_def_cfa_register 7
 124 002a 7860     		str	r0, [r7, #4]
  34:../../source/src/kernel/SHELL/shell.c **** 	ASSERT(NULL != str_ptr);
 125              		.loc 1 34 0
 126 002c 7B68     		ldr	r3, [r7, #4]
 127 002e 002B     		cmp	r3, #0
 128 0030 03D1     		bne	.L5
 129              		.loc 1 34 0 is_stmt 0 discriminator 1
 130 0032 2221     		movs	r1, #34
 131 0034 1748     		ldr	r0, .L11
 132 0036 FFF7FEFF 		bl	_ASSERT
 133              	.L5:
  35:../../source/src/kernel/SHELL/shell.c **** #if CONFIG_PARA_CHECK	
  36:../../source/src/kernel/SHELL/shell.c **** 	if(NULL == str_ptr)
 134              		.loc 1 36 0 is_stmt 1
 135 003a 7B68     		ldr	r3, [r7, #4]
 136 003c 002B     		cmp	r3, #0
 137 003e 03D1     		bne	.L6
  37:../../source/src/kernel/SHELL/shell.c **** 	{
  38:../../source/src/kernel/SHELL/shell.c **** 		OS_ERROR_PARA_MESSAGE_DISPLAY(shell_buffer_wait_str,str_ptr);
 138              		.loc 1 38 0
 139 0040 1548     		ldr	r0, .L11+4
 140 0042 FFF7FEFF 		bl	ka_printf
  39:../../source/src/kernel/SHELL/shell.c **** 		return ;
 141              		.loc 1 39 0
 142 0046 22E0     		b	.L4
 143              	.L6:
  40:../../source/src/kernel/SHELL/shell.c **** 	}
  41:../../source/src/kernel/SHELL/shell.c **** #endif
  42:../../source/src/kernel/SHELL/shell.c **** #if CONFIG_ASSERT_DEBUG
  43:../../source/src/kernel/SHELL/shell.c **** 	int error;
  44:../../source/src/kernel/SHELL/shell.c **** #endif
  45:../../source/src/kernel/SHELL/shell.c **** 	while(1)
  46:../../source/src/kernel/SHELL/shell.c **** 	{
  47:../../source/src/kernel/SHELL/shell.c **** #if CONFIG_ASSERT_DEBUG
  48:../../source/src/kernel/SHELL/shell.c **** 		error = p(&MCB_for_shell,MCB_FLAG_WAIT,0);
 144              		.loc 1 48 0
 145 0048 0022     		movs	r2, #0
 146 004a 0021     		movs	r1, #0
 147 004c 1348     		ldr	r0, .L11+8
 148 004e FFF7FEFF 		bl	p
 149 0052 F860     		str	r0, [r7, #12]
  49:../../source/src/kernel/SHELL/shell.c **** #else
ARM GAS  G:\Users\Jaxb\AppData\Local\Temp\ccdq8815.s 			page 5


  50:../../source/src/kernel/SHELL/shell.c **** 		p(&MCB_for_shell,MCB_FLAG_WAIT,0);
  51:../../source/src/kernel/SHELL/shell.c **** #endif
  52:../../source/src/kernel/SHELL/shell.c **** 		ASSERT(FUN_EXECUTE_SUCCESSFULLY == error);
 150              		.loc 1 52 0
 151 0054 FB68     		ldr	r3, [r7, #12]
 152 0056 002B     		cmp	r3, #0
 153 0058 03D0     		beq	.L8
 154              		.loc 1 52 0 is_stmt 0 discriminator 1
 155 005a 3421     		movs	r1, #52
 156 005c 0D48     		ldr	r0, .L11
 157 005e FFF7FEFF 		bl	_ASSERT
 158              	.L8:
  53:../../source/src/kernel/SHELL/shell.c **** 		if(0 == ka_strncmp(using_shell_buffer_ptr->buffer,str_ptr,ka_strlen(str_ptr)))
 159              		.loc 1 53 0 is_stmt 1
 160 0062 0F4B     		ldr	r3, .L11+12
 161 0064 1B68     		ldr	r3, [r3]
 162 0066 1C6D     		ldr	r4, [r3, #80]
 163 0068 7868     		ldr	r0, [r7, #4]
 164 006a FFF7FEFF 		bl	ka_strlen
 165 006e 0346     		mov	r3, r0
 166 0070 1A46     		mov	r2, r3
 167 0072 7968     		ldr	r1, [r7, #4]
 168 0074 2046     		mov	r0, r4
 169 0076 FFF7FEFF 		bl	ka_strncmp
 170 007a 0346     		mov	r3, r0
 171 007c 002B     		cmp	r3, #0
 172 007e 05D0     		beq	.L10
  54:../../source/src/kernel/SHELL/shell.c **** 		{
  55:../../source/src/kernel/SHELL/shell.c **** 			return ;
  56:../../source/src/kernel/SHELL/shell.c **** 		}
  57:../../source/src/kernel/SHELL/shell.c **** 		ka_printf("wrong input\n");
 173              		.loc 1 57 0
 174 0080 0848     		ldr	r0, .L11+16
 175 0082 FFF7FEFF 		bl	ka_printf
  58:../../source/src/kernel/SHELL/shell.c **** 		clear_input_buffer();
 176              		.loc 1 58 0
 177 0086 FFF7BBFF 		bl	clear_input_buffer
  48:../../source/src/kernel/SHELL/shell.c **** #else
 178              		.loc 1 48 0
 179 008a DDE7     		b	.L6
 180              	.L10:
  55:../../source/src/kernel/SHELL/shell.c **** 		}
 181              		.loc 1 55 0
 182 008c 00BF     		nop
 183              	.L4:
  59:../../source/src/kernel/SHELL/shell.c **** 	}
  60:../../source/src/kernel/SHELL/shell.c **** }
 184              		.loc 1 60 0
 185 008e 1437     		adds	r7, r7, #20
 186              	.LCFI7:
 187              		.cfi_def_cfa_offset 12
 188 0090 BD46     		mov	sp, r7
 189              	.LCFI8:
 190              		.cfi_def_cfa_register 13
 191              		@ sp needed
 192 0092 90BD     		pop	{r4, r7, pc}
 193              	.L12:
ARM GAS  G:\Users\Jaxb\AppData\Local\Temp\ccdq8815.s 			page 6


 194              		.align	2
 195              	.L11:
 196 0094 00000000 		.word	.LC0
 197 0098 28000000 		.word	.LC1
 198 009c 00000000 		.word	MCB_for_shell
 199 00a0 48010000 		.word	using_shell_buffer_ptr
 200 00a4 68000000 		.word	.LC2
 201              		.cfi_endproc
 202              	.LFE15:
 203              		.size	shell_buffer_wait_str, .-shell_buffer_wait_str
 204              		.section	.rodata
 205 0075 000000   		.align	2
 206              	.LC3:
 207 0078 6572726F 		.ascii	"error fun name : change_shell_buffer\012error para "
 207      72206675 
 207      6E206E61 
 207      6D65203A 
 207      20636861 
 208 00a8 3A207368 		.ascii	": shell_buffer_ptr\012\000"
 208      656C6C5F 
 208      62756666 
 208      65725F70 
 208      74720A00 
 209              		.text
 210              		.align	1
 211              		.global	change_shell_buffer
 212              		.syntax unified
 213              		.thumb
 214              		.thumb_func
 215              		.fpu softvfp
 216              		.type	change_shell_buffer, %function
 217              	change_shell_buffer:
 218              	.LFB16:
  61:../../source/src/kernel/SHELL/shell.c **** 
  62:../../source/src/kernel/SHELL/shell.c **** struct shell_buffer *change_shell_buffer(struct shell_buffer *shell_buffer_ptr)
  63:../../source/src/kernel/SHELL/shell.c **** {
 219              		.loc 1 63 0
 220              		.cfi_startproc
 221              		@ args = 0, pretend = 0, frame = 16
 222              		@ frame_needed = 1, uses_anonymous_args = 0
 223 00a8 80B5     		push	{r7, lr}
 224              	.LCFI9:
 225              		.cfi_def_cfa_offset 8
 226              		.cfi_offset 7, -8
 227              		.cfi_offset 14, -4
 228 00aa 84B0     		sub	sp, sp, #16
 229              	.LCFI10:
 230              		.cfi_def_cfa_offset 24
 231 00ac 00AF     		add	r7, sp, #0
 232              	.LCFI11:
 233              		.cfi_def_cfa_register 7
 234 00ae 7860     		str	r0, [r7, #4]
  64:../../source/src/kernel/SHELL/shell.c **** 	ASSERT(NULL != shell_buffer_ptr);
 235              		.loc 1 64 0
 236 00b0 7B68     		ldr	r3, [r7, #4]
 237 00b2 002B     		cmp	r3, #0
 238 00b4 03D1     		bne	.L14
ARM GAS  G:\Users\Jaxb\AppData\Local\Temp\ccdq8815.s 			page 7


 239              		.loc 1 64 0 is_stmt 0 discriminator 1
 240 00b6 4021     		movs	r1, #64
 241 00b8 0E48     		ldr	r0, .L17
 242 00ba FFF7FEFF 		bl	_ASSERT
 243              	.L14:
  65:../../source/src/kernel/SHELL/shell.c **** #if CONFIG_PARA_CHECK
  66:../../source/src/kernel/SHELL/shell.c **** 	if(NULL == shell_buffer_ptr)
 244              		.loc 1 66 0 is_stmt 1
 245 00be 7B68     		ldr	r3, [r7, #4]
 246 00c0 002B     		cmp	r3, #0
 247 00c2 04D1     		bne	.L15
  67:../../source/src/kernel/SHELL/shell.c **** 	{
  68:../../source/src/kernel/SHELL/shell.c **** 		OS_ERROR_PARA_MESSAGE_DISPLAY(change_shell_buffer,shell_buffer_ptr);
 248              		.loc 1 68 0
 249 00c4 0C48     		ldr	r0, .L17+4
 250 00c6 FFF7FEFF 		bl	ka_printf
  69:../../source/src/kernel/SHELL/shell.c **** 		return NULL;
 251              		.loc 1 69 0
 252 00ca 0023     		movs	r3, #0
 253 00cc 0EE0     		b	.L16
 254              	.L15:
  70:../../source/src/kernel/SHELL/shell.c **** 	}
  71:../../source/src/kernel/SHELL/shell.c **** #endif
  72:../../source/src/kernel/SHELL/shell.c **** 	CPU_SR_ALLOC();
 255              		.loc 1 72 0
 256 00ce 0023     		movs	r3, #0
 257 00d0 FB60     		str	r3, [r7, #12]
  73:../../source/src/kernel/SHELL/shell.c **** 	CPU_CRITICAL_ENTER();
 258              		.loc 1 73 0
 259 00d2 FFF7FEFF 		bl	CPU_SR_Save
 260 00d6 F860     		str	r0, [r7, #12]
  74:../../source/src/kernel/SHELL/shell.c **** 	struct shell_buffer *buffer = using_shell_buffer_ptr;
 261              		.loc 1 74 0
 262 00d8 084B     		ldr	r3, .L17+8
 263 00da 1B68     		ldr	r3, [r3]
 264 00dc BB60     		str	r3, [r7, #8]
  75:../../source/src/kernel/SHELL/shell.c **** 	using_shell_buffer_ptr = shell_buffer_ptr;
 265              		.loc 1 75 0
 266 00de 074A     		ldr	r2, .L17+8
 267 00e0 7B68     		ldr	r3, [r7, #4]
 268 00e2 1360     		str	r3, [r2]
  76:../../source/src/kernel/SHELL/shell.c **** 	CPU_CRITICAL_EXIT();
 269              		.loc 1 76 0
 270 00e4 F868     		ldr	r0, [r7, #12]
 271 00e6 FFF7FEFF 		bl	CPU_SR_Restore
  77:../../source/src/kernel/SHELL/shell.c **** 	return buffer;
 272              		.loc 1 77 0
 273 00ea BB68     		ldr	r3, [r7, #8]
 274              	.L16:
  78:../../source/src/kernel/SHELL/shell.c **** }
 275              		.loc 1 78 0
 276 00ec 1846     		mov	r0, r3
 277 00ee 1037     		adds	r7, r7, #16
 278              	.LCFI12:
 279              		.cfi_def_cfa_offset 8
 280 00f0 BD46     		mov	sp, r7
 281              	.LCFI13:
ARM GAS  G:\Users\Jaxb\AppData\Local\Temp\ccdq8815.s 			page 8


 282              		.cfi_def_cfa_register 13
 283              		@ sp needed
 284 00f2 80BD     		pop	{r7, pc}
 285              	.L18:
 286              		.align	2
 287              	.L17:
 288 00f4 00000000 		.word	.LC0
 289 00f8 78000000 		.word	.LC3
 290 00fc 48010000 		.word	using_shell_buffer_ptr
 291              		.cfi_endproc
 292              	.LFE16:
 293              		.size	change_shell_buffer, .-change_shell_buffer
 294              		.section	.rodata
 295              		.align	2
 296              	.LC4:
 297 00bc 6572726F 		.ascii	"error fun name : __init_shell_buffer\012error para "
 297      72206675 
 297      6E206E61 
 297      6D65203A 
 297      205F5F69 
 298 00ec 3A207468 		.ascii	": three_shell_buffer\012\000"
 298      7265655F 
 298      7368656C 
 298      6C5F6275 
 298      66666572 
 299              		.text
 300              		.align	1
 301              		.global	__init_shell_buffer
 302              		.syntax unified
 303              		.thumb
 304              		.thumb_func
 305              		.fpu softvfp
 306              		.type	__init_shell_buffer, %function
 307              	__init_shell_buffer:
 308              	.LFB17:
  79:../../source/src/kernel/SHELL/shell.c **** 
  80:../../source/src/kernel/SHELL/shell.c **** int __init_shell_buffer(struct shell_buffer *shell_buffer_ptr,
  81:../../source/src/kernel/SHELL/shell.c **** 	char *buffer_ptr,
  82:../../source/src/kernel/SHELL/shell.c **** 	char *buffer_reserve_ptr) // if buffer_reserve_ptr is NULL,means no reserve buffer
  83:../../source/src/kernel/SHELL/shell.c **** {
 309              		.loc 1 83 0
 310              		.cfi_startproc
 311              		@ args = 0, pretend = 0, frame = 16
 312              		@ frame_needed = 1, uses_anonymous_args = 0
 313 0100 80B5     		push	{r7, lr}
 314              	.LCFI14:
 315              		.cfi_def_cfa_offset 8
 316              		.cfi_offset 7, -8
 317              		.cfi_offset 14, -4
 318 0102 84B0     		sub	sp, sp, #16
 319              	.LCFI15:
 320              		.cfi_def_cfa_offset 24
 321 0104 00AF     		add	r7, sp, #0
 322              	.LCFI16:
 323              		.cfi_def_cfa_register 7
 324 0106 F860     		str	r0, [r7, #12]
 325 0108 B960     		str	r1, [r7, #8]
ARM GAS  G:\Users\Jaxb\AppData\Local\Temp\ccdq8815.s 			page 9


 326 010a 7A60     		str	r2, [r7, #4]
  84:../../source/src/kernel/SHELL/shell.c **** 	ASSERT((shell_buffer_ptr != NULL) 	&& 
 327              		.loc 1 84 0
 328 010c FB68     		ldr	r3, [r7, #12]
 329 010e 002B     		cmp	r3, #0
 330 0110 02D0     		beq	.L20
 331              		.loc 1 84 0 is_stmt 0 discriminator 1
 332 0112 FB68     		ldr	r3, [r7, #12]
 333 0114 002B     		cmp	r3, #0
 334 0116 03D1     		bne	.L21
 335              	.L20:
 336              		.loc 1 84 0 discriminator 3
 337 0118 5521     		movs	r1, #85
 338 011a 1048     		ldr	r0, .L25
 339 011c FFF7FEFF 		bl	_ASSERT
 340              	.L21:
  85:../../source/src/kernel/SHELL/shell.c **** 			(shell_buffer_ptr != NULL));
  86:../../source/src/kernel/SHELL/shell.c **** #if CONFIG_PARA_CHECK
  87:../../source/src/kernel/SHELL/shell.c **** 	if((NULL == shell_buffer_ptr) 	|| 
 341              		.loc 1 87 0 is_stmt 1
 342 0120 FB68     		ldr	r3, [r7, #12]
 343 0122 002B     		cmp	r3, #0
 344 0124 02D0     		beq	.L22
 345              		.loc 1 87 0 is_stmt 0 discriminator 1
 346 0126 FB68     		ldr	r3, [r7, #12]
 347 0128 002B     		cmp	r3, #0
 348 012a 05D1     		bne	.L23
 349              	.L22:
  88:../../source/src/kernel/SHELL/shell.c **** 		(NULL == shell_buffer_ptr))
  89:../../source/src/kernel/SHELL/shell.c **** 	{
  90:../../source/src/kernel/SHELL/shell.c **** 		OS_ERROR_PARA_MESSAGE_DISPLAY(__init_shell_buffer,three_shell_buffer);
 350              		.loc 1 90 0 is_stmt 1
 351 012c 0C48     		ldr	r0, .L25+4
 352 012e FFF7FEFF 		bl	ka_printf
  91:../../source/src/kernel/SHELL/shell.c **** 		return -ERROR_NULL_INPUT_PTR;
 353              		.loc 1 91 0
 354 0132 6FF0FE03 		mvn	r3, #254
 355 0136 0CE0     		b	.L24
 356              	.L23:
  92:../../source/src/kernel/SHELL/shell.c **** 	}
  93:../../source/src/kernel/SHELL/shell.c **** #endif
  94:../../source/src/kernel/SHELL/shell.c **** 	shell_buffer_ptr->buffer 			= buffer_ptr;
 357              		.loc 1 94 0
 358 0138 FB68     		ldr	r3, [r7, #12]
 359 013a BA68     		ldr	r2, [r7, #8]
 360 013c 1A65     		str	r2, [r3, #80]
  95:../../source/src/kernel/SHELL/shell.c **** 	shell_buffer_ptr->buffer_reserve 	= buffer_reserve_ptr;
 361              		.loc 1 95 0
 362 013e FB68     		ldr	r3, [r7, #12]
 363 0140 7A68     		ldr	r2, [r7, #4]
 364 0142 5A65     		str	r2, [r3, #84]
  96:../../source/src/kernel/SHELL/shell.c **** 	shell_buffer_ptr->index 			= 0;
 365              		.loc 1 96 0
 366 0144 FB68     		ldr	r3, [r7, #12]
 367 0146 0022     		movs	r2, #0
 368 0148 9A65     		str	r2, [r3, #88]
  97:../../source/src/kernel/SHELL/shell.c **** 	shell_buffer_ptr->index_reserve 	= 0;
ARM GAS  G:\Users\Jaxb\AppData\Local\Temp\ccdq8815.s 			page 10


 369              		.loc 1 97 0
 370 014a FB68     		ldr	r3, [r7, #12]
 371 014c 0022     		movs	r2, #0
 372 014e DA65     		str	r2, [r3, #92]
  98:../../source/src/kernel/SHELL/shell.c **** 	return FUN_EXECUTE_SUCCESSFULLY;
 373              		.loc 1 98 0
 374 0150 0023     		movs	r3, #0
 375              	.L24:
  99:../../source/src/kernel/SHELL/shell.c **** }
 376              		.loc 1 99 0
 377 0152 1846     		mov	r0, r3
 378 0154 1037     		adds	r7, r7, #16
 379              	.LCFI17:
 380              		.cfi_def_cfa_offset 8
 381 0156 BD46     		mov	sp, r7
 382              	.LCFI18:
 383              		.cfi_def_cfa_register 13
 384              		@ sp needed
 385 0158 80BD     		pop	{r7, pc}
 386              	.L26:
 387 015a 00BF     		.align	2
 388              	.L25:
 389 015c 00000000 		.word	.LC0
 390 0160 BC000000 		.word	.LC4
 391              		.cfi_endproc
 392              	.LFE17:
 393              		.size	__init_shell_buffer, .-__init_shell_buffer
 394              		.section	.rodata
 395 0102 0000     		.align	2
 396              	.LC5:
 397 0104 0A657272 		.ascii	"\012error input\012\000"
 397      6F722069 
 397      6E707574 
 397      0A00
 398 0112 0000     		.align	2
 399              	.LC6:
 400 0114 257300   		.ascii	"%s\000"
 401 0117 00       		.align	2
 402              	.LC7:
 403 0118 200800   		.ascii	" \010\000"
 404              		.global	__aeabi_ui2d
 405              		.global	__aeabi_dcmplt
 406 011b 00       		.align	2
 407              	.LC8:
 408 011c 0A746F6F 		.ascii	"\012too long,invalid input,clear buffer...\012\000"
 408      206C6F6E 
 408      672C696E 
 408      76616C69 
 408      6420696E 
 409              		.text
 410              		.align	1
 411              		.global	put_in_shell_buffer
 412              		.syntax unified
 413              		.thumb
 414              		.thumb_func
 415              		.fpu softvfp
 416              		.type	put_in_shell_buffer, %function
ARM GAS  G:\Users\Jaxb\AppData\Local\Temp\ccdq8815.s 			page 11


 417              	put_in_shell_buffer:
 418              	.LFB18:
 100:../../source/src/kernel/SHELL/shell.c **** 
 101:../../source/src/kernel/SHELL/shell.c **** void put_in_shell_buffer(char c)  // deal with input layer
 102:../../source/src/kernel/SHELL/shell.c **** {
 419              		.loc 1 102 0
 420              		.cfi_startproc
 421              		@ args = 0, pretend = 0, frame = 8
 422              		@ frame_needed = 1, uses_anonymous_args = 0
 423 0164 80B5     		push	{r7, lr}
 424              	.LCFI19:
 425              		.cfi_def_cfa_offset 8
 426              		.cfi_offset 7, -8
 427              		.cfi_offset 14, -4
 428 0166 82B0     		sub	sp, sp, #8
 429              	.LCFI20:
 430              		.cfi_def_cfa_offset 16
 431 0168 00AF     		add	r7, sp, #0
 432              	.LCFI21:
 433              		.cfi_def_cfa_register 7
 434 016a 0346     		mov	r3, r0
 435 016c FB71     		strb	r3, [r7, #7]
 103:../../source/src/kernel/SHELL/shell.c **** 	if(c == 0x0a)
 436              		.loc 1 103 0
 437 016e FB79     		ldrb	r3, [r7, #7]	@ zero_extendqisi2
 438 0170 0A2B     		cmp	r3, #10
 439 0172 00F08B80 		beq	.L45
 104:../../source/src/kernel/SHELL/shell.c **** 	{
 105:../../source/src/kernel/SHELL/shell.c **** 		return ;
 106:../../source/src/kernel/SHELL/shell.c **** 	}
 107:../../source/src/kernel/SHELL/shell.c **** 	if( ! (	IS_LOWER(c) || IS_UPPER(c) || (0x0d == c) || 
 440              		.loc 1 107 0
 441 0176 FB79     		ldrb	r3, [r7, #7]	@ zero_extendqisi2
 442 0178 602B     		cmp	r3, #96
 443 017a 02D9     		bls	.L30
 444              		.loc 1 107 0 is_stmt 0 discriminator 2
 445 017c FB79     		ldrb	r3, [r7, #7]	@ zero_extendqisi2
 446 017e 7A2B     		cmp	r3, #122
 447 0180 2BD9     		bls	.L31
 448              	.L30:
 449              		.loc 1 107 0 discriminator 3
 450 0182 FB79     		ldrb	r3, [r7, #7]	@ zero_extendqisi2
 451 0184 402B     		cmp	r3, #64
 452 0186 02D9     		bls	.L32
 453              		.loc 1 107 0 discriminator 5
 454 0188 FB79     		ldrb	r3, [r7, #7]	@ zero_extendqisi2
 455 018a 5A2B     		cmp	r3, #90
 456 018c 25D9     		bls	.L31
 457              	.L32:
 458              		.loc 1 107 0 discriminator 6
 459 018e FB79     		ldrb	r3, [r7, #7]	@ zero_extendqisi2
 460 0190 0D2B     		cmp	r3, #13
 461 0192 22D0     		beq	.L31
 462              		.loc 1 107 0 discriminator 7
 463 0194 FB79     		ldrb	r3, [r7, #7]	@ zero_extendqisi2
 464 0196 032B     		cmp	r3, #3
 465 0198 1FD0     		beq	.L31
ARM GAS  G:\Users\Jaxb\AppData\Local\Temp\ccdq8815.s 			page 12


 108:../../source/src/kernel/SHELL/shell.c **** 			(0x03 == c) || (0x08 == c) || (' ' == c)  || 
 466              		.loc 1 108 0 is_stmt 1
 467 019a FB79     		ldrb	r3, [r7, #7]	@ zero_extendqisi2
 468 019c 082B     		cmp	r3, #8
 469 019e 1CD0     		beq	.L31
 470              		.loc 1 108 0 is_stmt 0 discriminator 1
 471 01a0 FB79     		ldrb	r3, [r7, #7]	@ zero_extendqisi2
 472 01a2 202B     		cmp	r3, #32
 473 01a4 19D0     		beq	.L31
 474              		.loc 1 108 0 discriminator 2
 475 01a6 FB79     		ldrb	r3, [r7, #7]	@ zero_extendqisi2
 476 01a8 2F2B     		cmp	r3, #47
 477 01aa 02D9     		bls	.L33
 109:../../source/src/kernel/SHELL/shell.c **** 			IS_NUM(c) 	|| IS_DOT(c)   || ('-' == c)  || 
 478              		.loc 1 109 0 is_stmt 1
 479 01ac FB79     		ldrb	r3, [r7, #7]	@ zero_extendqisi2
 480 01ae 392B     		cmp	r3, #57
 481 01b0 13D9     		bls	.L31
 482              	.L33:
 483              		.loc 1 109 0 is_stmt 0 discriminator 1
 484 01b2 FB79     		ldrb	r3, [r7, #7]	@ zero_extendqisi2
 485 01b4 2E2B     		cmp	r3, #46
 486 01b6 10D0     		beq	.L31
 487              		.loc 1 109 0 discriminator 2
 488 01b8 FB79     		ldrb	r3, [r7, #7]	@ zero_extendqisi2
 489 01ba 2D2B     		cmp	r3, #45
 490 01bc 0DD0     		beq	.L31
 107:../../source/src/kernel/SHELL/shell.c **** 			(0x03 == c) || (0x08 == c) || (' ' == c)  || 
 491              		.loc 1 107 0 is_stmt 1
 492 01be FB79     		ldrb	r3, [r7, #7]	@ zero_extendqisi2
 493 01c0 2B2B     		cmp	r3, #43
 494 01c2 0AD0     		beq	.L31
 110:../../source/src/kernel/SHELL/shell.c **** 			('+' == c)))
 111:../../source/src/kernel/SHELL/shell.c **** 	{
 112:../../source/src/kernel/SHELL/shell.c **** 		ka_printf("\nerror input\n");
 495              		.loc 1 112 0
 496 01c4 3348     		ldr	r0, .L46
 497 01c6 FFF7FEFF 		bl	ka_printf
 113:../../source/src/kernel/SHELL/shell.c **** 		ka_printf("%s",using_shell_buffer_ptr->buffer);
 498              		.loc 1 113 0
 499 01ca 334B     		ldr	r3, .L46+4
 500 01cc 1B68     		ldr	r3, [r3]
 501 01ce 1B6D     		ldr	r3, [r3, #80]
 502 01d0 1946     		mov	r1, r3
 503 01d2 3248     		ldr	r0, .L46+8
 504 01d4 FFF7FEFF 		bl	ka_printf
 114:../../source/src/kernel/SHELL/shell.c **** 		return ;
 505              		.loc 1 114 0
 506 01d8 59E0     		b	.L27
 507              	.L31:
 115:../../source/src/kernel/SHELL/shell.c **** 	}
 116:../../source/src/kernel/SHELL/shell.c **** 	if(IS_UPPER(c)) 
 508              		.loc 1 116 0
 509 01da FB79     		ldrb	r3, [r7, #7]	@ zero_extendqisi2
 510 01dc 402B     		cmp	r3, #64
 511 01de 05D9     		bls	.L34
 512              		.loc 1 116 0 is_stmt 0 discriminator 1
ARM GAS  G:\Users\Jaxb\AppData\Local\Temp\ccdq8815.s 			page 13


 513 01e0 FB79     		ldrb	r3, [r7, #7]	@ zero_extendqisi2
 514 01e2 5A2B     		cmp	r3, #90
 515 01e4 02D8     		bhi	.L34
 117:../../source/src/kernel/SHELL/shell.c **** 	{
 118:../../source/src/kernel/SHELL/shell.c **** 		c += 'a' - 'A'; 
 516              		.loc 1 118 0 is_stmt 1
 517 01e6 FB79     		ldrb	r3, [r7, #7]
 518 01e8 2033     		adds	r3, r3, #32
 519 01ea FB71     		strb	r3, [r7, #7]
 520              	.L34:
 119:../../source/src/kernel/SHELL/shell.c **** 	}
 120:../../source/src/kernel/SHELL/shell.c **** 	if(0x08 == c) // backspace key
 521              		.loc 1 120 0
 522 01ec FB79     		ldrb	r3, [r7, #7]	@ zero_extendqisi2
 523 01ee 082B     		cmp	r3, #8
 524 01f0 1AD1     		bne	.L35
 121:../../source/src/kernel/SHELL/shell.c **** 	{
 122:../../source/src/kernel/SHELL/shell.c **** 		if(using_shell_buffer_ptr->index>0)
 525              		.loc 1 122 0
 526 01f2 294B     		ldr	r3, .L46+4
 527 01f4 1B68     		ldr	r3, [r3]
 528 01f6 9B6D     		ldr	r3, [r3, #88]
 529 01f8 002B     		cmp	r3, #0
 530 01fa 08D0     		beq	.L36
 123:../../source/src/kernel/SHELL/shell.c **** 		{
 124:../../source/src/kernel/SHELL/shell.c **** 			--(using_shell_buffer_ptr->index);
 531              		.loc 1 124 0
 532 01fc 264B     		ldr	r3, .L46+4
 533 01fe 1B68     		ldr	r3, [r3]
 534 0200 9A6D     		ldr	r2, [r3, #88]
 535 0202 013A     		subs	r2, r2, #1
 536 0204 9A65     		str	r2, [r3, #88]
 125:../../source/src/kernel/SHELL/shell.c **** 			ka_printf(" \b");
 537              		.loc 1 125 0
 538 0206 2648     		ldr	r0, .L46+12
 539 0208 FFF7FEFF 		bl	ka_printf
 126:../../source/src/kernel/SHELL/shell.c **** 		}
 127:../../source/src/kernel/SHELL/shell.c **** 		else
 128:../../source/src/kernel/SHELL/shell.c **** 		{
 129:../../source/src/kernel/SHELL/shell.c **** 			ASSERT(0 == using_shell_buffer_ptr->index);
 130:../../source/src/kernel/SHELL/shell.c **** 			ka_putchar('\a');
 131:../../source/src/kernel/SHELL/shell.c **** 		}
 132:../../source/src/kernel/SHELL/shell.c **** 		return ;
 540              		.loc 1 132 0
 541 020c 3FE0     		b	.L27
 542              	.L36:
 129:../../source/src/kernel/SHELL/shell.c **** 			ka_putchar('\a');
 543              		.loc 1 129 0
 544 020e 224B     		ldr	r3, .L46+4
 545 0210 1B68     		ldr	r3, [r3]
 546 0212 9B6D     		ldr	r3, [r3, #88]
 547 0214 002B     		cmp	r3, #0
 548 0216 03D0     		beq	.L38
 129:../../source/src/kernel/SHELL/shell.c **** 			ka_putchar('\a');
 549              		.loc 1 129 0 is_stmt 0 discriminator 1
 550 0218 8121     		movs	r1, #129
 551 021a 2248     		ldr	r0, .L46+16
ARM GAS  G:\Users\Jaxb\AppData\Local\Temp\ccdq8815.s 			page 14


 552 021c FFF7FEFF 		bl	_ASSERT
 553              	.L38:
 130:../../source/src/kernel/SHELL/shell.c **** 		}
 554              		.loc 1 130 0 is_stmt 1
 555 0220 0720     		movs	r0, #7
 556 0222 FFF7FEFF 		bl	ka_putchar
 557              		.loc 1 132 0
 558 0226 32E0     		b	.L27
 559              	.L35:
 133:../../source/src/kernel/SHELL/shell.c **** 	}
 134:../../source/src/kernel/SHELL/shell.c **** 	if(using_shell_buffer_ptr->index < BUFFER_SIZE*0.8)
 560              		.loc 1 134 0
 561 0228 1B4B     		ldr	r3, .L46+4
 562 022a 1B68     		ldr	r3, [r3]
 563 022c 9B6D     		ldr	r3, [r3, #88]
 564 022e 1846     		mov	r0, r3
 565 0230 FFF7FEFF 		bl	__aeabi_ui2d
 566              	.LVL0:
 567 0234 4FF00002 		mov	r2, #0
 568 0238 1B4B     		ldr	r3, .L46+20
 569 023a FFF7FEFF 		bl	__aeabi_dcmplt
 570              	.LVL1:
 571 023e 0346     		mov	r3, r0
 572 0240 002B     		cmp	r3, #0
 573 0242 17D0     		beq	.L43
 135:../../source/src/kernel/SHELL/shell.c **** 	{
 136:../../source/src/kernel/SHELL/shell.c **** 		using_shell_buffer_ptr->buffer[(using_shell_buffer_ptr->index)++] = c;
 574              		.loc 1 136 0
 575 0244 144B     		ldr	r3, .L46+4
 576 0246 1B68     		ldr	r3, [r3]
 577 0248 196D     		ldr	r1, [r3, #80]
 578 024a 134B     		ldr	r3, .L46+4
 579 024c 1A68     		ldr	r2, [r3]
 580 024e 936D     		ldr	r3, [r2, #88]
 581 0250 581C     		adds	r0, r3, #1
 582 0252 9065     		str	r0, [r2, #88]
 583 0254 0B44     		add	r3, r3, r1
 584 0256 FA79     		ldrb	r2, [r7, #7]
 585 0258 1A70     		strb	r2, [r3]
 137:../../source/src/kernel/SHELL/shell.c **** 		using_shell_buffer_ptr->buffer[using_shell_buffer_ptr->index] = '\0';
 586              		.loc 1 137 0
 587 025a 0F4B     		ldr	r3, .L46+4
 588 025c 1B68     		ldr	r3, [r3]
 589 025e 1A6D     		ldr	r2, [r3, #80]
 590 0260 0D4B     		ldr	r3, .L46+4
 591 0262 1B68     		ldr	r3, [r3]
 592 0264 9B6D     		ldr	r3, [r3, #88]
 593 0266 1344     		add	r3, r3, r2
 594 0268 0022     		movs	r2, #0
 595 026a 1A70     		strb	r2, [r3]
 138:../../source/src/kernel/SHELL/shell.c **** 	}
 139:../../source/src/kernel/SHELL/shell.c **** 	else
 140:../../source/src/kernel/SHELL/shell.c **** 	{
 141:../../source/src/kernel/SHELL/shell.c **** 		ka_printf("\ntoo long,invalid input,clear buffer...\n");
 142:../../source/src/kernel/SHELL/shell.c **** 		using_shell_buffer_ptr->index = 0;
 143:../../source/src/kernel/SHELL/shell.c **** 		return ;
 144:../../source/src/kernel/SHELL/shell.c **** 	}
ARM GAS  G:\Users\Jaxb\AppData\Local\Temp\ccdq8815.s 			page 15


 145:../../source/src/kernel/SHELL/shell.c **** 	if(0x0d == c)
 596              		.loc 1 145 0
 597 026c FB79     		ldrb	r3, [r7, #7]	@ zero_extendqisi2
 598 026e 0D2B     		cmp	r3, #13
 599 0270 0DD1     		bne	.L27
 600 0272 07E0     		b	.L44
 601              	.L43:
 141:../../source/src/kernel/SHELL/shell.c **** 		using_shell_buffer_ptr->index = 0;
 602              		.loc 1 141 0
 603 0274 0D48     		ldr	r0, .L46+24
 604 0276 FFF7FEFF 		bl	ka_printf
 142:../../source/src/kernel/SHELL/shell.c **** 		return ;
 605              		.loc 1 142 0
 606 027a 074B     		ldr	r3, .L46+4
 607 027c 1B68     		ldr	r3, [r3]
 608 027e 0022     		movs	r2, #0
 609 0280 9A65     		str	r2, [r3, #88]
 143:../../source/src/kernel/SHELL/shell.c **** 	}
 610              		.loc 1 143 0
 611 0282 04E0     		b	.L27
 612              	.L44:
 146:../../source/src/kernel/SHELL/shell.c **** 	{
 147:../../source/src/kernel/SHELL/shell.c **** #if DEBUG_SHELL
 148:../../source/src/kernel/SHELL/shell.c **** 		using_shell_buffer_ptr->buffer[using_shell_buffer_ptr->index-1] = '\0';
 149:../../source/src/kernel/SHELL/shell.c **** 		ka_printf("%s\n",using_shell_buffer_ptr->buffer);
 150:../../source/src/kernel/SHELL/shell.c **** #endif
 151:../../source/src/kernel/SHELL/shell.c **** 		v(&MCB_for_shell);
 613              		.loc 1 151 0
 614 0284 0A48     		ldr	r0, .L46+28
 615 0286 FFF7FEFF 		bl	v
 616 028a 00E0     		b	.L27
 617              	.L45:
 105:../../source/src/kernel/SHELL/shell.c **** 	}
 618              		.loc 1 105 0
 619 028c 00BF     		nop
 620              	.L27:
 152:../../source/src/kernel/SHELL/shell.c **** 	}
 153:../../source/src/kernel/SHELL/shell.c **** }
 621              		.loc 1 153 0
 622 028e 0837     		adds	r7, r7, #8
 623              	.LCFI22:
 624              		.cfi_def_cfa_offset 8
 625 0290 BD46     		mov	sp, r7
 626              	.LCFI23:
 627              		.cfi_def_cfa_register 13
 628              		@ sp needed
 629 0292 80BD     		pop	{r7, pc}
 630              	.L47:
 631              		.align	2
 632              	.L46:
 633 0294 04010000 		.word	.LC5
 634 0298 48010000 		.word	using_shell_buffer_ptr
 635 029c 14010000 		.word	.LC6
 636 02a0 18010000 		.word	.LC7
 637 02a4 00000000 		.word	.LC0
 638 02a8 00005440 		.word	1079246848
 639 02ac 1C010000 		.word	.LC8
ARM GAS  G:\Users\Jaxb\AppData\Local\Temp\ccdq8815.s 			page 16


 640 02b0 00000000 		.word	MCB_for_shell
 641              		.cfi_endproc
 642              	.LFE18:
 643              		.size	put_in_shell_buffer, .-put_in_shell_buffer
 644              		.section	.rodata
 645 0145 000000   		.align	2
 646              	.LC9:
 647 0148 7265646F 		.ascii	"redo command: \000"
 647      20636F6D 
 647      6D616E64 
 647      3A2000
 648 0157 00       		.align	2
 649              	.LC10:
 650 0158 6E6F2072 		.ascii	"no reserved buffer,command not saved\012\000"
 650      65736572 
 650      76656420 
 650      62756666 
 650      65722C63 
 651              		.text
 652              		.align	1
 653              		.syntax unified
 654              		.thumb
 655              		.thumb_func
 656              		.fpu softvfp
 657              		.type	redo, %function
 658              	redo:
 659              	.LFB19:
 154:../../source/src/kernel/SHELL/shell.c **** 
 155:../../source/src/kernel/SHELL/shell.c **** 
 156:../../source/src/kernel/SHELL/shell.c **** //static int process(char *buffer_ptr);
 157:../../source/src/kernel/SHELL/shell.c **** static void redo(int argc, char const *argv[])
 158:../../source/src/kernel/SHELL/shell.c **** {
 660              		.loc 1 158 0
 661              		.cfi_startproc
 662              		@ args = 0, pretend = 0, frame = 16
 663              		@ frame_needed = 1, uses_anonymous_args = 0
 664 02b4 B0B5     		push	{r4, r5, r7, lr}
 665              	.LCFI24:
 666              		.cfi_def_cfa_offset 16
 667              		.cfi_offset 4, -16
 668              		.cfi_offset 5, -12
 669              		.cfi_offset 7, -8
 670              		.cfi_offset 14, -4
 671 02b6 84B0     		sub	sp, sp, #16
 672              	.LCFI25:
 673              		.cfi_def_cfa_offset 32
 674 02b8 00AF     		add	r7, sp, #0
 675              	.LCFI26:
 676              		.cfi_def_cfa_register 7
 677 02ba 7860     		str	r0, [r7, #4]
 678 02bc 3960     		str	r1, [r7]
 159:../../source/src/kernel/SHELL/shell.c **** 	(void)argc;
 160:../../source/src/kernel/SHELL/shell.c **** 	(void)argv;
 161:../../source/src/kernel/SHELL/shell.c **** 	if(using_shell_buffer_ptr->buffer_reserve)
 679              		.loc 1 161 0
 680 02be 244B     		ldr	r3, .L55
 681 02c0 1B68     		ldr	r3, [r3]
ARM GAS  G:\Users\Jaxb\AppData\Local\Temp\ccdq8815.s 			page 17


 682 02c2 5B6D     		ldr	r3, [r3, #84]
 683 02c4 002B     		cmp	r3, #0
 684 02c6 3CD0     		beq	.L49
 685              	.LBB2:
 162:../../source/src/kernel/SHELL/shell.c **** 	{
 163:../../source/src/kernel/SHELL/shell.c **** 		unsigned int i;
 164:../../source/src/kernel/SHELL/shell.c **** 		ASSERT(using_shell_buffer_ptr->index_reserve < BUFFER_SIZE);
 686              		.loc 1 164 0
 687 02c8 214B     		ldr	r3, .L55
 688 02ca 1B68     		ldr	r3, [r3]
 689 02cc DB6D     		ldr	r3, [r3, #92]
 690 02ce 632B     		cmp	r3, #99
 691 02d0 03D9     		bls	.L50
 692              		.loc 1 164 0 is_stmt 0 discriminator 1
 693 02d2 A421     		movs	r1, #164
 694 02d4 1F48     		ldr	r0, .L55+4
 695 02d6 FFF7FEFF 		bl	_ASSERT
 696              	.L50:
 165:../../source/src/kernel/SHELL/shell.c **** 		ka_printf("redo command: ");
 697              		.loc 1 165 0 is_stmt 1
 698 02da 1F48     		ldr	r0, .L55+8
 699 02dc FFF7FEFF 		bl	ka_printf
 166:../../source/src/kernel/SHELL/shell.c **** 		for(i=0;i<using_shell_buffer_ptr->index_reserve;++i)
 700              		.loc 1 166 0
 701 02e0 0023     		movs	r3, #0
 702 02e2 FB60     		str	r3, [r7, #12]
 703 02e4 0BE0     		b	.L51
 704              	.L52:
 167:../../source/src/kernel/SHELL/shell.c **** 		{
 168:../../source/src/kernel/SHELL/shell.c **** 			ka_puts((const char *)(using_shell_buffer_ptr->argv_reserve)[i]);
 705              		.loc 1 168 0 discriminator 3
 706 02e6 1A4B     		ldr	r3, .L55
 707 02e8 1B68     		ldr	r3, [r3]
 708 02ea FA68     		ldr	r2, [r7, #12]
 709 02ec 0A32     		adds	r2, r2, #10
 710 02ee 53F82230 		ldr	r3, [r3, r2, lsl #2]
 711 02f2 1846     		mov	r0, r3
 712 02f4 FFF7FEFF 		bl	ka_puts
 166:../../source/src/kernel/SHELL/shell.c **** 		for(i=0;i<using_shell_buffer_ptr->index_reserve;++i)
 713              		.loc 1 166 0 discriminator 3
 714 02f8 FB68     		ldr	r3, [r7, #12]
 715 02fa 0133     		adds	r3, r3, #1
 716 02fc FB60     		str	r3, [r7, #12]
 717              	.L51:
 166:../../source/src/kernel/SHELL/shell.c **** 		for(i=0;i<using_shell_buffer_ptr->index_reserve;++i)
 718              		.loc 1 166 0 is_stmt 0 discriminator 1
 719 02fe 144B     		ldr	r3, .L55
 720 0300 1B68     		ldr	r3, [r3]
 721 0302 DB6D     		ldr	r3, [r3, #92]
 722 0304 FA68     		ldr	r2, [r7, #12]
 723 0306 9A42     		cmp	r2, r3
 724 0308 EDD3     		bcc	.L52
 169:../../source/src/kernel/SHELL/shell.c **** 		}
 170:../../source/src/kernel/SHELL/shell.c **** 		ka_putchar('\n');
 725              		.loc 1 170 0 is_stmt 1
 726 030a 0A20     		movs	r0, #10
 727 030c FFF7FEFF 		bl	ka_putchar
ARM GAS  G:\Users\Jaxb\AppData\Local\Temp\ccdq8815.s 			page 18


 171:../../source/src/kernel/SHELL/shell.c **** 		match_and_execute_command(using_shell_buffer_ptr->index_reserve,
 728              		.loc 1 171 0
 729 0310 0F4B     		ldr	r3, .L55
 730 0312 1B68     		ldr	r3, [r3]
 731 0314 DB6D     		ldr	r3, [r3, #92]
 732 0316 1D46     		mov	r5, r3
 172:../../source/src/kernel/SHELL/shell.c **** 			(const char **)(using_shell_buffer_ptr->argv_reserve),
 733              		.loc 1 172 0
 734 0318 0D4B     		ldr	r3, .L55
 735 031a 1B68     		ldr	r3, [r3]
 736 031c 03F12804 		add	r4, r3, #40
 173:../../source/src/kernel/SHELL/shell.c **** 			get_command_processer(ka_strlen((using_shell_buffer_ptr->argv_reserve)[0])));
 737              		.loc 1 173 0
 738 0320 0B4B     		ldr	r3, .L55
 739 0322 1B68     		ldr	r3, [r3]
 740 0324 9B6A     		ldr	r3, [r3, #40]
 171:../../source/src/kernel/SHELL/shell.c **** 		match_and_execute_command(using_shell_buffer_ptr->index_reserve,
 741              		.loc 1 171 0
 742 0326 1846     		mov	r0, r3
 743 0328 FFF7FEFF 		bl	ka_strlen
 744 032c 0346     		mov	r3, r0
 745 032e 1846     		mov	r0, r3
 746 0330 FFF7FEFF 		bl	get_command_processer
 747 0334 0346     		mov	r3, r0
 748 0336 1A46     		mov	r2, r3
 749 0338 2146     		mov	r1, r4
 750 033a 2846     		mov	r0, r5
 751 033c FFF7FEFF 		bl	match_and_execute_command
 752              	.LBE2:
 174:../../source/src/kernel/SHELL/shell.c **** 	}
 175:../../source/src/kernel/SHELL/shell.c **** 	else
 176:../../source/src/kernel/SHELL/shell.c **** 	{
 177:../../source/src/kernel/SHELL/shell.c **** 		ka_printf("no reserved buffer,command not saved\n");
 178:../../source/src/kernel/SHELL/shell.c **** 	}
 179:../../source/src/kernel/SHELL/shell.c **** }
 753              		.loc 1 179 0
 754 0340 02E0     		b	.L54
 755              	.L49:
 177:../../source/src/kernel/SHELL/shell.c **** 	}
 756              		.loc 1 177 0
 757 0342 0648     		ldr	r0, .L55+12
 758 0344 FFF7FEFF 		bl	ka_printf
 759              	.L54:
 760              		.loc 1 179 0
 761 0348 00BF     		nop
 762 034a 1037     		adds	r7, r7, #16
 763              	.LCFI27:
 764              		.cfi_def_cfa_offset 16
 765 034c BD46     		mov	sp, r7
 766              	.LCFI28:
 767              		.cfi_def_cfa_register 13
 768              		@ sp needed
 769 034e B0BD     		pop	{r4, r5, r7, pc}
 770              	.L56:
 771              		.align	2
 772              	.L55:
 773 0350 48010000 		.word	using_shell_buffer_ptr
ARM GAS  G:\Users\Jaxb\AppData\Local\Temp\ccdq8815.s 			page 19


 774 0354 00000000 		.word	.LC0
 775 0358 48010000 		.word	.LC9
 776 035c 58010000 		.word	.LC10
 777              		.cfi_endproc
 778              	.LFE19:
 779              		.size	redo, .-redo
 780              		.section	.rodata
 781 017e 0000     		.align	2
 782              	.LC11:
 783 0180 7200     		.ascii	"r\000"
 784              		.data
 785              		.align	2
 786              		.type	resident_command_1, %object
 787              		.size	resident_command_1, 12
 788              	resident_command_1:
 789 0000 80010000 		.word	.LC11
 790 0004 00000000 		.word	redo
 791 0008 00000000 		.space	4
 792              		.section	.rodata
 793 0182 0000     		.align	2
 794              	.LC12:
 795 0184 6B6100   		.ascii	"ka\000"
 796 0187 00       		.align	2
 797              	.LC13:
 798 0188 6D6D00   		.ascii	"mm\000"
 799              		.data
 800              		.align	2
 801              		.type	resident_command_2, %object
 802              		.size	resident_command_2, 24
 803              	resident_command_2:
 804 000c 84010000 		.word	.LC12
 805 0010 00000000 		.word	test
 806 0014 00000000 		.space	4
 807 0018 88010000 		.word	.LC13
 808 001c 00000000 		.word	shell_memory
 809 0020 00000000 		.space	4
 810              		.section	.rodata
 811 018b 00       		.align	2
 812              	.LC14:
 813 018c 72756E00 		.ascii	"run\000"
 814              		.align	2
 815              	.LC15:
 816 0190 73657400 		.ascii	"set\000"
 817              		.align	2
 818              	.LC16:
 819 0194 74636200 		.ascii	"tcb\000"
 820              		.data
 821              		.align	2
 822              		.type	resident_command_3, %object
 823              		.size	resident_command_3, 36
 824              	resident_command_3:
 825 0024 8C010000 		.word	.LC14
 826 0028 00000000 		.word	shell_debug_run
 827 002c 00000000 		.space	4
 828 0030 90010000 		.word	.LC15
 829 0034 00000000 		.word	shell_set
 830 0038 00000000 		.space	4
ARM GAS  G:\Users\Jaxb\AppData\Local\Temp\ccdq8815.s 			page 20


 831 003c 94010000 		.word	.LC16
 832 0040 00000000 		.word	shell_TCB_check
 833 0044 00000000 		.space	4
 834              		.section	.rodata
 835              		.align	2
 836              	.LC17:
 837 0198 74696D65 		.ascii	"time\000"
 837      00
 838 019d 000000   		.align	2
 839              	.LC18:
 840 01a0 6B6D656D 		.ascii	"kmem\000"
 840      00
 841 01a5 000000   		.align	2
 842              	.LC19:
 843 01a8 736C6162 		.ascii	"slab\000"
 843      00
 844 01ad 000000   		.align	2
 845              	.LC20:
 846 01b0 6E657874 		.ascii	"next\000"
 846      00
 847 01b5 000000   		.align	2
 848              	.LC21:
 849 01b8 73746F70 		.ascii	"stop\000"
 849      00
 850 01bd 000000   		.align	2
 851              	.LC22:
 852 01c0 6563686F 		.ascii	"echo\000"
 852      00
 853 01c5 000000   		.align	2
 854              	.LC23:
 855 01c8 61646472 		.ascii	"addr\000"
 855      00
 856              		.data
 857              		.align	2
 858              		.type	resident_command_4, %object
 859              		.size	resident_command_4, 84
 860              	resident_command_4:
 861 0048 98010000 		.word	.LC17
 862 004c 00000000 		.word	shell_time
 863 0050 00000000 		.space	4
 864 0054 A0010000 		.word	.LC18
 865 0058 00000000 		.word	shell_check_kmem
 866 005c 00000000 		.space	4
 867 0060 A8010000 		.word	.LC19
 868 0064 00000000 		.word	shell_check_slab
 869 0068 00000000 		.space	4
 870 006c B0010000 		.word	.LC20
 871 0070 00000000 		.word	shell_debug_next
 872 0074 00000000 		.space	4
 873 0078 B8010000 		.word	.LC21
 874 007c 00000000 		.word	shell_debug_stop
 875 0080 00000000 		.space	4
 876 0084 C0010000 		.word	.LC22
 877 0088 00000000 		.word	shell_echo
 878 008c 00000000 		.space	4
 879 0090 C8010000 		.word	.LC23
 880 0094 00000000 		.word	shell_addr
ARM GAS  G:\Users\Jaxb\AppData\Local\Temp\ccdq8815.s 			page 21


 881 0098 00000000 		.space	4
 882              		.section	.rodata
 883 01cd 000000   		.align	2
 884              	.LC24:
 885 01d0 73746163 		.ascii	"stack\000"
 885      6B00
 886 01d6 0000     		.align	2
 887              	.LC25:
 888 01d8 636C6561 		.ascii	"clear\000"
 888      7200
 889 01de 0000     		.align	2
 890              	.LC26:
 891 01e0 62756464 		.ascii	"buddy\000"
 891      7900
 892 01e6 0000     		.align	2
 893              	.LC27:
 894 01e8 736C6565 		.ascii	"sleep\000"
 894      7000
 895              		.data
 896              		.align	2
 897              		.type	resident_command_5, %object
 898              		.size	resident_command_5, 48
 899              	resident_command_5:
 900 009c D0010000 		.word	.LC24
 901 00a0 00000000 		.word	shell_stack_check
 902 00a4 00000000 		.space	4
 903 00a8 D8010000 		.word	.LC25
 904 00ac 00000000 		.word	shell_clear
 905 00b0 00000000 		.space	4
 906 00b4 E0010000 		.word	.LC26
 907 00b8 00000000 		.word	shell_buddy_debug
 908 00bc 00000000 		.space	4
 909 00c0 E8010000 		.word	.LC27
 910 00c4 00000000 		.word	shell_sleep
 911 00c8 00000000 		.space	4
 912              		.section	.rodata
 913 01ee 0000     		.align	2
 914              	.LC28:
 915 01f0 7265626F 		.ascii	"reboot\000"
 915      6F7400
 916 01f7 00       		.align	2
 917              	.LC29:
 918 01f8 6D6F6475 		.ascii	"module\000"
 918      6C6500
 919              		.data
 920              		.align	2
 921              		.type	resident_command_6, %object
 922              		.size	resident_command_6, 24
 923              	resident_command_6:
 924 00cc F0010000 		.word	.LC28
 925 00d0 00000000 		.word	shell_reboot
 926 00d4 00000000 		.space	4
 927 00d8 F8010000 		.word	.LC29
 928 00dc 00000000 		.word	shell_module
 929 00e0 00000000 		.space	4
 930              		.section	.rodata
 931 01ff 00       		.align	2
ARM GAS  G:\Users\Jaxb\AppData\Local\Temp\ccdq8815.s 			page 22


 932              	.LC30:
 933 0200 76657273 		.ascii	"version\000"
 933      696F6E00 
 934              		.align	2
 935              	.LC31:
 936 0208 64656269 		.ascii	"debinfo\000"
 936      6E666F00 
 937              		.align	2
 938              	.LC32:
 939 0210 73796D6C 		.ascii	"symlist\000"
 939      69737400 
 940              		.align	2
 941              	.LC33:
 942 0218 73686F77 		.ascii	"showreg\000"
 942      72656700 
 943              		.data
 944              		.align	2
 945              		.type	resident_command_7, %object
 946              		.size	resident_command_7, 48
 947              	resident_command_7:
 948 00e4 00020000 		.word	.LC30
 949 00e8 00000000 		.word	shell_version
 950 00ec 00000000 		.space	4
 951 00f0 08020000 		.word	.LC31
 952 00f4 00000000 		.word	shell_debug_info
 953 00f8 00000000 		.space	4
 954 00fc 10020000 		.word	.LC32
 955 0100 00000000 		.word	shell_symbol_list_display
 956 0104 00000000 		.space	4
 957 0108 18020000 		.word	.LC33
 958 010c 00000000 		.word	shell_show_tasks_registers
 959 0110 00000000 		.space	4
 960              		.section	.rodata
 961              		.align	2
 962              	.LC34:
 963 0220 73687574 		.ascii	"shutdown\000"
 963      646F776E 
 963      00
 964              		.data
 965              		.align	2
 966              		.type	resident_command_8, %object
 967              		.size	resident_command_8, 12
 968              	resident_command_8:
 969 0114 20020000 		.word	.LC34
 970 0118 00000000 		.word	shell_shutdown
 971 011c 00000000 		.space	4
 972              		.text
 973              		.align	1
 974              		.syntax unified
 975              		.thumb
 976              		.thumb_func
 977              		.fpu softvfp
 978              		.type	shell_init, %function
 979              	shell_init:
 980              	.LFB20:
 180:../../source/src/kernel/SHELL/shell.c **** 
 181:../../source/src/kernel/SHELL/shell.c **** 
ARM GAS  G:\Users\Jaxb\AppData\Local\Temp\ccdq8815.s 			page 23


 182:../../source/src/kernel/SHELL/shell.c **** //struct command -- add command in the corresponding array here(step 2)
 183:../../source/src/kernel/SHELL/shell.c **** // and write the function to execute
 184:../../source/src/kernel/SHELL/shell.c **** static struct command resident_command_1[] = 
 185:../../source/src/kernel/SHELL/shell.c **** {
 186:../../source/src/kernel/SHELL/shell.c **** 	{
 187:../../source/src/kernel/SHELL/shell.c **** 		.command_name = "r",
 188:../../source/src/kernel/SHELL/shell.c **** 		.f = redo,
 189:../../source/src/kernel/SHELL/shell.c **** 	}
 190:../../source/src/kernel/SHELL/shell.c **** };
 191:../../source/src/kernel/SHELL/shell.c **** static struct command resident_command_2[] = 
 192:../../source/src/kernel/SHELL/shell.c **** {
 193:../../source/src/kernel/SHELL/shell.c **** 	{
 194:../../source/src/kernel/SHELL/shell.c **** 		.command_name = "ka",
 195:../../source/src/kernel/SHELL/shell.c **** 		.f = test,
 196:../../source/src/kernel/SHELL/shell.c **** 	},
 197:../../source/src/kernel/SHELL/shell.c **** 	{
 198:../../source/src/kernel/SHELL/shell.c **** 		.command_name = "mm",
 199:../../source/src/kernel/SHELL/shell.c **** 		.f = shell_memory,
 200:../../source/src/kernel/SHELL/shell.c **** 	}
 201:../../source/src/kernel/SHELL/shell.c **** };
 202:../../source/src/kernel/SHELL/shell.c **** static struct command resident_command_3[] = 
 203:../../source/src/kernel/SHELL/shell.c **** {
 204:../../source/src/kernel/SHELL/shell.c **** #if CONFIG_SHELL_DEBUG_EN && CONFIG_SHELL_EN
 205:../../source/src/kernel/SHELL/shell.c **** 	{
 206:../../source/src/kernel/SHELL/shell.c **** 		.command_name = "run",
 207:../../source/src/kernel/SHELL/shell.c **** 		.f = shell_debug_run,
 208:../../source/src/kernel/SHELL/shell.c **** 	},
 209:../../source/src/kernel/SHELL/shell.c **** 	{
 210:../../source/src/kernel/SHELL/shell.c **** 		.command_name = "set",
 211:../../source/src/kernel/SHELL/shell.c **** 		.f = shell_set,
 212:../../source/src/kernel/SHELL/shell.c **** 	},
 213:../../source/src/kernel/SHELL/shell.c **** #endif
 214:../../source/src/kernel/SHELL/shell.c **** #if CONFIG_CPU_USE_RATE_CALCULATION
 215:../../source/src/kernel/SHELL/shell.c **** 	{
 216:../../source/src/kernel/SHELL/shell.c **** 		.command_name = "cpu",
 217:../../source/src/kernel/SHELL/shell.c **** 		.f = cpu_rate,
 218:../../source/src/kernel/SHELL/shell.c **** 	},
 219:../../source/src/kernel/SHELL/shell.c **** #endif
 220:../../source/src/kernel/SHELL/shell.c **** 	{
 221:../../source/src/kernel/SHELL/shell.c **** 		.command_name = "tcb",
 222:../../source/src/kernel/SHELL/shell.c **** 		.f = shell_TCB_check,
 223:../../source/src/kernel/SHELL/shell.c **** 	}
 224:../../source/src/kernel/SHELL/shell.c **** };
 225:../../source/src/kernel/SHELL/shell.c **** static struct command resident_command_4[] = 
 226:../../source/src/kernel/SHELL/shell.c **** {
 227:../../source/src/kernel/SHELL/shell.c **** #if CONFIG_TIME_EN
 228:../../source/src/kernel/SHELL/shell.c **** 	{
 229:../../source/src/kernel/SHELL/shell.c **** 		.command_name = "time",
 230:../../source/src/kernel/SHELL/shell.c **** 		.f = shell_time,
 231:../../source/src/kernel/SHELL/shell.c **** 	},
 232:../../source/src/kernel/SHELL/shell.c **** #endif
 233:../../source/src/kernel/SHELL/shell.c **** 	{
 234:../../source/src/kernel/SHELL/shell.c **** 		.command_name = "kmem",
 235:../../source/src/kernel/SHELL/shell.c **** 		.f = shell_check_kmem,
 236:../../source/src/kernel/SHELL/shell.c **** 	},
 237:../../source/src/kernel/SHELL/shell.c **** 	{
 238:../../source/src/kernel/SHELL/shell.c **** 		.command_name = "slab",
ARM GAS  G:\Users\Jaxb\AppData\Local\Temp\ccdq8815.s 			page 24


 239:../../source/src/kernel/SHELL/shell.c **** 		.f = shell_check_slab,
 240:../../source/src/kernel/SHELL/shell.c **** 	}
 241:../../source/src/kernel/SHELL/shell.c **** #if CONFIG_SHELL_DEBUG_EN && CONFIG_SHELL_EN
 242:../../source/src/kernel/SHELL/shell.c **** 	,{
 243:../../source/src/kernel/SHELL/shell.c **** 		.command_name = "next",
 244:../../source/src/kernel/SHELL/shell.c **** 		.f = shell_debug_next,
 245:../../source/src/kernel/SHELL/shell.c **** 	},
 246:../../source/src/kernel/SHELL/shell.c **** 	{
 247:../../source/src/kernel/SHELL/shell.c **** 		.command_name = "stop",
 248:../../source/src/kernel/SHELL/shell.c **** 		.f = shell_debug_stop,
 249:../../source/src/kernel/SHELL/shell.c **** 	},
 250:../../source/src/kernel/SHELL/shell.c **** 	{
 251:../../source/src/kernel/SHELL/shell.c **** 		.command_name = "echo",
 252:../../source/src/kernel/SHELL/shell.c **** 		.f = shell_echo,
 253:../../source/src/kernel/SHELL/shell.c **** 	},
 254:../../source/src/kernel/SHELL/shell.c **** 	{
 255:../../source/src/kernel/SHELL/shell.c **** 		.command_name = "addr",
 256:../../source/src/kernel/SHELL/shell.c **** 		.f = shell_addr,
 257:../../source/src/kernel/SHELL/shell.c **** 	}
 258:../../source/src/kernel/SHELL/shell.c **** #endif
 259:../../source/src/kernel/SHELL/shell.c **** };
 260:../../source/src/kernel/SHELL/shell.c **** static struct command resident_command_5[] = 
 261:../../source/src/kernel/SHELL/shell.c **** {	
 262:../../source/src/kernel/SHELL/shell.c **** 	{
 263:../../source/src/kernel/SHELL/shell.c **** 		.command_name = "stack",
 264:../../source/src/kernel/SHELL/shell.c **** 		.f = shell_stack_check,
 265:../../source/src/kernel/SHELL/shell.c **** 	},
 266:../../source/src/kernel/SHELL/shell.c **** 	{
 267:../../source/src/kernel/SHELL/shell.c **** 		.command_name = "clear",
 268:../../source/src/kernel/SHELL/shell.c **** 		.f = shell_clear,
 269:../../source/src/kernel/SHELL/shell.c **** 	},
 270:../../source/src/kernel/SHELL/shell.c **** 	{
 271:../../source/src/kernel/SHELL/shell.c **** 		.command_name = "buddy",
 272:../../source/src/kernel/SHELL/shell.c **** 		.f = shell_buddy_debug,
 273:../../source/src/kernel/SHELL/shell.c **** 	}
 274:../../source/src/kernel/SHELL/shell.c **** #if CONFIG_POWER_MANAGEMENT
 275:../../source/src/kernel/SHELL/shell.c **** 	,{
 276:../../source/src/kernel/SHELL/shell.c **** 		.command_name = "sleep",
 277:../../source/src/kernel/SHELL/shell.c **** 		.f = shell_sleep,
 278:../../source/src/kernel/SHELL/shell.c **** 	}
 279:../../source/src/kernel/SHELL/shell.c **** #endif
 280:../../source/src/kernel/SHELL/shell.c **** };
 281:../../source/src/kernel/SHELL/shell.c **** static struct command resident_command_6[] = 
 282:../../source/src/kernel/SHELL/shell.c **** {
 283:../../source/src/kernel/SHELL/shell.c **** 	{
 284:../../source/src/kernel/SHELL/shell.c **** 		.command_name = "reboot",
 285:../../source/src/kernel/SHELL/shell.c **** 		.f = shell_reboot,
 286:../../source/src/kernel/SHELL/shell.c **** 	}
 287:../../source/src/kernel/SHELL/shell.c **** #if CONFIG_MODULE
 288:../../source/src/kernel/SHELL/shell.c **** 	,{
 289:../../source/src/kernel/SHELL/shell.c **** 		.command_name = "module",
 290:../../source/src/kernel/SHELL/shell.c **** 		.f = shell_module,
 291:../../source/src/kernel/SHELL/shell.c **** 	}
 292:../../source/src/kernel/SHELL/shell.c **** #endif
 293:../../source/src/kernel/SHELL/shell.c **** };
 294:../../source/src/kernel/SHELL/shell.c **** static struct command resident_command_7[] = 
 295:../../source/src/kernel/SHELL/shell.c **** {
ARM GAS  G:\Users\Jaxb\AppData\Local\Temp\ccdq8815.s 			page 25


 296:../../source/src/kernel/SHELL/shell.c **** 	{
 297:../../source/src/kernel/SHELL/shell.c **** 		.command_name = "version",
 298:../../source/src/kernel/SHELL/shell.c **** 		.f = shell_version,
 299:../../source/src/kernel/SHELL/shell.c **** 	}
 300:../../source/src/kernel/SHELL/shell.c **** #if CONFIG_SHELL_DEBUG_EN && CONFIG_SHELL_EN
 301:../../source/src/kernel/SHELL/shell.c **** 	,{
 302:../../source/src/kernel/SHELL/shell.c **** 		.command_name = "debinfo",
 303:../../source/src/kernel/SHELL/shell.c **** 		.f = shell_debug_info,
 304:../../source/src/kernel/SHELL/shell.c **** 	}
 305:../../source/src/kernel/SHELL/shell.c **** #endif
 306:../../source/src/kernel/SHELL/shell.c **** #if CONFIG_MODULE
 307:../../source/src/kernel/SHELL/shell.c **** 	,{
 308:../../source/src/kernel/SHELL/shell.c **** 		.command_name = "symlist",
 309:../../source/src/kernel/SHELL/shell.c **** 		.f = shell_symbol_list_display,
 310:../../source/src/kernel/SHELL/shell.c **** 	}
 311:../../source/src/kernel/SHELL/shell.c **** #endif
 312:../../source/src/kernel/SHELL/shell.c **** 	,{
 313:../../source/src/kernel/SHELL/shell.c **** 		.command_name = "showreg",
 314:../../source/src/kernel/SHELL/shell.c **** 		.f = shell_show_tasks_registers,
 315:../../source/src/kernel/SHELL/shell.c **** 	}
 316:../../source/src/kernel/SHELL/shell.c **** };
 317:../../source/src/kernel/SHELL/shell.c **** static struct command resident_command_8[] = 
 318:../../source/src/kernel/SHELL/shell.c **** {
 319:../../source/src/kernel/SHELL/shell.c **** #if CONFIG_POWER_MANAGEMENT
 320:../../source/src/kernel/SHELL/shell.c **** 	{
 321:../../source/src/kernel/SHELL/shell.c **** 		.command_name = "shutdown",
 322:../../source/src/kernel/SHELL/shell.c **** 		.f = shell_shutdown,
 323:../../source/src/kernel/SHELL/shell.c **** 	}
 324:../../source/src/kernel/SHELL/shell.c **** #endif
 325:../../source/src/kernel/SHELL/shell.c **** };
 326:../../source/src/kernel/SHELL/shell.c **** 
 327:../../source/src/kernel/SHELL/shell.c **** extern void __init_command_n_ptr_hash_array(void);
 328:../../source/src/kernel/SHELL/shell.c **** static void shell_init(void)
 329:../../source/src/kernel/SHELL/shell.c **** {
 981              		.loc 1 329 0
 982              		.cfi_startproc
 983              		@ args = 0, pretend = 0, frame = 8
 984              		@ frame_needed = 1, uses_anonymous_args = 0
 985 0360 80B5     		push	{r7, lr}
 986              	.LCFI29:
 987              		.cfi_def_cfa_offset 8
 988              		.cfi_offset 7, -8
 989              		.cfi_offset 14, -4
 990 0362 82B0     		sub	sp, sp, #8
 991              	.LCFI30:
 992              		.cfi_def_cfa_offset 16
 993 0364 00AF     		add	r7, sp, #0
 994              	.LCFI31:
 995              		.cfi_def_cfa_register 7
 330:../../source/src/kernel/SHELL/shell.c **** 	unsigned int i;
 331:../../source/src/kernel/SHELL/shell.c **** #if CONFIG_ASSERT_DEBUG
 332:../../source/src/kernel/SHELL/shell.c **** 	int error;
 333:../../source/src/kernel/SHELL/shell.c **** #endif
 334:../../source/src/kernel/SHELL/shell.c **** 	__init_command_n_ptr_hash_array();
 996              		.loc 1 334 0
 997 0366 FFF7FEFF 		bl	__init_command_n_ptr_hash_array
 335:../../source/src/kernel/SHELL/shell.c **** 	for(i=0;i<sizeof(resident_command_1)/sizeof(struct command);++i)
ARM GAS  G:\Users\Jaxb\AppData\Local\Temp\ccdq8815.s 			page 26


 998              		.loc 1 335 0
 999 036a 0023     		movs	r3, #0
 1000 036c 7B60     		str	r3, [r7, #4]
 1001 036e 0DE0     		b	.L58
 1002              	.L59:
 336:../../source/src/kernel/SHELL/shell.c **** 	{
 337:../../source/src/kernel/SHELL/shell.c **** 		insert_struct_command_1(resident_command_1+i);
 1003              		.loc 1 337 0 discriminator 3
 1004 0370 7A68     		ldr	r2, [r7, #4]
 1005 0372 1346     		mov	r3, r2
 1006 0374 5B00     		lsls	r3, r3, #1
 1007 0376 1344     		add	r3, r3, r2
 1008 0378 9B00     		lsls	r3, r3, #2
 1009 037a 1A46     		mov	r2, r3
 1010 037c 5C4B     		ldr	r3, .L76
 1011 037e 1344     		add	r3, r3, r2
 1012 0380 1846     		mov	r0, r3
 1013 0382 FFF7FEFF 		bl	insert_struct_command_1
 335:../../source/src/kernel/SHELL/shell.c **** 	for(i=0;i<sizeof(resident_command_1)/sizeof(struct command);++i)
 1014              		.loc 1 335 0 discriminator 3
 1015 0386 7B68     		ldr	r3, [r7, #4]
 1016 0388 0133     		adds	r3, r3, #1
 1017 038a 7B60     		str	r3, [r7, #4]
 1018              	.L58:
 335:../../source/src/kernel/SHELL/shell.c **** 	for(i=0;i<sizeof(resident_command_1)/sizeof(struct command);++i)
 1019              		.loc 1 335 0 is_stmt 0 discriminator 1
 1020 038c 7B68     		ldr	r3, [r7, #4]
 1021 038e 002B     		cmp	r3, #0
 1022 0390 EED0     		beq	.L59
 338:../../source/src/kernel/SHELL/shell.c **** 	}
 339:../../source/src/kernel/SHELL/shell.c **** 	for(i=0;i<sizeof(resident_command_2)/sizeof(struct command);++i)
 1023              		.loc 1 339 0 is_stmt 1
 1024 0392 0023     		movs	r3, #0
 1025 0394 7B60     		str	r3, [r7, #4]
 1026 0396 0DE0     		b	.L60
 1027              	.L61:
 340:../../source/src/kernel/SHELL/shell.c **** 	{
 341:../../source/src/kernel/SHELL/shell.c **** 		insert_struct_command_2(resident_command_2+i);
 1028              		.loc 1 341 0 discriminator 3
 1029 0398 7A68     		ldr	r2, [r7, #4]
 1030 039a 1346     		mov	r3, r2
 1031 039c 5B00     		lsls	r3, r3, #1
 1032 039e 1344     		add	r3, r3, r2
 1033 03a0 9B00     		lsls	r3, r3, #2
 1034 03a2 1A46     		mov	r2, r3
 1035 03a4 534B     		ldr	r3, .L76+4
 1036 03a6 1344     		add	r3, r3, r2
 1037 03a8 1846     		mov	r0, r3
 1038 03aa FFF7FEFF 		bl	insert_struct_command_2
 339:../../source/src/kernel/SHELL/shell.c **** 	{
 1039              		.loc 1 339 0 discriminator 3
 1040 03ae 7B68     		ldr	r3, [r7, #4]
 1041 03b0 0133     		adds	r3, r3, #1
 1042 03b2 7B60     		str	r3, [r7, #4]
 1043              	.L60:
 339:../../source/src/kernel/SHELL/shell.c **** 	{
 1044              		.loc 1 339 0 is_stmt 0 discriminator 1
ARM GAS  G:\Users\Jaxb\AppData\Local\Temp\ccdq8815.s 			page 27


 1045 03b4 7B68     		ldr	r3, [r7, #4]
 1046 03b6 012B     		cmp	r3, #1
 1047 03b8 EED9     		bls	.L61
 342:../../source/src/kernel/SHELL/shell.c **** 	}
 343:../../source/src/kernel/SHELL/shell.c **** 	for(i=0;i<sizeof(resident_command_3)/sizeof(struct command);++i)
 1048              		.loc 1 343 0 is_stmt 1
 1049 03ba 0023     		movs	r3, #0
 1050 03bc 7B60     		str	r3, [r7, #4]
 1051 03be 0DE0     		b	.L62
 1052              	.L63:
 344:../../source/src/kernel/SHELL/shell.c **** 	{
 345:../../source/src/kernel/SHELL/shell.c **** 		insert_struct_command_3(resident_command_3+i);
 1053              		.loc 1 345 0 discriminator 3
 1054 03c0 7A68     		ldr	r2, [r7, #4]
 1055 03c2 1346     		mov	r3, r2
 1056 03c4 5B00     		lsls	r3, r3, #1
 1057 03c6 1344     		add	r3, r3, r2
 1058 03c8 9B00     		lsls	r3, r3, #2
 1059 03ca 1A46     		mov	r2, r3
 1060 03cc 4A4B     		ldr	r3, .L76+8
 1061 03ce 1344     		add	r3, r3, r2
 1062 03d0 1846     		mov	r0, r3
 1063 03d2 FFF7FEFF 		bl	insert_struct_command_3
 343:../../source/src/kernel/SHELL/shell.c **** 	{
 1064              		.loc 1 343 0 discriminator 3
 1065 03d6 7B68     		ldr	r3, [r7, #4]
 1066 03d8 0133     		adds	r3, r3, #1
 1067 03da 7B60     		str	r3, [r7, #4]
 1068              	.L62:
 343:../../source/src/kernel/SHELL/shell.c **** 	{
 1069              		.loc 1 343 0 is_stmt 0 discriminator 1
 1070 03dc 7B68     		ldr	r3, [r7, #4]
 1071 03de 022B     		cmp	r3, #2
 1072 03e0 EED9     		bls	.L63
 346:../../source/src/kernel/SHELL/shell.c **** 	}
 347:../../source/src/kernel/SHELL/shell.c **** 	for(i=0;i<sizeof(resident_command_4)/sizeof(struct command);++i)
 1073              		.loc 1 347 0 is_stmt 1
 1074 03e2 0023     		movs	r3, #0
 1075 03e4 7B60     		str	r3, [r7, #4]
 1076 03e6 0DE0     		b	.L64
 1077              	.L65:
 348:../../source/src/kernel/SHELL/shell.c **** 	{
 349:../../source/src/kernel/SHELL/shell.c **** 		insert_struct_command_4(resident_command_4+i);
 1078              		.loc 1 349 0 discriminator 3
 1079 03e8 7A68     		ldr	r2, [r7, #4]
 1080 03ea 1346     		mov	r3, r2
 1081 03ec 5B00     		lsls	r3, r3, #1
 1082 03ee 1344     		add	r3, r3, r2
 1083 03f0 9B00     		lsls	r3, r3, #2
 1084 03f2 1A46     		mov	r2, r3
 1085 03f4 414B     		ldr	r3, .L76+12
 1086 03f6 1344     		add	r3, r3, r2
 1087 03f8 1846     		mov	r0, r3
 1088 03fa FFF7FEFF 		bl	insert_struct_command_4
 347:../../source/src/kernel/SHELL/shell.c **** 	{
 1089              		.loc 1 347 0 discriminator 3
 1090 03fe 7B68     		ldr	r3, [r7, #4]
ARM GAS  G:\Users\Jaxb\AppData\Local\Temp\ccdq8815.s 			page 28


 1091 0400 0133     		adds	r3, r3, #1
 1092 0402 7B60     		str	r3, [r7, #4]
 1093              	.L64:
 347:../../source/src/kernel/SHELL/shell.c **** 	{
 1094              		.loc 1 347 0 is_stmt 0 discriminator 1
 1095 0404 7B68     		ldr	r3, [r7, #4]
 1096 0406 062B     		cmp	r3, #6
 1097 0408 EED9     		bls	.L65
 350:../../source/src/kernel/SHELL/shell.c **** 	}
 351:../../source/src/kernel/SHELL/shell.c **** 	for(i=0;i<sizeof(resident_command_5)/sizeof(struct command);++i)
 1098              		.loc 1 351 0 is_stmt 1
 1099 040a 0023     		movs	r3, #0
 1100 040c 7B60     		str	r3, [r7, #4]
 1101 040e 0DE0     		b	.L66
 1102              	.L67:
 352:../../source/src/kernel/SHELL/shell.c **** 	{
 353:../../source/src/kernel/SHELL/shell.c **** 		insert_struct_command_5(resident_command_5+i);
 1103              		.loc 1 353 0 discriminator 3
 1104 0410 7A68     		ldr	r2, [r7, #4]
 1105 0412 1346     		mov	r3, r2
 1106 0414 5B00     		lsls	r3, r3, #1
 1107 0416 1344     		add	r3, r3, r2
 1108 0418 9B00     		lsls	r3, r3, #2
 1109 041a 1A46     		mov	r2, r3
 1110 041c 384B     		ldr	r3, .L76+16
 1111 041e 1344     		add	r3, r3, r2
 1112 0420 1846     		mov	r0, r3
 1113 0422 FFF7FEFF 		bl	insert_struct_command_5
 351:../../source/src/kernel/SHELL/shell.c **** 	{
 1114              		.loc 1 351 0 discriminator 3
 1115 0426 7B68     		ldr	r3, [r7, #4]
 1116 0428 0133     		adds	r3, r3, #1
 1117 042a 7B60     		str	r3, [r7, #4]
 1118              	.L66:
 351:../../source/src/kernel/SHELL/shell.c **** 	{
 1119              		.loc 1 351 0 is_stmt 0 discriminator 1
 1120 042c 7B68     		ldr	r3, [r7, #4]
 1121 042e 032B     		cmp	r3, #3
 1122 0430 EED9     		bls	.L67
 354:../../source/src/kernel/SHELL/shell.c **** 	}
 355:../../source/src/kernel/SHELL/shell.c **** 	for(i=0;i<sizeof(resident_command_6)/sizeof(struct command);++i)
 1123              		.loc 1 355 0 is_stmt 1
 1124 0432 0023     		movs	r3, #0
 1125 0434 7B60     		str	r3, [r7, #4]
 1126 0436 0DE0     		b	.L68
 1127              	.L69:
 356:../../source/src/kernel/SHELL/shell.c **** 	{
 357:../../source/src/kernel/SHELL/shell.c **** 		insert_struct_command_6(resident_command_6+i);
 1128              		.loc 1 357 0 discriminator 3
 1129 0438 7A68     		ldr	r2, [r7, #4]
 1130 043a 1346     		mov	r3, r2
 1131 043c 5B00     		lsls	r3, r3, #1
 1132 043e 1344     		add	r3, r3, r2
 1133 0440 9B00     		lsls	r3, r3, #2
 1134 0442 1A46     		mov	r2, r3
 1135 0444 2F4B     		ldr	r3, .L76+20
 1136 0446 1344     		add	r3, r3, r2
ARM GAS  G:\Users\Jaxb\AppData\Local\Temp\ccdq8815.s 			page 29


 1137 0448 1846     		mov	r0, r3
 1138 044a FFF7FEFF 		bl	insert_struct_command_6
 355:../../source/src/kernel/SHELL/shell.c **** 	{
 1139              		.loc 1 355 0 discriminator 3
 1140 044e 7B68     		ldr	r3, [r7, #4]
 1141 0450 0133     		adds	r3, r3, #1
 1142 0452 7B60     		str	r3, [r7, #4]
 1143              	.L68:
 355:../../source/src/kernel/SHELL/shell.c **** 	{
 1144              		.loc 1 355 0 is_stmt 0 discriminator 1
 1145 0454 7B68     		ldr	r3, [r7, #4]
 1146 0456 012B     		cmp	r3, #1
 1147 0458 EED9     		bls	.L69
 358:../../source/src/kernel/SHELL/shell.c **** 	}
 359:../../source/src/kernel/SHELL/shell.c **** 	for(i=0;i<sizeof(resident_command_7)/sizeof(struct command);++i)
 1148              		.loc 1 359 0 is_stmt 1
 1149 045a 0023     		movs	r3, #0
 1150 045c 7B60     		str	r3, [r7, #4]
 1151 045e 0DE0     		b	.L70
 1152              	.L71:
 360:../../source/src/kernel/SHELL/shell.c **** 	{
 361:../../source/src/kernel/SHELL/shell.c **** 		insert_struct_command_7(resident_command_7+i);
 1153              		.loc 1 361 0 discriminator 3
 1154 0460 7A68     		ldr	r2, [r7, #4]
 1155 0462 1346     		mov	r3, r2
 1156 0464 5B00     		lsls	r3, r3, #1
 1157 0466 1344     		add	r3, r3, r2
 1158 0468 9B00     		lsls	r3, r3, #2
 1159 046a 1A46     		mov	r2, r3
 1160 046c 264B     		ldr	r3, .L76+24
 1161 046e 1344     		add	r3, r3, r2
 1162 0470 1846     		mov	r0, r3
 1163 0472 FFF7FEFF 		bl	insert_struct_command_7
 359:../../source/src/kernel/SHELL/shell.c **** 	{
 1164              		.loc 1 359 0 discriminator 3
 1165 0476 7B68     		ldr	r3, [r7, #4]
 1166 0478 0133     		adds	r3, r3, #1
 1167 047a 7B60     		str	r3, [r7, #4]
 1168              	.L70:
 359:../../source/src/kernel/SHELL/shell.c **** 	{
 1169              		.loc 1 359 0 is_stmt 0 discriminator 1
 1170 047c 7B68     		ldr	r3, [r7, #4]
 1171 047e 032B     		cmp	r3, #3
 1172 0480 EED9     		bls	.L71
 362:../../source/src/kernel/SHELL/shell.c **** 	}
 363:../../source/src/kernel/SHELL/shell.c **** 	for(i=0;i<sizeof(resident_command_8)/sizeof(struct command);++i)
 1173              		.loc 1 363 0 is_stmt 1
 1174 0482 0023     		movs	r3, #0
 1175 0484 7B60     		str	r3, [r7, #4]
 1176 0486 0DE0     		b	.L72
 1177              	.L73:
 364:../../source/src/kernel/SHELL/shell.c **** 	{
 365:../../source/src/kernel/SHELL/shell.c **** 		insert_struct_command_8(resident_command_8+i);
 1178              		.loc 1 365 0 discriminator 3
 1179 0488 7A68     		ldr	r2, [r7, #4]
 1180 048a 1346     		mov	r3, r2
 1181 048c 5B00     		lsls	r3, r3, #1
ARM GAS  G:\Users\Jaxb\AppData\Local\Temp\ccdq8815.s 			page 30


 1182 048e 1344     		add	r3, r3, r2
 1183 0490 9B00     		lsls	r3, r3, #2
 1184 0492 1A46     		mov	r2, r3
 1185 0494 1D4B     		ldr	r3, .L76+28
 1186 0496 1344     		add	r3, r3, r2
 1187 0498 1846     		mov	r0, r3
 1188 049a FFF7FEFF 		bl	insert_struct_command_8
 363:../../source/src/kernel/SHELL/shell.c **** 	{
 1189              		.loc 1 363 0 discriminator 3
 1190 049e 7B68     		ldr	r3, [r7, #4]
 1191 04a0 0133     		adds	r3, r3, #1
 1192 04a2 7B60     		str	r3, [r7, #4]
 1193              	.L72:
 363:../../source/src/kernel/SHELL/shell.c **** 	{
 1194              		.loc 1 363 0 is_stmt 0 discriminator 1
 1195 04a4 7B68     		ldr	r3, [r7, #4]
 1196 04a6 002B     		cmp	r3, #0
 1197 04a8 EED0     		beq	.L73
 366:../../source/src/kernel/SHELL/shell.c **** 	}
 367:../../source/src/kernel/SHELL/shell.c **** #if CONFIG_ASSERT_DEBUG
 368:../../source/src/kernel/SHELL/shell.c **** 	error = init_MCB(&MCB_for_shell,0,MCB_TYPE_FLAG_BINARY);
 1198              		.loc 1 368 0 is_stmt 1
 1199 04aa 0122     		movs	r2, #1
 1200 04ac 0021     		movs	r1, #0
 1201 04ae 1848     		ldr	r0, .L76+32
 1202 04b0 FFF7FEFF 		bl	init_MCB
 1203 04b4 3860     		str	r0, [r7]
 369:../../source/src/kernel/SHELL/shell.c **** #else
 370:../../source/src/kernel/SHELL/shell.c **** 	init_MCB(&MCB_for_shell,0,MCB_TYPE_FLAG_BINARY);
 371:../../source/src/kernel/SHELL/shell.c **** #endif
 372:../../source/src/kernel/SHELL/shell.c **** 	ASSERT(FUN_EXECUTE_SUCCESSFULLY == error);
 1204              		.loc 1 372 0
 1205 04b6 3B68     		ldr	r3, [r7]
 1206 04b8 002B     		cmp	r3, #0
 1207 04ba 04D0     		beq	.L74
 1208              		.loc 1 372 0 is_stmt 0 discriminator 1
 1209 04bc 4FF4BA71 		mov	r1, #372
 1210 04c0 1448     		ldr	r0, .L76+36
 1211 04c2 FFF7FEFF 		bl	_ASSERT
 1212              	.L74:
 373:../../source/src/kernel/SHELL/shell.c **** #if CONFIG_ASSERT_DEBUG
 374:../../source/src/kernel/SHELL/shell.c **** 	error = __init_shell_buffer(&main_shell_buffer,main_buffer,main_buffer_reserve);
 1213              		.loc 1 374 0 is_stmt 1
 1214 04c6 144A     		ldr	r2, .L76+40
 1215 04c8 1449     		ldr	r1, .L76+44
 1216 04ca 1548     		ldr	r0, .L76+48
 1217 04cc FFF7FEFF 		bl	__init_shell_buffer
 1218 04d0 3860     		str	r0, [r7]
 375:../../source/src/kernel/SHELL/shell.c **** #else
 376:../../source/src/kernel/SHELL/shell.c **** 	__init_shell_buffer(&main_shell_buffer,main_buffer,main_buffer_reserve);
 377:../../source/src/kernel/SHELL/shell.c **** #endif
 378:../../source/src/kernel/SHELL/shell.c **** 	ASSERT(FUN_EXECUTE_SUCCESSFULLY == error);
 1219              		.loc 1 378 0
 1220 04d2 3B68     		ldr	r3, [r7]
 1221 04d4 002B     		cmp	r3, #0
 1222 04d6 04D0     		beq	.L75
 1223              		.loc 1 378 0 is_stmt 0 discriminator 1
ARM GAS  G:\Users\Jaxb\AppData\Local\Temp\ccdq8815.s 			page 31


 1224 04d8 4FF4BD71 		mov	r1, #378
 1225 04dc 0D48     		ldr	r0, .L76+36
 1226 04de FFF7FEFF 		bl	_ASSERT
 1227              	.L75:
 379:../../source/src/kernel/SHELL/shell.c **** 	using_shell_buffer_ptr = &main_shell_buffer;
 1228              		.loc 1 379 0 is_stmt 1
 1229 04e2 104B     		ldr	r3, .L76+52
 1230 04e4 0E4A     		ldr	r2, .L76+48
 1231 04e6 1A60     		str	r2, [r3]
 380:../../source/src/kernel/SHELL/shell.c **** }
 1232              		.loc 1 380 0
 1233 04e8 00BF     		nop
 1234 04ea 0837     		adds	r7, r7, #8
 1235              	.LCFI32:
 1236              		.cfi_def_cfa_offset 8
 1237 04ec BD46     		mov	sp, r7
 1238              	.LCFI33:
 1239              		.cfi_def_cfa_register 13
 1240              		@ sp needed
 1241 04ee 80BD     		pop	{r7, pc}
 1242              	.L77:
 1243              		.align	2
 1244              	.L76:
 1245 04f0 00000000 		.word	resident_command_1
 1246 04f4 0C000000 		.word	resident_command_2
 1247 04f8 24000000 		.word	resident_command_3
 1248 04fc 48000000 		.word	resident_command_4
 1249 0500 9C000000 		.word	resident_command_5
 1250 0504 CC000000 		.word	resident_command_6
 1251 0508 E4000000 		.word	resident_command_7
 1252 050c 14010000 		.word	resident_command_8
 1253 0510 00000000 		.word	MCB_for_shell
 1254 0514 00000000 		.word	.LC0
 1255 0518 E4000000 		.word	main_buffer_reserve
 1256 051c 80000000 		.word	main_buffer
 1257 0520 20000000 		.word	main_shell_buffer
 1258 0524 48010000 		.word	using_shell_buffer_ptr
 1259              		.cfi_endproc
 1260              	.LFE20:
 1261              		.size	shell_init, .-shell_init
 1262              		.section	.rodata
 1263 0229 000000   		.align	2
 1264              	.LC35:
 1265 022c 746F6F20 		.ascii	"too many argument\012\000"
 1265      6D616E79 
 1265      20617267 
 1265      756D656E 
 1265      740A00
 1266              		.text
 1267              		.align	1
 1268              		.syntax unified
 1269              		.thumb
 1270              		.thumb_func
 1271              		.fpu softvfp
 1272              		.type	process, %function
 1273              	process:
 1274              	.LFB21:
ARM GAS  G:\Users\Jaxb\AppData\Local\Temp\ccdq8815.s 			page 32


 381:../../source/src/kernel/SHELL/shell.c **** 
 382:../../source/src/kernel/SHELL/shell.c **** //public
 383:../../source/src/kernel/SHELL/shell.c **** static int process(char *buffer_ptr)
 384:../../source/src/kernel/SHELL/shell.c **** {
 1275              		.loc 1 384 0
 1276              		.cfi_startproc
 1277              		@ args = 0, pretend = 0, frame = 24
 1278              		@ frame_needed = 1, uses_anonymous_args = 0
 1279 0528 B0B5     		push	{r4, r5, r7, lr}
 1280              	.LCFI34:
 1281              		.cfi_def_cfa_offset 16
 1282              		.cfi_offset 4, -16
 1283              		.cfi_offset 5, -12
 1284              		.cfi_offset 7, -8
 1285              		.cfi_offset 14, -4
 1286 052a 86B0     		sub	sp, sp, #24
 1287              	.LCFI35:
 1288              		.cfi_def_cfa_offset 40
 1289 052c 00AF     		add	r7, sp, #0
 1290              	.LCFI36:
 1291              		.cfi_def_cfa_register 7
 1292 052e 7860     		str	r0, [r7, #4]
 385:../../source/src/kernel/SHELL/shell.c **** 	char *ptr = buffer_ptr;
 1293              		.loc 1 385 0
 1294 0530 7B68     		ldr	r3, [r7, #4]
 1295 0532 7B61     		str	r3, [r7, #20]
 386:../../source/src/kernel/SHELL/shell.c **** 	unsigned int num = 0;
 1296              		.loc 1 386 0
 1297 0534 0023     		movs	r3, #0
 1298 0536 3B61     		str	r3, [r7, #16]
 387:../../source/src/kernel/SHELL/shell.c **** 	int result;
 388:../../source/src/kernel/SHELL/shell.c **** 	while(*ptr == ' ')
 1299              		.loc 1 388 0
 1300 0538 02E0     		b	.L79
 1301              	.L80:
 389:../../source/src/kernel/SHELL/shell.c **** 	{
 390:../../source/src/kernel/SHELL/shell.c **** 		++ptr;
 1302              		.loc 1 390 0
 1303 053a 7B69     		ldr	r3, [r7, #20]
 1304 053c 0133     		adds	r3, r3, #1
 1305 053e 7B61     		str	r3, [r7, #20]
 1306              	.L79:
 388:../../source/src/kernel/SHELL/shell.c **** 	{
 1307              		.loc 1 388 0
 1308 0540 7B69     		ldr	r3, [r7, #20]
 1309 0542 1B78     		ldrb	r3, [r3]	@ zero_extendqisi2
 1310 0544 202B     		cmp	r3, #32
 1311 0546 F8D0     		beq	.L80
 391:../../source/src/kernel/SHELL/shell.c **** 	}
 392:../../source/src/kernel/SHELL/shell.c **** 	if((0x0d == *ptr) || (0x0a == *ptr))
 1312              		.loc 1 392 0
 1313 0548 7B69     		ldr	r3, [r7, #20]
 1314 054a 1B78     		ldrb	r3, [r3]	@ zero_extendqisi2
 1315 054c 0D2B     		cmp	r3, #13
 1316 054e 03D0     		beq	.L81
 1317              		.loc 1 392 0 is_stmt 0 discriminator 1
 1318 0550 7B69     		ldr	r3, [r7, #20]
ARM GAS  G:\Users\Jaxb\AppData\Local\Temp\ccdq8815.s 			page 33


 1319 0552 1B78     		ldrb	r3, [r3]	@ zero_extendqisi2
 1320 0554 0A2B     		cmp	r3, #10
 1321 0556 01D1     		bne	.L82
 1322              	.L81:
 393:../../source/src/kernel/SHELL/shell.c **** 	{
 394:../../source/src/kernel/SHELL/shell.c **** 		return 0;
 1323              		.loc 1 394 0 is_stmt 1
 1324 0558 0023     		movs	r3, #0
 1325 055a 5CE0     		b	.L83
 1326              	.L82:
 395:../../source/src/kernel/SHELL/shell.c **** 	}
 396:../../source/src/kernel/SHELL/shell.c **** 	using_shell_buffer_ptr->argv[num++] = ptr;
 1327              		.loc 1 396 0
 1328 055c 304B     		ldr	r3, .L91
 1329 055e 1A68     		ldr	r2, [r3]
 1330 0560 3B69     		ldr	r3, [r7, #16]
 1331 0562 591C     		adds	r1, r3, #1
 1332 0564 3961     		str	r1, [r7, #16]
 1333 0566 7969     		ldr	r1, [r7, #20]
 1334 0568 42F82310 		str	r1, [r2, r3, lsl #2]
 397:../../source/src/kernel/SHELL/shell.c **** 	while((0x0d != *ptr) && (0x0a != *ptr))
 1335              		.loc 1 397 0
 1336 056c 2DE0     		b	.L84
 1337              	.L89:
 398:../../source/src/kernel/SHELL/shell.c **** 	{
 399:../../source/src/kernel/SHELL/shell.c **** 		if(' ' != *ptr)
 1338              		.loc 1 399 0
 1339 056e 7B69     		ldr	r3, [r7, #20]
 1340 0570 1B78     		ldrb	r3, [r3]	@ zero_extendqisi2
 1341 0572 202B     		cmp	r3, #32
 1342 0574 03D0     		beq	.L85
 400:../../source/src/kernel/SHELL/shell.c **** 		{
 401:../../source/src/kernel/SHELL/shell.c **** 			++ptr;
 1343              		.loc 1 401 0
 1344 0576 7B69     		ldr	r3, [r7, #20]
 1345 0578 0133     		adds	r3, r3, #1
 1346 057a 7B61     		str	r3, [r7, #20]
 402:../../source/src/kernel/SHELL/shell.c **** 			continue;
 1347              		.loc 1 402 0
 1348 057c 25E0     		b	.L84
 1349              	.L85:
 403:../../source/src/kernel/SHELL/shell.c **** 		}
 404:../../source/src/kernel/SHELL/shell.c **** 		else
 405:../../source/src/kernel/SHELL/shell.c **** 		{
 406:../../source/src/kernel/SHELL/shell.c **** 			*ptr = '\0';
 1350              		.loc 1 406 0
 1351 057e 7B69     		ldr	r3, [r7, #20]
 1352 0580 0022     		movs	r2, #0
 1353 0582 1A70     		strb	r2, [r3]
 407:../../source/src/kernel/SHELL/shell.c **** 			++ptr;
 1354              		.loc 1 407 0
 1355 0584 7B69     		ldr	r3, [r7, #20]
 1356 0586 0133     		adds	r3, r3, #1
 1357 0588 7B61     		str	r3, [r7, #20]
 408:../../source/src/kernel/SHELL/shell.c **** 			while(' ' == *ptr)
 1358              		.loc 1 408 0
 1359 058a 02E0     		b	.L86
ARM GAS  G:\Users\Jaxb\AppData\Local\Temp\ccdq8815.s 			page 34


 1360              	.L87:
 409:../../source/src/kernel/SHELL/shell.c **** 			{
 410:../../source/src/kernel/SHELL/shell.c **** 				++ptr;
 1361              		.loc 1 410 0
 1362 058c 7B69     		ldr	r3, [r7, #20]
 1363 058e 0133     		adds	r3, r3, #1
 1364 0590 7B61     		str	r3, [r7, #20]
 1365              	.L86:
 408:../../source/src/kernel/SHELL/shell.c **** 			while(' ' == *ptr)
 1366              		.loc 1 408 0
 1367 0592 7B69     		ldr	r3, [r7, #20]
 1368 0594 1B78     		ldrb	r3, [r3]	@ zero_extendqisi2
 1369 0596 202B     		cmp	r3, #32
 1370 0598 F8D0     		beq	.L87
 411:../../source/src/kernel/SHELL/shell.c **** 			}
 412:../../source/src/kernel/SHELL/shell.c **** 			if((0x0d != *ptr) && (0x0a != *ptr))
 1371              		.loc 1 412 0
 1372 059a 7B69     		ldr	r3, [r7, #20]
 1373 059c 1B78     		ldrb	r3, [r3]	@ zero_extendqisi2
 1374 059e 0D2B     		cmp	r3, #13
 1375 05a0 13D0     		beq	.L84
 1376              		.loc 1 412 0 is_stmt 0 discriminator 1
 1377 05a2 7B69     		ldr	r3, [r7, #20]
 1378 05a4 1B78     		ldrb	r3, [r3]	@ zero_extendqisi2
 1379 05a6 0A2B     		cmp	r3, #10
 1380 05a8 0FD0     		beq	.L84
 413:../../source/src/kernel/SHELL/shell.c **** 			{
 414:../../source/src/kernel/SHELL/shell.c **** 				using_shell_buffer_ptr->argv[num++] = ptr;
 1381              		.loc 1 414 0 is_stmt 1
 1382 05aa 1D4B     		ldr	r3, .L91
 1383 05ac 1A68     		ldr	r2, [r3]
 1384 05ae 3B69     		ldr	r3, [r7, #16]
 1385 05b0 591C     		adds	r1, r3, #1
 1386 05b2 3961     		str	r1, [r7, #16]
 1387 05b4 7969     		ldr	r1, [r7, #20]
 1388 05b6 42F82310 		str	r1, [r2, r3, lsl #2]
 415:../../source/src/kernel/SHELL/shell.c **** 				if(ARGV_SIZE+1 == num)
 1389              		.loc 1 415 0
 1390 05ba 3B69     		ldr	r3, [r7, #16]
 1391 05bc 0B2B     		cmp	r3, #11
 1392 05be 04D1     		bne	.L84
 416:../../source/src/kernel/SHELL/shell.c **** 				{
 417:../../source/src/kernel/SHELL/shell.c **** 					ka_printf("too many argument\n");
 1393              		.loc 1 417 0
 1394 05c0 1848     		ldr	r0, .L91+4
 1395 05c2 FFF7FEFF 		bl	ka_printf
 418:../../source/src/kernel/SHELL/shell.c **** 					return 0;
 1396              		.loc 1 418 0
 1397 05c6 0023     		movs	r3, #0
 1398 05c8 25E0     		b	.L83
 1399              	.L84:
 397:../../source/src/kernel/SHELL/shell.c **** 	{
 1400              		.loc 1 397 0
 1401 05ca 7B69     		ldr	r3, [r7, #20]
 1402 05cc 1B78     		ldrb	r3, [r3]	@ zero_extendqisi2
 1403 05ce 0D2B     		cmp	r3, #13
 1404 05d0 03D0     		beq	.L88
ARM GAS  G:\Users\Jaxb\AppData\Local\Temp\ccdq8815.s 			page 35


 397:../../source/src/kernel/SHELL/shell.c **** 	{
 1405              		.loc 1 397 0 is_stmt 0 discriminator 1
 1406 05d2 7B69     		ldr	r3, [r7, #20]
 1407 05d4 1B78     		ldrb	r3, [r3]	@ zero_extendqisi2
 1408 05d6 0A2B     		cmp	r3, #10
 1409 05d8 C9D1     		bne	.L89
 1410              	.L88:
 419:../../source/src/kernel/SHELL/shell.c **** 				}
 420:../../source/src/kernel/SHELL/shell.c **** 			}
 421:../../source/src/kernel/SHELL/shell.c **** 		}
 422:../../source/src/kernel/SHELL/shell.c **** 	}
 423:../../source/src/kernel/SHELL/shell.c **** 	*ptr = '\0';
 1411              		.loc 1 423 0 is_stmt 1
 1412 05da 7B69     		ldr	r3, [r7, #20]
 1413 05dc 0022     		movs	r2, #0
 1414 05de 1A70     		strb	r2, [r3]
 424:../../source/src/kernel/SHELL/shell.c **** 		
 425:../../source/src/kernel/SHELL/shell.c **** 	result = match_and_execute_command(num,
 1415              		.loc 1 425 0
 1416 05e0 3C69     		ldr	r4, [r7, #16]
 426:../../source/src/kernel/SHELL/shell.c **** 		(const char **)(using_shell_buffer_ptr->argv),
 1417              		.loc 1 426 0
 1418 05e2 0F4B     		ldr	r3, .L91
 1419 05e4 1B68     		ldr	r3, [r3]
 1420 05e6 1D46     		mov	r5, r3
 427:../../source/src/kernel/SHELL/shell.c **** 		get_command_processer(ka_strlen(using_shell_buffer_ptr->argv[0])));
 1421              		.loc 1 427 0
 1422 05e8 0D4B     		ldr	r3, .L91
 1423 05ea 1B68     		ldr	r3, [r3]
 1424 05ec 1B68     		ldr	r3, [r3]
 425:../../source/src/kernel/SHELL/shell.c **** 		(const char **)(using_shell_buffer_ptr->argv),
 1425              		.loc 1 425 0
 1426 05ee 1846     		mov	r0, r3
 1427 05f0 FFF7FEFF 		bl	ka_strlen
 1428 05f4 0346     		mov	r3, r0
 1429 05f6 1846     		mov	r0, r3
 1430 05f8 FFF7FEFF 		bl	get_command_processer
 1431 05fc 0346     		mov	r3, r0
 1432 05fe 1A46     		mov	r2, r3
 1433 0600 2946     		mov	r1, r5
 1434 0602 2046     		mov	r0, r4
 1435 0604 FFF7FEFF 		bl	match_and_execute_command
 1436 0608 F860     		str	r0, [r7, #12]
 428:../../source/src/kernel/SHELL/shell.c ****     if(result == 1)
 1437              		.loc 1 428 0
 1438 060a FB68     		ldr	r3, [r7, #12]
 1439 060c 012B     		cmp	r3, #1
 1440 060e 01D1     		bne	.L90
 429:../../source/src/kernel/SHELL/shell.c ****     {
 430:../../source/src/kernel/SHELL/shell.c ****     	return 0;
 1441              		.loc 1 430 0
 1442 0610 0023     		movs	r3, #0
 1443 0612 00E0     		b	.L83
 1444              	.L90:
 431:../../source/src/kernel/SHELL/shell.c ****     }
 432:../../source/src/kernel/SHELL/shell.c ****     return num;
 1445              		.loc 1 432 0
ARM GAS  G:\Users\Jaxb\AppData\Local\Temp\ccdq8815.s 			page 36


 1446 0614 3B69     		ldr	r3, [r7, #16]
 1447              	.L83:
 433:../../source/src/kernel/SHELL/shell.c **** }
 1448              		.loc 1 433 0
 1449 0616 1846     		mov	r0, r3
 1450 0618 1837     		adds	r7, r7, #24
 1451              	.LCFI37:
 1452              		.cfi_def_cfa_offset 16
 1453 061a BD46     		mov	sp, r7
 1454              	.LCFI38:
 1455              		.cfi_def_cfa_register 13
 1456              		@ sp needed
 1457 061c B0BD     		pop	{r4, r5, r7, pc}
 1458              	.L92:
 1459 061e 00BF     		.align	2
 1460              	.L91:
 1461 0620 48010000 		.word	using_shell_buffer_ptr
 1462 0624 2C020000 		.word	.LC35
 1463              		.cfi_endproc
 1464              	.LFE21:
 1465              		.size	process, .-process
 1466              		.section	.rodata
 1467 023f 00       		.align	2
 1468              	.LC36:
 1469 0240 2F2A2A2A 		.ascii	"/*************************\000"
 1469      2A2A2A2A 
 1469      2A2A2A2A 
 1469      2A2A2A2A 
 1469      2A2A2A2A 
 1470 025b 00       		.align	2
 1471              	.LC37:
 1472 025c 25730A00 		.ascii	"%s\012\000"
 1473              		.align	2
 1474              	.LC38:
 1475 0260 2A00     		.ascii	"*\000"
 1476 0262 0000     		.align	2
 1477              	.LC39:
 1478 0264 2A202020 		.ascii	"*   kaka_os  shell\000"
 1478      6B616B61 
 1478      5F6F7320 
 1478      20736865 
 1478      6C6C00
 1479 0277 00       		.align	2
 1480              	.LC40:
 1481 0278 2A2A2A2A 		.ascii	"*************************/\000"
 1481      2A2A2A2A 
 1481      2A2A2A2A 
 1481      2A2A2A2A 
 1481      2A2A2A2A 
 1482 0293 00       		.align	2
 1483              	.LC41:
 1484 0294 6B616B61 		.ascii	"kaka_os>>\000"
 1484      5F6F733E 
 1484      3E00
 1485              		.text
 1486              		.align	1
 1487              		.global	shell
ARM GAS  G:\Users\Jaxb\AppData\Local\Temp\ccdq8815.s 			page 37


 1488              		.syntax unified
 1489              		.thumb
 1490              		.thumb_func
 1491              		.fpu softvfp
 1492              		.type	shell, %function
 1493              	shell:
 1494              	.LFB22:
 434:../../source/src/kernel/SHELL/shell.c **** 
 435:../../source/src/kernel/SHELL/shell.c **** extern TCB TCB_count_init;
 436:../../source/src/kernel/SHELL/shell.c **** void shell(void *para)
 437:../../source/src/kernel/SHELL/shell.c **** {
 1495              		.loc 1 437 0
 1496              		.cfi_startproc
 1497              		@ args = 0, pretend = 0, frame = 24
 1498              		@ frame_needed = 1, uses_anonymous_args = 0
 1499 0628 80B5     		push	{r7, lr}
 1500              	.LCFI39:
 1501              		.cfi_def_cfa_offset 8
 1502              		.cfi_offset 7, -8
 1503              		.cfi_offset 14, -4
 1504 062a 86B0     		sub	sp, sp, #24
 1505              	.LCFI40:
 1506              		.cfi_def_cfa_offset 32
 1507 062c 00AF     		add	r7, sp, #0
 1508              	.LCFI41:
 1509              		.cfi_def_cfa_register 7
 1510 062e 7860     		str	r0, [r7, #4]
 438:../../source/src/kernel/SHELL/shell.c **** #if CONFIG_ASSERT_DEBUG
 439:../../source/src/kernel/SHELL/shell.c **** 	int error;
 440:../../source/src/kernel/SHELL/shell.c **** #endif
 441:../../source/src/kernel/SHELL/shell.c **** 	(void)para;
 442:../../source/src/kernel/SHELL/shell.c **** 	int result;
 443:../../source/src/kernel/SHELL/shell.c **** 	task_delete(&TCB_count_init);
 1511              		.loc 1 443 0
 1512 0630 3E48     		ldr	r0, .L99
 1513 0632 FFF7FEFF 		bl	task_delete
 444:../../source/src/kernel/SHELL/shell.c **** 	shell_init();
 1514              		.loc 1 444 0
 1515 0636 FFF793FE 		bl	shell_init
 445:../../source/src/kernel/SHELL/shell.c **** 	ka_printf("%s\n","/*************************");
 1516              		.loc 1 445 0
 1517 063a 3D49     		ldr	r1, .L99+4
 1518 063c 3D48     		ldr	r0, .L99+8
 1519 063e FFF7FEFF 		bl	ka_printf
 446:../../source/src/kernel/SHELL/shell.c **** 	ka_printf("%s\n","*");
 1520              		.loc 1 446 0
 1521 0642 3D49     		ldr	r1, .L99+12
 1522 0644 3B48     		ldr	r0, .L99+8
 1523 0646 FFF7FEFF 		bl	ka_printf
 447:../../source/src/kernel/SHELL/shell.c **** 	ka_printf("%s\n","*   kaka_os  shell");
 1524              		.loc 1 447 0
 1525 064a 3C49     		ldr	r1, .L99+16
 1526 064c 3948     		ldr	r0, .L99+8
 1527 064e FFF7FEFF 		bl	ka_printf
 448:../../source/src/kernel/SHELL/shell.c **** 	ka_printf("%s\n","*");
 1528              		.loc 1 448 0
 1529 0652 3949     		ldr	r1, .L99+12
ARM GAS  G:\Users\Jaxb\AppData\Local\Temp\ccdq8815.s 			page 38


 1530 0654 3748     		ldr	r0, .L99+8
 1531 0656 FFF7FEFF 		bl	ka_printf
 449:../../source/src/kernel/SHELL/shell.c **** 	ka_printf("%s\n","*************************/");
 1532              		.loc 1 449 0
 1533 065a 3949     		ldr	r1, .L99+20
 1534 065c 3548     		ldr	r0, .L99+8
 1535 065e FFF7FEFF 		bl	ka_printf
 450:../../source/src/kernel/SHELL/shell.c **** 	ka_printf("%s","kaka_os>>");
 1536              		.loc 1 450 0
 1537 0662 3849     		ldr	r1, .L99+24
 1538 0664 3848     		ldr	r0, .L99+28
 1539 0666 FFF7FEFF 		bl	ka_printf
 1540              	.L98:
 451:../../source/src/kernel/SHELL/shell.c **** 	while(1)
 452:../../source/src/kernel/SHELL/shell.c **** 	{
 453:../../source/src/kernel/SHELL/shell.c **** #if CONFIG_ASSERT_DEBUG
 454:../../source/src/kernel/SHELL/shell.c **** 		error = p(&MCB_for_shell,MCB_FLAG_WAIT,0);
 1541              		.loc 1 454 0
 1542 066a 0022     		movs	r2, #0
 1543 066c 0021     		movs	r1, #0
 1544 066e 3748     		ldr	r0, .L99+32
 1545 0670 FFF7FEFF 		bl	p
 1546 0674 3861     		str	r0, [r7, #16]
 455:../../source/src/kernel/SHELL/shell.c **** #else
 456:../../source/src/kernel/SHELL/shell.c **** 		p(&MCB_for_shell,MCB_FLAG_WAIT,0);
 457:../../source/src/kernel/SHELL/shell.c **** #endif
 458:../../source/src/kernel/SHELL/shell.c **** 		ASSERT(FUN_EXECUTE_SUCCESSFULLY == error);
 1547              		.loc 1 458 0
 1548 0676 3B69     		ldr	r3, [r7, #16]
 1549 0678 002B     		cmp	r3, #0
 1550 067a 04D0     		beq	.L94
 1551              		.loc 1 458 0 is_stmt 0 discriminator 1
 1552 067c 4FF4E571 		mov	r1, #458
 1553 0680 3348     		ldr	r0, .L99+36
 1554 0682 FFF7FEFF 		bl	_ASSERT
 1555              	.L94:
 459:../../source/src/kernel/SHELL/shell.c **** 		result = process(using_shell_buffer_ptr->buffer);
 1556              		.loc 1 459 0 is_stmt 1
 1557 0686 334B     		ldr	r3, .L99+40
 1558 0688 1B68     		ldr	r3, [r3]
 1559 068a 1B6D     		ldr	r3, [r3, #80]
 1560 068c 1846     		mov	r0, r3
 1561 068e FFF74BFF 		bl	process
 1562 0692 F860     		str	r0, [r7, #12]
 460:../../source/src/kernel/SHELL/shell.c **** 		if(0 != result && using_shell_buffer_ptr->buffer_reserve)
 1563              		.loc 1 460 0
 1564 0694 FB68     		ldr	r3, [r7, #12]
 1565 0696 002B     		cmp	r3, #0
 1566 0698 41D0     		beq	.L95
 1567              		.loc 1 460 0 is_stmt 0 discriminator 1
 1568 069a 2E4B     		ldr	r3, .L99+40
 1569 069c 1B68     		ldr	r3, [r3]
 1570 069e 5B6D     		ldr	r3, [r3, #84]
 1571 06a0 002B     		cmp	r3, #0
 1572 06a2 3CD0     		beq	.L95
 1573              	.LBB3:
 461:../../source/src/kernel/SHELL/shell.c **** 		{
ARM GAS  G:\Users\Jaxb\AppData\Local\Temp\ccdq8815.s 			page 39


 462:../../source/src/kernel/SHELL/shell.c **** 			ka_memcpy(using_shell_buffer_ptr->buffer_reserve,
 1574              		.loc 1 462 0 is_stmt 1
 1575 06a4 2B4B     		ldr	r3, .L99+40
 1576 06a6 1B68     		ldr	r3, [r3]
 1577 06a8 586D     		ldr	r0, [r3, #84]
 463:../../source/src/kernel/SHELL/shell.c **** 				using_shell_buffer_ptr->buffer,
 1578              		.loc 1 463 0
 1579 06aa 2A4B     		ldr	r3, .L99+40
 1580 06ac 1B68     		ldr	r3, [r3]
 1581 06ae 196D     		ldr	r1, [r3, #80]
 464:../../source/src/kernel/SHELL/shell.c **** 				using_shell_buffer_ptr->index);
 1582              		.loc 1 464 0
 1583 06b0 284B     		ldr	r3, .L99+40
 1584 06b2 1B68     		ldr	r3, [r3]
 1585 06b4 9B6D     		ldr	r3, [r3, #88]
 462:../../source/src/kernel/SHELL/shell.c **** 				using_shell_buffer_ptr->buffer,
 1586              		.loc 1 462 0
 1587 06b6 1A46     		mov	r2, r3
 1588 06b8 FFF7FEFF 		bl	ka_memcpy
 465:../../source/src/kernel/SHELL/shell.c **** 			ka_memcpy(using_shell_buffer_ptr->argv_reserve,using_shell_buffer_ptr->argv,result*sizeof(char *
 1589              		.loc 1 465 0
 1590 06bc 254B     		ldr	r3, .L99+40
 1591 06be 1B68     		ldr	r3, [r3]
 1592 06c0 03F12800 		add	r0, r3, #40
 1593 06c4 234B     		ldr	r3, .L99+40
 1594 06c6 1B68     		ldr	r3, [r3]
 1595 06c8 1946     		mov	r1, r3
 1596 06ca FB68     		ldr	r3, [r7, #12]
 1597 06cc 9B00     		lsls	r3, r3, #2
 1598 06ce 1A46     		mov	r2, r3
 1599 06d0 FFF7FEFF 		bl	ka_memcpy
 466:../../source/src/kernel/SHELL/shell.c **** 			unsigned int i;
 467:../../source/src/kernel/SHELL/shell.c **** 			unsigned int buf = (unsigned int)(using_shell_buffer_ptr->buffer_reserve) - (unsigned int)(using
 1600              		.loc 1 467 0
 1601 06d4 1F4B     		ldr	r3, .L99+40
 1602 06d6 1B68     		ldr	r3, [r3]
 1603 06d8 5B6D     		ldr	r3, [r3, #84]
 1604 06da 1A46     		mov	r2, r3
 1605 06dc 1D4B     		ldr	r3, .L99+40
 1606 06de 1B68     		ldr	r3, [r3]
 1607 06e0 1B6D     		ldr	r3, [r3, #80]
 1608 06e2 D31A     		subs	r3, r2, r3
 1609 06e4 BB60     		str	r3, [r7, #8]
 468:../../source/src/kernel/SHELL/shell.c **** 			for(i=0;i<result;++i)
 1610              		.loc 1 468 0
 1611 06e6 0023     		movs	r3, #0
 1612 06e8 7B61     		str	r3, [r7, #20]
 1613 06ea 10E0     		b	.L96
 1614              	.L97:
 469:../../source/src/kernel/SHELL/shell.c **** 			{
 470:../../source/src/kernel/SHELL/shell.c **** 				using_shell_buffer_ptr->argv_reserve[i] += buf;
 1615              		.loc 1 470 0 discriminator 3
 1616 06ec 194B     		ldr	r3, .L99+40
 1617 06ee 1B68     		ldr	r3, [r3]
 1618 06f0 7A69     		ldr	r2, [r7, #20]
 1619 06f2 0A32     		adds	r2, r2, #10
 1620 06f4 53F82210 		ldr	r1, [r3, r2, lsl #2]
ARM GAS  G:\Users\Jaxb\AppData\Local\Temp\ccdq8815.s 			page 40


 1621 06f8 164B     		ldr	r3, .L99+40
 1622 06fa 1B68     		ldr	r3, [r3]
 1623 06fc BA68     		ldr	r2, [r7, #8]
 1624 06fe 1144     		add	r1, r1, r2
 1625 0700 7A69     		ldr	r2, [r7, #20]
 1626 0702 0A32     		adds	r2, r2, #10
 1627 0704 43F82210 		str	r1, [r3, r2, lsl #2]
 468:../../source/src/kernel/SHELL/shell.c **** 			for(i=0;i<result;++i)
 1628              		.loc 1 468 0 discriminator 3
 1629 0708 7B69     		ldr	r3, [r7, #20]
 1630 070a 0133     		adds	r3, r3, #1
 1631 070c 7B61     		str	r3, [r7, #20]
 1632              	.L96:
 468:../../source/src/kernel/SHELL/shell.c **** 			for(i=0;i<result;++i)
 1633              		.loc 1 468 0 is_stmt 0 discriminator 1
 1634 070e FB68     		ldr	r3, [r7, #12]
 1635 0710 7A69     		ldr	r2, [r7, #20]
 1636 0712 9A42     		cmp	r2, r3
 1637 0714 EAD3     		bcc	.L97
 471:../../source/src/kernel/SHELL/shell.c **** 			}
 472:../../source/src/kernel/SHELL/shell.c **** 			using_shell_buffer_ptr->index_reserve = result;
 1638              		.loc 1 472 0 is_stmt 1
 1639 0716 0F4B     		ldr	r3, .L99+40
 1640 0718 1B68     		ldr	r3, [r3]
 1641 071a FA68     		ldr	r2, [r7, #12]
 1642 071c DA65     		str	r2, [r3, #92]
 1643              	.L95:
 1644              	.LBE3:
 473:../../source/src/kernel/SHELL/shell.c **** 		}
 474:../../source/src/kernel/SHELL/shell.c **** 		clear_input_buffer();
 1645              		.loc 1 474 0
 1646 071e FFF76FFC 		bl	clear_input_buffer
 475:../../source/src/kernel/SHELL/shell.c **** 		ka_printf("%s","kaka_os>>");
 1647              		.loc 1 475 0
 1648 0722 0849     		ldr	r1, .L99+24
 1649 0724 0848     		ldr	r0, .L99+28
 1650 0726 FFF7FEFF 		bl	ka_printf
 454:../../source/src/kernel/SHELL/shell.c **** #else
 1651              		.loc 1 454 0
 1652 072a 9EE7     		b	.L98
 1653              	.L100:
 1654              		.align	2
 1655              	.L99:
 1656 072c 00000000 		.word	TCB_count_init
 1657 0730 40020000 		.word	.LC36
 1658 0734 5C020000 		.word	.LC37
 1659 0738 60020000 		.word	.LC38
 1660 073c 64020000 		.word	.LC39
 1661 0740 78020000 		.word	.LC40
 1662 0744 94020000 		.word	.LC41
 1663 0748 14010000 		.word	.LC6
 1664 074c 00000000 		.word	MCB_for_shell
 1665 0750 00000000 		.word	.LC0
 1666 0754 48010000 		.word	using_shell_buffer_ptr
 1667              		.cfi_endproc
 1668              	.LFE22:
 1669              		.size	shell, .-shell
ARM GAS  G:\Users\Jaxb\AppData\Local\Temp\ccdq8815.s 			page 41


 1670              	.Letext0:
 1671              		.file 2 "../../source/include/os_lib/singly_linked_list.h"
 1672              		.file 3 "../../source/include/shell/command_processor.h"
 1673              		.file 4 "../../source/include/os_cpu/kakaosstdint.h"
 1674              		.file 5 "../../source/include/os_lib/double_linked_list.h"
 1675              		.file 6 "../../source/include/os_core/task_state.h"
 1676              		.file 7 "../../source/include/os_core/TCB.h"
 1677              		.file 8 "../../source/include/os_lib/insert_sort_oo.h"
 1678              		.file 9 "../../source/include/os_core/MCB.h"
 1679              		.file 10 "../../source/include/shell/shell.h"
 1680              		.file 11 "../../source/include/os_cpu/os_cpu_stm32.h"
 1681              		.section	.debug_info,"",%progbits
 1682              	.Ldebug_info0:
 1683 0000 14080000 		.4byte	0x814
 1684 0004 0200     		.2byte	0x2
 1685 0006 00000000 		.4byte	.Ldebug_abbrev0
 1686 000a 04       		.byte	0x4
 1687 000b 01       		.uleb128 0x1
 1688 000c 0B040000 		.4byte	.LASF105
 1689 0010 0C       		.byte	0xc
 1690 0011 DB020000 		.4byte	.LASF106
 1691 0015 0A060000 		.4byte	.LASF107
 1692 0019 00000000 		.4byte	.Ltext0
 1693 001d 58070000 		.4byte	.Letext0
 1694 0021 00000000 		.4byte	.Ldebug_line0
 1695 0025 02       		.uleb128 0x2
 1696 0026 74000000 		.4byte	.LASF0
 1697 002a 04       		.byte	0x4
 1698 002b 02       		.byte	0x2
 1699 002c 04       		.byte	0x4
 1700 002d 40000000 		.4byte	0x40
 1701 0031 03       		.uleb128 0x3
 1702 0032 90000000 		.4byte	.LASF2
 1703 0036 02       		.byte	0x2
 1704 0037 05       		.byte	0x5
 1705 0038 40000000 		.4byte	0x40
 1706 003c 02       		.byte	0x2
 1707 003d 23       		.byte	0x23
 1708 003e 00       		.uleb128 0
 1709 003f 00       		.byte	0
 1710 0040 04       		.uleb128 0x4
 1711 0041 04       		.byte	0x4
 1712 0042 25000000 		.4byte	0x25
 1713 0046 02       		.uleb128 0x2
 1714 0047 D6010000 		.4byte	.LASF1
 1715 004b 0C       		.byte	0xc
 1716 004c 03       		.byte	0x3
 1717 004d 0D       		.byte	0xd
 1718 004e 7B000000 		.4byte	0x7b
 1719 0052 03       		.uleb128 0x3
 1720 0053 0C010000 		.4byte	.LASF3
 1721 0057 03       		.byte	0x3
 1722 0058 0E       		.byte	0xe
 1723 0059 7B000000 		.4byte	0x7b
 1724 005d 02       		.byte	0x2
 1725 005e 23       		.byte	0x23
 1726 005f 00       		.uleb128 0
ARM GAS  G:\Users\Jaxb\AppData\Local\Temp\ccdq8815.s 			page 42


 1727 0060 05       		.uleb128 0x5
 1728 0061 6600     		.ascii	"f\000"
 1729 0063 03       		.byte	0x3
 1730 0064 0F       		.byte	0xf
 1731 0065 B6000000 		.4byte	0xb6
 1732 0069 02       		.byte	0x2
 1733 006a 23       		.byte	0x23
 1734 006b 04       		.uleb128 0x4
 1735 006c 03       		.uleb128 0x3
 1736 006d 84060000 		.4byte	.LASF4
 1737 0071 03       		.byte	0x3
 1738 0072 10       		.byte	0x10
 1739 0073 25000000 		.4byte	0x25
 1740 0077 02       		.byte	0x2
 1741 0078 23       		.byte	0x23
 1742 0079 08       		.uleb128 0x8
 1743 007a 00       		.byte	0
 1744 007b 04       		.uleb128 0x4
 1745 007c 04       		.byte	0x4
 1746 007d 88000000 		.4byte	0x88
 1747 0081 06       		.uleb128 0x6
 1748 0082 01       		.byte	0x1
 1749 0083 08       		.byte	0x8
 1750 0084 6E050000 		.4byte	.LASF5
 1751 0088 07       		.uleb128 0x7
 1752 0089 81000000 		.4byte	0x81
 1753 008d 08       		.uleb128 0x8
 1754 008e 01       		.byte	0x1
 1755 008f 9E000000 		.4byte	0x9e
 1756 0093 09       		.uleb128 0x9
 1757 0094 9E000000 		.4byte	0x9e
 1758 0098 09       		.uleb128 0x9
 1759 0099 AA000000 		.4byte	0xaa
 1760 009d 00       		.byte	0
 1761 009e 0A       		.uleb128 0xa
 1762 009f 04       		.byte	0x4
 1763 00a0 05       		.byte	0x5
 1764 00a1 696E7400 		.ascii	"int\000"
 1765 00a5 0B       		.uleb128 0xb
 1766 00a6 9E000000 		.4byte	0x9e
 1767 00aa 04       		.uleb128 0x4
 1768 00ab 04       		.byte	0x4
 1769 00ac 7B000000 		.4byte	0x7b
 1770 00b0 04       		.uleb128 0x4
 1771 00b1 04       		.byte	0x4
 1772 00b2 8D000000 		.4byte	0x8d
 1773 00b6 07       		.uleb128 0x7
 1774 00b7 B0000000 		.4byte	0xb0
 1775 00bb 06       		.uleb128 0x6
 1776 00bc 04       		.byte	0x4
 1777 00bd 07       		.byte	0x7
 1778 00be A4010000 		.4byte	.LASF6
 1779 00c2 06       		.uleb128 0x6
 1780 00c3 01       		.byte	0x1
 1781 00c4 06       		.byte	0x6
 1782 00c5 CE000000 		.4byte	.LASF7
 1783 00c9 06       		.uleb128 0x6
ARM GAS  G:\Users\Jaxb\AppData\Local\Temp\ccdq8815.s 			page 43


 1784 00ca 02       		.byte	0x2
 1785 00cb 05       		.byte	0x5
 1786 00cc DE040000 		.4byte	.LASF8
 1787 00d0 06       		.uleb128 0x6
 1788 00d1 08       		.byte	0x8
 1789 00d2 05       		.byte	0x5
 1790 00d3 C0000000 		.4byte	.LASF9
 1791 00d7 06       		.uleb128 0x6
 1792 00d8 01       		.byte	0x1
 1793 00d9 08       		.byte	0x8
 1794 00da C3040000 		.4byte	.LASF10
 1795 00de 06       		.uleb128 0x6
 1796 00df 02       		.byte	0x2
 1797 00e0 07       		.byte	0x7
 1798 00e1 5A020000 		.4byte	.LASF11
 1799 00e5 0C       		.uleb128 0xc
 1800 00e6 8C030000 		.4byte	.LASF12
 1801 00ea 04       		.byte	0x4
 1802 00eb 0C       		.byte	0xc
 1803 00ec BB000000 		.4byte	0xbb
 1804 00f0 0C       		.uleb128 0xc
 1805 00f1 64060000 		.4byte	.LASF13
 1806 00f5 04       		.byte	0x4
 1807 00f6 0D       		.byte	0xd
 1808 00f7 FB000000 		.4byte	0xfb
 1809 00fb 06       		.uleb128 0x6
 1810 00fc 08       		.byte	0x8
 1811 00fd 07       		.byte	0x7
 1812 00fe 53000000 		.4byte	.LASF14
 1813 0102 02       		.uleb128 0x2
 1814 0103 73050000 		.4byte	.LASF15
 1815 0107 08       		.byte	0x8
 1816 0108 05       		.byte	0x5
 1817 0109 04       		.byte	0x4
 1818 010a 2B010000 		.4byte	0x12b
 1819 010e 03       		.uleb128 0x3
 1820 010f 90000000 		.4byte	.LASF2
 1821 0113 05       		.byte	0x5
 1822 0114 05       		.byte	0x5
 1823 0115 2B010000 		.4byte	0x12b
 1824 0119 02       		.byte	0x2
 1825 011a 23       		.byte	0x23
 1826 011b 00       		.uleb128 0
 1827 011c 03       		.uleb128 0x3
 1828 011d 27000000 		.4byte	.LASF16
 1829 0121 05       		.byte	0x5
 1830 0122 05       		.byte	0x5
 1831 0123 2B010000 		.4byte	0x12b
 1832 0127 02       		.byte	0x2
 1833 0128 23       		.byte	0x23
 1834 0129 04       		.uleb128 0x4
 1835 012a 00       		.byte	0
 1836 012b 04       		.uleb128 0x4
 1837 012c 04       		.byte	0x4
 1838 012d 02010000 		.4byte	0x102
 1839 0131 0D       		.uleb128 0xd
 1840 0132 01030000 		.4byte	.LASF56
ARM GAS  G:\Users\Jaxb\AppData\Local\Temp\ccdq8815.s 			page 44


 1841 0136 07       		.byte	0x7
 1842 0137 01       		.byte	0x1
 1843 0138 D7000000 		.4byte	0xd7
 1844 013c 06       		.byte	0x6
 1845 013d 04       		.byte	0x4
 1846 013e 7F010000 		.4byte	0x17f
 1847 0142 0E       		.uleb128 0xe
 1848 0143 72030000 		.4byte	.LASF17
 1849 0147 01       		.byte	0x1
 1850 0148 0E       		.uleb128 0xe
 1851 0149 CA010000 		.4byte	.LASF18
 1852 014d 02       		.byte	0x2
 1853 014e 0E       		.uleb128 0xe
 1854 014f ED050000 		.4byte	.LASF19
 1855 0153 03       		.byte	0x3
 1856 0154 0E       		.uleb128 0xe
 1857 0155 BC030000 		.4byte	.LASF20
 1858 0159 04       		.byte	0x4
 1859 015a 0E       		.uleb128 0xe
 1860 015b 94060000 		.4byte	.LASF21
 1861 015f 05       		.byte	0x5
 1862 0160 0E       		.uleb128 0xe
 1863 0161 38060000 		.4byte	.LASF22
 1864 0165 06       		.byte	0x6
 1865 0166 0E       		.uleb128 0xe
 1866 0167 63010000 		.4byte	.LASF23
 1867 016b 07       		.byte	0x7
 1868 016c 0E       		.uleb128 0xe
 1869 016d 84010000 		.4byte	.LASF24
 1870 0171 08       		.byte	0x8
 1871 0172 0E       		.uleb128 0xe
 1872 0173 14050000 		.4byte	.LASF25
 1873 0177 09       		.byte	0x9
 1874 0178 0E       		.uleb128 0xe
 1875 0179 E3030000 		.4byte	.LASF26
 1876 017d 0A       		.byte	0xa
 1877 017e 00       		.byte	0
 1878 017f 0C       		.uleb128 0xc
 1879 0180 85000000 		.4byte	.LASF27
 1880 0184 06       		.byte	0x6
 1881 0185 0F       		.byte	0xf
 1882 0186 31010000 		.4byte	0x131
 1883 018a 0C       		.uleb128 0xc
 1884 018b AC050000 		.4byte	.LASF28
 1885 018f 07       		.byte	0x7
 1886 0190 09       		.byte	0x9
 1887 0191 BB000000 		.4byte	0xbb
 1888 0195 0C       		.uleb128 0xc
 1889 0196 0D000000 		.4byte	.LASF29
 1890 019a 07       		.byte	0x7
 1891 019b 0B       		.byte	0xb
 1892 019c BB000000 		.4byte	0xbb
 1893 01a0 0F       		.uleb128 0xf
 1894 01a1 04       		.byte	0x4
 1895 01a2 10       		.uleb128 0x10
 1896 01a3 B1040000 		.4byte	.LASF87
 1897 01a7 07       		.byte	0x7
ARM GAS  G:\Users\Jaxb\AppData\Local\Temp\ccdq8815.s 			page 45


 1898 01a8 12       		.byte	0x12
 1899 01a9 A5000000 		.4byte	0xa5
 1900 01ad 01       		.byte	0x1
 1901 01ae 01       		.byte	0x1
 1902 01af 02       		.uleb128 0x2
 1903 01b0 A6000000 		.4byte	.LASF30
 1904 01b4 48       		.byte	0x48
 1905 01b5 07       		.byte	0x7
 1906 01b6 2F       		.byte	0x2f
 1907 01b7 80020000 		.4byte	0x280
 1908 01bb 03       		.uleb128 0x3
 1909 01bc 89060000 		.4byte	.LASF31
 1910 01c0 07       		.byte	0x7
 1911 01c1 30       		.byte	0x30
 1912 01c2 80020000 		.4byte	0x280
 1913 01c6 02       		.byte	0x2
 1914 01c7 23       		.byte	0x23
 1915 01c8 00       		.uleb128 0
 1916 01c9 03       		.uleb128 0x3
 1917 01ca 59060000 		.4byte	.LASF32
 1918 01ce 07       		.byte	0x7
 1919 01cf 31       		.byte	0x31
 1920 01d0 BB000000 		.4byte	0xbb
 1921 01d4 02       		.byte	0x2
 1922 01d5 23       		.byte	0x23
 1923 01d6 04       		.uleb128 0x4
 1924 01d7 03       		.uleb128 0x3
 1925 01d8 D3030000 		.4byte	.LASF33
 1926 01dc 07       		.byte	0x7
 1927 01dd 32       		.byte	0x32
 1928 01de 80020000 		.4byte	0x280
 1929 01e2 02       		.byte	0x2
 1930 01e3 23       		.byte	0x23
 1931 01e4 08       		.uleb128 0x8
 1932 01e5 03       		.uleb128 0x3
 1933 01e6 B7030000 		.4byte	.LASF34
 1934 01ea 07       		.byte	0x7
 1935 01eb 33       		.byte	0x33
 1936 01ec 95010000 		.4byte	0x195
 1937 01f0 02       		.byte	0x2
 1938 01f1 23       		.byte	0x23
 1939 01f2 0C       		.uleb128 0xc
 1940 01f3 03       		.uleb128 0x3
 1941 01f4 DA000000 		.4byte	.LASF35
 1942 01f8 07       		.byte	0x7
 1943 01f9 34       		.byte	0x34
 1944 01fa 95010000 		.4byte	0x195
 1945 01fe 02       		.byte	0x2
 1946 01ff 23       		.byte	0x23
 1947 0200 10       		.uleb128 0x10
 1948 0201 03       		.uleb128 0x3
 1949 0202 B7050000 		.4byte	.LASF36
 1950 0206 07       		.byte	0x7
 1951 0207 35       		.byte	0x35
 1952 0208 7F010000 		.4byte	0x17f
 1953 020c 02       		.byte	0x2
 1954 020d 23       		.byte	0x23
ARM GAS  G:\Users\Jaxb\AppData\Local\Temp\ccdq8815.s 			page 46


 1955 020e 14       		.uleb128 0x14
 1956 020f 03       		.uleb128 0x3
 1957 0210 C4060000 		.4byte	.LASF37
 1958 0214 07       		.byte	0x7
 1959 0215 36       		.byte	0x36
 1960 0216 9E000000 		.4byte	0x9e
 1961 021a 02       		.byte	0x2
 1962 021b 23       		.byte	0x23
 1963 021c 18       		.uleb128 0x18
 1964 021d 03       		.uleb128 0x3
 1965 021e 19010000 		.4byte	.LASF38
 1966 0222 07       		.byte	0x7
 1967 0223 37       		.byte	0x37
 1968 0224 02010000 		.4byte	0x102
 1969 0228 02       		.byte	0x2
 1970 0229 23       		.byte	0x23
 1971 022a 1C       		.uleb128 0x1c
 1972 022b 03       		.uleb128 0x3
 1973 022c 00000000 		.4byte	.LASF39
 1974 0230 07       		.byte	0x7
 1975 0231 38       		.byte	0x38
 1976 0232 02010000 		.4byte	0x102
 1977 0236 02       		.byte	0x2
 1978 0237 23       		.byte	0x23
 1979 0238 24       		.uleb128 0x24
 1980 0239 03       		.uleb128 0x3
 1981 023a E3010000 		.4byte	.LASF40
 1982 023e 07       		.byte	0x7
 1983 023f 39       		.byte	0x39
 1984 0240 86020000 		.4byte	0x286
 1985 0244 02       		.byte	0x2
 1986 0245 23       		.byte	0x23
 1987 0246 2C       		.uleb128 0x2c
 1988 0247 03       		.uleb128 0x3
 1989 0248 FB040000 		.4byte	.LASF41
 1990 024c 07       		.byte	0x7
 1991 024d 3A       		.byte	0x3a
 1992 024e BB000000 		.4byte	0xbb
 1993 0252 02       		.byte	0x2
 1994 0253 23       		.byte	0x23
 1995 0254 30       		.uleb128 0x30
 1996 0255 03       		.uleb128 0x3
 1997 0256 A3030000 		.4byte	.LASF42
 1998 025a 07       		.byte	0x7
 1999 025b 3B       		.byte	0x3b
 2000 025c BB000000 		.4byte	0xbb
 2001 0260 02       		.byte	0x2
 2002 0261 23       		.byte	0x23
 2003 0262 34       		.uleb128 0x34
 2004 0263 03       		.uleb128 0x3
 2005 0264 39000000 		.4byte	.LASF43
 2006 0268 07       		.byte	0x7
 2007 0269 3C       		.byte	0x3c
 2008 026a E5000000 		.4byte	0xe5
 2009 026e 02       		.byte	0x2
 2010 026f 23       		.byte	0x23
 2011 0270 38       		.uleb128 0x38
ARM GAS  G:\Users\Jaxb\AppData\Local\Temp\ccdq8815.s 			page 47


 2012 0271 03       		.uleb128 0x3
 2013 0272 96050000 		.4byte	.LASF44
 2014 0276 07       		.byte	0x7
 2015 0277 3D       		.byte	0x3d
 2016 0278 F0000000 		.4byte	0xf0
 2017 027c 02       		.byte	0x2
 2018 027d 23       		.byte	0x23
 2019 027e 40       		.uleb128 0x40
 2020 027f 00       		.byte	0
 2021 0280 04       		.uleb128 0x4
 2022 0281 04       		.byte	0x4
 2023 0282 8A010000 		.4byte	0x18a
 2024 0286 04       		.uleb128 0x4
 2025 0287 04       		.byte	0x4
 2026 0288 81000000 		.4byte	0x81
 2027 028c 11       		.uleb128 0x11
 2028 028d 54434200 		.ascii	"TCB\000"
 2029 0291 07       		.byte	0x7
 2030 0292 3E       		.byte	0x3e
 2031 0293 AF010000 		.4byte	0x1af
 2032 0297 0C       		.uleb128 0xc
 2033 0298 93030000 		.4byte	.LASF45
 2034 029c 08       		.byte	0x8
 2035 029d 0D       		.byte	0xd
 2036 029e F0000000 		.4byte	0xf0
 2037 02a2 02       		.uleb128 0x2
 2038 02a3 95000000 		.4byte	.LASF46
 2039 02a7 18       		.byte	0x18
 2040 02a8 08       		.byte	0x8
 2041 02a9 0F       		.byte	0xf
 2042 02aa D9020000 		.4byte	0x2d9
 2043 02ae 03       		.uleb128 0x3
 2044 02af 70060000 		.4byte	.LASF47
 2045 02b3 08       		.byte	0x8
 2046 02b4 11       		.byte	0x11
 2047 02b5 A0010000 		.4byte	0x1a0
 2048 02b9 02       		.byte	0x2
 2049 02ba 23       		.byte	0x23
 2050 02bb 00       		.uleb128 0
 2051 02bc 03       		.uleb128 0x3
 2052 02bd 7E030000 		.4byte	.LASF48
 2053 02c1 08       		.byte	0x8
 2054 02c2 12       		.byte	0x12
 2055 02c3 97020000 		.4byte	0x297
 2056 02c7 02       		.byte	0x2
 2057 02c8 23       		.byte	0x23
 2058 02c9 08       		.uleb128 0x8
 2059 02ca 03       		.uleb128 0x3
 2060 02cb 6A000000 		.4byte	.LASF49
 2061 02cf 08       		.byte	0x8
 2062 02d0 13       		.byte	0x13
 2063 02d1 02010000 		.4byte	0x102
 2064 02d5 02       		.byte	0x2
 2065 02d6 23       		.byte	0x23
 2066 02d7 10       		.uleb128 0x10
 2067 02d8 00       		.byte	0
 2068 02d9 02       		.uleb128 0x2
ARM GAS  G:\Users\Jaxb\AppData\Local\Temp\ccdq8815.s 			page 48


 2069 02da 34050000 		.4byte	.LASF50
 2070 02de 18       		.byte	0x18
 2071 02df 08       		.byte	0x8
 2072 02e0 1D       		.byte	0x1d
 2073 02e1 2C030000 		.4byte	0x32c
 2074 02e5 03       		.uleb128 0x3
 2075 02e6 30010000 		.4byte	.LASF51
 2076 02ea 08       		.byte	0x8
 2077 02eb 27       		.byte	0x27
 2078 02ec 02010000 		.4byte	0x102
 2079 02f0 02       		.byte	0x2
 2080 02f1 23       		.byte	0x23
 2081 02f2 00       		.uleb128 0
 2082 02f3 03       		.uleb128 0x3
 2083 02f4 BE020000 		.4byte	.LASF52
 2084 02f8 08       		.byte	0x8
 2085 02f9 28       		.byte	0x28
 2086 02fa BB000000 		.4byte	0xbb
 2087 02fe 02       		.byte	0x2
 2088 02ff 23       		.byte	0x23
 2089 0300 08       		.uleb128 0x8
 2090 0301 03       		.uleb128 0x3
 2091 0302 9B030000 		.4byte	.LASF53
 2092 0306 08       		.byte	0x8
 2093 0307 2C       		.byte	0x2c
 2094 0308 47030000 		.4byte	0x347
 2095 030c 02       		.byte	0x2
 2096 030d 23       		.byte	0x23
 2097 030e 0C       		.uleb128 0xc
 2098 030f 03       		.uleb128 0x3
 2099 0310 D1040000 		.4byte	.LASF54
 2100 0314 08       		.byte	0x8
 2101 0315 2D       		.byte	0x2d
 2102 0316 62030000 		.4byte	0x362
 2103 031a 02       		.byte	0x2
 2104 031b 23       		.byte	0x23
 2105 031c 10       		.uleb128 0x10
 2106 031d 03       		.uleb128 0x3
 2107 031e C0010000 		.4byte	.LASF55
 2108 0322 08       		.byte	0x8
 2109 0323 2E       		.byte	0x2e
 2110 0324 7D030000 		.4byte	0x37d
 2111 0328 02       		.byte	0x2
 2112 0329 23       		.byte	0x23
 2113 032a 14       		.uleb128 0x14
 2114 032b 00       		.byte	0
 2115 032c 12       		.uleb128 0x12
 2116 032d 01       		.byte	0x1
 2117 032e 9E000000 		.4byte	0x9e
 2118 0332 41030000 		.4byte	0x341
 2119 0336 09       		.uleb128 0x9
 2120 0337 41030000 		.4byte	0x341
 2121 033b 09       		.uleb128 0x9
 2122 033c 41030000 		.4byte	0x341
 2123 0340 00       		.byte	0
 2124 0341 04       		.uleb128 0x4
 2125 0342 04       		.byte	0x4
ARM GAS  G:\Users\Jaxb\AppData\Local\Temp\ccdq8815.s 			page 49


 2126 0343 A2020000 		.4byte	0x2a2
 2127 0347 04       		.uleb128 0x4
 2128 0348 04       		.byte	0x4
 2129 0349 2C030000 		.4byte	0x32c
 2130 034d 12       		.uleb128 0x12
 2131 034e 01       		.byte	0x1
 2132 034f 9E000000 		.4byte	0x9e
 2133 0353 62030000 		.4byte	0x362
 2134 0357 09       		.uleb128 0x9
 2135 0358 41030000 		.4byte	0x341
 2136 035c 09       		.uleb128 0x9
 2137 035d A0010000 		.4byte	0x1a0
 2138 0361 00       		.byte	0
 2139 0362 04       		.uleb128 0x4
 2140 0363 04       		.byte	0x4
 2141 0364 4D030000 		.4byte	0x34d
 2142 0368 12       		.uleb128 0x12
 2143 0369 01       		.byte	0x1
 2144 036a 9E000000 		.4byte	0x9e
 2145 036e 7D030000 		.4byte	0x37d
 2146 0372 09       		.uleb128 0x9
 2147 0373 A0010000 		.4byte	0x1a0
 2148 0377 09       		.uleb128 0x9
 2149 0378 A0010000 		.4byte	0x1a0
 2150 037c 00       		.byte	0
 2151 037d 04       		.uleb128 0x4
 2152 037e 04       		.byte	0x4
 2153 037f 68030000 		.4byte	0x368
 2154 0383 0D       		.uleb128 0xd
 2155 0384 45000000 		.4byte	.LASF57
 2156 0388 07       		.byte	0x7
 2157 0389 01       		.byte	0x1
 2158 038a D7000000 		.4byte	0xd7
 2159 038e 09       		.byte	0x9
 2160 038f 07       		.byte	0x7
 2161 0390 A7030000 		.4byte	0x3a7
 2162 0394 0E       		.uleb128 0xe
 2163 0395 64030000 		.4byte	.LASF58
 2164 0399 00       		.byte	0
 2165 039a 0E       		.uleb128 0xe
 2166 039b 80020000 		.4byte	.LASF59
 2167 039f 01       		.byte	0x1
 2168 03a0 0E       		.uleb128 0xe
 2169 03a1 E7000000 		.4byte	.LASF60
 2170 03a5 02       		.byte	0x2
 2171 03a6 00       		.byte	0
 2172 03a7 02       		.uleb128 0x2
 2173 03a8 B1010000 		.4byte	.LASF61
 2174 03ac 20       		.byte	0x20
 2175 03ad 09       		.byte	0x9
 2176 03ae 15       		.byte	0x15
 2177 03af DE030000 		.4byte	0x3de
 2178 03b3 03       		.uleb128 0x3
 2179 03b4 3F010000 		.4byte	.LASF62
 2180 03b8 09       		.byte	0x9
 2181 03b9 16       		.byte	0x16
 2182 03ba D9020000 		.4byte	0x2d9
ARM GAS  G:\Users\Jaxb\AppData\Local\Temp\ccdq8815.s 			page 50


 2183 03be 02       		.byte	0x2
 2184 03bf 23       		.byte	0x23
 2185 03c0 00       		.uleb128 0
 2186 03c1 03       		.uleb128 0x3
 2187 03c2 2C000000 		.4byte	.LASF63
 2188 03c6 09       		.byte	0x9
 2189 03c7 17       		.byte	0x17
 2190 03c8 9E000000 		.4byte	0x9e
 2191 03cc 02       		.byte	0x2
 2192 03cd 23       		.byte	0x23
 2193 03ce 18       		.uleb128 0x18
 2194 03cf 03       		.uleb128 0x3
 2195 03d0 0F050000 		.4byte	.LASF64
 2196 03d4 09       		.byte	0x9
 2197 03d5 18       		.byte	0x18
 2198 03d6 BB000000 		.4byte	0xbb
 2199 03da 02       		.byte	0x2
 2200 03db 23       		.byte	0x23
 2201 03dc 1C       		.uleb128 0x1c
 2202 03dd 00       		.byte	0
 2203 03de 11       		.uleb128 0x11
 2204 03df 4D434200 		.ascii	"MCB\000"
 2205 03e3 09       		.byte	0x9
 2206 03e4 19       		.byte	0x19
 2207 03e5 A7030000 		.4byte	0x3a7
 2208 03e9 02       		.uleb128 0x2
 2209 03ea 5B050000 		.4byte	.LASF65
 2210 03ee 60       		.byte	0x60
 2211 03ef 0A       		.byte	0xa
 2212 03f0 09       		.byte	0x9
 2213 03f1 4A040000 		.4byte	0x44a
 2214 03f5 03       		.uleb128 0x3
 2215 03f6 8F060000 		.4byte	.LASF66
 2216 03fa 0A       		.byte	0xa
 2217 03fb 0B       		.byte	0xb
 2218 03fc 4A040000 		.4byte	0x44a
 2219 0400 02       		.byte	0x2
 2220 0401 23       		.byte	0x23
 2221 0402 00       		.uleb128 0
 2222 0403 03       		.uleb128 0x3
 2223 0404 57030000 		.4byte	.LASF67
 2224 0408 0A       		.byte	0xa
 2225 0409 0C       		.byte	0xc
 2226 040a 4A040000 		.4byte	0x44a
 2227 040e 02       		.byte	0x2
 2228 040f 23       		.byte	0x23
 2229 0410 28       		.uleb128 0x28
 2230 0411 03       		.uleb128 0x3
 2231 0412 8F050000 		.4byte	.LASF68
 2232 0416 0A       		.byte	0xa
 2233 0417 0D       		.byte	0xd
 2234 0418 86020000 		.4byte	0x286
 2235 041c 02       		.byte	0x2
 2236 041d 23       		.byte	0x23
 2237 041e 50       		.uleb128 0x50
 2238 041f 03       		.uleb128 0x3
 2239 0420 54010000 		.4byte	.LASF69
ARM GAS  G:\Users\Jaxb\AppData\Local\Temp\ccdq8815.s 			page 51


 2240 0424 0A       		.byte	0xa
 2241 0425 0E       		.byte	0xe
 2242 0426 86020000 		.4byte	0x286
 2243 042a 02       		.byte	0x2
 2244 042b 23       		.byte	0x23
 2245 042c 54       		.uleb128 0x54
 2246 042d 03       		.uleb128 0x3
 2247 042e 7D050000 		.4byte	.LASF70
 2248 0432 0A       		.byte	0xa
 2249 0433 0F       		.byte	0xf
 2250 0434 BB000000 		.4byte	0xbb
 2251 0438 02       		.byte	0x2
 2252 0439 23       		.byte	0x23
 2253 043a 58       		.uleb128 0x58
 2254 043b 03       		.uleb128 0x3
 2255 043c D8060000 		.4byte	.LASF71
 2256 0440 0A       		.byte	0xa
 2257 0441 10       		.byte	0x10
 2258 0442 BB000000 		.4byte	0xbb
 2259 0446 02       		.byte	0x2
 2260 0447 23       		.byte	0x23
 2261 0448 5C       		.uleb128 0x5c
 2262 0449 00       		.byte	0
 2263 044a 13       		.uleb128 0x13
 2264 044b 86020000 		.4byte	0x286
 2265 044f 5A040000 		.4byte	0x45a
 2266 0453 14       		.uleb128 0x14
 2267 0454 BB000000 		.4byte	0xbb
 2268 0458 09       		.byte	0x9
 2269 0459 00       		.byte	0
 2270 045a 0C       		.uleb128 0xc
 2271 045b 1C000000 		.4byte	.LASF72
 2272 045f 0B       		.byte	0xb
 2273 0460 04       		.byte	0x4
 2274 0461 BB000000 		.4byte	0xbb
 2275 0465 0C       		.uleb128 0xc
 2276 0466 B7020000 		.4byte	.LASF73
 2277 046a 0B       		.byte	0xb
 2278 046b 06       		.byte	0x6
 2279 046c 5A040000 		.4byte	0x45a
 2280 0470 15       		.uleb128 0x15
 2281 0471 F7000000 		.4byte	.LASF74
 2282 0475 01       		.byte	0x1
 2283 0476 12       		.byte	0x12
 2284 0477 DE030000 		.4byte	0x3de
 2285 047b 05       		.byte	0x5
 2286 047c 03       		.byte	0x3
 2287 047d 00000000 		.4byte	MCB_for_shell
 2288 0481 15       		.uleb128 0x15
 2289 0482 B2060000 		.4byte	.LASF75
 2290 0486 01       		.byte	0x1
 2291 0487 14       		.byte	0x14
 2292 0488 E9030000 		.4byte	0x3e9
 2293 048c 05       		.byte	0x5
 2294 048d 03       		.byte	0x3
 2295 048e 20000000 		.4byte	main_shell_buffer
 2296 0492 13       		.uleb128 0x13
ARM GAS  G:\Users\Jaxb\AppData\Local\Temp\ccdq8815.s 			page 52


 2297 0493 81000000 		.4byte	0x81
 2298 0497 A2040000 		.4byte	0x4a2
 2299 049b 14       		.uleb128 0x14
 2300 049c BB000000 		.4byte	0xbb
 2301 04a0 63       		.byte	0x63
 2302 04a1 00       		.byte	0
 2303 04a2 15       		.uleb128 0x15
 2304 04a3 83050000 		.4byte	.LASF76
 2305 04a7 01       		.byte	0x1
 2306 04a8 15       		.byte	0x15
 2307 04a9 92040000 		.4byte	0x492
 2308 04ad 05       		.byte	0x5
 2309 04ae 03       		.byte	0x3
 2310 04af 80000000 		.4byte	main_buffer
 2311 04b3 15       		.uleb128 0x15
 2312 04b4 C7020000 		.4byte	.LASF77
 2313 04b8 01       		.byte	0x1
 2314 04b9 16       		.byte	0x16
 2315 04ba 92040000 		.4byte	0x492
 2316 04be 05       		.byte	0x5
 2317 04bf 03       		.byte	0x3
 2318 04c0 E4000000 		.4byte	main_buffer_reserve
 2319 04c4 15       		.uleb128 0x15
 2320 04c5 C2050000 		.4byte	.LASF78
 2321 04c9 01       		.byte	0x1
 2322 04ca 18       		.byte	0x18
 2323 04cb D5040000 		.4byte	0x4d5
 2324 04cf 05       		.byte	0x5
 2325 04d0 03       		.byte	0x3
 2326 04d1 48010000 		.4byte	using_shell_buffer_ptr
 2327 04d5 04       		.uleb128 0x4
 2328 04d6 04       		.byte	0x4
 2329 04d7 E9030000 		.4byte	0x3e9
 2330 04db 13       		.uleb128 0x13
 2331 04dc 46000000 		.4byte	0x46
 2332 04e0 EB040000 		.4byte	0x4eb
 2333 04e4 14       		.uleb128 0x14
 2334 04e5 BB000000 		.4byte	0xbb
 2335 04e9 00       		.byte	0
 2336 04ea 00       		.byte	0
 2337 04eb 15       		.uleb128 0x15
 2338 04ec E8010000 		.4byte	.LASF79
 2339 04f0 01       		.byte	0x1
 2340 04f1 B8       		.byte	0xb8
 2341 04f2 DB040000 		.4byte	0x4db
 2342 04f6 05       		.byte	0x5
 2343 04f7 03       		.byte	0x3
 2344 04f8 00000000 		.4byte	resident_command_1
 2345 04fc 13       		.uleb128 0x13
 2346 04fd 46000000 		.4byte	0x46
 2347 0501 0C050000 		.4byte	0x50c
 2348 0505 14       		.uleb128 0x14
 2349 0506 BB000000 		.4byte	0xbb
 2350 050a 01       		.byte	0x1
 2351 050b 00       		.byte	0
 2352 050c 15       		.uleb128 0x15
 2353 050d FB010000 		.4byte	.LASF80
ARM GAS  G:\Users\Jaxb\AppData\Local\Temp\ccdq8815.s 			page 53


 2354 0511 01       		.byte	0x1
 2355 0512 BF       		.byte	0xbf
 2356 0513 FC040000 		.4byte	0x4fc
 2357 0517 05       		.byte	0x5
 2358 0518 03       		.byte	0x3
 2359 0519 0C000000 		.4byte	resident_command_2
 2360 051d 13       		.uleb128 0x13
 2361 051e 46000000 		.4byte	0x46
 2362 0522 2D050000 		.4byte	0x52d
 2363 0526 14       		.uleb128 0x14
 2364 0527 BB000000 		.4byte	0xbb
 2365 052b 02       		.byte	0x2
 2366 052c 00       		.byte	0
 2367 052d 15       		.uleb128 0x15
 2368 052e 0E020000 		.4byte	.LASF81
 2369 0532 01       		.byte	0x1
 2370 0533 CA       		.byte	0xca
 2371 0534 1D050000 		.4byte	0x51d
 2372 0538 05       		.byte	0x5
 2373 0539 03       		.byte	0x3
 2374 053a 24000000 		.4byte	resident_command_3
 2375 053e 13       		.uleb128 0x13
 2376 053f 46000000 		.4byte	0x46
 2377 0543 4E050000 		.4byte	0x54e
 2378 0547 14       		.uleb128 0x14
 2379 0548 BB000000 		.4byte	0xbb
 2380 054c 06       		.byte	0x6
 2381 054d 00       		.byte	0
 2382 054e 15       		.uleb128 0x15
 2383 054f 21020000 		.4byte	.LASF82
 2384 0553 01       		.byte	0x1
 2385 0554 E1       		.byte	0xe1
 2386 0555 3E050000 		.4byte	0x53e
 2387 0559 05       		.byte	0x5
 2388 055a 03       		.byte	0x3
 2389 055b 48000000 		.4byte	resident_command_4
 2390 055f 13       		.uleb128 0x13
 2391 0560 46000000 		.4byte	0x46
 2392 0564 6F050000 		.4byte	0x56f
 2393 0568 14       		.uleb128 0x14
 2394 0569 BB000000 		.4byte	0xbb
 2395 056d 03       		.byte	0x3
 2396 056e 00       		.byte	0
 2397 056f 16       		.uleb128 0x16
 2398 0570 34020000 		.4byte	.LASF83
 2399 0574 01       		.byte	0x1
 2400 0575 0401     		.2byte	0x104
 2401 0577 5F050000 		.4byte	0x55f
 2402 057b 05       		.byte	0x5
 2403 057c 03       		.byte	0x3
 2404 057d 9C000000 		.4byte	resident_command_5
 2405 0581 16       		.uleb128 0x16
 2406 0582 47020000 		.4byte	.LASF84
 2407 0586 01       		.byte	0x1
 2408 0587 1901     		.2byte	0x119
 2409 0589 FC040000 		.4byte	0x4fc
 2410 058d 05       		.byte	0x5
ARM GAS  G:\Users\Jaxb\AppData\Local\Temp\ccdq8815.s 			page 54


 2411 058e 03       		.byte	0x3
 2412 058f CC000000 		.4byte	resident_command_6
 2413 0593 16       		.uleb128 0x16
 2414 0594 E8040000 		.4byte	.LASF85
 2415 0598 01       		.byte	0x1
 2416 0599 2601     		.2byte	0x126
 2417 059b 5F050000 		.4byte	0x55f
 2418 059f 05       		.byte	0x5
 2419 05a0 03       		.byte	0x3
 2420 05a1 E4000000 		.4byte	resident_command_7
 2421 05a5 16       		.uleb128 0x16
 2422 05a6 6D020000 		.4byte	.LASF86
 2423 05aa 01       		.byte	0x1
 2424 05ab 3D01     		.2byte	0x13d
 2425 05ad DB040000 		.4byte	0x4db
 2426 05b1 05       		.byte	0x5
 2427 05b2 03       		.byte	0x3
 2428 05b3 14010000 		.4byte	resident_command_8
 2429 05b7 17       		.uleb128 0x17
 2430 05b8 FC030000 		.4byte	.LASF88
 2431 05bc 01       		.byte	0x1
 2432 05bd B301     		.2byte	0x1b3
 2433 05bf 8C020000 		.4byte	0x28c
 2434 05c3 01       		.byte	0x1
 2435 05c4 01       		.byte	0x1
 2436 05c5 18       		.uleb128 0x18
 2437 05c6 01       		.byte	0x1
 2438 05c7 68050000 		.4byte	.LASF96
 2439 05cb 01       		.byte	0x1
 2440 05cc B401     		.2byte	0x1b4
 2441 05ce 01       		.byte	0x1
 2442 05cf 28060000 		.4byte	.LFB22
 2443 05d3 58070000 		.4byte	.LFE22
 2444 05d7 00000000 		.4byte	.LLST8
 2445 05db 01       		.byte	0x1
 2446 05dc 34060000 		.4byte	0x634
 2447 05e0 19       		.uleb128 0x19
 2448 05e1 A7050000 		.4byte	.LASF91
 2449 05e5 01       		.byte	0x1
 2450 05e6 B401     		.2byte	0x1b4
 2451 05e8 A0010000 		.4byte	0x1a0
 2452 05ec 02       		.byte	0x2
 2453 05ed 91       		.byte	0x91
 2454 05ee 64       		.sleb128 -28
 2455 05ef 16       		.uleb128 0x16
 2456 05f0 DD030000 		.4byte	.LASF89
 2457 05f4 01       		.byte	0x1
 2458 05f5 B701     		.2byte	0x1b7
 2459 05f7 9E000000 		.4byte	0x9e
 2460 05fb 02       		.byte	0x2
 2461 05fc 91       		.byte	0x91
 2462 05fd 70       		.sleb128 -16
 2463 05fe 16       		.uleb128 0x16
 2464 05ff AB060000 		.4byte	.LASF90
 2465 0603 01       		.byte	0x1
 2466 0604 BA01     		.2byte	0x1ba
 2467 0606 9E000000 		.4byte	0x9e
ARM GAS  G:\Users\Jaxb\AppData\Local\Temp\ccdq8815.s 			page 55


 2468 060a 02       		.byte	0x2
 2469 060b 91       		.byte	0x91
 2470 060c 6C       		.sleb128 -20
 2471 060d 1A       		.uleb128 0x1a
 2472 060e A4060000 		.4byte	.LBB3
 2473 0612 1E070000 		.4byte	.LBE3
 2474 0616 1B       		.uleb128 0x1b
 2475 0617 6900     		.ascii	"i\000"
 2476 0619 01       		.byte	0x1
 2477 061a D201     		.2byte	0x1d2
 2478 061c BB000000 		.4byte	0xbb
 2479 0620 02       		.byte	0x2
 2480 0621 91       		.byte	0x91
 2481 0622 74       		.sleb128 -12
 2482 0623 1B       		.uleb128 0x1b
 2483 0624 62756600 		.ascii	"buf\000"
 2484 0628 01       		.byte	0x1
 2485 0629 D301     		.2byte	0x1d3
 2486 062b BB000000 		.4byte	0xbb
 2487 062f 02       		.byte	0x2
 2488 0630 91       		.byte	0x91
 2489 0631 68       		.sleb128 -24
 2490 0632 00       		.byte	0
 2491 0633 00       		.byte	0
 2492 0634 1C       		.uleb128 0x1c
 2493 0635 28010000 		.4byte	.LASF108
 2494 0639 01       		.byte	0x1
 2495 063a 7F01     		.2byte	0x17f
 2496 063c 01       		.byte	0x1
 2497 063d 9E000000 		.4byte	0x9e
 2498 0641 28050000 		.4byte	.LFB21
 2499 0645 28060000 		.4byte	.LFE21
 2500 0649 38000000 		.4byte	.LLST7
 2501 064d 01       		.byte	0x1
 2502 064e 8F060000 		.4byte	0x68f
 2503 0652 19       		.uleb128 0x19
 2504 0653 AC020000 		.4byte	.LASF92
 2505 0657 01       		.byte	0x1
 2506 0658 7F01     		.2byte	0x17f
 2507 065a 86020000 		.4byte	0x286
 2508 065e 02       		.byte	0x2
 2509 065f 91       		.byte	0x91
 2510 0660 5C       		.sleb128 -36
 2511 0661 1B       		.uleb128 0x1b
 2512 0662 70747200 		.ascii	"ptr\000"
 2513 0666 01       		.byte	0x1
 2514 0667 8101     		.2byte	0x181
 2515 0669 86020000 		.4byte	0x286
 2516 066d 02       		.byte	0x2
 2517 066e 91       		.byte	0x91
 2518 066f 6C       		.sleb128 -20
 2519 0670 1B       		.uleb128 0x1b
 2520 0671 6E756D00 		.ascii	"num\000"
 2521 0675 01       		.byte	0x1
 2522 0676 8201     		.2byte	0x182
 2523 0678 BB000000 		.4byte	0xbb
 2524 067c 02       		.byte	0x2
ARM GAS  G:\Users\Jaxb\AppData\Local\Temp\ccdq8815.s 			page 56


 2525 067d 91       		.byte	0x91
 2526 067e 68       		.sleb128 -24
 2527 067f 16       		.uleb128 0x16
 2528 0680 AB060000 		.4byte	.LASF90
 2529 0684 01       		.byte	0x1
 2530 0685 8301     		.2byte	0x183
 2531 0687 9E000000 		.4byte	0x9e
 2532 068b 02       		.byte	0x2
 2533 068c 91       		.byte	0x91
 2534 068d 64       		.sleb128 -28
 2535 068e 00       		.byte	0
 2536 068f 1D       		.uleb128 0x1d
 2537 0690 79060000 		.4byte	.LASF93
 2538 0694 01       		.byte	0x1
 2539 0695 4801     		.2byte	0x148
 2540 0697 01       		.byte	0x1
 2541 0698 60030000 		.4byte	.LFB20
 2542 069c 28050000 		.4byte	.LFE20
 2543 06a0 88000000 		.4byte	.LLST6
 2544 06a4 01       		.byte	0x1
 2545 06a5 C6060000 		.4byte	0x6c6
 2546 06a9 1B       		.uleb128 0x1b
 2547 06aa 6900     		.ascii	"i\000"
 2548 06ac 01       		.byte	0x1
 2549 06ad 4A01     		.2byte	0x14a
 2550 06af BB000000 		.4byte	0xbb
 2551 06b3 02       		.byte	0x2
 2552 06b4 91       		.byte	0x91
 2553 06b5 74       		.sleb128 -12
 2554 06b6 16       		.uleb128 0x16
 2555 06b7 DD030000 		.4byte	.LASF89
 2556 06bb 01       		.byte	0x1
 2557 06bc 4C01     		.2byte	0x14c
 2558 06be 9E000000 		.4byte	0x9e
 2559 06c2 02       		.byte	0x2
 2560 06c3 91       		.byte	0x91
 2561 06c4 70       		.sleb128 -16
 2562 06c5 00       		.byte	0
 2563 06c6 1E       		.uleb128 0x1e
 2564 06c7 DE010000 		.4byte	.LASF94
 2565 06cb 01       		.byte	0x1
 2566 06cc 9D       		.byte	0x9d
 2567 06cd 01       		.byte	0x1
 2568 06ce B4020000 		.4byte	.LFB19
 2569 06d2 60030000 		.4byte	.LFE19
 2570 06d6 D8000000 		.4byte	.LLST5
 2571 06da 01       		.byte	0x1
 2572 06db 12070000 		.4byte	0x712
 2573 06df 1F       		.uleb128 0x1f
 2574 06e0 6B060000 		.4byte	.LASF95
 2575 06e4 01       		.byte	0x1
 2576 06e5 9D       		.byte	0x9d
 2577 06e6 9E000000 		.4byte	0x9e
 2578 06ea 02       		.byte	0x2
 2579 06eb 91       		.byte	0x91
 2580 06ec 64       		.sleb128 -28
 2581 06ed 1F       		.uleb128 0x1f
ARM GAS  G:\Users\Jaxb\AppData\Local\Temp\ccdq8815.s 			page 57


 2582 06ee 8F060000 		.4byte	.LASF66
 2583 06f2 01       		.byte	0x1
 2584 06f3 9D       		.byte	0x9d
 2585 06f4 AA000000 		.4byte	0xaa
 2586 06f8 02       		.byte	0x2
 2587 06f9 91       		.byte	0x91
 2588 06fa 60       		.sleb128 -32
 2589 06fb 1A       		.uleb128 0x1a
 2590 06fc C8020000 		.4byte	.LBB2
 2591 0700 40030000 		.4byte	.LBE2
 2592 0704 20       		.uleb128 0x20
 2593 0705 6900     		.ascii	"i\000"
 2594 0707 01       		.byte	0x1
 2595 0708 A3       		.byte	0xa3
 2596 0709 BB000000 		.4byte	0xbb
 2597 070d 02       		.byte	0x2
 2598 070e 91       		.byte	0x91
 2599 070f 6C       		.sleb128 -20
 2600 0710 00       		.byte	0
 2601 0711 00       		.byte	0
 2602 0712 21       		.uleb128 0x21
 2603 0713 01       		.byte	0x1
 2604 0714 47050000 		.4byte	.LASF97
 2605 0718 01       		.byte	0x1
 2606 0719 65       		.byte	0x65
 2607 071a 01       		.byte	0x1
 2608 071b 64010000 		.4byte	.LFB18
 2609 071f B4020000 		.4byte	.LFE18
 2610 0723 28010000 		.4byte	.LLST4
 2611 0727 01       		.byte	0x1
 2612 0728 39070000 		.4byte	0x739
 2613 072c 22       		.uleb128 0x22
 2614 072d 6300     		.ascii	"c\000"
 2615 072f 01       		.byte	0x1
 2616 0730 65       		.byte	0x65
 2617 0731 81000000 		.4byte	0x81
 2618 0735 02       		.byte	0x2
 2619 0736 91       		.byte	0x91
 2620 0737 77       		.sleb128 -9
 2621 0738 00       		.byte	0
 2622 0739 23       		.uleb128 0x23
 2623 073a 01       		.byte	0x1
 2624 073b 30030000 		.4byte	.LASF100
 2625 073f 01       		.byte	0x1
 2626 0740 50       		.byte	0x50
 2627 0741 01       		.byte	0x1
 2628 0742 9E000000 		.4byte	0x9e
 2629 0746 00010000 		.4byte	.LFB17
 2630 074a 64010000 		.4byte	.LFE17
 2631 074e 78010000 		.4byte	.LLST3
 2632 0752 01       		.byte	0x1
 2633 0753 82070000 		.4byte	0x782
 2634 0757 1F       		.uleb128 0x1f
 2635 0758 1F030000 		.4byte	.LASF98
 2636 075c 01       		.byte	0x1
 2637 075d 50       		.byte	0x50
 2638 075e D5040000 		.4byte	0x4d5
ARM GAS  G:\Users\Jaxb\AppData\Local\Temp\ccdq8815.s 			page 58


 2639 0762 02       		.byte	0x2
 2640 0763 91       		.byte	0x91
 2641 0764 74       		.sleb128 -12
 2642 0765 1F       		.uleb128 0x1f
 2643 0766 AC020000 		.4byte	.LASF92
 2644 076a 01       		.byte	0x1
 2645 076b 51       		.byte	0x51
 2646 076c 86020000 		.4byte	0x286
 2647 0770 02       		.byte	0x2
 2648 0771 91       		.byte	0x91
 2649 0772 70       		.sleb128 -16
 2650 0773 1F       		.uleb128 0x1f
 2651 0774 44030000 		.4byte	.LASF99
 2652 0778 01       		.byte	0x1
 2653 0779 52       		.byte	0x52
 2654 077a 86020000 		.4byte	0x286
 2655 077e 02       		.byte	0x2
 2656 077f 91       		.byte	0x91
 2657 0780 6C       		.sleb128 -20
 2658 0781 00       		.byte	0
 2659 0782 23       		.uleb128 0x23
 2660 0783 01       		.byte	0x1
 2661 0784 D9050000 		.4byte	.LASF101
 2662 0788 01       		.byte	0x1
 2663 0789 3E       		.byte	0x3e
 2664 078a 01       		.byte	0x1
 2665 078b D5040000 		.4byte	0x4d5
 2666 078f A8000000 		.4byte	.LFB16
 2667 0793 00010000 		.4byte	.LFE16
 2668 0797 C8010000 		.4byte	.LLST2
 2669 079b 01       		.byte	0x1
 2670 079c CB070000 		.4byte	0x7cb
 2671 07a0 1F       		.uleb128 0x1f
 2672 07a1 1F030000 		.4byte	.LASF98
 2673 07a5 01       		.byte	0x1
 2674 07a6 3E       		.byte	0x3e
 2675 07a7 D5040000 		.4byte	0x4d5
 2676 07ab 02       		.byte	0x2
 2677 07ac 91       		.byte	0x91
 2678 07ad 6C       		.sleb128 -20
 2679 07ae 15       		.uleb128 0x15
 2680 07af 05010000 		.4byte	.LASF102
 2681 07b3 01       		.byte	0x1
 2682 07b4 48       		.byte	0x48
 2683 07b5 65040000 		.4byte	0x465
 2684 07b9 02       		.byte	0x2
 2685 07ba 91       		.byte	0x91
 2686 07bb 74       		.sleb128 -12
 2687 07bc 15       		.uleb128 0x15
 2688 07bd 8F050000 		.4byte	.LASF68
 2689 07c1 01       		.byte	0x1
 2690 07c2 4A       		.byte	0x4a
 2691 07c3 D5040000 		.4byte	0x4d5
 2692 07c7 02       		.byte	0x2
 2693 07c8 91       		.byte	0x91
 2694 07c9 70       		.sleb128 -16
 2695 07ca 00       		.byte	0
ARM GAS  G:\Users\Jaxb\AppData\Local\Temp\ccdq8815.s 			page 59


 2696 07cb 21       		.uleb128 0x21
 2697 07cc 01       		.byte	0x1
 2698 07cd 96020000 		.4byte	.LASF103
 2699 07d1 01       		.byte	0x1
 2700 07d2 20       		.byte	0x20
 2701 07d3 01       		.byte	0x1
 2702 07d4 24000000 		.4byte	.LFB15
 2703 07d8 A8000000 		.4byte	.LFE15
 2704 07dc 18020000 		.4byte	.LLST1
 2705 07e0 01       		.byte	0x1
 2706 07e1 02080000 		.4byte	0x802
 2707 07e5 1F       		.uleb128 0x1f
 2708 07e6 02060000 		.4byte	.LASF104
 2709 07ea 01       		.byte	0x1
 2710 07eb 20       		.byte	0x20
 2711 07ec 7B000000 		.4byte	0x7b
 2712 07f0 02       		.byte	0x2
 2713 07f1 91       		.byte	0x91
 2714 07f2 64       		.sleb128 -28
 2715 07f3 15       		.uleb128 0x15
 2716 07f4 DD030000 		.4byte	.LASF89
 2717 07f8 01       		.byte	0x1
 2718 07f9 2B       		.byte	0x2b
 2719 07fa 9E000000 		.4byte	0x9e
 2720 07fe 02       		.byte	0x2
 2721 07ff 91       		.byte	0x91
 2722 0800 6C       		.sleb128 -20
 2723 0801 00       		.byte	0
 2724 0802 24       		.uleb128 0x24
 2725 0803 0C030000 		.4byte	.LASF109
 2726 0807 01       		.byte	0x1
 2727 0808 1A       		.byte	0x1a
 2728 0809 01       		.byte	0x1
 2729 080a 00000000 		.4byte	.LFB14
 2730 080e 24000000 		.4byte	.LFE14
 2731 0812 68020000 		.4byte	.LLST0
 2732 0816 01       		.byte	0x1
 2733 0817 00       		.byte	0
 2734              		.section	.debug_abbrev,"",%progbits
 2735              	.Ldebug_abbrev0:
 2736 0000 01       		.uleb128 0x1
 2737 0001 11       		.uleb128 0x11
 2738 0002 01       		.byte	0x1
 2739 0003 25       		.uleb128 0x25
 2740 0004 0E       		.uleb128 0xe
 2741 0005 13       		.uleb128 0x13
 2742 0006 0B       		.uleb128 0xb
 2743 0007 03       		.uleb128 0x3
 2744 0008 0E       		.uleb128 0xe
 2745 0009 1B       		.uleb128 0x1b
 2746 000a 0E       		.uleb128 0xe
 2747 000b 11       		.uleb128 0x11
 2748 000c 01       		.uleb128 0x1
 2749 000d 12       		.uleb128 0x12
 2750 000e 01       		.uleb128 0x1
 2751 000f 10       		.uleb128 0x10
 2752 0010 06       		.uleb128 0x6
ARM GAS  G:\Users\Jaxb\AppData\Local\Temp\ccdq8815.s 			page 60


 2753 0011 00       		.byte	0
 2754 0012 00       		.byte	0
 2755 0013 02       		.uleb128 0x2
 2756 0014 13       		.uleb128 0x13
 2757 0015 01       		.byte	0x1
 2758 0016 03       		.uleb128 0x3
 2759 0017 0E       		.uleb128 0xe
 2760 0018 0B       		.uleb128 0xb
 2761 0019 0B       		.uleb128 0xb
 2762 001a 3A       		.uleb128 0x3a
 2763 001b 0B       		.uleb128 0xb
 2764 001c 3B       		.uleb128 0x3b
 2765 001d 0B       		.uleb128 0xb
 2766 001e 01       		.uleb128 0x1
 2767 001f 13       		.uleb128 0x13
 2768 0020 00       		.byte	0
 2769 0021 00       		.byte	0
 2770 0022 03       		.uleb128 0x3
 2771 0023 0D       		.uleb128 0xd
 2772 0024 00       		.byte	0
 2773 0025 03       		.uleb128 0x3
 2774 0026 0E       		.uleb128 0xe
 2775 0027 3A       		.uleb128 0x3a
 2776 0028 0B       		.uleb128 0xb
 2777 0029 3B       		.uleb128 0x3b
 2778 002a 0B       		.uleb128 0xb
 2779 002b 49       		.uleb128 0x49
 2780 002c 13       		.uleb128 0x13
 2781 002d 38       		.uleb128 0x38
 2782 002e 0A       		.uleb128 0xa
 2783 002f 00       		.byte	0
 2784 0030 00       		.byte	0
 2785 0031 04       		.uleb128 0x4
 2786 0032 0F       		.uleb128 0xf
 2787 0033 00       		.byte	0
 2788 0034 0B       		.uleb128 0xb
 2789 0035 0B       		.uleb128 0xb
 2790 0036 49       		.uleb128 0x49
 2791 0037 13       		.uleb128 0x13
 2792 0038 00       		.byte	0
 2793 0039 00       		.byte	0
 2794 003a 05       		.uleb128 0x5
 2795 003b 0D       		.uleb128 0xd
 2796 003c 00       		.byte	0
 2797 003d 03       		.uleb128 0x3
 2798 003e 08       		.uleb128 0x8
 2799 003f 3A       		.uleb128 0x3a
 2800 0040 0B       		.uleb128 0xb
 2801 0041 3B       		.uleb128 0x3b
 2802 0042 0B       		.uleb128 0xb
 2803 0043 49       		.uleb128 0x49
 2804 0044 13       		.uleb128 0x13
 2805 0045 38       		.uleb128 0x38
 2806 0046 0A       		.uleb128 0xa
 2807 0047 00       		.byte	0
 2808 0048 00       		.byte	0
 2809 0049 06       		.uleb128 0x6
ARM GAS  G:\Users\Jaxb\AppData\Local\Temp\ccdq8815.s 			page 61


 2810 004a 24       		.uleb128 0x24
 2811 004b 00       		.byte	0
 2812 004c 0B       		.uleb128 0xb
 2813 004d 0B       		.uleb128 0xb
 2814 004e 3E       		.uleb128 0x3e
 2815 004f 0B       		.uleb128 0xb
 2816 0050 03       		.uleb128 0x3
 2817 0051 0E       		.uleb128 0xe
 2818 0052 00       		.byte	0
 2819 0053 00       		.byte	0
 2820 0054 07       		.uleb128 0x7
 2821 0055 26       		.uleb128 0x26
 2822 0056 00       		.byte	0
 2823 0057 49       		.uleb128 0x49
 2824 0058 13       		.uleb128 0x13
 2825 0059 00       		.byte	0
 2826 005a 00       		.byte	0
 2827 005b 08       		.uleb128 0x8
 2828 005c 15       		.uleb128 0x15
 2829 005d 01       		.byte	0x1
 2830 005e 27       		.uleb128 0x27
 2831 005f 0C       		.uleb128 0xc
 2832 0060 01       		.uleb128 0x1
 2833 0061 13       		.uleb128 0x13
 2834 0062 00       		.byte	0
 2835 0063 00       		.byte	0
 2836 0064 09       		.uleb128 0x9
 2837 0065 05       		.uleb128 0x5
 2838 0066 00       		.byte	0
 2839 0067 49       		.uleb128 0x49
 2840 0068 13       		.uleb128 0x13
 2841 0069 00       		.byte	0
 2842 006a 00       		.byte	0
 2843 006b 0A       		.uleb128 0xa
 2844 006c 24       		.uleb128 0x24
 2845 006d 00       		.byte	0
 2846 006e 0B       		.uleb128 0xb
 2847 006f 0B       		.uleb128 0xb
 2848 0070 3E       		.uleb128 0x3e
 2849 0071 0B       		.uleb128 0xb
 2850 0072 03       		.uleb128 0x3
 2851 0073 08       		.uleb128 0x8
 2852 0074 00       		.byte	0
 2853 0075 00       		.byte	0
 2854 0076 0B       		.uleb128 0xb
 2855 0077 35       		.uleb128 0x35
 2856 0078 00       		.byte	0
 2857 0079 49       		.uleb128 0x49
 2858 007a 13       		.uleb128 0x13
 2859 007b 00       		.byte	0
 2860 007c 00       		.byte	0
 2861 007d 0C       		.uleb128 0xc
 2862 007e 16       		.uleb128 0x16
 2863 007f 00       		.byte	0
 2864 0080 03       		.uleb128 0x3
 2865 0081 0E       		.uleb128 0xe
 2866 0082 3A       		.uleb128 0x3a
ARM GAS  G:\Users\Jaxb\AppData\Local\Temp\ccdq8815.s 			page 62


 2867 0083 0B       		.uleb128 0xb
 2868 0084 3B       		.uleb128 0x3b
 2869 0085 0B       		.uleb128 0xb
 2870 0086 49       		.uleb128 0x49
 2871 0087 13       		.uleb128 0x13
 2872 0088 00       		.byte	0
 2873 0089 00       		.byte	0
 2874 008a 0D       		.uleb128 0xd
 2875 008b 04       		.uleb128 0x4
 2876 008c 01       		.byte	0x1
 2877 008d 03       		.uleb128 0x3
 2878 008e 0E       		.uleb128 0xe
 2879 008f 3E       		.uleb128 0x3e
 2880 0090 0B       		.uleb128 0xb
 2881 0091 0B       		.uleb128 0xb
 2882 0092 0B       		.uleb128 0xb
 2883 0093 49       		.uleb128 0x49
 2884 0094 13       		.uleb128 0x13
 2885 0095 3A       		.uleb128 0x3a
 2886 0096 0B       		.uleb128 0xb
 2887 0097 3B       		.uleb128 0x3b
 2888 0098 0B       		.uleb128 0xb
 2889 0099 01       		.uleb128 0x1
 2890 009a 13       		.uleb128 0x13
 2891 009b 00       		.byte	0
 2892 009c 00       		.byte	0
 2893 009d 0E       		.uleb128 0xe
 2894 009e 28       		.uleb128 0x28
 2895 009f 00       		.byte	0
 2896 00a0 03       		.uleb128 0x3
 2897 00a1 0E       		.uleb128 0xe
 2898 00a2 1C       		.uleb128 0x1c
 2899 00a3 0B       		.uleb128 0xb
 2900 00a4 00       		.byte	0
 2901 00a5 00       		.byte	0
 2902 00a6 0F       		.uleb128 0xf
 2903 00a7 0F       		.uleb128 0xf
 2904 00a8 00       		.byte	0
 2905 00a9 0B       		.uleb128 0xb
 2906 00aa 0B       		.uleb128 0xb
 2907 00ab 00       		.byte	0
 2908 00ac 00       		.byte	0
 2909 00ad 10       		.uleb128 0x10
 2910 00ae 34       		.uleb128 0x34
 2911 00af 00       		.byte	0
 2912 00b0 03       		.uleb128 0x3
 2913 00b1 0E       		.uleb128 0xe
 2914 00b2 3A       		.uleb128 0x3a
 2915 00b3 0B       		.uleb128 0xb
 2916 00b4 3B       		.uleb128 0x3b
 2917 00b5 0B       		.uleb128 0xb
 2918 00b6 49       		.uleb128 0x49
 2919 00b7 13       		.uleb128 0x13
 2920 00b8 3F       		.uleb128 0x3f
 2921 00b9 0C       		.uleb128 0xc
 2922 00ba 3C       		.uleb128 0x3c
 2923 00bb 0C       		.uleb128 0xc
ARM GAS  G:\Users\Jaxb\AppData\Local\Temp\ccdq8815.s 			page 63


 2924 00bc 00       		.byte	0
 2925 00bd 00       		.byte	0
 2926 00be 11       		.uleb128 0x11
 2927 00bf 16       		.uleb128 0x16
 2928 00c0 00       		.byte	0
 2929 00c1 03       		.uleb128 0x3
 2930 00c2 08       		.uleb128 0x8
 2931 00c3 3A       		.uleb128 0x3a
 2932 00c4 0B       		.uleb128 0xb
 2933 00c5 3B       		.uleb128 0x3b
 2934 00c6 0B       		.uleb128 0xb
 2935 00c7 49       		.uleb128 0x49
 2936 00c8 13       		.uleb128 0x13
 2937 00c9 00       		.byte	0
 2938 00ca 00       		.byte	0
 2939 00cb 12       		.uleb128 0x12
 2940 00cc 15       		.uleb128 0x15
 2941 00cd 01       		.byte	0x1
 2942 00ce 27       		.uleb128 0x27
 2943 00cf 0C       		.uleb128 0xc
 2944 00d0 49       		.uleb128 0x49
 2945 00d1 13       		.uleb128 0x13
 2946 00d2 01       		.uleb128 0x1
 2947 00d3 13       		.uleb128 0x13
 2948 00d4 00       		.byte	0
 2949 00d5 00       		.byte	0
 2950 00d6 13       		.uleb128 0x13
 2951 00d7 01       		.uleb128 0x1
 2952 00d8 01       		.byte	0x1
 2953 00d9 49       		.uleb128 0x49
 2954 00da 13       		.uleb128 0x13
 2955 00db 01       		.uleb128 0x1
 2956 00dc 13       		.uleb128 0x13
 2957 00dd 00       		.byte	0
 2958 00de 00       		.byte	0
 2959 00df 14       		.uleb128 0x14
 2960 00e0 21       		.uleb128 0x21
 2961 00e1 00       		.byte	0
 2962 00e2 49       		.uleb128 0x49
 2963 00e3 13       		.uleb128 0x13
 2964 00e4 2F       		.uleb128 0x2f
 2965 00e5 0B       		.uleb128 0xb
 2966 00e6 00       		.byte	0
 2967 00e7 00       		.byte	0
 2968 00e8 15       		.uleb128 0x15
 2969 00e9 34       		.uleb128 0x34
 2970 00ea 00       		.byte	0
 2971 00eb 03       		.uleb128 0x3
 2972 00ec 0E       		.uleb128 0xe
 2973 00ed 3A       		.uleb128 0x3a
 2974 00ee 0B       		.uleb128 0xb
 2975 00ef 3B       		.uleb128 0x3b
 2976 00f0 0B       		.uleb128 0xb
 2977 00f1 49       		.uleb128 0x49
 2978 00f2 13       		.uleb128 0x13
 2979 00f3 02       		.uleb128 0x2
 2980 00f4 0A       		.uleb128 0xa
ARM GAS  G:\Users\Jaxb\AppData\Local\Temp\ccdq8815.s 			page 64


 2981 00f5 00       		.byte	0
 2982 00f6 00       		.byte	0
 2983 00f7 16       		.uleb128 0x16
 2984 00f8 34       		.uleb128 0x34
 2985 00f9 00       		.byte	0
 2986 00fa 03       		.uleb128 0x3
 2987 00fb 0E       		.uleb128 0xe
 2988 00fc 3A       		.uleb128 0x3a
 2989 00fd 0B       		.uleb128 0xb
 2990 00fe 3B       		.uleb128 0x3b
 2991 00ff 05       		.uleb128 0x5
 2992 0100 49       		.uleb128 0x49
 2993 0101 13       		.uleb128 0x13
 2994 0102 02       		.uleb128 0x2
 2995 0103 0A       		.uleb128 0xa
 2996 0104 00       		.byte	0
 2997 0105 00       		.byte	0
 2998 0106 17       		.uleb128 0x17
 2999 0107 34       		.uleb128 0x34
 3000 0108 00       		.byte	0
 3001 0109 03       		.uleb128 0x3
 3002 010a 0E       		.uleb128 0xe
 3003 010b 3A       		.uleb128 0x3a
 3004 010c 0B       		.uleb128 0xb
 3005 010d 3B       		.uleb128 0x3b
 3006 010e 05       		.uleb128 0x5
 3007 010f 49       		.uleb128 0x49
 3008 0110 13       		.uleb128 0x13
 3009 0111 3F       		.uleb128 0x3f
 3010 0112 0C       		.uleb128 0xc
 3011 0113 3C       		.uleb128 0x3c
 3012 0114 0C       		.uleb128 0xc
 3013 0115 00       		.byte	0
 3014 0116 00       		.byte	0
 3015 0117 18       		.uleb128 0x18
 3016 0118 2E       		.uleb128 0x2e
 3017 0119 01       		.byte	0x1
 3018 011a 3F       		.uleb128 0x3f
 3019 011b 0C       		.uleb128 0xc
 3020 011c 03       		.uleb128 0x3
 3021 011d 0E       		.uleb128 0xe
 3022 011e 3A       		.uleb128 0x3a
 3023 011f 0B       		.uleb128 0xb
 3024 0120 3B       		.uleb128 0x3b
 3025 0121 05       		.uleb128 0x5
 3026 0122 27       		.uleb128 0x27
 3027 0123 0C       		.uleb128 0xc
 3028 0124 11       		.uleb128 0x11
 3029 0125 01       		.uleb128 0x1
 3030 0126 12       		.uleb128 0x12
 3031 0127 01       		.uleb128 0x1
 3032 0128 40       		.uleb128 0x40
 3033 0129 06       		.uleb128 0x6
 3034 012a 9642     		.uleb128 0x2116
 3035 012c 0C       		.uleb128 0xc
 3036 012d 01       		.uleb128 0x1
 3037 012e 13       		.uleb128 0x13
ARM GAS  G:\Users\Jaxb\AppData\Local\Temp\ccdq8815.s 			page 65


 3038 012f 00       		.byte	0
 3039 0130 00       		.byte	0
 3040 0131 19       		.uleb128 0x19
 3041 0132 05       		.uleb128 0x5
 3042 0133 00       		.byte	0
 3043 0134 03       		.uleb128 0x3
 3044 0135 0E       		.uleb128 0xe
 3045 0136 3A       		.uleb128 0x3a
 3046 0137 0B       		.uleb128 0xb
 3047 0138 3B       		.uleb128 0x3b
 3048 0139 05       		.uleb128 0x5
 3049 013a 49       		.uleb128 0x49
 3050 013b 13       		.uleb128 0x13
 3051 013c 02       		.uleb128 0x2
 3052 013d 0A       		.uleb128 0xa
 3053 013e 00       		.byte	0
 3054 013f 00       		.byte	0
 3055 0140 1A       		.uleb128 0x1a
 3056 0141 0B       		.uleb128 0xb
 3057 0142 01       		.byte	0x1
 3058 0143 11       		.uleb128 0x11
 3059 0144 01       		.uleb128 0x1
 3060 0145 12       		.uleb128 0x12
 3061 0146 01       		.uleb128 0x1
 3062 0147 00       		.byte	0
 3063 0148 00       		.byte	0
 3064 0149 1B       		.uleb128 0x1b
 3065 014a 34       		.uleb128 0x34
 3066 014b 00       		.byte	0
 3067 014c 03       		.uleb128 0x3
 3068 014d 08       		.uleb128 0x8
 3069 014e 3A       		.uleb128 0x3a
 3070 014f 0B       		.uleb128 0xb
 3071 0150 3B       		.uleb128 0x3b
 3072 0151 05       		.uleb128 0x5
 3073 0152 49       		.uleb128 0x49
 3074 0153 13       		.uleb128 0x13
 3075 0154 02       		.uleb128 0x2
 3076 0155 0A       		.uleb128 0xa
 3077 0156 00       		.byte	0
 3078 0157 00       		.byte	0
 3079 0158 1C       		.uleb128 0x1c
 3080 0159 2E       		.uleb128 0x2e
 3081 015a 01       		.byte	0x1
 3082 015b 03       		.uleb128 0x3
 3083 015c 0E       		.uleb128 0xe
 3084 015d 3A       		.uleb128 0x3a
 3085 015e 0B       		.uleb128 0xb
 3086 015f 3B       		.uleb128 0x3b
 3087 0160 05       		.uleb128 0x5
 3088 0161 27       		.uleb128 0x27
 3089 0162 0C       		.uleb128 0xc
 3090 0163 49       		.uleb128 0x49
 3091 0164 13       		.uleb128 0x13
 3092 0165 11       		.uleb128 0x11
 3093 0166 01       		.uleb128 0x1
 3094 0167 12       		.uleb128 0x12
ARM GAS  G:\Users\Jaxb\AppData\Local\Temp\ccdq8815.s 			page 66


 3095 0168 01       		.uleb128 0x1
 3096 0169 40       		.uleb128 0x40
 3097 016a 06       		.uleb128 0x6
 3098 016b 9642     		.uleb128 0x2116
 3099 016d 0C       		.uleb128 0xc
 3100 016e 01       		.uleb128 0x1
 3101 016f 13       		.uleb128 0x13
 3102 0170 00       		.byte	0
 3103 0171 00       		.byte	0
 3104 0172 1D       		.uleb128 0x1d
 3105 0173 2E       		.uleb128 0x2e
 3106 0174 01       		.byte	0x1
 3107 0175 03       		.uleb128 0x3
 3108 0176 0E       		.uleb128 0xe
 3109 0177 3A       		.uleb128 0x3a
 3110 0178 0B       		.uleb128 0xb
 3111 0179 3B       		.uleb128 0x3b
 3112 017a 05       		.uleb128 0x5
 3113 017b 27       		.uleb128 0x27
 3114 017c 0C       		.uleb128 0xc
 3115 017d 11       		.uleb128 0x11
 3116 017e 01       		.uleb128 0x1
 3117 017f 12       		.uleb128 0x12
 3118 0180 01       		.uleb128 0x1
 3119 0181 40       		.uleb128 0x40
 3120 0182 06       		.uleb128 0x6
 3121 0183 9642     		.uleb128 0x2116
 3122 0185 0C       		.uleb128 0xc
 3123 0186 01       		.uleb128 0x1
 3124 0187 13       		.uleb128 0x13
 3125 0188 00       		.byte	0
 3126 0189 00       		.byte	0
 3127 018a 1E       		.uleb128 0x1e
 3128 018b 2E       		.uleb128 0x2e
 3129 018c 01       		.byte	0x1
 3130 018d 03       		.uleb128 0x3
 3131 018e 0E       		.uleb128 0xe
 3132 018f 3A       		.uleb128 0x3a
 3133 0190 0B       		.uleb128 0xb
 3134 0191 3B       		.uleb128 0x3b
 3135 0192 0B       		.uleb128 0xb
 3136 0193 27       		.uleb128 0x27
 3137 0194 0C       		.uleb128 0xc
 3138 0195 11       		.uleb128 0x11
 3139 0196 01       		.uleb128 0x1
 3140 0197 12       		.uleb128 0x12
 3141 0198 01       		.uleb128 0x1
 3142 0199 40       		.uleb128 0x40
 3143 019a 06       		.uleb128 0x6
 3144 019b 9642     		.uleb128 0x2116
 3145 019d 0C       		.uleb128 0xc
 3146 019e 01       		.uleb128 0x1
 3147 019f 13       		.uleb128 0x13
 3148 01a0 00       		.byte	0
 3149 01a1 00       		.byte	0
 3150 01a2 1F       		.uleb128 0x1f
 3151 01a3 05       		.uleb128 0x5
ARM GAS  G:\Users\Jaxb\AppData\Local\Temp\ccdq8815.s 			page 67


 3152 01a4 00       		.byte	0
 3153 01a5 03       		.uleb128 0x3
 3154 01a6 0E       		.uleb128 0xe
 3155 01a7 3A       		.uleb128 0x3a
 3156 01a8 0B       		.uleb128 0xb
 3157 01a9 3B       		.uleb128 0x3b
 3158 01aa 0B       		.uleb128 0xb
 3159 01ab 49       		.uleb128 0x49
 3160 01ac 13       		.uleb128 0x13
 3161 01ad 02       		.uleb128 0x2
 3162 01ae 0A       		.uleb128 0xa
 3163 01af 00       		.byte	0
 3164 01b0 00       		.byte	0
 3165 01b1 20       		.uleb128 0x20
 3166 01b2 34       		.uleb128 0x34
 3167 01b3 00       		.byte	0
 3168 01b4 03       		.uleb128 0x3
 3169 01b5 08       		.uleb128 0x8
 3170 01b6 3A       		.uleb128 0x3a
 3171 01b7 0B       		.uleb128 0xb
 3172 01b8 3B       		.uleb128 0x3b
 3173 01b9 0B       		.uleb128 0xb
 3174 01ba 49       		.uleb128 0x49
 3175 01bb 13       		.uleb128 0x13
 3176 01bc 02       		.uleb128 0x2
 3177 01bd 0A       		.uleb128 0xa
 3178 01be 00       		.byte	0
 3179 01bf 00       		.byte	0
 3180 01c0 21       		.uleb128 0x21
 3181 01c1 2E       		.uleb128 0x2e
 3182 01c2 01       		.byte	0x1
 3183 01c3 3F       		.uleb128 0x3f
 3184 01c4 0C       		.uleb128 0xc
 3185 01c5 03       		.uleb128 0x3
 3186 01c6 0E       		.uleb128 0xe
 3187 01c7 3A       		.uleb128 0x3a
 3188 01c8 0B       		.uleb128 0xb
 3189 01c9 3B       		.uleb128 0x3b
 3190 01ca 0B       		.uleb128 0xb
 3191 01cb 27       		.uleb128 0x27
 3192 01cc 0C       		.uleb128 0xc
 3193 01cd 11       		.uleb128 0x11
 3194 01ce 01       		.uleb128 0x1
 3195 01cf 12       		.uleb128 0x12
 3196 01d0 01       		.uleb128 0x1
 3197 01d1 40       		.uleb128 0x40
 3198 01d2 06       		.uleb128 0x6
 3199 01d3 9642     		.uleb128 0x2116
 3200 01d5 0C       		.uleb128 0xc
 3201 01d6 01       		.uleb128 0x1
 3202 01d7 13       		.uleb128 0x13
 3203 01d8 00       		.byte	0
 3204 01d9 00       		.byte	0
 3205 01da 22       		.uleb128 0x22
 3206 01db 05       		.uleb128 0x5
 3207 01dc 00       		.byte	0
 3208 01dd 03       		.uleb128 0x3
ARM GAS  G:\Users\Jaxb\AppData\Local\Temp\ccdq8815.s 			page 68


 3209 01de 08       		.uleb128 0x8
 3210 01df 3A       		.uleb128 0x3a
 3211 01e0 0B       		.uleb128 0xb
 3212 01e1 3B       		.uleb128 0x3b
 3213 01e2 0B       		.uleb128 0xb
 3214 01e3 49       		.uleb128 0x49
 3215 01e4 13       		.uleb128 0x13
 3216 01e5 02       		.uleb128 0x2
 3217 01e6 0A       		.uleb128 0xa
 3218 01e7 00       		.byte	0
 3219 01e8 00       		.byte	0
 3220 01e9 23       		.uleb128 0x23
 3221 01ea 2E       		.uleb128 0x2e
 3222 01eb 01       		.byte	0x1
 3223 01ec 3F       		.uleb128 0x3f
 3224 01ed 0C       		.uleb128 0xc
 3225 01ee 03       		.uleb128 0x3
 3226 01ef 0E       		.uleb128 0xe
 3227 01f0 3A       		.uleb128 0x3a
 3228 01f1 0B       		.uleb128 0xb
 3229 01f2 3B       		.uleb128 0x3b
 3230 01f3 0B       		.uleb128 0xb
 3231 01f4 27       		.uleb128 0x27
 3232 01f5 0C       		.uleb128 0xc
 3233 01f6 49       		.uleb128 0x49
 3234 01f7 13       		.uleb128 0x13
 3235 01f8 11       		.uleb128 0x11
 3236 01f9 01       		.uleb128 0x1
 3237 01fa 12       		.uleb128 0x12
 3238 01fb 01       		.uleb128 0x1
 3239 01fc 40       		.uleb128 0x40
 3240 01fd 06       		.uleb128 0x6
 3241 01fe 9642     		.uleb128 0x2116
 3242 0200 0C       		.uleb128 0xc
 3243 0201 01       		.uleb128 0x1
 3244 0202 13       		.uleb128 0x13
 3245 0203 00       		.byte	0
 3246 0204 00       		.byte	0
 3247 0205 24       		.uleb128 0x24
 3248 0206 2E       		.uleb128 0x2e
 3249 0207 00       		.byte	0
 3250 0208 03       		.uleb128 0x3
 3251 0209 0E       		.uleb128 0xe
 3252 020a 3A       		.uleb128 0x3a
 3253 020b 0B       		.uleb128 0xb
 3254 020c 3B       		.uleb128 0x3b
 3255 020d 0B       		.uleb128 0xb
 3256 020e 27       		.uleb128 0x27
 3257 020f 0C       		.uleb128 0xc
 3258 0210 11       		.uleb128 0x11
 3259 0211 01       		.uleb128 0x1
 3260 0212 12       		.uleb128 0x12
 3261 0213 01       		.uleb128 0x1
 3262 0214 40       		.uleb128 0x40
 3263 0215 06       		.uleb128 0x6
 3264 0216 9742     		.uleb128 0x2117
 3265 0218 0C       		.uleb128 0xc
ARM GAS  G:\Users\Jaxb\AppData\Local\Temp\ccdq8815.s 			page 69


 3266 0219 00       		.byte	0
 3267 021a 00       		.byte	0
 3268 021b 00       		.byte	0
 3269              		.section	.debug_loc,"",%progbits
 3270              	.Ldebug_loc0:
 3271              	.LLST8:
 3272 0000 28060000 		.4byte	.LFB22-.Ltext0
 3273 0004 2A060000 		.4byte	.LCFI39-.Ltext0
 3274 0008 0200     		.2byte	0x2
 3275 000a 7D       		.byte	0x7d
 3276 000b 00       		.sleb128 0
 3277 000c 2A060000 		.4byte	.LCFI39-.Ltext0
 3278 0010 2C060000 		.4byte	.LCFI40-.Ltext0
 3279 0014 0200     		.2byte	0x2
 3280 0016 7D       		.byte	0x7d
 3281 0017 08       		.sleb128 8
 3282 0018 2C060000 		.4byte	.LCFI40-.Ltext0
 3283 001c 2E060000 		.4byte	.LCFI41-.Ltext0
 3284 0020 0200     		.2byte	0x2
 3285 0022 7D       		.byte	0x7d
 3286 0023 20       		.sleb128 32
 3287 0024 2E060000 		.4byte	.LCFI41-.Ltext0
 3288 0028 58070000 		.4byte	.LFE22-.Ltext0
 3289 002c 0200     		.2byte	0x2
 3290 002e 77       		.byte	0x77
 3291 002f 20       		.sleb128 32
 3292 0030 00000000 		.4byte	0
 3293 0034 00000000 		.4byte	0
 3294              	.LLST7:
 3295 0038 28050000 		.4byte	.LFB21-.Ltext0
 3296 003c 2A050000 		.4byte	.LCFI34-.Ltext0
 3297 0040 0200     		.2byte	0x2
 3298 0042 7D       		.byte	0x7d
 3299 0043 00       		.sleb128 0
 3300 0044 2A050000 		.4byte	.LCFI34-.Ltext0
 3301 0048 2C050000 		.4byte	.LCFI35-.Ltext0
 3302 004c 0200     		.2byte	0x2
 3303 004e 7D       		.byte	0x7d
 3304 004f 10       		.sleb128 16
 3305 0050 2C050000 		.4byte	.LCFI35-.Ltext0
 3306 0054 2E050000 		.4byte	.LCFI36-.Ltext0
 3307 0058 0200     		.2byte	0x2
 3308 005a 7D       		.byte	0x7d
 3309 005b 28       		.sleb128 40
 3310 005c 2E050000 		.4byte	.LCFI36-.Ltext0
 3311 0060 1A060000 		.4byte	.LCFI37-.Ltext0
 3312 0064 0200     		.2byte	0x2
 3313 0066 77       		.byte	0x77
 3314 0067 28       		.sleb128 40
 3315 0068 1A060000 		.4byte	.LCFI37-.Ltext0
 3316 006c 1C060000 		.4byte	.LCFI38-.Ltext0
 3317 0070 0200     		.2byte	0x2
 3318 0072 77       		.byte	0x77
 3319 0073 10       		.sleb128 16
 3320 0074 1C060000 		.4byte	.LCFI38-.Ltext0
 3321 0078 28060000 		.4byte	.LFE21-.Ltext0
 3322 007c 0200     		.2byte	0x2
ARM GAS  G:\Users\Jaxb\AppData\Local\Temp\ccdq8815.s 			page 70


 3323 007e 7D       		.byte	0x7d
 3324 007f 10       		.sleb128 16
 3325 0080 00000000 		.4byte	0
 3326 0084 00000000 		.4byte	0
 3327              	.LLST6:
 3328 0088 60030000 		.4byte	.LFB20-.Ltext0
 3329 008c 62030000 		.4byte	.LCFI29-.Ltext0
 3330 0090 0200     		.2byte	0x2
 3331 0092 7D       		.byte	0x7d
 3332 0093 00       		.sleb128 0
 3333 0094 62030000 		.4byte	.LCFI29-.Ltext0
 3334 0098 64030000 		.4byte	.LCFI30-.Ltext0
 3335 009c 0200     		.2byte	0x2
 3336 009e 7D       		.byte	0x7d
 3337 009f 08       		.sleb128 8
 3338 00a0 64030000 		.4byte	.LCFI30-.Ltext0
 3339 00a4 66030000 		.4byte	.LCFI31-.Ltext0
 3340 00a8 0200     		.2byte	0x2
 3341 00aa 7D       		.byte	0x7d
 3342 00ab 10       		.sleb128 16
 3343 00ac 66030000 		.4byte	.LCFI31-.Ltext0
 3344 00b0 EC040000 		.4byte	.LCFI32-.Ltext0
 3345 00b4 0200     		.2byte	0x2
 3346 00b6 77       		.byte	0x77
 3347 00b7 10       		.sleb128 16
 3348 00b8 EC040000 		.4byte	.LCFI32-.Ltext0
 3349 00bc EE040000 		.4byte	.LCFI33-.Ltext0
 3350 00c0 0200     		.2byte	0x2
 3351 00c2 77       		.byte	0x77
 3352 00c3 08       		.sleb128 8
 3353 00c4 EE040000 		.4byte	.LCFI33-.Ltext0
 3354 00c8 28050000 		.4byte	.LFE20-.Ltext0
 3355 00cc 0200     		.2byte	0x2
 3356 00ce 7D       		.byte	0x7d
 3357 00cf 08       		.sleb128 8
 3358 00d0 00000000 		.4byte	0
 3359 00d4 00000000 		.4byte	0
 3360              	.LLST5:
 3361 00d8 B4020000 		.4byte	.LFB19-.Ltext0
 3362 00dc B6020000 		.4byte	.LCFI24-.Ltext0
 3363 00e0 0200     		.2byte	0x2
 3364 00e2 7D       		.byte	0x7d
 3365 00e3 00       		.sleb128 0
 3366 00e4 B6020000 		.4byte	.LCFI24-.Ltext0
 3367 00e8 B8020000 		.4byte	.LCFI25-.Ltext0
 3368 00ec 0200     		.2byte	0x2
 3369 00ee 7D       		.byte	0x7d
 3370 00ef 10       		.sleb128 16
 3371 00f0 B8020000 		.4byte	.LCFI25-.Ltext0
 3372 00f4 BA020000 		.4byte	.LCFI26-.Ltext0
 3373 00f8 0200     		.2byte	0x2
 3374 00fa 7D       		.byte	0x7d
 3375 00fb 20       		.sleb128 32
 3376 00fc BA020000 		.4byte	.LCFI26-.Ltext0
 3377 0100 4C030000 		.4byte	.LCFI27-.Ltext0
 3378 0104 0200     		.2byte	0x2
 3379 0106 77       		.byte	0x77
ARM GAS  G:\Users\Jaxb\AppData\Local\Temp\ccdq8815.s 			page 71


 3380 0107 20       		.sleb128 32
 3381 0108 4C030000 		.4byte	.LCFI27-.Ltext0
 3382 010c 4E030000 		.4byte	.LCFI28-.Ltext0
 3383 0110 0200     		.2byte	0x2
 3384 0112 77       		.byte	0x77
 3385 0113 10       		.sleb128 16
 3386 0114 4E030000 		.4byte	.LCFI28-.Ltext0
 3387 0118 60030000 		.4byte	.LFE19-.Ltext0
 3388 011c 0200     		.2byte	0x2
 3389 011e 7D       		.byte	0x7d
 3390 011f 10       		.sleb128 16
 3391 0120 00000000 		.4byte	0
 3392 0124 00000000 		.4byte	0
 3393              	.LLST4:
 3394 0128 64010000 		.4byte	.LFB18-.Ltext0
 3395 012c 66010000 		.4byte	.LCFI19-.Ltext0
 3396 0130 0200     		.2byte	0x2
 3397 0132 7D       		.byte	0x7d
 3398 0133 00       		.sleb128 0
 3399 0134 66010000 		.4byte	.LCFI19-.Ltext0
 3400 0138 68010000 		.4byte	.LCFI20-.Ltext0
 3401 013c 0200     		.2byte	0x2
 3402 013e 7D       		.byte	0x7d
 3403 013f 08       		.sleb128 8
 3404 0140 68010000 		.4byte	.LCFI20-.Ltext0
 3405 0144 6A010000 		.4byte	.LCFI21-.Ltext0
 3406 0148 0200     		.2byte	0x2
 3407 014a 7D       		.byte	0x7d
 3408 014b 10       		.sleb128 16
 3409 014c 6A010000 		.4byte	.LCFI21-.Ltext0
 3410 0150 90020000 		.4byte	.LCFI22-.Ltext0
 3411 0154 0200     		.2byte	0x2
 3412 0156 77       		.byte	0x77
 3413 0157 10       		.sleb128 16
 3414 0158 90020000 		.4byte	.LCFI22-.Ltext0
 3415 015c 92020000 		.4byte	.LCFI23-.Ltext0
 3416 0160 0200     		.2byte	0x2
 3417 0162 77       		.byte	0x77
 3418 0163 08       		.sleb128 8
 3419 0164 92020000 		.4byte	.LCFI23-.Ltext0
 3420 0168 B4020000 		.4byte	.LFE18-.Ltext0
 3421 016c 0200     		.2byte	0x2
 3422 016e 7D       		.byte	0x7d
 3423 016f 08       		.sleb128 8
 3424 0170 00000000 		.4byte	0
 3425 0174 00000000 		.4byte	0
 3426              	.LLST3:
 3427 0178 00010000 		.4byte	.LFB17-.Ltext0
 3428 017c 02010000 		.4byte	.LCFI14-.Ltext0
 3429 0180 0200     		.2byte	0x2
 3430 0182 7D       		.byte	0x7d
 3431 0183 00       		.sleb128 0
 3432 0184 02010000 		.4byte	.LCFI14-.Ltext0
 3433 0188 04010000 		.4byte	.LCFI15-.Ltext0
 3434 018c 0200     		.2byte	0x2
 3435 018e 7D       		.byte	0x7d
 3436 018f 08       		.sleb128 8
ARM GAS  G:\Users\Jaxb\AppData\Local\Temp\ccdq8815.s 			page 72


 3437 0190 04010000 		.4byte	.LCFI15-.Ltext0
 3438 0194 06010000 		.4byte	.LCFI16-.Ltext0
 3439 0198 0200     		.2byte	0x2
 3440 019a 7D       		.byte	0x7d
 3441 019b 18       		.sleb128 24
 3442 019c 06010000 		.4byte	.LCFI16-.Ltext0
 3443 01a0 56010000 		.4byte	.LCFI17-.Ltext0
 3444 01a4 0200     		.2byte	0x2
 3445 01a6 77       		.byte	0x77
 3446 01a7 18       		.sleb128 24
 3447 01a8 56010000 		.4byte	.LCFI17-.Ltext0
 3448 01ac 58010000 		.4byte	.LCFI18-.Ltext0
 3449 01b0 0200     		.2byte	0x2
 3450 01b2 77       		.byte	0x77
 3451 01b3 08       		.sleb128 8
 3452 01b4 58010000 		.4byte	.LCFI18-.Ltext0
 3453 01b8 64010000 		.4byte	.LFE17-.Ltext0
 3454 01bc 0200     		.2byte	0x2
 3455 01be 7D       		.byte	0x7d
 3456 01bf 08       		.sleb128 8
 3457 01c0 00000000 		.4byte	0
 3458 01c4 00000000 		.4byte	0
 3459              	.LLST2:
 3460 01c8 A8000000 		.4byte	.LFB16-.Ltext0
 3461 01cc AA000000 		.4byte	.LCFI9-.Ltext0
 3462 01d0 0200     		.2byte	0x2
 3463 01d2 7D       		.byte	0x7d
 3464 01d3 00       		.sleb128 0
 3465 01d4 AA000000 		.4byte	.LCFI9-.Ltext0
 3466 01d8 AC000000 		.4byte	.LCFI10-.Ltext0
 3467 01dc 0200     		.2byte	0x2
 3468 01de 7D       		.byte	0x7d
 3469 01df 08       		.sleb128 8
 3470 01e0 AC000000 		.4byte	.LCFI10-.Ltext0
 3471 01e4 AE000000 		.4byte	.LCFI11-.Ltext0
 3472 01e8 0200     		.2byte	0x2
 3473 01ea 7D       		.byte	0x7d
 3474 01eb 18       		.sleb128 24
 3475 01ec AE000000 		.4byte	.LCFI11-.Ltext0
 3476 01f0 F0000000 		.4byte	.LCFI12-.Ltext0
 3477 01f4 0200     		.2byte	0x2
 3478 01f6 77       		.byte	0x77
 3479 01f7 18       		.sleb128 24
 3480 01f8 F0000000 		.4byte	.LCFI12-.Ltext0
 3481 01fc F2000000 		.4byte	.LCFI13-.Ltext0
 3482 0200 0200     		.2byte	0x2
 3483 0202 77       		.byte	0x77
 3484 0203 08       		.sleb128 8
 3485 0204 F2000000 		.4byte	.LCFI13-.Ltext0
 3486 0208 00010000 		.4byte	.LFE16-.Ltext0
 3487 020c 0200     		.2byte	0x2
 3488 020e 7D       		.byte	0x7d
 3489 020f 08       		.sleb128 8
 3490 0210 00000000 		.4byte	0
 3491 0214 00000000 		.4byte	0
 3492              	.LLST1:
 3493 0218 24000000 		.4byte	.LFB15-.Ltext0
ARM GAS  G:\Users\Jaxb\AppData\Local\Temp\ccdq8815.s 			page 73


 3494 021c 26000000 		.4byte	.LCFI4-.Ltext0
 3495 0220 0200     		.2byte	0x2
 3496 0222 7D       		.byte	0x7d
 3497 0223 00       		.sleb128 0
 3498 0224 26000000 		.4byte	.LCFI4-.Ltext0
 3499 0228 28000000 		.4byte	.LCFI5-.Ltext0
 3500 022c 0200     		.2byte	0x2
 3501 022e 7D       		.byte	0x7d
 3502 022f 0C       		.sleb128 12
 3503 0230 28000000 		.4byte	.LCFI5-.Ltext0
 3504 0234 2A000000 		.4byte	.LCFI6-.Ltext0
 3505 0238 0200     		.2byte	0x2
 3506 023a 7D       		.byte	0x7d
 3507 023b 20       		.sleb128 32
 3508 023c 2A000000 		.4byte	.LCFI6-.Ltext0
 3509 0240 90000000 		.4byte	.LCFI7-.Ltext0
 3510 0244 0200     		.2byte	0x2
 3511 0246 77       		.byte	0x77
 3512 0247 20       		.sleb128 32
 3513 0248 90000000 		.4byte	.LCFI7-.Ltext0
 3514 024c 92000000 		.4byte	.LCFI8-.Ltext0
 3515 0250 0200     		.2byte	0x2
 3516 0252 77       		.byte	0x77
 3517 0253 0C       		.sleb128 12
 3518 0254 92000000 		.4byte	.LCFI8-.Ltext0
 3519 0258 A8000000 		.4byte	.LFE15-.Ltext0
 3520 025c 0200     		.2byte	0x2
 3521 025e 7D       		.byte	0x7d
 3522 025f 0C       		.sleb128 12
 3523 0260 00000000 		.4byte	0
 3524 0264 00000000 		.4byte	0
 3525              	.LLST0:
 3526 0268 00000000 		.4byte	.LFB14-.Ltext0
 3527 026c 02000000 		.4byte	.LCFI0-.Ltext0
 3528 0270 0200     		.2byte	0x2
 3529 0272 7D       		.byte	0x7d
 3530 0273 00       		.sleb128 0
 3531 0274 02000000 		.4byte	.LCFI0-.Ltext0
 3532 0278 04000000 		.4byte	.LCFI1-.Ltext0
 3533 027c 0200     		.2byte	0x2
 3534 027e 7D       		.byte	0x7d
 3535 027f 04       		.sleb128 4
 3536 0280 04000000 		.4byte	.LCFI1-.Ltext0
 3537 0284 1A000000 		.4byte	.LCFI2-.Ltext0
 3538 0288 0200     		.2byte	0x2
 3539 028a 77       		.byte	0x77
 3540 028b 04       		.sleb128 4
 3541 028c 1A000000 		.4byte	.LCFI2-.Ltext0
 3542 0290 1C000000 		.4byte	.LCFI3-.Ltext0
 3543 0294 0200     		.2byte	0x2
 3544 0296 7D       		.byte	0x7d
 3545 0297 04       		.sleb128 4
 3546 0298 1C000000 		.4byte	.LCFI3-.Ltext0
 3547 029c 24000000 		.4byte	.LFE14-.Ltext0
 3548 02a0 0200     		.2byte	0x2
 3549 02a2 7D       		.byte	0x7d
 3550 02a3 00       		.sleb128 0
ARM GAS  G:\Users\Jaxb\AppData\Local\Temp\ccdq8815.s 			page 74


 3551 02a4 00000000 		.4byte	0
 3552 02a8 00000000 		.4byte	0
 3553              		.section	.debug_aranges,"",%progbits
 3554 0000 1C000000 		.4byte	0x1c
 3555 0004 0200     		.2byte	0x2
 3556 0006 00000000 		.4byte	.Ldebug_info0
 3557 000a 04       		.byte	0x4
 3558 000b 00       		.byte	0
 3559 000c 0000     		.2byte	0
 3560 000e 0000     		.2byte	0
 3561 0010 00000000 		.4byte	.Ltext0
 3562 0014 58070000 		.4byte	.Letext0-.Ltext0
 3563 0018 00000000 		.4byte	0
 3564 001c 00000000 		.4byte	0
 3565              		.section	.debug_line,"",%progbits
 3566              	.Ldebug_line0:
 3567 0000 65030000 		.section	.debug_str,"MS",%progbits,1
 3567      02005801 
 3567      00000201 
 3567      FB0E0D00 
 3567      01010101 
 3568              	.LASF39:
 3569 0000 73757370 		.ascii	"suspend_list\000"
 3569      656E645F 
 3569      6C697374 
 3569      00
 3570              	.LASF29:
 3571 000d 5441534B 		.ascii	"TASK_PRIO_TYPE\000"
 3571      5F505249 
 3571      4F5F5459 
 3571      504500
 3572              	.LASF72:
 3573 001c 4350555F 		.ascii	"CPU_INT32U\000"
 3573      494E5433 
 3573      325500
 3574              	.LASF16:
 3575 0027 70726576 		.ascii	"prev\000"
 3575      00
 3576              	.LASF63:
 3577 002c 7265736F 		.ascii	"resource_num\000"
 3577      75726365 
 3577      5F6E756D 
 3577      00
 3578              	.LASF43:
 3579 0039 61747472 		.ascii	"attribution\000"
 3579      69627574 
 3579      696F6E00 
 3580              	.LASF57:
 3581 0045 4D43425F 		.ascii	"MCB_WAIT_FLAG\000"
 3581      57414954 
 3581      5F464C41 
 3581      4700
 3582              	.LASF14:
 3583 0053 6C6F6E67 		.ascii	"long long unsigned int\000"
 3583      206C6F6E 
 3583      6720756E 
 3583      7369676E 
ARM GAS  G:\Users\Jaxb\AppData\Local\Temp\ccdq8815.s 			page 75


 3583      65642069 
 3584              	.LASF49:
 3585 006a 64617461 		.ascii	"data_list\000"
 3585      5F6C6973 
 3585      7400
 3586              	.LASF0:
 3587 0074 73696E67 		.ascii	"singly_list_head\000"
 3587      6C795F6C 
 3587      6973745F 
 3587      68656164 
 3587      00
 3588              	.LASF27:
 3589 0085 5441534B 		.ascii	"TASK_STATE\000"
 3589      5F535441 
 3589      544500
 3590              	.LASF2:
 3591 0090 6E657874 		.ascii	"next\000"
 3591      00
 3592              	.LASF46:
 3593 0095 696E7365 		.ascii	"insert_sort_data\000"
 3593      72745F73 
 3593      6F72745F 
 3593      64617461 
 3593      00
 3594              	.LASF30:
 3595 00a6 7461736B 		.ascii	"task_control_block_struct\000"
 3595      5F636F6E 
 3595      74726F6C 
 3595      5F626C6F 
 3595      636B5F73 
 3596              	.LASF9:
 3597 00c0 6C6F6E67 		.ascii	"long long int\000"
 3597      206C6F6E 
 3597      6720696E 
 3597      7400
 3598              	.LASF7:
 3599 00ce 7369676E 		.ascii	"signed char\000"
 3599      65642063 
 3599      68617200 
 3600              	.LASF35:
 3601 00da 72657365 		.ascii	"reserve_prio\000"
 3601      7276655F 
 3601      7072696F 
 3601      00
 3602              	.LASF60:
 3603 00e7 4D43425F 		.ascii	"MCB_FLAG_BINARY\000"
 3603      464C4147 
 3603      5F42494E 
 3603      41525900 
 3604              	.LASF74:
 3605 00f7 4D43425F 		.ascii	"MCB_for_shell\000"
 3605      666F725F 
 3605      7368656C 
 3605      6C00
 3606              	.LASF102:
 3607 0105 6370755F 		.ascii	"cpu_sr\000"
 3607      737200
ARM GAS  G:\Users\Jaxb\AppData\Local\Temp\ccdq8815.s 			page 76


 3608              	.LASF3:
 3609 010c 636F6D6D 		.ascii	"command_name\000"
 3609      616E645F 
 3609      6E616D65 
 3609      00
 3610              	.LASF38:
 3611 0119 73616D65 		.ascii	"same_prio_list\000"
 3611      5F707269 
 3611      6F5F6C69 
 3611      737400
 3612              	.LASF108:
 3613 0128 70726F63 		.ascii	"process\000"
 3613      65737300 
 3614              	.LASF51:
 3615 0130 64617461 		.ascii	"data_list_head\000"
 3615      5F6C6973 
 3615      745F6865 
 3615      616400
 3616              	.LASF62:
 3617 013f 4D43425F 		.ascii	"MCB_insert_sort_list\000"
 3617      696E7365 
 3617      72745F73 
 3617      6F72745F 
 3617      6C697374 
 3618              	.LASF69:
 3619 0154 62756666 		.ascii	"buffer_reserve\000"
 3619      65725F72 
 3619      65736572 
 3619      766500
 3620              	.LASF23:
 3621 0163 53544154 		.ascii	"STATE_WAIT_MESSAGE_QUEUE_TIMEOUT\000"
 3621      455F5741 
 3621      49545F4D 
 3621      45535341 
 3621      47455F51 
 3622              	.LASF24:
 3623 0184 53544154 		.ascii	"STATE_PUT_MESSAGE_QUEUE_FOREVER\000"
 3623      455F5055 
 3623      545F4D45 
 3623      53534147 
 3623      455F5155 
 3624              	.LASF6:
 3625 01a4 756E7369 		.ascii	"unsigned int\000"
 3625      676E6564 
 3625      20696E74 
 3625      00
 3626              	.LASF61:
 3627 01b1 6D657373 		.ascii	"message_struct\000"
 3627      6167655F 
 3627      73747275 
 3627      637400
 3628              	.LASF55:
 3629 01c0 76616C75 		.ascii	"value_cmp\000"
 3629      655F636D 
 3629      7000
 3630              	.LASF18:
 3631 01ca 53544154 		.ascii	"STATE_DELAY\000"
ARM GAS  G:\Users\Jaxb\AppData\Local\Temp\ccdq8815.s 			page 77


 3631      455F4445 
 3631      4C415900 
 3632              	.LASF1:
 3633 01d6 636F6D6D 		.ascii	"command\000"
 3633      616E6400 
 3634              	.LASF94:
 3635 01de 7265646F 		.ascii	"redo\000"
 3635      00
 3636              	.LASF40:
 3637 01e3 6E616D65 		.ascii	"name\000"
 3637      00
 3638              	.LASF79:
 3639 01e8 72657369 		.ascii	"resident_command_1\000"
 3639      64656E74 
 3639      5F636F6D 
 3639      6D616E64 
 3639      5F3100
 3640              	.LASF80:
 3641 01fb 72657369 		.ascii	"resident_command_2\000"
 3641      64656E74 
 3641      5F636F6D 
 3641      6D616E64 
 3641      5F3200
 3642              	.LASF81:
 3643 020e 72657369 		.ascii	"resident_command_3\000"
 3643      64656E74 
 3643      5F636F6D 
 3643      6D616E64 
 3643      5F3300
 3644              	.LASF82:
 3645 0221 72657369 		.ascii	"resident_command_4\000"
 3645      64656E74 
 3645      5F636F6D 
 3645      6D616E64 
 3645      5F3400
 3646              	.LASF83:
 3647 0234 72657369 		.ascii	"resident_command_5\000"
 3647      64656E74 
 3647      5F636F6D 
 3647      6D616E64 
 3647      5F3500
 3648              	.LASF84:
 3649 0247 72657369 		.ascii	"resident_command_6\000"
 3649      64656E74 
 3649      5F636F6D 
 3649      6D616E64 
 3649      5F3600
 3650              	.LASF11:
 3651 025a 73686F72 		.ascii	"short unsigned int\000"
 3651      7420756E 
 3651      7369676E 
 3651      65642069 
 3651      6E7400
 3652              	.LASF86:
 3653 026d 72657369 		.ascii	"resident_command_8\000"
 3653      64656E74 
 3653      5F636F6D 
ARM GAS  G:\Users\Jaxb\AppData\Local\Temp\ccdq8815.s 			page 78


 3653      6D616E64 
 3653      5F3800
 3654              	.LASF59:
 3655 0280 4D43425F 		.ascii	"MCB_FLAG_NON_BLOCKING\000"
 3655      464C4147 
 3655      5F4E4F4E 
 3655      5F424C4F 
 3655      434B494E 
 3656              	.LASF103:
 3657 0296 7368656C 		.ascii	"shell_buffer_wait_str\000"
 3657      6C5F6275 
 3657      66666572 
 3657      5F776169 
 3657      745F7374 
 3658              	.LASF92:
 3659 02ac 62756666 		.ascii	"buffer_ptr\000"
 3659      65725F70 
 3659      747200
 3660              	.LASF73:
 3661 02b7 4350555F 		.ascii	"CPU_SR\000"
 3661      535200
 3662              	.LASF52:
 3663 02be 64617461 		.ascii	"data_num\000"
 3663      5F6E756D 
 3663      00
 3664              	.LASF77:
 3665 02c7 6D61696E 		.ascii	"main_buffer_reserve\000"
 3665      5F627566 
 3665      6665725F 
 3665      72657365 
 3665      72766500 
 3666              	.LASF106:
 3667 02db 2E2E2F2E 		.ascii	"../../source/src/kernel/SHELL/shell.c\000"
 3667      2E2F736F 
 3667      75726365 
 3667      2F737263 
 3667      2F6B6572 
 3668              	.LASF56:
 3669 0301 5461736B 		.ascii	"Task_State\000"
 3669      5F537461 
 3669      746500
 3670              	.LASF109:
 3671 030c 636C6561 		.ascii	"clear_input_buffer\000"
 3671      725F696E 
 3671      7075745F 
 3671      62756666 
 3671      657200
 3672              	.LASF98:
 3673 031f 7368656C 		.ascii	"shell_buffer_ptr\000"
 3673      6C5F6275 
 3673      66666572 
 3673      5F707472 
 3673      00
 3674              	.LASF100:
 3675 0330 5F5F696E 		.ascii	"__init_shell_buffer\000"
 3675      69745F73 
 3675      68656C6C 
ARM GAS  G:\Users\Jaxb\AppData\Local\Temp\ccdq8815.s 			page 79


 3675      5F627566 
 3675      66657200 
 3676              	.LASF99:
 3677 0344 62756666 		.ascii	"buffer_reserve_ptr\000"
 3677      65725F72 
 3677      65736572 
 3677      76655F70 
 3677      747200
 3678              	.LASF67:
 3679 0357 61726776 		.ascii	"argv_reserve\000"
 3679      5F726573 
 3679      65727665 
 3679      00
 3680              	.LASF58:
 3681 0364 4D43425F 		.ascii	"MCB_FLAG_WAIT\000"
 3681      464C4147 
 3681      5F574149 
 3681      5400
 3682              	.LASF17:
 3683 0372 53544154 		.ascii	"STATE_READY\000"
 3683      455F5245 
 3683      41445900 
 3684              	.LASF48:
 3685 037e 6964656E 		.ascii	"identify_data\000"
 3685      74696679 
 3685      5F646174 
 3685      6100
 3686              	.LASF12:
 3687 038c 55494E54 		.ascii	"UINT32\000"
 3687      333200
 3688              	.LASF45:
 3689 0393 69645F74 		.ascii	"id_type\000"
 3689      79706500 
 3690              	.LASF53:
 3691 039b 636F6D70 		.ascii	"compare\000"
 3691      61726500 
 3692              	.LASF42:
 3693 03a3 74696D65 		.ascii	"timeslice_rest_time\000"
 3693      736C6963 
 3693      655F7265 
 3693      73745F74 
 3693      696D6500 
 3694              	.LASF34:
 3695 03b7 7072696F 		.ascii	"prio\000"
 3695      00
 3696              	.LASF20:
 3697 03bc 53544154 		.ascii	"STATE_WAIT_MCB_FOREVER\000"
 3697      455F5741 
 3697      49545F4D 
 3697      43425F46 
 3697      4F524556 
 3698              	.LASF33:
 3699 03d3 73746163 		.ascii	"stack_end\000"
 3699      6B5F656E 
 3699      6400
 3700              	.LASF89:
 3701 03dd 6572726F 		.ascii	"error\000"
ARM GAS  G:\Users\Jaxb\AppData\Local\Temp\ccdq8815.s 			page 80


 3701      7200
 3702              	.LASF26:
 3703 03e3 53544154 		.ascii	"STATE_WAIT_MUTEX_FOREVER\000"
 3703      455F5741 
 3703      49545F4D 
 3703      55544558 
 3703      5F464F52 
 3704              	.LASF88:
 3705 03fc 5443425F 		.ascii	"TCB_count_init\000"
 3705      636F756E 
 3705      745F696E 
 3705      697400
 3706              	.LASF105:
 3707 040b 474E5520 		.ascii	"GNU C11 7.3.1 20180622 (release) [ARM/embedded-7-br"
 3707      43313120 
 3707      372E332E 
 3707      31203230 
 3707      31383036 
 3708 043e 616E6368 		.ascii	"anch revision 261907] -mcpu=cortex-m3 -mthumb -mapc"
 3708      20726576 
 3708      6973696F 
 3708      6E203236 
 3708      31393037 
 3709 0471 732D6672 		.ascii	"s-frame -mthumb-interwork -mcpu=cortex-m3 -mthumb -"
 3709      616D6520 
 3709      2D6D7468 
 3709      756D622D 
 3709      696E7465 
 3710 04a4 67647761 		.ascii	"gdwarf-2 -O0\000"
 3710      72662D32 
 3710      202D4F30 
 3710      00
 3711              	.LASF87:
 3712 04b1 675F696E 		.ascii	"g_interrupt_count\000"
 3712      74657272 
 3712      7570745F 
 3712      636F756E 
 3712      7400
 3713              	.LASF10:
 3714 04c3 756E7369 		.ascii	"unsigned char\000"
 3714      676E6564 
 3714      20636861 
 3714      7200
 3715              	.LASF54:
 3716 04d1 6765745F 		.ascii	"get_data_ptr\000"
 3716      64617461 
 3716      5F707472 
 3716      00
 3717              	.LASF8:
 3718 04de 73686F72 		.ascii	"short int\000"
 3718      7420696E 
 3718      7400
 3719              	.LASF85:
 3720 04e8 72657369 		.ascii	"resident_command_7\000"
 3720      64656E74 
 3720      5F636F6D 
 3720      6D616E64 
ARM GAS  G:\Users\Jaxb\AppData\Local\Temp\ccdq8815.s 			page 81


 3720      5F3700
 3721              	.LASF41:
 3722 04fb 74696D65 		.ascii	"timeslice_hope_time\000"
 3722      736C6963 
 3722      655F686F 
 3722      70655F74 
 3722      696D6500 
 3723              	.LASF64:
 3724 050f 666C6167 		.ascii	"flag\000"
 3724      00
 3725              	.LASF25:
 3726 0514 53544154 		.ascii	"STATE_PUT_MESSAGE_QUEUE_TIMEOUT\000"
 3726      455F5055 
 3726      545F4D45 
 3726      53534147 
 3726      455F5155 
 3727              	.LASF50:
 3728 0534 696E7365 		.ascii	"insert_sort_entity\000"
 3728      72745F73 
 3728      6F72745F 
 3728      656E7469 
 3728      747900
 3729              	.LASF97:
 3730 0547 7075745F 		.ascii	"put_in_shell_buffer\000"
 3730      696E5F73 
 3730      68656C6C 
 3730      5F627566 
 3730      66657200 
 3731              	.LASF65:
 3732 055b 7368656C 		.ascii	"shell_buffer\000"
 3732      6C5F6275 
 3732      66666572 
 3732      00
 3733              	.LASF96:
 3734 0568 7368656C 		.ascii	"shell\000"
 3734      6C00
 3735              	.LASF5:
 3736 056e 63686172 		.ascii	"char\000"
 3736      00
 3737              	.LASF15:
 3738 0573 6C697374 		.ascii	"list_head\000"
 3738      5F686561 
 3738      6400
 3739              	.LASF70:
 3740 057d 696E6465 		.ascii	"index\000"
 3740      7800
 3741              	.LASF76:
 3742 0583 6D61696E 		.ascii	"main_buffer\000"
 3742      5F627566 
 3742      66657200 
 3743              	.LASF68:
 3744 058f 62756666 		.ascii	"buffer\000"
 3744      657200
 3745              	.LASF44:
 3746 0596 64656C61 		.ascii	"delay_reach_time\000"
 3746      795F7265 
 3746      6163685F 
ARM GAS  G:\Users\Jaxb\AppData\Local\Temp\ccdq8815.s 			page 82


 3746      74696D65 
 3746      00
 3747              	.LASF91:
 3748 05a7 70617261 		.ascii	"para\000"
 3748      00
 3749              	.LASF28:
 3750 05ac 53544143 		.ascii	"STACK_TYPE\000"
 3750      4B5F5459 
 3750      504500
 3751              	.LASF36:
 3752 05b7 7461736B 		.ascii	"task_state\000"
 3752      5F737461 
 3752      746500
 3753              	.LASF78:
 3754 05c2 7573696E 		.ascii	"using_shell_buffer_ptr\000"
 3754      675F7368 
 3754      656C6C5F 
 3754      62756666 
 3754      65725F70 
 3755              	.LASF101:
 3756 05d9 6368616E 		.ascii	"change_shell_buffer\000"
 3756      67655F73 
 3756      68656C6C 
 3756      5F627566 
 3756      66657200 
 3757              	.LASF19:
 3758 05ed 53544154 		.ascii	"STATE_SUSPEND_NORMAL\000"
 3758      455F5355 
 3758      5350454E 
 3758      445F4E4F 
 3758      524D414C 
 3759              	.LASF104:
 3760 0602 7374725F 		.ascii	"str_ptr\000"
 3760      70747200 
 3761              	.LASF107:
 3762 060a 463A5C6B 		.ascii	"F:\\kaka\\KAKAOS\\C\\windows\\Project\\RVMDK\243\250"
 3762      616B615C 
 3762      4B414B41 
 3762      4F535C43 
 3762      5C77696E 
 3763 0632 757635A3 		.ascii	"uv5\243\251\000"
 3763      A900
 3764              	.LASF22:
 3765 0638 53544154 		.ascii	"STATE_WAIT_MESSAGE_QUEUE_FOREVER\000"
 3765      455F5741 
 3765      49545F4D 
 3765      45535341 
 3765      47455F51 
 3766              	.LASF32:
 3767 0659 73746163 		.ascii	"stack_size\000"
 3767      6B5F7369 
 3767      7A6500
 3768              	.LASF13:
 3769 0664 55494E54 		.ascii	"UINT64\000"
 3769      363400
 3770              	.LASF95:
 3771 066b 61726763 		.ascii	"argc\000"
ARM GAS  G:\Users\Jaxb\AppData\Local\Temp\ccdq8815.s 			page 83


 3771      00
 3772              	.LASF47:
 3773 0670 64617461 		.ascii	"data_ptr\000"
 3773      5F707472 
 3773      00
 3774              	.LASF93:
 3775 0679 7368656C 		.ascii	"shell_init\000"
 3775      6C5F696E 
 3775      697400
 3776              	.LASF4:
 3777 0684 6C697374 		.ascii	"list\000"
 3777      00
 3778              	.LASF31:
 3779 0689 73746163 		.ascii	"stack\000"
 3779      6B00
 3780              	.LASF66:
 3781 068f 61726776 		.ascii	"argv\000"
 3781      00
 3782              	.LASF21:
 3783 0694 53544154 		.ascii	"STATE_WAIT_MCB_TIMEOUT\000"
 3783      455F5741 
 3783      49545F4D 
 3783      43425F54 
 3783      494D454F 
 3784              	.LASF90:
 3785 06ab 72657375 		.ascii	"result\000"
 3785      6C7400
 3786              	.LASF75:
 3787 06b2 6D61696E 		.ascii	"main_shell_buffer\000"
 3787      5F736865 
 3787      6C6C5F62 
 3787      75666665 
 3787      7200
 3788              	.LASF37:
 3789 06c4 64656C61 		.ascii	"delay_heap_position\000"
 3789      795F6865 
 3789      61705F70 
 3789      6F736974 
 3789      696F6E00 
 3790              	.LASF71:
 3791 06d8 696E6465 		.ascii	"index_reserve\000"
 3791      785F7265 
 3791      73657276 
 3791      6500
 3792              		.ident	"GCC: (GNU Tools for Arm Embedded Processors 7-2018-q2-update) 7.3.1 20180622 (release) [AR
ARM GAS  G:\Users\Jaxb\AppData\Local\Temp\ccdq8815.s 			page 84


DEFINED SYMBOLS
                            *ABS*:00000000 shell.c
G:\Users\Jaxb\AppData\Local\Temp\ccdq8815.s:16     .bss:00000000 $d
G:\Users\Jaxb\AppData\Local\Temp\ccdq8815.s:17     .bss:00000000 MCB_for_shell
G:\Users\Jaxb\AppData\Local\Temp\ccdq8815.s:21     .bss:00000020 main_shell_buffer
G:\Users\Jaxb\AppData\Local\Temp\ccdq8815.s:25     .bss:00000080 main_buffer
G:\Users\Jaxb\AppData\Local\Temp\ccdq8815.s:29     .bss:000000e4 main_buffer_reserve
G:\Users\Jaxb\AppData\Local\Temp\ccdq8815.s:33     .bss:00000148 using_shell_buffer_ptr
G:\Users\Jaxb\AppData\Local\Temp\ccdq8815.s:37     .text:00000000 $t
G:\Users\Jaxb\AppData\Local\Temp\ccdq8815.s:43     .text:00000000 clear_input_buffer
G:\Users\Jaxb\AppData\Local\Temp\ccdq8815.s:83     .text:00000020 $d
G:\Users\Jaxb\AppData\Local\Temp\ccdq8815.s:88     .rodata:00000000 $d
G:\Users\Jaxb\AppData\Local\Temp\ccdq8815.s:99     .text:00000024 $t
G:\Users\Jaxb\AppData\Local\Temp\ccdq8815.s:106    .text:00000024 shell_buffer_wait_str
G:\Users\Jaxb\AppData\Local\Temp\ccdq8815.s:196    .text:00000094 $d
G:\Users\Jaxb\AppData\Local\Temp\ccdq8815.s:210    .text:000000a8 $t
G:\Users\Jaxb\AppData\Local\Temp\ccdq8815.s:217    .text:000000a8 change_shell_buffer
G:\Users\Jaxb\AppData\Local\Temp\ccdq8815.s:288    .text:000000f4 $d
G:\Users\Jaxb\AppData\Local\Temp\ccdq8815.s:300    .text:00000100 $t
G:\Users\Jaxb\AppData\Local\Temp\ccdq8815.s:307    .text:00000100 __init_shell_buffer
G:\Users\Jaxb\AppData\Local\Temp\ccdq8815.s:389    .text:0000015c $d
G:\Users\Jaxb\AppData\Local\Temp\ccdq8815.s:410    .text:00000164 $t
G:\Users\Jaxb\AppData\Local\Temp\ccdq8815.s:417    .text:00000164 put_in_shell_buffer
G:\Users\Jaxb\AppData\Local\Temp\ccdq8815.s:633    .text:00000294 $d
G:\Users\Jaxb\AppData\Local\Temp\ccdq8815.s:652    .text:000002b4 $t
G:\Users\Jaxb\AppData\Local\Temp\ccdq8815.s:658    .text:000002b4 redo
G:\Users\Jaxb\AppData\Local\Temp\ccdq8815.s:773    .text:00000350 $d
G:\Users\Jaxb\AppData\Local\Temp\ccdq8815.s:785    .data:00000000 $d
G:\Users\Jaxb\AppData\Local\Temp\ccdq8815.s:788    .data:00000000 resident_command_1
G:\Users\Jaxb\AppData\Local\Temp\ccdq8815.s:803    .data:0000000c resident_command_2
G:\Users\Jaxb\AppData\Local\Temp\ccdq8815.s:824    .data:00000024 resident_command_3
G:\Users\Jaxb\AppData\Local\Temp\ccdq8815.s:860    .data:00000048 resident_command_4
G:\Users\Jaxb\AppData\Local\Temp\ccdq8815.s:899    .data:0000009c resident_command_5
G:\Users\Jaxb\AppData\Local\Temp\ccdq8815.s:923    .data:000000cc resident_command_6
G:\Users\Jaxb\AppData\Local\Temp\ccdq8815.s:947    .data:000000e4 resident_command_7
G:\Users\Jaxb\AppData\Local\Temp\ccdq8815.s:968    .data:00000114 resident_command_8
G:\Users\Jaxb\AppData\Local\Temp\ccdq8815.s:973    .text:00000360 $t
G:\Users\Jaxb\AppData\Local\Temp\ccdq8815.s:979    .text:00000360 shell_init
G:\Users\Jaxb\AppData\Local\Temp\ccdq8815.s:1245   .text:000004f0 $d
G:\Users\Jaxb\AppData\Local\Temp\ccdq8815.s:1267   .text:00000528 $t
G:\Users\Jaxb\AppData\Local\Temp\ccdq8815.s:1273   .text:00000528 process
G:\Users\Jaxb\AppData\Local\Temp\ccdq8815.s:1461   .text:00000620 $d
G:\Users\Jaxb\AppData\Local\Temp\ccdq8815.s:1486   .text:00000628 $t
G:\Users\Jaxb\AppData\Local\Temp\ccdq8815.s:1493   .text:00000628 shell
G:\Users\Jaxb\AppData\Local\Temp\ccdq8815.s:1656   .text:0000072c $d

UNDEFINED SYMBOLS
_ASSERT
ka_printf
p
ka_strlen
ka_strncmp
CPU_SR_Save
CPU_SR_Restore
__aeabi_ui2d
__aeabi_dcmplt
ka_putchar
ARM GAS  G:\Users\Jaxb\AppData\Local\Temp\ccdq8815.s 			page 85


v
ka_puts
get_command_processer
match_and_execute_command
test
shell_memory
shell_debug_run
shell_set
shell_TCB_check
shell_time
shell_check_kmem
shell_check_slab
shell_debug_next
shell_debug_stop
shell_echo
shell_addr
shell_stack_check
shell_clear
shell_buddy_debug
shell_sleep
shell_reboot
shell_module
shell_version
shell_debug_info
shell_symbol_list_display
shell_show_tasks_registers
shell_shutdown
__init_command_n_ptr_hash_array
insert_struct_command_1
insert_struct_command_2
insert_struct_command_3
insert_struct_command_4
insert_struct_command_5
insert_struct_command_6
insert_struct_command_7
insert_struct_command_8
init_MCB
task_delete
ka_memcpy
TCB_count_init
