ARM GAS  G:\Users\Jaxb\AppData\Local\Temp\ccN55nbM.s 			page 1


   1              		.cpu cortex-m3
   2              		.eabi_attribute 20, 1
   3              		.eabi_attribute 21, 1
   4              		.eabi_attribute 23, 3
   5              		.eabi_attribute 24, 1
   6              		.eabi_attribute 25, 1
   7              		.eabi_attribute 26, 1
   8              		.eabi_attribute 30, 2
   9              		.eabi_attribute 34, 1
  10              		.eabi_attribute 18, 4
  11              		.file	"shell_debug.c"
  12              		.text
  13              	.Ltext0:
  14              		.cfi_sections	.debug_frame
  15              		.align	1
  16              		.p2align 2,,3
  17              		.global	__init_shell_debug
  18              		.syntax unified
  19              		.thumb
  20              		.thumb_func
  21              		.fpu softvfp
  22              		.type	__init_shell_debug, %function
  23              	__init_shell_debug:
  24              	.LFB14:
  25              		.file 1 "../../source/src/user/shell/shell_debug.c"
   1:../../source/src/user/shell/shell_debug.c **** #include <shell_debug.h>
   2:../../source/src/user/shell/shell_debug.c **** #include <MCB.h>
   3:../../source/src/user/shell/shell_debug.c **** #include <myassert.h>
   4:../../source/src/user/shell/shell_debug.c **** #include <myMicroLIB.h>
   5:../../source/src/user/shell/shell_debug.c **** #include <kakaosstdint.h>
   6:../../source/src/user/shell/shell_debug.c **** 
   7:../../source/src/user/shell/shell_debug.c **** #if CONFIG_SHELL_DEBUG_EN && CONFIG_SHELL_EN
   8:../../source/src/user/shell/shell_debug.c **** 
   9:../../source/src/user/shell/shell_debug.c **** static MCB MCB_for_shell_debug;
  10:../../source/src/user/shell/shell_debug.c **** static int flag_for_shell_debug = 1;
  11:../../source/src/user/shell/shell_debug.c **** 
  12:../../source/src/user/shell/shell_debug.c **** static void __init_shell_variable_array(void);
  13:../../source/src/user/shell/shell_debug.c **** 
  14:../../source/src/user/shell/shell_debug.c **** inline void __init_shell_debug(void)
  15:../../source/src/user/shell/shell_debug.c **** {
  26              		.loc 1 15 0
  27              		.cfi_startproc
  28              		@ args = 0, pretend = 0, frame = 0
  29              		@ frame_needed = 0, uses_anonymous_args = 0
  30 0000 38B5     		push	{r3, r4, r5, lr}
  31              	.LCFI0:
  32              		.cfi_def_cfa_offset 16
  33              		.cfi_offset 3, -16
  34              		.cfi_offset 4, -12
  35              		.cfi_offset 5, -8
  36              		.cfi_offset 14, -4
  16:../../source/src/user/shell/shell_debug.c **** #if CONFIG_ASSERT_DEBUG
  17:../../source/src/user/shell/shell_debug.c **** 	int error;
  18:../../source/src/user/shell/shell_debug.c **** 	error = init_MCB(&MCB_for_shell_debug,0,MCB_TYPE_FLAG_BINARY);
  37              		.loc 1 18 0
  38 0002 0122     		movs	r2, #1
  39 0004 0021     		movs	r1, #0
ARM GAS  G:\Users\Jaxb\AppData\Local\Temp\ccN55nbM.s 			page 2


  40 0006 1148     		ldr	r0, .L8
  41 0008 FFF7FEFF 		bl	init_MCB
  42              	.LVL0:
  19:../../source/src/user/shell/shell_debug.c **** #else
  20:../../source/src/user/shell/shell_debug.c **** 	init_MCB(&MCB_for_shell_debug,0,MCB_TYPE_FLAG_BINARY);
  21:../../source/src/user/shell/shell_debug.c **** #endif
  22:../../source/src/user/shell/shell_debug.c **** 	ASSERT(FUN_EXECUTE_SUCCESSFULLY == error);
  43              		.loc 1 22 0
  44 000c C8B9     		cbnz	r0, .L7
  45              	.LVL1:
  46              	.L2:
  47              	.LBB18:
  48              	.LBB19:
  49              	.LBB20:
  50              	.LBB21:
  51              		.file 2 "../../source/include/os_lib/singly_linked_list.h"
   1:../../source/include/os_lib/singly_linked_list.h **** #ifndef _SINGLY_LINKED_LIST_H
   2:../../source/include/os_lib/singly_linked_list.h **** #define _SINGLY_LINKED_LIST_H
   3:../../source/include/os_lib/singly_linked_list.h **** 
   4:../../source/include/os_lib/singly_linked_list.h **** struct singly_list_head{
   5:../../source/include/os_lib/singly_linked_list.h **** 	struct singly_list_head *next;
   6:../../source/include/os_lib/singly_linked_list.h **** };
   7:../../source/include/os_lib/singly_linked_list.h **** 
   8:../../source/include/os_lib/singly_linked_list.h **** #define SINGLY_LIST_HEAD_INIT(name) { &(name) }
   9:../../source/include/os_lib/singly_linked_list.h **** 
  10:../../source/include/os_lib/singly_linked_list.h **** #define SINGLY_LIST_HEAD(name) \
  11:../../source/include/os_lib/singly_linked_list.h ****     struct singly_list_head name = SINGLY_LIST_HEAD_INIT(name)
  12:../../source/include/os_lib/singly_linked_list.h **** 
  13:../../source/include/os_lib/singly_linked_list.h **** static inline void INIT_SINGLY_LIST_HEAD(struct singly_list_head *list)
  14:../../source/include/os_lib/singly_linked_list.h **** {
  15:../../source/include/os_lib/singly_linked_list.h **** 	list->next = list;
  52              		.loc 2 15 0
  53 000e 0F4B     		ldr	r3, .L8
  54 0010 03F12000 		add	r0, r3, #32
  55 0014 03F12401 		add	r1, r3, #36
  56 0018 03F12802 		add	r2, r3, #40
  57 001c 03F12C05 		add	r5, r3, #44
  58 0020 03F13004 		add	r4, r3, #48
  59 0024 1862     		str	r0, [r3, #32]
  60              	.LVL2:
  61 0026 5962     		str	r1, [r3, #36]
  62              	.LVL3:
  63 0028 03F13400 		add	r0, r3, #52
  64 002c 03F13801 		add	r1, r3, #56
  65 0030 9A62     		str	r2, [r3, #40]
  66              	.LVL4:
  67 0032 03F13C02 		add	r2, r3, #60
  68 0036 C3E90B54 		strd	r5, r4, [r3, #44]
  69              	.LVL5:
  70 003a C3E90D01 		strd	r0, r1, [r3, #52]
  71              	.LVL6:
  72 003e DA63     		str	r2, [r3, #60]
  73              	.LVL7:
  74              	.LBE21:
  75              	.LBE20:
  76              	.LBE19:
  77              	.LBE18:
ARM GAS  G:\Users\Jaxb\AppData\Local\Temp\ccN55nbM.s 			page 3


  23:../../source/src/user/shell/shell_debug.c **** 	__init_shell_variable_array();
  24:../../source/src/user/shell/shell_debug.c **** }
  78              		.loc 1 24 0
  79 0040 38BD     		pop	{r3, r4, r5, pc}
  80              	.LVL8:
  81              	.L7:
  22:../../source/src/user/shell/shell_debug.c **** 	__init_shell_variable_array();
  82              		.loc 1 22 0 discriminator 1
  83 0042 1621     		movs	r1, #22
  84 0044 0248     		ldr	r0, .L8+4
  85              	.LVL9:
  86 0046 FFF7FEFF 		bl	_ASSERT
  87              	.LVL10:
  88 004a E0E7     		b	.L2
  89              	.L9:
  90              		.align	2
  91              	.L8:
  92 004c 00000000 		.word	.LANCHOR0
  93 0050 00000000 		.word	.LC0
  94              		.cfi_endproc
  95              	.LFE14:
  96              		.size	__init_shell_debug, .-__init_shell_debug
  97              		.align	1
  98              		.p2align 2,,3
  99              		.global	insert_break_point
 100              		.syntax unified
 101              		.thumb
 102              		.thumb_func
 103              		.fpu softvfp
 104              		.type	insert_break_point, %function
 105              	insert_break_point:
 106              	.LFB15:
  25:../../source/src/user/shell/shell_debug.c **** 
  26:../../source/src/user/shell/shell_debug.c **** void insert_break_point(char* file_name,unsigned line,const char* function_name)
  27:../../source/src/user/shell/shell_debug.c **** {
 107              		.loc 1 27 0
 108              		.cfi_startproc
 109              		@ args = 0, pretend = 0, frame = 0
 110              		@ frame_needed = 0, uses_anonymous_args = 0
 111              	.LVL11:
  28:../../source/src/user/shell/shell_debug.c **** #if CONFIG_ASSERT_DEBUG
  29:../../source/src/user/shell/shell_debug.c **** 	int error;
  30:../../source/src/user/shell/shell_debug.c **** #endif
  31:../../source/src/user/shell/shell_debug.c **** 	if(flag_for_shell_debug)
 112              		.loc 1 31 0
 113 0054 0D4B     		ldr	r3, .L18
  27:../../source/src/user/shell/shell_debug.c **** #if CONFIG_ASSERT_DEBUG
 114              		.loc 1 27 0
 115 0056 10B5     		push	{r4, lr}
 116              	.LCFI1:
 117              		.cfi_def_cfa_offset 8
 118              		.cfi_offset 4, -8
 119              		.cfi_offset 14, -4
 120              		.loc 1 31 0
 121 0058 1C68     		ldr	r4, [r3]
 122 005a 04B9     		cbnz	r4, .L17
 123              	.LVL12:
ARM GAS  G:\Users\Jaxb\AppData\Local\Temp\ccN55nbM.s 			page 4


 124              	.L10:
  32:../../source/src/user/shell/shell_debug.c **** 	{
  33:../../source/src/user/shell/shell_debug.c **** 		ka_printf("program stop,now going to file: %s,line %u,function name is %s\n",file_name,line,funct
  34:../../source/src/user/shell/shell_debug.c **** 		ka_printf("%s","kaka_os>>");
  35:../../source/src/user/shell/shell_debug.c **** #if CONFIG_ASSERT_DEBUG
  36:../../source/src/user/shell/shell_debug.c **** 		error = p(&MCB_for_shell_debug,MCB_FLAG_WAIT,0);
  37:../../source/src/user/shell/shell_debug.c **** #else
  38:../../source/src/user/shell/shell_debug.c **** 		p(&MCB_for_shell_debug,MCB_FLAG_WAIT,0);
  39:../../source/src/user/shell/shell_debug.c **** #endif
  40:../../source/src/user/shell/shell_debug.c **** 		ASSERT(FUN_EXECUTE_SUCCESSFULLY == error);
  41:../../source/src/user/shell/shell_debug.c **** 	}
  42:../../source/src/user/shell/shell_debug.c **** }
 125              		.loc 1 42 0
 126 005c 10BD     		pop	{r4, pc}
 127              	.LVL13:
 128              	.L17:
  33:../../source/src/user/shell/shell_debug.c **** 		ka_printf("%s","kaka_os>>");
 129              		.loc 1 33 0
 130 005e 1346     		mov	r3, r2
 131 0060 0A46     		mov	r2, r1
 132              	.LVL14:
 133 0062 0146     		mov	r1, r0
 134              	.LVL15:
 135 0064 0A48     		ldr	r0, .L18+4
 136              	.LVL16:
 137 0066 FFF7FEFF 		bl	ka_printf
 138              	.LVL17:
  34:../../source/src/user/shell/shell_debug.c **** #if CONFIG_ASSERT_DEBUG
 139              		.loc 1 34 0
 140 006a 0A49     		ldr	r1, .L18+8
 141 006c 0A48     		ldr	r0, .L18+12
 142 006e FFF7FEFF 		bl	ka_printf
 143              	.LVL18:
  36:../../source/src/user/shell/shell_debug.c **** #else
 144              		.loc 1 36 0
 145 0072 0022     		movs	r2, #0
 146 0074 0948     		ldr	r0, .L18+16
 147 0076 1146     		mov	r1, r2
 148 0078 FFF7FEFF 		bl	p
 149              	.LVL19:
  40:../../source/src/user/shell/shell_debug.c **** 	}
 150              		.loc 1 40 0
 151 007c 0028     		cmp	r0, #0
 152 007e EDD0     		beq	.L10
 153              		.loc 1 42 0 discriminator 1
 154 0080 BDE81040 		pop	{r4, lr}
 155              	.LCFI2:
 156              		.cfi_restore 14
 157              		.cfi_restore 4
 158              		.cfi_def_cfa_offset 0
  40:../../source/src/user/shell/shell_debug.c **** 	}
 159              		.loc 1 40 0 discriminator 1
 160 0084 2821     		movs	r1, #40
 161 0086 0648     		ldr	r0, .L18+20
 162              	.LVL20:
 163 0088 FFF7FEBF 		b	_ASSERT
 164              	.LVL21:
ARM GAS  G:\Users\Jaxb\AppData\Local\Temp\ccN55nbM.s 			page 5


 165              	.L19:
 166              		.align	2
 167              	.L18:
 168 008c 00000000 		.word	.LANCHOR1
 169 0090 2C000000 		.word	.LC1
 170 0094 6C000000 		.word	.LC2
 171 0098 78000000 		.word	.LC3
 172 009c 00000000 		.word	.LANCHOR0
 173 00a0 00000000 		.word	.LC0
 174              		.cfi_endproc
 175              	.LFE15:
 176              		.size	insert_break_point, .-insert_break_point
 177              		.align	1
 178              		.p2align 2,,3
 179              		.global	shell_debug_next
 180              		.syntax unified
 181              		.thumb
 182              		.thumb_func
 183              		.fpu softvfp
 184              		.type	shell_debug_next, %function
 185              	shell_debug_next:
 186              	.LFB16:
  43:../../source/src/user/shell/shell_debug.c **** 
  44:../../source/src/user/shell/shell_debug.c **** inline void shell_debug_next(int argc, char const *argv[])
  45:../../source/src/user/shell/shell_debug.c **** {
 187              		.loc 1 45 0
 188              		.cfi_startproc
 189              		@ args = 0, pretend = 0, frame = 0
 190              		@ frame_needed = 0, uses_anonymous_args = 0
 191              		@ link register save eliminated.
 192              	.LVL22:
  46:../../source/src/user/shell/shell_debug.c **** 	(void)argc;
  47:../../source/src/user/shell/shell_debug.c **** 	(void)argv;
  48:../../source/src/user/shell/shell_debug.c **** 	v(&MCB_for_shell_debug);
 193              		.loc 1 48 0
 194 00a4 0148     		ldr	r0, .L21
 195              	.LVL23:
 196 00a6 FFF7FEBF 		b	v
 197              	.LVL24:
 198              	.L22:
 199 00aa 00BF     		.align	2
 200              	.L21:
 201 00ac 00000000 		.word	.LANCHOR0
 202              		.cfi_endproc
 203              	.LFE16:
 204              		.size	shell_debug_next, .-shell_debug_next
 205              		.align	1
 206              		.p2align 2,,3
 207              		.global	shell_debug_run
 208              		.syntax unified
 209              		.thumb
 210              		.thumb_func
 211              		.fpu softvfp
 212              		.type	shell_debug_run, %function
 213              	shell_debug_run:
 214              	.LFB17:
  49:../../source/src/user/shell/shell_debug.c **** }
ARM GAS  G:\Users\Jaxb\AppData\Local\Temp\ccN55nbM.s 			page 6


  50:../../source/src/user/shell/shell_debug.c **** 
  51:../../source/src/user/shell/shell_debug.c **** inline void shell_debug_run(int argc, char const *argv[])
  52:../../source/src/user/shell/shell_debug.c **** {
 215              		.loc 1 52 0
 216              		.cfi_startproc
 217              		@ args = 0, pretend = 0, frame = 0
 218              		@ frame_needed = 0, uses_anonymous_args = 0
 219              	.LVL25:
 220 00b0 08B5     		push	{r3, lr}
 221              	.LCFI3:
 222              		.cfi_def_cfa_offset 8
 223              		.cfi_offset 3, -8
 224              		.cfi_offset 14, -4
  53:../../source/src/user/shell/shell_debug.c **** 	(void)argc;
  54:../../source/src/user/shell/shell_debug.c **** 	(void)argv;
  55:../../source/src/user/shell/shell_debug.c **** 	v(&MCB_for_shell_debug);
 225              		.loc 1 55 0
 226 00b2 0348     		ldr	r0, .L24
 227              	.LVL26:
 228 00b4 FFF7FEFF 		bl	v
 229              	.LVL27:
  56:../../source/src/user/shell/shell_debug.c **** 	flag_for_shell_debug = 0;
 230              		.loc 1 56 0
 231 00b8 0022     		movs	r2, #0
 232 00ba 024B     		ldr	r3, .L24+4
 233 00bc 1A60     		str	r2, [r3]
  57:../../source/src/user/shell/shell_debug.c **** }
 234              		.loc 1 57 0
 235 00be 08BD     		pop	{r3, pc}
 236              	.L25:
 237              		.align	2
 238              	.L24:
 239 00c0 00000000 		.word	.LANCHOR0
 240 00c4 00000000 		.word	.LANCHOR1
 241              		.cfi_endproc
 242              	.LFE17:
 243              		.size	shell_debug_run, .-shell_debug_run
 244              		.align	1
 245              		.p2align 2,,3
 246              		.global	shell_debug_stop
 247              		.syntax unified
 248              		.thumb
 249              		.thumb_func
 250              		.fpu softvfp
 251              		.type	shell_debug_stop, %function
 252              	shell_debug_stop:
 253              	.LFB18:
  58:../../source/src/user/shell/shell_debug.c **** 
  59:../../source/src/user/shell/shell_debug.c **** inline void shell_debug_stop(int argc, char const *argv[])
  60:../../source/src/user/shell/shell_debug.c **** {
 254              		.loc 1 60 0
 255              		.cfi_startproc
 256              		@ args = 0, pretend = 0, frame = 0
 257              		@ frame_needed = 0, uses_anonymous_args = 0
 258              		@ link register save eliminated.
 259              	.LVL28:
  61:../../source/src/user/shell/shell_debug.c **** 	(void)argc;
ARM GAS  G:\Users\Jaxb\AppData\Local\Temp\ccN55nbM.s 			page 7


  62:../../source/src/user/shell/shell_debug.c **** 	(void)argv;
  63:../../source/src/user/shell/shell_debug.c **** 	flag_for_shell_debug = 1;
 260              		.loc 1 63 0
 261 00c8 0122     		movs	r2, #1
 262 00ca 014B     		ldr	r3, .L27
 263 00cc 1A60     		str	r2, [r3]
  64:../../source/src/user/shell/shell_debug.c **** }
 264              		.loc 1 64 0
 265 00ce 7047     		bx	lr
 266              	.L28:
 267              		.align	2
 268              	.L27:
 269 00d0 00000000 		.word	.LANCHOR1
 270              		.cfi_endproc
 271              	.LFE18:
 272              		.size	shell_debug_stop, .-shell_debug_stop
 273              		.align	1
 274              		.p2align 2,,3
 275              		.global	shell_debug_info
 276              		.syntax unified
 277              		.thumb
 278              		.thumb_func
 279              		.fpu softvfp
 280              		.type	shell_debug_info, %function
 281              	shell_debug_info:
 282              	.LFB19:
  65:../../source/src/user/shell/shell_debug.c **** 
  66:../../source/src/user/shell/shell_debug.c **** //the following is about shell variable
  67:../../source/src/user/shell/shell_debug.c **** static struct singly_list_head variable_array[SHELL_V_ARRAY_SIZE];
  68:../../source/src/user/shell/shell_debug.c **** 
  69:../../source/src/user/shell/shell_debug.c **** void shell_debug_info(int argc, char const *argv[])
  70:../../source/src/user/shell/shell_debug.c **** {
 283              		.loc 1 70 0
 284              		.cfi_startproc
 285              		@ args = 0, pretend = 0, frame = 0
 286              		@ frame_needed = 0, uses_anonymous_args = 0
 287              	.LVL29:
 288 00d4 2DE9F041 		push	{r4, r5, r6, r7, r8, lr}
 289              	.LCFI4:
 290              		.cfi_def_cfa_offset 24
 291              		.cfi_offset 4, -24
 292              		.cfi_offset 5, -20
 293              		.cfi_offset 6, -16
 294              		.cfi_offset 7, -12
 295              		.cfi_offset 8, -8
 296              		.cfi_offset 14, -4
 297 00d8 0A4E     		ldr	r6, .L35
  71:../../source/src/user/shell/shell_debug.c **** 	int i;
  72:../../source/src/user/shell/shell_debug.c **** 	(void)argc;
  73:../../source/src/user/shell/shell_debug.c **** 	(void)argv;
  74:../../source/src/user/shell/shell_debug.c **** 	struct shell_variable *buffer;
  75:../../source/src/user/shell/shell_debug.c **** 	struct singly_list_head *pos;
  76:../../source/src/user/shell/shell_debug.c **** 	for(i=0;i<SHELL_V_ARRAY_SIZE;++i)
  77:../../source/src/user/shell/shell_debug.c **** 	{
  78:../../source/src/user/shell/shell_debug.c **** 		if(!singly_list_empty(&variable_array[i]))
  79:../../source/src/user/shell/shell_debug.c **** 		{	
  80:../../source/src/user/shell/shell_debug.c **** 			singly_list_for_each(pos,&variable_array[i])
ARM GAS  G:\Users\Jaxb\AppData\Local\Temp\ccN55nbM.s 			page 8


  81:../../source/src/user/shell/shell_debug.c **** 			{
  82:../../source/src/user/shell/shell_debug.c **** 				buffer = singly_list_entry(pos,struct shell_variable,list);
  83:../../source/src/user/shell/shell_debug.c **** 				ka_printf("shell_variable's name is \"%s\"\n",buffer->shell_v_name);
 298              		.loc 1 83 0
 299 00da 0B4F     		ldr	r7, .L35+4
 300 00dc 06F12008 		add	r8, r6, #32
 301              	.LVL30:
 302              	.L32:
  78:../../source/src/user/shell/shell_debug.c **** 		{	
 303              		.loc 1 78 0
 304 00e0 3546     		mov	r5, r6
 305              	.LVL31:
 306              	.LBB22:
 307              	.LBB23:
  16:../../source/include/os_lib/singly_linked_list.h **** }
  17:../../source/include/os_lib/singly_linked_list.h **** 
  18:../../source/include/os_lib/singly_linked_list.h **** static inline void singly_list_add(struct singly_list_head *new,struct singly_list_head *head)
  19:../../source/include/os_lib/singly_linked_list.h **** {
  20:../../source/include/os_lib/singly_linked_list.h **** 	new->next = head->next;
  21:../../source/include/os_lib/singly_linked_list.h **** 	head->next = new;
  22:../../source/include/os_lib/singly_linked_list.h **** }
  23:../../source/include/os_lib/singly_linked_list.h **** 
  24:../../source/include/os_lib/singly_linked_list.h **** static inline void _singly_list_del_next(struct singly_list_head *pre)
  25:../../source/include/os_lib/singly_linked_list.h **** {
  26:../../source/include/os_lib/singly_linked_list.h **** 	pre->next = pre->next->next;
  27:../../source/include/os_lib/singly_linked_list.h **** }
  28:../../source/include/os_lib/singly_linked_list.h **** 
  29:../../source/include/os_lib/singly_linked_list.h **** static inline int singly_list_empty(struct singly_list_head *head)
  30:../../source/include/os_lib/singly_linked_list.h **** {
  31:../../source/include/os_lib/singly_linked_list.h **** 	return head->next == head;
 308              		.loc 2 31 0
 309 00e2 56F8044B 		ldr	r4, [r6], #4
 310              	.LVL32:
 311              	.LBE23:
 312              	.LBE22:
  78:../../source/src/user/shell/shell_debug.c **** 		{	
 313              		.loc 1 78 0
 314 00e6 A542     		cmp	r5, r4
 315 00e8 07D0     		beq	.L30
 316              	.L31:
 317              	.LVL33:
 318              		.loc 1 83 0 discriminator 3
 319 00ea 54F80C1C 		ldr	r1, [r4, #-12]
 320 00ee 3846     		mov	r0, r7
 321 00f0 FFF7FEFF 		bl	ka_printf
 322              	.LVL34:
  80:../../source/src/user/shell/shell_debug.c **** 			{
 323              		.loc 1 80 0 discriminator 3
 324 00f4 2468     		ldr	r4, [r4]
 325              	.LVL35:
 326 00f6 A542     		cmp	r5, r4
 327 00f8 F7D1     		bne	.L31
 328              	.LVL36:
 329              	.L30:
  76:../../source/src/user/shell/shell_debug.c **** 	{
 330              		.loc 1 76 0
 331 00fa B045     		cmp	r8, r6
ARM GAS  G:\Users\Jaxb\AppData\Local\Temp\ccN55nbM.s 			page 9


 332 00fc F0D1     		bne	.L32
  84:../../source/src/user/shell/shell_debug.c **** 			}
  85:../../source/src/user/shell/shell_debug.c **** 		}
  86:../../source/src/user/shell/shell_debug.c **** 	}
  87:../../source/src/user/shell/shell_debug.c **** }
 333              		.loc 1 87 0
 334 00fe BDE8F081 		pop	{r4, r5, r6, r7, r8, pc}
 335              	.L36:
 336 0102 00BF     		.align	2
 337              	.L35:
 338 0104 20000000 		.word	.LANCHOR0+32
 339 0108 7C000000 		.word	.LC4
 340              		.cfi_endproc
 341              	.LFE19:
 342              		.size	shell_debug_info, .-shell_debug_info
 343              		.align	1
 344              		.p2align 2,,3
 345              		.global	find_in_variable_array
 346              		.syntax unified
 347              		.thumb
 348              		.thumb_func
 349              		.fpu softvfp
 350              		.type	find_in_variable_array, %function
 351              	find_in_variable_array:
 352              	.LFB21:
  88:../../source/src/user/shell/shell_debug.c **** 
  89:../../source/src/user/shell/shell_debug.c **** static void __init_shell_variable_array(void)
  90:../../source/src/user/shell/shell_debug.c **** {
  91:../../source/src/user/shell/shell_debug.c **** 	int i;
  92:../../source/src/user/shell/shell_debug.c **** 	for(i=0;i<SHELL_V_ARRAY_SIZE;++i)
  93:../../source/src/user/shell/shell_debug.c **** 	{
  94:../../source/src/user/shell/shell_debug.c **** 		INIT_SINGLY_LIST_HEAD(&variable_array[i]);
  95:../../source/src/user/shell/shell_debug.c **** 	}
  96:../../source/src/user/shell/shell_debug.c **** }
  97:../../source/src/user/shell/shell_debug.c **** 
  98:../../source/src/user/shell/shell_debug.c **** struct shell_variable *find_in_variable_array(const char *name)
  99:../../source/src/user/shell/shell_debug.c **** {
 353              		.loc 1 99 0
 354              		.cfi_startproc
 355              		@ args = 0, pretend = 0, frame = 0
 356              		@ frame_needed = 0, uses_anonymous_args = 0
 357              	.LVL37:
 358 010c F8B5     		push	{r3, r4, r5, r6, r7, lr}
 359              	.LCFI5:
 360              		.cfi_def_cfa_offset 24
 361              		.cfi_offset 3, -24
 362              		.cfi_offset 4, -20
 363              		.cfi_offset 5, -16
 364              		.cfi_offset 6, -12
 365              		.cfi_offset 7, -8
 366              		.cfi_offset 14, -4
 100:../../source/src/user/shell/shell_debug.c **** 	if(NULL == name)
 367              		.loc 1 100 0
 368 010e 0646     		mov	r6, r0
 369 0110 88B3     		cbz	r0, .L38
 370              	.LVL38:
 371              	.LBB24:
ARM GAS  G:\Users\Jaxb\AppData\Local\Temp\ccN55nbM.s 			page 10


 372              	.LBB25:
 101:../../source/src/user/shell/shell_debug.c **** 	{
 102:../../source/src/user/shell/shell_debug.c **** 		return NULL;
 103:../../source/src/user/shell/shell_debug.c **** 	}
 104:../../source/src/user/shell/shell_debug.c **** 	unsigned int hash_value = shell_v_hash(name);
 105:../../source/src/user/shell/shell_debug.c **** 	ASSERT(hash_value < SHELL_V_ARRAY_SIZE);
 106:../../source/src/user/shell/shell_debug.c **** 	struct shell_variable *shell_variable_ptr;
 107:../../source/src/user/shell/shell_debug.c **** 	struct singly_list_head *pos;
 108:../../source/src/user/shell/shell_debug.c **** 	singly_list_for_each(pos,&variable_array[hash_value])
 109:../../source/src/user/shell/shell_debug.c **** 	{
 110:../../source/src/user/shell/shell_debug.c **** 		shell_variable_ptr = singly_list_entry(pos,struct shell_variable,list);
 111:../../source/src/user/shell/shell_debug.c **** 		if(0 == ka_strncmp(name,shell_variable_ptr->shell_v_name,ka_strlen(shell_variable_ptr->shell_v_na
 112:../../source/src/user/shell/shell_debug.c **** 		{
 113:../../source/src/user/shell/shell_debug.c **** 			return shell_variable_ptr;
 114:../../source/src/user/shell/shell_debug.c **** 		}
 115:../../source/src/user/shell/shell_debug.c **** 	}
 116:../../source/src/user/shell/shell_debug.c **** 	return NULL;
 117:../../source/src/user/shell/shell_debug.c **** }
 118:../../source/src/user/shell/shell_debug.c **** 
 119:../../source/src/user/shell/shell_debug.c **** void shell_insert_variable(char *name,void *data_ptr,Shell_V_Type type)
 120:../../source/src/user/shell/shell_debug.c **** {
 121:../../source/src/user/shell/shell_debug.c **** 	ASSERT(NULL != data_ptr);
 122:../../source/src/user/shell/shell_debug.c **** 	ASSERT( (SHELL_V_TYPE_UINT8  == type)  ||
 123:../../source/src/user/shell/shell_debug.c **** 			(SHELL_V_TYPE_UINT16 == type)  ||
 124:../../source/src/user/shell/shell_debug.c **** 			(SHELL_V_TYPE_UINT32 == type)  ||
 125:../../source/src/user/shell/shell_debug.c **** 			(SHELL_V_TYPE_INT8   == type)  ||
 126:../../source/src/user/shell/shell_debug.c **** 			(SHELL_V_TYPE_INT16  == type)  ||
 127:../../source/src/user/shell/shell_debug.c **** 			(SHELL_V_TYPE_INT32  == type)  ||
 128:../../source/src/user/shell/shell_debug.c **** 			(SHELL_V_TYPE_FLOAT  == type)  ||
 129:../../source/src/user/shell/shell_debug.c **** 			(SHELL_V_TYPE_DOUBLE == type)  ||
 130:../../source/src/user/shell/shell_debug.c **** 			(SHELL_V_TYPE_CHAR   == type)   ) ;
 131:../../source/src/user/shell/shell_debug.c **** 	struct shell_variable *ptr = ka_malloc(sizeof(struct shell_variable));
 132:../../source/src/user/shell/shell_debug.c **** 	ASSERT(NULL != ptr);
 133:../../source/src/user/shell/shell_debug.c **** 	ptr->shell_v_name = name;
 134:../../source/src/user/shell/shell_debug.c **** 	ptr->shell_v_type = type;
 135:../../source/src/user/shell/shell_debug.c **** 	ptr->data_ptr = data_ptr;
 136:../../source/src/user/shell/shell_debug.c **** 	unsigned int hash = shell_v_hash(name);
 137:../../source/src/user/shell/shell_debug.c **** 	singly_list_add(&ptr->list,&variable_array[hash]);
 138:../../source/src/user/shell/shell_debug.c **** }
 139:../../source/src/user/shell/shell_debug.c **** 
 140:../../source/src/user/shell/shell_debug.c **** unsigned int shell_v_hash(const char *name)
 141:../../source/src/user/shell/shell_debug.c **** {
 142:../../source/src/user/shell/shell_debug.c **** 	unsigned int sum = 0;
 143:../../source/src/user/shell/shell_debug.c **** 	while((*name != '\0') && (*name != ' ') && (*name != 0x0d) && (*name != 0x0a))
 373              		.loc 1 143 0
 374 0112 0378     		ldrb	r3, [r0]	@ zero_extendqisi2
 375 0114 13F0DF02 		ands	r2, r3, #223
 376 0118 30D0     		beq	.L54
 377 011a 0D2B     		cmp	r3, #13
 378 011c 30D0     		beq	.L47
 379 011e 0A2B     		cmp	r3, #10
 380 0120 2BD0     		beq	.L48
 381 0122 0146     		mov	r1, r0
 142:../../source/src/user/shell/shell_debug.c **** 	while((*name != '\0') && (*name != ' ') && (*name != 0x0d) && (*name != 0x0a))
 382              		.loc 1 142 0
 383 0124 0022     		movs	r2, #0
 384 0126 03E0     		b	.L42
ARM GAS  G:\Users\Jaxb\AppData\Local\Temp\ccN55nbM.s 			page 11


 385              	.LVL39:
 386              	.L40:
 387              		.loc 1 143 0
 388 0128 0D2B     		cmp	r3, #13
 389 012a 07D0     		beq	.L55
 390 012c 0A2B     		cmp	r3, #10
 391 012e 05D0     		beq	.L55
 392              	.LVL40:
 393              	.L42:
 144:../../source/src/user/shell/shell_debug.c **** 	{
 145:../../source/src/user/shell/shell_debug.c **** 		sum += *name++;
 394              		.loc 1 145 0
 395 0130 1A44     		add	r2, r2, r3
 396              	.LVL41:
 143:../../source/src/user/shell/shell_debug.c **** 	{
 397              		.loc 1 143 0
 398 0132 11F8013F 		ldrb	r3, [r1, #1]!	@ zero_extendqisi2
 399              	.LVL42:
 400 0136 13F0DF0F 		tst	r3, #223
 401 013a F5D1     		bne	.L40
 402              	.L55:
 403 013c 02F00702 		and	r2, r2, #7
 404              	.LVL43:
 405 0140 114F     		ldr	r7, .L56
 406 0142 9200     		lsls	r2, r2, #2
 407 0144 1744     		add	r7, r7, r2
 408              	.LVL44:
 409              	.L39:
 410              	.LBE25:
 411              	.LBE24:
 108:../../source/src/user/shell/shell_debug.c **** 	{
 412              		.loc 1 108 0
 413 0146 114B     		ldr	r3, .L56+4
 414 0148 1A44     		add	r2, r2, r3
 415 014a 146A     		ldr	r4, [r2, #32]
 416              	.LVL45:
 417 014c BC42     		cmp	r4, r7
 418 014e 03D1     		bne	.L45
 419 0150 11E0     		b	.L38
 420              	.LVL46:
 421              	.L43:
 108:../../source/src/user/shell/shell_debug.c **** 	{
 422              		.loc 1 108 0 is_stmt 0 discriminator 2
 423 0152 2468     		ldr	r4, [r4]
 424              	.LVL47:
 425 0154 BC42     		cmp	r4, r7
 426 0156 0ED0     		beq	.L38
 427              	.L45:
 428              	.LVL48:
 111:../../source/src/user/shell/shell_debug.c **** 		{
 429              		.loc 1 111 0 is_stmt 1
 430 0158 54F80C5C 		ldr	r5, [r4, #-12]
 431 015c 2846     		mov	r0, r5
 432 015e FFF7FEFF 		bl	ka_strlen
 433              	.LVL49:
 434 0162 2946     		mov	r1, r5
 435 0164 0246     		mov	r2, r0
ARM GAS  G:\Users\Jaxb\AppData\Local\Temp\ccN55nbM.s 			page 12


 436 0166 3046     		mov	r0, r6
 437 0168 FFF7FEFF 		bl	ka_strncmp
 438              	.LVL50:
 439 016c 0028     		cmp	r0, #0
 440 016e F0D1     		bne	.L43
 441              	.LBB27:
 110:../../source/src/user/shell/shell_debug.c **** 		if(0 == ka_strncmp(name,shell_variable_ptr->shell_v_name,ka_strlen(shell_variable_ptr->shell_v_na
 442              		.loc 1 110 0
 443 0170 A4F10C00 		sub	r0, r4, #12
 444              	.LVL51:
 445              	.LBE27:
 117:../../source/src/user/shell/shell_debug.c **** 
 446              		.loc 1 117 0
 447 0174 F8BD     		pop	{r3, r4, r5, r6, r7, pc}
 448              	.LVL52:
 449              	.L38:
 102:../../source/src/user/shell/shell_debug.c **** 	}
 450              		.loc 1 102 0
 451 0176 0020     		movs	r0, #0
 117:../../source/src/user/shell/shell_debug.c **** 
 452              		.loc 1 117 0
 453 0178 F8BD     		pop	{r3, r4, r5, r6, r7, pc}
 454              	.LVL53:
 455              	.L48:
 456 017a 0022     		movs	r2, #0
 457              	.L54:
 458              	.LBB28:
 459              	.LBB26:
 143:../../source/src/user/shell/shell_debug.c **** 	{
 460              		.loc 1 143 0
 461 017c 024F     		ldr	r7, .L56
 462 017e E2E7     		b	.L39
 463              	.L47:
 464 0180 014F     		ldr	r7, .L56
 465 0182 0022     		movs	r2, #0
 466 0184 DFE7     		b	.L39
 467              	.L57:
 468 0186 00BF     		.align	2
 469              	.L56:
 470 0188 20000000 		.word	.LANCHOR0+32
 471 018c 00000000 		.word	.LANCHOR0
 472              	.LBE26:
 473              	.LBE28:
 474              		.cfi_endproc
 475              	.LFE21:
 476              		.size	find_in_variable_array, .-find_in_variable_array
 477              		.align	1
 478              		.p2align 2,,3
 479              		.global	shell_insert_variable
 480              		.syntax unified
 481              		.thumb
 482              		.thumb_func
 483              		.fpu softvfp
 484              		.type	shell_insert_variable, %function
 485              	shell_insert_variable:
 486              	.LFB22:
 120:../../source/src/user/shell/shell_debug.c **** 	ASSERT(NULL != data_ptr);
ARM GAS  G:\Users\Jaxb\AppData\Local\Temp\ccN55nbM.s 			page 13


 487              		.loc 1 120 0
 488              		.cfi_startproc
 489              		@ args = 0, pretend = 0, frame = 0
 490              		@ frame_needed = 0, uses_anonymous_args = 0
 491              	.LVL54:
 492 0190 F8B5     		push	{r3, r4, r5, r6, r7, lr}
 493              	.LCFI6:
 494              		.cfi_def_cfa_offset 24
 495              		.cfi_offset 3, -24
 496              		.cfi_offset 4, -20
 497              		.cfi_offset 5, -16
 498              		.cfi_offset 6, -12
 499              		.cfi_offset 7, -8
 500              		.cfi_offset 14, -4
 120:../../source/src/user/shell/shell_debug.c **** 	ASSERT(NULL != data_ptr);
 501              		.loc 1 120 0
 502 0192 0446     		mov	r4, r0
 503 0194 1746     		mov	r7, r2
 121:../../source/src/user/shell/shell_debug.c **** 	ASSERT( (SHELL_V_TYPE_UINT8  == type)  ||
 504              		.loc 1 121 0
 505 0196 0E46     		mov	r6, r1
 506 0198 0029     		cmp	r1, #0
 507 019a 38D0     		beq	.L71
 508              	.LVL55:
 509              	.L59:
 122:../../source/src/user/shell/shell_debug.c **** 			(SHELL_V_TYPE_UINT16 == type)  ||
 510              		.loc 1 122 0
 511 019c 7B1E     		subs	r3, r7, #1
 512 019e 082B     		cmp	r3, #8
 513 01a0 26D8     		bhi	.L72
 131:../../source/src/user/shell/shell_debug.c **** 	ASSERT(NULL != ptr);
 514              		.loc 1 131 0
 515 01a2 1020     		movs	r0, #16
 516 01a4 FFF7FEFF 		bl	ka_malloc
 517              	.LVL56:
 132:../../source/src/user/shell/shell_debug.c **** 	ptr->shell_v_name = name;
 518              		.loc 1 132 0
 519 01a8 0546     		mov	r5, r0
 520 01aa 58B3     		cbz	r0, .L73
 521              	.LVL57:
 522              	.L61:
 133:../../source/src/user/shell/shell_debug.c **** 	ptr->shell_v_type = type;
 523              		.loc 1 133 0
 524 01ac 2C60     		str	r4, [r5]
 134:../../source/src/user/shell/shell_debug.c **** 	ptr->data_ptr = data_ptr;
 525              		.loc 1 134 0
 526 01ae 2F71     		strb	r7, [r5, #4]
 135:../../source/src/user/shell/shell_debug.c **** 	unsigned int hash = shell_v_hash(name);
 527              		.loc 1 135 0
 528 01b0 AE60     		str	r6, [r5, #8]
 529              	.LVL58:
 530              	.LBB29:
 531              	.LBB30:
 143:../../source/src/user/shell/shell_debug.c **** 	{
 532              		.loc 1 143 0
 533 01b2 2378     		ldrb	r3, [r4]	@ zero_extendqisi2
 534 01b4 13F0DF02 		ands	r2, r3, #223
ARM GAS  G:\Users\Jaxb\AppData\Local\Temp\ccN55nbM.s 			page 14


 535 01b8 12D0     		beq	.L62
 536              	.LVL59:
 537 01ba 0D2B     		cmp	r3, #13
 142:../../source/src/user/shell/shell_debug.c **** 	while((*name != '\0') && (*name != ' ') && (*name != 0x0d) && (*name != 0x0a))
 538              		.loc 1 142 0
 539 01bc 4FF00002 		mov	r2, #0
 143:../../source/src/user/shell/shell_debug.c **** 	{
 540              		.loc 1 143 0
 541 01c0 0ED0     		beq	.L62
 542 01c2 0A2B     		cmp	r3, #10
 543 01c4 04D1     		bne	.L65
 544 01c6 0BE0     		b	.L62
 545              	.LVL60:
 546              	.L63:
 547 01c8 0D2B     		cmp	r3, #13
 548 01ca 07D0     		beq	.L70
 549 01cc 0A2B     		cmp	r3, #10
 550 01ce 05D0     		beq	.L70
 551              	.LVL61:
 552              	.L65:
 553              		.loc 1 145 0
 554 01d0 1A44     		add	r2, r2, r3
 555              	.LVL62:
 143:../../source/src/user/shell/shell_debug.c **** 	{
 556              		.loc 1 143 0
 557 01d2 14F8013F 		ldrb	r3, [r4, #1]!	@ zero_extendqisi2
 558              	.LVL63:
 559 01d6 13F0DF0F 		tst	r3, #223
 560 01da F5D1     		bne	.L63
 561              	.L70:
 562 01dc 02F00702 		and	r2, r2, #7
 563              	.LVL64:
 564              	.L62:
 565              	.LBE30:
 566              	.LBE29:
 567              	.LBB31:
 568              	.LBB32:
  20:../../source/include/os_lib/singly_linked_list.h **** 	head->next = new;
 569              		.loc 2 20 0
 570 01e0 0D4B     		ldr	r3, .L74
 571 01e2 03EB8202 		add	r2, r3, r2, lsl #2
 572 01e6 136A     		ldr	r3, [r2, #32]
 573 01e8 45F80C3F 		str	r3, [r5, #12]!
 574              	.LVL65:
  21:../../source/include/os_lib/singly_linked_list.h **** }
 575              		.loc 2 21 0
 576 01ec 1562     		str	r5, [r2, #32]
 577              	.LVL66:
 578              	.LBE32:
 579              	.LBE31:
 138:../../source/src/user/shell/shell_debug.c **** 
 580              		.loc 1 138 0
 581 01ee F8BD     		pop	{r3, r4, r5, r6, r7, pc}
 582              	.LVL67:
 583              	.L72:
 122:../../source/src/user/shell/shell_debug.c **** 			(SHELL_V_TYPE_UINT16 == type)  ||
 584              		.loc 1 122 0 discriminator 1
ARM GAS  G:\Users\Jaxb\AppData\Local\Temp\ccN55nbM.s 			page 15


 585 01f0 8221     		movs	r1, #130
 586 01f2 0A48     		ldr	r0, .L74+4
 587 01f4 FFF7FEFF 		bl	_ASSERT
 588              	.LVL68:
 131:../../source/src/user/shell/shell_debug.c **** 	ASSERT(NULL != ptr);
 589              		.loc 1 131 0 discriminator 1
 590 01f8 1020     		movs	r0, #16
 591 01fa FFF7FEFF 		bl	ka_malloc
 592              	.LVL69:
 132:../../source/src/user/shell/shell_debug.c **** 	ptr->shell_v_name = name;
 593              		.loc 1 132 0 discriminator 1
 594 01fe 0546     		mov	r5, r0
 595 0200 0028     		cmp	r0, #0
 596 0202 D3D1     		bne	.L61
 597              	.L73:
 598 0204 8421     		movs	r1, #132
 599 0206 0548     		ldr	r0, .L74+4
 600              	.LVL70:
 601 0208 FFF7FEFF 		bl	_ASSERT
 602              	.LVL71:
 603 020c CEE7     		b	.L61
 604              	.LVL72:
 605              	.L71:
 121:../../source/src/user/shell/shell_debug.c **** 	ASSERT( (SHELL_V_TYPE_UINT8  == type)  ||
 606              		.loc 1 121 0 discriminator 1
 607 020e 7921     		movs	r1, #121
 608              	.LVL73:
 609 0210 0248     		ldr	r0, .L74+4
 610              	.LVL74:
 611 0212 FFF7FEFF 		bl	_ASSERT
 612              	.LVL75:
 613 0216 C1E7     		b	.L59
 614              	.L75:
 615              		.align	2
 616              	.L74:
 617 0218 00000000 		.word	.LANCHOR0
 618 021c 00000000 		.word	.LC0
 619              		.cfi_endproc
 620              	.LFE22:
 621              		.size	shell_insert_variable, .-shell_insert_variable
 622              		.align	1
 623              		.p2align 2,,3
 624              		.global	shell_v_hash
 625              		.syntax unified
 626              		.thumb
 627              		.thumb_func
 628              		.fpu softvfp
 629              		.type	shell_v_hash, %function
 630              	shell_v_hash:
 631              	.LFB23:
 141:../../source/src/user/shell/shell_debug.c **** 	unsigned int sum = 0;
 632              		.loc 1 141 0
 633              		.cfi_startproc
 634              		@ args = 0, pretend = 0, frame = 0
 635              		@ frame_needed = 0, uses_anonymous_args = 0
 636              		@ link register save eliminated.
 637              	.LVL76:
ARM GAS  G:\Users\Jaxb\AppData\Local\Temp\ccN55nbM.s 			page 16


 143:../../source/src/user/shell/shell_debug.c **** 	{
 638              		.loc 1 143 0
 639 0220 0378     		ldrb	r3, [r0]	@ zero_extendqisi2
 640 0222 13F0DF02 		ands	r2, r3, #223
 641 0226 12D0     		beq	.L83
 642 0228 0D2B     		cmp	r3, #13
 643 022a 10D0     		beq	.L83
 644 022c 0A2B     		cmp	r3, #10
 645 022e 0ED0     		beq	.L83
 142:../../source/src/user/shell/shell_debug.c **** 	while((*name != '\0') && (*name != ' ') && (*name != 0x0d) && (*name != 0x0a))
 646              		.loc 1 142 0
 647 0230 0022     		movs	r2, #0
 648 0232 03E0     		b	.L80
 649              	.LVL77:
 650              	.L78:
 143:../../source/src/user/shell/shell_debug.c **** 	{
 651              		.loc 1 143 0 discriminator 2
 652 0234 0D2B     		cmp	r3, #13
 653 0236 07D0     		beq	.L86
 143:../../source/src/user/shell/shell_debug.c **** 	{
 654              		.loc 1 143 0 is_stmt 0 discriminator 3
 655 0238 0A2B     		cmp	r3, #10
 656 023a 05D0     		beq	.L86
 657              	.LVL78:
 658              	.L80:
 659              		.loc 1 145 0 is_stmt 1
 660 023c 1A44     		add	r2, r2, r3
 661              	.LVL79:
 143:../../source/src/user/shell/shell_debug.c **** 	{
 662              		.loc 1 143 0
 663 023e 10F8013F 		ldrb	r3, [r0, #1]!	@ zero_extendqisi2
 664              	.LVL80:
 665 0242 13F0DF0F 		tst	r3, #223
 666 0246 F5D1     		bne	.L78
 667              	.L86:
 668 0248 02F00700 		and	r0, r2, #7
 669              	.LVL81:
 670 024c 7047     		bx	lr
 671              	.LVL82:
 672              	.L83:
 673 024e 0020     		movs	r0, #0
 674              	.LVL83:
 146:../../source/src/user/shell/shell_debug.c **** 	}
 147:../../source/src/user/shell/shell_debug.c **** 	return sum % SHELL_V_ARRAY_SIZE;
 148:../../source/src/user/shell/shell_debug.c **** }
 675              		.loc 1 148 0
 676 0250 7047     		bx	lr
 677              		.cfi_endproc
 678              	.LFE23:
 679              		.size	shell_v_hash, .-shell_v_hash
 680              		.global	__aeabi_f2d
 681              		.align	1
 682 0252 00BF     		.p2align 2,,3
 683              		.global	shell_v_display
 684              		.syntax unified
 685              		.thumb
 686              		.thumb_func
ARM GAS  G:\Users\Jaxb\AppData\Local\Temp\ccN55nbM.s 			page 17


 687              		.fpu softvfp
 688              		.type	shell_v_display, %function
 689              	shell_v_display:
 690              	.LFB24:
 149:../../source/src/user/shell/shell_debug.c **** 
 150:../../source/src/user/shell/shell_debug.c **** void shell_v_display(struct shell_variable *shell_variable_ptr)
 151:../../source/src/user/shell/shell_debug.c **** {
 691              		.loc 1 151 0
 692              		.cfi_startproc
 693              		@ args = 0, pretend = 0, frame = 0
 694              		@ frame_needed = 0, uses_anonymous_args = 0
 695              	.LVL84:
 696 0254 10B5     		push	{r4, lr}
 697              	.LCFI7:
 698              		.cfi_def_cfa_offset 8
 699              		.cfi_offset 4, -8
 700              		.cfi_offset 14, -4
 152:../../source/src/user/shell/shell_debug.c **** 	ASSERT(shell_variable_ptr != NULL);
 701              		.loc 1 152 0
 702 0256 0446     		mov	r4, r0
 703 0258 0028     		cmp	r0, #0
 704 025a 32D0     		beq	.L96
 705              	.LVL85:
 706              	.L88:
 153:../../source/src/user/shell/shell_debug.c **** 	switch(shell_variable_ptr->shell_v_type)
 707              		.loc 1 153 0
 708 025c 2379     		ldrb	r3, [r4, #4]	@ zero_extendqisi2
 709 025e 013B     		subs	r3, r3, #1
 710 0260 082B     		cmp	r3, #8
 711 0262 33D8     		bhi	.L89
 712 0264 DFE803F0 		tbb	[pc, r3]
 713              	.L91:
 714 0268 0C       		.byte	(.L90-.L91)/2
 715 0269 0C       		.byte	(.L90-.L91)/2
 716 026a 0C       		.byte	(.L90-.L91)/2
 717 026b 13       		.byte	(.L92-.L91)/2
 718 026c 13       		.byte	(.L92-.L91)/2
 719 026d 13       		.byte	(.L92-.L91)/2
 720 026e 1A       		.byte	(.L93-.L91)/2
 721 026f 25       		.byte	(.L94-.L91)/2
 722 0270 05       		.byte	(.L95-.L91)/2
 723 0271 00       		.p2align 1
 724              	.L95:
 154:../../source/src/user/shell/shell_debug.c **** 	{
 155:../../source/src/user/shell/shell_debug.c **** 		case SHELL_V_TYPE_UINT8:
 156:../../source/src/user/shell/shell_debug.c **** 		case SHELL_V_TYPE_UINT16:
 157:../../source/src/user/shell/shell_debug.c **** 		case SHELL_V_TYPE_UINT32:
 158:../../source/src/user/shell/shell_debug.c **** 			ka_printf("%u\n",*(unsigned int*)shell_variable_ptr->data_ptr);
 159:../../source/src/user/shell/shell_debug.c **** 			break ;
 160:../../source/src/user/shell/shell_debug.c **** 
 161:../../source/src/user/shell/shell_debug.c **** 		case SHELL_V_TYPE_INT8:
 162:../../source/src/user/shell/shell_debug.c **** 		case SHELL_V_TYPE_INT16:
 163:../../source/src/user/shell/shell_debug.c **** 		case SHELL_V_TYPE_INT32:
 164:../../source/src/user/shell/shell_debug.c **** 			ka_printf("%d\n",*(int*)shell_variable_ptr->data_ptr);
 165:../../source/src/user/shell/shell_debug.c **** 			break ;
 166:../../source/src/user/shell/shell_debug.c **** 
 167:../../source/src/user/shell/shell_debug.c **** 		case SHELL_V_TYPE_FLOAT:
ARM GAS  G:\Users\Jaxb\AppData\Local\Temp\ccN55nbM.s 			page 18


 168:../../source/src/user/shell/shell_debug.c **** 			ka_printf("%f\n",*(float*)shell_variable_ptr->data_ptr);
 169:../../source/src/user/shell/shell_debug.c **** 			break;
 170:../../source/src/user/shell/shell_debug.c **** 		case SHELL_V_TYPE_DOUBLE:
 171:../../source/src/user/shell/shell_debug.c **** 			ka_printf("%f\n",*(double*)shell_variable_ptr->data_ptr);
 172:../../source/src/user/shell/shell_debug.c **** 			break ;
 173:../../source/src/user/shell/shell_debug.c **** 
 174:../../source/src/user/shell/shell_debug.c **** 		case SHELL_V_TYPE_CHAR:
 175:../../source/src/user/shell/shell_debug.c **** 			ka_printf("%c\n",*(char*)shell_variable_ptr->data_ptr);
 725              		.loc 1 175 0
 726 0272 A368     		ldr	r3, [r4, #8]
 727 0274 1848     		ldr	r0, .L97
 728 0276 1978     		ldrb	r1, [r3]	@ zero_extendqisi2
 176:../../source/src/user/shell/shell_debug.c **** 			break ;
 177:../../source/src/user/shell/shell_debug.c **** 
 178:../../source/src/user/shell/shell_debug.c **** 		default :
 179:../../source/src/user/shell/shell_debug.c **** 			ASSERT(0);
 180:../../source/src/user/shell/shell_debug.c **** 			break ;
 181:../../source/src/user/shell/shell_debug.c **** 	}
 182:../../source/src/user/shell/shell_debug.c **** }
 729              		.loc 1 182 0
 730 0278 BDE81040 		pop	{r4, lr}
 731              	.LCFI8:
 732              		.cfi_remember_state
 733              		.cfi_restore 14
 734              		.cfi_restore 4
 735              		.cfi_def_cfa_offset 0
 736              	.LVL86:
 175:../../source/src/user/shell/shell_debug.c **** 			break ;
 737              		.loc 1 175 0
 738 027c FFF7FEBF 		b	ka_printf
 739              	.LVL87:
 740              	.L90:
 741              	.LCFI9:
 742              		.cfi_restore_state
 158:../../source/src/user/shell/shell_debug.c **** 			break ;
 743              		.loc 1 158 0
 744 0280 A368     		ldr	r3, [r4, #8]
 745 0282 1648     		ldr	r0, .L97+4
 746 0284 1968     		ldr	r1, [r3]
 747              		.loc 1 182 0
 748 0286 BDE81040 		pop	{r4, lr}
 749              	.LCFI10:
 750              		.cfi_remember_state
 751              		.cfi_restore 14
 752              		.cfi_restore 4
 753              		.cfi_def_cfa_offset 0
 754              	.LVL88:
 158:../../source/src/user/shell/shell_debug.c **** 			break ;
 755              		.loc 1 158 0
 756 028a FFF7FEBF 		b	ka_printf
 757              	.LVL89:
 758              	.L92:
 759              	.LCFI11:
 760              		.cfi_restore_state
 164:../../source/src/user/shell/shell_debug.c **** 			break ;
 761              		.loc 1 164 0
 762 028e A368     		ldr	r3, [r4, #8]
ARM GAS  G:\Users\Jaxb\AppData\Local\Temp\ccN55nbM.s 			page 19


 763 0290 1348     		ldr	r0, .L97+8
 764 0292 1968     		ldr	r1, [r3]
 765              		.loc 1 182 0
 766 0294 BDE81040 		pop	{r4, lr}
 767              	.LCFI12:
 768              		.cfi_remember_state
 769              		.cfi_restore 14
 770              		.cfi_restore 4
 771              		.cfi_def_cfa_offset 0
 772              	.LVL90:
 164:../../source/src/user/shell/shell_debug.c **** 			break ;
 773              		.loc 1 164 0
 774 0298 FFF7FEBF 		b	ka_printf
 775              	.LVL91:
 776              	.L93:
 777              	.LCFI13:
 778              		.cfi_restore_state
 168:../../source/src/user/shell/shell_debug.c **** 			break;
 779              		.loc 1 168 0
 780 029c A368     		ldr	r3, [r4, #8]
 781 029e 1868     		ldr	r0, [r3]	@ float
 782 02a0 FFF7FEFF 		bl	__aeabi_f2d
 783              	.LVL92:
 784              		.loc 1 182 0
 785 02a4 BDE81040 		pop	{r4, lr}
 786              	.LCFI14:
 787              		.cfi_remember_state
 788              		.cfi_restore 14
 789              		.cfi_restore 4
 790              		.cfi_def_cfa_offset 0
 791              	.LVL93:
 168:../../source/src/user/shell/shell_debug.c **** 			break;
 792              		.loc 1 168 0
 793 02a8 0246     		mov	r2, r0
 794 02aa 0B46     		mov	r3, r1
 795 02ac 0D48     		ldr	r0, .L97+12
 796 02ae FFF7FEBF 		b	ka_printf
 797              	.LVL94:
 798              	.L94:
 799              	.LCFI15:
 800              		.cfi_restore_state
 171:../../source/src/user/shell/shell_debug.c **** 			break ;
 801              		.loc 1 171 0
 802 02b2 A368     		ldr	r3, [r4, #8]
 803 02b4 0B48     		ldr	r0, .L97+12
 804 02b6 D3E90023 		ldrd	r2, [r3]
 805              		.loc 1 182 0
 806 02ba BDE81040 		pop	{r4, lr}
 807              	.LCFI16:
 808              		.cfi_remember_state
 809              		.cfi_restore 14
 810              		.cfi_restore 4
 811              		.cfi_def_cfa_offset 0
 812              	.LVL95:
 171:../../source/src/user/shell/shell_debug.c **** 			break ;
 813              		.loc 1 171 0
 814 02be FFF7FEBF 		b	ka_printf
ARM GAS  G:\Users\Jaxb\AppData\Local\Temp\ccN55nbM.s 			page 20


 815              	.LVL96:
 816              	.L96:
 817              	.LCFI17:
 818              		.cfi_restore_state
 152:../../source/src/user/shell/shell_debug.c **** 	switch(shell_variable_ptr->shell_v_type)
 819              		.loc 1 152 0 discriminator 1
 820 02c2 9821     		movs	r1, #152
 821 02c4 0848     		ldr	r0, .L97+16
 822              	.LVL97:
 823 02c6 FFF7FEFF 		bl	_ASSERT
 824              	.LVL98:
 825 02ca C7E7     		b	.L88
 826              	.L89:
 179:../../source/src/user/shell/shell_debug.c **** 			break ;
 827              		.loc 1 179 0 discriminator 1
 828 02cc B321     		movs	r1, #179
 829              		.loc 1 182 0 discriminator 1
 830 02ce BDE81040 		pop	{r4, lr}
 831              	.LVL99:
 179:../../source/src/user/shell/shell_debug.c **** 			break ;
 832              		.loc 1 179 0 discriminator 1
 833 02d2 0548     		ldr	r0, .L97+16
 834 02d4 FFF7FEBF 		b	_ASSERT
 835              	.LVL100:
 836              	.L98:
 837              		.align	2
 838              	.L97:
 839 02d8 A8000000 		.word	.LC8
 840 02dc 9C000000 		.word	.LC5
 841 02e0 A0000000 		.word	.LC6
 842 02e4 A4000000 		.word	.LC7
 843 02e8 00000000 		.word	.LC0
 844              		.cfi_endproc
 845              	.LFE24:
 846              		.size	shell_v_display, .-shell_v_display
 847              		.align	1
 848              		.p2align 2,,3
 849              		.global	shell_v_display_addr
 850              		.syntax unified
 851              		.thumb
 852              		.thumb_func
 853              		.fpu softvfp
 854              		.type	shell_v_display_addr, %function
 855              	shell_v_display_addr:
 856              	.LFB25:
 183:../../source/src/user/shell/shell_debug.c **** 
 184:../../source/src/user/shell/shell_debug.c **** inline void shell_v_display_addr(struct shell_variable *shell_variable_ptr)
 185:../../source/src/user/shell/shell_debug.c **** {
 857              		.loc 1 185 0
 858              		.cfi_startproc
 859              		@ args = 0, pretend = 0, frame = 0
 860              		@ frame_needed = 0, uses_anonymous_args = 0
 861              	.LVL101:
 862 02ec 10B5     		push	{r4, lr}
 863              	.LCFI18:
 864              		.cfi_def_cfa_offset 8
 865              		.cfi_offset 4, -8
ARM GAS  G:\Users\Jaxb\AppData\Local\Temp\ccN55nbM.s 			page 21


 866              		.cfi_offset 14, -4
 186:../../source/src/user/shell/shell_debug.c **** 	ASSERT(shell_variable_ptr != NULL);
 867              		.loc 1 186 0
 868 02ee 0446     		mov	r4, r0
 869 02f0 30B1     		cbz	r0, .L101
 870              	.LVL102:
 871              	.L100:
 187:../../source/src/user/shell/shell_debug.c **** 	ka_printf("variable %s address is %p\n",shell_variable_ptr->shell_v_name,shell_variable_ptr->data_
 872              		.loc 1 187 0
 873 02f2 A268     		ldr	r2, [r4, #8]
 874 02f4 2168     		ldr	r1, [r4]
 875 02f6 0548     		ldr	r0, .L102
 188:../../source/src/user/shell/shell_debug.c **** }
 876              		.loc 1 188 0
 877 02f8 BDE81040 		pop	{r4, lr}
 878              	.LCFI19:
 879              		.cfi_remember_state
 880              		.cfi_restore 14
 881              		.cfi_restore 4
 882              		.cfi_def_cfa_offset 0
 883              	.LVL103:
 187:../../source/src/user/shell/shell_debug.c **** 	ka_printf("variable %s address is %p\n",shell_variable_ptr->shell_v_name,shell_variable_ptr->data_
 884              		.loc 1 187 0
 885 02fc FFF7FEBF 		b	ka_printf
 886              	.LVL104:
 887              	.L101:
 888              	.LCFI20:
 889              		.cfi_restore_state
 186:../../source/src/user/shell/shell_debug.c **** 	ASSERT(shell_variable_ptr != NULL);
 890              		.loc 1 186 0 discriminator 1
 891 0300 BA21     		movs	r1, #186
 892 0302 0348     		ldr	r0, .L102+4
 893              	.LVL105:
 894 0304 FFF7FEFF 		bl	_ASSERT
 895              	.LVL106:
 896 0308 F3E7     		b	.L100
 897              	.L103:
 898 030a 00BF     		.align	2
 899              	.L102:
 900 030c AC000000 		.word	.LC9
 901 0310 00000000 		.word	.LC0
 902              		.cfi_endproc
 903              	.LFE25:
 904              		.size	shell_v_display_addr, .-shell_v_display_addr
 905              		.global	__aeabi_d2f
 906              		.align	1
 907              		.p2align 2,,3
 908              		.global	shell_v_write
 909              		.syntax unified
 910              		.thumb
 911              		.thumb_func
 912              		.fpu softvfp
 913              		.type	shell_v_write, %function
 914              	shell_v_write:
 915              	.LFB26:
 189:../../source/src/user/shell/shell_debug.c **** 
 190:../../source/src/user/shell/shell_debug.c **** void shell_v_write(struct shell_variable *shell_variable_ptr,const char *input_buffer_ptr)
ARM GAS  G:\Users\Jaxb\AppData\Local\Temp\ccN55nbM.s 			page 22


 191:../../source/src/user/shell/shell_debug.c **** {
 916              		.loc 1 191 0
 917              		.cfi_startproc
 918              		@ args = 0, pretend = 0, frame = 0
 919              		@ frame_needed = 0, uses_anonymous_args = 0
 920              	.LVL107:
 921 0314 38B5     		push	{r3, r4, r5, lr}
 922              	.LCFI21:
 923              		.cfi_def_cfa_offset 16
 924              		.cfi_offset 3, -16
 925              		.cfi_offset 4, -12
 926              		.cfi_offset 5, -8
 927              		.cfi_offset 14, -4
 928              		.loc 1 191 0
 929 0316 0D46     		mov	r5, r1
 192:../../source/src/user/shell/shell_debug.c **** 	ASSERT(NULL != shell_variable_ptr);
 930              		.loc 1 192 0
 931 0318 0446     		mov	r4, r0
 932 031a 58B3     		cbz	r0, .L114
 193:../../source/src/user/shell/shell_debug.c **** 	ASSERT(NULL != input_buffer_ptr);
 933              		.loc 1 193 0
 934 031c 002D     		cmp	r5, #0
 935 031e 2FD0     		beq	.L115
 936              	.LVL108:
 937              	.L106:
 194:../../source/src/user/shell/shell_debug.c **** 	switch(shell_variable_ptr->shell_v_type)
 938              		.loc 1 194 0
 939 0320 2379     		ldrb	r3, [r4, #4]	@ zero_extendqisi2
 940 0322 013B     		subs	r3, r3, #1
 941 0324 082B     		cmp	r3, #8
 942 0326 1FD8     		bhi	.L107
 943 0328 DFE803F0 		tbb	[pc, r3]
 944              	.L109:
 945 032c 18       		.byte	(.L108-.L109)/2
 946 032d 18       		.byte	(.L108-.L109)/2
 947 032e 18       		.byte	(.L108-.L109)/2
 948 032f 18       		.byte	(.L108-.L109)/2
 949 0330 18       		.byte	(.L108-.L109)/2
 950 0331 18       		.byte	(.L108-.L109)/2
 951 0332 10       		.byte	(.L110-.L109)/2
 952 0333 09       		.byte	(.L111-.L109)/2
 953 0334 05       		.byte	(.L112-.L109)/2
 954 0335 00       		.p2align 1
 955              	.L112:
 956              	.LBB33:
 195:../../source/src/user/shell/shell_debug.c **** 	{
 196:../../source/src/user/shell/shell_debug.c **** 		case SHELL_V_TYPE_UINT8:
 197:../../source/src/user/shell/shell_debug.c **** 		case SHELL_V_TYPE_UINT16:
 198:../../source/src/user/shell/shell_debug.c **** 		case SHELL_V_TYPE_UINT32:
 199:../../source/src/user/shell/shell_debug.c **** 		case SHELL_V_TYPE_INT8:
 200:../../source/src/user/shell/shell_debug.c **** 		case SHELL_V_TYPE_INT16:
 201:../../source/src/user/shell/shell_debug.c **** 		case SHELL_V_TYPE_INT32:
 202:../../source/src/user/shell/shell_debug.c **** 		{
 203:../../source/src/user/shell/shell_debug.c **** 			INT32 int_buffer;
 204:../../source/src/user/shell/shell_debug.c **** 			int_buffer = ka_atoi(input_buffer_ptr);
 205:../../source/src/user/shell/shell_debug.c **** 			*(INT32 *)(shell_variable_ptr->data_ptr) = int_buffer;
 206:../../source/src/user/shell/shell_debug.c **** 			break ;
ARM GAS  G:\Users\Jaxb\AppData\Local\Temp\ccN55nbM.s 			page 23


 207:../../source/src/user/shell/shell_debug.c **** 		}
 208:../../source/src/user/shell/shell_debug.c **** 
 209:../../source/src/user/shell/shell_debug.c **** 		case SHELL_V_TYPE_FLOAT:
 210:../../source/src/user/shell/shell_debug.c **** 		{
 211:../../source/src/user/shell/shell_debug.c **** 			float float_buffer;
 212:../../source/src/user/shell/shell_debug.c **** 			float_buffer = ka_atof(input_buffer_ptr);
 213:../../source/src/user/shell/shell_debug.c **** 			*(float *)(shell_variable_ptr->data_ptr) = float_buffer;
 214:../../source/src/user/shell/shell_debug.c **** 			break ;
 215:../../source/src/user/shell/shell_debug.c **** 		}
 216:../../source/src/user/shell/shell_debug.c **** 		case SHELL_V_TYPE_DOUBLE:
 217:../../source/src/user/shell/shell_debug.c **** 		{
 218:../../source/src/user/shell/shell_debug.c **** 			double double_buffer;
 219:../../source/src/user/shell/shell_debug.c **** 			double_buffer = ka_atof(input_buffer_ptr);
 220:../../source/src/user/shell/shell_debug.c **** 			*(double *)(shell_variable_ptr->data_ptr) = double_buffer;
 221:../../source/src/user/shell/shell_debug.c **** 			break ;
 222:../../source/src/user/shell/shell_debug.c **** 		}
 223:../../source/src/user/shell/shell_debug.c **** 
 224:../../source/src/user/shell/shell_debug.c **** 		case SHELL_V_TYPE_CHAR:
 225:../../source/src/user/shell/shell_debug.c **** 		{
 226:../../source/src/user/shell/shell_debug.c **** 			char char_buffer;
 227:../../source/src/user/shell/shell_debug.c **** 			char_buffer = *input_buffer_ptr;
 957              		.loc 1 227 0
 958 0336 2A78     		ldrb	r2, [r5]	@ zero_extendqisi2
 959              	.LVL109:
 228:../../source/src/user/shell/shell_debug.c **** 			*(char *)(shell_variable_ptr->data_ptr) = char_buffer;
 960              		.loc 1 228 0
 961 0338 A368     		ldr	r3, [r4, #8]
 962 033a 1A70     		strb	r2, [r3]
 963              	.LBE33:
 229:../../source/src/user/shell/shell_debug.c **** 			break ;
 230:../../source/src/user/shell/shell_debug.c **** 		}
 231:../../source/src/user/shell/shell_debug.c **** 
 232:../../source/src/user/shell/shell_debug.c **** 		default :
 233:../../source/src/user/shell/shell_debug.c **** 			ASSERT(0);
 234:../../source/src/user/shell/shell_debug.c **** 			break ;
 235:../../source/src/user/shell/shell_debug.c **** 	}
 236:../../source/src/user/shell/shell_debug.c **** }
 964              		.loc 1 236 0
 965 033c 38BD     		pop	{r3, r4, r5, pc}
 966              	.LVL110:
 967              	.L111:
 968              	.LBB34:
 219:../../source/src/user/shell/shell_debug.c **** 			*(double *)(shell_variable_ptr->data_ptr) = double_buffer;
 969              		.loc 1 219 0
 970 033e 2846     		mov	r0, r5
 971 0340 FFF7FEFF 		bl	ka_atof
 972              	.LVL111:
 220:../../source/src/user/shell/shell_debug.c **** 			break ;
 973              		.loc 1 220 0
 974 0344 A368     		ldr	r3, [r4, #8]
 975 0346 C3E90001 		strd	r0, [r3]
 976              	.LBE34:
 977              		.loc 1 236 0
 978 034a 38BD     		pop	{r3, r4, r5, pc}
 979              	.LVL112:
 980              	.L110:
 981              	.LBB35:
ARM GAS  G:\Users\Jaxb\AppData\Local\Temp\ccN55nbM.s 			page 24


 212:../../source/src/user/shell/shell_debug.c **** 			*(float *)(shell_variable_ptr->data_ptr) = float_buffer;
 982              		.loc 1 212 0
 983 034c 2846     		mov	r0, r5
 984 034e FFF7FEFF 		bl	ka_atof
 985              	.LVL113:
 986 0352 FFF7FEFF 		bl	__aeabi_d2f
 987              	.LVL114:
 213:../../source/src/user/shell/shell_debug.c **** 			break ;
 988              		.loc 1 213 0
 989 0356 A368     		ldr	r3, [r4, #8]
 212:../../source/src/user/shell/shell_debug.c **** 			*(float *)(shell_variable_ptr->data_ptr) = float_buffer;
 990              		.loc 1 212 0
 991 0358 1860     		str	r0, [r3]	@ float
 992              	.LBE35:
 993              		.loc 1 236 0
 994 035a 38BD     		pop	{r3, r4, r5, pc}
 995              	.LVL115:
 996              	.L108:
 997              	.LBB36:
 204:../../source/src/user/shell/shell_debug.c **** 			*(INT32 *)(shell_variable_ptr->data_ptr) = int_buffer;
 998              		.loc 1 204 0
 999 035c 2846     		mov	r0, r5
 1000 035e FFF7FEFF 		bl	ka_atoi
 1001              	.LVL116:
 205:../../source/src/user/shell/shell_debug.c **** 			break ;
 1002              		.loc 1 205 0
 1003 0362 A368     		ldr	r3, [r4, #8]
 1004 0364 1860     		str	r0, [r3]
 1005              	.LBE36:
 1006              		.loc 1 236 0
 1007 0366 38BD     		pop	{r3, r4, r5, pc}
 1008              	.LVL117:
 1009              	.L107:
 233:../../source/src/user/shell/shell_debug.c **** 			break ;
 1010              		.loc 1 233 0 discriminator 1
 1011 0368 E921     		movs	r1, #233
 1012              		.loc 1 236 0 discriminator 1
 1013 036a BDE83840 		pop	{r3, r4, r5, lr}
 1014              	.LVL118:
 233:../../source/src/user/shell/shell_debug.c **** 			break ;
 1015              		.loc 1 233 0 discriminator 1
 1016 036e 0748     		ldr	r0, .L116
 1017 0370 FFF7FEBF 		b	_ASSERT
 1018              	.LVL119:
 1019              	.L114:
 192:../../source/src/user/shell/shell_debug.c **** 	ASSERT(NULL != input_buffer_ptr);
 1020              		.loc 1 192 0 discriminator 1
 1021 0374 C021     		movs	r1, #192
 1022              	.LVL120:
 1023 0376 0548     		ldr	r0, .L116
 1024              	.LVL121:
 1025 0378 FFF7FEFF 		bl	_ASSERT
 1026              	.LVL122:
 193:../../source/src/user/shell/shell_debug.c **** 	switch(shell_variable_ptr->shell_v_type)
 1027              		.loc 1 193 0 discriminator 1
 1028 037c 002D     		cmp	r5, #0
 1029 037e CFD1     		bne	.L106
ARM GAS  G:\Users\Jaxb\AppData\Local\Temp\ccN55nbM.s 			page 25


 1030              	.L115:
 1031 0380 C121     		movs	r1, #193
 1032 0382 0248     		ldr	r0, .L116
 1033 0384 FFF7FEFF 		bl	_ASSERT
 1034              	.LVL123:
 1035 0388 CAE7     		b	.L106
 1036              	.L117:
 1037 038a 00BF     		.align	2
 1038              	.L116:
 1039 038c 00000000 		.word	.LC0
 1040              		.cfi_endproc
 1041              	.LFE26:
 1042              		.size	shell_v_write, .-shell_v_write
 1043              		.data
 1044              		.align	2
 1045              		.set	.LANCHOR1,. + 0
 1046              		.type	flag_for_shell_debug, %object
 1047              		.size	flag_for_shell_debug, 4
 1048              	flag_for_shell_debug:
 1049 0000 01000000 		.word	1
 1050              		.bss
 1051              		.align	2
 1052              		.set	.LANCHOR0,. + 0
 1053              		.type	MCB_for_shell_debug, %object
 1054              		.size	MCB_for_shell_debug, 32
 1055              	MCB_for_shell_debug:
 1056 0000 00000000 		.space	32
 1056      00000000 
 1056      00000000 
 1056      00000000 
 1056      00000000 
 1057              		.type	variable_array, %object
 1058              		.size	variable_array, 32
 1059              	variable_array:
 1060 0020 00000000 		.space	32
 1060      00000000 
 1060      00000000 
 1060      00000000 
 1060      00000000 
 1061              		.section	.rodata.str1.4,"aMS",%progbits,1
 1062              		.align	2
 1063              	.LC0:
 1064 0000 2E2E2F2E 		.ascii	"../../source/src/user/shell/shell_debug.c\000"
 1064      2E2F736F 
 1064      75726365 
 1064      2F737263 
 1064      2F757365 
 1065 002a 0000     		.space	2
 1066              	.LC1:
 1067 002c 70726F67 		.ascii	"program stop,now going to file: %s,line %u,function"
 1067      72616D20 
 1067      73746F70 
 1067      2C6E6F77 
 1067      20676F69 
 1068 005f 206E616D 		.ascii	" name is %s\012\000"
 1068      65206973 
 1068      2025730A 
ARM GAS  G:\Users\Jaxb\AppData\Local\Temp\ccN55nbM.s 			page 26


 1068      00
 1069              	.LC2:
 1070 006c 6B616B61 		.ascii	"kaka_os>>\000"
 1070      5F6F733E 
 1070      3E00
 1071 0076 0000     		.space	2
 1072              	.LC3:
 1073 0078 257300   		.ascii	"%s\000"
 1074 007b 00       		.space	1
 1075              	.LC4:
 1076 007c 7368656C 		.ascii	"shell_variable's name is \"%s\"\012\000"
 1076      6C5F7661 
 1076      72696162 
 1076      6C652773 
 1076      206E616D 
 1077 009b 00       		.space	1
 1078              	.LC5:
 1079 009c 25750A00 		.ascii	"%u\012\000"
 1080              	.LC6:
 1081 00a0 25640A00 		.ascii	"%d\012\000"
 1082              	.LC7:
 1083 00a4 25660A00 		.ascii	"%f\012\000"
 1084              	.LC8:
 1085 00a8 25630A00 		.ascii	"%c\012\000"
 1086              	.LC9:
 1087 00ac 76617269 		.ascii	"variable %s address is %p\012\000"
 1087      61626C65 
 1087      20257320 
 1087      61646472 
 1087      65737320 
 1088              		.text
 1089              	.Letext0:
 1090              		.file 3 "../../source/include/shell/shell_debug.h"
 1091              		.file 4 "../../source/include/os_cpu/kakaosstdint.h"
 1092              		.file 5 "../../source/include/os_lib/double_linked_list.h"
 1093              		.file 6 "../../source/include/os_lib/insert_sort_oo.h"
 1094              		.file 7 "../../source/include/os_core/MCB.h"
 1095              		.file 8 "../../source/include/os_lib/myMicroLIB.h"
 1096              		.file 9 "../../source/include/os_lib/myassert.h"
 1097              		.file 10 "../../source/include/os_core/TCB.h"
 1098              		.section	.debug_info,"",%progbits
 1099              	.Ldebug_info0:
 1100 0000 880B0000 		.4byte	0xb88
 1101 0004 0200     		.2byte	0x2
 1102 0006 00000000 		.4byte	.Ldebug_abbrev0
 1103 000a 04       		.byte	0x4
 1104 000b 01       		.uleb128 0x1
 1105 000c 67040000 		.4byte	.LASF83
 1106 0010 0C       		.byte	0xc
 1107 0011 45010000 		.4byte	.LASF84
 1108 0015 8B030000 		.4byte	.LASF85
 1109 0019 00000000 		.4byte	.Ltext0
 1110 001d 90030000 		.4byte	.Letext0
 1111 0021 00000000 		.4byte	.Ldebug_line0
 1112 0025 02       		.uleb128 0x2
 1113 0026 08       		.byte	0x8
 1114 0027 04       		.byte	0x4
ARM GAS  G:\Users\Jaxb\AppData\Local\Temp\ccN55nbM.s 			page 27


 1115 0028 84030000 		.4byte	.LASF0
 1116 002c 02       		.uleb128 0x2
 1117 002d 04       		.byte	0x4
 1118 002e 04       		.byte	0x4
 1119 002f 85010000 		.4byte	.LASF1
 1120 0033 03       		.uleb128 0x3
 1121 0034 74010000 		.4byte	.LASF3
 1122 0038 04       		.byte	0x4
 1123 0039 02       		.byte	0x2
 1124 003a 04       		.byte	0x4
 1125 003b 4E000000 		.4byte	0x4e
 1126 003f 04       		.uleb128 0x4
 1127 0040 62050000 		.4byte	.LASF5
 1128 0044 02       		.byte	0x2
 1129 0045 05       		.byte	0x5
 1130 0046 53000000 		.4byte	0x53
 1131 004a 02       		.byte	0x2
 1132 004b 23       		.byte	0x23
 1133 004c 00       		.uleb128 0
 1134 004d 00       		.byte	0
 1135 004e 05       		.uleb128 0x5
 1136 004f 33000000 		.4byte	0x33
 1137 0053 06       		.uleb128 0x6
 1138 0054 04       		.byte	0x4
 1139 0055 33000000 		.4byte	0x33
 1140 0059 07       		.uleb128 0x7
 1141 005a 67050000 		.4byte	.LASF12
 1142 005e 03       		.byte	0x3
 1143 005f 10       		.byte	0x10
 1144 0060 64000000 		.4byte	0x64
 1145 0064 02       		.uleb128 0x2
 1146 0065 01       		.byte	0x1
 1147 0066 08       		.byte	0x8
 1148 0067 F1020000 		.4byte	.LASF2
 1149 006b 05       		.uleb128 0x5
 1150 006c 64000000 		.4byte	0x64
 1151 0070 03       		.uleb128 0x3
 1152 0071 FF000000 		.4byte	.LASF4
 1153 0075 10       		.byte	0x10
 1154 0076 03       		.byte	0x3
 1155 0077 21       		.byte	0x21
 1156 0078 B5000000 		.4byte	0xb5
 1157 007c 04       		.uleb128 0x4
 1158 007d 5B000000 		.4byte	.LASF6
 1159 0081 03       		.byte	0x3
 1160 0082 23       		.byte	0x23
 1161 0083 B5000000 		.4byte	0xb5
 1162 0087 02       		.byte	0x2
 1163 0088 23       		.byte	0x23
 1164 0089 00       		.uleb128 0
 1165 008a 04       		.uleb128 0x4
 1166 008b F6020000 		.4byte	.LASF7
 1167 008f 03       		.byte	0x3
 1168 0090 24       		.byte	0x24
 1169 0091 59000000 		.4byte	0x59
 1170 0095 02       		.byte	0x2
 1171 0096 23       		.byte	0x23
ARM GAS  G:\Users\Jaxb\AppData\Local\Temp\ccN55nbM.s 			page 28


 1172 0097 04       		.uleb128 0x4
 1173 0098 04       		.uleb128 0x4
 1174 0099 59050000 		.4byte	.LASF8
 1175 009d 03       		.byte	0x3
 1176 009e 25       		.byte	0x25
 1177 009f BB000000 		.4byte	0xbb
 1178 00a3 02       		.byte	0x2
 1179 00a4 23       		.byte	0x23
 1180 00a5 08       		.uleb128 0x8
 1181 00a6 04       		.uleb128 0x4
 1182 00a7 13030000 		.4byte	.LASF9
 1183 00ab 03       		.byte	0x3
 1184 00ac 26       		.byte	0x26
 1185 00ad 33000000 		.4byte	0x33
 1186 00b1 02       		.byte	0x2
 1187 00b2 23       		.byte	0x23
 1188 00b3 0C       		.uleb128 0xc
 1189 00b4 00       		.byte	0
 1190 00b5 06       		.uleb128 0x6
 1191 00b6 04       		.byte	0x4
 1192 00b7 64000000 		.4byte	0x64
 1193 00bb 08       		.uleb128 0x8
 1194 00bc 04       		.byte	0x4
 1195 00bd 02       		.uleb128 0x2
 1196 00be 01       		.byte	0x1
 1197 00bf 06       		.byte	0x6
 1198 00c0 67020000 		.4byte	.LASF10
 1199 00c4 02       		.uleb128 0x2
 1200 00c5 02       		.byte	0x2
 1201 00c6 05       		.byte	0x5
 1202 00c7 A2000000 		.4byte	.LASF11
 1203 00cb 07       		.uleb128 0x7
 1204 00cc 1A050000 		.4byte	.LASF13
 1205 00d0 04       		.byte	0x4
 1206 00d1 07       		.byte	0x7
 1207 00d2 D6000000 		.4byte	0xd6
 1208 00d6 09       		.uleb128 0x9
 1209 00d7 04       		.byte	0x4
 1210 00d8 05       		.byte	0x5
 1211 00d9 696E7400 		.ascii	"int\000"
 1212 00dd 0A       		.uleb128 0xa
 1213 00de D6000000 		.4byte	0xd6
 1214 00e2 02       		.uleb128 0x2
 1215 00e3 08       		.byte	0x8
 1216 00e4 05       		.byte	0x5
 1217 00e5 8B010000 		.4byte	.LASF14
 1218 00e9 02       		.uleb128 0x2
 1219 00ea 01       		.byte	0x1
 1220 00eb 08       		.byte	0x8
 1221 00ec 2F020000 		.4byte	.LASF15
 1222 00f0 02       		.uleb128 0x2
 1223 00f1 02       		.byte	0x2
 1224 00f2 07       		.byte	0x7
 1225 00f3 DE020000 		.4byte	.LASF16
 1226 00f7 02       		.uleb128 0x2
 1227 00f8 04       		.byte	0x4
 1228 00f9 07       		.byte	0x7
ARM GAS  G:\Users\Jaxb\AppData\Local\Temp\ccN55nbM.s 			page 29


 1229 00fa 8F020000 		.4byte	.LASF17
 1230 00fe 07       		.uleb128 0x7
 1231 00ff 2D050000 		.4byte	.LASF18
 1232 0103 04       		.byte	0x4
 1233 0104 0D       		.byte	0xd
 1234 0105 09010000 		.4byte	0x109
 1235 0109 02       		.uleb128 0x2
 1236 010a 08       		.byte	0x8
 1237 010b 07       		.byte	0x7
 1238 010c 73020000 		.4byte	.LASF19
 1239 0110 07       		.uleb128 0x7
 1240 0111 AC000000 		.4byte	.LASF20
 1241 0115 04       		.byte	0x4
 1242 0116 23       		.byte	0x23
 1243 0117 F7000000 		.4byte	0xf7
 1244 011b 03       		.uleb128 0x3
 1245 011c 51000000 		.4byte	.LASF21
 1246 0120 08       		.byte	0x8
 1247 0121 05       		.byte	0x5
 1248 0122 04       		.byte	0x4
 1249 0123 44010000 		.4byte	0x144
 1250 0127 04       		.uleb128 0x4
 1251 0128 62050000 		.4byte	.LASF5
 1252 012c 05       		.byte	0x5
 1253 012d 05       		.byte	0x5
 1254 012e 44010000 		.4byte	0x144
 1255 0132 02       		.byte	0x2
 1256 0133 23       		.byte	0x23
 1257 0134 00       		.uleb128 0
 1258 0135 04       		.uleb128 0x4
 1259 0136 15050000 		.4byte	.LASF22
 1260 013a 05       		.byte	0x5
 1261 013b 05       		.byte	0x5
 1262 013c 44010000 		.4byte	0x144
 1263 0140 02       		.byte	0x2
 1264 0141 23       		.byte	0x23
 1265 0142 04       		.uleb128 0x4
 1266 0143 00       		.byte	0
 1267 0144 06       		.uleb128 0x6
 1268 0145 04       		.byte	0x4
 1269 0146 1B010000 		.4byte	0x11b
 1270 014a 0B       		.uleb128 0xb
 1271 014b 4F040000 		.4byte	.LASF86
 1272 014f 0A       		.byte	0xa
 1273 0150 12       		.byte	0x12
 1274 0151 DD000000 		.4byte	0xdd
 1275 0155 01       		.byte	0x1
 1276 0156 01       		.byte	0x1
 1277 0157 07       		.uleb128 0x7
 1278 0158 51050000 		.4byte	.LASF23
 1279 015c 06       		.byte	0x6
 1280 015d 0D       		.byte	0xd
 1281 015e FE000000 		.4byte	0xfe
 1282 0162 03       		.uleb128 0x3
 1283 0163 9E010000 		.4byte	.LASF24
 1284 0167 18       		.byte	0x18
 1285 0168 06       		.byte	0x6
ARM GAS  G:\Users\Jaxb\AppData\Local\Temp\ccN55nbM.s 			page 30


 1286 0169 0F       		.byte	0xf
 1287 016a 99010000 		.4byte	0x199
 1288 016e 04       		.uleb128 0x4
 1289 016f 59050000 		.4byte	.LASF8
 1290 0173 06       		.byte	0x6
 1291 0174 11       		.byte	0x11
 1292 0175 BB000000 		.4byte	0xbb
 1293 0179 02       		.byte	0x2
 1294 017a 23       		.byte	0x23
 1295 017b 00       		.uleb128 0
 1296 017c 04       		.uleb128 0x4
 1297 017d D1000000 		.4byte	.LASF25
 1298 0181 06       		.byte	0x6
 1299 0182 12       		.byte	0x12
 1300 0183 57010000 		.4byte	0x157
 1301 0187 02       		.byte	0x2
 1302 0188 23       		.byte	0x23
 1303 0189 08       		.uleb128 0x8
 1304 018a 04       		.uleb128 0x4
 1305 018b DF000000 		.4byte	.LASF26
 1306 018f 06       		.byte	0x6
 1307 0190 13       		.byte	0x13
 1308 0191 1B010000 		.4byte	0x11b
 1309 0195 02       		.byte	0x2
 1310 0196 23       		.byte	0x23
 1311 0197 10       		.uleb128 0x10
 1312 0198 00       		.byte	0
 1313 0199 03       		.uleb128 0x3
 1314 019a E9030000 		.4byte	.LASF27
 1315 019e 18       		.byte	0x18
 1316 019f 06       		.byte	0x6
 1317 01a0 1D       		.byte	0x1d
 1318 01a1 EC010000 		.4byte	0x1ec
 1319 01a5 04       		.uleb128 0x4
 1320 01a6 93000000 		.4byte	.LASF28
 1321 01aa 06       		.byte	0x6
 1322 01ab 27       		.byte	0x27
 1323 01ac 1B010000 		.4byte	0x11b
 1324 01b0 02       		.byte	0x2
 1325 01b1 23       		.byte	0x23
 1326 01b2 00       		.uleb128 0
 1327 01b3 04       		.uleb128 0x4
 1328 01b4 03020000 		.4byte	.LASF29
 1329 01b8 06       		.byte	0x6
 1330 01b9 28       		.byte	0x28
 1331 01ba F7000000 		.4byte	0xf7
 1332 01be 02       		.byte	0x2
 1333 01bf 23       		.byte	0x23
 1334 01c0 08       		.uleb128 0x8
 1335 01c1 04       		.uleb128 0x4
 1336 01c2 1B040000 		.4byte	.LASF30
 1337 01c6 06       		.byte	0x6
 1338 01c7 2C       		.byte	0x2c
 1339 01c8 07020000 		.4byte	0x207
 1340 01cc 02       		.byte	0x2
 1341 01cd 23       		.byte	0x23
 1342 01ce 0C       		.uleb128 0xc
ARM GAS  G:\Users\Jaxb\AppData\Local\Temp\ccN55nbM.s 			page 31


 1343 01cf 04       		.uleb128 0x4
 1344 01d0 AF010000 		.4byte	.LASF31
 1345 01d4 06       		.byte	0x6
 1346 01d5 2D       		.byte	0x2d
 1347 01d6 22020000 		.4byte	0x222
 1348 01da 02       		.byte	0x2
 1349 01db 23       		.byte	0x23
 1350 01dc 10       		.uleb128 0x10
 1351 01dd 04       		.uleb128 0x4
 1352 01de D4020000 		.4byte	.LASF32
 1353 01e2 06       		.byte	0x6
 1354 01e3 2E       		.byte	0x2e
 1355 01e4 3D020000 		.4byte	0x23d
 1356 01e8 02       		.byte	0x2
 1357 01e9 23       		.byte	0x23
 1358 01ea 14       		.uleb128 0x14
 1359 01eb 00       		.byte	0
 1360 01ec 0C       		.uleb128 0xc
 1361 01ed 01       		.byte	0x1
 1362 01ee D6000000 		.4byte	0xd6
 1363 01f2 01020000 		.4byte	0x201
 1364 01f6 0D       		.uleb128 0xd
 1365 01f7 01020000 		.4byte	0x201
 1366 01fb 0D       		.uleb128 0xd
 1367 01fc 01020000 		.4byte	0x201
 1368 0200 00       		.byte	0
 1369 0201 06       		.uleb128 0x6
 1370 0202 04       		.byte	0x4
 1371 0203 62010000 		.4byte	0x162
 1372 0207 06       		.uleb128 0x6
 1373 0208 04       		.byte	0x4
 1374 0209 EC010000 		.4byte	0x1ec
 1375 020d 0C       		.uleb128 0xc
 1376 020e 01       		.byte	0x1
 1377 020f D6000000 		.4byte	0xd6
 1378 0213 22020000 		.4byte	0x222
 1379 0217 0D       		.uleb128 0xd
 1380 0218 01020000 		.4byte	0x201
 1381 021c 0D       		.uleb128 0xd
 1382 021d BB000000 		.4byte	0xbb
 1383 0221 00       		.byte	0
 1384 0222 06       		.uleb128 0x6
 1385 0223 04       		.byte	0x4
 1386 0224 0D020000 		.4byte	0x20d
 1387 0228 0C       		.uleb128 0xc
 1388 0229 01       		.byte	0x1
 1389 022a D6000000 		.4byte	0xd6
 1390 022e 3D020000 		.4byte	0x23d
 1391 0232 0D       		.uleb128 0xd
 1392 0233 BB000000 		.4byte	0xbb
 1393 0237 0D       		.uleb128 0xd
 1394 0238 BB000000 		.4byte	0xbb
 1395 023c 00       		.byte	0
 1396 023d 06       		.uleb128 0x6
 1397 023e 04       		.byte	0x4
 1398 023f 28020000 		.4byte	0x228
 1399 0243 0E       		.uleb128 0xe
ARM GAS  G:\Users\Jaxb\AppData\Local\Temp\ccN55nbM.s 			page 32


 1400 0244 9C020000 		.4byte	.LASF87
 1401 0248 07       		.byte	0x7
 1402 0249 01       		.byte	0x1
 1403 024a E9000000 		.4byte	0xe9
 1404 024e 07       		.byte	0x7
 1405 024f 07       		.byte	0x7
 1406 0250 67020000 		.4byte	0x267
 1407 0254 0F       		.uleb128 0xf
 1408 0255 37040000 		.4byte	.LASF33
 1409 0259 00       		.byte	0
 1410 025a 0F       		.uleb128 0xf
 1411 025b E9000000 		.4byte	.LASF34
 1412 025f 01       		.byte	0x1
 1413 0260 0F       		.uleb128 0xf
 1414 0261 03030000 		.4byte	.LASF35
 1415 0265 02       		.byte	0x2
 1416 0266 00       		.byte	0
 1417 0267 03       		.uleb128 0x3
 1418 0268 2A030000 		.4byte	.LASF36
 1419 026c 20       		.byte	0x20
 1420 026d 07       		.byte	0x7
 1421 026e 15       		.byte	0x15
 1422 026f 9E020000 		.4byte	0x29e
 1423 0273 04       		.uleb128 0x4
 1424 0274 4D020000 		.4byte	.LASF37
 1425 0278 07       		.byte	0x7
 1426 0279 16       		.byte	0x16
 1427 027a 99010000 		.4byte	0x199
 1428 027e 02       		.byte	0x2
 1429 027f 23       		.byte	0x23
 1430 0280 00       		.uleb128 0
 1431 0281 04       		.uleb128 0x4
 1432 0282 20050000 		.4byte	.LASF38
 1433 0286 07       		.byte	0x7
 1434 0287 17       		.byte	0x17
 1435 0288 D6000000 		.4byte	0xd6
 1436 028c 02       		.byte	0x2
 1437 028d 23       		.byte	0x23
 1438 028e 18       		.uleb128 0x18
 1439 028f 04       		.uleb128 0x4
 1440 0290 99010000 		.4byte	.LASF39
 1441 0294 07       		.byte	0x7
 1442 0295 18       		.byte	0x18
 1443 0296 F7000000 		.4byte	0xf7
 1444 029a 02       		.byte	0x2
 1445 029b 23       		.byte	0x23
 1446 029c 1C       		.uleb128 0x1c
 1447 029d 00       		.byte	0
 1448 029e 10       		.uleb128 0x10
 1449 029f 4D434200 		.ascii	"MCB\000"
 1450 02a3 07       		.byte	0x7
 1451 02a4 19       		.byte	0x19
 1452 02a5 67020000 		.4byte	0x267
 1453 02a9 11       		.uleb128 0x11
 1454 02aa 23040000 		.4byte	.LASF40
 1455 02ae 01       		.byte	0x1
 1456 02af 09       		.byte	0x9
ARM GAS  G:\Users\Jaxb\AppData\Local\Temp\ccN55nbM.s 			page 33


 1457 02b0 9E020000 		.4byte	0x29e
 1458 02b4 05       		.byte	0x5
 1459 02b5 03       		.byte	0x3
 1460 02b6 00000000 		.4byte	MCB_for_shell_debug
 1461 02ba 11       		.uleb128 0x11
 1462 02bb 2B010000 		.4byte	.LASF41
 1463 02bf 01       		.byte	0x1
 1464 02c0 0A       		.byte	0xa
 1465 02c1 D6000000 		.4byte	0xd6
 1466 02c5 05       		.byte	0x5
 1467 02c6 03       		.byte	0x3
 1468 02c7 00000000 		.4byte	flag_for_shell_debug
 1469 02cb 12       		.uleb128 0x12
 1470 02cc 33000000 		.4byte	0x33
 1471 02d0 DB020000 		.4byte	0x2db
 1472 02d4 13       		.uleb128 0x13
 1473 02d5 F7000000 		.4byte	0xf7
 1474 02d9 07       		.byte	0x7
 1475 02da 00       		.byte	0
 1476 02db 11       		.uleb128 0x11
 1477 02dc 31000000 		.4byte	.LASF42
 1478 02e0 01       		.byte	0x1
 1479 02e1 43       		.byte	0x43
 1480 02e2 CB020000 		.4byte	0x2cb
 1481 02e6 05       		.byte	0x5
 1482 02e7 03       		.byte	0x3
 1483 02e8 20000000 		.4byte	variable_array
 1484 02ec 14       		.uleb128 0x14
 1485 02ed 01       		.byte	0x1
 1486 02ee C6010000 		.4byte	.LASF49
 1487 02f2 01       		.byte	0x1
 1488 02f3 BE       		.byte	0xbe
 1489 02f4 01       		.byte	0x1
 1490 02f5 14030000 		.4byte	.LFB26
 1491 02f9 90030000 		.4byte	.LFE26
 1492 02fd 00000000 		.4byte	.LLST42
 1493 0301 01       		.byte	0x1
 1494 0302 1D040000 		.4byte	0x41d
 1495 0306 15       		.uleb128 0x15
 1496 0307 D6030000 		.4byte	.LASF43
 1497 030b 01       		.byte	0x1
 1498 030c BE       		.byte	0xbe
 1499 030d 1D040000 		.4byte	0x41d
 1500 0311 20000000 		.4byte	.LLST43
 1501 0315 15       		.uleb128 0x15
 1502 0316 40000000 		.4byte	.LASF44
 1503 031a 01       		.byte	0x1
 1504 031b BE       		.byte	0xbe
 1505 031c 23040000 		.4byte	0x423
 1506 0320 62000000 		.4byte	.LLST44
 1507 0324 16       		.uleb128 0x16
 1508 0325 5C030000 		.4byte	.LBB36
 1509 0329 66030000 		.4byte	.LBE36
 1510 032d 51030000 		.4byte	0x351
 1511 0331 17       		.uleb128 0x17
 1512 0332 1F030000 		.4byte	.LASF45
 1513 0336 01       		.byte	0x1
ARM GAS  G:\Users\Jaxb\AppData\Local\Temp\ccN55nbM.s 			page 34


 1514 0337 CB       		.byte	0xcb
 1515 0338 CB000000 		.4byte	0xcb
 1516 033c A4000000 		.4byte	.LLST48
 1517 0340 18       		.uleb128 0x18
 1518 0341 62030000 		.4byte	.LVL116
 1519 0345 110B0000 		.4byte	0xb11
 1520 0349 19       		.uleb128 0x19
 1521 034a 01       		.byte	0x1
 1522 034b 50       		.byte	0x50
 1523 034c 02       		.byte	0x2
 1524 034d 75       		.byte	0x75
 1525 034e 00       		.sleb128 0
 1526 034f 00       		.byte	0
 1527 0350 00       		.byte	0
 1528 0351 16       		.uleb128 0x16
 1529 0352 4C030000 		.4byte	.LBB35
 1530 0356 5A030000 		.4byte	.LBE35
 1531 035a 7E030000 		.4byte	0x37e
 1532 035e 17       		.uleb128 0x17
 1533 035f 6E030000 		.4byte	.LASF46
 1534 0363 01       		.byte	0x1
 1535 0364 D3       		.byte	0xd3
 1536 0365 2C000000 		.4byte	0x2c
 1537 0369 B7000000 		.4byte	.LLST47
 1538 036d 18       		.uleb128 0x18
 1539 036e 52030000 		.4byte	.LVL113
 1540 0372 1E0B0000 		.4byte	0xb1e
 1541 0376 19       		.uleb128 0x19
 1542 0377 01       		.byte	0x1
 1543 0378 50       		.byte	0x50
 1544 0379 02       		.byte	0x2
 1545 037a 75       		.byte	0x75
 1546 037b 00       		.sleb128 0
 1547 037c 00       		.byte	0
 1548 037d 00       		.byte	0
 1549 037e 16       		.uleb128 0x16
 1550 037f 3E030000 		.4byte	.LBB34
 1551 0383 4A030000 		.4byte	.LBE34
 1552 0387 AB030000 		.4byte	0x3ab
 1553 038b 17       		.uleb128 0x17
 1554 038c 50030000 		.4byte	.LASF47
 1555 0390 01       		.byte	0x1
 1556 0391 DA       		.byte	0xda
 1557 0392 25000000 		.4byte	0x25
 1558 0396 CF000000 		.4byte	.LLST46
 1559 039a 18       		.uleb128 0x18
 1560 039b 44030000 		.4byte	.LVL111
 1561 039f 1E0B0000 		.4byte	0xb1e
 1562 03a3 19       		.uleb128 0x19
 1563 03a4 01       		.byte	0x1
 1564 03a5 50       		.byte	0x50
 1565 03a6 02       		.byte	0x2
 1566 03a7 75       		.byte	0x75
 1567 03a8 00       		.sleb128 0
 1568 03a9 00       		.byte	0
 1569 03aa 00       		.byte	0
 1570 03ab 16       		.uleb128 0x16
ARM GAS  G:\Users\Jaxb\AppData\Local\Temp\ccN55nbM.s 			page 35


 1571 03ac 36030000 		.4byte	.LBB33
 1572 03b0 3C030000 		.4byte	.LBE33
 1573 03b4 C8030000 		.4byte	0x3c8
 1574 03b8 17       		.uleb128 0x17
 1575 03b9 34050000 		.4byte	.LASF48
 1576 03bd 01       		.byte	0x1
 1577 03be E2       		.byte	0xe2
 1578 03bf 64000000 		.4byte	0x64
 1579 03c3 E7000000 		.4byte	.LLST45
 1580 03c7 00       		.byte	0
 1581 03c8 1A       		.uleb128 0x1a
 1582 03c9 74030000 		.4byte	.LVL119
 1583 03cd 01       		.byte	0x1
 1584 03ce 2B0B0000 		.4byte	0xb2b
 1585 03d2 E6030000 		.4byte	0x3e6
 1586 03d6 19       		.uleb128 0x19
 1587 03d7 01       		.byte	0x1
 1588 03d8 50       		.byte	0x50
 1589 03d9 05       		.byte	0x5
 1590 03da 03       		.byte	0x3
 1591 03db 00000000 		.4byte	.LC0
 1592 03df 19       		.uleb128 0x19
 1593 03e0 01       		.byte	0x1
 1594 03e1 51       		.byte	0x51
 1595 03e2 02       		.byte	0x2
 1596 03e3 08       		.byte	0x8
 1597 03e4 E9       		.byte	0xe9
 1598 03e5 00       		.byte	0
 1599 03e6 1B       		.uleb128 0x1b
 1600 03e7 7C030000 		.4byte	.LVL122
 1601 03eb 2B0B0000 		.4byte	0xb2b
 1602 03ef 03040000 		.4byte	0x403
 1603 03f3 19       		.uleb128 0x19
 1604 03f4 01       		.byte	0x1
 1605 03f5 50       		.byte	0x50
 1606 03f6 05       		.byte	0x5
 1607 03f7 03       		.byte	0x3
 1608 03f8 00000000 		.4byte	.LC0
 1609 03fc 19       		.uleb128 0x19
 1610 03fd 01       		.byte	0x1
 1611 03fe 51       		.byte	0x51
 1612 03ff 02       		.byte	0x2
 1613 0400 08       		.byte	0x8
 1614 0401 C0       		.byte	0xc0
 1615 0402 00       		.byte	0
 1616 0403 18       		.uleb128 0x18
 1617 0404 88030000 		.4byte	.LVL123
 1618 0408 2B0B0000 		.4byte	0xb2b
 1619 040c 19       		.uleb128 0x19
 1620 040d 01       		.byte	0x1
 1621 040e 50       		.byte	0x50
 1622 040f 05       		.byte	0x5
 1623 0410 03       		.byte	0x3
 1624 0411 00000000 		.4byte	.LC0
 1625 0415 19       		.uleb128 0x19
 1626 0416 01       		.byte	0x1
 1627 0417 51       		.byte	0x51
ARM GAS  G:\Users\Jaxb\AppData\Local\Temp\ccN55nbM.s 			page 36


 1628 0418 02       		.byte	0x2
 1629 0419 08       		.byte	0x8
 1630 041a C1       		.byte	0xc1
 1631 041b 00       		.byte	0
 1632 041c 00       		.byte	0
 1633 041d 06       		.uleb128 0x6
 1634 041e 04       		.byte	0x4
 1635 041f 70000000 		.4byte	0x70
 1636 0423 06       		.uleb128 0x6
 1637 0424 04       		.byte	0x4
 1638 0425 6B000000 		.4byte	0x6b
 1639 0429 1C       		.uleb128 0x1c
 1640 042a 01       		.byte	0x1
 1641 042b D4010000 		.4byte	.LASF50
 1642 042f 01       		.byte	0x1
 1643 0430 B8       		.byte	0xb8
 1644 0431 01       		.byte	0x1
 1645 0432 EC020000 		.4byte	.LFB25
 1646 0436 14030000 		.4byte	.LFE25
 1647 043a FA000000 		.4byte	.LLST40
 1648 043e 01       		.byte	0x1
 1649 043f 84040000 		.4byte	0x484
 1650 0443 15       		.uleb128 0x15
 1651 0444 D6030000 		.4byte	.LASF43
 1652 0448 01       		.byte	0x1
 1653 0449 B8       		.byte	0xb8
 1654 044a 1D040000 		.4byte	0x41d
 1655 044e 32010000 		.4byte	.LLST41
 1656 0452 1A       		.uleb128 0x1a
 1657 0453 00030000 		.4byte	.LVL104
 1658 0457 01       		.byte	0x1
 1659 0458 380B0000 		.4byte	0xb38
 1660 045c 6A040000 		.4byte	0x46a
 1661 0460 19       		.uleb128 0x19
 1662 0461 01       		.byte	0x1
 1663 0462 50       		.byte	0x50
 1664 0463 05       		.byte	0x5
 1665 0464 03       		.byte	0x3
 1666 0465 AC000000 		.4byte	.LC9
 1667 0469 00       		.byte	0
 1668 046a 18       		.uleb128 0x18
 1669 046b 08030000 		.4byte	.LVL106
 1670 046f 2B0B0000 		.4byte	0xb2b
 1671 0473 19       		.uleb128 0x19
 1672 0474 01       		.byte	0x1
 1673 0475 50       		.byte	0x50
 1674 0476 05       		.byte	0x5
 1675 0477 03       		.byte	0x3
 1676 0478 00000000 		.4byte	.LC0
 1677 047c 19       		.uleb128 0x19
 1678 047d 01       		.byte	0x1
 1679 047e 51       		.byte	0x51
 1680 047f 02       		.byte	0x2
 1681 0480 08       		.byte	0x8
 1682 0481 BA       		.byte	0xba
 1683 0482 00       		.byte	0
 1684 0483 00       		.byte	0
ARM GAS  G:\Users\Jaxb\AppData\Local\Temp\ccN55nbM.s 			page 37


 1685 0484 14       		.uleb128 0x14
 1686 0485 01       		.byte	0x1
 1687 0486 3D020000 		.4byte	.LASF51
 1688 048a 01       		.byte	0x1
 1689 048b 96       		.byte	0x96
 1690 048c 01       		.byte	0x1
 1691 048d 54020000 		.4byte	.LFB24
 1692 0491 EC020000 		.4byte	.LFE24
 1693 0495 74010000 		.4byte	.LLST38
 1694 0499 01       		.byte	0x1
 1695 049a 5D050000 		.4byte	0x55d
 1696 049e 15       		.uleb128 0x15
 1697 049f D6030000 		.4byte	.LASF43
 1698 04a3 01       		.byte	0x1
 1699 04a4 96       		.byte	0x96
 1700 04a5 1D040000 		.4byte	0x41d
 1701 04a9 0C020000 		.4byte	.LLST39
 1702 04ad 1A       		.uleb128 0x1a
 1703 04ae 80020000 		.4byte	.LVL87
 1704 04b2 01       		.byte	0x1
 1705 04b3 380B0000 		.4byte	0xb38
 1706 04b7 C5040000 		.4byte	0x4c5
 1707 04bb 19       		.uleb128 0x19
 1708 04bc 01       		.byte	0x1
 1709 04bd 50       		.byte	0x50
 1710 04be 05       		.byte	0x5
 1711 04bf 03       		.byte	0x3
 1712 04c0 A8000000 		.4byte	.LC8
 1713 04c4 00       		.byte	0
 1714 04c5 1A       		.uleb128 0x1a
 1715 04c6 8E020000 		.4byte	.LVL89
 1716 04ca 01       		.byte	0x1
 1717 04cb 380B0000 		.4byte	0xb38
 1718 04cf DD040000 		.4byte	0x4dd
 1719 04d3 19       		.uleb128 0x19
 1720 04d4 01       		.byte	0x1
 1721 04d5 50       		.byte	0x50
 1722 04d6 05       		.byte	0x5
 1723 04d7 03       		.byte	0x3
 1724 04d8 9C000000 		.4byte	.LC5
 1725 04dc 00       		.byte	0
 1726 04dd 1A       		.uleb128 0x1a
 1727 04de 9C020000 		.4byte	.LVL91
 1728 04e2 01       		.byte	0x1
 1729 04e3 380B0000 		.4byte	0xb38
 1730 04e7 F5040000 		.4byte	0x4f5
 1731 04eb 19       		.uleb128 0x19
 1732 04ec 01       		.byte	0x1
 1733 04ed 50       		.byte	0x50
 1734 04ee 05       		.byte	0x5
 1735 04ef 03       		.byte	0x3
 1736 04f0 A0000000 		.4byte	.LC6
 1737 04f4 00       		.byte	0
 1738 04f5 1A       		.uleb128 0x1a
 1739 04f6 B2020000 		.4byte	.LVL94
 1740 04fa 01       		.byte	0x1
 1741 04fb 380B0000 		.4byte	0xb38
ARM GAS  G:\Users\Jaxb\AppData\Local\Temp\ccN55nbM.s 			page 38


 1742 04ff 0D050000 		.4byte	0x50d
 1743 0503 19       		.uleb128 0x19
 1744 0504 01       		.byte	0x1
 1745 0505 50       		.byte	0x50
 1746 0506 05       		.byte	0x5
 1747 0507 03       		.byte	0x3
 1748 0508 A4000000 		.4byte	.LC7
 1749 050c 00       		.byte	0
 1750 050d 1A       		.uleb128 0x1a
 1751 050e C2020000 		.4byte	.LVL96
 1752 0512 01       		.byte	0x1
 1753 0513 380B0000 		.4byte	0xb38
 1754 0517 25050000 		.4byte	0x525
 1755 051b 19       		.uleb128 0x19
 1756 051c 01       		.byte	0x1
 1757 051d 50       		.byte	0x50
 1758 051e 05       		.byte	0x5
 1759 051f 03       		.byte	0x3
 1760 0520 A4000000 		.4byte	.LC7
 1761 0524 00       		.byte	0
 1762 0525 1B       		.uleb128 0x1b
 1763 0526 CA020000 		.4byte	.LVL98
 1764 052a 2B0B0000 		.4byte	0xb2b
 1765 052e 42050000 		.4byte	0x542
 1766 0532 19       		.uleb128 0x19
 1767 0533 01       		.byte	0x1
 1768 0534 50       		.byte	0x50
 1769 0535 05       		.byte	0x5
 1770 0536 03       		.byte	0x3
 1771 0537 00000000 		.4byte	.LC0
 1772 053b 19       		.uleb128 0x19
 1773 053c 01       		.byte	0x1
 1774 053d 51       		.byte	0x51
 1775 053e 02       		.byte	0x2
 1776 053f 08       		.byte	0x8
 1777 0540 98       		.byte	0x98
 1778 0541 00       		.byte	0
 1779 0542 1D       		.uleb128 0x1d
 1780 0543 D8020000 		.4byte	.LVL100
 1781 0547 01       		.byte	0x1
 1782 0548 2B0B0000 		.4byte	0xb2b
 1783 054c 19       		.uleb128 0x19
 1784 054d 01       		.byte	0x1
 1785 054e 50       		.byte	0x50
 1786 054f 05       		.byte	0x5
 1787 0550 03       		.byte	0x3
 1788 0551 00000000 		.4byte	.LC0
 1789 0555 19       		.uleb128 0x19
 1790 0556 01       		.byte	0x1
 1791 0557 51       		.byte	0x51
 1792 0558 02       		.byte	0x2
 1793 0559 08       		.byte	0x8
 1794 055a B3       		.byte	0xb3
 1795 055b 00       		.byte	0
 1796 055c 00       		.byte	0
 1797 055d 1E       		.uleb128 0x1e
 1798 055e 01       		.byte	0x1
ARM GAS  G:\Users\Jaxb\AppData\Local\Temp\ccN55nbM.s 			page 39


 1799 055f C4000000 		.4byte	.LASF88
 1800 0563 01       		.byte	0x1
 1801 0564 8C       		.byte	0x8c
 1802 0565 01       		.byte	0x1
 1803 0566 F7000000 		.4byte	0xf7
 1804 056a 01       		.byte	0x1
 1805 056b 86050000 		.4byte	0x586
 1806 056f 1F       		.uleb128 0x1f
 1807 0570 FE010000 		.4byte	.LASF53
 1808 0574 01       		.byte	0x1
 1809 0575 8C       		.byte	0x8c
 1810 0576 23040000 		.4byte	0x423
 1811 057a 20       		.uleb128 0x20
 1812 057b 73756D00 		.ascii	"sum\000"
 1813 057f 01       		.byte	0x1
 1814 0580 8E       		.byte	0x8e
 1815 0581 F7000000 		.4byte	0xf7
 1816 0585 00       		.byte	0
 1817 0586 1C       		.uleb128 0x1c
 1818 0587 01       		.byte	0x1
 1819 0588 7D000000 		.4byte	.LASF52
 1820 058c 01       		.byte	0x1
 1821 058d 77       		.byte	0x77
 1822 058e 01       		.byte	0x1
 1823 058f 90010000 		.4byte	.LFB22
 1824 0593 20020000 		.4byte	.LFE22
 1825 0597 C0020000 		.4byte	.LLST28
 1826 059b 01       		.byte	0x1
 1827 059c B3060000 		.4byte	0x6b3
 1828 05a0 15       		.uleb128 0x15
 1829 05a1 FE010000 		.4byte	.LASF53
 1830 05a5 01       		.byte	0x1
 1831 05a6 77       		.byte	0x77
 1832 05a7 B5000000 		.4byte	0xb5
 1833 05ab E0020000 		.4byte	.LLST29
 1834 05af 15       		.uleb128 0x15
 1835 05b0 59050000 		.4byte	.LASF8
 1836 05b4 01       		.byte	0x1
 1837 05b5 77       		.byte	0x77
 1838 05b6 BB000000 		.4byte	0xbb
 1839 05ba 37030000 		.4byte	.LLST30
 1840 05be 15       		.uleb128 0x15
 1841 05bf 8A020000 		.4byte	.LASF54
 1842 05c3 01       		.byte	0x1
 1843 05c4 77       		.byte	0x77
 1844 05c5 59000000 		.4byte	0x59
 1845 05c9 6B030000 		.4byte	.LLST31
 1846 05cd 21       		.uleb128 0x21
 1847 05ce 70747200 		.ascii	"ptr\000"
 1848 05d2 01       		.byte	0x1
 1849 05d3 83       		.byte	0x83
 1850 05d4 1D040000 		.4byte	0x41d
 1851 05d8 A5030000 		.4byte	.LLST32
 1852 05dc 22       		.uleb128 0x22
 1853 05dd 62020000 		.4byte	.LASF55
 1854 05e1 01       		.byte	0x1
 1855 05e2 88       		.byte	0x88
ARM GAS  G:\Users\Jaxb\AppData\Local\Temp\ccN55nbM.s 			page 40


 1856 05e3 F7000000 		.4byte	0xf7
 1857 05e7 23       		.uleb128 0x23
 1858 05e8 5D050000 		.4byte	0x55d
 1859 05ec B2010000 		.4byte	.LBB29
 1860 05f0 E0010000 		.4byte	.LBE29
 1861 05f4 01       		.byte	0x1
 1862 05f5 88       		.byte	0x88
 1863 05f6 17060000 		.4byte	0x617
 1864 05fa 24       		.uleb128 0x24
 1865 05fb 6F050000 		.4byte	0x56f
 1866 05ff E6030000 		.4byte	.LLST33
 1867 0603 25       		.uleb128 0x25
 1868 0604 B2010000 		.4byte	.LBB30
 1869 0608 E0010000 		.4byte	.LBE30
 1870 060c 26       		.uleb128 0x26
 1871 060d 7A050000 		.4byte	0x57a
 1872 0611 2A040000 		.4byte	.LLST34
 1873 0615 00       		.byte	0
 1874 0616 00       		.byte	0
 1875 0617 23       		.uleb128 0x23
 1876 0618 AC0A0000 		.4byte	0xaac
 1877 061c E0010000 		.4byte	.LBB31
 1878 0620 EE010000 		.4byte	.LBE31
 1879 0624 01       		.byte	0x1
 1880 0625 89       		.byte	0x89
 1881 0626 39060000 		.4byte	0x639
 1882 062a 27       		.uleb128 0x27
 1883 062b C40A0000 		.4byte	0xac4
 1884 062f 24       		.uleb128 0x24
 1885 0630 B90A0000 		.4byte	0xab9
 1886 0634 49040000 		.4byte	.LLST35
 1887 0638 00       		.byte	0
 1888 0639 1B       		.uleb128 0x1b
 1889 063a A8010000 		.4byte	.LVL56
 1890 063e 450B0000 		.4byte	0xb45
 1891 0642 4C060000 		.4byte	0x64c
 1892 0646 19       		.uleb128 0x19
 1893 0647 01       		.byte	0x1
 1894 0648 50       		.byte	0x50
 1895 0649 01       		.byte	0x1
 1896 064a 40       		.byte	0x40
 1897 064b 00       		.byte	0
 1898 064c 1B       		.uleb128 0x1b
 1899 064d F8010000 		.4byte	.LVL68
 1900 0651 2B0B0000 		.4byte	0xb2b
 1901 0655 69060000 		.4byte	0x669
 1902 0659 19       		.uleb128 0x19
 1903 065a 01       		.byte	0x1
 1904 065b 50       		.byte	0x50
 1905 065c 05       		.byte	0x5
 1906 065d 03       		.byte	0x3
 1907 065e 00000000 		.4byte	.LC0
 1908 0662 19       		.uleb128 0x19
 1909 0663 01       		.byte	0x1
 1910 0664 51       		.byte	0x51
 1911 0665 02       		.byte	0x2
 1912 0666 08       		.byte	0x8
ARM GAS  G:\Users\Jaxb\AppData\Local\Temp\ccN55nbM.s 			page 41


 1913 0667 82       		.byte	0x82
 1914 0668 00       		.byte	0
 1915 0669 1B       		.uleb128 0x1b
 1916 066a FE010000 		.4byte	.LVL69
 1917 066e 450B0000 		.4byte	0xb45
 1918 0672 7C060000 		.4byte	0x67c
 1919 0676 19       		.uleb128 0x19
 1920 0677 01       		.byte	0x1
 1921 0678 50       		.byte	0x50
 1922 0679 01       		.byte	0x1
 1923 067a 40       		.byte	0x40
 1924 067b 00       		.byte	0
 1925 067c 1B       		.uleb128 0x1b
 1926 067d 0C020000 		.4byte	.LVL71
 1927 0681 2B0B0000 		.4byte	0xb2b
 1928 0685 99060000 		.4byte	0x699
 1929 0689 19       		.uleb128 0x19
 1930 068a 01       		.byte	0x1
 1931 068b 50       		.byte	0x50
 1932 068c 05       		.byte	0x5
 1933 068d 03       		.byte	0x3
 1934 068e 00000000 		.4byte	.LC0
 1935 0692 19       		.uleb128 0x19
 1936 0693 01       		.byte	0x1
 1937 0694 51       		.byte	0x51
 1938 0695 02       		.byte	0x2
 1939 0696 08       		.byte	0x8
 1940 0697 84       		.byte	0x84
 1941 0698 00       		.byte	0
 1942 0699 18       		.uleb128 0x18
 1943 069a 16020000 		.4byte	.LVL75
 1944 069e 2B0B0000 		.4byte	0xb2b
 1945 06a2 19       		.uleb128 0x19
 1946 06a3 01       		.byte	0x1
 1947 06a4 50       		.byte	0x50
 1948 06a5 05       		.byte	0x5
 1949 06a6 03       		.byte	0x3
 1950 06a7 00000000 		.4byte	.LC0
 1951 06ab 19       		.uleb128 0x19
 1952 06ac 01       		.byte	0x1
 1953 06ad 51       		.byte	0x51
 1954 06ae 02       		.byte	0x2
 1955 06af 08       		.byte	0x8
 1956 06b0 79       		.byte	0x79
 1957 06b1 00       		.byte	0
 1958 06b2 00       		.byte	0
 1959 06b3 28       		.uleb128 0x28
 1960 06b4 01       		.byte	0x1
 1961 06b5 39030000 		.4byte	.LASF89
 1962 06b9 01       		.byte	0x1
 1963 06ba 62       		.byte	0x62
 1964 06bb 01       		.byte	0x1
 1965 06bc 1D040000 		.4byte	0x41d
 1966 06c0 0C010000 		.4byte	.LFB21
 1967 06c4 90010000 		.4byte	.LFE21
 1968 06c8 69040000 		.4byte	.LLST21
 1969 06cc 01       		.byte	0x1
ARM GAS  G:\Users\Jaxb\AppData\Local\Temp\ccN55nbM.s 			page 42


 1970 06cd 7D070000 		.4byte	0x77d
 1971 06d1 15       		.uleb128 0x15
 1972 06d2 FE010000 		.4byte	.LASF53
 1973 06d6 01       		.byte	0x1
 1974 06d7 62       		.byte	0x62
 1975 06d8 23040000 		.4byte	0x423
 1976 06dc 89040000 		.4byte	.LLST22
 1977 06e0 22       		.uleb128 0x22
 1978 06e1 F3010000 		.4byte	.LASF56
 1979 06e5 01       		.byte	0x1
 1980 06e6 68       		.byte	0x68
 1981 06e7 F7000000 		.4byte	0xf7
 1982 06eb 17       		.uleb128 0x17
 1983 06ec D6030000 		.4byte	.LASF43
 1984 06f0 01       		.byte	0x1
 1985 06f1 6A       		.byte	0x6a
 1986 06f2 1D040000 		.4byte	0x41d
 1987 06f6 B2040000 		.4byte	.LLST23
 1988 06fa 21       		.uleb128 0x21
 1989 06fb 706F7300 		.ascii	"pos\000"
 1990 06ff 01       		.byte	0x1
 1991 0700 6B       		.byte	0x6b
 1992 0701 53000000 		.4byte	0x53
 1993 0705 DF040000 		.4byte	.LLST24
 1994 0709 16       		.uleb128 0x16
 1995 070a 70010000 		.4byte	.LBB27
 1996 070e 74010000 		.4byte	.LBE27
 1997 0712 26070000 		.4byte	0x726
 1998 0716 17       		.uleb128 0x17
 1999 0717 0E010000 		.4byte	.LASF57
 2000 071b 01       		.byte	0x1
 2001 071c 6E       		.byte	0x6e
 2002 071d 7D070000 		.4byte	0x77d
 2003 0721 F2040000 		.4byte	.LLST27
 2004 0725 00       		.byte	0
 2005 0726 29       		.uleb128 0x29
 2006 0727 5D050000 		.4byte	0x55d
 2007 072b 12010000 		.4byte	.LBB24
 2008 072f 00000000 		.4byte	.Ldebug_ranges0+0
 2009 0733 01       		.byte	0x1
 2010 0734 68       		.byte	0x68
 2011 0735 52070000 		.4byte	0x752
 2012 0739 24       		.uleb128 0x24
 2013 073a 6F050000 		.4byte	0x56f
 2014 073e 10050000 		.4byte	.LLST25
 2015 0742 2A       		.uleb128 0x2a
 2016 0743 00000000 		.4byte	.Ldebug_ranges0+0
 2017 0747 26       		.uleb128 0x26
 2018 0748 7A050000 		.4byte	0x57a
 2019 074c 53050000 		.4byte	.LLST26
 2020 0750 00       		.byte	0
 2021 0751 00       		.byte	0
 2022 0752 1B       		.uleb128 0x1b
 2023 0753 62010000 		.4byte	.LVL49
 2024 0757 520B0000 		.4byte	0xb52
 2025 075b 66070000 		.4byte	0x766
 2026 075f 19       		.uleb128 0x19
ARM GAS  G:\Users\Jaxb\AppData\Local\Temp\ccN55nbM.s 			page 43


 2027 0760 01       		.byte	0x1
 2028 0761 50       		.byte	0x50
 2029 0762 02       		.byte	0x2
 2030 0763 75       		.byte	0x75
 2031 0764 00       		.sleb128 0
 2032 0765 00       		.byte	0
 2033 0766 18       		.uleb128 0x18
 2034 0767 6C010000 		.4byte	.LVL50
 2035 076b 5F0B0000 		.4byte	0xb5f
 2036 076f 19       		.uleb128 0x19
 2037 0770 01       		.byte	0x1
 2038 0771 50       		.byte	0x50
 2039 0772 02       		.byte	0x2
 2040 0773 76       		.byte	0x76
 2041 0774 00       		.sleb128 0
 2042 0775 19       		.uleb128 0x19
 2043 0776 01       		.byte	0x1
 2044 0777 51       		.byte	0x51
 2045 0778 02       		.byte	0x2
 2046 0779 75       		.byte	0x75
 2047 077a 00       		.sleb128 0
 2048 077b 00       		.byte	0
 2049 077c 00       		.byte	0
 2050 077d 06       		.uleb128 0x6
 2051 077e 04       		.byte	0x4
 2052 077f 4E000000 		.4byte	0x4e
 2053 0783 2B       		.uleb128 0x2b
 2054 0784 15000000 		.4byte	.LASF72
 2055 0788 01       		.byte	0x1
 2056 0789 59       		.byte	0x59
 2057 078a 01       		.byte	0x1
 2058 078b 01       		.byte	0x1
 2059 078c 9A070000 		.4byte	0x79a
 2060 0790 20       		.uleb128 0x20
 2061 0791 6900     		.ascii	"i\000"
 2062 0793 01       		.byte	0x1
 2063 0794 5B       		.byte	0x5b
 2064 0795 D6000000 		.4byte	0xd6
 2065 0799 00       		.byte	0
 2066 079a 1C       		.uleb128 0x1c
 2067 079b 01       		.byte	0x1
 2068 079c 0A040000 		.4byte	.LASF58
 2069 07a0 01       		.byte	0x1
 2070 07a1 45       		.byte	0x45
 2071 07a2 01       		.byte	0x1
 2072 07a3 D4000000 		.4byte	.LFB19
 2073 07a7 0C010000 		.4byte	.LFE19
 2074 07ab 7E050000 		.4byte	.LLST14
 2075 07af 01       		.byte	0x1
 2076 07b0 3C080000 		.4byte	0x83c
 2077 07b4 15       		.uleb128 0x15
 2078 07b5 78000000 		.4byte	.LASF59
 2079 07b9 01       		.byte	0x1
 2080 07ba 45       		.byte	0x45
 2081 07bb D6000000 		.4byte	0xd6
 2082 07bf 9E050000 		.4byte	.LLST15
 2083 07c3 15       		.uleb128 0x15
ARM GAS  G:\Users\Jaxb\AppData\Local\Temp\ccN55nbM.s 			page 44


 2084 07c4 BC020000 		.4byte	.LASF60
 2085 07c8 01       		.byte	0x1
 2086 07c9 45       		.byte	0x45
 2087 07ca 3C080000 		.4byte	0x83c
 2088 07ce BF050000 		.4byte	.LLST16
 2089 07d2 21       		.uleb128 0x21
 2090 07d3 6900     		.ascii	"i\000"
 2091 07d5 01       		.byte	0x1
 2092 07d6 47       		.byte	0x47
 2093 07d7 D6000000 		.4byte	0xd6
 2094 07db E0050000 		.4byte	.LLST17
 2095 07df 17       		.uleb128 0x17
 2096 07e0 18030000 		.4byte	.LASF61
 2097 07e4 01       		.byte	0x1
 2098 07e5 4A       		.byte	0x4a
 2099 07e6 1D040000 		.4byte	0x41d
 2100 07ea F4050000 		.4byte	.LLST18
 2101 07ee 21       		.uleb128 0x21
 2102 07ef 706F7300 		.ascii	"pos\000"
 2103 07f3 01       		.byte	0x1
 2104 07f4 4B       		.byte	0x4b
 2105 07f5 53000000 		.4byte	0x53
 2106 07f9 09060000 		.4byte	.LLST19
 2107 07fd 2C       		.uleb128 0x2c
 2108 07fe 0E080000 		.4byte	0x80e
 2109 0802 22       		.uleb128 0x22
 2110 0803 0E010000 		.4byte	.LASF57
 2111 0807 01       		.byte	0x1
 2112 0808 52       		.byte	0x52
 2113 0809 7D070000 		.4byte	0x77d
 2114 080d 00       		.byte	0
 2115 080e 23       		.uleb128 0x23
 2116 080f 8F0A0000 		.4byte	0xa8f
 2117 0813 E2000000 		.4byte	.LBB22
 2118 0817 E6000000 		.4byte	.LBE22
 2119 081b 01       		.byte	0x1
 2120 081c 4E       		.byte	0x4e
 2121 081d 2B080000 		.4byte	0x82b
 2122 0821 24       		.uleb128 0x24
 2123 0822 A00A0000 		.4byte	0xaa0
 2124 0826 1C060000 		.4byte	.LLST20
 2125 082a 00       		.byte	0
 2126 082b 18       		.uleb128 0x18
 2127 082c F4000000 		.4byte	.LVL34
 2128 0830 380B0000 		.4byte	0xb38
 2129 0834 19       		.uleb128 0x19
 2130 0835 01       		.byte	0x1
 2131 0836 50       		.byte	0x50
 2132 0837 02       		.byte	0x2
 2133 0838 77       		.byte	0x77
 2134 0839 00       		.sleb128 0
 2135 083a 00       		.byte	0
 2136 083b 00       		.byte	0
 2137 083c 06       		.uleb128 0x6
 2138 083d 04       		.byte	0x4
 2139 083e 23040000 		.4byte	0x423
 2140 0842 2D       		.uleb128 0x2d
ARM GAS  G:\Users\Jaxb\AppData\Local\Temp\ccN55nbM.s 			page 45


 2141 0843 01       		.byte	0x1
 2142 0844 B3000000 		.4byte	.LASF62
 2143 0848 01       		.byte	0x1
 2144 0849 3B       		.byte	0x3b
 2145 084a 01       		.byte	0x1
 2146 084b C8000000 		.4byte	.LFB18
 2147 084f D4000000 		.4byte	.LFE18
 2148 0853 02       		.byte	0x2
 2149 0854 7D       		.byte	0x7d
 2150 0855 00       		.sleb128 0
 2151 0856 01       		.byte	0x1
 2152 0857 76080000 		.4byte	0x876
 2153 085b 2E       		.uleb128 0x2e
 2154 085c 78000000 		.4byte	.LASF59
 2155 0860 01       		.byte	0x1
 2156 0861 3B       		.byte	0x3b
 2157 0862 D6000000 		.4byte	0xd6
 2158 0866 01       		.byte	0x1
 2159 0867 50       		.byte	0x50
 2160 0868 2E       		.uleb128 0x2e
 2161 0869 BC020000 		.4byte	.LASF60
 2162 086d 01       		.byte	0x1
 2163 086e 3B       		.byte	0x3b
 2164 086f 3C080000 		.4byte	0x83c
 2165 0873 01       		.byte	0x1
 2166 0874 51       		.byte	0x51
 2167 0875 00       		.byte	0
 2168 0876 1C       		.uleb128 0x1c
 2169 0877 01       		.byte	0x1
 2170 0878 5E030000 		.4byte	.LASF63
 2171 087c 01       		.byte	0x1
 2172 087d 33       		.byte	0x33
 2173 087e 01       		.byte	0x1
 2174 087f B0000000 		.4byte	.LFB17
 2175 0883 C8000000 		.4byte	.LFE17
 2176 0887 2F060000 		.4byte	.LLST11
 2177 088b 01       		.byte	0x1
 2178 088c C2080000 		.4byte	0x8c2
 2179 0890 15       		.uleb128 0x15
 2180 0891 78000000 		.4byte	.LASF59
 2181 0895 01       		.byte	0x1
 2182 0896 33       		.byte	0x33
 2183 0897 D6000000 		.4byte	0xd6
 2184 089b 4F060000 		.4byte	.LLST12
 2185 089f 15       		.uleb128 0x15
 2186 08a0 BC020000 		.4byte	.LASF60
 2187 08a4 01       		.byte	0x1
 2188 08a5 33       		.byte	0x33
 2189 08a6 3C080000 		.4byte	0x83c
 2190 08aa 70060000 		.4byte	.LLST13
 2191 08ae 18       		.uleb128 0x18
 2192 08af B8000000 		.4byte	.LVL27
 2193 08b3 6C0B0000 		.4byte	0xb6c
 2194 08b7 19       		.uleb128 0x19
 2195 08b8 01       		.byte	0x1
 2196 08b9 50       		.byte	0x50
 2197 08ba 05       		.byte	0x5
ARM GAS  G:\Users\Jaxb\AppData\Local\Temp\ccN55nbM.s 			page 46


 2198 08bb 03       		.byte	0x3
 2199 08bc 00000000 		.4byte	.LANCHOR0
 2200 08c0 00       		.byte	0
 2201 08c1 00       		.byte	0
 2202 08c2 2D       		.uleb128 0x2d
 2203 08c3 01       		.byte	0x1
 2204 08c4 40050000 		.4byte	.LASF64
 2205 08c8 01       		.byte	0x1
 2206 08c9 2C       		.byte	0x2c
 2207 08ca 01       		.byte	0x1
 2208 08cb A4000000 		.4byte	.LFB16
 2209 08cf B0000000 		.4byte	.LFE16
 2210 08d3 02       		.byte	0x2
 2211 08d4 7D       		.byte	0x7d
 2212 08d5 00       		.sleb128 0
 2213 08d6 01       		.byte	0x1
 2214 08d7 0E090000 		.4byte	0x90e
 2215 08db 15       		.uleb128 0x15
 2216 08dc 78000000 		.4byte	.LASF59
 2217 08e0 01       		.byte	0x1
 2218 08e1 2C       		.byte	0x2c
 2219 08e2 D6000000 		.4byte	0xd6
 2220 08e6 91060000 		.4byte	.LLST9
 2221 08ea 15       		.uleb128 0x15
 2222 08eb BC020000 		.4byte	.LASF60
 2223 08ef 01       		.byte	0x1
 2224 08f0 2C       		.byte	0x2c
 2225 08f1 3C080000 		.4byte	0x83c
 2226 08f5 B2060000 		.4byte	.LLST10
 2227 08f9 1D       		.uleb128 0x1d
 2228 08fa AA000000 		.4byte	.LVL24
 2229 08fe 01       		.byte	0x1
 2230 08ff 6C0B0000 		.4byte	0xb6c
 2231 0903 19       		.uleb128 0x19
 2232 0904 01       		.byte	0x1
 2233 0905 50       		.byte	0x50
 2234 0906 05       		.byte	0x5
 2235 0907 03       		.byte	0x3
 2236 0908 00000000 		.4byte	.LANCHOR0
 2237 090c 00       		.byte	0
 2238 090d 00       		.byte	0
 2239 090e 1C       		.uleb128 0x1c
 2240 090f 01       		.byte	0x1
 2241 0910 1C020000 		.4byte	.LASF65
 2242 0914 01       		.byte	0x1
 2243 0915 1A       		.byte	0x1a
 2244 0916 01       		.byte	0x1
 2245 0917 54000000 		.4byte	.LFB15
 2246 091b A4000000 		.4byte	.LFE15
 2247 091f D3060000 		.4byte	.LLST4
 2248 0923 01       		.byte	0x1
 2249 0924 EC090000 		.4byte	0x9ec
 2250 0928 15       		.uleb128 0x15
 2251 0929 45040000 		.4byte	.LASF66
 2252 092d 01       		.byte	0x1
 2253 092e 1A       		.byte	0x1a
 2254 092f B5000000 		.4byte	0xb5
ARM GAS  G:\Users\Jaxb\AppData\Local\Temp\ccN55nbM.s 			page 47


 2255 0933 FF060000 		.4byte	.LLST5
 2256 0937 15       		.uleb128 0x15
 2257 0938 6F010000 		.4byte	.LASF67
 2258 093c 01       		.byte	0x1
 2259 093d 1A       		.byte	0x1a
 2260 093e F7000000 		.4byte	0xf7
 2261 0942 44070000 		.4byte	.LLST6
 2262 0946 15       		.uleb128 0x15
 2263 0947 FC030000 		.4byte	.LASF68
 2264 094b 01       		.byte	0x1
 2265 094c 1A       		.byte	0x1a
 2266 094d 23040000 		.4byte	0x423
 2267 0951 89070000 		.4byte	.LLST7
 2268 0955 17       		.uleb128 0x17
 2269 0956 61040000 		.4byte	.LASF69
 2270 095a 01       		.byte	0x1
 2271 095b 1D       		.byte	0x1d
 2272 095c D6000000 		.4byte	0xd6
 2273 0960 CE070000 		.4byte	.LLST8
 2274 0964 1B       		.uleb128 0x1b
 2275 0965 6A000000 		.4byte	.LVL17
 2276 0969 380B0000 		.4byte	0xb38
 2277 096d 90090000 		.4byte	0x990
 2278 0971 19       		.uleb128 0x19
 2279 0972 01       		.byte	0x1
 2280 0973 50       		.byte	0x50
 2281 0974 05       		.byte	0x5
 2282 0975 03       		.byte	0x3
 2283 0976 2C000000 		.4byte	.LC1
 2284 097a 19       		.uleb128 0x19
 2285 097b 01       		.byte	0x1
 2286 097c 51       		.byte	0x51
 2287 097d 03       		.byte	0x3
 2288 097e F3       		.byte	0xf3
 2289 097f 01       		.uleb128 0x1
 2290 0980 50       		.byte	0x50
 2291 0981 19       		.uleb128 0x19
 2292 0982 01       		.byte	0x1
 2293 0983 52       		.byte	0x52
 2294 0984 03       		.byte	0x3
 2295 0985 F3       		.byte	0xf3
 2296 0986 01       		.uleb128 0x1
 2297 0987 51       		.byte	0x51
 2298 0988 19       		.uleb128 0x19
 2299 0989 01       		.byte	0x1
 2300 098a 53       		.byte	0x53
 2301 098b 03       		.byte	0x3
 2302 098c F3       		.byte	0xf3
 2303 098d 01       		.uleb128 0x1
 2304 098e 52       		.byte	0x52
 2305 098f 00       		.byte	0
 2306 0990 1B       		.uleb128 0x1b
 2307 0991 72000000 		.4byte	.LVL18
 2308 0995 380B0000 		.4byte	0xb38
 2309 0999 B0090000 		.4byte	0x9b0
 2310 099d 19       		.uleb128 0x19
 2311 099e 01       		.byte	0x1
ARM GAS  G:\Users\Jaxb\AppData\Local\Temp\ccN55nbM.s 			page 48


 2312 099f 50       		.byte	0x50
 2313 09a0 05       		.byte	0x5
 2314 09a1 03       		.byte	0x3
 2315 09a2 78000000 		.4byte	.LC3
 2316 09a6 19       		.uleb128 0x19
 2317 09a7 01       		.byte	0x1
 2318 09a8 51       		.byte	0x51
 2319 09a9 05       		.byte	0x5
 2320 09aa 03       		.byte	0x3
 2321 09ab 6C000000 		.4byte	.LC2
 2322 09af 00       		.byte	0
 2323 09b0 1B       		.uleb128 0x1b
 2324 09b1 7C000000 		.4byte	.LVL19
 2325 09b5 750B0000 		.4byte	0xb75
 2326 09b9 D1090000 		.4byte	0x9d1
 2327 09bd 19       		.uleb128 0x19
 2328 09be 01       		.byte	0x1
 2329 09bf 50       		.byte	0x50
 2330 09c0 05       		.byte	0x5
 2331 09c1 03       		.byte	0x3
 2332 09c2 00000000 		.4byte	.LANCHOR0
 2333 09c6 19       		.uleb128 0x19
 2334 09c7 01       		.byte	0x1
 2335 09c8 51       		.byte	0x51
 2336 09c9 01       		.byte	0x1
 2337 09ca 30       		.byte	0x30
 2338 09cb 19       		.uleb128 0x19
 2339 09cc 01       		.byte	0x1
 2340 09cd 52       		.byte	0x52
 2341 09ce 01       		.byte	0x1
 2342 09cf 30       		.byte	0x30
 2343 09d0 00       		.byte	0
 2344 09d1 1D       		.uleb128 0x1d
 2345 09d2 8C000000 		.4byte	.LVL21
 2346 09d6 01       		.byte	0x1
 2347 09d7 2B0B0000 		.4byte	0xb2b
 2348 09db 19       		.uleb128 0x19
 2349 09dc 01       		.byte	0x1
 2350 09dd 50       		.byte	0x50
 2351 09de 05       		.byte	0x5
 2352 09df 03       		.byte	0x3
 2353 09e0 00000000 		.4byte	.LC0
 2354 09e4 19       		.uleb128 0x19
 2355 09e5 01       		.byte	0x1
 2356 09e6 51       		.byte	0x51
 2357 09e7 02       		.byte	0x2
 2358 09e8 08       		.byte	0x8
 2359 09e9 28       		.byte	0x28
 2360 09ea 00       		.byte	0
 2361 09eb 00       		.byte	0
 2362 09ec 1C       		.uleb128 0x1c
 2363 09ed 01       		.byte	0x1
 2364 09ee C1020000 		.4byte	.LASF70
 2365 09f2 01       		.byte	0x1
 2366 09f3 0E       		.byte	0xe
 2367 09f4 01       		.byte	0x1
 2368 09f5 00000000 		.4byte	.LFB14
ARM GAS  G:\Users\Jaxb\AppData\Local\Temp\ccN55nbM.s 			page 49


 2369 09f9 54000000 		.4byte	.LFE14
 2370 09fd E1070000 		.4byte	.LLST0
 2371 0a01 01       		.byte	0x1
 2372 0a02 8F0A0000 		.4byte	0xa8f
 2373 0a06 17       		.uleb128 0x17
 2374 0a07 61040000 		.4byte	.LASF69
 2375 0a0b 01       		.byte	0x1
 2376 0a0c 11       		.byte	0x11
 2377 0a0d D6000000 		.4byte	0xd6
 2378 0a11 01080000 		.4byte	.LLST1
 2379 0a15 23       		.uleb128 0x23
 2380 0a16 83070000 		.4byte	0x783
 2381 0a1a 0E000000 		.4byte	.LBB18
 2382 0a1e 40000000 		.4byte	.LBE18
 2383 0a22 01       		.byte	0x1
 2384 0a23 17       		.byte	0x17
 2385 0a24 550A0000 		.4byte	0xa55
 2386 0a28 25       		.uleb128 0x25
 2387 0a29 0E000000 		.4byte	.LBB19
 2388 0a2d 40000000 		.4byte	.LBE19
 2389 0a31 26       		.uleb128 0x26
 2390 0a32 90070000 		.4byte	0x790
 2391 0a36 1F080000 		.4byte	.LLST2
 2392 0a3a 2F       		.uleb128 0x2f
 2393 0a3b D00A0000 		.4byte	0xad0
 2394 0a3f 0E000000 		.4byte	.LBB20
 2395 0a43 40000000 		.4byte	.LBE20
 2396 0a47 01       		.byte	0x1
 2397 0a48 5E       		.byte	0x5e
 2398 0a49 24       		.uleb128 0x24
 2399 0a4a DD0A0000 		.4byte	0xadd
 2400 0a4e 6F080000 		.4byte	.LLST3
 2401 0a52 00       		.byte	0
 2402 0a53 00       		.byte	0
 2403 0a54 00       		.byte	0
 2404 0a55 1B       		.uleb128 0x1b
 2405 0a56 0C000000 		.4byte	.LVL0
 2406 0a5a 7E0B0000 		.4byte	0xb7e
 2407 0a5e 760A0000 		.4byte	0xa76
 2408 0a62 19       		.uleb128 0x19
 2409 0a63 01       		.byte	0x1
 2410 0a64 50       		.byte	0x50
 2411 0a65 05       		.byte	0x5
 2412 0a66 03       		.byte	0x3
 2413 0a67 00000000 		.4byte	.LANCHOR0
 2414 0a6b 19       		.uleb128 0x19
 2415 0a6c 01       		.byte	0x1
 2416 0a6d 51       		.byte	0x51
 2417 0a6e 01       		.byte	0x1
 2418 0a6f 30       		.byte	0x30
 2419 0a70 19       		.uleb128 0x19
 2420 0a71 01       		.byte	0x1
 2421 0a72 52       		.byte	0x52
 2422 0a73 01       		.byte	0x1
 2423 0a74 31       		.byte	0x31
 2424 0a75 00       		.byte	0
 2425 0a76 18       		.uleb128 0x18
ARM GAS  G:\Users\Jaxb\AppData\Local\Temp\ccN55nbM.s 			page 50


 2426 0a77 4A000000 		.4byte	.LVL10
 2427 0a7b 2B0B0000 		.4byte	0xb2b
 2428 0a7f 19       		.uleb128 0x19
 2429 0a80 01       		.byte	0x1
 2430 0a81 50       		.byte	0x50
 2431 0a82 05       		.byte	0x5
 2432 0a83 03       		.byte	0x3
 2433 0a84 00000000 		.4byte	.LC0
 2434 0a88 19       		.uleb128 0x19
 2435 0a89 01       		.byte	0x1
 2436 0a8a 51       		.byte	0x51
 2437 0a8b 01       		.byte	0x1
 2438 0a8c 46       		.byte	0x46
 2439 0a8d 00       		.byte	0
 2440 0a8e 00       		.byte	0
 2441 0a8f 30       		.uleb128 0x30
 2442 0a90 AA020000 		.4byte	.LASF90
 2443 0a94 02       		.byte	0x2
 2444 0a95 1D       		.byte	0x1d
 2445 0a96 01       		.byte	0x1
 2446 0a97 D6000000 		.4byte	0xd6
 2447 0a9b 03       		.byte	0x3
 2448 0a9c AC0A0000 		.4byte	0xaac
 2449 0aa0 1F       		.uleb128 0x1f
 2450 0aa1 40010000 		.4byte	.LASF71
 2451 0aa5 02       		.byte	0x2
 2452 0aa6 1D       		.byte	0x1d
 2453 0aa7 53000000 		.4byte	0x53
 2454 0aab 00       		.byte	0
 2455 0aac 2B       		.uleb128 0x2b
 2456 0aad 68000000 		.4byte	.LASF73
 2457 0ab1 02       		.byte	0x2
 2458 0ab2 12       		.byte	0x12
 2459 0ab3 01       		.byte	0x1
 2460 0ab4 03       		.byte	0x3
 2461 0ab5 D00A0000 		.4byte	0xad0
 2462 0ab9 31       		.uleb128 0x31
 2463 0aba 6E657700 		.ascii	"new\000"
 2464 0abe 02       		.byte	0x2
 2465 0abf 12       		.byte	0x12
 2466 0ac0 53000000 		.4byte	0x53
 2467 0ac4 1F       		.uleb128 0x1f
 2468 0ac5 40010000 		.4byte	.LASF71
 2469 0ac9 02       		.byte	0x2
 2470 0aca 12       		.byte	0x12
 2471 0acb 53000000 		.4byte	0x53
 2472 0acf 00       		.byte	0
 2473 0ad0 2B       		.uleb128 0x2b
 2474 0ad1 15010000 		.4byte	.LASF74
 2475 0ad5 02       		.byte	0x2
 2476 0ad6 0D       		.byte	0xd
 2477 0ad7 01       		.byte	0x1
 2478 0ad8 03       		.byte	0x3
 2479 0ad9 E90A0000 		.4byte	0xae9
 2480 0add 1F       		.uleb128 0x1f
 2481 0ade 13030000 		.4byte	.LASF9
 2482 0ae2 02       		.byte	0x2
ARM GAS  G:\Users\Jaxb\AppData\Local\Temp\ccN55nbM.s 			page 51


 2483 0ae3 0D       		.byte	0xd
 2484 0ae4 53000000 		.4byte	0x53
 2485 0ae8 00       		.byte	0
 2486 0ae9 32       		.uleb128 0x32
 2487 0aea 5D050000 		.4byte	0x55d
 2488 0aee 20020000 		.4byte	.LFB23
 2489 0af2 52020000 		.4byte	.LFE23
 2490 0af6 02       		.byte	0x2
 2491 0af7 7D       		.byte	0x7d
 2492 0af8 00       		.sleb128 0
 2493 0af9 01       		.byte	0x1
 2494 0afa 110B0000 		.4byte	0xb11
 2495 0afe 24       		.uleb128 0x24
 2496 0aff 6F050000 		.4byte	0x56f
 2497 0b03 D7080000 		.4byte	.LLST36
 2498 0b07 26       		.uleb128 0x26
 2499 0b08 7A050000 		.4byte	0x57a
 2500 0b0c 28090000 		.4byte	.LLST37
 2501 0b10 00       		.byte	0
 2502 0b11 33       		.uleb128 0x33
 2503 0b12 01       		.byte	0x1
 2504 0b13 01       		.byte	0x1
 2505 0b14 0D050000 		.4byte	.LASF75
 2506 0b18 0D050000 		.4byte	.LASF75
 2507 0b1c 08       		.byte	0x8
 2508 0b1d 17       		.byte	0x17
 2509 0b1e 33       		.uleb128 0x33
 2510 0b1f 01       		.byte	0x1
 2511 0b20 01       		.byte	0x1
 2512 0b21 14020000 		.4byte	.LASF76
 2513 0b25 14020000 		.4byte	.LASF76
 2514 0b29 08       		.byte	0x8
 2515 0b2a 18       		.byte	0x18
 2516 0b2b 33       		.uleb128 0x33
 2517 0b2c 01       		.byte	0x1
 2518 0b2d 01       		.byte	0x1
 2519 0b2e 0C020000 		.4byte	.LASF77
 2520 0b32 0C020000 		.4byte	.LASF77
 2521 0b36 09       		.byte	0x9
 2522 0b37 06       		.byte	0x6
 2523 0b38 33       		.uleb128 0x33
 2524 0b39 01       		.byte	0x1
 2525 0b3a 01       		.byte	0x1
 2526 0b3b E9010000 		.4byte	.LASF78
 2527 0b3f E9010000 		.4byte	.LASF78
 2528 0b43 08       		.byte	0x8
 2529 0b44 0C       		.byte	0xc
 2530 0b45 33       		.uleb128 0x33
 2531 0b46 01       		.byte	0x1
 2532 0b47 01       		.byte	0x1
 2533 0b48 BC010000 		.4byte	.LASF79
 2534 0b4c BC010000 		.4byte	.LASF79
 2535 0b50 08       		.byte	0x8
 2536 0b51 15       		.byte	0x15
 2537 0b52 33       		.uleb128 0x33
 2538 0b53 01       		.byte	0x1
 2539 0b54 01       		.byte	0x1
ARM GAS  G:\Users\Jaxb\AppData\Local\Temp\ccN55nbM.s 			page 52


 2540 0b55 0B000000 		.4byte	.LASF80
 2541 0b59 0B000000 		.4byte	.LASF80
 2542 0b5d 08       		.byte	0x8
 2543 0b5e 0D       		.byte	0xd
 2544 0b5f 33       		.uleb128 0x33
 2545 0b60 01       		.byte	0x1
 2546 0b61 01       		.byte	0x1
 2547 0b62 00000000 		.4byte	.LASF81
 2548 0b66 00000000 		.4byte	.LASF81
 2549 0b6a 08       		.byte	0x8
 2550 0b6b 12       		.byte	0x12
 2551 0b6c 34       		.uleb128 0x34
 2552 0b6d 01       		.byte	0x1
 2553 0b6e 01       		.byte	0x1
 2554 0b6f 7600     		.ascii	"v\000"
 2555 0b71 7600     		.ascii	"v\000"
 2556 0b73 07       		.byte	0x7
 2557 0b74 24       		.byte	0x24
 2558 0b75 34       		.uleb128 0x34
 2559 0b76 01       		.byte	0x1
 2560 0b77 01       		.byte	0x1
 2561 0b78 7000     		.ascii	"p\000"
 2562 0b7a 7000     		.ascii	"p\000"
 2563 0b7c 07       		.byte	0x7
 2564 0b7d 23       		.byte	0x23
 2565 0b7e 33       		.uleb128 0x33
 2566 0b7f 01       		.byte	0x1
 2567 0b80 01       		.byte	0x1
 2568 0b81 7B030000 		.4byte	.LASF82
 2569 0b85 7B030000 		.4byte	.LASF82
 2570 0b89 07       		.byte	0x7
 2571 0b8a 1F       		.byte	0x1f
 2572 0b8b 00       		.byte	0
 2573              		.section	.debug_abbrev,"",%progbits
 2574              	.Ldebug_abbrev0:
 2575 0000 01       		.uleb128 0x1
 2576 0001 11       		.uleb128 0x11
 2577 0002 01       		.byte	0x1
 2578 0003 25       		.uleb128 0x25
 2579 0004 0E       		.uleb128 0xe
 2580 0005 13       		.uleb128 0x13
 2581 0006 0B       		.uleb128 0xb
 2582 0007 03       		.uleb128 0x3
 2583 0008 0E       		.uleb128 0xe
 2584 0009 1B       		.uleb128 0x1b
 2585 000a 0E       		.uleb128 0xe
 2586 000b 11       		.uleb128 0x11
 2587 000c 01       		.uleb128 0x1
 2588 000d 12       		.uleb128 0x12
 2589 000e 01       		.uleb128 0x1
 2590 000f 10       		.uleb128 0x10
 2591 0010 06       		.uleb128 0x6
 2592 0011 00       		.byte	0
 2593 0012 00       		.byte	0
 2594 0013 02       		.uleb128 0x2
 2595 0014 24       		.uleb128 0x24
 2596 0015 00       		.byte	0
ARM GAS  G:\Users\Jaxb\AppData\Local\Temp\ccN55nbM.s 			page 53


 2597 0016 0B       		.uleb128 0xb
 2598 0017 0B       		.uleb128 0xb
 2599 0018 3E       		.uleb128 0x3e
 2600 0019 0B       		.uleb128 0xb
 2601 001a 03       		.uleb128 0x3
 2602 001b 0E       		.uleb128 0xe
 2603 001c 00       		.byte	0
 2604 001d 00       		.byte	0
 2605 001e 03       		.uleb128 0x3
 2606 001f 13       		.uleb128 0x13
 2607 0020 01       		.byte	0x1
 2608 0021 03       		.uleb128 0x3
 2609 0022 0E       		.uleb128 0xe
 2610 0023 0B       		.uleb128 0xb
 2611 0024 0B       		.uleb128 0xb
 2612 0025 3A       		.uleb128 0x3a
 2613 0026 0B       		.uleb128 0xb
 2614 0027 3B       		.uleb128 0x3b
 2615 0028 0B       		.uleb128 0xb
 2616 0029 01       		.uleb128 0x1
 2617 002a 13       		.uleb128 0x13
 2618 002b 00       		.byte	0
 2619 002c 00       		.byte	0
 2620 002d 04       		.uleb128 0x4
 2621 002e 0D       		.uleb128 0xd
 2622 002f 00       		.byte	0
 2623 0030 03       		.uleb128 0x3
 2624 0031 0E       		.uleb128 0xe
 2625 0032 3A       		.uleb128 0x3a
 2626 0033 0B       		.uleb128 0xb
 2627 0034 3B       		.uleb128 0x3b
 2628 0035 0B       		.uleb128 0xb
 2629 0036 49       		.uleb128 0x49
 2630 0037 13       		.uleb128 0x13
 2631 0038 38       		.uleb128 0x38
 2632 0039 0A       		.uleb128 0xa
 2633 003a 00       		.byte	0
 2634 003b 00       		.byte	0
 2635 003c 05       		.uleb128 0x5
 2636 003d 26       		.uleb128 0x26
 2637 003e 00       		.byte	0
 2638 003f 49       		.uleb128 0x49
 2639 0040 13       		.uleb128 0x13
 2640 0041 00       		.byte	0
 2641 0042 00       		.byte	0
 2642 0043 06       		.uleb128 0x6
 2643 0044 0F       		.uleb128 0xf
 2644 0045 00       		.byte	0
 2645 0046 0B       		.uleb128 0xb
 2646 0047 0B       		.uleb128 0xb
 2647 0048 49       		.uleb128 0x49
 2648 0049 13       		.uleb128 0x13
 2649 004a 00       		.byte	0
 2650 004b 00       		.byte	0
 2651 004c 07       		.uleb128 0x7
 2652 004d 16       		.uleb128 0x16
 2653 004e 00       		.byte	0
ARM GAS  G:\Users\Jaxb\AppData\Local\Temp\ccN55nbM.s 			page 54


 2654 004f 03       		.uleb128 0x3
 2655 0050 0E       		.uleb128 0xe
 2656 0051 3A       		.uleb128 0x3a
 2657 0052 0B       		.uleb128 0xb
 2658 0053 3B       		.uleb128 0x3b
 2659 0054 0B       		.uleb128 0xb
 2660 0055 49       		.uleb128 0x49
 2661 0056 13       		.uleb128 0x13
 2662 0057 00       		.byte	0
 2663 0058 00       		.byte	0
 2664 0059 08       		.uleb128 0x8
 2665 005a 0F       		.uleb128 0xf
 2666 005b 00       		.byte	0
 2667 005c 0B       		.uleb128 0xb
 2668 005d 0B       		.uleb128 0xb
 2669 005e 00       		.byte	0
 2670 005f 00       		.byte	0
 2671 0060 09       		.uleb128 0x9
 2672 0061 24       		.uleb128 0x24
 2673 0062 00       		.byte	0
 2674 0063 0B       		.uleb128 0xb
 2675 0064 0B       		.uleb128 0xb
 2676 0065 3E       		.uleb128 0x3e
 2677 0066 0B       		.uleb128 0xb
 2678 0067 03       		.uleb128 0x3
 2679 0068 08       		.uleb128 0x8
 2680 0069 00       		.byte	0
 2681 006a 00       		.byte	0
 2682 006b 0A       		.uleb128 0xa
 2683 006c 35       		.uleb128 0x35
 2684 006d 00       		.byte	0
 2685 006e 49       		.uleb128 0x49
 2686 006f 13       		.uleb128 0x13
 2687 0070 00       		.byte	0
 2688 0071 00       		.byte	0
 2689 0072 0B       		.uleb128 0xb
 2690 0073 34       		.uleb128 0x34
 2691 0074 00       		.byte	0
 2692 0075 03       		.uleb128 0x3
 2693 0076 0E       		.uleb128 0xe
 2694 0077 3A       		.uleb128 0x3a
 2695 0078 0B       		.uleb128 0xb
 2696 0079 3B       		.uleb128 0x3b
 2697 007a 0B       		.uleb128 0xb
 2698 007b 49       		.uleb128 0x49
 2699 007c 13       		.uleb128 0x13
 2700 007d 3F       		.uleb128 0x3f
 2701 007e 0C       		.uleb128 0xc
 2702 007f 3C       		.uleb128 0x3c
 2703 0080 0C       		.uleb128 0xc
 2704 0081 00       		.byte	0
 2705 0082 00       		.byte	0
 2706 0083 0C       		.uleb128 0xc
 2707 0084 15       		.uleb128 0x15
 2708 0085 01       		.byte	0x1
 2709 0086 27       		.uleb128 0x27
 2710 0087 0C       		.uleb128 0xc
ARM GAS  G:\Users\Jaxb\AppData\Local\Temp\ccN55nbM.s 			page 55


 2711 0088 49       		.uleb128 0x49
 2712 0089 13       		.uleb128 0x13
 2713 008a 01       		.uleb128 0x1
 2714 008b 13       		.uleb128 0x13
 2715 008c 00       		.byte	0
 2716 008d 00       		.byte	0
 2717 008e 0D       		.uleb128 0xd
 2718 008f 05       		.uleb128 0x5
 2719 0090 00       		.byte	0
 2720 0091 49       		.uleb128 0x49
 2721 0092 13       		.uleb128 0x13
 2722 0093 00       		.byte	0
 2723 0094 00       		.byte	0
 2724 0095 0E       		.uleb128 0xe
 2725 0096 04       		.uleb128 0x4
 2726 0097 01       		.byte	0x1
 2727 0098 03       		.uleb128 0x3
 2728 0099 0E       		.uleb128 0xe
 2729 009a 3E       		.uleb128 0x3e
 2730 009b 0B       		.uleb128 0xb
 2731 009c 0B       		.uleb128 0xb
 2732 009d 0B       		.uleb128 0xb
 2733 009e 49       		.uleb128 0x49
 2734 009f 13       		.uleb128 0x13
 2735 00a0 3A       		.uleb128 0x3a
 2736 00a1 0B       		.uleb128 0xb
 2737 00a2 3B       		.uleb128 0x3b
 2738 00a3 0B       		.uleb128 0xb
 2739 00a4 01       		.uleb128 0x1
 2740 00a5 13       		.uleb128 0x13
 2741 00a6 00       		.byte	0
 2742 00a7 00       		.byte	0
 2743 00a8 0F       		.uleb128 0xf
 2744 00a9 28       		.uleb128 0x28
 2745 00aa 00       		.byte	0
 2746 00ab 03       		.uleb128 0x3
 2747 00ac 0E       		.uleb128 0xe
 2748 00ad 1C       		.uleb128 0x1c
 2749 00ae 0B       		.uleb128 0xb
 2750 00af 00       		.byte	0
 2751 00b0 00       		.byte	0
 2752 00b1 10       		.uleb128 0x10
 2753 00b2 16       		.uleb128 0x16
 2754 00b3 00       		.byte	0
 2755 00b4 03       		.uleb128 0x3
 2756 00b5 08       		.uleb128 0x8
 2757 00b6 3A       		.uleb128 0x3a
 2758 00b7 0B       		.uleb128 0xb
 2759 00b8 3B       		.uleb128 0x3b
 2760 00b9 0B       		.uleb128 0xb
 2761 00ba 49       		.uleb128 0x49
 2762 00bb 13       		.uleb128 0x13
 2763 00bc 00       		.byte	0
 2764 00bd 00       		.byte	0
 2765 00be 11       		.uleb128 0x11
 2766 00bf 34       		.uleb128 0x34
 2767 00c0 00       		.byte	0
ARM GAS  G:\Users\Jaxb\AppData\Local\Temp\ccN55nbM.s 			page 56


 2768 00c1 03       		.uleb128 0x3
 2769 00c2 0E       		.uleb128 0xe
 2770 00c3 3A       		.uleb128 0x3a
 2771 00c4 0B       		.uleb128 0xb
 2772 00c5 3B       		.uleb128 0x3b
 2773 00c6 0B       		.uleb128 0xb
 2774 00c7 49       		.uleb128 0x49
 2775 00c8 13       		.uleb128 0x13
 2776 00c9 02       		.uleb128 0x2
 2777 00ca 0A       		.uleb128 0xa
 2778 00cb 00       		.byte	0
 2779 00cc 00       		.byte	0
 2780 00cd 12       		.uleb128 0x12
 2781 00ce 01       		.uleb128 0x1
 2782 00cf 01       		.byte	0x1
 2783 00d0 49       		.uleb128 0x49
 2784 00d1 13       		.uleb128 0x13
 2785 00d2 01       		.uleb128 0x1
 2786 00d3 13       		.uleb128 0x13
 2787 00d4 00       		.byte	0
 2788 00d5 00       		.byte	0
 2789 00d6 13       		.uleb128 0x13
 2790 00d7 21       		.uleb128 0x21
 2791 00d8 00       		.byte	0
 2792 00d9 49       		.uleb128 0x49
 2793 00da 13       		.uleb128 0x13
 2794 00db 2F       		.uleb128 0x2f
 2795 00dc 0B       		.uleb128 0xb
 2796 00dd 00       		.byte	0
 2797 00de 00       		.byte	0
 2798 00df 14       		.uleb128 0x14
 2799 00e0 2E       		.uleb128 0x2e
 2800 00e1 01       		.byte	0x1
 2801 00e2 3F       		.uleb128 0x3f
 2802 00e3 0C       		.uleb128 0xc
 2803 00e4 03       		.uleb128 0x3
 2804 00e5 0E       		.uleb128 0xe
 2805 00e6 3A       		.uleb128 0x3a
 2806 00e7 0B       		.uleb128 0xb
 2807 00e8 3B       		.uleb128 0x3b
 2808 00e9 0B       		.uleb128 0xb
 2809 00ea 27       		.uleb128 0x27
 2810 00eb 0C       		.uleb128 0xc
 2811 00ec 11       		.uleb128 0x11
 2812 00ed 01       		.uleb128 0x1
 2813 00ee 12       		.uleb128 0x12
 2814 00ef 01       		.uleb128 0x1
 2815 00f0 40       		.uleb128 0x40
 2816 00f1 06       		.uleb128 0x6
 2817 00f2 9642     		.uleb128 0x2116
 2818 00f4 0C       		.uleb128 0xc
 2819 00f5 01       		.uleb128 0x1
 2820 00f6 13       		.uleb128 0x13
 2821 00f7 00       		.byte	0
 2822 00f8 00       		.byte	0
 2823 00f9 15       		.uleb128 0x15
 2824 00fa 05       		.uleb128 0x5
ARM GAS  G:\Users\Jaxb\AppData\Local\Temp\ccN55nbM.s 			page 57


 2825 00fb 00       		.byte	0
 2826 00fc 03       		.uleb128 0x3
 2827 00fd 0E       		.uleb128 0xe
 2828 00fe 3A       		.uleb128 0x3a
 2829 00ff 0B       		.uleb128 0xb
 2830 0100 3B       		.uleb128 0x3b
 2831 0101 0B       		.uleb128 0xb
 2832 0102 49       		.uleb128 0x49
 2833 0103 13       		.uleb128 0x13
 2834 0104 02       		.uleb128 0x2
 2835 0105 06       		.uleb128 0x6
 2836 0106 00       		.byte	0
 2837 0107 00       		.byte	0
 2838 0108 16       		.uleb128 0x16
 2839 0109 0B       		.uleb128 0xb
 2840 010a 01       		.byte	0x1
 2841 010b 11       		.uleb128 0x11
 2842 010c 01       		.uleb128 0x1
 2843 010d 12       		.uleb128 0x12
 2844 010e 01       		.uleb128 0x1
 2845 010f 01       		.uleb128 0x1
 2846 0110 13       		.uleb128 0x13
 2847 0111 00       		.byte	0
 2848 0112 00       		.byte	0
 2849 0113 17       		.uleb128 0x17
 2850 0114 34       		.uleb128 0x34
 2851 0115 00       		.byte	0
 2852 0116 03       		.uleb128 0x3
 2853 0117 0E       		.uleb128 0xe
 2854 0118 3A       		.uleb128 0x3a
 2855 0119 0B       		.uleb128 0xb
 2856 011a 3B       		.uleb128 0x3b
 2857 011b 0B       		.uleb128 0xb
 2858 011c 49       		.uleb128 0x49
 2859 011d 13       		.uleb128 0x13
 2860 011e 02       		.uleb128 0x2
 2861 011f 06       		.uleb128 0x6
 2862 0120 00       		.byte	0
 2863 0121 00       		.byte	0
 2864 0122 18       		.uleb128 0x18
 2865 0123 898201   		.uleb128 0x4109
 2866 0126 01       		.byte	0x1
 2867 0127 11       		.uleb128 0x11
 2868 0128 01       		.uleb128 0x1
 2869 0129 31       		.uleb128 0x31
 2870 012a 13       		.uleb128 0x13
 2871 012b 00       		.byte	0
 2872 012c 00       		.byte	0
 2873 012d 19       		.uleb128 0x19
 2874 012e 8A8201   		.uleb128 0x410a
 2875 0131 00       		.byte	0
 2876 0132 02       		.uleb128 0x2
 2877 0133 0A       		.uleb128 0xa
 2878 0134 9142     		.uleb128 0x2111
 2879 0136 0A       		.uleb128 0xa
 2880 0137 00       		.byte	0
 2881 0138 00       		.byte	0
ARM GAS  G:\Users\Jaxb\AppData\Local\Temp\ccN55nbM.s 			page 58


 2882 0139 1A       		.uleb128 0x1a
 2883 013a 898201   		.uleb128 0x4109
 2884 013d 01       		.byte	0x1
 2885 013e 11       		.uleb128 0x11
 2886 013f 01       		.uleb128 0x1
 2887 0140 9542     		.uleb128 0x2115
 2888 0142 0C       		.uleb128 0xc
 2889 0143 31       		.uleb128 0x31
 2890 0144 13       		.uleb128 0x13
 2891 0145 01       		.uleb128 0x1
 2892 0146 13       		.uleb128 0x13
 2893 0147 00       		.byte	0
 2894 0148 00       		.byte	0
 2895 0149 1B       		.uleb128 0x1b
 2896 014a 898201   		.uleb128 0x4109
 2897 014d 01       		.byte	0x1
 2898 014e 11       		.uleb128 0x11
 2899 014f 01       		.uleb128 0x1
 2900 0150 31       		.uleb128 0x31
 2901 0151 13       		.uleb128 0x13
 2902 0152 01       		.uleb128 0x1
 2903 0153 13       		.uleb128 0x13
 2904 0154 00       		.byte	0
 2905 0155 00       		.byte	0
 2906 0156 1C       		.uleb128 0x1c
 2907 0157 2E       		.uleb128 0x2e
 2908 0158 01       		.byte	0x1
 2909 0159 3F       		.uleb128 0x3f
 2910 015a 0C       		.uleb128 0xc
 2911 015b 03       		.uleb128 0x3
 2912 015c 0E       		.uleb128 0xe
 2913 015d 3A       		.uleb128 0x3a
 2914 015e 0B       		.uleb128 0xb
 2915 015f 3B       		.uleb128 0x3b
 2916 0160 0B       		.uleb128 0xb
 2917 0161 27       		.uleb128 0x27
 2918 0162 0C       		.uleb128 0xc
 2919 0163 11       		.uleb128 0x11
 2920 0164 01       		.uleb128 0x1
 2921 0165 12       		.uleb128 0x12
 2922 0166 01       		.uleb128 0x1
 2923 0167 40       		.uleb128 0x40
 2924 0168 06       		.uleb128 0x6
 2925 0169 9742     		.uleb128 0x2117
 2926 016b 0C       		.uleb128 0xc
 2927 016c 01       		.uleb128 0x1
 2928 016d 13       		.uleb128 0x13
 2929 016e 00       		.byte	0
 2930 016f 00       		.byte	0
 2931 0170 1D       		.uleb128 0x1d
 2932 0171 898201   		.uleb128 0x4109
 2933 0174 01       		.byte	0x1
 2934 0175 11       		.uleb128 0x11
 2935 0176 01       		.uleb128 0x1
 2936 0177 9542     		.uleb128 0x2115
 2937 0179 0C       		.uleb128 0xc
 2938 017a 31       		.uleb128 0x31
ARM GAS  G:\Users\Jaxb\AppData\Local\Temp\ccN55nbM.s 			page 59


 2939 017b 13       		.uleb128 0x13
 2940 017c 00       		.byte	0
 2941 017d 00       		.byte	0
 2942 017e 1E       		.uleb128 0x1e
 2943 017f 2E       		.uleb128 0x2e
 2944 0180 01       		.byte	0x1
 2945 0181 3F       		.uleb128 0x3f
 2946 0182 0C       		.uleb128 0xc
 2947 0183 03       		.uleb128 0x3
 2948 0184 0E       		.uleb128 0xe
 2949 0185 3A       		.uleb128 0x3a
 2950 0186 0B       		.uleb128 0xb
 2951 0187 3B       		.uleb128 0x3b
 2952 0188 0B       		.uleb128 0xb
 2953 0189 27       		.uleb128 0x27
 2954 018a 0C       		.uleb128 0xc
 2955 018b 49       		.uleb128 0x49
 2956 018c 13       		.uleb128 0x13
 2957 018d 20       		.uleb128 0x20
 2958 018e 0B       		.uleb128 0xb
 2959 018f 01       		.uleb128 0x1
 2960 0190 13       		.uleb128 0x13
 2961 0191 00       		.byte	0
 2962 0192 00       		.byte	0
 2963 0193 1F       		.uleb128 0x1f
 2964 0194 05       		.uleb128 0x5
 2965 0195 00       		.byte	0
 2966 0196 03       		.uleb128 0x3
 2967 0197 0E       		.uleb128 0xe
 2968 0198 3A       		.uleb128 0x3a
 2969 0199 0B       		.uleb128 0xb
 2970 019a 3B       		.uleb128 0x3b
 2971 019b 0B       		.uleb128 0xb
 2972 019c 49       		.uleb128 0x49
 2973 019d 13       		.uleb128 0x13
 2974 019e 00       		.byte	0
 2975 019f 00       		.byte	0
 2976 01a0 20       		.uleb128 0x20
 2977 01a1 34       		.uleb128 0x34
 2978 01a2 00       		.byte	0
 2979 01a3 03       		.uleb128 0x3
 2980 01a4 08       		.uleb128 0x8
 2981 01a5 3A       		.uleb128 0x3a
 2982 01a6 0B       		.uleb128 0xb
 2983 01a7 3B       		.uleb128 0x3b
 2984 01a8 0B       		.uleb128 0xb
 2985 01a9 49       		.uleb128 0x49
 2986 01aa 13       		.uleb128 0x13
 2987 01ab 00       		.byte	0
 2988 01ac 00       		.byte	0
 2989 01ad 21       		.uleb128 0x21
 2990 01ae 34       		.uleb128 0x34
 2991 01af 00       		.byte	0
 2992 01b0 03       		.uleb128 0x3
 2993 01b1 08       		.uleb128 0x8
 2994 01b2 3A       		.uleb128 0x3a
 2995 01b3 0B       		.uleb128 0xb
ARM GAS  G:\Users\Jaxb\AppData\Local\Temp\ccN55nbM.s 			page 60


 2996 01b4 3B       		.uleb128 0x3b
 2997 01b5 0B       		.uleb128 0xb
 2998 01b6 49       		.uleb128 0x49
 2999 01b7 13       		.uleb128 0x13
 3000 01b8 02       		.uleb128 0x2
 3001 01b9 06       		.uleb128 0x6
 3002 01ba 00       		.byte	0
 3003 01bb 00       		.byte	0
 3004 01bc 22       		.uleb128 0x22
 3005 01bd 34       		.uleb128 0x34
 3006 01be 00       		.byte	0
 3007 01bf 03       		.uleb128 0x3
 3008 01c0 0E       		.uleb128 0xe
 3009 01c1 3A       		.uleb128 0x3a
 3010 01c2 0B       		.uleb128 0xb
 3011 01c3 3B       		.uleb128 0x3b
 3012 01c4 0B       		.uleb128 0xb
 3013 01c5 49       		.uleb128 0x49
 3014 01c6 13       		.uleb128 0x13
 3015 01c7 00       		.byte	0
 3016 01c8 00       		.byte	0
 3017 01c9 23       		.uleb128 0x23
 3018 01ca 1D       		.uleb128 0x1d
 3019 01cb 01       		.byte	0x1
 3020 01cc 31       		.uleb128 0x31
 3021 01cd 13       		.uleb128 0x13
 3022 01ce 11       		.uleb128 0x11
 3023 01cf 01       		.uleb128 0x1
 3024 01d0 12       		.uleb128 0x12
 3025 01d1 01       		.uleb128 0x1
 3026 01d2 58       		.uleb128 0x58
 3027 01d3 0B       		.uleb128 0xb
 3028 01d4 59       		.uleb128 0x59
 3029 01d5 0B       		.uleb128 0xb
 3030 01d6 01       		.uleb128 0x1
 3031 01d7 13       		.uleb128 0x13
 3032 01d8 00       		.byte	0
 3033 01d9 00       		.byte	0
 3034 01da 24       		.uleb128 0x24
 3035 01db 05       		.uleb128 0x5
 3036 01dc 00       		.byte	0
 3037 01dd 31       		.uleb128 0x31
 3038 01de 13       		.uleb128 0x13
 3039 01df 02       		.uleb128 0x2
 3040 01e0 06       		.uleb128 0x6
 3041 01e1 00       		.byte	0
 3042 01e2 00       		.byte	0
 3043 01e3 25       		.uleb128 0x25
 3044 01e4 0B       		.uleb128 0xb
 3045 01e5 01       		.byte	0x1
 3046 01e6 11       		.uleb128 0x11
 3047 01e7 01       		.uleb128 0x1
 3048 01e8 12       		.uleb128 0x12
 3049 01e9 01       		.uleb128 0x1
 3050 01ea 00       		.byte	0
 3051 01eb 00       		.byte	0
 3052 01ec 26       		.uleb128 0x26
ARM GAS  G:\Users\Jaxb\AppData\Local\Temp\ccN55nbM.s 			page 61


 3053 01ed 34       		.uleb128 0x34
 3054 01ee 00       		.byte	0
 3055 01ef 31       		.uleb128 0x31
 3056 01f0 13       		.uleb128 0x13
 3057 01f1 02       		.uleb128 0x2
 3058 01f2 06       		.uleb128 0x6
 3059 01f3 00       		.byte	0
 3060 01f4 00       		.byte	0
 3061 01f5 27       		.uleb128 0x27
 3062 01f6 05       		.uleb128 0x5
 3063 01f7 00       		.byte	0
 3064 01f8 31       		.uleb128 0x31
 3065 01f9 13       		.uleb128 0x13
 3066 01fa 00       		.byte	0
 3067 01fb 00       		.byte	0
 3068 01fc 28       		.uleb128 0x28
 3069 01fd 2E       		.uleb128 0x2e
 3070 01fe 01       		.byte	0x1
 3071 01ff 3F       		.uleb128 0x3f
 3072 0200 0C       		.uleb128 0xc
 3073 0201 03       		.uleb128 0x3
 3074 0202 0E       		.uleb128 0xe
 3075 0203 3A       		.uleb128 0x3a
 3076 0204 0B       		.uleb128 0xb
 3077 0205 3B       		.uleb128 0x3b
 3078 0206 0B       		.uleb128 0xb
 3079 0207 27       		.uleb128 0x27
 3080 0208 0C       		.uleb128 0xc
 3081 0209 49       		.uleb128 0x49
 3082 020a 13       		.uleb128 0x13
 3083 020b 11       		.uleb128 0x11
 3084 020c 01       		.uleb128 0x1
 3085 020d 12       		.uleb128 0x12
 3086 020e 01       		.uleb128 0x1
 3087 020f 40       		.uleb128 0x40
 3088 0210 06       		.uleb128 0x6
 3089 0211 9742     		.uleb128 0x2117
 3090 0213 0C       		.uleb128 0xc
 3091 0214 01       		.uleb128 0x1
 3092 0215 13       		.uleb128 0x13
 3093 0216 00       		.byte	0
 3094 0217 00       		.byte	0
 3095 0218 29       		.uleb128 0x29
 3096 0219 1D       		.uleb128 0x1d
 3097 021a 01       		.byte	0x1
 3098 021b 31       		.uleb128 0x31
 3099 021c 13       		.uleb128 0x13
 3100 021d 52       		.uleb128 0x52
 3101 021e 01       		.uleb128 0x1
 3102 021f 55       		.uleb128 0x55
 3103 0220 06       		.uleb128 0x6
 3104 0221 58       		.uleb128 0x58
 3105 0222 0B       		.uleb128 0xb
 3106 0223 59       		.uleb128 0x59
 3107 0224 0B       		.uleb128 0xb
 3108 0225 01       		.uleb128 0x1
 3109 0226 13       		.uleb128 0x13
ARM GAS  G:\Users\Jaxb\AppData\Local\Temp\ccN55nbM.s 			page 62


 3110 0227 00       		.byte	0
 3111 0228 00       		.byte	0
 3112 0229 2A       		.uleb128 0x2a
 3113 022a 0B       		.uleb128 0xb
 3114 022b 01       		.byte	0x1
 3115 022c 55       		.uleb128 0x55
 3116 022d 06       		.uleb128 0x6
 3117 022e 00       		.byte	0
 3118 022f 00       		.byte	0
 3119 0230 2B       		.uleb128 0x2b
 3120 0231 2E       		.uleb128 0x2e
 3121 0232 01       		.byte	0x1
 3122 0233 03       		.uleb128 0x3
 3123 0234 0E       		.uleb128 0xe
 3124 0235 3A       		.uleb128 0x3a
 3125 0236 0B       		.uleb128 0xb
 3126 0237 3B       		.uleb128 0x3b
 3127 0238 0B       		.uleb128 0xb
 3128 0239 27       		.uleb128 0x27
 3129 023a 0C       		.uleb128 0xc
 3130 023b 20       		.uleb128 0x20
 3131 023c 0B       		.uleb128 0xb
 3132 023d 01       		.uleb128 0x1
 3133 023e 13       		.uleb128 0x13
 3134 023f 00       		.byte	0
 3135 0240 00       		.byte	0
 3136 0241 2C       		.uleb128 0x2c
 3137 0242 0B       		.uleb128 0xb
 3138 0243 01       		.byte	0x1
 3139 0244 01       		.uleb128 0x1
 3140 0245 13       		.uleb128 0x13
 3141 0246 00       		.byte	0
 3142 0247 00       		.byte	0
 3143 0248 2D       		.uleb128 0x2d
 3144 0249 2E       		.uleb128 0x2e
 3145 024a 01       		.byte	0x1
 3146 024b 3F       		.uleb128 0x3f
 3147 024c 0C       		.uleb128 0xc
 3148 024d 03       		.uleb128 0x3
 3149 024e 0E       		.uleb128 0xe
 3150 024f 3A       		.uleb128 0x3a
 3151 0250 0B       		.uleb128 0xb
 3152 0251 3B       		.uleb128 0x3b
 3153 0252 0B       		.uleb128 0xb
 3154 0253 27       		.uleb128 0x27
 3155 0254 0C       		.uleb128 0xc
 3156 0255 11       		.uleb128 0x11
 3157 0256 01       		.uleb128 0x1
 3158 0257 12       		.uleb128 0x12
 3159 0258 01       		.uleb128 0x1
 3160 0259 40       		.uleb128 0x40
 3161 025a 0A       		.uleb128 0xa
 3162 025b 9742     		.uleb128 0x2117
 3163 025d 0C       		.uleb128 0xc
 3164 025e 01       		.uleb128 0x1
 3165 025f 13       		.uleb128 0x13
 3166 0260 00       		.byte	0
ARM GAS  G:\Users\Jaxb\AppData\Local\Temp\ccN55nbM.s 			page 63


 3167 0261 00       		.byte	0
 3168 0262 2E       		.uleb128 0x2e
 3169 0263 05       		.uleb128 0x5
 3170 0264 00       		.byte	0
 3171 0265 03       		.uleb128 0x3
 3172 0266 0E       		.uleb128 0xe
 3173 0267 3A       		.uleb128 0x3a
 3174 0268 0B       		.uleb128 0xb
 3175 0269 3B       		.uleb128 0x3b
 3176 026a 0B       		.uleb128 0xb
 3177 026b 49       		.uleb128 0x49
 3178 026c 13       		.uleb128 0x13
 3179 026d 02       		.uleb128 0x2
 3180 026e 0A       		.uleb128 0xa
 3181 026f 00       		.byte	0
 3182 0270 00       		.byte	0
 3183 0271 2F       		.uleb128 0x2f
 3184 0272 1D       		.uleb128 0x1d
 3185 0273 01       		.byte	0x1
 3186 0274 31       		.uleb128 0x31
 3187 0275 13       		.uleb128 0x13
 3188 0276 11       		.uleb128 0x11
 3189 0277 01       		.uleb128 0x1
 3190 0278 12       		.uleb128 0x12
 3191 0279 01       		.uleb128 0x1
 3192 027a 58       		.uleb128 0x58
 3193 027b 0B       		.uleb128 0xb
 3194 027c 59       		.uleb128 0x59
 3195 027d 0B       		.uleb128 0xb
 3196 027e 00       		.byte	0
 3197 027f 00       		.byte	0
 3198 0280 30       		.uleb128 0x30
 3199 0281 2E       		.uleb128 0x2e
 3200 0282 01       		.byte	0x1
 3201 0283 03       		.uleb128 0x3
 3202 0284 0E       		.uleb128 0xe
 3203 0285 3A       		.uleb128 0x3a
 3204 0286 0B       		.uleb128 0xb
 3205 0287 3B       		.uleb128 0x3b
 3206 0288 0B       		.uleb128 0xb
 3207 0289 27       		.uleb128 0x27
 3208 028a 0C       		.uleb128 0xc
 3209 028b 49       		.uleb128 0x49
 3210 028c 13       		.uleb128 0x13
 3211 028d 20       		.uleb128 0x20
 3212 028e 0B       		.uleb128 0xb
 3213 028f 01       		.uleb128 0x1
 3214 0290 13       		.uleb128 0x13
 3215 0291 00       		.byte	0
 3216 0292 00       		.byte	0
 3217 0293 31       		.uleb128 0x31
 3218 0294 05       		.uleb128 0x5
 3219 0295 00       		.byte	0
 3220 0296 03       		.uleb128 0x3
 3221 0297 08       		.uleb128 0x8
 3222 0298 3A       		.uleb128 0x3a
 3223 0299 0B       		.uleb128 0xb
ARM GAS  G:\Users\Jaxb\AppData\Local\Temp\ccN55nbM.s 			page 64


 3224 029a 3B       		.uleb128 0x3b
 3225 029b 0B       		.uleb128 0xb
 3226 029c 49       		.uleb128 0x49
 3227 029d 13       		.uleb128 0x13
 3228 029e 00       		.byte	0
 3229 029f 00       		.byte	0
 3230 02a0 32       		.uleb128 0x32
 3231 02a1 2E       		.uleb128 0x2e
 3232 02a2 01       		.byte	0x1
 3233 02a3 31       		.uleb128 0x31
 3234 02a4 13       		.uleb128 0x13
 3235 02a5 11       		.uleb128 0x11
 3236 02a6 01       		.uleb128 0x1
 3237 02a7 12       		.uleb128 0x12
 3238 02a8 01       		.uleb128 0x1
 3239 02a9 40       		.uleb128 0x40
 3240 02aa 0A       		.uleb128 0xa
 3241 02ab 9742     		.uleb128 0x2117
 3242 02ad 0C       		.uleb128 0xc
 3243 02ae 01       		.uleb128 0x1
 3244 02af 13       		.uleb128 0x13
 3245 02b0 00       		.byte	0
 3246 02b1 00       		.byte	0
 3247 02b2 33       		.uleb128 0x33
 3248 02b3 2E       		.uleb128 0x2e
 3249 02b4 00       		.byte	0
 3250 02b5 3F       		.uleb128 0x3f
 3251 02b6 0C       		.uleb128 0xc
 3252 02b7 3C       		.uleb128 0x3c
 3253 02b8 0C       		.uleb128 0xc
 3254 02b9 8740     		.uleb128 0x2007
 3255 02bb 0E       		.uleb128 0xe
 3256 02bc 03       		.uleb128 0x3
 3257 02bd 0E       		.uleb128 0xe
 3258 02be 3A       		.uleb128 0x3a
 3259 02bf 0B       		.uleb128 0xb
 3260 02c0 3B       		.uleb128 0x3b
 3261 02c1 0B       		.uleb128 0xb
 3262 02c2 00       		.byte	0
 3263 02c3 00       		.byte	0
 3264 02c4 34       		.uleb128 0x34
 3265 02c5 2E       		.uleb128 0x2e
 3266 02c6 00       		.byte	0
 3267 02c7 3F       		.uleb128 0x3f
 3268 02c8 0C       		.uleb128 0xc
 3269 02c9 3C       		.uleb128 0x3c
 3270 02ca 0C       		.uleb128 0xc
 3271 02cb 8740     		.uleb128 0x2007
 3272 02cd 08       		.uleb128 0x8
 3273 02ce 03       		.uleb128 0x3
 3274 02cf 08       		.uleb128 0x8
 3275 02d0 3A       		.uleb128 0x3a
 3276 02d1 0B       		.uleb128 0xb
 3277 02d2 3B       		.uleb128 0x3b
 3278 02d3 0B       		.uleb128 0xb
 3279 02d4 00       		.byte	0
 3280 02d5 00       		.byte	0
ARM GAS  G:\Users\Jaxb\AppData\Local\Temp\ccN55nbM.s 			page 65


 3281 02d6 00       		.byte	0
 3282              		.section	.debug_loc,"",%progbits
 3283              	.Ldebug_loc0:
 3284              	.LLST42:
 3285 0000 14030000 		.4byte	.LFB26-.Ltext0
 3286 0004 16030000 		.4byte	.LCFI21-.Ltext0
 3287 0008 0200     		.2byte	0x2
 3288 000a 7D       		.byte	0x7d
 3289 000b 00       		.sleb128 0
 3290 000c 16030000 		.4byte	.LCFI21-.Ltext0
 3291 0010 90030000 		.4byte	.LFE26-.Ltext0
 3292 0014 0200     		.2byte	0x2
 3293 0016 7D       		.byte	0x7d
 3294 0017 10       		.sleb128 16
 3295 0018 00000000 		.4byte	0
 3296 001c 00000000 		.4byte	0
 3297              	.LLST43:
 3298 0020 14030000 		.4byte	.LVL107-.Ltext0
 3299 0024 20030000 		.4byte	.LVL108-.Ltext0
 3300 0028 0100     		.2byte	0x1
 3301 002a 50       		.byte	0x50
 3302 002b 20030000 		.4byte	.LVL108-.Ltext0
 3303 002f 6E030000 		.4byte	.LVL118-.Ltext0
 3304 0033 0100     		.2byte	0x1
 3305 0035 54       		.byte	0x54
 3306 0036 6E030000 		.4byte	.LVL118-.Ltext0
 3307 003a 74030000 		.4byte	.LVL119-.Ltext0
 3308 003e 0400     		.2byte	0x4
 3309 0040 F3       		.byte	0xf3
 3310 0041 01       		.uleb128 0x1
 3311 0042 50       		.byte	0x50
 3312 0043 9F       		.byte	0x9f
 3313 0044 74030000 		.4byte	.LVL119-.Ltext0
 3314 0048 78030000 		.4byte	.LVL121-.Ltext0
 3315 004c 0100     		.2byte	0x1
 3316 004e 50       		.byte	0x50
 3317 004f 78030000 		.4byte	.LVL121-.Ltext0
 3318 0053 90030000 		.4byte	.LFE26-.Ltext0
 3319 0057 0100     		.2byte	0x1
 3320 0059 54       		.byte	0x54
 3321 005a 00000000 		.4byte	0
 3322 005e 00000000 		.4byte	0
 3323              	.LLST44:
 3324 0062 14030000 		.4byte	.LVL107-.Ltext0
 3325 0066 20030000 		.4byte	.LVL108-.Ltext0
 3326 006a 0100     		.2byte	0x1
 3327 006c 51       		.byte	0x51
 3328 006d 20030000 		.4byte	.LVL108-.Ltext0
 3329 0071 6E030000 		.4byte	.LVL118-.Ltext0
 3330 0075 0100     		.2byte	0x1
 3331 0077 55       		.byte	0x55
 3332 0078 6E030000 		.4byte	.LVL118-.Ltext0
 3333 007c 74030000 		.4byte	.LVL119-.Ltext0
 3334 0080 0400     		.2byte	0x4
 3335 0082 F3       		.byte	0xf3
 3336 0083 01       		.uleb128 0x1
 3337 0084 51       		.byte	0x51
ARM GAS  G:\Users\Jaxb\AppData\Local\Temp\ccN55nbM.s 			page 66


 3338 0085 9F       		.byte	0x9f
 3339 0086 74030000 		.4byte	.LVL119-.Ltext0
 3340 008a 76030000 		.4byte	.LVL120-.Ltext0
 3341 008e 0100     		.2byte	0x1
 3342 0090 51       		.byte	0x51
 3343 0091 76030000 		.4byte	.LVL120-.Ltext0
 3344 0095 90030000 		.4byte	.LFE26-.Ltext0
 3345 0099 0100     		.2byte	0x1
 3346 009b 55       		.byte	0x55
 3347 009c 00000000 		.4byte	0
 3348 00a0 00000000 		.4byte	0
 3349              	.LLST48:
 3350 00a4 62030000 		.4byte	.LVL116-.Ltext0
 3351 00a8 68030000 		.4byte	.LVL117-.Ltext0
 3352 00ac 0100     		.2byte	0x1
 3353 00ae 50       		.byte	0x50
 3354 00af 00000000 		.4byte	0
 3355 00b3 00000000 		.4byte	0
 3356              	.LLST47:
 3357 00b7 52030000 		.4byte	.LVL113-.Ltext0
 3358 00bb 55030000 		.4byte	.LVL114-1-.Ltext0
 3359 00bf 0600     		.2byte	0x6
 3360 00c1 F5       		.byte	0xf5
 3361 00c2 00       		.uleb128 0
 3362 00c3 25       		.uleb128 0x25
 3363 00c4 F7       		.byte	0xf7
 3364 00c5 2C       		.uleb128 0x2c
 3365 00c6 9F       		.byte	0x9f
 3366 00c7 00000000 		.4byte	0
 3367 00cb 00000000 		.4byte	0
 3368              	.LLST46:
 3369 00cf 44030000 		.4byte	.LVL111-.Ltext0
 3370 00d3 4C030000 		.4byte	.LVL112-.Ltext0
 3371 00d7 0600     		.2byte	0x6
 3372 00d9 50       		.byte	0x50
 3373 00da 93       		.byte	0x93
 3374 00db 04       		.uleb128 0x4
 3375 00dc 51       		.byte	0x51
 3376 00dd 93       		.byte	0x93
 3377 00de 04       		.uleb128 0x4
 3378 00df 00000000 		.4byte	0
 3379 00e3 00000000 		.4byte	0
 3380              	.LLST45:
 3381 00e7 38030000 		.4byte	.LVL109-.Ltext0
 3382 00eb 3E030000 		.4byte	.LVL110-.Ltext0
 3383 00ef 0100     		.2byte	0x1
 3384 00f1 52       		.byte	0x52
 3385 00f2 00000000 		.4byte	0
 3386 00f6 00000000 		.4byte	0
 3387              	.LLST40:
 3388 00fa EC020000 		.4byte	.LFB25-.Ltext0
 3389 00fe EE020000 		.4byte	.LCFI18-.Ltext0
 3390 0102 0200     		.2byte	0x2
 3391 0104 7D       		.byte	0x7d
 3392 0105 00       		.sleb128 0
 3393 0106 EE020000 		.4byte	.LCFI18-.Ltext0
 3394 010a FC020000 		.4byte	.LCFI19-.Ltext0
ARM GAS  G:\Users\Jaxb\AppData\Local\Temp\ccN55nbM.s 			page 67


 3395 010e 0200     		.2byte	0x2
 3396 0110 7D       		.byte	0x7d
 3397 0111 08       		.sleb128 8
 3398 0112 FC020000 		.4byte	.LCFI19-.Ltext0
 3399 0116 00030000 		.4byte	.LCFI20-.Ltext0
 3400 011a 0200     		.2byte	0x2
 3401 011c 7D       		.byte	0x7d
 3402 011d 00       		.sleb128 0
 3403 011e 00030000 		.4byte	.LCFI20-.Ltext0
 3404 0122 14030000 		.4byte	.LFE25-.Ltext0
 3405 0126 0200     		.2byte	0x2
 3406 0128 7D       		.byte	0x7d
 3407 0129 08       		.sleb128 8
 3408 012a 00000000 		.4byte	0
 3409 012e 00000000 		.4byte	0
 3410              	.LLST41:
 3411 0132 EC020000 		.4byte	.LVL101-.Ltext0
 3412 0136 F2020000 		.4byte	.LVL102-.Ltext0
 3413 013a 0100     		.2byte	0x1
 3414 013c 50       		.byte	0x50
 3415 013d F2020000 		.4byte	.LVL102-.Ltext0
 3416 0141 FC020000 		.4byte	.LVL103-.Ltext0
 3417 0145 0100     		.2byte	0x1
 3418 0147 54       		.byte	0x54
 3419 0148 FC020000 		.4byte	.LVL103-.Ltext0
 3420 014c 00030000 		.4byte	.LVL104-.Ltext0
 3421 0150 0400     		.2byte	0x4
 3422 0152 F3       		.byte	0xf3
 3423 0153 01       		.uleb128 0x1
 3424 0154 50       		.byte	0x50
 3425 0155 9F       		.byte	0x9f
 3426 0156 00030000 		.4byte	.LVL104-.Ltext0
 3427 015a 04030000 		.4byte	.LVL105-.Ltext0
 3428 015e 0100     		.2byte	0x1
 3429 0160 50       		.byte	0x50
 3430 0161 04030000 		.4byte	.LVL105-.Ltext0
 3431 0165 14030000 		.4byte	.LFE25-.Ltext0
 3432 0169 0100     		.2byte	0x1
 3433 016b 54       		.byte	0x54
 3434 016c 00000000 		.4byte	0
 3435 0170 00000000 		.4byte	0
 3436              	.LLST38:
 3437 0174 54020000 		.4byte	.LFB24-.Ltext0
 3438 0178 56020000 		.4byte	.LCFI7-.Ltext0
 3439 017c 0200     		.2byte	0x2
 3440 017e 7D       		.byte	0x7d
 3441 017f 00       		.sleb128 0
 3442 0180 56020000 		.4byte	.LCFI7-.Ltext0
 3443 0184 7C020000 		.4byte	.LCFI8-.Ltext0
 3444 0188 0200     		.2byte	0x2
 3445 018a 7D       		.byte	0x7d
 3446 018b 08       		.sleb128 8
 3447 018c 7C020000 		.4byte	.LCFI8-.Ltext0
 3448 0190 80020000 		.4byte	.LCFI9-.Ltext0
 3449 0194 0200     		.2byte	0x2
 3450 0196 7D       		.byte	0x7d
 3451 0197 00       		.sleb128 0
ARM GAS  G:\Users\Jaxb\AppData\Local\Temp\ccN55nbM.s 			page 68


 3452 0198 80020000 		.4byte	.LCFI9-.Ltext0
 3453 019c 8A020000 		.4byte	.LCFI10-.Ltext0
 3454 01a0 0200     		.2byte	0x2
 3455 01a2 7D       		.byte	0x7d
 3456 01a3 08       		.sleb128 8
 3457 01a4 8A020000 		.4byte	.LCFI10-.Ltext0
 3458 01a8 8E020000 		.4byte	.LCFI11-.Ltext0
 3459 01ac 0200     		.2byte	0x2
 3460 01ae 7D       		.byte	0x7d
 3461 01af 00       		.sleb128 0
 3462 01b0 8E020000 		.4byte	.LCFI11-.Ltext0
 3463 01b4 98020000 		.4byte	.LCFI12-.Ltext0
 3464 01b8 0200     		.2byte	0x2
 3465 01ba 7D       		.byte	0x7d
 3466 01bb 08       		.sleb128 8
 3467 01bc 98020000 		.4byte	.LCFI12-.Ltext0
 3468 01c0 9C020000 		.4byte	.LCFI13-.Ltext0
 3469 01c4 0200     		.2byte	0x2
 3470 01c6 7D       		.byte	0x7d
 3471 01c7 00       		.sleb128 0
 3472 01c8 9C020000 		.4byte	.LCFI13-.Ltext0
 3473 01cc A8020000 		.4byte	.LCFI14-.Ltext0
 3474 01d0 0200     		.2byte	0x2
 3475 01d2 7D       		.byte	0x7d
 3476 01d3 08       		.sleb128 8
 3477 01d4 A8020000 		.4byte	.LCFI14-.Ltext0
 3478 01d8 B2020000 		.4byte	.LCFI15-.Ltext0
 3479 01dc 0200     		.2byte	0x2
 3480 01de 7D       		.byte	0x7d
 3481 01df 00       		.sleb128 0
 3482 01e0 B2020000 		.4byte	.LCFI15-.Ltext0
 3483 01e4 BE020000 		.4byte	.LCFI16-.Ltext0
 3484 01e8 0200     		.2byte	0x2
 3485 01ea 7D       		.byte	0x7d
 3486 01eb 08       		.sleb128 8
 3487 01ec BE020000 		.4byte	.LCFI16-.Ltext0
 3488 01f0 C2020000 		.4byte	.LCFI17-.Ltext0
 3489 01f4 0200     		.2byte	0x2
 3490 01f6 7D       		.byte	0x7d
 3491 01f7 00       		.sleb128 0
 3492 01f8 C2020000 		.4byte	.LCFI17-.Ltext0
 3493 01fc EC020000 		.4byte	.LFE24-.Ltext0
 3494 0200 0200     		.2byte	0x2
 3495 0202 7D       		.byte	0x7d
 3496 0203 08       		.sleb128 8
 3497 0204 00000000 		.4byte	0
 3498 0208 00000000 		.4byte	0
 3499              	.LLST39:
 3500 020c 54020000 		.4byte	.LVL84-.Ltext0
 3501 0210 5C020000 		.4byte	.LVL85-.Ltext0
 3502 0214 0100     		.2byte	0x1
 3503 0216 50       		.byte	0x50
 3504 0217 5C020000 		.4byte	.LVL85-.Ltext0
 3505 021b 7C020000 		.4byte	.LVL86-.Ltext0
 3506 021f 0100     		.2byte	0x1
 3507 0221 54       		.byte	0x54
 3508 0222 7C020000 		.4byte	.LVL86-.Ltext0
ARM GAS  G:\Users\Jaxb\AppData\Local\Temp\ccN55nbM.s 			page 69


 3509 0226 80020000 		.4byte	.LVL87-.Ltext0
 3510 022a 0400     		.2byte	0x4
 3511 022c F3       		.byte	0xf3
 3512 022d 01       		.uleb128 0x1
 3513 022e 50       		.byte	0x50
 3514 022f 9F       		.byte	0x9f
 3515 0230 80020000 		.4byte	.LVL87-.Ltext0
 3516 0234 8A020000 		.4byte	.LVL88-.Ltext0
 3517 0238 0100     		.2byte	0x1
 3518 023a 54       		.byte	0x54
 3519 023b 8A020000 		.4byte	.LVL88-.Ltext0
 3520 023f 8E020000 		.4byte	.LVL89-.Ltext0
 3521 0243 0400     		.2byte	0x4
 3522 0245 F3       		.byte	0xf3
 3523 0246 01       		.uleb128 0x1
 3524 0247 50       		.byte	0x50
 3525 0248 9F       		.byte	0x9f
 3526 0249 8E020000 		.4byte	.LVL89-.Ltext0
 3527 024d 98020000 		.4byte	.LVL90-.Ltext0
 3528 0251 0100     		.2byte	0x1
 3529 0253 54       		.byte	0x54
 3530 0254 98020000 		.4byte	.LVL90-.Ltext0
 3531 0258 9C020000 		.4byte	.LVL91-.Ltext0
 3532 025c 0400     		.2byte	0x4
 3533 025e F3       		.byte	0xf3
 3534 025f 01       		.uleb128 0x1
 3535 0260 50       		.byte	0x50
 3536 0261 9F       		.byte	0x9f
 3537 0262 9C020000 		.4byte	.LVL91-.Ltext0
 3538 0266 A8020000 		.4byte	.LVL93-.Ltext0
 3539 026a 0100     		.2byte	0x1
 3540 026c 54       		.byte	0x54
 3541 026d A8020000 		.4byte	.LVL93-.Ltext0
 3542 0271 B2020000 		.4byte	.LVL94-.Ltext0
 3543 0275 0400     		.2byte	0x4
 3544 0277 F3       		.byte	0xf3
 3545 0278 01       		.uleb128 0x1
 3546 0279 50       		.byte	0x50
 3547 027a 9F       		.byte	0x9f
 3548 027b B2020000 		.4byte	.LVL94-.Ltext0
 3549 027f BE020000 		.4byte	.LVL95-.Ltext0
 3550 0283 0100     		.2byte	0x1
 3551 0285 54       		.byte	0x54
 3552 0286 BE020000 		.4byte	.LVL95-.Ltext0
 3553 028a C2020000 		.4byte	.LVL96-.Ltext0
 3554 028e 0400     		.2byte	0x4
 3555 0290 F3       		.byte	0xf3
 3556 0291 01       		.uleb128 0x1
 3557 0292 50       		.byte	0x50
 3558 0293 9F       		.byte	0x9f
 3559 0294 C2020000 		.4byte	.LVL96-.Ltext0
 3560 0298 C6020000 		.4byte	.LVL97-.Ltext0
 3561 029c 0100     		.2byte	0x1
 3562 029e 50       		.byte	0x50
 3563 029f C6020000 		.4byte	.LVL97-.Ltext0
 3564 02a3 D2020000 		.4byte	.LVL99-.Ltext0
 3565 02a7 0100     		.2byte	0x1
ARM GAS  G:\Users\Jaxb\AppData\Local\Temp\ccN55nbM.s 			page 70


 3566 02a9 54       		.byte	0x54
 3567 02aa D2020000 		.4byte	.LVL99-.Ltext0
 3568 02ae EC020000 		.4byte	.LFE24-.Ltext0
 3569 02b2 0400     		.2byte	0x4
 3570 02b4 F3       		.byte	0xf3
 3571 02b5 01       		.uleb128 0x1
 3572 02b6 50       		.byte	0x50
 3573 02b7 9F       		.byte	0x9f
 3574 02b8 00000000 		.4byte	0
 3575 02bc 00000000 		.4byte	0
 3576              	.LLST28:
 3577 02c0 90010000 		.4byte	.LFB22-.Ltext0
 3578 02c4 92010000 		.4byte	.LCFI6-.Ltext0
 3579 02c8 0200     		.2byte	0x2
 3580 02ca 7D       		.byte	0x7d
 3581 02cb 00       		.sleb128 0
 3582 02cc 92010000 		.4byte	.LCFI6-.Ltext0
 3583 02d0 20020000 		.4byte	.LFE22-.Ltext0
 3584 02d4 0200     		.2byte	0x2
 3585 02d6 7D       		.byte	0x7d
 3586 02d7 18       		.sleb128 24
 3587 02d8 00000000 		.4byte	0
 3588 02dc 00000000 		.4byte	0
 3589              	.LLST29:
 3590 02e0 90010000 		.4byte	.LVL54-.Ltext0
 3591 02e4 9C010000 		.4byte	.LVL55-.Ltext0
 3592 02e8 0100     		.2byte	0x1
 3593 02ea 50       		.byte	0x50
 3594 02eb 9C010000 		.4byte	.LVL55-.Ltext0
 3595 02ef C8010000 		.4byte	.LVL60-.Ltext0
 3596 02f3 0100     		.2byte	0x1
 3597 02f5 54       		.byte	0x54
 3598 02f6 C8010000 		.4byte	.LVL60-.Ltext0
 3599 02fa EC010000 		.4byte	.LVL65-.Ltext0
 3600 02fe 0200     		.2byte	0x2
 3601 0300 75       		.byte	0x75
 3602 0301 00       		.sleb128 0
 3603 0302 EC010000 		.4byte	.LVL65-.Ltext0
 3604 0306 F0010000 		.4byte	.LVL67-.Ltext0
 3605 030a 0200     		.2byte	0x2
 3606 030c 75       		.byte	0x75
 3607 030d 74       		.sleb128 -12
 3608 030e F0010000 		.4byte	.LVL67-.Ltext0
 3609 0312 0E020000 		.4byte	.LVL72-.Ltext0
 3610 0316 0100     		.2byte	0x1
 3611 0318 54       		.byte	0x54
 3612 0319 0E020000 		.4byte	.LVL72-.Ltext0
 3613 031d 12020000 		.4byte	.LVL74-.Ltext0
 3614 0321 0100     		.2byte	0x1
 3615 0323 50       		.byte	0x50
 3616 0324 12020000 		.4byte	.LVL74-.Ltext0
 3617 0328 20020000 		.4byte	.LFE22-.Ltext0
 3618 032c 0100     		.2byte	0x1
 3619 032e 54       		.byte	0x54
 3620 032f 00000000 		.4byte	0
 3621 0333 00000000 		.4byte	0
 3622              	.LLST30:
ARM GAS  G:\Users\Jaxb\AppData\Local\Temp\ccN55nbM.s 			page 71


 3623 0337 90010000 		.4byte	.LVL54-.Ltext0
 3624 033b 9C010000 		.4byte	.LVL55-.Ltext0
 3625 033f 0100     		.2byte	0x1
 3626 0341 51       		.byte	0x51
 3627 0342 9C010000 		.4byte	.LVL55-.Ltext0
 3628 0346 0E020000 		.4byte	.LVL72-.Ltext0
 3629 034a 0100     		.2byte	0x1
 3630 034c 56       		.byte	0x56
 3631 034d 0E020000 		.4byte	.LVL72-.Ltext0
 3632 0351 10020000 		.4byte	.LVL73-.Ltext0
 3633 0355 0100     		.2byte	0x1
 3634 0357 51       		.byte	0x51
 3635 0358 10020000 		.4byte	.LVL73-.Ltext0
 3636 035c 20020000 		.4byte	.LFE22-.Ltext0
 3637 0360 0100     		.2byte	0x1
 3638 0362 56       		.byte	0x56
 3639 0363 00000000 		.4byte	0
 3640 0367 00000000 		.4byte	0
 3641              	.LLST31:
 3642 036b 90010000 		.4byte	.LVL54-.Ltext0
 3643 036f 9C010000 		.4byte	.LVL55-.Ltext0
 3644 0373 0100     		.2byte	0x1
 3645 0375 52       		.byte	0x52
 3646 0376 9C010000 		.4byte	.LVL55-.Ltext0
 3647 037a 0E020000 		.4byte	.LVL72-.Ltext0
 3648 037e 0400     		.2byte	0x4
 3649 0380 F3       		.byte	0xf3
 3650 0381 01       		.uleb128 0x1
 3651 0382 52       		.byte	0x52
 3652 0383 9F       		.byte	0x9f
 3653 0384 0E020000 		.4byte	.LVL72-.Ltext0
 3654 0388 15020000 		.4byte	.LVL75-1-.Ltext0
 3655 038c 0100     		.2byte	0x1
 3656 038e 52       		.byte	0x52
 3657 038f 15020000 		.4byte	.LVL75-1-.Ltext0
 3658 0393 20020000 		.4byte	.LFE22-.Ltext0
 3659 0397 0400     		.2byte	0x4
 3660 0399 F3       		.byte	0xf3
 3661 039a 01       		.uleb128 0x1
 3662 039b 52       		.byte	0x52
 3663 039c 9F       		.byte	0x9f
 3664 039d 00000000 		.4byte	0
 3665 03a1 00000000 		.4byte	0
 3666              	.LLST32:
 3667 03a5 A8010000 		.4byte	.LVL56-.Ltext0
 3668 03a9 AC010000 		.4byte	.LVL57-.Ltext0
 3669 03ad 0100     		.2byte	0x1
 3670 03af 50       		.byte	0x50
 3671 03b0 AC010000 		.4byte	.LVL57-.Ltext0
 3672 03b4 EC010000 		.4byte	.LVL65-.Ltext0
 3673 03b8 0100     		.2byte	0x1
 3674 03ba 55       		.byte	0x55
 3675 03bb EC010000 		.4byte	.LVL65-.Ltext0
 3676 03bf F0010000 		.4byte	.LVL67-.Ltext0
 3677 03c3 0300     		.2byte	0x3
 3678 03c5 75       		.byte	0x75
 3679 03c6 74       		.sleb128 -12
ARM GAS  G:\Users\Jaxb\AppData\Local\Temp\ccN55nbM.s 			page 72


 3680 03c7 9F       		.byte	0x9f
 3681 03c8 FE010000 		.4byte	.LVL69-.Ltext0
 3682 03cc 08020000 		.4byte	.LVL70-.Ltext0
 3683 03d0 0100     		.2byte	0x1
 3684 03d2 50       		.byte	0x50
 3685 03d3 08020000 		.4byte	.LVL70-.Ltext0
 3686 03d7 0E020000 		.4byte	.LVL72-.Ltext0
 3687 03db 0100     		.2byte	0x1
 3688 03dd 55       		.byte	0x55
 3689 03de 00000000 		.4byte	0
 3690 03e2 00000000 		.4byte	0
 3691              	.LLST33:
 3692 03e6 B2010000 		.4byte	.LVL58-.Ltext0
 3693 03ea BA010000 		.4byte	.LVL59-.Ltext0
 3694 03ee 0200     		.2byte	0x2
 3695 03f0 75       		.byte	0x75
 3696 03f1 00       		.sleb128 0
 3697 03f2 BA010000 		.4byte	.LVL59-.Ltext0
 3698 03f6 C8010000 		.4byte	.LVL60-.Ltext0
 3699 03fa 0100     		.2byte	0x1
 3700 03fc 54       		.byte	0x54
 3701 03fd C8010000 		.4byte	.LVL60-.Ltext0
 3702 0401 D0010000 		.4byte	.LVL61-.Ltext0
 3703 0405 0300     		.2byte	0x3
 3704 0407 74       		.byte	0x74
 3705 0408 7F       		.sleb128 -1
 3706 0409 9F       		.byte	0x9f
 3707 040a D0010000 		.4byte	.LVL61-.Ltext0
 3708 040e D6010000 		.4byte	.LVL63-.Ltext0
 3709 0412 0100     		.2byte	0x1
 3710 0414 54       		.byte	0x54
 3711 0415 D6010000 		.4byte	.LVL63-.Ltext0
 3712 0419 E0010000 		.4byte	.LVL64-.Ltext0
 3713 041d 0300     		.2byte	0x3
 3714 041f 74       		.byte	0x74
 3715 0420 7F       		.sleb128 -1
 3716 0421 9F       		.byte	0x9f
 3717 0422 00000000 		.4byte	0
 3718 0426 00000000 		.4byte	0
 3719              	.LLST34:
 3720 042a B2010000 		.4byte	.LVL58-.Ltext0
 3721 042e C8010000 		.4byte	.LVL60-.Ltext0
 3722 0432 0200     		.2byte	0x2
 3723 0434 30       		.byte	0x30
 3724 0435 9F       		.byte	0x9f
 3725 0436 C8010000 		.4byte	.LVL60-.Ltext0
 3726 043a E0010000 		.4byte	.LVL64-.Ltext0
 3727 043e 0100     		.2byte	0x1
 3728 0440 52       		.byte	0x52
 3729 0441 00000000 		.4byte	0
 3730 0445 00000000 		.4byte	0
 3731              	.LLST35:
 3732 0449 E0010000 		.4byte	.LVL64-.Ltext0
 3733 044d EC010000 		.4byte	.LVL65-.Ltext0
 3734 0451 0300     		.2byte	0x3
 3735 0453 75       		.byte	0x75
 3736 0454 0C       		.sleb128 12
ARM GAS  G:\Users\Jaxb\AppData\Local\Temp\ccN55nbM.s 			page 73


 3737 0455 9F       		.byte	0x9f
 3738 0456 EC010000 		.4byte	.LVL65-.Ltext0
 3739 045a EE010000 		.4byte	.LVL66-.Ltext0
 3740 045e 0100     		.2byte	0x1
 3741 0460 55       		.byte	0x55
 3742 0461 00000000 		.4byte	0
 3743 0465 00000000 		.4byte	0
 3744              	.LLST21:
 3745 0469 0C010000 		.4byte	.LFB21-.Ltext0
 3746 046d 0E010000 		.4byte	.LCFI5-.Ltext0
 3747 0471 0200     		.2byte	0x2
 3748 0473 7D       		.byte	0x7d
 3749 0474 00       		.sleb128 0
 3750 0475 0E010000 		.4byte	.LCFI5-.Ltext0
 3751 0479 90010000 		.4byte	.LFE21-.Ltext0
 3752 047d 0200     		.2byte	0x2
 3753 047f 7D       		.byte	0x7d
 3754 0480 18       		.sleb128 24
 3755 0481 00000000 		.4byte	0
 3756 0485 00000000 		.4byte	0
 3757              	.LLST22:
 3758 0489 0C010000 		.4byte	.LVL37-.Ltext0
 3759 048d 52010000 		.4byte	.LVL46-.Ltext0
 3760 0491 0100     		.2byte	0x1
 3761 0493 50       		.byte	0x50
 3762 0494 52010000 		.4byte	.LVL46-.Ltext0
 3763 0498 7A010000 		.4byte	.LVL53-.Ltext0
 3764 049c 0100     		.2byte	0x1
 3765 049e 56       		.byte	0x56
 3766 049f 7A010000 		.4byte	.LVL53-.Ltext0
 3767 04a3 90010000 		.4byte	.LFE21-.Ltext0
 3768 04a7 0100     		.2byte	0x1
 3769 04a9 50       		.byte	0x50
 3770 04aa 00000000 		.4byte	0
 3771 04ae 00000000 		.4byte	0
 3772              	.LLST23:
 3773 04b2 52010000 		.4byte	.LVL46-.Ltext0
 3774 04b6 54010000 		.4byte	.LVL47-.Ltext0
 3775 04ba 0300     		.2byte	0x3
 3776 04bc 74       		.byte	0x74
 3777 04bd 74       		.sleb128 -12
 3778 04be 9F       		.byte	0x9f
 3779 04bf 58010000 		.4byte	.LVL48-.Ltext0
 3780 04c3 74010000 		.4byte	.LVL51-.Ltext0
 3781 04c7 0300     		.2byte	0x3
 3782 04c9 74       		.byte	0x74
 3783 04ca 74       		.sleb128 -12
 3784 04cb 9F       		.byte	0x9f
 3785 04cc 74010000 		.4byte	.LVL51-.Ltext0
 3786 04d0 76010000 		.4byte	.LVL52-.Ltext0
 3787 04d4 0100     		.2byte	0x1
 3788 04d6 50       		.byte	0x50
 3789 04d7 00000000 		.4byte	0
 3790 04db 00000000 		.4byte	0
 3791              	.LLST24:
 3792 04df 4C010000 		.4byte	.LVL45-.Ltext0
 3793 04e3 76010000 		.4byte	.LVL52-.Ltext0
ARM GAS  G:\Users\Jaxb\AppData\Local\Temp\ccN55nbM.s 			page 74


 3794 04e7 0100     		.2byte	0x1
 3795 04e9 54       		.byte	0x54
 3796 04ea 00000000 		.4byte	0
 3797 04ee 00000000 		.4byte	0
 3798              	.LLST27:
 3799 04f2 52010000 		.4byte	.LVL46-.Ltext0
 3800 04f6 54010000 		.4byte	.LVL47-.Ltext0
 3801 04fa 0100     		.2byte	0x1
 3802 04fc 54       		.byte	0x54
 3803 04fd 58010000 		.4byte	.LVL48-.Ltext0
 3804 0501 76010000 		.4byte	.LVL52-.Ltext0
 3805 0505 0100     		.2byte	0x1
 3806 0507 54       		.byte	0x54
 3807 0508 00000000 		.4byte	0
 3808 050c 00000000 		.4byte	0
 3809              	.LLST25:
 3810 0510 12010000 		.4byte	.LVL38-.Ltext0
 3811 0514 28010000 		.4byte	.LVL39-.Ltext0
 3812 0518 0100     		.2byte	0x1
 3813 051a 50       		.byte	0x50
 3814 051b 28010000 		.4byte	.LVL39-.Ltext0
 3815 051f 30010000 		.4byte	.LVL40-.Ltext0
 3816 0523 0300     		.2byte	0x3
 3817 0525 71       		.byte	0x71
 3818 0526 7F       		.sleb128 -1
 3819 0527 9F       		.byte	0x9f
 3820 0528 30010000 		.4byte	.LVL40-.Ltext0
 3821 052c 36010000 		.4byte	.LVL42-.Ltext0
 3822 0530 0100     		.2byte	0x1
 3823 0532 51       		.byte	0x51
 3824 0533 36010000 		.4byte	.LVL42-.Ltext0
 3825 0537 46010000 		.4byte	.LVL44-.Ltext0
 3826 053b 0300     		.2byte	0x3
 3827 053d 71       		.byte	0x71
 3828 053e 7F       		.sleb128 -1
 3829 053f 9F       		.byte	0x9f
 3830 0540 7A010000 		.4byte	.LVL53-.Ltext0
 3831 0544 90010000 		.4byte	.LFE21-.Ltext0
 3832 0548 0100     		.2byte	0x1
 3833 054a 50       		.byte	0x50
 3834 054b 00000000 		.4byte	0
 3835 054f 00000000 		.4byte	0
 3836              	.LLST26:
 3837 0553 12010000 		.4byte	.LVL38-.Ltext0
 3838 0557 28010000 		.4byte	.LVL39-.Ltext0
 3839 055b 0200     		.2byte	0x2
 3840 055d 30       		.byte	0x30
 3841 055e 9F       		.byte	0x9f
 3842 055f 28010000 		.4byte	.LVL39-.Ltext0
 3843 0563 40010000 		.4byte	.LVL43-.Ltext0
 3844 0567 0100     		.2byte	0x1
 3845 0569 52       		.byte	0x52
 3846 056a 7A010000 		.4byte	.LVL53-.Ltext0
 3847 056e 90010000 		.4byte	.LFE21-.Ltext0
 3848 0572 0200     		.2byte	0x2
 3849 0574 30       		.byte	0x30
 3850 0575 9F       		.byte	0x9f
ARM GAS  G:\Users\Jaxb\AppData\Local\Temp\ccN55nbM.s 			page 75


 3851 0576 00000000 		.4byte	0
 3852 057a 00000000 		.4byte	0
 3853              	.LLST14:
 3854 057e D4000000 		.4byte	.LFB19-.Ltext0
 3855 0582 D8000000 		.4byte	.LCFI4-.Ltext0
 3856 0586 0200     		.2byte	0x2
 3857 0588 7D       		.byte	0x7d
 3858 0589 00       		.sleb128 0
 3859 058a D8000000 		.4byte	.LCFI4-.Ltext0
 3860 058e 0C010000 		.4byte	.LFE19-.Ltext0
 3861 0592 0200     		.2byte	0x2
 3862 0594 7D       		.byte	0x7d
 3863 0595 18       		.sleb128 24
 3864 0596 00000000 		.4byte	0
 3865 059a 00000000 		.4byte	0
 3866              	.LLST15:
 3867 059e D4000000 		.4byte	.LVL29-.Ltext0
 3868 05a2 E0000000 		.4byte	.LVL30-.Ltext0
 3869 05a6 0100     		.2byte	0x1
 3870 05a8 50       		.byte	0x50
 3871 05a9 E0000000 		.4byte	.LVL30-.Ltext0
 3872 05ad 0C010000 		.4byte	.LFE19-.Ltext0
 3873 05b1 0400     		.2byte	0x4
 3874 05b3 F3       		.byte	0xf3
 3875 05b4 01       		.uleb128 0x1
 3876 05b5 50       		.byte	0x50
 3877 05b6 9F       		.byte	0x9f
 3878 05b7 00000000 		.4byte	0
 3879 05bb 00000000 		.4byte	0
 3880              	.LLST16:
 3881 05bf D4000000 		.4byte	.LVL29-.Ltext0
 3882 05c3 E0000000 		.4byte	.LVL30-.Ltext0
 3883 05c7 0100     		.2byte	0x1
 3884 05c9 51       		.byte	0x51
 3885 05ca E0000000 		.4byte	.LVL30-.Ltext0
 3886 05ce 0C010000 		.4byte	.LFE19-.Ltext0
 3887 05d2 0400     		.2byte	0x4
 3888 05d4 F3       		.byte	0xf3
 3889 05d5 01       		.uleb128 0x1
 3890 05d6 51       		.byte	0x51
 3891 05d7 9F       		.byte	0x9f
 3892 05d8 00000000 		.4byte	0
 3893 05dc 00000000 		.4byte	0
 3894              	.LLST17:
 3895 05e0 D4000000 		.4byte	.LVL29-.Ltext0
 3896 05e4 E0000000 		.4byte	.LVL30-.Ltext0
 3897 05e8 0200     		.2byte	0x2
 3898 05ea 30       		.byte	0x30
 3899 05eb 9F       		.byte	0x9f
 3900 05ec 00000000 		.4byte	0
 3901 05f0 00000000 		.4byte	0
 3902              	.LLST18:
 3903 05f4 EA000000 		.4byte	.LVL33-.Ltext0
 3904 05f8 F6000000 		.4byte	.LVL35-.Ltext0
 3905 05fc 0300     		.2byte	0x3
 3906 05fe 74       		.byte	0x74
 3907 05ff 74       		.sleb128 -12
ARM GAS  G:\Users\Jaxb\AppData\Local\Temp\ccN55nbM.s 			page 76


 3908 0600 9F       		.byte	0x9f
 3909 0601 00000000 		.4byte	0
 3910 0605 00000000 		.4byte	0
 3911              	.LLST19:
 3912 0609 EA000000 		.4byte	.LVL33-.Ltext0
 3913 060d FA000000 		.4byte	.LVL36-.Ltext0
 3914 0611 0100     		.2byte	0x1
 3915 0613 54       		.byte	0x54
 3916 0614 00000000 		.4byte	0
 3917 0618 00000000 		.4byte	0
 3918              	.LLST20:
 3919 061c E2000000 		.4byte	.LVL31-.Ltext0
 3920 0620 E6000000 		.4byte	.LVL32-.Ltext0
 3921 0624 0100     		.2byte	0x1
 3922 0626 55       		.byte	0x55
 3923 0627 00000000 		.4byte	0
 3924 062b 00000000 		.4byte	0
 3925              	.LLST11:
 3926 062f B0000000 		.4byte	.LFB17-.Ltext0
 3927 0633 B2000000 		.4byte	.LCFI3-.Ltext0
 3928 0637 0200     		.2byte	0x2
 3929 0639 7D       		.byte	0x7d
 3930 063a 00       		.sleb128 0
 3931 063b B2000000 		.4byte	.LCFI3-.Ltext0
 3932 063f C8000000 		.4byte	.LFE17-.Ltext0
 3933 0643 0200     		.2byte	0x2
 3934 0645 7D       		.byte	0x7d
 3935 0646 08       		.sleb128 8
 3936 0647 00000000 		.4byte	0
 3937 064b 00000000 		.4byte	0
 3938              	.LLST12:
 3939 064f B0000000 		.4byte	.LVL25-.Ltext0
 3940 0653 B4000000 		.4byte	.LVL26-.Ltext0
 3941 0657 0100     		.2byte	0x1
 3942 0659 50       		.byte	0x50
 3943 065a B4000000 		.4byte	.LVL26-.Ltext0
 3944 065e C8000000 		.4byte	.LFE17-.Ltext0
 3945 0662 0400     		.2byte	0x4
 3946 0664 F3       		.byte	0xf3
 3947 0665 01       		.uleb128 0x1
 3948 0666 50       		.byte	0x50
 3949 0667 9F       		.byte	0x9f
 3950 0668 00000000 		.4byte	0
 3951 066c 00000000 		.4byte	0
 3952              	.LLST13:
 3953 0670 B0000000 		.4byte	.LVL25-.Ltext0
 3954 0674 B7000000 		.4byte	.LVL27-1-.Ltext0
 3955 0678 0100     		.2byte	0x1
 3956 067a 51       		.byte	0x51
 3957 067b B7000000 		.4byte	.LVL27-1-.Ltext0
 3958 067f C8000000 		.4byte	.LFE17-.Ltext0
 3959 0683 0400     		.2byte	0x4
 3960 0685 F3       		.byte	0xf3
 3961 0686 01       		.uleb128 0x1
 3962 0687 51       		.byte	0x51
 3963 0688 9F       		.byte	0x9f
 3964 0689 00000000 		.4byte	0
ARM GAS  G:\Users\Jaxb\AppData\Local\Temp\ccN55nbM.s 			page 77


 3965 068d 00000000 		.4byte	0
 3966              	.LLST9:
 3967 0691 A4000000 		.4byte	.LVL22-.Ltext0
 3968 0695 A6000000 		.4byte	.LVL23-.Ltext0
 3969 0699 0100     		.2byte	0x1
 3970 069b 50       		.byte	0x50
 3971 069c A6000000 		.4byte	.LVL23-.Ltext0
 3972 06a0 B0000000 		.4byte	.LFE16-.Ltext0
 3973 06a4 0400     		.2byte	0x4
 3974 06a6 F3       		.byte	0xf3
 3975 06a7 01       		.uleb128 0x1
 3976 06a8 50       		.byte	0x50
 3977 06a9 9F       		.byte	0x9f
 3978 06aa 00000000 		.4byte	0
 3979 06ae 00000000 		.4byte	0
 3980              	.LLST10:
 3981 06b2 A4000000 		.4byte	.LVL22-.Ltext0
 3982 06b6 A9000000 		.4byte	.LVL24-1-.Ltext0
 3983 06ba 0100     		.2byte	0x1
 3984 06bc 51       		.byte	0x51
 3985 06bd A9000000 		.4byte	.LVL24-1-.Ltext0
 3986 06c1 B0000000 		.4byte	.LFE16-.Ltext0
 3987 06c5 0400     		.2byte	0x4
 3988 06c7 F3       		.byte	0xf3
 3989 06c8 01       		.uleb128 0x1
 3990 06c9 51       		.byte	0x51
 3991 06ca 9F       		.byte	0x9f
 3992 06cb 00000000 		.4byte	0
 3993 06cf 00000000 		.4byte	0
 3994              	.LLST4:
 3995 06d3 54000000 		.4byte	.LFB15-.Ltext0
 3996 06d7 58000000 		.4byte	.LCFI1-.Ltext0
 3997 06db 0200     		.2byte	0x2
 3998 06dd 7D       		.byte	0x7d
 3999 06de 00       		.sleb128 0
 4000 06df 58000000 		.4byte	.LCFI1-.Ltext0
 4001 06e3 84000000 		.4byte	.LCFI2-.Ltext0
 4002 06e7 0200     		.2byte	0x2
 4003 06e9 7D       		.byte	0x7d
 4004 06ea 08       		.sleb128 8
 4005 06eb 84000000 		.4byte	.LCFI2-.Ltext0
 4006 06ef A4000000 		.4byte	.LFE15-.Ltext0
 4007 06f3 0200     		.2byte	0x2
 4008 06f5 7D       		.byte	0x7d
 4009 06f6 00       		.sleb128 0
 4010 06f7 00000000 		.4byte	0
 4011 06fb 00000000 		.4byte	0
 4012              	.LLST5:
 4013 06ff 54000000 		.4byte	.LVL11-.Ltext0
 4014 0703 5C000000 		.4byte	.LVL12-.Ltext0
 4015 0707 0100     		.2byte	0x1
 4016 0709 50       		.byte	0x50
 4017 070a 5C000000 		.4byte	.LVL12-.Ltext0
 4018 070e 5E000000 		.4byte	.LVL13-.Ltext0
 4019 0712 0400     		.2byte	0x4
 4020 0714 F3       		.byte	0xf3
 4021 0715 01       		.uleb128 0x1
ARM GAS  G:\Users\Jaxb\AppData\Local\Temp\ccN55nbM.s 			page 78


 4022 0716 50       		.byte	0x50
 4023 0717 9F       		.byte	0x9f
 4024 0718 5E000000 		.4byte	.LVL13-.Ltext0
 4025 071c 66000000 		.4byte	.LVL16-.Ltext0
 4026 0720 0100     		.2byte	0x1
 4027 0722 50       		.byte	0x50
 4028 0723 66000000 		.4byte	.LVL16-.Ltext0
 4029 0727 69000000 		.4byte	.LVL17-1-.Ltext0
 4030 072b 0100     		.2byte	0x1
 4031 072d 51       		.byte	0x51
 4032 072e 69000000 		.4byte	.LVL17-1-.Ltext0
 4033 0732 A4000000 		.4byte	.LFE15-.Ltext0
 4034 0736 0400     		.2byte	0x4
 4035 0738 F3       		.byte	0xf3
 4036 0739 01       		.uleb128 0x1
 4037 073a 50       		.byte	0x50
 4038 073b 9F       		.byte	0x9f
 4039 073c 00000000 		.4byte	0
 4040 0740 00000000 		.4byte	0
 4041              	.LLST6:
 4042 0744 54000000 		.4byte	.LVL11-.Ltext0
 4043 0748 5C000000 		.4byte	.LVL12-.Ltext0
 4044 074c 0100     		.2byte	0x1
 4045 074e 51       		.byte	0x51
 4046 074f 5C000000 		.4byte	.LVL12-.Ltext0
 4047 0753 5E000000 		.4byte	.LVL13-.Ltext0
 4048 0757 0400     		.2byte	0x4
 4049 0759 F3       		.byte	0xf3
 4050 075a 01       		.uleb128 0x1
 4051 075b 51       		.byte	0x51
 4052 075c 9F       		.byte	0x9f
 4053 075d 5E000000 		.4byte	.LVL13-.Ltext0
 4054 0761 64000000 		.4byte	.LVL15-.Ltext0
 4055 0765 0100     		.2byte	0x1
 4056 0767 51       		.byte	0x51
 4057 0768 64000000 		.4byte	.LVL15-.Ltext0
 4058 076c 69000000 		.4byte	.LVL17-1-.Ltext0
 4059 0770 0100     		.2byte	0x1
 4060 0772 52       		.byte	0x52
 4061 0773 69000000 		.4byte	.LVL17-1-.Ltext0
 4062 0777 A4000000 		.4byte	.LFE15-.Ltext0
 4063 077b 0400     		.2byte	0x4
 4064 077d F3       		.byte	0xf3
 4065 077e 01       		.uleb128 0x1
 4066 077f 51       		.byte	0x51
 4067 0780 9F       		.byte	0x9f
 4068 0781 00000000 		.4byte	0
 4069 0785 00000000 		.4byte	0
 4070              	.LLST7:
 4071 0789 54000000 		.4byte	.LVL11-.Ltext0
 4072 078d 5C000000 		.4byte	.LVL12-.Ltext0
 4073 0791 0100     		.2byte	0x1
 4074 0793 52       		.byte	0x52
 4075 0794 5C000000 		.4byte	.LVL12-.Ltext0
 4076 0798 5E000000 		.4byte	.LVL13-.Ltext0
 4077 079c 0400     		.2byte	0x4
 4078 079e F3       		.byte	0xf3
ARM GAS  G:\Users\Jaxb\AppData\Local\Temp\ccN55nbM.s 			page 79


 4079 079f 01       		.uleb128 0x1
 4080 07a0 52       		.byte	0x52
 4081 07a1 9F       		.byte	0x9f
 4082 07a2 5E000000 		.4byte	.LVL13-.Ltext0
 4083 07a6 62000000 		.4byte	.LVL14-.Ltext0
 4084 07aa 0100     		.2byte	0x1
 4085 07ac 52       		.byte	0x52
 4086 07ad 62000000 		.4byte	.LVL14-.Ltext0
 4087 07b1 69000000 		.4byte	.LVL17-1-.Ltext0
 4088 07b5 0100     		.2byte	0x1
 4089 07b7 53       		.byte	0x53
 4090 07b8 69000000 		.4byte	.LVL17-1-.Ltext0
 4091 07bc A4000000 		.4byte	.LFE15-.Ltext0
 4092 07c0 0400     		.2byte	0x4
 4093 07c2 F3       		.byte	0xf3
 4094 07c3 01       		.uleb128 0x1
 4095 07c4 52       		.byte	0x52
 4096 07c5 9F       		.byte	0x9f
 4097 07c6 00000000 		.4byte	0
 4098 07ca 00000000 		.4byte	0
 4099              	.LLST8:
 4100 07ce 7C000000 		.4byte	.LVL19-.Ltext0
 4101 07d2 88000000 		.4byte	.LVL20-.Ltext0
 4102 07d6 0100     		.2byte	0x1
 4103 07d8 50       		.byte	0x50
 4104 07d9 00000000 		.4byte	0
 4105 07dd 00000000 		.4byte	0
 4106              	.LLST0:
 4107 07e1 00000000 		.4byte	.LFB14-.Ltext0
 4108 07e5 02000000 		.4byte	.LCFI0-.Ltext0
 4109 07e9 0200     		.2byte	0x2
 4110 07eb 7D       		.byte	0x7d
 4111 07ec 00       		.sleb128 0
 4112 07ed 02000000 		.4byte	.LCFI0-.Ltext0
 4113 07f1 54000000 		.4byte	.LFE14-.Ltext0
 4114 07f5 0200     		.2byte	0x2
 4115 07f7 7D       		.byte	0x7d
 4116 07f8 10       		.sleb128 16
 4117 07f9 00000000 		.4byte	0
 4118 07fd 00000000 		.4byte	0
 4119              	.LLST1:
 4120 0801 0C000000 		.4byte	.LVL0-.Ltext0
 4121 0805 0E000000 		.4byte	.LVL1-.Ltext0
 4122 0809 0100     		.2byte	0x1
 4123 080b 50       		.byte	0x50
 4124 080c 42000000 		.4byte	.LVL8-.Ltext0
 4125 0810 46000000 		.4byte	.LVL9-.Ltext0
 4126 0814 0100     		.2byte	0x1
 4127 0816 50       		.byte	0x50
 4128 0817 00000000 		.4byte	0
 4129 081b 00000000 		.4byte	0
 4130              	.LLST2:
 4131 081f 0E000000 		.4byte	.LVL1-.Ltext0
 4132 0823 26000000 		.4byte	.LVL2-.Ltext0
 4133 0827 0200     		.2byte	0x2
 4134 0829 30       		.byte	0x30
 4135 082a 9F       		.byte	0x9f
ARM GAS  G:\Users\Jaxb\AppData\Local\Temp\ccN55nbM.s 			page 80


 4136 082b 26000000 		.4byte	.LVL2-.Ltext0
 4137 082f 28000000 		.4byte	.LVL3-.Ltext0
 4138 0833 0200     		.2byte	0x2
 4139 0835 31       		.byte	0x31
 4140 0836 9F       		.byte	0x9f
 4141 0837 28000000 		.4byte	.LVL3-.Ltext0
 4142 083b 32000000 		.4byte	.LVL4-.Ltext0
 4143 083f 0200     		.2byte	0x2
 4144 0841 32       		.byte	0x32
 4145 0842 9F       		.byte	0x9f
 4146 0843 32000000 		.4byte	.LVL4-.Ltext0
 4147 0847 3A000000 		.4byte	.LVL5-.Ltext0
 4148 084b 0200     		.2byte	0x2
 4149 084d 33       		.byte	0x33
 4150 084e 9F       		.byte	0x9f
 4151 084f 3A000000 		.4byte	.LVL5-.Ltext0
 4152 0853 3E000000 		.4byte	.LVL6-.Ltext0
 4153 0857 0200     		.2byte	0x2
 4154 0859 35       		.byte	0x35
 4155 085a 9F       		.byte	0x9f
 4156 085b 3E000000 		.4byte	.LVL6-.Ltext0
 4157 085f 40000000 		.4byte	.LVL7-.Ltext0
 4158 0863 0200     		.2byte	0x2
 4159 0865 37       		.byte	0x37
 4160 0866 9F       		.byte	0x9f
 4161 0867 00000000 		.4byte	0
 4162 086b 00000000 		.4byte	0
 4163              	.LLST3:
 4164 086f 0E000000 		.4byte	.LVL1-.Ltext0
 4165 0873 26000000 		.4byte	.LVL2-.Ltext0
 4166 0877 0600     		.2byte	0x6
 4167 0879 03       		.byte	0x3
 4168 087a 20000000 		.4byte	variable_array
 4169 087e 9F       		.byte	0x9f
 4170 087f 26000000 		.4byte	.LVL2-.Ltext0
 4171 0883 28000000 		.4byte	.LVL3-.Ltext0
 4172 0887 0600     		.2byte	0x6
 4173 0889 03       		.byte	0x3
 4174 088a 24000000 		.4byte	variable_array+4
 4175 088e 9F       		.byte	0x9f
 4176 088f 28000000 		.4byte	.LVL3-.Ltext0
 4177 0893 32000000 		.4byte	.LVL4-.Ltext0
 4178 0897 0600     		.2byte	0x6
 4179 0899 03       		.byte	0x3
 4180 089a 28000000 		.4byte	variable_array+8
 4181 089e 9F       		.byte	0x9f
 4182 089f 32000000 		.4byte	.LVL4-.Ltext0
 4183 08a3 3A000000 		.4byte	.LVL5-.Ltext0
 4184 08a7 0600     		.2byte	0x6
 4185 08a9 03       		.byte	0x3
 4186 08aa 2C000000 		.4byte	variable_array+12
 4187 08ae 9F       		.byte	0x9f
 4188 08af 3A000000 		.4byte	.LVL5-.Ltext0
 4189 08b3 3E000000 		.4byte	.LVL6-.Ltext0
 4190 08b7 0600     		.2byte	0x6
 4191 08b9 03       		.byte	0x3
 4192 08ba 34000000 		.4byte	variable_array+20
ARM GAS  G:\Users\Jaxb\AppData\Local\Temp\ccN55nbM.s 			page 81


 4193 08be 9F       		.byte	0x9f
 4194 08bf 3E000000 		.4byte	.LVL6-.Ltext0
 4195 08c3 40000000 		.4byte	.LVL7-.Ltext0
 4196 08c7 0600     		.2byte	0x6
 4197 08c9 03       		.byte	0x3
 4198 08ca 3C000000 		.4byte	variable_array+28
 4199 08ce 9F       		.byte	0x9f
 4200 08cf 00000000 		.4byte	0
 4201 08d3 00000000 		.4byte	0
 4202              	.LLST36:
 4203 08d7 20020000 		.4byte	.LVL76-.Ltext0
 4204 08db 34020000 		.4byte	.LVL77-.Ltext0
 4205 08df 0100     		.2byte	0x1
 4206 08e1 50       		.byte	0x50
 4207 08e2 34020000 		.4byte	.LVL77-.Ltext0
 4208 08e6 3C020000 		.4byte	.LVL78-.Ltext0
 4209 08ea 0300     		.2byte	0x3
 4210 08ec 70       		.byte	0x70
 4211 08ed 7F       		.sleb128 -1
 4212 08ee 9F       		.byte	0x9f
 4213 08ef 3C020000 		.4byte	.LVL78-.Ltext0
 4214 08f3 42020000 		.4byte	.LVL80-.Ltext0
 4215 08f7 0100     		.2byte	0x1
 4216 08f9 50       		.byte	0x50
 4217 08fa 42020000 		.4byte	.LVL80-.Ltext0
 4218 08fe 4C020000 		.4byte	.LVL81-.Ltext0
 4219 0902 0300     		.2byte	0x3
 4220 0904 70       		.byte	0x70
 4221 0905 7F       		.sleb128 -1
 4222 0906 9F       		.byte	0x9f
 4223 0907 4E020000 		.4byte	.LVL82-.Ltext0
 4224 090b 50020000 		.4byte	.LVL83-.Ltext0
 4225 090f 0100     		.2byte	0x1
 4226 0911 50       		.byte	0x50
 4227 0912 50020000 		.4byte	.LVL83-.Ltext0
 4228 0916 52020000 		.4byte	.LFE23-.Ltext0
 4229 091a 0400     		.2byte	0x4
 4230 091c F3       		.byte	0xf3
 4231 091d 01       		.uleb128 0x1
 4232 091e 50       		.byte	0x50
 4233 091f 9F       		.byte	0x9f
 4234 0920 00000000 		.4byte	0
 4235 0924 00000000 		.4byte	0
 4236              	.LLST37:
 4237 0928 20020000 		.4byte	.LVL76-.Ltext0
 4238 092c 34020000 		.4byte	.LVL77-.Ltext0
 4239 0930 0200     		.2byte	0x2
 4240 0932 30       		.byte	0x30
 4241 0933 9F       		.byte	0x9f
 4242 0934 34020000 		.4byte	.LVL77-.Ltext0
 4243 0938 4E020000 		.4byte	.LVL82-.Ltext0
 4244 093c 0100     		.2byte	0x1
 4245 093e 52       		.byte	0x52
 4246 093f 4E020000 		.4byte	.LVL82-.Ltext0
 4247 0943 52020000 		.4byte	.LFE23-.Ltext0
 4248 0947 0200     		.2byte	0x2
 4249 0949 30       		.byte	0x30
ARM GAS  G:\Users\Jaxb\AppData\Local\Temp\ccN55nbM.s 			page 82


 4250 094a 9F       		.byte	0x9f
 4251 094b 00000000 		.4byte	0
 4252 094f 00000000 		.4byte	0
 4253              		.section	.debug_aranges,"",%progbits
 4254 0000 1C000000 		.4byte	0x1c
 4255 0004 0200     		.2byte	0x2
 4256 0006 00000000 		.4byte	.Ldebug_info0
 4257 000a 04       		.byte	0x4
 4258 000b 00       		.byte	0
 4259 000c 0000     		.2byte	0
 4260 000e 0000     		.2byte	0
 4261 0010 00000000 		.4byte	.Ltext0
 4262 0014 90030000 		.4byte	.Letext0-.Ltext0
 4263 0018 00000000 		.4byte	0
 4264 001c 00000000 		.4byte	0
 4265              		.section	.debug_ranges,"",%progbits
 4266              	.Ldebug_ranges0:
 4267 0000 12010000 		.4byte	.LBB24-.Ltext0
 4268 0004 46010000 		.4byte	.LBE24-.Ltext0
 4269 0008 7C010000 		.4byte	.LBB28-.Ltext0
 4270 000c 90010000 		.4byte	.LBE28-.Ltext0
 4271 0010 00000000 		.4byte	0
 4272 0014 00000000 		.4byte	0
 4273              		.section	.debug_line,"",%progbits
 4274              	.Ldebug_line0:
 4275 0000 9E020000 		.section	.debug_str,"MS",%progbits,1
 4275      02004701 
 4275      00000201 
 4275      FB0E0D00 
 4275      01010101 
 4276              	.LASF81:
 4277 0000 6B615F73 		.ascii	"ka_strncmp\000"
 4277      74726E63 
 4277      6D7000
 4278              	.LASF80:
 4279 000b 6B615F73 		.ascii	"ka_strlen\000"
 4279      74726C65 
 4279      6E00
 4280              	.LASF72:
 4281 0015 5F5F696E 		.ascii	"__init_shell_variable_array\000"
 4281      69745F73 
 4281      68656C6C 
 4281      5F766172 
 4281      6961626C 
 4282              	.LASF42:
 4283 0031 76617269 		.ascii	"variable_array\000"
 4283      61626C65 
 4283      5F617272 
 4283      617900
 4284              	.LASF44:
 4285 0040 696E7075 		.ascii	"input_buffer_ptr\000"
 4285      745F6275 
 4285      66666572 
 4285      5F707472 
 4285      00
 4286              	.LASF21:
 4287 0051 6C697374 		.ascii	"list_head\000"
ARM GAS  G:\Users\Jaxb\AppData\Local\Temp\ccN55nbM.s 			page 83


 4287      5F686561 
 4287      6400
 4288              	.LASF6:
 4289 005b 7368656C 		.ascii	"shell_v_name\000"
 4289      6C5F765F 
 4289      6E616D65 
 4289      00
 4290              	.LASF73:
 4291 0068 73696E67 		.ascii	"singly_list_add\000"
 4291      6C795F6C 
 4291      6973745F 
 4291      61646400 
 4292              	.LASF59:
 4293 0078 61726763 		.ascii	"argc\000"
 4293      00
 4294              	.LASF52:
 4295 007d 7368656C 		.ascii	"shell_insert_variable\000"
 4295      6C5F696E 
 4295      73657274 
 4295      5F766172 
 4295      6961626C 
 4296              	.LASF28:
 4297 0093 64617461 		.ascii	"data_list_head\000"
 4297      5F6C6973 
 4297      745F6865 
 4297      616400
 4298              	.LASF11:
 4299 00a2 73686F72 		.ascii	"short int\000"
 4299      7420696E 
 4299      7400
 4300              	.LASF20:
 4301 00ac 73697A65 		.ascii	"size_t\000"
 4301      5F7400
 4302              	.LASF62:
 4303 00b3 7368656C 		.ascii	"shell_debug_stop\000"
 4303      6C5F6465 
 4303      6275675F 
 4303      73746F70 
 4303      00
 4304              	.LASF88:
 4305 00c4 7368656C 		.ascii	"shell_v_hash\000"
 4305      6C5F765F 
 4305      68617368 
 4305      00
 4306              	.LASF25:
 4307 00d1 6964656E 		.ascii	"identify_data\000"
 4307      74696679 
 4307      5F646174 
 4307      6100
 4308              	.LASF26:
 4309 00df 64617461 		.ascii	"data_list\000"
 4309      5F6C6973 
 4309      7400
 4310              	.LASF34:
 4311 00e9 4D43425F 		.ascii	"MCB_FLAG_NON_BLOCKING\000"
 4311      464C4147 
 4311      5F4E4F4E 
ARM GAS  G:\Users\Jaxb\AppData\Local\Temp\ccN55nbM.s 			page 84


 4311      5F424C4F 
 4311      434B494E 
 4312              	.LASF4:
 4313 00ff 7368656C 		.ascii	"shell_variable\000"
 4313      6C5F7661 
 4313      72696162 
 4313      6C6500
 4314              	.LASF57:
 4315 010e 5F5F6D70 		.ascii	"__mptr\000"
 4315      747200
 4316              	.LASF74:
 4317 0115 494E4954 		.ascii	"INIT_SINGLY_LIST_HEAD\000"
 4317      5F53494E 
 4317      474C595F 
 4317      4C495354 
 4317      5F484541 
 4318              	.LASF41:
 4319 012b 666C6167 		.ascii	"flag_for_shell_debug\000"
 4319      5F666F72 
 4319      5F736865 
 4319      6C6C5F64 
 4319      65627567 
 4320              	.LASF71:
 4321 0140 68656164 		.ascii	"head\000"
 4321      00
 4322              	.LASF84:
 4323 0145 2E2E2F2E 		.ascii	"../../source/src/user/shell/shell_debug.c\000"
 4323      2E2F736F 
 4323      75726365 
 4323      2F737263 
 4323      2F757365 
 4324              	.LASF67:
 4325 016f 6C696E65 		.ascii	"line\000"
 4325      00
 4326              	.LASF3:
 4327 0174 73696E67 		.ascii	"singly_list_head\000"
 4327      6C795F6C 
 4327      6973745F 
 4327      68656164 
 4327      00
 4328              	.LASF1:
 4329 0185 666C6F61 		.ascii	"float\000"
 4329      7400
 4330              	.LASF14:
 4331 018b 6C6F6E67 		.ascii	"long long int\000"
 4331      206C6F6E 
 4331      6720696E 
 4331      7400
 4332              	.LASF39:
 4333 0199 666C6167 		.ascii	"flag\000"
 4333      00
 4334              	.LASF24:
 4335 019e 696E7365 		.ascii	"insert_sort_data\000"
 4335      72745F73 
 4335      6F72745F 
 4335      64617461 
 4335      00
ARM GAS  G:\Users\Jaxb\AppData\Local\Temp\ccN55nbM.s 			page 85


 4336              	.LASF31:
 4337 01af 6765745F 		.ascii	"get_data_ptr\000"
 4337      64617461 
 4337      5F707472 
 4337      00
 4338              	.LASF79:
 4339 01bc 6B615F6D 		.ascii	"ka_malloc\000"
 4339      616C6C6F 
 4339      6300
 4340              	.LASF49:
 4341 01c6 7368656C 		.ascii	"shell_v_write\000"
 4341      6C5F765F 
 4341      77726974 
 4341      6500
 4342              	.LASF50:
 4343 01d4 7368656C 		.ascii	"shell_v_display_addr\000"
 4343      6C5F765F 
 4343      64697370 
 4343      6C61795F 
 4343      61646472 
 4344              	.LASF78:
 4345 01e9 6B615F70 		.ascii	"ka_printf\000"
 4345      72696E74 
 4345      6600
 4346              	.LASF56:
 4347 01f3 68617368 		.ascii	"hash_value\000"
 4347      5F76616C 
 4347      756500
 4348              	.LASF53:
 4349 01fe 6E616D65 		.ascii	"name\000"
 4349      00
 4350              	.LASF29:
 4351 0203 64617461 		.ascii	"data_num\000"
 4351      5F6E756D 
 4351      00
 4352              	.LASF77:
 4353 020c 5F415353 		.ascii	"_ASSERT\000"
 4353      45525400 
 4354              	.LASF76:
 4355 0214 6B615F61 		.ascii	"ka_atof\000"
 4355      746F6600 
 4356              	.LASF65:
 4357 021c 696E7365 		.ascii	"insert_break_point\000"
 4357      72745F62 
 4357      7265616B 
 4357      5F706F69 
 4357      6E7400
 4358              	.LASF15:
 4359 022f 756E7369 		.ascii	"unsigned char\000"
 4359      676E6564 
 4359      20636861 
 4359      7200
 4360              	.LASF51:
 4361 023d 7368656C 		.ascii	"shell_v_display\000"
 4361      6C5F765F 
 4361      64697370 
 4361      6C617900 
ARM GAS  G:\Users\Jaxb\AppData\Local\Temp\ccN55nbM.s 			page 86


 4362              	.LASF37:
 4363 024d 4D43425F 		.ascii	"MCB_insert_sort_list\000"
 4363      696E7365 
 4363      72745F73 
 4363      6F72745F 
 4363      6C697374 
 4364              	.LASF55:
 4365 0262 68617368 		.ascii	"hash\000"
 4365      00
 4366              	.LASF10:
 4367 0267 7369676E 		.ascii	"signed char\000"
 4367      65642063 
 4367      68617200 
 4368              	.LASF19:
 4369 0273 6C6F6E67 		.ascii	"long long unsigned int\000"
 4369      206C6F6E 
 4369      6720756E 
 4369      7369676E 
 4369      65642069 
 4370              	.LASF54:
 4371 028a 74797065 		.ascii	"type\000"
 4371      00
 4372              	.LASF17:
 4373 028f 756E7369 		.ascii	"unsigned int\000"
 4373      676E6564 
 4373      20696E74 
 4373      00
 4374              	.LASF87:
 4375 029c 4D43425F 		.ascii	"MCB_WAIT_FLAG\000"
 4375      57414954 
 4375      5F464C41 
 4375      4700
 4376              	.LASF90:
 4377 02aa 73696E67 		.ascii	"singly_list_empty\000"
 4377      6C795F6C 
 4377      6973745F 
 4377      656D7074 
 4377      7900
 4378              	.LASF60:
 4379 02bc 61726776 		.ascii	"argv\000"
 4379      00
 4380              	.LASF70:
 4381 02c1 5F5F696E 		.ascii	"__init_shell_debug\000"
 4381      69745F73 
 4381      68656C6C 
 4381      5F646562 
 4381      756700
 4382              	.LASF32:
 4383 02d4 76616C75 		.ascii	"value_cmp\000"
 4383      655F636D 
 4383      7000
 4384              	.LASF16:
 4385 02de 73686F72 		.ascii	"short unsigned int\000"
 4385      7420756E 
 4385      7369676E 
 4385      65642069 
 4385      6E7400
ARM GAS  G:\Users\Jaxb\AppData\Local\Temp\ccN55nbM.s 			page 87


 4386              	.LASF2:
 4387 02f1 63686172 		.ascii	"char\000"
 4387      00
 4388              	.LASF7:
 4389 02f6 7368656C 		.ascii	"shell_v_type\000"
 4389      6C5F765F 
 4389      74797065 
 4389      00
 4390              	.LASF35:
 4391 0303 4D43425F 		.ascii	"MCB_FLAG_BINARY\000"
 4391      464C4147 
 4391      5F42494E 
 4391      41525900 
 4392              	.LASF9:
 4393 0313 6C697374 		.ascii	"list\000"
 4393      00
 4394              	.LASF61:
 4395 0318 62756666 		.ascii	"buffer\000"
 4395      657200
 4396              	.LASF45:
 4397 031f 696E745F 		.ascii	"int_buffer\000"
 4397      62756666 
 4397      657200
 4398              	.LASF36:
 4399 032a 6D657373 		.ascii	"message_struct\000"
 4399      6167655F 
 4399      73747275 
 4399      637400
 4400              	.LASF89:
 4401 0339 66696E64 		.ascii	"find_in_variable_array\000"
 4401      5F696E5F 
 4401      76617269 
 4401      61626C65 
 4401      5F617272 
 4402              	.LASF47:
 4403 0350 646F7562 		.ascii	"double_buffer\000"
 4403      6C655F62 
 4403      75666665 
 4403      7200
 4404              	.LASF63:
 4405 035e 7368656C 		.ascii	"shell_debug_run\000"
 4405      6C5F6465 
 4405      6275675F 
 4405      72756E00 
 4406              	.LASF46:
 4407 036e 666C6F61 		.ascii	"float_buffer\000"
 4407      745F6275 
 4407      66666572 
 4407      00
 4408              	.LASF82:
 4409 037b 696E6974 		.ascii	"init_MCB\000"
 4409      5F4D4342 
 4409      00
 4410              	.LASF0:
 4411 0384 646F7562 		.ascii	"double\000"
 4411      6C6500
 4412              	.LASF85:
ARM GAS  G:\Users\Jaxb\AppData\Local\Temp\ccN55nbM.s 			page 88


 4413 038b 473A5C55 		.ascii	"G:\\Users\\Jaxb\\Desktop\\KAKAOS-0.07  2019.2.21  f"
 4413      73657273 
 4413      5C4A6178 
 4413      625C4465 
 4413      736B746F 
 4414 03ba 6F722067 		.ascii	"or gcc\\Project\\RVMDK\243\250uv5\243\251\000"
 4414      63635C50 
 4414      726F6A65 
 4414      63745C52 
 4414      564D444B 
 4415              	.LASF43:
 4416 03d6 7368656C 		.ascii	"shell_variable_ptr\000"
 4416      6C5F7661 
 4416      72696162 
 4416      6C655F70 
 4416      747200
 4417              	.LASF27:
 4418 03e9 696E7365 		.ascii	"insert_sort_entity\000"
 4418      72745F73 
 4418      6F72745F 
 4418      656E7469 
 4418      747900
 4419              	.LASF68:
 4420 03fc 66756E63 		.ascii	"function_name\000"
 4420      74696F6E 
 4420      5F6E616D 
 4420      6500
 4421              	.LASF58:
 4422 040a 7368656C 		.ascii	"shell_debug_info\000"
 4422      6C5F6465 
 4422      6275675F 
 4422      696E666F 
 4422      00
 4423              	.LASF30:
 4424 041b 636F6D70 		.ascii	"compare\000"
 4424      61726500 
 4425              	.LASF40:
 4426 0423 4D43425F 		.ascii	"MCB_for_shell_debug\000"
 4426      666F725F 
 4426      7368656C 
 4426      6C5F6465 
 4426      62756700 
 4427              	.LASF33:
 4428 0437 4D43425F 		.ascii	"MCB_FLAG_WAIT\000"
 4428      464C4147 
 4428      5F574149 
 4428      5400
 4429              	.LASF66:
 4430 0445 66696C65 		.ascii	"file_name\000"
 4430      5F6E616D 
 4430      6500
 4431              	.LASF86:
 4432 044f 675F696E 		.ascii	"g_interrupt_count\000"
 4432      74657272 
 4432      7570745F 
 4432      636F756E 
 4432      7400
ARM GAS  G:\Users\Jaxb\AppData\Local\Temp\ccN55nbM.s 			page 89


 4433              	.LASF69:
 4434 0461 6572726F 		.ascii	"error\000"
 4434      7200
 4435              	.LASF83:
 4436 0467 474E5520 		.ascii	"GNU C11 7.3.1 20180622 (release) [ARM/embedded-7-br"
 4436      43313120 
 4436      372E332E 
 4436      31203230 
 4436      31383036 
 4437 049a 616E6368 		.ascii	"anch revision 261907] -mcpu=cortex-m3 -mthumb -mapc"
 4437      20726576 
 4437      6973696F 
 4437      6E203236 
 4437      31393037 
 4438 04cd 732D6672 		.ascii	"s-frame -mthumb-interwork -mcpu=cortex-m3 -mthumb -"
 4438      616D6520 
 4438      2D6D7468 
 4438      756D622D 
 4438      696E7465 
 4439 0500 67647761 		.ascii	"gdwarf-2 -O2\000"
 4439      72662D32 
 4439      202D4F32 
 4439      00
 4440              	.LASF75:
 4441 050d 6B615F61 		.ascii	"ka_atoi\000"
 4441      746F6900 
 4442              	.LASF22:
 4443 0515 70726576 		.ascii	"prev\000"
 4443      00
 4444              	.LASF13:
 4445 051a 494E5433 		.ascii	"INT32\000"
 4445      3200
 4446              	.LASF38:
 4447 0520 7265736F 		.ascii	"resource_num\000"
 4447      75726365 
 4447      5F6E756D 
 4447      00
 4448              	.LASF18:
 4449 052d 55494E54 		.ascii	"UINT64\000"
 4449      363400
 4450              	.LASF48:
 4451 0534 63686172 		.ascii	"char_buffer\000"
 4451      5F627566 
 4451      66657200 
 4452              	.LASF64:
 4453 0540 7368656C 		.ascii	"shell_debug_next\000"
 4453      6C5F6465 
 4453      6275675F 
 4453      6E657874 
 4453      00
 4454              	.LASF23:
 4455 0551 69645F74 		.ascii	"id_type\000"
 4455      79706500 
 4456              	.LASF8:
 4457 0559 64617461 		.ascii	"data_ptr\000"
 4457      5F707472 
 4457      00
ARM GAS  G:\Users\Jaxb\AppData\Local\Temp\ccN55nbM.s 			page 90


 4458              	.LASF5:
 4459 0562 6E657874 		.ascii	"next\000"
 4459      00
 4460              	.LASF12:
 4461 0567 5368656C 		.ascii	"Shell_V_Type\000"
 4461      6C5F565F 
 4461      54797065 
 4461      00
 4462              		.ident	"GCC: (GNU Tools for Arm Embedded Processors 7-2018-q2-update) 7.3.1 20180622 (release) [AR
ARM GAS  G:\Users\Jaxb\AppData\Local\Temp\ccN55nbM.s 			page 91


DEFINED SYMBOLS
                            *ABS*:00000000 shell_debug.c
G:\Users\Jaxb\AppData\Local\Temp\ccN55nbM.s:15     .text:00000000 $t
G:\Users\Jaxb\AppData\Local\Temp\ccN55nbM.s:23     .text:00000000 __init_shell_debug
G:\Users\Jaxb\AppData\Local\Temp\ccN55nbM.s:92     .text:0000004c $d
G:\Users\Jaxb\AppData\Local\Temp\ccN55nbM.s:97     .text:00000054 $t
G:\Users\Jaxb\AppData\Local\Temp\ccN55nbM.s:105    .text:00000054 insert_break_point
G:\Users\Jaxb\AppData\Local\Temp\ccN55nbM.s:168    .text:0000008c $d
G:\Users\Jaxb\AppData\Local\Temp\ccN55nbM.s:177    .text:000000a4 $t
G:\Users\Jaxb\AppData\Local\Temp\ccN55nbM.s:185    .text:000000a4 shell_debug_next
G:\Users\Jaxb\AppData\Local\Temp\ccN55nbM.s:201    .text:000000ac $d
G:\Users\Jaxb\AppData\Local\Temp\ccN55nbM.s:205    .text:000000b0 $t
G:\Users\Jaxb\AppData\Local\Temp\ccN55nbM.s:213    .text:000000b0 shell_debug_run
G:\Users\Jaxb\AppData\Local\Temp\ccN55nbM.s:239    .text:000000c0 $d
G:\Users\Jaxb\AppData\Local\Temp\ccN55nbM.s:244    .text:000000c8 $t
G:\Users\Jaxb\AppData\Local\Temp\ccN55nbM.s:252    .text:000000c8 shell_debug_stop
G:\Users\Jaxb\AppData\Local\Temp\ccN55nbM.s:269    .text:000000d0 $d
G:\Users\Jaxb\AppData\Local\Temp\ccN55nbM.s:273    .text:000000d4 $t
G:\Users\Jaxb\AppData\Local\Temp\ccN55nbM.s:281    .text:000000d4 shell_debug_info
G:\Users\Jaxb\AppData\Local\Temp\ccN55nbM.s:338    .text:00000104 $d
G:\Users\Jaxb\AppData\Local\Temp\ccN55nbM.s:343    .text:0000010c $t
G:\Users\Jaxb\AppData\Local\Temp\ccN55nbM.s:351    .text:0000010c find_in_variable_array
G:\Users\Jaxb\AppData\Local\Temp\ccN55nbM.s:470    .text:00000188 $d
G:\Users\Jaxb\AppData\Local\Temp\ccN55nbM.s:477    .text:00000190 $t
G:\Users\Jaxb\AppData\Local\Temp\ccN55nbM.s:485    .text:00000190 shell_insert_variable
G:\Users\Jaxb\AppData\Local\Temp\ccN55nbM.s:617    .text:00000218 $d
G:\Users\Jaxb\AppData\Local\Temp\ccN55nbM.s:622    .text:00000220 $t
G:\Users\Jaxb\AppData\Local\Temp\ccN55nbM.s:630    .text:00000220 shell_v_hash
G:\Users\Jaxb\AppData\Local\Temp\ccN55nbM.s:689    .text:00000254 shell_v_display
G:\Users\Jaxb\AppData\Local\Temp\ccN55nbM.s:714    .text:00000268 $d
G:\Users\Jaxb\AppData\Local\Temp\ccN55nbM.s:839    .text:000002d8 $d
G:\Users\Jaxb\AppData\Local\Temp\ccN55nbM.s:847    .text:000002ec $t
G:\Users\Jaxb\AppData\Local\Temp\ccN55nbM.s:855    .text:000002ec shell_v_display_addr
G:\Users\Jaxb\AppData\Local\Temp\ccN55nbM.s:900    .text:0000030c $d
G:\Users\Jaxb\AppData\Local\Temp\ccN55nbM.s:906    .text:00000314 $t
G:\Users\Jaxb\AppData\Local\Temp\ccN55nbM.s:914    .text:00000314 shell_v_write
G:\Users\Jaxb\AppData\Local\Temp\ccN55nbM.s:945    .text:0000032c $d
G:\Users\Jaxb\AppData\Local\Temp\ccN55nbM.s:1039   .text:0000038c $d
G:\Users\Jaxb\AppData\Local\Temp\ccN55nbM.s:1044   .data:00000000 $d
G:\Users\Jaxb\AppData\Local\Temp\ccN55nbM.s:1048   .data:00000000 flag_for_shell_debug
G:\Users\Jaxb\AppData\Local\Temp\ccN55nbM.s:1051   .bss:00000000 $d
G:\Users\Jaxb\AppData\Local\Temp\ccN55nbM.s:1055   .bss:00000000 MCB_for_shell_debug
G:\Users\Jaxb\AppData\Local\Temp\ccN55nbM.s:1059   .bss:00000020 variable_array
G:\Users\Jaxb\AppData\Local\Temp\ccN55nbM.s:1062   .rodata.str1.4:00000000 $d
G:\Users\Jaxb\AppData\Local\Temp\ccN55nbM.s:723    .text:00000271 $d
G:\Users\Jaxb\AppData\Local\Temp\ccN55nbM.s:723    .text:00000272 $t
G:\Users\Jaxb\AppData\Local\Temp\ccN55nbM.s:954    .text:00000335 $d
G:\Users\Jaxb\AppData\Local\Temp\ccN55nbM.s:954    .text:00000336 $t

UNDEFINED SYMBOLS
init_MCB
_ASSERT
ka_printf
p
v
ka_strlen
ka_strncmp
ARM GAS  G:\Users\Jaxb\AppData\Local\Temp\ccN55nbM.s 			page 92


ka_malloc
__aeabi_f2d
__aeabi_d2f
ka_atof
ka_atoi
