ARM GAS  G:\Users\Jaxb\AppData\Local\Temp\cc9lI2vO.s 			page 1


   1              		.cpu cortex-m3
   2              		.eabi_attribute 20, 1
   3              		.eabi_attribute 21, 1
   4              		.eabi_attribute 23, 3
   5              		.eabi_attribute 24, 1
   6              		.eabi_attribute 25, 1
   7              		.eabi_attribute 26, 1
   8              		.eabi_attribute 30, 2
   9              		.eabi_attribute 34, 1
  10              		.eabi_attribute 18, 4
  11              		.file	"shell_fun.c"
  12              		.text
  13              	.Ltext0:
  14              		.cfi_sections	.debug_frame
  15              		.align	1
  16              		.p2align 2,,3
  17              		.global	test
  18              		.syntax unified
  19              		.thumb
  20              		.thumb_func
  21              		.fpu softvfp
  22              		.type	test, %function
  23              	test:
  24              	.LFB16:
  25              		.file 1 "../../source/src/kernel/SHELL/shell_fun.c"
   1:../../source/src/kernel/SHELL/shell_fun.c **** #include <shell_fun.h>
   2:../../source/src/kernel/SHELL/shell_fun.c **** #include <os_time.h>
   3:../../source/src/kernel/SHELL/shell_fun.c **** #include <myMicroLIB.h>
   4:../../source/src/kernel/SHELL/shell_fun.c **** #include <buddy.h>
   5:../../source/src/kernel/SHELL/shell_fun.c **** #include <shell_debug.h>
   6:../../source/src/kernel/SHELL/shell_fun.c **** #include <myassert.h>
   7:../../source/src/kernel/SHELL/shell_fun.c **** #include <shell.h>
   8:../../source/src/kernel/SHELL/shell_fun.c **** #include <os_delay.h>
   9:../../source/src/kernel/SHELL/shell_fun.c **** #include <os_ready.h>
  10:../../source/src/kernel/SHELL/shell_fun.c **** #include <os_TCB_list.h>
  11:../../source/src/kernel/SHELL/shell_fun.c **** #include <printf_debug.h>
  12:../../source/src/kernel/SHELL/shell_fun.c **** #include <buddy.h>
  13:../../source/src/kernel/SHELL/shell_fun.c **** #include <osinit.h>
  14:../../source/src/kernel/SHELL/shell_fun.c **** #include <module.h>
  15:../../source/src/kernel/SHELL/shell_fun.c **** 
  16:../../source/src/kernel/SHELL/shell_fun.c **** #if CONFIG_SHELL_EN
  17:../../source/src/kernel/SHELL/shell_fun.c **** 
  18:../../source/src/kernel/SHELL/shell_fun.c **** //add corresponding function here
  19:../../source/src/kernel/SHELL/shell_fun.c **** void test(int argc, char const *argv[])
  20:../../source/src/kernel/SHELL/shell_fun.c **** {
  26              		.loc 1 20 0
  27              		.cfi_startproc
  28              		@ args = 0, pretend = 0, frame = 0
  29              		@ frame_needed = 0, uses_anonymous_args = 0
  30              	.LVL0:
  31 0000 F8B5     		push	{r3, r4, r5, r6, r7, lr}
  32              	.LCFI0:
  33              		.cfi_def_cfa_offset 24
  34              		.cfi_offset 3, -24
  35              		.cfi_offset 4, -20
  36              		.cfi_offset 5, -16
  37              		.cfi_offset 6, -12
ARM GAS  G:\Users\Jaxb\AppData\Local\Temp\cc9lI2vO.s 			page 2


  38              		.cfi_offset 7, -8
  39              		.cfi_offset 14, -4
  21:../../source/src/kernel/SHELL/shell_fun.c **** 	(void)argc;
  22:../../source/src/kernel/SHELL/shell_fun.c **** 	(void)argv;
  23:../../source/src/kernel/SHELL/shell_fun.c **** 	int i;
  24:../../source/src/kernel/SHELL/shell_fun.c **** 	for(i=0;i<argc;++i)
  40              		.loc 1 24 0
  41 0002 061E     		subs	r6, r0, #0
  42 0004 0BDD     		ble	.L1
  43 0006 0024     		movs	r4, #0
  25:../../source/src/kernel/SHELL/shell_fun.c **** 	{
  26:../../source/src/kernel/SHELL/shell_fun.c **** 		ka_printf("parament %d : %s\n",i,argv[i]);
  44              		.loc 1 26 0
  45 0008 054F     		ldr	r7, .L6
  46 000a 0D1F     		subs	r5, r1, #4
  47              	.LVL1:
  48              	.L3:
  49              		.loc 1 26 0 is_stmt 0 discriminator 3
  50 000c 2146     		mov	r1, r4
  51 000e 55F8042F 		ldr	r2, [r5, #4]!
  52 0012 3846     		mov	r0, r7
  24:../../source/src/kernel/SHELL/shell_fun.c **** 	{
  53              		.loc 1 24 0 is_stmt 1 discriminator 3
  54 0014 0134     		adds	r4, r4, #1
  55              	.LVL2:
  56              		.loc 1 26 0 discriminator 3
  57 0016 FFF7FEFF 		bl	ka_printf
  58              	.LVL3:
  24:../../source/src/kernel/SHELL/shell_fun.c **** 	{
  59              		.loc 1 24 0 discriminator 3
  60 001a A642     		cmp	r6, r4
  61 001c F6D1     		bne	.L3
  62              	.LVL4:
  63              	.L1:
  27:../../source/src/kernel/SHELL/shell_fun.c **** 	}
  28:../../source/src/kernel/SHELL/shell_fun.c **** }
  64              		.loc 1 28 0
  65 001e F8BD     		pop	{r3, r4, r5, r6, r7, pc}
  66              	.LVL5:
  67              	.L7:
  68              		.align	2
  69              	.L6:
  70 0020 00000000 		.word	.LC0
  71              		.cfi_endproc
  72              	.LFE16:
  73              		.size	test, .-test
  74              		.align	1
  75              		.p2align 2,,3
  76              		.global	shell_version
  77              		.syntax unified
  78              		.thumb
  79              		.thumb_func
  80              		.fpu softvfp
  81              		.type	shell_version, %function
  82              	shell_version:
  83              	.LFB17:
  29:../../source/src/kernel/SHELL/shell_fun.c **** void shell_version(int argc, char const *argv[])
ARM GAS  G:\Users\Jaxb\AppData\Local\Temp\cc9lI2vO.s 			page 3


  30:../../source/src/kernel/SHELL/shell_fun.c **** {
  84              		.loc 1 30 0
  85              		.cfi_startproc
  86              		@ args = 0, pretend = 0, frame = 0
  87              		@ frame_needed = 0, uses_anonymous_args = 0
  88              		@ link register save eliminated.
  89              	.LVL6:
  31:../../source/src/kernel/SHELL/shell_fun.c **** 	(void)argc;
  32:../../source/src/kernel/SHELL/shell_fun.c **** 	(void)argv;
  33:../../source/src/kernel/SHELL/shell_fun.c **** 	ka_printf("VERSION : KAKAOS--0.07\n");
  90              		.loc 1 33 0
  91 0024 0148     		ldr	r0, .L9
  92              	.LVL7:
  93 0026 FFF7FEBF 		b	ka_printf
  94              	.LVL8:
  95              	.L10:
  96 002a 00BF     		.align	2
  97              	.L9:
  98 002c 14000000 		.word	.LC1
  99              		.cfi_endproc
 100              	.LFE17:
 101              		.size	shell_version, .-shell_version
 102              		.align	1
 103              		.p2align 2,,3
 104              		.global	shell_time
 105              		.syntax unified
 106              		.thumb
 107              		.thumb_func
 108              		.fpu softvfp
 109              		.type	shell_time, %function
 110              	shell_time:
 111              	.LFB18:
  34:../../source/src/kernel/SHELL/shell_fun.c **** }
  35:../../source/src/kernel/SHELL/shell_fun.c **** #if CONFIG_TIME_EN
  36:../../source/src/kernel/SHELL/shell_fun.c **** void shell_time(int argc, char const *argv[])
  37:../../source/src/kernel/SHELL/shell_fun.c **** {
 112              		.loc 1 37 0
 113              		.cfi_startproc
 114              		@ args = 0, pretend = 0, frame = 0
 115              		@ frame_needed = 0, uses_anonymous_args = 0
 116              		@ link register save eliminated.
 117              	.LVL9:
  38:../../source/src/kernel/SHELL/shell_fun.c **** 	(void)argc;
  39:../../source/src/kernel/SHELL/shell_fun.c **** 	(void)argv;
  40:../../source/src/kernel/SHELL/shell_fun.c **** 	system_time_display();
 118              		.loc 1 40 0
 119 0030 FFF7FEBF 		b	system_time_display
 120              	.LVL10:
 121              		.cfi_endproc
 122              	.LFE18:
 123              		.size	shell_time, .-shell_time
 124              		.align	1
 125              		.p2align 2,,3
 126              		.global	shell_memory
 127              		.syntax unified
 128              		.thumb
 129              		.thumb_func
ARM GAS  G:\Users\Jaxb\AppData\Local\Temp\cc9lI2vO.s 			page 4


 130              		.fpu softvfp
 131              		.type	shell_memory, %function
 132              	shell_memory:
 133              	.LFB19:
  41:../../source/src/kernel/SHELL/shell_fun.c **** }
  42:../../source/src/kernel/SHELL/shell_fun.c **** #endif
  43:../../source/src/kernel/SHELL/shell_fun.c **** void shell_memory(int argc, char const *argv[])
  44:../../source/src/kernel/SHELL/shell_fun.c **** {
 134              		.loc 1 44 0
 135              		.cfi_startproc
 136              		@ args = 0, pretend = 0, frame = 0
 137              		@ frame_needed = 0, uses_anonymous_args = 0
 138              	.LVL11:
 139 0034 2DE9F041 		push	{r4, r5, r6, r7, r8, lr}
 140              	.LCFI1:
 141              		.cfi_def_cfa_offset 24
 142              		.cfi_offset 4, -24
 143              		.cfi_offset 5, -20
 144              		.cfi_offset 6, -16
 145              		.cfi_offset 7, -12
 146              		.cfi_offset 8, -8
 147              		.cfi_offset 14, -4
  45:../../source/src/kernel/SHELL/shell_fun.c **** 	(void)argc;
  46:../../source/src/kernel/SHELL/shell_fun.c **** 	(void)argv;
  47:../../source/src/kernel/SHELL/shell_fun.c **** 	struct buddy *buddy_ptr = (struct buddy *)get_os_buddy_ptr_head();
 148              		.loc 1 47 0
 149 0038 FFF7FEFF 		bl	get_os_buddy_ptr_head
 150              	.LVL12:
  48:../../source/src/kernel/SHELL/shell_fun.c **** 	ASSERT(NULL != buddy_ptr);
 151              		.loc 1 48 0
 152 003c 0446     		mov	r4, r0
 153 003e 80B3     		cbz	r0, .L16
 154 0040 0025     		movs	r5, #0
  49:../../source/src/kernel/SHELL/shell_fun.c **** 	unsigned int j = 0;
  50:../../source/src/kernel/SHELL/shell_fun.c **** 	while(NULL != buddy_ptr)
  51:../../source/src/kernel/SHELL/shell_fun.c **** 	{
  52:../../source/src/kernel/SHELL/shell_fun.c **** 		PRINTF("NO.%u memory : \n",j++);
 155              		.loc 1 52 0
 156 0042 DFF88880 		ldr	r8, .L17+28
  53:../../source/src/kernel/SHELL/shell_fun.c **** 		PRINTF("=====================================================\n");
 157              		.loc 1 53 0
 158 0046 1A4F     		ldr	r7, .L17
  54:../../source/src/kernel/SHELL/shell_fun.c **** 		PRINTF("start address is %p\n",buddy_ptr->buddy_space_start_ptr);
 159              		.loc 1 54 0
 160 0048 1A4E     		ldr	r6, .L17+4
 161              	.L13:
 162              	.LVL13:
  52:../../source/src/kernel/SHELL/shell_fun.c **** 		PRINTF("=====================================================\n");
 163              		.loc 1 52 0
 164 004a 2946     		mov	r1, r5
 165 004c 4046     		mov	r0, r8
 166              	.LVL14:
 167 004e FFF7FEFF 		bl	ka_printf
 168              	.LVL15:
  53:../../source/src/kernel/SHELL/shell_fun.c **** 		PRINTF("=====================================================\n");
 169              		.loc 1 53 0
 170 0052 3846     		mov	r0, r7
ARM GAS  G:\Users\Jaxb\AppData\Local\Temp\cc9lI2vO.s 			page 5


 171 0054 FFF7FEFF 		bl	ka_printf
 172              	.LVL16:
 173              		.loc 1 54 0
 174 0058 A16B     		ldr	r1, [r4, #56]
 175 005a 3046     		mov	r0, r6
 176 005c FFF7FEFF 		bl	ka_printf
 177              	.LVL17:
  55:../../source/src/kernel/SHELL/shell_fun.c **** 		PRINTF("rest buddy space is %u\n",get_current_buddy_space());
 178              		.loc 1 55 0
 179 0060 FFF7FEFF 		bl	get_current_buddy_space
 180              	.LVL18:
 181 0064 0146     		mov	r1, r0
 182 0066 1448     		ldr	r0, .L17+8
 183 0068 FFF7FEFF 		bl	ka_printf
 184              	.LVL19:
  56:../../source/src/kernel/SHELL/shell_fun.c **** 		PRINTF("the total space is %uKB\n",PAGE_SIZE_KB * buddy_ptr->info.page_num);
 185              		.loc 1 56 0
 186 006c 616A     		ldr	r1, [r4, #36]
 187 006e 1348     		ldr	r0, .L17+12
 188 0070 FFF7FEFF 		bl	ka_printf
 189              	.LVL20:
  57:../../source/src/kernel/SHELL/shell_fun.c **** 		PRINTF("now there are %u%% left\n",100*get_current_buddy_space()/(PAGE_SIZE_KB * buddy_ptr->info.
 190              		.loc 1 57 0
 191 0074 FFF7FEFF 		bl	get_current_buddy_space
 192              	.LVL21:
 193 0078 6423     		movs	r3, #100
 194 007a 03FB00F3 		mul	r3, r3, r0
 195 007e 616A     		ldr	r1, [r4, #36]
 196 0080 0F48     		ldr	r0, .L17+16
 197 0082 B3FBF1F1 		udiv	r1, r3, r1
 198 0086 FFF7FEFF 		bl	ka_printf
 199              	.LVL22:
  58:../../source/src/kernel/SHELL/shell_fun.c **** 		PRINTF("\n\n");
 200              		.loc 1 58 0
 201 008a 0E48     		ldr	r0, .L17+20
 202 008c FFF7FEFF 		bl	ka_printf
 203              	.LVL23:
  59:../../source/src/kernel/SHELL/shell_fun.c **** 		buddy_ptr = (struct buddy *)get_next_buddy_ptr_head(buddy_ptr);
 204              		.loc 1 59 0
 205 0090 2046     		mov	r0, r4
 206 0092 FFF7FEFF 		bl	get_next_buddy_ptr_head
 207              	.LVL24:
  52:../../source/src/kernel/SHELL/shell_fun.c **** 		PRINTF("=====================================================\n");
 208              		.loc 1 52 0
 209 0096 0135     		adds	r5, r5, #1
 210              	.LVL25:
  50:../../source/src/kernel/SHELL/shell_fun.c **** 	{
 211              		.loc 1 50 0
 212 0098 0446     		mov	r4, r0
 213 009a 0028     		cmp	r0, #0
 214 009c D5D1     		bne	.L13
  60:../../source/src/kernel/SHELL/shell_fun.c **** 	}
  61:../../source/src/kernel/SHELL/shell_fun.c **** }
 215              		.loc 1 61 0
 216 009e BDE8F081 		pop	{r4, r5, r6, r7, r8, pc}
 217              	.LVL26:
 218              	.L16:
ARM GAS  G:\Users\Jaxb\AppData\Local\Temp\cc9lI2vO.s 			page 6


  48:../../source/src/kernel/SHELL/shell_fun.c **** 	unsigned int j = 0;
 219              		.loc 1 48 0 discriminator 1
 220 00a2 3021     		movs	r1, #48
 221              		.loc 1 61 0 discriminator 1
 222 00a4 BDE8F041 		pop	{r4, r5, r6, r7, r8, lr}
 223              	.LCFI2:
 224              		.cfi_restore 14
 225              		.cfi_restore 8
 226              		.cfi_restore 7
 227              		.cfi_restore 6
 228              		.cfi_restore 5
 229              		.cfi_restore 4
 230              		.cfi_def_cfa_offset 0
  48:../../source/src/kernel/SHELL/shell_fun.c **** 	unsigned int j = 0;
 231              		.loc 1 48 0 discriminator 1
 232 00a8 0748     		ldr	r0, .L17+24
 233              	.LVL27:
 234 00aa FFF7FEBF 		b	_ASSERT
 235              	.LVL28:
 236              	.L18:
 237 00ae 00BF     		.align	2
 238              	.L17:
 239 00b0 6C000000 		.word	.LC4
 240 00b4 A4000000 		.word	.LC5
 241 00b8 BC000000 		.word	.LC6
 242 00bc D4000000 		.word	.LC7
 243 00c0 F0000000 		.word	.LC8
 244 00c4 0C010000 		.word	.LC9
 245 00c8 2C000000 		.word	.LC2
 246 00cc 58000000 		.word	.LC3
 247              		.cfi_endproc
 248              	.LFE19:
 249              		.size	shell_memory, .-shell_memory
 250              		.align	1
 251              		.p2align 2,,3
 252              		.global	shell_clear
 253              		.syntax unified
 254              		.thumb
 255              		.thumb_func
 256              		.fpu softvfp
 257              		.type	shell_clear, %function
 258              	shell_clear:
 259              	.LFB20:
  62:../../source/src/kernel/SHELL/shell_fun.c **** void shell_clear(int argc, char const *argv[])
  63:../../source/src/kernel/SHELL/shell_fun.c **** {
 260              		.loc 1 63 0
 261              		.cfi_startproc
 262              		@ args = 0, pretend = 0, frame = 0
 263              		@ frame_needed = 0, uses_anonymous_args = 0
 264              	.LVL29:
 265 00d0 38B5     		push	{r3, r4, r5, lr}
 266              	.LCFI3:
 267              		.cfi_def_cfa_offset 16
 268              		.cfi_offset 3, -16
 269              		.cfi_offset 4, -12
 270              		.cfi_offset 5, -8
 271              		.cfi_offset 14, -4
ARM GAS  G:\Users\Jaxb\AppData\Local\Temp\cc9lI2vO.s 			page 7


 272              		.loc 1 63 0
 273 00d2 2824     		movs	r4, #40
  64:../../source/src/kernel/SHELL/shell_fun.c **** 	(void)argc;
  65:../../source/src/kernel/SHELL/shell_fun.c **** 	(void)argv;
  66:../../source/src/kernel/SHELL/shell_fun.c **** 	unsigned int i;
  67:../../source/src/kernel/SHELL/shell_fun.c **** 	for(i=0;i<40;++i)
  68:../../source/src/kernel/SHELL/shell_fun.c **** 	{
  69:../../source/src/kernel/SHELL/shell_fun.c **** 		ka_printf("\n");
 274              		.loc 1 69 0
 275 00d4 034D     		ldr	r5, .L22
 276              	.LVL30:
 277              	.L20:
 278              		.loc 1 69 0 is_stmt 0 discriminator 3
 279 00d6 2846     		mov	r0, r5
 280 00d8 FFF7FEFF 		bl	ka_printf
 281              	.LVL31:
  67:../../source/src/kernel/SHELL/shell_fun.c **** 	{
 282              		.loc 1 67 0 is_stmt 1 discriminator 3
 283 00dc 013C     		subs	r4, r4, #1
 284              	.LVL32:
 285 00de FAD1     		bne	.L20
  70:../../source/src/kernel/SHELL/shell_fun.c **** 	}
  71:../../source/src/kernel/SHELL/shell_fun.c **** }
 286              		.loc 1 71 0
 287 00e0 38BD     		pop	{r3, r4, r5, pc}
 288              	.LVL33:
 289              	.L23:
 290 00e2 00BF     		.align	2
 291              	.L22:
 292 00e4 10010000 		.word	.LC10
 293              		.cfi_endproc
 294              	.LFE20:
 295              		.size	shell_clear, .-shell_clear
 296              		.align	1
 297              		.p2align 2,,3
 298              		.global	shell_echo
 299              		.syntax unified
 300              		.thumb
 301              		.thumb_func
 302              		.fpu softvfp
 303              		.type	shell_echo, %function
 304              	shell_echo:
 305              	.LFB21:
  72:../../source/src/kernel/SHELL/shell_fun.c **** #if CONFIG_SHELL_DEBUG_EN && CONFIG_SHELL_EN
  73:../../source/src/kernel/SHELL/shell_fun.c **** void shell_echo(int argc, char const *argv[])
  74:../../source/src/kernel/SHELL/shell_fun.c **** {
 306              		.loc 1 74 0
 307              		.cfi_startproc
 308              		@ args = 0, pretend = 0, frame = 0
 309              		@ frame_needed = 0, uses_anonymous_args = 0
 310              	.LVL34:
  75:../../source/src/kernel/SHELL/shell_fun.c **** 	if(argc < 2)
 311              		.loc 1 75 0
 312 00e8 0128     		cmp	r0, #1
  74:../../source/src/kernel/SHELL/shell_fun.c **** 	if(argc < 2)
 313              		.loc 1 74 0
 314 00ea 08B5     		push	{r3, lr}
ARM GAS  G:\Users\Jaxb\AppData\Local\Temp\cc9lI2vO.s 			page 8


 315              	.LCFI4:
 316              		.cfi_def_cfa_offset 8
 317              		.cfi_offset 3, -8
 318              		.cfi_offset 14, -4
 319              		.loc 1 75 0
 320 00ec 07DD     		ble	.L27
  76:../../source/src/kernel/SHELL/shell_fun.c **** 	{
  77:../../source/src/kernel/SHELL/shell_fun.c **** 		ka_printf("too few arguments!\n");
  78:../../source/src/kernel/SHELL/shell_fun.c **** 		return ;
  79:../../source/src/kernel/SHELL/shell_fun.c **** 	}
  80:../../source/src/kernel/SHELL/shell_fun.c **** 	struct shell_variable *shell_variable_ptr = find_in_variable_array(argv[1]);
 321              		.loc 1 80 0
 322 00ee 4868     		ldr	r0, [r1, #4]
 323              	.LVL35:
 324 00f0 FFF7FEFF 		bl	find_in_variable_array
 325              	.LVL36:
  81:../../source/src/kernel/SHELL/shell_fun.c **** 	if(NULL == shell_variable_ptr)
 326              		.loc 1 81 0
 327 00f4 40B1     		cbz	r0, .L28
  82:../../source/src/kernel/SHELL/shell_fun.c **** 	{
  83:../../source/src/kernel/SHELL/shell_fun.c **** 		ka_printf("no such variable\n");
  84:../../source/src/kernel/SHELL/shell_fun.c **** 		return ;
  85:../../source/src/kernel/SHELL/shell_fun.c **** 	}
  86:../../source/src/kernel/SHELL/shell_fun.c **** 	shell_v_display(shell_variable_ptr);
  87:../../source/src/kernel/SHELL/shell_fun.c **** 	return ;
  88:../../source/src/kernel/SHELL/shell_fun.c **** }
 328              		.loc 1 88 0
 329 00f6 BDE80840 		pop	{r3, lr}
 330              	.LCFI5:
 331              		.cfi_remember_state
 332              		.cfi_restore 14
 333              		.cfi_restore 3
 334              		.cfi_def_cfa_offset 0
  86:../../source/src/kernel/SHELL/shell_fun.c **** 	return ;
 335              		.loc 1 86 0
 336 00fa FFF7FEBF 		b	shell_v_display
 337              	.LVL37:
 338              	.L27:
 339              	.LCFI6:
 340              		.cfi_restore_state
  77:../../source/src/kernel/SHELL/shell_fun.c **** 		return ;
 341              		.loc 1 77 0
 342 00fe 0548     		ldr	r0, .L29
 343              	.LVL38:
 344              		.loc 1 88 0
 345 0100 BDE80840 		pop	{r3, lr}
 346              	.LCFI7:
 347              		.cfi_remember_state
 348              		.cfi_restore 14
 349              		.cfi_restore 3
 350              		.cfi_def_cfa_offset 0
  77:../../source/src/kernel/SHELL/shell_fun.c **** 		return ;
 351              		.loc 1 77 0
 352 0104 FFF7FEBF 		b	ka_printf
 353              	.LVL39:
 354              	.L28:
 355              	.LCFI8:
ARM GAS  G:\Users\Jaxb\AppData\Local\Temp\cc9lI2vO.s 			page 9


 356              		.cfi_restore_state
  83:../../source/src/kernel/SHELL/shell_fun.c **** 		return ;
 357              		.loc 1 83 0
 358 0108 0348     		ldr	r0, .L29+4
 359              	.LVL40:
 360              		.loc 1 88 0
 361 010a BDE80840 		pop	{r3, lr}
 362              	.LCFI9:
 363              		.cfi_restore 14
 364              		.cfi_restore 3
 365              		.cfi_def_cfa_offset 0
  83:../../source/src/kernel/SHELL/shell_fun.c **** 		return ;
 366              		.loc 1 83 0
 367 010e FFF7FEBF 		b	ka_printf
 368              	.LVL41:
 369              	.L30:
 370 0112 00BF     		.align	2
 371              	.L29:
 372 0114 14010000 		.word	.LC11
 373 0118 28010000 		.word	.LC12
 374              		.cfi_endproc
 375              	.LFE21:
 376              		.size	shell_echo, .-shell_echo
 377              		.align	1
 378              		.p2align 2,,3
 379              		.global	shell_set
 380              		.syntax unified
 381              		.thumb
 382              		.thumb_func
 383              		.fpu softvfp
 384              		.type	shell_set, %function
 385              	shell_set:
 386              	.LFB22:
  89:../../source/src/kernel/SHELL/shell_fun.c **** 
  90:../../source/src/kernel/SHELL/shell_fun.c **** void shell_set(int argc, char const *argv[])
  91:../../source/src/kernel/SHELL/shell_fun.c **** {
 387              		.loc 1 91 0
 388              		.cfi_startproc
 389              		@ args = 0, pretend = 0, frame = 0
 390              		@ frame_needed = 0, uses_anonymous_args = 0
 391              	.LVL42:
  92:../../source/src/kernel/SHELL/shell_fun.c **** 	if(argc < 3)
 392              		.loc 1 92 0
 393 011c 0228     		cmp	r0, #2
  91:../../source/src/kernel/SHELL/shell_fun.c **** 	if(argc < 3)
 394              		.loc 1 91 0
 395 011e 10B5     		push	{r4, lr}
 396              	.LCFI10:
 397              		.cfi_def_cfa_offset 8
 398              		.cfi_offset 4, -8
 399              		.cfi_offset 14, -4
  91:../../source/src/kernel/SHELL/shell_fun.c **** 	if(argc < 3)
 400              		.loc 1 91 0
 401 0120 0C46     		mov	r4, r1
 402              		.loc 1 92 0
 403 0122 08DD     		ble	.L34
  93:../../source/src/kernel/SHELL/shell_fun.c **** 	{
ARM GAS  G:\Users\Jaxb\AppData\Local\Temp\cc9lI2vO.s 			page 10


  94:../../source/src/kernel/SHELL/shell_fun.c **** 		ka_printf("too few arguments!\n");
  95:../../source/src/kernel/SHELL/shell_fun.c **** 		return ;
  96:../../source/src/kernel/SHELL/shell_fun.c **** 	}
  97:../../source/src/kernel/SHELL/shell_fun.c **** 	struct shell_variable *shell_variable_ptr;
  98:../../source/src/kernel/SHELL/shell_fun.c **** 	shell_variable_ptr = find_in_variable_array(argv[1]);
 404              		.loc 1 98 0
 405 0124 4868     		ldr	r0, [r1, #4]
 406              	.LVL43:
 407 0126 FFF7FEFF 		bl	find_in_variable_array
 408              	.LVL44:
  99:../../source/src/kernel/SHELL/shell_fun.c **** 	if(NULL == shell_variable_ptr)
 409              		.loc 1 99 0
 410 012a 48B1     		cbz	r0, .L35
 100:../../source/src/kernel/SHELL/shell_fun.c **** 	{
 101:../../source/src/kernel/SHELL/shell_fun.c **** 		ka_printf("no such variable!\n");
 102:../../source/src/kernel/SHELL/shell_fun.c **** 		return ;
 103:../../source/src/kernel/SHELL/shell_fun.c **** 	}
 104:../../source/src/kernel/SHELL/shell_fun.c **** 	shell_v_write(shell_variable_ptr,(const char *)argv[2]);
 411              		.loc 1 104 0
 412 012c A168     		ldr	r1, [r4, #8]
 105:../../source/src/kernel/SHELL/shell_fun.c **** 	return ;
 106:../../source/src/kernel/SHELL/shell_fun.c **** }
 413              		.loc 1 106 0
 414 012e BDE81040 		pop	{r4, lr}
 415              	.LCFI11:
 416              		.cfi_remember_state
 417              		.cfi_restore 14
 418              		.cfi_restore 4
 419              		.cfi_def_cfa_offset 0
 420              	.LVL45:
 104:../../source/src/kernel/SHELL/shell_fun.c **** 	return ;
 421              		.loc 1 104 0
 422 0132 FFF7FEBF 		b	shell_v_write
 423              	.LVL46:
 424              	.L34:
 425              	.LCFI12:
 426              		.cfi_restore_state
  94:../../source/src/kernel/SHELL/shell_fun.c **** 		return ;
 427              		.loc 1 94 0
 428 0136 0548     		ldr	r0, .L36
 429              	.LVL47:
 430              		.loc 1 106 0
 431 0138 BDE81040 		pop	{r4, lr}
 432              	.LCFI13:
 433              		.cfi_remember_state
 434              		.cfi_restore 14
 435              		.cfi_restore 4
 436              		.cfi_def_cfa_offset 0
  94:../../source/src/kernel/SHELL/shell_fun.c **** 		return ;
 437              		.loc 1 94 0
 438 013c FFF7FEBF 		b	ka_printf
 439              	.LVL48:
 440              	.L35:
 441              	.LCFI14:
 442              		.cfi_restore_state
 101:../../source/src/kernel/SHELL/shell_fun.c **** 		return ;
 443              		.loc 1 101 0
ARM GAS  G:\Users\Jaxb\AppData\Local\Temp\cc9lI2vO.s 			page 11


 444 0140 0348     		ldr	r0, .L36+4
 445              	.LVL49:
 446              		.loc 1 106 0
 447 0142 BDE81040 		pop	{r4, lr}
 448              	.LCFI15:
 449              		.cfi_restore 14
 450              		.cfi_restore 4
 451              		.cfi_def_cfa_offset 0
 452              	.LVL50:
 101:../../source/src/kernel/SHELL/shell_fun.c **** 		return ;
 453              		.loc 1 101 0
 454 0146 FFF7FEBF 		b	ka_printf
 455              	.LVL51:
 456              	.L37:
 457 014a 00BF     		.align	2
 458              	.L36:
 459 014c 14010000 		.word	.LC11
 460 0150 3C010000 		.word	.LC13
 461              		.cfi_endproc
 462              	.LFE22:
 463              		.size	shell_set, .-shell_set
 464              		.align	1
 465              		.p2align 2,,3
 466              		.global	shell_addr
 467              		.syntax unified
 468              		.thumb
 469              		.thumb_func
 470              		.fpu softvfp
 471              		.type	shell_addr, %function
 472              	shell_addr:
 473              	.LFB23:
 107:../../source/src/kernel/SHELL/shell_fun.c **** 
 108:../../source/src/kernel/SHELL/shell_fun.c **** void shell_addr(int argc, char const *argv[])
 109:../../source/src/kernel/SHELL/shell_fun.c **** {
 474              		.loc 1 109 0
 475              		.cfi_startproc
 476              		@ args = 0, pretend = 0, frame = 0
 477              		@ frame_needed = 0, uses_anonymous_args = 0
 478              	.LVL52:
 110:../../source/src/kernel/SHELL/shell_fun.c **** 	if(argc < 2)
 479              		.loc 1 110 0
 480 0154 0128     		cmp	r0, #1
 109:../../source/src/kernel/SHELL/shell_fun.c **** 	if(argc < 2)
 481              		.loc 1 109 0
 482 0156 08B5     		push	{r3, lr}
 483              	.LCFI16:
 484              		.cfi_def_cfa_offset 8
 485              		.cfi_offset 3, -8
 486              		.cfi_offset 14, -4
 487              		.loc 1 110 0
 488 0158 07DD     		ble	.L41
 111:../../source/src/kernel/SHELL/shell_fun.c **** 	{
 112:../../source/src/kernel/SHELL/shell_fun.c **** 		ka_printf("too few arguments!\n");
 113:../../source/src/kernel/SHELL/shell_fun.c **** 		return ;
 114:../../source/src/kernel/SHELL/shell_fun.c **** 	}
 115:../../source/src/kernel/SHELL/shell_fun.c **** 	struct shell_variable *shell_variable_ptr = find_in_variable_array(argv[1]);
 489              		.loc 1 115 0
ARM GAS  G:\Users\Jaxb\AppData\Local\Temp\cc9lI2vO.s 			page 12


 490 015a 4868     		ldr	r0, [r1, #4]
 491              	.LVL53:
 492 015c FFF7FEFF 		bl	find_in_variable_array
 493              	.LVL54:
 116:../../source/src/kernel/SHELL/shell_fun.c **** 	if(NULL == shell_variable_ptr)
 494              		.loc 1 116 0
 495 0160 40B1     		cbz	r0, .L42
 117:../../source/src/kernel/SHELL/shell_fun.c **** 	{
 118:../../source/src/kernel/SHELL/shell_fun.c **** 		ka_printf("no such variable\n");
 119:../../source/src/kernel/SHELL/shell_fun.c **** 		return ;
 120:../../source/src/kernel/SHELL/shell_fun.c **** 	}
 121:../../source/src/kernel/SHELL/shell_fun.c **** 	shell_v_display_addr(shell_variable_ptr);
 122:../../source/src/kernel/SHELL/shell_fun.c **** }
 496              		.loc 1 122 0
 497 0162 BDE80840 		pop	{r3, lr}
 498              	.LCFI17:
 499              		.cfi_remember_state
 500              		.cfi_restore 14
 501              		.cfi_restore 3
 502              		.cfi_def_cfa_offset 0
 121:../../source/src/kernel/SHELL/shell_fun.c **** }
 503              		.loc 1 121 0
 504 0166 FFF7FEBF 		b	shell_v_display_addr
 505              	.LVL55:
 506              	.L41:
 507              	.LCFI18:
 508              		.cfi_restore_state
 112:../../source/src/kernel/SHELL/shell_fun.c **** 		return ;
 509              		.loc 1 112 0
 510 016a 0548     		ldr	r0, .L43
 511              	.LVL56:
 512              		.loc 1 122 0
 513 016c BDE80840 		pop	{r3, lr}
 514              	.LCFI19:
 515              		.cfi_remember_state
 516              		.cfi_restore 14
 517              		.cfi_restore 3
 518              		.cfi_def_cfa_offset 0
 112:../../source/src/kernel/SHELL/shell_fun.c **** 		return ;
 519              		.loc 1 112 0
 520 0170 FFF7FEBF 		b	ka_printf
 521              	.LVL57:
 522              	.L42:
 523              	.LCFI20:
 524              		.cfi_restore_state
 118:../../source/src/kernel/SHELL/shell_fun.c **** 		return ;
 525              		.loc 1 118 0
 526 0174 0348     		ldr	r0, .L43+4
 527              	.LVL58:
 528              		.loc 1 122 0
 529 0176 BDE80840 		pop	{r3, lr}
 530              	.LCFI21:
 531              		.cfi_restore 14
 532              		.cfi_restore 3
 533              		.cfi_def_cfa_offset 0
 118:../../source/src/kernel/SHELL/shell_fun.c **** 		return ;
 534              		.loc 1 118 0
ARM GAS  G:\Users\Jaxb\AppData\Local\Temp\cc9lI2vO.s 			page 13


 535 017a FFF7FEBF 		b	ka_printf
 536              	.LVL59:
 537              	.L44:
 538 017e 00BF     		.align	2
 539              	.L43:
 540 0180 14010000 		.word	.LC11
 541 0184 28010000 		.word	.LC12
 542              		.cfi_endproc
 543              	.LFE23:
 544              		.size	shell_addr, .-shell_addr
 545              		.align	1
 546              		.p2align 2,,3
 547              		.global	shell_TCB_check
 548              		.syntax unified
 549              		.thumb
 550              		.thumb_func
 551              		.fpu softvfp
 552              		.type	shell_TCB_check, %function
 553              	shell_TCB_check:
 554              	.LFB24:
 123:../../source/src/kernel/SHELL/shell_fun.c **** #endif
 124:../../source/src/kernel/SHELL/shell_fun.c **** 
 125:../../source/src/kernel/SHELL/shell_fun.c **** void shell_TCB_check(int argc, char const *argv[])
 126:../../source/src/kernel/SHELL/shell_fun.c **** {
 555              		.loc 1 126 0
 556              		.cfi_startproc
 557              		@ args = 0, pretend = 0, frame = 0
 558              		@ frame_needed = 0, uses_anonymous_args = 0
 559              	.LVL60:
 560 0188 08B5     		push	{r3, lr}
 561              	.LCFI22:
 562              		.cfi_def_cfa_offset 8
 563              		.cfi_offset 3, -8
 564              		.cfi_offset 14, -4
 127:../../source/src/kernel/SHELL/shell_fun.c **** 	(void)argc;
 128:../../source/src/kernel/SHELL/shell_fun.c **** 	(void)argv;
 129:../../source/src/kernel/SHELL/shell_fun.c **** 	shell_check_TCB_list();
 565              		.loc 1 129 0
 566 018a FFF7FEFF 		bl	shell_check_TCB_list
 567              	.LVL61:
 130:../../source/src/kernel/SHELL/shell_fun.c **** 	shell_check_os_ready();
 568              		.loc 1 130 0
 569 018e FFF7FEFF 		bl	shell_check_os_ready
 570              	.LVL62:
 131:../../source/src/kernel/SHELL/shell_fun.c **** 	shell_delay_heap_check();
 132:../../source/src/kernel/SHELL/shell_fun.c **** }
 571              		.loc 1 132 0
 572 0192 BDE80840 		pop	{r3, lr}
 573              	.LCFI23:
 574              		.cfi_restore 14
 575              		.cfi_restore 3
 576              		.cfi_def_cfa_offset 0
 131:../../source/src/kernel/SHELL/shell_fun.c **** 	shell_delay_heap_check();
 577              		.loc 1 131 0
 578 0196 FFF7FEBF 		b	shell_delay_heap_check
 579              	.LVL63:
 580              		.cfi_endproc
ARM GAS  G:\Users\Jaxb\AppData\Local\Temp\cc9lI2vO.s 			page 14


 581              	.LFE24:
 582              		.size	shell_TCB_check, .-shell_TCB_check
 583              		.align	1
 584 019a 00BF     		.p2align 2,,3
 585              		.global	shell_reboot
 586              		.syntax unified
 587              		.thumb
 588              		.thumb_func
 589              		.fpu softvfp
 590              		.type	shell_reboot, %function
 591              	shell_reboot:
 592              	.LFB25:
 133:../../source/src/kernel/SHELL/shell_fun.c **** 
 134:../../source/src/kernel/SHELL/shell_fun.c **** extern void ReBoot();
 135:../../source/src/kernel/SHELL/shell_fun.c **** void shell_reboot(int argc, char const *argv[])
 136:../../source/src/kernel/SHELL/shell_fun.c **** {
 593              		.loc 1 136 0
 594              		.cfi_startproc
 595              		@ args = 0, pretend = 0, frame = 0
 596              		@ frame_needed = 0, uses_anonymous_args = 0
 597              		@ link register save eliminated.
 598              	.LVL64:
 137:../../source/src/kernel/SHELL/shell_fun.c **** 	(void)argc;
 138:../../source/src/kernel/SHELL/shell_fun.c **** 	(void)argv;
 139:../../source/src/kernel/SHELL/shell_fun.c **** 	ReBoot();
 599              		.loc 1 139 0
 600 019c FFF7FEBF 		b	ReBoot
 601              	.LVL65:
 602              		.cfi_endproc
 603              	.LFE25:
 604              		.size	shell_reboot, .-shell_reboot
 605              		.align	1
 606              		.p2align 2,,3
 607              		.global	shell_module
 608              		.syntax unified
 609              		.thumb
 610              		.thumb_func
 611              		.fpu softvfp
 612              		.type	shell_module, %function
 613              	shell_module:
 614              	.LFB26:
 140:../../source/src/kernel/SHELL/shell_fun.c **** }
 141:../../source/src/kernel/SHELL/shell_fun.c **** 
 142:../../source/src/kernel/SHELL/shell_fun.c **** extern void show_get_size(void);
 143:../../source/src/kernel/SHELL/shell_fun.c **** extern int add_page_alloc_record(unsigned int level,void *ptr);
 144:../../source/src/kernel/SHELL/shell_fun.c **** void shell_module(int argc, char const *argv[])
 145:../../source/src/kernel/SHELL/shell_fun.c **** {
 615              		.loc 1 145 0
 616              		.cfi_startproc
 617              		@ args = 0, pretend = 0, frame = 96
 618              		@ frame_needed = 0, uses_anonymous_args = 0
 619              	.LVL66:
 620 01a0 30B5     		push	{r4, r5, lr}
 621              	.LCFI24:
 622              		.cfi_def_cfa_offset 12
 623              		.cfi_offset 4, -12
 624              		.cfi_offset 5, -8
ARM GAS  G:\Users\Jaxb\AppData\Local\Temp\cc9lI2vO.s 			page 15


 625              		.cfi_offset 14, -4
 146:../../source/src/kernel/SHELL/shell_fun.c **** 	void *buf;
 147:../../source/src/kernel/SHELL/shell_fun.c **** 	char *shell_buf_ptr;
 148:../../source/src/kernel/SHELL/shell_fun.c **** 	if(1 == argc)
 626              		.loc 1 148 0
 627 01a2 0128     		cmp	r0, #1
 145:../../source/src/kernel/SHELL/shell_fun.c **** 	void *buf;
 628              		.loc 1 145 0
 629 01a4 99B0     		sub	sp, sp, #100
 630              	.LCFI25:
 631              		.cfi_def_cfa_offset 112
 632              		.loc 1 148 0
 633 01a6 39D0     		beq	.L56
 149:../../source/src/kernel/SHELL/shell_fun.c **** 	{
 150:../../source/src/kernel/SHELL/shell_fun.c **** 		buf = alloc_power3_page();
 151:../../source/src/kernel/SHELL/shell_fun.c **** 		if(0 > add_page_alloc_record(3,buf))
 152:../../source/src/kernel/SHELL/shell_fun.c **** 		{
 153:../../source/src/kernel/SHELL/shell_fun.c **** 			ASSERT(0);
 154:../../source/src/kernel/SHELL/shell_fun.c **** 		}
 155:../../source/src/kernel/SHELL/shell_fun.c **** 	}
 156:../../source/src/kernel/SHELL/shell_fun.c **** 	else
 157:../../source/src/kernel/SHELL/shell_fun.c **** 	{
 158:../../source/src/kernel/SHELL/shell_fun.c **** 		buf = ka_malloc(ka_atoi(argv[1]));
 634              		.loc 1 158 0
 635 01a8 4868     		ldr	r0, [r1, #4]
 636              	.LVL67:
 637 01aa FFF7FEFF 		bl	ka_atoi
 638              	.LVL68:
 639 01ae FFF7FEFF 		bl	ka_malloc
 640              	.LVL69:
 641 01b2 0446     		mov	r4, r0
 642              	.LVL70:
 643              	.L49:
 159:../../source/src/kernel/SHELL/shell_fun.c **** 	}
 160:../../source/src/kernel/SHELL/shell_fun.c **** 	if (NULL == buf)
 644              		.loc 1 160 0
 645 01b4 002C     		cmp	r4, #0
 646 01b6 40D0     		beq	.L57
 647              	.L50:
 161:../../source/src/kernel/SHELL/shell_fun.c **** 	{
 162:../../source/src/kernel/SHELL/shell_fun.c **** 		ka_printf("no enough room for module\n");
 163:../../source/src/kernel/SHELL/shell_fun.c **** 		return ;
 164:../../source/src/kernel/SHELL/shell_fun.c **** 	}
 165:../../source/src/kernel/SHELL/shell_fun.c **** 
 166:../../source/src/kernel/SHELL/shell_fun.c **** 	struct shell_buffer shell_buffer;
 167:../../source/src/kernel/SHELL/shell_fun.c **** 	shell_buf_ptr = (char *)ka_malloc(20);
 648              		.loc 1 167 0
 649 01b8 1420     		movs	r0, #20
 650 01ba FFF7FEFF 		bl	ka_malloc
 651              	.LVL71:
 168:../../source/src/kernel/SHELL/shell_fun.c **** 	if(NULL == shell_buf_ptr)
 652              		.loc 1 168 0
 653 01be 0546     		mov	r5, r0
 654 01c0 20B3     		cbz	r0, .L58
 169:../../source/src/kernel/SHELL/shell_fun.c **** 	{
 170:../../source/src/kernel/SHELL/shell_fun.c **** 		ka_printf("no enough room for module\n");
 171:../../source/src/kernel/SHELL/shell_fun.c **** 		goto out;
ARM GAS  G:\Users\Jaxb\AppData\Local\Temp\cc9lI2vO.s 			page 16


 172:../../source/src/kernel/SHELL/shell_fun.c **** 	}
 173:../../source/src/kernel/SHELL/shell_fun.c **** 	if(__init_shell_buffer(&shell_buffer,shell_buf_ptr,NULL) < 0)
 655              		.loc 1 173 0
 656 01c2 6846     		mov	r0, sp
 657              	.LVL72:
 658 01c4 0022     		movs	r2, #0
 659 01c6 2946     		mov	r1, r5
 660 01c8 FFF7FEFF 		bl	__init_shell_buffer
 661              	.LVL73:
 662 01cc 0028     		cmp	r0, #0
 663 01ce 39DB     		blt	.L59
 174:../../source/src/kernel/SHELL/shell_fun.c **** 	{
 175:../../source/src/kernel/SHELL/shell_fun.c **** 		ka_printf("module change buffer error\n");
 176:../../source/src/kernel/SHELL/shell_fun.c **** 		goto out1;
 177:../../source/src/kernel/SHELL/shell_fun.c **** 	}
 178:../../source/src/kernel/SHELL/shell_fun.c **** 	struct shell_buffer *sys_shell_buffer_ptr = change_shell_buffer(&shell_buffer); // save the system
 664              		.loc 1 178 0
 665 01d0 6846     		mov	r0, sp
 666 01d2 FFF7FEFF 		bl	change_shell_buffer
 667              	.LVL74:
 668 01d6 0546     		mov	r5, r0
 669              	.LVL75:
 179:../../source/src/kernel/SHELL/shell_fun.c **** 	set_module_buffer(buf);
 670              		.loc 1 179 0
 671 01d8 2046     		mov	r0, r4
 672              	.LVL76:
 673 01da FFF7FEFF 		bl	set_module_buffer
 674              	.LVL77:
 180:../../source/src/kernel/SHELL/shell_fun.c **** 
 181:../../source/src/kernel/SHELL/shell_fun.c **** 	ka_printf("now transfer the module,input 'end' to end the transformation\n");
 675              		.loc 1 181 0
 676 01de 1D48     		ldr	r0, .L60
 677 01e0 FFF7FEFF 		bl	ka_printf
 678              	.LVL78:
 182:../../source/src/kernel/SHELL/shell_fun.c **** 	
 183:../../source/src/kernel/SHELL/shell_fun.c **** 	shell_buffer_wait_str("end");  // thread will going to sleep
 679              		.loc 1 183 0
 680 01e4 1C48     		ldr	r0, .L60+4
 681 01e6 FFF7FEFF 		bl	shell_buffer_wait_str
 682              	.LVL79:
 184:../../source/src/kernel/SHELL/shell_fun.c **** 
 185:../../source/src/kernel/SHELL/shell_fun.c **** 	show_get_size();
 683              		.loc 1 185 0
 684 01ea FFF7FEFF 		bl	show_get_size
 685              	.LVL80:
 186:../../source/src/kernel/SHELL/shell_fun.c **** 
 187:../../source/src/kernel/SHELL/shell_fun.c **** 	change_shell_buffer(sys_shell_buffer_ptr);
 686              		.loc 1 187 0
 687 01ee 2846     		mov	r0, r5
 688 01f0 FFF7FEFF 		bl	change_shell_buffer
 689              	.LVL81:
 188:../../source/src/kernel/SHELL/shell_fun.c **** 
 189:../../source/src/kernel/SHELL/shell_fun.c **** 	ka_printf("now module going to be executed\n");
 690              		.loc 1 189 0
 691 01f4 1948     		ldr	r0, .L60+8
 692 01f6 FFF7FEFF 		bl	ka_printf
 693              	.LVL82:
ARM GAS  G:\Users\Jaxb\AppData\Local\Temp\cc9lI2vO.s 			page 17


 190:../../source/src/kernel/SHELL/shell_fun.c **** 	dlmodule_exec();
 694              		.loc 1 190 0
 695 01fa FFF7FEFF 		bl	dlmodule_exec
 696              	.LVL83:
 191:../../source/src/kernel/SHELL/shell_fun.c **** 	clear_module_buffer();
 697              		.loc 1 191 0
 698 01fe FFF7FEFF 		bl	clear_module_buffer
 699              	.LVL84:
 192:../../source/src/kernel/SHELL/shell_fun.c **** 	ka_printf("end\n");
 700              		.loc 1 192 0
 701 0202 1748     		ldr	r0, .L60+12
 702 0204 FFF7FEFF 		bl	ka_printf
 703              	.LVL85:
 193:../../source/src/kernel/SHELL/shell_fun.c **** 	return ;
 194:../../source/src/kernel/SHELL/shell_fun.c **** out1:
 195:../../source/src/kernel/SHELL/shell_fun.c **** 	ka_free(shell_buf_ptr);
 196:../../source/src/kernel/SHELL/shell_fun.c **** out:
 197:../../source/src/kernel/SHELL/shell_fun.c **** 	ka_free(buf);
 198:../../source/src/kernel/SHELL/shell_fun.c **** }
 704              		.loc 1 198 0
 705 0208 19B0     		add	sp, sp, #100
 706              	.LCFI26:
 707              		.cfi_remember_state
 708              		.cfi_def_cfa_offset 12
 709              		@ sp needed
 710 020a 30BD     		pop	{r4, r5, pc}
 711              	.LVL86:
 712              	.L58:
 713              	.LCFI27:
 714              		.cfi_restore_state
 170:../../source/src/kernel/SHELL/shell_fun.c **** 		goto out;
 715              		.loc 1 170 0
 716 020c 1548     		ldr	r0, .L60+16
 717              	.LVL87:
 718 020e FFF7FEFF 		bl	ka_printf
 719              	.LVL88:
 720              	.L53:
 197:../../source/src/kernel/SHELL/shell_fun.c **** }
 721              		.loc 1 197 0
 722 0212 2046     		mov	r0, r4
 723 0214 FFF7FEFF 		bl	ka_free
 724              	.LVL89:
 725              		.loc 1 198 0
 726 0218 19B0     		add	sp, sp, #100
 727              	.LCFI28:
 728              		.cfi_remember_state
 729              		.cfi_def_cfa_offset 12
 730              		@ sp needed
 731 021a 30BD     		pop	{r4, r5, pc}
 732              	.LVL90:
 733              	.L56:
 734              	.LCFI29:
 735              		.cfi_restore_state
 150:../../source/src/kernel/SHELL/shell_fun.c **** 		if(0 > add_page_alloc_record(3,buf))
 736              		.loc 1 150 0
 737 021c FFF7FEFF 		bl	alloc_power3_page
 738              	.LVL91:
ARM GAS  G:\Users\Jaxb\AppData\Local\Temp\cc9lI2vO.s 			page 18


 151:../../source/src/kernel/SHELL/shell_fun.c **** 		{
 739              		.loc 1 151 0
 740 0220 0146     		mov	r1, r0
 150:../../source/src/kernel/SHELL/shell_fun.c **** 		if(0 > add_page_alloc_record(3,buf))
 741              		.loc 1 150 0
 742 0222 0446     		mov	r4, r0
 743              	.LVL92:
 151:../../source/src/kernel/SHELL/shell_fun.c **** 		{
 744              		.loc 1 151 0
 745 0224 0320     		movs	r0, #3
 746              	.LVL93:
 747 0226 FFF7FEFF 		bl	add_page_alloc_record
 748              	.LVL94:
 749 022a 0028     		cmp	r0, #0
 750 022c C2DA     		bge	.L49
 153:../../source/src/kernel/SHELL/shell_fun.c **** 		}
 751              		.loc 1 153 0 discriminator 1
 752 022e 9921     		movs	r1, #153
 753 0230 0D48     		ldr	r0, .L60+20
 754 0232 FFF7FEFF 		bl	_ASSERT
 755              	.LVL95:
 160:../../source/src/kernel/SHELL/shell_fun.c **** 	{
 756              		.loc 1 160 0 discriminator 1
 757 0236 002C     		cmp	r4, #0
 758 0238 BED1     		bne	.L50
 759              	.L57:
 162:../../source/src/kernel/SHELL/shell_fun.c **** 		return ;
 760              		.loc 1 162 0
 761 023a 0A48     		ldr	r0, .L60+16
 762 023c FFF7FEFF 		bl	ka_printf
 763              	.LVL96:
 764              		.loc 1 198 0
 765 0240 19B0     		add	sp, sp, #100
 766              	.LCFI30:
 767              		.cfi_remember_state
 768              		.cfi_def_cfa_offset 12
 769              		@ sp needed
 770 0242 30BD     		pop	{r4, r5, pc}
 771              	.LVL97:
 772              	.L59:
 773              	.LCFI31:
 774              		.cfi_restore_state
 175:../../source/src/kernel/SHELL/shell_fun.c **** 		goto out1;
 775              		.loc 1 175 0
 776 0244 0948     		ldr	r0, .L60+24
 777 0246 FFF7FEFF 		bl	ka_printf
 778              	.LVL98:
 779              	.LDL1:
 195:../../source/src/kernel/SHELL/shell_fun.c **** out:
 780              		.loc 1 195 0
 781 024a 2846     		mov	r0, r5
 782 024c FFF7FEFF 		bl	ka_free
 783              	.LVL99:
 784 0250 DFE7     		b	.L53
 785              	.L61:
 786 0252 00BF     		.align	2
 787              	.L60:
ARM GAS  G:\Users\Jaxb\AppData\Local\Temp\cc9lI2vO.s 			page 19


 788 0254 88010000 		.word	.LC16
 789 0258 C8010000 		.word	.LC17
 790 025c CC010000 		.word	.LC18
 791 0260 F0010000 		.word	.LC19
 792 0264 50010000 		.word	.LC14
 793 0268 2C000000 		.word	.LC2
 794 026c 6C010000 		.word	.LC15
 795              		.cfi_endproc
 796              	.LFE26:
 797              		.size	shell_module, .-shell_module
 798              		.align	1
 799              		.p2align 2,,3
 800              		.global	shell_sleep
 801              		.syntax unified
 802              		.thumb
 803              		.thumb_func
 804              		.fpu softvfp
 805              		.type	shell_sleep, %function
 806              	shell_sleep:
 807              	.LFB27:
 199:../../source/src/kernel/SHELL/shell_fun.c **** 
 200:../../source/src/kernel/SHELL/shell_fun.c **** #if CONFIG_POWER_MANAGEMENT
 201:../../source/src/kernel/SHELL/shell_fun.c **** extern void sys_sleep(void);
 202:../../source/src/kernel/SHELL/shell_fun.c **** void shell_sleep(int argc, char const *argv[])
 203:../../source/src/kernel/SHELL/shell_fun.c **** {
 808              		.loc 1 203 0
 809              		.cfi_startproc
 810              		@ args = 0, pretend = 0, frame = 0
 811              		@ frame_needed = 0, uses_anonymous_args = 0
 812              	.LVL100:
 813 0270 08B5     		push	{r3, lr}
 814              	.LCFI32:
 815              		.cfi_def_cfa_offset 8
 816              		.cfi_offset 3, -8
 817              		.cfi_offset 14, -4
 204:../../source/src/kernel/SHELL/shell_fun.c **** 	(void)argc;
 205:../../source/src/kernel/SHELL/shell_fun.c **** 	(void)argv;
 206:../../source/src/kernel/SHELL/shell_fun.c **** 	ka_printf("kernel going to sleep\n"
 818              		.loc 1 206 0
 819 0272 0548     		ldr	r0, .L63
 820              	.LVL101:
 821 0274 FFF7FEFF 		bl	ka_printf
 822              	.LVL102:
 207:../../source/src/kernel/SHELL/shell_fun.c **** 				"any interrupt or a click can wake up kernel\n");
 208:../../source/src/kernel/SHELL/shell_fun.c **** 	sys_sleep();
 823              		.loc 1 208 0
 824 0278 FFF7FEFF 		bl	sys_sleep
 825              	.LVL103:
 209:../../source/src/kernel/SHELL/shell_fun.c **** 	ka_printf("kernel run\n");
 210:../../source/src/kernel/SHELL/shell_fun.c **** }
 826              		.loc 1 210 0
 827 027c BDE80840 		pop	{r3, lr}
 828              	.LCFI33:
 829              		.cfi_restore 14
 830              		.cfi_restore 3
 831              		.cfi_def_cfa_offset 0
 209:../../source/src/kernel/SHELL/shell_fun.c **** 	ka_printf("kernel run\n");
ARM GAS  G:\Users\Jaxb\AppData\Local\Temp\cc9lI2vO.s 			page 20


 832              		.loc 1 209 0
 833 0280 0248     		ldr	r0, .L63+4
 834 0282 FFF7FEBF 		b	ka_printf
 835              	.LVL104:
 836              	.L64:
 837 0286 00BF     		.align	2
 838              	.L63:
 839 0288 F8010000 		.word	.LC20
 840 028c 3C020000 		.word	.LC21
 841              		.cfi_endproc
 842              	.LFE27:
 843              		.size	shell_sleep, .-shell_sleep
 844              		.align	1
 845              		.p2align 2,,3
 846              		.global	shell_shutdown
 847              		.syntax unified
 848              		.thumb
 849              		.thumb_func
 850              		.fpu softvfp
 851              		.type	shell_shutdown, %function
 852              	shell_shutdown:
 853              	.LFB28:
 211:../../source/src/kernel/SHELL/shell_fun.c **** 
 212:../../source/src/kernel/SHELL/shell_fun.c **** extern void sys_shutdown(void);
 213:../../source/src/kernel/SHELL/shell_fun.c **** void shell_shutdown(int argc, char const *argv[])
 214:../../source/src/kernel/SHELL/shell_fun.c **** {
 854              		.loc 1 214 0
 855              		.cfi_startproc
 856              		@ args = 0, pretend = 0, frame = 0
 857              		@ frame_needed = 0, uses_anonymous_args = 0
 858              	.LVL105:
 859 0290 08B5     		push	{r3, lr}
 860              	.LCFI34:
 861              		.cfi_def_cfa_offset 8
 862              		.cfi_offset 3, -8
 863              		.cfi_offset 14, -4
 215:../../source/src/kernel/SHELL/shell_fun.c **** 	(void)argc;
 216:../../source/src/kernel/SHELL/shell_fun.c **** 	(void)argv;
 217:../../source/src/kernel/SHELL/shell_fun.c **** 	ka_printf("shutdown now\n");
 864              		.loc 1 217 0
 865 0292 0348     		ldr	r0, .L66
 866              	.LVL106:
 867 0294 FFF7FEFF 		bl	ka_printf
 868              	.LVL107:
 218:../../source/src/kernel/SHELL/shell_fun.c **** 	sys_shutdown();
 219:../../source/src/kernel/SHELL/shell_fun.c **** }
 869              		.loc 1 219 0
 870 0298 BDE80840 		pop	{r3, lr}
 871              	.LCFI35:
 872              		.cfi_restore 14
 873              		.cfi_restore 3
 874              		.cfi_def_cfa_offset 0
 218:../../source/src/kernel/SHELL/shell_fun.c **** 	sys_shutdown();
 875              		.loc 1 218 0
 876 029c FFF7FEBF 		b	sys_shutdown
 877              	.LVL108:
 878              	.L67:
ARM GAS  G:\Users\Jaxb\AppData\Local\Temp\cc9lI2vO.s 			page 21


 879              		.align	2
 880              	.L66:
 881 02a0 48020000 		.word	.LC22
 882              		.cfi_endproc
 883              	.LFE28:
 884              		.size	shell_shutdown, .-shell_shutdown
 885              		.section	.rodata.str1.4,"aMS",%progbits,1
 886              		.align	2
 887              	.LC0:
 888 0000 70617261 		.ascii	"parament %d : %s\012\000"
 888      6D656E74 
 888      20256420 
 888      3A202573 
 888      0A00
 889 0012 0000     		.space	2
 890              	.LC1:
 891 0014 56455253 		.ascii	"VERSION : KAKAOS--0.07\012\000"
 891      494F4E20 
 891      3A204B41 
 891      4B414F53 
 891      2D2D302E 
 892              	.LC2:
 893 002c 2E2E2F2E 		.ascii	"../../source/src/kernel/SHELL/shell_fun.c\000"
 893      2E2F736F 
 893      75726365 
 893      2F737263 
 893      2F6B6572 
 894 0056 0000     		.space	2
 895              	.LC3:
 896 0058 4E4F2E25 		.ascii	"NO.%u memory : \012\000"
 896      75206D65 
 896      6D6F7279 
 896      203A200A 
 896      00
 897 0069 000000   		.space	3
 898              	.LC4:
 899 006c 3D3D3D3D 		.ascii	"==================================================="
 899      3D3D3D3D 
 899      3D3D3D3D 
 899      3D3D3D3D 
 899      3D3D3D3D 
 900 009f 3D3D0A00 		.ascii	"==\012\000"
 901 00a3 00       		.space	1
 902              	.LC5:
 903 00a4 73746172 		.ascii	"start address is %p\012\000"
 903      74206164 
 903      64726573 
 903      73206973 
 903      2025700A 
 904 00b9 000000   		.space	3
 905              	.LC6:
 906 00bc 72657374 		.ascii	"rest buddy space is %u\012\000"
 906      20627564 
 906      64792073 
 906      70616365 
 906      20697320 
 907              	.LC7:
ARM GAS  G:\Users\Jaxb\AppData\Local\Temp\cc9lI2vO.s 			page 22


 908 00d4 74686520 		.ascii	"the total space is %uKB\012\000"
 908      746F7461 
 908      6C207370 
 908      61636520 
 908      69732025 
 909 00ed 000000   		.space	3
 910              	.LC8:
 911 00f0 6E6F7720 		.ascii	"now there are %u%% left\012\000"
 911      74686572 
 911      65206172 
 911      65202575 
 911      2525206C 
 912 0109 000000   		.space	3
 913              	.LC9:
 914 010c 0A0A00   		.ascii	"\012\012\000"
 915 010f 00       		.space	1
 916              	.LC10:
 917 0110 0A00     		.ascii	"\012\000"
 918 0112 0000     		.space	2
 919              	.LC11:
 920 0114 746F6F20 		.ascii	"too few arguments!\012\000"
 920      66657720 
 920      61726775 
 920      6D656E74 
 920      73210A00 
 921              	.LC12:
 922 0128 6E6F2073 		.ascii	"no such variable\012\000"
 922      75636820 
 922      76617269 
 922      61626C65 
 922      0A00
 923 013a 0000     		.space	2
 924              	.LC13:
 925 013c 6E6F2073 		.ascii	"no such variable!\012\000"
 925      75636820 
 925      76617269 
 925      61626C65 
 925      210A00
 926 014f 00       		.space	1
 927              	.LC14:
 928 0150 6E6F2065 		.ascii	"no enough room for module\012\000"
 928      6E6F7567 
 928      6820726F 
 928      6F6D2066 
 928      6F72206D 
 929 016b 00       		.space	1
 930              	.LC15:
 931 016c 6D6F6475 		.ascii	"module change buffer error\012\000"
 931      6C652063 
 931      68616E67 
 931      65206275 
 931      66666572 
 932              	.LC16:
 933 0188 6E6F7720 		.ascii	"now transfer the module,input 'end' to end the tran"
 933      7472616E 
 933      73666572 
 933      20746865 
ARM GAS  G:\Users\Jaxb\AppData\Local\Temp\cc9lI2vO.s 			page 23


 933      206D6F64 
 934 01bb 73666F72 		.ascii	"sformation\012\000"
 934      6D617469 
 934      6F6E0A00 
 935 01c7 00       		.space	1
 936              	.LC17:
 937 01c8 656E6400 		.ascii	"end\000"
 938              	.LC18:
 939 01cc 6E6F7720 		.ascii	"now module going to be executed\012\000"
 939      6D6F6475 
 939      6C652067 
 939      6F696E67 
 939      20746F20 
 940 01ed 000000   		.space	3
 941              	.LC19:
 942 01f0 656E640A 		.ascii	"end\012\000"
 942      00
 943 01f5 000000   		.space	3
 944              	.LC20:
 945 01f8 6B65726E 		.ascii	"kernel going to sleep\012any interrupt or a click c"
 945      656C2067 
 945      6F696E67 
 945      20746F20 
 945      736C6565 
 946 0228 616E2077 		.ascii	"an wake up kernel\012\000"
 946      616B6520 
 946      7570206B 
 946      65726E65 
 946      6C0A00
 947 023b 00       		.space	1
 948              	.LC21:
 949 023c 6B65726E 		.ascii	"kernel run\012\000"
 949      656C2072 
 949      756E0A00 
 950              	.LC22:
 951 0248 73687574 		.ascii	"shutdown now\012\000"
 951      646F776E 
 951      206E6F77 
 951      0A00
 952              		.text
 953              	.Letext0:
 954              		.file 2 "../../source/include/os_lib/singly_linked_list.h"
 955              		.file 3 "../../source/include/shell/shell_debug.h"
 956              		.file 4 "../../source/include/os_cpu/kakaosstdint.h"
 957              		.file 5 "../../source/include/os_lib/buddy.h"
 958              		.file 6 "../../source/include/shell/shell.h"
 959              		.file 7 "../../source/include/os_lib/myMicroLIB.h"
 960              		.file 8 "../../source/include/os_core/module.h"
 961              		.file 9 "../../source/include/os_lib/myassert.h"
 962              		.file 10 "../../source/include/os_core/schedule/os_TCB_list.h"
 963              		.file 11 "../../source/include/os_core/schedule/os_ready.h"
 964              		.file 12 "../../source/include/os_core/schedule/os_delay.h"
 965              		.file 13 "../../source/include/os_core/os_time.h"
 966              		.file 14 "../../source/include/os_core/TCB.h"
 967              		.section	.debug_info,"",%progbits
 968              	.Ldebug_info0:
 969 0000 2E0C0000 		.4byte	0xc2e
ARM GAS  G:\Users\Jaxb\AppData\Local\Temp\cc9lI2vO.s 			page 24


 970 0004 0200     		.2byte	0x2
 971 0006 00000000 		.4byte	.Ldebug_abbrev0
 972 000a 04       		.byte	0x4
 973 000b 01       		.uleb128 0x1
 974 000c FD040000 		.4byte	.LASF94
 975 0010 0C       		.byte	0xc
 976 0011 9A000000 		.4byte	.LASF95
 977 0015 BD010000 		.4byte	.LASF96
 978 0019 00000000 		.4byte	.Ltext0
 979 001d A4020000 		.4byte	.Letext0
 980 0021 00000000 		.4byte	.Ldebug_line0
 981 0025 02       		.uleb128 0x2
 982 0026 9F010000 		.4byte	.LASF0
 983 002a 04       		.byte	0x4
 984 002b 02       		.byte	0x2
 985 002c 04       		.byte	0x4
 986 002d 40000000 		.4byte	0x40
 987 0031 03       		.uleb128 0x3
 988 0032 E4050000 		.4byte	.LASF2
 989 0036 02       		.byte	0x2
 990 0037 05       		.byte	0x5
 991 0038 40000000 		.4byte	0x40
 992 003c 02       		.byte	0x2
 993 003d 23       		.byte	0x23
 994 003e 00       		.uleb128 0
 995 003f 00       		.byte	0
 996 0040 04       		.uleb128 0x4
 997 0041 04       		.byte	0x4
 998 0042 25000000 		.4byte	0x25
 999 0046 05       		.uleb128 0x5
 1000 0047 FD050000 		.4byte	.LASF12
 1001 004b 03       		.byte	0x3
 1002 004c 10       		.byte	0x10
 1003 004d 51000000 		.4byte	0x51
 1004 0051 06       		.uleb128 0x6
 1005 0052 01       		.byte	0x1
 1006 0053 08       		.byte	0x8
 1007 0054 C0030000 		.4byte	.LASF7
 1008 0058 07       		.uleb128 0x7
 1009 0059 51000000 		.4byte	0x51
 1010 005d 02       		.uleb128 0x2
 1011 005e E2000000 		.4byte	.LASF1
 1012 0062 10       		.byte	0x10
 1013 0063 03       		.byte	0x3
 1014 0064 21       		.byte	0x21
 1015 0065 A2000000 		.4byte	0xa2
 1016 0069 03       		.uleb128 0x3
 1017 006a 27000000 		.4byte	.LASF3
 1018 006e 03       		.byte	0x3
 1019 006f 23       		.byte	0x23
 1020 0070 A2000000 		.4byte	0xa2
 1021 0074 02       		.byte	0x2
 1022 0075 23       		.byte	0x23
 1023 0076 00       		.uleb128 0
 1024 0077 03       		.uleb128 0x3
 1025 0078 C5030000 		.4byte	.LASF4
 1026 007c 03       		.byte	0x3
ARM GAS  G:\Users\Jaxb\AppData\Local\Temp\cc9lI2vO.s 			page 25


 1027 007d 24       		.byte	0x24
 1028 007e 46000000 		.4byte	0x46
 1029 0082 02       		.byte	0x2
 1030 0083 23       		.byte	0x23
 1031 0084 04       		.uleb128 0x4
 1032 0085 03       		.uleb128 0x3
 1033 0086 DB050000 		.4byte	.LASF5
 1034 008a 03       		.byte	0x3
 1035 008b 25       		.byte	0x25
 1036 008c A8000000 		.4byte	0xa8
 1037 0090 02       		.byte	0x2
 1038 0091 23       		.byte	0x23
 1039 0092 08       		.uleb128 0x8
 1040 0093 03       		.uleb128 0x3
 1041 0094 F4030000 		.4byte	.LASF6
 1042 0098 03       		.byte	0x3
 1043 0099 26       		.byte	0x26
 1044 009a 25000000 		.4byte	0x25
 1045 009e 02       		.byte	0x2
 1046 009f 23       		.byte	0x23
 1047 00a0 0C       		.uleb128 0xc
 1048 00a1 00       		.byte	0
 1049 00a2 04       		.uleb128 0x4
 1050 00a3 04       		.byte	0x4
 1051 00a4 51000000 		.4byte	0x51
 1052 00a8 08       		.uleb128 0x8
 1053 00a9 04       		.byte	0x4
 1054 00aa 06       		.uleb128 0x6
 1055 00ab 01       		.byte	0x1
 1056 00ac 06       		.byte	0x6
 1057 00ad 14030000 		.4byte	.LASF8
 1058 00b1 06       		.uleb128 0x6
 1059 00b2 02       		.byte	0x2
 1060 00b3 05       		.byte	0x5
 1061 00b4 7B000000 		.4byte	.LASF9
 1062 00b8 09       		.uleb128 0x9
 1063 00b9 04       		.byte	0x4
 1064 00ba 05       		.byte	0x5
 1065 00bb 696E7400 		.ascii	"int\000"
 1066 00bf 0A       		.uleb128 0xa
 1067 00c0 B8000000 		.4byte	0xb8
 1068 00c4 06       		.uleb128 0x6
 1069 00c5 08       		.byte	0x8
 1070 00c6 05       		.byte	0x5
 1071 00c7 EB010000 		.4byte	.LASF10
 1072 00cb 06       		.uleb128 0x6
 1073 00cc 01       		.byte	0x1
 1074 00cd 08       		.byte	0x8
 1075 00ce E9020000 		.4byte	.LASF11
 1076 00d2 05       		.uleb128 0x5
 1077 00d3 B9030000 		.4byte	.LASF13
 1078 00d7 04       		.byte	0x4
 1079 00d8 0B       		.byte	0xb
 1080 00d9 DD000000 		.4byte	0xdd
 1081 00dd 06       		.uleb128 0x6
 1082 00de 02       		.byte	0x2
 1083 00df 07       		.byte	0x7
ARM GAS  G:\Users\Jaxb\AppData\Local\Temp\cc9lI2vO.s 			page 26


 1084 00e0 A6030000 		.4byte	.LASF14
 1085 00e4 05       		.uleb128 0x5
 1086 00e5 C4000000 		.4byte	.LASF15
 1087 00e9 04       		.byte	0x4
 1088 00ea 0C       		.byte	0xc
 1089 00eb EF000000 		.4byte	0xef
 1090 00ef 06       		.uleb128 0x6
 1091 00f0 04       		.byte	0x4
 1092 00f1 07       		.byte	0x7
 1093 00f2 45030000 		.4byte	.LASF16
 1094 00f6 06       		.uleb128 0x6
 1095 00f7 08       		.byte	0x8
 1096 00f8 07       		.byte	0x7
 1097 00f9 20030000 		.4byte	.LASF17
 1098 00fd 0B       		.uleb128 0xb
 1099 00fe 0004     		.2byte	0x400
 1100 0100 05       		.byte	0x5
 1101 0101 10       		.byte	0x10
 1102 0102 13010000 		.4byte	0x113
 1103 0106 0C       		.uleb128 0xc
 1104 0107 6100     		.ascii	"a\000"
 1105 0109 05       		.byte	0x5
 1106 010a 11       		.byte	0x11
 1107 010b 13010000 		.4byte	0x113
 1108 010f 02       		.byte	0x2
 1109 0110 23       		.byte	0x23
 1110 0111 00       		.uleb128 0
 1111 0112 00       		.byte	0
 1112 0113 0D       		.uleb128 0xd
 1113 0114 B8000000 		.4byte	0xb8
 1114 0118 23010000 		.4byte	0x123
 1115 011c 0E       		.uleb128 0xe
 1116 011d EF000000 		.4byte	0xef
 1117 0121 FF       		.byte	0xff
 1118 0122 00       		.byte	0
 1119 0123 05       		.uleb128 0x5
 1120 0124 99020000 		.4byte	.LASF18
 1121 0128 05       		.byte	0x5
 1122 0129 12       		.byte	0x12
 1123 012a FD000000 		.4byte	0xfd
 1124 012e 05       		.uleb128 0x5
 1125 012f 6F030000 		.4byte	.LASF19
 1126 0133 05       		.byte	0x5
 1127 0134 14       		.byte	0x14
 1128 0135 E4000000 		.4byte	0xe4
 1129 0139 05       		.uleb128 0x5
 1130 013a 7F010000 		.4byte	.LASF20
 1131 013e 05       		.byte	0x5
 1132 013f 15       		.byte	0x15
 1133 0140 D2000000 		.4byte	0xd2
 1134 0144 05       		.uleb128 0x5
 1135 0145 49020000 		.4byte	.LASF21
 1136 0149 05       		.byte	0x5
 1137 014a 16       		.byte	0x16
 1138 014b 23010000 		.4byte	0x123
 1139 014f 02       		.uleb128 0x2
 1140 0150 85040000 		.4byte	.LASF22
ARM GAS  G:\Users\Jaxb\AppData\Local\Temp\cc9lI2vO.s 			page 27


 1141 0154 14       		.byte	0x14
 1142 0155 05       		.byte	0x5
 1143 0156 19       		.byte	0x19
 1144 0157 A2010000 		.4byte	0x1a2
 1145 015b 03       		.uleb128 0x3
 1146 015c B1050000 		.4byte	.LASF23
 1147 0160 05       		.byte	0x5
 1148 0161 1A       		.byte	0x1a
 1149 0162 EF000000 		.4byte	0xef
 1150 0166 02       		.byte	0x2
 1151 0167 23       		.byte	0x23
 1152 0168 00       		.uleb128 0
 1153 0169 03       		.uleb128 0x3
 1154 016a 34000000 		.4byte	.LASF24
 1155 016e 05       		.byte	0x5
 1156 016f 1B       		.byte	0x1b
 1157 0170 EF000000 		.4byte	0xef
 1158 0174 02       		.byte	0x2
 1159 0175 23       		.byte	0x23
 1160 0176 04       		.uleb128 0x4
 1161 0177 03       		.uleb128 0x3
 1162 0178 9C030000 		.4byte	.LASF25
 1163 017c 05       		.byte	0x5
 1164 017d 1C       		.byte	0x1c
 1165 017e EF000000 		.4byte	0xef
 1166 0182 02       		.byte	0x2
 1167 0183 23       		.byte	0x23
 1168 0184 08       		.uleb128 0x8
 1169 0185 03       		.uleb128 0x3
 1170 0186 D6050000 		.4byte	.LASF26
 1171 018a 05       		.byte	0x5
 1172 018b 1D       		.byte	0x1d
 1173 018c EF000000 		.4byte	0xef
 1174 0190 02       		.byte	0x2
 1175 0191 23       		.byte	0x23
 1176 0192 0C       		.uleb128 0xc
 1177 0193 03       		.uleb128 0x3
 1178 0194 B7020000 		.4byte	.LASF27
 1179 0198 05       		.byte	0x5
 1180 0199 1E       		.byte	0x1e
 1181 019a EF000000 		.4byte	0xef
 1182 019e 02       		.byte	0x2
 1183 019f 23       		.byte	0x23
 1184 01a0 10       		.uleb128 0x10
 1185 01a1 00       		.byte	0
 1186 01a2 02       		.uleb128 0x2
 1187 01a3 5D010000 		.4byte	.LASF28
 1188 01a7 04       		.byte	0x4
 1189 01a8 05       		.byte	0x5
 1190 01a9 21       		.byte	0x21
 1191 01aa CB010000 		.4byte	0x1cb
 1192 01ae 0C       		.uleb128 0xc
 1193 01af 6E756D00 		.ascii	"num\000"
 1194 01b3 05       		.byte	0x5
 1195 01b4 22       		.byte	0x22
 1196 01b5 39010000 		.4byte	0x139
 1197 01b9 02       		.byte	0x2
ARM GAS  G:\Users\Jaxb\AppData\Local\Temp\cc9lI2vO.s 			page 28


 1198 01ba 23       		.byte	0x23
 1199 01bb 00       		.uleb128 0
 1200 01bc 03       		.uleb128 0x3
 1201 01bd E4050000 		.4byte	.LASF2
 1202 01c1 05       		.byte	0x5
 1203 01c2 23       		.byte	0x23
 1204 01c3 39010000 		.4byte	0x139
 1205 01c7 02       		.byte	0x2
 1206 01c8 23       		.byte	0x23
 1207 01c9 02       		.uleb128 0x2
 1208 01ca 00       		.byte	0
 1209 01cb 02       		.uleb128 0x2
 1210 01cc 24040000 		.4byte	.LASF29
 1211 01d0 3C       		.byte	0x3c
 1212 01d1 05       		.byte	0x5
 1213 01d2 39       		.byte	0x39
 1214 01d3 72020000 		.4byte	0x272
 1215 01d7 03       		.uleb128 0x3
 1216 01d8 F9010000 		.4byte	.LASF30
 1217 01dc 05       		.byte	0x5
 1218 01dd 3A       		.byte	0x3a
 1219 01de 72020000 		.4byte	0x272
 1220 01e2 02       		.byte	0x2
 1221 01e3 23       		.byte	0x23
 1222 01e4 00       		.uleb128 0
 1223 01e5 03       		.uleb128 0x3
 1224 01e6 3D000000 		.4byte	.LASF31
 1225 01ea 05       		.byte	0x5
 1226 01eb 3B       		.byte	0x3b
 1227 01ec 78020000 		.4byte	0x278
 1228 01f0 02       		.byte	0x2
 1229 01f1 23       		.byte	0x23
 1230 01f2 04       		.uleb128 0x4
 1231 01f3 03       		.uleb128 0x3
 1232 01f4 79030000 		.4byte	.LASF32
 1233 01f8 05       		.byte	0x5
 1234 01f9 3C       		.byte	0x3c
 1235 01fa 39010000 		.4byte	0x139
 1236 01fe 02       		.byte	0x2
 1237 01ff 23       		.byte	0x23
 1238 0200 08       		.uleb128 0x8
 1239 0201 03       		.uleb128 0x3
 1240 0202 4D010000 		.4byte	.LASF33
 1241 0206 05       		.byte	0x5
 1242 0207 3D       		.byte	0x3d
 1243 0208 7E020000 		.4byte	0x27e
 1244 020c 02       		.byte	0x2
 1245 020d 23       		.byte	0x23
 1246 020e 0C       		.uleb128 0xc
 1247 020f 03       		.uleb128 0x3
 1248 0210 CA050000 		.4byte	.LASF34
 1249 0214 05       		.byte	0x5
 1250 0215 3E       		.byte	0x3e
 1251 0216 7E020000 		.4byte	0x27e
 1252 021a 02       		.byte	0x2
 1253 021b 23       		.byte	0x23
 1254 021c 10       		.uleb128 0x10
ARM GAS  G:\Users\Jaxb\AppData\Local\Temp\cc9lI2vO.s 			page 29


 1255 021d 03       		.uleb128 0x3
 1256 021e 52030000 		.4byte	.LASF35
 1257 0222 05       		.byte	0x5
 1258 0223 3F       		.byte	0x3f
 1259 0224 84020000 		.4byte	0x284
 1260 0228 02       		.byte	0x2
 1261 0229 23       		.byte	0x23
 1262 022a 14       		.uleb128 0x14
 1263 022b 03       		.uleb128 0x3
 1264 022c 8A030000 		.4byte	.LASF36
 1265 0230 05       		.byte	0x5
 1266 0231 40       		.byte	0x40
 1267 0232 EF000000 		.4byte	0xef
 1268 0236 02       		.byte	0x2
 1269 0237 23       		.byte	0x23
 1270 0238 18       		.uleb128 0x18
 1271 0239 03       		.uleb128 0x3
 1272 023a C1040000 		.4byte	.LASF37
 1273 023e 05       		.byte	0x5
 1274 023f 41       		.byte	0x41
 1275 0240 EF000000 		.4byte	0xef
 1276 0244 02       		.byte	0x2
 1277 0245 23       		.byte	0x23
 1278 0246 1C       		.uleb128 0x1c
 1279 0247 03       		.uleb128 0x3
 1280 0248 A6040000 		.4byte	.LASF38
 1281 024c 05       		.byte	0x5
 1282 024d 42       		.byte	0x42
 1283 024e 4F010000 		.4byte	0x14f
 1284 0252 02       		.byte	0x2
 1285 0253 23       		.byte	0x23
 1286 0254 20       		.uleb128 0x20
 1287 0255 03       		.uleb128 0x3
 1288 0256 E4050000 		.4byte	.LASF2
 1289 025a 05       		.byte	0x5
 1290 025b 43       		.byte	0x43
 1291 025c 8A020000 		.4byte	0x28a
 1292 0260 02       		.byte	0x2
 1293 0261 23       		.byte	0x23
 1294 0262 34       		.uleb128 0x34
 1295 0263 03       		.uleb128 0x3
 1296 0264 AB040000 		.4byte	.LASF39
 1297 0268 05       		.byte	0x5
 1298 0269 44       		.byte	0x44
 1299 026a 90020000 		.4byte	0x290
 1300 026e 02       		.byte	0x2
 1301 026f 23       		.byte	0x23
 1302 0270 38       		.uleb128 0x38
 1303 0271 00       		.byte	0
 1304 0272 04       		.uleb128 0x4
 1305 0273 04       		.byte	0x4
 1306 0274 2E010000 		.4byte	0x12e
 1307 0278 04       		.uleb128 0x4
 1308 0279 04       		.byte	0x4
 1309 027a A2010000 		.4byte	0x1a2
 1310 027e 04       		.uleb128 0x4
 1311 027f 04       		.byte	0x4
ARM GAS  G:\Users\Jaxb\AppData\Local\Temp\cc9lI2vO.s 			page 30


 1312 0280 39010000 		.4byte	0x139
 1313 0284 04       		.uleb128 0x4
 1314 0285 04       		.byte	0x4
 1315 0286 D2000000 		.4byte	0xd2
 1316 028a 04       		.uleb128 0x4
 1317 028b 04       		.byte	0x4
 1318 028c CB010000 		.4byte	0x1cb
 1319 0290 04       		.uleb128 0x4
 1320 0291 04       		.byte	0x4
 1321 0292 44010000 		.4byte	0x144
 1322 0296 02       		.uleb128 0x2
 1323 0297 08010000 		.4byte	.LASF40
 1324 029b 60       		.byte	0x60
 1325 029c 06       		.byte	0x6
 1326 029d 09       		.byte	0x9
 1327 029e F7020000 		.4byte	0x2f7
 1328 02a2 03       		.uleb128 0x3
 1329 02a3 B0010000 		.4byte	.LASF41
 1330 02a7 06       		.byte	0x6
 1331 02a8 0B       		.byte	0xb
 1332 02a9 F7020000 		.4byte	0x2f7
 1333 02ad 02       		.byte	0x2
 1334 02ae 23       		.byte	0x23
 1335 02af 00       		.uleb128 0
 1336 02b0 03       		.uleb128 0x3
 1337 02b1 17040000 		.4byte	.LASF42
 1338 02b5 06       		.byte	0x6
 1339 02b6 0C       		.byte	0xc
 1340 02b7 F7020000 		.4byte	0x2f7
 1341 02bb 02       		.byte	0x2
 1342 02bc 23       		.byte	0x23
 1343 02bd 28       		.uleb128 0x28
 1344 02be 03       		.uleb128 0x3
 1345 02bf 0B040000 		.4byte	.LASF43
 1346 02c3 06       		.byte	0x6
 1347 02c4 0D       		.byte	0xd
 1348 02c5 A2000000 		.4byte	0xa2
 1349 02c9 02       		.byte	0x2
 1350 02ca 23       		.byte	0x23
 1351 02cb 50       		.uleb128 0x50
 1352 02cc 03       		.uleb128 0x3
 1353 02cd FE010000 		.4byte	.LASF44
 1354 02d1 06       		.byte	0x6
 1355 02d2 0E       		.byte	0xe
 1356 02d3 A2000000 		.4byte	0xa2
 1357 02d7 02       		.byte	0x2
 1358 02d8 23       		.byte	0x23
 1359 02d9 54       		.uleb128 0x54
 1360 02da 03       		.uleb128 0x3
 1361 02db 5F000000 		.4byte	.LASF45
 1362 02df 06       		.byte	0x6
 1363 02e0 0F       		.byte	0xf
 1364 02e1 EF000000 		.4byte	0xef
 1365 02e5 02       		.byte	0x2
 1366 02e6 23       		.byte	0x23
 1367 02e7 58       		.uleb128 0x58
 1368 02e8 03       		.uleb128 0x3
ARM GAS  G:\Users\Jaxb\AppData\Local\Temp\cc9lI2vO.s 			page 31


 1369 02e9 D2030000 		.4byte	.LASF46
 1370 02ed 06       		.byte	0x6
 1371 02ee 10       		.byte	0x10
 1372 02ef EF000000 		.4byte	0xef
 1373 02f3 02       		.byte	0x2
 1374 02f4 23       		.byte	0x23
 1375 02f5 5C       		.uleb128 0x5c
 1376 02f6 00       		.byte	0
 1377 02f7 0D       		.uleb128 0xd
 1378 02f8 A2000000 		.4byte	0xa2
 1379 02fc 07030000 		.4byte	0x307
 1380 0300 0E       		.uleb128 0xe
 1381 0301 EF000000 		.4byte	0xef
 1382 0305 09       		.byte	0x9
 1383 0306 00       		.byte	0
 1384 0307 0F       		.uleb128 0xf
 1385 0308 F9030000 		.4byte	.LASF97
 1386 030c 0E       		.byte	0xe
 1387 030d 12       		.byte	0x12
 1388 030e BF000000 		.4byte	0xbf
 1389 0312 01       		.byte	0x1
 1390 0313 01       		.byte	0x1
 1391 0314 04       		.uleb128 0x4
 1392 0315 04       		.byte	0x4
 1393 0316 58000000 		.4byte	0x58
 1394 031a 10       		.uleb128 0x10
 1395 031b 01       		.byte	0x1
 1396 031c 00000000 		.4byte	.LASF48
 1397 0320 01       		.byte	0x1
 1398 0321 D5       		.byte	0xd5
 1399 0322 01       		.byte	0x1
 1400 0323 90020000 		.4byte	.LFB28
 1401 0327 A4020000 		.4byte	.LFE28
 1402 032b 00000000 		.4byte	.LLST43
 1403 032f 01       		.byte	0x1
 1404 0330 74030000 		.4byte	0x374
 1405 0334 11       		.uleb128 0x11
 1406 0335 07030000 		.4byte	.LASF47
 1407 0339 01       		.byte	0x1
 1408 033a D5       		.byte	0xd5
 1409 033b B8000000 		.4byte	0xb8
 1410 033f 2C000000 		.4byte	.LLST44
 1411 0343 11       		.uleb128 0x11
 1412 0344 B0010000 		.4byte	.LASF41
 1413 0348 01       		.byte	0x1
 1414 0349 D5       		.byte	0xd5
 1415 034a 74030000 		.4byte	0x374
 1416 034e 4D000000 		.4byte	.LLST45
 1417 0352 12       		.uleb128 0x12
 1418 0353 98020000 		.4byte	.LVL107
 1419 0357 C50A0000 		.4byte	0xac5
 1420 035b 69030000 		.4byte	0x369
 1421 035f 13       		.uleb128 0x13
 1422 0360 01       		.byte	0x1
 1423 0361 50       		.byte	0x50
 1424 0362 05       		.byte	0x5
 1425 0363 03       		.byte	0x3
ARM GAS  G:\Users\Jaxb\AppData\Local\Temp\cc9lI2vO.s 			page 32


 1426 0364 48020000 		.4byte	.LC22
 1427 0368 00       		.byte	0
 1428 0369 14       		.uleb128 0x14
 1429 036a A0020000 		.4byte	.LVL108
 1430 036e 01       		.byte	0x1
 1431 036f D20A0000 		.4byte	0xad2
 1432 0373 00       		.byte	0
 1433 0374 04       		.uleb128 0x4
 1434 0375 04       		.byte	0x4
 1435 0376 14030000 		.4byte	0x314
 1436 037a 10       		.uleb128 0x10
 1437 037b 01       		.byte	0x1
 1438 037c 0F000000 		.4byte	.LASF49
 1439 0380 01       		.byte	0x1
 1440 0381 CA       		.byte	0xca
 1441 0382 01       		.byte	0x1
 1442 0383 70020000 		.4byte	.LFB27
 1443 0387 90020000 		.4byte	.LFE27
 1444 038b 6E000000 		.4byte	.LLST40
 1445 038f 01       		.byte	0x1
 1446 0390 E7030000 		.4byte	0x3e7
 1447 0394 11       		.uleb128 0x11
 1448 0395 07030000 		.4byte	.LASF47
 1449 0399 01       		.byte	0x1
 1450 039a CA       		.byte	0xca
 1451 039b B8000000 		.4byte	0xb8
 1452 039f 9A000000 		.4byte	.LLST41
 1453 03a3 11       		.uleb128 0x11
 1454 03a4 B0010000 		.4byte	.LASF41
 1455 03a8 01       		.byte	0x1
 1456 03a9 CA       		.byte	0xca
 1457 03aa 74030000 		.4byte	0x374
 1458 03ae BB000000 		.4byte	.LLST42
 1459 03b2 12       		.uleb128 0x12
 1460 03b3 78020000 		.4byte	.LVL102
 1461 03b7 C50A0000 		.4byte	0xac5
 1462 03bb C9030000 		.4byte	0x3c9
 1463 03bf 13       		.uleb128 0x13
 1464 03c0 01       		.byte	0x1
 1465 03c1 50       		.byte	0x50
 1466 03c2 05       		.byte	0x5
 1467 03c3 03       		.byte	0x3
 1468 03c4 F8010000 		.4byte	.LC20
 1469 03c8 00       		.byte	0
 1470 03c9 15       		.uleb128 0x15
 1471 03ca 7C020000 		.4byte	.LVL103
 1472 03ce DF0A0000 		.4byte	0xadf
 1473 03d2 16       		.uleb128 0x16
 1474 03d3 86020000 		.4byte	.LVL104
 1475 03d7 01       		.byte	0x1
 1476 03d8 C50A0000 		.4byte	0xac5
 1477 03dc 13       		.uleb128 0x13
 1478 03dd 01       		.byte	0x1
 1479 03de 50       		.byte	0x50
 1480 03df 05       		.byte	0x5
 1481 03e0 03       		.byte	0x3
 1482 03e1 3C020000 		.4byte	.LC21
ARM GAS  G:\Users\Jaxb\AppData\Local\Temp\cc9lI2vO.s 			page 33


 1483 03e5 00       		.byte	0
 1484 03e6 00       		.byte	0
 1485 03e7 10       		.uleb128 0x10
 1486 03e8 01       		.byte	0x1
 1487 03e9 62030000 		.4byte	.LASF50
 1488 03ed 01       		.byte	0x1
 1489 03ee 90       		.byte	0x90
 1490 03ef 01       		.byte	0x1
 1491 03f0 A0010000 		.4byte	.LFB26
 1492 03f4 70020000 		.4byte	.LFE26
 1493 03f8 DC000000 		.4byte	.LLST34
 1494 03fc 01       		.byte	0x1
 1495 03fd 11060000 		.4byte	0x611
 1496 0401 11       		.uleb128 0x11
 1497 0402 07030000 		.4byte	.LASF47
 1498 0406 01       		.byte	0x1
 1499 0407 90       		.byte	0x90
 1500 0408 B8000000 		.4byte	0xb8
 1501 040c 54010000 		.4byte	.LLST35
 1502 0410 11       		.uleb128 0x11
 1503 0411 B0010000 		.4byte	.LASF41
 1504 0415 01       		.byte	0x1
 1505 0416 90       		.byte	0x90
 1506 0417 74030000 		.4byte	0x374
 1507 041b 8E010000 		.4byte	.LLST36
 1508 041f 17       		.uleb128 0x17
 1509 0420 62756600 		.ascii	"buf\000"
 1510 0424 01       		.byte	0x1
 1511 0425 92       		.byte	0x92
 1512 0426 A8000000 		.4byte	0xa8
 1513 042a C8010000 		.4byte	.LLST37
 1514 042e 18       		.uleb128 0x18
 1515 042f 37040000 		.4byte	.LASF51
 1516 0433 01       		.byte	0x1
 1517 0434 93       		.byte	0x93
 1518 0435 A2000000 		.4byte	0xa2
 1519 0439 FC010000 		.4byte	.LLST38
 1520 043d 19       		.uleb128 0x19
 1521 043e 08010000 		.4byte	.LASF40
 1522 0442 01       		.byte	0x1
 1523 0443 A6       		.byte	0xa6
 1524 0444 96020000 		.4byte	0x296
 1525 0448 03       		.byte	0x3
 1526 0449 91       		.byte	0x91
 1527 044a 907F     		.sleb128 -112
 1528 044c 1A       		.uleb128 0x1a
 1529 044d 6F757400 		.ascii	"out\000"
 1530 0451 01       		.byte	0x1
 1531 0452 C4       		.byte	0xc4
 1532 0453 12020000 		.4byte	.L53
 1533 0457 1B       		.uleb128 0x1b
 1534 0458 22000000 		.4byte	.LASF52
 1535 045c 01       		.byte	0x1
 1536 045d C2       		.byte	0xc2
 1537 045e 4A020000 		.4byte	.LDL1
 1538 0462 18       		.uleb128 0x18
 1539 0463 5D040000 		.4byte	.LASF53
ARM GAS  G:\Users\Jaxb\AppData\Local\Temp\cc9lI2vO.s 			page 34


 1540 0467 01       		.byte	0x1
 1541 0468 B2       		.byte	0xb2
 1542 0469 11060000 		.4byte	0x611
 1543 046d 3B020000 		.4byte	.LLST39
 1544 0471 15       		.uleb128 0x15
 1545 0472 AE010000 		.4byte	.LVL68
 1546 0476 EC0A0000 		.4byte	0xaec
 1547 047a 15       		.uleb128 0x15
 1548 047b B2010000 		.4byte	.LVL69
 1549 047f F90A0000 		.4byte	0xaf9
 1550 0483 12       		.uleb128 0x12
 1551 0484 BE010000 		.4byte	.LVL71
 1552 0488 F90A0000 		.4byte	0xaf9
 1553 048c 96040000 		.4byte	0x496
 1554 0490 13       		.uleb128 0x13
 1555 0491 01       		.byte	0x1
 1556 0492 50       		.byte	0x50
 1557 0493 01       		.byte	0x1
 1558 0494 44       		.byte	0x44
 1559 0495 00       		.byte	0
 1560 0496 12       		.uleb128 0x12
 1561 0497 CC010000 		.4byte	.LVL73
 1562 049b 060B0000 		.4byte	0xb06
 1563 049f B5040000 		.4byte	0x4b5
 1564 04a3 13       		.uleb128 0x13
 1565 04a4 01       		.byte	0x1
 1566 04a5 50       		.byte	0x50
 1567 04a6 02       		.byte	0x2
 1568 04a7 7D       		.byte	0x7d
 1569 04a8 00       		.sleb128 0
 1570 04a9 13       		.uleb128 0x13
 1571 04aa 01       		.byte	0x1
 1572 04ab 51       		.byte	0x51
 1573 04ac 02       		.byte	0x2
 1574 04ad 75       		.byte	0x75
 1575 04ae 00       		.sleb128 0
 1576 04af 13       		.uleb128 0x13
 1577 04b0 01       		.byte	0x1
 1578 04b1 52       		.byte	0x52
 1579 04b2 01       		.byte	0x1
 1580 04b3 30       		.byte	0x30
 1581 04b4 00       		.byte	0
 1582 04b5 12       		.uleb128 0x12
 1583 04b6 D6010000 		.4byte	.LVL74
 1584 04ba 130B0000 		.4byte	0xb13
 1585 04be C9040000 		.4byte	0x4c9
 1586 04c2 13       		.uleb128 0x13
 1587 04c3 01       		.byte	0x1
 1588 04c4 50       		.byte	0x50
 1589 04c5 02       		.byte	0x2
 1590 04c6 7D       		.byte	0x7d
 1591 04c7 00       		.sleb128 0
 1592 04c8 00       		.byte	0
 1593 04c9 12       		.uleb128 0x12
 1594 04ca DE010000 		.4byte	.LVL77
 1595 04ce 200B0000 		.4byte	0xb20
 1596 04d2 DD040000 		.4byte	0x4dd
ARM GAS  G:\Users\Jaxb\AppData\Local\Temp\cc9lI2vO.s 			page 35


 1597 04d6 13       		.uleb128 0x13
 1598 04d7 01       		.byte	0x1
 1599 04d8 50       		.byte	0x50
 1600 04d9 02       		.byte	0x2
 1601 04da 74       		.byte	0x74
 1602 04db 00       		.sleb128 0
 1603 04dc 00       		.byte	0
 1604 04dd 12       		.uleb128 0x12
 1605 04de E4010000 		.4byte	.LVL78
 1606 04e2 C50A0000 		.4byte	0xac5
 1607 04e6 F4040000 		.4byte	0x4f4
 1608 04ea 13       		.uleb128 0x13
 1609 04eb 01       		.byte	0x1
 1610 04ec 50       		.byte	0x50
 1611 04ed 05       		.byte	0x5
 1612 04ee 03       		.byte	0x3
 1613 04ef 88010000 		.4byte	.LC16
 1614 04f3 00       		.byte	0
 1615 04f4 12       		.uleb128 0x12
 1616 04f5 EA010000 		.4byte	.LVL79
 1617 04f9 2D0B0000 		.4byte	0xb2d
 1618 04fd 0B050000 		.4byte	0x50b
 1619 0501 13       		.uleb128 0x13
 1620 0502 01       		.byte	0x1
 1621 0503 50       		.byte	0x50
 1622 0504 05       		.byte	0x5
 1623 0505 03       		.byte	0x3
 1624 0506 C8010000 		.4byte	.LC17
 1625 050a 00       		.byte	0
 1626 050b 15       		.uleb128 0x15
 1627 050c EE010000 		.4byte	.LVL80
 1628 0510 3A0B0000 		.4byte	0xb3a
 1629 0514 12       		.uleb128 0x12
 1630 0515 F4010000 		.4byte	.LVL81
 1631 0519 130B0000 		.4byte	0xb13
 1632 051d 28050000 		.4byte	0x528
 1633 0521 13       		.uleb128 0x13
 1634 0522 01       		.byte	0x1
 1635 0523 50       		.byte	0x50
 1636 0524 02       		.byte	0x2
 1637 0525 75       		.byte	0x75
 1638 0526 00       		.sleb128 0
 1639 0527 00       		.byte	0
 1640 0528 12       		.uleb128 0x12
 1641 0529 FA010000 		.4byte	.LVL82
 1642 052d C50A0000 		.4byte	0xac5
 1643 0531 3F050000 		.4byte	0x53f
 1644 0535 13       		.uleb128 0x13
 1645 0536 01       		.byte	0x1
 1646 0537 50       		.byte	0x50
 1647 0538 05       		.byte	0x5
 1648 0539 03       		.byte	0x3
 1649 053a CC010000 		.4byte	.LC18
 1650 053e 00       		.byte	0
 1651 053f 15       		.uleb128 0x15
 1652 0540 FE010000 		.4byte	.LVL83
 1653 0544 470B0000 		.4byte	0xb47
ARM GAS  G:\Users\Jaxb\AppData\Local\Temp\cc9lI2vO.s 			page 36


 1654 0548 15       		.uleb128 0x15
 1655 0549 02020000 		.4byte	.LVL84
 1656 054d 540B0000 		.4byte	0xb54
 1657 0551 12       		.uleb128 0x12
 1658 0552 08020000 		.4byte	.LVL85
 1659 0556 C50A0000 		.4byte	0xac5
 1660 055a 68050000 		.4byte	0x568
 1661 055e 13       		.uleb128 0x13
 1662 055f 01       		.byte	0x1
 1663 0560 50       		.byte	0x50
 1664 0561 05       		.byte	0x5
 1665 0562 03       		.byte	0x3
 1666 0563 F0010000 		.4byte	.LC19
 1667 0567 00       		.byte	0
 1668 0568 12       		.uleb128 0x12
 1669 0569 12020000 		.4byte	.LVL88
 1670 056d C50A0000 		.4byte	0xac5
 1671 0571 7F050000 		.4byte	0x57f
 1672 0575 13       		.uleb128 0x13
 1673 0576 01       		.byte	0x1
 1674 0577 50       		.byte	0x50
 1675 0578 05       		.byte	0x5
 1676 0579 03       		.byte	0x3
 1677 057a 50010000 		.4byte	.LC14
 1678 057e 00       		.byte	0
 1679 057f 12       		.uleb128 0x12
 1680 0580 18020000 		.4byte	.LVL89
 1681 0584 610B0000 		.4byte	0xb61
 1682 0588 93050000 		.4byte	0x593
 1683 058c 13       		.uleb128 0x13
 1684 058d 01       		.byte	0x1
 1685 058e 50       		.byte	0x50
 1686 058f 02       		.byte	0x2
 1687 0590 74       		.byte	0x74
 1688 0591 00       		.sleb128 0
 1689 0592 00       		.byte	0
 1690 0593 15       		.uleb128 0x15
 1691 0594 20020000 		.4byte	.LVL91
 1692 0598 6E0B0000 		.4byte	0xb6e
 1693 059c 12       		.uleb128 0x12
 1694 059d 2A020000 		.4byte	.LVL94
 1695 05a1 7B0B0000 		.4byte	0xb7b
 1696 05a5 B5050000 		.4byte	0x5b5
 1697 05a9 13       		.uleb128 0x13
 1698 05aa 01       		.byte	0x1
 1699 05ab 50       		.byte	0x50
 1700 05ac 01       		.byte	0x1
 1701 05ad 33       		.byte	0x33
 1702 05ae 13       		.uleb128 0x13
 1703 05af 01       		.byte	0x1
 1704 05b0 51       		.byte	0x51
 1705 05b1 02       		.byte	0x2
 1706 05b2 74       		.byte	0x74
 1707 05b3 00       		.sleb128 0
 1708 05b4 00       		.byte	0
 1709 05b5 12       		.uleb128 0x12
 1710 05b6 36020000 		.4byte	.LVL95
ARM GAS  G:\Users\Jaxb\AppData\Local\Temp\cc9lI2vO.s 			page 37


 1711 05ba 880B0000 		.4byte	0xb88
 1712 05be D2050000 		.4byte	0x5d2
 1713 05c2 13       		.uleb128 0x13
 1714 05c3 01       		.byte	0x1
 1715 05c4 50       		.byte	0x50
 1716 05c5 05       		.byte	0x5
 1717 05c6 03       		.byte	0x3
 1718 05c7 2C000000 		.4byte	.LC2
 1719 05cb 13       		.uleb128 0x13
 1720 05cc 01       		.byte	0x1
 1721 05cd 51       		.byte	0x51
 1722 05ce 02       		.byte	0x2
 1723 05cf 08       		.byte	0x8
 1724 05d0 99       		.byte	0x99
 1725 05d1 00       		.byte	0
 1726 05d2 12       		.uleb128 0x12
 1727 05d3 40020000 		.4byte	.LVL96
 1728 05d7 C50A0000 		.4byte	0xac5
 1729 05db E9050000 		.4byte	0x5e9
 1730 05df 13       		.uleb128 0x13
 1731 05e0 01       		.byte	0x1
 1732 05e1 50       		.byte	0x50
 1733 05e2 05       		.byte	0x5
 1734 05e3 03       		.byte	0x3
 1735 05e4 50010000 		.4byte	.LC14
 1736 05e8 00       		.byte	0
 1737 05e9 12       		.uleb128 0x12
 1738 05ea 4A020000 		.4byte	.LVL98
 1739 05ee C50A0000 		.4byte	0xac5
 1740 05f2 00060000 		.4byte	0x600
 1741 05f6 13       		.uleb128 0x13
 1742 05f7 01       		.byte	0x1
 1743 05f8 50       		.byte	0x50
 1744 05f9 05       		.byte	0x5
 1745 05fa 03       		.byte	0x3
 1746 05fb 6C010000 		.4byte	.LC15
 1747 05ff 00       		.byte	0
 1748 0600 1C       		.uleb128 0x1c
 1749 0601 50020000 		.4byte	.LVL99
 1750 0605 610B0000 		.4byte	0xb61
 1751 0609 13       		.uleb128 0x13
 1752 060a 01       		.byte	0x1
 1753 060b 50       		.byte	0x50
 1754 060c 02       		.byte	0x2
 1755 060d 75       		.byte	0x75
 1756 060e 00       		.sleb128 0
 1757 060f 00       		.byte	0
 1758 0610 00       		.byte	0
 1759 0611 04       		.uleb128 0x4
 1760 0612 04       		.byte	0x4
 1761 0613 96020000 		.4byte	0x296
 1762 0617 1D       		.uleb128 0x1d
 1763 0618 01       		.byte	0x1
 1764 0619 CB000000 		.4byte	.LASF54
 1765 061d 01       		.byte	0x1
 1766 061e 87       		.byte	0x87
 1767 061f 01       		.byte	0x1
ARM GAS  G:\Users\Jaxb\AppData\Local\Temp\cc9lI2vO.s 			page 38


 1768 0620 9C010000 		.4byte	.LFB25
 1769 0624 A0010000 		.4byte	.LFE25
 1770 0628 02       		.byte	0x2
 1771 0629 7D       		.byte	0x7d
 1772 062a 00       		.sleb128 0
 1773 062b 01       		.byte	0x1
 1774 062c 59060000 		.4byte	0x659
 1775 0630 11       		.uleb128 0x11
 1776 0631 07030000 		.4byte	.LASF47
 1777 0635 01       		.byte	0x1
 1778 0636 87       		.byte	0x87
 1779 0637 B8000000 		.4byte	0xb8
 1780 063b 59020000 		.4byte	.LLST32
 1781 063f 11       		.uleb128 0x11
 1782 0640 B0010000 		.4byte	.LASF41
 1783 0644 01       		.byte	0x1
 1784 0645 87       		.byte	0x87
 1785 0646 74030000 		.4byte	0x374
 1786 064a 7A020000 		.4byte	.LLST33
 1787 064e 14       		.uleb128 0x14
 1788 064f A0010000 		.4byte	.LVL65
 1789 0653 01       		.byte	0x1
 1790 0654 950B0000 		.4byte	0xb95
 1791 0658 00       		.byte	0
 1792 0659 10       		.uleb128 0x10
 1793 065a 01       		.byte	0x1
 1794 065b 17020000 		.4byte	.LASF55
 1795 065f 01       		.byte	0x1
 1796 0660 7D       		.byte	0x7d
 1797 0661 01       		.byte	0x1
 1798 0662 88010000 		.4byte	.LFB24
 1799 0666 9A010000 		.4byte	.LFE24
 1800 066a 9B020000 		.4byte	.LLST29
 1801 066e 01       		.byte	0x1
 1802 066f AE060000 		.4byte	0x6ae
 1803 0673 11       		.uleb128 0x11
 1804 0674 07030000 		.4byte	.LASF47
 1805 0678 01       		.byte	0x1
 1806 0679 7D       		.byte	0x7d
 1807 067a B8000000 		.4byte	0xb8
 1808 067e C7020000 		.4byte	.LLST30
 1809 0682 11       		.uleb128 0x11
 1810 0683 B0010000 		.4byte	.LASF41
 1811 0687 01       		.byte	0x1
 1812 0688 7D       		.byte	0x7d
 1813 0689 74030000 		.4byte	0x374
 1814 068d E8020000 		.4byte	.LLST31
 1815 0691 15       		.uleb128 0x15
 1816 0692 8E010000 		.4byte	.LVL61
 1817 0696 A20B0000 		.4byte	0xba2
 1818 069a 15       		.uleb128 0x15
 1819 069b 92010000 		.4byte	.LVL62
 1820 069f AF0B0000 		.4byte	0xbaf
 1821 06a3 14       		.uleb128 0x14
 1822 06a4 9A010000 		.4byte	.LVL63
 1823 06a8 01       		.byte	0x1
 1824 06a9 BC0B0000 		.4byte	0xbbc
ARM GAS  G:\Users\Jaxb\AppData\Local\Temp\cc9lI2vO.s 			page 39


 1825 06ad 00       		.byte	0
 1826 06ae 10       		.uleb128 0x10
 1827 06af 01       		.byte	0x1
 1828 06b0 45040000 		.4byte	.LASF56
 1829 06b4 01       		.byte	0x1
 1830 06b5 6C       		.byte	0x6c
 1831 06b6 01       		.byte	0x1
 1832 06b7 54010000 		.4byte	.LFB23
 1833 06bb 88010000 		.4byte	.LFE23
 1834 06bf 09030000 		.4byte	.LLST25
 1835 06c3 01       		.byte	0x1
 1836 06c4 35070000 		.4byte	0x735
 1837 06c8 11       		.uleb128 0x11
 1838 06c9 07030000 		.4byte	.LASF47
 1839 06cd 01       		.byte	0x1
 1840 06ce 6C       		.byte	0x6c
 1841 06cf B8000000 		.4byte	0xb8
 1842 06d3 65030000 		.4byte	.LLST26
 1843 06d7 11       		.uleb128 0x11
 1844 06d8 B0010000 		.4byte	.LASF41
 1845 06dc 01       		.byte	0x1
 1846 06dd 6C       		.byte	0x6c
 1847 06de 74030000 		.4byte	0x374
 1848 06e2 9F030000 		.4byte	.LLST27
 1849 06e6 18       		.uleb128 0x18
 1850 06e7 72040000 		.4byte	.LASF57
 1851 06eb 01       		.byte	0x1
 1852 06ec 73       		.byte	0x73
 1853 06ed 35070000 		.4byte	0x735
 1854 06f1 D9030000 		.4byte	.LLST28
 1855 06f5 15       		.uleb128 0x15
 1856 06f6 60010000 		.4byte	.LVL54
 1857 06fa C90B0000 		.4byte	0xbc9
 1858 06fe 14       		.uleb128 0x14
 1859 06ff 6A010000 		.4byte	.LVL55
 1860 0703 01       		.byte	0x1
 1861 0704 D60B0000 		.4byte	0xbd6
 1862 0708 1E       		.uleb128 0x1e
 1863 0709 74010000 		.4byte	.LVL57
 1864 070d 01       		.byte	0x1
 1865 070e C50A0000 		.4byte	0xac5
 1866 0712 20070000 		.4byte	0x720
 1867 0716 13       		.uleb128 0x13
 1868 0717 01       		.byte	0x1
 1869 0718 50       		.byte	0x50
 1870 0719 05       		.byte	0x5
 1871 071a 03       		.byte	0x3
 1872 071b 14010000 		.4byte	.LC11
 1873 071f 00       		.byte	0
 1874 0720 16       		.uleb128 0x16
 1875 0721 7E010000 		.4byte	.LVL59
 1876 0725 01       		.byte	0x1
 1877 0726 C50A0000 		.4byte	0xac5
 1878 072a 13       		.uleb128 0x13
 1879 072b 01       		.byte	0x1
 1880 072c 50       		.byte	0x50
 1881 072d 05       		.byte	0x5
ARM GAS  G:\Users\Jaxb\AppData\Local\Temp\cc9lI2vO.s 			page 40


 1882 072e 03       		.byte	0x3
 1883 072f 28010000 		.4byte	.LC12
 1884 0733 00       		.byte	0
 1885 0734 00       		.byte	0
 1886 0735 04       		.uleb128 0x4
 1887 0736 04       		.byte	0x4
 1888 0737 5D000000 		.4byte	0x5d
 1889 073b 10       		.uleb128 0x10
 1890 073c 01       		.byte	0x1
 1891 073d D8000000 		.4byte	.LASF58
 1892 0741 01       		.byte	0x1
 1893 0742 5A       		.byte	0x5a
 1894 0743 01       		.byte	0x1
 1895 0744 1C010000 		.4byte	.LFB22
 1896 0748 54010000 		.4byte	.LFE22
 1897 074c F7030000 		.4byte	.LLST21
 1898 0750 01       		.byte	0x1
 1899 0751 C2070000 		.4byte	0x7c2
 1900 0755 11       		.uleb128 0x11
 1901 0756 07030000 		.4byte	.LASF47
 1902 075a 01       		.byte	0x1
 1903 075b 5A       		.byte	0x5a
 1904 075c B8000000 		.4byte	0xb8
 1905 0760 53040000 		.4byte	.LLST22
 1906 0764 11       		.uleb128 0x11
 1907 0765 B0010000 		.4byte	.LASF41
 1908 0769 01       		.byte	0x1
 1909 076a 5A       		.byte	0x5a
 1910 076b 74030000 		.4byte	0x374
 1911 076f 8D040000 		.4byte	.LLST23
 1912 0773 18       		.uleb128 0x18
 1913 0774 72040000 		.4byte	.LASF57
 1914 0778 01       		.byte	0x1
 1915 0779 61       		.byte	0x61
 1916 077a 35070000 		.4byte	0x735
 1917 077e EB040000 		.4byte	.LLST24
 1918 0782 15       		.uleb128 0x15
 1919 0783 2A010000 		.4byte	.LVL44
 1920 0787 C90B0000 		.4byte	0xbc9
 1921 078b 14       		.uleb128 0x14
 1922 078c 36010000 		.4byte	.LVL46
 1923 0790 01       		.byte	0x1
 1924 0791 E30B0000 		.4byte	0xbe3
 1925 0795 1E       		.uleb128 0x1e
 1926 0796 40010000 		.4byte	.LVL48
 1927 079a 01       		.byte	0x1
 1928 079b C50A0000 		.4byte	0xac5
 1929 079f AD070000 		.4byte	0x7ad
 1930 07a3 13       		.uleb128 0x13
 1931 07a4 01       		.byte	0x1
 1932 07a5 50       		.byte	0x50
 1933 07a6 05       		.byte	0x5
 1934 07a7 03       		.byte	0x3
 1935 07a8 14010000 		.4byte	.LC11
 1936 07ac 00       		.byte	0
 1937 07ad 16       		.uleb128 0x16
 1938 07ae 4A010000 		.4byte	.LVL51
ARM GAS  G:\Users\Jaxb\AppData\Local\Temp\cc9lI2vO.s 			page 41


 1939 07b2 01       		.byte	0x1
 1940 07b3 C50A0000 		.4byte	0xac5
 1941 07b7 13       		.uleb128 0x13
 1942 07b8 01       		.byte	0x1
 1943 07b9 50       		.byte	0x50
 1944 07ba 05       		.byte	0x5
 1945 07bb 03       		.byte	0x3
 1946 07bc 3C010000 		.4byte	.LC13
 1947 07c0 00       		.byte	0
 1948 07c1 00       		.byte	0
 1949 07c2 10       		.uleb128 0x10
 1950 07c3 01       		.byte	0x1
 1951 07c4 8F000000 		.4byte	.LASF59
 1952 07c8 01       		.byte	0x1
 1953 07c9 49       		.byte	0x49
 1954 07ca 01       		.byte	0x1
 1955 07cb E8000000 		.4byte	.LFB21
 1956 07cf 1C010000 		.4byte	.LFE21
 1957 07d3 09050000 		.4byte	.LLST17
 1958 07d7 01       		.byte	0x1
 1959 07d8 49080000 		.4byte	0x849
 1960 07dc 11       		.uleb128 0x11
 1961 07dd 07030000 		.4byte	.LASF47
 1962 07e1 01       		.byte	0x1
 1963 07e2 49       		.byte	0x49
 1964 07e3 B8000000 		.4byte	0xb8
 1965 07e7 65050000 		.4byte	.LLST18
 1966 07eb 11       		.uleb128 0x11
 1967 07ec B0010000 		.4byte	.LASF41
 1968 07f0 01       		.byte	0x1
 1969 07f1 49       		.byte	0x49
 1970 07f2 74030000 		.4byte	0x374
 1971 07f6 9F050000 		.4byte	.LLST19
 1972 07fa 18       		.uleb128 0x18
 1973 07fb 72040000 		.4byte	.LASF57
 1974 07ff 01       		.byte	0x1
 1975 0800 50       		.byte	0x50
 1976 0801 35070000 		.4byte	0x735
 1977 0805 D9050000 		.4byte	.LLST20
 1978 0809 15       		.uleb128 0x15
 1979 080a F4000000 		.4byte	.LVL36
 1980 080e C90B0000 		.4byte	0xbc9
 1981 0812 14       		.uleb128 0x14
 1982 0813 FE000000 		.4byte	.LVL37
 1983 0817 01       		.byte	0x1
 1984 0818 F00B0000 		.4byte	0xbf0
 1985 081c 1E       		.uleb128 0x1e
 1986 081d 08010000 		.4byte	.LVL39
 1987 0821 01       		.byte	0x1
 1988 0822 C50A0000 		.4byte	0xac5
 1989 0826 34080000 		.4byte	0x834
 1990 082a 13       		.uleb128 0x13
 1991 082b 01       		.byte	0x1
 1992 082c 50       		.byte	0x50
 1993 082d 05       		.byte	0x5
 1994 082e 03       		.byte	0x3
 1995 082f 14010000 		.4byte	.LC11
ARM GAS  G:\Users\Jaxb\AppData\Local\Temp\cc9lI2vO.s 			page 42


 1996 0833 00       		.byte	0
 1997 0834 16       		.uleb128 0x16
 1998 0835 12010000 		.4byte	.LVL41
 1999 0839 01       		.byte	0x1
 2000 083a C50A0000 		.4byte	0xac5
 2001 083e 13       		.uleb128 0x13
 2002 083f 01       		.byte	0x1
 2003 0840 50       		.byte	0x50
 2004 0841 05       		.byte	0x5
 2005 0842 03       		.byte	0x3
 2006 0843 28010000 		.4byte	.LC12
 2007 0847 00       		.byte	0
 2008 0848 00       		.byte	0
 2009 0849 10       		.uleb128 0x10
 2010 084a 01       		.byte	0x1
 2011 084b 29010000 		.4byte	.LASF60
 2012 084f 01       		.byte	0x1
 2013 0850 3E       		.byte	0x3e
 2014 0851 01       		.byte	0x1
 2015 0852 D0000000 		.4byte	.LFB20
 2016 0856 E8000000 		.4byte	.LFE20
 2017 085a F7050000 		.4byte	.LLST13
 2018 085e 01       		.byte	0x1
 2019 085f 9F080000 		.4byte	0x89f
 2020 0863 11       		.uleb128 0x11
 2021 0864 07030000 		.4byte	.LASF47
 2022 0868 01       		.byte	0x1
 2023 0869 3E       		.byte	0x3e
 2024 086a B8000000 		.4byte	0xb8
 2025 086e 17060000 		.4byte	.LLST14
 2026 0872 11       		.uleb128 0x11
 2027 0873 B0010000 		.4byte	.LASF41
 2028 0877 01       		.byte	0x1
 2029 0878 3E       		.byte	0x3e
 2030 0879 74030000 		.4byte	0x374
 2031 087d 38060000 		.4byte	.LLST15
 2032 0881 17       		.uleb128 0x17
 2033 0882 6900     		.ascii	"i\000"
 2034 0884 01       		.byte	0x1
 2035 0885 42       		.byte	0x42
 2036 0886 EF000000 		.4byte	0xef
 2037 088a 59060000 		.4byte	.LLST16
 2038 088e 1C       		.uleb128 0x1c
 2039 088f DC000000 		.4byte	.LVL31
 2040 0893 C50A0000 		.4byte	0xac5
 2041 0897 13       		.uleb128 0x13
 2042 0898 01       		.byte	0x1
 2043 0899 50       		.byte	0x50
 2044 089a 02       		.byte	0x2
 2045 089b 75       		.byte	0x75
 2046 089c 00       		.sleb128 0
 2047 089d 00       		.byte	0
 2048 089e 00       		.byte	0
 2049 089f 10       		.uleb128 0x10
 2050 08a0 01       		.byte	0x1
 2051 08a1 50040000 		.4byte	.LASF61
 2052 08a5 01       		.byte	0x1
ARM GAS  G:\Users\Jaxb\AppData\Local\Temp\cc9lI2vO.s 			page 43


 2053 08a6 2B       		.byte	0x2b
 2054 08a7 01       		.byte	0x1
 2055 08a8 34000000 		.4byte	.LFB19
 2056 08ac D0000000 		.4byte	.LFE19
 2057 08b0 9D060000 		.4byte	.LLST8
 2058 08b4 01       		.byte	0x1
 2059 08b5 DB090000 		.4byte	0x9db
 2060 08b9 11       		.uleb128 0x11
 2061 08ba 07030000 		.4byte	.LASF47
 2062 08be 01       		.byte	0x1
 2063 08bf 2B       		.byte	0x2b
 2064 08c0 B8000000 		.4byte	0xb8
 2065 08c4 C9060000 		.4byte	.LLST9
 2066 08c8 11       		.uleb128 0x11
 2067 08c9 B0010000 		.4byte	.LASF41
 2068 08cd 01       		.byte	0x1
 2069 08ce 2B       		.byte	0x2b
 2070 08cf 74030000 		.4byte	0x374
 2071 08d3 EA060000 		.4byte	.LLST10
 2072 08d7 18       		.uleb128 0x18
 2073 08d8 C0050000 		.4byte	.LASF62
 2074 08dc 01       		.byte	0x1
 2075 08dd 2F       		.byte	0x2f
 2076 08de 8A020000 		.4byte	0x28a
 2077 08e2 0B070000 		.4byte	.LLST11
 2078 08e6 17       		.uleb128 0x17
 2079 08e7 6A00     		.ascii	"j\000"
 2080 08e9 01       		.byte	0x1
 2081 08ea 31       		.byte	0x31
 2082 08eb EF000000 		.4byte	0xef
 2083 08ef 34070000 		.4byte	.LLST12
 2084 08f3 15       		.uleb128 0x15
 2085 08f4 3C000000 		.4byte	.LVL12
 2086 08f8 FD0B0000 		.4byte	0xbfd
 2087 08fc 12       		.uleb128 0x12
 2088 08fd 52000000 		.4byte	.LVL15
 2089 0901 C50A0000 		.4byte	0xac5
 2090 0905 16090000 		.4byte	0x916
 2091 0909 13       		.uleb128 0x13
 2092 090a 01       		.byte	0x1
 2093 090b 50       		.byte	0x50
 2094 090c 02       		.byte	0x2
 2095 090d 78       		.byte	0x78
 2096 090e 00       		.sleb128 0
 2097 090f 13       		.uleb128 0x13
 2098 0910 01       		.byte	0x1
 2099 0911 51       		.byte	0x51
 2100 0912 02       		.byte	0x2
 2101 0913 75       		.byte	0x75
 2102 0914 00       		.sleb128 0
 2103 0915 00       		.byte	0
 2104 0916 12       		.uleb128 0x12
 2105 0917 58000000 		.4byte	.LVL16
 2106 091b C50A0000 		.4byte	0xac5
 2107 091f 2A090000 		.4byte	0x92a
 2108 0923 13       		.uleb128 0x13
 2109 0924 01       		.byte	0x1
ARM GAS  G:\Users\Jaxb\AppData\Local\Temp\cc9lI2vO.s 			page 44


 2110 0925 50       		.byte	0x50
 2111 0926 02       		.byte	0x2
 2112 0927 77       		.byte	0x77
 2113 0928 00       		.sleb128 0
 2114 0929 00       		.byte	0
 2115 092a 12       		.uleb128 0x12
 2116 092b 60000000 		.4byte	.LVL17
 2117 092f C50A0000 		.4byte	0xac5
 2118 0933 3E090000 		.4byte	0x93e
 2119 0937 13       		.uleb128 0x13
 2120 0938 01       		.byte	0x1
 2121 0939 50       		.byte	0x50
 2122 093a 02       		.byte	0x2
 2123 093b 76       		.byte	0x76
 2124 093c 00       		.sleb128 0
 2125 093d 00       		.byte	0
 2126 093e 15       		.uleb128 0x15
 2127 093f 64000000 		.4byte	.LVL18
 2128 0943 0A0C0000 		.4byte	0xc0a
 2129 0947 12       		.uleb128 0x12
 2130 0948 6C000000 		.4byte	.LVL19
 2131 094c C50A0000 		.4byte	0xac5
 2132 0950 5E090000 		.4byte	0x95e
 2133 0954 13       		.uleb128 0x13
 2134 0955 01       		.byte	0x1
 2135 0956 50       		.byte	0x50
 2136 0957 05       		.byte	0x5
 2137 0958 03       		.byte	0x3
 2138 0959 BC000000 		.4byte	.LC6
 2139 095d 00       		.byte	0
 2140 095e 12       		.uleb128 0x12
 2141 095f 74000000 		.4byte	.LVL20
 2142 0963 C50A0000 		.4byte	0xac5
 2143 0967 75090000 		.4byte	0x975
 2144 096b 13       		.uleb128 0x13
 2145 096c 01       		.byte	0x1
 2146 096d 50       		.byte	0x50
 2147 096e 05       		.byte	0x5
 2148 096f 03       		.byte	0x3
 2149 0970 D4000000 		.4byte	.LC7
 2150 0974 00       		.byte	0
 2151 0975 15       		.uleb128 0x15
 2152 0976 78000000 		.4byte	.LVL21
 2153 097a 0A0C0000 		.4byte	0xc0a
 2154 097e 12       		.uleb128 0x12
 2155 097f 8A000000 		.4byte	.LVL22
 2156 0983 C50A0000 		.4byte	0xac5
 2157 0987 95090000 		.4byte	0x995
 2158 098b 13       		.uleb128 0x13
 2159 098c 01       		.byte	0x1
 2160 098d 50       		.byte	0x50
 2161 098e 05       		.byte	0x5
 2162 098f 03       		.byte	0x3
 2163 0990 F0000000 		.4byte	.LC8
 2164 0994 00       		.byte	0
 2165 0995 12       		.uleb128 0x12
 2166 0996 90000000 		.4byte	.LVL23
ARM GAS  G:\Users\Jaxb\AppData\Local\Temp\cc9lI2vO.s 			page 45


 2167 099a C50A0000 		.4byte	0xac5
 2168 099e AC090000 		.4byte	0x9ac
 2169 09a2 13       		.uleb128 0x13
 2170 09a3 01       		.byte	0x1
 2171 09a4 50       		.byte	0x50
 2172 09a5 05       		.byte	0x5
 2173 09a6 03       		.byte	0x3
 2174 09a7 0C010000 		.4byte	.LC9
 2175 09ab 00       		.byte	0
 2176 09ac 12       		.uleb128 0x12
 2177 09ad 96000000 		.4byte	.LVL24
 2178 09b1 170C0000 		.4byte	0xc17
 2179 09b5 C0090000 		.4byte	0x9c0
 2180 09b9 13       		.uleb128 0x13
 2181 09ba 01       		.byte	0x1
 2182 09bb 50       		.byte	0x50
 2183 09bc 02       		.byte	0x2
 2184 09bd 74       		.byte	0x74
 2185 09be 00       		.sleb128 0
 2186 09bf 00       		.byte	0
 2187 09c0 16       		.uleb128 0x16
 2188 09c1 AE000000 		.4byte	.LVL28
 2189 09c5 01       		.byte	0x1
 2190 09c6 880B0000 		.4byte	0xb88
 2191 09ca 13       		.uleb128 0x13
 2192 09cb 01       		.byte	0x1
 2193 09cc 50       		.byte	0x50
 2194 09cd 05       		.byte	0x5
 2195 09ce 03       		.byte	0x3
 2196 09cf 2C000000 		.4byte	.LC2
 2197 09d3 13       		.uleb128 0x13
 2198 09d4 01       		.byte	0x1
 2199 09d5 51       		.byte	0x51
 2200 09d6 02       		.byte	0x2
 2201 09d7 08       		.byte	0x8
 2202 09d8 30       		.byte	0x30
 2203 09d9 00       		.byte	0
 2204 09da 00       		.byte	0
 2205 09db 1D       		.uleb128 0x1d
 2206 09dc 01       		.byte	0x1
 2207 09dd AC020000 		.4byte	.LASF63
 2208 09e1 01       		.byte	0x1
 2209 09e2 24       		.byte	0x24
 2210 09e3 01       		.byte	0x1
 2211 09e4 30000000 		.4byte	.LFB18
 2212 09e8 34000000 		.4byte	.LFE18
 2213 09ec 02       		.byte	0x2
 2214 09ed 7D       		.byte	0x7d
 2215 09ee 00       		.sleb128 0
 2216 09ef 01       		.byte	0x1
 2217 09f0 1D0A0000 		.4byte	0xa1d
 2218 09f4 11       		.uleb128 0x11
 2219 09f5 07030000 		.4byte	.LASF47
 2220 09f9 01       		.byte	0x1
 2221 09fa 24       		.byte	0x24
 2222 09fb B8000000 		.4byte	0xb8
 2223 09ff 47070000 		.4byte	.LLST6
ARM GAS  G:\Users\Jaxb\AppData\Local\Temp\cc9lI2vO.s 			page 46


 2224 0a03 11       		.uleb128 0x11
 2225 0a04 B0010000 		.4byte	.LASF41
 2226 0a08 01       		.byte	0x1
 2227 0a09 24       		.byte	0x24
 2228 0a0a 74030000 		.4byte	0x374
 2229 0a0e 68070000 		.4byte	.LLST7
 2230 0a12 14       		.uleb128 0x14
 2231 0a13 34000000 		.4byte	.LVL10
 2232 0a17 01       		.byte	0x1
 2233 0a18 240C0000 		.4byte	0xc24
 2234 0a1c 00       		.byte	0
 2235 0a1d 1D       		.uleb128 0x1d
 2236 0a1e 01       		.byte	0x1
 2237 0a1f 37030000 		.4byte	.LASF64
 2238 0a23 01       		.byte	0x1
 2239 0a24 1D       		.byte	0x1d
 2240 0a25 01       		.byte	0x1
 2241 0a26 24000000 		.4byte	.LFB17
 2242 0a2a 30000000 		.4byte	.LFE17
 2243 0a2e 02       		.byte	0x2
 2244 0a2f 7D       		.byte	0x7d
 2245 0a30 00       		.sleb128 0
 2246 0a31 01       		.byte	0x1
 2247 0a32 690A0000 		.4byte	0xa69
 2248 0a36 11       		.uleb128 0x11
 2249 0a37 07030000 		.4byte	.LASF47
 2250 0a3b 01       		.byte	0x1
 2251 0a3c 1D       		.byte	0x1d
 2252 0a3d B8000000 		.4byte	0xb8
 2253 0a41 89070000 		.4byte	.LLST4
 2254 0a45 11       		.uleb128 0x11
 2255 0a46 B0010000 		.4byte	.LASF41
 2256 0a4a 01       		.byte	0x1
 2257 0a4b 1D       		.byte	0x1d
 2258 0a4c 74030000 		.4byte	0x374
 2259 0a50 AA070000 		.4byte	.LLST5
 2260 0a54 16       		.uleb128 0x16
 2261 0a55 2A000000 		.4byte	.LVL8
 2262 0a59 01       		.byte	0x1
 2263 0a5a C50A0000 		.4byte	0xac5
 2264 0a5e 13       		.uleb128 0x13
 2265 0a5f 01       		.byte	0x1
 2266 0a60 50       		.byte	0x50
 2267 0a61 05       		.byte	0x5
 2268 0a62 03       		.byte	0x3
 2269 0a63 14000000 		.4byte	.LC1
 2270 0a67 00       		.byte	0
 2271 0a68 00       		.byte	0
 2272 0a69 10       		.uleb128 0x10
 2273 0a6a 01       		.byte	0x1
 2274 0a6b 12040000 		.4byte	.LASF65
 2275 0a6f 01       		.byte	0x1
 2276 0a70 13       		.byte	0x13
 2277 0a71 01       		.byte	0x1
 2278 0a72 00000000 		.4byte	.LFB16
 2279 0a76 24000000 		.4byte	.LFE16
 2280 0a7a CB070000 		.4byte	.LLST0
ARM GAS  G:\Users\Jaxb\AppData\Local\Temp\cc9lI2vO.s 			page 47


 2281 0a7e 01       		.byte	0x1
 2282 0a7f C50A0000 		.4byte	0xac5
 2283 0a83 11       		.uleb128 0x11
 2284 0a84 07030000 		.4byte	.LASF47
 2285 0a88 01       		.byte	0x1
 2286 0a89 13       		.byte	0x13
 2287 0a8a B8000000 		.4byte	0xb8
 2288 0a8e EB070000 		.4byte	.LLST1
 2289 0a92 11       		.uleb128 0x11
 2290 0a93 B0010000 		.4byte	.LASF41
 2291 0a97 01       		.byte	0x1
 2292 0a98 13       		.byte	0x13
 2293 0a99 74030000 		.4byte	0x374
 2294 0a9d 17080000 		.4byte	.LLST2
 2295 0aa1 17       		.uleb128 0x17
 2296 0aa2 6900     		.ascii	"i\000"
 2297 0aa4 01       		.byte	0x1
 2298 0aa5 17       		.byte	0x17
 2299 0aa6 B8000000 		.4byte	0xb8
 2300 0aaa 38080000 		.4byte	.LLST3
 2301 0aae 1C       		.uleb128 0x1c
 2302 0aaf 1A000000 		.4byte	.LVL3
 2303 0ab3 C50A0000 		.4byte	0xac5
 2304 0ab7 13       		.uleb128 0x13
 2305 0ab8 01       		.byte	0x1
 2306 0ab9 50       		.byte	0x50
 2307 0aba 02       		.byte	0x2
 2308 0abb 77       		.byte	0x77
 2309 0abc 00       		.sleb128 0
 2310 0abd 13       		.uleb128 0x13
 2311 0abe 01       		.byte	0x1
 2312 0abf 51       		.byte	0x51
 2313 0ac0 02       		.byte	0x2
 2314 0ac1 74       		.byte	0x74
 2315 0ac2 7F       		.sleb128 -1
 2316 0ac3 00       		.byte	0
 2317 0ac4 00       		.byte	0
 2318 0ac5 1F       		.uleb128 0x1f
 2319 0ac6 01       		.byte	0x1
 2320 0ac7 01       		.byte	0x1
 2321 0ac8 6F020000 		.4byte	.LASF66
 2322 0acc 6F020000 		.4byte	.LASF66
 2323 0ad0 07       		.byte	0x7
 2324 0ad1 0C       		.byte	0xc
 2325 0ad2 1F       		.uleb128 0x1f
 2326 0ad3 01       		.byte	0x1
 2327 0ad4 01       		.byte	0x1
 2328 0ad5 2A040000 		.4byte	.LASF67
 2329 0ad9 2A040000 		.4byte	.LASF67
 2330 0add 01       		.byte	0x1
 2331 0ade D4       		.byte	0xd4
 2332 0adf 1F       		.uleb128 0x1f
 2333 0ae0 01       		.byte	0x1
 2334 0ae1 01       		.byte	0x1
 2335 0ae2 85000000 		.4byte	.LASF68
 2336 0ae6 85000000 		.4byte	.LASF68
 2337 0aea 01       		.byte	0x1
ARM GAS  G:\Users\Jaxb\AppData\Local\Temp\cc9lI2vO.s 			page 48


 2338 0aeb C9       		.byte	0xc9
 2339 0aec 1F       		.uleb128 0x1f
 2340 0aed 01       		.byte	0x1
 2341 0aee 01       		.byte	0x1
 2342 0aef E1020000 		.4byte	.LASF69
 2343 0af3 E1020000 		.4byte	.LASF69
 2344 0af7 07       		.byte	0x7
 2345 0af8 17       		.byte	0x17
 2346 0af9 1F       		.uleb128 0x1f
 2347 0afa 01       		.byte	0x1
 2348 0afb 01       		.byte	0x1
 2349 0afc 0D020000 		.4byte	.LASF70
 2350 0b00 0D020000 		.4byte	.LASF70
 2351 0b04 07       		.byte	0x7
 2352 0b05 15       		.byte	0x15
 2353 0b06 1F       		.uleb128 0x1f
 2354 0b07 01       		.byte	0x1
 2355 0b08 01       		.byte	0x1
 2356 0b09 15010000 		.4byte	.LASF71
 2357 0b0d 15010000 		.4byte	.LASF71
 2358 0b11 06       		.byte	0x6
 2359 0b12 13       		.byte	0x13
 2360 0b13 1F       		.uleb128 0x1f
 2361 0b14 01       		.byte	0x1
 2362 0b15 01       		.byte	0x1
 2363 0b16 35020000 		.4byte	.LASF72
 2364 0b1a 35020000 		.4byte	.LASF72
 2365 0b1e 06       		.byte	0x6
 2366 0b1f 14       		.byte	0x14
 2367 0b20 1F       		.uleb128 0x1f
 2368 0b21 01       		.byte	0x1
 2369 0b22 01       		.byte	0x1
 2370 0b23 8D010000 		.4byte	.LASF73
 2371 0b27 8D010000 		.4byte	.LASF73
 2372 0b2b 08       		.byte	0x8
 2373 0b2c 4D       		.byte	0x4d
 2374 0b2d 1F       		.uleb128 0x1f
 2375 0b2e 01       		.byte	0x1
 2376 0b2f 01       		.byte	0x1
 2377 0b30 90040000 		.4byte	.LASF74
 2378 0b34 90040000 		.4byte	.LASF74
 2379 0b38 06       		.byte	0x6
 2380 0b39 15       		.byte	0x15
 2381 0b3a 1F       		.uleb128 0x1f
 2382 0b3b 01       		.byte	0x1
 2383 0b3c 01       		.byte	0x1
 2384 0b3d A3050000 		.4byte	.LASF75
 2385 0b41 A3050000 		.4byte	.LASF75
 2386 0b45 01       		.byte	0x1
 2387 0b46 8E       		.byte	0x8e
 2388 0b47 1F       		.uleb128 0x1f
 2389 0b48 01       		.byte	0x1
 2390 0b49 01       		.byte	0x1
 2391 0b4a 8B020000 		.4byte	.LASF76
 2392 0b4e 8B020000 		.4byte	.LASF76
 2393 0b52 08       		.byte	0x8
 2394 0b53 4C       		.byte	0x4c
ARM GAS  G:\Users\Jaxb\AppData\Local\Temp\cc9lI2vO.s 			page 49


 2395 0b54 1F       		.uleb128 0x1f
 2396 0b55 01       		.byte	0x1
 2397 0b56 01       		.byte	0x1
 2398 0b57 E9050000 		.4byte	.LASF77
 2399 0b5b E9050000 		.4byte	.LASF77
 2400 0b5f 08       		.byte	0x8
 2401 0b60 4B       		.byte	0x4b
 2402 0b61 1F       		.uleb128 0x1f
 2403 0b62 01       		.byte	0x1
 2404 0b63 01       		.byte	0x1
 2405 0b64 B5010000 		.4byte	.LASF78
 2406 0b68 B5010000 		.4byte	.LASF78
 2407 0b6c 07       		.byte	0x7
 2408 0b6d 16       		.byte	0x16
 2409 0b6e 1F       		.uleb128 0x1f
 2410 0b6f 01       		.byte	0x1
 2411 0b70 01       		.byte	0x1
 2412 0b71 79020000 		.4byte	.LASF79
 2413 0b75 79020000 		.4byte	.LASF79
 2414 0b79 05       		.byte	0x5
 2415 0b7a 49       		.byte	0x49
 2416 0b7b 1F       		.uleb128 0x1f
 2417 0b7c 01       		.byte	0x1
 2418 0b7d 01       		.byte	0x1
 2419 0b7e 65000000 		.4byte	.LASF80
 2420 0b82 65000000 		.4byte	.LASF80
 2421 0b86 01       		.byte	0x1
 2422 0b87 8F       		.byte	0x8f
 2423 0b88 1F       		.uleb128 0x1f
 2424 0b89 01       		.byte	0x1
 2425 0b8a 01       		.byte	0x1
 2426 0b8b 0C030000 		.4byte	.LASF81
 2427 0b8f 0C030000 		.4byte	.LASF81
 2428 0b93 09       		.byte	0x9
 2429 0b94 06       		.byte	0x6
 2430 0b95 1F       		.uleb128 0x1f
 2431 0b96 01       		.byte	0x1
 2432 0b97 01       		.byte	0x1
 2433 0b98 1B000000 		.4byte	.LASF82
 2434 0b9c 1B000000 		.4byte	.LASF82
 2435 0ba0 01       		.byte	0x1
 2436 0ba1 86       		.byte	0x86
 2437 0ba2 1F       		.uleb128 0x1f
 2438 0ba3 01       		.byte	0x1
 2439 0ba4 01       		.byte	0x1
 2440 0ba5 CC020000 		.4byte	.LASF83
 2441 0ba9 CC020000 		.4byte	.LASF83
 2442 0bad 0A       		.byte	0xa
 2443 0bae 16       		.byte	0x16
 2444 0baf 1F       		.uleb128 0x1f
 2445 0bb0 01       		.byte	0x1
 2446 0bb1 01       		.byte	0x1
 2447 0bb2 D2040000 		.4byte	.LASF84
 2448 0bb6 D2040000 		.4byte	.LASF84
 2449 0bba 0B       		.byte	0xb
 2450 0bbb 0A       		.byte	0xa
 2451 0bbc 1F       		.uleb128 0x1f
ARM GAS  G:\Users\Jaxb\AppData\Local\Temp\cc9lI2vO.s 			page 50


 2452 0bbd 01       		.byte	0x1
 2453 0bbe 01       		.byte	0x1
 2454 0bbf F1000000 		.4byte	.LASF85
 2455 0bc3 F1000000 		.4byte	.LASF85
 2456 0bc7 0C       		.byte	0xc
 2457 0bc8 0C       		.byte	0xc
 2458 0bc9 1F       		.uleb128 0x1f
 2459 0bca 01       		.byte	0x1
 2460 0bcb 01       		.byte	0x1
 2461 0bcc 68010000 		.4byte	.LASF86
 2462 0bd0 68010000 		.4byte	.LASF86
 2463 0bd4 03       		.byte	0x3
 2464 0bd5 2E       		.byte	0x2e
 2465 0bd6 1F       		.uleb128 0x1f
 2466 0bd7 01       		.byte	0x1
 2467 0bd8 01       		.byte	0x1
 2468 0bd9 5A020000 		.4byte	.LASF87
 2469 0bdd 5A020000 		.4byte	.LASF87
 2470 0be1 03       		.byte	0x3
 2471 0be2 2B       		.byte	0x2b
 2472 0be3 1F       		.uleb128 0x1f
 2473 0be4 01       		.byte	0x1
 2474 0be5 01       		.byte	0x1
 2475 0be6 27020000 		.4byte	.LASF88
 2476 0bea 27020000 		.4byte	.LASF88
 2477 0bee 03       		.byte	0x3
 2478 0bef 2C       		.byte	0x2c
 2479 0bf0 1F       		.uleb128 0x1f
 2480 0bf1 01       		.byte	0x1
 2481 0bf2 01       		.byte	0x1
 2482 0bf3 F7020000 		.4byte	.LASF89
 2483 0bf7 F7020000 		.4byte	.LASF89
 2484 0bfb 03       		.byte	0x3
 2485 0bfc 2A       		.byte	0x2a
 2486 0bfd 1F       		.uleb128 0x1f
 2487 0bfe 01       		.byte	0x1
 2488 0bff 01       		.byte	0x1
 2489 0c00 E7040000 		.4byte	.LASF90
 2490 0c04 E7040000 		.4byte	.LASF90
 2491 0c08 05       		.byte	0x5
 2492 0c09 5F       		.byte	0x5f
 2493 0c0a 1F       		.uleb128 0x1f
 2494 0c0b 01       		.byte	0x1
 2495 0c0c 01       		.byte	0x1
 2496 0c0d 35010000 		.4byte	.LASF91
 2497 0c11 35010000 		.4byte	.LASF91
 2498 0c15 05       		.byte	0x5
 2499 0c16 61       		.byte	0x61
 2500 0c17 1F       		.uleb128 0x1f
 2501 0c18 01       		.byte	0x1
 2502 0c19 01       		.byte	0x1
 2503 0c1a 47000000 		.4byte	.LASF92
 2504 0c1e 47000000 		.4byte	.LASF92
 2505 0c22 05       		.byte	0x5
 2506 0c23 60       		.byte	0x60
 2507 0c24 1F       		.uleb128 0x1f
 2508 0c25 01       		.byte	0x1
ARM GAS  G:\Users\Jaxb\AppData\Local\Temp\cc9lI2vO.s 			page 51


 2509 0c26 01       		.byte	0x1
 2510 0c27 E0030000 		.4byte	.LASF93
 2511 0c2b E0030000 		.4byte	.LASF93
 2512 0c2f 0D       		.byte	0xd
 2513 0c30 1F       		.byte	0x1f
 2514 0c31 00       		.byte	0
 2515              		.section	.debug_abbrev,"",%progbits
 2516              	.Ldebug_abbrev0:
 2517 0000 01       		.uleb128 0x1
 2518 0001 11       		.uleb128 0x11
 2519 0002 01       		.byte	0x1
 2520 0003 25       		.uleb128 0x25
 2521 0004 0E       		.uleb128 0xe
 2522 0005 13       		.uleb128 0x13
 2523 0006 0B       		.uleb128 0xb
 2524 0007 03       		.uleb128 0x3
 2525 0008 0E       		.uleb128 0xe
 2526 0009 1B       		.uleb128 0x1b
 2527 000a 0E       		.uleb128 0xe
 2528 000b 11       		.uleb128 0x11
 2529 000c 01       		.uleb128 0x1
 2530 000d 12       		.uleb128 0x12
 2531 000e 01       		.uleb128 0x1
 2532 000f 10       		.uleb128 0x10
 2533 0010 06       		.uleb128 0x6
 2534 0011 00       		.byte	0
 2535 0012 00       		.byte	0
 2536 0013 02       		.uleb128 0x2
 2537 0014 13       		.uleb128 0x13
 2538 0015 01       		.byte	0x1
 2539 0016 03       		.uleb128 0x3
 2540 0017 0E       		.uleb128 0xe
 2541 0018 0B       		.uleb128 0xb
 2542 0019 0B       		.uleb128 0xb
 2543 001a 3A       		.uleb128 0x3a
 2544 001b 0B       		.uleb128 0xb
 2545 001c 3B       		.uleb128 0x3b
 2546 001d 0B       		.uleb128 0xb
 2547 001e 01       		.uleb128 0x1
 2548 001f 13       		.uleb128 0x13
 2549 0020 00       		.byte	0
 2550 0021 00       		.byte	0
 2551 0022 03       		.uleb128 0x3
 2552 0023 0D       		.uleb128 0xd
 2553 0024 00       		.byte	0
 2554 0025 03       		.uleb128 0x3
 2555 0026 0E       		.uleb128 0xe
 2556 0027 3A       		.uleb128 0x3a
 2557 0028 0B       		.uleb128 0xb
 2558 0029 3B       		.uleb128 0x3b
 2559 002a 0B       		.uleb128 0xb
 2560 002b 49       		.uleb128 0x49
 2561 002c 13       		.uleb128 0x13
 2562 002d 38       		.uleb128 0x38
 2563 002e 0A       		.uleb128 0xa
 2564 002f 00       		.byte	0
 2565 0030 00       		.byte	0
ARM GAS  G:\Users\Jaxb\AppData\Local\Temp\cc9lI2vO.s 			page 52


 2566 0031 04       		.uleb128 0x4
 2567 0032 0F       		.uleb128 0xf
 2568 0033 00       		.byte	0
 2569 0034 0B       		.uleb128 0xb
 2570 0035 0B       		.uleb128 0xb
 2571 0036 49       		.uleb128 0x49
 2572 0037 13       		.uleb128 0x13
 2573 0038 00       		.byte	0
 2574 0039 00       		.byte	0
 2575 003a 05       		.uleb128 0x5
 2576 003b 16       		.uleb128 0x16
 2577 003c 00       		.byte	0
 2578 003d 03       		.uleb128 0x3
 2579 003e 0E       		.uleb128 0xe
 2580 003f 3A       		.uleb128 0x3a
 2581 0040 0B       		.uleb128 0xb
 2582 0041 3B       		.uleb128 0x3b
 2583 0042 0B       		.uleb128 0xb
 2584 0043 49       		.uleb128 0x49
 2585 0044 13       		.uleb128 0x13
 2586 0045 00       		.byte	0
 2587 0046 00       		.byte	0
 2588 0047 06       		.uleb128 0x6
 2589 0048 24       		.uleb128 0x24
 2590 0049 00       		.byte	0
 2591 004a 0B       		.uleb128 0xb
 2592 004b 0B       		.uleb128 0xb
 2593 004c 3E       		.uleb128 0x3e
 2594 004d 0B       		.uleb128 0xb
 2595 004e 03       		.uleb128 0x3
 2596 004f 0E       		.uleb128 0xe
 2597 0050 00       		.byte	0
 2598 0051 00       		.byte	0
 2599 0052 07       		.uleb128 0x7
 2600 0053 26       		.uleb128 0x26
 2601 0054 00       		.byte	0
 2602 0055 49       		.uleb128 0x49
 2603 0056 13       		.uleb128 0x13
 2604 0057 00       		.byte	0
 2605 0058 00       		.byte	0
 2606 0059 08       		.uleb128 0x8
 2607 005a 0F       		.uleb128 0xf
 2608 005b 00       		.byte	0
 2609 005c 0B       		.uleb128 0xb
 2610 005d 0B       		.uleb128 0xb
 2611 005e 00       		.byte	0
 2612 005f 00       		.byte	0
 2613 0060 09       		.uleb128 0x9
 2614 0061 24       		.uleb128 0x24
 2615 0062 00       		.byte	0
 2616 0063 0B       		.uleb128 0xb
 2617 0064 0B       		.uleb128 0xb
 2618 0065 3E       		.uleb128 0x3e
 2619 0066 0B       		.uleb128 0xb
 2620 0067 03       		.uleb128 0x3
 2621 0068 08       		.uleb128 0x8
 2622 0069 00       		.byte	0
ARM GAS  G:\Users\Jaxb\AppData\Local\Temp\cc9lI2vO.s 			page 53


 2623 006a 00       		.byte	0
 2624 006b 0A       		.uleb128 0xa
 2625 006c 35       		.uleb128 0x35
 2626 006d 00       		.byte	0
 2627 006e 49       		.uleb128 0x49
 2628 006f 13       		.uleb128 0x13
 2629 0070 00       		.byte	0
 2630 0071 00       		.byte	0
 2631 0072 0B       		.uleb128 0xb
 2632 0073 13       		.uleb128 0x13
 2633 0074 01       		.byte	0x1
 2634 0075 0B       		.uleb128 0xb
 2635 0076 05       		.uleb128 0x5
 2636 0077 3A       		.uleb128 0x3a
 2637 0078 0B       		.uleb128 0xb
 2638 0079 3B       		.uleb128 0x3b
 2639 007a 0B       		.uleb128 0xb
 2640 007b 01       		.uleb128 0x1
 2641 007c 13       		.uleb128 0x13
 2642 007d 00       		.byte	0
 2643 007e 00       		.byte	0
 2644 007f 0C       		.uleb128 0xc
 2645 0080 0D       		.uleb128 0xd
 2646 0081 00       		.byte	0
 2647 0082 03       		.uleb128 0x3
 2648 0083 08       		.uleb128 0x8
 2649 0084 3A       		.uleb128 0x3a
 2650 0085 0B       		.uleb128 0xb
 2651 0086 3B       		.uleb128 0x3b
 2652 0087 0B       		.uleb128 0xb
 2653 0088 49       		.uleb128 0x49
 2654 0089 13       		.uleb128 0x13
 2655 008a 38       		.uleb128 0x38
 2656 008b 0A       		.uleb128 0xa
 2657 008c 00       		.byte	0
 2658 008d 00       		.byte	0
 2659 008e 0D       		.uleb128 0xd
 2660 008f 01       		.uleb128 0x1
 2661 0090 01       		.byte	0x1
 2662 0091 49       		.uleb128 0x49
 2663 0092 13       		.uleb128 0x13
 2664 0093 01       		.uleb128 0x1
 2665 0094 13       		.uleb128 0x13
 2666 0095 00       		.byte	0
 2667 0096 00       		.byte	0
 2668 0097 0E       		.uleb128 0xe
 2669 0098 21       		.uleb128 0x21
 2670 0099 00       		.byte	0
 2671 009a 49       		.uleb128 0x49
 2672 009b 13       		.uleb128 0x13
 2673 009c 2F       		.uleb128 0x2f
 2674 009d 0B       		.uleb128 0xb
 2675 009e 00       		.byte	0
 2676 009f 00       		.byte	0
 2677 00a0 0F       		.uleb128 0xf
 2678 00a1 34       		.uleb128 0x34
 2679 00a2 00       		.byte	0
ARM GAS  G:\Users\Jaxb\AppData\Local\Temp\cc9lI2vO.s 			page 54


 2680 00a3 03       		.uleb128 0x3
 2681 00a4 0E       		.uleb128 0xe
 2682 00a5 3A       		.uleb128 0x3a
 2683 00a6 0B       		.uleb128 0xb
 2684 00a7 3B       		.uleb128 0x3b
 2685 00a8 0B       		.uleb128 0xb
 2686 00a9 49       		.uleb128 0x49
 2687 00aa 13       		.uleb128 0x13
 2688 00ab 3F       		.uleb128 0x3f
 2689 00ac 0C       		.uleb128 0xc
 2690 00ad 3C       		.uleb128 0x3c
 2691 00ae 0C       		.uleb128 0xc
 2692 00af 00       		.byte	0
 2693 00b0 00       		.byte	0
 2694 00b1 10       		.uleb128 0x10
 2695 00b2 2E       		.uleb128 0x2e
 2696 00b3 01       		.byte	0x1
 2697 00b4 3F       		.uleb128 0x3f
 2698 00b5 0C       		.uleb128 0xc
 2699 00b6 03       		.uleb128 0x3
 2700 00b7 0E       		.uleb128 0xe
 2701 00b8 3A       		.uleb128 0x3a
 2702 00b9 0B       		.uleb128 0xb
 2703 00ba 3B       		.uleb128 0x3b
 2704 00bb 0B       		.uleb128 0xb
 2705 00bc 27       		.uleb128 0x27
 2706 00bd 0C       		.uleb128 0xc
 2707 00be 11       		.uleb128 0x11
 2708 00bf 01       		.uleb128 0x1
 2709 00c0 12       		.uleb128 0x12
 2710 00c1 01       		.uleb128 0x1
 2711 00c2 40       		.uleb128 0x40
 2712 00c3 06       		.uleb128 0x6
 2713 00c4 9742     		.uleb128 0x2117
 2714 00c6 0C       		.uleb128 0xc
 2715 00c7 01       		.uleb128 0x1
 2716 00c8 13       		.uleb128 0x13
 2717 00c9 00       		.byte	0
 2718 00ca 00       		.byte	0
 2719 00cb 11       		.uleb128 0x11
 2720 00cc 05       		.uleb128 0x5
 2721 00cd 00       		.byte	0
 2722 00ce 03       		.uleb128 0x3
 2723 00cf 0E       		.uleb128 0xe
 2724 00d0 3A       		.uleb128 0x3a
 2725 00d1 0B       		.uleb128 0xb
 2726 00d2 3B       		.uleb128 0x3b
 2727 00d3 0B       		.uleb128 0xb
 2728 00d4 49       		.uleb128 0x49
 2729 00d5 13       		.uleb128 0x13
 2730 00d6 02       		.uleb128 0x2
 2731 00d7 06       		.uleb128 0x6
 2732 00d8 00       		.byte	0
 2733 00d9 00       		.byte	0
 2734 00da 12       		.uleb128 0x12
 2735 00db 898201   		.uleb128 0x4109
 2736 00de 01       		.byte	0x1
ARM GAS  G:\Users\Jaxb\AppData\Local\Temp\cc9lI2vO.s 			page 55


 2737 00df 11       		.uleb128 0x11
 2738 00e0 01       		.uleb128 0x1
 2739 00e1 31       		.uleb128 0x31
 2740 00e2 13       		.uleb128 0x13
 2741 00e3 01       		.uleb128 0x1
 2742 00e4 13       		.uleb128 0x13
 2743 00e5 00       		.byte	0
 2744 00e6 00       		.byte	0
 2745 00e7 13       		.uleb128 0x13
 2746 00e8 8A8201   		.uleb128 0x410a
 2747 00eb 00       		.byte	0
 2748 00ec 02       		.uleb128 0x2
 2749 00ed 0A       		.uleb128 0xa
 2750 00ee 9142     		.uleb128 0x2111
 2751 00f0 0A       		.uleb128 0xa
 2752 00f1 00       		.byte	0
 2753 00f2 00       		.byte	0
 2754 00f3 14       		.uleb128 0x14
 2755 00f4 898201   		.uleb128 0x4109
 2756 00f7 00       		.byte	0
 2757 00f8 11       		.uleb128 0x11
 2758 00f9 01       		.uleb128 0x1
 2759 00fa 9542     		.uleb128 0x2115
 2760 00fc 0C       		.uleb128 0xc
 2761 00fd 31       		.uleb128 0x31
 2762 00fe 13       		.uleb128 0x13
 2763 00ff 00       		.byte	0
 2764 0100 00       		.byte	0
 2765 0101 15       		.uleb128 0x15
 2766 0102 898201   		.uleb128 0x4109
 2767 0105 00       		.byte	0
 2768 0106 11       		.uleb128 0x11
 2769 0107 01       		.uleb128 0x1
 2770 0108 31       		.uleb128 0x31
 2771 0109 13       		.uleb128 0x13
 2772 010a 00       		.byte	0
 2773 010b 00       		.byte	0
 2774 010c 16       		.uleb128 0x16
 2775 010d 898201   		.uleb128 0x4109
 2776 0110 01       		.byte	0x1
 2777 0111 11       		.uleb128 0x11
 2778 0112 01       		.uleb128 0x1
 2779 0113 9542     		.uleb128 0x2115
 2780 0115 0C       		.uleb128 0xc
 2781 0116 31       		.uleb128 0x31
 2782 0117 13       		.uleb128 0x13
 2783 0118 00       		.byte	0
 2784 0119 00       		.byte	0
 2785 011a 17       		.uleb128 0x17
 2786 011b 34       		.uleb128 0x34
 2787 011c 00       		.byte	0
 2788 011d 03       		.uleb128 0x3
 2789 011e 08       		.uleb128 0x8
 2790 011f 3A       		.uleb128 0x3a
 2791 0120 0B       		.uleb128 0xb
 2792 0121 3B       		.uleb128 0x3b
 2793 0122 0B       		.uleb128 0xb
ARM GAS  G:\Users\Jaxb\AppData\Local\Temp\cc9lI2vO.s 			page 56


 2794 0123 49       		.uleb128 0x49
 2795 0124 13       		.uleb128 0x13
 2796 0125 02       		.uleb128 0x2
 2797 0126 06       		.uleb128 0x6
 2798 0127 00       		.byte	0
 2799 0128 00       		.byte	0
 2800 0129 18       		.uleb128 0x18
 2801 012a 34       		.uleb128 0x34
 2802 012b 00       		.byte	0
 2803 012c 03       		.uleb128 0x3
 2804 012d 0E       		.uleb128 0xe
 2805 012e 3A       		.uleb128 0x3a
 2806 012f 0B       		.uleb128 0xb
 2807 0130 3B       		.uleb128 0x3b
 2808 0131 0B       		.uleb128 0xb
 2809 0132 49       		.uleb128 0x49
 2810 0133 13       		.uleb128 0x13
 2811 0134 02       		.uleb128 0x2
 2812 0135 06       		.uleb128 0x6
 2813 0136 00       		.byte	0
 2814 0137 00       		.byte	0
 2815 0138 19       		.uleb128 0x19
 2816 0139 34       		.uleb128 0x34
 2817 013a 00       		.byte	0
 2818 013b 03       		.uleb128 0x3
 2819 013c 0E       		.uleb128 0xe
 2820 013d 3A       		.uleb128 0x3a
 2821 013e 0B       		.uleb128 0xb
 2822 013f 3B       		.uleb128 0x3b
 2823 0140 0B       		.uleb128 0xb
 2824 0141 49       		.uleb128 0x49
 2825 0142 13       		.uleb128 0x13
 2826 0143 02       		.uleb128 0x2
 2827 0144 0A       		.uleb128 0xa
 2828 0145 00       		.byte	0
 2829 0146 00       		.byte	0
 2830 0147 1A       		.uleb128 0x1a
 2831 0148 0A       		.uleb128 0xa
 2832 0149 00       		.byte	0
 2833 014a 03       		.uleb128 0x3
 2834 014b 08       		.uleb128 0x8
 2835 014c 3A       		.uleb128 0x3a
 2836 014d 0B       		.uleb128 0xb
 2837 014e 3B       		.uleb128 0x3b
 2838 014f 0B       		.uleb128 0xb
 2839 0150 11       		.uleb128 0x11
 2840 0151 01       		.uleb128 0x1
 2841 0152 00       		.byte	0
 2842 0153 00       		.byte	0
 2843 0154 1B       		.uleb128 0x1b
 2844 0155 0A       		.uleb128 0xa
 2845 0156 00       		.byte	0
 2846 0157 03       		.uleb128 0x3
 2847 0158 0E       		.uleb128 0xe
 2848 0159 3A       		.uleb128 0x3a
 2849 015a 0B       		.uleb128 0xb
 2850 015b 3B       		.uleb128 0x3b
ARM GAS  G:\Users\Jaxb\AppData\Local\Temp\cc9lI2vO.s 			page 57


 2851 015c 0B       		.uleb128 0xb
 2852 015d 11       		.uleb128 0x11
 2853 015e 01       		.uleb128 0x1
 2854 015f 00       		.byte	0
 2855 0160 00       		.byte	0
 2856 0161 1C       		.uleb128 0x1c
 2857 0162 898201   		.uleb128 0x4109
 2858 0165 01       		.byte	0x1
 2859 0166 11       		.uleb128 0x11
 2860 0167 01       		.uleb128 0x1
 2861 0168 31       		.uleb128 0x31
 2862 0169 13       		.uleb128 0x13
 2863 016a 00       		.byte	0
 2864 016b 00       		.byte	0
 2865 016c 1D       		.uleb128 0x1d
 2866 016d 2E       		.uleb128 0x2e
 2867 016e 01       		.byte	0x1
 2868 016f 3F       		.uleb128 0x3f
 2869 0170 0C       		.uleb128 0xc
 2870 0171 03       		.uleb128 0x3
 2871 0172 0E       		.uleb128 0xe
 2872 0173 3A       		.uleb128 0x3a
 2873 0174 0B       		.uleb128 0xb
 2874 0175 3B       		.uleb128 0x3b
 2875 0176 0B       		.uleb128 0xb
 2876 0177 27       		.uleb128 0x27
 2877 0178 0C       		.uleb128 0xc
 2878 0179 11       		.uleb128 0x11
 2879 017a 01       		.uleb128 0x1
 2880 017b 12       		.uleb128 0x12
 2881 017c 01       		.uleb128 0x1
 2882 017d 40       		.uleb128 0x40
 2883 017e 0A       		.uleb128 0xa
 2884 017f 9742     		.uleb128 0x2117
 2885 0181 0C       		.uleb128 0xc
 2886 0182 01       		.uleb128 0x1
 2887 0183 13       		.uleb128 0x13
 2888 0184 00       		.byte	0
 2889 0185 00       		.byte	0
 2890 0186 1E       		.uleb128 0x1e
 2891 0187 898201   		.uleb128 0x4109
 2892 018a 01       		.byte	0x1
 2893 018b 11       		.uleb128 0x11
 2894 018c 01       		.uleb128 0x1
 2895 018d 9542     		.uleb128 0x2115
 2896 018f 0C       		.uleb128 0xc
 2897 0190 31       		.uleb128 0x31
 2898 0191 13       		.uleb128 0x13
 2899 0192 01       		.uleb128 0x1
 2900 0193 13       		.uleb128 0x13
 2901 0194 00       		.byte	0
 2902 0195 00       		.byte	0
 2903 0196 1F       		.uleb128 0x1f
 2904 0197 2E       		.uleb128 0x2e
 2905 0198 00       		.byte	0
 2906 0199 3F       		.uleb128 0x3f
 2907 019a 0C       		.uleb128 0xc
ARM GAS  G:\Users\Jaxb\AppData\Local\Temp\cc9lI2vO.s 			page 58


 2908 019b 3C       		.uleb128 0x3c
 2909 019c 0C       		.uleb128 0xc
 2910 019d 8740     		.uleb128 0x2007
 2911 019f 0E       		.uleb128 0xe
 2912 01a0 03       		.uleb128 0x3
 2913 01a1 0E       		.uleb128 0xe
 2914 01a2 3A       		.uleb128 0x3a
 2915 01a3 0B       		.uleb128 0xb
 2916 01a4 3B       		.uleb128 0x3b
 2917 01a5 0B       		.uleb128 0xb
 2918 01a6 00       		.byte	0
 2919 01a7 00       		.byte	0
 2920 01a8 00       		.byte	0
 2921              		.section	.debug_loc,"",%progbits
 2922              	.Ldebug_loc0:
 2923              	.LLST43:
 2924 0000 90020000 		.4byte	.LFB28-.Ltext0
 2925 0004 92020000 		.4byte	.LCFI34-.Ltext0
 2926 0008 0200     		.2byte	0x2
 2927 000a 7D       		.byte	0x7d
 2928 000b 00       		.sleb128 0
 2929 000c 92020000 		.4byte	.LCFI34-.Ltext0
 2930 0010 9C020000 		.4byte	.LCFI35-.Ltext0
 2931 0014 0200     		.2byte	0x2
 2932 0016 7D       		.byte	0x7d
 2933 0017 08       		.sleb128 8
 2934 0018 9C020000 		.4byte	.LCFI35-.Ltext0
 2935 001c A4020000 		.4byte	.LFE28-.Ltext0
 2936 0020 0200     		.2byte	0x2
 2937 0022 7D       		.byte	0x7d
 2938 0023 00       		.sleb128 0
 2939 0024 00000000 		.4byte	0
 2940 0028 00000000 		.4byte	0
 2941              	.LLST44:
 2942 002c 90020000 		.4byte	.LVL105-.Ltext0
 2943 0030 94020000 		.4byte	.LVL106-.Ltext0
 2944 0034 0100     		.2byte	0x1
 2945 0036 50       		.byte	0x50
 2946 0037 94020000 		.4byte	.LVL106-.Ltext0
 2947 003b A4020000 		.4byte	.LFE28-.Ltext0
 2948 003f 0400     		.2byte	0x4
 2949 0041 F3       		.byte	0xf3
 2950 0042 01       		.uleb128 0x1
 2951 0043 50       		.byte	0x50
 2952 0044 9F       		.byte	0x9f
 2953 0045 00000000 		.4byte	0
 2954 0049 00000000 		.4byte	0
 2955              	.LLST45:
 2956 004d 90020000 		.4byte	.LVL105-.Ltext0
 2957 0051 97020000 		.4byte	.LVL107-1-.Ltext0
 2958 0055 0100     		.2byte	0x1
 2959 0057 51       		.byte	0x51
 2960 0058 97020000 		.4byte	.LVL107-1-.Ltext0
 2961 005c A4020000 		.4byte	.LFE28-.Ltext0
 2962 0060 0400     		.2byte	0x4
 2963 0062 F3       		.byte	0xf3
 2964 0063 01       		.uleb128 0x1
ARM GAS  G:\Users\Jaxb\AppData\Local\Temp\cc9lI2vO.s 			page 59


 2965 0064 51       		.byte	0x51
 2966 0065 9F       		.byte	0x9f
 2967 0066 00000000 		.4byte	0
 2968 006a 00000000 		.4byte	0
 2969              	.LLST40:
 2970 006e 70020000 		.4byte	.LFB27-.Ltext0
 2971 0072 72020000 		.4byte	.LCFI32-.Ltext0
 2972 0076 0200     		.2byte	0x2
 2973 0078 7D       		.byte	0x7d
 2974 0079 00       		.sleb128 0
 2975 007a 72020000 		.4byte	.LCFI32-.Ltext0
 2976 007e 80020000 		.4byte	.LCFI33-.Ltext0
 2977 0082 0200     		.2byte	0x2
 2978 0084 7D       		.byte	0x7d
 2979 0085 08       		.sleb128 8
 2980 0086 80020000 		.4byte	.LCFI33-.Ltext0
 2981 008a 90020000 		.4byte	.LFE27-.Ltext0
 2982 008e 0200     		.2byte	0x2
 2983 0090 7D       		.byte	0x7d
 2984 0091 00       		.sleb128 0
 2985 0092 00000000 		.4byte	0
 2986 0096 00000000 		.4byte	0
 2987              	.LLST41:
 2988 009a 70020000 		.4byte	.LVL100-.Ltext0
 2989 009e 74020000 		.4byte	.LVL101-.Ltext0
 2990 00a2 0100     		.2byte	0x1
 2991 00a4 50       		.byte	0x50
 2992 00a5 74020000 		.4byte	.LVL101-.Ltext0
 2993 00a9 90020000 		.4byte	.LFE27-.Ltext0
 2994 00ad 0400     		.2byte	0x4
 2995 00af F3       		.byte	0xf3
 2996 00b0 01       		.uleb128 0x1
 2997 00b1 50       		.byte	0x50
 2998 00b2 9F       		.byte	0x9f
 2999 00b3 00000000 		.4byte	0
 3000 00b7 00000000 		.4byte	0
 3001              	.LLST42:
 3002 00bb 70020000 		.4byte	.LVL100-.Ltext0
 3003 00bf 77020000 		.4byte	.LVL102-1-.Ltext0
 3004 00c3 0100     		.2byte	0x1
 3005 00c5 51       		.byte	0x51
 3006 00c6 77020000 		.4byte	.LVL102-1-.Ltext0
 3007 00ca 90020000 		.4byte	.LFE27-.Ltext0
 3008 00ce 0400     		.2byte	0x4
 3009 00d0 F3       		.byte	0xf3
 3010 00d1 01       		.uleb128 0x1
 3011 00d2 51       		.byte	0x51
 3012 00d3 9F       		.byte	0x9f
 3013 00d4 00000000 		.4byte	0
 3014 00d8 00000000 		.4byte	0
 3015              	.LLST34:
 3016 00dc A0010000 		.4byte	.LFB26-.Ltext0
 3017 00e0 A2010000 		.4byte	.LCFI24-.Ltext0
 3018 00e4 0200     		.2byte	0x2
 3019 00e6 7D       		.byte	0x7d
 3020 00e7 00       		.sleb128 0
 3021 00e8 A2010000 		.4byte	.LCFI24-.Ltext0
ARM GAS  G:\Users\Jaxb\AppData\Local\Temp\cc9lI2vO.s 			page 60


 3022 00ec A6010000 		.4byte	.LCFI25-.Ltext0
 3023 00f0 0200     		.2byte	0x2
 3024 00f2 7D       		.byte	0x7d
 3025 00f3 0C       		.sleb128 12
 3026 00f4 A6010000 		.4byte	.LCFI25-.Ltext0
 3027 00f8 0A020000 		.4byte	.LCFI26-.Ltext0
 3028 00fc 0300     		.2byte	0x3
 3029 00fe 7D       		.byte	0x7d
 3030 00ff F000     		.sleb128 112
 3031 0101 0A020000 		.4byte	.LCFI26-.Ltext0
 3032 0105 0C020000 		.4byte	.LCFI27-.Ltext0
 3033 0109 0200     		.2byte	0x2
 3034 010b 7D       		.byte	0x7d
 3035 010c 0C       		.sleb128 12
 3036 010d 0C020000 		.4byte	.LCFI27-.Ltext0
 3037 0111 1A020000 		.4byte	.LCFI28-.Ltext0
 3038 0115 0300     		.2byte	0x3
 3039 0117 7D       		.byte	0x7d
 3040 0118 F000     		.sleb128 112
 3041 011a 1A020000 		.4byte	.LCFI28-.Ltext0
 3042 011e 1C020000 		.4byte	.LCFI29-.Ltext0
 3043 0122 0200     		.2byte	0x2
 3044 0124 7D       		.byte	0x7d
 3045 0125 0C       		.sleb128 12
 3046 0126 1C020000 		.4byte	.LCFI29-.Ltext0
 3047 012a 42020000 		.4byte	.LCFI30-.Ltext0
 3048 012e 0300     		.2byte	0x3
 3049 0130 7D       		.byte	0x7d
 3050 0131 F000     		.sleb128 112
 3051 0133 42020000 		.4byte	.LCFI30-.Ltext0
 3052 0137 44020000 		.4byte	.LCFI31-.Ltext0
 3053 013b 0200     		.2byte	0x2
 3054 013d 7D       		.byte	0x7d
 3055 013e 0C       		.sleb128 12
 3056 013f 44020000 		.4byte	.LCFI31-.Ltext0
 3057 0143 70020000 		.4byte	.LFE26-.Ltext0
 3058 0147 0300     		.2byte	0x3
 3059 0149 7D       		.byte	0x7d
 3060 014a F000     		.sleb128 112
 3061 014c 00000000 		.4byte	0
 3062 0150 00000000 		.4byte	0
 3063              	.LLST35:
 3064 0154 A0010000 		.4byte	.LVL66-.Ltext0
 3065 0158 AA010000 		.4byte	.LVL67-.Ltext0
 3066 015c 0100     		.2byte	0x1
 3067 015e 50       		.byte	0x50
 3068 015f AA010000 		.4byte	.LVL67-.Ltext0
 3069 0163 1C020000 		.4byte	.LVL90-.Ltext0
 3070 0167 0400     		.2byte	0x4
 3071 0169 F3       		.byte	0xf3
 3072 016a 01       		.uleb128 0x1
 3073 016b 50       		.byte	0x50
 3074 016c 9F       		.byte	0x9f
 3075 016d 1C020000 		.4byte	.LVL90-.Ltext0
 3076 0171 1F020000 		.4byte	.LVL91-1-.Ltext0
 3077 0175 0100     		.2byte	0x1
 3078 0177 50       		.byte	0x50
ARM GAS  G:\Users\Jaxb\AppData\Local\Temp\cc9lI2vO.s 			page 61


 3079 0178 1F020000 		.4byte	.LVL91-1-.Ltext0
 3080 017c 70020000 		.4byte	.LFE26-.Ltext0
 3081 0180 0400     		.2byte	0x4
 3082 0182 F3       		.byte	0xf3
 3083 0183 01       		.uleb128 0x1
 3084 0184 50       		.byte	0x50
 3085 0185 9F       		.byte	0x9f
 3086 0186 00000000 		.4byte	0
 3087 018a 00000000 		.4byte	0
 3088              	.LLST36:
 3089 018e A0010000 		.4byte	.LVL66-.Ltext0
 3090 0192 AD010000 		.4byte	.LVL68-1-.Ltext0
 3091 0196 0100     		.2byte	0x1
 3092 0198 51       		.byte	0x51
 3093 0199 AD010000 		.4byte	.LVL68-1-.Ltext0
 3094 019d 1C020000 		.4byte	.LVL90-.Ltext0
 3095 01a1 0400     		.2byte	0x4
 3096 01a3 F3       		.byte	0xf3
 3097 01a4 01       		.uleb128 0x1
 3098 01a5 51       		.byte	0x51
 3099 01a6 9F       		.byte	0x9f
 3100 01a7 1C020000 		.4byte	.LVL90-.Ltext0
 3101 01ab 1F020000 		.4byte	.LVL91-1-.Ltext0
 3102 01af 0100     		.2byte	0x1
 3103 01b1 51       		.byte	0x51
 3104 01b2 1F020000 		.4byte	.LVL91-1-.Ltext0
 3105 01b6 70020000 		.4byte	.LFE26-.Ltext0
 3106 01ba 0400     		.2byte	0x4
 3107 01bc F3       		.byte	0xf3
 3108 01bd 01       		.uleb128 0x1
 3109 01be 51       		.byte	0x51
 3110 01bf 9F       		.byte	0x9f
 3111 01c0 00000000 		.4byte	0
 3112 01c4 00000000 		.4byte	0
 3113              	.LLST37:
 3114 01c8 B4010000 		.4byte	.LVL70-.Ltext0
 3115 01cc 1C020000 		.4byte	.LVL90-.Ltext0
 3116 01d0 0100     		.2byte	0x1
 3117 01d2 54       		.byte	0x54
 3118 01d3 24020000 		.4byte	.LVL92-.Ltext0
 3119 01d7 26020000 		.4byte	.LVL93-.Ltext0
 3120 01db 0100     		.2byte	0x1
 3121 01dd 50       		.byte	0x50
 3122 01de 26020000 		.4byte	.LVL93-.Ltext0
 3123 01e2 29020000 		.4byte	.LVL94-1-.Ltext0
 3124 01e6 0100     		.2byte	0x1
 3125 01e8 51       		.byte	0x51
 3126 01e9 29020000 		.4byte	.LVL94-1-.Ltext0
 3127 01ed 70020000 		.4byte	.LFE26-.Ltext0
 3128 01f1 0100     		.2byte	0x1
 3129 01f3 54       		.byte	0x54
 3130 01f4 00000000 		.4byte	0
 3131 01f8 00000000 		.4byte	0
 3132              	.LLST38:
 3133 01fc BE010000 		.4byte	.LVL71-.Ltext0
 3134 0200 C4010000 		.4byte	.LVL72-.Ltext0
 3135 0204 0100     		.2byte	0x1
ARM GAS  G:\Users\Jaxb\AppData\Local\Temp\cc9lI2vO.s 			page 62


 3136 0206 50       		.byte	0x50
 3137 0207 C4010000 		.4byte	.LVL72-.Ltext0
 3138 020b D8010000 		.4byte	.LVL75-.Ltext0
 3139 020f 0100     		.2byte	0x1
 3140 0211 55       		.byte	0x55
 3141 0212 0C020000 		.4byte	.LVL86-.Ltext0
 3142 0216 0E020000 		.4byte	.LVL87-.Ltext0
 3143 021a 0100     		.2byte	0x1
 3144 021c 50       		.byte	0x50
 3145 021d 0E020000 		.4byte	.LVL87-.Ltext0
 3146 0221 1C020000 		.4byte	.LVL90-.Ltext0
 3147 0225 0100     		.2byte	0x1
 3148 0227 55       		.byte	0x55
 3149 0228 44020000 		.4byte	.LVL97-.Ltext0
 3150 022c 70020000 		.4byte	.LFE26-.Ltext0
 3151 0230 0100     		.2byte	0x1
 3152 0232 55       		.byte	0x55
 3153 0233 00000000 		.4byte	0
 3154 0237 00000000 		.4byte	0
 3155              	.LLST39:
 3156 023b D8010000 		.4byte	.LVL75-.Ltext0
 3157 023f DA010000 		.4byte	.LVL76-.Ltext0
 3158 0243 0100     		.2byte	0x1
 3159 0245 50       		.byte	0x50
 3160 0246 DA010000 		.4byte	.LVL76-.Ltext0
 3161 024a 0C020000 		.4byte	.LVL86-.Ltext0
 3162 024e 0100     		.2byte	0x1
 3163 0250 55       		.byte	0x55
 3164 0251 00000000 		.4byte	0
 3165 0255 00000000 		.4byte	0
 3166              	.LLST32:
 3167 0259 9C010000 		.4byte	.LVL64-.Ltext0
 3168 025d 9F010000 		.4byte	.LVL65-1-.Ltext0
 3169 0261 0100     		.2byte	0x1
 3170 0263 50       		.byte	0x50
 3171 0264 9F010000 		.4byte	.LVL65-1-.Ltext0
 3172 0268 A0010000 		.4byte	.LFE25-.Ltext0
 3173 026c 0400     		.2byte	0x4
 3174 026e F3       		.byte	0xf3
 3175 026f 01       		.uleb128 0x1
 3176 0270 50       		.byte	0x50
 3177 0271 9F       		.byte	0x9f
 3178 0272 00000000 		.4byte	0
 3179 0276 00000000 		.4byte	0
 3180              	.LLST33:
 3181 027a 9C010000 		.4byte	.LVL64-.Ltext0
 3182 027e 9F010000 		.4byte	.LVL65-1-.Ltext0
 3183 0282 0100     		.2byte	0x1
 3184 0284 51       		.byte	0x51
 3185 0285 9F010000 		.4byte	.LVL65-1-.Ltext0
 3186 0289 A0010000 		.4byte	.LFE25-.Ltext0
 3187 028d 0400     		.2byte	0x4
 3188 028f F3       		.byte	0xf3
 3189 0290 01       		.uleb128 0x1
 3190 0291 51       		.byte	0x51
 3191 0292 9F       		.byte	0x9f
 3192 0293 00000000 		.4byte	0
ARM GAS  G:\Users\Jaxb\AppData\Local\Temp\cc9lI2vO.s 			page 63


 3193 0297 00000000 		.4byte	0
 3194              	.LLST29:
 3195 029b 88010000 		.4byte	.LFB24-.Ltext0
 3196 029f 8A010000 		.4byte	.LCFI22-.Ltext0
 3197 02a3 0200     		.2byte	0x2
 3198 02a5 7D       		.byte	0x7d
 3199 02a6 00       		.sleb128 0
 3200 02a7 8A010000 		.4byte	.LCFI22-.Ltext0
 3201 02ab 96010000 		.4byte	.LCFI23-.Ltext0
 3202 02af 0200     		.2byte	0x2
 3203 02b1 7D       		.byte	0x7d
 3204 02b2 08       		.sleb128 8
 3205 02b3 96010000 		.4byte	.LCFI23-.Ltext0
 3206 02b7 9A010000 		.4byte	.LFE24-.Ltext0
 3207 02bb 0200     		.2byte	0x2
 3208 02bd 7D       		.byte	0x7d
 3209 02be 00       		.sleb128 0
 3210 02bf 00000000 		.4byte	0
 3211 02c3 00000000 		.4byte	0
 3212              	.LLST30:
 3213 02c7 88010000 		.4byte	.LVL60-.Ltext0
 3214 02cb 8D010000 		.4byte	.LVL61-1-.Ltext0
 3215 02cf 0100     		.2byte	0x1
 3216 02d1 50       		.byte	0x50
 3217 02d2 8D010000 		.4byte	.LVL61-1-.Ltext0
 3218 02d6 9A010000 		.4byte	.LFE24-.Ltext0
 3219 02da 0400     		.2byte	0x4
 3220 02dc F3       		.byte	0xf3
 3221 02dd 01       		.uleb128 0x1
 3222 02de 50       		.byte	0x50
 3223 02df 9F       		.byte	0x9f
 3224 02e0 00000000 		.4byte	0
 3225 02e4 00000000 		.4byte	0
 3226              	.LLST31:
 3227 02e8 88010000 		.4byte	.LVL60-.Ltext0
 3228 02ec 8D010000 		.4byte	.LVL61-1-.Ltext0
 3229 02f0 0100     		.2byte	0x1
 3230 02f2 51       		.byte	0x51
 3231 02f3 8D010000 		.4byte	.LVL61-1-.Ltext0
 3232 02f7 9A010000 		.4byte	.LFE24-.Ltext0
 3233 02fb 0400     		.2byte	0x4
 3234 02fd F3       		.byte	0xf3
 3235 02fe 01       		.uleb128 0x1
 3236 02ff 51       		.byte	0x51
 3237 0300 9F       		.byte	0x9f
 3238 0301 00000000 		.4byte	0
 3239 0305 00000000 		.4byte	0
 3240              	.LLST25:
 3241 0309 54010000 		.4byte	.LFB23-.Ltext0
 3242 030d 58010000 		.4byte	.LCFI16-.Ltext0
 3243 0311 0200     		.2byte	0x2
 3244 0313 7D       		.byte	0x7d
 3245 0314 00       		.sleb128 0
 3246 0315 58010000 		.4byte	.LCFI16-.Ltext0
 3247 0319 66010000 		.4byte	.LCFI17-.Ltext0
 3248 031d 0200     		.2byte	0x2
 3249 031f 7D       		.byte	0x7d
ARM GAS  G:\Users\Jaxb\AppData\Local\Temp\cc9lI2vO.s 			page 64


 3250 0320 08       		.sleb128 8
 3251 0321 66010000 		.4byte	.LCFI17-.Ltext0
 3252 0325 6A010000 		.4byte	.LCFI18-.Ltext0
 3253 0329 0200     		.2byte	0x2
 3254 032b 7D       		.byte	0x7d
 3255 032c 00       		.sleb128 0
 3256 032d 6A010000 		.4byte	.LCFI18-.Ltext0
 3257 0331 70010000 		.4byte	.LCFI19-.Ltext0
 3258 0335 0200     		.2byte	0x2
 3259 0337 7D       		.byte	0x7d
 3260 0338 08       		.sleb128 8
 3261 0339 70010000 		.4byte	.LCFI19-.Ltext0
 3262 033d 74010000 		.4byte	.LCFI20-.Ltext0
 3263 0341 0200     		.2byte	0x2
 3264 0343 7D       		.byte	0x7d
 3265 0344 00       		.sleb128 0
 3266 0345 74010000 		.4byte	.LCFI20-.Ltext0
 3267 0349 7A010000 		.4byte	.LCFI21-.Ltext0
 3268 034d 0200     		.2byte	0x2
 3269 034f 7D       		.byte	0x7d
 3270 0350 08       		.sleb128 8
 3271 0351 7A010000 		.4byte	.LCFI21-.Ltext0
 3272 0355 88010000 		.4byte	.LFE23-.Ltext0
 3273 0359 0200     		.2byte	0x2
 3274 035b 7D       		.byte	0x7d
 3275 035c 00       		.sleb128 0
 3276 035d 00000000 		.4byte	0
 3277 0361 00000000 		.4byte	0
 3278              	.LLST26:
 3279 0365 54010000 		.4byte	.LVL52-.Ltext0
 3280 0369 5C010000 		.4byte	.LVL53-.Ltext0
 3281 036d 0100     		.2byte	0x1
 3282 036f 50       		.byte	0x50
 3283 0370 5C010000 		.4byte	.LVL53-.Ltext0
 3284 0374 6A010000 		.4byte	.LVL55-.Ltext0
 3285 0378 0400     		.2byte	0x4
 3286 037a F3       		.byte	0xf3
 3287 037b 01       		.uleb128 0x1
 3288 037c 50       		.byte	0x50
 3289 037d 9F       		.byte	0x9f
 3290 037e 6A010000 		.4byte	.LVL55-.Ltext0
 3291 0382 6C010000 		.4byte	.LVL56-.Ltext0
 3292 0386 0100     		.2byte	0x1
 3293 0388 50       		.byte	0x50
 3294 0389 6C010000 		.4byte	.LVL56-.Ltext0
 3295 038d 88010000 		.4byte	.LFE23-.Ltext0
 3296 0391 0400     		.2byte	0x4
 3297 0393 F3       		.byte	0xf3
 3298 0394 01       		.uleb128 0x1
 3299 0395 50       		.byte	0x50
 3300 0396 9F       		.byte	0x9f
 3301 0397 00000000 		.4byte	0
 3302 039b 00000000 		.4byte	0
 3303              	.LLST27:
 3304 039f 54010000 		.4byte	.LVL52-.Ltext0
 3305 03a3 5F010000 		.4byte	.LVL54-1-.Ltext0
 3306 03a7 0100     		.2byte	0x1
ARM GAS  G:\Users\Jaxb\AppData\Local\Temp\cc9lI2vO.s 			page 65


 3307 03a9 51       		.byte	0x51
 3308 03aa 5F010000 		.4byte	.LVL54-1-.Ltext0
 3309 03ae 6A010000 		.4byte	.LVL55-.Ltext0
 3310 03b2 0400     		.2byte	0x4
 3311 03b4 F3       		.byte	0xf3
 3312 03b5 01       		.uleb128 0x1
 3313 03b6 51       		.byte	0x51
 3314 03b7 9F       		.byte	0x9f
 3315 03b8 6A010000 		.4byte	.LVL55-.Ltext0
 3316 03bc 73010000 		.4byte	.LVL57-1-.Ltext0
 3317 03c0 0100     		.2byte	0x1
 3318 03c2 51       		.byte	0x51
 3319 03c3 73010000 		.4byte	.LVL57-1-.Ltext0
 3320 03c7 88010000 		.4byte	.LFE23-.Ltext0
 3321 03cb 0400     		.2byte	0x4
 3322 03cd F3       		.byte	0xf3
 3323 03ce 01       		.uleb128 0x1
 3324 03cf 51       		.byte	0x51
 3325 03d0 9F       		.byte	0x9f
 3326 03d1 00000000 		.4byte	0
 3327 03d5 00000000 		.4byte	0
 3328              	.LLST28:
 3329 03d9 60010000 		.4byte	.LVL54-.Ltext0
 3330 03dd 69010000 		.4byte	.LVL55-1-.Ltext0
 3331 03e1 0100     		.2byte	0x1
 3332 03e3 50       		.byte	0x50
 3333 03e4 74010000 		.4byte	.LVL57-.Ltext0
 3334 03e8 76010000 		.4byte	.LVL58-.Ltext0
 3335 03ec 0100     		.2byte	0x1
 3336 03ee 50       		.byte	0x50
 3337 03ef 00000000 		.4byte	0
 3338 03f3 00000000 		.4byte	0
 3339              	.LLST21:
 3340 03f7 1C010000 		.4byte	.LFB22-.Ltext0
 3341 03fb 20010000 		.4byte	.LCFI10-.Ltext0
 3342 03ff 0200     		.2byte	0x2
 3343 0401 7D       		.byte	0x7d
 3344 0402 00       		.sleb128 0
 3345 0403 20010000 		.4byte	.LCFI10-.Ltext0
 3346 0407 32010000 		.4byte	.LCFI11-.Ltext0
 3347 040b 0200     		.2byte	0x2
 3348 040d 7D       		.byte	0x7d
 3349 040e 08       		.sleb128 8
 3350 040f 32010000 		.4byte	.LCFI11-.Ltext0
 3351 0413 36010000 		.4byte	.LCFI12-.Ltext0
 3352 0417 0200     		.2byte	0x2
 3353 0419 7D       		.byte	0x7d
 3354 041a 00       		.sleb128 0
 3355 041b 36010000 		.4byte	.LCFI12-.Ltext0
 3356 041f 3C010000 		.4byte	.LCFI13-.Ltext0
 3357 0423 0200     		.2byte	0x2
 3358 0425 7D       		.byte	0x7d
 3359 0426 08       		.sleb128 8
 3360 0427 3C010000 		.4byte	.LCFI13-.Ltext0
 3361 042b 40010000 		.4byte	.LCFI14-.Ltext0
 3362 042f 0200     		.2byte	0x2
 3363 0431 7D       		.byte	0x7d
ARM GAS  G:\Users\Jaxb\AppData\Local\Temp\cc9lI2vO.s 			page 66


 3364 0432 00       		.sleb128 0
 3365 0433 40010000 		.4byte	.LCFI14-.Ltext0
 3366 0437 46010000 		.4byte	.LCFI15-.Ltext0
 3367 043b 0200     		.2byte	0x2
 3368 043d 7D       		.byte	0x7d
 3369 043e 08       		.sleb128 8
 3370 043f 46010000 		.4byte	.LCFI15-.Ltext0
 3371 0443 54010000 		.4byte	.LFE22-.Ltext0
 3372 0447 0200     		.2byte	0x2
 3373 0449 7D       		.byte	0x7d
 3374 044a 00       		.sleb128 0
 3375 044b 00000000 		.4byte	0
 3376 044f 00000000 		.4byte	0
 3377              	.LLST22:
 3378 0453 1C010000 		.4byte	.LVL42-.Ltext0
 3379 0457 26010000 		.4byte	.LVL43-.Ltext0
 3380 045b 0100     		.2byte	0x1
 3381 045d 50       		.byte	0x50
 3382 045e 26010000 		.4byte	.LVL43-.Ltext0
 3383 0462 36010000 		.4byte	.LVL46-.Ltext0
 3384 0466 0400     		.2byte	0x4
 3385 0468 F3       		.byte	0xf3
 3386 0469 01       		.uleb128 0x1
 3387 046a 50       		.byte	0x50
 3388 046b 9F       		.byte	0x9f
 3389 046c 36010000 		.4byte	.LVL46-.Ltext0
 3390 0470 38010000 		.4byte	.LVL47-.Ltext0
 3391 0474 0100     		.2byte	0x1
 3392 0476 50       		.byte	0x50
 3393 0477 38010000 		.4byte	.LVL47-.Ltext0
 3394 047b 54010000 		.4byte	.LFE22-.Ltext0
 3395 047f 0400     		.2byte	0x4
 3396 0481 F3       		.byte	0xf3
 3397 0482 01       		.uleb128 0x1
 3398 0483 50       		.byte	0x50
 3399 0484 9F       		.byte	0x9f
 3400 0485 00000000 		.4byte	0
 3401 0489 00000000 		.4byte	0
 3402              	.LLST23:
 3403 048d 1C010000 		.4byte	.LVL42-.Ltext0
 3404 0491 29010000 		.4byte	.LVL44-1-.Ltext0
 3405 0495 0100     		.2byte	0x1
 3406 0497 51       		.byte	0x51
 3407 0498 29010000 		.4byte	.LVL44-1-.Ltext0
 3408 049c 32010000 		.4byte	.LVL45-.Ltext0
 3409 04a0 0100     		.2byte	0x1
 3410 04a2 54       		.byte	0x54
 3411 04a3 32010000 		.4byte	.LVL45-.Ltext0
 3412 04a7 36010000 		.4byte	.LVL46-.Ltext0
 3413 04ab 0400     		.2byte	0x4
 3414 04ad F3       		.byte	0xf3
 3415 04ae 01       		.uleb128 0x1
 3416 04af 51       		.byte	0x51
 3417 04b0 9F       		.byte	0x9f
 3418 04b1 36010000 		.4byte	.LVL46-.Ltext0
 3419 04b5 3F010000 		.4byte	.LVL48-1-.Ltext0
 3420 04b9 0100     		.2byte	0x1
ARM GAS  G:\Users\Jaxb\AppData\Local\Temp\cc9lI2vO.s 			page 67


 3421 04bb 51       		.byte	0x51
 3422 04bc 3F010000 		.4byte	.LVL48-1-.Ltext0
 3423 04c0 40010000 		.4byte	.LVL48-.Ltext0
 3424 04c4 0400     		.2byte	0x4
 3425 04c6 F3       		.byte	0xf3
 3426 04c7 01       		.uleb128 0x1
 3427 04c8 51       		.byte	0x51
 3428 04c9 9F       		.byte	0x9f
 3429 04ca 40010000 		.4byte	.LVL48-.Ltext0
 3430 04ce 46010000 		.4byte	.LVL50-.Ltext0
 3431 04d2 0100     		.2byte	0x1
 3432 04d4 54       		.byte	0x54
 3433 04d5 46010000 		.4byte	.LVL50-.Ltext0
 3434 04d9 54010000 		.4byte	.LFE22-.Ltext0
 3435 04dd 0400     		.2byte	0x4
 3436 04df F3       		.byte	0xf3
 3437 04e0 01       		.uleb128 0x1
 3438 04e1 51       		.byte	0x51
 3439 04e2 9F       		.byte	0x9f
 3440 04e3 00000000 		.4byte	0
 3441 04e7 00000000 		.4byte	0
 3442              	.LLST24:
 3443 04eb 2A010000 		.4byte	.LVL44-.Ltext0
 3444 04ef 35010000 		.4byte	.LVL46-1-.Ltext0
 3445 04f3 0100     		.2byte	0x1
 3446 04f5 50       		.byte	0x50
 3447 04f6 40010000 		.4byte	.LVL48-.Ltext0
 3448 04fa 42010000 		.4byte	.LVL49-.Ltext0
 3449 04fe 0100     		.2byte	0x1
 3450 0500 50       		.byte	0x50
 3451 0501 00000000 		.4byte	0
 3452 0505 00000000 		.4byte	0
 3453              	.LLST17:
 3454 0509 E8000000 		.4byte	.LFB21-.Ltext0
 3455 050d EC000000 		.4byte	.LCFI4-.Ltext0
 3456 0511 0200     		.2byte	0x2
 3457 0513 7D       		.byte	0x7d
 3458 0514 00       		.sleb128 0
 3459 0515 EC000000 		.4byte	.LCFI4-.Ltext0
 3460 0519 FA000000 		.4byte	.LCFI5-.Ltext0
 3461 051d 0200     		.2byte	0x2
 3462 051f 7D       		.byte	0x7d
 3463 0520 08       		.sleb128 8
 3464 0521 FA000000 		.4byte	.LCFI5-.Ltext0
 3465 0525 FE000000 		.4byte	.LCFI6-.Ltext0
 3466 0529 0200     		.2byte	0x2
 3467 052b 7D       		.byte	0x7d
 3468 052c 00       		.sleb128 0
 3469 052d FE000000 		.4byte	.LCFI6-.Ltext0
 3470 0531 04010000 		.4byte	.LCFI7-.Ltext0
 3471 0535 0200     		.2byte	0x2
 3472 0537 7D       		.byte	0x7d
 3473 0538 08       		.sleb128 8
 3474 0539 04010000 		.4byte	.LCFI7-.Ltext0
 3475 053d 08010000 		.4byte	.LCFI8-.Ltext0
 3476 0541 0200     		.2byte	0x2
 3477 0543 7D       		.byte	0x7d
ARM GAS  G:\Users\Jaxb\AppData\Local\Temp\cc9lI2vO.s 			page 68


 3478 0544 00       		.sleb128 0
 3479 0545 08010000 		.4byte	.LCFI8-.Ltext0
 3480 0549 0E010000 		.4byte	.LCFI9-.Ltext0
 3481 054d 0200     		.2byte	0x2
 3482 054f 7D       		.byte	0x7d
 3483 0550 08       		.sleb128 8
 3484 0551 0E010000 		.4byte	.LCFI9-.Ltext0
 3485 0555 1C010000 		.4byte	.LFE21-.Ltext0
 3486 0559 0200     		.2byte	0x2
 3487 055b 7D       		.byte	0x7d
 3488 055c 00       		.sleb128 0
 3489 055d 00000000 		.4byte	0
 3490 0561 00000000 		.4byte	0
 3491              	.LLST18:
 3492 0565 E8000000 		.4byte	.LVL34-.Ltext0
 3493 0569 F0000000 		.4byte	.LVL35-.Ltext0
 3494 056d 0100     		.2byte	0x1
 3495 056f 50       		.byte	0x50
 3496 0570 F0000000 		.4byte	.LVL35-.Ltext0
 3497 0574 FE000000 		.4byte	.LVL37-.Ltext0
 3498 0578 0400     		.2byte	0x4
 3499 057a F3       		.byte	0xf3
 3500 057b 01       		.uleb128 0x1
 3501 057c 50       		.byte	0x50
 3502 057d 9F       		.byte	0x9f
 3503 057e FE000000 		.4byte	.LVL37-.Ltext0
 3504 0582 00010000 		.4byte	.LVL38-.Ltext0
 3505 0586 0100     		.2byte	0x1
 3506 0588 50       		.byte	0x50
 3507 0589 00010000 		.4byte	.LVL38-.Ltext0
 3508 058d 1C010000 		.4byte	.LFE21-.Ltext0
 3509 0591 0400     		.2byte	0x4
 3510 0593 F3       		.byte	0xf3
 3511 0594 01       		.uleb128 0x1
 3512 0595 50       		.byte	0x50
 3513 0596 9F       		.byte	0x9f
 3514 0597 00000000 		.4byte	0
 3515 059b 00000000 		.4byte	0
 3516              	.LLST19:
 3517 059f E8000000 		.4byte	.LVL34-.Ltext0
 3518 05a3 F3000000 		.4byte	.LVL36-1-.Ltext0
 3519 05a7 0100     		.2byte	0x1
 3520 05a9 51       		.byte	0x51
 3521 05aa F3000000 		.4byte	.LVL36-1-.Ltext0
 3522 05ae FE000000 		.4byte	.LVL37-.Ltext0
 3523 05b2 0400     		.2byte	0x4
 3524 05b4 F3       		.byte	0xf3
 3525 05b5 01       		.uleb128 0x1
 3526 05b6 51       		.byte	0x51
 3527 05b7 9F       		.byte	0x9f
 3528 05b8 FE000000 		.4byte	.LVL37-.Ltext0
 3529 05bc 07010000 		.4byte	.LVL39-1-.Ltext0
 3530 05c0 0100     		.2byte	0x1
 3531 05c2 51       		.byte	0x51
 3532 05c3 07010000 		.4byte	.LVL39-1-.Ltext0
 3533 05c7 1C010000 		.4byte	.LFE21-.Ltext0
 3534 05cb 0400     		.2byte	0x4
ARM GAS  G:\Users\Jaxb\AppData\Local\Temp\cc9lI2vO.s 			page 69


 3535 05cd F3       		.byte	0xf3
 3536 05ce 01       		.uleb128 0x1
 3537 05cf 51       		.byte	0x51
 3538 05d0 9F       		.byte	0x9f
 3539 05d1 00000000 		.4byte	0
 3540 05d5 00000000 		.4byte	0
 3541              	.LLST20:
 3542 05d9 F4000000 		.4byte	.LVL36-.Ltext0
 3543 05dd FD000000 		.4byte	.LVL37-1-.Ltext0
 3544 05e1 0100     		.2byte	0x1
 3545 05e3 50       		.byte	0x50
 3546 05e4 08010000 		.4byte	.LVL39-.Ltext0
 3547 05e8 0A010000 		.4byte	.LVL40-.Ltext0
 3548 05ec 0100     		.2byte	0x1
 3549 05ee 50       		.byte	0x50
 3550 05ef 00000000 		.4byte	0
 3551 05f3 00000000 		.4byte	0
 3552              	.LLST13:
 3553 05f7 D0000000 		.4byte	.LFB20-.Ltext0
 3554 05fb D2000000 		.4byte	.LCFI3-.Ltext0
 3555 05ff 0200     		.2byte	0x2
 3556 0601 7D       		.byte	0x7d
 3557 0602 00       		.sleb128 0
 3558 0603 D2000000 		.4byte	.LCFI3-.Ltext0
 3559 0607 E8000000 		.4byte	.LFE20-.Ltext0
 3560 060b 0200     		.2byte	0x2
 3561 060d 7D       		.byte	0x7d
 3562 060e 10       		.sleb128 16
 3563 060f 00000000 		.4byte	0
 3564 0613 00000000 		.4byte	0
 3565              	.LLST14:
 3566 0617 D0000000 		.4byte	.LVL29-.Ltext0
 3567 061b D6000000 		.4byte	.LVL30-.Ltext0
 3568 061f 0100     		.2byte	0x1
 3569 0621 50       		.byte	0x50
 3570 0622 D6000000 		.4byte	.LVL30-.Ltext0
 3571 0626 E8000000 		.4byte	.LFE20-.Ltext0
 3572 062a 0400     		.2byte	0x4
 3573 062c F3       		.byte	0xf3
 3574 062d 01       		.uleb128 0x1
 3575 062e 50       		.byte	0x50
 3576 062f 9F       		.byte	0x9f
 3577 0630 00000000 		.4byte	0
 3578 0634 00000000 		.4byte	0
 3579              	.LLST15:
 3580 0638 D0000000 		.4byte	.LVL29-.Ltext0
 3581 063c D6000000 		.4byte	.LVL30-.Ltext0
 3582 0640 0100     		.2byte	0x1
 3583 0642 51       		.byte	0x51
 3584 0643 D6000000 		.4byte	.LVL30-.Ltext0
 3585 0647 E8000000 		.4byte	.LFE20-.Ltext0
 3586 064b 0400     		.2byte	0x4
 3587 064d F3       		.byte	0xf3
 3588 064e 01       		.uleb128 0x1
 3589 064f 51       		.byte	0x51
 3590 0650 9F       		.byte	0x9f
 3591 0651 00000000 		.4byte	0
ARM GAS  G:\Users\Jaxb\AppData\Local\Temp\cc9lI2vO.s 			page 70


 3592 0655 00000000 		.4byte	0
 3593              	.LLST16:
 3594 0659 D0000000 		.4byte	.LVL29-.Ltext0
 3595 065d D6000000 		.4byte	.LVL30-.Ltext0
 3596 0661 0200     		.2byte	0x2
 3597 0663 30       		.byte	0x30
 3598 0664 9F       		.byte	0x9f
 3599 0665 D6000000 		.4byte	.LVL30-.Ltext0
 3600 0669 DC000000 		.4byte	.LVL31-.Ltext0
 3601 066d 0600     		.2byte	0x6
 3602 066f 08       		.byte	0x8
 3603 0670 28       		.byte	0x28
 3604 0671 74       		.byte	0x74
 3605 0672 00       		.sleb128 0
 3606 0673 1C       		.byte	0x1c
 3607 0674 9F       		.byte	0x9f
 3608 0675 DC000000 		.4byte	.LVL31-.Ltext0
 3609 0679 DE000000 		.4byte	.LVL32-.Ltext0
 3610 067d 0600     		.2byte	0x6
 3611 067f 08       		.byte	0x8
 3612 0680 29       		.byte	0x29
 3613 0681 74       		.byte	0x74
 3614 0682 00       		.sleb128 0
 3615 0683 1C       		.byte	0x1c
 3616 0684 9F       		.byte	0x9f
 3617 0685 DE000000 		.4byte	.LVL32-.Ltext0
 3618 0689 E2000000 		.4byte	.LVL33-.Ltext0
 3619 068d 0600     		.2byte	0x6
 3620 068f 08       		.byte	0x8
 3621 0690 28       		.byte	0x28
 3622 0691 74       		.byte	0x74
 3623 0692 00       		.sleb128 0
 3624 0693 1C       		.byte	0x1c
 3625 0694 9F       		.byte	0x9f
 3626 0695 00000000 		.4byte	0
 3627 0699 00000000 		.4byte	0
 3628              	.LLST8:
 3629 069d 34000000 		.4byte	.LFB19-.Ltext0
 3630 06a1 38000000 		.4byte	.LCFI1-.Ltext0
 3631 06a5 0200     		.2byte	0x2
 3632 06a7 7D       		.byte	0x7d
 3633 06a8 00       		.sleb128 0
 3634 06a9 38000000 		.4byte	.LCFI1-.Ltext0
 3635 06ad A8000000 		.4byte	.LCFI2-.Ltext0
 3636 06b1 0200     		.2byte	0x2
 3637 06b3 7D       		.byte	0x7d
 3638 06b4 18       		.sleb128 24
 3639 06b5 A8000000 		.4byte	.LCFI2-.Ltext0
 3640 06b9 D0000000 		.4byte	.LFE19-.Ltext0
 3641 06bd 0200     		.2byte	0x2
 3642 06bf 7D       		.byte	0x7d
 3643 06c0 00       		.sleb128 0
 3644 06c1 00000000 		.4byte	0
 3645 06c5 00000000 		.4byte	0
 3646              	.LLST9:
 3647 06c9 34000000 		.4byte	.LVL11-.Ltext0
 3648 06cd 3B000000 		.4byte	.LVL12-1-.Ltext0
ARM GAS  G:\Users\Jaxb\AppData\Local\Temp\cc9lI2vO.s 			page 71


 3649 06d1 0100     		.2byte	0x1
 3650 06d3 50       		.byte	0x50
 3651 06d4 3B000000 		.4byte	.LVL12-1-.Ltext0
 3652 06d8 D0000000 		.4byte	.LFE19-.Ltext0
 3653 06dc 0400     		.2byte	0x4
 3654 06de F3       		.byte	0xf3
 3655 06df 01       		.uleb128 0x1
 3656 06e0 50       		.byte	0x50
 3657 06e1 9F       		.byte	0x9f
 3658 06e2 00000000 		.4byte	0
 3659 06e6 00000000 		.4byte	0
 3660              	.LLST10:
 3661 06ea 34000000 		.4byte	.LVL11-.Ltext0
 3662 06ee 3B000000 		.4byte	.LVL12-1-.Ltext0
 3663 06f2 0100     		.2byte	0x1
 3664 06f4 51       		.byte	0x51
 3665 06f5 3B000000 		.4byte	.LVL12-1-.Ltext0
 3666 06f9 D0000000 		.4byte	.LFE19-.Ltext0
 3667 06fd 0400     		.2byte	0x4
 3668 06ff F3       		.byte	0xf3
 3669 0700 01       		.uleb128 0x1
 3670 0701 51       		.byte	0x51
 3671 0702 9F       		.byte	0x9f
 3672 0703 00000000 		.4byte	0
 3673 0707 00000000 		.4byte	0
 3674              	.LLST11:
 3675 070b 3C000000 		.4byte	.LVL12-.Ltext0
 3676 070f 4E000000 		.4byte	.LVL14-.Ltext0
 3677 0713 0100     		.2byte	0x1
 3678 0715 50       		.byte	0x50
 3679 0716 4E000000 		.4byte	.LVL14-.Ltext0
 3680 071a 98000000 		.4byte	.LVL25-.Ltext0
 3681 071e 0100     		.2byte	0x1
 3682 0720 54       		.byte	0x54
 3683 0721 98000000 		.4byte	.LVL25-.Ltext0
 3684 0725 AA000000 		.4byte	.LVL27-.Ltext0
 3685 0729 0100     		.2byte	0x1
 3686 072b 50       		.byte	0x50
 3687 072c 00000000 		.4byte	0
 3688 0730 00000000 		.4byte	0
 3689              	.LLST12:
 3690 0734 4A000000 		.4byte	.LVL13-.Ltext0
 3691 0738 A2000000 		.4byte	.LVL26-.Ltext0
 3692 073c 0100     		.2byte	0x1
 3693 073e 55       		.byte	0x55
 3694 073f 00000000 		.4byte	0
 3695 0743 00000000 		.4byte	0
 3696              	.LLST6:
 3697 0747 30000000 		.4byte	.LVL9-.Ltext0
 3698 074b 33000000 		.4byte	.LVL10-1-.Ltext0
 3699 074f 0100     		.2byte	0x1
 3700 0751 50       		.byte	0x50
 3701 0752 33000000 		.4byte	.LVL10-1-.Ltext0
 3702 0756 34000000 		.4byte	.LFE18-.Ltext0
 3703 075a 0400     		.2byte	0x4
 3704 075c F3       		.byte	0xf3
 3705 075d 01       		.uleb128 0x1
ARM GAS  G:\Users\Jaxb\AppData\Local\Temp\cc9lI2vO.s 			page 72


 3706 075e 50       		.byte	0x50
 3707 075f 9F       		.byte	0x9f
 3708 0760 00000000 		.4byte	0
 3709 0764 00000000 		.4byte	0
 3710              	.LLST7:
 3711 0768 30000000 		.4byte	.LVL9-.Ltext0
 3712 076c 33000000 		.4byte	.LVL10-1-.Ltext0
 3713 0770 0100     		.2byte	0x1
 3714 0772 51       		.byte	0x51
 3715 0773 33000000 		.4byte	.LVL10-1-.Ltext0
 3716 0777 34000000 		.4byte	.LFE18-.Ltext0
 3717 077b 0400     		.2byte	0x4
 3718 077d F3       		.byte	0xf3
 3719 077e 01       		.uleb128 0x1
 3720 077f 51       		.byte	0x51
 3721 0780 9F       		.byte	0x9f
 3722 0781 00000000 		.4byte	0
 3723 0785 00000000 		.4byte	0
 3724              	.LLST4:
 3725 0789 24000000 		.4byte	.LVL6-.Ltext0
 3726 078d 26000000 		.4byte	.LVL7-.Ltext0
 3727 0791 0100     		.2byte	0x1
 3728 0793 50       		.byte	0x50
 3729 0794 26000000 		.4byte	.LVL7-.Ltext0
 3730 0798 30000000 		.4byte	.LFE17-.Ltext0
 3731 079c 0400     		.2byte	0x4
 3732 079e F3       		.byte	0xf3
 3733 079f 01       		.uleb128 0x1
 3734 07a0 50       		.byte	0x50
 3735 07a1 9F       		.byte	0x9f
 3736 07a2 00000000 		.4byte	0
 3737 07a6 00000000 		.4byte	0
 3738              	.LLST5:
 3739 07aa 24000000 		.4byte	.LVL6-.Ltext0
 3740 07ae 29000000 		.4byte	.LVL8-1-.Ltext0
 3741 07b2 0100     		.2byte	0x1
 3742 07b4 51       		.byte	0x51
 3743 07b5 29000000 		.4byte	.LVL8-1-.Ltext0
 3744 07b9 30000000 		.4byte	.LFE17-.Ltext0
 3745 07bd 0400     		.2byte	0x4
 3746 07bf F3       		.byte	0xf3
 3747 07c0 01       		.uleb128 0x1
 3748 07c1 51       		.byte	0x51
 3749 07c2 9F       		.byte	0x9f
 3750 07c3 00000000 		.4byte	0
 3751 07c7 00000000 		.4byte	0
 3752              	.LLST0:
 3753 07cb 00000000 		.4byte	.LFB16-.Ltext0
 3754 07cf 02000000 		.4byte	.LCFI0-.Ltext0
 3755 07d3 0200     		.2byte	0x2
 3756 07d5 7D       		.byte	0x7d
 3757 07d6 00       		.sleb128 0
 3758 07d7 02000000 		.4byte	.LCFI0-.Ltext0
 3759 07db 24000000 		.4byte	.LFE16-.Ltext0
 3760 07df 0200     		.2byte	0x2
 3761 07e1 7D       		.byte	0x7d
 3762 07e2 18       		.sleb128 24
ARM GAS  G:\Users\Jaxb\AppData\Local\Temp\cc9lI2vO.s 			page 73


 3763 07e3 00000000 		.4byte	0
 3764 07e7 00000000 		.4byte	0
 3765              	.LLST1:
 3766 07eb 00000000 		.4byte	.LVL0-.Ltext0
 3767 07ef 0C000000 		.4byte	.LVL1-.Ltext0
 3768 07f3 0100     		.2byte	0x1
 3769 07f5 50       		.byte	0x50
 3770 07f6 0C000000 		.4byte	.LVL1-.Ltext0
 3771 07fa 20000000 		.4byte	.LVL5-.Ltext0
 3772 07fe 0100     		.2byte	0x1
 3773 0800 56       		.byte	0x56
 3774 0801 20000000 		.4byte	.LVL5-.Ltext0
 3775 0805 24000000 		.4byte	.LFE16-.Ltext0
 3776 0809 0400     		.2byte	0x4
 3777 080b F3       		.byte	0xf3
 3778 080c 01       		.uleb128 0x1
 3779 080d 50       		.byte	0x50
 3780 080e 9F       		.byte	0x9f
 3781 080f 00000000 		.4byte	0
 3782 0813 00000000 		.4byte	0
 3783              	.LLST2:
 3784 0817 00000000 		.4byte	.LVL0-.Ltext0
 3785 081b 0C000000 		.4byte	.LVL1-.Ltext0
 3786 081f 0100     		.2byte	0x1
 3787 0821 51       		.byte	0x51
 3788 0822 0C000000 		.4byte	.LVL1-.Ltext0
 3789 0826 24000000 		.4byte	.LFE16-.Ltext0
 3790 082a 0400     		.2byte	0x4
 3791 082c F3       		.byte	0xf3
 3792 082d 01       		.uleb128 0x1
 3793 082e 51       		.byte	0x51
 3794 082f 9F       		.byte	0x9f
 3795 0830 00000000 		.4byte	0
 3796 0834 00000000 		.4byte	0
 3797              	.LLST3:
 3798 0838 00000000 		.4byte	.LVL0-.Ltext0
 3799 083c 0C000000 		.4byte	.LVL1-.Ltext0
 3800 0840 0200     		.2byte	0x2
 3801 0842 30       		.byte	0x30
 3802 0843 9F       		.byte	0x9f
 3803 0844 0C000000 		.4byte	.LVL1-.Ltext0
 3804 0848 16000000 		.4byte	.LVL2-.Ltext0
 3805 084c 0100     		.2byte	0x1
 3806 084e 54       		.byte	0x54
 3807 084f 16000000 		.4byte	.LVL2-.Ltext0
 3808 0853 19000000 		.4byte	.LVL3-1-.Ltext0
 3809 0857 0100     		.2byte	0x1
 3810 0859 51       		.byte	0x51
 3811 085a 19000000 		.4byte	.LVL3-1-.Ltext0
 3812 085e 1A000000 		.4byte	.LVL3-.Ltext0
 3813 0862 0300     		.2byte	0x3
 3814 0864 74       		.byte	0x74
 3815 0865 7F       		.sleb128 -1
 3816 0866 9F       		.byte	0x9f
 3817 0867 1A000000 		.4byte	.LVL3-.Ltext0
 3818 086b 1E000000 		.4byte	.LVL4-.Ltext0
 3819 086f 0100     		.2byte	0x1
ARM GAS  G:\Users\Jaxb\AppData\Local\Temp\cc9lI2vO.s 			page 74


 3820 0871 54       		.byte	0x54
 3821 0872 00000000 		.4byte	0
 3822 0876 00000000 		.4byte	0
 3823              		.section	.debug_aranges,"",%progbits
 3824 0000 1C000000 		.4byte	0x1c
 3825 0004 0200     		.2byte	0x2
 3826 0006 00000000 		.4byte	.Ldebug_info0
 3827 000a 04       		.byte	0x4
 3828 000b 00       		.byte	0
 3829 000c 0000     		.2byte	0
 3830 000e 0000     		.2byte	0
 3831 0010 00000000 		.4byte	.Ltext0
 3832 0014 A4020000 		.4byte	.Letext0-.Ltext0
 3833 0018 00000000 		.4byte	0
 3834 001c 00000000 		.4byte	0
 3835              		.section	.debug_line,"",%progbits
 3836              	.Ldebug_line0:
 3837 0000 89020000 		.section	.debug_str,"MS",%progbits,1
 3837      02009401 
 3837      00000201 
 3837      FB0E0D00 
 3837      01010101 
 3838              	.LASF48:
 3839 0000 7368656C 		.ascii	"shell_shutdown\000"
 3839      6C5F7368 
 3839      7574646F 
 3839      776E00
 3840              	.LASF49:
 3841 000f 7368656C 		.ascii	"shell_sleep\000"
 3841      6C5F736C 
 3841      65657000 
 3842              	.LASF82:
 3843 001b 5265426F 		.ascii	"ReBoot\000"
 3843      6F7400
 3844              	.LASF52:
 3845 0022 6F757431 		.ascii	"out1\000"
 3845      00
 3846              	.LASF3:
 3847 0027 7368656C 		.ascii	"shell_v_name\000"
 3847      6C5F765F 
 3847      6E616D65 
 3847      00
 3848              	.LASF24:
 3849 0034 70616765 		.ascii	"page_num\000"
 3849      5F6E756D 
 3849      00
 3850              	.LASF31:
 3851 003d 6C696E6B 		.ascii	"link_body\000"
 3851      5F626F64 
 3851      7900
 3852              	.LASF92:
 3853 0047 6765745F 		.ascii	"get_next_buddy_ptr_head\000"
 3853      6E657874 
 3853      5F627564 
 3853      64795F70 
 3853      74725F68 
 3854              	.LASF45:
ARM GAS  G:\Users\Jaxb\AppData\Local\Temp\cc9lI2vO.s 			page 75


 3855 005f 696E6465 		.ascii	"index\000"
 3855      7800
 3856              	.LASF80:
 3857 0065 6164645F 		.ascii	"add_page_alloc_record\000"
 3857      70616765 
 3857      5F616C6C 
 3857      6F635F72 
 3857      65636F72 
 3858              	.LASF9:
 3859 007b 73686F72 		.ascii	"short int\000"
 3859      7420696E 
 3859      7400
 3860              	.LASF68:
 3861 0085 7379735F 		.ascii	"sys_sleep\000"
 3861      736C6565 
 3861      7000
 3862              	.LASF59:
 3863 008f 7368656C 		.ascii	"shell_echo\000"
 3863      6C5F6563 
 3863      686F00
 3864              	.LASF95:
 3865 009a 2E2E2F2E 		.ascii	"../../source/src/kernel/SHELL/shell_fun.c\000"
 3865      2E2F736F 
 3865      75726365 
 3865      2F737263 
 3865      2F6B6572 
 3866              	.LASF15:
 3867 00c4 55494E54 		.ascii	"UINT32\000"
 3867      333200
 3868              	.LASF54:
 3869 00cb 7368656C 		.ascii	"shell_reboot\000"
 3869      6C5F7265 
 3869      626F6F74 
 3869      00
 3870              	.LASF58:
 3871 00d8 7368656C 		.ascii	"shell_set\000"
 3871      6C5F7365 
 3871      7400
 3872              	.LASF1:
 3873 00e2 7368656C 		.ascii	"shell_variable\000"
 3873      6C5F7661 
 3873      72696162 
 3873      6C6500
 3874              	.LASF85:
 3875 00f1 7368656C 		.ascii	"shell_delay_heap_check\000"
 3875      6C5F6465 
 3875      6C61795F 
 3875      68656170 
 3875      5F636865 
 3876              	.LASF40:
 3877 0108 7368656C 		.ascii	"shell_buffer\000"
 3877      6C5F6275 
 3877      66666572 
 3877      00
 3878              	.LASF71:
 3879 0115 5F5F696E 		.ascii	"__init_shell_buffer\000"
 3879      69745F73 
ARM GAS  G:\Users\Jaxb\AppData\Local\Temp\cc9lI2vO.s 			page 76


 3879      68656C6C 
 3879      5F627566 
 3879      66657200 
 3880              	.LASF60:
 3881 0129 7368656C 		.ascii	"shell_clear\000"
 3881      6C5F636C 
 3881      65617200 
 3882              	.LASF91:
 3883 0135 6765745F 		.ascii	"get_current_buddy_space\000"
 3883      63757272 
 3883      656E745F 
 3883      62756464 
 3883      795F7370 
 3884              	.LASF33:
 3885 014d 6F726465 		.ascii	"order_link_flag\000"
 3885      725F6C69 
 3885      6E6B5F66 
 3885      6C616700 
 3886              	.LASF28:
 3887 015d 6F726465 		.ascii	"order_link\000"
 3887      725F6C69 
 3887      6E6B00
 3888              	.LASF86:
 3889 0168 66696E64 		.ascii	"find_in_variable_array\000"
 3889      5F696E5F 
 3889      76617269 
 3889      61626C65 
 3889      5F617272 
 3890              	.LASF20:
 3891 017f 50616765 		.ascii	"Page_Num_Type\000"
 3891      5F4E756D 
 3891      5F547970 
 3891      6500
 3892              	.LASF73:
 3893 018d 7365745F 		.ascii	"set_module_buffer\000"
 3893      6D6F6475 
 3893      6C655F62 
 3893      75666665 
 3893      7200
 3894              	.LASF0:
 3895 019f 73696E67 		.ascii	"singly_list_head\000"
 3895      6C795F6C 
 3895      6973745F 
 3895      68656164 
 3895      00
 3896              	.LASF41:
 3897 01b0 61726776 		.ascii	"argv\000"
 3897      00
 3898              	.LASF78:
 3899 01b5 6B615F66 		.ascii	"ka_free\000"
 3899      72656500 
 3900              	.LASF96:
 3901 01bd 463A5C6B 		.ascii	"F:\\kaka\\KAKAOS\\C\\windows\\Project\\RVMDK\243\250"
 3901      616B615C 
 3901      4B414B41 
 3901      4F535C43 
 3901      5C77696E 
ARM GAS  G:\Users\Jaxb\AppData\Local\Temp\cc9lI2vO.s 			page 77


 3902 01e5 757635A3 		.ascii	"uv5\243\251\000"
 3902      A900
 3903              	.LASF10:
 3904 01eb 6C6F6E67 		.ascii	"long long int\000"
 3904      206C6F6E 
 3904      6720696E 
 3904      7400
 3905              	.LASF30:
 3906 01f9 666C6167 		.ascii	"flag\000"
 3906      00
 3907              	.LASF44:
 3908 01fe 62756666 		.ascii	"buffer_reserve\000"
 3908      65725F72 
 3908      65736572 
 3908      766500
 3909              	.LASF70:
 3910 020d 6B615F6D 		.ascii	"ka_malloc\000"
 3910      616C6C6F 
 3910      6300
 3911              	.LASF55:
 3912 0217 7368656C 		.ascii	"shell_TCB_check\000"
 3912      6C5F5443 
 3912      425F6368 
 3912      65636B00 
 3913              	.LASF88:
 3914 0227 7368656C 		.ascii	"shell_v_write\000"
 3914      6C5F765F 
 3914      77726974 
 3914      6500
 3915              	.LASF72:
 3916 0235 6368616E 		.ascii	"change_shell_buffer\000"
 3916      67655F73 
 3916      68656C6C 
 3916      5F627566 
 3916      66657200 
 3917              	.LASF21:
 3918 0249 42756464 		.ascii	"Buddy_Space_Type\000"
 3918      795F5370 
 3918      6163655F 
 3918      54797065 
 3918      00
 3919              	.LASF87:
 3920 025a 7368656C 		.ascii	"shell_v_display_addr\000"
 3920      6C5F765F 
 3920      64697370 
 3920      6C61795F 
 3920      61646472 
 3921              	.LASF66:
 3922 026f 6B615F70 		.ascii	"ka_printf\000"
 3922      72696E74 
 3922      6600
 3923              	.LASF79:
 3924 0279 616C6C6F 		.ascii	"alloc_power3_page\000"
 3924      635F706F 
 3924      77657233 
 3924      5F706167 
 3924      6500
ARM GAS  G:\Users\Jaxb\AppData\Local\Temp\cc9lI2vO.s 			page 78


 3925              	.LASF76:
 3926 028b 646C6D6F 		.ascii	"dlmodule_exec\000"
 3926      64756C65 
 3926      5F657865 
 3926      6300
 3927              	.LASF18:
 3928 0299 62756464 		.ascii	"buddy_space_struct\000"
 3928      795F7370 
 3928      6163655F 
 3928      73747275 
 3928      637400
 3929              	.LASF63:
 3930 02ac 7368656C 		.ascii	"shell_time\000"
 3930      6C5F7469 
 3930      6D6500
 3931              	.LASF27:
 3932 02b7 6C657665 		.ascii	"level_flag_base_size\000"
 3932      6C5F666C 
 3932      61675F62 
 3932      6173655F 
 3932      73697A65 
 3933              	.LASF83:
 3934 02cc 7368656C 		.ascii	"shell_check_TCB_list\000"
 3934      6C5F6368 
 3934      65636B5F 
 3934      5443425F 
 3934      6C697374 
 3935              	.LASF69:
 3936 02e1 6B615F61 		.ascii	"ka_atoi\000"
 3936      746F6900 
 3937              	.LASF11:
 3938 02e9 756E7369 		.ascii	"unsigned char\000"
 3938      676E6564 
 3938      20636861 
 3938      7200
 3939              	.LASF89:
 3940 02f7 7368656C 		.ascii	"shell_v_display\000"
 3940      6C5F765F 
 3940      64697370 
 3940      6C617900 
 3941              	.LASF47:
 3942 0307 61726763 		.ascii	"argc\000"
 3942      00
 3943              	.LASF81:
 3944 030c 5F415353 		.ascii	"_ASSERT\000"
 3944      45525400 
 3945              	.LASF8:
 3946 0314 7369676E 		.ascii	"signed char\000"
 3946      65642063 
 3946      68617200 
 3947              	.LASF17:
 3948 0320 6C6F6E67 		.ascii	"long long unsigned int\000"
 3948      206C6F6E 
 3948      6720756E 
 3948      7369676E 
 3948      65642069 
 3949              	.LASF64:
ARM GAS  G:\Users\Jaxb\AppData\Local\Temp\cc9lI2vO.s 			page 79


 3950 0337 7368656C 		.ascii	"shell_version\000"
 3950      6C5F7665 
 3950      7273696F 
 3950      6E00
 3951              	.LASF16:
 3952 0345 756E7369 		.ascii	"unsigned int\000"
 3952      676E6564 
 3952      20696E74 
 3952      00
 3953              	.LASF35:
 3954 0352 6C657665 		.ascii	"level_flag_base\000"
 3954      6C5F666C 
 3954      61675F62 
 3954      61736500 
 3955              	.LASF50:
 3956 0362 7368656C 		.ascii	"shell_module\000"
 3956      6C5F6D6F 
 3956      64756C65 
 3956      00
 3957              	.LASF19:
 3958 036f 466C6167 		.ascii	"Flag_Type\000"
 3958      5F547970 
 3958      6500
 3959              	.LASF32:
 3960 0379 6F726465 		.ascii	"order_link_first\000"
 3960      725F6C69 
 3960      6E6B5F66 
 3960      69727374 
 3960      00
 3961              	.LASF36:
 3962 038a 62756464 		.ascii	"buddy_struct_size\000"
 3962      795F7374 
 3962      72756374 
 3962      5F73697A 
 3962      6500
 3963              	.LASF25:
 3964 039c 6D61785F 		.ascii	"max_level\000"
 3964      6C657665 
 3964      6C00
 3965              	.LASF14:
 3966 03a6 73686F72 		.ascii	"short unsigned int\000"
 3966      7420756E 
 3966      7369676E 
 3966      65642069 
 3966      6E7400
 3967              	.LASF13:
 3968 03b9 55494E54 		.ascii	"UINT16\000"
 3968      313600
 3969              	.LASF7:
 3970 03c0 63686172 		.ascii	"char\000"
 3970      00
 3971              	.LASF4:
 3972 03c5 7368656C 		.ascii	"shell_v_type\000"
 3972      6C5F765F 
 3972      74797065 
 3972      00
 3973              	.LASF46:
ARM GAS  G:\Users\Jaxb\AppData\Local\Temp\cc9lI2vO.s 			page 80


 3974 03d2 696E6465 		.ascii	"index_reserve\000"
 3974      785F7265 
 3974      73657276 
 3974      6500
 3975              	.LASF93:
 3976 03e0 73797374 		.ascii	"system_time_display\000"
 3976      656D5F74 
 3976      696D655F 
 3976      64697370 
 3976      6C617900 
 3977              	.LASF6:
 3978 03f4 6C697374 		.ascii	"list\000"
 3978      00
 3979              	.LASF97:
 3980 03f9 675F696E 		.ascii	"g_interrupt_count\000"
 3980      74657272 
 3980      7570745F 
 3980      636F756E 
 3980      7400
 3981              	.LASF43:
 3982 040b 62756666 		.ascii	"buffer\000"
 3982      657200
 3983              	.LASF65:
 3984 0412 74657374 		.ascii	"test\000"
 3984      00
 3985              	.LASF42:
 3986 0417 61726776 		.ascii	"argv_reserve\000"
 3986      5F726573 
 3986      65727665 
 3986      00
 3987              	.LASF29:
 3988 0424 62756464 		.ascii	"buddy\000"
 3988      7900
 3989              	.LASF67:
 3990 042a 7379735F 		.ascii	"sys_shutdown\000"
 3990      73687574 
 3990      646F776E 
 3990      00
 3991              	.LASF51:
 3992 0437 7368656C 		.ascii	"shell_buf_ptr\000"
 3992      6C5F6275 
 3992      665F7074 
 3992      7200
 3993              	.LASF56:
 3994 0445 7368656C 		.ascii	"shell_addr\000"
 3994      6C5F6164 
 3994      647200
 3995              	.LASF61:
 3996 0450 7368656C 		.ascii	"shell_memory\000"
 3996      6C5F6D65 
 3996      6D6F7279 
 3996      00
 3997              	.LASF53:
 3998 045d 7379735F 		.ascii	"sys_shell_buffer_ptr\000"
 3998      7368656C 
 3998      6C5F6275 
 3998      66666572 
ARM GAS  G:\Users\Jaxb\AppData\Local\Temp\cc9lI2vO.s 			page 81


 3998      5F707472 
 3999              	.LASF57:
 4000 0472 7368656C 		.ascii	"shell_variable_ptr\000"
 4000      6C5F7661 
 4000      72696162 
 4000      6C655F70 
 4000      747200
 4001              	.LASF22:
 4002 0485 62756464 		.ascii	"buddy_info\000"
 4002      795F696E 
 4002      666F00
 4003              	.LASF74:
 4004 0490 7368656C 		.ascii	"shell_buffer_wait_str\000"
 4004      6C5F6275 
 4004      66666572 
 4004      5F776169 
 4004      745F7374 
 4005              	.LASF38:
 4006 04a6 696E666F 		.ascii	"info\000"
 4006      00
 4007              	.LASF39:
 4008 04ab 62756464 		.ascii	"buddy_space_start_ptr\000"
 4008      795F7370 
 4008      6163655F 
 4008      73746172 
 4008      745F7074 
 4009              	.LASF37:
 4010 04c1 63757272 		.ascii	"current_page_num\000"
 4010      656E745F 
 4010      70616765 
 4010      5F6E756D 
 4010      00
 4011              	.LASF84:
 4012 04d2 7368656C 		.ascii	"shell_check_os_ready\000"
 4012      6C5F6368 
 4012      65636B5F 
 4012      6F735F72 
 4012      65616479 
 4013              	.LASF90:
 4014 04e7 6765745F 		.ascii	"get_os_buddy_ptr_head\000"
 4014      6F735F62 
 4014      75646479 
 4014      5F707472 
 4014      5F686561 
 4015              	.LASF94:
 4016 04fd 474E5520 		.ascii	"GNU C11 7.3.1 20180622 (release) [ARM/embedded-7-br"
 4016      43313120 
 4016      372E332E 
 4016      31203230 
 4016      31383036 
 4017 0530 616E6368 		.ascii	"anch revision 261907] -mcpu=cortex-m3 -mthumb -mapc"
 4017      20726576 
 4017      6973696F 
 4017      6E203236 
 4017      31393037 
 4018 0563 732D6672 		.ascii	"s-frame -mthumb-interwork -mcpu=cortex-m3 -mthumb -"
 4018      616D6520 
ARM GAS  G:\Users\Jaxb\AppData\Local\Temp\cc9lI2vO.s 			page 82


 4018      2D6D7468 
 4018      756D622D 
 4018      696E7465 
 4019 0596 67647761 		.ascii	"gdwarf-2 -O2\000"
 4019      72662D32 
 4019      202D4F32 
 4019      00
 4020              	.LASF75:
 4021 05a3 73686F77 		.ascii	"show_get_size\000"
 4021      5F676574 
 4021      5F73697A 
 4021      6500
 4022              	.LASF23:
 4023 05b1 666C6167 		.ascii	"flag_array_num\000"
 4023      5F617272 
 4023      61795F6E 
 4023      756D00
 4024              	.LASF62:
 4025 05c0 62756464 		.ascii	"buddy_ptr\000"
 4025      795F7074 
 4025      7200
 4026              	.LASF34:
 4027 05ca 6F726465 		.ascii	"order_array\000"
 4027      725F6172 
 4027      72617900 
 4028              	.LASF26:
 4029 05d6 7072696F 		.ascii	"prio\000"
 4029      00
 4030              	.LASF5:
 4031 05db 64617461 		.ascii	"data_ptr\000"
 4031      5F707472 
 4031      00
 4032              	.LASF2:
 4033 05e4 6E657874 		.ascii	"next\000"
 4033      00
 4034              	.LASF77:
 4035 05e9 636C6561 		.ascii	"clear_module_buffer\000"
 4035      725F6D6F 
 4035      64756C65 
 4035      5F627566 
 4035      66657200 
 4036              	.LASF12:
 4037 05fd 5368656C 		.ascii	"Shell_V_Type\000"
 4037      6C5F565F 
 4037      54797065 
 4037      00
 4038              		.ident	"GCC: (GNU Tools for Arm Embedded Processors 7-2018-q2-update) 7.3.1 20180622 (release) [AR
ARM GAS  G:\Users\Jaxb\AppData\Local\Temp\cc9lI2vO.s 			page 83


DEFINED SYMBOLS
                            *ABS*:00000000 shell_fun.c
G:\Users\Jaxb\AppData\Local\Temp\cc9lI2vO.s:15     .text:00000000 $t
G:\Users\Jaxb\AppData\Local\Temp\cc9lI2vO.s:23     .text:00000000 test
G:\Users\Jaxb\AppData\Local\Temp\cc9lI2vO.s:70     .text:00000020 $d
G:\Users\Jaxb\AppData\Local\Temp\cc9lI2vO.s:74     .text:00000024 $t
G:\Users\Jaxb\AppData\Local\Temp\cc9lI2vO.s:82     .text:00000024 shell_version
G:\Users\Jaxb\AppData\Local\Temp\cc9lI2vO.s:98     .text:0000002c $d
G:\Users\Jaxb\AppData\Local\Temp\cc9lI2vO.s:102    .text:00000030 $t
G:\Users\Jaxb\AppData\Local\Temp\cc9lI2vO.s:110    .text:00000030 shell_time
G:\Users\Jaxb\AppData\Local\Temp\cc9lI2vO.s:132    .text:00000034 shell_memory
G:\Users\Jaxb\AppData\Local\Temp\cc9lI2vO.s:239    .text:000000b0 $d
G:\Users\Jaxb\AppData\Local\Temp\cc9lI2vO.s:250    .text:000000d0 $t
G:\Users\Jaxb\AppData\Local\Temp\cc9lI2vO.s:258    .text:000000d0 shell_clear
G:\Users\Jaxb\AppData\Local\Temp\cc9lI2vO.s:292    .text:000000e4 $d
G:\Users\Jaxb\AppData\Local\Temp\cc9lI2vO.s:296    .text:000000e8 $t
G:\Users\Jaxb\AppData\Local\Temp\cc9lI2vO.s:304    .text:000000e8 shell_echo
G:\Users\Jaxb\AppData\Local\Temp\cc9lI2vO.s:372    .text:00000114 $d
G:\Users\Jaxb\AppData\Local\Temp\cc9lI2vO.s:377    .text:0000011c $t
G:\Users\Jaxb\AppData\Local\Temp\cc9lI2vO.s:385    .text:0000011c shell_set
G:\Users\Jaxb\AppData\Local\Temp\cc9lI2vO.s:459    .text:0000014c $d
G:\Users\Jaxb\AppData\Local\Temp\cc9lI2vO.s:464    .text:00000154 $t
G:\Users\Jaxb\AppData\Local\Temp\cc9lI2vO.s:472    .text:00000154 shell_addr
G:\Users\Jaxb\AppData\Local\Temp\cc9lI2vO.s:540    .text:00000180 $d
G:\Users\Jaxb\AppData\Local\Temp\cc9lI2vO.s:545    .text:00000188 $t
G:\Users\Jaxb\AppData\Local\Temp\cc9lI2vO.s:553    .text:00000188 shell_TCB_check
G:\Users\Jaxb\AppData\Local\Temp\cc9lI2vO.s:591    .text:0000019c shell_reboot
G:\Users\Jaxb\AppData\Local\Temp\cc9lI2vO.s:613    .text:000001a0 shell_module
G:\Users\Jaxb\AppData\Local\Temp\cc9lI2vO.s:788    .text:00000254 $d
G:\Users\Jaxb\AppData\Local\Temp\cc9lI2vO.s:798    .text:00000270 $t
G:\Users\Jaxb\AppData\Local\Temp\cc9lI2vO.s:806    .text:00000270 shell_sleep
G:\Users\Jaxb\AppData\Local\Temp\cc9lI2vO.s:839    .text:00000288 $d
G:\Users\Jaxb\AppData\Local\Temp\cc9lI2vO.s:844    .text:00000290 $t
G:\Users\Jaxb\AppData\Local\Temp\cc9lI2vO.s:852    .text:00000290 shell_shutdown
G:\Users\Jaxb\AppData\Local\Temp\cc9lI2vO.s:881    .text:000002a0 $d
G:\Users\Jaxb\AppData\Local\Temp\cc9lI2vO.s:886    .rodata.str1.4:00000000 $d

UNDEFINED SYMBOLS
ka_printf
system_time_display
get_os_buddy_ptr_head
get_current_buddy_space
get_next_buddy_ptr_head
_ASSERT
find_in_variable_array
shell_v_display
shell_v_write
shell_v_display_addr
shell_check_TCB_list
shell_check_os_ready
shell_delay_heap_check
ReBoot
ka_atoi
ka_malloc
__init_shell_buffer
change_shell_buffer
set_module_buffer
ARM GAS  G:\Users\Jaxb\AppData\Local\Temp\cc9lI2vO.s 			page 84


shell_buffer_wait_str
show_get_size
dlmodule_exec
clear_module_buffer
ka_free
alloc_power3_page
add_page_alloc_record
sys_sleep
sys_shutdown
