ARM GAS  G:\Users\Jaxb\AppData\Local\Temp\cc4bSeK5.s 			page 1


   1              		.cpu cortex-m3
   2              		.eabi_attribute 20, 1
   3              		.eabi_attribute 21, 1
   4              		.eabi_attribute 23, 3
   5              		.eabi_attribute 24, 1
   6              		.eabi_attribute 25, 1
   7              		.eabi_attribute 26, 1
   8              		.eabi_attribute 30, 2
   9              		.eabi_attribute 34, 1
  10              		.eabi_attribute 18, 4
  11              		.file	"shell_fun.c"
  12              		.text
  13              	.Ltext0:
  14              		.cfi_sections	.debug_frame
  15              		.align	1
  16              		.p2align 2,,3
  17              		.global	test
  18              		.syntax unified
  19              		.thumb
  20              		.thumb_func
  21              		.fpu softvfp
  22              		.type	test, %function
  23              	test:
  24              	.LFB16:
  25              		.file 1 "../../source/src/kernel/SHELL/shell_fun.c"
   1:../../source/src/kernel/SHELL/shell_fun.c **** #include <shell_fun.h>
   2:../../source/src/kernel/SHELL/shell_fun.c **** #include <os_time.h>
   3:../../source/src/kernel/SHELL/shell_fun.c **** #include <myMicroLIB.h>
   4:../../source/src/kernel/SHELL/shell_fun.c **** #include <buddy.h>
   5:../../source/src/kernel/SHELL/shell_fun.c **** #include <shell_debug.h>
   6:../../source/src/kernel/SHELL/shell_fun.c **** #include <myassert.h>
   7:../../source/src/kernel/SHELL/shell_fun.c **** #include <shell.h>
   8:../../source/src/kernel/SHELL/shell_fun.c **** #include <os_delay.h>
   9:../../source/src/kernel/SHELL/shell_fun.c **** #include <os_ready.h>
  10:../../source/src/kernel/SHELL/shell_fun.c **** #include <os_TCB_list.h>
  11:../../source/src/kernel/SHELL/shell_fun.c **** #include <printf_debug.h>
  12:../../source/src/kernel/SHELL/shell_fun.c **** #include <buddy.h>
  13:../../source/src/kernel/SHELL/shell_fun.c **** #include <osinit.h>
  14:../../source/src/kernel/SHELL/shell_fun.c **** #include <module.h>
  15:../../source/src/kernel/SHELL/shell_fun.c **** 
  16:../../source/src/kernel/SHELL/shell_fun.c **** #if CONFIG_SHELL_EN
  17:../../source/src/kernel/SHELL/shell_fun.c **** 
  18:../../source/src/kernel/SHELL/shell_fun.c **** //add corresponding function here
  19:../../source/src/kernel/SHELL/shell_fun.c **** void test(int argc, char const *argv[])
  20:../../source/src/kernel/SHELL/shell_fun.c **** {
  26              		.loc 1 20 0
  27              		.cfi_startproc
  28              		@ args = 0, pretend = 0, frame = 0
  29              		@ frame_needed = 0, uses_anonymous_args = 0
  30              	.LVL0:
  31 0000 F8B5     		push	{r3, r4, r5, r6, r7, lr}
  32              	.LCFI0:
  33              		.cfi_def_cfa_offset 24
  34              		.cfi_offset 3, -24
  35              		.cfi_offset 4, -20
  36              		.cfi_offset 5, -16
  37              		.cfi_offset 6, -12
ARM GAS  G:\Users\Jaxb\AppData\Local\Temp\cc4bSeK5.s 			page 2


  38              		.cfi_offset 7, -8
  39              		.cfi_offset 14, -4
  21:../../source/src/kernel/SHELL/shell_fun.c **** 	(void)argc;
  22:../../source/src/kernel/SHELL/shell_fun.c **** 	(void)argv;
  23:../../source/src/kernel/SHELL/shell_fun.c **** 	int i;
  24:../../source/src/kernel/SHELL/shell_fun.c **** 	for(i=0;i<argc;++i)
  40              		.loc 1 24 0
  41 0002 061E     		subs	r6, r0, #0
  42 0004 0BDD     		ble	.L1
  43 0006 0024     		movs	r4, #0
  25:../../source/src/kernel/SHELL/shell_fun.c **** 	{
  26:../../source/src/kernel/SHELL/shell_fun.c **** 		ka_printf("parament %d : %s\n",i,argv[i]);
  44              		.loc 1 26 0
  45 0008 054F     		ldr	r7, .L6
  46 000a 0D1F     		subs	r5, r1, #4
  47              	.LVL1:
  48              	.L3:
  49              		.loc 1 26 0 is_stmt 0 discriminator 3
  50 000c 2146     		mov	r1, r4
  51 000e 55F8042F 		ldr	r2, [r5, #4]!
  52 0012 3846     		mov	r0, r7
  24:../../source/src/kernel/SHELL/shell_fun.c **** 	{
  53              		.loc 1 24 0 is_stmt 1 discriminator 3
  54 0014 0134     		adds	r4, r4, #1
  55              	.LVL2:
  56              		.loc 1 26 0 discriminator 3
  57 0016 FFF7FEFF 		bl	ka_printf
  58              	.LVL3:
  24:../../source/src/kernel/SHELL/shell_fun.c **** 	{
  59              		.loc 1 24 0 discriminator 3
  60 001a A642     		cmp	r6, r4
  61 001c F6D1     		bne	.L3
  62              	.LVL4:
  63              	.L1:
  27:../../source/src/kernel/SHELL/shell_fun.c **** 	}
  28:../../source/src/kernel/SHELL/shell_fun.c **** }
  64              		.loc 1 28 0
  65 001e F8BD     		pop	{r3, r4, r5, r6, r7, pc}
  66              	.LVL5:
  67              	.L7:
  68              		.align	2
  69              	.L6:
  70 0020 00000000 		.word	.LC0
  71              		.cfi_endproc
  72              	.LFE16:
  73              		.size	test, .-test
  74              		.align	1
  75              		.p2align 2,,3
  76              		.global	shell_version
  77              		.syntax unified
  78              		.thumb
  79              		.thumb_func
  80              		.fpu softvfp
  81              		.type	shell_version, %function
  82              	shell_version:
  83              	.LFB17:
  29:../../source/src/kernel/SHELL/shell_fun.c **** void shell_version(int argc, char const *argv[])
ARM GAS  G:\Users\Jaxb\AppData\Local\Temp\cc4bSeK5.s 			page 3


  30:../../source/src/kernel/SHELL/shell_fun.c **** {
  84              		.loc 1 30 0
  85              		.cfi_startproc
  86              		@ args = 0, pretend = 0, frame = 0
  87              		@ frame_needed = 0, uses_anonymous_args = 0
  88              		@ link register save eliminated.
  89              	.LVL6:
  31:../../source/src/kernel/SHELL/shell_fun.c **** 	(void)argc;
  32:../../source/src/kernel/SHELL/shell_fun.c **** 	(void)argv;
  33:../../source/src/kernel/SHELL/shell_fun.c **** 	ka_printf("VERSION : KAKAOS--0.07\n");
  90              		.loc 1 33 0
  91 0024 0148     		ldr	r0, .L9
  92              	.LVL7:
  93 0026 FFF7FEBF 		b	ka_printf
  94              	.LVL8:
  95              	.L10:
  96 002a 00BF     		.align	2
  97              	.L9:
  98 002c 14000000 		.word	.LC1
  99              		.cfi_endproc
 100              	.LFE17:
 101              		.size	shell_version, .-shell_version
 102              		.align	1
 103              		.p2align 2,,3
 104              		.global	shell_time
 105              		.syntax unified
 106              		.thumb
 107              		.thumb_func
 108              		.fpu softvfp
 109              		.type	shell_time, %function
 110              	shell_time:
 111              	.LFB18:
  34:../../source/src/kernel/SHELL/shell_fun.c **** }
  35:../../source/src/kernel/SHELL/shell_fun.c **** #if CONFIG_TIME_EN
  36:../../source/src/kernel/SHELL/shell_fun.c **** void shell_time(int argc, char const *argv[])
  37:../../source/src/kernel/SHELL/shell_fun.c **** {
 112              		.loc 1 37 0
 113              		.cfi_startproc
 114              		@ args = 0, pretend = 0, frame = 0
 115              		@ frame_needed = 0, uses_anonymous_args = 0
 116              		@ link register save eliminated.
 117              	.LVL9:
  38:../../source/src/kernel/SHELL/shell_fun.c **** 	(void)argc;
  39:../../source/src/kernel/SHELL/shell_fun.c **** 	(void)argv;
  40:../../source/src/kernel/SHELL/shell_fun.c **** 	system_time_display();
 118              		.loc 1 40 0
 119 0030 FFF7FEBF 		b	system_time_display
 120              	.LVL10:
 121              		.cfi_endproc
 122              	.LFE18:
 123              		.size	shell_time, .-shell_time
 124              		.align	1
 125              		.p2align 2,,3
 126              		.global	shell_memory
 127              		.syntax unified
 128              		.thumb
 129              		.thumb_func
ARM GAS  G:\Users\Jaxb\AppData\Local\Temp\cc4bSeK5.s 			page 4


 130              		.fpu softvfp
 131              		.type	shell_memory, %function
 132              	shell_memory:
 133              	.LFB19:
  41:../../source/src/kernel/SHELL/shell_fun.c **** }
  42:../../source/src/kernel/SHELL/shell_fun.c **** #endif
  43:../../source/src/kernel/SHELL/shell_fun.c **** void shell_memory(int argc, char const *argv[])
  44:../../source/src/kernel/SHELL/shell_fun.c **** {
 134              		.loc 1 44 0
 135              		.cfi_startproc
 136              		@ args = 0, pretend = 0, frame = 0
 137              		@ frame_needed = 0, uses_anonymous_args = 0
 138              	.LVL11:
 139 0034 2DE9F041 		push	{r4, r5, r6, r7, r8, lr}
 140              	.LCFI1:
 141              		.cfi_def_cfa_offset 24
 142              		.cfi_offset 4, -24
 143              		.cfi_offset 5, -20
 144              		.cfi_offset 6, -16
 145              		.cfi_offset 7, -12
 146              		.cfi_offset 8, -8
 147              		.cfi_offset 14, -4
  45:../../source/src/kernel/SHELL/shell_fun.c **** 	(void)argc;
  46:../../source/src/kernel/SHELL/shell_fun.c **** 	(void)argv;
  47:../../source/src/kernel/SHELL/shell_fun.c **** 	struct buddy *buddy_ptr = (struct buddy *)get_os_buddy_ptr_head();
 148              		.loc 1 47 0
 149 0038 FFF7FEFF 		bl	get_os_buddy_ptr_head
 150              	.LVL12:
  48:../../source/src/kernel/SHELL/shell_fun.c **** 	ASSERT(NULL != buddy_ptr);
 151              		.loc 1 48 0
 152 003c 0446     		mov	r4, r0
 153 003e 80B3     		cbz	r0, .L16
 154 0040 0025     		movs	r5, #0
  49:../../source/src/kernel/SHELL/shell_fun.c **** 	unsigned int j = 0;
  50:../../source/src/kernel/SHELL/shell_fun.c **** 	while(NULL != buddy_ptr)
  51:../../source/src/kernel/SHELL/shell_fun.c **** 	{
  52:../../source/src/kernel/SHELL/shell_fun.c **** 		PRINTF("NO.%u memory : \n",j++);
 155              		.loc 1 52 0
 156 0042 DFF88880 		ldr	r8, .L17+28
  53:../../source/src/kernel/SHELL/shell_fun.c **** 		PRINTF("=====================================================\n");
 157              		.loc 1 53 0
 158 0046 1A4F     		ldr	r7, .L17
  54:../../source/src/kernel/SHELL/shell_fun.c **** 		PRINTF("start address is %p\n",buddy_ptr->buddy_space_start_ptr);
 159              		.loc 1 54 0
 160 0048 1A4E     		ldr	r6, .L17+4
 161              	.L13:
 162              	.LVL13:
  52:../../source/src/kernel/SHELL/shell_fun.c **** 		PRINTF("=====================================================\n");
 163              		.loc 1 52 0
 164 004a 2946     		mov	r1, r5
 165 004c 4046     		mov	r0, r8
 166              	.LVL14:
 167 004e FFF7FEFF 		bl	ka_printf
 168              	.LVL15:
  53:../../source/src/kernel/SHELL/shell_fun.c **** 		PRINTF("=====================================================\n");
 169              		.loc 1 53 0
 170 0052 3846     		mov	r0, r7
ARM GAS  G:\Users\Jaxb\AppData\Local\Temp\cc4bSeK5.s 			page 5


 171 0054 FFF7FEFF 		bl	ka_printf
 172              	.LVL16:
 173              		.loc 1 54 0
 174 0058 A16B     		ldr	r1, [r4, #56]
 175 005a 3046     		mov	r0, r6
 176 005c FFF7FEFF 		bl	ka_printf
 177              	.LVL17:
  55:../../source/src/kernel/SHELL/shell_fun.c **** 		PRINTF("rest buddy space is %u\n",get_current_buddy_space());
 178              		.loc 1 55 0
 179 0060 FFF7FEFF 		bl	get_current_buddy_space
 180              	.LVL18:
 181 0064 0146     		mov	r1, r0
 182 0066 1448     		ldr	r0, .L17+8
 183 0068 FFF7FEFF 		bl	ka_printf
 184              	.LVL19:
  56:../../source/src/kernel/SHELL/shell_fun.c **** 		PRINTF("the total space is %uKB\n",PAGE_SIZE_KB * buddy_ptr->info.page_num);
 185              		.loc 1 56 0
 186 006c 616A     		ldr	r1, [r4, #36]
 187 006e 1348     		ldr	r0, .L17+12
 188 0070 FFF7FEFF 		bl	ka_printf
 189              	.LVL20:
  57:../../source/src/kernel/SHELL/shell_fun.c **** 		PRINTF("now there are %u%% left\n",100*get_current_buddy_space()/(PAGE_SIZE_KB * buddy_ptr->info.
 190              		.loc 1 57 0
 191 0074 FFF7FEFF 		bl	get_current_buddy_space
 192              	.LVL21:
 193 0078 6423     		movs	r3, #100
 194 007a 03FB00F3 		mul	r3, r3, r0
 195 007e 616A     		ldr	r1, [r4, #36]
 196 0080 0F48     		ldr	r0, .L17+16
 197 0082 B3FBF1F1 		udiv	r1, r3, r1
 198 0086 FFF7FEFF 		bl	ka_printf
 199              	.LVL22:
  58:../../source/src/kernel/SHELL/shell_fun.c **** 		PRINTF("\n\n");
 200              		.loc 1 58 0
 201 008a 0E48     		ldr	r0, .L17+20
 202 008c FFF7FEFF 		bl	ka_printf
 203              	.LVL23:
  59:../../source/src/kernel/SHELL/shell_fun.c **** 		buddy_ptr = (struct buddy *)get_next_buddy_ptr_head(buddy_ptr);
 204              		.loc 1 59 0
 205 0090 2046     		mov	r0, r4
 206 0092 FFF7FEFF 		bl	get_next_buddy_ptr_head
 207              	.LVL24:
  52:../../source/src/kernel/SHELL/shell_fun.c **** 		PRINTF("=====================================================\n");
 208              		.loc 1 52 0
 209 0096 0135     		adds	r5, r5, #1
 210              	.LVL25:
  50:../../source/src/kernel/SHELL/shell_fun.c **** 	{
 211              		.loc 1 50 0
 212 0098 0446     		mov	r4, r0
 213 009a 0028     		cmp	r0, #0
 214 009c D5D1     		bne	.L13
  60:../../source/src/kernel/SHELL/shell_fun.c **** 	}
  61:../../source/src/kernel/SHELL/shell_fun.c **** }
 215              		.loc 1 61 0
 216 009e BDE8F081 		pop	{r4, r5, r6, r7, r8, pc}
 217              	.LVL26:
 218              	.L16:
ARM GAS  G:\Users\Jaxb\AppData\Local\Temp\cc4bSeK5.s 			page 6


  48:../../source/src/kernel/SHELL/shell_fun.c **** 	unsigned int j = 0;
 219              		.loc 1 48 0 discriminator 1
 220 00a2 3021     		movs	r1, #48
 221              		.loc 1 61 0 discriminator 1
 222 00a4 BDE8F041 		pop	{r4, r5, r6, r7, r8, lr}
 223              	.LCFI2:
 224              		.cfi_restore 14
 225              		.cfi_restore 8
 226              		.cfi_restore 7
 227              		.cfi_restore 6
 228              		.cfi_restore 5
 229              		.cfi_restore 4
 230              		.cfi_def_cfa_offset 0
  48:../../source/src/kernel/SHELL/shell_fun.c **** 	unsigned int j = 0;
 231              		.loc 1 48 0 discriminator 1
 232 00a8 0748     		ldr	r0, .L17+24
 233              	.LVL27:
 234 00aa FFF7FEBF 		b	_ASSERT
 235              	.LVL28:
 236              	.L18:
 237 00ae 00BF     		.align	2
 238              	.L17:
 239 00b0 6C000000 		.word	.LC4
 240 00b4 A4000000 		.word	.LC5
 241 00b8 BC000000 		.word	.LC6
 242 00bc D4000000 		.word	.LC7
 243 00c0 F0000000 		.word	.LC8
 244 00c4 0C010000 		.word	.LC9
 245 00c8 2C000000 		.word	.LC2
 246 00cc 58000000 		.word	.LC3
 247              		.cfi_endproc
 248              	.LFE19:
 249              		.size	shell_memory, .-shell_memory
 250              		.align	1
 251              		.p2align 2,,3
 252              		.global	shell_clear
 253              		.syntax unified
 254              		.thumb
 255              		.thumb_func
 256              		.fpu softvfp
 257              		.type	shell_clear, %function
 258              	shell_clear:
 259              	.LFB20:
  62:../../source/src/kernel/SHELL/shell_fun.c **** void shell_clear(int argc, char const *argv[])
  63:../../source/src/kernel/SHELL/shell_fun.c **** {
 260              		.loc 1 63 0
 261              		.cfi_startproc
 262              		@ args = 0, pretend = 0, frame = 0
 263              		@ frame_needed = 0, uses_anonymous_args = 0
 264              	.LVL29:
 265 00d0 38B5     		push	{r3, r4, r5, lr}
 266              	.LCFI3:
 267              		.cfi_def_cfa_offset 16
 268              		.cfi_offset 3, -16
 269              		.cfi_offset 4, -12
 270              		.cfi_offset 5, -8
 271              		.cfi_offset 14, -4
ARM GAS  G:\Users\Jaxb\AppData\Local\Temp\cc4bSeK5.s 			page 7


 272              		.loc 1 63 0
 273 00d2 2824     		movs	r4, #40
  64:../../source/src/kernel/SHELL/shell_fun.c **** 	(void)argc;
  65:../../source/src/kernel/SHELL/shell_fun.c **** 	(void)argv;
  66:../../source/src/kernel/SHELL/shell_fun.c **** 	unsigned int i;
  67:../../source/src/kernel/SHELL/shell_fun.c **** 	for(i=0;i<40;++i)
  68:../../source/src/kernel/SHELL/shell_fun.c **** 	{
  69:../../source/src/kernel/SHELL/shell_fun.c **** 		ka_printf("\n");
 274              		.loc 1 69 0
 275 00d4 034D     		ldr	r5, .L22
 276              	.LVL30:
 277              	.L20:
 278              		.loc 1 69 0 is_stmt 0 discriminator 3
 279 00d6 2846     		mov	r0, r5
 280 00d8 FFF7FEFF 		bl	ka_printf
 281              	.LVL31:
  67:../../source/src/kernel/SHELL/shell_fun.c **** 	{
 282              		.loc 1 67 0 is_stmt 1 discriminator 3
 283 00dc 013C     		subs	r4, r4, #1
 284              	.LVL32:
 285 00de FAD1     		bne	.L20
  70:../../source/src/kernel/SHELL/shell_fun.c **** 	}
  71:../../source/src/kernel/SHELL/shell_fun.c **** }
 286              		.loc 1 71 0
 287 00e0 38BD     		pop	{r3, r4, r5, pc}
 288              	.LVL33:
 289              	.L23:
 290 00e2 00BF     		.align	2
 291              	.L22:
 292 00e4 10010000 		.word	.LC10
 293              		.cfi_endproc
 294              	.LFE20:
 295              		.size	shell_clear, .-shell_clear
 296              		.align	1
 297              		.p2align 2,,3
 298              		.global	shell_echo
 299              		.syntax unified
 300              		.thumb
 301              		.thumb_func
 302              		.fpu softvfp
 303              		.type	shell_echo, %function
 304              	shell_echo:
 305              	.LFB21:
  72:../../source/src/kernel/SHELL/shell_fun.c **** #if CONFIG_SHELL_DEBUG_EN && CONFIG_SHELL_EN
  73:../../source/src/kernel/SHELL/shell_fun.c **** void shell_echo(int argc, char const *argv[])
  74:../../source/src/kernel/SHELL/shell_fun.c **** {
 306              		.loc 1 74 0
 307              		.cfi_startproc
 308              		@ args = 0, pretend = 0, frame = 0
 309              		@ frame_needed = 0, uses_anonymous_args = 0
 310              	.LVL34:
  75:../../source/src/kernel/SHELL/shell_fun.c **** 	if(argc < 2)
 311              		.loc 1 75 0
 312 00e8 0128     		cmp	r0, #1
  74:../../source/src/kernel/SHELL/shell_fun.c **** 	if(argc < 2)
 313              		.loc 1 74 0
 314 00ea 08B5     		push	{r3, lr}
ARM GAS  G:\Users\Jaxb\AppData\Local\Temp\cc4bSeK5.s 			page 8


 315              	.LCFI4:
 316              		.cfi_def_cfa_offset 8
 317              		.cfi_offset 3, -8
 318              		.cfi_offset 14, -4
 319              		.loc 1 75 0
 320 00ec 07DD     		ble	.L27
  76:../../source/src/kernel/SHELL/shell_fun.c **** 	{
  77:../../source/src/kernel/SHELL/shell_fun.c **** 		ka_printf("too few arguments!\n");
  78:../../source/src/kernel/SHELL/shell_fun.c **** 		return ;
  79:../../source/src/kernel/SHELL/shell_fun.c **** 	}
  80:../../source/src/kernel/SHELL/shell_fun.c **** 	struct shell_variable *shell_variable_ptr = find_in_variable_array(argv[1]);
 321              		.loc 1 80 0
 322 00ee 4868     		ldr	r0, [r1, #4]
 323              	.LVL35:
 324 00f0 FFF7FEFF 		bl	find_in_variable_array
 325              	.LVL36:
  81:../../source/src/kernel/SHELL/shell_fun.c **** 	if(NULL == shell_variable_ptr)
 326              		.loc 1 81 0
 327 00f4 40B1     		cbz	r0, .L28
  82:../../source/src/kernel/SHELL/shell_fun.c **** 	{
  83:../../source/src/kernel/SHELL/shell_fun.c **** 		ka_printf("no such variable\n");
  84:../../source/src/kernel/SHELL/shell_fun.c **** 		return ;
  85:../../source/src/kernel/SHELL/shell_fun.c **** 	}
  86:../../source/src/kernel/SHELL/shell_fun.c **** 	shell_v_display(shell_variable_ptr);
  87:../../source/src/kernel/SHELL/shell_fun.c **** 	return ;
  88:../../source/src/kernel/SHELL/shell_fun.c **** }
 328              		.loc 1 88 0
 329 00f6 BDE80840 		pop	{r3, lr}
 330              	.LCFI5:
 331              		.cfi_remember_state
 332              		.cfi_restore 14
 333              		.cfi_restore 3
 334              		.cfi_def_cfa_offset 0
  86:../../source/src/kernel/SHELL/shell_fun.c **** 	return ;
 335              		.loc 1 86 0
 336 00fa FFF7FEBF 		b	shell_v_display
 337              	.LVL37:
 338              	.L27:
 339              	.LCFI6:
 340              		.cfi_restore_state
  77:../../source/src/kernel/SHELL/shell_fun.c **** 		return ;
 341              		.loc 1 77 0
 342 00fe 0548     		ldr	r0, .L29
 343              	.LVL38:
 344              		.loc 1 88 0
 345 0100 BDE80840 		pop	{r3, lr}
 346              	.LCFI7:
 347              		.cfi_remember_state
 348              		.cfi_restore 14
 349              		.cfi_restore 3
 350              		.cfi_def_cfa_offset 0
  77:../../source/src/kernel/SHELL/shell_fun.c **** 		return ;
 351              		.loc 1 77 0
 352 0104 FFF7FEBF 		b	ka_printf
 353              	.LVL39:
 354              	.L28:
 355              	.LCFI8:
ARM GAS  G:\Users\Jaxb\AppData\Local\Temp\cc4bSeK5.s 			page 9


 356              		.cfi_restore_state
  83:../../source/src/kernel/SHELL/shell_fun.c **** 		return ;
 357              		.loc 1 83 0
 358 0108 0348     		ldr	r0, .L29+4
 359              	.LVL40:
 360              		.loc 1 88 0
 361 010a BDE80840 		pop	{r3, lr}
 362              	.LCFI9:
 363              		.cfi_restore 14
 364              		.cfi_restore 3
 365              		.cfi_def_cfa_offset 0
  83:../../source/src/kernel/SHELL/shell_fun.c **** 		return ;
 366              		.loc 1 83 0
 367 010e FFF7FEBF 		b	ka_printf
 368              	.LVL41:
 369              	.L30:
 370 0112 00BF     		.align	2
 371              	.L29:
 372 0114 14010000 		.word	.LC11
 373 0118 28010000 		.word	.LC12
 374              		.cfi_endproc
 375              	.LFE21:
 376              		.size	shell_echo, .-shell_echo
 377              		.align	1
 378              		.p2align 2,,3
 379              		.global	shell_set
 380              		.syntax unified
 381              		.thumb
 382              		.thumb_func
 383              		.fpu softvfp
 384              		.type	shell_set, %function
 385              	shell_set:
 386              	.LFB22:
  89:../../source/src/kernel/SHELL/shell_fun.c **** 
  90:../../source/src/kernel/SHELL/shell_fun.c **** void shell_set(int argc, char const *argv[])
  91:../../source/src/kernel/SHELL/shell_fun.c **** {
 387              		.loc 1 91 0
 388              		.cfi_startproc
 389              		@ args = 0, pretend = 0, frame = 0
 390              		@ frame_needed = 0, uses_anonymous_args = 0
 391              	.LVL42:
  92:../../source/src/kernel/SHELL/shell_fun.c **** 	if(argc < 3)
 392              		.loc 1 92 0
 393 011c 0228     		cmp	r0, #2
  91:../../source/src/kernel/SHELL/shell_fun.c **** 	if(argc < 3)
 394              		.loc 1 91 0
 395 011e 10B5     		push	{r4, lr}
 396              	.LCFI10:
 397              		.cfi_def_cfa_offset 8
 398              		.cfi_offset 4, -8
 399              		.cfi_offset 14, -4
  91:../../source/src/kernel/SHELL/shell_fun.c **** 	if(argc < 3)
 400              		.loc 1 91 0
 401 0120 0C46     		mov	r4, r1
 402              		.loc 1 92 0
 403 0122 08DD     		ble	.L34
  93:../../source/src/kernel/SHELL/shell_fun.c **** 	{
ARM GAS  G:\Users\Jaxb\AppData\Local\Temp\cc4bSeK5.s 			page 10


  94:../../source/src/kernel/SHELL/shell_fun.c **** 		ka_printf("too few arguments!\n");
  95:../../source/src/kernel/SHELL/shell_fun.c **** 		return ;
  96:../../source/src/kernel/SHELL/shell_fun.c **** 	}
  97:../../source/src/kernel/SHELL/shell_fun.c **** 	struct shell_variable *shell_variable_ptr;
  98:../../source/src/kernel/SHELL/shell_fun.c **** 	shell_variable_ptr = find_in_variable_array(argv[1]);
 404              		.loc 1 98 0
 405 0124 4868     		ldr	r0, [r1, #4]
 406              	.LVL43:
 407 0126 FFF7FEFF 		bl	find_in_variable_array
 408              	.LVL44:
  99:../../source/src/kernel/SHELL/shell_fun.c **** 	if(NULL == shell_variable_ptr)
 409              		.loc 1 99 0
 410 012a 48B1     		cbz	r0, .L35
 100:../../source/src/kernel/SHELL/shell_fun.c **** 	{
 101:../../source/src/kernel/SHELL/shell_fun.c **** 		ka_printf("no such variable!\n");
 102:../../source/src/kernel/SHELL/shell_fun.c **** 		return ;
 103:../../source/src/kernel/SHELL/shell_fun.c **** 	}
 104:../../source/src/kernel/SHELL/shell_fun.c **** 	shell_v_write(shell_variable_ptr,(const char *)argv[2]);
 411              		.loc 1 104 0
 412 012c A168     		ldr	r1, [r4, #8]
 105:../../source/src/kernel/SHELL/shell_fun.c **** 	return ;
 106:../../source/src/kernel/SHELL/shell_fun.c **** }
 413              		.loc 1 106 0
 414 012e BDE81040 		pop	{r4, lr}
 415              	.LCFI11:
 416              		.cfi_remember_state
 417              		.cfi_restore 14
 418              		.cfi_restore 4
 419              		.cfi_def_cfa_offset 0
 420              	.LVL45:
 104:../../source/src/kernel/SHELL/shell_fun.c **** 	return ;
 421              		.loc 1 104 0
 422 0132 FFF7FEBF 		b	shell_v_write
 423              	.LVL46:
 424              	.L34:
 425              	.LCFI12:
 426              		.cfi_restore_state
  94:../../source/src/kernel/SHELL/shell_fun.c **** 		return ;
 427              		.loc 1 94 0
 428 0136 0548     		ldr	r0, .L36
 429              	.LVL47:
 430              		.loc 1 106 0
 431 0138 BDE81040 		pop	{r4, lr}
 432              	.LCFI13:
 433              		.cfi_remember_state
 434              		.cfi_restore 14
 435              		.cfi_restore 4
 436              		.cfi_def_cfa_offset 0
  94:../../source/src/kernel/SHELL/shell_fun.c **** 		return ;
 437              		.loc 1 94 0
 438 013c FFF7FEBF 		b	ka_printf
 439              	.LVL48:
 440              	.L35:
 441              	.LCFI14:
 442              		.cfi_restore_state
 101:../../source/src/kernel/SHELL/shell_fun.c **** 		return ;
 443              		.loc 1 101 0
ARM GAS  G:\Users\Jaxb\AppData\Local\Temp\cc4bSeK5.s 			page 11


 444 0140 0348     		ldr	r0, .L36+4
 445              	.LVL49:
 446              		.loc 1 106 0
 447 0142 BDE81040 		pop	{r4, lr}
 448              	.LCFI15:
 449              		.cfi_restore 14
 450              		.cfi_restore 4
 451              		.cfi_def_cfa_offset 0
 452              	.LVL50:
 101:../../source/src/kernel/SHELL/shell_fun.c **** 		return ;
 453              		.loc 1 101 0
 454 0146 FFF7FEBF 		b	ka_printf
 455              	.LVL51:
 456              	.L37:
 457 014a 00BF     		.align	2
 458              	.L36:
 459 014c 14010000 		.word	.LC11
 460 0150 3C010000 		.word	.LC13
 461              		.cfi_endproc
 462              	.LFE22:
 463              		.size	shell_set, .-shell_set
 464              		.align	1
 465              		.p2align 2,,3
 466              		.global	shell_addr
 467              		.syntax unified
 468              		.thumb
 469              		.thumb_func
 470              		.fpu softvfp
 471              		.type	shell_addr, %function
 472              	shell_addr:
 473              	.LFB23:
 107:../../source/src/kernel/SHELL/shell_fun.c **** 
 108:../../source/src/kernel/SHELL/shell_fun.c **** void shell_addr(int argc, char const *argv[])
 109:../../source/src/kernel/SHELL/shell_fun.c **** {
 474              		.loc 1 109 0
 475              		.cfi_startproc
 476              		@ args = 0, pretend = 0, frame = 0
 477              		@ frame_needed = 0, uses_anonymous_args = 0
 478              	.LVL52:
 110:../../source/src/kernel/SHELL/shell_fun.c **** 	if(argc < 2)
 479              		.loc 1 110 0
 480 0154 0128     		cmp	r0, #1
 109:../../source/src/kernel/SHELL/shell_fun.c **** 	if(argc < 2)
 481              		.loc 1 109 0
 482 0156 08B5     		push	{r3, lr}
 483              	.LCFI16:
 484              		.cfi_def_cfa_offset 8
 485              		.cfi_offset 3, -8
 486              		.cfi_offset 14, -4
 487              		.loc 1 110 0
 488 0158 07DD     		ble	.L41
 111:../../source/src/kernel/SHELL/shell_fun.c **** 	{
 112:../../source/src/kernel/SHELL/shell_fun.c **** 		ka_printf("too few arguments!\n");
 113:../../source/src/kernel/SHELL/shell_fun.c **** 		return ;
 114:../../source/src/kernel/SHELL/shell_fun.c **** 	}
 115:../../source/src/kernel/SHELL/shell_fun.c **** 	struct shell_variable *shell_variable_ptr = find_in_variable_array(argv[1]);
 489              		.loc 1 115 0
ARM GAS  G:\Users\Jaxb\AppData\Local\Temp\cc4bSeK5.s 			page 12


 490 015a 4868     		ldr	r0, [r1, #4]
 491              	.LVL53:
 492 015c FFF7FEFF 		bl	find_in_variable_array
 493              	.LVL54:
 116:../../source/src/kernel/SHELL/shell_fun.c **** 	if(NULL == shell_variable_ptr)
 494              		.loc 1 116 0
 495 0160 40B1     		cbz	r0, .L42
 117:../../source/src/kernel/SHELL/shell_fun.c **** 	{
 118:../../source/src/kernel/SHELL/shell_fun.c **** 		ka_printf("no such variable\n");
 119:../../source/src/kernel/SHELL/shell_fun.c **** 		return ;
 120:../../source/src/kernel/SHELL/shell_fun.c **** 	}
 121:../../source/src/kernel/SHELL/shell_fun.c **** 	shell_v_display_addr(shell_variable_ptr);
 122:../../source/src/kernel/SHELL/shell_fun.c **** }
 496              		.loc 1 122 0
 497 0162 BDE80840 		pop	{r3, lr}
 498              	.LCFI17:
 499              		.cfi_remember_state
 500              		.cfi_restore 14
 501              		.cfi_restore 3
 502              		.cfi_def_cfa_offset 0
 121:../../source/src/kernel/SHELL/shell_fun.c **** }
 503              		.loc 1 121 0
 504 0166 FFF7FEBF 		b	shell_v_display_addr
 505              	.LVL55:
 506              	.L41:
 507              	.LCFI18:
 508              		.cfi_restore_state
 112:../../source/src/kernel/SHELL/shell_fun.c **** 		return ;
 509              		.loc 1 112 0
 510 016a 0548     		ldr	r0, .L43
 511              	.LVL56:
 512              		.loc 1 122 0
 513 016c BDE80840 		pop	{r3, lr}
 514              	.LCFI19:
 515              		.cfi_remember_state
 516              		.cfi_restore 14
 517              		.cfi_restore 3
 518              		.cfi_def_cfa_offset 0
 112:../../source/src/kernel/SHELL/shell_fun.c **** 		return ;
 519              		.loc 1 112 0
 520 0170 FFF7FEBF 		b	ka_printf
 521              	.LVL57:
 522              	.L42:
 523              	.LCFI20:
 524              		.cfi_restore_state
 118:../../source/src/kernel/SHELL/shell_fun.c **** 		return ;
 525              		.loc 1 118 0
 526 0174 0348     		ldr	r0, .L43+4
 527              	.LVL58:
 528              		.loc 1 122 0
 529 0176 BDE80840 		pop	{r3, lr}
 530              	.LCFI21:
 531              		.cfi_restore 14
 532              		.cfi_restore 3
 533              		.cfi_def_cfa_offset 0
 118:../../source/src/kernel/SHELL/shell_fun.c **** 		return ;
 534              		.loc 1 118 0
ARM GAS  G:\Users\Jaxb\AppData\Local\Temp\cc4bSeK5.s 			page 13


 535 017a FFF7FEBF 		b	ka_printf
 536              	.LVL59:
 537              	.L44:
 538 017e 00BF     		.align	2
 539              	.L43:
 540 0180 14010000 		.word	.LC11
 541 0184 28010000 		.word	.LC12
 542              		.cfi_endproc
 543              	.LFE23:
 544              		.size	shell_addr, .-shell_addr
 545              		.align	1
 546              		.p2align 2,,3
 547              		.global	shell_TCB_check
 548              		.syntax unified
 549              		.thumb
 550              		.thumb_func
 551              		.fpu softvfp
 552              		.type	shell_TCB_check, %function
 553              	shell_TCB_check:
 554              	.LFB24:
 123:../../source/src/kernel/SHELL/shell_fun.c **** #endif
 124:../../source/src/kernel/SHELL/shell_fun.c **** 
 125:../../source/src/kernel/SHELL/shell_fun.c **** void shell_TCB_check(int argc, char const *argv[])
 126:../../source/src/kernel/SHELL/shell_fun.c **** {
 555              		.loc 1 126 0
 556              		.cfi_startproc
 557              		@ args = 0, pretend = 0, frame = 0
 558              		@ frame_needed = 0, uses_anonymous_args = 0
 559              	.LVL60:
 560 0188 08B5     		push	{r3, lr}
 561              	.LCFI22:
 562              		.cfi_def_cfa_offset 8
 563              		.cfi_offset 3, -8
 564              		.cfi_offset 14, -4
 127:../../source/src/kernel/SHELL/shell_fun.c **** 	(void)argc;
 128:../../source/src/kernel/SHELL/shell_fun.c **** 	(void)argv;
 129:../../source/src/kernel/SHELL/shell_fun.c **** 	shell_check_TCB_list();
 565              		.loc 1 129 0
 566 018a FFF7FEFF 		bl	shell_check_TCB_list
 567              	.LVL61:
 130:../../source/src/kernel/SHELL/shell_fun.c **** 	shell_check_os_ready();
 568              		.loc 1 130 0
 569 018e FFF7FEFF 		bl	shell_check_os_ready
 570              	.LVL62:
 131:../../source/src/kernel/SHELL/shell_fun.c **** 	shell_delay_heap_check();
 132:../../source/src/kernel/SHELL/shell_fun.c **** }
 571              		.loc 1 132 0
 572 0192 BDE80840 		pop	{r3, lr}
 573              	.LCFI23:
 574              		.cfi_restore 14
 575              		.cfi_restore 3
 576              		.cfi_def_cfa_offset 0
 131:../../source/src/kernel/SHELL/shell_fun.c **** 	shell_delay_heap_check();
 577              		.loc 1 131 0
 578 0196 FFF7FEBF 		b	shell_delay_heap_check
 579              	.LVL63:
 580              		.cfi_endproc
ARM GAS  G:\Users\Jaxb\AppData\Local\Temp\cc4bSeK5.s 			page 14


 581              	.LFE24:
 582              		.size	shell_TCB_check, .-shell_TCB_check
 583              		.align	1
 584 019a 00BF     		.p2align 2,,3
 585              		.global	shell_reboot
 586              		.syntax unified
 587              		.thumb
 588              		.thumb_func
 589              		.fpu softvfp
 590              		.type	shell_reboot, %function
 591              	shell_reboot:
 592              	.LFB25:
 133:../../source/src/kernel/SHELL/shell_fun.c **** 
 134:../../source/src/kernel/SHELL/shell_fun.c **** extern void ReBoot();
 135:../../source/src/kernel/SHELL/shell_fun.c **** void shell_reboot(int argc, char const *argv[])
 136:../../source/src/kernel/SHELL/shell_fun.c **** {
 593              		.loc 1 136 0
 594              		.cfi_startproc
 595              		@ args = 0, pretend = 0, frame = 0
 596              		@ frame_needed = 0, uses_anonymous_args = 0
 597              		@ link register save eliminated.
 598              	.LVL64:
 137:../../source/src/kernel/SHELL/shell_fun.c **** 	(void)argc;
 138:../../source/src/kernel/SHELL/shell_fun.c **** 	(void)argv;
 139:../../source/src/kernel/SHELL/shell_fun.c **** 	ReBoot();
 599              		.loc 1 139 0
 600 019c FFF7FEBF 		b	ReBoot
 601              	.LVL65:
 602              		.cfi_endproc
 603              	.LFE25:
 604              		.size	shell_reboot, .-shell_reboot
 605              		.align	1
 606              		.p2align 2,,3
 607              		.global	shell_module
 608              		.syntax unified
 609              		.thumb
 610              		.thumb_func
 611              		.fpu softvfp
 612              		.type	shell_module, %function
 613              	shell_module:
 614              	.LFB26:
 140:../../source/src/kernel/SHELL/shell_fun.c **** }
 141:../../source/src/kernel/SHELL/shell_fun.c **** 
 142:../../source/src/kernel/SHELL/shell_fun.c **** extern void show_get_size(void);
 143:../../source/src/kernel/SHELL/shell_fun.c **** extern int add_page_alloc_record(unsigned int level,void *ptr);
 144:../../source/src/kernel/SHELL/shell_fun.c **** void shell_module(int argc, char const *argv[])
 145:../../source/src/kernel/SHELL/shell_fun.c **** {
 615              		.loc 1 145 0
 616              		.cfi_startproc
 617              		@ args = 0, pretend = 0, frame = 96
 618              		@ frame_needed = 0, uses_anonymous_args = 0
 619              	.LVL66:
 620 01a0 30B5     		push	{r4, r5, lr}
 621              	.LCFI24:
 622              		.cfi_def_cfa_offset 12
 623              		.cfi_offset 4, -12
 624              		.cfi_offset 5, -8
ARM GAS  G:\Users\Jaxb\AppData\Local\Temp\cc4bSeK5.s 			page 15


 625              		.cfi_offset 14, -4
 146:../../source/src/kernel/SHELL/shell_fun.c **** 	void *buf;
 147:../../source/src/kernel/SHELL/shell_fun.c **** 	char *shell_buf_ptr;
 148:../../source/src/kernel/SHELL/shell_fun.c **** 	if(1 == argc)
 626              		.loc 1 148 0
 627 01a2 0128     		cmp	r0, #1
 145:../../source/src/kernel/SHELL/shell_fun.c **** 	void *buf;
 628              		.loc 1 145 0
 629 01a4 99B0     		sub	sp, sp, #100
 630              	.LCFI25:
 631              		.cfi_def_cfa_offset 112
 632              		.loc 1 148 0
 633 01a6 36D0     		beq	.L56
 149:../../source/src/kernel/SHELL/shell_fun.c **** 	{
 150:../../source/src/kernel/SHELL/shell_fun.c **** 		buf = alloc_power3_page();
 151:../../source/src/kernel/SHELL/shell_fun.c **** 		if(0 > add_page_alloc_record(3,buf))
 152:../../source/src/kernel/SHELL/shell_fun.c **** 		{
 153:../../source/src/kernel/SHELL/shell_fun.c **** 			ASSERT(0);
 154:../../source/src/kernel/SHELL/shell_fun.c **** 		}
 155:../../source/src/kernel/SHELL/shell_fun.c **** 	}
 156:../../source/src/kernel/SHELL/shell_fun.c **** 	else
 157:../../source/src/kernel/SHELL/shell_fun.c **** 	{
 158:../../source/src/kernel/SHELL/shell_fun.c **** 		buf = ka_malloc(ka_atoi(argv[1]));
 634              		.loc 1 158 0
 635 01a8 4868     		ldr	r0, [r1, #4]
 636              	.LVL67:
 637 01aa FFF7FEFF 		bl	ka_atoi
 638              	.LVL68:
 639 01ae FFF7FEFF 		bl	ka_malloc
 640              	.LVL69:
 641 01b2 0446     		mov	r4, r0
 642              	.LVL70:
 643              	.L49:
 159:../../source/src/kernel/SHELL/shell_fun.c **** 	}
 160:../../source/src/kernel/SHELL/shell_fun.c **** 	if (NULL == buf)
 644              		.loc 1 160 0
 645 01b4 002C     		cmp	r4, #0
 646 01b6 3DD0     		beq	.L57
 647              	.L50:
 161:../../source/src/kernel/SHELL/shell_fun.c **** 	{
 162:../../source/src/kernel/SHELL/shell_fun.c **** 		ka_printf("no enough room for module\n");
 163:../../source/src/kernel/SHELL/shell_fun.c **** 		return ;
 164:../../source/src/kernel/SHELL/shell_fun.c **** 	}
 165:../../source/src/kernel/SHELL/shell_fun.c **** 
 166:../../source/src/kernel/SHELL/shell_fun.c **** 	struct shell_buffer shell_buffer;
 167:../../source/src/kernel/SHELL/shell_fun.c **** 	shell_buf_ptr = (char *)ka_malloc(20);
 648              		.loc 1 167 0
 649 01b8 1420     		movs	r0, #20
 650 01ba FFF7FEFF 		bl	ka_malloc
 651              	.LVL71:
 168:../../source/src/kernel/SHELL/shell_fun.c **** 	if(NULL == shell_buf_ptr)
 652              		.loc 1 168 0
 653 01be 0546     		mov	r5, r0
 654 01c0 08B3     		cbz	r0, .L58
 169:../../source/src/kernel/SHELL/shell_fun.c **** 	{
 170:../../source/src/kernel/SHELL/shell_fun.c **** 		ka_printf("no enough room for module\n");
 171:../../source/src/kernel/SHELL/shell_fun.c **** 		goto out;
ARM GAS  G:\Users\Jaxb\AppData\Local\Temp\cc4bSeK5.s 			page 16


 172:../../source/src/kernel/SHELL/shell_fun.c **** 	}
 173:../../source/src/kernel/SHELL/shell_fun.c **** 	if(__init_shell_buffer(&shell_buffer,shell_buf_ptr,NULL) < 0)
 655              		.loc 1 173 0
 656 01c2 6846     		mov	r0, sp
 657              	.LVL72:
 658 01c4 0022     		movs	r2, #0
 659 01c6 2946     		mov	r1, r5
 660 01c8 FFF7FEFF 		bl	__init_shell_buffer
 661              	.LVL73:
 662 01cc 0028     		cmp	r0, #0
 663 01ce 36DB     		blt	.L59
 174:../../source/src/kernel/SHELL/shell_fun.c **** 	{
 175:../../source/src/kernel/SHELL/shell_fun.c **** 		ka_printf("module change buffer error\n");
 176:../../source/src/kernel/SHELL/shell_fun.c **** 		goto out1;
 177:../../source/src/kernel/SHELL/shell_fun.c **** 	}
 178:../../source/src/kernel/SHELL/shell_fun.c **** 	struct shell_buffer *sys_shell_buffer_ptr = change_shell_buffer(&shell_buffer); // save the system
 664              		.loc 1 178 0
 665 01d0 6846     		mov	r0, sp
 666 01d2 FFF7FEFF 		bl	change_shell_buffer
 667              	.LVL74:
 668 01d6 0546     		mov	r5, r0
 669              	.LVL75:
 179:../../source/src/kernel/SHELL/shell_fun.c **** 	set_module_buffer(buf);
 670              		.loc 1 179 0
 671 01d8 2046     		mov	r0, r4
 672              	.LVL76:
 673 01da FFF7FEFF 		bl	set_module_buffer
 674              	.LVL77:
 180:../../source/src/kernel/SHELL/shell_fun.c **** 
 181:../../source/src/kernel/SHELL/shell_fun.c **** 	ka_printf("now transfer the module,input 'end' to end the transformation\n");
 675              		.loc 1 181 0
 676 01de 1B48     		ldr	r0, .L60
 677 01e0 FFF7FEFF 		bl	ka_printf
 678              	.LVL78:
 182:../../source/src/kernel/SHELL/shell_fun.c **** 	
 183:../../source/src/kernel/SHELL/shell_fun.c **** 	shell_buffer_wait_str("end");  // thread will going to sleep
 679              		.loc 1 183 0
 680 01e4 1A48     		ldr	r0, .L60+4
 681 01e6 FFF7FEFF 		bl	shell_buffer_wait_str
 682              	.LVL79:
 184:../../source/src/kernel/SHELL/shell_fun.c **** 
 185:../../source/src/kernel/SHELL/shell_fun.c **** 	show_get_size();
 683              		.loc 1 185 0
 684 01ea FFF7FEFF 		bl	show_get_size
 685              	.LVL80:
 186:../../source/src/kernel/SHELL/shell_fun.c **** 
 187:../../source/src/kernel/SHELL/shell_fun.c **** 	change_shell_buffer(sys_shell_buffer_ptr);
 686              		.loc 1 187 0
 687 01ee 2846     		mov	r0, r5
 688 01f0 FFF7FEFF 		bl	change_shell_buffer
 689              	.LVL81:
 188:../../source/src/kernel/SHELL/shell_fun.c **** 
 189:../../source/src/kernel/SHELL/shell_fun.c **** 	ka_printf("execute module\n");
 690              		.loc 1 189 0
 691 01f4 1748     		ldr	r0, .L60+8
 692 01f6 FFF7FEFF 		bl	ka_printf
 693              	.LVL82:
ARM GAS  G:\Users\Jaxb\AppData\Local\Temp\cc4bSeK5.s 			page 17


 190:../../source/src/kernel/SHELL/shell_fun.c **** 	dlmodule_exec();
 694              		.loc 1 190 0
 695 01fa FFF7FEFF 		bl	dlmodule_exec
 696              	.LVL83:
 191:../../source/src/kernel/SHELL/shell_fun.c **** 	clear_module_buffer();
 697              		.loc 1 191 0
 698 01fe FFF7FEFF 		bl	clear_module_buffer
 699              	.LVL84:
 192:../../source/src/kernel/SHELL/shell_fun.c **** 	return ;
 193:../../source/src/kernel/SHELL/shell_fun.c **** out1:
 194:../../source/src/kernel/SHELL/shell_fun.c **** 	ka_free(shell_buf_ptr);
 195:../../source/src/kernel/SHELL/shell_fun.c **** out:
 196:../../source/src/kernel/SHELL/shell_fun.c **** 	ka_free(buf);
 197:../../source/src/kernel/SHELL/shell_fun.c **** }
 700              		.loc 1 197 0
 701 0202 19B0     		add	sp, sp, #100
 702              	.LCFI26:
 703              		.cfi_remember_state
 704              		.cfi_def_cfa_offset 12
 705              		@ sp needed
 706 0204 30BD     		pop	{r4, r5, pc}
 707              	.LVL85:
 708              	.L58:
 709              	.LCFI27:
 710              		.cfi_restore_state
 170:../../source/src/kernel/SHELL/shell_fun.c **** 		goto out;
 711              		.loc 1 170 0
 712 0206 1448     		ldr	r0, .L60+12
 713              	.LVL86:
 714 0208 FFF7FEFF 		bl	ka_printf
 715              	.LVL87:
 716              	.L53:
 196:../../source/src/kernel/SHELL/shell_fun.c **** }
 717              		.loc 1 196 0
 718 020c 2046     		mov	r0, r4
 719 020e FFF7FEFF 		bl	ka_free
 720              	.LVL88:
 721              		.loc 1 197 0
 722 0212 19B0     		add	sp, sp, #100
 723              	.LCFI28:
 724              		.cfi_remember_state
 725              		.cfi_def_cfa_offset 12
 726              		@ sp needed
 727 0214 30BD     		pop	{r4, r5, pc}
 728              	.LVL89:
 729              	.L56:
 730              	.LCFI29:
 731              		.cfi_restore_state
 150:../../source/src/kernel/SHELL/shell_fun.c **** 		if(0 > add_page_alloc_record(3,buf))
 732              		.loc 1 150 0
 733 0216 FFF7FEFF 		bl	alloc_power3_page
 734              	.LVL90:
 151:../../source/src/kernel/SHELL/shell_fun.c **** 		{
 735              		.loc 1 151 0
 736 021a 0146     		mov	r1, r0
 150:../../source/src/kernel/SHELL/shell_fun.c **** 		if(0 > add_page_alloc_record(3,buf))
 737              		.loc 1 150 0
ARM GAS  G:\Users\Jaxb\AppData\Local\Temp\cc4bSeK5.s 			page 18


 738 021c 0446     		mov	r4, r0
 739              	.LVL91:
 151:../../source/src/kernel/SHELL/shell_fun.c **** 		{
 740              		.loc 1 151 0
 741 021e 0320     		movs	r0, #3
 742              	.LVL92:
 743 0220 FFF7FEFF 		bl	add_page_alloc_record
 744              	.LVL93:
 745 0224 0028     		cmp	r0, #0
 746 0226 C5DA     		bge	.L49
 153:../../source/src/kernel/SHELL/shell_fun.c **** 		}
 747              		.loc 1 153 0 discriminator 1
 748 0228 9921     		movs	r1, #153
 749 022a 0C48     		ldr	r0, .L60+16
 750 022c FFF7FEFF 		bl	_ASSERT
 751              	.LVL94:
 160:../../source/src/kernel/SHELL/shell_fun.c **** 	{
 752              		.loc 1 160 0 discriminator 1
 753 0230 002C     		cmp	r4, #0
 754 0232 C1D1     		bne	.L50
 755              	.L57:
 162:../../source/src/kernel/SHELL/shell_fun.c **** 		return ;
 756              		.loc 1 162 0
 757 0234 0848     		ldr	r0, .L60+12
 758 0236 FFF7FEFF 		bl	ka_printf
 759              	.LVL95:
 760              		.loc 1 197 0
 761 023a 19B0     		add	sp, sp, #100
 762              	.LCFI30:
 763              		.cfi_remember_state
 764              		.cfi_def_cfa_offset 12
 765              		@ sp needed
 766 023c 30BD     		pop	{r4, r5, pc}
 767              	.LVL96:
 768              	.L59:
 769              	.LCFI31:
 770              		.cfi_restore_state
 175:../../source/src/kernel/SHELL/shell_fun.c **** 		goto out1;
 771              		.loc 1 175 0
 772 023e 0848     		ldr	r0, .L60+20
 773 0240 FFF7FEFF 		bl	ka_printf
 774              	.LVL97:
 775              	.LDL1:
 194:../../source/src/kernel/SHELL/shell_fun.c **** out:
 776              		.loc 1 194 0
 777 0244 2846     		mov	r0, r5
 778 0246 FFF7FEFF 		bl	ka_free
 779              	.LVL98:
 780 024a DFE7     		b	.L53
 781              	.L61:
 782              		.align	2
 783              	.L60:
 784 024c 88010000 		.word	.LC16
 785 0250 C8010000 		.word	.LC17
 786 0254 CC010000 		.word	.LC18
 787 0258 50010000 		.word	.LC14
 788 025c 2C000000 		.word	.LC2
ARM GAS  G:\Users\Jaxb\AppData\Local\Temp\cc4bSeK5.s 			page 19


 789 0260 6C010000 		.word	.LC15
 790              		.cfi_endproc
 791              	.LFE26:
 792              		.size	shell_module, .-shell_module
 793              		.align	1
 794              		.p2align 2,,3
 795              		.global	shell_sleep
 796              		.syntax unified
 797              		.thumb
 798              		.thumb_func
 799              		.fpu softvfp
 800              		.type	shell_sleep, %function
 801              	shell_sleep:
 802              	.LFB27:
 198:../../source/src/kernel/SHELL/shell_fun.c **** 
 199:../../source/src/kernel/SHELL/shell_fun.c **** #if CONFIG_POWER_MANAGEMENT
 200:../../source/src/kernel/SHELL/shell_fun.c **** extern void sys_sleep(void);
 201:../../source/src/kernel/SHELL/shell_fun.c **** void shell_sleep(int argc, char const *argv[])
 202:../../source/src/kernel/SHELL/shell_fun.c **** {
 803              		.loc 1 202 0
 804              		.cfi_startproc
 805              		@ args = 0, pretend = 0, frame = 0
 806              		@ frame_needed = 0, uses_anonymous_args = 0
 807              	.LVL99:
 808 0264 08B5     		push	{r3, lr}
 809              	.LCFI32:
 810              		.cfi_def_cfa_offset 8
 811              		.cfi_offset 3, -8
 812              		.cfi_offset 14, -4
 203:../../source/src/kernel/SHELL/shell_fun.c **** 	(void)argc;
 204:../../source/src/kernel/SHELL/shell_fun.c **** 	(void)argv;
 205:../../source/src/kernel/SHELL/shell_fun.c **** 	ka_printf("kernel going to sleep\n"
 813              		.loc 1 205 0
 814 0266 0548     		ldr	r0, .L63
 815              	.LVL100:
 816 0268 FFF7FEFF 		bl	ka_printf
 817              	.LVL101:
 206:../../source/src/kernel/SHELL/shell_fun.c **** 				"any interrupt or a click can wake up kernel\n");
 207:../../source/src/kernel/SHELL/shell_fun.c **** 	sys_sleep();
 818              		.loc 1 207 0
 819 026c FFF7FEFF 		bl	sys_sleep
 820              	.LVL102:
 208:../../source/src/kernel/SHELL/shell_fun.c **** 	ka_printf("kernel run\n");
 209:../../source/src/kernel/SHELL/shell_fun.c **** }
 821              		.loc 1 209 0
 822 0270 BDE80840 		pop	{r3, lr}
 823              	.LCFI33:
 824              		.cfi_restore 14
 825              		.cfi_restore 3
 826              		.cfi_def_cfa_offset 0
 208:../../source/src/kernel/SHELL/shell_fun.c **** 	ka_printf("kernel run\n");
 827              		.loc 1 208 0
 828 0274 0248     		ldr	r0, .L63+4
 829 0276 FFF7FEBF 		b	ka_printf
 830              	.LVL103:
 831              	.L64:
 832 027a 00BF     		.align	2
ARM GAS  G:\Users\Jaxb\AppData\Local\Temp\cc4bSeK5.s 			page 20


 833              	.L63:
 834 027c DC010000 		.word	.LC19
 835 0280 20020000 		.word	.LC20
 836              		.cfi_endproc
 837              	.LFE27:
 838              		.size	shell_sleep, .-shell_sleep
 839              		.align	1
 840              		.p2align 2,,3
 841              		.global	shell_shutdown
 842              		.syntax unified
 843              		.thumb
 844              		.thumb_func
 845              		.fpu softvfp
 846              		.type	shell_shutdown, %function
 847              	shell_shutdown:
 848              	.LFB28:
 210:../../source/src/kernel/SHELL/shell_fun.c **** 
 211:../../source/src/kernel/SHELL/shell_fun.c **** extern void sys_shutdown(void);
 212:../../source/src/kernel/SHELL/shell_fun.c **** void shell_shutdown(int argc, char const *argv[])
 213:../../source/src/kernel/SHELL/shell_fun.c **** {
 849              		.loc 1 213 0
 850              		.cfi_startproc
 851              		@ args = 0, pretend = 0, frame = 0
 852              		@ frame_needed = 0, uses_anonymous_args = 0
 853              	.LVL104:
 854 0284 08B5     		push	{r3, lr}
 855              	.LCFI34:
 856              		.cfi_def_cfa_offset 8
 857              		.cfi_offset 3, -8
 858              		.cfi_offset 14, -4
 214:../../source/src/kernel/SHELL/shell_fun.c **** 	(void)argc;
 215:../../source/src/kernel/SHELL/shell_fun.c **** 	(void)argv;
 216:../../source/src/kernel/SHELL/shell_fun.c **** 	ka_printf("shutdown now\n");
 859              		.loc 1 216 0
 860 0286 0348     		ldr	r0, .L66
 861              	.LVL105:
 862 0288 FFF7FEFF 		bl	ka_printf
 863              	.LVL106:
 217:../../source/src/kernel/SHELL/shell_fun.c **** 	sys_shutdown();
 218:../../source/src/kernel/SHELL/shell_fun.c **** }
 864              		.loc 1 218 0
 865 028c BDE80840 		pop	{r3, lr}
 866              	.LCFI35:
 867              		.cfi_restore 14
 868              		.cfi_restore 3
 869              		.cfi_def_cfa_offset 0
 217:../../source/src/kernel/SHELL/shell_fun.c **** 	sys_shutdown();
 870              		.loc 1 217 0
 871 0290 FFF7FEBF 		b	sys_shutdown
 872              	.LVL107:
 873              	.L67:
 874              		.align	2
 875              	.L66:
 876 0294 2C020000 		.word	.LC21
 877              		.cfi_endproc
 878              	.LFE28:
 879              		.size	shell_shutdown, .-shell_shutdown
ARM GAS  G:\Users\Jaxb\AppData\Local\Temp\cc4bSeK5.s 			page 21


 880              		.section	.rodata.str1.4,"aMS",%progbits,1
 881              		.align	2
 882              	.LC0:
 883 0000 70617261 		.ascii	"parament %d : %s\012\000"
 883      6D656E74 
 883      20256420 
 883      3A202573 
 883      0A00
 884 0012 0000     		.space	2
 885              	.LC1:
 886 0014 56455253 		.ascii	"VERSION : KAKAOS--0.07\012\000"
 886      494F4E20 
 886      3A204B41 
 886      4B414F53 
 886      2D2D302E 
 887              	.LC2:
 888 002c 2E2E2F2E 		.ascii	"../../source/src/kernel/SHELL/shell_fun.c\000"
 888      2E2F736F 
 888      75726365 
 888      2F737263 
 888      2F6B6572 
 889 0056 0000     		.space	2
 890              	.LC3:
 891 0058 4E4F2E25 		.ascii	"NO.%u memory : \012\000"
 891      75206D65 
 891      6D6F7279 
 891      203A200A 
 891      00
 892 0069 000000   		.space	3
 893              	.LC4:
 894 006c 3D3D3D3D 		.ascii	"==================================================="
 894      3D3D3D3D 
 894      3D3D3D3D 
 894      3D3D3D3D 
 894      3D3D3D3D 
 895 009f 3D3D0A00 		.ascii	"==\012\000"
 896 00a3 00       		.space	1
 897              	.LC5:
 898 00a4 73746172 		.ascii	"start address is %p\012\000"
 898      74206164 
 898      64726573 
 898      73206973 
 898      2025700A 
 899 00b9 000000   		.space	3
 900              	.LC6:
 901 00bc 72657374 		.ascii	"rest buddy space is %u\012\000"
 901      20627564 
 901      64792073 
 901      70616365 
 901      20697320 
 902              	.LC7:
 903 00d4 74686520 		.ascii	"the total space is %uKB\012\000"
 903      746F7461 
 903      6C207370 
 903      61636520 
 903      69732025 
 904 00ed 000000   		.space	3
ARM GAS  G:\Users\Jaxb\AppData\Local\Temp\cc4bSeK5.s 			page 22


 905              	.LC8:
 906 00f0 6E6F7720 		.ascii	"now there are %u%% left\012\000"
 906      74686572 
 906      65206172 
 906      65202575 
 906      2525206C 
 907 0109 000000   		.space	3
 908              	.LC9:
 909 010c 0A0A00   		.ascii	"\012\012\000"
 910 010f 00       		.space	1
 911              	.LC10:
 912 0110 0A00     		.ascii	"\012\000"
 913 0112 0000     		.space	2
 914              	.LC11:
 915 0114 746F6F20 		.ascii	"too few arguments!\012\000"
 915      66657720 
 915      61726775 
 915      6D656E74 
 915      73210A00 
 916              	.LC12:
 917 0128 6E6F2073 		.ascii	"no such variable\012\000"
 917      75636820 
 917      76617269 
 917      61626C65 
 917      0A00
 918 013a 0000     		.space	2
 919              	.LC13:
 920 013c 6E6F2073 		.ascii	"no such variable!\012\000"
 920      75636820 
 920      76617269 
 920      61626C65 
 920      210A00
 921 014f 00       		.space	1
 922              	.LC14:
 923 0150 6E6F2065 		.ascii	"no enough room for module\012\000"
 923      6E6F7567 
 923      6820726F 
 923      6F6D2066 
 923      6F72206D 
 924 016b 00       		.space	1
 925              	.LC15:
 926 016c 6D6F6475 		.ascii	"module change buffer error\012\000"
 926      6C652063 
 926      68616E67 
 926      65206275 
 926      66666572 
 927              	.LC16:
 928 0188 6E6F7720 		.ascii	"now transfer the module,input 'end' to end the tran"
 928      7472616E 
 928      73666572 
 928      20746865 
 928      206D6F64 
 929 01bb 73666F72 		.ascii	"sformation\012\000"
 929      6D617469 
 929      6F6E0A00 
 930 01c7 00       		.space	1
 931              	.LC17:
ARM GAS  G:\Users\Jaxb\AppData\Local\Temp\cc4bSeK5.s 			page 23


 932 01c8 656E6400 		.ascii	"end\000"
 933              	.LC18:
 934 01cc 65786563 		.ascii	"execute module\012\000"
 934      75746520 
 934      6D6F6475 
 934      6C650A00 
 935              	.LC19:
 936 01dc 6B65726E 		.ascii	"kernel going to sleep\012any interrupt or a click c"
 936      656C2067 
 936      6F696E67 
 936      20746F20 
 936      736C6565 
 937 020c 616E2077 		.ascii	"an wake up kernel\012\000"
 937      616B6520 
 937      7570206B 
 937      65726E65 
 937      6C0A00
 938 021f 00       		.space	1
 939              	.LC20:
 940 0220 6B65726E 		.ascii	"kernel run\012\000"
 940      656C2072 
 940      756E0A00 
 941              	.LC21:
 942 022c 73687574 		.ascii	"shutdown now\012\000"
 942      646F776E 
 942      206E6F77 
 942      0A00
 943              		.text
 944              	.Letext0:
 945              		.file 2 "../../source/include/os_lib/singly_linked_list.h"
 946              		.file 3 "../../source/include/shell/shell_debug.h"
 947              		.file 4 "../../source/include/os_cpu/kakaosstdint.h"
 948              		.file 5 "../../source/include/os_lib/buddy.h"
 949              		.file 6 "../../source/include/shell/shell.h"
 950              		.file 7 "../../source/include/os_lib/myMicroLIB.h"
 951              		.file 8 "../../source/include/os_core/module.h"
 952              		.file 9 "../../source/include/os_lib/myassert.h"
 953              		.file 10 "../../source/include/os_core/schedule/os_TCB_list.h"
 954              		.file 11 "../../source/include/os_core/schedule/os_ready.h"
 955              		.file 12 "../../source/include/os_core/schedule/os_delay.h"
 956              		.file 13 "../../source/include/os_core/os_time.h"
 957              		.file 14 "../../source/include/os_core/TCB.h"