ARM GAS  G:\Users\Jaxb\AppData\Local\Temp\ccccNtaX.s 			page 1


   1              		.cpu cortex-m3
   2              		.eabi_attribute 20, 1
   3              		.eabi_attribute 21, 1
   4              		.eabi_attribute 23, 3
   5              		.eabi_attribute 24, 1
   6              		.eabi_attribute 25, 1
   7              		.eabi_attribute 26, 1
   8              		.eabi_attribute 30, 6
   9              		.eabi_attribute 34, 1
  10              		.eabi_attribute 18, 4
  11              		.file	"shell_fun.c"
  12              		.text
  13              	.Ltext0:
  14              		.cfi_sections	.debug_frame
  15              		.section	.rodata
  16              		.align	2
  17              	.LC0:
  18 0000 70617261 		.ascii	"parament %d : %s\012\000"
  18      6D656E74 
  18      20256420 
  18      3A202573 
  18      0A00
  19              		.text
  20              		.align	1
  21              		.global	test
  22              		.syntax unified
  23              		.thumb
  24              		.thumb_func
  25              		.fpu softvfp
  26              		.type	test, %function
  27              	test:
  28              	.LFB17:
  29              		.file 1 "../../source/src/kernel/SHELL/shell_fun.c"
   1:../../source/src/kernel/SHELL/shell_fun.c **** #include <shell_fun.h>
   2:../../source/src/kernel/SHELL/shell_fun.c **** #include <os_time.h>
   3:../../source/src/kernel/SHELL/shell_fun.c **** #include <myMicroLIB.h>
   4:../../source/src/kernel/SHELL/shell_fun.c **** #include <buddy.h>
   5:../../source/src/kernel/SHELL/shell_fun.c **** #include <shell_debug.h>
   6:../../source/src/kernel/SHELL/shell_fun.c **** #include <myassert.h>
   7:../../source/src/kernel/SHELL/shell_fun.c **** #include <shell.h>
   8:../../source/src/kernel/SHELL/shell_fun.c **** #include <os_delay.h>
   9:../../source/src/kernel/SHELL/shell_fun.c **** #include <os_ready.h>
  10:../../source/src/kernel/SHELL/shell_fun.c **** #include <os_TCB_list.h>
  11:../../source/src/kernel/SHELL/shell_fun.c **** #include <printf_debug.h>
  12:../../source/src/kernel/SHELL/shell_fun.c **** #include <buddy.h>
  13:../../source/src/kernel/SHELL/shell_fun.c **** #include <osinit.h>
  14:../../source/src/kernel/SHELL/shell_fun.c **** #include <module.h>
  15:../../source/src/kernel/SHELL/shell_fun.c **** 
  16:../../source/src/kernel/SHELL/shell_fun.c **** #if CONFIG_SHELL_EN
  17:../../source/src/kernel/SHELL/shell_fun.c **** 
  18:../../source/src/kernel/SHELL/shell_fun.c **** //add corresponding function here
  19:../../source/src/kernel/SHELL/shell_fun.c **** void test(int argc, char const *argv[])
  20:../../source/src/kernel/SHELL/shell_fun.c **** {
  30              		.loc 1 20 0
  31              		.cfi_startproc
  32              		@ args = 0, pretend = 0, frame = 16
  33              		@ frame_needed = 1, uses_anonymous_args = 0
ARM GAS  G:\Users\Jaxb\AppData\Local\Temp\ccccNtaX.s 			page 2


  34 0000 80B5     		push	{r7, lr}
  35              	.LCFI0:
  36              		.cfi_def_cfa_offset 8
  37              		.cfi_offset 7, -8
  38              		.cfi_offset 14, -4
  39 0002 84B0     		sub	sp, sp, #16
  40              	.LCFI1:
  41              		.cfi_def_cfa_offset 24
  42 0004 00AF     		add	r7, sp, #0
  43              	.LCFI2:
  44              		.cfi_def_cfa_register 7
  45 0006 7860     		str	r0, [r7, #4]
  46 0008 3960     		str	r1, [r7]
  21:../../source/src/kernel/SHELL/shell_fun.c **** 	(void)argc;
  22:../../source/src/kernel/SHELL/shell_fun.c **** 	(void)argv;
  23:../../source/src/kernel/SHELL/shell_fun.c **** 	int i;
  24:../../source/src/kernel/SHELL/shell_fun.c **** 	for(i=0;i<argc;++i)
  47              		.loc 1 24 0
  48 000a 0023     		movs	r3, #0
  49 000c FB60     		str	r3, [r7, #12]
  50 000e 0CE0     		b	.L2
  51              	.L3:
  25:../../source/src/kernel/SHELL/shell_fun.c **** 	{
  26:../../source/src/kernel/SHELL/shell_fun.c **** 		ka_printf("parament %d : %s\n",i,argv[i]);
  52              		.loc 1 26 0 discriminator 3
  53 0010 FB68     		ldr	r3, [r7, #12]
  54 0012 9B00     		lsls	r3, r3, #2
  55 0014 3A68     		ldr	r2, [r7]
  56 0016 1344     		add	r3, r3, r2
  57 0018 1B68     		ldr	r3, [r3]
  58 001a 1A46     		mov	r2, r3
  59 001c F968     		ldr	r1, [r7, #12]
  60 001e 0748     		ldr	r0, .L4
  61 0020 FFF7FEFF 		bl	ka_printf
  24:../../source/src/kernel/SHELL/shell_fun.c **** 	{
  62              		.loc 1 24 0 discriminator 3
  63 0024 FB68     		ldr	r3, [r7, #12]
  64 0026 0133     		adds	r3, r3, #1
  65 0028 FB60     		str	r3, [r7, #12]
  66              	.L2:
  24:../../source/src/kernel/SHELL/shell_fun.c **** 	{
  67              		.loc 1 24 0 is_stmt 0 discriminator 1
  68 002a FA68     		ldr	r2, [r7, #12]
  69 002c 7B68     		ldr	r3, [r7, #4]
  70 002e 9A42     		cmp	r2, r3
  71 0030 EEDB     		blt	.L3
  27:../../source/src/kernel/SHELL/shell_fun.c **** 	}
  28:../../source/src/kernel/SHELL/shell_fun.c **** }
  72              		.loc 1 28 0 is_stmt 1
  73 0032 00BF     		nop
  74 0034 1037     		adds	r7, r7, #16
  75              	.LCFI3:
  76              		.cfi_def_cfa_offset 8
  77 0036 BD46     		mov	sp, r7
  78              	.LCFI4:
  79              		.cfi_def_cfa_register 13
  80              		@ sp needed
ARM GAS  G:\Users\Jaxb\AppData\Local\Temp\ccccNtaX.s 			page 3


  81 0038 80BD     		pop	{r7, pc}
  82              	.L5:
  83 003a 00BF     		.align	2
  84              	.L4:
  85 003c 00000000 		.word	.LC0
  86              		.cfi_endproc
  87              	.LFE17:
  88              		.size	test, .-test
  89              		.section	.rodata
  90 0012 0000     		.align	2
  91              	.LC1:
  92 0014 56455253 		.ascii	"VERSION : KAKAOS--0.07\012\000"
  92      494F4E20 
  92      3A204B41 
  92      4B414F53 
  92      2D2D302E 
  93              		.text
  94              		.align	1
  95              		.global	shell_version
  96              		.syntax unified
  97              		.thumb
  98              		.thumb_func
  99              		.fpu softvfp
 100              		.type	shell_version, %function
 101              	shell_version:
 102              	.LFB18:
  29:../../source/src/kernel/SHELL/shell_fun.c **** void shell_version(int argc, char const *argv[])
  30:../../source/src/kernel/SHELL/shell_fun.c **** {
 103              		.loc 1 30 0
 104              		.cfi_startproc
 105              		@ args = 0, pretend = 0, frame = 8
 106              		@ frame_needed = 1, uses_anonymous_args = 0
 107 0040 80B5     		push	{r7, lr}
 108              	.LCFI5:
 109              		.cfi_def_cfa_offset 8
 110              		.cfi_offset 7, -8
 111              		.cfi_offset 14, -4
 112 0042 82B0     		sub	sp, sp, #8
 113              	.LCFI6:
 114              		.cfi_def_cfa_offset 16
 115 0044 00AF     		add	r7, sp, #0
 116              	.LCFI7:
 117              		.cfi_def_cfa_register 7
 118 0046 7860     		str	r0, [r7, #4]
 119 0048 3960     		str	r1, [r7]
  31:../../source/src/kernel/SHELL/shell_fun.c **** 	(void)argc;
  32:../../source/src/kernel/SHELL/shell_fun.c **** 	(void)argv;
  33:../../source/src/kernel/SHELL/shell_fun.c **** 	ka_printf("VERSION : KAKAOS--0.07\n");
 120              		.loc 1 33 0
 121 004a 0348     		ldr	r0, .L7
 122 004c FFF7FEFF 		bl	ka_printf
  34:../../source/src/kernel/SHELL/shell_fun.c **** }
 123              		.loc 1 34 0
 124 0050 00BF     		nop
 125 0052 0837     		adds	r7, r7, #8
 126              	.LCFI8:
 127              		.cfi_def_cfa_offset 8
ARM GAS  G:\Users\Jaxb\AppData\Local\Temp\ccccNtaX.s 			page 4


 128 0054 BD46     		mov	sp, r7
 129              	.LCFI9:
 130              		.cfi_def_cfa_register 13
 131              		@ sp needed
 132 0056 80BD     		pop	{r7, pc}
 133              	.L8:
 134              		.align	2
 135              	.L7:
 136 0058 14000000 		.word	.LC1
 137              		.cfi_endproc
 138              	.LFE18:
 139              		.size	shell_version, .-shell_version
 140              		.align	1
 141              		.global	shell_time
 142              		.syntax unified
 143              		.thumb
 144              		.thumb_func
 145              		.fpu softvfp
 146              		.type	shell_time, %function
 147              	shell_time:
 148              	.LFB19:
  35:../../source/src/kernel/SHELL/shell_fun.c **** #if CONFIG_TIME_EN
  36:../../source/src/kernel/SHELL/shell_fun.c **** void shell_time(int argc, char const *argv[])
  37:../../source/src/kernel/SHELL/shell_fun.c **** {
 149              		.loc 1 37 0
 150              		.cfi_startproc
 151              		@ args = 0, pretend = 0, frame = 8
 152              		@ frame_needed = 1, uses_anonymous_args = 0
 153 005c 80B5     		push	{r7, lr}
 154              	.LCFI10:
 155              		.cfi_def_cfa_offset 8
 156              		.cfi_offset 7, -8
 157              		.cfi_offset 14, -4
 158 005e 82B0     		sub	sp, sp, #8
 159              	.LCFI11:
 160              		.cfi_def_cfa_offset 16
 161 0060 00AF     		add	r7, sp, #0
 162              	.LCFI12:
 163              		.cfi_def_cfa_register 7
 164 0062 7860     		str	r0, [r7, #4]
 165 0064 3960     		str	r1, [r7]
  38:../../source/src/kernel/SHELL/shell_fun.c **** 	(void)argc;
  39:../../source/src/kernel/SHELL/shell_fun.c **** 	(void)argv;
  40:../../source/src/kernel/SHELL/shell_fun.c **** 	system_time_display();
 166              		.loc 1 40 0
 167 0066 FFF7FEFF 		bl	system_time_display
  41:../../source/src/kernel/SHELL/shell_fun.c **** }
 168              		.loc 1 41 0
 169 006a 00BF     		nop
 170 006c 0837     		adds	r7, r7, #8
 171              	.LCFI13:
 172              		.cfi_def_cfa_offset 8
 173 006e BD46     		mov	sp, r7
 174              	.LCFI14:
 175              		.cfi_def_cfa_register 13
 176              		@ sp needed
 177 0070 80BD     		pop	{r7, pc}
ARM GAS  G:\Users\Jaxb\AppData\Local\Temp\ccccNtaX.s 			page 5


 178              		.cfi_endproc
 179              	.LFE19:
 180              		.size	shell_time, .-shell_time
 181              		.section	.rodata
 182              		.align	2
 183              	.LC2:
 184 002c 2E2E2F2E 		.ascii	"../../source/src/kernel/SHELL/shell_fun.c\000"
 184      2E2F736F 
 184      75726365 
 184      2F737263 
 184      2F6B6572 
 185 0056 0000     		.align	2
 186              	.LC3:
 187 0058 4E4F2E25 		.ascii	"NO.%u memory : \012\000"
 187      75206D65 
 187      6D6F7279 
 187      203A200A 
 187      00
 188 0069 000000   		.align	2
 189              	.LC4:
 190 006c 3D3D3D3D 		.ascii	"==================================================="
 190      3D3D3D3D 
 190      3D3D3D3D 
 190      3D3D3D3D 
 190      3D3D3D3D 
 191 009f 3D3D0A00 		.ascii	"==\012\000"
 192 00a3 00       		.align	2
 193              	.LC5:
 194 00a4 73746172 		.ascii	"start address is %p\012\000"
 194      74206164 
 194      64726573 
 194      73206973 
 194      2025700A 
 195 00b9 000000   		.align	2
 196              	.LC6:
 197 00bc 72657374 		.ascii	"rest buddy space is %u\012\000"
 197      20627564 
 197      64792073 
 197      70616365 
 197      20697320 
 198              		.align	2
 199              	.LC7:
 200 00d4 74686520 		.ascii	"the total space is %uKB\012\000"
 200      746F7461 
 200      6C207370 
 200      61636520 
 200      69732025 
 201 00ed 000000   		.align	2
 202              	.LC8:
 203 00f0 6E6F7720 		.ascii	"now there are %u%% left\012\000"
 203      74686572 
 203      65206172 
 203      65202575 
 203      2525206C 
 204 0109 000000   		.align	2
 205              	.LC9:
 206 010c 0A0A00   		.ascii	"\012\012\000"
ARM GAS  G:\Users\Jaxb\AppData\Local\Temp\ccccNtaX.s 			page 6


 207              		.text
 208              		.align	1
 209              		.global	shell_memory
 210              		.syntax unified
 211              		.thumb
 212              		.thumb_func
 213              		.fpu softvfp
 214              		.type	shell_memory, %function
 215              	shell_memory:
 216              	.LFB20:
  42:../../source/src/kernel/SHELL/shell_fun.c **** #endif
  43:../../source/src/kernel/SHELL/shell_fun.c **** void shell_memory(int argc, char const *argv[])
  44:../../source/src/kernel/SHELL/shell_fun.c **** {
 217              		.loc 1 44 0
 218              		.cfi_startproc
 219              		@ args = 0, pretend = 0, frame = 16
 220              		@ frame_needed = 1, uses_anonymous_args = 0
 221 0072 80B5     		push	{r7, lr}
 222              	.LCFI15:
 223              		.cfi_def_cfa_offset 8
 224              		.cfi_offset 7, -8
 225              		.cfi_offset 14, -4
 226 0074 84B0     		sub	sp, sp, #16
 227              	.LCFI16:
 228              		.cfi_def_cfa_offset 24
 229 0076 00AF     		add	r7, sp, #0
 230              	.LCFI17:
 231              		.cfi_def_cfa_register 7
 232 0078 7860     		str	r0, [r7, #4]
 233 007a 3960     		str	r1, [r7]
  45:../../source/src/kernel/SHELL/shell_fun.c **** 	(void)argc;
  46:../../source/src/kernel/SHELL/shell_fun.c **** 	(void)argv;
  47:../../source/src/kernel/SHELL/shell_fun.c **** 	struct buddy *buddy_ptr = (struct buddy *)get_os_buddy_ptr_head();
 234              		.loc 1 47 0
 235 007c FFF7FEFF 		bl	get_os_buddy_ptr_head
 236 0080 F860     		str	r0, [r7, #12]
  48:../../source/src/kernel/SHELL/shell_fun.c **** 	ASSERT(NULL != buddy_ptr);
 237              		.loc 1 48 0
 238 0082 FB68     		ldr	r3, [r7, #12]
 239 0084 002B     		cmp	r3, #0
 240 0086 03D1     		bne	.L11
 241              		.loc 1 48 0 is_stmt 0 discriminator 1
 242 0088 3021     		movs	r1, #48
 243 008a 1F48     		ldr	r0, .L14
 244 008c FFF7FEFF 		bl	_ASSERT
 245              	.L11:
  49:../../source/src/kernel/SHELL/shell_fun.c **** 	unsigned int j = 0;
 246              		.loc 1 49 0 is_stmt 1
 247 0090 0023     		movs	r3, #0
 248 0092 BB60     		str	r3, [r7, #8]
  50:../../source/src/kernel/SHELL/shell_fun.c **** 	while(NULL != buddy_ptr)
 249              		.loc 1 50 0
 250 0094 31E0     		b	.L12
 251              	.L13:
  51:../../source/src/kernel/SHELL/shell_fun.c **** 	{
  52:../../source/src/kernel/SHELL/shell_fun.c **** 		PRINTF("NO.%u memory : \n",j++);
 252              		.loc 1 52 0
ARM GAS  G:\Users\Jaxb\AppData\Local\Temp\ccccNtaX.s 			page 7


 253 0096 BB68     		ldr	r3, [r7, #8]
 254 0098 5A1C     		adds	r2, r3, #1
 255 009a BA60     		str	r2, [r7, #8]
 256 009c 1946     		mov	r1, r3
 257 009e 1B48     		ldr	r0, .L14+4
 258 00a0 FFF7FEFF 		bl	ka_printf
  53:../../source/src/kernel/SHELL/shell_fun.c **** 		PRINTF("=====================================================\n");
 259              		.loc 1 53 0
 260 00a4 1A48     		ldr	r0, .L14+8
 261 00a6 FFF7FEFF 		bl	ka_printf
  54:../../source/src/kernel/SHELL/shell_fun.c **** 		PRINTF("start address is %p\n",buddy_ptr->buddy_space_start_ptr);
 262              		.loc 1 54 0
 263 00aa FB68     		ldr	r3, [r7, #12]
 264 00ac 9B6B     		ldr	r3, [r3, #56]
 265 00ae 1946     		mov	r1, r3
 266 00b0 1848     		ldr	r0, .L14+12
 267 00b2 FFF7FEFF 		bl	ka_printf
  55:../../source/src/kernel/SHELL/shell_fun.c **** 		PRINTF("rest buddy space is %u\n",get_current_buddy_space());
 268              		.loc 1 55 0
 269 00b6 FFF7FEFF 		bl	get_current_buddy_space
 270 00ba 0346     		mov	r3, r0
 271 00bc 1946     		mov	r1, r3
 272 00be 1648     		ldr	r0, .L14+16
 273 00c0 FFF7FEFF 		bl	ka_printf
  56:../../source/src/kernel/SHELL/shell_fun.c **** 		PRINTF("the total space is %uKB\n",PAGE_SIZE_KB * buddy_ptr->info.page_num);
 274              		.loc 1 56 0
 275 00c4 FB68     		ldr	r3, [r7, #12]
 276 00c6 5B6A     		ldr	r3, [r3, #36]
 277 00c8 1946     		mov	r1, r3
 278 00ca 1448     		ldr	r0, .L14+20
 279 00cc FFF7FEFF 		bl	ka_printf
  57:../../source/src/kernel/SHELL/shell_fun.c **** 		PRINTF("now there are %u%% left\n",100*get_current_buddy_space()/(PAGE_SIZE_KB * buddy_ptr->info.
 280              		.loc 1 57 0
 281 00d0 FFF7FEFF 		bl	get_current_buddy_space
 282 00d4 0246     		mov	r2, r0
 283 00d6 6423     		movs	r3, #100
 284 00d8 03FB02F2 		mul	r2, r3, r2
 285 00dc FB68     		ldr	r3, [r7, #12]
 286 00de 5B6A     		ldr	r3, [r3, #36]
 287 00e0 B2FBF3F3 		udiv	r3, r2, r3
 288 00e4 1946     		mov	r1, r3
 289 00e6 0E48     		ldr	r0, .L14+24
 290 00e8 FFF7FEFF 		bl	ka_printf
  58:../../source/src/kernel/SHELL/shell_fun.c **** 		PRINTF("\n\n");
 291              		.loc 1 58 0
 292 00ec 0D48     		ldr	r0, .L14+28
 293 00ee FFF7FEFF 		bl	ka_printf
  59:../../source/src/kernel/SHELL/shell_fun.c **** 		buddy_ptr = (struct buddy *)get_next_buddy_ptr_head(buddy_ptr);
 294              		.loc 1 59 0
 295 00f2 F868     		ldr	r0, [r7, #12]
 296 00f4 FFF7FEFF 		bl	get_next_buddy_ptr_head
 297 00f8 F860     		str	r0, [r7, #12]
 298              	.L12:
  50:../../source/src/kernel/SHELL/shell_fun.c **** 	{
 299              		.loc 1 50 0
 300 00fa FB68     		ldr	r3, [r7, #12]
 301 00fc 002B     		cmp	r3, #0
ARM GAS  G:\Users\Jaxb\AppData\Local\Temp\ccccNtaX.s 			page 8


 302 00fe CAD1     		bne	.L13
  60:../../source/src/kernel/SHELL/shell_fun.c **** 	}
  61:../../source/src/kernel/SHELL/shell_fun.c **** }
 303              		.loc 1 61 0
 304 0100 00BF     		nop
 305 0102 1037     		adds	r7, r7, #16
 306              	.LCFI18:
 307              		.cfi_def_cfa_offset 8
 308 0104 BD46     		mov	sp, r7
 309              	.LCFI19:
 310              		.cfi_def_cfa_register 13
 311              		@ sp needed
 312 0106 80BD     		pop	{r7, pc}
 313              	.L15:
 314              		.align	2
 315              	.L14:
 316 0108 2C000000 		.word	.LC2
 317 010c 58000000 		.word	.LC3
 318 0110 6C000000 		.word	.LC4
 319 0114 A4000000 		.word	.LC5
 320 0118 BC000000 		.word	.LC6
 321 011c D4000000 		.word	.LC7
 322 0120 F0000000 		.word	.LC8
 323 0124 0C010000 		.word	.LC9
 324              		.cfi_endproc
 325              	.LFE20:
 326              		.size	shell_memory, .-shell_memory
 327              		.section	.rodata
 328 010f 00       		.align	2
 329              	.LC10:
 330 0110 0A00     		.ascii	"\012\000"
 331              		.text
 332              		.align	1
 333              		.global	shell_clear
 334              		.syntax unified
 335              		.thumb
 336              		.thumb_func
 337              		.fpu softvfp
 338              		.type	shell_clear, %function
 339              	shell_clear:
 340              	.LFB21:
  62:../../source/src/kernel/SHELL/shell_fun.c **** void shell_clear(int argc, char const *argv[])
  63:../../source/src/kernel/SHELL/shell_fun.c **** {
 341              		.loc 1 63 0
 342              		.cfi_startproc
 343              		@ args = 0, pretend = 0, frame = 16
 344              		@ frame_needed = 1, uses_anonymous_args = 0
 345 0128 80B5     		push	{r7, lr}
 346              	.LCFI20:
 347              		.cfi_def_cfa_offset 8
 348              		.cfi_offset 7, -8
 349              		.cfi_offset 14, -4
 350 012a 84B0     		sub	sp, sp, #16
 351              	.LCFI21:
 352              		.cfi_def_cfa_offset 24
 353 012c 00AF     		add	r7, sp, #0
 354              	.LCFI22:
ARM GAS  G:\Users\Jaxb\AppData\Local\Temp\ccccNtaX.s 			page 9


 355              		.cfi_def_cfa_register 7
 356 012e 7860     		str	r0, [r7, #4]
 357 0130 3960     		str	r1, [r7]
  64:../../source/src/kernel/SHELL/shell_fun.c **** 	(void)argc;
  65:../../source/src/kernel/SHELL/shell_fun.c **** 	(void)argv;
  66:../../source/src/kernel/SHELL/shell_fun.c **** 	unsigned int i;
  67:../../source/src/kernel/SHELL/shell_fun.c **** 	for(i=0;i<40;++i)
 358              		.loc 1 67 0
 359 0132 0023     		movs	r3, #0
 360 0134 FB60     		str	r3, [r7, #12]
 361 0136 05E0     		b	.L17
 362              	.L18:
  68:../../source/src/kernel/SHELL/shell_fun.c **** 	{
  69:../../source/src/kernel/SHELL/shell_fun.c **** 		ka_printf("\n");
 363              		.loc 1 69 0 discriminator 3
 364 0138 0648     		ldr	r0, .L19
 365 013a FFF7FEFF 		bl	ka_printf
  67:../../source/src/kernel/SHELL/shell_fun.c **** 	{
 366              		.loc 1 67 0 discriminator 3
 367 013e FB68     		ldr	r3, [r7, #12]
 368 0140 0133     		adds	r3, r3, #1
 369 0142 FB60     		str	r3, [r7, #12]
 370              	.L17:
  67:../../source/src/kernel/SHELL/shell_fun.c **** 	{
 371              		.loc 1 67 0 is_stmt 0 discriminator 1
 372 0144 FB68     		ldr	r3, [r7, #12]
 373 0146 272B     		cmp	r3, #39
 374 0148 F6D9     		bls	.L18
  70:../../source/src/kernel/SHELL/shell_fun.c **** 	}
  71:../../source/src/kernel/SHELL/shell_fun.c **** }
 375              		.loc 1 71 0 is_stmt 1
 376 014a 00BF     		nop
 377 014c 1037     		adds	r7, r7, #16
 378              	.LCFI23:
 379              		.cfi_def_cfa_offset 8
 380 014e BD46     		mov	sp, r7
 381              	.LCFI24:
 382              		.cfi_def_cfa_register 13
 383              		@ sp needed
 384 0150 80BD     		pop	{r7, pc}
 385              	.L20:
 386 0152 00BF     		.align	2
 387              	.L19:
 388 0154 10010000 		.word	.LC10
 389              		.cfi_endproc
 390              	.LFE21:
 391              		.size	shell_clear, .-shell_clear
 392              		.section	.rodata
 393 0112 0000     		.align	2
 394              	.LC11:
 395 0114 746F6F20 		.ascii	"too few arguments!\012\000"
 395      66657720 
 395      61726775 
 395      6D656E74 
 395      73210A00 
 396              		.align	2
 397              	.LC12:
ARM GAS  G:\Users\Jaxb\AppData\Local\Temp\ccccNtaX.s 			page 10


 398 0128 6E6F2073 		.ascii	"no such variable\012\000"
 398      75636820 
 398      76617269 
 398      61626C65 
 398      0A00
 399              		.text
 400              		.align	1
 401              		.global	shell_echo
 402              		.syntax unified
 403              		.thumb
 404              		.thumb_func
 405              		.fpu softvfp
 406              		.type	shell_echo, %function
 407              	shell_echo:
 408              	.LFB22:
  72:../../source/src/kernel/SHELL/shell_fun.c **** #if CONFIG_SHELL_DEBUG_EN && CONFIG_SHELL_EN
  73:../../source/src/kernel/SHELL/shell_fun.c **** void shell_echo(int argc, char const *argv[])
  74:../../source/src/kernel/SHELL/shell_fun.c **** {
 409              		.loc 1 74 0
 410              		.cfi_startproc
 411              		@ args = 0, pretend = 0, frame = 16
 412              		@ frame_needed = 1, uses_anonymous_args = 0
 413 0158 80B5     		push	{r7, lr}
 414              	.LCFI25:
 415              		.cfi_def_cfa_offset 8
 416              		.cfi_offset 7, -8
 417              		.cfi_offset 14, -4
 418 015a 84B0     		sub	sp, sp, #16
 419              	.LCFI26:
 420              		.cfi_def_cfa_offset 24
 421 015c 00AF     		add	r7, sp, #0
 422              	.LCFI27:
 423              		.cfi_def_cfa_register 7
 424 015e 7860     		str	r0, [r7, #4]
 425 0160 3960     		str	r1, [r7]
  75:../../source/src/kernel/SHELL/shell_fun.c **** 	if(argc < 2)
 426              		.loc 1 75 0
 427 0162 7B68     		ldr	r3, [r7, #4]
 428 0164 012B     		cmp	r3, #1
 429 0166 03DC     		bgt	.L22
  76:../../source/src/kernel/SHELL/shell_fun.c **** 	{
  77:../../source/src/kernel/SHELL/shell_fun.c **** 		ka_printf("too few arguments!\n");
 430              		.loc 1 77 0
 431 0168 0C48     		ldr	r0, .L25
 432 016a FFF7FEFF 		bl	ka_printf
  78:../../source/src/kernel/SHELL/shell_fun.c **** 		return ;
 433              		.loc 1 78 0
 434 016e 11E0     		b	.L21
 435              	.L22:
  79:../../source/src/kernel/SHELL/shell_fun.c **** 	}
  80:../../source/src/kernel/SHELL/shell_fun.c **** 	struct shell_variable *shell_variable_ptr = find_in_variable_array(argv[1]);
 436              		.loc 1 80 0
 437 0170 3B68     		ldr	r3, [r7]
 438 0172 0433     		adds	r3, r3, #4
 439 0174 1B68     		ldr	r3, [r3]
 440 0176 1846     		mov	r0, r3
 441 0178 FFF7FEFF 		bl	find_in_variable_array
ARM GAS  G:\Users\Jaxb\AppData\Local\Temp\ccccNtaX.s 			page 11


 442 017c F860     		str	r0, [r7, #12]
  81:../../source/src/kernel/SHELL/shell_fun.c **** 	if(NULL == shell_variable_ptr)
 443              		.loc 1 81 0
 444 017e FB68     		ldr	r3, [r7, #12]
 445 0180 002B     		cmp	r3, #0
 446 0182 03D1     		bne	.L24
  82:../../source/src/kernel/SHELL/shell_fun.c **** 	{
  83:../../source/src/kernel/SHELL/shell_fun.c **** 		ka_printf("no such variable\n");
 447              		.loc 1 83 0
 448 0184 0648     		ldr	r0, .L25+4
 449 0186 FFF7FEFF 		bl	ka_printf
  84:../../source/src/kernel/SHELL/shell_fun.c **** 		return ;
 450              		.loc 1 84 0
 451 018a 03E0     		b	.L21
 452              	.L24:
  85:../../source/src/kernel/SHELL/shell_fun.c **** 	}
  86:../../source/src/kernel/SHELL/shell_fun.c **** 	shell_v_display(shell_variable_ptr);
 453              		.loc 1 86 0
 454 018c F868     		ldr	r0, [r7, #12]
 455 018e FFF7FEFF 		bl	shell_v_display
  87:../../source/src/kernel/SHELL/shell_fun.c **** 	return ;
 456              		.loc 1 87 0
 457 0192 00BF     		nop
 458              	.L21:
  88:../../source/src/kernel/SHELL/shell_fun.c **** }
 459              		.loc 1 88 0
 460 0194 1037     		adds	r7, r7, #16
 461              	.LCFI28:
 462              		.cfi_def_cfa_offset 8
 463 0196 BD46     		mov	sp, r7
 464              	.LCFI29:
 465              		.cfi_def_cfa_register 13
 466              		@ sp needed
 467 0198 80BD     		pop	{r7, pc}
 468              	.L26:
 469 019a 00BF     		.align	2
 470              	.L25:
 471 019c 14010000 		.word	.LC11
 472 01a0 28010000 		.word	.LC12
 473              		.cfi_endproc
 474              	.LFE22:
 475              		.size	shell_echo, .-shell_echo
 476              		.section	.rodata
 477 013a 0000     		.align	2
 478              	.LC13:
 479 013c 6E6F2073 		.ascii	"no such variable!\012\000"
 479      75636820 
 479      76617269 
 479      61626C65 
 479      210A00
 480              		.text
 481              		.align	1
 482              		.global	shell_set
 483              		.syntax unified
 484              		.thumb
 485              		.thumb_func
 486              		.fpu softvfp
ARM GAS  G:\Users\Jaxb\AppData\Local\Temp\ccccNtaX.s 			page 12


 487              		.type	shell_set, %function
 488              	shell_set:
 489              	.LFB23:
  89:../../source/src/kernel/SHELL/shell_fun.c **** 
  90:../../source/src/kernel/SHELL/shell_fun.c **** void shell_set(int argc, char const *argv[])
  91:../../source/src/kernel/SHELL/shell_fun.c **** {
 490              		.loc 1 91 0
 491              		.cfi_startproc
 492              		@ args = 0, pretend = 0, frame = 16
 493              		@ frame_needed = 1, uses_anonymous_args = 0
 494 01a4 80B5     		push	{r7, lr}
 495              	.LCFI30:
 496              		.cfi_def_cfa_offset 8
 497              		.cfi_offset 7, -8
 498              		.cfi_offset 14, -4
 499 01a6 84B0     		sub	sp, sp, #16
 500              	.LCFI31:
 501              		.cfi_def_cfa_offset 24
 502 01a8 00AF     		add	r7, sp, #0
 503              	.LCFI32:
 504              		.cfi_def_cfa_register 7
 505 01aa 7860     		str	r0, [r7, #4]
 506 01ac 3960     		str	r1, [r7]
  92:../../source/src/kernel/SHELL/shell_fun.c **** 	if(argc < 3)
 507              		.loc 1 92 0
 508 01ae 7B68     		ldr	r3, [r7, #4]
 509 01b0 022B     		cmp	r3, #2
 510 01b2 03DC     		bgt	.L28
  93:../../source/src/kernel/SHELL/shell_fun.c **** 	{
  94:../../source/src/kernel/SHELL/shell_fun.c **** 		ka_printf("too few arguments!\n");
 511              		.loc 1 94 0
 512 01b4 0E48     		ldr	r0, .L31
 513 01b6 FFF7FEFF 		bl	ka_printf
  95:../../source/src/kernel/SHELL/shell_fun.c **** 		return ;
 514              		.loc 1 95 0
 515 01ba 15E0     		b	.L27
 516              	.L28:
  96:../../source/src/kernel/SHELL/shell_fun.c **** 	}
  97:../../source/src/kernel/SHELL/shell_fun.c **** 	struct shell_variable *shell_variable_ptr;
  98:../../source/src/kernel/SHELL/shell_fun.c **** 	shell_variable_ptr = find_in_variable_array(argv[1]);
 517              		.loc 1 98 0
 518 01bc 3B68     		ldr	r3, [r7]
 519 01be 0433     		adds	r3, r3, #4
 520 01c0 1B68     		ldr	r3, [r3]
 521 01c2 1846     		mov	r0, r3
 522 01c4 FFF7FEFF 		bl	find_in_variable_array
 523 01c8 F860     		str	r0, [r7, #12]
  99:../../source/src/kernel/SHELL/shell_fun.c **** 	if(NULL == shell_variable_ptr)
 524              		.loc 1 99 0
 525 01ca FB68     		ldr	r3, [r7, #12]
 526 01cc 002B     		cmp	r3, #0
 527 01ce 03D1     		bne	.L30
 100:../../source/src/kernel/SHELL/shell_fun.c **** 	{
 101:../../source/src/kernel/SHELL/shell_fun.c **** 		ka_printf("no such variable!\n");
 528              		.loc 1 101 0
 529 01d0 0848     		ldr	r0, .L31+4
 530 01d2 FFF7FEFF 		bl	ka_printf
ARM GAS  G:\Users\Jaxb\AppData\Local\Temp\ccccNtaX.s 			page 13


 102:../../source/src/kernel/SHELL/shell_fun.c **** 		return ;
 531              		.loc 1 102 0
 532 01d6 07E0     		b	.L27
 533              	.L30:
 103:../../source/src/kernel/SHELL/shell_fun.c **** 	}
 104:../../source/src/kernel/SHELL/shell_fun.c **** 	shell_v_write(shell_variable_ptr,(const char *)argv[2]);
 534              		.loc 1 104 0
 535 01d8 3B68     		ldr	r3, [r7]
 536 01da 0833     		adds	r3, r3, #8
 537 01dc 1B68     		ldr	r3, [r3]
 538 01de 1946     		mov	r1, r3
 539 01e0 F868     		ldr	r0, [r7, #12]
 540 01e2 FFF7FEFF 		bl	shell_v_write
 105:../../source/src/kernel/SHELL/shell_fun.c **** 	return ;
 541              		.loc 1 105 0
 542 01e6 00BF     		nop
 543              	.L27:
 106:../../source/src/kernel/SHELL/shell_fun.c **** }
 544              		.loc 1 106 0
 545 01e8 1037     		adds	r7, r7, #16
 546              	.LCFI33:
 547              		.cfi_def_cfa_offset 8
 548 01ea BD46     		mov	sp, r7
 549              	.LCFI34:
 550              		.cfi_def_cfa_register 13
 551              		@ sp needed
 552 01ec 80BD     		pop	{r7, pc}
 553              	.L32:
 554 01ee 00BF     		.align	2
 555              	.L31:
 556 01f0 14010000 		.word	.LC11
 557 01f4 3C010000 		.word	.LC13
 558              		.cfi_endproc
 559              	.LFE23:
 560              		.size	shell_set, .-shell_set
 561              		.align	1
 562              		.global	shell_addr
 563              		.syntax unified
 564              		.thumb
 565              		.thumb_func
 566              		.fpu softvfp
 567              		.type	shell_addr, %function
 568              	shell_addr:
 569              	.LFB24:
 107:../../source/src/kernel/SHELL/shell_fun.c **** 
 108:../../source/src/kernel/SHELL/shell_fun.c **** void shell_addr(int argc, char const *argv[])
 109:../../source/src/kernel/SHELL/shell_fun.c **** {
 570              		.loc 1 109 0
 571              		.cfi_startproc
 572              		@ args = 0, pretend = 0, frame = 16
 573              		@ frame_needed = 1, uses_anonymous_args = 0
 574 01f8 80B5     		push	{r7, lr}
 575              	.LCFI35:
 576              		.cfi_def_cfa_offset 8
 577              		.cfi_offset 7, -8
 578              		.cfi_offset 14, -4
 579 01fa 84B0     		sub	sp, sp, #16
ARM GAS  G:\Users\Jaxb\AppData\Local\Temp\ccccNtaX.s 			page 14


 580              	.LCFI36:
 581              		.cfi_def_cfa_offset 24
 582 01fc 00AF     		add	r7, sp, #0
 583              	.LCFI37:
 584              		.cfi_def_cfa_register 7
 585 01fe 7860     		str	r0, [r7, #4]
 586 0200 3960     		str	r1, [r7]
 110:../../source/src/kernel/SHELL/shell_fun.c **** 	if(argc < 2)
 587              		.loc 1 110 0
 588 0202 7B68     		ldr	r3, [r7, #4]
 589 0204 012B     		cmp	r3, #1
 590 0206 03DC     		bgt	.L34
 111:../../source/src/kernel/SHELL/shell_fun.c **** 	{
 112:../../source/src/kernel/SHELL/shell_fun.c **** 		ka_printf("too few arguments!\n");
 591              		.loc 1 112 0
 592 0208 0B48     		ldr	r0, .L37
 593 020a FFF7FEFF 		bl	ka_printf
 113:../../source/src/kernel/SHELL/shell_fun.c **** 		return ;
 594              		.loc 1 113 0
 595 020e 10E0     		b	.L33
 596              	.L34:
 114:../../source/src/kernel/SHELL/shell_fun.c **** 	}
 115:../../source/src/kernel/SHELL/shell_fun.c **** 	struct shell_variable *shell_variable_ptr = find_in_variable_array(argv[1]);
 597              		.loc 1 115 0
 598 0210 3B68     		ldr	r3, [r7]
 599 0212 0433     		adds	r3, r3, #4
 600 0214 1B68     		ldr	r3, [r3]
 601 0216 1846     		mov	r0, r3
 602 0218 FFF7FEFF 		bl	find_in_variable_array
 603 021c F860     		str	r0, [r7, #12]
 116:../../source/src/kernel/SHELL/shell_fun.c **** 	if(NULL == shell_variable_ptr)
 604              		.loc 1 116 0
 605 021e FB68     		ldr	r3, [r7, #12]
 606 0220 002B     		cmp	r3, #0
 607 0222 03D1     		bne	.L36
 117:../../source/src/kernel/SHELL/shell_fun.c **** 	{
 118:../../source/src/kernel/SHELL/shell_fun.c **** 		ka_printf("no such variable\n");
 608              		.loc 1 118 0
 609 0224 0548     		ldr	r0, .L37+4
 610 0226 FFF7FEFF 		bl	ka_printf
 119:../../source/src/kernel/SHELL/shell_fun.c **** 		return ;
 611              		.loc 1 119 0
 612 022a 02E0     		b	.L33
 613              	.L36:
 120:../../source/src/kernel/SHELL/shell_fun.c **** 	}
 121:../../source/src/kernel/SHELL/shell_fun.c **** 	shell_v_display_addr(shell_variable_ptr);
 614              		.loc 1 121 0
 615 022c F868     		ldr	r0, [r7, #12]
 616 022e FFF7FEFF 		bl	shell_v_display_addr
 617              	.L33:
 122:../../source/src/kernel/SHELL/shell_fun.c **** }
 618              		.loc 1 122 0
 619 0232 1037     		adds	r7, r7, #16
 620              	.LCFI38:
 621              		.cfi_def_cfa_offset 8
 622 0234 BD46     		mov	sp, r7
 623              	.LCFI39:
ARM GAS  G:\Users\Jaxb\AppData\Local\Temp\ccccNtaX.s 			page 15


 624              		.cfi_def_cfa_register 13
 625              		@ sp needed
 626 0236 80BD     		pop	{r7, pc}
 627              	.L38:
 628              		.align	2
 629              	.L37:
 630 0238 14010000 		.word	.LC11
 631 023c 28010000 		.word	.LC12
 632              		.cfi_endproc
 633              	.LFE24:
 634              		.size	shell_addr, .-shell_addr
 635              		.align	1
 636              		.global	shell_TCB_check
 637              		.syntax unified
 638              		.thumb
 639              		.thumb_func
 640              		.fpu softvfp
 641              		.type	shell_TCB_check, %function
 642              	shell_TCB_check:
 643              	.LFB25:
 123:../../source/src/kernel/SHELL/shell_fun.c **** #endif
 124:../../source/src/kernel/SHELL/shell_fun.c **** 
 125:../../source/src/kernel/SHELL/shell_fun.c **** void shell_TCB_check(int argc, char const *argv[])
 126:../../source/src/kernel/SHELL/shell_fun.c **** {
 644              		.loc 1 126 0
 645              		.cfi_startproc
 646              		@ args = 0, pretend = 0, frame = 8
 647              		@ frame_needed = 1, uses_anonymous_args = 0
 648 0240 80B5     		push	{r7, lr}
 649              	.LCFI40:
 650              		.cfi_def_cfa_offset 8
 651              		.cfi_offset 7, -8
 652              		.cfi_offset 14, -4
 653 0242 82B0     		sub	sp, sp, #8
 654              	.LCFI41:
 655              		.cfi_def_cfa_offset 16
 656 0244 00AF     		add	r7, sp, #0
 657              	.LCFI42:
 658              		.cfi_def_cfa_register 7
 659 0246 7860     		str	r0, [r7, #4]
 660 0248 3960     		str	r1, [r7]
 127:../../source/src/kernel/SHELL/shell_fun.c **** 	(void)argc;
 128:../../source/src/kernel/SHELL/shell_fun.c **** 	(void)argv;
 129:../../source/src/kernel/SHELL/shell_fun.c **** 	shell_check_TCB_list();
 661              		.loc 1 129 0
 662 024a FFF7FEFF 		bl	shell_check_TCB_list
 130:../../source/src/kernel/SHELL/shell_fun.c **** 	shell_check_os_ready();
 663              		.loc 1 130 0
 664 024e FFF7FEFF 		bl	shell_check_os_ready
 131:../../source/src/kernel/SHELL/shell_fun.c **** 	shell_delay_heap_check();
 665              		.loc 1 131 0
 666 0252 FFF7FEFF 		bl	shell_delay_heap_check
 132:../../source/src/kernel/SHELL/shell_fun.c **** }
 667              		.loc 1 132 0
 668 0256 00BF     		nop
 669 0258 0837     		adds	r7, r7, #8
 670              	.LCFI43:
ARM GAS  G:\Users\Jaxb\AppData\Local\Temp\ccccNtaX.s 			page 16


 671              		.cfi_def_cfa_offset 8
 672 025a BD46     		mov	sp, r7
 673              	.LCFI44:
 674              		.cfi_def_cfa_register 13
 675              		@ sp needed
 676 025c 80BD     		pop	{r7, pc}
 677              		.cfi_endproc
 678              	.LFE25:
 679              		.size	shell_TCB_check, .-shell_TCB_check
 680              		.align	1
 681              		.global	shell_reboot
 682              		.syntax unified
 683              		.thumb
 684              		.thumb_func
 685              		.fpu softvfp
 686              		.type	shell_reboot, %function
 687              	shell_reboot:
 688              	.LFB26:
 133:../../source/src/kernel/SHELL/shell_fun.c **** 
 134:../../source/src/kernel/SHELL/shell_fun.c **** extern void ReBoot();
 135:../../source/src/kernel/SHELL/shell_fun.c **** void shell_reboot(int argc, char const *argv[])
 136:../../source/src/kernel/SHELL/shell_fun.c **** {
 689              		.loc 1 136 0
 690              		.cfi_startproc
 691              		@ args = 0, pretend = 0, frame = 8
 692              		@ frame_needed = 1, uses_anonymous_args = 0
 693 025e 80B5     		push	{r7, lr}
 694              	.LCFI45:
 695              		.cfi_def_cfa_offset 8
 696              		.cfi_offset 7, -8
 697              		.cfi_offset 14, -4
 698 0260 82B0     		sub	sp, sp, #8
 699              	.LCFI46:
 700              		.cfi_def_cfa_offset 16
 701 0262 00AF     		add	r7, sp, #0
 702              	.LCFI47:
 703              		.cfi_def_cfa_register 7
 704 0264 7860     		str	r0, [r7, #4]
 705 0266 3960     		str	r1, [r7]
 137:../../source/src/kernel/SHELL/shell_fun.c **** 	(void)argc;
 138:../../source/src/kernel/SHELL/shell_fun.c **** 	(void)argv;
 139:../../source/src/kernel/SHELL/shell_fun.c **** 	ReBoot();
 706              		.loc 1 139 0
 707 0268 FFF7FEFF 		bl	ReBoot
 140:../../source/src/kernel/SHELL/shell_fun.c **** }
 708              		.loc 1 140 0
 709 026c 00BF     		nop
 710 026e 0837     		adds	r7, r7, #8
 711              	.LCFI48:
 712              		.cfi_def_cfa_offset 8
 713 0270 BD46     		mov	sp, r7
 714              	.LCFI49:
 715              		.cfi_def_cfa_register 13
 716              		@ sp needed
 717 0272 80BD     		pop	{r7, pc}
 718              		.cfi_endproc
 719              	.LFE26:
ARM GAS  G:\Users\Jaxb\AppData\Local\Temp\ccccNtaX.s 			page 17


 720              		.size	shell_reboot, .-shell_reboot
 721              		.section	.rodata
 722 014f 00       		.align	2
 723              	.LC14:
 724 0150 2D66696C 		.ascii	"-filesize=\000"
 724      6573697A 
 724      653D00
 725 015b 00       		.align	2
 726              	.LC15:
 727 015c 6E6F2065 		.ascii	"no enough room for module\012\000"
 727      6E6F7567 
 727      6820726F 
 727      6F6D2066 
 727      6F72206D 
 728 0177 00       		.align	2
 729              	.LC16:
 730 0178 6D6F6475 		.ascii	"module change buffer error\012\000"
 730      6C652063 
 730      68616E67 
 730      65206275 
 730      66666572 
 731              		.align	2
 732              	.LC17:
 733 0194 6E6F7720 		.ascii	"now transfer the module,input 'end' to end the tran"
 733      7472616E 
 733      73666572 
 733      20746865 
 733      206D6F64 
 734 01c7 73666F72 		.ascii	"sformation\012\000"
 734      6D617469 
 734      6F6E0A00 
 735 01d3 00       		.align	2
 736              	.LC18:
 737 01d4 656E6400 		.ascii	"end\000"
 738              		.align	2
 739              	.LC19:
 740 01d8 2D737461 		.ascii	"-stacksize=\000"
 740      636B7369 
 740      7A653D00 
 741              		.align	2
 742              	.LC20:
 743 01e4 2D707269 		.ascii	"-prio=\000"
 743      6F3D00
 744 01eb 00       		.align	2
 745              	.LC21:
 746 01ec 2D6E616D 		.ascii	"-name=\000"
 746      653D00
 747 01f3 00       		.align	2
 748              	.LC22:
 749 01f4 65786563 		.ascii	"execute module\012\000"
 749      75746520 
 749      6D6F6475 
 749      6C650A00 
 750              		.text
 751              		.align	1
 752              		.global	shell_module
 753              		.syntax unified
ARM GAS  G:\Users\Jaxb\AppData\Local\Temp\ccccNtaX.s 			page 18


 754              		.thumb
 755              		.thumb_func
 756              		.fpu softvfp
 757              		.type	shell_module, %function
 758              	shell_module:
 759              	.LFB27:
 141:../../source/src/kernel/SHELL/shell_fun.c **** 
 142:../../source/src/kernel/SHELL/shell_fun.c **** #if CONFIG_MODULE
 143:../../source/src/kernel/SHELL/shell_fun.c **** extern void show_get_size(void);
 144:../../source/src/kernel/SHELL/shell_fun.c **** extern int add_page_alloc_record(unsigned int level,void *ptr);
 145:../../source/src/kernel/SHELL/shell_fun.c **** /******************
 146:../../source/src/kernel/SHELL/shell_fun.c **** * 
 147:../../source/src/kernel/SHELL/shell_fun.c **** *   insmod -name=dmodule -prio=20 -stacksize=2048 -filesize=4096
 148:../../source/src/kernel/SHELL/shell_fun.c **** *
 149:../../source/src/kernel/SHELL/shell_fun.c **** *******************/
 150:../../source/src/kernel/SHELL/shell_fun.c **** 
 151:../../source/src/kernel/SHELL/shell_fun.c **** void shell_module(int argc, char const *argv[])
 152:../../source/src/kernel/SHELL/shell_fun.c **** {
 760              		.loc 1 152 0
 761              		.cfi_startproc
 762              		@ args = 0, pretend = 0, frame = 136
 763              		@ frame_needed = 1, uses_anonymous_args = 0
 764 0274 80B5     		push	{r7, lr}
 765              	.LCFI50:
 766              		.cfi_def_cfa_offset 8
 767              		.cfi_offset 7, -8
 768              		.cfi_offset 14, -4
 769 0276 A2B0     		sub	sp, sp, #136
 770              	.LCFI51:
 771              		.cfi_def_cfa_offset 144
 772 0278 00AF     		add	r7, sp, #0
 773              	.LCFI52:
 774              		.cfi_def_cfa_register 7
 775 027a 7860     		str	r0, [r7, #4]
 776 027c 3960     		str	r1, [r7]
 153:../../source/src/kernel/SHELL/shell_fun.c **** 	void *buf;
 154:../../source/src/kernel/SHELL/shell_fun.c **** 	char *shell_buf_ptr;
 155:../../source/src/kernel/SHELL/shell_fun.c **** 	int buf_is_allo = KA_FALSE;
 777              		.loc 1 155 0
 778 027e 0023     		movs	r3, #0
 779 0280 C7F88030 		str	r3, [r7, #128]
 156:../../source/src/kernel/SHELL/shell_fun.c **** 	unsigned int stack_size = D_MODULE_DEFAULT_STACK_SIZE;
 780              		.loc 1 156 0
 781 0284 4FF40063 		mov	r3, #2048
 782 0288 FB67     		str	r3, [r7, #124]
 157:../../source/src/kernel/SHELL/shell_fun.c **** 	TASK_PRIO_TYPE prio = D_MODULE_DEFAULT_PRIO;
 783              		.loc 1 157 0
 784 028a 3E23     		movs	r3, #62
 785 028c BB67     		str	r3, [r7, #120]
 158:../../source/src/kernel/SHELL/shell_fun.c **** 	char *value_ptr;
 159:../../source/src/kernel/SHELL/shell_fun.c **** 	value_ptr = get_para_add(argc,argv,"-filesize=");
 786              		.loc 1 159 0
 787 028e 4F4A     		ldr	r2, .L54
 788 0290 3968     		ldr	r1, [r7]
 789 0292 7868     		ldr	r0, [r7, #4]
 790 0294 FFF7FEFF 		bl	get_para_add
 791 0298 7867     		str	r0, [r7, #116]
ARM GAS  G:\Users\Jaxb\AppData\Local\Temp\ccccNtaX.s 			page 19


 160:../../source/src/kernel/SHELL/shell_fun.c **** 	if(NULL != value_ptr)
 792              		.loc 1 160 0
 793 029a 7B6F     		ldr	r3, [r7, #116]
 794 029c 002B     		cmp	r3, #0
 795 029e 0CD0     		beq	.L42
 161:../../source/src/kernel/SHELL/shell_fun.c **** 	{
 162:../../source/src/kernel/SHELL/shell_fun.c **** 		buf = ka_malloc(ka_atoi(value_ptr));
 796              		.loc 1 162 0
 797 02a0 786F     		ldr	r0, [r7, #116]
 798 02a2 FFF7FEFF 		bl	ka_atoi
 799 02a6 0346     		mov	r3, r0
 800 02a8 1846     		mov	r0, r3
 801 02aa FFF7FEFF 		bl	ka_malloc
 802 02ae C7F88400 		str	r0, [r7, #132]
 163:../../source/src/kernel/SHELL/shell_fun.c **** 		buf_is_allo = KA_TRUE;
 803              		.loc 1 163 0
 804 02b2 0123     		movs	r3, #1
 805 02b4 C7F88030 		str	r3, [r7, #128]
 806 02b8 03E0     		b	.L43
 807              	.L42:
 164:../../source/src/kernel/SHELL/shell_fun.c **** 	}
 165:../../source/src/kernel/SHELL/shell_fun.c **** 	else
 166:../../source/src/kernel/SHELL/shell_fun.c **** 	{
 167:../../source/src/kernel/SHELL/shell_fun.c **** 		buf = alloc_power3_page();
 808              		.loc 1 167 0
 809 02ba FFF7FEFF 		bl	alloc_power3_page
 810 02be C7F88400 		str	r0, [r7, #132]
 811              	.L43:
 168:../../source/src/kernel/SHELL/shell_fun.c **** 	}
 169:../../source/src/kernel/SHELL/shell_fun.c **** /*
 170:../../source/src/kernel/SHELL/shell_fun.c **** 	unsigned int i;
 171:../../source/src/kernel/SHELL/shell_fun.c **** 	for(i=1;i<argc;++i)
 172:../../source/src/kernel/SHELL/shell_fun.c **** 	{
 173:../../source/src/kernel/SHELL/shell_fun.c **** 		if(0 == ka_strncmp("-filesize=",argv[i],ka_strlen("-filesize=")))
 174:../../source/src/kernel/SHELL/shell_fun.c **** 		{
 175:../../source/src/kernel/SHELL/shell_fun.c **** 			buf = ka_malloc(ka_atoi(argv[i] + ka_strlen("-filesize=")));
 176:../../source/src/kernel/SHELL/shell_fun.c **** 			buf_is_allo = KA_TRUE;
 177:../../source/src/kernel/SHELL/shell_fun.c **** 			break ;
 178:../../source/src/kernel/SHELL/shell_fun.c **** 		}
 179:../../source/src/kernel/SHELL/shell_fun.c **** 	}
 180:../../source/src/kernel/SHELL/shell_fun.c **** */
 181:../../source/src/kernel/SHELL/shell_fun.c **** 	if (NULL == buf)
 812              		.loc 1 181 0
 813 02c2 D7F88430 		ldr	r3, [r7, #132]
 814 02c6 002B     		cmp	r3, #0
 815 02c8 03D1     		bne	.L44
 182:../../source/src/kernel/SHELL/shell_fun.c **** 	{
 183:../../source/src/kernel/SHELL/shell_fun.c **** 		ka_printf("no enough room for module\n");
 816              		.loc 1 183 0
 817 02ca 4148     		ldr	r0, .L54+4
 818 02cc FFF7FEFF 		bl	ka_printf
 184:../../source/src/kernel/SHELL/shell_fun.c **** 		return ;
 819              		.loc 1 184 0
 820 02d0 79E0     		b	.L41
 821              	.L44:
 185:../../source/src/kernel/SHELL/shell_fun.c **** 	}
 186:../../source/src/kernel/SHELL/shell_fun.c **** 	if ((!buf_is_allo) && (0 > add_page_alloc_record(3,buf)))
ARM GAS  G:\Users\Jaxb\AppData\Local\Temp\ccccNtaX.s 			page 20


 822              		.loc 1 186 0
 823 02d2 D7F88030 		ldr	r3, [r7, #128]
 824 02d6 002B     		cmp	r3, #0
 825 02d8 0BD1     		bne	.L46
 826              		.loc 1 186 0 is_stmt 0 discriminator 1
 827 02da D7F88410 		ldr	r1, [r7, #132]
 828 02de 0320     		movs	r0, #3
 829 02e0 FFF7FEFF 		bl	add_page_alloc_record
 830 02e4 0346     		mov	r3, r0
 831 02e6 002B     		cmp	r3, #0
 832 02e8 03DA     		bge	.L46
 187:../../source/src/kernel/SHELL/shell_fun.c **** 	{
 188:../../source/src/kernel/SHELL/shell_fun.c **** 		ASSERT(0);
 833              		.loc 1 188 0 is_stmt 1 discriminator 1
 834 02ea BC21     		movs	r1, #188
 835 02ec 3948     		ldr	r0, .L54+8
 836 02ee FFF7FEFF 		bl	_ASSERT
 837              	.L46:
 189:../../source/src/kernel/SHELL/shell_fun.c **** 	}
 190:../../source/src/kernel/SHELL/shell_fun.c **** 	
 191:../../source/src/kernel/SHELL/shell_fun.c **** 	struct shell_buffer shell_buffer;
 192:../../source/src/kernel/SHELL/shell_fun.c **** 	shell_buf_ptr = (char *)ka_malloc(20);
 838              		.loc 1 192 0
 839 02f2 1420     		movs	r0, #20
 840 02f4 FFF7FEFF 		bl	ka_malloc
 841 02f8 3867     		str	r0, [r7, #112]
 193:../../source/src/kernel/SHELL/shell_fun.c **** 	if(NULL == shell_buf_ptr)
 842              		.loc 1 193 0
 843 02fa 3B6F     		ldr	r3, [r7, #112]
 844 02fc 002B     		cmp	r3, #0
 845 02fe 03D1     		bne	.L47
 194:../../source/src/kernel/SHELL/shell_fun.c **** 	{
 195:../../source/src/kernel/SHELL/shell_fun.c **** 		ka_printf("no enough room for module\n");
 846              		.loc 1 195 0
 847 0300 3348     		ldr	r0, .L54+4
 848 0302 FFF7FEFF 		bl	ka_printf
 196:../../source/src/kernel/SHELL/shell_fun.c **** 		goto out;
 849              		.loc 1 196 0
 850 0306 5AE0     		b	.L48
 851              	.L47:
 197:../../source/src/kernel/SHELL/shell_fun.c **** 	}
 198:../../source/src/kernel/SHELL/shell_fun.c **** 	if(__init_shell_buffer(&shell_buffer,shell_buf_ptr,NULL) < 0)
 852              		.loc 1 198 0
 853 0308 07F10C03 		add	r3, r7, #12
 854 030c 0022     		movs	r2, #0
 855 030e 396F     		ldr	r1, [r7, #112]
 856 0310 1846     		mov	r0, r3
 857 0312 FFF7FEFF 		bl	__init_shell_buffer
 858 0316 0346     		mov	r3, r0
 859 0318 002B     		cmp	r3, #0
 860 031a 07DA     		bge	.L49
 199:../../source/src/kernel/SHELL/shell_fun.c **** 	{
 200:../../source/src/kernel/SHELL/shell_fun.c **** 		ka_printf("module change buffer error\n");
 861              		.loc 1 200 0
 862 031c 2E48     		ldr	r0, .L54+12
 863 031e FFF7FEFF 		bl	ka_printf
 201:../../source/src/kernel/SHELL/shell_fun.c **** 		goto out1;
ARM GAS  G:\Users\Jaxb\AppData\Local\Temp\ccccNtaX.s 			page 21


 864              		.loc 1 201 0
 865 0322 00BF     		nop
 866              	.L50:
 202:../../source/src/kernel/SHELL/shell_fun.c **** 	}
 203:../../source/src/kernel/SHELL/shell_fun.c **** 	struct shell_buffer *sys_shell_buffer_ptr = change_shell_buffer(&shell_buffer); // save the system
 204:../../source/src/kernel/SHELL/shell_fun.c **** 	set_module_buffer(buf);
 205:../../source/src/kernel/SHELL/shell_fun.c **** 
 206:../../source/src/kernel/SHELL/shell_fun.c **** 	ka_printf("now transfer the module,input 'end' to end the transformation\n");
 207:../../source/src/kernel/SHELL/shell_fun.c **** 	
 208:../../source/src/kernel/SHELL/shell_fun.c **** 	shell_buffer_wait_str("end");  // thread will going to sleep
 209:../../source/src/kernel/SHELL/shell_fun.c **** 
 210:../../source/src/kernel/SHELL/shell_fun.c **** 	show_get_size();
 211:../../source/src/kernel/SHELL/shell_fun.c **** 
 212:../../source/src/kernel/SHELL/shell_fun.c **** 	change_shell_buffer(sys_shell_buffer_ptr);
 213:../../source/src/kernel/SHELL/shell_fun.c **** 	ka_free(shell_buf_ptr);
 214:../../source/src/kernel/SHELL/shell_fun.c **** 
 215:../../source/src/kernel/SHELL/shell_fun.c **** //get the parament
 216:../../source/src/kernel/SHELL/shell_fun.c **** 	value_ptr = get_para_add(argc,argv,"-stacksize=");
 217:../../source/src/kernel/SHELL/shell_fun.c **** 	if(NULL != value_ptr)
 218:../../source/src/kernel/SHELL/shell_fun.c **** 	{
 219:../../source/src/kernel/SHELL/shell_fun.c **** 		stack_size = ka_atoi(value_ptr);
 220:../../source/src/kernel/SHELL/shell_fun.c **** 	}
 221:../../source/src/kernel/SHELL/shell_fun.c **** 	value_ptr = get_para_add(argc,argv,"-prio=");
 222:../../source/src/kernel/SHELL/shell_fun.c **** 	if(NULL != value_ptr)
 223:../../source/src/kernel/SHELL/shell_fun.c **** 	{
 224:../../source/src/kernel/SHELL/shell_fun.c **** 		prio = ka_atoi(value_ptr);
 225:../../source/src/kernel/SHELL/shell_fun.c **** 	}
 226:../../source/src/kernel/SHELL/shell_fun.c **** 	value_ptr = get_para_add(argc,argv,"-name=");
 227:../../source/src/kernel/SHELL/shell_fun.c **** 	ka_printf("execute module\n");
 228:../../source/src/kernel/SHELL/shell_fun.c **** 	dlmodule_exec(stack_size,prio,value_ptr);
 229:../../source/src/kernel/SHELL/shell_fun.c **** 	ka_free(buf);
 230:../../source/src/kernel/SHELL/shell_fun.c **** 	clear_module_buffer();
 231:../../source/src/kernel/SHELL/shell_fun.c **** 	return ;
 232:../../source/src/kernel/SHELL/shell_fun.c **** out1:
 233:../../source/src/kernel/SHELL/shell_fun.c **** 	ka_free(shell_buf_ptr);
 867              		.loc 1 233 0
 868 0324 386F     		ldr	r0, [r7, #112]
 869 0326 FFF7FEFF 		bl	ka_free
 870 032a 48E0     		b	.L48
 871              	.L49:
 203:../../source/src/kernel/SHELL/shell_fun.c **** 	set_module_buffer(buf);
 872              		.loc 1 203 0
 873 032c 07F10C03 		add	r3, r7, #12
 874 0330 1846     		mov	r0, r3
 875 0332 FFF7FEFF 		bl	change_shell_buffer
 876 0336 F866     		str	r0, [r7, #108]
 204:../../source/src/kernel/SHELL/shell_fun.c **** 
 877              		.loc 1 204 0
 878 0338 D7F88400 		ldr	r0, [r7, #132]
 879 033c FFF7FEFF 		bl	set_module_buffer
 206:../../source/src/kernel/SHELL/shell_fun.c **** 	
 880              		.loc 1 206 0
 881 0340 2648     		ldr	r0, .L54+16
 882 0342 FFF7FEFF 		bl	ka_printf
 208:../../source/src/kernel/SHELL/shell_fun.c **** 
 883              		.loc 1 208 0
 884 0346 2648     		ldr	r0, .L54+20
ARM GAS  G:\Users\Jaxb\AppData\Local\Temp\ccccNtaX.s 			page 22


 885 0348 FFF7FEFF 		bl	shell_buffer_wait_str
 210:../../source/src/kernel/SHELL/shell_fun.c **** 
 886              		.loc 1 210 0
 887 034c FFF7FEFF 		bl	show_get_size
 212:../../source/src/kernel/SHELL/shell_fun.c **** 	ka_free(shell_buf_ptr);
 888              		.loc 1 212 0
 889 0350 F86E     		ldr	r0, [r7, #108]
 890 0352 FFF7FEFF 		bl	change_shell_buffer
 213:../../source/src/kernel/SHELL/shell_fun.c **** 
 891              		.loc 1 213 0
 892 0356 386F     		ldr	r0, [r7, #112]
 893 0358 FFF7FEFF 		bl	ka_free
 216:../../source/src/kernel/SHELL/shell_fun.c **** 	if(NULL != value_ptr)
 894              		.loc 1 216 0
 895 035c 214A     		ldr	r2, .L54+24
 896 035e 3968     		ldr	r1, [r7]
 897 0360 7868     		ldr	r0, [r7, #4]
 898 0362 FFF7FEFF 		bl	get_para_add
 899 0366 7867     		str	r0, [r7, #116]
 217:../../source/src/kernel/SHELL/shell_fun.c **** 	{
 900              		.loc 1 217 0
 901 0368 7B6F     		ldr	r3, [r7, #116]
 902 036a 002B     		cmp	r3, #0
 903 036c 04D0     		beq	.L51
 219:../../source/src/kernel/SHELL/shell_fun.c **** 	}
 904              		.loc 1 219 0
 905 036e 786F     		ldr	r0, [r7, #116]
 906 0370 FFF7FEFF 		bl	ka_atoi
 907 0374 0346     		mov	r3, r0
 908 0376 FB67     		str	r3, [r7, #124]
 909              	.L51:
 221:../../source/src/kernel/SHELL/shell_fun.c **** 	if(NULL != value_ptr)
 910              		.loc 1 221 0
 911 0378 1B4A     		ldr	r2, .L54+28
 912 037a 3968     		ldr	r1, [r7]
 913 037c 7868     		ldr	r0, [r7, #4]
 914 037e FFF7FEFF 		bl	get_para_add
 915 0382 7867     		str	r0, [r7, #116]
 222:../../source/src/kernel/SHELL/shell_fun.c **** 	{
 916              		.loc 1 222 0
 917 0384 7B6F     		ldr	r3, [r7, #116]
 918 0386 002B     		cmp	r3, #0
 919 0388 04D0     		beq	.L52
 224:../../source/src/kernel/SHELL/shell_fun.c **** 	}
 920              		.loc 1 224 0
 921 038a 786F     		ldr	r0, [r7, #116]
 922 038c FFF7FEFF 		bl	ka_atoi
 923 0390 0346     		mov	r3, r0
 924 0392 BB67     		str	r3, [r7, #120]
 925              	.L52:
 226:../../source/src/kernel/SHELL/shell_fun.c **** 	ka_printf("execute module\n");
 926              		.loc 1 226 0
 927 0394 154A     		ldr	r2, .L54+32
 928 0396 3968     		ldr	r1, [r7]
 929 0398 7868     		ldr	r0, [r7, #4]
 930 039a FFF7FEFF 		bl	get_para_add
 931 039e 7867     		str	r0, [r7, #116]
ARM GAS  G:\Users\Jaxb\AppData\Local\Temp\ccccNtaX.s 			page 23


 227:../../source/src/kernel/SHELL/shell_fun.c **** 	dlmodule_exec(stack_size,prio,value_ptr);
 932              		.loc 1 227 0
 933 03a0 1348     		ldr	r0, .L54+36
 934 03a2 FFF7FEFF 		bl	ka_printf
 228:../../source/src/kernel/SHELL/shell_fun.c **** 	ka_free(buf);
 935              		.loc 1 228 0
 936 03a6 7A6F     		ldr	r2, [r7, #116]
 937 03a8 B96F     		ldr	r1, [r7, #120]
 938 03aa F86F     		ldr	r0, [r7, #124]
 939 03ac FFF7FEFF 		bl	dlmodule_exec
 229:../../source/src/kernel/SHELL/shell_fun.c **** 	clear_module_buffer();
 940              		.loc 1 229 0
 941 03b0 D7F88400 		ldr	r0, [r7, #132]
 942 03b4 FFF7FEFF 		bl	ka_free
 230:../../source/src/kernel/SHELL/shell_fun.c **** 	return ;
 943              		.loc 1 230 0
 944 03b8 FFF7FEFF 		bl	clear_module_buffer
 231:../../source/src/kernel/SHELL/shell_fun.c **** out1:
 945              		.loc 1 231 0
 946 03bc 03E0     		b	.L41
 947              	.L48:
 234:../../source/src/kernel/SHELL/shell_fun.c **** out:
 235:../../source/src/kernel/SHELL/shell_fun.c **** 	ka_free(buf);
 948              		.loc 1 235 0
 949 03be D7F88400 		ldr	r0, [r7, #132]
 950 03c2 FFF7FEFF 		bl	ka_free
 951              	.L41:
 236:../../source/src/kernel/SHELL/shell_fun.c **** }
 952              		.loc 1 236 0
 953 03c6 8837     		adds	r7, r7, #136
 954              	.LCFI53:
 955              		.cfi_def_cfa_offset 8
 956 03c8 BD46     		mov	sp, r7
 957              	.LCFI54:
 958              		.cfi_def_cfa_register 13
 959              		@ sp needed
 960 03ca 80BD     		pop	{r7, pc}
 961              	.L55:
 962              		.align	2
 963              	.L54:
 964 03cc 50010000 		.word	.LC14
 965 03d0 5C010000 		.word	.LC15
 966 03d4 2C000000 		.word	.LC2
 967 03d8 78010000 		.word	.LC16
 968 03dc 94010000 		.word	.LC17
 969 03e0 D4010000 		.word	.LC18
 970 03e4 D8010000 		.word	.LC19
 971 03e8 E4010000 		.word	.LC20
 972 03ec EC010000 		.word	.LC21
 973 03f0 F4010000 		.word	.LC22
 974              		.cfi_endproc
 975              	.LFE27:
 976              		.size	shell_module, .-shell_module
 977              		.section	.rodata
 978              		.align	2
 979              	.LC23:
 980 0204 6B65726E 		.ascii	"kernel going to sleep\012any interrupt or a click c"
ARM GAS  G:\Users\Jaxb\AppData\Local\Temp\ccccNtaX.s 			page 24


 980      656C2067 
 980      6F696E67 
 980      20746F20 
 980      736C6565 
 981 0234 616E2077 		.ascii	"an wake up kernel\012\000"
 981      616B6520 
 981      7570206B 
 981      65726E65 
 981      6C0A00
 982 0247 00       		.align	2
 983              	.LC24:
 984 0248 6B65726E 		.ascii	"kernel run\012\000"
 984      656C2072 
 984      756E0A00 
 985              		.text
 986              		.align	1
 987              		.global	shell_sleep
 988              		.syntax unified
 989              		.thumb
 990              		.thumb_func
 991              		.fpu softvfp
 992              		.type	shell_sleep, %function
 993              	shell_sleep:
 994              	.LFB28:
 237:../../source/src/kernel/SHELL/shell_fun.c **** #endif
 238:../../source/src/kernel/SHELL/shell_fun.c **** 
 239:../../source/src/kernel/SHELL/shell_fun.c **** #if CONFIG_POWER_MANAGEMENT
 240:../../source/src/kernel/SHELL/shell_fun.c **** extern void sys_sleep(void);
 241:../../source/src/kernel/SHELL/shell_fun.c **** void shell_sleep(int argc, char const *argv[])
 242:../../source/src/kernel/SHELL/shell_fun.c **** {
 995              		.loc 1 242 0
 996              		.cfi_startproc
 997              		@ args = 0, pretend = 0, frame = 8
 998              		@ frame_needed = 1, uses_anonymous_args = 0
 999 03f4 80B5     		push	{r7, lr}
 1000              	.LCFI55:
 1001              		.cfi_def_cfa_offset 8
 1002              		.cfi_offset 7, -8
 1003              		.cfi_offset 14, -4
 1004 03f6 82B0     		sub	sp, sp, #8
 1005              	.LCFI56:
 1006              		.cfi_def_cfa_offset 16
 1007 03f8 00AF     		add	r7, sp, #0
 1008              	.LCFI57:
 1009              		.cfi_def_cfa_register 7
 1010 03fa 7860     		str	r0, [r7, #4]
 1011 03fc 3960     		str	r1, [r7]
 243:../../source/src/kernel/SHELL/shell_fun.c **** 	(void)argc;
 244:../../source/src/kernel/SHELL/shell_fun.c **** 	(void)argv;
 245:../../source/src/kernel/SHELL/shell_fun.c **** 	ka_printf("kernel going to sleep\n"
 1012              		.loc 1 245 0
 1013 03fe 0648     		ldr	r0, .L57
 1014 0400 FFF7FEFF 		bl	ka_printf
 246:../../source/src/kernel/SHELL/shell_fun.c **** 				"any interrupt or a click can wake up kernel\n");
 247:../../source/src/kernel/SHELL/shell_fun.c **** 	sys_sleep();
 1015              		.loc 1 247 0
 1016 0404 FFF7FEFF 		bl	sys_sleep
ARM GAS  G:\Users\Jaxb\AppData\Local\Temp\ccccNtaX.s 			page 25


 248:../../source/src/kernel/SHELL/shell_fun.c **** 	ka_printf("kernel run\n");
 1017              		.loc 1 248 0
 1018 0408 0448     		ldr	r0, .L57+4
 1019 040a FFF7FEFF 		bl	ka_printf
 249:../../source/src/kernel/SHELL/shell_fun.c **** }
 1020              		.loc 1 249 0
 1021 040e 00BF     		nop
 1022 0410 0837     		adds	r7, r7, #8
 1023              	.LCFI58:
 1024              		.cfi_def_cfa_offset 8
 1025 0412 BD46     		mov	sp, r7
 1026              	.LCFI59:
 1027              		.cfi_def_cfa_register 13
 1028              		@ sp needed
 1029 0414 80BD     		pop	{r7, pc}
 1030              	.L58:
 1031 0416 00BF     		.align	2
 1032              	.L57:
 1033 0418 04020000 		.word	.LC23
 1034 041c 48020000 		.word	.LC24
 1035              		.cfi_endproc
 1036              	.LFE28:
 1037              		.size	shell_sleep, .-shell_sleep
 1038              		.section	.rodata
 1039              		.align	2
 1040              	.LC25:
 1041 0254 73687574 		.ascii	"shutdown now\012\000"
 1041      646F776E 
 1041      206E6F77 
 1041      0A00
 1042              		.text
 1043              		.align	1
 1044              		.global	shell_shutdown
 1045              		.syntax unified
 1046              		.thumb
 1047              		.thumb_func
 1048              		.fpu softvfp
 1049              		.type	shell_shutdown, %function
 1050              	shell_shutdown:
 1051              	.LFB29:
 250:../../source/src/kernel/SHELL/shell_fun.c **** 
 251:../../source/src/kernel/SHELL/shell_fun.c **** extern void sys_shutdown(void);
 252:../../source/src/kernel/SHELL/shell_fun.c **** void shell_shutdown(int argc, char const *argv[])
 253:../../source/src/kernel/SHELL/shell_fun.c **** {
 1052              		.loc 1 253 0
 1053              		.cfi_startproc
 1054              		@ args = 0, pretend = 0, frame = 8
 1055              		@ frame_needed = 1, uses_anonymous_args = 0
 1056 0420 80B5     		push	{r7, lr}
 1057              	.LCFI60:
 1058              		.cfi_def_cfa_offset 8
 1059              		.cfi_offset 7, -8
 1060              		.cfi_offset 14, -4
 1061 0422 82B0     		sub	sp, sp, #8
 1062              	.LCFI61:
 1063              		.cfi_def_cfa_offset 16
 1064 0424 00AF     		add	r7, sp, #0
ARM GAS  G:\Users\Jaxb\AppData\Local\Temp\ccccNtaX.s 			page 26


 1065              	.LCFI62:
 1066              		.cfi_def_cfa_register 7
 1067 0426 7860     		str	r0, [r7, #4]
 1068 0428 3960     		str	r1, [r7]
 254:../../source/src/kernel/SHELL/shell_fun.c **** 	(void)argc;
 255:../../source/src/kernel/SHELL/shell_fun.c **** 	(void)argv;
 256:../../source/src/kernel/SHELL/shell_fun.c **** 	ka_printf("shutdown now\n");
 1069              		.loc 1 256 0
 1070 042a 0448     		ldr	r0, .L60
 1071 042c FFF7FEFF 		bl	ka_printf
 257:../../source/src/kernel/SHELL/shell_fun.c **** 	sys_shutdown();
 1072              		.loc 1 257 0
 1073 0430 FFF7FEFF 		bl	sys_shutdown
 258:../../source/src/kernel/SHELL/shell_fun.c **** }
 1074              		.loc 1 258 0
 1075 0434 00BF     		nop
 1076 0436 0837     		adds	r7, r7, #8
 1077              	.LCFI63:
 1078              		.cfi_def_cfa_offset 8
 1079 0438 BD46     		mov	sp, r7
 1080              	.LCFI64:
 1081              		.cfi_def_cfa_register 13
 1082              		@ sp needed
 1083 043a 80BD     		pop	{r7, pc}
 1084              	.L61:
 1085              		.align	2
 1086              	.L60:
 1087 043c 54020000 		.word	.LC25
 1088              		.cfi_endproc
 1089              	.LFE29:
 1090              		.size	shell_shutdown, .-shell_shutdown
 1091              	.Letext0:
 1092              		.file 2 "../../source/include/os_lib/singly_linked_list.h"
 1093              		.file 3 "../../source/include/shell/shell_debug.h"
 1094              		.file 4 "../../source/include/os_cpu/kakaosstdint.h"
 1095              		.file 5 "../../source/include/os_lib/buddy.h"
 1096              		.file 6 "../../source/include/shell/shell.h"
 1097              		.file 7 "../../source/include/os_core/TCB.h"
 1098              		.section	.debug_info,"",%progbits
 1099              	.Ldebug_info0:
 1100 0000 E0060000 		.4byte	0x6e0
 1101 0004 0200     		.2byte	0x2
 1102 0006 00000000 		.4byte	.Ldebug_abbrev0
 1103 000a 04       		.byte	0x4
 1104 000b 01       		.uleb128 0x1
 1105 000c 73030000 		.4byte	.LASF69
 1106 0010 0C       		.byte	0xc
 1107 0011 76000000 		.4byte	.LASF70
 1108 0015 2F010000 		.4byte	.LASF71
 1109 0019 00000000 		.4byte	.Ltext0
 1110 001d 40040000 		.4byte	.Letext0
 1111 0021 00000000 		.4byte	.Ldebug_line0
 1112 0025 02       		.uleb128 0x2
 1113 0026 19010000 		.4byte	.LASF0
 1114 002a 04       		.byte	0x4
 1115 002b 02       		.byte	0x2
 1116 002c 04       		.byte	0x4
ARM GAS  G:\Users\Jaxb\AppData\Local\Temp\ccccNtaX.s 			page 27


 1117 002d 40000000 		.4byte	0x40
 1118 0031 03       		.uleb128 0x3
 1119 0032 51040000 		.4byte	.LASF2
 1120 0036 02       		.byte	0x2
 1121 0037 05       		.byte	0x5
 1122 0038 40000000 		.4byte	0x40
 1123 003c 02       		.byte	0x2
 1124 003d 23       		.byte	0x23
 1125 003e 00       		.uleb128 0
 1126 003f 00       		.byte	0
 1127 0040 04       		.uleb128 0x4
 1128 0041 04       		.byte	0x4
 1129 0042 25000000 		.4byte	0x25
 1130 0046 05       		.uleb128 0x5
 1131 0047 56040000 		.4byte	.LASF12
 1132 004b 03       		.byte	0x3
 1133 004c 10       		.byte	0x10
 1134 004d 51000000 		.4byte	0x51
 1135 0051 06       		.uleb128 0x6
 1136 0052 01       		.byte	0x1
 1137 0053 08       		.byte	0x8
 1138 0054 8D020000 		.4byte	.LASF7
 1139 0058 07       		.uleb128 0x7
 1140 0059 51000000 		.4byte	0x51
 1141 005d 02       		.uleb128 0x2
 1142 005e BE000000 		.4byte	.LASF1
 1143 0062 10       		.byte	0x10
 1144 0063 03       		.byte	0x3
 1145 0064 21       		.byte	0x21
 1146 0065 A2000000 		.4byte	0xa2
 1147 0069 03       		.uleb128 0x3
 1148 006a 3B000000 		.4byte	.LASF3
 1149 006e 03       		.byte	0x3
 1150 006f 23       		.byte	0x23
 1151 0070 A2000000 		.4byte	0xa2
 1152 0074 02       		.byte	0x2
 1153 0075 23       		.byte	0x23
 1154 0076 00       		.uleb128 0
 1155 0077 03       		.uleb128 0x3
 1156 0078 92020000 		.4byte	.LASF4
 1157 007c 03       		.byte	0x3
 1158 007d 24       		.byte	0x24
 1159 007e 46000000 		.4byte	0x46
 1160 0082 02       		.byte	0x2
 1161 0083 23       		.byte	0x23
 1162 0084 04       		.uleb128 0x4
 1163 0085 03       		.uleb128 0x3
 1164 0086 48040000 		.4byte	.LASF5
 1165 008a 03       		.byte	0x3
 1166 008b 25       		.byte	0x25
 1167 008c A8000000 		.4byte	0xa8
 1168 0090 02       		.byte	0x2
 1169 0091 23       		.byte	0x23
 1170 0092 08       		.uleb128 0x8
 1171 0093 03       		.uleb128 0x3
 1172 0094 AD020000 		.4byte	.LASF6
 1173 0098 03       		.byte	0x3
ARM GAS  G:\Users\Jaxb\AppData\Local\Temp\ccccNtaX.s 			page 28


 1174 0099 26       		.byte	0x26
 1175 009a 25000000 		.4byte	0x25
 1176 009e 02       		.byte	0x2
 1177 009f 23       		.byte	0x23
 1178 00a0 0C       		.uleb128 0xc
 1179 00a1 00       		.byte	0
 1180 00a2 04       		.uleb128 0x4
 1181 00a3 04       		.byte	0x4
 1182 00a4 51000000 		.4byte	0x51
 1183 00a8 08       		.uleb128 0x8
 1184 00a9 04       		.byte	0x4
 1185 00aa 06       		.uleb128 0x6
 1186 00ab 01       		.byte	0x1
 1187 00ac 06       		.byte	0x6
 1188 00ad E1010000 		.4byte	.LASF8
 1189 00b1 06       		.uleb128 0x6
 1190 00b2 02       		.byte	0x2
 1191 00b3 05       		.byte	0x5
 1192 00b4 61000000 		.4byte	.LASF9
 1193 00b8 09       		.uleb128 0x9
 1194 00b9 04       		.byte	0x4
 1195 00ba 05       		.byte	0x5
 1196 00bb 696E7400 		.ascii	"int\000"
 1197 00bf 0A       		.uleb128 0xa
 1198 00c0 B8000000 		.4byte	0xb8
 1199 00c4 06       		.uleb128 0x6
 1200 00c5 08       		.byte	0x8
 1201 00c6 05       		.byte	0x5
 1202 00c7 5D010000 		.4byte	.LASF10
 1203 00cb 06       		.uleb128 0x6
 1204 00cc 01       		.byte	0x1
 1205 00cd 08       		.byte	0x8
 1206 00ce CE010000 		.4byte	.LASF11
 1207 00d2 05       		.uleb128 0x5
 1208 00d3 86020000 		.4byte	.LASF13
 1209 00d7 04       		.byte	0x4
 1210 00d8 0B       		.byte	0xb
 1211 00d9 DD000000 		.4byte	0xdd
 1212 00dd 06       		.uleb128 0x6
 1213 00de 02       		.byte	0x2
 1214 00df 07       		.byte	0x7
 1215 00e0 73020000 		.4byte	.LASF14
 1216 00e4 05       		.uleb128 0x5
 1217 00e5 A0000000 		.4byte	.LASF15
 1218 00e9 04       		.byte	0x4
 1219 00ea 0C       		.byte	0xc
 1220 00eb EF000000 		.4byte	0xef
 1221 00ef 06       		.uleb128 0x6
 1222 00f0 04       		.byte	0x4
 1223 00f1 07       		.byte	0x7
 1224 00f2 12020000 		.4byte	.LASF16
 1225 00f6 06       		.uleb128 0x6
 1226 00f7 08       		.byte	0x8
 1227 00f8 07       		.byte	0x7
 1228 00f9 ED010000 		.4byte	.LASF17
 1229 00fd 0B       		.uleb128 0xb
 1230 00fe 0004     		.2byte	0x400
ARM GAS  G:\Users\Jaxb\AppData\Local\Temp\ccccNtaX.s 			page 29


 1231 0100 05       		.byte	0x5
 1232 0101 10       		.byte	0x10
 1233 0102 13010000 		.4byte	0x113
 1234 0106 0C       		.uleb128 0xc
 1235 0107 6100     		.ascii	"a\000"
 1236 0109 05       		.byte	0x5
 1237 010a 11       		.byte	0x11
 1238 010b 13010000 		.4byte	0x113
 1239 010f 02       		.byte	0x2
 1240 0110 23       		.byte	0x23
 1241 0111 00       		.uleb128 0
 1242 0112 00       		.byte	0
 1243 0113 0D       		.uleb128 0xd
 1244 0114 B8000000 		.4byte	0xb8
 1245 0118 23010000 		.4byte	0x123
 1246 011c 0E       		.uleb128 0xe
 1247 011d EF000000 		.4byte	0xef
 1248 0121 FF       		.byte	0xff
 1249 0122 00       		.byte	0
 1250 0123 05       		.uleb128 0x5
 1251 0124 9B010000 		.4byte	.LASF18
 1252 0128 05       		.byte	0x5
 1253 0129 12       		.byte	0x12
 1254 012a FD000000 		.4byte	0xfd
 1255 012e 05       		.uleb128 0x5
 1256 012f 3C020000 		.4byte	.LASF19
 1257 0133 05       		.byte	0x5
 1258 0134 14       		.byte	0x14
 1259 0135 E4000000 		.4byte	0xe4
 1260 0139 05       		.uleb128 0x5
 1261 013a 0B010000 		.4byte	.LASF20
 1262 013e 05       		.byte	0x5
 1263 013f 15       		.byte	0x15
 1264 0140 D2000000 		.4byte	0xd2
 1265 0144 05       		.uleb128 0x5
 1266 0145 8A010000 		.4byte	.LASF21
 1267 0149 05       		.byte	0x5
 1268 014a 16       		.byte	0x16
 1269 014b 23010000 		.4byte	0x123
 1270 014f 02       		.uleb128 0x2
 1271 0150 31030000 		.4byte	.LASF22
 1272 0154 14       		.byte	0x14
 1273 0155 05       		.byte	0x5
 1274 0156 19       		.byte	0x19
 1275 0157 A2010000 		.4byte	0x1a2
 1276 015b 03       		.uleb128 0x3
 1277 015c 1E040000 		.4byte	.LASF23
 1278 0160 05       		.byte	0x5
 1279 0161 1A       		.byte	0x1a
 1280 0162 EF000000 		.4byte	0xef
 1281 0166 02       		.byte	0x2
 1282 0167 23       		.byte	0x23
 1283 0168 00       		.uleb128 0
 1284 0169 03       		.uleb128 0x3
 1285 016a 48000000 		.4byte	.LASF24
 1286 016e 05       		.byte	0x5
 1287 016f 1B       		.byte	0x1b
ARM GAS  G:\Users\Jaxb\AppData\Local\Temp\ccccNtaX.s 			page 30


 1288 0170 EF000000 		.4byte	0xef
 1289 0174 02       		.byte	0x2
 1290 0175 23       		.byte	0x23
 1291 0176 04       		.uleb128 0x4
 1292 0177 03       		.uleb128 0x3
 1293 0178 69020000 		.4byte	.LASF25
 1294 017c 05       		.byte	0x5
 1295 017d 1C       		.byte	0x1c
 1296 017e EF000000 		.4byte	0xef
 1297 0182 02       		.byte	0x2
 1298 0183 23       		.byte	0x23
 1299 0184 08       		.uleb128 0x8
 1300 0185 03       		.uleb128 0x3
 1301 0186 43040000 		.4byte	.LASF26
 1302 018a 05       		.byte	0x5
 1303 018b 1D       		.byte	0x1d
 1304 018c EF000000 		.4byte	0xef
 1305 0190 02       		.byte	0x2
 1306 0191 23       		.byte	0x23
 1307 0192 0C       		.uleb128 0xc
 1308 0193 03       		.uleb128 0x3
 1309 0194 B9010000 		.4byte	.LASF27
 1310 0198 05       		.byte	0x5
 1311 0199 1E       		.byte	0x1e
 1312 019a EF000000 		.4byte	0xef
 1313 019e 02       		.byte	0x2
 1314 019f 23       		.byte	0x23
 1315 01a0 10       		.uleb128 0x10
 1316 01a1 00       		.byte	0
 1317 01a2 02       		.uleb128 0x2
 1318 01a3 F6000000 		.4byte	.LASF28
 1319 01a7 04       		.byte	0x4
 1320 01a8 05       		.byte	0x5
 1321 01a9 21       		.byte	0x21
 1322 01aa CB010000 		.4byte	0x1cb
 1323 01ae 0C       		.uleb128 0xc
 1324 01af 6E756D00 		.ascii	"num\000"
 1325 01b3 05       		.byte	0x5
 1326 01b4 22       		.byte	0x22
 1327 01b5 39010000 		.4byte	0x139
 1328 01b9 02       		.byte	0x2
 1329 01ba 23       		.byte	0x23
 1330 01bb 00       		.uleb128 0
 1331 01bc 03       		.uleb128 0x3
 1332 01bd 51040000 		.4byte	.LASF2
 1333 01c1 05       		.byte	0x5
 1334 01c2 23       		.byte	0x23
 1335 01c3 39010000 		.4byte	0x139
 1336 01c7 02       		.byte	0x2
 1337 01c8 23       		.byte	0x23
 1338 01c9 02       		.uleb128 0x2
 1339 01ca 00       		.byte	0
 1340 01cb 02       		.uleb128 0x2
 1341 01cc DD020000 		.4byte	.LASF29
 1342 01d0 3C       		.byte	0x3c
 1343 01d1 05       		.byte	0x5
 1344 01d2 39       		.byte	0x39
ARM GAS  G:\Users\Jaxb\AppData\Local\Temp\ccccNtaX.s 			page 31


 1345 01d3 72020000 		.4byte	0x272
 1346 01d7 03       		.uleb128 0x3
 1347 01d8 19040000 		.4byte	.LASF30
 1348 01dc 05       		.byte	0x5
 1349 01dd 3A       		.byte	0x3a
 1350 01de 72020000 		.4byte	0x272
 1351 01e2 02       		.byte	0x2
 1352 01e3 23       		.byte	0x23
 1353 01e4 00       		.uleb128 0
 1354 01e5 03       		.uleb128 0x3
 1355 01e6 51000000 		.4byte	.LASF31
 1356 01ea 05       		.byte	0x5
 1357 01eb 3B       		.byte	0x3b
 1358 01ec 78020000 		.4byte	0x278
 1359 01f0 02       		.byte	0x2
 1360 01f1 23       		.byte	0x23
 1361 01f2 04       		.uleb128 0x4
 1362 01f3 03       		.uleb128 0x3
 1363 01f4 46020000 		.4byte	.LASF32
 1364 01f8 05       		.byte	0x5
 1365 01f9 3C       		.byte	0x3c
 1366 01fa 39010000 		.4byte	0x139
 1367 01fe 02       		.byte	0x2
 1368 01ff 23       		.byte	0x23
 1369 0200 08       		.uleb128 0x8
 1370 0201 03       		.uleb128 0x3
 1371 0202 E6000000 		.4byte	.LASF33
 1372 0206 05       		.byte	0x5
 1373 0207 3D       		.byte	0x3d
 1374 0208 7E020000 		.4byte	0x27e
 1375 020c 02       		.byte	0x2
 1376 020d 23       		.byte	0x23
 1377 020e 0C       		.uleb128 0xc
 1378 020f 03       		.uleb128 0x3
 1379 0210 37040000 		.4byte	.LASF34
 1380 0214 05       		.byte	0x5
 1381 0215 3E       		.byte	0x3e
 1382 0216 7E020000 		.4byte	0x27e
 1383 021a 02       		.byte	0x2
 1384 021b 23       		.byte	0x23
 1385 021c 10       		.uleb128 0x10
 1386 021d 03       		.uleb128 0x3
 1387 021e 1F020000 		.4byte	.LASF35
 1388 0222 05       		.byte	0x5
 1389 0223 3F       		.byte	0x3f
 1390 0224 84020000 		.4byte	0x284
 1391 0228 02       		.byte	0x2
 1392 0229 23       		.byte	0x23
 1393 022a 14       		.uleb128 0x14
 1394 022b 03       		.uleb128 0x3
 1395 022c 57020000 		.4byte	.LASF36
 1396 0230 05       		.byte	0x5
 1397 0231 40       		.byte	0x40
 1398 0232 EF000000 		.4byte	0xef
 1399 0236 02       		.byte	0x2
 1400 0237 23       		.byte	0x23
 1401 0238 18       		.uleb128 0x18
ARM GAS  G:\Users\Jaxb\AppData\Local\Temp\ccccNtaX.s 			page 32


 1402 0239 03       		.uleb128 0x3
 1403 023a 62030000 		.4byte	.LASF37
 1404 023e 05       		.byte	0x5
 1405 023f 41       		.byte	0x41
 1406 0240 EF000000 		.4byte	0xef
 1407 0244 02       		.byte	0x2
 1408 0245 23       		.byte	0x23
 1409 0246 1C       		.uleb128 0x1c
 1410 0247 03       		.uleb128 0x3
 1411 0248 3C030000 		.4byte	.LASF38
 1412 024c 05       		.byte	0x5
 1413 024d 42       		.byte	0x42
 1414 024e 4F010000 		.4byte	0x14f
 1415 0252 02       		.byte	0x2
 1416 0253 23       		.byte	0x23
 1417 0254 20       		.uleb128 0x20
 1418 0255 03       		.uleb128 0x3
 1419 0256 51040000 		.4byte	.LASF2
 1420 025a 05       		.byte	0x5
 1421 025b 43       		.byte	0x43
 1422 025c 8A020000 		.4byte	0x28a
 1423 0260 02       		.byte	0x2
 1424 0261 23       		.byte	0x23
 1425 0262 34       		.uleb128 0x34
 1426 0263 03       		.uleb128 0x3
 1427 0264 4C030000 		.4byte	.LASF39
 1428 0268 05       		.byte	0x5
 1429 0269 44       		.byte	0x44
 1430 026a 90020000 		.4byte	0x290
 1431 026e 02       		.byte	0x2
 1432 026f 23       		.byte	0x23
 1433 0270 38       		.uleb128 0x38
 1434 0271 00       		.byte	0
 1435 0272 04       		.uleb128 0x4
 1436 0273 04       		.byte	0x4
 1437 0274 2E010000 		.4byte	0x12e
 1438 0278 04       		.uleb128 0x4
 1439 0279 04       		.byte	0x4
 1440 027a A2010000 		.4byte	0x1a2
 1441 027e 04       		.uleb128 0x4
 1442 027f 04       		.byte	0x4
 1443 0280 39010000 		.4byte	0x139
 1444 0284 04       		.uleb128 0x4
 1445 0285 04       		.byte	0x4
 1446 0286 D2000000 		.4byte	0xd2
 1447 028a 04       		.uleb128 0x4
 1448 028b 04       		.byte	0x4
 1449 028c CB010000 		.4byte	0x1cb
 1450 0290 04       		.uleb128 0x4
 1451 0291 04       		.byte	0x4
 1452 0292 44010000 		.4byte	0x144
 1453 0296 02       		.uleb128 0x2
 1454 0297 CD000000 		.4byte	.LASF40
 1455 029b 60       		.byte	0x60
 1456 029c 06       		.byte	0x6
 1457 029d 09       		.byte	0x9
 1458 029e F7020000 		.4byte	0x2f7
ARM GAS  G:\Users\Jaxb\AppData\Local\Temp\ccccNtaX.s 			page 33


 1459 02a2 03       		.uleb128 0x3
 1460 02a3 2A010000 		.4byte	.LASF41
 1461 02a7 06       		.byte	0x6
 1462 02a8 0B       		.byte	0xb
 1463 02a9 F7020000 		.4byte	0x2f7
 1464 02ad 02       		.byte	0x2
 1465 02ae 23       		.byte	0x23
 1466 02af 00       		.uleb128 0
 1467 02b0 03       		.uleb128 0x3
 1468 02b1 D0020000 		.4byte	.LASF42
 1469 02b5 06       		.byte	0x6
 1470 02b6 0C       		.byte	0xc
 1471 02b7 F7020000 		.4byte	0x2f7
 1472 02bb 02       		.byte	0x2
 1473 02bc 23       		.byte	0x23
 1474 02bd 28       		.uleb128 0x28
 1475 02be 03       		.uleb128 0x3
 1476 02bf C4020000 		.4byte	.LASF43
 1477 02c3 06       		.byte	0x6
 1478 02c4 0D       		.byte	0xd
 1479 02c5 A2000000 		.4byte	0xa2
 1480 02c9 02       		.byte	0x2
 1481 02ca 23       		.byte	0x23
 1482 02cb 50       		.uleb128 0x50
 1483 02cc 03       		.uleb128 0x3
 1484 02cd 6B010000 		.4byte	.LASF44
 1485 02d1 06       		.byte	0x6
 1486 02d2 0E       		.byte	0xe
 1487 02d3 A2000000 		.4byte	0xa2
 1488 02d7 02       		.byte	0x2
 1489 02d8 23       		.byte	0x23
 1490 02d9 54       		.uleb128 0x54
 1491 02da 03       		.uleb128 0x3
 1492 02db 5B000000 		.4byte	.LASF45
 1493 02df 06       		.byte	0x6
 1494 02e0 0F       		.byte	0xf
 1495 02e1 EF000000 		.4byte	0xef
 1496 02e5 02       		.byte	0x2
 1497 02e6 23       		.byte	0x23
 1498 02e7 58       		.uleb128 0x58
 1499 02e8 03       		.uleb128 0x3
 1500 02e9 9F020000 		.4byte	.LASF46
 1501 02ed 06       		.byte	0x6
 1502 02ee 10       		.byte	0x10
 1503 02ef EF000000 		.4byte	0xef
 1504 02f3 02       		.byte	0x2
 1505 02f4 23       		.byte	0x23
 1506 02f5 5C       		.uleb128 0x5c
 1507 02f6 00       		.byte	0
 1508 02f7 0D       		.uleb128 0xd
 1509 02f8 A2000000 		.4byte	0xa2
 1510 02fc 07030000 		.4byte	0x307
 1511 0300 0E       		.uleb128 0xe
 1512 0301 EF000000 		.4byte	0xef
 1513 0305 09       		.byte	0x9
 1514 0306 00       		.byte	0
 1515 0307 05       		.uleb128 0x5
ARM GAS  G:\Users\Jaxb\AppData\Local\Temp\ccccNtaX.s 			page 34


 1516 0308 00000000 		.4byte	.LASF47
 1517 030c 07       		.byte	0x7
 1518 030d 0B       		.byte	0xb
 1519 030e EF000000 		.4byte	0xef
 1520 0312 0F       		.uleb128 0xf
 1521 0313 B2020000 		.4byte	.LASF72
 1522 0317 07       		.byte	0x7
 1523 0318 12       		.byte	0x12
 1524 0319 BF000000 		.4byte	0xbf
 1525 031d 01       		.byte	0x1
 1526 031e 01       		.byte	0x1
 1527 031f 04       		.uleb128 0x4
 1528 0320 04       		.byte	0x4
 1529 0321 58000000 		.4byte	0x58
 1530 0325 10       		.uleb128 0x10
 1531 0326 01       		.byte	0x1
 1532 0327 0F000000 		.4byte	.LASF49
 1533 032b 01       		.byte	0x1
 1534 032c FC       		.byte	0xfc
 1535 032d 01       		.byte	0x1
 1536 032e 20040000 		.4byte	.LFB29
 1537 0332 40040000 		.4byte	.LFE29
 1538 0336 00000000 		.4byte	.LLST12
 1539 033a 01       		.byte	0x1
 1540 033b 5C030000 		.4byte	0x35c
 1541 033f 11       		.uleb128 0x11
 1542 0340 DC010000 		.4byte	.LASF48
 1543 0344 01       		.byte	0x1
 1544 0345 FC       		.byte	0xfc
 1545 0346 B8000000 		.4byte	0xb8
 1546 034a 02       		.byte	0x2
 1547 034b 91       		.byte	0x91
 1548 034c 74       		.sleb128 -12
 1549 034d 11       		.uleb128 0x11
 1550 034e 2A010000 		.4byte	.LASF41
 1551 0352 01       		.byte	0x1
 1552 0353 FC       		.byte	0xfc
 1553 0354 5C030000 		.4byte	0x35c
 1554 0358 02       		.byte	0x2
 1555 0359 91       		.byte	0x91
 1556 035a 70       		.sleb128 -16
 1557 035b 00       		.byte	0
 1558 035c 04       		.uleb128 0x4
 1559 035d 04       		.byte	0x4
 1560 035e 1F030000 		.4byte	0x31f
 1561 0362 10       		.uleb128 0x10
 1562 0363 01       		.byte	0x1
 1563 0364 2A000000 		.4byte	.LASF50
 1564 0368 01       		.byte	0x1
 1565 0369 F1       		.byte	0xf1
 1566 036a 01       		.byte	0x1
 1567 036b F4030000 		.4byte	.LFB28
 1568 036f 20040000 		.4byte	.LFE28
 1569 0373 50000000 		.4byte	.LLST11
 1570 0377 01       		.byte	0x1
 1571 0378 99030000 		.4byte	0x399
 1572 037c 11       		.uleb128 0x11
ARM GAS  G:\Users\Jaxb\AppData\Local\Temp\ccccNtaX.s 			page 35


 1573 037d DC010000 		.4byte	.LASF48
 1574 0381 01       		.byte	0x1
 1575 0382 F1       		.byte	0xf1
 1576 0383 B8000000 		.4byte	0xb8
 1577 0387 02       		.byte	0x2
 1578 0388 91       		.byte	0x91
 1579 0389 74       		.sleb128 -12
 1580 038a 11       		.uleb128 0x11
 1581 038b 2A010000 		.4byte	.LASF41
 1582 038f 01       		.byte	0x1
 1583 0390 F1       		.byte	0xf1
 1584 0391 5C030000 		.4byte	0x35c
 1585 0395 02       		.byte	0x2
 1586 0396 91       		.byte	0x91
 1587 0397 70       		.sleb128 -16
 1588 0398 00       		.byte	0
 1589 0399 10       		.uleb128 0x10
 1590 039a 01       		.byte	0x1
 1591 039b 2F020000 		.4byte	.LASF51
 1592 039f 01       		.byte	0x1
 1593 03a0 97       		.byte	0x97
 1594 03a1 01       		.byte	0x1
 1595 03a2 74020000 		.4byte	.LFB27
 1596 03a6 F4030000 		.4byte	.LFE27
 1597 03aa A0000000 		.4byte	.LLST10
 1598 03ae 01       		.byte	0x1
 1599 03af 59040000 		.4byte	0x459
 1600 03b3 11       		.uleb128 0x11
 1601 03b4 DC010000 		.4byte	.LASF48
 1602 03b8 01       		.byte	0x1
 1603 03b9 97       		.byte	0x97
 1604 03ba B8000000 		.4byte	0xb8
 1605 03be 03       		.byte	0x3
 1606 03bf 91       		.byte	0x91
 1607 03c0 F47E     		.sleb128 -140
 1608 03c2 11       		.uleb128 0x11
 1609 03c3 2A010000 		.4byte	.LASF41
 1610 03c7 01       		.byte	0x1
 1611 03c8 97       		.byte	0x97
 1612 03c9 5C030000 		.4byte	0x35c
 1613 03cd 03       		.byte	0x3
 1614 03ce 91       		.byte	0x91
 1615 03cf F07E     		.sleb128 -144
 1616 03d1 12       		.uleb128 0x12
 1617 03d2 62756600 		.ascii	"buf\000"
 1618 03d6 01       		.byte	0x1
 1619 03d7 99       		.byte	0x99
 1620 03d8 A8000000 		.4byte	0xa8
 1621 03dc 02       		.byte	0x2
 1622 03dd 91       		.byte	0x91
 1623 03de 74       		.sleb128 -12
 1624 03df 13       		.uleb128 0x13
 1625 03e0 E3020000 		.4byte	.LASF52
 1626 03e4 01       		.byte	0x1
 1627 03e5 9A       		.byte	0x9a
 1628 03e6 A2000000 		.4byte	0xa2
 1629 03ea 02       		.byte	0x2
ARM GAS  G:\Users\Jaxb\AppData\Local\Temp\ccccNtaX.s 			page 36


 1630 03eb 91       		.byte	0x91
 1631 03ec 60       		.sleb128 -32
 1632 03ed 13       		.uleb128 0x13
 1633 03ee 1E000000 		.4byte	.LASF53
 1634 03f2 01       		.byte	0x1
 1635 03f3 9B       		.byte	0x9b
 1636 03f4 B8000000 		.4byte	0xb8
 1637 03f8 02       		.byte	0x2
 1638 03f9 91       		.byte	0x91
 1639 03fa 70       		.sleb128 -16
 1640 03fb 13       		.uleb128 0x13
 1641 03fc 41030000 		.4byte	.LASF54
 1642 0400 01       		.byte	0x1
 1643 0401 9C       		.byte	0x9c
 1644 0402 EF000000 		.4byte	0xef
 1645 0406 02       		.byte	0x2
 1646 0407 91       		.byte	0x91
 1647 0408 6C       		.sleb128 -20
 1648 0409 13       		.uleb128 0x13
 1649 040a 43040000 		.4byte	.LASF26
 1650 040e 01       		.byte	0x1
 1651 040f 9D       		.byte	0x9d
 1652 0410 07030000 		.4byte	0x307
 1653 0414 02       		.byte	0x2
 1654 0415 91       		.byte	0x91
 1655 0416 68       		.sleb128 -24
 1656 0417 13       		.uleb128 0x13
 1657 0418 01010000 		.4byte	.LASF55
 1658 041c 01       		.byte	0x1
 1659 041d 9E       		.byte	0x9e
 1660 041e A2000000 		.4byte	0xa2
 1661 0422 02       		.byte	0x2
 1662 0423 91       		.byte	0x91
 1663 0424 64       		.sleb128 -28
 1664 0425 13       		.uleb128 0x13
 1665 0426 CD000000 		.4byte	.LASF40
 1666 042a 01       		.byte	0x1
 1667 042b BF       		.byte	0xbf
 1668 042c 96020000 		.4byte	0x296
 1669 0430 03       		.byte	0x3
 1670 0431 91       		.byte	0x91
 1671 0432 FC7E     		.sleb128 -132
 1672 0434 14       		.uleb128 0x14
 1673 0435 6F757400 		.ascii	"out\000"
 1674 0439 01       		.byte	0x1
 1675 043a EA       		.byte	0xea
 1676 043b BE030000 		.4byte	.L48
 1677 043f 15       		.uleb128 0x15
 1678 0440 36000000 		.4byte	.LASF56
 1679 0444 01       		.byte	0x1
 1680 0445 E8       		.byte	0xe8
 1681 0446 24030000 		.4byte	.L50
 1682 044a 13       		.uleb128 0x13
 1683 044b 09030000 		.4byte	.LASF57
 1684 044f 01       		.byte	0x1
 1685 0450 CB       		.byte	0xcb
 1686 0451 59040000 		.4byte	0x459
ARM GAS  G:\Users\Jaxb\AppData\Local\Temp\ccccNtaX.s 			page 37


 1687 0455 02       		.byte	0x2
 1688 0456 91       		.byte	0x91
 1689 0457 5C       		.sleb128 -36
 1690 0458 00       		.byte	0
 1691 0459 04       		.uleb128 0x4
 1692 045a 04       		.byte	0x4
 1693 045b 96020000 		.4byte	0x296
 1694 045f 10       		.uleb128 0x10
 1695 0460 01       		.byte	0x1
 1696 0461 A7000000 		.4byte	.LASF58
 1697 0465 01       		.byte	0x1
 1698 0466 87       		.byte	0x87
 1699 0467 01       		.byte	0x1
 1700 0468 5E020000 		.4byte	.LFB26
 1701 046c 74020000 		.4byte	.LFE26
 1702 0470 F2000000 		.4byte	.LLST9
 1703 0474 01       		.byte	0x1
 1704 0475 96040000 		.4byte	0x496
 1705 0479 11       		.uleb128 0x11
 1706 047a DC010000 		.4byte	.LASF48
 1707 047e 01       		.byte	0x1
 1708 047f 87       		.byte	0x87
 1709 0480 B8000000 		.4byte	0xb8
 1710 0484 02       		.byte	0x2
 1711 0485 91       		.byte	0x91
 1712 0486 74       		.sleb128 -12
 1713 0487 11       		.uleb128 0x11
 1714 0488 2A010000 		.4byte	.LASF41
 1715 048c 01       		.byte	0x1
 1716 048d 87       		.byte	0x87
 1717 048e 5C030000 		.4byte	0x35c
 1718 0492 02       		.byte	0x2
 1719 0493 91       		.byte	0x91
 1720 0494 70       		.sleb128 -16
 1721 0495 00       		.byte	0
 1722 0496 10       		.uleb128 0x10
 1723 0497 01       		.byte	0x1
 1724 0498 7A010000 		.4byte	.LASF59
 1725 049c 01       		.byte	0x1
 1726 049d 7D       		.byte	0x7d
 1727 049e 01       		.byte	0x1
 1728 049f 40020000 		.4byte	.LFB25
 1729 04a3 5E020000 		.4byte	.LFE25
 1730 04a7 42010000 		.4byte	.LLST8
 1731 04ab 01       		.byte	0x1
 1732 04ac CD040000 		.4byte	0x4cd
 1733 04b0 11       		.uleb128 0x11
 1734 04b1 DC010000 		.4byte	.LASF48
 1735 04b5 01       		.byte	0x1
 1736 04b6 7D       		.byte	0x7d
 1737 04b7 B8000000 		.4byte	0xb8
 1738 04bb 02       		.byte	0x2
 1739 04bc 91       		.byte	0x91
 1740 04bd 74       		.sleb128 -12
 1741 04be 11       		.uleb128 0x11
 1742 04bf 2A010000 		.4byte	.LASF41
 1743 04c3 01       		.byte	0x1
ARM GAS  G:\Users\Jaxb\AppData\Local\Temp\ccccNtaX.s 			page 38


 1744 04c4 7D       		.byte	0x7d
 1745 04c5 5C030000 		.4byte	0x35c
 1746 04c9 02       		.byte	0x2
 1747 04ca 91       		.byte	0x91
 1748 04cb 70       		.sleb128 -16
 1749 04cc 00       		.byte	0
 1750 04cd 10       		.uleb128 0x10
 1751 04ce 01       		.byte	0x1
 1752 04cf F1020000 		.4byte	.LASF60
 1753 04d3 01       		.byte	0x1
 1754 04d4 6C       		.byte	0x6c
 1755 04d5 01       		.byte	0x1
 1756 04d6 F8010000 		.4byte	.LFB24
 1757 04da 40020000 		.4byte	.LFE24
 1758 04de 92010000 		.4byte	.LLST7
 1759 04e2 01       		.byte	0x1
 1760 04e3 12050000 		.4byte	0x512
 1761 04e7 11       		.uleb128 0x11
 1762 04e8 DC010000 		.4byte	.LASF48
 1763 04ec 01       		.byte	0x1
 1764 04ed 6C       		.byte	0x6c
 1765 04ee B8000000 		.4byte	0xb8
 1766 04f2 02       		.byte	0x2
 1767 04f3 91       		.byte	0x91
 1768 04f4 6C       		.sleb128 -20
 1769 04f5 11       		.uleb128 0x11
 1770 04f6 2A010000 		.4byte	.LASF41
 1771 04fa 01       		.byte	0x1
 1772 04fb 6C       		.byte	0x6c
 1773 04fc 5C030000 		.4byte	0x35c
 1774 0500 02       		.byte	0x2
 1775 0501 91       		.byte	0x91
 1776 0502 68       		.sleb128 -24
 1777 0503 13       		.uleb128 0x13
 1778 0504 1E030000 		.4byte	.LASF61
 1779 0508 01       		.byte	0x1
 1780 0509 73       		.byte	0x73
 1781 050a 12050000 		.4byte	0x512
 1782 050e 02       		.byte	0x2
 1783 050f 91       		.byte	0x91
 1784 0510 74       		.sleb128 -12
 1785 0511 00       		.byte	0
 1786 0512 04       		.uleb128 0x4
 1787 0513 04       		.byte	0x4
 1788 0514 5D000000 		.4byte	0x5d
 1789 0518 10       		.uleb128 0x10
 1790 0519 01       		.byte	0x1
 1791 051a B4000000 		.4byte	.LASF62
 1792 051e 01       		.byte	0x1
 1793 051f 5A       		.byte	0x5a
 1794 0520 01       		.byte	0x1
 1795 0521 A4010000 		.4byte	.LFB23
 1796 0525 F8010000 		.4byte	.LFE23
 1797 0529 E2010000 		.4byte	.LLST6
 1798 052d 01       		.byte	0x1
 1799 052e 5D050000 		.4byte	0x55d
 1800 0532 11       		.uleb128 0x11
ARM GAS  G:\Users\Jaxb\AppData\Local\Temp\ccccNtaX.s 			page 39


 1801 0533 DC010000 		.4byte	.LASF48
 1802 0537 01       		.byte	0x1
 1803 0538 5A       		.byte	0x5a
 1804 0539 B8000000 		.4byte	0xb8
 1805 053d 02       		.byte	0x2
 1806 053e 91       		.byte	0x91
 1807 053f 6C       		.sleb128 -20
 1808 0540 11       		.uleb128 0x11
 1809 0541 2A010000 		.4byte	.LASF41
 1810 0545 01       		.byte	0x1
 1811 0546 5A       		.byte	0x5a
 1812 0547 5C030000 		.4byte	0x35c
 1813 054b 02       		.byte	0x2
 1814 054c 91       		.byte	0x91
 1815 054d 68       		.sleb128 -24
 1816 054e 13       		.uleb128 0x13
 1817 054f 1E030000 		.4byte	.LASF61
 1818 0553 01       		.byte	0x1
 1819 0554 61       		.byte	0x61
 1820 0555 12050000 		.4byte	0x512
 1821 0559 02       		.byte	0x2
 1822 055a 91       		.byte	0x91
 1823 055b 74       		.sleb128 -12
 1824 055c 00       		.byte	0
 1825 055d 10       		.uleb128 0x10
 1826 055e 01       		.byte	0x1
 1827 055f 6B000000 		.4byte	.LASF63
 1828 0563 01       		.byte	0x1
 1829 0564 49       		.byte	0x49
 1830 0565 01       		.byte	0x1
 1831 0566 58010000 		.4byte	.LFB22
 1832 056a A4010000 		.4byte	.LFE22
 1833 056e 32020000 		.4byte	.LLST5
 1834 0572 01       		.byte	0x1
 1835 0573 A2050000 		.4byte	0x5a2
 1836 0577 11       		.uleb128 0x11
 1837 0578 DC010000 		.4byte	.LASF48
 1838 057c 01       		.byte	0x1
 1839 057d 49       		.byte	0x49
 1840 057e B8000000 		.4byte	0xb8
 1841 0582 02       		.byte	0x2
 1842 0583 91       		.byte	0x91
 1843 0584 6C       		.sleb128 -20
 1844 0585 11       		.uleb128 0x11
 1845 0586 2A010000 		.4byte	.LASF41
 1846 058a 01       		.byte	0x1
 1847 058b 49       		.byte	0x49
 1848 058c 5C030000 		.4byte	0x35c
 1849 0590 02       		.byte	0x2
 1850 0591 91       		.byte	0x91
 1851 0592 68       		.sleb128 -24
 1852 0593 13       		.uleb128 0x13
 1853 0594 1E030000 		.4byte	.LASF61
 1854 0598 01       		.byte	0x1
 1855 0599 50       		.byte	0x50
 1856 059a 12050000 		.4byte	0x512
 1857 059e 02       		.byte	0x2
ARM GAS  G:\Users\Jaxb\AppData\Local\Temp\ccccNtaX.s 			page 40


 1858 059f 91       		.byte	0x91
 1859 05a0 74       		.sleb128 -12
 1860 05a1 00       		.byte	0
 1861 05a2 10       		.uleb128 0x10
 1862 05a3 01       		.byte	0x1
 1863 05a4 DA000000 		.4byte	.LASF64
 1864 05a8 01       		.byte	0x1
 1865 05a9 3E       		.byte	0x3e
 1866 05aa 01       		.byte	0x1
 1867 05ab 28010000 		.4byte	.LFB21
 1868 05af 58010000 		.4byte	.LFE21
 1869 05b3 82020000 		.4byte	.LLST4
 1870 05b7 01       		.byte	0x1
 1871 05b8 E5050000 		.4byte	0x5e5
 1872 05bc 11       		.uleb128 0x11
 1873 05bd DC010000 		.4byte	.LASF48
 1874 05c1 01       		.byte	0x1
 1875 05c2 3E       		.byte	0x3e
 1876 05c3 B8000000 		.4byte	0xb8
 1877 05c7 02       		.byte	0x2
 1878 05c8 91       		.byte	0x91
 1879 05c9 6C       		.sleb128 -20
 1880 05ca 11       		.uleb128 0x11
 1881 05cb 2A010000 		.4byte	.LASF41
 1882 05cf 01       		.byte	0x1
 1883 05d0 3E       		.byte	0x3e
 1884 05d1 5C030000 		.4byte	0x35c
 1885 05d5 02       		.byte	0x2
 1886 05d6 91       		.byte	0x91
 1887 05d7 68       		.sleb128 -24
 1888 05d8 12       		.uleb128 0x12
 1889 05d9 6900     		.ascii	"i\000"
 1890 05db 01       		.byte	0x1
 1891 05dc 42       		.byte	0x42
 1892 05dd EF000000 		.4byte	0xef
 1893 05e1 02       		.byte	0x2
 1894 05e2 91       		.byte	0x91
 1895 05e3 74       		.sleb128 -12
 1896 05e4 00       		.byte	0
 1897 05e5 10       		.uleb128 0x10
 1898 05e6 01       		.byte	0x1
 1899 05e7 FC020000 		.4byte	.LASF65
 1900 05eb 01       		.byte	0x1
 1901 05ec 2B       		.byte	0x2b
 1902 05ed 01       		.byte	0x1
 1903 05ee 72000000 		.4byte	.LFB20
 1904 05f2 28010000 		.4byte	.LFE20
 1905 05f6 D2020000 		.4byte	.LLST3
 1906 05fa 01       		.byte	0x1
 1907 05fb 36060000 		.4byte	0x636
 1908 05ff 11       		.uleb128 0x11
 1909 0600 DC010000 		.4byte	.LASF48
 1910 0604 01       		.byte	0x1
 1911 0605 2B       		.byte	0x2b
 1912 0606 B8000000 		.4byte	0xb8
 1913 060a 02       		.byte	0x2
 1914 060b 91       		.byte	0x91
ARM GAS  G:\Users\Jaxb\AppData\Local\Temp\ccccNtaX.s 			page 41


 1915 060c 6C       		.sleb128 -20
 1916 060d 11       		.uleb128 0x11
 1917 060e 2A010000 		.4byte	.LASF41
 1918 0612 01       		.byte	0x1
 1919 0613 2B       		.byte	0x2b
 1920 0614 5C030000 		.4byte	0x35c
 1921 0618 02       		.byte	0x2
 1922 0619 91       		.byte	0x91
 1923 061a 68       		.sleb128 -24
 1924 061b 13       		.uleb128 0x13
 1925 061c 2D040000 		.4byte	.LASF66
 1926 0620 01       		.byte	0x1
 1927 0621 2F       		.byte	0x2f
 1928 0622 8A020000 		.4byte	0x28a
 1929 0626 02       		.byte	0x2
 1930 0627 91       		.byte	0x91
 1931 0628 74       		.sleb128 -12
 1932 0629 12       		.uleb128 0x12
 1933 062a 6A00     		.ascii	"j\000"
 1934 062c 01       		.byte	0x1
 1935 062d 31       		.byte	0x31
 1936 062e EF000000 		.4byte	0xef
 1937 0632 02       		.byte	0x2
 1938 0633 91       		.byte	0x91
 1939 0634 70       		.sleb128 -16
 1940 0635 00       		.byte	0
 1941 0636 10       		.uleb128 0x10
 1942 0637 01       		.byte	0x1
 1943 0638 AE010000 		.4byte	.LASF67
 1944 063c 01       		.byte	0x1
 1945 063d 24       		.byte	0x24
 1946 063e 01       		.byte	0x1
 1947 063f 5C000000 		.4byte	.LFB19
 1948 0643 72000000 		.4byte	.LFE19
 1949 0647 22030000 		.4byte	.LLST2
 1950 064b 01       		.byte	0x1
 1951 064c 6D060000 		.4byte	0x66d
 1952 0650 11       		.uleb128 0x11
 1953 0651 DC010000 		.4byte	.LASF48
 1954 0655 01       		.byte	0x1
 1955 0656 24       		.byte	0x24
 1956 0657 B8000000 		.4byte	0xb8
 1957 065b 02       		.byte	0x2
 1958 065c 91       		.byte	0x91
 1959 065d 74       		.sleb128 -12
 1960 065e 11       		.uleb128 0x11
 1961 065f 2A010000 		.4byte	.LASF41
 1962 0663 01       		.byte	0x1
 1963 0664 24       		.byte	0x24
 1964 0665 5C030000 		.4byte	0x35c
 1965 0669 02       		.byte	0x2
 1966 066a 91       		.byte	0x91
 1967 066b 70       		.sleb128 -16
 1968 066c 00       		.byte	0
 1969 066d 10       		.uleb128 0x10
 1970 066e 01       		.byte	0x1
 1971 066f 04020000 		.4byte	.LASF68
ARM GAS  G:\Users\Jaxb\AppData\Local\Temp\ccccNtaX.s 			page 42


 1972 0673 01       		.byte	0x1
 1973 0674 1D       		.byte	0x1d
 1974 0675 01       		.byte	0x1
 1975 0676 40000000 		.4byte	.LFB18
 1976 067a 5C000000 		.4byte	.LFE18
 1977 067e 72030000 		.4byte	.LLST1
 1978 0682 01       		.byte	0x1
 1979 0683 A4060000 		.4byte	0x6a4
 1980 0687 11       		.uleb128 0x11
 1981 0688 DC010000 		.4byte	.LASF48
 1982 068c 01       		.byte	0x1
 1983 068d 1D       		.byte	0x1d
 1984 068e B8000000 		.4byte	0xb8
 1985 0692 02       		.byte	0x2
 1986 0693 91       		.byte	0x91
 1987 0694 74       		.sleb128 -12
 1988 0695 11       		.uleb128 0x11
 1989 0696 2A010000 		.4byte	.LASF41
 1990 069a 01       		.byte	0x1
 1991 069b 1D       		.byte	0x1d
 1992 069c 5C030000 		.4byte	0x35c
 1993 06a0 02       		.byte	0x2
 1994 06a1 91       		.byte	0x91
 1995 06a2 70       		.sleb128 -16
 1996 06a3 00       		.byte	0
 1997 06a4 16       		.uleb128 0x16
 1998 06a5 01       		.byte	0x1
 1999 06a6 CB020000 		.4byte	.LASF73
 2000 06aa 01       		.byte	0x1
 2001 06ab 13       		.byte	0x13
 2002 06ac 01       		.byte	0x1
 2003 06ad 00000000 		.4byte	.LFB17
 2004 06b1 40000000 		.4byte	.LFE17
 2005 06b5 C2030000 		.4byte	.LLST0
 2006 06b9 01       		.byte	0x1
 2007 06ba 11       		.uleb128 0x11
 2008 06bb DC010000 		.4byte	.LASF48
 2009 06bf 01       		.byte	0x1
 2010 06c0 13       		.byte	0x13
 2011 06c1 B8000000 		.4byte	0xb8
 2012 06c5 02       		.byte	0x2
 2013 06c6 91       		.byte	0x91
 2014 06c7 6C       		.sleb128 -20
 2015 06c8 11       		.uleb128 0x11
 2016 06c9 2A010000 		.4byte	.LASF41
 2017 06cd 01       		.byte	0x1
 2018 06ce 13       		.byte	0x13
 2019 06cf 5C030000 		.4byte	0x35c
 2020 06d3 02       		.byte	0x2
 2021 06d4 91       		.byte	0x91
 2022 06d5 68       		.sleb128 -24
 2023 06d6 12       		.uleb128 0x12
 2024 06d7 6900     		.ascii	"i\000"
 2025 06d9 01       		.byte	0x1
 2026 06da 17       		.byte	0x17
 2027 06db B8000000 		.4byte	0xb8
 2028 06df 02       		.byte	0x2
ARM GAS  G:\Users\Jaxb\AppData\Local\Temp\ccccNtaX.s 			page 43


 2029 06e0 91       		.byte	0x91
 2030 06e1 74       		.sleb128 -12
 2031 06e2 00       		.byte	0
 2032 06e3 00       		.byte	0
 2033              		.section	.debug_abbrev,"",%progbits
 2034              	.Ldebug_abbrev0:
 2035 0000 01       		.uleb128 0x1
 2036 0001 11       		.uleb128 0x11
 2037 0002 01       		.byte	0x1
 2038 0003 25       		.uleb128 0x25
 2039 0004 0E       		.uleb128 0xe
 2040 0005 13       		.uleb128 0x13
 2041 0006 0B       		.uleb128 0xb
 2042 0007 03       		.uleb128 0x3
 2043 0008 0E       		.uleb128 0xe
 2044 0009 1B       		.uleb128 0x1b
 2045 000a 0E       		.uleb128 0xe
 2046 000b 11       		.uleb128 0x11
 2047 000c 01       		.uleb128 0x1
 2048 000d 12       		.uleb128 0x12
 2049 000e 01       		.uleb128 0x1
 2050 000f 10       		.uleb128 0x10
 2051 0010 06       		.uleb128 0x6
 2052 0011 00       		.byte	0
 2053 0012 00       		.byte	0
 2054 0013 02       		.uleb128 0x2
 2055 0014 13       		.uleb128 0x13
 2056 0015 01       		.byte	0x1
 2057 0016 03       		.uleb128 0x3
 2058 0017 0E       		.uleb128 0xe
 2059 0018 0B       		.uleb128 0xb
 2060 0019 0B       		.uleb128 0xb
 2061 001a 3A       		.uleb128 0x3a
 2062 001b 0B       		.uleb128 0xb
 2063 001c 3B       		.uleb128 0x3b
 2064 001d 0B       		.uleb128 0xb
 2065 001e 01       		.uleb128 0x1
 2066 001f 13       		.uleb128 0x13
 2067 0020 00       		.byte	0
 2068 0021 00       		.byte	0
 2069 0022 03       		.uleb128 0x3
 2070 0023 0D       		.uleb128 0xd
 2071 0024 00       		.byte	0
 2072 0025 03       		.uleb128 0x3
 2073 0026 0E       		.uleb128 0xe
 2074 0027 3A       		.uleb128 0x3a
 2075 0028 0B       		.uleb128 0xb
 2076 0029 3B       		.uleb128 0x3b
 2077 002a 0B       		.uleb128 0xb
 2078 002b 49       		.uleb128 0x49
 2079 002c 13       		.uleb128 0x13
 2080 002d 38       		.uleb128 0x38
 2081 002e 0A       		.uleb128 0xa
 2082 002f 00       		.byte	0
 2083 0030 00       		.byte	0
 2084 0031 04       		.uleb128 0x4
 2085 0032 0F       		.uleb128 0xf
ARM GAS  G:\Users\Jaxb\AppData\Local\Temp\ccccNtaX.s 			page 44


 2086 0033 00       		.byte	0
 2087 0034 0B       		.uleb128 0xb
 2088 0035 0B       		.uleb128 0xb
 2089 0036 49       		.uleb128 0x49
 2090 0037 13       		.uleb128 0x13
 2091 0038 00       		.byte	0
 2092 0039 00       		.byte	0
 2093 003a 05       		.uleb128 0x5
 2094 003b 16       		.uleb128 0x16
 2095 003c 00       		.byte	0
 2096 003d 03       		.uleb128 0x3
 2097 003e 0E       		.uleb128 0xe
 2098 003f 3A       		.uleb128 0x3a
 2099 0040 0B       		.uleb128 0xb
 2100 0041 3B       		.uleb128 0x3b
 2101 0042 0B       		.uleb128 0xb
 2102 0043 49       		.uleb128 0x49
 2103 0044 13       		.uleb128 0x13
 2104 0045 00       		.byte	0
 2105 0046 00       		.byte	0
 2106 0047 06       		.uleb128 0x6
 2107 0048 24       		.uleb128 0x24
 2108 0049 00       		.byte	0
 2109 004a 0B       		.uleb128 0xb
 2110 004b 0B       		.uleb128 0xb
 2111 004c 3E       		.uleb128 0x3e
 2112 004d 0B       		.uleb128 0xb
 2113 004e 03       		.uleb128 0x3
 2114 004f 0E       		.uleb128 0xe
 2115 0050 00       		.byte	0
 2116 0051 00       		.byte	0
 2117 0052 07       		.uleb128 0x7
 2118 0053 26       		.uleb128 0x26
 2119 0054 00       		.byte	0
 2120 0055 49       		.uleb128 0x49
 2121 0056 13       		.uleb128 0x13
 2122 0057 00       		.byte	0
 2123 0058 00       		.byte	0
 2124 0059 08       		.uleb128 0x8
 2125 005a 0F       		.uleb128 0xf
 2126 005b 00       		.byte	0
 2127 005c 0B       		.uleb128 0xb
 2128 005d 0B       		.uleb128 0xb
 2129 005e 00       		.byte	0
 2130 005f 00       		.byte	0
 2131 0060 09       		.uleb128 0x9
 2132 0061 24       		.uleb128 0x24
 2133 0062 00       		.byte	0
 2134 0063 0B       		.uleb128 0xb
 2135 0064 0B       		.uleb128 0xb
 2136 0065 3E       		.uleb128 0x3e
 2137 0066 0B       		.uleb128 0xb
 2138 0067 03       		.uleb128 0x3
 2139 0068 08       		.uleb128 0x8
 2140 0069 00       		.byte	0
 2141 006a 00       		.byte	0
 2142 006b 0A       		.uleb128 0xa
ARM GAS  G:\Users\Jaxb\AppData\Local\Temp\ccccNtaX.s 			page 45


 2143 006c 35       		.uleb128 0x35
 2144 006d 00       		.byte	0
 2145 006e 49       		.uleb128 0x49
 2146 006f 13       		.uleb128 0x13
 2147 0070 00       		.byte	0
 2148 0071 00       		.byte	0
 2149 0072 0B       		.uleb128 0xb
 2150 0073 13       		.uleb128 0x13
 2151 0074 01       		.byte	0x1
 2152 0075 0B       		.uleb128 0xb
 2153 0076 05       		.uleb128 0x5
 2154 0077 3A       		.uleb128 0x3a
 2155 0078 0B       		.uleb128 0xb
 2156 0079 3B       		.uleb128 0x3b
 2157 007a 0B       		.uleb128 0xb
 2158 007b 01       		.uleb128 0x1
 2159 007c 13       		.uleb128 0x13
 2160 007d 00       		.byte	0
 2161 007e 00       		.byte	0
 2162 007f 0C       		.uleb128 0xc
 2163 0080 0D       		.uleb128 0xd
 2164 0081 00       		.byte	0
 2165 0082 03       		.uleb128 0x3
 2166 0083 08       		.uleb128 0x8
 2167 0084 3A       		.uleb128 0x3a
 2168 0085 0B       		.uleb128 0xb
 2169 0086 3B       		.uleb128 0x3b
 2170 0087 0B       		.uleb128 0xb
 2171 0088 49       		.uleb128 0x49
 2172 0089 13       		.uleb128 0x13
 2173 008a 38       		.uleb128 0x38
 2174 008b 0A       		.uleb128 0xa
 2175 008c 00       		.byte	0
 2176 008d 00       		.byte	0
 2177 008e 0D       		.uleb128 0xd
 2178 008f 01       		.uleb128 0x1
 2179 0090 01       		.byte	0x1
 2180 0091 49       		.uleb128 0x49
 2181 0092 13       		.uleb128 0x13
 2182 0093 01       		.uleb128 0x1
 2183 0094 13       		.uleb128 0x13
 2184 0095 00       		.byte	0
 2185 0096 00       		.byte	0
 2186 0097 0E       		.uleb128 0xe
 2187 0098 21       		.uleb128 0x21
 2188 0099 00       		.byte	0
 2189 009a 49       		.uleb128 0x49
 2190 009b 13       		.uleb128 0x13
 2191 009c 2F       		.uleb128 0x2f
 2192 009d 0B       		.uleb128 0xb
 2193 009e 00       		.byte	0
 2194 009f 00       		.byte	0
 2195 00a0 0F       		.uleb128 0xf
 2196 00a1 34       		.uleb128 0x34
 2197 00a2 00       		.byte	0
 2198 00a3 03       		.uleb128 0x3
 2199 00a4 0E       		.uleb128 0xe
ARM GAS  G:\Users\Jaxb\AppData\Local\Temp\ccccNtaX.s 			page 46


 2200 00a5 3A       		.uleb128 0x3a
 2201 00a6 0B       		.uleb128 0xb
 2202 00a7 3B       		.uleb128 0x3b
 2203 00a8 0B       		.uleb128 0xb
 2204 00a9 49       		.uleb128 0x49
 2205 00aa 13       		.uleb128 0x13
 2206 00ab 3F       		.uleb128 0x3f
 2207 00ac 0C       		.uleb128 0xc
 2208 00ad 3C       		.uleb128 0x3c
 2209 00ae 0C       		.uleb128 0xc
 2210 00af 00       		.byte	0
 2211 00b0 00       		.byte	0
 2212 00b1 10       		.uleb128 0x10
 2213 00b2 2E       		.uleb128 0x2e
 2214 00b3 01       		.byte	0x1
 2215 00b4 3F       		.uleb128 0x3f
 2216 00b5 0C       		.uleb128 0xc
 2217 00b6 03       		.uleb128 0x3
 2218 00b7 0E       		.uleb128 0xe
 2219 00b8 3A       		.uleb128 0x3a
 2220 00b9 0B       		.uleb128 0xb
 2221 00ba 3B       		.uleb128 0x3b
 2222 00bb 0B       		.uleb128 0xb
 2223 00bc 27       		.uleb128 0x27
 2224 00bd 0C       		.uleb128 0xc
 2225 00be 11       		.uleb128 0x11
 2226 00bf 01       		.uleb128 0x1
 2227 00c0 12       		.uleb128 0x12
 2228 00c1 01       		.uleb128 0x1
 2229 00c2 40       		.uleb128 0x40
 2230 00c3 06       		.uleb128 0x6
 2231 00c4 9642     		.uleb128 0x2116
 2232 00c6 0C       		.uleb128 0xc
 2233 00c7 01       		.uleb128 0x1
 2234 00c8 13       		.uleb128 0x13
 2235 00c9 00       		.byte	0
 2236 00ca 00       		.byte	0
 2237 00cb 11       		.uleb128 0x11
 2238 00cc 05       		.uleb128 0x5
 2239 00cd 00       		.byte	0
 2240 00ce 03       		.uleb128 0x3
 2241 00cf 0E       		.uleb128 0xe
 2242 00d0 3A       		.uleb128 0x3a
 2243 00d1 0B       		.uleb128 0xb
 2244 00d2 3B       		.uleb128 0x3b
 2245 00d3 0B       		.uleb128 0xb
 2246 00d4 49       		.uleb128 0x49
 2247 00d5 13       		.uleb128 0x13
 2248 00d6 02       		.uleb128 0x2
 2249 00d7 0A       		.uleb128 0xa
 2250 00d8 00       		.byte	0
 2251 00d9 00       		.byte	0
 2252 00da 12       		.uleb128 0x12
 2253 00db 34       		.uleb128 0x34
 2254 00dc 00       		.byte	0
 2255 00dd 03       		.uleb128 0x3
 2256 00de 08       		.uleb128 0x8
ARM GAS  G:\Users\Jaxb\AppData\Local\Temp\ccccNtaX.s 			page 47


 2257 00df 3A       		.uleb128 0x3a
 2258 00e0 0B       		.uleb128 0xb
 2259 00e1 3B       		.uleb128 0x3b
 2260 00e2 0B       		.uleb128 0xb
 2261 00e3 49       		.uleb128 0x49
 2262 00e4 13       		.uleb128 0x13
 2263 00e5 02       		.uleb128 0x2
 2264 00e6 0A       		.uleb128 0xa
 2265 00e7 00       		.byte	0
 2266 00e8 00       		.byte	0
 2267 00e9 13       		.uleb128 0x13
 2268 00ea 34       		.uleb128 0x34
 2269 00eb 00       		.byte	0
 2270 00ec 03       		.uleb128 0x3
 2271 00ed 0E       		.uleb128 0xe
 2272 00ee 3A       		.uleb128 0x3a
 2273 00ef 0B       		.uleb128 0xb
 2274 00f0 3B       		.uleb128 0x3b
 2275 00f1 0B       		.uleb128 0xb
 2276 00f2 49       		.uleb128 0x49
 2277 00f3 13       		.uleb128 0x13
 2278 00f4 02       		.uleb128 0x2
 2279 00f5 0A       		.uleb128 0xa
 2280 00f6 00       		.byte	0
 2281 00f7 00       		.byte	0
 2282 00f8 14       		.uleb128 0x14
 2283 00f9 0A       		.uleb128 0xa
 2284 00fa 00       		.byte	0
 2285 00fb 03       		.uleb128 0x3
 2286 00fc 08       		.uleb128 0x8
 2287 00fd 3A       		.uleb128 0x3a
 2288 00fe 0B       		.uleb128 0xb
 2289 00ff 3B       		.uleb128 0x3b
 2290 0100 0B       		.uleb128 0xb
 2291 0101 11       		.uleb128 0x11
 2292 0102 01       		.uleb128 0x1
 2293 0103 00       		.byte	0
 2294 0104 00       		.byte	0
 2295 0105 15       		.uleb128 0x15
 2296 0106 0A       		.uleb128 0xa
 2297 0107 00       		.byte	0
 2298 0108 03       		.uleb128 0x3
 2299 0109 0E       		.uleb128 0xe
 2300 010a 3A       		.uleb128 0x3a
 2301 010b 0B       		.uleb128 0xb
 2302 010c 3B       		.uleb128 0x3b
 2303 010d 0B       		.uleb128 0xb
 2304 010e 11       		.uleb128 0x11
 2305 010f 01       		.uleb128 0x1
 2306 0110 00       		.byte	0
 2307 0111 00       		.byte	0
 2308 0112 16       		.uleb128 0x16
 2309 0113 2E       		.uleb128 0x2e
 2310 0114 01       		.byte	0x1
 2311 0115 3F       		.uleb128 0x3f
 2312 0116 0C       		.uleb128 0xc
 2313 0117 03       		.uleb128 0x3
ARM GAS  G:\Users\Jaxb\AppData\Local\Temp\ccccNtaX.s 			page 48


 2314 0118 0E       		.uleb128 0xe
 2315 0119 3A       		.uleb128 0x3a
 2316 011a 0B       		.uleb128 0xb
 2317 011b 3B       		.uleb128 0x3b
 2318 011c 0B       		.uleb128 0xb
 2319 011d 27       		.uleb128 0x27
 2320 011e 0C       		.uleb128 0xc
 2321 011f 11       		.uleb128 0x11
 2322 0120 01       		.uleb128 0x1
 2323 0121 12       		.uleb128 0x12
 2324 0122 01       		.uleb128 0x1
 2325 0123 40       		.uleb128 0x40
 2326 0124 06       		.uleb128 0x6
 2327 0125 9642     		.uleb128 0x2116
 2328 0127 0C       		.uleb128 0xc
 2329 0128 00       		.byte	0
 2330 0129 00       		.byte	0
 2331 012a 00       		.byte	0
 2332              		.section	.debug_loc,"",%progbits
 2333              	.Ldebug_loc0:
 2334              	.LLST12:
 2335 0000 20040000 		.4byte	.LFB29-.Ltext0
 2336 0004 22040000 		.4byte	.LCFI60-.Ltext0
 2337 0008 0200     		.2byte	0x2
 2338 000a 7D       		.byte	0x7d
 2339 000b 00       		.sleb128 0
 2340 000c 22040000 		.4byte	.LCFI60-.Ltext0
 2341 0010 24040000 		.4byte	.LCFI61-.Ltext0
 2342 0014 0200     		.2byte	0x2
 2343 0016 7D       		.byte	0x7d
 2344 0017 08       		.sleb128 8
 2345 0018 24040000 		.4byte	.LCFI61-.Ltext0
 2346 001c 26040000 		.4byte	.LCFI62-.Ltext0
 2347 0020 0200     		.2byte	0x2
 2348 0022 7D       		.byte	0x7d
 2349 0023 10       		.sleb128 16
 2350 0024 26040000 		.4byte	.LCFI62-.Ltext0
 2351 0028 38040000 		.4byte	.LCFI63-.Ltext0
 2352 002c 0200     		.2byte	0x2
 2353 002e 77       		.byte	0x77
 2354 002f 10       		.sleb128 16
 2355 0030 38040000 		.4byte	.LCFI63-.Ltext0
 2356 0034 3A040000 		.4byte	.LCFI64-.Ltext0
 2357 0038 0200     		.2byte	0x2
 2358 003a 77       		.byte	0x77
 2359 003b 08       		.sleb128 8
 2360 003c 3A040000 		.4byte	.LCFI64-.Ltext0
 2361 0040 40040000 		.4byte	.LFE29-.Ltext0
 2362 0044 0200     		.2byte	0x2
 2363 0046 7D       		.byte	0x7d
 2364 0047 08       		.sleb128 8
 2365 0048 00000000 		.4byte	0
 2366 004c 00000000 		.4byte	0
 2367              	.LLST11:
 2368 0050 F4030000 		.4byte	.LFB28-.Ltext0
 2369 0054 F6030000 		.4byte	.LCFI55-.Ltext0
 2370 0058 0200     		.2byte	0x2
ARM GAS  G:\Users\Jaxb\AppData\Local\Temp\ccccNtaX.s 			page 49


 2371 005a 7D       		.byte	0x7d
 2372 005b 00       		.sleb128 0
 2373 005c F6030000 		.4byte	.LCFI55-.Ltext0
 2374 0060 F8030000 		.4byte	.LCFI56-.Ltext0
 2375 0064 0200     		.2byte	0x2
 2376 0066 7D       		.byte	0x7d
 2377 0067 08       		.sleb128 8
 2378 0068 F8030000 		.4byte	.LCFI56-.Ltext0
 2379 006c FA030000 		.4byte	.LCFI57-.Ltext0
 2380 0070 0200     		.2byte	0x2
 2381 0072 7D       		.byte	0x7d
 2382 0073 10       		.sleb128 16
 2383 0074 FA030000 		.4byte	.LCFI57-.Ltext0
 2384 0078 12040000 		.4byte	.LCFI58-.Ltext0
 2385 007c 0200     		.2byte	0x2
 2386 007e 77       		.byte	0x77
 2387 007f 10       		.sleb128 16
 2388 0080 12040000 		.4byte	.LCFI58-.Ltext0
 2389 0084 14040000 		.4byte	.LCFI59-.Ltext0
 2390 0088 0200     		.2byte	0x2
 2391 008a 77       		.byte	0x77
 2392 008b 08       		.sleb128 8
 2393 008c 14040000 		.4byte	.LCFI59-.Ltext0
 2394 0090 20040000 		.4byte	.LFE28-.Ltext0
 2395 0094 0200     		.2byte	0x2
 2396 0096 7D       		.byte	0x7d
 2397 0097 08       		.sleb128 8
 2398 0098 00000000 		.4byte	0
 2399 009c 00000000 		.4byte	0
 2400              	.LLST10:
 2401 00a0 74020000 		.4byte	.LFB27-.Ltext0
 2402 00a4 76020000 		.4byte	.LCFI50-.Ltext0
 2403 00a8 0200     		.2byte	0x2
 2404 00aa 7D       		.byte	0x7d
 2405 00ab 00       		.sleb128 0
 2406 00ac 76020000 		.4byte	.LCFI50-.Ltext0
 2407 00b0 78020000 		.4byte	.LCFI51-.Ltext0
 2408 00b4 0200     		.2byte	0x2
 2409 00b6 7D       		.byte	0x7d
 2410 00b7 08       		.sleb128 8
 2411 00b8 78020000 		.4byte	.LCFI51-.Ltext0
 2412 00bc 7A020000 		.4byte	.LCFI52-.Ltext0
 2413 00c0 0300     		.2byte	0x3
 2414 00c2 7D       		.byte	0x7d
 2415 00c3 9001     		.sleb128 144
 2416 00c5 7A020000 		.4byte	.LCFI52-.Ltext0
 2417 00c9 C8030000 		.4byte	.LCFI53-.Ltext0
 2418 00cd 0300     		.2byte	0x3
 2419 00cf 77       		.byte	0x77
 2420 00d0 9001     		.sleb128 144
 2421 00d2 C8030000 		.4byte	.LCFI53-.Ltext0
 2422 00d6 CA030000 		.4byte	.LCFI54-.Ltext0
 2423 00da 0200     		.2byte	0x2
 2424 00dc 77       		.byte	0x77
 2425 00dd 08       		.sleb128 8
 2426 00de CA030000 		.4byte	.LCFI54-.Ltext0
 2427 00e2 F4030000 		.4byte	.LFE27-.Ltext0
ARM GAS  G:\Users\Jaxb\AppData\Local\Temp\ccccNtaX.s 			page 50


 2428 00e6 0200     		.2byte	0x2
 2429 00e8 7D       		.byte	0x7d
 2430 00e9 08       		.sleb128 8
 2431 00ea 00000000 		.4byte	0
 2432 00ee 00000000 		.4byte	0
 2433              	.LLST9:
 2434 00f2 5E020000 		.4byte	.LFB26-.Ltext0
 2435 00f6 60020000 		.4byte	.LCFI45-.Ltext0
 2436 00fa 0200     		.2byte	0x2
 2437 00fc 7D       		.byte	0x7d
 2438 00fd 00       		.sleb128 0
 2439 00fe 60020000 		.4byte	.LCFI45-.Ltext0
 2440 0102 62020000 		.4byte	.LCFI46-.Ltext0
 2441 0106 0200     		.2byte	0x2
 2442 0108 7D       		.byte	0x7d
 2443 0109 08       		.sleb128 8
 2444 010a 62020000 		.4byte	.LCFI46-.Ltext0
 2445 010e 64020000 		.4byte	.LCFI47-.Ltext0
 2446 0112 0200     		.2byte	0x2
 2447 0114 7D       		.byte	0x7d
 2448 0115 10       		.sleb128 16
 2449 0116 64020000 		.4byte	.LCFI47-.Ltext0
 2450 011a 70020000 		.4byte	.LCFI48-.Ltext0
 2451 011e 0200     		.2byte	0x2
 2452 0120 77       		.byte	0x77
 2453 0121 10       		.sleb128 16
 2454 0122 70020000 		.4byte	.LCFI48-.Ltext0
 2455 0126 72020000 		.4byte	.LCFI49-.Ltext0
 2456 012a 0200     		.2byte	0x2
 2457 012c 77       		.byte	0x77
 2458 012d 08       		.sleb128 8
 2459 012e 72020000 		.4byte	.LCFI49-.Ltext0
 2460 0132 74020000 		.4byte	.LFE26-.Ltext0
 2461 0136 0200     		.2byte	0x2
 2462 0138 7D       		.byte	0x7d
 2463 0139 08       		.sleb128 8
 2464 013a 00000000 		.4byte	0
 2465 013e 00000000 		.4byte	0
 2466              	.LLST8:
 2467 0142 40020000 		.4byte	.LFB25-.Ltext0
 2468 0146 42020000 		.4byte	.LCFI40-.Ltext0
 2469 014a 0200     		.2byte	0x2
 2470 014c 7D       		.byte	0x7d
 2471 014d 00       		.sleb128 0
 2472 014e 42020000 		.4byte	.LCFI40-.Ltext0
 2473 0152 44020000 		.4byte	.LCFI41-.Ltext0
 2474 0156 0200     		.2byte	0x2
 2475 0158 7D       		.byte	0x7d
 2476 0159 08       		.sleb128 8
 2477 015a 44020000 		.4byte	.LCFI41-.Ltext0
 2478 015e 46020000 		.4byte	.LCFI42-.Ltext0
 2479 0162 0200     		.2byte	0x2
 2480 0164 7D       		.byte	0x7d
 2481 0165 10       		.sleb128 16
 2482 0166 46020000 		.4byte	.LCFI42-.Ltext0
 2483 016a 5A020000 		.4byte	.LCFI43-.Ltext0
 2484 016e 0200     		.2byte	0x2
ARM GAS  G:\Users\Jaxb\AppData\Local\Temp\ccccNtaX.s 			page 51


 2485 0170 77       		.byte	0x77
 2486 0171 10       		.sleb128 16
 2487 0172 5A020000 		.4byte	.LCFI43-.Ltext0
 2488 0176 5C020000 		.4byte	.LCFI44-.Ltext0
 2489 017a 0200     		.2byte	0x2
 2490 017c 77       		.byte	0x77
 2491 017d 08       		.sleb128 8
 2492 017e 5C020000 		.4byte	.LCFI44-.Ltext0
 2493 0182 5E020000 		.4byte	.LFE25-.Ltext0
 2494 0186 0200     		.2byte	0x2
 2495 0188 7D       		.byte	0x7d
 2496 0189 08       		.sleb128 8
 2497 018a 00000000 		.4byte	0
 2498 018e 00000000 		.4byte	0
 2499              	.LLST7:
 2500 0192 F8010000 		.4byte	.LFB24-.Ltext0
 2501 0196 FA010000 		.4byte	.LCFI35-.Ltext0
 2502 019a 0200     		.2byte	0x2
 2503 019c 7D       		.byte	0x7d
 2504 019d 00       		.sleb128 0
 2505 019e FA010000 		.4byte	.LCFI35-.Ltext0
 2506 01a2 FC010000 		.4byte	.LCFI36-.Ltext0
 2507 01a6 0200     		.2byte	0x2
 2508 01a8 7D       		.byte	0x7d
 2509 01a9 08       		.sleb128 8
 2510 01aa FC010000 		.4byte	.LCFI36-.Ltext0
 2511 01ae FE010000 		.4byte	.LCFI37-.Ltext0
 2512 01b2 0200     		.2byte	0x2
 2513 01b4 7D       		.byte	0x7d
 2514 01b5 18       		.sleb128 24
 2515 01b6 FE010000 		.4byte	.LCFI37-.Ltext0
 2516 01ba 34020000 		.4byte	.LCFI38-.Ltext0
 2517 01be 0200     		.2byte	0x2
 2518 01c0 77       		.byte	0x77
 2519 01c1 18       		.sleb128 24
 2520 01c2 34020000 		.4byte	.LCFI38-.Ltext0
 2521 01c6 36020000 		.4byte	.LCFI39-.Ltext0
 2522 01ca 0200     		.2byte	0x2
 2523 01cc 77       		.byte	0x77
 2524 01cd 08       		.sleb128 8
 2525 01ce 36020000 		.4byte	.LCFI39-.Ltext0
 2526 01d2 40020000 		.4byte	.LFE24-.Ltext0
 2527 01d6 0200     		.2byte	0x2
 2528 01d8 7D       		.byte	0x7d
 2529 01d9 08       		.sleb128 8
 2530 01da 00000000 		.4byte	0
 2531 01de 00000000 		.4byte	0
 2532              	.LLST6:
 2533 01e2 A4010000 		.4byte	.LFB23-.Ltext0
 2534 01e6 A6010000 		.4byte	.LCFI30-.Ltext0
 2535 01ea 0200     		.2byte	0x2
 2536 01ec 7D       		.byte	0x7d
 2537 01ed 00       		.sleb128 0
 2538 01ee A6010000 		.4byte	.LCFI30-.Ltext0
 2539 01f2 A8010000 		.4byte	.LCFI31-.Ltext0
 2540 01f6 0200     		.2byte	0x2
 2541 01f8 7D       		.byte	0x7d
ARM GAS  G:\Users\Jaxb\AppData\Local\Temp\ccccNtaX.s 			page 52


 2542 01f9 08       		.sleb128 8
 2543 01fa A8010000 		.4byte	.LCFI31-.Ltext0
 2544 01fe AA010000 		.4byte	.LCFI32-.Ltext0
 2545 0202 0200     		.2byte	0x2
 2546 0204 7D       		.byte	0x7d
 2547 0205 18       		.sleb128 24
 2548 0206 AA010000 		.4byte	.LCFI32-.Ltext0
 2549 020a EA010000 		.4byte	.LCFI33-.Ltext0
 2550 020e 0200     		.2byte	0x2
 2551 0210 77       		.byte	0x77
 2552 0211 18       		.sleb128 24
 2553 0212 EA010000 		.4byte	.LCFI33-.Ltext0
 2554 0216 EC010000 		.4byte	.LCFI34-.Ltext0
 2555 021a 0200     		.2byte	0x2
 2556 021c 77       		.byte	0x77
 2557 021d 08       		.sleb128 8
 2558 021e EC010000 		.4byte	.LCFI34-.Ltext0
 2559 0222 F8010000 		.4byte	.LFE23-.Ltext0
 2560 0226 0200     		.2byte	0x2
 2561 0228 7D       		.byte	0x7d
 2562 0229 08       		.sleb128 8
 2563 022a 00000000 		.4byte	0
 2564 022e 00000000 		.4byte	0
 2565              	.LLST5:
 2566 0232 58010000 		.4byte	.LFB22-.Ltext0
 2567 0236 5A010000 		.4byte	.LCFI25-.Ltext0
 2568 023a 0200     		.2byte	0x2
 2569 023c 7D       		.byte	0x7d
 2570 023d 00       		.sleb128 0
 2571 023e 5A010000 		.4byte	.LCFI25-.Ltext0
 2572 0242 5C010000 		.4byte	.LCFI26-.Ltext0
 2573 0246 0200     		.2byte	0x2
 2574 0248 7D       		.byte	0x7d
 2575 0249 08       		.sleb128 8
 2576 024a 5C010000 		.4byte	.LCFI26-.Ltext0
 2577 024e 5E010000 		.4byte	.LCFI27-.Ltext0
 2578 0252 0200     		.2byte	0x2
 2579 0254 7D       		.byte	0x7d
 2580 0255 18       		.sleb128 24
 2581 0256 5E010000 		.4byte	.LCFI27-.Ltext0
 2582 025a 96010000 		.4byte	.LCFI28-.Ltext0
 2583 025e 0200     		.2byte	0x2
 2584 0260 77       		.byte	0x77
 2585 0261 18       		.sleb128 24
 2586 0262 96010000 		.4byte	.LCFI28-.Ltext0
 2587 0266 98010000 		.4byte	.LCFI29-.Ltext0
 2588 026a 0200     		.2byte	0x2
 2589 026c 77       		.byte	0x77
 2590 026d 08       		.sleb128 8
 2591 026e 98010000 		.4byte	.LCFI29-.Ltext0
 2592 0272 A4010000 		.4byte	.LFE22-.Ltext0
 2593 0276 0200     		.2byte	0x2
 2594 0278 7D       		.byte	0x7d
 2595 0279 08       		.sleb128 8
 2596 027a 00000000 		.4byte	0
 2597 027e 00000000 		.4byte	0
 2598              	.LLST4:
ARM GAS  G:\Users\Jaxb\AppData\Local\Temp\ccccNtaX.s 			page 53


 2599 0282 28010000 		.4byte	.LFB21-.Ltext0
 2600 0286 2A010000 		.4byte	.LCFI20-.Ltext0
 2601 028a 0200     		.2byte	0x2
 2602 028c 7D       		.byte	0x7d
 2603 028d 00       		.sleb128 0
 2604 028e 2A010000 		.4byte	.LCFI20-.Ltext0
 2605 0292 2C010000 		.4byte	.LCFI21-.Ltext0
 2606 0296 0200     		.2byte	0x2
 2607 0298 7D       		.byte	0x7d
 2608 0299 08       		.sleb128 8
 2609 029a 2C010000 		.4byte	.LCFI21-.Ltext0
 2610 029e 2E010000 		.4byte	.LCFI22-.Ltext0
 2611 02a2 0200     		.2byte	0x2
 2612 02a4 7D       		.byte	0x7d
 2613 02a5 18       		.sleb128 24
 2614 02a6 2E010000 		.4byte	.LCFI22-.Ltext0
 2615 02aa 4E010000 		.4byte	.LCFI23-.Ltext0
 2616 02ae 0200     		.2byte	0x2
 2617 02b0 77       		.byte	0x77
 2618 02b1 18       		.sleb128 24
 2619 02b2 4E010000 		.4byte	.LCFI23-.Ltext0
 2620 02b6 50010000 		.4byte	.LCFI24-.Ltext0
 2621 02ba 0200     		.2byte	0x2
 2622 02bc 77       		.byte	0x77
 2623 02bd 08       		.sleb128 8
 2624 02be 50010000 		.4byte	.LCFI24-.Ltext0
 2625 02c2 58010000 		.4byte	.LFE21-.Ltext0
 2626 02c6 0200     		.2byte	0x2
 2627 02c8 7D       		.byte	0x7d
 2628 02c9 08       		.sleb128 8
 2629 02ca 00000000 		.4byte	0
 2630 02ce 00000000 		.4byte	0
 2631              	.LLST3:
 2632 02d2 72000000 		.4byte	.LFB20-.Ltext0
 2633 02d6 74000000 		.4byte	.LCFI15-.Ltext0
 2634 02da 0200     		.2byte	0x2
 2635 02dc 7D       		.byte	0x7d
 2636 02dd 00       		.sleb128 0
 2637 02de 74000000 		.4byte	.LCFI15-.Ltext0
 2638 02e2 76000000 		.4byte	.LCFI16-.Ltext0
 2639 02e6 0200     		.2byte	0x2
 2640 02e8 7D       		.byte	0x7d
 2641 02e9 08       		.sleb128 8
 2642 02ea 76000000 		.4byte	.LCFI16-.Ltext0
 2643 02ee 78000000 		.4byte	.LCFI17-.Ltext0
 2644 02f2 0200     		.2byte	0x2
 2645 02f4 7D       		.byte	0x7d
 2646 02f5 18       		.sleb128 24
 2647 02f6 78000000 		.4byte	.LCFI17-.Ltext0
 2648 02fa 04010000 		.4byte	.LCFI18-.Ltext0
 2649 02fe 0200     		.2byte	0x2
 2650 0300 77       		.byte	0x77
 2651 0301 18       		.sleb128 24
 2652 0302 04010000 		.4byte	.LCFI18-.Ltext0
 2653 0306 06010000 		.4byte	.LCFI19-.Ltext0
 2654 030a 0200     		.2byte	0x2
 2655 030c 77       		.byte	0x77
ARM GAS  G:\Users\Jaxb\AppData\Local\Temp\ccccNtaX.s 			page 54


 2656 030d 08       		.sleb128 8
 2657 030e 06010000 		.4byte	.LCFI19-.Ltext0
 2658 0312 28010000 		.4byte	.LFE20-.Ltext0
 2659 0316 0200     		.2byte	0x2
 2660 0318 7D       		.byte	0x7d
 2661 0319 08       		.sleb128 8
 2662 031a 00000000 		.4byte	0
 2663 031e 00000000 		.4byte	0
 2664              	.LLST2:
 2665 0322 5C000000 		.4byte	.LFB19-.Ltext0
 2666 0326 5E000000 		.4byte	.LCFI10-.Ltext0
 2667 032a 0200     		.2byte	0x2
 2668 032c 7D       		.byte	0x7d
 2669 032d 00       		.sleb128 0
 2670 032e 5E000000 		.4byte	.LCFI10-.Ltext0
 2671 0332 60000000 		.4byte	.LCFI11-.Ltext0
 2672 0336 0200     		.2byte	0x2
 2673 0338 7D       		.byte	0x7d
 2674 0339 08       		.sleb128 8
 2675 033a 60000000 		.4byte	.LCFI11-.Ltext0
 2676 033e 62000000 		.4byte	.LCFI12-.Ltext0
 2677 0342 0200     		.2byte	0x2
 2678 0344 7D       		.byte	0x7d
 2679 0345 10       		.sleb128 16
 2680 0346 62000000 		.4byte	.LCFI12-.Ltext0
 2681 034a 6E000000 		.4byte	.LCFI13-.Ltext0
 2682 034e 0200     		.2byte	0x2
 2683 0350 77       		.byte	0x77
 2684 0351 10       		.sleb128 16
 2685 0352 6E000000 		.4byte	.LCFI13-.Ltext0
 2686 0356 70000000 		.4byte	.LCFI14-.Ltext0
 2687 035a 0200     		.2byte	0x2
 2688 035c 77       		.byte	0x77
 2689 035d 08       		.sleb128 8
 2690 035e 70000000 		.4byte	.LCFI14-.Ltext0
 2691 0362 72000000 		.4byte	.LFE19-.Ltext0
 2692 0366 0200     		.2byte	0x2
 2693 0368 7D       		.byte	0x7d
 2694 0369 08       		.sleb128 8
 2695 036a 00000000 		.4byte	0
 2696 036e 00000000 		.4byte	0
 2697              	.LLST1:
 2698 0372 40000000 		.4byte	.LFB18-.Ltext0
 2699 0376 42000000 		.4byte	.LCFI5-.Ltext0
 2700 037a 0200     		.2byte	0x2
 2701 037c 7D       		.byte	0x7d
 2702 037d 00       		.sleb128 0
 2703 037e 42000000 		.4byte	.LCFI5-.Ltext0
 2704 0382 44000000 		.4byte	.LCFI6-.Ltext0
 2705 0386 0200     		.2byte	0x2
 2706 0388 7D       		.byte	0x7d
 2707 0389 08       		.sleb128 8
 2708 038a 44000000 		.4byte	.LCFI6-.Ltext0
 2709 038e 46000000 		.4byte	.LCFI7-.Ltext0
 2710 0392 0200     		.2byte	0x2
 2711 0394 7D       		.byte	0x7d
 2712 0395 10       		.sleb128 16
ARM GAS  G:\Users\Jaxb\AppData\Local\Temp\ccccNtaX.s 			page 55


 2713 0396 46000000 		.4byte	.LCFI7-.Ltext0
 2714 039a 54000000 		.4byte	.LCFI8-.Ltext0
 2715 039e 0200     		.2byte	0x2
 2716 03a0 77       		.byte	0x77
 2717 03a1 10       		.sleb128 16
 2718 03a2 54000000 		.4byte	.LCFI8-.Ltext0
 2719 03a6 56000000 		.4byte	.LCFI9-.Ltext0
 2720 03aa 0200     		.2byte	0x2
 2721 03ac 77       		.byte	0x77
 2722 03ad 08       		.sleb128 8
 2723 03ae 56000000 		.4byte	.LCFI9-.Ltext0
 2724 03b2 5C000000 		.4byte	.LFE18-.Ltext0
 2725 03b6 0200     		.2byte	0x2
 2726 03b8 7D       		.byte	0x7d
 2727 03b9 08       		.sleb128 8
 2728 03ba 00000000 		.4byte	0
 2729 03be 00000000 		.4byte	0
 2730              	.LLST0:
 2731 03c2 00000000 		.4byte	.LFB17-.Ltext0
 2732 03c6 02000000 		.4byte	.LCFI0-.Ltext0
 2733 03ca 0200     		.2byte	0x2
 2734 03cc 7D       		.byte	0x7d
 2735 03cd 00       		.sleb128 0
 2736 03ce 02000000 		.4byte	.LCFI0-.Ltext0
 2737 03d2 04000000 		.4byte	.LCFI1-.Ltext0
 2738 03d6 0200     		.2byte	0x2
 2739 03d8 7D       		.byte	0x7d
 2740 03d9 08       		.sleb128 8
 2741 03da 04000000 		.4byte	.LCFI1-.Ltext0
 2742 03de 06000000 		.4byte	.LCFI2-.Ltext0
 2743 03e2 0200     		.2byte	0x2
 2744 03e4 7D       		.byte	0x7d
 2745 03e5 18       		.sleb128 24
 2746 03e6 06000000 		.4byte	.LCFI2-.Ltext0
 2747 03ea 36000000 		.4byte	.LCFI3-.Ltext0
 2748 03ee 0200     		.2byte	0x2
 2749 03f0 77       		.byte	0x77
 2750 03f1 18       		.sleb128 24
 2751 03f2 36000000 		.4byte	.LCFI3-.Ltext0
 2752 03f6 38000000 		.4byte	.LCFI4-.Ltext0
 2753 03fa 0200     		.2byte	0x2
 2754 03fc 77       		.byte	0x77
 2755 03fd 08       		.sleb128 8
 2756 03fe 38000000 		.4byte	.LCFI4-.Ltext0
 2757 0402 40000000 		.4byte	.LFE17-.Ltext0
 2758 0406 0200     		.2byte	0x2
 2759 0408 7D       		.byte	0x7d
 2760 0409 08       		.sleb128 8
 2761 040a 00000000 		.4byte	0
 2762 040e 00000000 		.4byte	0
 2763              		.section	.debug_aranges,"",%progbits
 2764 0000 1C000000 		.4byte	0x1c
 2765 0004 0200     		.2byte	0x2
 2766 0006 00000000 		.4byte	.Ldebug_info0
 2767 000a 04       		.byte	0x4
 2768 000b 00       		.byte	0
 2769 000c 0000     		.2byte	0
ARM GAS  G:\Users\Jaxb\AppData\Local\Temp\ccccNtaX.s 			page 56


 2770 000e 0000     		.2byte	0
 2771 0010 00000000 		.4byte	.Ltext0
 2772 0014 40040000 		.4byte	.Letext0-.Ltext0
 2773 0018 00000000 		.4byte	0
 2774 001c 00000000 		.4byte	0
 2775              		.section	.debug_line,"",%progbits
 2776              	.Ldebug_line0:
 2777 0000 D7010000 		.section	.debug_str,"MS",%progbits,1
 2777      02000A01 
 2777      00000201 
 2777      FB0E0D00 
 2777      01010101 
 2778              	.LASF47:
 2779 0000 5441534B 		.ascii	"TASK_PRIO_TYPE\000"
 2779      5F505249 
 2779      4F5F5459 
 2779      504500
 2780              	.LASF49:
 2781 000f 7368656C 		.ascii	"shell_shutdown\000"
 2781      6C5F7368 
 2781      7574646F 
 2781      776E00
 2782              	.LASF53:
 2783 001e 6275665F 		.ascii	"buf_is_allo\000"
 2783      69735F61 
 2783      6C6C6F00 
 2784              	.LASF50:
 2785 002a 7368656C 		.ascii	"shell_sleep\000"
 2785      6C5F736C 
 2785      65657000 
 2786              	.LASF56:
 2787 0036 6F757431 		.ascii	"out1\000"
 2787      00
 2788              	.LASF3:
 2789 003b 7368656C 		.ascii	"shell_v_name\000"
 2789      6C5F765F 
 2789      6E616D65 
 2789      00
 2790              	.LASF24:
 2791 0048 70616765 		.ascii	"page_num\000"
 2791      5F6E756D 
 2791      00
 2792              	.LASF31:
 2793 0051 6C696E6B 		.ascii	"link_body\000"
 2793      5F626F64 
 2793      7900
 2794              	.LASF45:
 2795 005b 696E6465 		.ascii	"index\000"
 2795      7800
 2796              	.LASF9:
 2797 0061 73686F72 		.ascii	"short int\000"
 2797      7420696E 
 2797      7400
 2798              	.LASF63:
 2799 006b 7368656C 		.ascii	"shell_echo\000"
 2799      6C5F6563 
 2799      686F00
ARM GAS  G:\Users\Jaxb\AppData\Local\Temp\ccccNtaX.s 			page 57


 2800              	.LASF70:
 2801 0076 2E2E2F2E 		.ascii	"../../source/src/kernel/SHELL/shell_fun.c\000"
 2801      2E2F736F 
 2801      75726365 
 2801      2F737263 
 2801      2F6B6572 
 2802              	.LASF15:
 2803 00a0 55494E54 		.ascii	"UINT32\000"
 2803      333200
 2804              	.LASF58:
 2805 00a7 7368656C 		.ascii	"shell_reboot\000"
 2805      6C5F7265 
 2805      626F6F74 
 2805      00
 2806              	.LASF62:
 2807 00b4 7368656C 		.ascii	"shell_set\000"
 2807      6C5F7365 
 2807      7400
 2808              	.LASF1:
 2809 00be 7368656C 		.ascii	"shell_variable\000"
 2809      6C5F7661 
 2809      72696162 
 2809      6C6500
 2810              	.LASF40:
 2811 00cd 7368656C 		.ascii	"shell_buffer\000"
 2811      6C5F6275 
 2811      66666572 
 2811      00
 2812              	.LASF64:
 2813 00da 7368656C 		.ascii	"shell_clear\000"
 2813      6C5F636C 
 2813      65617200 
 2814              	.LASF33:
 2815 00e6 6F726465 		.ascii	"order_link_flag\000"
 2815      725F6C69 
 2815      6E6B5F66 
 2815      6C616700 
 2816              	.LASF28:
 2817 00f6 6F726465 		.ascii	"order_link\000"
 2817      725F6C69 
 2817      6E6B00
 2818              	.LASF55:
 2819 0101 76616C75 		.ascii	"value_ptr\000"
 2819      655F7074 
 2819      7200
 2820              	.LASF20:
 2821 010b 50616765 		.ascii	"Page_Num_Type\000"
 2821      5F4E756D 
 2821      5F547970 
 2821      6500
 2822              	.LASF0:
 2823 0119 73696E67 		.ascii	"singly_list_head\000"
 2823      6C795F6C 
 2823      6973745F 
 2823      68656164 
 2823      00
 2824              	.LASF41:
ARM GAS  G:\Users\Jaxb\AppData\Local\Temp\ccccNtaX.s 			page 58


 2825 012a 61726776 		.ascii	"argv\000"
 2825      00
 2826              	.LASF71:
 2827 012f 463A5C6B 		.ascii	"F:\\kaka\\KAKAOS\\C\\windows\\Project\\RVMDK\243\250"
 2827      616B615C 
 2827      4B414B41 
 2827      4F535C43 
 2827      5C77696E 
 2828 0157 757635A3 		.ascii	"uv5\243\251\000"
 2828      A900
 2829              	.LASF10:
 2830 015d 6C6F6E67 		.ascii	"long long int\000"
 2830      206C6F6E 
 2830      6720696E 
 2830      7400
 2831              	.LASF44:
 2832 016b 62756666 		.ascii	"buffer_reserve\000"
 2832      65725F72 
 2832      65736572 
 2832      766500
 2833              	.LASF59:
 2834 017a 7368656C 		.ascii	"shell_TCB_check\000"
 2834      6C5F5443 
 2834      425F6368 
 2834      65636B00 
 2835              	.LASF21:
 2836 018a 42756464 		.ascii	"Buddy_Space_Type\000"
 2836      795F5370 
 2836      6163655F 
 2836      54797065 
 2836      00
 2837              	.LASF18:
 2838 019b 62756464 		.ascii	"buddy_space_struct\000"
 2838      795F7370 
 2838      6163655F 
 2838      73747275 
 2838      637400
 2839              	.LASF67:
 2840 01ae 7368656C 		.ascii	"shell_time\000"
 2840      6C5F7469 
 2840      6D6500
 2841              	.LASF27:
 2842 01b9 6C657665 		.ascii	"level_flag_base_size\000"
 2842      6C5F666C 
 2842      61675F62 
 2842      6173655F 
 2842      73697A65 
 2843              	.LASF11:
 2844 01ce 756E7369 		.ascii	"unsigned char\000"
 2844      676E6564 
 2844      20636861 
 2844      7200
 2845              	.LASF48:
 2846 01dc 61726763 		.ascii	"argc\000"
 2846      00
 2847              	.LASF8:
 2848 01e1 7369676E 		.ascii	"signed char\000"
ARM GAS  G:\Users\Jaxb\AppData\Local\Temp\ccccNtaX.s 			page 59


 2848      65642063 
 2848      68617200 
 2849              	.LASF17:
 2850 01ed 6C6F6E67 		.ascii	"long long unsigned int\000"
 2850      206C6F6E 
 2850      6720756E 
 2850      7369676E 
 2850      65642069 
 2851              	.LASF68:
 2852 0204 7368656C 		.ascii	"shell_version\000"
 2852      6C5F7665 
 2852      7273696F 
 2852      6E00
 2853              	.LASF16:
 2854 0212 756E7369 		.ascii	"unsigned int\000"
 2854      676E6564 
 2854      20696E74 
 2854      00
 2855              	.LASF35:
 2856 021f 6C657665 		.ascii	"level_flag_base\000"
 2856      6C5F666C 
 2856      61675F62 
 2856      61736500 
 2857              	.LASF51:
 2858 022f 7368656C 		.ascii	"shell_module\000"
 2858      6C5F6D6F 
 2858      64756C65 
 2858      00
 2859              	.LASF19:
 2860 023c 466C6167 		.ascii	"Flag_Type\000"
 2860      5F547970 
 2860      6500
 2861              	.LASF32:
 2862 0246 6F726465 		.ascii	"order_link_first\000"
 2862      725F6C69 
 2862      6E6B5F66 
 2862      69727374 
 2862      00
 2863              	.LASF36:
 2864 0257 62756464 		.ascii	"buddy_struct_size\000"
 2864      795F7374 
 2864      72756374 
 2864      5F73697A 
 2864      6500
 2865              	.LASF25:
 2866 0269 6D61785F 		.ascii	"max_level\000"
 2866      6C657665 
 2866      6C00
 2867              	.LASF14:
 2868 0273 73686F72 		.ascii	"short unsigned int\000"
 2868      7420756E 
 2868      7369676E 
 2868      65642069 
 2868      6E7400
 2869              	.LASF13:
 2870 0286 55494E54 		.ascii	"UINT16\000"
 2870      313600
ARM GAS  G:\Users\Jaxb\AppData\Local\Temp\ccccNtaX.s 			page 60


 2871              	.LASF7:
 2872 028d 63686172 		.ascii	"char\000"
 2872      00
 2873              	.LASF4:
 2874 0292 7368656C 		.ascii	"shell_v_type\000"
 2874      6C5F765F 
 2874      74797065 
 2874      00
 2875              	.LASF46:
 2876 029f 696E6465 		.ascii	"index_reserve\000"
 2876      785F7265 
 2876      73657276 
 2876      6500
 2877              	.LASF6:
 2878 02ad 6C697374 		.ascii	"list\000"
 2878      00
 2879              	.LASF72:
 2880 02b2 675F696E 		.ascii	"g_interrupt_count\000"
 2880      74657272 
 2880      7570745F 
 2880      636F756E 
 2880      7400
 2881              	.LASF43:
 2882 02c4 62756666 		.ascii	"buffer\000"
 2882      657200
 2883              	.LASF73:
 2884 02cb 74657374 		.ascii	"test\000"
 2884      00
 2885              	.LASF42:
 2886 02d0 61726776 		.ascii	"argv_reserve\000"
 2886      5F726573 
 2886      65727665 
 2886      00
 2887              	.LASF29:
 2888 02dd 62756464 		.ascii	"buddy\000"
 2888      7900
 2889              	.LASF52:
 2890 02e3 7368656C 		.ascii	"shell_buf_ptr\000"
 2890      6C5F6275 
 2890      665F7074 
 2890      7200
 2891              	.LASF60:
 2892 02f1 7368656C 		.ascii	"shell_addr\000"
 2892      6C5F6164 
 2892      647200
 2893              	.LASF65:
 2894 02fc 7368656C 		.ascii	"shell_memory\000"
 2894      6C5F6D65 
 2894      6D6F7279 
 2894      00
 2895              	.LASF57:
 2896 0309 7379735F 		.ascii	"sys_shell_buffer_ptr\000"
 2896      7368656C 
 2896      6C5F6275 
 2896      66666572 
 2896      5F707472 
 2897              	.LASF61:
ARM GAS  G:\Users\Jaxb\AppData\Local\Temp\ccccNtaX.s 			page 61


 2898 031e 7368656C 		.ascii	"shell_variable_ptr\000"
 2898      6C5F7661 
 2898      72696162 
 2898      6C655F70 
 2898      747200
 2899              	.LASF22:
 2900 0331 62756464 		.ascii	"buddy_info\000"
 2900      795F696E 
 2900      666F00
 2901              	.LASF38:
 2902 033c 696E666F 		.ascii	"info\000"
 2902      00
 2903              	.LASF54:
 2904 0341 73746163 		.ascii	"stack_size\000"
 2904      6B5F7369 
 2904      7A6500
 2905              	.LASF39:
 2906 034c 62756464 		.ascii	"buddy_space_start_ptr\000"
 2906      795F7370 
 2906      6163655F 
 2906      73746172 
 2906      745F7074 
 2907              	.LASF37:
 2908 0362 63757272 		.ascii	"current_page_num\000"
 2908      656E745F 
 2908      70616765 
 2908      5F6E756D 
 2908      00
 2909              	.LASF69:
 2910 0373 474E5520 		.ascii	"GNU C11 7.3.1 20180622 (release) [ARM/embedded-7-br"
 2910      43313120 
 2910      372E332E 
 2910      31203230 
 2910      31383036 
 2911 03a6 616E6368 		.ascii	"anch revision 261907] -mcpu=cortex-m3 -mthumb -mapc"
 2911      20726576 
 2911      6973696F 
 2911      6E203236 
 2911      31393037 
 2912 03d9 732D6672 		.ascii	"s-frame -mthumb-interwork -mcpu=cortex-m3 -mthumb -"
 2912      616D6520 
 2912      2D6D7468 
 2912      756D622D 
 2912      696E7465 
 2913 040c 67647761 		.ascii	"gdwarf-2 -O0\000"
 2913      72662D32 
 2913      202D4F30 
 2913      00
 2914              	.LASF30:
 2915 0419 666C6167 		.ascii	"flag\000"
 2915      00
 2916              	.LASF23:
 2917 041e 666C6167 		.ascii	"flag_array_num\000"
 2917      5F617272 
 2917      61795F6E 
 2917      756D00
 2918              	.LASF66:
ARM GAS  G:\Users\Jaxb\AppData\Local\Temp\ccccNtaX.s 			page 62


 2919 042d 62756464 		.ascii	"buddy_ptr\000"
 2919      795F7074 
 2919      7200
 2920              	.LASF34:
 2921 0437 6F726465 		.ascii	"order_array\000"
 2921      725F6172 
 2921      72617900 
 2922              	.LASF26:
 2923 0443 7072696F 		.ascii	"prio\000"
 2923      00
 2924              	.LASF5:
 2925 0448 64617461 		.ascii	"data_ptr\000"
 2925      5F707472 
 2925      00
 2926              	.LASF2:
 2927 0451 6E657874 		.ascii	"next\000"
 2927      00
 2928              	.LASF12:
 2929 0456 5368656C 		.ascii	"Shell_V_Type\000"
 2929      6C5F565F 
 2929      54797065 
 2929      00
 2930              		.ident	"GCC: (GNU Tools for Arm Embedded Processors 7-2018-q2-update) 7.3.1 20180622 (release) [AR
ARM GAS  G:\Users\Jaxb\AppData\Local\Temp\ccccNtaX.s 			page 63


DEFINED SYMBOLS
                            *ABS*:00000000 shell_fun.c
G:\Users\Jaxb\AppData\Local\Temp\ccccNtaX.s:16     .rodata:00000000 $d
G:\Users\Jaxb\AppData\Local\Temp\ccccNtaX.s:20     .text:00000000 $t
G:\Users\Jaxb\AppData\Local\Temp\ccccNtaX.s:27     .text:00000000 test
G:\Users\Jaxb\AppData\Local\Temp\ccccNtaX.s:85     .text:0000003c $d
G:\Users\Jaxb\AppData\Local\Temp\ccccNtaX.s:94     .text:00000040 $t
G:\Users\Jaxb\AppData\Local\Temp\ccccNtaX.s:101    .text:00000040 shell_version
G:\Users\Jaxb\AppData\Local\Temp\ccccNtaX.s:136    .text:00000058 $d
G:\Users\Jaxb\AppData\Local\Temp\ccccNtaX.s:140    .text:0000005c $t
G:\Users\Jaxb\AppData\Local\Temp\ccccNtaX.s:147    .text:0000005c shell_time
G:\Users\Jaxb\AppData\Local\Temp\ccccNtaX.s:215    .text:00000072 shell_memory
G:\Users\Jaxb\AppData\Local\Temp\ccccNtaX.s:316    .text:00000108 $d
G:\Users\Jaxb\AppData\Local\Temp\ccccNtaX.s:332    .text:00000128 $t
G:\Users\Jaxb\AppData\Local\Temp\ccccNtaX.s:339    .text:00000128 shell_clear
G:\Users\Jaxb\AppData\Local\Temp\ccccNtaX.s:388    .text:00000154 $d
G:\Users\Jaxb\AppData\Local\Temp\ccccNtaX.s:400    .text:00000158 $t
G:\Users\Jaxb\AppData\Local\Temp\ccccNtaX.s:407    .text:00000158 shell_echo
G:\Users\Jaxb\AppData\Local\Temp\ccccNtaX.s:471    .text:0000019c $d
G:\Users\Jaxb\AppData\Local\Temp\ccccNtaX.s:481    .text:000001a4 $t
G:\Users\Jaxb\AppData\Local\Temp\ccccNtaX.s:488    .text:000001a4 shell_set
G:\Users\Jaxb\AppData\Local\Temp\ccccNtaX.s:556    .text:000001f0 $d
G:\Users\Jaxb\AppData\Local\Temp\ccccNtaX.s:561    .text:000001f8 $t
G:\Users\Jaxb\AppData\Local\Temp\ccccNtaX.s:568    .text:000001f8 shell_addr
G:\Users\Jaxb\AppData\Local\Temp\ccccNtaX.s:630    .text:00000238 $d
G:\Users\Jaxb\AppData\Local\Temp\ccccNtaX.s:635    .text:00000240 $t
G:\Users\Jaxb\AppData\Local\Temp\ccccNtaX.s:642    .text:00000240 shell_TCB_check
G:\Users\Jaxb\AppData\Local\Temp\ccccNtaX.s:687    .text:0000025e shell_reboot
G:\Users\Jaxb\AppData\Local\Temp\ccccNtaX.s:758    .text:00000274 shell_module
G:\Users\Jaxb\AppData\Local\Temp\ccccNtaX.s:964    .text:000003cc $d
G:\Users\Jaxb\AppData\Local\Temp\ccccNtaX.s:986    .text:000003f4 $t
G:\Users\Jaxb\AppData\Local\Temp\ccccNtaX.s:993    .text:000003f4 shell_sleep
G:\Users\Jaxb\AppData\Local\Temp\ccccNtaX.s:1033   .text:00000418 $d
G:\Users\Jaxb\AppData\Local\Temp\ccccNtaX.s:1043   .text:00000420 $t
G:\Users\Jaxb\AppData\Local\Temp\ccccNtaX.s:1050   .text:00000420 shell_shutdown
G:\Users\Jaxb\AppData\Local\Temp\ccccNtaX.s:1087   .text:0000043c $d

UNDEFINED SYMBOLS
ka_printf
system_time_display
get_os_buddy_ptr_head
_ASSERT
get_current_buddy_space
get_next_buddy_ptr_head
find_in_variable_array
shell_v_display
shell_v_write
shell_v_display_addr
shell_check_TCB_list
shell_check_os_ready
shell_delay_heap_check
ReBoot
get_para_add
ka_atoi
ka_malloc
alloc_power3_page
add_page_alloc_record
ARM GAS  G:\Users\Jaxb\AppData\Local\Temp\ccccNtaX.s 			page 64


__init_shell_buffer
ka_free
change_shell_buffer
set_module_buffer
shell_buffer_wait_str
show_get_size
dlmodule_exec
clear_module_buffer
sys_sleep
sys_shutdown
