ARM GAS  G:\Users\Jaxb\AppData\Local\Temp\ccguw8EI.s 			page 1


   1              		.cpu cortex-m3
   2              		.eabi_attribute 20, 1
   3              		.eabi_attribute 21, 1
   4              		.eabi_attribute 23, 3
   5              		.eabi_attribute 24, 1
   6              		.eabi_attribute 25, 1
   7              		.eabi_attribute 26, 1
   8              		.eabi_attribute 30, 6
   9              		.eabi_attribute 34, 1
  10              		.eabi_attribute 18, 4
  11              		.file	"singly_linked_list.c"
  12              		.text
  13              	.Ltext0:
  14              		.cfi_sections	.debug_frame
  15              		.align	1
  16              		.syntax unified
  17              		.thumb
  18              		.thumb_func
  19              		.fpu softvfp
  20              		.type	_singly_list_del_next, %function
  21              	_singly_list_del_next:
  22              	.LFB2:
  23              		.file 1 "../../source/include/os_lib/singly_linked_list.h"
   1:../../source/include/os_lib/singly_linked_list.h **** #ifndef _SINGLY_LINKED_LIST_H
   2:../../source/include/os_lib/singly_linked_list.h **** #define _SINGLY_LINKED_LIST_H
   3:../../source/include/os_lib/singly_linked_list.h **** 
   4:../../source/include/os_lib/singly_linked_list.h **** struct singly_list_head{
   5:../../source/include/os_lib/singly_linked_list.h **** 	struct singly_list_head *next;
   6:../../source/include/os_lib/singly_linked_list.h **** };
   7:../../source/include/os_lib/singly_linked_list.h **** 
   8:../../source/include/os_lib/singly_linked_list.h **** #define SINGLY_LIST_HEAD_INIT(name) { &(name) }
   9:../../source/include/os_lib/singly_linked_list.h **** 
  10:../../source/include/os_lib/singly_linked_list.h **** #define SINGLY_LIST_HEAD(name) \
  11:../../source/include/os_lib/singly_linked_list.h ****     struct singly_list_head name = SINGLY_LIST_HEAD_INIT(name)
  12:../../source/include/os_lib/singly_linked_list.h **** 
  13:../../source/include/os_lib/singly_linked_list.h **** static inline void INIT_SINGLY_LIST_HEAD(struct singly_list_head *list)
  14:../../source/include/os_lib/singly_linked_list.h **** {
  15:../../source/include/os_lib/singly_linked_list.h **** 	list->next = list;
  16:../../source/include/os_lib/singly_linked_list.h **** }
  17:../../source/include/os_lib/singly_linked_list.h **** 
  18:../../source/include/os_lib/singly_linked_list.h **** static inline void singly_list_add(struct singly_list_head *new,struct singly_list_head *head)
  19:../../source/include/os_lib/singly_linked_list.h **** {
  20:../../source/include/os_lib/singly_linked_list.h **** 	new->next = head->next;
  21:../../source/include/os_lib/singly_linked_list.h **** 	head->next = new;
  22:../../source/include/os_lib/singly_linked_list.h **** }
  23:../../source/include/os_lib/singly_linked_list.h **** 
  24:../../source/include/os_lib/singly_linked_list.h **** static inline void _singly_list_del_next(struct singly_list_head *pre)
  25:../../source/include/os_lib/singly_linked_list.h **** {
  24              		.loc 1 25 0
  25              		.cfi_startproc
  26              		@ args = 0, pretend = 0, frame = 8
  27              		@ frame_needed = 1, uses_anonymous_args = 0
  28              		@ link register save eliminated.
  29 0000 80B4     		push	{r7}
  30              	.LCFI0:
  31              		.cfi_def_cfa_offset 4
  32              		.cfi_offset 7, -4
ARM GAS  G:\Users\Jaxb\AppData\Local\Temp\ccguw8EI.s 			page 2


  33 0002 83B0     		sub	sp, sp, #12
  34              	.LCFI1:
  35              		.cfi_def_cfa_offset 16
  36 0004 00AF     		add	r7, sp, #0
  37              	.LCFI2:
  38              		.cfi_def_cfa_register 7
  39 0006 7860     		str	r0, [r7, #4]
  26:../../source/include/os_lib/singly_linked_list.h **** 	pre->next = pre->next->next;
  40              		.loc 1 26 0
  41 0008 7B68     		ldr	r3, [r7, #4]
  42 000a 1B68     		ldr	r3, [r3]
  43 000c 1A68     		ldr	r2, [r3]
  44 000e 7B68     		ldr	r3, [r7, #4]
  45 0010 1A60     		str	r2, [r3]
  27:../../source/include/os_lib/singly_linked_list.h **** }
  46              		.loc 1 27 0
  47 0012 00BF     		nop
  48 0014 0C37     		adds	r7, r7, #12
  49              	.LCFI3:
  50              		.cfi_def_cfa_offset 4
  51 0016 BD46     		mov	sp, r7
  52              	.LCFI4:
  53              		.cfi_def_cfa_register 13
  54              		@ sp needed
  55 0018 80BC     		pop	{r7}
  56              	.LCFI5:
  57              		.cfi_restore 7
  58              		.cfi_def_cfa_offset 0
  59 001a 7047     		bx	lr
  60              		.cfi_endproc
  61              	.LFE2:
  62              		.size	_singly_list_del_next, .-_singly_list_del_next
  63              		.align	1
  64              		.syntax unified
  65              		.thumb
  66              		.thumb_func
  67              		.fpu softvfp
  68              		.type	_singly_list_del, %function
  69              	_singly_list_del:
  70              	.LFB4:
  71              		.file 2 "../../source/src/kernel/OS_LIB/singly_linked_list.c"
   1:../../source/src/kernel/OS_LIB/singly_linked_list.c **** #include <singly_linked_list.h>
   2:../../source/src/kernel/OS_LIB/singly_linked_list.c **** #include <kakaosstdint.h>
   3:../../source/src/kernel/OS_LIB/singly_linked_list.c **** 
   4:../../source/src/kernel/OS_LIB/singly_linked_list.c **** static void _singly_list_del(
   5:../../source/src/kernel/OS_LIB/singly_linked_list.c **** 	struct singly_list_head *head,
   6:../../source/src/kernel/OS_LIB/singly_linked_list.c **** 	const struct singly_list_head *entity)
   7:../../source/src/kernel/OS_LIB/singly_linked_list.c **** {
  72              		.loc 2 7 0
  73              		.cfi_startproc
  74              		@ args = 0, pretend = 0, frame = 16
  75              		@ frame_needed = 1, uses_anonymous_args = 0
  76 001c 80B5     		push	{r7, lr}
  77              	.LCFI6:
  78              		.cfi_def_cfa_offset 8
  79              		.cfi_offset 7, -8
  80              		.cfi_offset 14, -4
ARM GAS  G:\Users\Jaxb\AppData\Local\Temp\ccguw8EI.s 			page 3


  81 001e 84B0     		sub	sp, sp, #16
  82              	.LCFI7:
  83              		.cfi_def_cfa_offset 24
  84 0020 00AF     		add	r7, sp, #0
  85              	.LCFI8:
  86              		.cfi_def_cfa_register 7
  87 0022 7860     		str	r0, [r7, #4]
  88 0024 3960     		str	r1, [r7]
   8:../../source/src/kernel/OS_LIB/singly_linked_list.c **** 	struct singly_list_head *pos,*pre;
   9:../../source/src/kernel/OS_LIB/singly_linked_list.c **** 	singly_list_for_each_del(pos,pre,head)
  89              		.loc 2 9 0
  90 0026 7B68     		ldr	r3, [r7, #4]
  91 0028 1B68     		ldr	r3, [r3]
  92 002a FB60     		str	r3, [r7, #12]
  93 002c 7B68     		ldr	r3, [r7, #4]
  94 002e BB60     		str	r3, [r7, #8]
  95 0030 0CE0     		b	.L3
  96              	.L6:
  10:../../source/src/kernel/OS_LIB/singly_linked_list.c **** 	{
  11:../../source/src/kernel/OS_LIB/singly_linked_list.c **** 		if(pos == entity)
  97              		.loc 2 11 0
  98 0032 FA68     		ldr	r2, [r7, #12]
  99 0034 3B68     		ldr	r3, [r7]
 100 0036 9A42     		cmp	r2, r3
 101 0038 03D1     		bne	.L4
  12:../../source/src/kernel/OS_LIB/singly_linked_list.c **** 		{
  13:../../source/src/kernel/OS_LIB/singly_linked_list.c **** 			_singly_list_del_next(pre);
 102              		.loc 2 13 0
 103 003a B868     		ldr	r0, [r7, #8]
 104 003c FFF7E0FF 		bl	_singly_list_del_next
  14:../../source/src/kernel/OS_LIB/singly_linked_list.c **** 			return ;
 105              		.loc 2 14 0
 106 0040 08E0     		b	.L2
 107              	.L4:
   9:../../source/src/kernel/OS_LIB/singly_linked_list.c **** 	{
 108              		.loc 2 9 0 discriminator 2
 109 0042 FB68     		ldr	r3, [r7, #12]
 110 0044 BB60     		str	r3, [r7, #8]
 111 0046 FB68     		ldr	r3, [r7, #12]
 112 0048 1B68     		ldr	r3, [r3]
 113 004a FB60     		str	r3, [r7, #12]
 114              	.L3:
   9:../../source/src/kernel/OS_LIB/singly_linked_list.c **** 	{
 115              		.loc 2 9 0 is_stmt 0 discriminator 1
 116 004c FA68     		ldr	r2, [r7, #12]
 117 004e 7B68     		ldr	r3, [r7, #4]
 118 0050 9A42     		cmp	r2, r3
 119 0052 EED1     		bne	.L6
 120              	.L2:
  15:../../source/src/kernel/OS_LIB/singly_linked_list.c **** 		}
  16:../../source/src/kernel/OS_LIB/singly_linked_list.c **** 	}
  17:../../source/src/kernel/OS_LIB/singly_linked_list.c **** }
 121              		.loc 2 17 0 is_stmt 1
 122 0054 1037     		adds	r7, r7, #16
 123              	.LCFI9:
 124              		.cfi_def_cfa_offset 8
 125 0056 BD46     		mov	sp, r7
ARM GAS  G:\Users\Jaxb\AppData\Local\Temp\ccguw8EI.s 			page 4


 126              	.LCFI10:
 127              		.cfi_def_cfa_register 13
 128              		@ sp needed
 129 0058 80BD     		pop	{r7, pc}
 130              		.cfi_endproc
 131              	.LFE4:
 132              		.size	_singly_list_del, .-_singly_list_del
 133              		.align	1
 134              		.global	singly_list_del
 135              		.syntax unified
 136              		.thumb
 137              		.thumb_func
 138              		.fpu softvfp
 139              		.type	singly_list_del, %function
 140              	singly_list_del:
 141              	.LFB5:
  18:../../source/src/kernel/OS_LIB/singly_linked_list.c **** 
  19:../../source/src/kernel/OS_LIB/singly_linked_list.c **** void singly_list_del(
  20:../../source/src/kernel/OS_LIB/singly_linked_list.c **** 	struct singly_list_head *head,
  21:../../source/src/kernel/OS_LIB/singly_linked_list.c **** 	struct singly_list_head *entity,
  22:../../source/src/kernel/OS_LIB/singly_linked_list.c **** 	void (*copy_data)(struct singly_list_head *from,struct singly_list_head *to))
  23:../../source/src/kernel/OS_LIB/singly_linked_list.c **** {
 142              		.loc 2 23 0
 143              		.cfi_startproc
 144              		@ args = 0, pretend = 0, frame = 16
 145              		@ frame_needed = 1, uses_anonymous_args = 0
 146 005a 80B5     		push	{r7, lr}
 147              	.LCFI11:
 148              		.cfi_def_cfa_offset 8
 149              		.cfi_offset 7, -8
 150              		.cfi_offset 14, -4
 151 005c 84B0     		sub	sp, sp, #16
 152              	.LCFI12:
 153              		.cfi_def_cfa_offset 24
 154 005e 00AF     		add	r7, sp, #0
 155              	.LCFI13:
 156              		.cfi_def_cfa_register 7
 157 0060 F860     		str	r0, [r7, #12]
 158 0062 B960     		str	r1, [r7, #8]
 159 0064 7A60     		str	r2, [r7, #4]
  24:../../source/src/kernel/OS_LIB/singly_linked_list.c **** 	if((NULL != copy_data) && (head != entity->next))
 160              		.loc 2 24 0
 161 0066 7B68     		ldr	r3, [r7, #4]
 162 0068 002B     		cmp	r3, #0
 163 006a 0ED0     		beq	.L8
 164              		.loc 2 24 0 is_stmt 0 discriminator 1
 165 006c BB68     		ldr	r3, [r7, #8]
 166 006e 1B68     		ldr	r3, [r3]
 167 0070 FA68     		ldr	r2, [r7, #12]
 168 0072 9A42     		cmp	r2, r3
 169 0074 09D0     		beq	.L8
  25:../../source/src/kernel/OS_LIB/singly_linked_list.c **** 	{
  26:../../source/src/kernel/OS_LIB/singly_linked_list.c **** 		copy_data(entity->next,entity);
 170              		.loc 2 26 0 is_stmt 1
 171 0076 BB68     		ldr	r3, [r7, #8]
 172 0078 1A68     		ldr	r2, [r3]
 173 007a 7B68     		ldr	r3, [r7, #4]
ARM GAS  G:\Users\Jaxb\AppData\Local\Temp\ccguw8EI.s 			page 5


 174 007c B968     		ldr	r1, [r7, #8]
 175 007e 1046     		mov	r0, r2
 176 0080 9847     		blx	r3
 177              	.LVL0:
  27:../../source/src/kernel/OS_LIB/singly_linked_list.c **** 		_singly_list_del_next(entity);
 178              		.loc 2 27 0
 179 0082 B868     		ldr	r0, [r7, #8]
 180 0084 FFF7BCFF 		bl	_singly_list_del_next
 181 0088 03E0     		b	.L9
 182              	.L8:
  28:../../source/src/kernel/OS_LIB/singly_linked_list.c **** 	}
  29:../../source/src/kernel/OS_LIB/singly_linked_list.c **** 	else
  30:../../source/src/kernel/OS_LIB/singly_linked_list.c **** 	{
  31:../../source/src/kernel/OS_LIB/singly_linked_list.c **** 		_singly_list_del(head,entity);
 183              		.loc 2 31 0
 184 008a B968     		ldr	r1, [r7, #8]
 185 008c F868     		ldr	r0, [r7, #12]
 186 008e FFF7C5FF 		bl	_singly_list_del
 187              	.L9:
  32:../../source/src/kernel/OS_LIB/singly_linked_list.c **** 	}
  33:../../source/src/kernel/OS_LIB/singly_linked_list.c **** }
 188              		.loc 2 33 0
 189 0092 00BF     		nop
 190 0094 1037     		adds	r7, r7, #16
 191              	.LCFI14:
 192              		.cfi_def_cfa_offset 8
 193 0096 BD46     		mov	sp, r7
 194              	.LCFI15:
 195              		.cfi_def_cfa_register 13
 196              		@ sp needed
 197 0098 80BD     		pop	{r7, pc}
 198              		.cfi_endproc
 199              	.LFE5:
 200              		.size	singly_list_del, .-singly_list_del
 201              	.Letext0:
 202              		.section	.debug_info,"",%progbits
 203              	.Ldebug_info0:
 204 0000 58010000 		.4byte	0x158
 205 0004 0200     		.2byte	0x2
 206 0006 00000000 		.4byte	.Ldebug_abbrev0
 207 000a 04       		.byte	0x4
 208 000b 01       		.uleb128 0x1
 209 000c 18010000 		.4byte	.LASF10
 210 0010 0C       		.byte	0xc
 211 0011 47000000 		.4byte	.LASF11
 212 0015 BA000000 		.4byte	.LASF12
 213 0019 00000000 		.4byte	.Ltext0
 214 001d 9A000000 		.4byte	.Letext0
 215 0021 00000000 		.4byte	.Ldebug_line0
 216 0025 02       		.uleb128 0x2
 217 0026 36000000 		.4byte	.LASF13
 218 002a 04       		.byte	0x4
 219 002b 01       		.byte	0x1
 220 002c 04       		.byte	0x4
 221 002d 40000000 		.4byte	0x40
 222 0031 03       		.uleb128 0x3
 223 0032 CF010000 		.4byte	.LASF14
ARM GAS  G:\Users\Jaxb\AppData\Local\Temp\ccguw8EI.s 			page 6


 224 0036 01       		.byte	0x1
 225 0037 05       		.byte	0x5
 226 0038 45000000 		.4byte	0x45
 227 003c 02       		.byte	0x2
 228 003d 23       		.byte	0x23
 229 003e 00       		.uleb128 0
 230 003f 00       		.byte	0
 231 0040 04       		.uleb128 0x4
 232 0041 25000000 		.4byte	0x25
 233 0045 05       		.uleb128 0x5
 234 0046 04       		.byte	0x4
 235 0047 25000000 		.4byte	0x25
 236 004b 06       		.uleb128 0x6
 237 004c 01       		.byte	0x1
 238 004d 06       		.byte	0x6
 239 004e 02010000 		.4byte	.LASF0
 240 0052 06       		.uleb128 0x6
 241 0053 02       		.byte	0x2
 242 0054 05       		.byte	0x5
 243 0055 0E010000 		.4byte	.LASF1
 244 0059 07       		.uleb128 0x7
 245 005a 04       		.byte	0x4
 246 005b 05       		.byte	0x5
 247 005c 696E7400 		.ascii	"int\000"
 248 0060 06       		.uleb128 0x6
 249 0061 08       		.byte	0x8
 250 0062 05       		.byte	0x5
 251 0063 00000000 		.4byte	.LASF2
 252 0067 06       		.uleb128 0x6
 253 0068 01       		.byte	0x1
 254 0069 08       		.byte	0x8
 255 006a 92000000 		.4byte	.LASF3
 256 006e 06       		.uleb128 0x6
 257 006f 02       		.byte	0x2
 258 0070 07       		.byte	0x7
 259 0071 EF000000 		.4byte	.LASF4
 260 0075 06       		.uleb128 0x6
 261 0076 04       		.byte	0x4
 262 0077 07       		.byte	0x7
 263 0078 0E000000 		.4byte	.LASF5
 264 007c 06       		.uleb128 0x6
 265 007d 08       		.byte	0x8
 266 007e 07       		.byte	0x7
 267 007f 7B000000 		.4byte	.LASF6
 268 0083 08       		.uleb128 0x8
 269 0084 01       		.byte	0x1
 270 0085 AA000000 		.4byte	.LASF15
 271 0089 02       		.byte	0x2
 272 008a 13       		.byte	0x13
 273 008b 01       		.byte	0x1
 274 008c 5A000000 		.4byte	.LFB5
 275 0090 9A000000 		.4byte	.LFE5
 276 0094 00000000 		.4byte	.LLST2
 277 0098 01       		.byte	0x1
 278 0099 C8000000 		.4byte	0xc8
 279 009d 09       		.uleb128 0x9
 280 009e 31000000 		.4byte	.LASF7
ARM GAS  G:\Users\Jaxb\AppData\Local\Temp\ccguw8EI.s 			page 7


 281 00a2 02       		.byte	0x2
 282 00a3 14       		.byte	0x14
 283 00a4 45000000 		.4byte	0x45
 284 00a8 02       		.byte	0x2
 285 00a9 91       		.byte	0x91
 286 00aa 74       		.sleb128 -12
 287 00ab 09       		.uleb128 0x9
 288 00ac E8000000 		.4byte	.LASF8
 289 00b0 02       		.byte	0x2
 290 00b1 15       		.byte	0x15
 291 00b2 45000000 		.4byte	0x45
 292 00b6 02       		.byte	0x2
 293 00b7 91       		.byte	0x91
 294 00b8 70       		.sleb128 -16
 295 00b9 09       		.uleb128 0x9
 296 00ba A0000000 		.4byte	.LASF9
 297 00be 02       		.byte	0x2
 298 00bf 16       		.byte	0x16
 299 00c0 D9000000 		.4byte	0xd9
 300 00c4 02       		.byte	0x2
 301 00c5 91       		.byte	0x91
 302 00c6 6C       		.sleb128 -20
 303 00c7 00       		.byte	0
 304 00c8 0A       		.uleb128 0xa
 305 00c9 01       		.byte	0x1
 306 00ca D9000000 		.4byte	0xd9
 307 00ce 0B       		.uleb128 0xb
 308 00cf 45000000 		.4byte	0x45
 309 00d3 0B       		.uleb128 0xb
 310 00d4 45000000 		.4byte	0x45
 311 00d8 00       		.byte	0
 312 00d9 05       		.uleb128 0x5
 313 00da 04       		.byte	0x4
 314 00db C8000000 		.4byte	0xc8
 315 00df 0C       		.uleb128 0xc
 316 00e0 BE010000 		.4byte	.LASF16
 317 00e4 02       		.byte	0x2
 318 00e5 04       		.byte	0x4
 319 00e6 01       		.byte	0x1
 320 00e7 1C000000 		.4byte	.LFB4
 321 00eb 5A000000 		.4byte	.LFE4
 322 00ef 50000000 		.4byte	.LLST1
 323 00f3 01       		.byte	0x1
 324 00f4 31010000 		.4byte	0x131
 325 00f8 09       		.uleb128 0x9
 326 00f9 31000000 		.4byte	.LASF7
 327 00fd 02       		.byte	0x2
 328 00fe 05       		.byte	0x5
 329 00ff 45000000 		.4byte	0x45
 330 0103 02       		.byte	0x2
 331 0104 91       		.byte	0x91
 332 0105 6C       		.sleb128 -20
 333 0106 09       		.uleb128 0x9
 334 0107 E8000000 		.4byte	.LASF8
 335 010b 02       		.byte	0x2
 336 010c 06       		.byte	0x6
 337 010d 31010000 		.4byte	0x131
ARM GAS  G:\Users\Jaxb\AppData\Local\Temp\ccguw8EI.s 			page 8


 338 0111 02       		.byte	0x2
 339 0112 91       		.byte	0x91
 340 0113 68       		.sleb128 -24
 341 0114 0D       		.uleb128 0xd
 342 0115 706F7300 		.ascii	"pos\000"
 343 0119 02       		.byte	0x2
 344 011a 08       		.byte	0x8
 345 011b 45000000 		.4byte	0x45
 346 011f 02       		.byte	0x2
 347 0120 91       		.byte	0x91
 348 0121 74       		.sleb128 -12
 349 0122 0D       		.uleb128 0xd
 350 0123 70726500 		.ascii	"pre\000"
 351 0127 02       		.byte	0x2
 352 0128 08       		.byte	0x8
 353 0129 45000000 		.4byte	0x45
 354 012d 02       		.byte	0x2
 355 012e 91       		.byte	0x91
 356 012f 70       		.sleb128 -16
 357 0130 00       		.byte	0
 358 0131 05       		.uleb128 0x5
 359 0132 04       		.byte	0x4
 360 0133 40000000 		.4byte	0x40
 361 0137 0E       		.uleb128 0xe
 362 0138 1B000000 		.4byte	.LASF17
 363 013c 01       		.byte	0x1
 364 013d 18       		.byte	0x18
 365 013e 01       		.byte	0x1
 366 013f 00000000 		.4byte	.LFB2
 367 0143 1C000000 		.4byte	.LFE2
 368 0147 A0000000 		.4byte	.LLST0
 369 014b 01       		.byte	0x1
 370 014c 0F       		.uleb128 0xf
 371 014d 70726500 		.ascii	"pre\000"
 372 0151 01       		.byte	0x1
 373 0152 18       		.byte	0x18
 374 0153 45000000 		.4byte	0x45
 375 0157 02       		.byte	0x2
 376 0158 91       		.byte	0x91
 377 0159 74       		.sleb128 -12
 378 015a 00       		.byte	0
 379 015b 00       		.byte	0
 380              		.section	.debug_abbrev,"",%progbits
 381              	.Ldebug_abbrev0:
 382 0000 01       		.uleb128 0x1
 383 0001 11       		.uleb128 0x11
 384 0002 01       		.byte	0x1
 385 0003 25       		.uleb128 0x25
 386 0004 0E       		.uleb128 0xe
 387 0005 13       		.uleb128 0x13
 388 0006 0B       		.uleb128 0xb
 389 0007 03       		.uleb128 0x3
 390 0008 0E       		.uleb128 0xe
 391 0009 1B       		.uleb128 0x1b
 392 000a 0E       		.uleb128 0xe
 393 000b 11       		.uleb128 0x11
 394 000c 01       		.uleb128 0x1
ARM GAS  G:\Users\Jaxb\AppData\Local\Temp\ccguw8EI.s 			page 9


 395 000d 12       		.uleb128 0x12
 396 000e 01       		.uleb128 0x1
 397 000f 10       		.uleb128 0x10
 398 0010 06       		.uleb128 0x6
 399 0011 00       		.byte	0
 400 0012 00       		.byte	0
 401 0013 02       		.uleb128 0x2
 402 0014 13       		.uleb128 0x13
 403 0015 01       		.byte	0x1
 404 0016 03       		.uleb128 0x3
 405 0017 0E       		.uleb128 0xe
 406 0018 0B       		.uleb128 0xb
 407 0019 0B       		.uleb128 0xb
 408 001a 3A       		.uleb128 0x3a
 409 001b 0B       		.uleb128 0xb
 410 001c 3B       		.uleb128 0x3b
 411 001d 0B       		.uleb128 0xb
 412 001e 01       		.uleb128 0x1
 413 001f 13       		.uleb128 0x13
 414 0020 00       		.byte	0
 415 0021 00       		.byte	0
 416 0022 03       		.uleb128 0x3
 417 0023 0D       		.uleb128 0xd
 418 0024 00       		.byte	0
 419 0025 03       		.uleb128 0x3
 420 0026 0E       		.uleb128 0xe
 421 0027 3A       		.uleb128 0x3a
 422 0028 0B       		.uleb128 0xb
 423 0029 3B       		.uleb128 0x3b
 424 002a 0B       		.uleb128 0xb
 425 002b 49       		.uleb128 0x49
 426 002c 13       		.uleb128 0x13
 427 002d 38       		.uleb128 0x38
 428 002e 0A       		.uleb128 0xa
 429 002f 00       		.byte	0
 430 0030 00       		.byte	0
 431 0031 04       		.uleb128 0x4
 432 0032 26       		.uleb128 0x26
 433 0033 00       		.byte	0
 434 0034 49       		.uleb128 0x49
 435 0035 13       		.uleb128 0x13
 436 0036 00       		.byte	0
 437 0037 00       		.byte	0
 438 0038 05       		.uleb128 0x5
 439 0039 0F       		.uleb128 0xf
 440 003a 00       		.byte	0
 441 003b 0B       		.uleb128 0xb
 442 003c 0B       		.uleb128 0xb
 443 003d 49       		.uleb128 0x49
 444 003e 13       		.uleb128 0x13
 445 003f 00       		.byte	0
 446 0040 00       		.byte	0
 447 0041 06       		.uleb128 0x6
 448 0042 24       		.uleb128 0x24
 449 0043 00       		.byte	0
 450 0044 0B       		.uleb128 0xb
 451 0045 0B       		.uleb128 0xb
ARM GAS  G:\Users\Jaxb\AppData\Local\Temp\ccguw8EI.s 			page 10


 452 0046 3E       		.uleb128 0x3e
 453 0047 0B       		.uleb128 0xb
 454 0048 03       		.uleb128 0x3
 455 0049 0E       		.uleb128 0xe
 456 004a 00       		.byte	0
 457 004b 00       		.byte	0
 458 004c 07       		.uleb128 0x7
 459 004d 24       		.uleb128 0x24
 460 004e 00       		.byte	0
 461 004f 0B       		.uleb128 0xb
 462 0050 0B       		.uleb128 0xb
 463 0051 3E       		.uleb128 0x3e
 464 0052 0B       		.uleb128 0xb
 465 0053 03       		.uleb128 0x3
 466 0054 08       		.uleb128 0x8
 467 0055 00       		.byte	0
 468 0056 00       		.byte	0
 469 0057 08       		.uleb128 0x8
 470 0058 2E       		.uleb128 0x2e
 471 0059 01       		.byte	0x1
 472 005a 3F       		.uleb128 0x3f
 473 005b 0C       		.uleb128 0xc
 474 005c 03       		.uleb128 0x3
 475 005d 0E       		.uleb128 0xe
 476 005e 3A       		.uleb128 0x3a
 477 005f 0B       		.uleb128 0xb
 478 0060 3B       		.uleb128 0x3b
 479 0061 0B       		.uleb128 0xb
 480 0062 27       		.uleb128 0x27
 481 0063 0C       		.uleb128 0xc
 482 0064 11       		.uleb128 0x11
 483 0065 01       		.uleb128 0x1
 484 0066 12       		.uleb128 0x12
 485 0067 01       		.uleb128 0x1
 486 0068 40       		.uleb128 0x40
 487 0069 06       		.uleb128 0x6
 488 006a 9642     		.uleb128 0x2116
 489 006c 0C       		.uleb128 0xc
 490 006d 01       		.uleb128 0x1
 491 006e 13       		.uleb128 0x13
 492 006f 00       		.byte	0
 493 0070 00       		.byte	0
 494 0071 09       		.uleb128 0x9
 495 0072 05       		.uleb128 0x5
 496 0073 00       		.byte	0
 497 0074 03       		.uleb128 0x3
 498 0075 0E       		.uleb128 0xe
 499 0076 3A       		.uleb128 0x3a
 500 0077 0B       		.uleb128 0xb
 501 0078 3B       		.uleb128 0x3b
 502 0079 0B       		.uleb128 0xb
 503 007a 49       		.uleb128 0x49
 504 007b 13       		.uleb128 0x13
 505 007c 02       		.uleb128 0x2
 506 007d 0A       		.uleb128 0xa
 507 007e 00       		.byte	0
 508 007f 00       		.byte	0
ARM GAS  G:\Users\Jaxb\AppData\Local\Temp\ccguw8EI.s 			page 11


 509 0080 0A       		.uleb128 0xa
 510 0081 15       		.uleb128 0x15
 511 0082 01       		.byte	0x1
 512 0083 27       		.uleb128 0x27
 513 0084 0C       		.uleb128 0xc
 514 0085 01       		.uleb128 0x1
 515 0086 13       		.uleb128 0x13
 516 0087 00       		.byte	0
 517 0088 00       		.byte	0
 518 0089 0B       		.uleb128 0xb
 519 008a 05       		.uleb128 0x5
 520 008b 00       		.byte	0
 521 008c 49       		.uleb128 0x49
 522 008d 13       		.uleb128 0x13
 523 008e 00       		.byte	0
 524 008f 00       		.byte	0
 525 0090 0C       		.uleb128 0xc
 526 0091 2E       		.uleb128 0x2e
 527 0092 01       		.byte	0x1
 528 0093 03       		.uleb128 0x3
 529 0094 0E       		.uleb128 0xe
 530 0095 3A       		.uleb128 0x3a
 531 0096 0B       		.uleb128 0xb
 532 0097 3B       		.uleb128 0x3b
 533 0098 0B       		.uleb128 0xb
 534 0099 27       		.uleb128 0x27
 535 009a 0C       		.uleb128 0xc
 536 009b 11       		.uleb128 0x11
 537 009c 01       		.uleb128 0x1
 538 009d 12       		.uleb128 0x12
 539 009e 01       		.uleb128 0x1
 540 009f 40       		.uleb128 0x40
 541 00a0 06       		.uleb128 0x6
 542 00a1 9642     		.uleb128 0x2116
 543 00a3 0C       		.uleb128 0xc
 544 00a4 01       		.uleb128 0x1
 545 00a5 13       		.uleb128 0x13
 546 00a6 00       		.byte	0
 547 00a7 00       		.byte	0
 548 00a8 0D       		.uleb128 0xd
 549 00a9 34       		.uleb128 0x34
 550 00aa 00       		.byte	0
 551 00ab 03       		.uleb128 0x3
 552 00ac 08       		.uleb128 0x8
 553 00ad 3A       		.uleb128 0x3a
 554 00ae 0B       		.uleb128 0xb
 555 00af 3B       		.uleb128 0x3b
 556 00b0 0B       		.uleb128 0xb
 557 00b1 49       		.uleb128 0x49
 558 00b2 13       		.uleb128 0x13
 559 00b3 02       		.uleb128 0x2
 560 00b4 0A       		.uleb128 0xa
 561 00b5 00       		.byte	0
 562 00b6 00       		.byte	0
 563 00b7 0E       		.uleb128 0xe
 564 00b8 2E       		.uleb128 0x2e
 565 00b9 01       		.byte	0x1
ARM GAS  G:\Users\Jaxb\AppData\Local\Temp\ccguw8EI.s 			page 12


 566 00ba 03       		.uleb128 0x3
 567 00bb 0E       		.uleb128 0xe
 568 00bc 3A       		.uleb128 0x3a
 569 00bd 0B       		.uleb128 0xb
 570 00be 3B       		.uleb128 0x3b
 571 00bf 0B       		.uleb128 0xb
 572 00c0 27       		.uleb128 0x27
 573 00c1 0C       		.uleb128 0xc
 574 00c2 11       		.uleb128 0x11
 575 00c3 01       		.uleb128 0x1
 576 00c4 12       		.uleb128 0x12
 577 00c5 01       		.uleb128 0x1
 578 00c6 40       		.uleb128 0x40
 579 00c7 06       		.uleb128 0x6
 580 00c8 9742     		.uleb128 0x2117
 581 00ca 0C       		.uleb128 0xc
 582 00cb 00       		.byte	0
 583 00cc 00       		.byte	0
 584 00cd 0F       		.uleb128 0xf
 585 00ce 05       		.uleb128 0x5
 586 00cf 00       		.byte	0
 587 00d0 03       		.uleb128 0x3
 588 00d1 08       		.uleb128 0x8
 589 00d2 3A       		.uleb128 0x3a
 590 00d3 0B       		.uleb128 0xb
 591 00d4 3B       		.uleb128 0x3b
 592 00d5 0B       		.uleb128 0xb
 593 00d6 49       		.uleb128 0x49
 594 00d7 13       		.uleb128 0x13
 595 00d8 02       		.uleb128 0x2
 596 00d9 0A       		.uleb128 0xa
 597 00da 00       		.byte	0
 598 00db 00       		.byte	0
 599 00dc 00       		.byte	0
 600              		.section	.debug_loc,"",%progbits
 601              	.Ldebug_loc0:
 602              	.LLST2:
 603 0000 5A000000 		.4byte	.LFB5-.Ltext0
 604 0004 5C000000 		.4byte	.LCFI11-.Ltext0
 605 0008 0200     		.2byte	0x2
 606 000a 7D       		.byte	0x7d
 607 000b 00       		.sleb128 0
 608 000c 5C000000 		.4byte	.LCFI11-.Ltext0
 609 0010 5E000000 		.4byte	.LCFI12-.Ltext0
 610 0014 0200     		.2byte	0x2
 611 0016 7D       		.byte	0x7d
 612 0017 08       		.sleb128 8
 613 0018 5E000000 		.4byte	.LCFI12-.Ltext0
 614 001c 60000000 		.4byte	.LCFI13-.Ltext0
 615 0020 0200     		.2byte	0x2
 616 0022 7D       		.byte	0x7d
 617 0023 18       		.sleb128 24
 618 0024 60000000 		.4byte	.LCFI13-.Ltext0
 619 0028 96000000 		.4byte	.LCFI14-.Ltext0
 620 002c 0200     		.2byte	0x2
 621 002e 77       		.byte	0x77
 622 002f 18       		.sleb128 24
ARM GAS  G:\Users\Jaxb\AppData\Local\Temp\ccguw8EI.s 			page 13


 623 0030 96000000 		.4byte	.LCFI14-.Ltext0
 624 0034 98000000 		.4byte	.LCFI15-.Ltext0
 625 0038 0200     		.2byte	0x2
 626 003a 77       		.byte	0x77
 627 003b 08       		.sleb128 8
 628 003c 98000000 		.4byte	.LCFI15-.Ltext0
 629 0040 9A000000 		.4byte	.LFE5-.Ltext0
 630 0044 0200     		.2byte	0x2
 631 0046 7D       		.byte	0x7d
 632 0047 08       		.sleb128 8
 633 0048 00000000 		.4byte	0
 634 004c 00000000 		.4byte	0
 635              	.LLST1:
 636 0050 1C000000 		.4byte	.LFB4-.Ltext0
 637 0054 1E000000 		.4byte	.LCFI6-.Ltext0
 638 0058 0200     		.2byte	0x2
 639 005a 7D       		.byte	0x7d
 640 005b 00       		.sleb128 0
 641 005c 1E000000 		.4byte	.LCFI6-.Ltext0
 642 0060 20000000 		.4byte	.LCFI7-.Ltext0
 643 0064 0200     		.2byte	0x2
 644 0066 7D       		.byte	0x7d
 645 0067 08       		.sleb128 8
 646 0068 20000000 		.4byte	.LCFI7-.Ltext0
 647 006c 22000000 		.4byte	.LCFI8-.Ltext0
 648 0070 0200     		.2byte	0x2
 649 0072 7D       		.byte	0x7d
 650 0073 18       		.sleb128 24
 651 0074 22000000 		.4byte	.LCFI8-.Ltext0
 652 0078 56000000 		.4byte	.LCFI9-.Ltext0
 653 007c 0200     		.2byte	0x2
 654 007e 77       		.byte	0x77
 655 007f 18       		.sleb128 24
 656 0080 56000000 		.4byte	.LCFI9-.Ltext0
 657 0084 58000000 		.4byte	.LCFI10-.Ltext0
 658 0088 0200     		.2byte	0x2
 659 008a 77       		.byte	0x77
 660 008b 08       		.sleb128 8
 661 008c 58000000 		.4byte	.LCFI10-.Ltext0
 662 0090 5A000000 		.4byte	.LFE4-.Ltext0
 663 0094 0200     		.2byte	0x2
 664 0096 7D       		.byte	0x7d
 665 0097 08       		.sleb128 8
 666 0098 00000000 		.4byte	0
 667 009c 00000000 		.4byte	0
 668              	.LLST0:
 669 00a0 00000000 		.4byte	.LFB2-.Ltext0
 670 00a4 02000000 		.4byte	.LCFI0-.Ltext0
 671 00a8 0200     		.2byte	0x2
 672 00aa 7D       		.byte	0x7d
 673 00ab 00       		.sleb128 0
 674 00ac 02000000 		.4byte	.LCFI0-.Ltext0
 675 00b0 04000000 		.4byte	.LCFI1-.Ltext0
 676 00b4 0200     		.2byte	0x2
 677 00b6 7D       		.byte	0x7d
 678 00b7 04       		.sleb128 4
 679 00b8 04000000 		.4byte	.LCFI1-.Ltext0
ARM GAS  G:\Users\Jaxb\AppData\Local\Temp\ccguw8EI.s 			page 14


 680 00bc 06000000 		.4byte	.LCFI2-.Ltext0
 681 00c0 0200     		.2byte	0x2
 682 00c2 7D       		.byte	0x7d
 683 00c3 10       		.sleb128 16
 684 00c4 06000000 		.4byte	.LCFI2-.Ltext0
 685 00c8 16000000 		.4byte	.LCFI3-.Ltext0
 686 00cc 0200     		.2byte	0x2
 687 00ce 77       		.byte	0x77
 688 00cf 10       		.sleb128 16
 689 00d0 16000000 		.4byte	.LCFI3-.Ltext0
 690 00d4 18000000 		.4byte	.LCFI4-.Ltext0
 691 00d8 0200     		.2byte	0x2
 692 00da 77       		.byte	0x77
 693 00db 04       		.sleb128 4
 694 00dc 18000000 		.4byte	.LCFI4-.Ltext0
 695 00e0 1A000000 		.4byte	.LCFI5-.Ltext0
 696 00e4 0200     		.2byte	0x2
 697 00e6 7D       		.byte	0x7d
 698 00e7 04       		.sleb128 4
 699 00e8 1A000000 		.4byte	.LCFI5-.Ltext0
 700 00ec 1C000000 		.4byte	.LFE2-.Ltext0
 701 00f0 0200     		.2byte	0x2
 702 00f2 7D       		.byte	0x7d
 703 00f3 00       		.sleb128 0
 704 00f4 00000000 		.4byte	0
 705 00f8 00000000 		.4byte	0
 706              		.section	.debug_aranges,"",%progbits
 707 0000 1C000000 		.4byte	0x1c
 708 0004 0200     		.2byte	0x2
 709 0006 00000000 		.4byte	.Ldebug_info0
 710 000a 04       		.byte	0x4
 711 000b 00       		.byte	0
 712 000c 0000     		.2byte	0
 713 000e 0000     		.2byte	0
 714 0010 00000000 		.4byte	.Ltext0
 715 0014 9A000000 		.4byte	.Letext0-.Ltext0
 716 0018 00000000 		.4byte	0
 717 001c 00000000 		.4byte	0
 718              		.section	.debug_line,"",%progbits
 719              	.Ldebug_line0:
 720 0000 B8000000 		.section	.debug_str,"MS",%progbits,1
 720      02007E00 
 720      00000201 
 720      FB0E0D00 
 720      01010101 
 721              	.LASF2:
 722 0000 6C6F6E67 		.ascii	"long long int\000"
 722      206C6F6E 
 722      6720696E 
 722      7400
 723              	.LASF5:
 724 000e 756E7369 		.ascii	"unsigned int\000"
 724      676E6564 
 724      20696E74 
 724      00
 725              	.LASF17:
 726 001b 5F73696E 		.ascii	"_singly_list_del_next\000"
ARM GAS  G:\Users\Jaxb\AppData\Local\Temp\ccguw8EI.s 			page 15


 726      676C795F 
 726      6C697374 
 726      5F64656C 
 726      5F6E6578 
 727              	.LASF7:
 728 0031 68656164 		.ascii	"head\000"
 728      00
 729              	.LASF13:
 730 0036 73696E67 		.ascii	"singly_list_head\000"
 730      6C795F6C 
 730      6973745F 
 730      68656164 
 730      00
 731              	.LASF11:
 732 0047 2E2E2F2E 		.ascii	"../../source/src/kernel/OS_LIB/singly_linked_list.c"
 732      2E2F736F 
 732      75726365 
 732      2F737263 
 732      2F6B6572 
 733 007a 00       		.ascii	"\000"
 734              	.LASF6:
 735 007b 6C6F6E67 		.ascii	"long long unsigned int\000"
 735      206C6F6E 
 735      6720756E 
 735      7369676E 
 735      65642069 
 736              	.LASF3:
 737 0092 756E7369 		.ascii	"unsigned char\000"
 737      676E6564 
 737      20636861 
 737      7200
 738              	.LASF9:
 739 00a0 636F7079 		.ascii	"copy_data\000"
 739      5F646174 
 739      6100
 740              	.LASF15:
 741 00aa 73696E67 		.ascii	"singly_list_del\000"
 741      6C795F6C 
 741      6973745F 
 741      64656C00 
 742              	.LASF12:
 743 00ba 463A5C6B 		.ascii	"F:\\kaka\\KAKAOS\\C\\windows\\Project\\RVMDK\243\250"
 743      616B615C 
 743      4B414B41 
 743      4F535C43 
 743      5C77696E 
 744 00e2 757635A3 		.ascii	"uv5\243\251\000"
 744      A900
 745              	.LASF8:
 746 00e8 656E7469 		.ascii	"entity\000"
 746      747900
 747              	.LASF4:
 748 00ef 73686F72 		.ascii	"short unsigned int\000"
 748      7420756E 
 748      7369676E 
 748      65642069 
 748      6E7400
ARM GAS  G:\Users\Jaxb\AppData\Local\Temp\ccguw8EI.s 			page 16


 749              	.LASF0:
 750 0102 7369676E 		.ascii	"signed char\000"
 750      65642063 
 750      68617200 
 751              	.LASF1:
 752 010e 73686F72 		.ascii	"short int\000"
 752      7420696E 
 752      7400
 753              	.LASF10:
 754 0118 474E5520 		.ascii	"GNU C11 7.3.1 20180622 (release) [ARM/embedded-7-br"
 754      43313120 
 754      372E332E 
 754      31203230 
 754      31383036 
 755 014b 616E6368 		.ascii	"anch revision 261907] -mcpu=cortex-m3 -mthumb -mapc"
 755      20726576 
 755      6973696F 
 755      6E203236 
 755      31393037 
 756 017e 732D6672 		.ascii	"s-frame -mthumb-interwork -mcpu=cortex-m3 -mthumb -"
 756      616D6520 
 756      2D6D7468 
 756      756D622D 
 756      696E7465 
 757 01b1 67647761 		.ascii	"gdwarf-2 -O0\000"
 757      72662D32 
 757      202D4F30 
 757      00
 758              	.LASF16:
 759 01be 5F73696E 		.ascii	"_singly_list_del\000"
 759      676C795F 
 759      6C697374 
 759      5F64656C 
 759      00
 760              	.LASF14:
 761 01cf 6E657874 		.ascii	"next\000"
 761      00
 762              		.ident	"GCC: (GNU Tools for Arm Embedded Processors 7-2018-q2-update) 7.3.1 20180622 (release) [AR
ARM GAS  G:\Users\Jaxb\AppData\Local\Temp\ccguw8EI.s 			page 17


DEFINED SYMBOLS
                            *ABS*:00000000 singly_linked_list.c
G:\Users\Jaxb\AppData\Local\Temp\ccguw8EI.s:15     .text:00000000 $t
G:\Users\Jaxb\AppData\Local\Temp\ccguw8EI.s:21     .text:00000000 _singly_list_del_next
G:\Users\Jaxb\AppData\Local\Temp\ccguw8EI.s:69     .text:0000001c _singly_list_del
G:\Users\Jaxb\AppData\Local\Temp\ccguw8EI.s:140    .text:0000005a singly_list_del

NO UNDEFINED SYMBOLS
