ARM GAS  G:\Users\Jaxb\AppData\Local\Temp\ccMrDx9T.s 			page 1


   1              		.cpu cortex-m3
   2              		.eabi_attribute 20, 1
   3              		.eabi_attribute 21, 1
   4              		.eabi_attribute 23, 3
   5              		.eabi_attribute 24, 1
   6              		.eabi_attribute 25, 1
   7              		.eabi_attribute 26, 1
   8              		.eabi_attribute 30, 2
   9              		.eabi_attribute 34, 1
  10              		.eabi_attribute 18, 4
  11              		.file	"singly_linked_list.c"
  12              		.text
  13              	.Ltext0:
  14              		.cfi_sections	.debug_frame
  15              		.align	1
  16              		.p2align 2,,3
  17              		.global	singly_list_del
  18              		.syntax unified
  19              		.thumb
  20              		.thumb_func
  21              		.fpu softvfp
  22              		.type	singly_list_del, %function
  23              	singly_list_del:
  24              	.LFB5:
  25              		.file 1 "../../source/src/kernel/OS_LIB/singly_linked_list.c"
   1:../../source/src/kernel/OS_LIB/singly_linked_list.c **** #include <singly_linked_list.h>
   2:../../source/src/kernel/OS_LIB/singly_linked_list.c **** #include <kakaosstdint.h>
   3:../../source/src/kernel/OS_LIB/singly_linked_list.c **** 
   4:../../source/src/kernel/OS_LIB/singly_linked_list.c **** static void _singly_list_del(
   5:../../source/src/kernel/OS_LIB/singly_linked_list.c **** 	struct singly_list_head *head,
   6:../../source/src/kernel/OS_LIB/singly_linked_list.c **** 	const struct singly_list_head *entity)
   7:../../source/src/kernel/OS_LIB/singly_linked_list.c **** {
   8:../../source/src/kernel/OS_LIB/singly_linked_list.c **** 	struct singly_list_head *pos,*pre;
   9:../../source/src/kernel/OS_LIB/singly_linked_list.c **** 	singly_list_for_each_del(pos,pre,head)
  10:../../source/src/kernel/OS_LIB/singly_linked_list.c **** 	{
  11:../../source/src/kernel/OS_LIB/singly_linked_list.c **** 		if(pos == entity)
  12:../../source/src/kernel/OS_LIB/singly_linked_list.c **** 		{
  13:../../source/src/kernel/OS_LIB/singly_linked_list.c **** 			_singly_list_del_next(pre);
  14:../../source/src/kernel/OS_LIB/singly_linked_list.c **** 			return ;
  15:../../source/src/kernel/OS_LIB/singly_linked_list.c **** 		}
  16:../../source/src/kernel/OS_LIB/singly_linked_list.c **** 	}
  17:../../source/src/kernel/OS_LIB/singly_linked_list.c **** }
  18:../../source/src/kernel/OS_LIB/singly_linked_list.c **** 
  19:../../source/src/kernel/OS_LIB/singly_linked_list.c **** void singly_list_del(
  20:../../source/src/kernel/OS_LIB/singly_linked_list.c **** 	struct singly_list_head *head,
  21:../../source/src/kernel/OS_LIB/singly_linked_list.c **** 	struct singly_list_head *entity,
  22:../../source/src/kernel/OS_LIB/singly_linked_list.c **** 	void (*copy_data)(struct singly_list_head *from,struct singly_list_head *to))
  23:../../source/src/kernel/OS_LIB/singly_linked_list.c **** {
  26              		.loc 1 23 0
  27              		.cfi_startproc
  28              		@ args = 0, pretend = 0, frame = 0
  29              		@ frame_needed = 0, uses_anonymous_args = 0
  30              	.LVL0:
  31 0000 10B5     		push	{r4, lr}
  32              	.LCFI0:
  33              		.cfi_def_cfa_offset 8
  34              		.cfi_offset 4, -8
ARM GAS  G:\Users\Jaxb\AppData\Local\Temp\ccMrDx9T.s 			page 2


  35              		.cfi_offset 14, -4
  36              		.loc 1 23 0
  37 0002 0C46     		mov	r4, r1
  24:../../source/src/kernel/OS_LIB/singly_linked_list.c **** 	if((NULL != copy_data) && (head != entity->next))
  38              		.loc 1 24 0
  39 0004 42B1     		cbz	r2, .L2
  40              		.loc 1 24 0 is_stmt 0 discriminator 1
  41 0006 0B68     		ldr	r3, [r1]
  42 0008 8342     		cmp	r3, r0
  43 000a 05D0     		beq	.L2
  25:../../source/src/kernel/OS_LIB/singly_linked_list.c **** 	{
  26:../../source/src/kernel/OS_LIB/singly_linked_list.c **** 		copy_data(entity->next,entity);
  44              		.loc 1 26 0 is_stmt 1
  45 000c 1846     		mov	r0, r3
  46              	.LVL1:
  47 000e 9047     		blx	r2
  48              	.LVL2:
  49              	.LBB10:
  50              	.LBB11:
  51              		.file 2 "../../source/include/os_lib/singly_linked_list.h"
   1:../../source/include/os_lib/singly_linked_list.h **** #ifndef _SINGLY_LINKED_LIST_H
   2:../../source/include/os_lib/singly_linked_list.h **** #define _SINGLY_LINKED_LIST_H
   3:../../source/include/os_lib/singly_linked_list.h **** 
   4:../../source/include/os_lib/singly_linked_list.h **** struct singly_list_head{
   5:../../source/include/os_lib/singly_linked_list.h **** 	struct singly_list_head *next;
   6:../../source/include/os_lib/singly_linked_list.h **** };
   7:../../source/include/os_lib/singly_linked_list.h **** 
   8:../../source/include/os_lib/singly_linked_list.h **** #define SINGLY_LIST_HEAD_INIT(name) { &(name) }
   9:../../source/include/os_lib/singly_linked_list.h **** 
  10:../../source/include/os_lib/singly_linked_list.h **** #define SINGLY_LIST_HEAD(name) \
  11:../../source/include/os_lib/singly_linked_list.h ****     struct singly_list_head name = SINGLY_LIST_HEAD_INIT(name)
  12:../../source/include/os_lib/singly_linked_list.h **** 
  13:../../source/include/os_lib/singly_linked_list.h **** static inline void INIT_SINGLY_LIST_HEAD(struct singly_list_head *list)
  14:../../source/include/os_lib/singly_linked_list.h **** {
  15:../../source/include/os_lib/singly_linked_list.h **** 	list->next = list;
  16:../../source/include/os_lib/singly_linked_list.h **** }
  17:../../source/include/os_lib/singly_linked_list.h **** 
  18:../../source/include/os_lib/singly_linked_list.h **** static inline void singly_list_add(struct singly_list_head *new,struct singly_list_head *head)
  19:../../source/include/os_lib/singly_linked_list.h **** {
  20:../../source/include/os_lib/singly_linked_list.h **** 	new->next = head->next;
  21:../../source/include/os_lib/singly_linked_list.h **** 	head->next = new;
  22:../../source/include/os_lib/singly_linked_list.h **** }
  23:../../source/include/os_lib/singly_linked_list.h **** 
  24:../../source/include/os_lib/singly_linked_list.h **** static inline void _singly_list_del_next(struct singly_list_head *pre)
  25:../../source/include/os_lib/singly_linked_list.h **** {
  26:../../source/include/os_lib/singly_linked_list.h **** 	pre->next = pre->next->next;
  52              		.loc 2 26 0
  53 0010 2368     		ldr	r3, [r4]
  54 0012 1B68     		ldr	r3, [r3]
  55 0014 2360     		str	r3, [r4]
  56              	.LVL3:
  57              	.L1:
  58              	.LBE11:
  59              	.LBE10:
  27:../../source/src/kernel/OS_LIB/singly_linked_list.c **** 		_singly_list_del_next(entity);
  28:../../source/src/kernel/OS_LIB/singly_linked_list.c **** 	}
  29:../../source/src/kernel/OS_LIB/singly_linked_list.c **** 	else
ARM GAS  G:\Users\Jaxb\AppData\Local\Temp\ccMrDx9T.s 			page 3


  30:../../source/src/kernel/OS_LIB/singly_linked_list.c **** 	{
  31:../../source/src/kernel/OS_LIB/singly_linked_list.c **** 		_singly_list_del(head,entity);
  32:../../source/src/kernel/OS_LIB/singly_linked_list.c **** 	}
  33:../../source/src/kernel/OS_LIB/singly_linked_list.c **** }
  60              		.loc 1 33 0
  61 0016 10BD     		pop	{r4, pc}
  62              	.LVL4:
  63              	.L2:
  64              	.LBB12:
  65              	.LBB13:
   9:../../source/src/kernel/OS_LIB/singly_linked_list.c **** 	{
  66              		.loc 1 9 0
  67 0018 0268     		ldr	r2, [r0]
  68              	.LVL5:
  69 001a 9042     		cmp	r0, r2
  70 001c FBD0     		beq	.L1
  11:../../source/src/kernel/OS_LIB/singly_linked_list.c **** 		{
  71              		.loc 1 11 0
  72 001e 9442     		cmp	r4, r2
  73 0020 03D1     		bne	.L5
  74 0022 06E0     		b	.L13
  75              	.LVL6:
  76              	.L6:
  77 0024 9C42     		cmp	r4, r3
  78 0026 05D0     		beq	.L4
  79 0028 1A46     		mov	r2, r3
  80              	.LVL7:
  81              	.L5:
   9:../../source/src/kernel/OS_LIB/singly_linked_list.c **** 	{
  82              		.loc 1 9 0
  83 002a 1368     		ldr	r3, [r2]
  84              	.LVL8:
  85 002c 9842     		cmp	r0, r3
  86 002e F9D1     		bne	.L6
  87 0030 F1E7     		b	.L1
  88              	.LVL9:
  89              	.L13:
  11:../../source/src/kernel/OS_LIB/singly_linked_list.c **** 		{
  90              		.loc 1 11 0
  91 0032 0246     		mov	r2, r0
  92              	.LVL10:
  93              	.L4:
  94              	.LBB14:
  95              	.LBB15:
  96              		.loc 2 26 0
  97 0034 2368     		ldr	r3, [r4]
  98 0036 1360     		str	r3, [r2]
  99              	.LBE15:
 100              	.LBE14:
 101              	.LBE13:
 102              	.LBE12:
 103              		.loc 1 33 0
 104 0038 10BD     		pop	{r4, pc}
 105              		.cfi_endproc
 106              	.LFE5:
 107              		.size	singly_list_del, .-singly_list_del
 108              	.Letext0:
ARM GAS  G:\Users\Jaxb\AppData\Local\Temp\ccMrDx9T.s 			page 4


 109 003a 00BF     		.section	.debug_info,"",%progbits
 110              	.Ldebug_info0:
 111 0000 B6010000 		.4byte	0x1b6
 112 0004 0200     		.2byte	0x2
 113 0006 00000000 		.4byte	.Ldebug_abbrev0
 114 000a 04       		.byte	0x4
 115 000b 01       		.uleb128 0x1
 116 000c 29010000 		.4byte	.LASF10
 117 0010 0C       		.byte	0xc
 118 0011 58000000 		.4byte	.LASF11
 119 0015 CB000000 		.4byte	.LASF12
 120 0019 00000000 		.4byte	.Ltext0
 121 001d 3A000000 		.4byte	.Letext0
 122 0021 00000000 		.4byte	.Ldebug_line0
 123 0025 02       		.uleb128 0x2
 124 0026 47000000 		.4byte	.LASF13
 125 002a 04       		.byte	0x4
 126 002b 02       		.byte	0x2
 127 002c 04       		.byte	0x4
 128 002d 40000000 		.4byte	0x40
 129 0031 03       		.uleb128 0x3
 130 0032 CF010000 		.4byte	.LASF14
 131 0036 02       		.byte	0x2
 132 0037 05       		.byte	0x5
 133 0038 45000000 		.4byte	0x45
 134 003c 02       		.byte	0x2
 135 003d 23       		.byte	0x23
 136 003e 00       		.uleb128 0
 137 003f 00       		.byte	0
 138 0040 04       		.uleb128 0x4
 139 0041 25000000 		.4byte	0x25
 140 0045 05       		.uleb128 0x5
 141 0046 04       		.byte	0x4
 142 0047 25000000 		.4byte	0x25
 143 004b 06       		.uleb128 0x6
 144 004c 01       		.byte	0x1
 145 004d 06       		.byte	0x6
 146 004e 13010000 		.4byte	.LASF0
 147 0052 06       		.uleb128 0x6
 148 0053 02       		.byte	0x2
 149 0054 05       		.byte	0x5
 150 0055 1F010000 		.4byte	.LASF1
 151 0059 07       		.uleb128 0x7
 152 005a 04       		.byte	0x4
 153 005b 05       		.byte	0x5
 154 005c 696E7400 		.ascii	"int\000"
 155 0060 06       		.uleb128 0x6
 156 0061 08       		.byte	0x8
 157 0062 05       		.byte	0x5
 158 0063 00000000 		.4byte	.LASF2
 159 0067 06       		.uleb128 0x6
 160 0068 01       		.byte	0x1
 161 0069 08       		.byte	0x8
 162 006a A3000000 		.4byte	.LASF3
 163 006e 06       		.uleb128 0x6
 164 006f 02       		.byte	0x2
 165 0070 07       		.byte	0x7
ARM GAS  G:\Users\Jaxb\AppData\Local\Temp\ccMrDx9T.s 			page 5


 166 0071 00010000 		.4byte	.LASF4
 167 0075 06       		.uleb128 0x6
 168 0076 04       		.byte	0x4
 169 0077 07       		.byte	0x7
 170 0078 0E000000 		.4byte	.LASF5
 171 007c 06       		.uleb128 0x6
 172 007d 08       		.byte	0x8
 173 007e 07       		.byte	0x7
 174 007f 8C000000 		.4byte	.LASF6
 175 0083 08       		.uleb128 0x8
 176 0084 01       		.byte	0x1
 177 0085 BB000000 		.4byte	.LASF15
 178 0089 01       		.byte	0x1
 179 008a 13       		.byte	0x13
 180 008b 01       		.byte	0x1
 181 008c 00000000 		.4byte	.LFB5
 182 0090 3A000000 		.4byte	.LFE5
 183 0094 00000000 		.4byte	.LLST0
 184 0098 01       		.byte	0x1
 185 0099 4D010000 		.4byte	0x14d
 186 009d 09       		.uleb128 0x9
 187 009e 31000000 		.4byte	.LASF7
 188 00a2 01       		.byte	0x1
 189 00a3 14       		.byte	0x14
 190 00a4 45000000 		.4byte	0x45
 191 00a8 20000000 		.4byte	.LLST1
 192 00ac 09       		.uleb128 0x9
 193 00ad F9000000 		.4byte	.LASF8
 194 00b1 01       		.byte	0x1
 195 00b2 15       		.byte	0x15
 196 00b3 45000000 		.4byte	0x45
 197 00b7 4C000000 		.4byte	.LLST2
 198 00bb 09       		.uleb128 0x9
 199 00bc B1000000 		.4byte	.LASF9
 200 00c0 01       		.byte	0x1
 201 00c1 16       		.byte	0x16
 202 00c2 5E010000 		.4byte	0x15e
 203 00c6 75000000 		.4byte	.LLST3
 204 00ca 0A       		.uleb128 0xa
 205 00cb A4010000 		.4byte	0x1a4
 206 00cf 10000000 		.4byte	.LBB10
 207 00d3 16000000 		.4byte	.LBE10
 208 00d7 01       		.byte	0x1
 209 00d8 1B       		.byte	0x1b
 210 00d9 E7000000 		.4byte	0xe7
 211 00dd 0B       		.uleb128 0xb
 212 00de AD010000 		.4byte	0x1ad
 213 00e2 AF000000 		.4byte	.LLST4
 214 00e6 00       		.byte	0
 215 00e7 0A       		.uleb128 0xa
 216 00e8 64010000 		.4byte	0x164
 217 00ec 18000000 		.4byte	.LBB12
 218 00f0 38000000 		.4byte	.LBE12
 219 00f4 01       		.byte	0x1
 220 00f5 1F       		.byte	0x1f
 221 00f6 3C010000 		.4byte	0x13c
 222 00fa 0C       		.uleb128 0xc
ARM GAS  G:\Users\Jaxb\AppData\Local\Temp\ccMrDx9T.s 			page 6


 223 00fb 7C010000 		.4byte	0x17c
 224 00ff 01       		.byte	0x1
 225 0100 51       		.byte	0x51
 226 0101 0C       		.uleb128 0xc
 227 0102 71010000 		.4byte	0x171
 228 0106 01       		.byte	0x1
 229 0107 50       		.byte	0x50
 230 0108 0D       		.uleb128 0xd
 231 0109 18000000 		.4byte	.LBB13
 232 010d 38000000 		.4byte	.LBE13
 233 0111 0E       		.uleb128 0xe
 234 0112 87010000 		.4byte	0x187
 235 0116 C2000000 		.4byte	.LLST5
 236 011a 0E       		.uleb128 0xe
 237 011b 92010000 		.4byte	0x192
 238 011f 01010000 		.4byte	.LLST6
 239 0123 0F       		.uleb128 0xf
 240 0124 A4010000 		.4byte	0x1a4
 241 0128 34000000 		.4byte	.LBB14
 242 012c 38000000 		.4byte	.LBE14
 243 0130 01       		.byte	0x1
 244 0131 0D       		.byte	0xd
 245 0132 0C       		.uleb128 0xc
 246 0133 AD010000 		.4byte	0x1ad
 247 0137 01       		.byte	0x1
 248 0138 52       		.byte	0x52
 249 0139 00       		.byte	0
 250 013a 00       		.byte	0
 251 013b 00       		.byte	0
 252 013c 10       		.uleb128 0x10
 253 013d 10000000 		.4byte	.LVL2
 254 0141 03       		.byte	0x3
 255 0142 F3       		.byte	0xf3
 256 0143 01       		.uleb128 0x1
 257 0144 52       		.byte	0x52
 258 0145 11       		.uleb128 0x11
 259 0146 01       		.byte	0x1
 260 0147 51       		.byte	0x51
 261 0148 02       		.byte	0x2
 262 0149 74       		.byte	0x74
 263 014a 00       		.sleb128 0
 264 014b 00       		.byte	0
 265 014c 00       		.byte	0
 266 014d 12       		.uleb128 0x12
 267 014e 01       		.byte	0x1
 268 014f 5E010000 		.4byte	0x15e
 269 0153 13       		.uleb128 0x13
 270 0154 45000000 		.4byte	0x45
 271 0158 13       		.uleb128 0x13
 272 0159 45000000 		.4byte	0x45
 273 015d 00       		.byte	0
 274 015e 05       		.uleb128 0x5
 275 015f 04       		.byte	0x4
 276 0160 4D010000 		.4byte	0x14d
 277 0164 14       		.uleb128 0x14
 278 0165 36000000 		.4byte	.LASF16
 279 0169 01       		.byte	0x1
ARM GAS  G:\Users\Jaxb\AppData\Local\Temp\ccMrDx9T.s 			page 7


 280 016a 04       		.byte	0x4
 281 016b 01       		.byte	0x1
 282 016c 01       		.byte	0x1
 283 016d 9E010000 		.4byte	0x19e
 284 0171 15       		.uleb128 0x15
 285 0172 31000000 		.4byte	.LASF7
 286 0176 01       		.byte	0x1
 287 0177 05       		.byte	0x5
 288 0178 45000000 		.4byte	0x45
 289 017c 15       		.uleb128 0x15
 290 017d F9000000 		.4byte	.LASF8
 291 0181 01       		.byte	0x1
 292 0182 06       		.byte	0x6
 293 0183 9E010000 		.4byte	0x19e
 294 0187 16       		.uleb128 0x16
 295 0188 706F7300 		.ascii	"pos\000"
 296 018c 01       		.byte	0x1
 297 018d 08       		.byte	0x8
 298 018e 45000000 		.4byte	0x45
 299 0192 16       		.uleb128 0x16
 300 0193 70726500 		.ascii	"pre\000"
 301 0197 01       		.byte	0x1
 302 0198 08       		.byte	0x8
 303 0199 45000000 		.4byte	0x45
 304 019d 00       		.byte	0
 305 019e 05       		.uleb128 0x5
 306 019f 04       		.byte	0x4
 307 01a0 40000000 		.4byte	0x40
 308 01a4 17       		.uleb128 0x17
 309 01a5 1B000000 		.4byte	.LASF17
 310 01a9 02       		.byte	0x2
 311 01aa 18       		.byte	0x18
 312 01ab 01       		.byte	0x1
 313 01ac 03       		.byte	0x3
 314 01ad 18       		.uleb128 0x18
 315 01ae 70726500 		.ascii	"pre\000"
 316 01b2 02       		.byte	0x2
 317 01b3 18       		.byte	0x18
 318 01b4 45000000 		.4byte	0x45
 319 01b8 00       		.byte	0
 320 01b9 00       		.byte	0
 321              		.section	.debug_abbrev,"",%progbits
 322              	.Ldebug_abbrev0:
 323 0000 01       		.uleb128 0x1
 324 0001 11       		.uleb128 0x11
 325 0002 01       		.byte	0x1
 326 0003 25       		.uleb128 0x25
 327 0004 0E       		.uleb128 0xe
 328 0005 13       		.uleb128 0x13
 329 0006 0B       		.uleb128 0xb
 330 0007 03       		.uleb128 0x3
 331 0008 0E       		.uleb128 0xe
 332 0009 1B       		.uleb128 0x1b
 333 000a 0E       		.uleb128 0xe
 334 000b 11       		.uleb128 0x11
 335 000c 01       		.uleb128 0x1
 336 000d 12       		.uleb128 0x12
ARM GAS  G:\Users\Jaxb\AppData\Local\Temp\ccMrDx9T.s 			page 8


 337 000e 01       		.uleb128 0x1
 338 000f 10       		.uleb128 0x10
 339 0010 06       		.uleb128 0x6
 340 0011 00       		.byte	0
 341 0012 00       		.byte	0
 342 0013 02       		.uleb128 0x2
 343 0014 13       		.uleb128 0x13
 344 0015 01       		.byte	0x1
 345 0016 03       		.uleb128 0x3
 346 0017 0E       		.uleb128 0xe
 347 0018 0B       		.uleb128 0xb
 348 0019 0B       		.uleb128 0xb
 349 001a 3A       		.uleb128 0x3a
 350 001b 0B       		.uleb128 0xb
 351 001c 3B       		.uleb128 0x3b
 352 001d 0B       		.uleb128 0xb
 353 001e 01       		.uleb128 0x1
 354 001f 13       		.uleb128 0x13
 355 0020 00       		.byte	0
 356 0021 00       		.byte	0
 357 0022 03       		.uleb128 0x3
 358 0023 0D       		.uleb128 0xd
 359 0024 00       		.byte	0
 360 0025 03       		.uleb128 0x3
 361 0026 0E       		.uleb128 0xe
 362 0027 3A       		.uleb128 0x3a
 363 0028 0B       		.uleb128 0xb
 364 0029 3B       		.uleb128 0x3b
 365 002a 0B       		.uleb128 0xb
 366 002b 49       		.uleb128 0x49
 367 002c 13       		.uleb128 0x13
 368 002d 38       		.uleb128 0x38
 369 002e 0A       		.uleb128 0xa
 370 002f 00       		.byte	0
 371 0030 00       		.byte	0
 372 0031 04       		.uleb128 0x4
 373 0032 26       		.uleb128 0x26
 374 0033 00       		.byte	0
 375 0034 49       		.uleb128 0x49
 376 0035 13       		.uleb128 0x13
 377 0036 00       		.byte	0
 378 0037 00       		.byte	0
 379 0038 05       		.uleb128 0x5
 380 0039 0F       		.uleb128 0xf
 381 003a 00       		.byte	0
 382 003b 0B       		.uleb128 0xb
 383 003c 0B       		.uleb128 0xb
 384 003d 49       		.uleb128 0x49
 385 003e 13       		.uleb128 0x13
 386 003f 00       		.byte	0
 387 0040 00       		.byte	0
 388 0041 06       		.uleb128 0x6
 389 0042 24       		.uleb128 0x24
 390 0043 00       		.byte	0
 391 0044 0B       		.uleb128 0xb
 392 0045 0B       		.uleb128 0xb
 393 0046 3E       		.uleb128 0x3e
ARM GAS  G:\Users\Jaxb\AppData\Local\Temp\ccMrDx9T.s 			page 9


 394 0047 0B       		.uleb128 0xb
 395 0048 03       		.uleb128 0x3
 396 0049 0E       		.uleb128 0xe
 397 004a 00       		.byte	0
 398 004b 00       		.byte	0
 399 004c 07       		.uleb128 0x7
 400 004d 24       		.uleb128 0x24
 401 004e 00       		.byte	0
 402 004f 0B       		.uleb128 0xb
 403 0050 0B       		.uleb128 0xb
 404 0051 3E       		.uleb128 0x3e
 405 0052 0B       		.uleb128 0xb
 406 0053 03       		.uleb128 0x3
 407 0054 08       		.uleb128 0x8
 408 0055 00       		.byte	0
 409 0056 00       		.byte	0
 410 0057 08       		.uleb128 0x8
 411 0058 2E       		.uleb128 0x2e
 412 0059 01       		.byte	0x1
 413 005a 3F       		.uleb128 0x3f
 414 005b 0C       		.uleb128 0xc
 415 005c 03       		.uleb128 0x3
 416 005d 0E       		.uleb128 0xe
 417 005e 3A       		.uleb128 0x3a
 418 005f 0B       		.uleb128 0xb
 419 0060 3B       		.uleb128 0x3b
 420 0061 0B       		.uleb128 0xb
 421 0062 27       		.uleb128 0x27
 422 0063 0C       		.uleb128 0xc
 423 0064 11       		.uleb128 0x11
 424 0065 01       		.uleb128 0x1
 425 0066 12       		.uleb128 0x12
 426 0067 01       		.uleb128 0x1
 427 0068 40       		.uleb128 0x40
 428 0069 06       		.uleb128 0x6
 429 006a 9742     		.uleb128 0x2117
 430 006c 0C       		.uleb128 0xc
 431 006d 01       		.uleb128 0x1
 432 006e 13       		.uleb128 0x13
 433 006f 00       		.byte	0
 434 0070 00       		.byte	0
 435 0071 09       		.uleb128 0x9
 436 0072 05       		.uleb128 0x5
 437 0073 00       		.byte	0
 438 0074 03       		.uleb128 0x3
 439 0075 0E       		.uleb128 0xe
 440 0076 3A       		.uleb128 0x3a
 441 0077 0B       		.uleb128 0xb
 442 0078 3B       		.uleb128 0x3b
 443 0079 0B       		.uleb128 0xb
 444 007a 49       		.uleb128 0x49
 445 007b 13       		.uleb128 0x13
 446 007c 02       		.uleb128 0x2
 447 007d 06       		.uleb128 0x6
 448 007e 00       		.byte	0
 449 007f 00       		.byte	0
 450 0080 0A       		.uleb128 0xa
ARM GAS  G:\Users\Jaxb\AppData\Local\Temp\ccMrDx9T.s 			page 10


 451 0081 1D       		.uleb128 0x1d
 452 0082 01       		.byte	0x1
 453 0083 31       		.uleb128 0x31
 454 0084 13       		.uleb128 0x13
 455 0085 11       		.uleb128 0x11
 456 0086 01       		.uleb128 0x1
 457 0087 12       		.uleb128 0x12
 458 0088 01       		.uleb128 0x1
 459 0089 58       		.uleb128 0x58
 460 008a 0B       		.uleb128 0xb
 461 008b 59       		.uleb128 0x59
 462 008c 0B       		.uleb128 0xb
 463 008d 01       		.uleb128 0x1
 464 008e 13       		.uleb128 0x13
 465 008f 00       		.byte	0
 466 0090 00       		.byte	0
 467 0091 0B       		.uleb128 0xb
 468 0092 05       		.uleb128 0x5
 469 0093 00       		.byte	0
 470 0094 31       		.uleb128 0x31
 471 0095 13       		.uleb128 0x13
 472 0096 02       		.uleb128 0x2
 473 0097 06       		.uleb128 0x6
 474 0098 00       		.byte	0
 475 0099 00       		.byte	0
 476 009a 0C       		.uleb128 0xc
 477 009b 05       		.uleb128 0x5
 478 009c 00       		.byte	0
 479 009d 31       		.uleb128 0x31
 480 009e 13       		.uleb128 0x13
 481 009f 02       		.uleb128 0x2
 482 00a0 0A       		.uleb128 0xa
 483 00a1 00       		.byte	0
 484 00a2 00       		.byte	0
 485 00a3 0D       		.uleb128 0xd
 486 00a4 0B       		.uleb128 0xb
 487 00a5 01       		.byte	0x1
 488 00a6 11       		.uleb128 0x11
 489 00a7 01       		.uleb128 0x1
 490 00a8 12       		.uleb128 0x12
 491 00a9 01       		.uleb128 0x1
 492 00aa 00       		.byte	0
 493 00ab 00       		.byte	0
 494 00ac 0E       		.uleb128 0xe
 495 00ad 34       		.uleb128 0x34
 496 00ae 00       		.byte	0
 497 00af 31       		.uleb128 0x31
 498 00b0 13       		.uleb128 0x13
 499 00b1 02       		.uleb128 0x2
 500 00b2 06       		.uleb128 0x6
 501 00b3 00       		.byte	0
 502 00b4 00       		.byte	0
 503 00b5 0F       		.uleb128 0xf
 504 00b6 1D       		.uleb128 0x1d
 505 00b7 01       		.byte	0x1
 506 00b8 31       		.uleb128 0x31
 507 00b9 13       		.uleb128 0x13
ARM GAS  G:\Users\Jaxb\AppData\Local\Temp\ccMrDx9T.s 			page 11


 508 00ba 11       		.uleb128 0x11
 509 00bb 01       		.uleb128 0x1
 510 00bc 12       		.uleb128 0x12
 511 00bd 01       		.uleb128 0x1
 512 00be 58       		.uleb128 0x58
 513 00bf 0B       		.uleb128 0xb
 514 00c0 59       		.uleb128 0x59
 515 00c1 0B       		.uleb128 0xb
 516 00c2 00       		.byte	0
 517 00c3 00       		.byte	0
 518 00c4 10       		.uleb128 0x10
 519 00c5 898201   		.uleb128 0x4109
 520 00c8 01       		.byte	0x1
 521 00c9 11       		.uleb128 0x11
 522 00ca 01       		.uleb128 0x1
 523 00cb 9342     		.uleb128 0x2113
 524 00cd 0A       		.uleb128 0xa
 525 00ce 00       		.byte	0
 526 00cf 00       		.byte	0
 527 00d0 11       		.uleb128 0x11
 528 00d1 8A8201   		.uleb128 0x410a
 529 00d4 00       		.byte	0
 530 00d5 02       		.uleb128 0x2
 531 00d6 0A       		.uleb128 0xa
 532 00d7 9142     		.uleb128 0x2111
 533 00d9 0A       		.uleb128 0xa
 534 00da 00       		.byte	0
 535 00db 00       		.byte	0
 536 00dc 12       		.uleb128 0x12
 537 00dd 15       		.uleb128 0x15
 538 00de 01       		.byte	0x1
 539 00df 27       		.uleb128 0x27
 540 00e0 0C       		.uleb128 0xc
 541 00e1 01       		.uleb128 0x1
 542 00e2 13       		.uleb128 0x13
 543 00e3 00       		.byte	0
 544 00e4 00       		.byte	0
 545 00e5 13       		.uleb128 0x13
 546 00e6 05       		.uleb128 0x5
 547 00e7 00       		.byte	0
 548 00e8 49       		.uleb128 0x49
 549 00e9 13       		.uleb128 0x13
 550 00ea 00       		.byte	0
 551 00eb 00       		.byte	0
 552 00ec 14       		.uleb128 0x14
 553 00ed 2E       		.uleb128 0x2e
 554 00ee 01       		.byte	0x1
 555 00ef 03       		.uleb128 0x3
 556 00f0 0E       		.uleb128 0xe
 557 00f1 3A       		.uleb128 0x3a
 558 00f2 0B       		.uleb128 0xb
 559 00f3 3B       		.uleb128 0x3b
 560 00f4 0B       		.uleb128 0xb
 561 00f5 27       		.uleb128 0x27
 562 00f6 0C       		.uleb128 0xc
 563 00f7 20       		.uleb128 0x20
 564 00f8 0B       		.uleb128 0xb
ARM GAS  G:\Users\Jaxb\AppData\Local\Temp\ccMrDx9T.s 			page 12


 565 00f9 01       		.uleb128 0x1
 566 00fa 13       		.uleb128 0x13
 567 00fb 00       		.byte	0
 568 00fc 00       		.byte	0
 569 00fd 15       		.uleb128 0x15
 570 00fe 05       		.uleb128 0x5
 571 00ff 00       		.byte	0
 572 0100 03       		.uleb128 0x3
 573 0101 0E       		.uleb128 0xe
 574 0102 3A       		.uleb128 0x3a
 575 0103 0B       		.uleb128 0xb
 576 0104 3B       		.uleb128 0x3b
 577 0105 0B       		.uleb128 0xb
 578 0106 49       		.uleb128 0x49
 579 0107 13       		.uleb128 0x13
 580 0108 00       		.byte	0
 581 0109 00       		.byte	0
 582 010a 16       		.uleb128 0x16
 583 010b 34       		.uleb128 0x34
 584 010c 00       		.byte	0
 585 010d 03       		.uleb128 0x3
 586 010e 08       		.uleb128 0x8
 587 010f 3A       		.uleb128 0x3a
 588 0110 0B       		.uleb128 0xb
 589 0111 3B       		.uleb128 0x3b
 590 0112 0B       		.uleb128 0xb
 591 0113 49       		.uleb128 0x49
 592 0114 13       		.uleb128 0x13
 593 0115 00       		.byte	0
 594 0116 00       		.byte	0
 595 0117 17       		.uleb128 0x17
 596 0118 2E       		.uleb128 0x2e
 597 0119 01       		.byte	0x1
 598 011a 03       		.uleb128 0x3
 599 011b 0E       		.uleb128 0xe
 600 011c 3A       		.uleb128 0x3a
 601 011d 0B       		.uleb128 0xb
 602 011e 3B       		.uleb128 0x3b
 603 011f 0B       		.uleb128 0xb
 604 0120 27       		.uleb128 0x27
 605 0121 0C       		.uleb128 0xc
 606 0122 20       		.uleb128 0x20
 607 0123 0B       		.uleb128 0xb
 608 0124 00       		.byte	0
 609 0125 00       		.byte	0
 610 0126 18       		.uleb128 0x18
 611 0127 05       		.uleb128 0x5
 612 0128 00       		.byte	0
 613 0129 03       		.uleb128 0x3
 614 012a 08       		.uleb128 0x8
 615 012b 3A       		.uleb128 0x3a
 616 012c 0B       		.uleb128 0xb
 617 012d 3B       		.uleb128 0x3b
 618 012e 0B       		.uleb128 0xb
 619 012f 49       		.uleb128 0x49
 620 0130 13       		.uleb128 0x13
 621 0131 00       		.byte	0
ARM GAS  G:\Users\Jaxb\AppData\Local\Temp\ccMrDx9T.s 			page 13


 622 0132 00       		.byte	0
 623 0133 00       		.byte	0
 624              		.section	.debug_loc,"",%progbits
 625              	.Ldebug_loc0:
 626              	.LLST0:
 627 0000 00000000 		.4byte	.LFB5-.Ltext0
 628 0004 02000000 		.4byte	.LCFI0-.Ltext0
 629 0008 0200     		.2byte	0x2
 630 000a 7D       		.byte	0x7d
 631 000b 00       		.sleb128 0
 632 000c 02000000 		.4byte	.LCFI0-.Ltext0
 633 0010 3A000000 		.4byte	.LFE5-.Ltext0
 634 0014 0200     		.2byte	0x2
 635 0016 7D       		.byte	0x7d
 636 0017 08       		.sleb128 8
 637 0018 00000000 		.4byte	0
 638 001c 00000000 		.4byte	0
 639              	.LLST1:
 640 0020 00000000 		.4byte	.LVL0-.Ltext0
 641 0024 0E000000 		.4byte	.LVL1-.Ltext0
 642 0028 0100     		.2byte	0x1
 643 002a 50       		.byte	0x50
 644 002b 0E000000 		.4byte	.LVL1-.Ltext0
 645 002f 18000000 		.4byte	.LVL4-.Ltext0
 646 0033 0400     		.2byte	0x4
 647 0035 F3       		.byte	0xf3
 648 0036 01       		.uleb128 0x1
 649 0037 50       		.byte	0x50
 650 0038 9F       		.byte	0x9f
 651 0039 18000000 		.4byte	.LVL4-.Ltext0
 652 003d 3A000000 		.4byte	.LFE5-.Ltext0
 653 0041 0100     		.2byte	0x1
 654 0043 50       		.byte	0x50
 655 0044 00000000 		.4byte	0
 656 0048 00000000 		.4byte	0
 657              	.LLST2:
 658 004c 00000000 		.4byte	.LVL0-.Ltext0
 659 0050 0F000000 		.4byte	.LVL2-1-.Ltext0
 660 0054 0100     		.2byte	0x1
 661 0056 51       		.byte	0x51
 662 0057 0F000000 		.4byte	.LVL2-1-.Ltext0
 663 005b 18000000 		.4byte	.LVL4-.Ltext0
 664 005f 0100     		.2byte	0x1
 665 0061 54       		.byte	0x54
 666 0062 18000000 		.4byte	.LVL4-.Ltext0
 667 0066 3A000000 		.4byte	.LFE5-.Ltext0
 668 006a 0100     		.2byte	0x1
 669 006c 51       		.byte	0x51
 670 006d 00000000 		.4byte	0
 671 0071 00000000 		.4byte	0
 672              	.LLST3:
 673 0075 00000000 		.4byte	.LVL0-.Ltext0
 674 0079 0F000000 		.4byte	.LVL2-1-.Ltext0
 675 007d 0100     		.2byte	0x1
 676 007f 52       		.byte	0x52
 677 0080 0F000000 		.4byte	.LVL2-1-.Ltext0
 678 0084 18000000 		.4byte	.LVL4-.Ltext0
ARM GAS  G:\Users\Jaxb\AppData\Local\Temp\ccMrDx9T.s 			page 14


 679 0088 0400     		.2byte	0x4
 680 008a F3       		.byte	0xf3
 681 008b 01       		.uleb128 0x1
 682 008c 52       		.byte	0x52
 683 008d 9F       		.byte	0x9f
 684 008e 18000000 		.4byte	.LVL4-.Ltext0
 685 0092 1A000000 		.4byte	.LVL5-.Ltext0
 686 0096 0100     		.2byte	0x1
 687 0098 52       		.byte	0x52
 688 0099 1A000000 		.4byte	.LVL5-.Ltext0
 689 009d 3A000000 		.4byte	.LFE5-.Ltext0
 690 00a1 0400     		.2byte	0x4
 691 00a3 F3       		.byte	0xf3
 692 00a4 01       		.uleb128 0x1
 693 00a5 52       		.byte	0x52
 694 00a6 9F       		.byte	0x9f
 695 00a7 00000000 		.4byte	0
 696 00ab 00000000 		.4byte	0
 697              	.LLST4:
 698 00af 10000000 		.4byte	.LVL2-.Ltext0
 699 00b3 16000000 		.4byte	.LVL3-.Ltext0
 700 00b7 0100     		.2byte	0x1
 701 00b9 54       		.byte	0x54
 702 00ba 00000000 		.4byte	0
 703 00be 00000000 		.4byte	0
 704              	.LLST5:
 705 00c2 1A000000 		.4byte	.LVL5-.Ltext0
 706 00c6 24000000 		.4byte	.LVL6-.Ltext0
 707 00ca 0100     		.2byte	0x1
 708 00cc 52       		.byte	0x52
 709 00cd 24000000 		.4byte	.LVL6-.Ltext0
 710 00d1 2A000000 		.4byte	.LVL7-.Ltext0
 711 00d5 0100     		.2byte	0x1
 712 00d7 53       		.byte	0x53
 713 00d8 2A000000 		.4byte	.LVL7-.Ltext0
 714 00dc 2C000000 		.4byte	.LVL8-.Ltext0
 715 00e0 0100     		.2byte	0x1
 716 00e2 52       		.byte	0x52
 717 00e3 2C000000 		.4byte	.LVL8-.Ltext0
 718 00e7 32000000 		.4byte	.LVL9-.Ltext0
 719 00eb 0100     		.2byte	0x1
 720 00ed 53       		.byte	0x53
 721 00ee 32000000 		.4byte	.LVL9-.Ltext0
 722 00f2 34000000 		.4byte	.LVL10-.Ltext0
 723 00f6 0100     		.2byte	0x1
 724 00f8 52       		.byte	0x52
 725 00f9 00000000 		.4byte	0
 726 00fd 00000000 		.4byte	0
 727              	.LLST6:
 728 0101 1A000000 		.4byte	.LVL5-.Ltext0
 729 0105 24000000 		.4byte	.LVL6-.Ltext0
 730 0109 0100     		.2byte	0x1
 731 010b 50       		.byte	0x50
 732 010c 24000000 		.4byte	.LVL6-.Ltext0
 733 0110 32000000 		.4byte	.LVL9-.Ltext0
 734 0114 0100     		.2byte	0x1
 735 0116 52       		.byte	0x52
ARM GAS  G:\Users\Jaxb\AppData\Local\Temp\ccMrDx9T.s 			page 15


 736 0117 32000000 		.4byte	.LVL9-.Ltext0
 737 011b 34000000 		.4byte	.LVL10-.Ltext0
 738 011f 0100     		.2byte	0x1
 739 0121 50       		.byte	0x50
 740 0122 00000000 		.4byte	0
 741 0126 00000000 		.4byte	0
 742              		.section	.debug_aranges,"",%progbits
 743 0000 1C000000 		.4byte	0x1c
 744 0004 0200     		.2byte	0x2
 745 0006 00000000 		.4byte	.Ldebug_info0
 746 000a 04       		.byte	0x4
 747 000b 00       		.byte	0
 748 000c 0000     		.2byte	0
 749 000e 0000     		.2byte	0
 750 0010 00000000 		.4byte	.Ltext0
 751 0014 3A000000 		.4byte	.Letext0-.Ltext0
 752 0018 00000000 		.4byte	0
 753 001c 00000000 		.4byte	0
 754              		.section	.debug_line,"",%progbits
 755              	.Ldebug_line0:
 756 0000 B1000000 		.section	.debug_str,"MS",%progbits,1
 756      02007E00 
 756      00000201 
 756      FB0E0D00 
 756      01010101 
 757              	.LASF2:
 758 0000 6C6F6E67 		.ascii	"long long int\000"
 758      206C6F6E 
 758      6720696E 
 758      7400
 759              	.LASF5:
 760 000e 756E7369 		.ascii	"unsigned int\000"
 760      676E6564 
 760      20696E74 
 760      00
 761              	.LASF17:
 762 001b 5F73696E 		.ascii	"_singly_list_del_next\000"
 762      676C795F 
 762      6C697374 
 762      5F64656C 
 762      5F6E6578 
 763              	.LASF7:
 764 0031 68656164 		.ascii	"head\000"
 764      00
 765              	.LASF16:
 766 0036 5F73696E 		.ascii	"_singly_list_del\000"
 766      676C795F 
 766      6C697374 
 766      5F64656C 
 766      00
 767              	.LASF13:
 768 0047 73696E67 		.ascii	"singly_list_head\000"
 768      6C795F6C 
 768      6973745F 
 768      68656164 
 768      00
 769              	.LASF11:
ARM GAS  G:\Users\Jaxb\AppData\Local\Temp\ccMrDx9T.s 			page 16


 770 0058 2E2E2F2E 		.ascii	"../../source/src/kernel/OS_LIB/singly_linked_list.c"
 770      2E2F736F 
 770      75726365 
 770      2F737263 
 770      2F6B6572 
 771 008b 00       		.ascii	"\000"
 772              	.LASF6:
 773 008c 6C6F6E67 		.ascii	"long long unsigned int\000"
 773      206C6F6E 
 773      6720756E 
 773      7369676E 
 773      65642069 
 774              	.LASF3:
 775 00a3 756E7369 		.ascii	"unsigned char\000"
 775      676E6564 
 775      20636861 
 775      7200
 776              	.LASF9:
 777 00b1 636F7079 		.ascii	"copy_data\000"
 777      5F646174 
 777      6100
 778              	.LASF15:
 779 00bb 73696E67 		.ascii	"singly_list_del\000"
 779      6C795F6C 
 779      6973745F 
 779      64656C00 
 780              	.LASF12:
 781 00cb 463A5C6B 		.ascii	"F:\\kaka\\KAKAOS\\C\\windows\\Project\\RVMDK\243\250"
 781      616B615C 
 781      4B414B41 
 781      4F535C43 
 781      5C77696E 
 782 00f3 757635A3 		.ascii	"uv5\243\251\000"
 782      A900
 783              	.LASF8:
 784 00f9 656E7469 		.ascii	"entity\000"
 784      747900
 785              	.LASF4:
 786 0100 73686F72 		.ascii	"short unsigned int\000"
 786      7420756E 
 786      7369676E 
 786      65642069 
 786      6E7400
 787              	.LASF0:
 788 0113 7369676E 		.ascii	"signed char\000"
 788      65642063 
 788      68617200 
 789              	.LASF1:
 790 011f 73686F72 		.ascii	"short int\000"
 790      7420696E 
 790      7400
 791              	.LASF10:
 792 0129 474E5520 		.ascii	"GNU C11 7.3.1 20180622 (release) [ARM/embedded-7-br"
 792      43313120 
 792      372E332E 
 792      31203230 
 792      31383036 
ARM GAS  G:\Users\Jaxb\AppData\Local\Temp\ccMrDx9T.s 			page 17


 793 015c 616E6368 		.ascii	"anch revision 261907] -mcpu=cortex-m3 -mthumb -mapc"
 793      20726576 
 793      6973696F 
 793      6E203236 
 793      31393037 
 794 018f 732D6672 		.ascii	"s-frame -mthumb-interwork -mcpu=cortex-m3 -mthumb -"
 794      616D6520 
 794      2D6D7468 
 794      756D622D 
 794      696E7465 
 795 01c2 67647761 		.ascii	"gdwarf-2 -O2\000"
 795      72662D32 
 795      202D4F32 
 795      00
 796              	.LASF14:
 797 01cf 6E657874 		.ascii	"next\000"
 797      00
 798              		.ident	"GCC: (GNU Tools for Arm Embedded Processors 7-2018-q2-update) 7.3.1 20180622 (release) [AR
ARM GAS  G:\Users\Jaxb\AppData\Local\Temp\ccMrDx9T.s 			page 18


DEFINED SYMBOLS
                            *ABS*:00000000 singly_linked_list.c
G:\Users\Jaxb\AppData\Local\Temp\ccMrDx9T.s:15     .text:00000000 $t
G:\Users\Jaxb\AppData\Local\Temp\ccMrDx9T.s:23     .text:00000000 singly_list_del

NO UNDEFINED SYMBOLS
