ARM GAS  G:\Users\Jaxb\AppData\Local\Temp\ccoQhVpk.s 			page 1


   1              		.cpu cortex-m3
   2              		.eabi_attribute 20, 1
   3              		.eabi_attribute 21, 1
   4              		.eabi_attribute 23, 3
   5              		.eabi_attribute 24, 1
   6              		.eabi_attribute 25, 1
   7              		.eabi_attribute 26, 1
   8              		.eabi_attribute 30, 6
   9              		.eabi_attribute 34, 1
  10              		.eabi_attribute 18, 4
  11              		.file	"slab.c"
  12              		.text
  13              	.Ltext0:
  14              		.cfi_sections	.debug_frame
  15              		.align	1
  16              		.syntax unified
  17              		.thumb
  18              		.thumb_func
  19              		.fpu softvfp
  20              		.type	INIT_LIST_HEAD, %function
  21              	INIT_LIST_HEAD:
  22              	.LFB0:
  23              		.file 1 "../../source/include/os_lib/double_linked_list.h"
   1:../../source/include/os_lib/double_linked_list.h **** #ifndef _DOUBLE_LINKED_LIST_H
   2:../../source/include/os_lib/double_linked_list.h **** #define _DOUBLE_LINKED_LIST_H
   3:../../source/include/os_lib/double_linked_list.h **** 
   4:../../source/include/os_lib/double_linked_list.h **** struct list_head {
   5:../../source/include/os_lib/double_linked_list.h ****     struct list_head *next, *prev;
   6:../../source/include/os_lib/double_linked_list.h **** };
   7:../../source/include/os_lib/double_linked_list.h **** 
   8:../../source/include/os_lib/double_linked_list.h **** 
   9:../../source/include/os_lib/double_linked_list.h **** #define LIST_HEAD_INIT(name) { &(name), &(name) }
  10:../../source/include/os_lib/double_linked_list.h **** 
  11:../../source/include/os_lib/double_linked_list.h **** 
  12:../../source/include/os_lib/double_linked_list.h **** #define LIST_HEAD(name) \
  13:../../source/include/os_lib/double_linked_list.h ****     struct list_head name = LIST_HEAD_INIT(name)
  14:../../source/include/os_lib/double_linked_list.h **** 
  15:../../source/include/os_lib/double_linked_list.h **** 
  16:../../source/include/os_lib/double_linked_list.h **** static inline void INIT_LIST_HEAD(struct list_head *list)
  17:../../source/include/os_lib/double_linked_list.h **** {
  24              		.loc 1 17 0
  25              		.cfi_startproc
  26              		@ args = 0, pretend = 0, frame = 8
  27              		@ frame_needed = 1, uses_anonymous_args = 0
  28              		@ link register save eliminated.
  29 0000 80B4     		push	{r7}
  30              	.LCFI0:
  31              		.cfi_def_cfa_offset 4
  32              		.cfi_offset 7, -4
  33 0002 83B0     		sub	sp, sp, #12
  34              	.LCFI1:
  35              		.cfi_def_cfa_offset 16
  36 0004 00AF     		add	r7, sp, #0
  37              	.LCFI2:
  38              		.cfi_def_cfa_register 7
  39 0006 7860     		str	r0, [r7, #4]
  18:../../source/include/os_lib/double_linked_list.h ****     list->next = list;
ARM GAS  G:\Users\Jaxb\AppData\Local\Temp\ccoQhVpk.s 			page 2


  40              		.loc 1 18 0
  41 0008 7B68     		ldr	r3, [r7, #4]
  42 000a 7A68     		ldr	r2, [r7, #4]
  43 000c 1A60     		str	r2, [r3]
  19:../../source/include/os_lib/double_linked_list.h ****     list->prev = list;
  44              		.loc 1 19 0
  45 000e 7B68     		ldr	r3, [r7, #4]
  46 0010 7A68     		ldr	r2, [r7, #4]
  47 0012 5A60     		str	r2, [r3, #4]
  20:../../source/include/os_lib/double_linked_list.h **** }
  48              		.loc 1 20 0
  49 0014 00BF     		nop
  50 0016 0C37     		adds	r7, r7, #12
  51              	.LCFI3:
  52              		.cfi_def_cfa_offset 4
  53 0018 BD46     		mov	sp, r7
  54              	.LCFI4:
  55              		.cfi_def_cfa_register 13
  56              		@ sp needed
  57 001a 80BC     		pop	{r7}
  58              	.LCFI5:
  59              		.cfi_restore 7
  60              		.cfi_def_cfa_offset 0
  61 001c 7047     		bx	lr
  62              		.cfi_endproc
  63              	.LFE0:
  64              		.size	INIT_LIST_HEAD, .-INIT_LIST_HEAD
  65              		.align	1
  66              		.syntax unified
  67              		.thumb
  68              		.thumb_func
  69              		.fpu softvfp
  70              		.type	__list_add, %function
  71              	__list_add:
  72              	.LFB1:
  21:../../source/include/os_lib/double_linked_list.h **** 
  22:../../source/include/os_lib/double_linked_list.h **** 
  23:../../source/include/os_lib/double_linked_list.h **** static inline void __list_add(struct list_head *new,
  24:../../source/include/os_lib/double_linked_list.h ****                   struct list_head *prev,
  25:../../source/include/os_lib/double_linked_list.h ****                   struct list_head *next)
  26:../../source/include/os_lib/double_linked_list.h **** {
  73              		.loc 1 26 0
  74              		.cfi_startproc
  75              		@ args = 0, pretend = 0, frame = 16
  76              		@ frame_needed = 1, uses_anonymous_args = 0
  77              		@ link register save eliminated.
  78 001e 80B4     		push	{r7}
  79              	.LCFI6:
  80              		.cfi_def_cfa_offset 4
  81              		.cfi_offset 7, -4
  82 0020 85B0     		sub	sp, sp, #20
  83              	.LCFI7:
  84              		.cfi_def_cfa_offset 24
  85 0022 00AF     		add	r7, sp, #0
  86              	.LCFI8:
  87              		.cfi_def_cfa_register 7
  88 0024 F860     		str	r0, [r7, #12]
ARM GAS  G:\Users\Jaxb\AppData\Local\Temp\ccoQhVpk.s 			page 3


  89 0026 B960     		str	r1, [r7, #8]
  90 0028 7A60     		str	r2, [r7, #4]
  27:../../source/include/os_lib/double_linked_list.h ****     next->prev = new;
  91              		.loc 1 27 0
  92 002a 7B68     		ldr	r3, [r7, #4]
  93 002c FA68     		ldr	r2, [r7, #12]
  94 002e 5A60     		str	r2, [r3, #4]
  28:../../source/include/os_lib/double_linked_list.h ****     new->next = next;
  95              		.loc 1 28 0
  96 0030 FB68     		ldr	r3, [r7, #12]
  97 0032 7A68     		ldr	r2, [r7, #4]
  98 0034 1A60     		str	r2, [r3]
  29:../../source/include/os_lib/double_linked_list.h ****     new->prev = prev;
  99              		.loc 1 29 0
 100 0036 FB68     		ldr	r3, [r7, #12]
 101 0038 BA68     		ldr	r2, [r7, #8]
 102 003a 5A60     		str	r2, [r3, #4]
  30:../../source/include/os_lib/double_linked_list.h ****     prev->next = new;
 103              		.loc 1 30 0
 104 003c BB68     		ldr	r3, [r7, #8]
 105 003e FA68     		ldr	r2, [r7, #12]
 106 0040 1A60     		str	r2, [r3]
  31:../../source/include/os_lib/double_linked_list.h **** }
 107              		.loc 1 31 0
 108 0042 00BF     		nop
 109 0044 1437     		adds	r7, r7, #20
 110              	.LCFI9:
 111              		.cfi_def_cfa_offset 4
 112 0046 BD46     		mov	sp, r7
 113              	.LCFI10:
 114              		.cfi_def_cfa_register 13
 115              		@ sp needed
 116 0048 80BC     		pop	{r7}
 117              	.LCFI11:
 118              		.cfi_restore 7
 119              		.cfi_def_cfa_offset 0
 120 004a 7047     		bx	lr
 121              		.cfi_endproc
 122              	.LFE1:
 123              		.size	__list_add, .-__list_add
 124              		.align	1
 125              		.syntax unified
 126              		.thumb
 127              		.thumb_func
 128              		.fpu softvfp
 129              		.type	list_add, %function
 130              	list_add:
 131              	.LFB2:
  32:../../source/include/os_lib/double_linked_list.h **** 
  33:../../source/include/os_lib/double_linked_list.h **** 
  34:../../source/include/os_lib/double_linked_list.h **** static inline void list_add(struct list_head *new, struct list_head *head)
  35:../../source/include/os_lib/double_linked_list.h **** {
 132              		.loc 1 35 0
 133              		.cfi_startproc
 134              		@ args = 0, pretend = 0, frame = 8
 135              		@ frame_needed = 1, uses_anonymous_args = 0
 136 004c 80B5     		push	{r7, lr}
ARM GAS  G:\Users\Jaxb\AppData\Local\Temp\ccoQhVpk.s 			page 4


 137              	.LCFI12:
 138              		.cfi_def_cfa_offset 8
 139              		.cfi_offset 7, -8
 140              		.cfi_offset 14, -4
 141 004e 82B0     		sub	sp, sp, #8
 142              	.LCFI13:
 143              		.cfi_def_cfa_offset 16
 144 0050 00AF     		add	r7, sp, #0
 145              	.LCFI14:
 146              		.cfi_def_cfa_register 7
 147 0052 7860     		str	r0, [r7, #4]
 148 0054 3960     		str	r1, [r7]
  36:../../source/include/os_lib/double_linked_list.h ****     __list_add(new, head, head->next);
 149              		.loc 1 36 0
 150 0056 3B68     		ldr	r3, [r7]
 151 0058 1B68     		ldr	r3, [r3]
 152 005a 1A46     		mov	r2, r3
 153 005c 3968     		ldr	r1, [r7]
 154 005e 7868     		ldr	r0, [r7, #4]
 155 0060 FFF7DDFF 		bl	__list_add
  37:../../source/include/os_lib/double_linked_list.h **** }
 156              		.loc 1 37 0
 157 0064 00BF     		nop
 158 0066 0837     		adds	r7, r7, #8
 159              	.LCFI15:
 160              		.cfi_def_cfa_offset 8
 161 0068 BD46     		mov	sp, r7
 162              	.LCFI16:
 163              		.cfi_def_cfa_register 13
 164              		@ sp needed
 165 006a 80BD     		pop	{r7, pc}
 166              		.cfi_endproc
 167              	.LFE2:
 168              		.size	list_add, .-list_add
 169              		.align	1
 170              		.global	insert_into_cache_chain
 171              		.syntax unified
 172              		.thumb
 173              		.thumb_func
 174              		.fpu softvfp
 175              		.type	insert_into_cache_chain, %function
 176              	insert_into_cache_chain:
 177              	.LFB10:
 178              		.file 2 "../../source/src/kernel/OS_LIB/slab.c"
   1:../../source/src/kernel/OS_LIB/slab.c **** #include <slab.h>
   2:../../source/src/kernel/OS_LIB/slab.c **** #include <myassert.h>
   3:../../source/src/kernel/OS_LIB/slab.c **** 
   4:../../source/src/kernel/OS_LIB/slab.c **** 
   5:../../source/src/kernel/OS_LIB/slab.c **** void insert_into_cache_chain(
   6:../../source/src/kernel/OS_LIB/slab.c **** 	struct list_head *head,
   7:../../source/src/kernel/OS_LIB/slab.c **** 	struct kmem_cache *kmem_cache_ptr,
   8:../../source/src/kernel/OS_LIB/slab.c **** 	int block_size//bytes
   9:../../source/src/kernel/OS_LIB/slab.c **** 	)
  10:../../source/src/kernel/OS_LIB/slab.c **** {
 179              		.loc 2 10 0
 180              		.cfi_startproc
 181              		@ args = 0, pretend = 0, frame = 16
ARM GAS  G:\Users\Jaxb\AppData\Local\Temp\ccoQhVpk.s 			page 5


 182              		@ frame_needed = 1, uses_anonymous_args = 0
 183 006c 80B5     		push	{r7, lr}
 184              	.LCFI17:
 185              		.cfi_def_cfa_offset 8
 186              		.cfi_offset 7, -8
 187              		.cfi_offset 14, -4
 188 006e 84B0     		sub	sp, sp, #16
 189              	.LCFI18:
 190              		.cfi_def_cfa_offset 24
 191 0070 00AF     		add	r7, sp, #0
 192              	.LCFI19:
 193              		.cfi_def_cfa_register 7
 194 0072 F860     		str	r0, [r7, #12]
 195 0074 B960     		str	r1, [r7, #8]
 196 0076 7A60     		str	r2, [r7, #4]
  11:../../source/src/kernel/OS_LIB/slab.c **** 	IL_init(&kmem_cache_ptr->kmem_cache_insert_chain,block_size);
 197              		.loc 2 11 0
 198 0078 BB68     		ldr	r3, [r7, #8]
 199 007a 7A68     		ldr	r2, [r7, #4]
 200 007c 1146     		mov	r1, r2
 201 007e 1846     		mov	r0, r3
 202 0080 FFF7FEFF 		bl	IL_init
  12:../../source/src/kernel/OS_LIB/slab.c **** 	insert_chain(head,&kmem_cache_ptr->kmem_cache_insert_chain);
 203              		.loc 2 12 0
 204 0084 BB68     		ldr	r3, [r7, #8]
 205 0086 1946     		mov	r1, r3
 206 0088 F868     		ldr	r0, [r7, #12]
 207 008a FFF7FEFF 		bl	insert_chain
  13:../../source/src/kernel/OS_LIB/slab.c **** 	INIT_LIST_HEAD(&kmem_cache_ptr->slabs_full);
 208              		.loc 2 13 0
 209 008e BB68     		ldr	r3, [r7, #8]
 210 0090 0C33     		adds	r3, r3, #12
 211 0092 1846     		mov	r0, r3
 212 0094 FFF7B4FF 		bl	INIT_LIST_HEAD
  14:../../source/src/kernel/OS_LIB/slab.c **** 	INIT_LIST_HEAD(&kmem_cache_ptr->slabs_partial);
 213              		.loc 2 14 0
 214 0098 BB68     		ldr	r3, [r7, #8]
 215 009a 1433     		adds	r3, r3, #20
 216 009c 1846     		mov	r0, r3
 217 009e FFF7AFFF 		bl	INIT_LIST_HEAD
  15:../../source/src/kernel/OS_LIB/slab.c **** 	INIT_LIST_HEAD(&kmem_cache_ptr->slabs_empty);
 218              		.loc 2 15 0
 219 00a2 BB68     		ldr	r3, [r7, #8]
 220 00a4 1C33     		adds	r3, r3, #28
 221 00a6 1846     		mov	r0, r3
 222 00a8 FFF7AAFF 		bl	INIT_LIST_HEAD
  16:../../source/src/kernel/OS_LIB/slab.c **** }
 223              		.loc 2 16 0
 224 00ac 00BF     		nop
 225 00ae 1037     		adds	r7, r7, #16
 226              	.LCFI20:
 227              		.cfi_def_cfa_offset 8
 228 00b0 BD46     		mov	sp, r7
 229              	.LCFI21:
 230              		.cfi_def_cfa_register 13
 231              		@ sp needed
 232 00b2 80BD     		pop	{r7, pc}
ARM GAS  G:\Users\Jaxb\AppData\Local\Temp\ccoQhVpk.s 			page 6


 233              		.cfi_endproc
 234              	.LFE10:
 235              		.size	insert_into_cache_chain, .-insert_into_cache_chain
 236              		.section	.rodata
 237              		.align	2
 238              	.LC0:
 239 0000 2E2E2F2E 		.ascii	"../../source/src/kernel/OS_LIB/slab.c\000"
 239      2E2F736F 
 239      75726365 
 239      2F737263 
 239      2F6B6572 
 240              		.text
 241              		.align	1
 242              		.global	load_slab
 243              		.syntax unified
 244              		.thumb
 245              		.thumb_func
 246              		.fpu softvfp
 247              		.type	load_slab, %function
 248              	load_slab:
 249              	.LFB11:
  17:../../source/src/kernel/OS_LIB/slab.c **** 
  18:../../source/src/kernel/OS_LIB/slab.c **** void load_slab(
  19:../../source/src/kernel/OS_LIB/slab.c **** //	struct slab *slab_ptr,
  20:../../source/src/kernel/OS_LIB/slab.c **** 	void *start_ptr,
  21:../../source/src/kernel/OS_LIB/slab.c **** 	void *end_ptr,
  22:../../source/src/kernel/OS_LIB/slab.c **** 	unsigned int   block_size,
  23:../../source/src/kernel/OS_LIB/slab.c **** 	struct list_head *slab_chain_ptr
  24:../../source/src/kernel/OS_LIB/slab.c **** 	)
  25:../../source/src/kernel/OS_LIB/slab.c **** {
 250              		.loc 2 25 0
 251              		.cfi_startproc
 252              		@ args = 0, pretend = 0, frame = 40
 253              		@ frame_needed = 1, uses_anonymous_args = 0
 254 00b4 80B5     		push	{r7, lr}
 255              	.LCFI22:
 256              		.cfi_def_cfa_offset 8
 257              		.cfi_offset 7, -8
 258              		.cfi_offset 14, -4
 259 00b6 8AB0     		sub	sp, sp, #40
 260              	.LCFI23:
 261              		.cfi_def_cfa_offset 48
 262 00b8 00AF     		add	r7, sp, #0
 263              	.LCFI24:
 264              		.cfi_def_cfa_register 7
 265 00ba F860     		str	r0, [r7, #12]
 266 00bc B960     		str	r1, [r7, #8]
 267 00be 7A60     		str	r2, [r7, #4]
 268 00c0 3B60     		str	r3, [r7]
  26:../../source/src/kernel/OS_LIB/slab.c **** #if CONFIG_ASSERT_DEBUG
  27:../../source/src/kernel/OS_LIB/slab.c **** 	int i = 0;
 269              		.loc 2 27 0
 270 00c2 0023     		movs	r3, #0
 271 00c4 7B62     		str	r3, [r7, #36]
  28:../../source/src/kernel/OS_LIB/slab.c **** #endif
  29:../../source/src/kernel/OS_LIB/slab.c **** 	struct list_head *list_head_ptr;
  30:../../source/src/kernel/OS_LIB/slab.c **** 	void *boundary_ptr;
ARM GAS  G:\Users\Jaxb\AppData\Local\Temp\ccoQhVpk.s 			page 7


  31:../../source/src/kernel/OS_LIB/slab.c **** 	struct slab *slab_ptr = (struct slab *)start_ptr;
 272              		.loc 2 31 0
 273 00c6 FB68     		ldr	r3, [r7, #12]
 274 00c8 FB61     		str	r3, [r7, #28]
  32:../../source/src/kernel/OS_LIB/slab.c **** 	list_add(&slab_ptr->slab_chain,slab_chain_ptr);
 275              		.loc 2 32 0
 276 00ca FB69     		ldr	r3, [r7, #28]
 277 00cc 1433     		adds	r3, r3, #20
 278 00ce 3968     		ldr	r1, [r7]
 279 00d0 1846     		mov	r0, r3
 280 00d2 FFF7BBFF 		bl	list_add
  33:../../source/src/kernel/OS_LIB/slab.c **** 	slab_ptr->start_ptr = start_ptr;
 281              		.loc 2 33 0
 282 00d6 FB69     		ldr	r3, [r7, #28]
 283 00d8 FA68     		ldr	r2, [r7, #12]
 284 00da 1A60     		str	r2, [r3]
  34:../../source/src/kernel/OS_LIB/slab.c **** 	slab_ptr->end_ptr   = end_ptr;
 285              		.loc 2 34 0
 286 00dc FB69     		ldr	r3, [r7, #28]
 287 00de BA68     		ldr	r2, [r7, #8]
 288 00e0 5A60     		str	r2, [r3, #4]
  35:../../source/src/kernel/OS_LIB/slab.c **** 	slab_ptr->block_size = block_size;
 289              		.loc 2 35 0
 290 00e2 FB69     		ldr	r3, [r7, #28]
 291 00e4 7A68     		ldr	r2, [r7, #4]
 292 00e6 1A61     		str	r2, [r3, #16]
  36:../../source/src/kernel/OS_LIB/slab.c **** 	unsigned int room_size = (unsigned int)((unsigned int)end_ptr - (unsigned int)start_ptr);
 293              		.loc 2 36 0
 294 00e8 BA68     		ldr	r2, [r7, #8]
 295 00ea FB68     		ldr	r3, [r7, #12]
 296 00ec D31A     		subs	r3, r2, r3
 297 00ee BB61     		str	r3, [r7, #24]
  37:../../source/src/kernel/OS_LIB/slab.c **** 	slab_ptr->full_block_num = (room_size - sizeof(struct slab)) / block_size;
 298              		.loc 2 37 0
 299 00f0 BB69     		ldr	r3, [r7, #24]
 300 00f2 A3F12402 		sub	r2, r3, #36
 301 00f6 7B68     		ldr	r3, [r7, #4]
 302 00f8 B2FBF3F2 		udiv	r2, r2, r3
 303 00fc FB69     		ldr	r3, [r7, #28]
 304 00fe DA60     		str	r2, [r3, #12]
  38:../../source/src/kernel/OS_LIB/slab.c **** 	slab_ptr->current_block_num = slab_ptr->full_block_num;
 305              		.loc 2 38 0
 306 0100 FB69     		ldr	r3, [r7, #28]
 307 0102 DA68     		ldr	r2, [r3, #12]
 308 0104 FB69     		ldr	r3, [r7, #28]
 309 0106 9A60     		str	r2, [r3, #8]
  39:../../source/src/kernel/OS_LIB/slab.c **** 	INIT_LIST_HEAD(&slab_ptr->block_head);
 310              		.loc 2 39 0
 311 0108 FB69     		ldr	r3, [r7, #28]
 312 010a 1C33     		adds	r3, r3, #28
 313 010c 1846     		mov	r0, r3
 314 010e FFF777FF 		bl	INIT_LIST_HEAD
  40:../../source/src/kernel/OS_LIB/slab.c **** 	list_head_ptr = (struct list_head *)((int)end_ptr - block_size);
 315              		.loc 2 40 0
 316 0112 BA68     		ldr	r2, [r7, #8]
 317 0114 7B68     		ldr	r3, [r7, #4]
 318 0116 D31A     		subs	r3, r2, r3
ARM GAS  G:\Users\Jaxb\AppData\Local\Temp\ccoQhVpk.s 			page 8


 319 0118 3B62     		str	r3, [r7, #32]
  41:../../source/src/kernel/OS_LIB/slab.c **** 	boundary_ptr = (void *)((unsigned int)start_ptr + sizeof(struct slab));
 320              		.loc 2 41 0
 321 011a FB68     		ldr	r3, [r7, #12]
 322 011c 2433     		adds	r3, r3, #36
 323 011e 7B61     		str	r3, [r7, #20]
  42:../../source/src/kernel/OS_LIB/slab.c **** 	while((unsigned int)list_head_ptr >= (unsigned int)boundary_ptr)
 324              		.loc 2 42 0
 325 0120 15E0     		b	.L6
 326              	.L7:
  43:../../source/src/kernel/OS_LIB/slab.c **** 	{
  44:../../source/src/kernel/OS_LIB/slab.c **** 		list_add(list_head_ptr,&slab_ptr->block_head);
 327              		.loc 2 44 0
 328 0122 FB69     		ldr	r3, [r7, #28]
 329 0124 1C33     		adds	r3, r3, #28
 330 0126 1946     		mov	r1, r3
 331 0128 386A     		ldr	r0, [r7, #32]
 332 012a FFF78FFF 		bl	list_add
  45:../../source/src/kernel/OS_LIB/slab.c **** 		list_head_ptr = (struct list_head *)((unsigned int)list_head_ptr - block_size);
 333              		.loc 2 45 0
 334 012e 3A6A     		ldr	r2, [r7, #32]
 335 0130 7B68     		ldr	r3, [r7, #4]
 336 0132 D31A     		subs	r3, r2, r3
 337 0134 3B62     		str	r3, [r7, #32]
  46:../../source/src/kernel/OS_LIB/slab.c **** 		ASSERT(++i <= slab_ptr->full_block_num);
 338              		.loc 2 46 0
 339 0136 7B6A     		ldr	r3, [r7, #36]
 340 0138 0133     		adds	r3, r3, #1
 341 013a 7B62     		str	r3, [r7, #36]
 342 013c 7A6A     		ldr	r2, [r7, #36]
 343 013e FB69     		ldr	r3, [r7, #28]
 344 0140 DB68     		ldr	r3, [r3, #12]
 345 0142 9A42     		cmp	r2, r3
 346 0144 03D9     		bls	.L6
 347              		.loc 2 46 0 is_stmt 0 discriminator 1
 348 0146 2E21     		movs	r1, #46
 349 0148 0548     		ldr	r0, .L8
 350 014a FFF7FEFF 		bl	_ASSERT
 351              	.L6:
  42:../../source/src/kernel/OS_LIB/slab.c **** 	{
 352              		.loc 2 42 0 is_stmt 1
 353 014e 3A6A     		ldr	r2, [r7, #32]
 354 0150 7B69     		ldr	r3, [r7, #20]
 355 0152 9A42     		cmp	r2, r3
 356 0154 E5D2     		bcs	.L7
  47:../../source/src/kernel/OS_LIB/slab.c **** 	}
  48:../../source/src/kernel/OS_LIB/slab.c **** }
 357              		.loc 2 48 0
 358 0156 00BF     		nop
 359 0158 2837     		adds	r7, r7, #40
 360              	.LCFI25:
 361              		.cfi_def_cfa_offset 8
 362 015a BD46     		mov	sp, r7
 363              	.LCFI26:
 364              		.cfi_def_cfa_register 13
 365              		@ sp needed
 366 015c 80BD     		pop	{r7, pc}
ARM GAS  G:\Users\Jaxb\AppData\Local\Temp\ccoQhVpk.s 			page 9


 367              	.L9:
 368 015e 00BF     		.align	2
 369              	.L8:
 370 0160 00000000 		.word	.LC0
 371              		.cfi_endproc
 372              	.LFE11:
 373              		.size	load_slab, .-load_slab
 374              	.Letext0:
 375              		.file 3 "../../source/include/os_cpu/kakaosstdint.h"
 376              		.file 4 "../../source/include/os_lib/insert_sort.h"
 377              		.file 5 "../../source/include/os_lib/slab.h"
 378              		.section	.debug_info,"",%progbits
 379              	.Ldebug_info0:
 380 0000 0E030000 		.4byte	0x30e
 381 0004 0200     		.2byte	0x2
 382 0006 00000000 		.4byte	.Ldebug_abbrev0
 383 000a 04       		.byte	0x4
 384 000b 01       		.uleb128 0x1
 385 000c CF010000 		.4byte	.LASF40
 386 0010 0C       		.byte	0xc
 387 0011 00000000 		.4byte	.LASF41
 388 0015 A3020000 		.4byte	.LASF42
 389 0019 00000000 		.4byte	.Ltext0
 390 001d 64010000 		.4byte	.Letext0
 391 0021 00000000 		.4byte	.Ldebug_line0
 392 0025 02       		.uleb128 0x2
 393 0026 01       		.byte	0x1
 394 0027 06       		.byte	0x6
 395 0028 92020000 		.4byte	.LASF0
 396 002c 02       		.uleb128 0x2
 397 002d 02       		.byte	0x2
 398 002e 05       		.byte	0x5
 399 002f 93010000 		.4byte	.LASF1
 400 0033 03       		.uleb128 0x3
 401 0034 04       		.byte	0x4
 402 0035 05       		.byte	0x5
 403 0036 696E7400 		.ascii	"int\000"
 404 003a 02       		.uleb128 0x2
 405 003b 08       		.byte	0x8
 406 003c 05       		.byte	0x5
 407 003d 73010000 		.4byte	.LASF2
 408 0041 02       		.uleb128 0x2
 409 0042 01       		.byte	0x1
 410 0043 08       		.byte	0x8
 411 0044 A8000000 		.4byte	.LASF3
 412 0048 02       		.uleb128 0x2
 413 0049 02       		.byte	0x2
 414 004a 07       		.byte	0x7
 415 004b E9000000 		.4byte	.LASF4
 416 004f 04       		.uleb128 0x4
 417 0050 81010000 		.4byte	.LASF9
 418 0054 03       		.byte	0x3
 419 0055 0C       		.byte	0xc
 420 0056 5A000000 		.4byte	0x5a
 421 005a 02       		.uleb128 0x2
 422 005b 04       		.byte	0x4
 423 005c 07       		.byte	0x7
ARM GAS  G:\Users\Jaxb\AppData\Local\Temp\ccoQhVpk.s 			page 10


 424 005d 2A010000 		.4byte	.LASF5
 425 0061 02       		.uleb128 0x2
 426 0062 08       		.byte	0x8
 427 0063 07       		.byte	0x7
 428 0064 37010000 		.4byte	.LASF6
 429 0068 05       		.uleb128 0x5
 430 0069 69010000 		.4byte	.LASF11
 431 006d 08       		.byte	0x8
 432 006e 01       		.byte	0x1
 433 006f 04       		.byte	0x4
 434 0070 91000000 		.4byte	0x91
 435 0074 06       		.uleb128 0x6
 436 0075 35000000 		.4byte	.LASF7
 437 0079 01       		.byte	0x1
 438 007a 05       		.byte	0x5
 439 007b 91000000 		.4byte	0x91
 440 007f 02       		.byte	0x2
 441 0080 23       		.byte	0x23
 442 0081 00       		.uleb128 0
 443 0082 06       		.uleb128 0x6
 444 0083 9E020000 		.4byte	.LASF8
 445 0087 01       		.byte	0x1
 446 0088 05       		.byte	0x5
 447 0089 91000000 		.4byte	0x91
 448 008d 02       		.byte	0x2
 449 008e 23       		.byte	0x23
 450 008f 04       		.uleb128 0x4
 451 0090 00       		.byte	0
 452 0091 07       		.uleb128 0x7
 453 0092 04       		.byte	0x4
 454 0093 68000000 		.4byte	0x68
 455 0097 04       		.uleb128 0x4
 456 0098 7A000000 		.4byte	.LASF10
 457 009c 04       		.byte	0x4
 458 009d 07       		.byte	0x7
 459 009e 4F000000 		.4byte	0x4f
 460 00a2 05       		.uleb128 0x5
 461 00a3 AC010000 		.4byte	.LASF12
 462 00a7 0C       		.byte	0xc
 463 00a8 04       		.byte	0x4
 464 00a9 09       		.byte	0x9
 465 00aa CB000000 		.4byte	0xcb
 466 00ae 06       		.uleb128 0x6
 467 00af 4E010000 		.4byte	.LASF13
 468 00b3 04       		.byte	0x4
 469 00b4 0A       		.byte	0xa
 470 00b5 68000000 		.4byte	0x68
 471 00b9 02       		.byte	0x2
 472 00ba 23       		.byte	0x23
 473 00bb 00       		.uleb128 0
 474 00bc 06       		.uleb128 0x6
 475 00bd 26000000 		.4byte	.LASF14
 476 00c1 04       		.byte	0x4
 477 00c2 0B       		.byte	0xb
 478 00c3 97000000 		.4byte	0x97
 479 00c7 02       		.byte	0x2
 480 00c8 23       		.byte	0x23
ARM GAS  G:\Users\Jaxb\AppData\Local\Temp\ccoQhVpk.s 			page 11


 481 00c9 08       		.uleb128 0x8
 482 00ca 00       		.byte	0
 483 00cb 08       		.uleb128 0x8
 484 00cc 494C00   		.ascii	"IL\000"
 485 00cf 04       		.byte	0x4
 486 00d0 0C       		.byte	0xc
 487 00d1 A2000000 		.4byte	0xa2
 488 00d5 05       		.uleb128 0x5
 489 00d6 64000000 		.4byte	.LASF15
 490 00da 24       		.byte	0x24
 491 00db 05       		.byte	0x5
 492 00dc 06       		.byte	0x6
 493 00dd 1A010000 		.4byte	0x11a
 494 00e1 06       		.uleb128 0x6
 495 00e2 B6000000 		.4byte	.LASF16
 496 00e6 05       		.byte	0x5
 497 00e7 08       		.byte	0x8
 498 00e8 CB000000 		.4byte	0xcb
 499 00ec 02       		.byte	0x2
 500 00ed 23       		.byte	0x23
 501 00ee 00       		.uleb128 0
 502 00ef 06       		.uleb128 0x6
 503 00f0 6F000000 		.4byte	.LASF17
 504 00f4 05       		.byte	0x5
 505 00f5 09       		.byte	0x9
 506 00f6 68000000 		.4byte	0x68
 507 00fa 02       		.byte	0x2
 508 00fb 23       		.byte	0x23
 509 00fc 0C       		.uleb128 0xc
 510 00fd 06       		.uleb128 0x6
 511 00fe 84020000 		.4byte	.LASF18
 512 0102 05       		.byte	0x5
 513 0103 0A       		.byte	0xa
 514 0104 68000000 		.4byte	0x68
 515 0108 02       		.byte	0x2
 516 0109 23       		.byte	0x23
 517 010a 14       		.uleb128 0x14
 518 010b 06       		.uleb128 0x6
 519 010c C3010000 		.4byte	.LASF19
 520 0110 05       		.byte	0x5
 521 0111 0B       		.byte	0xb
 522 0112 68000000 		.4byte	0x68
 523 0116 02       		.byte	0x2
 524 0117 23       		.byte	0x23
 525 0118 1C       		.uleb128 0x1c
 526 0119 00       		.byte	0
 527 011a 05       		.uleb128 0x5
 528 011b 5F000000 		.4byte	.LASF20
 529 011f 24       		.byte	0x24
 530 0120 05       		.byte	0x5
 531 0121 12       		.byte	0x12
 532 0122 89010000 		.4byte	0x189
 533 0126 06       		.uleb128 0x6
 534 0127 1B010000 		.4byte	.LASF21
 535 012b 05       		.byte	0x5
 536 012c 14       		.byte	0x14
 537 012d 89010000 		.4byte	0x189
ARM GAS  G:\Users\Jaxb\AppData\Local\Temp\ccoQhVpk.s 			page 12


 538 0131 02       		.byte	0x2
 539 0132 23       		.byte	0x23
 540 0133 00       		.uleb128 0
 541 0134 06       		.uleb128 0x6
 542 0135 A0000000 		.4byte	.LASF22
 543 0139 05       		.byte	0x5
 544 013a 15       		.byte	0x15
 545 013b 89010000 		.4byte	0x189
 546 013f 02       		.byte	0x2
 547 0140 23       		.byte	0x23
 548 0141 04       		.uleb128 0x4
 549 0142 06       		.uleb128 0x6
 550 0143 CE000000 		.4byte	.LASF23
 551 0147 05       		.byte	0x5
 552 0148 16       		.byte	0x16
 553 0149 5A000000 		.4byte	0x5a
 554 014d 02       		.byte	0x2
 555 014e 23       		.byte	0x23
 556 014f 08       		.uleb128 0x8
 557 0150 06       		.uleb128 0x6
 558 0151 75020000 		.4byte	.LASF24
 559 0155 05       		.byte	0x5
 560 0156 17       		.byte	0x17
 561 0157 5A000000 		.4byte	0x5a
 562 015b 02       		.byte	0x2
 563 015c 23       		.byte	0x23
 564 015d 0C       		.uleb128 0xc
 565 015e 06       		.uleb128 0x6
 566 015f FC000000 		.4byte	.LASF25
 567 0163 05       		.byte	0x5
 568 0164 18       		.byte	0x18
 569 0165 5A000000 		.4byte	0x5a
 570 0169 02       		.byte	0x2
 571 016a 23       		.byte	0x23
 572 016b 10       		.uleb128 0x10
 573 016c 06       		.uleb128 0x6
 574 016d 88010000 		.4byte	.LASF26
 575 0171 05       		.byte	0x5
 576 0172 19       		.byte	0x19
 577 0173 68000000 		.4byte	0x68
 578 0177 02       		.byte	0x2
 579 0178 23       		.byte	0x23
 580 0179 14       		.uleb128 0x14
 581 017a 06       		.uleb128 0x6
 582 017b 10010000 		.4byte	.LASF27
 583 017f 05       		.byte	0x5
 584 0180 1A       		.byte	0x1a
 585 0181 68000000 		.4byte	0x68
 586 0185 02       		.byte	0x2
 587 0186 23       		.byte	0x23
 588 0187 1C       		.uleb128 0x1c
 589 0188 00       		.byte	0
 590 0189 09       		.uleb128 0x9
 591 018a 04       		.byte	0x4
 592 018b 0A       		.uleb128 0xa
 593 018c 01       		.byte	0x1
 594 018d 2B000000 		.4byte	.LASF33
ARM GAS  G:\Users\Jaxb\AppData\Local\Temp\ccoQhVpk.s 			page 13


 595 0191 02       		.byte	0x2
 596 0192 12       		.byte	0x12
 597 0193 01       		.byte	0x1
 598 0194 B4000000 		.4byte	.LFB11
 599 0198 64010000 		.4byte	.LFE11
 600 019c 00000000 		.4byte	.LLST4
 601 01a0 01       		.byte	0x1
 602 01a1 22020000 		.4byte	0x222
 603 01a5 0B       		.uleb128 0xb
 604 01a6 1B010000 		.4byte	.LASF21
 605 01aa 02       		.byte	0x2
 606 01ab 14       		.byte	0x14
 607 01ac 89010000 		.4byte	0x189
 608 01b0 02       		.byte	0x2
 609 01b1 91       		.byte	0x91
 610 01b2 5C       		.sleb128 -36
 611 01b3 0B       		.uleb128 0xb
 612 01b4 A0000000 		.4byte	.LASF22
 613 01b8 02       		.byte	0x2
 614 01b9 15       		.byte	0x15
 615 01ba 89010000 		.4byte	0x189
 616 01be 02       		.byte	0x2
 617 01bf 91       		.byte	0x91
 618 01c0 58       		.sleb128 -40
 619 01c1 0B       		.uleb128 0xb
 620 01c2 FC000000 		.4byte	.LASF25
 621 01c6 02       		.byte	0x2
 622 01c7 16       		.byte	0x16
 623 01c8 5A000000 		.4byte	0x5a
 624 01cc 02       		.byte	0x2
 625 01cd 91       		.byte	0x91
 626 01ce 54       		.sleb128 -44
 627 01cf 0B       		.uleb128 0xb
 628 01d0 9D010000 		.4byte	.LASF28
 629 01d4 02       		.byte	0x2
 630 01d5 17       		.byte	0x17
 631 01d6 91000000 		.4byte	0x91
 632 01da 02       		.byte	0x2
 633 01db 91       		.byte	0x91
 634 01dc 50       		.sleb128 -48
 635 01dd 0C       		.uleb128 0xc
 636 01de 6900     		.ascii	"i\000"
 637 01e0 02       		.byte	0x2
 638 01e1 1B       		.byte	0x1b
 639 01e2 33000000 		.4byte	0x33
 640 01e6 02       		.byte	0x2
 641 01e7 91       		.byte	0x91
 642 01e8 74       		.sleb128 -12
 643 01e9 0D       		.uleb128 0xd
 644 01ea D1020000 		.4byte	.LASF29
 645 01ee 02       		.byte	0x2
 646 01ef 1D       		.byte	0x1d
 647 01f0 91000000 		.4byte	0x91
 648 01f4 02       		.byte	0x2
 649 01f5 91       		.byte	0x91
 650 01f6 70       		.sleb128 -16
 651 01f7 0D       		.uleb128 0xd
ARM GAS  G:\Users\Jaxb\AppData\Local\Temp\ccoQhVpk.s 			page 14


 652 01f8 52000000 		.4byte	.LASF30
 653 01fc 02       		.byte	0x2
 654 01fd 1E       		.byte	0x1e
 655 01fe 89010000 		.4byte	0x189
 656 0202 02       		.byte	0x2
 657 0203 91       		.byte	0x91
 658 0204 64       		.sleb128 -28
 659 0205 0D       		.uleb128 0xd
 660 0206 07010000 		.4byte	.LASF31
 661 020a 02       		.byte	0x2
 662 020b 1F       		.byte	0x1f
 663 020c 22020000 		.4byte	0x222
 664 0210 02       		.byte	0x2
 665 0211 91       		.byte	0x91
 666 0212 6C       		.sleb128 -20
 667 0213 0D       		.uleb128 0xd
 668 0214 96000000 		.4byte	.LASF32
 669 0218 02       		.byte	0x2
 670 0219 24       		.byte	0x24
 671 021a 5A000000 		.4byte	0x5a
 672 021e 02       		.byte	0x2
 673 021f 91       		.byte	0x91
 674 0220 68       		.sleb128 -24
 675 0221 00       		.byte	0
 676 0222 07       		.uleb128 0x7
 677 0223 04       		.byte	0x4
 678 0224 1A010000 		.4byte	0x11a
 679 0228 0A       		.uleb128 0xa
 680 0229 01       		.byte	0x1
 681 022a 3A000000 		.4byte	.LASF34
 682 022e 02       		.byte	0x2
 683 022f 05       		.byte	0x5
 684 0230 01       		.byte	0x1
 685 0231 6C000000 		.4byte	.LFB10
 686 0235 B4000000 		.4byte	.LFE10
 687 0239 50000000 		.4byte	.LLST3
 688 023d 01       		.byte	0x1
 689 023e 6D020000 		.4byte	0x26d
 690 0242 0B       		.uleb128 0xb
 691 0243 25010000 		.4byte	.LASF35
 692 0247 02       		.byte	0x2
 693 0248 06       		.byte	0x6
 694 0249 91000000 		.4byte	0x91
 695 024d 02       		.byte	0x2
 696 024e 91       		.byte	0x91
 697 024f 74       		.sleb128 -12
 698 0250 0B       		.uleb128 0xb
 699 0251 55010000 		.4byte	.LASF36
 700 0255 02       		.byte	0x2
 701 0256 07       		.byte	0x7
 702 0257 6D020000 		.4byte	0x26d
 703 025b 02       		.byte	0x2
 704 025c 91       		.byte	0x91
 705 025d 70       		.sleb128 -16
 706 025e 0B       		.uleb128 0xb
 707 025f FC000000 		.4byte	.LASF25
 708 0263 02       		.byte	0x2
ARM GAS  G:\Users\Jaxb\AppData\Local\Temp\ccoQhVpk.s 			page 15


 709 0264 08       		.byte	0x8
 710 0265 33000000 		.4byte	0x33
 711 0269 02       		.byte	0x2
 712 026a 91       		.byte	0x91
 713 026b 6C       		.sleb128 -20
 714 026c 00       		.byte	0
 715 026d 07       		.uleb128 0x7
 716 026e 04       		.byte	0x4
 717 026f D5000000 		.4byte	0xd5
 718 0273 0E       		.uleb128 0xe
 719 0274 E0000000 		.4byte	.LASF37
 720 0278 01       		.byte	0x1
 721 0279 22       		.byte	0x22
 722 027a 01       		.byte	0x1
 723 027b 4C000000 		.4byte	.LFB2
 724 027f 6C000000 		.4byte	.LFE2
 725 0283 A0000000 		.4byte	.LLST2
 726 0287 01       		.byte	0x1
 727 0288 A9020000 		.4byte	0x2a9
 728 028c 0F       		.uleb128 0xf
 729 028d 6E657700 		.ascii	"new\000"
 730 0291 01       		.byte	0x1
 731 0292 22       		.byte	0x22
 732 0293 91000000 		.4byte	0x91
 733 0297 02       		.byte	0x2
 734 0298 91       		.byte	0x91
 735 0299 74       		.sleb128 -12
 736 029a 0B       		.uleb128 0xb
 737 029b 25010000 		.4byte	.LASF35
 738 029f 01       		.byte	0x1
 739 02a0 22       		.byte	0x22
 740 02a1 91000000 		.4byte	0x91
 741 02a5 02       		.byte	0x2
 742 02a6 91       		.byte	0x91
 743 02a7 70       		.sleb128 -16
 744 02a8 00       		.byte	0
 745 02a9 10       		.uleb128 0x10
 746 02aa B8010000 		.4byte	.LASF38
 747 02ae 01       		.byte	0x1
 748 02af 17       		.byte	0x17
 749 02b0 01       		.byte	0x1
 750 02b1 1E000000 		.4byte	.LFB1
 751 02b5 4C000000 		.4byte	.LFE1
 752 02b9 F0000000 		.4byte	.LLST1
 753 02bd 01       		.byte	0x1
 754 02be ED020000 		.4byte	0x2ed
 755 02c2 0F       		.uleb128 0xf
 756 02c3 6E657700 		.ascii	"new\000"
 757 02c7 01       		.byte	0x1
 758 02c8 17       		.byte	0x17
 759 02c9 91000000 		.4byte	0x91
 760 02cd 02       		.byte	0x2
 761 02ce 91       		.byte	0x91
 762 02cf 74       		.sleb128 -12
 763 02d0 0B       		.uleb128 0xb
 764 02d1 9E020000 		.4byte	.LASF8
 765 02d5 01       		.byte	0x1
ARM GAS  G:\Users\Jaxb\AppData\Local\Temp\ccoQhVpk.s 			page 16


 766 02d6 18       		.byte	0x18
 767 02d7 91000000 		.4byte	0x91
 768 02db 02       		.byte	0x2
 769 02dc 91       		.byte	0x91
 770 02dd 70       		.sleb128 -16
 771 02de 0B       		.uleb128 0xb
 772 02df 35000000 		.4byte	.LASF7
 773 02e3 01       		.byte	0x1
 774 02e4 19       		.byte	0x19
 775 02e5 91000000 		.4byte	0x91
 776 02e9 02       		.byte	0x2
 777 02ea 91       		.byte	0x91
 778 02eb 6C       		.sleb128 -20
 779 02ec 00       		.byte	0
 780 02ed 11       		.uleb128 0x11
 781 02ee 87000000 		.4byte	.LASF43
 782 02f2 01       		.byte	0x1
 783 02f3 10       		.byte	0x10
 784 02f4 01       		.byte	0x1
 785 02f5 00000000 		.4byte	.LFB0
 786 02f9 1E000000 		.4byte	.LFE0
 787 02fd 4C010000 		.4byte	.LLST0
 788 0301 01       		.byte	0x1
 789 0302 0B       		.uleb128 0xb
 790 0303 64010000 		.4byte	.LASF39
 791 0307 01       		.byte	0x1
 792 0308 10       		.byte	0x10
 793 0309 91000000 		.4byte	0x91
 794 030d 02       		.byte	0x2
 795 030e 91       		.byte	0x91
 796 030f 74       		.sleb128 -12
 797 0310 00       		.byte	0
 798 0311 00       		.byte	0
 799              		.section	.debug_abbrev,"",%progbits
 800              	.Ldebug_abbrev0:
 801 0000 01       		.uleb128 0x1
 802 0001 11       		.uleb128 0x11
 803 0002 01       		.byte	0x1
 804 0003 25       		.uleb128 0x25
 805 0004 0E       		.uleb128 0xe
 806 0005 13       		.uleb128 0x13
 807 0006 0B       		.uleb128 0xb
 808 0007 03       		.uleb128 0x3
 809 0008 0E       		.uleb128 0xe
 810 0009 1B       		.uleb128 0x1b
 811 000a 0E       		.uleb128 0xe
 812 000b 11       		.uleb128 0x11
 813 000c 01       		.uleb128 0x1
 814 000d 12       		.uleb128 0x12
 815 000e 01       		.uleb128 0x1
 816 000f 10       		.uleb128 0x10
 817 0010 06       		.uleb128 0x6
 818 0011 00       		.byte	0
 819 0012 00       		.byte	0
 820 0013 02       		.uleb128 0x2
 821 0014 24       		.uleb128 0x24
 822 0015 00       		.byte	0
ARM GAS  G:\Users\Jaxb\AppData\Local\Temp\ccoQhVpk.s 			page 17


 823 0016 0B       		.uleb128 0xb
 824 0017 0B       		.uleb128 0xb
 825 0018 3E       		.uleb128 0x3e
 826 0019 0B       		.uleb128 0xb
 827 001a 03       		.uleb128 0x3
 828 001b 0E       		.uleb128 0xe
 829 001c 00       		.byte	0
 830 001d 00       		.byte	0
 831 001e 03       		.uleb128 0x3
 832 001f 24       		.uleb128 0x24
 833 0020 00       		.byte	0
 834 0021 0B       		.uleb128 0xb
 835 0022 0B       		.uleb128 0xb
 836 0023 3E       		.uleb128 0x3e
 837 0024 0B       		.uleb128 0xb
 838 0025 03       		.uleb128 0x3
 839 0026 08       		.uleb128 0x8
 840 0027 00       		.byte	0
 841 0028 00       		.byte	0
 842 0029 04       		.uleb128 0x4
 843 002a 16       		.uleb128 0x16
 844 002b 00       		.byte	0
 845 002c 03       		.uleb128 0x3
 846 002d 0E       		.uleb128 0xe
 847 002e 3A       		.uleb128 0x3a
 848 002f 0B       		.uleb128 0xb
 849 0030 3B       		.uleb128 0x3b
 850 0031 0B       		.uleb128 0xb
 851 0032 49       		.uleb128 0x49
 852 0033 13       		.uleb128 0x13
 853 0034 00       		.byte	0
 854 0035 00       		.byte	0
 855 0036 05       		.uleb128 0x5
 856 0037 13       		.uleb128 0x13
 857 0038 01       		.byte	0x1
 858 0039 03       		.uleb128 0x3
 859 003a 0E       		.uleb128 0xe
 860 003b 0B       		.uleb128 0xb
 861 003c 0B       		.uleb128 0xb
 862 003d 3A       		.uleb128 0x3a
 863 003e 0B       		.uleb128 0xb
 864 003f 3B       		.uleb128 0x3b
 865 0040 0B       		.uleb128 0xb
 866 0041 01       		.uleb128 0x1
 867 0042 13       		.uleb128 0x13
 868 0043 00       		.byte	0
 869 0044 00       		.byte	0
 870 0045 06       		.uleb128 0x6
 871 0046 0D       		.uleb128 0xd
 872 0047 00       		.byte	0
 873 0048 03       		.uleb128 0x3
 874 0049 0E       		.uleb128 0xe
 875 004a 3A       		.uleb128 0x3a
 876 004b 0B       		.uleb128 0xb
 877 004c 3B       		.uleb128 0x3b
 878 004d 0B       		.uleb128 0xb
 879 004e 49       		.uleb128 0x49
ARM GAS  G:\Users\Jaxb\AppData\Local\Temp\ccoQhVpk.s 			page 18


 880 004f 13       		.uleb128 0x13
 881 0050 38       		.uleb128 0x38
 882 0051 0A       		.uleb128 0xa
 883 0052 00       		.byte	0
 884 0053 00       		.byte	0
 885 0054 07       		.uleb128 0x7
 886 0055 0F       		.uleb128 0xf
 887 0056 00       		.byte	0
 888 0057 0B       		.uleb128 0xb
 889 0058 0B       		.uleb128 0xb
 890 0059 49       		.uleb128 0x49
 891 005a 13       		.uleb128 0x13
 892 005b 00       		.byte	0
 893 005c 00       		.byte	0
 894 005d 08       		.uleb128 0x8
 895 005e 16       		.uleb128 0x16
 896 005f 00       		.byte	0
 897 0060 03       		.uleb128 0x3
 898 0061 08       		.uleb128 0x8
 899 0062 3A       		.uleb128 0x3a
 900 0063 0B       		.uleb128 0xb
 901 0064 3B       		.uleb128 0x3b
 902 0065 0B       		.uleb128 0xb
 903 0066 49       		.uleb128 0x49
 904 0067 13       		.uleb128 0x13
 905 0068 00       		.byte	0
 906 0069 00       		.byte	0
 907 006a 09       		.uleb128 0x9
 908 006b 0F       		.uleb128 0xf
 909 006c 00       		.byte	0
 910 006d 0B       		.uleb128 0xb
 911 006e 0B       		.uleb128 0xb
 912 006f 00       		.byte	0
 913 0070 00       		.byte	0
 914 0071 0A       		.uleb128 0xa
 915 0072 2E       		.uleb128 0x2e
 916 0073 01       		.byte	0x1
 917 0074 3F       		.uleb128 0x3f
 918 0075 0C       		.uleb128 0xc
 919 0076 03       		.uleb128 0x3
 920 0077 0E       		.uleb128 0xe
 921 0078 3A       		.uleb128 0x3a
 922 0079 0B       		.uleb128 0xb
 923 007a 3B       		.uleb128 0x3b
 924 007b 0B       		.uleb128 0xb
 925 007c 27       		.uleb128 0x27
 926 007d 0C       		.uleb128 0xc
 927 007e 11       		.uleb128 0x11
 928 007f 01       		.uleb128 0x1
 929 0080 12       		.uleb128 0x12
 930 0081 01       		.uleb128 0x1
 931 0082 40       		.uleb128 0x40
 932 0083 06       		.uleb128 0x6
 933 0084 9642     		.uleb128 0x2116
 934 0086 0C       		.uleb128 0xc
 935 0087 01       		.uleb128 0x1
 936 0088 13       		.uleb128 0x13
ARM GAS  G:\Users\Jaxb\AppData\Local\Temp\ccoQhVpk.s 			page 19


 937 0089 00       		.byte	0
 938 008a 00       		.byte	0
 939 008b 0B       		.uleb128 0xb
 940 008c 05       		.uleb128 0x5
 941 008d 00       		.byte	0
 942 008e 03       		.uleb128 0x3
 943 008f 0E       		.uleb128 0xe
 944 0090 3A       		.uleb128 0x3a
 945 0091 0B       		.uleb128 0xb
 946 0092 3B       		.uleb128 0x3b
 947 0093 0B       		.uleb128 0xb
 948 0094 49       		.uleb128 0x49
 949 0095 13       		.uleb128 0x13
 950 0096 02       		.uleb128 0x2
 951 0097 0A       		.uleb128 0xa
 952 0098 00       		.byte	0
 953 0099 00       		.byte	0
 954 009a 0C       		.uleb128 0xc
 955 009b 34       		.uleb128 0x34
 956 009c 00       		.byte	0
 957 009d 03       		.uleb128 0x3
 958 009e 08       		.uleb128 0x8
 959 009f 3A       		.uleb128 0x3a
 960 00a0 0B       		.uleb128 0xb
 961 00a1 3B       		.uleb128 0x3b
 962 00a2 0B       		.uleb128 0xb
 963 00a3 49       		.uleb128 0x49
 964 00a4 13       		.uleb128 0x13
 965 00a5 02       		.uleb128 0x2
 966 00a6 0A       		.uleb128 0xa
 967 00a7 00       		.byte	0
 968 00a8 00       		.byte	0
 969 00a9 0D       		.uleb128 0xd
 970 00aa 34       		.uleb128 0x34
 971 00ab 00       		.byte	0
 972 00ac 03       		.uleb128 0x3
 973 00ad 0E       		.uleb128 0xe
 974 00ae 3A       		.uleb128 0x3a
 975 00af 0B       		.uleb128 0xb
 976 00b0 3B       		.uleb128 0x3b
 977 00b1 0B       		.uleb128 0xb
 978 00b2 49       		.uleb128 0x49
 979 00b3 13       		.uleb128 0x13
 980 00b4 02       		.uleb128 0x2
 981 00b5 0A       		.uleb128 0xa
 982 00b6 00       		.byte	0
 983 00b7 00       		.byte	0
 984 00b8 0E       		.uleb128 0xe
 985 00b9 2E       		.uleb128 0x2e
 986 00ba 01       		.byte	0x1
 987 00bb 03       		.uleb128 0x3
 988 00bc 0E       		.uleb128 0xe
 989 00bd 3A       		.uleb128 0x3a
 990 00be 0B       		.uleb128 0xb
 991 00bf 3B       		.uleb128 0x3b
 992 00c0 0B       		.uleb128 0xb
 993 00c1 27       		.uleb128 0x27
ARM GAS  G:\Users\Jaxb\AppData\Local\Temp\ccoQhVpk.s 			page 20


 994 00c2 0C       		.uleb128 0xc
 995 00c3 11       		.uleb128 0x11
 996 00c4 01       		.uleb128 0x1
 997 00c5 12       		.uleb128 0x12
 998 00c6 01       		.uleb128 0x1
 999 00c7 40       		.uleb128 0x40
 1000 00c8 06       		.uleb128 0x6
 1001 00c9 9642     		.uleb128 0x2116
 1002 00cb 0C       		.uleb128 0xc
 1003 00cc 01       		.uleb128 0x1
 1004 00cd 13       		.uleb128 0x13
 1005 00ce 00       		.byte	0
 1006 00cf 00       		.byte	0
 1007 00d0 0F       		.uleb128 0xf
 1008 00d1 05       		.uleb128 0x5
 1009 00d2 00       		.byte	0
 1010 00d3 03       		.uleb128 0x3
 1011 00d4 08       		.uleb128 0x8
 1012 00d5 3A       		.uleb128 0x3a
 1013 00d6 0B       		.uleb128 0xb
 1014 00d7 3B       		.uleb128 0x3b
 1015 00d8 0B       		.uleb128 0xb
 1016 00d9 49       		.uleb128 0x49
 1017 00da 13       		.uleb128 0x13
 1018 00db 02       		.uleb128 0x2
 1019 00dc 0A       		.uleb128 0xa
 1020 00dd 00       		.byte	0
 1021 00de 00       		.byte	0
 1022 00df 10       		.uleb128 0x10
 1023 00e0 2E       		.uleb128 0x2e
 1024 00e1 01       		.byte	0x1
 1025 00e2 03       		.uleb128 0x3
 1026 00e3 0E       		.uleb128 0xe
 1027 00e4 3A       		.uleb128 0x3a
 1028 00e5 0B       		.uleb128 0xb
 1029 00e6 3B       		.uleb128 0x3b
 1030 00e7 0B       		.uleb128 0xb
 1031 00e8 27       		.uleb128 0x27
 1032 00e9 0C       		.uleb128 0xc
 1033 00ea 11       		.uleb128 0x11
 1034 00eb 01       		.uleb128 0x1
 1035 00ec 12       		.uleb128 0x12
 1036 00ed 01       		.uleb128 0x1
 1037 00ee 40       		.uleb128 0x40
 1038 00ef 06       		.uleb128 0x6
 1039 00f0 9742     		.uleb128 0x2117
 1040 00f2 0C       		.uleb128 0xc
 1041 00f3 01       		.uleb128 0x1
 1042 00f4 13       		.uleb128 0x13
 1043 00f5 00       		.byte	0
 1044 00f6 00       		.byte	0
 1045 00f7 11       		.uleb128 0x11
 1046 00f8 2E       		.uleb128 0x2e
 1047 00f9 01       		.byte	0x1
 1048 00fa 03       		.uleb128 0x3
 1049 00fb 0E       		.uleb128 0xe
 1050 00fc 3A       		.uleb128 0x3a
ARM GAS  G:\Users\Jaxb\AppData\Local\Temp\ccoQhVpk.s 			page 21


 1051 00fd 0B       		.uleb128 0xb
 1052 00fe 3B       		.uleb128 0x3b
 1053 00ff 0B       		.uleb128 0xb
 1054 0100 27       		.uleb128 0x27
 1055 0101 0C       		.uleb128 0xc
 1056 0102 11       		.uleb128 0x11
 1057 0103 01       		.uleb128 0x1
 1058 0104 12       		.uleb128 0x12
 1059 0105 01       		.uleb128 0x1
 1060 0106 40       		.uleb128 0x40
 1061 0107 06       		.uleb128 0x6
 1062 0108 9742     		.uleb128 0x2117
 1063 010a 0C       		.uleb128 0xc
 1064 010b 00       		.byte	0
 1065 010c 00       		.byte	0
 1066 010d 00       		.byte	0
 1067              		.section	.debug_loc,"",%progbits
 1068              	.Ldebug_loc0:
 1069              	.LLST4:
 1070 0000 B4000000 		.4byte	.LFB11-.Ltext0
 1071 0004 B6000000 		.4byte	.LCFI22-.Ltext0
 1072 0008 0200     		.2byte	0x2
 1073 000a 7D       		.byte	0x7d
 1074 000b 00       		.sleb128 0
 1075 000c B6000000 		.4byte	.LCFI22-.Ltext0
 1076 0010 B8000000 		.4byte	.LCFI23-.Ltext0
 1077 0014 0200     		.2byte	0x2
 1078 0016 7D       		.byte	0x7d
 1079 0017 08       		.sleb128 8
 1080 0018 B8000000 		.4byte	.LCFI23-.Ltext0
 1081 001c BA000000 		.4byte	.LCFI24-.Ltext0
 1082 0020 0200     		.2byte	0x2
 1083 0022 7D       		.byte	0x7d
 1084 0023 30       		.sleb128 48
 1085 0024 BA000000 		.4byte	.LCFI24-.Ltext0
 1086 0028 5A010000 		.4byte	.LCFI25-.Ltext0
 1087 002c 0200     		.2byte	0x2
 1088 002e 77       		.byte	0x77
 1089 002f 30       		.sleb128 48
 1090 0030 5A010000 		.4byte	.LCFI25-.Ltext0
 1091 0034 5C010000 		.4byte	.LCFI26-.Ltext0
 1092 0038 0200     		.2byte	0x2
 1093 003a 77       		.byte	0x77
 1094 003b 08       		.sleb128 8
 1095 003c 5C010000 		.4byte	.LCFI26-.Ltext0
 1096 0040 64010000 		.4byte	.LFE11-.Ltext0
 1097 0044 0200     		.2byte	0x2
 1098 0046 7D       		.byte	0x7d
 1099 0047 08       		.sleb128 8
 1100 0048 00000000 		.4byte	0
 1101 004c 00000000 		.4byte	0
 1102              	.LLST3:
 1103 0050 6C000000 		.4byte	.LFB10-.Ltext0
 1104 0054 6E000000 		.4byte	.LCFI17-.Ltext0
 1105 0058 0200     		.2byte	0x2
 1106 005a 7D       		.byte	0x7d
 1107 005b 00       		.sleb128 0
ARM GAS  G:\Users\Jaxb\AppData\Local\Temp\ccoQhVpk.s 			page 22


 1108 005c 6E000000 		.4byte	.LCFI17-.Ltext0
 1109 0060 70000000 		.4byte	.LCFI18-.Ltext0
 1110 0064 0200     		.2byte	0x2
 1111 0066 7D       		.byte	0x7d
 1112 0067 08       		.sleb128 8
 1113 0068 70000000 		.4byte	.LCFI18-.Ltext0
 1114 006c 72000000 		.4byte	.LCFI19-.Ltext0
 1115 0070 0200     		.2byte	0x2
 1116 0072 7D       		.byte	0x7d
 1117 0073 18       		.sleb128 24
 1118 0074 72000000 		.4byte	.LCFI19-.Ltext0
 1119 0078 B0000000 		.4byte	.LCFI20-.Ltext0
 1120 007c 0200     		.2byte	0x2
 1121 007e 77       		.byte	0x77
 1122 007f 18       		.sleb128 24
 1123 0080 B0000000 		.4byte	.LCFI20-.Ltext0
 1124 0084 B2000000 		.4byte	.LCFI21-.Ltext0
 1125 0088 0200     		.2byte	0x2
 1126 008a 77       		.byte	0x77
 1127 008b 08       		.sleb128 8
 1128 008c B2000000 		.4byte	.LCFI21-.Ltext0
 1129 0090 B4000000 		.4byte	.LFE10-.Ltext0
 1130 0094 0200     		.2byte	0x2
 1131 0096 7D       		.byte	0x7d
 1132 0097 08       		.sleb128 8
 1133 0098 00000000 		.4byte	0
 1134 009c 00000000 		.4byte	0
 1135              	.LLST2:
 1136 00a0 4C000000 		.4byte	.LFB2-.Ltext0
 1137 00a4 4E000000 		.4byte	.LCFI12-.Ltext0
 1138 00a8 0200     		.2byte	0x2
 1139 00aa 7D       		.byte	0x7d
 1140 00ab 00       		.sleb128 0
 1141 00ac 4E000000 		.4byte	.LCFI12-.Ltext0
 1142 00b0 50000000 		.4byte	.LCFI13-.Ltext0
 1143 00b4 0200     		.2byte	0x2
 1144 00b6 7D       		.byte	0x7d
 1145 00b7 08       		.sleb128 8
 1146 00b8 50000000 		.4byte	.LCFI13-.Ltext0
 1147 00bc 52000000 		.4byte	.LCFI14-.Ltext0
 1148 00c0 0200     		.2byte	0x2
 1149 00c2 7D       		.byte	0x7d
 1150 00c3 10       		.sleb128 16
 1151 00c4 52000000 		.4byte	.LCFI14-.Ltext0
 1152 00c8 68000000 		.4byte	.LCFI15-.Ltext0
 1153 00cc 0200     		.2byte	0x2
 1154 00ce 77       		.byte	0x77
 1155 00cf 10       		.sleb128 16
 1156 00d0 68000000 		.4byte	.LCFI15-.Ltext0
 1157 00d4 6A000000 		.4byte	.LCFI16-.Ltext0
 1158 00d8 0200     		.2byte	0x2
 1159 00da 77       		.byte	0x77
 1160 00db 08       		.sleb128 8
 1161 00dc 6A000000 		.4byte	.LCFI16-.Ltext0
 1162 00e0 6C000000 		.4byte	.LFE2-.Ltext0
 1163 00e4 0200     		.2byte	0x2
 1164 00e6 7D       		.byte	0x7d
ARM GAS  G:\Users\Jaxb\AppData\Local\Temp\ccoQhVpk.s 			page 23


 1165 00e7 08       		.sleb128 8
 1166 00e8 00000000 		.4byte	0
 1167 00ec 00000000 		.4byte	0
 1168              	.LLST1:
 1169 00f0 1E000000 		.4byte	.LFB1-.Ltext0
 1170 00f4 20000000 		.4byte	.LCFI6-.Ltext0
 1171 00f8 0200     		.2byte	0x2
 1172 00fa 7D       		.byte	0x7d
 1173 00fb 00       		.sleb128 0
 1174 00fc 20000000 		.4byte	.LCFI6-.Ltext0
 1175 0100 22000000 		.4byte	.LCFI7-.Ltext0
 1176 0104 0200     		.2byte	0x2
 1177 0106 7D       		.byte	0x7d
 1178 0107 04       		.sleb128 4
 1179 0108 22000000 		.4byte	.LCFI7-.Ltext0
 1180 010c 24000000 		.4byte	.LCFI8-.Ltext0
 1181 0110 0200     		.2byte	0x2
 1182 0112 7D       		.byte	0x7d
 1183 0113 18       		.sleb128 24
 1184 0114 24000000 		.4byte	.LCFI8-.Ltext0
 1185 0118 46000000 		.4byte	.LCFI9-.Ltext0
 1186 011c 0200     		.2byte	0x2
 1187 011e 77       		.byte	0x77
 1188 011f 18       		.sleb128 24
 1189 0120 46000000 		.4byte	.LCFI9-.Ltext0
 1190 0124 48000000 		.4byte	.LCFI10-.Ltext0
 1191 0128 0200     		.2byte	0x2
 1192 012a 77       		.byte	0x77
 1193 012b 04       		.sleb128 4
 1194 012c 48000000 		.4byte	.LCFI10-.Ltext0
 1195 0130 4A000000 		.4byte	.LCFI11-.Ltext0
 1196 0134 0200     		.2byte	0x2
 1197 0136 7D       		.byte	0x7d
 1198 0137 04       		.sleb128 4
 1199 0138 4A000000 		.4byte	.LCFI11-.Ltext0
 1200 013c 4C000000 		.4byte	.LFE1-.Ltext0
 1201 0140 0200     		.2byte	0x2
 1202 0142 7D       		.byte	0x7d
 1203 0143 00       		.sleb128 0
 1204 0144 00000000 		.4byte	0
 1205 0148 00000000 		.4byte	0
 1206              	.LLST0:
 1207 014c 00000000 		.4byte	.LFB0-.Ltext0
 1208 0150 02000000 		.4byte	.LCFI0-.Ltext0
 1209 0154 0200     		.2byte	0x2
 1210 0156 7D       		.byte	0x7d
 1211 0157 00       		.sleb128 0
 1212 0158 02000000 		.4byte	.LCFI0-.Ltext0
 1213 015c 04000000 		.4byte	.LCFI1-.Ltext0
 1214 0160 0200     		.2byte	0x2
 1215 0162 7D       		.byte	0x7d
 1216 0163 04       		.sleb128 4
 1217 0164 04000000 		.4byte	.LCFI1-.Ltext0
 1218 0168 06000000 		.4byte	.LCFI2-.Ltext0
 1219 016c 0200     		.2byte	0x2
 1220 016e 7D       		.byte	0x7d
 1221 016f 10       		.sleb128 16
ARM GAS  G:\Users\Jaxb\AppData\Local\Temp\ccoQhVpk.s 			page 24


 1222 0170 06000000 		.4byte	.LCFI2-.Ltext0
 1223 0174 18000000 		.4byte	.LCFI3-.Ltext0
 1224 0178 0200     		.2byte	0x2
 1225 017a 77       		.byte	0x77
 1226 017b 10       		.sleb128 16
 1227 017c 18000000 		.4byte	.LCFI3-.Ltext0
 1228 0180 1A000000 		.4byte	.LCFI4-.Ltext0
 1229 0184 0200     		.2byte	0x2
 1230 0186 77       		.byte	0x77
 1231 0187 04       		.sleb128 4
 1232 0188 1A000000 		.4byte	.LCFI4-.Ltext0
 1233 018c 1C000000 		.4byte	.LCFI5-.Ltext0
 1234 0190 0200     		.2byte	0x2
 1235 0192 7D       		.byte	0x7d
 1236 0193 04       		.sleb128 4
 1237 0194 1C000000 		.4byte	.LCFI5-.Ltext0
 1238 0198 1E000000 		.4byte	.LFE0-.Ltext0
 1239 019c 0200     		.2byte	0x2
 1240 019e 7D       		.byte	0x7d
 1241 019f 00       		.sleb128 0
 1242 01a0 00000000 		.4byte	0
 1243 01a4 00000000 		.4byte	0
 1244              		.section	.debug_aranges,"",%progbits
 1245 0000 1C000000 		.4byte	0x1c
 1246 0004 0200     		.2byte	0x2
 1247 0006 00000000 		.4byte	.Ldebug_info0
 1248 000a 04       		.byte	0x4
 1249 000b 00       		.byte	0
 1250 000c 0000     		.2byte	0
 1251 000e 0000     		.2byte	0
 1252 0010 00000000 		.4byte	.Ltext0
 1253 0014 64010000 		.4byte	.Letext0-.Ltext0
 1254 0018 00000000 		.4byte	0
 1255 001c 00000000 		.4byte	0
 1256              		.section	.debug_line,"",%progbits
 1257              	.Ldebug_line0:
 1258 0000 01010000 		.section	.debug_str,"MS",%progbits,1
 1258      0200B900 
 1258      00000201 
 1258      FB0E0D00 
 1258      01010101 
 1259              	.LASF41:
 1260 0000 2E2E2F2E 		.ascii	"../../source/src/kernel/OS_LIB/slab.c\000"
 1260      2E2F736F 
 1260      75726365 
 1260      2F737263 
 1260      2F6B6572 
 1261              	.LASF14:
 1262 0026 7072696F 		.ascii	"prio\000"
 1262      00
 1263              	.LASF33:
 1264 002b 6C6F6164 		.ascii	"load_slab\000"
 1264      5F736C61 
 1264      6200
 1265              	.LASF7:
 1266 0035 6E657874 		.ascii	"next\000"
 1266      00
ARM GAS  G:\Users\Jaxb\AppData\Local\Temp\ccoQhVpk.s 			page 25


 1267              	.LASF34:
 1268 003a 696E7365 		.ascii	"insert_into_cache_chain\000"
 1268      72745F69 
 1268      6E746F5F 
 1268      63616368 
 1268      655F6368 
 1269              	.LASF30:
 1270 0052 626F756E 		.ascii	"boundary_ptr\000"
 1270      64617279 
 1270      5F707472 
 1270      00
 1271              	.LASF20:
 1272 005f 736C6162 		.ascii	"slab\000"
 1272      00
 1273              	.LASF15:
 1274 0064 6B6D656D 		.ascii	"kmem_cache\000"
 1274      5F636163 
 1274      686500
 1275              	.LASF17:
 1276 006f 736C6162 		.ascii	"slabs_full\000"
 1276      735F6675 
 1276      6C6C00
 1277              	.LASF10:
 1278 007a 434F4D50 		.ascii	"COMPARE_TYPE\000"
 1278      4152455F 
 1278      54595045 
 1278      00
 1279              	.LASF43:
 1280 0087 494E4954 		.ascii	"INIT_LIST_HEAD\000"
 1280      5F4C4953 
 1280      545F4845 
 1280      414400
 1281              	.LASF32:
 1282 0096 726F6F6D 		.ascii	"room_size\000"
 1282      5F73697A 
 1282      6500
 1283              	.LASF22:
 1284 00a0 656E645F 		.ascii	"end_ptr\000"
 1284      70747200 
 1285              	.LASF3:
 1286 00a8 756E7369 		.ascii	"unsigned char\000"
 1286      676E6564 
 1286      20636861 
 1286      7200
 1287              	.LASF16:
 1288 00b6 6B6D656D 		.ascii	"kmem_cache_insert_chain\000"
 1288      5F636163 
 1288      68655F69 
 1288      6E736572 
 1288      745F6368 
 1289              	.LASF23:
 1290 00ce 63757272 		.ascii	"current_block_num\000"
 1290      656E745F 
 1290      626C6F63 
 1290      6B5F6E75 
 1290      6D00
 1291              	.LASF37:
ARM GAS  G:\Users\Jaxb\AppData\Local\Temp\ccoQhVpk.s 			page 26


 1292 00e0 6C697374 		.ascii	"list_add\000"
 1292      5F616464 
 1292      00
 1293              	.LASF4:
 1294 00e9 73686F72 		.ascii	"short unsigned int\000"
 1294      7420756E 
 1294      7369676E 
 1294      65642069 
 1294      6E7400
 1295              	.LASF25:
 1296 00fc 626C6F63 		.ascii	"block_size\000"
 1296      6B5F7369 
 1296      7A6500
 1297              	.LASF31:
 1298 0107 736C6162 		.ascii	"slab_ptr\000"
 1298      5F707472 
 1298      00
 1299              	.LASF27:
 1300 0110 626C6F63 		.ascii	"block_head\000"
 1300      6B5F6865 
 1300      616400
 1301              	.LASF21:
 1302 011b 73746172 		.ascii	"start_ptr\000"
 1302      745F7074 
 1302      7200
 1303              	.LASF35:
 1304 0125 68656164 		.ascii	"head\000"
 1304      00
 1305              	.LASF5:
 1306 012a 756E7369 		.ascii	"unsigned int\000"
 1306      676E6564 
 1306      20696E74 
 1306      00
 1307              	.LASF6:
 1308 0137 6C6F6E67 		.ascii	"long long unsigned int\000"
 1308      206C6F6E 
 1308      6720756E 
 1308      7369676E 
 1308      65642069 
 1309              	.LASF13:
 1310 014e 696E7365 		.ascii	"insert\000"
 1310      727400
 1311              	.LASF36:
 1312 0155 6B6D656D 		.ascii	"kmem_cache_ptr\000"
 1312      5F636163 
 1312      68655F70 
 1312      747200
 1313              	.LASF39:
 1314 0164 6C697374 		.ascii	"list\000"
 1314      00
 1315              	.LASF11:
 1316 0169 6C697374 		.ascii	"list_head\000"
 1316      5F686561 
 1316      6400
 1317              	.LASF2:
 1318 0173 6C6F6E67 		.ascii	"long long int\000"
 1318      206C6F6E 
ARM GAS  G:\Users\Jaxb\AppData\Local\Temp\ccoQhVpk.s 			page 27


 1318      6720696E 
 1318      7400
 1319              	.LASF9:
 1320 0181 55494E54 		.ascii	"UINT32\000"
 1320      333200
 1321              	.LASF26:
 1322 0188 736C6162 		.ascii	"slab_chain\000"
 1322      5F636861 
 1322      696E00
 1323              	.LASF1:
 1324 0193 73686F72 		.ascii	"short int\000"
 1324      7420696E 
 1324      7400
 1325              	.LASF28:
 1326 019d 736C6162 		.ascii	"slab_chain_ptr\000"
 1326      5F636861 
 1326      696E5F70 
 1326      747200
 1327              	.LASF12:
 1328 01ac 696E7365 		.ascii	"insert_list\000"
 1328      72745F6C 
 1328      69737400 
 1329              	.LASF38:
 1330 01b8 5F5F6C69 		.ascii	"__list_add\000"
 1330      73745F61 
 1330      646400
 1331              	.LASF19:
 1332 01c3 736C6162 		.ascii	"slabs_empty\000"
 1332      735F656D 
 1332      70747900 
 1333              	.LASF40:
 1334 01cf 474E5520 		.ascii	"GNU C11 7.3.1 20180622 (release) [ARM/embedded-7-br"
 1334      43313120 
 1334      372E332E 
 1334      31203230 
 1334      31383036 
 1335 0202 616E6368 		.ascii	"anch revision 261907] -mcpu=cortex-m3 -mthumb -mapc"
 1335      20726576 
 1335      6973696F 
 1335      6E203236 
 1335      31393037 
 1336 0235 732D6672 		.ascii	"s-frame -mthumb-interwork -mcpu=cortex-m3 -mthumb -"
 1336      616D6520 
 1336      2D6D7468 
 1336      756D622D 
 1336      696E7465 
 1337 0268 67647761 		.ascii	"gdwarf-2 -O0\000"
 1337      72662D32 
 1337      202D4F30 
 1337      00
 1338              	.LASF24:
 1339 0275 66756C6C 		.ascii	"full_block_num\000"
 1339      5F626C6F 
 1339      636B5F6E 
 1339      756D00
 1340              	.LASF18:
 1341 0284 736C6162 		.ascii	"slabs_partial\000"
ARM GAS  G:\Users\Jaxb\AppData\Local\Temp\ccoQhVpk.s 			page 28


 1341      735F7061 
 1341      72746961 
 1341      6C00
 1342              	.LASF0:
 1343 0292 7369676E 		.ascii	"signed char\000"
 1343      65642063 
 1343      68617200 
 1344              	.LASF8:
 1345 029e 70726576 		.ascii	"prev\000"
 1345      00
 1346              	.LASF42:
 1347 02a3 463A5C6B 		.ascii	"F:\\kaka\\KAKAOS\\C\\windows\\Project\\RVMDK\243\250"
 1347      616B615C 
 1347      4B414B41 
 1347      4F535C43 
 1347      5C77696E 
 1348 02cb 757635A3 		.ascii	"uv5\243\251\000"
 1348      A900
 1349              	.LASF29:
 1350 02d1 6C697374 		.ascii	"list_head_ptr\000"
 1350      5F686561 
 1350      645F7074 
 1350      7200
 1351              		.ident	"GCC: (GNU Tools for Arm Embedded Processors 7-2018-q2-update) 7.3.1 20180622 (release) [AR
ARM GAS  G:\Users\Jaxb\AppData\Local\Temp\ccoQhVpk.s 			page 29


DEFINED SYMBOLS
                            *ABS*:00000000 slab.c
G:\Users\Jaxb\AppData\Local\Temp\ccoQhVpk.s:15     .text:00000000 $t
G:\Users\Jaxb\AppData\Local\Temp\ccoQhVpk.s:21     .text:00000000 INIT_LIST_HEAD
G:\Users\Jaxb\AppData\Local\Temp\ccoQhVpk.s:71     .text:0000001e __list_add
G:\Users\Jaxb\AppData\Local\Temp\ccoQhVpk.s:130    .text:0000004c list_add
G:\Users\Jaxb\AppData\Local\Temp\ccoQhVpk.s:176    .text:0000006c insert_into_cache_chain
G:\Users\Jaxb\AppData\Local\Temp\ccoQhVpk.s:237    .rodata:00000000 $d
G:\Users\Jaxb\AppData\Local\Temp\ccoQhVpk.s:248    .text:000000b4 load_slab
G:\Users\Jaxb\AppData\Local\Temp\ccoQhVpk.s:370    .text:00000160 $d

UNDEFINED SYMBOLS
IL_init
insert_chain
_ASSERT
