ARM GAS  G:\Users\Jaxb\AppData\Local\Temp\ccmQuTYK.s 			page 1


   1              		.cpu cortex-m3
   2              		.eabi_attribute 20, 1
   3              		.eabi_attribute 21, 1
   4              		.eabi_attribute 23, 3
   5              		.eabi_attribute 24, 1
   6              		.eabi_attribute 25, 1
   7              		.eabi_attribute 26, 1
   8              		.eabi_attribute 30, 6
   9              		.eabi_attribute 34, 1
  10              		.eabi_attribute 18, 4
  11              		.file	"slab.c"
  12              		.text
  13              	.Ltext0:
  14              		.cfi_sections	.debug_frame
  15              		.align	1
  16              		.syntax unified
  17              		.thumb
  18              		.thumb_func
  19              		.fpu softvfp
  20              		.type	INIT_SINGLY_LIST_HEAD, %function
  21              	INIT_SINGLY_LIST_HEAD:
  22              	.LFB0:
  23              		.file 1 "../../source/include/os_lib/singly_linked_list.h"
   1:../../source/include/os_lib/singly_linked_list.h **** #ifndef _SINGLY_LINKED_LIST_H
   2:../../source/include/os_lib/singly_linked_list.h **** #define _SINGLY_LINKED_LIST_H
   3:../../source/include/os_lib/singly_linked_list.h **** 
   4:../../source/include/os_lib/singly_linked_list.h **** struct singly_list_head{
   5:../../source/include/os_lib/singly_linked_list.h **** 	struct singly_list_head *next;
   6:../../source/include/os_lib/singly_linked_list.h **** };
   7:../../source/include/os_lib/singly_linked_list.h **** 
   8:../../source/include/os_lib/singly_linked_list.h **** #define SINGLY_LIST_HEAD_INIT(name) { &(name) }
   9:../../source/include/os_lib/singly_linked_list.h **** 
  10:../../source/include/os_lib/singly_linked_list.h **** #define SINGLY_LIST_HEAD(name) \
  11:../../source/include/os_lib/singly_linked_list.h ****     struct singly_list_head name = SINGLY_LIST_HEAD_INIT(name)
  12:../../source/include/os_lib/singly_linked_list.h **** 
  13:../../source/include/os_lib/singly_linked_list.h **** static inline void INIT_SINGLY_LIST_HEAD(struct singly_list_head *list)
  14:../../source/include/os_lib/singly_linked_list.h **** {
  24              		.loc 1 14 0
  25              		.cfi_startproc
  26              		@ args = 0, pretend = 0, frame = 8
  27              		@ frame_needed = 1, uses_anonymous_args = 0
  28              		@ link register save eliminated.
  29 0000 80B4     		push	{r7}
  30              	.LCFI0:
  31              		.cfi_def_cfa_offset 4
  32              		.cfi_offset 7, -4
  33 0002 83B0     		sub	sp, sp, #12
  34              	.LCFI1:
  35              		.cfi_def_cfa_offset 16
  36 0004 00AF     		add	r7, sp, #0
  37              	.LCFI2:
  38              		.cfi_def_cfa_register 7
  39 0006 7860     		str	r0, [r7, #4]
  15:../../source/include/os_lib/singly_linked_list.h **** 	list->next = list;
  40              		.loc 1 15 0
  41 0008 7B68     		ldr	r3, [r7, #4]
  42 000a 7A68     		ldr	r2, [r7, #4]
ARM GAS  G:\Users\Jaxb\AppData\Local\Temp\ccmQuTYK.s 			page 2


  43 000c 1A60     		str	r2, [r3]
  16:../../source/include/os_lib/singly_linked_list.h **** }
  44              		.loc 1 16 0
  45 000e 00BF     		nop
  46 0010 0C37     		adds	r7, r7, #12
  47              	.LCFI3:
  48              		.cfi_def_cfa_offset 4
  49 0012 BD46     		mov	sp, r7
  50              	.LCFI4:
  51              		.cfi_def_cfa_register 13
  52              		@ sp needed
  53 0014 80BC     		pop	{r7}
  54              	.LCFI5:
  55              		.cfi_restore 7
  56              		.cfi_def_cfa_offset 0
  57 0016 7047     		bx	lr
  58              		.cfi_endproc
  59              	.LFE0:
  60              		.size	INIT_SINGLY_LIST_HEAD, .-INIT_SINGLY_LIST_HEAD
  61              		.align	1
  62              		.syntax unified
  63              		.thumb
  64              		.thumb_func
  65              		.fpu softvfp
  66              		.type	singly_list_add, %function
  67              	singly_list_add:
  68              	.LFB1:
  17:../../source/include/os_lib/singly_linked_list.h **** 
  18:../../source/include/os_lib/singly_linked_list.h **** static inline void singly_list_add(struct singly_list_head *new,struct singly_list_head *head)
  19:../../source/include/os_lib/singly_linked_list.h **** {
  69              		.loc 1 19 0
  70              		.cfi_startproc
  71              		@ args = 0, pretend = 0, frame = 8
  72              		@ frame_needed = 1, uses_anonymous_args = 0
  73              		@ link register save eliminated.
  74 0018 80B4     		push	{r7}
  75              	.LCFI6:
  76              		.cfi_def_cfa_offset 4
  77              		.cfi_offset 7, -4
  78 001a 83B0     		sub	sp, sp, #12
  79              	.LCFI7:
  80              		.cfi_def_cfa_offset 16
  81 001c 00AF     		add	r7, sp, #0
  82              	.LCFI8:
  83              		.cfi_def_cfa_register 7
  84 001e 7860     		str	r0, [r7, #4]
  85 0020 3960     		str	r1, [r7]
  20:../../source/include/os_lib/singly_linked_list.h **** 	new->next = head->next;
  86              		.loc 1 20 0
  87 0022 3B68     		ldr	r3, [r7]
  88 0024 1A68     		ldr	r2, [r3]
  89 0026 7B68     		ldr	r3, [r7, #4]
  90 0028 1A60     		str	r2, [r3]
  21:../../source/include/os_lib/singly_linked_list.h **** 	head->next = new;
  91              		.loc 1 21 0
  92 002a 3B68     		ldr	r3, [r7]
  93 002c 7A68     		ldr	r2, [r7, #4]
ARM GAS  G:\Users\Jaxb\AppData\Local\Temp\ccmQuTYK.s 			page 3


  94 002e 1A60     		str	r2, [r3]
  22:../../source/include/os_lib/singly_linked_list.h **** }
  95              		.loc 1 22 0
  96 0030 00BF     		nop
  97 0032 0C37     		adds	r7, r7, #12
  98              	.LCFI9:
  99              		.cfi_def_cfa_offset 4
 100 0034 BD46     		mov	sp, r7
 101              	.LCFI10:
 102              		.cfi_def_cfa_register 13
 103              		@ sp needed
 104 0036 80BC     		pop	{r7}
 105              	.LCFI11:
 106              		.cfi_restore 7
 107              		.cfi_def_cfa_offset 0
 108 0038 7047     		bx	lr
 109              		.cfi_endproc
 110              	.LFE1:
 111              		.size	singly_list_add, .-singly_list_add
 112              		.align	1
 113              		.syntax unified
 114              		.thumb
 115              		.thumb_func
 116              		.fpu softvfp
 117              		.type	singly_list_empty, %function
 118              	singly_list_empty:
 119              	.LFB3:
  23:../../source/include/os_lib/singly_linked_list.h **** 
  24:../../source/include/os_lib/singly_linked_list.h **** static inline void _singly_list_del_next(struct singly_list_head *pre)
  25:../../source/include/os_lib/singly_linked_list.h **** {
  26:../../source/include/os_lib/singly_linked_list.h **** 	pre->next = pre->next->next;
  27:../../source/include/os_lib/singly_linked_list.h **** }
  28:../../source/include/os_lib/singly_linked_list.h **** 
  29:../../source/include/os_lib/singly_linked_list.h **** static inline int singly_list_empty(struct singly_list_head *head)
  30:../../source/include/os_lib/singly_linked_list.h **** {
 120              		.loc 1 30 0
 121              		.cfi_startproc
 122              		@ args = 0, pretend = 0, frame = 8
 123              		@ frame_needed = 1, uses_anonymous_args = 0
 124              		@ link register save eliminated.
 125 003a 80B4     		push	{r7}
 126              	.LCFI12:
 127              		.cfi_def_cfa_offset 4
 128              		.cfi_offset 7, -4
 129 003c 83B0     		sub	sp, sp, #12
 130              	.LCFI13:
 131              		.cfi_def_cfa_offset 16
 132 003e 00AF     		add	r7, sp, #0
 133              	.LCFI14:
 134              		.cfi_def_cfa_register 7
 135 0040 7860     		str	r0, [r7, #4]
  31:../../source/include/os_lib/singly_linked_list.h **** 	return head->next == head;
 136              		.loc 1 31 0
 137 0042 7B68     		ldr	r3, [r7, #4]
 138 0044 1B68     		ldr	r3, [r3]
 139 0046 7A68     		ldr	r2, [r7, #4]
 140 0048 9A42     		cmp	r2, r3
ARM GAS  G:\Users\Jaxb\AppData\Local\Temp\ccmQuTYK.s 			page 4


 141 004a 0CBF     		ite	eq
 142 004c 0123     		moveq	r3, #1
 143 004e 0023     		movne	r3, #0
 144 0050 DBB2     		uxtb	r3, r3
  32:../../source/include/os_lib/singly_linked_list.h **** }
 145              		.loc 1 32 0
 146 0052 1846     		mov	r0, r3
 147 0054 0C37     		adds	r7, r7, #12
 148              	.LCFI15:
 149              		.cfi_def_cfa_offset 4
 150 0056 BD46     		mov	sp, r7
 151              	.LCFI16:
 152              		.cfi_def_cfa_register 13
 153              		@ sp needed
 154 0058 80BC     		pop	{r7}
 155              	.LCFI17:
 156              		.cfi_restore 7
 157              		.cfi_def_cfa_offset 0
 158 005a 7047     		bx	lr
 159              		.cfi_endproc
 160              	.LFE3:
 161              		.size	singly_list_empty, .-singly_list_empty
 162              		.align	1
 163              		.syntax unified
 164              		.thumb
 165              		.thumb_func
 166              		.fpu softvfp
 167              		.type	INIT_LIST_HEAD, %function
 168              	INIT_LIST_HEAD:
 169              	.LFB4:
 170              		.file 2 "../../source/include/os_lib/double_linked_list.h"
   1:../../source/include/os_lib/double_linked_list.h **** #ifndef _DOUBLE_LINKED_LIST_H
   2:../../source/include/os_lib/double_linked_list.h **** #define _DOUBLE_LINKED_LIST_H
   3:../../source/include/os_lib/double_linked_list.h **** 
   4:../../source/include/os_lib/double_linked_list.h **** struct list_head {
   5:../../source/include/os_lib/double_linked_list.h ****     struct list_head *next, *prev;
   6:../../source/include/os_lib/double_linked_list.h **** };
   7:../../source/include/os_lib/double_linked_list.h **** 
   8:../../source/include/os_lib/double_linked_list.h **** 
   9:../../source/include/os_lib/double_linked_list.h **** #define LIST_HEAD_INIT(name) { &(name), &(name) }
  10:../../source/include/os_lib/double_linked_list.h **** 
  11:../../source/include/os_lib/double_linked_list.h **** 
  12:../../source/include/os_lib/double_linked_list.h **** #define LIST_HEAD(name) \
  13:../../source/include/os_lib/double_linked_list.h ****     struct list_head name = LIST_HEAD_INIT(name)
  14:../../source/include/os_lib/double_linked_list.h **** 
  15:../../source/include/os_lib/double_linked_list.h **** 
  16:../../source/include/os_lib/double_linked_list.h **** static inline void INIT_LIST_HEAD(struct list_head *list)
  17:../../source/include/os_lib/double_linked_list.h **** {
 171              		.loc 2 17 0
 172              		.cfi_startproc
 173              		@ args = 0, pretend = 0, frame = 8
 174              		@ frame_needed = 1, uses_anonymous_args = 0
 175              		@ link register save eliminated.
 176 005c 80B4     		push	{r7}
 177              	.LCFI18:
 178              		.cfi_def_cfa_offset 4
 179              		.cfi_offset 7, -4
ARM GAS  G:\Users\Jaxb\AppData\Local\Temp\ccmQuTYK.s 			page 5


 180 005e 83B0     		sub	sp, sp, #12
 181              	.LCFI19:
 182              		.cfi_def_cfa_offset 16
 183 0060 00AF     		add	r7, sp, #0
 184              	.LCFI20:
 185              		.cfi_def_cfa_register 7
 186 0062 7860     		str	r0, [r7, #4]
  18:../../source/include/os_lib/double_linked_list.h ****     list->next = list;
 187              		.loc 2 18 0
 188 0064 7B68     		ldr	r3, [r7, #4]
 189 0066 7A68     		ldr	r2, [r7, #4]
 190 0068 1A60     		str	r2, [r3]
  19:../../source/include/os_lib/double_linked_list.h ****     list->prev = list;
 191              		.loc 2 19 0
 192 006a 7B68     		ldr	r3, [r7, #4]
 193 006c 7A68     		ldr	r2, [r7, #4]
 194 006e 5A60     		str	r2, [r3, #4]
  20:../../source/include/os_lib/double_linked_list.h **** }
 195              		.loc 2 20 0
 196 0070 00BF     		nop
 197 0072 0C37     		adds	r7, r7, #12
 198              	.LCFI21:
 199              		.cfi_def_cfa_offset 4
 200 0074 BD46     		mov	sp, r7
 201              	.LCFI22:
 202              		.cfi_def_cfa_register 13
 203              		@ sp needed
 204 0076 80BC     		pop	{r7}
 205              	.LCFI23:
 206              		.cfi_restore 7
 207              		.cfi_def_cfa_offset 0
 208 0078 7047     		bx	lr
 209              		.cfi_endproc
 210              	.LFE4:
 211              		.size	INIT_LIST_HEAD, .-INIT_LIST_HEAD
 212              		.align	1
 213              		.syntax unified
 214              		.thumb
 215              		.thumb_func
 216              		.fpu softvfp
 217              		.type	__list_add, %function
 218              	__list_add:
 219              	.LFB5:
  21:../../source/include/os_lib/double_linked_list.h **** 
  22:../../source/include/os_lib/double_linked_list.h **** 
  23:../../source/include/os_lib/double_linked_list.h **** static inline void __list_add(struct list_head *new,
  24:../../source/include/os_lib/double_linked_list.h ****                   struct list_head *prev,
  25:../../source/include/os_lib/double_linked_list.h ****                   struct list_head *next)
  26:../../source/include/os_lib/double_linked_list.h **** {
 220              		.loc 2 26 0
 221              		.cfi_startproc
 222              		@ args = 0, pretend = 0, frame = 16
 223              		@ frame_needed = 1, uses_anonymous_args = 0
 224              		@ link register save eliminated.
 225 007a 80B4     		push	{r7}
 226              	.LCFI24:
 227              		.cfi_def_cfa_offset 4
ARM GAS  G:\Users\Jaxb\AppData\Local\Temp\ccmQuTYK.s 			page 6


 228              		.cfi_offset 7, -4
 229 007c 85B0     		sub	sp, sp, #20
 230              	.LCFI25:
 231              		.cfi_def_cfa_offset 24
 232 007e 00AF     		add	r7, sp, #0
 233              	.LCFI26:
 234              		.cfi_def_cfa_register 7
 235 0080 F860     		str	r0, [r7, #12]
 236 0082 B960     		str	r1, [r7, #8]
 237 0084 7A60     		str	r2, [r7, #4]
  27:../../source/include/os_lib/double_linked_list.h ****     next->prev = new;
 238              		.loc 2 27 0
 239 0086 7B68     		ldr	r3, [r7, #4]
 240 0088 FA68     		ldr	r2, [r7, #12]
 241 008a 5A60     		str	r2, [r3, #4]
  28:../../source/include/os_lib/double_linked_list.h ****     new->next = next;
 242              		.loc 2 28 0
 243 008c FB68     		ldr	r3, [r7, #12]
 244 008e 7A68     		ldr	r2, [r7, #4]
 245 0090 1A60     		str	r2, [r3]
  29:../../source/include/os_lib/double_linked_list.h ****     new->prev = prev;
 246              		.loc 2 29 0
 247 0092 FB68     		ldr	r3, [r7, #12]
 248 0094 BA68     		ldr	r2, [r7, #8]
 249 0096 5A60     		str	r2, [r3, #4]
  30:../../source/include/os_lib/double_linked_list.h ****     prev->next = new;
 250              		.loc 2 30 0
 251 0098 BB68     		ldr	r3, [r7, #8]
 252 009a FA68     		ldr	r2, [r7, #12]
 253 009c 1A60     		str	r2, [r3]
  31:../../source/include/os_lib/double_linked_list.h **** }
 254              		.loc 2 31 0
 255 009e 00BF     		nop
 256 00a0 1437     		adds	r7, r7, #20
 257              	.LCFI27:
 258              		.cfi_def_cfa_offset 4
 259 00a2 BD46     		mov	sp, r7
 260              	.LCFI28:
 261              		.cfi_def_cfa_register 13
 262              		@ sp needed
 263 00a4 80BC     		pop	{r7}
 264              	.LCFI29:
 265              		.cfi_restore 7
 266              		.cfi_def_cfa_offset 0
 267 00a6 7047     		bx	lr
 268              		.cfi_endproc
 269              	.LFE5:
 270              		.size	__list_add, .-__list_add
 271              		.align	1
 272              		.syntax unified
 273              		.thumb
 274              		.thumb_func
 275              		.fpu softvfp
 276              		.type	list_add, %function
 277              	list_add:
 278              	.LFB6:
  32:../../source/include/os_lib/double_linked_list.h **** 
ARM GAS  G:\Users\Jaxb\AppData\Local\Temp\ccmQuTYK.s 			page 7


  33:../../source/include/os_lib/double_linked_list.h **** 
  34:../../source/include/os_lib/double_linked_list.h **** static inline void list_add(struct list_head *new, struct list_head *head)
  35:../../source/include/os_lib/double_linked_list.h **** {
 279              		.loc 2 35 0
 280              		.cfi_startproc
 281              		@ args = 0, pretend = 0, frame = 8
 282              		@ frame_needed = 1, uses_anonymous_args = 0
 283 00a8 80B5     		push	{r7, lr}
 284              	.LCFI30:
 285              		.cfi_def_cfa_offset 8
 286              		.cfi_offset 7, -8
 287              		.cfi_offset 14, -4
 288 00aa 82B0     		sub	sp, sp, #8
 289              	.LCFI31:
 290              		.cfi_def_cfa_offset 16
 291 00ac 00AF     		add	r7, sp, #0
 292              	.LCFI32:
 293              		.cfi_def_cfa_register 7
 294 00ae 7860     		str	r0, [r7, #4]
 295 00b0 3960     		str	r1, [r7]
  36:../../source/include/os_lib/double_linked_list.h ****     __list_add(new, head, head->next);
 296              		.loc 2 36 0
 297 00b2 3B68     		ldr	r3, [r7]
 298 00b4 1B68     		ldr	r3, [r3]
 299 00b6 1A46     		mov	r2, r3
 300 00b8 3968     		ldr	r1, [r7]
 301 00ba 7868     		ldr	r0, [r7, #4]
 302 00bc FFF7DDFF 		bl	__list_add
  37:../../source/include/os_lib/double_linked_list.h **** }
 303              		.loc 2 37 0
 304 00c0 00BF     		nop
 305 00c2 0837     		adds	r7, r7, #8
 306              	.LCFI33:
 307              		.cfi_def_cfa_offset 8
 308 00c4 BD46     		mov	sp, r7
 309              	.LCFI34:
 310              		.cfi_def_cfa_register 13
 311              		@ sp needed
 312 00c6 80BD     		pop	{r7, pc}
 313              		.cfi_endproc
 314              	.LFE6:
 315              		.size	list_add, .-list_add
 316              		.align	1
 317              		.global	insert_into_cache_chain
 318              		.syntax unified
 319              		.thumb
 320              		.thumb_func
 321              		.fpu softvfp
 322              		.type	insert_into_cache_chain, %function
 323              	insert_into_cache_chain:
 324              	.LFB14:
 325              		.file 3 "../../source/src/kernel/OS_LIB/slab.c"
   1:../../source/src/kernel/OS_LIB/slab.c **** #include <slab.h>
   2:../../source/src/kernel/OS_LIB/slab.c **** #include <myassert.h>
   3:../../source/src/kernel/OS_LIB/slab.c **** 
   4:../../source/src/kernel/OS_LIB/slab.c **** 
   5:../../source/src/kernel/OS_LIB/slab.c **** void insert_into_cache_chain(
ARM GAS  G:\Users\Jaxb\AppData\Local\Temp\ccmQuTYK.s 			page 8


   6:../../source/src/kernel/OS_LIB/slab.c **** 	struct singly_list_head *head,
   7:../../source/src/kernel/OS_LIB/slab.c **** 	struct kmem_cache *kmem_cache_ptr,
   8:../../source/src/kernel/OS_LIB/slab.c **** 	unsigned int block_size/*bytes*/
   9:../../source/src/kernel/OS_LIB/slab.c **** 	)
  10:../../source/src/kernel/OS_LIB/slab.c **** {
 326              		.loc 3 10 0
 327              		.cfi_startproc
 328              		@ args = 0, pretend = 0, frame = 48
 329              		@ frame_needed = 1, uses_anonymous_args = 0
 330 00c8 80B5     		push	{r7, lr}
 331              	.LCFI35:
 332              		.cfi_def_cfa_offset 8
 333              		.cfi_offset 7, -8
 334              		.cfi_offset 14, -4
 335 00ca 8CB0     		sub	sp, sp, #48
 336              	.LCFI36:
 337              		.cfi_def_cfa_offset 56
 338 00cc 00AF     		add	r7, sp, #0
 339              	.LCFI37:
 340              		.cfi_def_cfa_register 7
 341 00ce F860     		str	r0, [r7, #12]
 342 00d0 B960     		str	r1, [r7, #8]
 343 00d2 7A60     		str	r2, [r7, #4]
  11:../../source/src/kernel/OS_LIB/slab.c **** 	struct kmem_cache *pos,*n;
  12:../../source/src/kernel/OS_LIB/slab.c **** 	INIT_SINGLY_LIST_HEAD(&kmem_cache_ptr->node);
 344              		.loc 3 12 0
 345 00d4 BB68     		ldr	r3, [r7, #8]
 346 00d6 1846     		mov	r0, r3
 347 00d8 FFF792FF 		bl	INIT_SINGLY_LIST_HEAD
  13:../../source/src/kernel/OS_LIB/slab.c **** 	kmem_cache_ptr->kmem_cache_slab_size = block_size;
 348              		.loc 3 13 0
 349 00dc BB68     		ldr	r3, [r7, #8]
 350 00de 7A68     		ldr	r2, [r7, #4]
 351 00e0 5A60     		str	r2, [r3, #4]
 352              	.LBB2:
  14:../../source/src/kernel/OS_LIB/slab.c **** 	pos = singly_list_entry(head->next,struct kmem_cache,node);
 353              		.loc 3 14 0
 354 00e2 FB68     		ldr	r3, [r7, #12]
 355 00e4 1B68     		ldr	r3, [r3]
 356 00e6 7B62     		str	r3, [r7, #36]
 357 00e8 7B6A     		ldr	r3, [r7, #36]
 358              	.LBE2:
 359 00ea FB62     		str	r3, [r7, #44]
  15:../../source/src/kernel/OS_LIB/slab.c **** 	if((singly_list_empty(head)) || 
 360              		.loc 3 15 0
 361 00ec F868     		ldr	r0, [r7, #12]
 362 00ee FFF7A4FF 		bl	singly_list_empty
 363 00f2 0346     		mov	r3, r0
 364 00f4 002B     		cmp	r3, #0
 365 00f6 07D1     		bne	.L9
 366              	.LBB3:
  16:../../source/src/kernel/OS_LIB/slab.c **** 			(singly_list_entry(head->next,struct kmem_cache,node)->kmem_cache_slab_size > block_size))
 367              		.loc 3 16 0 discriminator 1
 368 00f8 FB68     		ldr	r3, [r7, #12]
 369 00fa 1B68     		ldr	r3, [r3]
 370 00fc 3B62     		str	r3, [r7, #32]
 371 00fe 3B6A     		ldr	r3, [r7, #32]
ARM GAS  G:\Users\Jaxb\AppData\Local\Temp\ccmQuTYK.s 			page 9


 372              	.LBE3:
 373 0100 5B68     		ldr	r3, [r3, #4]
  15:../../source/src/kernel/OS_LIB/slab.c **** 	if((singly_list_empty(head)) || 
 374              		.loc 3 15 0 discriminator 1
 375 0102 7A68     		ldr	r2, [r7, #4]
 376 0104 9A42     		cmp	r2, r3
 377 0106 05D2     		bcs	.L10
 378              	.L9:
  17:../../source/src/kernel/OS_LIB/slab.c **** 	{
  18:../../source/src/kernel/OS_LIB/slab.c **** 		singly_list_add(&kmem_cache_ptr->node,head);
 379              		.loc 3 18 0
 380 0108 BB68     		ldr	r3, [r7, #8]
 381 010a F968     		ldr	r1, [r7, #12]
 382 010c 1846     		mov	r0, r3
 383 010e FFF783FF 		bl	singly_list_add
 384 0112 27E0     		b	.L11
 385              	.L10:
 386              	.LBB4:
  19:../../source/src/kernel/OS_LIB/slab.c **** 	}
  20:../../source/src/kernel/OS_LIB/slab.c **** 	else
  21:../../source/src/kernel/OS_LIB/slab.c **** 	{
  22:../../source/src/kernel/OS_LIB/slab.c **** 		singly_list_for_each_entry_safe_n(pos,n,head,node)
 387              		.loc 3 22 0
 388 0114 FB68     		ldr	r3, [r7, #12]
 389 0116 1B68     		ldr	r3, [r3]
 390 0118 FB61     		str	r3, [r7, #28]
 391 011a FB69     		ldr	r3, [r7, #28]
 392              	.LBE4:
 393 011c FB62     		str	r3, [r7, #44]
 394              	.LBB5:
 395 011e FB6A     		ldr	r3, [r7, #44]
 396 0120 1B68     		ldr	r3, [r3]
 397 0122 BB61     		str	r3, [r7, #24]
 398 0124 BB69     		ldr	r3, [r7, #24]
 399              	.LBE5:
 400 0126 BB62     		str	r3, [r7, #40]
 401 0128 12E0     		b	.L12
 402              	.L14:
  23:../../source/src/kernel/OS_LIB/slab.c **** 		{
  24:../../source/src/kernel/OS_LIB/slab.c **** 			if(n->kmem_cache_slab_size > block_size)
 403              		.loc 3 24 0
 404 012a BB6A     		ldr	r3, [r7, #40]
 405 012c 5B68     		ldr	r3, [r3, #4]
 406 012e 7A68     		ldr	r2, [r7, #4]
 407 0130 9A42     		cmp	r2, r3
 408 0132 06D2     		bcs	.L13
  25:../../source/src/kernel/OS_LIB/slab.c **** 			{
  26:../../source/src/kernel/OS_LIB/slab.c **** 				singly_list_add(&kmem_cache_ptr->node,&pos->node);
 409              		.loc 3 26 0
 410 0134 BB68     		ldr	r3, [r7, #8]
 411 0136 FA6A     		ldr	r2, [r7, #44]
 412 0138 1146     		mov	r1, r2
 413 013a 1846     		mov	r0, r3
 414 013c FFF76CFF 		bl	singly_list_add
  27:../../source/src/kernel/OS_LIB/slab.c **** 				goto outside ;
 415              		.loc 3 27 0
 416 0140 10E0     		b	.L11
ARM GAS  G:\Users\Jaxb\AppData\Local\Temp\ccmQuTYK.s 			page 10


 417              	.L13:
  22:../../source/src/kernel/OS_LIB/slab.c **** 		{
 418              		.loc 3 22 0 discriminator 2
 419 0142 BB6A     		ldr	r3, [r7, #40]
 420 0144 FB62     		str	r3, [r7, #44]
 421              	.LBB6:
 422 0146 BB6A     		ldr	r3, [r7, #40]
 423 0148 1B68     		ldr	r3, [r3]
 424 014a 7B61     		str	r3, [r7, #20]
 425 014c 7B69     		ldr	r3, [r7, #20]
 426              	.LBE6:
 427 014e BB62     		str	r3, [r7, #40]
 428              	.L12:
  22:../../source/src/kernel/OS_LIB/slab.c **** 		{
 429              		.loc 3 22 0 is_stmt 0 discriminator 1
 430 0150 BB6A     		ldr	r3, [r7, #40]
 431 0152 FA68     		ldr	r2, [r7, #12]
 432 0154 9A42     		cmp	r2, r3
 433 0156 E8D1     		bne	.L14
  28:../../source/src/kernel/OS_LIB/slab.c **** 			}
  29:../../source/src/kernel/OS_LIB/slab.c **** 		}
  30:../../source/src/kernel/OS_LIB/slab.c **** 		singly_list_add(&kmem_cache_ptr->node,&pos->node);
 434              		.loc 3 30 0 is_stmt 1
 435 0158 BB68     		ldr	r3, [r7, #8]
 436 015a FA6A     		ldr	r2, [r7, #44]
 437 015c 1146     		mov	r1, r2
 438 015e 1846     		mov	r0, r3
 439 0160 FFF75AFF 		bl	singly_list_add
 440              	.L11:
  31:../../source/src/kernel/OS_LIB/slab.c **** 	}
  32:../../source/src/kernel/OS_LIB/slab.c **** outside:
  33:../../source/src/kernel/OS_LIB/slab.c **** 	INIT_LIST_HEAD(&kmem_cache_ptr->slabs_full);
 441              		.loc 3 33 0
 442 0164 BB68     		ldr	r3, [r7, #8]
 443 0166 0833     		adds	r3, r3, #8
 444 0168 1846     		mov	r0, r3
 445 016a FFF777FF 		bl	INIT_LIST_HEAD
  34:../../source/src/kernel/OS_LIB/slab.c **** 	INIT_LIST_HEAD(&kmem_cache_ptr->slabs_partial);
 446              		.loc 3 34 0
 447 016e BB68     		ldr	r3, [r7, #8]
 448 0170 1033     		adds	r3, r3, #16
 449 0172 1846     		mov	r0, r3
 450 0174 FFF772FF 		bl	INIT_LIST_HEAD
  35:../../source/src/kernel/OS_LIB/slab.c **** 	INIT_LIST_HEAD(&kmem_cache_ptr->slabs_empty);
 451              		.loc 3 35 0
 452 0178 BB68     		ldr	r3, [r7, #8]
 453 017a 1833     		adds	r3, r3, #24
 454 017c 1846     		mov	r0, r3
 455 017e FFF76DFF 		bl	INIT_LIST_HEAD
  36:../../source/src/kernel/OS_LIB/slab.c **** }
 456              		.loc 3 36 0
 457 0182 00BF     		nop
 458 0184 3037     		adds	r7, r7, #48
 459              	.LCFI38:
 460              		.cfi_def_cfa_offset 8
 461 0186 BD46     		mov	sp, r7
 462              	.LCFI39:
ARM GAS  G:\Users\Jaxb\AppData\Local\Temp\ccmQuTYK.s 			page 11


 463              		.cfi_def_cfa_register 13
 464              		@ sp needed
 465 0188 80BD     		pop	{r7, pc}
 466              		.cfi_endproc
 467              	.LFE14:
 468              		.size	insert_into_cache_chain, .-insert_into_cache_chain
 469              		.align	1
 470              		.global	find_first_bigger_cache
 471              		.syntax unified
 472              		.thumb
 473              		.thumb_func
 474              		.fpu softvfp
 475              		.type	find_first_bigger_cache, %function
 476              	find_first_bigger_cache:
 477              	.LFB15:
  37:../../source/src/kernel/OS_LIB/slab.c **** 
  38:../../source/src/kernel/OS_LIB/slab.c **** struct kmem_cache *find_first_bigger_cache(struct singly_list_head *head,unsigned int size)/* polym
  39:../../source/src/kernel/OS_LIB/slab.c **** {
 478              		.loc 3 39 0
 479              		.cfi_startproc
 480              		@ args = 0, pretend = 0, frame = 24
 481              		@ frame_needed = 1, uses_anonymous_args = 0
 482              		@ link register save eliminated.
 483 018a 80B4     		push	{r7}
 484              	.LCFI40:
 485              		.cfi_def_cfa_offset 4
 486              		.cfi_offset 7, -4
 487 018c 87B0     		sub	sp, sp, #28
 488              	.LCFI41:
 489              		.cfi_def_cfa_offset 32
 490 018e 00AF     		add	r7, sp, #0
 491              	.LCFI42:
 492              		.cfi_def_cfa_register 7
 493 0190 7860     		str	r0, [r7, #4]
 494 0192 3960     		str	r1, [r7]
 495              	.LBB7:
  40:../../source/src/kernel/OS_LIB/slab.c **** 	struct kmem_cache *kmem_cache_ptr;
  41:../../source/src/kernel/OS_LIB/slab.c **** 	singly_list_for_each_entry(kmem_cache_ptr, head ,node)
 496              		.loc 3 41 0
 497 0194 7B68     		ldr	r3, [r7, #4]
 498 0196 1B68     		ldr	r3, [r3]
 499 0198 3B61     		str	r3, [r7, #16]
 500 019a 3B69     		ldr	r3, [r7, #16]
 501              	.LBE7:
 502 019c 7B61     		str	r3, [r7, #20]
 503 019e 0BE0     		b	.L16
 504              	.L19:
  42:../../source/src/kernel/OS_LIB/slab.c **** 	{
  43:../../source/src/kernel/OS_LIB/slab.c ****       if(size <= kmem_cache_ptr->kmem_cache_slab_size)
 505              		.loc 3 43 0
 506 01a0 7B69     		ldr	r3, [r7, #20]
 507 01a2 5B68     		ldr	r3, [r3, #4]
 508 01a4 3A68     		ldr	r2, [r7]
 509 01a6 9A42     		cmp	r2, r3
 510 01a8 01D8     		bhi	.L17
  44:../../source/src/kernel/OS_LIB/slab.c ****       {
  45:../../source/src/kernel/OS_LIB/slab.c ****       	return kmem_cache_ptr;
ARM GAS  G:\Users\Jaxb\AppData\Local\Temp\ccmQuTYK.s 			page 12


 511              		.loc 3 45 0
 512 01aa 7B69     		ldr	r3, [r7, #20]
 513 01ac 09E0     		b	.L18
 514              	.L17:
 515              	.LBB8:
  41:../../source/src/kernel/OS_LIB/slab.c **** 	{
 516              		.loc 3 41 0 discriminator 2
 517 01ae 7B69     		ldr	r3, [r7, #20]
 518 01b0 1B68     		ldr	r3, [r3]
 519 01b2 FB60     		str	r3, [r7, #12]
 520 01b4 FB68     		ldr	r3, [r7, #12]
 521              	.LBE8:
 522 01b6 7B61     		str	r3, [r7, #20]
 523              	.L16:
  41:../../source/src/kernel/OS_LIB/slab.c **** 	{
 524              		.loc 3 41 0 is_stmt 0 discriminator 1
 525 01b8 7B69     		ldr	r3, [r7, #20]
 526 01ba 7A68     		ldr	r2, [r7, #4]
 527 01bc 9A42     		cmp	r2, r3
 528 01be EFD1     		bne	.L19
  46:../../source/src/kernel/OS_LIB/slab.c ****       }
  47:../../source/src/kernel/OS_LIB/slab.c **** 	}
  48:../../source/src/kernel/OS_LIB/slab.c **** 	return NULL;
 529              		.loc 3 48 0 is_stmt 1
 530 01c0 0023     		movs	r3, #0
 531              	.L18:
  49:../../source/src/kernel/OS_LIB/slab.c **** }
 532              		.loc 3 49 0
 533 01c2 1846     		mov	r0, r3
 534 01c4 1C37     		adds	r7, r7, #28
 535              	.LCFI43:
 536              		.cfi_def_cfa_offset 4
 537 01c6 BD46     		mov	sp, r7
 538              	.LCFI44:
 539              		.cfi_def_cfa_register 13
 540              		@ sp needed
 541 01c8 80BC     		pop	{r7}
 542              	.LCFI45:
 543              		.cfi_restore 7
 544              		.cfi_def_cfa_offset 0
 545 01ca 7047     		bx	lr
 546              		.cfi_endproc
 547              	.LFE15:
 548              		.size	find_first_bigger_cache, .-find_first_bigger_cache
 549              		.section	.rodata
 550              		.align	2
 551              	.LC0:
 552 0000 2E2E2F2E 		.ascii	"../../source/src/kernel/OS_LIB/slab.c\000"
 552      2E2F736F 
 552      75726365 
 552      2F737263 
 552      2F6B6572 
 553              		.text
 554              		.align	1
 555              		.global	load_slab
 556              		.syntax unified
 557              		.thumb
ARM GAS  G:\Users\Jaxb\AppData\Local\Temp\ccmQuTYK.s 			page 13


 558              		.thumb_func
 559              		.fpu softvfp
 560              		.type	load_slab, %function
 561              	load_slab:
 562              	.LFB16:
  50:../../source/src/kernel/OS_LIB/slab.c **** 
  51:../../source/src/kernel/OS_LIB/slab.c **** void load_slab(
  52:../../source/src/kernel/OS_LIB/slab.c **** 	void *start_ptr,
  53:../../source/src/kernel/OS_LIB/slab.c **** 	void *end_ptr,
  54:../../source/src/kernel/OS_LIB/slab.c **** 	unsigned int   block_size,
  55:../../source/src/kernel/OS_LIB/slab.c **** 	struct list_head *slab_chain_ptr
  56:../../source/src/kernel/OS_LIB/slab.c **** 	)
  57:../../source/src/kernel/OS_LIB/slab.c **** {
 563              		.loc 3 57 0
 564              		.cfi_startproc
 565              		@ args = 0, pretend = 0, frame = 40
 566              		@ frame_needed = 1, uses_anonymous_args = 0
 567 01cc 80B5     		push	{r7, lr}
 568              	.LCFI46:
 569              		.cfi_def_cfa_offset 8
 570              		.cfi_offset 7, -8
 571              		.cfi_offset 14, -4
 572 01ce 8AB0     		sub	sp, sp, #40
 573              	.LCFI47:
 574              		.cfi_def_cfa_offset 48
 575 01d0 00AF     		add	r7, sp, #0
 576              	.LCFI48:
 577              		.cfi_def_cfa_register 7
 578 01d2 F860     		str	r0, [r7, #12]
 579 01d4 B960     		str	r1, [r7, #8]
 580 01d6 7A60     		str	r2, [r7, #4]
 581 01d8 3B60     		str	r3, [r7]
  58:../../source/src/kernel/OS_LIB/slab.c **** #if CONFIG_ASSERT_DEBUG
  59:../../source/src/kernel/OS_LIB/slab.c **** 	int i = 0;
 582              		.loc 3 59 0
 583 01da 0023     		movs	r3, #0
 584 01dc 7B62     		str	r3, [r7, #36]
  60:../../source/src/kernel/OS_LIB/slab.c **** #endif
  61:../../source/src/kernel/OS_LIB/slab.c **** 	struct list_head *list_head_ptr;
  62:../../source/src/kernel/OS_LIB/slab.c **** 	void *boundary_ptr;
  63:../../source/src/kernel/OS_LIB/slab.c **** 	struct slab *slab_ptr = (struct slab *)start_ptr;
 585              		.loc 3 63 0
 586 01de FB68     		ldr	r3, [r7, #12]
 587 01e0 FB61     		str	r3, [r7, #28]
  64:../../source/src/kernel/OS_LIB/slab.c **** 	list_add(&slab_ptr->slab_chain,slab_chain_ptr);
 588              		.loc 3 64 0
 589 01e2 FB69     		ldr	r3, [r7, #28]
 590 01e4 1433     		adds	r3, r3, #20
 591 01e6 3968     		ldr	r1, [r7]
 592 01e8 1846     		mov	r0, r3
 593 01ea FFF75DFF 		bl	list_add
  65:../../source/src/kernel/OS_LIB/slab.c **** 	slab_ptr->start_ptr = start_ptr;
 594              		.loc 3 65 0
 595 01ee FB69     		ldr	r3, [r7, #28]
 596 01f0 FA68     		ldr	r2, [r7, #12]
 597 01f2 1A60     		str	r2, [r3]
  66:../../source/src/kernel/OS_LIB/slab.c **** 	slab_ptr->end_ptr   = end_ptr;
ARM GAS  G:\Users\Jaxb\AppData\Local\Temp\ccmQuTYK.s 			page 14


 598              		.loc 3 66 0
 599 01f4 FB69     		ldr	r3, [r7, #28]
 600 01f6 BA68     		ldr	r2, [r7, #8]
 601 01f8 5A60     		str	r2, [r3, #4]
  67:../../source/src/kernel/OS_LIB/slab.c **** 	slab_ptr->block_size = block_size;
 602              		.loc 3 67 0
 603 01fa FB69     		ldr	r3, [r7, #28]
 604 01fc 7A68     		ldr	r2, [r7, #4]
 605 01fe 1A61     		str	r2, [r3, #16]
  68:../../source/src/kernel/OS_LIB/slab.c **** 	unsigned int room_size = (unsigned int)((unsigned int)end_ptr - (unsigned int)start_ptr);
 606              		.loc 3 68 0
 607 0200 BA68     		ldr	r2, [r7, #8]
 608 0202 FB68     		ldr	r3, [r7, #12]
 609 0204 D31A     		subs	r3, r2, r3
 610 0206 BB61     		str	r3, [r7, #24]
  69:../../source/src/kernel/OS_LIB/slab.c **** 	slab_ptr->full_block_num = (room_size - sizeof(struct slab)) / block_size;
 611              		.loc 3 69 0
 612 0208 BB69     		ldr	r3, [r7, #24]
 613 020a A3F12402 		sub	r2, r3, #36
 614 020e 7B68     		ldr	r3, [r7, #4]
 615 0210 B2FBF3F2 		udiv	r2, r2, r3
 616 0214 FB69     		ldr	r3, [r7, #28]
 617 0216 DA60     		str	r2, [r3, #12]
  70:../../source/src/kernel/OS_LIB/slab.c **** 	slab_ptr->current_block_num = slab_ptr->full_block_num;
 618              		.loc 3 70 0
 619 0218 FB69     		ldr	r3, [r7, #28]
 620 021a DA68     		ldr	r2, [r3, #12]
 621 021c FB69     		ldr	r3, [r7, #28]
 622 021e 9A60     		str	r2, [r3, #8]
  71:../../source/src/kernel/OS_LIB/slab.c **** 	INIT_LIST_HEAD(&slab_ptr->block_head);
 623              		.loc 3 71 0
 624 0220 FB69     		ldr	r3, [r7, #28]
 625 0222 1C33     		adds	r3, r3, #28
 626 0224 1846     		mov	r0, r3
 627 0226 FFF719FF 		bl	INIT_LIST_HEAD
  72:../../source/src/kernel/OS_LIB/slab.c **** 	list_head_ptr = (struct list_head *)((int)end_ptr - block_size);
 628              		.loc 3 72 0
 629 022a BA68     		ldr	r2, [r7, #8]
 630 022c 7B68     		ldr	r3, [r7, #4]
 631 022e D31A     		subs	r3, r2, r3
 632 0230 3B62     		str	r3, [r7, #32]
  73:../../source/src/kernel/OS_LIB/slab.c **** 	boundary_ptr = (void *)((unsigned int)start_ptr + sizeof(struct slab));
 633              		.loc 3 73 0
 634 0232 FB68     		ldr	r3, [r7, #12]
 635 0234 2433     		adds	r3, r3, #36
 636 0236 7B61     		str	r3, [r7, #20]
  74:../../source/src/kernel/OS_LIB/slab.c **** 	while((unsigned int)list_head_ptr >= (unsigned int)boundary_ptr)
 637              		.loc 3 74 0
 638 0238 15E0     		b	.L21
 639              	.L22:
  75:../../source/src/kernel/OS_LIB/slab.c **** 	{
  76:../../source/src/kernel/OS_LIB/slab.c **** 		list_add(list_head_ptr,&slab_ptr->block_head);
 640              		.loc 3 76 0
 641 023a FB69     		ldr	r3, [r7, #28]
 642 023c 1C33     		adds	r3, r3, #28
 643 023e 1946     		mov	r1, r3
 644 0240 386A     		ldr	r0, [r7, #32]
ARM GAS  G:\Users\Jaxb\AppData\Local\Temp\ccmQuTYK.s 			page 15


 645 0242 FFF731FF 		bl	list_add
  77:../../source/src/kernel/OS_LIB/slab.c **** 		list_head_ptr = (struct list_head *)((unsigned int)list_head_ptr - block_size);
 646              		.loc 3 77 0
 647 0246 3A6A     		ldr	r2, [r7, #32]
 648 0248 7B68     		ldr	r3, [r7, #4]
 649 024a D31A     		subs	r3, r2, r3
 650 024c 3B62     		str	r3, [r7, #32]
  78:../../source/src/kernel/OS_LIB/slab.c **** 		ASSERT(++i <= slab_ptr->full_block_num);
 651              		.loc 3 78 0
 652 024e 7B6A     		ldr	r3, [r7, #36]
 653 0250 0133     		adds	r3, r3, #1
 654 0252 7B62     		str	r3, [r7, #36]
 655 0254 7A6A     		ldr	r2, [r7, #36]
 656 0256 FB69     		ldr	r3, [r7, #28]
 657 0258 DB68     		ldr	r3, [r3, #12]
 658 025a 9A42     		cmp	r2, r3
 659 025c 03D9     		bls	.L21
 660              		.loc 3 78 0 is_stmt 0 discriminator 1
 661 025e 4E21     		movs	r1, #78
 662 0260 0548     		ldr	r0, .L23
 663 0262 FFF7FEFF 		bl	_ASSERT
 664              	.L21:
  74:../../source/src/kernel/OS_LIB/slab.c **** 	{
 665              		.loc 3 74 0 is_stmt 1
 666 0266 3A6A     		ldr	r2, [r7, #32]
 667 0268 7B69     		ldr	r3, [r7, #20]
 668 026a 9A42     		cmp	r2, r3
 669 026c E5D2     		bcs	.L22
  79:../../source/src/kernel/OS_LIB/slab.c **** 	}
  80:../../source/src/kernel/OS_LIB/slab.c **** }
 670              		.loc 3 80 0
 671 026e 00BF     		nop
 672 0270 2837     		adds	r7, r7, #40
 673              	.LCFI49:
 674              		.cfi_def_cfa_offset 8
 675 0272 BD46     		mov	sp, r7
 676              	.LCFI50:
 677              		.cfi_def_cfa_register 13
 678              		@ sp needed
 679 0274 80BD     		pop	{r7, pc}
 680              	.L24:
 681 0276 00BF     		.align	2
 682              	.L23:
 683 0278 00000000 		.word	.LC0
 684              		.cfi_endproc
 685              	.LFE16:
 686              		.size	load_slab, .-load_slab
 687              	.Letext0:
 688              		.file 4 "../../source/include/os_lib/slab.h"
 689              		.file 5 "../../source/include/os_cpu/kakaosstdint.h"