ARM GAS  G:\Users\Jaxb\AppData\Local\Temp\ccbTvrRb.s 			page 1


   1              		.cpu cortex-m3
   2              		.eabi_attribute 20, 1
   3              		.eabi_attribute 21, 1
   4              		.eabi_attribute 23, 3
   5              		.eabi_attribute 24, 1
   6              		.eabi_attribute 25, 1
   7              		.eabi_attribute 26, 1
   8              		.eabi_attribute 30, 2
   9              		.eabi_attribute 34, 1
  10              		.eabi_attribute 18, 4
  11              		.file	"sram.c"
  12              		.text
  13              	.Ltext0:
  14              		.cfi_sections	.debug_frame
  15              		.align	1
  16              		.p2align 2,,3
  17              		.global	FSMC_SRAM_Init
  18              		.syntax unified
  19              		.thumb
  20              		.thumb_func
  21              		.fpu softvfp
  22              		.type	FSMC_SRAM_Init, %function
  23              	FSMC_SRAM_Init:
  24              	.LFB30:
  25              		.file 1 "../../source/src/kernel/OS_CPU/bsp/sram.c"
   1:../../source/src/kernel/OS_CPU/bsp/sram.c **** /**
   2:../../source/src/kernel/OS_CPU/bsp/sram.c ****   ******************************************************************************
   3:../../source/src/kernel/OS_CPU/bsp/sram.c ****   * @file    sram.c
   4:../../source/src/kernel/OS_CPU/bsp/sram.c ****   * @author  fire
   5:../../source/src/kernel/OS_CPU/bsp/sram.c ****   * @version V1.0
   6:../../source/src/kernel/OS_CPU/bsp/sram.c ****   * @date    2015-xx-xx
   7:../../source/src/kernel/OS_CPU/bsp/sram.c ****   * @brief   sram应用函数接口
   8:../../source/src/kernel/OS_CPU/bsp/sram.c ****   ******************************************************************************
   9:../../source/src/kernel/OS_CPU/bsp/sram.c ****   * @attention
  10:../../source/src/kernel/OS_CPU/bsp/sram.c ****   *
  11:../../source/src/kernel/OS_CPU/bsp/sram.c ****   * 实验平台:秉火 F103-霸道 STM32  开发板  
  12:../../source/src/kernel/OS_CPU/bsp/sram.c ****   * 论坛    :http://www.firebbs.cn
  13:../../source/src/kernel/OS_CPU/bsp/sram.c ****   * 淘宝    :https://fire-stm32.taobao.com
  14:../../source/src/kernel/OS_CPU/bsp/sram.c ****   *
  15:../../source/src/kernel/OS_CPU/bsp/sram.c ****   ******************************************************************************
  16:../../source/src/kernel/OS_CPU/bsp/sram.c ****   */
  17:../../source/src/kernel/OS_CPU/bsp/sram.c **** 
  18:../../source/src/kernel/OS_CPU/bsp/sram.c **** 
  19:../../source/src/kernel/OS_CPU/bsp/sram.c **** 
  20:../../source/src/kernel/OS_CPU/bsp/sram.c **** #include "sram.h"	  
  21:../../source/src/kernel/OS_CPU/bsp/sram.c **** #include "stm32f10x_fsmc.h"
  22:../../source/src/kernel/OS_CPU/bsp/sram.c **** 
  23:../../source/src/kernel/OS_CPU/bsp/sram.c **** 
  24:../../source/src/kernel/OS_CPU/bsp/sram.c **** /**
  25:../../source/src/kernel/OS_CPU/bsp/sram.c ****   * @brief  初始化控制SRAM的IO
  26:../../source/src/kernel/OS_CPU/bsp/sram.c ****   * @param  无
  27:../../source/src/kernel/OS_CPU/bsp/sram.c ****   * @retval 无
  28:../../source/src/kernel/OS_CPU/bsp/sram.c ****   */
  29:../../source/src/kernel/OS_CPU/bsp/sram.c **** static void SRAM_GPIO_Config(void)
  30:../../source/src/kernel/OS_CPU/bsp/sram.c **** {
  31:../../source/src/kernel/OS_CPU/bsp/sram.c **** 	GPIO_InitTypeDef  GPIO_InitStructure;
  32:../../source/src/kernel/OS_CPU/bsp/sram.c ****  
ARM GAS  G:\Users\Jaxb\AppData\Local\Temp\ccbTvrRb.s 			page 2


  33:../../source/src/kernel/OS_CPU/bsp/sram.c ****   /* 使能SRAM相关的GPIO时钟 */
  34:../../source/src/kernel/OS_CPU/bsp/sram.c **** 
  35:../../source/src/kernel/OS_CPU/bsp/sram.c ****                          /*地址信号线*/
  36:../../source/src/kernel/OS_CPU/bsp/sram.c ****   RCC_APB2PeriphClockCmd(FSMC_A0_GPIO_CLK | FSMC_A1_GPIO_CLK | FSMC_A2_GPIO_CLK | 
  37:../../source/src/kernel/OS_CPU/bsp/sram.c ****                          FSMC_A3_GPIO_CLK | FSMC_A4_GPIO_CLK | FSMC_A5_GPIO_CLK |
  38:../../source/src/kernel/OS_CPU/bsp/sram.c ****                          FSMC_A6_GPIO_CLK | FSMC_A7_GPIO_CLK | FSMC_A8_GPIO_CLK |
  39:../../source/src/kernel/OS_CPU/bsp/sram.c ****                          FSMC_A9_GPIO_CLK | FSMC_A10_GPIO_CLK| FSMC_A11_GPIO_CLK| 
  40:../../source/src/kernel/OS_CPU/bsp/sram.c **** 												 FSMC_A12_GPIO_CLK| FSMC_A13_GPIO_CLK|FSMC_A14_GPIO_CLK|
  41:../../source/src/kernel/OS_CPU/bsp/sram.c **** 												 FSMC_A15_GPIO_CLK|FSMC_A16_GPIO_CLK|FSMC_A17_GPIO_CLK|FSMC_A18_GPIO_CLK|
  42:../../source/src/kernel/OS_CPU/bsp/sram.c ****                          /*数据信号线*/
  43:../../source/src/kernel/OS_CPU/bsp/sram.c ****                          FSMC_D0_GPIO_CLK | FSMC_D1_GPIO_CLK | FSMC_D2_GPIO_CLK | 
  44:../../source/src/kernel/OS_CPU/bsp/sram.c ****                          FSMC_D3_GPIO_CLK | FSMC_D4_GPIO_CLK | FSMC_D5_GPIO_CLK |
  45:../../source/src/kernel/OS_CPU/bsp/sram.c ****                          FSMC_D6_GPIO_CLK | FSMC_D7_GPIO_CLK | FSMC_D8_GPIO_CLK |
  46:../../source/src/kernel/OS_CPU/bsp/sram.c ****                          FSMC_D9_GPIO_CLK | FSMC_D10_GPIO_CLK| FSMC_D11_GPIO_CLK|
  47:../../source/src/kernel/OS_CPU/bsp/sram.c ****                          FSMC_D12_GPIO_CLK| FSMC_D13_GPIO_CLK| FSMC_D14_GPIO_CLK|
  48:../../source/src/kernel/OS_CPU/bsp/sram.c ****                          FSMC_D15_GPIO_CLK|  
  49:../../source/src/kernel/OS_CPU/bsp/sram.c ****                          /*控制信号线*/
  50:../../source/src/kernel/OS_CPU/bsp/sram.c ****                          FSMC_CS_GPIO_CLK  | FSMC_WE_GPIO_CLK | FSMC_OE_GPIO_CLK |
  51:../../source/src/kernel/OS_CPU/bsp/sram.c ****                          FSMC_UDQM_GPIO_CLK|FSMC_LDQM_GPIO_CLK, ENABLE);
  52:../../source/src/kernel/OS_CPU/bsp/sram.c **** 												 
  53:../../source/src/kernel/OS_CPU/bsp/sram.c **** 
  54:../../source/src/kernel/OS_CPU/bsp/sram.c **** 
  55:../../source/src/kernel/OS_CPU/bsp/sram.c **** 	 /*-- GPIO 配置 -----------------------------------------------------*/
  56:../../source/src/kernel/OS_CPU/bsp/sram.c **** 
  57:../../source/src/kernel/OS_CPU/bsp/sram.c ****   /* 通用 GPIO 配置 */
  58:../../source/src/kernel/OS_CPU/bsp/sram.c ****   GPIO_InitStructure.GPIO_Mode  = GPIO_Mode_AF_PP;       //配置为复用功能
  59:../../source/src/kernel/OS_CPU/bsp/sram.c ****   GPIO_InitStructure.GPIO_Speed = GPIO_Speed_50MHz;     
  60:../../source/src/kernel/OS_CPU/bsp/sram.c ****   
  61:../../source/src/kernel/OS_CPU/bsp/sram.c ****   /*A地址信号线 针对引脚配置*/
  62:../../source/src/kernel/OS_CPU/bsp/sram.c ****   GPIO_InitStructure.GPIO_Pin = FSMC_A0_GPIO_PIN; 
  63:../../source/src/kernel/OS_CPU/bsp/sram.c ****   GPIO_Init(FSMC_A0_GPIO_PORT, &GPIO_InitStructure);
  64:../../source/src/kernel/OS_CPU/bsp/sram.c ****   
  65:../../source/src/kernel/OS_CPU/bsp/sram.c ****   GPIO_InitStructure.GPIO_Pin = FSMC_A1_GPIO_PIN; 
  66:../../source/src/kernel/OS_CPU/bsp/sram.c ****   GPIO_Init(FSMC_A1_GPIO_PORT, &GPIO_InitStructure);
  67:../../source/src/kernel/OS_CPU/bsp/sram.c ****   
  68:../../source/src/kernel/OS_CPU/bsp/sram.c ****   GPIO_InitStructure.GPIO_Pin = FSMC_A2_GPIO_PIN; 
  69:../../source/src/kernel/OS_CPU/bsp/sram.c ****   GPIO_Init(FSMC_A2_GPIO_PORT, &GPIO_InitStructure);
  70:../../source/src/kernel/OS_CPU/bsp/sram.c ****   
  71:../../source/src/kernel/OS_CPU/bsp/sram.c ****   GPIO_InitStructure.GPIO_Pin = FSMC_A3_GPIO_PIN; 
  72:../../source/src/kernel/OS_CPU/bsp/sram.c ****   GPIO_Init(FSMC_A3_GPIO_PORT, &GPIO_InitStructure);
  73:../../source/src/kernel/OS_CPU/bsp/sram.c ****   
  74:../../source/src/kernel/OS_CPU/bsp/sram.c ****   GPIO_InitStructure.GPIO_Pin = FSMC_A4_GPIO_PIN; 
  75:../../source/src/kernel/OS_CPU/bsp/sram.c ****   GPIO_Init(FSMC_A4_GPIO_PORT, &GPIO_InitStructure);
  76:../../source/src/kernel/OS_CPU/bsp/sram.c ****   
  77:../../source/src/kernel/OS_CPU/bsp/sram.c ****   GPIO_InitStructure.GPIO_Pin = FSMC_A5_GPIO_PIN; 
  78:../../source/src/kernel/OS_CPU/bsp/sram.c ****   GPIO_Init(FSMC_A5_GPIO_PORT, &GPIO_InitStructure);
  79:../../source/src/kernel/OS_CPU/bsp/sram.c ****   
  80:../../source/src/kernel/OS_CPU/bsp/sram.c ****   GPIO_InitStructure.GPIO_Pin = FSMC_A6_GPIO_PIN; 
  81:../../source/src/kernel/OS_CPU/bsp/sram.c ****   GPIO_Init(FSMC_A6_GPIO_PORT, &GPIO_InitStructure);
  82:../../source/src/kernel/OS_CPU/bsp/sram.c ****   
  83:../../source/src/kernel/OS_CPU/bsp/sram.c ****   GPIO_InitStructure.GPIO_Pin = FSMC_A7_GPIO_PIN; 
  84:../../source/src/kernel/OS_CPU/bsp/sram.c ****   GPIO_Init(FSMC_A7_GPIO_PORT, &GPIO_InitStructure);
  85:../../source/src/kernel/OS_CPU/bsp/sram.c ****   
  86:../../source/src/kernel/OS_CPU/bsp/sram.c ****   GPIO_InitStructure.GPIO_Pin = FSMC_A8_GPIO_PIN; 
  87:../../source/src/kernel/OS_CPU/bsp/sram.c ****   GPIO_Init(FSMC_A8_GPIO_PORT, &GPIO_InitStructure);
  88:../../source/src/kernel/OS_CPU/bsp/sram.c ****   
  89:../../source/src/kernel/OS_CPU/bsp/sram.c ****   GPIO_InitStructure.GPIO_Pin = FSMC_A9_GPIO_PIN; 
ARM GAS  G:\Users\Jaxb\AppData\Local\Temp\ccbTvrRb.s 			page 3


  90:../../source/src/kernel/OS_CPU/bsp/sram.c ****   GPIO_Init(FSMC_A9_GPIO_PORT, &GPIO_InitStructure);
  91:../../source/src/kernel/OS_CPU/bsp/sram.c ****   
  92:../../source/src/kernel/OS_CPU/bsp/sram.c ****   GPIO_InitStructure.GPIO_Pin = FSMC_A10_GPIO_PIN; 
  93:../../source/src/kernel/OS_CPU/bsp/sram.c ****   GPIO_Init(FSMC_A10_GPIO_PORT, &GPIO_InitStructure);
  94:../../source/src/kernel/OS_CPU/bsp/sram.c ****   
  95:../../source/src/kernel/OS_CPU/bsp/sram.c ****   GPIO_InitStructure.GPIO_Pin = FSMC_A11_GPIO_PIN; 
  96:../../source/src/kernel/OS_CPU/bsp/sram.c ****   GPIO_Init(FSMC_A11_GPIO_PORT, &GPIO_InitStructure);
  97:../../source/src/kernel/OS_CPU/bsp/sram.c **** 	
  98:../../source/src/kernel/OS_CPU/bsp/sram.c **** 	GPIO_InitStructure.GPIO_Pin = FSMC_A12_GPIO_PIN; 
  99:../../source/src/kernel/OS_CPU/bsp/sram.c ****   GPIO_Init(FSMC_A12_GPIO_PORT, &GPIO_InitStructure);
 100:../../source/src/kernel/OS_CPU/bsp/sram.c ****   
 101:../../source/src/kernel/OS_CPU/bsp/sram.c ****   GPIO_InitStructure.GPIO_Pin = FSMC_A13_GPIO_PIN; 
 102:../../source/src/kernel/OS_CPU/bsp/sram.c ****   GPIO_Init(FSMC_A13_GPIO_PORT, &GPIO_InitStructure);
 103:../../source/src/kernel/OS_CPU/bsp/sram.c ****   
 104:../../source/src/kernel/OS_CPU/bsp/sram.c ****   GPIO_InitStructure.GPIO_Pin = FSMC_A14_GPIO_PIN; 
 105:../../source/src/kernel/OS_CPU/bsp/sram.c ****   GPIO_Init(FSMC_A14_GPIO_PORT, &GPIO_InitStructure);
 106:../../source/src/kernel/OS_CPU/bsp/sram.c ****   
 107:../../source/src/kernel/OS_CPU/bsp/sram.c ****   GPIO_InitStructure.GPIO_Pin = FSMC_A15_GPIO_PIN; 
 108:../../source/src/kernel/OS_CPU/bsp/sram.c ****   GPIO_Init(FSMC_A15_GPIO_PORT, &GPIO_InitStructure);	
 109:../../source/src/kernel/OS_CPU/bsp/sram.c **** 	
 110:../../source/src/kernel/OS_CPU/bsp/sram.c **** 	GPIO_InitStructure.GPIO_Pin = FSMC_A16_GPIO_PIN; 
 111:../../source/src/kernel/OS_CPU/bsp/sram.c ****   GPIO_Init(FSMC_A16_GPIO_PORT, &GPIO_InitStructure);
 112:../../source/src/kernel/OS_CPU/bsp/sram.c ****   
 113:../../source/src/kernel/OS_CPU/bsp/sram.c ****   GPIO_InitStructure.GPIO_Pin = FSMC_A17_GPIO_PIN; 
 114:../../source/src/kernel/OS_CPU/bsp/sram.c ****   GPIO_Init(FSMC_A17_GPIO_PORT, &GPIO_InitStructure);
 115:../../source/src/kernel/OS_CPU/bsp/sram.c ****   
 116:../../source/src/kernel/OS_CPU/bsp/sram.c ****   GPIO_InitStructure.GPIO_Pin = FSMC_A18_GPIO_PIN; 
 117:../../source/src/kernel/OS_CPU/bsp/sram.c ****   GPIO_Init(FSMC_A18_GPIO_PORT, &GPIO_InitStructure);
 118:../../source/src/kernel/OS_CPU/bsp/sram.c ****     
 119:../../source/src/kernel/OS_CPU/bsp/sram.c ****   /*DQ数据信号线 针对引脚配置*/
 120:../../source/src/kernel/OS_CPU/bsp/sram.c ****   GPIO_InitStructure.GPIO_Pin = FSMC_D0_GPIO_PIN; 
 121:../../source/src/kernel/OS_CPU/bsp/sram.c ****   GPIO_Init(FSMC_D0_GPIO_PORT, &GPIO_InitStructure);
 122:../../source/src/kernel/OS_CPU/bsp/sram.c ****   
 123:../../source/src/kernel/OS_CPU/bsp/sram.c ****   GPIO_InitStructure.GPIO_Pin = FSMC_D1_GPIO_PIN; 
 124:../../source/src/kernel/OS_CPU/bsp/sram.c ****   GPIO_Init(FSMC_D1_GPIO_PORT, &GPIO_InitStructure);
 125:../../source/src/kernel/OS_CPU/bsp/sram.c ****     
 126:../../source/src/kernel/OS_CPU/bsp/sram.c ****   GPIO_InitStructure.GPIO_Pin = FSMC_D2_GPIO_PIN; 
 127:../../source/src/kernel/OS_CPU/bsp/sram.c ****   GPIO_Init(FSMC_D2_GPIO_PORT, &GPIO_InitStructure);
 128:../../source/src/kernel/OS_CPU/bsp/sram.c ****   
 129:../../source/src/kernel/OS_CPU/bsp/sram.c ****   GPIO_InitStructure.GPIO_Pin = FSMC_D3_GPIO_PIN; 
 130:../../source/src/kernel/OS_CPU/bsp/sram.c ****   GPIO_Init(FSMC_D3_GPIO_PORT, &GPIO_InitStructure);
 131:../../source/src/kernel/OS_CPU/bsp/sram.c ****   
 132:../../source/src/kernel/OS_CPU/bsp/sram.c ****   GPIO_InitStructure.GPIO_Pin = FSMC_D4_GPIO_PIN; 
 133:../../source/src/kernel/OS_CPU/bsp/sram.c ****   GPIO_Init(FSMC_D4_GPIO_PORT, &GPIO_InitStructure);
 134:../../source/src/kernel/OS_CPU/bsp/sram.c ****   
 135:../../source/src/kernel/OS_CPU/bsp/sram.c ****   GPIO_InitStructure.GPIO_Pin = FSMC_D5_GPIO_PIN; 
 136:../../source/src/kernel/OS_CPU/bsp/sram.c ****   GPIO_Init(FSMC_D5_GPIO_PORT, &GPIO_InitStructure);
 137:../../source/src/kernel/OS_CPU/bsp/sram.c ****   
 138:../../source/src/kernel/OS_CPU/bsp/sram.c ****   GPIO_InitStructure.GPIO_Pin = FSMC_D6_GPIO_PIN; 
 139:../../source/src/kernel/OS_CPU/bsp/sram.c ****   GPIO_Init(FSMC_D6_GPIO_PORT, &GPIO_InitStructure);
 140:../../source/src/kernel/OS_CPU/bsp/sram.c ****   
 141:../../source/src/kernel/OS_CPU/bsp/sram.c ****   GPIO_InitStructure.GPIO_Pin = FSMC_D7_GPIO_PIN; 
 142:../../source/src/kernel/OS_CPU/bsp/sram.c ****   GPIO_Init(FSMC_D7_GPIO_PORT, &GPIO_InitStructure);
 143:../../source/src/kernel/OS_CPU/bsp/sram.c ****   
 144:../../source/src/kernel/OS_CPU/bsp/sram.c ****   GPIO_InitStructure.GPIO_Pin = FSMC_D8_GPIO_PIN; 
 145:../../source/src/kernel/OS_CPU/bsp/sram.c ****   GPIO_Init(FSMC_D8_GPIO_PORT, &GPIO_InitStructure);
 146:../../source/src/kernel/OS_CPU/bsp/sram.c ****   
ARM GAS  G:\Users\Jaxb\AppData\Local\Temp\ccbTvrRb.s 			page 4


 147:../../source/src/kernel/OS_CPU/bsp/sram.c ****   GPIO_InitStructure.GPIO_Pin = FSMC_D9_GPIO_PIN; 
 148:../../source/src/kernel/OS_CPU/bsp/sram.c ****   GPIO_Init(FSMC_D9_GPIO_PORT, &GPIO_InitStructure);
 149:../../source/src/kernel/OS_CPU/bsp/sram.c ****   
 150:../../source/src/kernel/OS_CPU/bsp/sram.c ****   GPIO_InitStructure.GPIO_Pin = FSMC_D10_GPIO_PIN; 
 151:../../source/src/kernel/OS_CPU/bsp/sram.c ****   GPIO_Init(FSMC_D10_GPIO_PORT, &GPIO_InitStructure);
 152:../../source/src/kernel/OS_CPU/bsp/sram.c ****   
 153:../../source/src/kernel/OS_CPU/bsp/sram.c ****   GPIO_InitStructure.GPIO_Pin = FSMC_D11_GPIO_PIN; 
 154:../../source/src/kernel/OS_CPU/bsp/sram.c ****   GPIO_Init(FSMC_D11_GPIO_PORT, &GPIO_InitStructure);
 155:../../source/src/kernel/OS_CPU/bsp/sram.c ****   
 156:../../source/src/kernel/OS_CPU/bsp/sram.c ****   GPIO_InitStructure.GPIO_Pin = FSMC_D12_GPIO_PIN; 
 157:../../source/src/kernel/OS_CPU/bsp/sram.c ****   GPIO_Init(FSMC_D12_GPIO_PORT, &GPIO_InitStructure);
 158:../../source/src/kernel/OS_CPU/bsp/sram.c ****   
 159:../../source/src/kernel/OS_CPU/bsp/sram.c ****   GPIO_InitStructure.GPIO_Pin = FSMC_D13_GPIO_PIN; 
 160:../../source/src/kernel/OS_CPU/bsp/sram.c ****   GPIO_Init(FSMC_D13_GPIO_PORT, &GPIO_InitStructure);
 161:../../source/src/kernel/OS_CPU/bsp/sram.c ****   
 162:../../source/src/kernel/OS_CPU/bsp/sram.c ****   GPIO_InitStructure.GPIO_Pin = FSMC_D14_GPIO_PIN; 
 163:../../source/src/kernel/OS_CPU/bsp/sram.c ****   GPIO_Init(FSMC_D14_GPIO_PORT, &GPIO_InitStructure);
 164:../../source/src/kernel/OS_CPU/bsp/sram.c ****   
 165:../../source/src/kernel/OS_CPU/bsp/sram.c ****   GPIO_InitStructure.GPIO_Pin = FSMC_D15_GPIO_PIN; 
 166:../../source/src/kernel/OS_CPU/bsp/sram.c ****   GPIO_Init(FSMC_D15_GPIO_PORT, &GPIO_InitStructure);
 167:../../source/src/kernel/OS_CPU/bsp/sram.c ****   
 168:../../source/src/kernel/OS_CPU/bsp/sram.c ****   /*控制信号线*/
 169:../../source/src/kernel/OS_CPU/bsp/sram.c ****   GPIO_InitStructure.GPIO_Pin = FSMC_CS_GPIO_PIN; 
 170:../../source/src/kernel/OS_CPU/bsp/sram.c ****   GPIO_Init(FSMC_CS_GPIO_PORT, &GPIO_InitStructure);
 171:../../source/src/kernel/OS_CPU/bsp/sram.c ****     
 172:../../source/src/kernel/OS_CPU/bsp/sram.c ****   GPIO_InitStructure.GPIO_Pin = FSMC_WE_GPIO_PIN; 
 173:../../source/src/kernel/OS_CPU/bsp/sram.c ****   GPIO_Init(FSMC_WE_GPIO_PORT, &GPIO_InitStructure);
 174:../../source/src/kernel/OS_CPU/bsp/sram.c ****   
 175:../../source/src/kernel/OS_CPU/bsp/sram.c ****   GPIO_InitStructure.GPIO_Pin = FSMC_OE_GPIO_PIN; 
 176:../../source/src/kernel/OS_CPU/bsp/sram.c ****   GPIO_Init(FSMC_OE_GPIO_PORT, &GPIO_InitStructure);    
 177:../../source/src/kernel/OS_CPU/bsp/sram.c ****   
 178:../../source/src/kernel/OS_CPU/bsp/sram.c ****   GPIO_InitStructure.GPIO_Pin = FSMC_UDQM_GPIO_PIN; 
 179:../../source/src/kernel/OS_CPU/bsp/sram.c ****   GPIO_Init(FSMC_UDQM_GPIO_PORT, &GPIO_InitStructure);
 180:../../source/src/kernel/OS_CPU/bsp/sram.c ****   
 181:../../source/src/kernel/OS_CPU/bsp/sram.c ****   GPIO_InitStructure.GPIO_Pin = FSMC_LDQM_GPIO_PIN; 
 182:../../source/src/kernel/OS_CPU/bsp/sram.c ****   GPIO_Init(FSMC_LDQM_GPIO_PORT, &GPIO_InitStructure);	
 183:../../source/src/kernel/OS_CPU/bsp/sram.c **** }				  			
 184:../../source/src/kernel/OS_CPU/bsp/sram.c **** 
 185:../../source/src/kernel/OS_CPU/bsp/sram.c **** 
 186:../../source/src/kernel/OS_CPU/bsp/sram.c **** /**
 187:../../source/src/kernel/OS_CPU/bsp/sram.c ****   * @brief  初始化FSMC外设
 188:../../source/src/kernel/OS_CPU/bsp/sram.c ****   * @param  None. 
 189:../../source/src/kernel/OS_CPU/bsp/sram.c ****   * @retval None.
 190:../../source/src/kernel/OS_CPU/bsp/sram.c ****   */
 191:../../source/src/kernel/OS_CPU/bsp/sram.c **** void FSMC_SRAM_Init(void)
 192:../../source/src/kernel/OS_CPU/bsp/sram.c **** {	
  26              		.loc 1 192 0
  27              		.cfi_startproc
  28              		@ args = 0, pretend = 0, frame = 88
  29              		@ frame_needed = 0, uses_anonymous_args = 0
  30 0000 2DE9F04F 		push	{r4, r5, r6, r7, r8, r9, r10, fp, lr}
  31              	.LCFI0:
  32              		.cfi_def_cfa_offset 36
  33              		.cfi_offset 4, -36
  34              		.cfi_offset 5, -32
  35              		.cfi_offset 6, -28
  36              		.cfi_offset 7, -24
ARM GAS  G:\Users\Jaxb\AppData\Local\Temp\ccbTvrRb.s 			page 5


  37              		.cfi_offset 8, -20
  38              		.cfi_offset 9, -16
  39              		.cfi_offset 10, -12
  40              		.cfi_offset 11, -8
  41              		.cfi_offset 14, -4
  42              	.LBB4:
  43              	.LBB5:
  62:../../source/src/kernel/OS_CPU/bsp/sram.c ****   GPIO_Init(FSMC_A0_GPIO_PORT, &GPIO_InitStructure);
  44              		.loc 1 62 0
  45 0004 4FF00108 		mov	r8, #1
  46              	.LBE5:
  47              	.LBE4:
  48              		.loc 1 192 0
  49 0008 97B0     		sub	sp, sp, #92
  50              	.LCFI1:
  51              		.cfi_def_cfa_offset 128
  52              	.LBB7:
  53              	.LBB6:
  36:../../source/src/kernel/OS_CPU/bsp/sram.c ****                          FSMC_A3_GPIO_CLK | FSMC_A4_GPIO_CLK | FSMC_A5_GPIO_CLK |
  54              		.loc 1 36 0
  55 000a 4146     		mov	r1, r8
  56 000c 4FF4F070 		mov	r0, #480
  57 0010 FFF7FEFF 		bl	RCC_APB2PeriphClockCmd
  58              	.LVL0:
  58:../../source/src/kernel/OS_CPU/bsp/sram.c ****   GPIO_InitStructure.GPIO_Speed = GPIO_Speed_50MHz;     
  59              		.loc 1 58 0
  60 0014 1822     		movs	r2, #24
  59:../../source/src/kernel/OS_CPU/bsp/sram.c ****   
  61              		.loc 1 59 0
  62 0016 0323     		movs	r3, #3
  65:../../source/src/kernel/OS_CPU/bsp/sram.c ****   GPIO_Init(FSMC_A1_GPIO_PORT, &GPIO_InitStructure);
  63              		.loc 1 65 0
  64 0018 4FF00209 		mov	r9, #2
  68:../../source/src/kernel/OS_CPU/bsp/sram.c ****   GPIO_Init(FSMC_A2_GPIO_PORT, &GPIO_InitStructure);
  65              		.loc 1 68 0
  66 001c 4FF0040B 		mov	fp, #4
  71:../../source/src/kernel/OS_CPU/bsp/sram.c ****   GPIO_Init(FSMC_A3_GPIO_PORT, &GPIO_InitStructure);
  67              		.loc 1 71 0
  68 0020 0826     		movs	r6, #8
  74:../../source/src/kernel/OS_CPU/bsp/sram.c ****   GPIO_Init(FSMC_A4_GPIO_PORT, &GPIO_InitStructure);
  69              		.loc 1 74 0
  70 0022 4FF0100A 		mov	r10, #16
  62:../../source/src/kernel/OS_CPU/bsp/sram.c ****   GPIO_Init(FSMC_A0_GPIO_PORT, &GPIO_InitStructure);
  71              		.loc 1 62 0
  72 0026 16AC     		add	r4, sp, #88
  63:../../source/src/kernel/OS_CPU/bsp/sram.c ****   
  73              		.loc 1 63 0
  74 0028 AA4D     		ldr	r5, .L3
  62:../../source/src/kernel/OS_CPU/bsp/sram.c ****   GPIO_Init(FSMC_A0_GPIO_PORT, &GPIO_InitStructure);
  75              		.loc 1 62 0
  76 002a 24F83C8D 		strh	r8, [r4, #-60]!	@ movhi
  63:../../source/src/kernel/OS_CPU/bsp/sram.c ****   
  77              		.loc 1 63 0
  78 002e 2146     		mov	r1, r4
  79 0030 2846     		mov	r0, r5
  58:../../source/src/kernel/OS_CPU/bsp/sram.c ****   GPIO_InitStructure.GPIO_Speed = GPIO_Speed_50MHz;     
  80              		.loc 1 58 0
ARM GAS  G:\Users\Jaxb\AppData\Local\Temp\ccbTvrRb.s 			page 6


  81 0032 8DF81F20 		strb	r2, [sp, #31]
  59:../../source/src/kernel/OS_CPU/bsp/sram.c ****   
  82              		.loc 1 59 0
  83 0036 8DF81E30 		strb	r3, [sp, #30]
  63:../../source/src/kernel/OS_CPU/bsp/sram.c ****   
  84              		.loc 1 63 0
  85 003a FFF7FEFF 		bl	GPIO_Init
  86              	.LVL1:
  66:../../source/src/kernel/OS_CPU/bsp/sram.c ****   
  87              		.loc 1 66 0
  88 003e 2146     		mov	r1, r4
  89 0040 2846     		mov	r0, r5
  65:../../source/src/kernel/OS_CPU/bsp/sram.c ****   GPIO_Init(FSMC_A1_GPIO_PORT, &GPIO_InitStructure);
  90              		.loc 1 65 0
  91 0042 ADF81C90 		strh	r9, [sp, #28]	@ movhi
  66:../../source/src/kernel/OS_CPU/bsp/sram.c ****   
  92              		.loc 1 66 0
  93 0046 FFF7FEFF 		bl	GPIO_Init
  94              	.LVL2:
  69:../../source/src/kernel/OS_CPU/bsp/sram.c ****   
  95              		.loc 1 69 0
  96 004a 2146     		mov	r1, r4
  97 004c 2846     		mov	r0, r5
  68:../../source/src/kernel/OS_CPU/bsp/sram.c ****   GPIO_Init(FSMC_A2_GPIO_PORT, &GPIO_InitStructure);
  98              		.loc 1 68 0
  99 004e ADF81CB0 		strh	fp, [sp, #28]	@ movhi
  69:../../source/src/kernel/OS_CPU/bsp/sram.c ****   
 100              		.loc 1 69 0
 101 0052 FFF7FEFF 		bl	GPIO_Init
 102              	.LVL3:
  72:../../source/src/kernel/OS_CPU/bsp/sram.c ****   
 103              		.loc 1 72 0
 104 0056 2146     		mov	r1, r4
 105 0058 2846     		mov	r0, r5
  71:../../source/src/kernel/OS_CPU/bsp/sram.c ****   GPIO_Init(FSMC_A3_GPIO_PORT, &GPIO_InitStructure);
 106              		.loc 1 71 0
 107 005a ADF81C60 		strh	r6, [sp, #28]	@ movhi
  72:../../source/src/kernel/OS_CPU/bsp/sram.c ****   
 108              		.loc 1 72 0
 109 005e FFF7FEFF 		bl	GPIO_Init
 110              	.LVL4:
  75:../../source/src/kernel/OS_CPU/bsp/sram.c ****   
 111              		.loc 1 75 0
 112 0062 2146     		mov	r1, r4
 113 0064 2846     		mov	r0, r5
  74:../../source/src/kernel/OS_CPU/bsp/sram.c ****   GPIO_Init(FSMC_A4_GPIO_PORT, &GPIO_InitStructure);
 114              		.loc 1 74 0
 115 0066 ADF81CA0 		strh	r10, [sp, #28]	@ movhi
  75:../../source/src/kernel/OS_CPU/bsp/sram.c ****   
 116              		.loc 1 75 0
 117 006a FFF7FEFF 		bl	GPIO_Init
 118              	.LVL5:
  77:../../source/src/kernel/OS_CPU/bsp/sram.c ****   GPIO_Init(FSMC_A5_GPIO_PORT, &GPIO_InitStructure);
 119              		.loc 1 77 0
 120 006e 4FF02003 		mov	r3, #32	@ movhi
  78:../../source/src/kernel/OS_CPU/bsp/sram.c ****   
 121              		.loc 1 78 0
ARM GAS  G:\Users\Jaxb\AppData\Local\Temp\ccbTvrRb.s 			page 7


 122 0072 2146     		mov	r1, r4
 123 0074 2846     		mov	r0, r5
  77:../../source/src/kernel/OS_CPU/bsp/sram.c ****   GPIO_Init(FSMC_A5_GPIO_PORT, &GPIO_InitStructure);
 124              		.loc 1 77 0
 125 0076 ADF81C30 		strh	r3, [sp, #28]	@ movhi
  78:../../source/src/kernel/OS_CPU/bsp/sram.c ****   
 126              		.loc 1 78 0
 127 007a FFF7FEFF 		bl	GPIO_Init
 128              	.LVL6:
  80:../../source/src/kernel/OS_CPU/bsp/sram.c ****   GPIO_Init(FSMC_A6_GPIO_PORT, &GPIO_InitStructure);
 129              		.loc 1 80 0
 130 007e 4FF48052 		mov	r2, #4096	@ movhi
  83:../../source/src/kernel/OS_CPU/bsp/sram.c ****   GPIO_Init(FSMC_A7_GPIO_PORT, &GPIO_InitStructure);
 131              		.loc 1 83 0
 132 0082 4FF40057 		mov	r7, #8192	@ movhi
  81:../../source/src/kernel/OS_CPU/bsp/sram.c ****   
 133              		.loc 1 81 0
 134 0086 2146     		mov	r1, r4
 135 0088 2846     		mov	r0, r5
  80:../../source/src/kernel/OS_CPU/bsp/sram.c ****   GPIO_Init(FSMC_A6_GPIO_PORT, &GPIO_InitStructure);
 136              		.loc 1 80 0
 137 008a ADF81C20 		strh	r2, [sp, #28]	@ movhi
  81:../../source/src/kernel/OS_CPU/bsp/sram.c ****   
 138              		.loc 1 81 0
 139 008e FFF7FEFF 		bl	GPIO_Init
 140              	.LVL7:
  84:../../source/src/kernel/OS_CPU/bsp/sram.c ****   
 141              		.loc 1 84 0
 142 0092 2146     		mov	r1, r4
 143 0094 2846     		mov	r0, r5
  83:../../source/src/kernel/OS_CPU/bsp/sram.c ****   GPIO_Init(FSMC_A7_GPIO_PORT, &GPIO_InitStructure);
 144              		.loc 1 83 0
 145 0096 ADF81C70 		strh	r7, [sp, #28]	@ movhi
  84:../../source/src/kernel/OS_CPU/bsp/sram.c ****   
 146              		.loc 1 84 0
 147 009a FFF7FEFF 		bl	GPIO_Init
 148              	.LVL8:
  86:../../source/src/kernel/OS_CPU/bsp/sram.c ****   GPIO_Init(FSMC_A8_GPIO_PORT, &GPIO_InitStructure);
 149              		.loc 1 86 0
 150 009e 4FF4804C 		mov	ip, #16384	@ movhi
  87:../../source/src/kernel/OS_CPU/bsp/sram.c ****   
 151              		.loc 1 87 0
 152 00a2 2146     		mov	r1, r4
 153 00a4 2846     		mov	r0, r5
  86:../../source/src/kernel/OS_CPU/bsp/sram.c ****   GPIO_Init(FSMC_A8_GPIO_PORT, &GPIO_InitStructure);
 154              		.loc 1 86 0
 155 00a6 ADF81CC0 		strh	ip, [sp, #28]	@ movhi
  87:../../source/src/kernel/OS_CPU/bsp/sram.c ****   
 156              		.loc 1 87 0
 157 00aa FFF7FEFF 		bl	GPIO_Init
 158              	.LVL9:
  90:../../source/src/kernel/OS_CPU/bsp/sram.c ****   
 159              		.loc 1 90 0
 160 00ae 2846     		mov	r0, r5
  89:../../source/src/kernel/OS_CPU/bsp/sram.c ****   GPIO_Init(FSMC_A9_GPIO_PORT, &GPIO_InitStructure);
 161              		.loc 1 89 0
 162 00b0 48F20005 		movw	r5, 32768	@ movhi
ARM GAS  G:\Users\Jaxb\AppData\Local\Temp\ccbTvrRb.s 			page 8


  93:../../source/src/kernel/OS_CPU/bsp/sram.c ****   
 163              		.loc 1 93 0
 164 00b4 884F     		ldr	r7, .L3+4
  90:../../source/src/kernel/OS_CPU/bsp/sram.c ****   
 165              		.loc 1 90 0
 166 00b6 2146     		mov	r1, r4
  89:../../source/src/kernel/OS_CPU/bsp/sram.c ****   GPIO_Init(FSMC_A9_GPIO_PORT, &GPIO_InitStructure);
 167              		.loc 1 89 0
 168 00b8 ADF81C50 		strh	r5, [sp, #28]	@ movhi
  90:../../source/src/kernel/OS_CPU/bsp/sram.c ****   
 169              		.loc 1 90 0
 170 00bc FFF7FEFF 		bl	GPIO_Init
 171              	.LVL10:
  93:../../source/src/kernel/OS_CPU/bsp/sram.c ****   
 172              		.loc 1 93 0
 173 00c0 2146     		mov	r1, r4
 174 00c2 3846     		mov	r0, r7
  92:../../source/src/kernel/OS_CPU/bsp/sram.c ****   GPIO_Init(FSMC_A10_GPIO_PORT, &GPIO_InitStructure);
 175              		.loc 1 92 0
 176 00c4 ADF81C80 		strh	r8, [sp, #28]	@ movhi
  93:../../source/src/kernel/OS_CPU/bsp/sram.c ****   
 177              		.loc 1 93 0
 178 00c8 FFF7FEFF 		bl	GPIO_Init
 179              	.LVL11:
  96:../../source/src/kernel/OS_CPU/bsp/sram.c **** 	
 180              		.loc 1 96 0
 181 00cc 2146     		mov	r1, r4
 182 00ce 3846     		mov	r0, r7
  95:../../source/src/kernel/OS_CPU/bsp/sram.c ****   GPIO_Init(FSMC_A11_GPIO_PORT, &GPIO_InitStructure);
 183              		.loc 1 95 0
 184 00d0 ADF81C90 		strh	r9, [sp, #28]	@ movhi
  96:../../source/src/kernel/OS_CPU/bsp/sram.c **** 	
 185              		.loc 1 96 0
 186 00d4 FFF7FEFF 		bl	GPIO_Init
 187              	.LVL12:
  99:../../source/src/kernel/OS_CPU/bsp/sram.c ****   
 188              		.loc 1 99 0
 189 00d8 2146     		mov	r1, r4
 190 00da 3846     		mov	r0, r7
  98:../../source/src/kernel/OS_CPU/bsp/sram.c ****   GPIO_Init(FSMC_A12_GPIO_PORT, &GPIO_InitStructure);
 191              		.loc 1 98 0
 192 00dc ADF81CB0 		strh	fp, [sp, #28]	@ movhi
  99:../../source/src/kernel/OS_CPU/bsp/sram.c ****   
 193              		.loc 1 99 0
 194 00e0 FFF7FEFF 		bl	GPIO_Init
 195              	.LVL13:
 102:../../source/src/kernel/OS_CPU/bsp/sram.c ****   
 196              		.loc 1 102 0
 197 00e4 2146     		mov	r1, r4
 198 00e6 3846     		mov	r0, r7
 101:../../source/src/kernel/OS_CPU/bsp/sram.c ****   GPIO_Init(FSMC_A13_GPIO_PORT, &GPIO_InitStructure);
 199              		.loc 1 101 0
 200 00e8 ADF81C60 		strh	r6, [sp, #28]	@ movhi
 102:../../source/src/kernel/OS_CPU/bsp/sram.c ****   
 201              		.loc 1 102 0
 202 00ec FFF7FEFF 		bl	GPIO_Init
 203              	.LVL14:
ARM GAS  G:\Users\Jaxb\AppData\Local\Temp\ccbTvrRb.s 			page 9


 105:../../source/src/kernel/OS_CPU/bsp/sram.c ****   
 204              		.loc 1 105 0
 205 00f0 2146     		mov	r1, r4
 206 00f2 3846     		mov	r0, r7
 104:../../source/src/kernel/OS_CPU/bsp/sram.c ****   GPIO_Init(FSMC_A14_GPIO_PORT, &GPIO_InitStructure);
 207              		.loc 1 104 0
 208 00f4 ADF81CA0 		strh	r10, [sp, #28]	@ movhi
 105:../../source/src/kernel/OS_CPU/bsp/sram.c ****   
 209              		.loc 1 105 0
 210 00f8 FFF7FEFF 		bl	GPIO_Init
 211              	.LVL15:
 107:../../source/src/kernel/OS_CPU/bsp/sram.c ****   GPIO_Init(FSMC_A15_GPIO_PORT, &GPIO_InitStructure);	
 212              		.loc 1 107 0
 213 00fc 4FF02003 		mov	r3, #32	@ movhi
 110:../../source/src/kernel/OS_CPU/bsp/sram.c ****   GPIO_Init(FSMC_A16_GPIO_PORT, &GPIO_InitStructure);
 214              		.loc 1 110 0
 215 0100 4FF40066 		mov	r6, #2048	@ movhi
 111:../../source/src/kernel/OS_CPU/bsp/sram.c ****   
 216              		.loc 1 111 0
 217 0104 754D     		ldr	r5, .L3+8
 108:../../source/src/kernel/OS_CPU/bsp/sram.c **** 	
 218              		.loc 1 108 0
 219 0106 2146     		mov	r1, r4
 220 0108 3846     		mov	r0, r7
 107:../../source/src/kernel/OS_CPU/bsp/sram.c ****   GPIO_Init(FSMC_A15_GPIO_PORT, &GPIO_InitStructure);	
 221              		.loc 1 107 0
 222 010a ADF81C30 		strh	r3, [sp, #28]	@ movhi
 108:../../source/src/kernel/OS_CPU/bsp/sram.c **** 	
 223              		.loc 1 108 0
 224 010e FFF7FEFF 		bl	GPIO_Init
 225              	.LVL16:
 111:../../source/src/kernel/OS_CPU/bsp/sram.c ****   
 226              		.loc 1 111 0
 227 0112 2146     		mov	r1, r4
 228 0114 2846     		mov	r0, r5
 110:../../source/src/kernel/OS_CPU/bsp/sram.c ****   GPIO_Init(FSMC_A16_GPIO_PORT, &GPIO_InitStructure);
 229              		.loc 1 110 0
 230 0116 ADF81C60 		strh	r6, [sp, #28]	@ movhi
 111:../../source/src/kernel/OS_CPU/bsp/sram.c ****   
 231              		.loc 1 111 0
 232 011a FFF7FEFF 		bl	GPIO_Init
 233              	.LVL17:
 113:../../source/src/kernel/OS_CPU/bsp/sram.c ****   GPIO_Init(FSMC_A17_GPIO_PORT, &GPIO_InitStructure);
 234              		.loc 1 113 0
 235 011e 4FF48052 		mov	r2, #4096	@ movhi
 116:../../source/src/kernel/OS_CPU/bsp/sram.c ****   GPIO_Init(FSMC_A18_GPIO_PORT, &GPIO_InitStructure);
 236              		.loc 1 116 0
 237 0122 4FF40056 		mov	r6, #8192	@ movhi
 114:../../source/src/kernel/OS_CPU/bsp/sram.c ****   
 238              		.loc 1 114 0
 239 0126 2146     		mov	r1, r4
 240 0128 2846     		mov	r0, r5
 113:../../source/src/kernel/OS_CPU/bsp/sram.c ****   GPIO_Init(FSMC_A17_GPIO_PORT, &GPIO_InitStructure);
 241              		.loc 1 113 0
 242 012a ADF81C20 		strh	r2, [sp, #28]	@ movhi
 114:../../source/src/kernel/OS_CPU/bsp/sram.c ****   
 243              		.loc 1 114 0
ARM GAS  G:\Users\Jaxb\AppData\Local\Temp\ccbTvrRb.s 			page 10


 244 012e FFF7FEFF 		bl	GPIO_Init
 245              	.LVL18:
 117:../../source/src/kernel/OS_CPU/bsp/sram.c ****     
 246              		.loc 1 117 0
 247 0132 2146     		mov	r1, r4
 248 0134 2846     		mov	r0, r5
 116:../../source/src/kernel/OS_CPU/bsp/sram.c ****   GPIO_Init(FSMC_A18_GPIO_PORT, &GPIO_InitStructure);
 249              		.loc 1 116 0
 250 0136 ADF81C60 		strh	r6, [sp, #28]	@ movhi
 117:../../source/src/kernel/OS_CPU/bsp/sram.c ****     
 251              		.loc 1 117 0
 252 013a FFF7FEFF 		bl	GPIO_Init
 253              	.LVL19:
 120:../../source/src/kernel/OS_CPU/bsp/sram.c ****   GPIO_Init(FSMC_D0_GPIO_PORT, &GPIO_InitStructure);
 254              		.loc 1 120 0
 255 013e 4FF4804C 		mov	ip, #16384	@ movhi
 121:../../source/src/kernel/OS_CPU/bsp/sram.c ****   
 256              		.loc 1 121 0
 257 0142 2146     		mov	r1, r4
 258 0144 2846     		mov	r0, r5
 120:../../source/src/kernel/OS_CPU/bsp/sram.c ****   GPIO_Init(FSMC_D0_GPIO_PORT, &GPIO_InitStructure);
 259              		.loc 1 120 0
 260 0146 ADF81CC0 		strh	ip, [sp, #28]	@ movhi
 121:../../source/src/kernel/OS_CPU/bsp/sram.c ****   
 261              		.loc 1 121 0
 262 014a FFF7FEFF 		bl	GPIO_Init
 263              	.LVL20:
 123:../../source/src/kernel/OS_CPU/bsp/sram.c ****   GPIO_Init(FSMC_D1_GPIO_PORT, &GPIO_InitStructure);
 264              		.loc 1 123 0
 265 014e 48F2000E 		movw	lr, 32768	@ movhi
 124:../../source/src/kernel/OS_CPU/bsp/sram.c ****     
 266              		.loc 1 124 0
 267 0152 2146     		mov	r1, r4
 268 0154 2846     		mov	r0, r5
 123:../../source/src/kernel/OS_CPU/bsp/sram.c ****   GPIO_Init(FSMC_D1_GPIO_PORT, &GPIO_InitStructure);
 269              		.loc 1 123 0
 270 0156 ADF81CE0 		strh	lr, [sp, #28]	@ movhi
 124:../../source/src/kernel/OS_CPU/bsp/sram.c ****     
 271              		.loc 1 124 0
 272 015a FFF7FEFF 		bl	GPIO_Init
 273              	.LVL21:
 127:../../source/src/kernel/OS_CPU/bsp/sram.c ****   
 274              		.loc 1 127 0
 275 015e 2146     		mov	r1, r4
 276 0160 2846     		mov	r0, r5
 126:../../source/src/kernel/OS_CPU/bsp/sram.c ****   GPIO_Init(FSMC_D2_GPIO_PORT, &GPIO_InitStructure);
 277              		.loc 1 126 0
 278 0162 ADF81C80 		strh	r8, [sp, #28]	@ movhi
 127:../../source/src/kernel/OS_CPU/bsp/sram.c ****   
 279              		.loc 1 127 0
 280 0166 FFF7FEFF 		bl	GPIO_Init
 281              	.LVL22:
 130:../../source/src/kernel/OS_CPU/bsp/sram.c ****   
 282              		.loc 1 130 0
 283 016a 2146     		mov	r1, r4
 284 016c 2846     		mov	r0, r5
 129:../../source/src/kernel/OS_CPU/bsp/sram.c ****   GPIO_Init(FSMC_D3_GPIO_PORT, &GPIO_InitStructure);
ARM GAS  G:\Users\Jaxb\AppData\Local\Temp\ccbTvrRb.s 			page 11


 285              		.loc 1 129 0
 286 016e ADF81C90 		strh	r9, [sp, #28]	@ movhi
 130:../../source/src/kernel/OS_CPU/bsp/sram.c ****   
 287              		.loc 1 130 0
 288 0172 FFF7FEFF 		bl	GPIO_Init
 289              	.LVL23:
 132:../../source/src/kernel/OS_CPU/bsp/sram.c ****   GPIO_Init(FSMC_D4_GPIO_PORT, &GPIO_InitStructure);
 290              		.loc 1 132 0
 291 0176 8023     		movs	r3, #128
 133:../../source/src/kernel/OS_CPU/bsp/sram.c ****   
 292              		.loc 1 133 0
 293 0178 594E     		ldr	r6, .L3+12
 294 017a 2146     		mov	r1, r4
 295 017c 3046     		mov	r0, r6
 132:../../source/src/kernel/OS_CPU/bsp/sram.c ****   GPIO_Init(FSMC_D4_GPIO_PORT, &GPIO_InitStructure);
 296              		.loc 1 132 0
 297 017e ADF81C30 		strh	r3, [sp, #28]	@ movhi
 133:../../source/src/kernel/OS_CPU/bsp/sram.c ****   
 298              		.loc 1 133 0
 299 0182 FFF7FEFF 		bl	GPIO_Init
 300              	.LVL24:
 135:../../source/src/kernel/OS_CPU/bsp/sram.c ****   GPIO_Init(FSMC_D5_GPIO_PORT, &GPIO_InitStructure);
 301              		.loc 1 135 0
 302 0186 4FF4807E 		mov	lr, #256	@ movhi
 136:../../source/src/kernel/OS_CPU/bsp/sram.c ****   
 303              		.loc 1 136 0
 304 018a 2146     		mov	r1, r4
 305 018c 3046     		mov	r0, r6
 135:../../source/src/kernel/OS_CPU/bsp/sram.c ****   GPIO_Init(FSMC_D5_GPIO_PORT, &GPIO_InitStructure);
 306              		.loc 1 135 0
 307 018e ADF81CE0 		strh	lr, [sp, #28]	@ movhi
 136:../../source/src/kernel/OS_CPU/bsp/sram.c ****   
 308              		.loc 1 136 0
 309 0192 FFF7FEFF 		bl	GPIO_Init
 310              	.LVL25:
 138:../../source/src/kernel/OS_CPU/bsp/sram.c ****   GPIO_Init(FSMC_D6_GPIO_PORT, &GPIO_InitStructure);
 311              		.loc 1 138 0
 312 0196 4FF4007C 		mov	ip, #512	@ movhi
 139:../../source/src/kernel/OS_CPU/bsp/sram.c ****   
 313              		.loc 1 139 0
 314 019a 2146     		mov	r1, r4
 315 019c 3046     		mov	r0, r6
 138:../../source/src/kernel/OS_CPU/bsp/sram.c ****   GPIO_Init(FSMC_D6_GPIO_PORT, &GPIO_InitStructure);
 316              		.loc 1 138 0
 317 019e ADF81CC0 		strh	ip, [sp, #28]	@ movhi
 139:../../source/src/kernel/OS_CPU/bsp/sram.c ****   
 318              		.loc 1 139 0
 319 01a2 FFF7FEFF 		bl	GPIO_Init
 320              	.LVL26:
 141:../../source/src/kernel/OS_CPU/bsp/sram.c ****   GPIO_Init(FSMC_D7_GPIO_PORT, &GPIO_InitStructure);
 321              		.loc 1 141 0
 322 01a6 4FF4806E 		mov	lr, #1024	@ movhi
 142:../../source/src/kernel/OS_CPU/bsp/sram.c ****   
 323              		.loc 1 142 0
 324 01aa 2146     		mov	r1, r4
 325 01ac 3046     		mov	r0, r6
 141:../../source/src/kernel/OS_CPU/bsp/sram.c ****   GPIO_Init(FSMC_D7_GPIO_PORT, &GPIO_InitStructure);
ARM GAS  G:\Users\Jaxb\AppData\Local\Temp\ccbTvrRb.s 			page 12


 326              		.loc 1 141 0
 327 01ae ADF81CE0 		strh	lr, [sp, #28]	@ movhi
 142:../../source/src/kernel/OS_CPU/bsp/sram.c ****   
 328              		.loc 1 142 0
 329 01b2 FFF7FEFF 		bl	GPIO_Init
 330              	.LVL27:
 144:../../source/src/kernel/OS_CPU/bsp/sram.c ****   GPIO_Init(FSMC_D8_GPIO_PORT, &GPIO_InitStructure);
 331              		.loc 1 144 0
 332 01b6 4FF40063 		mov	r3, #2048	@ movhi
 145:../../source/src/kernel/OS_CPU/bsp/sram.c ****   
 333              		.loc 1 145 0
 334 01ba 2146     		mov	r1, r4
 335 01bc 3046     		mov	r0, r6
 144:../../source/src/kernel/OS_CPU/bsp/sram.c ****   GPIO_Init(FSMC_D8_GPIO_PORT, &GPIO_InitStructure);
 336              		.loc 1 144 0
 337 01be ADF81C30 		strh	r3, [sp, #28]	@ movhi
 145:../../source/src/kernel/OS_CPU/bsp/sram.c ****   
 338              		.loc 1 145 0
 339 01c2 FFF7FEFF 		bl	GPIO_Init
 340              	.LVL28:
 147:../../source/src/kernel/OS_CPU/bsp/sram.c ****   GPIO_Init(FSMC_D9_GPIO_PORT, &GPIO_InitStructure);
 341              		.loc 1 147 0
 342 01c6 4FF48052 		mov	r2, #4096	@ movhi
 148:../../source/src/kernel/OS_CPU/bsp/sram.c ****   
 343              		.loc 1 148 0
 344 01ca 2146     		mov	r1, r4
 345 01cc 3046     		mov	r0, r6
 147:../../source/src/kernel/OS_CPU/bsp/sram.c ****   GPIO_Init(FSMC_D9_GPIO_PORT, &GPIO_InitStructure);
 346              		.loc 1 147 0
 347 01ce ADF81C20 		strh	r2, [sp, #28]	@ movhi
 148:../../source/src/kernel/OS_CPU/bsp/sram.c ****   
 348              		.loc 1 148 0
 349 01d2 FFF7FEFF 		bl	GPIO_Init
 350              	.LVL29:
 150:../../source/src/kernel/OS_CPU/bsp/sram.c ****   GPIO_Init(FSMC_D10_GPIO_PORT, &GPIO_InitStructure);
 351              		.loc 1 150 0
 352 01d6 4FF40052 		mov	r2, #8192	@ movhi
 151:../../source/src/kernel/OS_CPU/bsp/sram.c ****   
 353              		.loc 1 151 0
 354 01da 2146     		mov	r1, r4
 355 01dc 3046     		mov	r0, r6
 150:../../source/src/kernel/OS_CPU/bsp/sram.c ****   GPIO_Init(FSMC_D10_GPIO_PORT, &GPIO_InitStructure);
 356              		.loc 1 150 0
 357 01de ADF81C20 		strh	r2, [sp, #28]	@ movhi
 151:../../source/src/kernel/OS_CPU/bsp/sram.c ****   
 358              		.loc 1 151 0
 359 01e2 FFF7FEFF 		bl	GPIO_Init
 360              	.LVL30:
 153:../../source/src/kernel/OS_CPU/bsp/sram.c ****   GPIO_Init(FSMC_D11_GPIO_PORT, &GPIO_InitStructure);
 361              		.loc 1 153 0
 362 01e6 4FF4804C 		mov	ip, #16384	@ movhi
 154:../../source/src/kernel/OS_CPU/bsp/sram.c ****   
 363              		.loc 1 154 0
 364 01ea 2146     		mov	r1, r4
 365 01ec 3046     		mov	r0, r6
 153:../../source/src/kernel/OS_CPU/bsp/sram.c ****   GPIO_Init(FSMC_D11_GPIO_PORT, &GPIO_InitStructure);
 366              		.loc 1 153 0
ARM GAS  G:\Users\Jaxb\AppData\Local\Temp\ccbTvrRb.s 			page 13


 367 01ee ADF81CC0 		strh	ip, [sp, #28]	@ movhi
 154:../../source/src/kernel/OS_CPU/bsp/sram.c ****   
 368              		.loc 1 154 0
 369 01f2 FFF7FEFF 		bl	GPIO_Init
 370              	.LVL31:
 156:../../source/src/kernel/OS_CPU/bsp/sram.c ****   GPIO_Init(FSMC_D12_GPIO_PORT, &GPIO_InitStructure);
 371              		.loc 1 156 0
 372 01f6 48F2000E 		movw	lr, 32768	@ movhi
 157:../../source/src/kernel/OS_CPU/bsp/sram.c ****   
 373              		.loc 1 157 0
 374 01fa 2146     		mov	r1, r4
 375 01fc 3046     		mov	r0, r6
 156:../../source/src/kernel/OS_CPU/bsp/sram.c ****   GPIO_Init(FSMC_D12_GPIO_PORT, &GPIO_InitStructure);
 376              		.loc 1 156 0
 377 01fe ADF81CE0 		strh	lr, [sp, #28]	@ movhi
 157:../../source/src/kernel/OS_CPU/bsp/sram.c ****   
 378              		.loc 1 157 0
 379 0202 FFF7FEFF 		bl	GPIO_Init
 380              	.LVL32:
 159:../../source/src/kernel/OS_CPU/bsp/sram.c ****   GPIO_Init(FSMC_D13_GPIO_PORT, &GPIO_InitStructure);
 381              		.loc 1 159 0
 382 0206 4FF48072 		mov	r2, #256	@ movhi
 160:../../source/src/kernel/OS_CPU/bsp/sram.c ****   
 383              		.loc 1 160 0
 384 020a 2146     		mov	r1, r4
 385 020c 2846     		mov	r0, r5
 159:../../source/src/kernel/OS_CPU/bsp/sram.c ****   GPIO_Init(FSMC_D13_GPIO_PORT, &GPIO_InitStructure);
 386              		.loc 1 159 0
 387 020e ADF81C20 		strh	r2, [sp, #28]	@ movhi
 160:../../source/src/kernel/OS_CPU/bsp/sram.c ****   
 388              		.loc 1 160 0
 389 0212 FFF7FEFF 		bl	GPIO_Init
 390              	.LVL33:
 162:../../source/src/kernel/OS_CPU/bsp/sram.c ****   GPIO_Init(FSMC_D14_GPIO_PORT, &GPIO_InitStructure);
 391              		.loc 1 162 0
 392 0216 4FF4007C 		mov	ip, #512	@ movhi
 163:../../source/src/kernel/OS_CPU/bsp/sram.c ****   
 393              		.loc 1 163 0
 394 021a 2146     		mov	r1, r4
 395 021c 2846     		mov	r0, r5
 162:../../source/src/kernel/OS_CPU/bsp/sram.c ****   GPIO_Init(FSMC_D14_GPIO_PORT, &GPIO_InitStructure);
 396              		.loc 1 162 0
 397 021e ADF81CC0 		strh	ip, [sp, #28]	@ movhi
 163:../../source/src/kernel/OS_CPU/bsp/sram.c ****   
 398              		.loc 1 163 0
 399 0222 FFF7FEFF 		bl	GPIO_Init
 400              	.LVL34:
 165:../../source/src/kernel/OS_CPU/bsp/sram.c ****   GPIO_Init(FSMC_D15_GPIO_PORT, &GPIO_InitStructure);
 401              		.loc 1 165 0
 402 0226 4FF4806E 		mov	lr, #1024	@ movhi
 166:../../source/src/kernel/OS_CPU/bsp/sram.c ****   
 403              		.loc 1 166 0
 404 022a 2146     		mov	r1, r4
 405 022c 2846     		mov	r0, r5
 165:../../source/src/kernel/OS_CPU/bsp/sram.c ****   GPIO_Init(FSMC_D15_GPIO_PORT, &GPIO_InitStructure);
 406              		.loc 1 165 0
 407 022e ADF81CE0 		strh	lr, [sp, #28]	@ movhi
ARM GAS  G:\Users\Jaxb\AppData\Local\Temp\ccbTvrRb.s 			page 14


 166:../../source/src/kernel/OS_CPU/bsp/sram.c ****   
 408              		.loc 1 166 0
 409 0232 FFF7FEFF 		bl	GPIO_Init
 410              	.LVL35:
 169:../../source/src/kernel/OS_CPU/bsp/sram.c ****   GPIO_Init(FSMC_CS_GPIO_PORT, &GPIO_InitStructure);
 411              		.loc 1 169 0
 412 0236 4FF4806E 		mov	lr, #1024	@ movhi
 170:../../source/src/kernel/OS_CPU/bsp/sram.c ****     
 413              		.loc 1 170 0
 414 023a 3846     		mov	r0, r7
 415 023c 2146     		mov	r1, r4
 169:../../source/src/kernel/OS_CPU/bsp/sram.c ****   GPIO_Init(FSMC_CS_GPIO_PORT, &GPIO_InitStructure);
 416              		.loc 1 169 0
 417 023e ADF81CE0 		strh	lr, [sp, #28]	@ movhi
 170:../../source/src/kernel/OS_CPU/bsp/sram.c ****     
 418              		.loc 1 170 0
 419 0242 FFF7FEFF 		bl	GPIO_Init
 420              	.LVL36:
 172:../../source/src/kernel/OS_CPU/bsp/sram.c ****   GPIO_Init(FSMC_WE_GPIO_PORT, &GPIO_InitStructure);
 421              		.loc 1 172 0
 422 0246 4FF02003 		mov	r3, #32	@ movhi
 173:../../source/src/kernel/OS_CPU/bsp/sram.c ****   
 423              		.loc 1 173 0
 424 024a 2146     		mov	r1, r4
 425 024c 2846     		mov	r0, r5
 172:../../source/src/kernel/OS_CPU/bsp/sram.c ****   GPIO_Init(FSMC_WE_GPIO_PORT, &GPIO_InitStructure);
 426              		.loc 1 172 0
 427 024e ADF81C30 		strh	r3, [sp, #28]	@ movhi
 173:../../source/src/kernel/OS_CPU/bsp/sram.c ****   
 428              		.loc 1 173 0
 429 0252 FFF7FEFF 		bl	GPIO_Init
 430              	.LVL37:
 176:../../source/src/kernel/OS_CPU/bsp/sram.c ****   
 431              		.loc 1 176 0
 432 0256 2846     		mov	r0, r5
 433 0258 2146     		mov	r1, r4
 175:../../source/src/kernel/OS_CPU/bsp/sram.c ****   GPIO_Init(FSMC_OE_GPIO_PORT, &GPIO_InitStructure);    
 434              		.loc 1 175 0
 435 025a ADF81CA0 		strh	r10, [sp, #28]	@ movhi
 176:../../source/src/kernel/OS_CPU/bsp/sram.c ****   
 436              		.loc 1 176 0
 437 025e FFF7FEFF 		bl	GPIO_Init
 438              	.LVL38:
 179:../../source/src/kernel/OS_CPU/bsp/sram.c ****   
 439              		.loc 1 179 0
 440 0262 2146     		mov	r1, r4
 441 0264 3046     		mov	r0, r6
 178:../../source/src/kernel/OS_CPU/bsp/sram.c ****   GPIO_Init(FSMC_UDQM_GPIO_PORT, &GPIO_InitStructure);
 442              		.loc 1 178 0
 443 0266 ADF81C90 		strh	r9, [sp, #28]	@ movhi
 179:../../source/src/kernel/OS_CPU/bsp/sram.c ****   
 444              		.loc 1 179 0
 445 026a FFF7FEFF 		bl	GPIO_Init
 446              	.LVL39:
 182:../../source/src/kernel/OS_CPU/bsp/sram.c **** }				  			
 447              		.loc 1 182 0
 448 026e 3046     		mov	r0, r6
ARM GAS  G:\Users\Jaxb\AppData\Local\Temp\ccbTvrRb.s 			page 15


 449 0270 2146     		mov	r1, r4
 181:../../source/src/kernel/OS_CPU/bsp/sram.c ****   GPIO_Init(FSMC_LDQM_GPIO_PORT, &GPIO_InitStructure);	
 450              		.loc 1 181 0
 451 0272 ADF81C80 		strh	r8, [sp, #28]	@ movhi
 182:../../source/src/kernel/OS_CPU/bsp/sram.c **** }				  			
 452              		.loc 1 182 0
 453 0276 FFF7FEFF 		bl	GPIO_Init
 454              	.LVL40:
 455              	.LBE6:
 456              	.LBE7:
 193:../../source/src/kernel/OS_CPU/bsp/sram.c **** 	FSMC_NORSRAMInitTypeDef  FSMC_NORSRAMInitStructure;
 194:../../source/src/kernel/OS_CPU/bsp/sram.c **** 	FSMC_NORSRAMTimingInitTypeDef  readWriteTiming;
 195:../../source/src/kernel/OS_CPU/bsp/sram.c **** 
 196:../../source/src/kernel/OS_CPU/bsp/sram.c **** 	/*初始化SRAM相关的GPIO*/
 197:../../source/src/kernel/OS_CPU/bsp/sram.c **** 	SRAM_GPIO_Config();
 198:../../source/src/kernel/OS_CPU/bsp/sram.c **** 		
 199:../../source/src/kernel/OS_CPU/bsp/sram.c **** 	/*使能FSMC外设时钟*/
 200:../../source/src/kernel/OS_CPU/bsp/sram.c **** 	RCC_AHBPeriphClockCmd(RCC_AHBPeriph_FSMC,ENABLE);
 457              		.loc 1 200 0
 458 027a 4146     		mov	r1, r8
 459 027c 4FF48070 		mov	r0, #256
 460 0280 FFF7FEFF 		bl	RCC_AHBPeriphClockCmd
 461              	.LVL41:
 201:../../source/src/kernel/OS_CPU/bsp/sram.c **** 
 202:../../source/src/kernel/OS_CPU/bsp/sram.c **** 	//地址建立时间（ADDSET）为1个HCLK 1/72M=14ns
 203:../../source/src/kernel/OS_CPU/bsp/sram.c **** 	readWriteTiming.FSMC_AddressSetupTime = 0x00;	
 462              		.loc 1 203 0
 463 0284 0023     		movs	r3, #0
 204:../../source/src/kernel/OS_CPU/bsp/sram.c **** 
 205:../../source/src/kernel/OS_CPU/bsp/sram.c **** 	//地址保持时间（ADDHLD）模式A未用到
 206:../../source/src/kernel/OS_CPU/bsp/sram.c **** 	readWriteTiming.FSMC_AddressHoldTime = 0x00;	 
 207:../../source/src/kernel/OS_CPU/bsp/sram.c **** 
 208:../../source/src/kernel/OS_CPU/bsp/sram.c **** 	//数据保持时间（DATAST）+ 1个HCLK = 3/72M=42ns(对EM的SRAM芯片)	
 209:../../source/src/kernel/OS_CPU/bsp/sram.c **** 	readWriteTiming.FSMC_DataSetupTime = 0x02;		  
 210:../../source/src/kernel/OS_CPU/bsp/sram.c **** 	
 211:../../source/src/kernel/OS_CPU/bsp/sram.c **** 	//设置总线转换周期，仅用于复用模式的NOR操作
 212:../../source/src/kernel/OS_CPU/bsp/sram.c **** 	readWriteTiming.FSMC_BusTurnAroundDuration = 0x00;
 213:../../source/src/kernel/OS_CPU/bsp/sram.c **** 	
 214:../../source/src/kernel/OS_CPU/bsp/sram.c **** 	//设置时钟分频，仅用于同步类型的存储器
 215:../../source/src/kernel/OS_CPU/bsp/sram.c **** 	readWriteTiming.FSMC_CLKDivision = 0x00;	
 216:../../source/src/kernel/OS_CPU/bsp/sram.c **** 
 217:../../source/src/kernel/OS_CPU/bsp/sram.c **** 	//数据保持时间，仅用于同步型的NOR
 218:../../source/src/kernel/OS_CPU/bsp/sram.c **** 	readWriteTiming.FSMC_DataLatency = 0x00;		
 219:../../source/src/kernel/OS_CPU/bsp/sram.c **** 	
 220:../../source/src/kernel/OS_CPU/bsp/sram.c **** 	//选择匹配SRAM的模式
 221:../../source/src/kernel/OS_CPU/bsp/sram.c **** 	readWriteTiming.FSMC_AccessMode = FSMC_AccessMode_A;	 
 222:../../source/src/kernel/OS_CPU/bsp/sram.c ****     
 223:../../source/src/kernel/OS_CPU/bsp/sram.c **** 
 224:../../source/src/kernel/OS_CPU/bsp/sram.c **** 	// 选择FSMC映射的存储区域： Bank1 sram3
 225:../../source/src/kernel/OS_CPU/bsp/sram.c **** 	FSMC_NORSRAMInitStructure.FSMC_Bank = FSMC_Bank1_NORSRAM3;
 226:../../source/src/kernel/OS_CPU/bsp/sram.c **** 	
 227:../../source/src/kernel/OS_CPU/bsp/sram.c **** 	//设置地址总线与数据总线是否复用，仅用于NOR
 228:../../source/src/kernel/OS_CPU/bsp/sram.c **** 	FSMC_NORSRAMInitStructure.FSMC_DataAddressMux = FSMC_DataAddressMux_Disable; 
 229:../../source/src/kernel/OS_CPU/bsp/sram.c **** 	
 230:../../source/src/kernel/OS_CPU/bsp/sram.c **** 	//设置要控制的存储器类型：SRAM类型
 231:../../source/src/kernel/OS_CPU/bsp/sram.c **** 	FSMC_NORSRAMInitStructure.FSMC_MemoryType =FSMC_MemoryType_SRAM;   
 232:../../source/src/kernel/OS_CPU/bsp/sram.c **** 	
ARM GAS  G:\Users\Jaxb\AppData\Local\Temp\ccbTvrRb.s 			page 16


 233:../../source/src/kernel/OS_CPU/bsp/sram.c **** 	//存储器数据宽度：16位
 234:../../source/src/kernel/OS_CPU/bsp/sram.c **** 	FSMC_NORSRAMInitStructure.FSMC_MemoryDataWidth = FSMC_MemoryDataWidth_16b; 
 235:../../source/src/kernel/OS_CPU/bsp/sram.c **** 	
 236:../../source/src/kernel/OS_CPU/bsp/sram.c **** 	//设置是否使用突发访问模式，仅用于同步类型的存储器
 237:../../source/src/kernel/OS_CPU/bsp/sram.c **** 	FSMC_NORSRAMInitStructure.FSMC_BurstAccessMode =FSMC_BurstAccessMode_Disable;
 238:../../source/src/kernel/OS_CPU/bsp/sram.c **** 	
 239:../../source/src/kernel/OS_CPU/bsp/sram.c **** 	//设置是否使能等待信号，仅用于同步类型的存储器
 240:../../source/src/kernel/OS_CPU/bsp/sram.c **** 	FSMC_NORSRAMInitStructure.FSMC_AsynchronousWait=FSMC_AsynchronousWait_Disable;
 241:../../source/src/kernel/OS_CPU/bsp/sram.c **** 	
 242:../../source/src/kernel/OS_CPU/bsp/sram.c **** 	//设置等待信号的有效极性，仅用于同步类型的存储器
 243:../../source/src/kernel/OS_CPU/bsp/sram.c **** 	FSMC_NORSRAMInitStructure.FSMC_WaitSignalPolarity = FSMC_WaitSignalPolarity_Low;
 244:../../source/src/kernel/OS_CPU/bsp/sram.c **** 	
 245:../../source/src/kernel/OS_CPU/bsp/sram.c **** 	//设置是否支持把非对齐的突发操作，仅用于同步类型的存储器
 246:../../source/src/kernel/OS_CPU/bsp/sram.c **** 	FSMC_NORSRAMInitStructure.FSMC_WrapMode = FSMC_WrapMode_Disable; 
 247:../../source/src/kernel/OS_CPU/bsp/sram.c **** 	
 248:../../source/src/kernel/OS_CPU/bsp/sram.c **** 	//设置等待信号插入的时间，仅用于同步类型的存储器
 249:../../source/src/kernel/OS_CPU/bsp/sram.c **** 	FSMC_NORSRAMInitStructure.FSMC_WaitSignalActive = FSMC_WaitSignalActive_BeforeWaitState;
 250:../../source/src/kernel/OS_CPU/bsp/sram.c **** 	
 251:../../source/src/kernel/OS_CPU/bsp/sram.c **** 	//存储器写使能 
 252:../../source/src/kernel/OS_CPU/bsp/sram.c **** 	FSMC_NORSRAMInitStructure.FSMC_WriteOperation = FSMC_WriteOperation_Enable;
 464              		.loc 1 252 0
 465 0286 4FF48052 		mov	r2, #4096
 253:../../source/src/kernel/OS_CPU/bsp/sram.c **** 	
 254:../../source/src/kernel/OS_CPU/bsp/sram.c **** 	//不使用等待信号
 255:../../source/src/kernel/OS_CPU/bsp/sram.c **** 	FSMC_NORSRAMInitStructure.FSMC_WaitSignal = FSMC_WaitSignal_Disable;  		
 256:../../source/src/kernel/OS_CPU/bsp/sram.c **** 	
 257:../../source/src/kernel/OS_CPU/bsp/sram.c **** 	// 不使用扩展模式，读写使用相同的时序
 258:../../source/src/kernel/OS_CPU/bsp/sram.c **** 	FSMC_NORSRAMInitStructure.FSMC_ExtendedMode = FSMC_ExtendedMode_Disable; 
 259:../../source/src/kernel/OS_CPU/bsp/sram.c **** 	
 260:../../source/src/kernel/OS_CPU/bsp/sram.c **** 	//突发写操作
 261:../../source/src/kernel/OS_CPU/bsp/sram.c **** 	FSMC_NORSRAMInitStructure.FSMC_WriteBurst = FSMC_WriteBurst_Disable;  
 262:../../source/src/kernel/OS_CPU/bsp/sram.c **** 	
 263:../../source/src/kernel/OS_CPU/bsp/sram.c **** 	//读写时序配置
 264:../../source/src/kernel/OS_CPU/bsp/sram.c **** 	FSMC_NORSRAMInitStructure.FSMC_ReadWriteTimingStruct = &readWriteTiming;
 265:../../source/src/kernel/OS_CPU/bsp/sram.c **** 	
 266:../../source/src/kernel/OS_CPU/bsp/sram.c **** 	//读写同样时序，使用扩展模式时这个配置才有效
 267:../../source/src/kernel/OS_CPU/bsp/sram.c **** 	FSMC_NORSRAMInitStructure.FSMC_WriteTimingStruct = &readWriteTiming; 
 268:../../source/src/kernel/OS_CPU/bsp/sram.c **** 
 269:../../source/src/kernel/OS_CPU/bsp/sram.c **** 	FSMC_NORSRAMInit(&FSMC_NORSRAMInitStructure);  //初始化FSMC配置
 466              		.loc 1 269 0
 467 028a 2046     		mov	r0, r4
 252:../../source/src/kernel/OS_CPU/bsp/sram.c **** 	
 468              		.loc 1 252 0
 469 028c 1092     		str	r2, [sp, #64]
 206:../../source/src/kernel/OS_CPU/bsp/sram.c **** 
 470              		.loc 1 206 0
 471 028e CDE90033 		strd	r3, r3, [sp]
 215:../../source/src/kernel/OS_CPU/bsp/sram.c **** 
 472              		.loc 1 215 0
 473 0292 CDE90333 		strd	r3, r3, [sp, #12]
 221:../../source/src/kernel/OS_CPU/bsp/sram.c ****     
 474              		.loc 1 221 0
 475 0296 CDE90533 		strd	r3, r3, [sp, #20]
 231:../../source/src/kernel/OS_CPU/bsp/sram.c **** 	
 476              		.loc 1 231 0
 477 029a CDE90833 		strd	r3, r3, [sp, #32]
 240:../../source/src/kernel/OS_CPU/bsp/sram.c **** 	
ARM GAS  G:\Users\Jaxb\AppData\Local\Temp\ccbTvrRb.s 			page 17


 478              		.loc 1 240 0
 479 029e CDE90B33 		strd	r3, r3, [sp, #44]
 246:../../source/src/kernel/OS_CPU/bsp/sram.c **** 	
 480              		.loc 1 246 0
 481 02a2 CDE90D33 		strd	r3, r3, [sp, #52]
 249:../../source/src/kernel/OS_CPU/bsp/sram.c **** 	
 482              		.loc 1 249 0
 483 02a6 0F93     		str	r3, [sp, #60]
 258:../../source/src/kernel/OS_CPU/bsp/sram.c **** 	
 484              		.loc 1 258 0
 485 02a8 CDE91133 		strd	r3, r3, [sp, #68]
 261:../../source/src/kernel/OS_CPU/bsp/sram.c **** 	
 486              		.loc 1 261 0
 487 02ac 1393     		str	r3, [sp, #76]
 209:../../source/src/kernel/OS_CPU/bsp/sram.c **** 	
 488              		.loc 1 209 0
 489 02ae CDF80890 		str	r9, [sp, #8]
 225:../../source/src/kernel/OS_CPU/bsp/sram.c **** 	
 490              		.loc 1 225 0
 491 02b2 CDF81CB0 		str	fp, [sp, #28]
 234:../../source/src/kernel/OS_CPU/bsp/sram.c **** 	
 492              		.loc 1 234 0
 493 02b6 CDF828A0 		str	r10, [sp, #40]
 264:../../source/src/kernel/OS_CPU/bsp/sram.c **** 	
 494              		.loc 1 264 0
 495 02ba CDF850D0 		str	sp, [sp, #80]
 267:../../source/src/kernel/OS_CPU/bsp/sram.c **** 
 496              		.loc 1 267 0
 497 02be CDF854D0 		str	sp, [sp, #84]
 498              		.loc 1 269 0
 499 02c2 FFF7FEFF 		bl	FSMC_NORSRAMInit
 500              	.LVL42:
 270:../../source/src/kernel/OS_CPU/bsp/sram.c **** 
 271:../../source/src/kernel/OS_CPU/bsp/sram.c **** 	FSMC_NORSRAMCmd(FSMC_Bank1_NORSRAM3, ENABLE);  // 使能BANK										  
 501              		.loc 1 271 0
 502 02c6 4146     		mov	r1, r8
 503 02c8 5846     		mov	r0, fp
 504 02ca FFF7FEFF 		bl	FSMC_NORSRAMCmd
 505              	.LVL43:
 272:../../source/src/kernel/OS_CPU/bsp/sram.c **** 											
 273:../../source/src/kernel/OS_CPU/bsp/sram.c **** }
 506              		.loc 1 273 0
 507 02ce 17B0     		add	sp, sp, #92
 508              	.LCFI2:
 509              		.cfi_def_cfa_offset 36
 510              		@ sp needed
 511 02d0 BDE8F08F 		pop	{r4, r5, r6, r7, r8, r9, r10, fp, pc}
 512              	.L4:
 513              		.align	2
 514              	.L3:
 515 02d4 001C0140 		.word	1073814528
 516 02d8 00200140 		.word	1073815552
 517 02dc 00140140 		.word	1073812480
 518 02e0 00180140 		.word	1073813504
 519              		.cfi_endproc
 520              	.LFE30:
 521              		.size	FSMC_SRAM_Init, .-FSMC_SRAM_Init
ARM GAS  G:\Users\Jaxb\AppData\Local\Temp\ccbTvrRb.s 			page 18


 522              	.Letext0:
 523              		.file 2 "f:\\arm\\gcc2018\\arm-none-eabi\\include\\machine\\_default_types.h"
 524              		.file 3 "f:\\arm\\gcc2018\\arm-none-eabi\\include\\sys\\_stdint.h"
 525              		.file 4 "../../source/include/core_cm3.h"
 526              		.file 5 "../../source/include/system_stm32f10x.h"
 527              		.file 6 "../../source/include/stm32f10x.h"
 528              		.file 7 "../../source/src/FWlib/inc/stm32f10x_gpio.h"
 529              		.file 8 "../../source/src/FWlib/inc/stm32f10x_fsmc.h"
 530              		.file 9 "../../source/src/FWlib/inc/stm32f10x_rcc.h"