ARM GAS  G:\Users\Jaxb\AppData\Local\Temp\ccbTvrRb.s 			page 1


   1              		.cpu cortex-m3
   2              		.eabi_attribute 20, 1
   3              		.eabi_attribute 21, 1
   4              		.eabi_attribute 23, 3
   5              		.eabi_attribute 24, 1
   6              		.eabi_attribute 25, 1
   7              		.eabi_attribute 26, 1
   8              		.eabi_attribute 30, 2
   9              		.eabi_attribute 34, 1
  10              		.eabi_attribute 18, 4
  11              		.file	"sram.c"
  12              		.text
  13              	.Ltext0:
  14              		.cfi_sections	.debug_frame
  15              		.align	1
  16              		.p2align 2,,3
  17              		.global	FSMC_SRAM_Init
  18              		.syntax unified
  19              		.thumb
  20              		.thumb_func
  21              		.fpu softvfp
  22              		.type	FSMC_SRAM_Init, %function
  23              	FSMC_SRAM_Init:
  24              	.LFB30:
  25              		.file 1 "../../source/src/kernel/OS_CPU/bsp/sram.c"
   1:../../source/src/kernel/OS_CPU/bsp/sram.c **** /**
   2:../../source/src/kernel/OS_CPU/bsp/sram.c ****   ******************************************************************************
   3:../../source/src/kernel/OS_CPU/bsp/sram.c ****   * @file    sram.c
   4:../../source/src/kernel/OS_CPU/bsp/sram.c ****   * @author  fire
   5:../../source/src/kernel/OS_CPU/bsp/sram.c ****   * @version V1.0
   6:../../source/src/kernel/OS_CPU/bsp/sram.c ****   * @date    2015-xx-xx
   7:../../source/src/kernel/OS_CPU/bsp/sram.c ****   * @brief   sram应用函数接口
   8:../../source/src/kernel/OS_CPU/bsp/sram.c ****   ******************************************************************************
   9:../../source/src/kernel/OS_CPU/bsp/sram.c ****   * @attention
  10:../../source/src/kernel/OS_CPU/bsp/sram.c ****   *
  11:../../source/src/kernel/OS_CPU/bsp/sram.c ****   * 实验平台:秉火 F103-霸道 STM32  开发板  
  12:../../source/src/kernel/OS_CPU/bsp/sram.c ****   * 论坛    :http://www.firebbs.cn
  13:../../source/src/kernel/OS_CPU/bsp/sram.c ****   * 淘宝    :https://fire-stm32.taobao.com
  14:../../source/src/kernel/OS_CPU/bsp/sram.c ****   *
  15:../../source/src/kernel/OS_CPU/bsp/sram.c ****   ******************************************************************************
  16:../../source/src/kernel/OS_CPU/bsp/sram.c ****   */
  17:../../source/src/kernel/OS_CPU/bsp/sram.c **** 
  18:../../source/src/kernel/OS_CPU/bsp/sram.c **** 
  19:../../source/src/kernel/OS_CPU/bsp/sram.c **** 
  20:../../source/src/kernel/OS_CPU/bsp/sram.c **** #include "sram.h"	  
  21:../../source/src/kernel/OS_CPU/bsp/sram.c **** #include "stm32f10x_fsmc.h"
  22:../../source/src/kernel/OS_CPU/bsp/sram.c **** 
  23:../../source/src/kernel/OS_CPU/bsp/sram.c **** 
  24:../../source/src/kernel/OS_CPU/bsp/sram.c **** /**
  25:../../source/src/kernel/OS_CPU/bsp/sram.c ****   * @brief  初始化控制SRAM的IO
  26:../../source/src/kernel/OS_CPU/bsp/sram.c ****   * @param  无
  27:../../source/src/kernel/OS_CPU/bsp/sram.c ****   * @retval 无
  28:../../source/src/kernel/OS_CPU/bsp/sram.c ****   */
  29:../../source/src/kernel/OS_CPU/bsp/sram.c **** static void SRAM_GPIO_Config(void)
  30:../../source/src/kernel/OS_CPU/bsp/sram.c **** {
  31:../../source/src/kernel/OS_CPU/bsp/sram.c **** 	GPIO_InitTypeDef  GPIO_InitStructure;
  32:../../source/src/kernel/OS_CPU/bsp/sram.c ****  
ARM GAS  G:\Users\Jaxb\AppData\Local\Temp\ccbTvrRb.s 			page 2


  33:../../source/src/kernel/OS_CPU/bsp/sram.c ****   /* 使能SRAM相关的GPIO时钟 */
  34:../../source/src/kernel/OS_CPU/bsp/sram.c **** 
  35:../../source/src/kernel/OS_CPU/bsp/sram.c ****                          /*地址信号线*/
  36:../../source/src/kernel/OS_CPU/bsp/sram.c ****   RCC_APB2PeriphClockCmd(FSMC_A0_GPIO_CLK | FSMC_A1_GPIO_CLK | FSMC_A2_GPIO_CLK | 
  37:../../source/src/kernel/OS_CPU/bsp/sram.c ****                          FSMC_A3_GPIO_CLK | FSMC_A4_GPIO_CLK | FSMC_A5_GPIO_CLK |
  38:../../source/src/kernel/OS_CPU/bsp/sram.c ****                          FSMC_A6_GPIO_CLK | FSMC_A7_GPIO_CLK | FSMC_A8_GPIO_CLK |
  39:../../source/src/kernel/OS_CPU/bsp/sram.c ****                          FSMC_A9_GPIO_CLK | FSMC_A10_GPIO_CLK| FSMC_A11_GPIO_CLK| 
  40:../../source/src/kernel/OS_CPU/bsp/sram.c **** 												 FSMC_A12_GPIO_CLK| FSMC_A13_GPIO_CLK|FSMC_A14_GPIO_CLK|
  41:../../source/src/kernel/OS_CPU/bsp/sram.c **** 												 FSMC_A15_GPIO_CLK|FSMC_A16_GPIO_CLK|FSMC_A17_GPIO_CLK|FSMC_A18_GPIO_CLK|
  42:../../source/src/kernel/OS_CPU/bsp/sram.c ****                          /*数据信号线*/
  43:../../source/src/kernel/OS_CPU/bsp/sram.c ****                          FSMC_D0_GPIO_CLK | FSMC_D1_GPIO_CLK | FSMC_D2_GPIO_CLK | 
  44:../../source/src/kernel/OS_CPU/bsp/sram.c ****                          FSMC_D3_GPIO_CLK | FSMC_D4_GPIO_CLK | FSMC_D5_GPIO_CLK |
  45:../../source/src/kernel/OS_CPU/bsp/sram.c ****                          FSMC_D6_GPIO_CLK | FSMC_D7_GPIO_CLK | FSMC_D8_GPIO_CLK |
  46:../../source/src/kernel/OS_CPU/bsp/sram.c ****                          FSMC_D9_GPIO_CLK | FSMC_D10_GPIO_CLK| FSMC_D11_GPIO_CLK|
  47:../../source/src/kernel/OS_CPU/bsp/sram.c ****                          FSMC_D12_GPIO_CLK| FSMC_D13_GPIO_CLK| FSMC_D14_GPIO_CLK|
  48:../../source/src/kernel/OS_CPU/bsp/sram.c ****                          FSMC_D15_GPIO_CLK|  
  49:../../source/src/kernel/OS_CPU/bsp/sram.c ****                          /*控制信号线*/
  50:../../source/src/kernel/OS_CPU/bsp/sram.c ****                          FSMC_CS_GPIO_CLK  | FSMC_WE_GPIO_CLK | FSMC_OE_GPIO_CLK |
  51:../../source/src/kernel/OS_CPU/bsp/sram.c ****                          FSMC_UDQM_GPIO_CLK|FSMC_LDQM_GPIO_CLK, ENABLE);
  52:../../source/src/kernel/OS_CPU/bsp/sram.c **** 												 
  53:../../source/src/kernel/OS_CPU/bsp/sram.c **** 
  54:../../source/src/kernel/OS_CPU/bsp/sram.c **** 
  55:../../source/src/kernel/OS_CPU/bsp/sram.c **** 	 /*-- GPIO 配置 -----------------------------------------------------*/
  56:../../source/src/kernel/OS_CPU/bsp/sram.c **** 
  57:../../source/src/kernel/OS_CPU/bsp/sram.c ****   /* 通用 GPIO 配置 */
  58:../../source/src/kernel/OS_CPU/bsp/sram.c ****   GPIO_InitStructure.GPIO_Mode  = GPIO_Mode_AF_PP;       //配置为复用功能
  59:../../source/src/kernel/OS_CPU/bsp/sram.c ****   GPIO_InitStructure.GPIO_Speed = GPIO_Speed_50MHz;     
  60:../../source/src/kernel/OS_CPU/bsp/sram.c ****   
  61:../../source/src/kernel/OS_CPU/bsp/sram.c ****   /*A地址信号线 针对引脚配置*/
  62:../../source/src/kernel/OS_CPU/bsp/sram.c ****   GPIO_InitStructure.GPIO_Pin = FSMC_A0_GPIO_PIN; 
  63:../../source/src/kernel/OS_CPU/bsp/sram.c ****   GPIO_Init(FSMC_A0_GPIO_PORT, &GPIO_InitStructure);
  64:../../source/src/kernel/OS_CPU/bsp/sram.c ****   
  65:../../source/src/kernel/OS_CPU/bsp/sram.c ****   GPIO_InitStructure.GPIO_Pin = FSMC_A1_GPIO_PIN; 
  66:../../source/src/kernel/OS_CPU/bsp/sram.c ****   GPIO_Init(FSMC_A1_GPIO_PORT, &GPIO_InitStructure);
  67:../../source/src/kernel/OS_CPU/bsp/sram.c ****   
  68:../../source/src/kernel/OS_CPU/bsp/sram.c ****   GPIO_InitStructure.GPIO_Pin = FSMC_A2_GPIO_PIN; 
  69:../../source/src/kernel/OS_CPU/bsp/sram.c ****   GPIO_Init(FSMC_A2_GPIO_PORT, &GPIO_InitStructure);
  70:../../source/src/kernel/OS_CPU/bsp/sram.c ****   
  71:../../source/src/kernel/OS_CPU/bsp/sram.c ****   GPIO_InitStructure.GPIO_Pin = FSMC_A3_GPIO_PIN; 
  72:../../source/src/kernel/OS_CPU/bsp/sram.c ****   GPIO_Init(FSMC_A3_GPIO_PORT, &GPIO_InitStructure);
  73:../../source/src/kernel/OS_CPU/bsp/sram.c ****   
  74:../../source/src/kernel/OS_CPU/bsp/sram.c ****   GPIO_InitStructure.GPIO_Pin = FSMC_A4_GPIO_PIN; 
  75:../../source/src/kernel/OS_CPU/bsp/sram.c ****   GPIO_Init(FSMC_A4_GPIO_PORT, &GPIO_InitStructure);
  76:../../source/src/kernel/OS_CPU/bsp/sram.c ****   
  77:../../source/src/kernel/OS_CPU/bsp/sram.c ****   GPIO_InitStructure.GPIO_Pin = FSMC_A5_GPIO_PIN; 
  78:../../source/src/kernel/OS_CPU/bsp/sram.c ****   GPIO_Init(FSMC_A5_GPIO_PORT, &GPIO_InitStructure);
  79:../../source/src/kernel/OS_CPU/bsp/sram.c ****   
  80:../../source/src/kernel/OS_CPU/bsp/sram.c ****   GPIO_InitStructure.GPIO_Pin = FSMC_A6_GPIO_PIN; 
  81:../../source/src/kernel/OS_CPU/bsp/sram.c ****   GPIO_Init(FSMC_A6_GPIO_PORT, &GPIO_InitStructure);
  82:../../source/src/kernel/OS_CPU/bsp/sram.c ****   
  83:../../source/src/kernel/OS_CPU/bsp/sram.c ****   GPIO_InitStructure.GPIO_Pin = FSMC_A7_GPIO_PIN; 
  84:../../source/src/kernel/OS_CPU/bsp/sram.c ****   GPIO_Init(FSMC_A7_GPIO_PORT, &GPIO_InitStructure);
  85:../../source/src/kernel/OS_CPU/bsp/sram.c ****   
  86:../../source/src/kernel/OS_CPU/bsp/sram.c ****   GPIO_InitStructure.GPIO_Pin = FSMC_A8_GPIO_PIN; 
  87:../../source/src/kernel/OS_CPU/bsp/sram.c ****   GPIO_Init(FSMC_A8_GPIO_PORT, &GPIO_InitStructure);
  88:../../source/src/kernel/OS_CPU/bsp/sram.c ****   
  89:../../source/src/kernel/OS_CPU/bsp/sram.c ****   GPIO_InitStructure.GPIO_Pin = FSMC_A9_GPIO_PIN; 
ARM GAS  G:\Users\Jaxb\AppData\Local\Temp\ccbTvrRb.s 			page 3


  90:../../source/src/kernel/OS_CPU/bsp/sram.c ****   GPIO_Init(FSMC_A9_GPIO_PORT, &GPIO_InitStructure);
  91:../../source/src/kernel/OS_CPU/bsp/sram.c ****   
  92:../../source/src/kernel/OS_CPU/bsp/sram.c ****   GPIO_InitStructure.GPIO_Pin = FSMC_A10_GPIO_PIN; 
  93:../../source/src/kernel/OS_CPU/bsp/sram.c ****   GPIO_Init(FSMC_A10_GPIO_PORT, &GPIO_InitStructure);
  94:../../source/src/kernel/OS_CPU/bsp/sram.c ****   
  95:../../source/src/kernel/OS_CPU/bsp/sram.c ****   GPIO_InitStructure.GPIO_Pin = FSMC_A11_GPIO_PIN; 
  96:../../source/src/kernel/OS_CPU/bsp/sram.c ****   GPIO_Init(FSMC_A11_GPIO_PORT, &GPIO_InitStructure);
  97:../../source/src/kernel/OS_CPU/bsp/sram.c **** 	
  98:../../source/src/kernel/OS_CPU/bsp/sram.c **** 	GPIO_InitStructure.GPIO_Pin = FSMC_A12_GPIO_PIN; 
  99:../../source/src/kernel/OS_CPU/bsp/sram.c ****   GPIO_Init(FSMC_A12_GPIO_PORT, &GPIO_InitStructure);
 100:../../source/src/kernel/OS_CPU/bsp/sram.c ****   
 101:../../source/src/kernel/OS_CPU/bsp/sram.c ****   GPIO_InitStructure.GPIO_Pin = FSMC_A13_GPIO_PIN; 
 102:../../source/src/kernel/OS_CPU/bsp/sram.c ****   GPIO_Init(FSMC_A13_GPIO_PORT, &GPIO_InitStructure);
 103:../../source/src/kernel/OS_CPU/bsp/sram.c ****   
 104:../../source/src/kernel/OS_CPU/bsp/sram.c ****   GPIO_InitStructure.GPIO_Pin = FSMC_A14_GPIO_PIN; 
 105:../../source/src/kernel/OS_CPU/bsp/sram.c ****   GPIO_Init(FSMC_A14_GPIO_PORT, &GPIO_InitStructure);
 106:../../source/src/kernel/OS_CPU/bsp/sram.c ****   
 107:../../source/src/kernel/OS_CPU/bsp/sram.c ****   GPIO_InitStructure.GPIO_Pin = FSMC_A15_GPIO_PIN; 
 108:../../source/src/kernel/OS_CPU/bsp/sram.c ****   GPIO_Init(FSMC_A15_GPIO_PORT, &GPIO_InitStructure);	
 109:../../source/src/kernel/OS_CPU/bsp/sram.c **** 	
 110:../../source/src/kernel/OS_CPU/bsp/sram.c **** 	GPIO_InitStructure.GPIO_Pin = FSMC_A16_GPIO_PIN; 
 111:../../source/src/kernel/OS_CPU/bsp/sram.c ****   GPIO_Init(FSMC_A16_GPIO_PORT, &GPIO_InitStructure);
 112:../../source/src/kernel/OS_CPU/bsp/sram.c ****   
 113:../../source/src/kernel/OS_CPU/bsp/sram.c ****   GPIO_InitStructure.GPIO_Pin = FSMC_A17_GPIO_PIN; 
 114:../../source/src/kernel/OS_CPU/bsp/sram.c ****   GPIO_Init(FSMC_A17_GPIO_PORT, &GPIO_InitStructure);
 115:../../source/src/kernel/OS_CPU/bsp/sram.c ****   
 116:../../source/src/kernel/OS_CPU/bsp/sram.c ****   GPIO_InitStructure.GPIO_Pin = FSMC_A18_GPIO_PIN; 
 117:../../source/src/kernel/OS_CPU/bsp/sram.c ****   GPIO_Init(FSMC_A18_GPIO_PORT, &GPIO_InitStructure);
 118:../../source/src/kernel/OS_CPU/bsp/sram.c ****     
 119:../../source/src/kernel/OS_CPU/bsp/sram.c ****   /*DQ数据信号线 针对引脚配置*/
 120:../../source/src/kernel/OS_CPU/bsp/sram.c ****   GPIO_InitStructure.GPIO_Pin = FSMC_D0_GPIO_PIN; 
 121:../../source/src/kernel/OS_CPU/bsp/sram.c ****   GPIO_Init(FSMC_D0_GPIO_PORT, &GPIO_InitStructure);
 122:../../source/src/kernel/OS_CPU/bsp/sram.c ****   
 123:../../source/src/kernel/OS_CPU/bsp/sram.c ****   GPIO_InitStructure.GPIO_Pin = FSMC_D1_GPIO_PIN; 
 124:../../source/src/kernel/OS_CPU/bsp/sram.c ****   GPIO_Init(FSMC_D1_GPIO_PORT, &GPIO_InitStructure);
 125:../../source/src/kernel/OS_CPU/bsp/sram.c ****     
 126:../../source/src/kernel/OS_CPU/bsp/sram.c ****   GPIO_InitStructure.GPIO_Pin = FSMC_D2_GPIO_PIN; 
 127:../../source/src/kernel/OS_CPU/bsp/sram.c ****   GPIO_Init(FSMC_D2_GPIO_PORT, &GPIO_InitStructure);
 128:../../source/src/kernel/OS_CPU/bsp/sram.c ****   
 129:../../source/src/kernel/OS_CPU/bsp/sram.c ****   GPIO_InitStructure.GPIO_Pin = FSMC_D3_GPIO_PIN; 
 130:../../source/src/kernel/OS_CPU/bsp/sram.c ****   GPIO_Init(FSMC_D3_GPIO_PORT, &GPIO_InitStructure);
 131:../../source/src/kernel/OS_CPU/bsp/sram.c ****   
 132:../../source/src/kernel/OS_CPU/bsp/sram.c ****   GPIO_InitStructure.GPIO_Pin = FSMC_D4_GPIO_PIN; 
 133:../../source/src/kernel/OS_CPU/bsp/sram.c ****   GPIO_Init(FSMC_D4_GPIO_PORT, &GPIO_InitStructure);
 134:../../source/src/kernel/OS_CPU/bsp/sram.c ****   
 135:../../source/src/kernel/OS_CPU/bsp/sram.c ****   GPIO_InitStructure.GPIO_Pin = FSMC_D5_GPIO_PIN; 
 136:../../source/src/kernel/OS_CPU/bsp/sram.c ****   GPIO_Init(FSMC_D5_GPIO_PORT, &GPIO_InitStructure);
 137:../../source/src/kernel/OS_CPU/bsp/sram.c ****   
 138:../../source/src/kernel/OS_CPU/bsp/sram.c ****   GPIO_InitStructure.GPIO_Pin = FSMC_D6_GPIO_PIN; 
 139:../../source/src/kernel/OS_CPU/bsp/sram.c ****   GPIO_Init(FSMC_D6_GPIO_PORT, &GPIO_InitStructure);
 140:../../source/src/kernel/OS_CPU/bsp/sram.c ****   
 141:../../source/src/kernel/OS_CPU/bsp/sram.c ****   GPIO_InitStructure.GPIO_Pin = FSMC_D7_GPIO_PIN; 
 142:../../source/src/kernel/OS_CPU/bsp/sram.c ****   GPIO_Init(FSMC_D7_GPIO_PORT, &GPIO_InitStructure);
 143:../../source/src/kernel/OS_CPU/bsp/sram.c ****   
 144:../../source/src/kernel/OS_CPU/bsp/sram.c ****   GPIO_InitStructure.GPIO_Pin = FSMC_D8_GPIO_PIN; 
 145:../../source/src/kernel/OS_CPU/bsp/sram.c ****   GPIO_Init(FSMC_D8_GPIO_PORT, &GPIO_InitStructure);
 146:../../source/src/kernel/OS_CPU/bsp/sram.c ****   
ARM GAS  G:\Users\Jaxb\AppData\Local\Temp\ccbTvrRb.s 			page 4


 147:../../source/src/kernel/OS_CPU/bsp/sram.c ****   GPIO_InitStructure.GPIO_Pin = FSMC_D9_GPIO_PIN; 
 148:../../source/src/kernel/OS_CPU/bsp/sram.c ****   GPIO_Init(FSMC_D9_GPIO_PORT, &GPIO_InitStructure);
 149:../../source/src/kernel/OS_CPU/bsp/sram.c ****   
 150:../../source/src/kernel/OS_CPU/bsp/sram.c ****   GPIO_InitStructure.GPIO_Pin = FSMC_D10_GPIO_PIN; 
 151:../../source/src/kernel/OS_CPU/bsp/sram.c ****   GPIO_Init(FSMC_D10_GPIO_PORT, &GPIO_InitStructure);
 152:../../source/src/kernel/OS_CPU/bsp/sram.c ****   
 153:../../source/src/kernel/OS_CPU/bsp/sram.c ****   GPIO_InitStructure.GPIO_Pin = FSMC_D11_GPIO_PIN; 
 154:../../source/src/kernel/OS_CPU/bsp/sram.c ****   GPIO_Init(FSMC_D11_GPIO_PORT, &GPIO_InitStructure);
 155:../../source/src/kernel/OS_CPU/bsp/sram.c ****   
 156:../../source/src/kernel/OS_CPU/bsp/sram.c ****   GPIO_InitStructure.GPIO_Pin = FSMC_D12_GPIO_PIN; 
 157:../../source/src/kernel/OS_CPU/bsp/sram.c ****   GPIO_Init(FSMC_D12_GPIO_PORT, &GPIO_InitStructure);
 158:../../source/src/kernel/OS_CPU/bsp/sram.c ****   
 159:../../source/src/kernel/OS_CPU/bsp/sram.c ****   GPIO_InitStructure.GPIO_Pin = FSMC_D13_GPIO_PIN; 
 160:../../source/src/kernel/OS_CPU/bsp/sram.c ****   GPIO_Init(FSMC_D13_GPIO_PORT, &GPIO_InitStructure);
 161:../../source/src/kernel/OS_CPU/bsp/sram.c ****   
 162:../../source/src/kernel/OS_CPU/bsp/sram.c ****   GPIO_InitStructure.GPIO_Pin = FSMC_D14_GPIO_PIN; 
 163:../../source/src/kernel/OS_CPU/bsp/sram.c ****   GPIO_Init(FSMC_D14_GPIO_PORT, &GPIO_InitStructure);
 164:../../source/src/kernel/OS_CPU/bsp/sram.c ****   
 165:../../source/src/kernel/OS_CPU/bsp/sram.c ****   GPIO_InitStructure.GPIO_Pin = FSMC_D15_GPIO_PIN; 
 166:../../source/src/kernel/OS_CPU/bsp/sram.c ****   GPIO_Init(FSMC_D15_GPIO_PORT, &GPIO_InitStructure);
 167:../../source/src/kernel/OS_CPU/bsp/sram.c ****   
 168:../../source/src/kernel/OS_CPU/bsp/sram.c ****   /*控制信号线*/
 169:../../source/src/kernel/OS_CPU/bsp/sram.c ****   GPIO_InitStructure.GPIO_Pin = FSMC_CS_GPIO_PIN; 
 170:../../source/src/kernel/OS_CPU/bsp/sram.c ****   GPIO_Init(FSMC_CS_GPIO_PORT, &GPIO_InitStructure);
 171:../../source/src/kernel/OS_CPU/bsp/sram.c ****     
 172:../../source/src/kernel/OS_CPU/bsp/sram.c ****   GPIO_InitStructure.GPIO_Pin = FSMC_WE_GPIO_PIN; 
 173:../../source/src/kernel/OS_CPU/bsp/sram.c ****   GPIO_Init(FSMC_WE_GPIO_PORT, &GPIO_InitStructure);
 174:../../source/src/kernel/OS_CPU/bsp/sram.c ****   
 175:../../source/src/kernel/OS_CPU/bsp/sram.c ****   GPIO_InitStructure.GPIO_Pin = FSMC_OE_GPIO_PIN; 
 176:../../source/src/kernel/OS_CPU/bsp/sram.c ****   GPIO_Init(FSMC_OE_GPIO_PORT, &GPIO_InitStructure);    
 177:../../source/src/kernel/OS_CPU/bsp/sram.c ****   
 178:../../source/src/kernel/OS_CPU/bsp/sram.c ****   GPIO_InitStructure.GPIO_Pin = FSMC_UDQM_GPIO_PIN; 
 179:../../source/src/kernel/OS_CPU/bsp/sram.c ****   GPIO_Init(FSMC_UDQM_GPIO_PORT, &GPIO_InitStructure);
 180:../../source/src/kernel/OS_CPU/bsp/sram.c ****   
 181:../../source/src/kernel/OS_CPU/bsp/sram.c ****   GPIO_InitStructure.GPIO_Pin = FSMC_LDQM_GPIO_PIN; 
 182:../../source/src/kernel/OS_CPU/bsp/sram.c ****   GPIO_Init(FSMC_LDQM_GPIO_PORT, &GPIO_InitStructure);	
 183:../../source/src/kernel/OS_CPU/bsp/sram.c **** }				  			
 184:../../source/src/kernel/OS_CPU/bsp/sram.c **** 
 185:../../source/src/kernel/OS_CPU/bsp/sram.c **** 
 186:../../source/src/kernel/OS_CPU/bsp/sram.c **** /**
 187:../../source/src/kernel/OS_CPU/bsp/sram.c ****   * @brief  初始化FSMC外设
 188:../../source/src/kernel/OS_CPU/bsp/sram.c ****   * @param  None. 
 189:../../source/src/kernel/OS_CPU/bsp/sram.c ****   * @retval None.
 190:../../source/src/kernel/OS_CPU/bsp/sram.c ****   */
 191:../../source/src/kernel/OS_CPU/bsp/sram.c **** void FSMC_SRAM_Init(void)
 192:../../source/src/kernel/OS_CPU/bsp/sram.c **** {	
  26              		.loc 1 192 0
  27              		.cfi_startproc
  28              		@ args = 0, pretend = 0, frame = 88
  29              		@ frame_needed = 0, uses_anonymous_args = 0
  30 0000 2DE9F04F 		push	{r4, r5, r6, r7, r8, r9, r10, fp, lr}
  31              	.LCFI0:
  32              		.cfi_def_cfa_offset 36
  33              		.cfi_offset 4, -36
  34              		.cfi_offset 5, -32
  35              		.cfi_offset 6, -28
  36              		.cfi_offset 7, -24
ARM GAS  G:\Users\Jaxb\AppData\Local\Temp\ccbTvrRb.s 			page 5


  37              		.cfi_offset 8, -20
  38              		.cfi_offset 9, -16
  39              		.cfi_offset 10, -12
  40              		.cfi_offset 11, -8
  41              		.cfi_offset 14, -4
  42              	.LBB4:
  43              	.LBB5:
  62:../../source/src/kernel/OS_CPU/bsp/sram.c ****   GPIO_Init(FSMC_A0_GPIO_PORT, &GPIO_InitStructure);
  44              		.loc 1 62 0
  45 0004 4FF00108 		mov	r8, #1
  46              	.LBE5:
  47              	.LBE4:
  48              		.loc 1 192 0
  49 0008 97B0     		sub	sp, sp, #92
  50              	.LCFI1:
  51              		.cfi_def_cfa_offset 128
  52              	.LBB7:
  53              	.LBB6:
  36:../../source/src/kernel/OS_CPU/bsp/sram.c ****                          FSMC_A3_GPIO_CLK | FSMC_A4_GPIO_CLK | FSMC_A5_GPIO_CLK |
  54              		.loc 1 36 0
  55 000a 4146     		mov	r1, r8
  56 000c 4FF4F070 		mov	r0, #480
  57 0010 FFF7FEFF 		bl	RCC_APB2PeriphClockCmd
  58              	.LVL0:
  58:../../source/src/kernel/OS_CPU/bsp/sram.c ****   GPIO_InitStructure.GPIO_Speed = GPIO_Speed_50MHz;     
  59              		.loc 1 58 0
  60 0014 1822     		movs	r2, #24
  59:../../source/src/kernel/OS_CPU/bsp/sram.c ****   
  61              		.loc 1 59 0
  62 0016 0323     		movs	r3, #3
  65:../../source/src/kernel/OS_CPU/bsp/sram.c ****   GPIO_Init(FSMC_A1_GPIO_PORT, &GPIO_InitStructure);
  63              		.loc 1 65 0
  64 0018 4FF00209 		mov	r9, #2
  68:../../source/src/kernel/OS_CPU/bsp/sram.c ****   GPIO_Init(FSMC_A2_GPIO_PORT, &GPIO_InitStructure);
  65              		.loc 1 68 0
  66 001c 4FF0040B 		mov	fp, #4
  71:../../source/src/kernel/OS_CPU/bsp/sram.c ****   GPIO_Init(FSMC_A3_GPIO_PORT, &GPIO_InitStructure);
  67              		.loc 1 71 0
  68 0020 0826     		movs	r6, #8
  74:../../source/src/kernel/OS_CPU/bsp/sram.c ****   GPIO_Init(FSMC_A4_GPIO_PORT, &GPIO_InitStructure);
  69              		.loc 1 74 0
  70 0022 4FF0100A 		mov	r10, #16
  62:../../source/src/kernel/OS_CPU/bsp/sram.c ****   GPIO_Init(FSMC_A0_GPIO_PORT, &GPIO_InitStructure);
  71              		.loc 1 62 0
  72 0026 16AC     		add	r4, sp, #88
  63:../../source/src/kernel/OS_CPU/bsp/sram.c ****   
  73              		.loc 1 63 0
  74 0028 AA4D     		ldr	r5, .L3
  62:../../source/src/kernel/OS_CPU/bsp/sram.c ****   GPIO_Init(FSMC_A0_GPIO_PORT, &GPIO_InitStructure);
  75              		.loc 1 62 0
  76 002a 24F83C8D 		strh	r8, [r4, #-60]!	@ movhi
  63:../../source/src/kernel/OS_CPU/bsp/sram.c ****   
  77              		.loc 1 63 0
  78 002e 2146     		mov	r1, r4
  79 0030 2846     		mov	r0, r5
  58:../../source/src/kernel/OS_CPU/bsp/sram.c ****   GPIO_InitStructure.GPIO_Speed = GPIO_Speed_50MHz;     
  80              		.loc 1 58 0
ARM GAS  G:\Users\Jaxb\AppData\Local\Temp\ccbTvrRb.s 			page 6


  81 0032 8DF81F20 		strb	r2, [sp, #31]
  59:../../source/src/kernel/OS_CPU/bsp/sram.c ****   
  82              		.loc 1 59 0
  83 0036 8DF81E30 		strb	r3, [sp, #30]
  63:../../source/src/kernel/OS_CPU/bsp/sram.c ****   
  84              		.loc 1 63 0
  85 003a FFF7FEFF 		bl	GPIO_Init
  86              	.LVL1:
  66:../../source/src/kernel/OS_CPU/bsp/sram.c ****   
  87              		.loc 1 66 0
  88 003e 2146     		mov	r1, r4
  89 0040 2846     		mov	r0, r5
  65:../../source/src/kernel/OS_CPU/bsp/sram.c ****   GPIO_Init(FSMC_A1_GPIO_PORT, &GPIO_InitStructure);
  90              		.loc 1 65 0
  91 0042 ADF81C90 		strh	r9, [sp, #28]	@ movhi
  66:../../source/src/kernel/OS_CPU/bsp/sram.c ****   
  92              		.loc 1 66 0
  93 0046 FFF7FEFF 		bl	GPIO_Init
  94              	.LVL2:
  69:../../source/src/kernel/OS_CPU/bsp/sram.c ****   
  95              		.loc 1 69 0
  96 004a 2146     		mov	r1, r4
  97 004c 2846     		mov	r0, r5
  68:../../source/src/kernel/OS_CPU/bsp/sram.c ****   GPIO_Init(FSMC_A2_GPIO_PORT, &GPIO_InitStructure);
  98              		.loc 1 68 0
  99 004e ADF81CB0 		strh	fp, [sp, #28]	@ movhi
  69:../../source/src/kernel/OS_CPU/bsp/sram.c ****   
 100              		.loc 1 69 0
 101 0052 FFF7FEFF 		bl	GPIO_Init
 102              	.LVL3:
  72:../../source/src/kernel/OS_CPU/bsp/sram.c ****   
 103              		.loc 1 72 0
 104 0056 2146     		mov	r1, r4
 105 0058 2846     		mov	r0, r5
  71:../../source/src/kernel/OS_CPU/bsp/sram.c ****   GPIO_Init(FSMC_A3_GPIO_PORT, &GPIO_InitStructure);
 106              		.loc 1 71 0
 107 005a ADF81C60 		strh	r6, [sp, #28]	@ movhi
  72:../../source/src/kernel/OS_CPU/bsp/sram.c ****   
 108              		.loc 1 72 0
 109 005e FFF7FEFF 		bl	GPIO_Init
 110              	.LVL4:
  75:../../source/src/kernel/OS_CPU/bsp/sram.c ****   
 111              		.loc 1 75 0
 112 0062 2146     		mov	r1, r4
 113 0064 2846     		mov	r0, r5
  74:../../source/src/kernel/OS_CPU/bsp/sram.c ****   GPIO_Init(FSMC_A4_GPIO_PORT, &GPIO_InitStructure);
 114              		.loc 1 74 0
 115 0066 ADF81CA0 		strh	r10, [sp, #28]	@ movhi
  75:../../source/src/kernel/OS_CPU/bsp/sram.c ****   
 116              		.loc 1 75 0
 117 006a FFF7FEFF 		bl	GPIO_Init
 118              	.LVL5:
  77:../../source/src/kernel/OS_CPU/bsp/sram.c ****   GPIO_Init(FSMC_A5_GPIO_PORT, &GPIO_InitStructure);
 119              		.loc 1 77 0
 120 006e 4FF02003 		mov	r3, #32	@ movhi
  78:../../source/src/kernel/OS_CPU/bsp/sram.c ****   
 121              		.loc 1 78 0
ARM GAS  G:\Users\Jaxb\AppData\Local\Temp\ccbTvrRb.s 			page 7


 122 0072 2146     		mov	r1, r4
 123 0074 2846     		mov	r0, r5
  77:../../source/src/kernel/OS_CPU/bsp/sram.c ****   GPIO_Init(FSMC_A5_GPIO_PORT, &GPIO_InitStructure);
 124              		.loc 1 77 0
 125 0076 ADF81C30 		strh	r3, [sp, #28]	@ movhi
  78:../../source/src/kernel/OS_CPU/bsp/sram.c ****   
 126              		.loc 1 78 0
 127 007a FFF7FEFF 		bl	GPIO_Init
 128              	.LVL6:
  80:../../source/src/kernel/OS_CPU/bsp/sram.c ****   GPIO_Init(FSMC_A6_GPIO_PORT, &GPIO_InitStructure);
 129              		.loc 1 80 0
 130 007e 4FF48052 		mov	r2, #4096	@ movhi
  83:../../source/src/kernel/OS_CPU/bsp/sram.c ****   GPIO_Init(FSMC_A7_GPIO_PORT, &GPIO_InitStructure);
 131              		.loc 1 83 0
 132 0082 4FF40057 		mov	r7, #8192	@ movhi
  81:../../source/src/kernel/OS_CPU/bsp/sram.c ****   
 133              		.loc 1 81 0
 134 0086 2146     		mov	r1, r4
 135 0088 2846     		mov	r0, r5
  80:../../source/src/kernel/OS_CPU/bsp/sram.c ****   GPIO_Init(FSMC_A6_GPIO_PORT, &GPIO_InitStructure);
 136              		.loc 1 80 0
 137 008a ADF81C20 		strh	r2, [sp, #28]	@ movhi
  81:../../source/src/kernel/OS_CPU/bsp/sram.c ****   
 138              		.loc 1 81 0
 139 008e FFF7FEFF 		bl	GPIO_Init
 140              	.LVL7:
  84:../../source/src/kernel/OS_CPU/bsp/sram.c ****   
 141              		.loc 1 84 0
 142 0092 2146     		mov	r1, r4
 143 0094 2846     		mov	r0, r5
  83:../../source/src/kernel/OS_CPU/bsp/sram.c ****   GPIO_Init(FSMC_A7_GPIO_PORT, &GPIO_InitStructure);
 144              		.loc 1 83 0
 145 0096 ADF81C70 		strh	r7, [sp, #28]	@ movhi
  84:../../source/src/kernel/OS_CPU/bsp/sram.c ****   
 146              		.loc 1 84 0
 147 009a FFF7FEFF 		bl	GPIO_Init
 148              	.LVL8:
  86:../../source/src/kernel/OS_CPU/bsp/sram.c ****   GPIO_Init(FSMC_A8_GPIO_PORT, &GPIO_InitStructure);
 149              		.loc 1 86 0
 150 009e 4FF4804C 		mov	ip, #16384	@ movhi
  87:../../source/src/kernel/OS_CPU/bsp/sram.c ****   
 151              		.loc 1 87 0
 152 00a2 2146     		mov	r1, r4
 153 00a4 2846     		mov	r0, r5
  86:../../source/src/kernel/OS_CPU/bsp/sram.c ****   GPIO_Init(FSMC_A8_GPIO_PORT, &GPIO_InitStructure);
 154              		.loc 1 86 0
 155 00a6 ADF81CC0 		strh	ip, [sp, #28]	@ movhi
  87:../../source/src/kernel/OS_CPU/bsp/sram.c ****   
 156              		.loc 1 87 0
 157 00aa FFF7FEFF 		bl	GPIO_Init
 158              	.LVL9:
  90:../../source/src/kernel/OS_CPU/bsp/sram.c ****   
 159              		.loc 1 90 0
 160 00ae 2846     		mov	r0, r5
  89:../../source/src/kernel/OS_CPU/bsp/sram.c ****   GPIO_Init(FSMC_A9_GPIO_PORT, &GPIO_InitStructure);
 161              		.loc 1 89 0
 162 00b0 48F20005 		movw	r5, 32768	@ movhi
ARM GAS  G:\Users\Jaxb\AppData\Local\Temp\ccbTvrRb.s 			page 8


  93:../../source/src/kernel/OS_CPU/bsp/sram.c ****   
 163              		.loc 1 93 0
 164 00b4 884F     		ldr	r7, .L3+4
  90:../../source/src/kernel/OS_CPU/bsp/sram.c ****   
 165              		.loc 1 90 0
 166 00b6 2146     		mov	r1, r4
  89:../../source/src/kernel/OS_CPU/bsp/sram.c ****   GPIO_Init(FSMC_A9_GPIO_PORT, &GPIO_InitStructure);
 167              		.loc 1 89 0
 168 00b8 ADF81C50 		strh	r5, [sp, #28]	@ movhi
  90:../../source/src/kernel/OS_CPU/bsp/sram.c ****   
 169              		.loc 1 90 0
 170 00bc FFF7FEFF 		bl	GPIO_Init
 171              	.LVL10:
  93:../../source/src/kernel/OS_CPU/bsp/sram.c ****   
 172              		.loc 1 93 0
 173 00c0 2146     		mov	r1, r4
 174 00c2 3846     		mov	r0, r7
  92:../../source/src/kernel/OS_CPU/bsp/sram.c ****   GPIO_Init(FSMC_A10_GPIO_PORT, &GPIO_InitStructure);
 175              		.loc 1 92 0
 176 00c4 ADF81C80 		strh	r8, [sp, #28]	@ movhi
  93:../../source/src/kernel/OS_CPU/bsp/sram.c ****   
 177              		.loc 1 93 0
 178 00c8 FFF7FEFF 		bl	GPIO_Init
 179              	.LVL11:
  96:../../source/src/kernel/OS_CPU/bsp/sram.c **** 	
 180              		.loc 1 96 0
 181 00cc 2146     		mov	r1, r4
 182 00ce 3846     		mov	r0, r7
  95:../../source/src/kernel/OS_CPU/bsp/sram.c ****   GPIO_Init(FSMC_A11_GPIO_PORT, &GPIO_InitStructure);
 183              		.loc 1 95 0
 184 00d0 ADF81C90 		strh	r9, [sp, #28]	@ movhi
  96:../../source/src/kernel/OS_CPU/bsp/sram.c **** 	
 185              		.loc 1 96 0
 186 00d4 FFF7FEFF 		bl	GPIO_Init
 187              	.LVL12:
  99:../../source/src/kernel/OS_CPU/bsp/sram.c ****   
 188              		.loc 1 99 0
 189 00d8 2146     		mov	r1, r4
 190 00da 3846     		mov	r0, r7
  98:../../source/src/kernel/OS_CPU/bsp/sram.c ****   GPIO_Init(FSMC_A12_GPIO_PORT, &GPIO_InitStructure);
 191              		.loc 1 98 0
 192 00dc ADF81CB0 		strh	fp, [sp, #28]	@ movhi
  99:../../source/src/kernel/OS_CPU/bsp/sram.c ****   
 193              		.loc 1 99 0
 194 00e0 FFF7FEFF 		bl	GPIO_Init
 195              	.LVL13:
 102:../../source/src/kernel/OS_CPU/bsp/sram.c ****   
 196              		.loc 1 102 0
 197 00e4 2146     		mov	r1, r4
 198 00e6 3846     		mov	r0, r7
 101:../../source/src/kernel/OS_CPU/bsp/sram.c ****   GPIO_Init(FSMC_A13_GPIO_PORT, &GPIO_InitStructure);
 199              		.loc 1 101 0
 200 00e8 ADF81C60 		strh	r6, [sp, #28]	@ movhi
 102:../../source/src/kernel/OS_CPU/bsp/sram.c ****   
 201              		.loc 1 102 0
 202 00ec FFF7FEFF 		bl	GPIO_Init
 203              	.LVL14:
ARM GAS  G:\Users\Jaxb\AppData\Local\Temp\ccbTvrRb.s 			page 9


 105:../../source/src/kernel/OS_CPU/bsp/sram.c ****   
 204              		.loc 1 105 0
 205 00f0 2146     		mov	r1, r4
 206 00f2 3846     		mov	r0, r7
 104:../../source/src/kernel/OS_CPU/bsp/sram.c ****   GPIO_Init(FSMC_A14_GPIO_PORT, &GPIO_InitStructure);
 207              		.loc 1 104 0
 208 00f4 ADF81CA0 		strh	r10, [sp, #28]	@ movhi
 105:../../source/src/kernel/OS_CPU/bsp/sram.c ****   
 209              		.loc 1 105 0
 210 00f8 FFF7FEFF 		bl	GPIO_Init
 211              	.LVL15:
 107:../../source/src/kernel/OS_CPU/bsp/sram.c ****   GPIO_Init(FSMC_A15_GPIO_PORT, &GPIO_InitStructure);	
 212              		.loc 1 107 0
 213 00fc 4FF02003 		mov	r3, #32	@ movhi
 110:../../source/src/kernel/OS_CPU/bsp/sram.c ****   GPIO_Init(FSMC_A16_GPIO_PORT, &GPIO_InitStructure);
 214              		.loc 1 110 0
 215 0100 4FF40066 		mov	r6, #2048	@ movhi
 111:../../source/src/kernel/OS_CPU/bsp/sram.c ****   
 216              		.loc 1 111 0
 217 0104 754D     		ldr	r5, .L3+8
 108:../../source/src/kernel/OS_CPU/bsp/sram.c **** 	
 218              		.loc 1 108 0
 219 0106 2146     		mov	r1, r4
 220 0108 3846     		mov	r0, r7
 107:../../source/src/kernel/OS_CPU/bsp/sram.c ****   GPIO_Init(FSMC_A15_GPIO_PORT, &GPIO_InitStructure);	
 221              		.loc 1 107 0
 222 010a ADF81C30 		strh	r3, [sp, #28]	@ movhi
 108:../../source/src/kernel/OS_CPU/bsp/sram.c **** 	
 223              		.loc 1 108 0
 224 010e FFF7FEFF 		bl	GPIO_Init
 225              	.LVL16:
 111:../../source/src/kernel/OS_CPU/bsp/sram.c ****   
 226              		.loc 1 111 0
 227 0112 2146     		mov	r1, r4
 228 0114 2846     		mov	r0, r5
 110:../../source/src/kernel/OS_CPU/bsp/sram.c ****   GPIO_Init(FSMC_A16_GPIO_PORT, &GPIO_InitStructure);
 229              		.loc 1 110 0
 230 0116 ADF81C60 		strh	r6, [sp, #28]	@ movhi
 111:../../source/src/kernel/OS_CPU/bsp/sram.c ****   
 231              		.loc 1 111 0
 232 011a FFF7FEFF 		bl	GPIO_Init
 233              	.LVL17:
 113:../../source/src/kernel/OS_CPU/bsp/sram.c ****   GPIO_Init(FSMC_A17_GPIO_PORT, &GPIO_InitStructure);
 234              		.loc 1 113 0
 235 011e 4FF48052 		mov	r2, #4096	@ movhi
 116:../../source/src/kernel/OS_CPU/bsp/sram.c ****   GPIO_Init(FSMC_A18_GPIO_PORT, &GPIO_InitStructure);
 236              		.loc 1 116 0
 237 0122 4FF40056 		mov	r6, #8192	@ movhi
 114:../../source/src/kernel/OS_CPU/bsp/sram.c ****   
 238              		.loc 1 114 0
 239 0126 2146     		mov	r1, r4
 240 0128 2846     		mov	r0, r5
 113:../../source/src/kernel/OS_CPU/bsp/sram.c ****   GPIO_Init(FSMC_A17_GPIO_PORT, &GPIO_InitStructure);
 241              		.loc 1 113 0
 242 012a ADF81C20 		strh	r2, [sp, #28]	@ movhi
 114:../../source/src/kernel/OS_CPU/bsp/sram.c ****   
 243              		.loc 1 114 0
ARM GAS  G:\Users\Jaxb\AppData\Local\Temp\ccbTvrRb.s 			page 10


 244 012e FFF7FEFF 		bl	GPIO_Init
 245              	.LVL18:
 117:../../source/src/kernel/OS_CPU/bsp/sram.c ****     
 246              		.loc 1 117 0
 247 0132 2146     		mov	r1, r4
 248 0134 2846     		mov	r0, r5
 116:../../source/src/kernel/OS_CPU/bsp/sram.c ****   GPIO_Init(FSMC_A18_GPIO_PORT, &GPIO_InitStructure);
 249              		.loc 1 116 0
 250 0136 ADF81C60 		strh	r6, [sp, #28]	@ movhi
 117:../../source/src/kernel/OS_CPU/bsp/sram.c ****     
 251              		.loc 1 117 0
 252 013a FFF7FEFF 		bl	GPIO_Init
 253              	.LVL19:
 120:../../source/src/kernel/OS_CPU/bsp/sram.c ****   GPIO_Init(FSMC_D0_GPIO_PORT, &GPIO_InitStructure);
 254              		.loc 1 120 0
 255 013e 4FF4804C 		mov	ip, #16384	@ movhi
 121:../../source/src/kernel/OS_CPU/bsp/sram.c ****   
 256              		.loc 1 121 0
 257 0142 2146     		mov	r1, r4
 258 0144 2846     		mov	r0, r5
 120:../../source/src/kernel/OS_CPU/bsp/sram.c ****   GPIO_Init(FSMC_D0_GPIO_PORT, &GPIO_InitStructure);
 259              		.loc 1 120 0
 260 0146 ADF81CC0 		strh	ip, [sp, #28]	@ movhi
 121:../../source/src/kernel/OS_CPU/bsp/sram.c ****   
 261              		.loc 1 121 0
 262 014a FFF7FEFF 		bl	GPIO_Init
 263              	.LVL20:
 123:../../source/src/kernel/OS_CPU/bsp/sram.c ****   GPIO_Init(FSMC_D1_GPIO_PORT, &GPIO_InitStructure);
 264              		.loc 1 123 0
 265 014e 48F2000E 		movw	lr, 32768	@ movhi
 124:../../source/src/kernel/OS_CPU/bsp/sram.c ****     
 266              		.loc 1 124 0
 267 0152 2146     		mov	r1, r4
 268 0154 2846     		mov	r0, r5
 123:../../source/src/kernel/OS_CPU/bsp/sram.c ****   GPIO_Init(FSMC_D1_GPIO_PORT, &GPIO_InitStructure);
 269              		.loc 1 123 0
 270 0156 ADF81CE0 		strh	lr, [sp, #28]	@ movhi
 124:../../source/src/kernel/OS_CPU/bsp/sram.c ****     
 271              		.loc 1 124 0
 272 015a FFF7FEFF 		bl	GPIO_Init
 273              	.LVL21:
 127:../../source/src/kernel/OS_CPU/bsp/sram.c ****   
 274              		.loc 1 127 0
 275 015e 2146     		mov	r1, r4
 276 0160 2846     		mov	r0, r5
 126:../../source/src/kernel/OS_CPU/bsp/sram.c ****   GPIO_Init(FSMC_D2_GPIO_PORT, &GPIO_InitStructure);
 277              		.loc 1 126 0
 278 0162 ADF81C80 		strh	r8, [sp, #28]	@ movhi
 127:../../source/src/kernel/OS_CPU/bsp/sram.c ****   
 279              		.loc 1 127 0
 280 0166 FFF7FEFF 		bl	GPIO_Init
 281              	.LVL22:
 130:../../source/src/kernel/OS_CPU/bsp/sram.c ****   
 282              		.loc 1 130 0
 283 016a 2146     		mov	r1, r4
 284 016c 2846     		mov	r0, r5
 129:../../source/src/kernel/OS_CPU/bsp/sram.c ****   GPIO_Init(FSMC_D3_GPIO_PORT, &GPIO_InitStructure);
ARM GAS  G:\Users\Jaxb\AppData\Local\Temp\ccbTvrRb.s 			page 11


 285              		.loc 1 129 0
 286 016e ADF81C90 		strh	r9, [sp, #28]	@ movhi
 130:../../source/src/kernel/OS_CPU/bsp/sram.c ****   
 287              		.loc 1 130 0
 288 0172 FFF7FEFF 		bl	GPIO_Init
 289              	.LVL23:
 132:../../source/src/kernel/OS_CPU/bsp/sram.c ****   GPIO_Init(FSMC_D4_GPIO_PORT, &GPIO_InitStructure);
 290              		.loc 1 132 0
 291 0176 8023     		movs	r3, #128
 133:../../source/src/kernel/OS_CPU/bsp/sram.c ****   
 292              		.loc 1 133 0
 293 0178 594E     		ldr	r6, .L3+12
 294 017a 2146     		mov	r1, r4
 295 017c 3046     		mov	r0, r6
 132:../../source/src/kernel/OS_CPU/bsp/sram.c ****   GPIO_Init(FSMC_D4_GPIO_PORT, &GPIO_InitStructure);
 296              		.loc 1 132 0
 297 017e ADF81C30 		strh	r3, [sp, #28]	@ movhi
 133:../../source/src/kernel/OS_CPU/bsp/sram.c ****   
 298              		.loc 1 133 0
 299 0182 FFF7FEFF 		bl	GPIO_Init
 300              	.LVL24:
 135:../../source/src/kernel/OS_CPU/bsp/sram.c ****   GPIO_Init(FSMC_D5_GPIO_PORT, &GPIO_InitStructure);
 301              		.loc 1 135 0
 302 0186 4FF4807E 		mov	lr, #256	@ movhi
 136:../../source/src/kernel/OS_CPU/bsp/sram.c ****   
 303              		.loc 1 136 0
 304 018a 2146     		mov	r1, r4
 305 018c 3046     		mov	r0, r6
 135:../../source/src/kernel/OS_CPU/bsp/sram.c ****   GPIO_Init(FSMC_D5_GPIO_PORT, &GPIO_InitStructure);
 306              		.loc 1 135 0
 307 018e ADF81CE0 		strh	lr, [sp, #28]	@ movhi
 136:../../source/src/kernel/OS_CPU/bsp/sram.c ****   
 308              		.loc 1 136 0
 309 0192 FFF7FEFF 		bl	GPIO_Init
 310              	.LVL25:
 138:../../source/src/kernel/OS_CPU/bsp/sram.c ****   GPIO_Init(FSMC_D6_GPIO_PORT, &GPIO_InitStructure);
 311              		.loc 1 138 0
 312 0196 4FF4007C 		mov	ip, #512	@ movhi
 139:../../source/src/kernel/OS_CPU/bsp/sram.c ****   
 313              		.loc 1 139 0
 314 019a 2146     		mov	r1, r4
 315 019c 3046     		mov	r0, r6
 138:../../source/src/kernel/OS_CPU/bsp/sram.c ****   GPIO_Init(FSMC_D6_GPIO_PORT, &GPIO_InitStructure);
 316              		.loc 1 138 0
 317 019e ADF81CC0 		strh	ip, [sp, #28]	@ movhi
 139:../../source/src/kernel/OS_CPU/bsp/sram.c ****   
 318              		.loc 1 139 0
 319 01a2 FFF7FEFF 		bl	GPIO_Init
 320              	.LVL26:
 141:../../source/src/kernel/OS_CPU/bsp/sram.c ****   GPIO_Init(FSMC_D7_GPIO_PORT, &GPIO_InitStructure);
 321              		.loc 1 141 0
 322 01a6 4FF4806E 		mov	lr, #1024	@ movhi
 142:../../source/src/kernel/OS_CPU/bsp/sram.c ****   
 323              		.loc 1 142 0
 324 01aa 2146     		mov	r1, r4
 325 01ac 3046     		mov	r0, r6
 141:../../source/src/kernel/OS_CPU/bsp/sram.c ****   GPIO_Init(FSMC_D7_GPIO_PORT, &GPIO_InitStructure);
ARM GAS  G:\Users\Jaxb\AppData\Local\Temp\ccbTvrRb.s 			page 12


 326              		.loc 1 141 0
 327 01ae ADF81CE0 		strh	lr, [sp, #28]	@ movhi
 142:../../source/src/kernel/OS_CPU/bsp/sram.c ****   
 328              		.loc 1 142 0
 329 01b2 FFF7FEFF 		bl	GPIO_Init
 330              	.LVL27:
 144:../../source/src/kernel/OS_CPU/bsp/sram.c ****   GPIO_Init(FSMC_D8_GPIO_PORT, &GPIO_InitStructure);
 331              		.loc 1 144 0
 332 01b6 4FF40063 		mov	r3, #2048	@ movhi
 145:../../source/src/kernel/OS_CPU/bsp/sram.c ****   
 333              		.loc 1 145 0
 334 01ba 2146     		mov	r1, r4
 335 01bc 3046     		mov	r0, r6
 144:../../source/src/kernel/OS_CPU/bsp/sram.c ****   GPIO_Init(FSMC_D8_GPIO_PORT, &GPIO_InitStructure);
 336              		.loc 1 144 0
 337 01be ADF81C30 		strh	r3, [sp, #28]	@ movhi
 145:../../source/src/kernel/OS_CPU/bsp/sram.c ****   
 338              		.loc 1 145 0
 339 01c2 FFF7FEFF 		bl	GPIO_Init
 340              	.LVL28:
 147:../../source/src/kernel/OS_CPU/bsp/sram.c ****   GPIO_Init(FSMC_D9_GPIO_PORT, &GPIO_InitStructure);
 341              		.loc 1 147 0
 342 01c6 4FF48052 		mov	r2, #4096	@ movhi
 148:../../source/src/kernel/OS_CPU/bsp/sram.c ****   
 343              		.loc 1 148 0
 344 01ca 2146     		mov	r1, r4
 345 01cc 3046     		mov	r0, r6
 147:../../source/src/kernel/OS_CPU/bsp/sram.c ****   GPIO_Init(FSMC_D9_GPIO_PORT, &GPIO_InitStructure);
 346              		.loc 1 147 0
 347 01ce ADF81C20 		strh	r2, [sp, #28]	@ movhi
 148:../../source/src/kernel/OS_CPU/bsp/sram.c ****   
 348              		.loc 1 148 0
 349 01d2 FFF7FEFF 		bl	GPIO_Init
 350              	.LVL29:
 150:../../source/src/kernel/OS_CPU/bsp/sram.c ****   GPIO_Init(FSMC_D10_GPIO_PORT, &GPIO_InitStructure);
 351              		.loc 1 150 0
 352 01d6 4FF40052 		mov	r2, #8192	@ movhi
 151:../../source/src/kernel/OS_CPU/bsp/sram.c ****   
 353              		.loc 1 151 0
 354 01da 2146     		mov	r1, r4
 355 01dc 3046     		mov	r0, r6
 150:../../source/src/kernel/OS_CPU/bsp/sram.c ****   GPIO_Init(FSMC_D10_GPIO_PORT, &GPIO_InitStructure);
 356              		.loc 1 150 0
 357 01de ADF81C20 		strh	r2, [sp, #28]	@ movhi
 151:../../source/src/kernel/OS_CPU/bsp/sram.c ****   
 358              		.loc 1 151 0
 359 01e2 FFF7FEFF 		bl	GPIO_Init
 360              	.LVL30:
 153:../../source/src/kernel/OS_CPU/bsp/sram.c ****   GPIO_Init(FSMC_D11_GPIO_PORT, &GPIO_InitStructure);
 361              		.loc 1 153 0
 362 01e6 4FF4804C 		mov	ip, #16384	@ movhi
 154:../../source/src/kernel/OS_CPU/bsp/sram.c ****   
 363              		.loc 1 154 0
 364 01ea 2146     		mov	r1, r4
 365 01ec 3046     		mov	r0, r6
 153:../../source/src/kernel/OS_CPU/bsp/sram.c ****   GPIO_Init(FSMC_D11_GPIO_PORT, &GPIO_InitStructure);
 366              		.loc 1 153 0
ARM GAS  G:\Users\Jaxb\AppData\Local\Temp\ccbTvrRb.s 			page 13


 367 01ee ADF81CC0 		strh	ip, [sp, #28]	@ movhi
 154:../../source/src/kernel/OS_CPU/bsp/sram.c ****   
 368              		.loc 1 154 0
 369 01f2 FFF7FEFF 		bl	GPIO_Init
 370              	.LVL31:
 156:../../source/src/kernel/OS_CPU/bsp/sram.c ****   GPIO_Init(FSMC_D12_GPIO_PORT, &GPIO_InitStructure);
 371              		.loc 1 156 0
 372 01f6 48F2000E 		movw	lr, 32768	@ movhi
 157:../../source/src/kernel/OS_CPU/bsp/sram.c ****   
 373              		.loc 1 157 0
 374 01fa 2146     		mov	r1, r4
 375 01fc 3046     		mov	r0, r6
 156:../../source/src/kernel/OS_CPU/bsp/sram.c ****   GPIO_Init(FSMC_D12_GPIO_PORT, &GPIO_InitStructure);
 376              		.loc 1 156 0
 377 01fe ADF81CE0 		strh	lr, [sp, #28]	@ movhi
 157:../../source/src/kernel/OS_CPU/bsp/sram.c ****   
 378              		.loc 1 157 0
 379 0202 FFF7FEFF 		bl	GPIO_Init
 380              	.LVL32:
 159:../../source/src/kernel/OS_CPU/bsp/sram.c ****   GPIO_Init(FSMC_D13_GPIO_PORT, &GPIO_InitStructure);
 381              		.loc 1 159 0
 382 0206 4FF48072 		mov	r2, #256	@ movhi
 160:../../source/src/kernel/OS_CPU/bsp/sram.c ****   
 383              		.loc 1 160 0
 384 020a 2146     		mov	r1, r4
 385 020c 2846     		mov	r0, r5
 159:../../source/src/kernel/OS_CPU/bsp/sram.c ****   GPIO_Init(FSMC_D13_GPIO_PORT, &GPIO_InitStructure);
 386              		.loc 1 159 0
 387 020e ADF81C20 		strh	r2, [sp, #28]	@ movhi
 160:../../source/src/kernel/OS_CPU/bsp/sram.c ****   
 388              		.loc 1 160 0
 389 0212 FFF7FEFF 		bl	GPIO_Init
 390              	.LVL33:
 162:../../source/src/kernel/OS_CPU/bsp/sram.c ****   GPIO_Init(FSMC_D14_GPIO_PORT, &GPIO_InitStructure);
 391              		.loc 1 162 0
 392 0216 4FF4007C 		mov	ip, #512	@ movhi
 163:../../source/src/kernel/OS_CPU/bsp/sram.c ****   
 393              		.loc 1 163 0
 394 021a 2146     		mov	r1, r4
 395 021c 2846     		mov	r0, r5
 162:../../source/src/kernel/OS_CPU/bsp/sram.c ****   GPIO_Init(FSMC_D14_GPIO_PORT, &GPIO_InitStructure);
 396              		.loc 1 162 0
 397 021e ADF81CC0 		strh	ip, [sp, #28]	@ movhi
 163:../../source/src/kernel/OS_CPU/bsp/sram.c ****   
 398              		.loc 1 163 0
 399 0222 FFF7FEFF 		bl	GPIO_Init
 400              	.LVL34:
 165:../../source/src/kernel/OS_CPU/bsp/sram.c ****   GPIO_Init(FSMC_D15_GPIO_PORT, &GPIO_InitStructure);
 401              		.loc 1 165 0
 402 0226 4FF4806E 		mov	lr, #1024	@ movhi
 166:../../source/src/kernel/OS_CPU/bsp/sram.c ****   
 403              		.loc 1 166 0
 404 022a 2146     		mov	r1, r4
 405 022c 2846     		mov	r0, r5
 165:../../source/src/kernel/OS_CPU/bsp/sram.c ****   GPIO_Init(FSMC_D15_GPIO_PORT, &GPIO_InitStructure);
 406              		.loc 1 165 0
 407 022e ADF81CE0 		strh	lr, [sp, #28]	@ movhi
ARM GAS  G:\Users\Jaxb\AppData\Local\Temp\ccbTvrRb.s 			page 14


 166:../../source/src/kernel/OS_CPU/bsp/sram.c ****   
 408              		.loc 1 166 0
 409 0232 FFF7FEFF 		bl	GPIO_Init
 410              	.LVL35:
 169:../../source/src/kernel/OS_CPU/bsp/sram.c ****   GPIO_Init(FSMC_CS_GPIO_PORT, &GPIO_InitStructure);
 411              		.loc 1 169 0
 412 0236 4FF4806E 		mov	lr, #1024	@ movhi
 170:../../source/src/kernel/OS_CPU/bsp/sram.c ****     
 413              		.loc 1 170 0
 414 023a 3846     		mov	r0, r7
 415 023c 2146     		mov	r1, r4
 169:../../source/src/kernel/OS_CPU/bsp/sram.c ****   GPIO_Init(FSMC_CS_GPIO_PORT, &GPIO_InitStructure);
 416              		.loc 1 169 0
 417 023e ADF81CE0 		strh	lr, [sp, #28]	@ movhi
 170:../../source/src/kernel/OS_CPU/bsp/sram.c ****     
 418              		.loc 1 170 0
 419 0242 FFF7FEFF 		bl	GPIO_Init
 420              	.LVL36:
 172:../../source/src/kernel/OS_CPU/bsp/sram.c ****   GPIO_Init(FSMC_WE_GPIO_PORT, &GPIO_InitStructure);
 421              		.loc 1 172 0
 422 0246 4FF02003 		mov	r3, #32	@ movhi
 173:../../source/src/kernel/OS_CPU/bsp/sram.c ****   
 423              		.loc 1 173 0
 424 024a 2146     		mov	r1, r4
 425 024c 2846     		mov	r0, r5
 172:../../source/src/kernel/OS_CPU/bsp/sram.c ****   GPIO_Init(FSMC_WE_GPIO_PORT, &GPIO_InitStructure);
 426              		.loc 1 172 0
 427 024e ADF81C30 		strh	r3, [sp, #28]	@ movhi
 173:../../source/src/kernel/OS_CPU/bsp/sram.c ****   
 428              		.loc 1 173 0
 429 0252 FFF7FEFF 		bl	GPIO_Init
 430              	.LVL37:
 176:../../source/src/kernel/OS_CPU/bsp/sram.c ****   
 431              		.loc 1 176 0
 432 0256 2846     		mov	r0, r5
 433 0258 2146     		mov	r1, r4
 175:../../source/src/kernel/OS_CPU/bsp/sram.c ****   GPIO_Init(FSMC_OE_GPIO_PORT, &GPIO_InitStructure);    
 434              		.loc 1 175 0
 435 025a ADF81CA0 		strh	r10, [sp, #28]	@ movhi
 176:../../source/src/kernel/OS_CPU/bsp/sram.c ****   
 436              		.loc 1 176 0
 437 025e FFF7FEFF 		bl	GPIO_Init
 438              	.LVL38:
 179:../../source/src/kernel/OS_CPU/bsp/sram.c ****   
 439              		.loc 1 179 0
 440 0262 2146     		mov	r1, r4
 441 0264 3046     		mov	r0, r6
 178:../../source/src/kernel/OS_CPU/bsp/sram.c ****   GPIO_Init(FSMC_UDQM_GPIO_PORT, &GPIO_InitStructure);
 442              		.loc 1 178 0
 443 0266 ADF81C90 		strh	r9, [sp, #28]	@ movhi
 179:../../source/src/kernel/OS_CPU/bsp/sram.c ****   
 444              		.loc 1 179 0
 445 026a FFF7FEFF 		bl	GPIO_Init
 446              	.LVL39:
 182:../../source/src/kernel/OS_CPU/bsp/sram.c **** }				  			
 447              		.loc 1 182 0
 448 026e 3046     		mov	r0, r6
ARM GAS  G:\Users\Jaxb\AppData\Local\Temp\ccbTvrRb.s 			page 15


 449 0270 2146     		mov	r1, r4
 181:../../source/src/kernel/OS_CPU/bsp/sram.c ****   GPIO_Init(FSMC_LDQM_GPIO_PORT, &GPIO_InitStructure);	
 450              		.loc 1 181 0
 451 0272 ADF81C80 		strh	r8, [sp, #28]	@ movhi
 182:../../source/src/kernel/OS_CPU/bsp/sram.c **** }				  			
 452              		.loc 1 182 0
 453 0276 FFF7FEFF 		bl	GPIO_Init
 454              	.LVL40:
 455              	.LBE6:
 456              	.LBE7:
 193:../../source/src/kernel/OS_CPU/bsp/sram.c **** 	FSMC_NORSRAMInitTypeDef  FSMC_NORSRAMInitStructure;
 194:../../source/src/kernel/OS_CPU/bsp/sram.c **** 	FSMC_NORSRAMTimingInitTypeDef  readWriteTiming;
 195:../../source/src/kernel/OS_CPU/bsp/sram.c **** 
 196:../../source/src/kernel/OS_CPU/bsp/sram.c **** 	/*初始化SRAM相关的GPIO*/
 197:../../source/src/kernel/OS_CPU/bsp/sram.c **** 	SRAM_GPIO_Config();
 198:../../source/src/kernel/OS_CPU/bsp/sram.c **** 		
 199:../../source/src/kernel/OS_CPU/bsp/sram.c **** 	/*使能FSMC外设时钟*/
 200:../../source/src/kernel/OS_CPU/bsp/sram.c **** 	RCC_AHBPeriphClockCmd(RCC_AHBPeriph_FSMC,ENABLE);
 457              		.loc 1 200 0
 458 027a 4146     		mov	r1, r8
 459 027c 4FF48070 		mov	r0, #256
 460 0280 FFF7FEFF 		bl	RCC_AHBPeriphClockCmd
 461              	.LVL41:
 201:../../source/src/kernel/OS_CPU/bsp/sram.c **** 
 202:../../source/src/kernel/OS_CPU/bsp/sram.c **** 	//地址建立时间（ADDSET）为1个HCLK 1/72M=14ns
 203:../../source/src/kernel/OS_CPU/bsp/sram.c **** 	readWriteTiming.FSMC_AddressSetupTime = 0x00;	
 462              		.loc 1 203 0
 463 0284 0023     		movs	r3, #0
 204:../../source/src/kernel/OS_CPU/bsp/sram.c **** 
 205:../../source/src/kernel/OS_CPU/bsp/sram.c **** 	//地址保持时间（ADDHLD）模式A未用到
 206:../../source/src/kernel/OS_CPU/bsp/sram.c **** 	readWriteTiming.FSMC_AddressHoldTime = 0x00;	 
 207:../../source/src/kernel/OS_CPU/bsp/sram.c **** 
 208:../../source/src/kernel/OS_CPU/bsp/sram.c **** 	//数据保持时间（DATAST）+ 1个HCLK = 3/72M=42ns(对EM的SRAM芯片)	
 209:../../source/src/kernel/OS_CPU/bsp/sram.c **** 	readWriteTiming.FSMC_DataSetupTime = 0x02;		  
 210:../../source/src/kernel/OS_CPU/bsp/sram.c **** 	
 211:../../source/src/kernel/OS_CPU/bsp/sram.c **** 	//设置总线转换周期，仅用于复用模式的NOR操作
 212:../../source/src/kernel/OS_CPU/bsp/sram.c **** 	readWriteTiming.FSMC_BusTurnAroundDuration = 0x00;
 213:../../source/src/kernel/OS_CPU/bsp/sram.c **** 	
 214:../../source/src/kernel/OS_CPU/bsp/sram.c **** 	//设置时钟分频，仅用于同步类型的存储器
 215:../../source/src/kernel/OS_CPU/bsp/sram.c **** 	readWriteTiming.FSMC_CLKDivision = 0x00;	
 216:../../source/src/kernel/OS_CPU/bsp/sram.c **** 
 217:../../source/src/kernel/OS_CPU/bsp/sram.c **** 	//数据保持时间，仅用于同步型的NOR
 218:../../source/src/kernel/OS_CPU/bsp/sram.c **** 	readWriteTiming.FSMC_DataLatency = 0x00;		
 219:../../source/src/kernel/OS_CPU/bsp/sram.c **** 	
 220:../../source/src/kernel/OS_CPU/bsp/sram.c **** 	//选择匹配SRAM的模式
 221:../../source/src/kernel/OS_CPU/bsp/sram.c **** 	readWriteTiming.FSMC_AccessMode = FSMC_AccessMode_A;	 
 222:../../source/src/kernel/OS_CPU/bsp/sram.c ****     
 223:../../source/src/kernel/OS_CPU/bsp/sram.c **** 
 224:../../source/src/kernel/OS_CPU/bsp/sram.c **** 	// 选择FSMC映射的存储区域： Bank1 sram3
 225:../../source/src/kernel/OS_CPU/bsp/sram.c **** 	FSMC_NORSRAMInitStructure.FSMC_Bank = FSMC_Bank1_NORSRAM3;
 226:../../source/src/kernel/OS_CPU/bsp/sram.c **** 	
 227:../../source/src/kernel/OS_CPU/bsp/sram.c **** 	//设置地址总线与数据总线是否复用，仅用于NOR
 228:../../source/src/kernel/OS_CPU/bsp/sram.c **** 	FSMC_NORSRAMInitStructure.FSMC_DataAddressMux = FSMC_DataAddressMux_Disable; 
 229:../../source/src/kernel/OS_CPU/bsp/sram.c **** 	
 230:../../source/src/kernel/OS_CPU/bsp/sram.c **** 	//设置要控制的存储器类型：SRAM类型
 231:../../source/src/kernel/OS_CPU/bsp/sram.c **** 	FSMC_NORSRAMInitStructure.FSMC_MemoryType =FSMC_MemoryType_SRAM;   
 232:../../source/src/kernel/OS_CPU/bsp/sram.c **** 	
ARM GAS  G:\Users\Jaxb\AppData\Local\Temp\ccbTvrRb.s 			page 16


 233:../../source/src/kernel/OS_CPU/bsp/sram.c **** 	//存储器数据宽度：16位
 234:../../source/src/kernel/OS_CPU/bsp/sram.c **** 	FSMC_NORSRAMInitStructure.FSMC_MemoryDataWidth = FSMC_MemoryDataWidth_16b; 
 235:../../source/src/kernel/OS_CPU/bsp/sram.c **** 	
 236:../../source/src/kernel/OS_CPU/bsp/sram.c **** 	//设置是否使用突发访问模式，仅用于同步类型的存储器
 237:../../source/src/kernel/OS_CPU/bsp/sram.c **** 	FSMC_NORSRAMInitStructure.FSMC_BurstAccessMode =FSMC_BurstAccessMode_Disable;
 238:../../source/src/kernel/OS_CPU/bsp/sram.c **** 	
 239:../../source/src/kernel/OS_CPU/bsp/sram.c **** 	//设置是否使能等待信号，仅用于同步类型的存储器
 240:../../source/src/kernel/OS_CPU/bsp/sram.c **** 	FSMC_NORSRAMInitStructure.FSMC_AsynchronousWait=FSMC_AsynchronousWait_Disable;
 241:../../source/src/kernel/OS_CPU/bsp/sram.c **** 	
 242:../../source/src/kernel/OS_CPU/bsp/sram.c **** 	//设置等待信号的有效极性，仅用于同步类型的存储器
 243:../../source/src/kernel/OS_CPU/bsp/sram.c **** 	FSMC_NORSRAMInitStructure.FSMC_WaitSignalPolarity = FSMC_WaitSignalPolarity_Low;
 244:../../source/src/kernel/OS_CPU/bsp/sram.c **** 	
 245:../../source/src/kernel/OS_CPU/bsp/sram.c **** 	//设置是否支持把非对齐的突发操作，仅用于同步类型的存储器
 246:../../source/src/kernel/OS_CPU/bsp/sram.c **** 	FSMC_NORSRAMInitStructure.FSMC_WrapMode = FSMC_WrapMode_Disable; 
 247:../../source/src/kernel/OS_CPU/bsp/sram.c **** 	
 248:../../source/src/kernel/OS_CPU/bsp/sram.c **** 	//设置等待信号插入的时间，仅用于同步类型的存储器
 249:../../source/src/kernel/OS_CPU/bsp/sram.c **** 	FSMC_NORSRAMInitStructure.FSMC_WaitSignalActive = FSMC_WaitSignalActive_BeforeWaitState;
 250:../../source/src/kernel/OS_CPU/bsp/sram.c **** 	
 251:../../source/src/kernel/OS_CPU/bsp/sram.c **** 	//存储器写使能 
 252:../../source/src/kernel/OS_CPU/bsp/sram.c **** 	FSMC_NORSRAMInitStructure.FSMC_WriteOperation = FSMC_WriteOperation_Enable;
 464              		.loc 1 252 0
 465 0286 4FF48052 		mov	r2, #4096
 253:../../source/src/kernel/OS_CPU/bsp/sram.c **** 	
 254:../../source/src/kernel/OS_CPU/bsp/sram.c **** 	//不使用等待信号
 255:../../source/src/kernel/OS_CPU/bsp/sram.c **** 	FSMC_NORSRAMInitStructure.FSMC_WaitSignal = FSMC_WaitSignal_Disable;  		
 256:../../source/src/kernel/OS_CPU/bsp/sram.c **** 	
 257:../../source/src/kernel/OS_CPU/bsp/sram.c **** 	// 不使用扩展模式，读写使用相同的时序
 258:../../source/src/kernel/OS_CPU/bsp/sram.c **** 	FSMC_NORSRAMInitStructure.FSMC_ExtendedMode = FSMC_ExtendedMode_Disable; 
 259:../../source/src/kernel/OS_CPU/bsp/sram.c **** 	
 260:../../source/src/kernel/OS_CPU/bsp/sram.c **** 	//突发写操作
 261:../../source/src/kernel/OS_CPU/bsp/sram.c **** 	FSMC_NORSRAMInitStructure.FSMC_WriteBurst = FSMC_WriteBurst_Disable;  
 262:../../source/src/kernel/OS_CPU/bsp/sram.c **** 	
 263:../../source/src/kernel/OS_CPU/bsp/sram.c **** 	//读写时序配置
 264:../../source/src/kernel/OS_CPU/bsp/sram.c **** 	FSMC_NORSRAMInitStructure.FSMC_ReadWriteTimingStruct = &readWriteTiming;
 265:../../source/src/kernel/OS_CPU/bsp/sram.c **** 	
 266:../../source/src/kernel/OS_CPU/bsp/sram.c **** 	//读写同样时序，使用扩展模式时这个配置才有效
 267:../../source/src/kernel/OS_CPU/bsp/sram.c **** 	FSMC_NORSRAMInitStructure.FSMC_WriteTimingStruct = &readWriteTiming; 
 268:../../source/src/kernel/OS_CPU/bsp/sram.c **** 
 269:../../source/src/kernel/OS_CPU/bsp/sram.c **** 	FSMC_NORSRAMInit(&FSMC_NORSRAMInitStructure);  //初始化FSMC配置
 466              		.loc 1 269 0
 467 028a 2046     		mov	r0, r4
 252:../../source/src/kernel/OS_CPU/bsp/sram.c **** 	
 468              		.loc 1 252 0
 469 028c 1092     		str	r2, [sp, #64]
 206:../../source/src/kernel/OS_CPU/bsp/sram.c **** 
 470              		.loc 1 206 0
 471 028e CDE90033 		strd	r3, r3, [sp]
 215:../../source/src/kernel/OS_CPU/bsp/sram.c **** 
 472              		.loc 1 215 0
 473 0292 CDE90333 		strd	r3, r3, [sp, #12]
 221:../../source/src/kernel/OS_CPU/bsp/sram.c ****     
 474              		.loc 1 221 0
 475 0296 CDE90533 		strd	r3, r3, [sp, #20]
 231:../../source/src/kernel/OS_CPU/bsp/sram.c **** 	
 476              		.loc 1 231 0
 477 029a CDE90833 		strd	r3, r3, [sp, #32]
 240:../../source/src/kernel/OS_CPU/bsp/sram.c **** 	
ARM GAS  G:\Users\Jaxb\AppData\Local\Temp\ccbTvrRb.s 			page 17


 478              		.loc 1 240 0
 479 029e CDE90B33 		strd	r3, r3, [sp, #44]
 246:../../source/src/kernel/OS_CPU/bsp/sram.c **** 	
 480              		.loc 1 246 0
 481 02a2 CDE90D33 		strd	r3, r3, [sp, #52]
 249:../../source/src/kernel/OS_CPU/bsp/sram.c **** 	
 482              		.loc 1 249 0
 483 02a6 0F93     		str	r3, [sp, #60]
 258:../../source/src/kernel/OS_CPU/bsp/sram.c **** 	
 484              		.loc 1 258 0
 485 02a8 CDE91133 		strd	r3, r3, [sp, #68]
 261:../../source/src/kernel/OS_CPU/bsp/sram.c **** 	
 486              		.loc 1 261 0
 487 02ac 1393     		str	r3, [sp, #76]
 209:../../source/src/kernel/OS_CPU/bsp/sram.c **** 	
 488              		.loc 1 209 0
 489 02ae CDF80890 		str	r9, [sp, #8]
 225:../../source/src/kernel/OS_CPU/bsp/sram.c **** 	
 490              		.loc 1 225 0
 491 02b2 CDF81CB0 		str	fp, [sp, #28]
 234:../../source/src/kernel/OS_CPU/bsp/sram.c **** 	
 492              		.loc 1 234 0
 493 02b6 CDF828A0 		str	r10, [sp, #40]
 264:../../source/src/kernel/OS_CPU/bsp/sram.c **** 	
 494              		.loc 1 264 0
 495 02ba CDF850D0 		str	sp, [sp, #80]
 267:../../source/src/kernel/OS_CPU/bsp/sram.c **** 
 496              		.loc 1 267 0
 497 02be CDF854D0 		str	sp, [sp, #84]
 498              		.loc 1 269 0
 499 02c2 FFF7FEFF 		bl	FSMC_NORSRAMInit
 500              	.LVL42:
 270:../../source/src/kernel/OS_CPU/bsp/sram.c **** 
 271:../../source/src/kernel/OS_CPU/bsp/sram.c **** 	FSMC_NORSRAMCmd(FSMC_Bank1_NORSRAM3, ENABLE);  // 使能BANK										  
 501              		.loc 1 271 0
 502 02c6 4146     		mov	r1, r8
 503 02c8 5846     		mov	r0, fp
 504 02ca FFF7FEFF 		bl	FSMC_NORSRAMCmd
 505              	.LVL43:
 272:../../source/src/kernel/OS_CPU/bsp/sram.c **** 											
 273:../../source/src/kernel/OS_CPU/bsp/sram.c **** }
 506              		.loc 1 273 0
 507 02ce 17B0     		add	sp, sp, #92
 508              	.LCFI2:
 509              		.cfi_def_cfa_offset 36
 510              		@ sp needed
 511 02d0 BDE8F08F 		pop	{r4, r5, r6, r7, r8, r9, r10, fp, pc}
 512              	.L4:
 513              		.align	2
 514              	.L3:
 515 02d4 001C0140 		.word	1073814528
 516 02d8 00200140 		.word	1073815552
 517 02dc 00140140 		.word	1073812480
 518 02e0 00180140 		.word	1073813504
 519              		.cfi_endproc
 520              	.LFE30:
 521              		.size	FSMC_SRAM_Init, .-FSMC_SRAM_Init
ARM GAS  G:\Users\Jaxb\AppData\Local\Temp\ccbTvrRb.s 			page 18


 522              	.Letext0:
 523              		.file 2 "f:\\arm\\gcc2018\\arm-none-eabi\\include\\machine\\_default_types.h"
 524              		.file 3 "f:\\arm\\gcc2018\\arm-none-eabi\\include\\sys\\_stdint.h"
 525              		.file 4 "../../source/include/core_cm3.h"
 526              		.file 5 "../../source/include/system_stm32f10x.h"
 527              		.file 6 "../../source/include/stm32f10x.h"
 528              		.file 7 "../../source/src/FWlib/inc/stm32f10x_gpio.h"
 529              		.file 8 "../../source/src/FWlib/inc/stm32f10x_fsmc.h"
 530              		.file 9 "../../source/src/FWlib/inc/stm32f10x_rcc.h"
 531              		.section	.debug_info,"",%progbits
 532              	.Ldebug_info0:
 533 0000 91080000 		.4byte	0x891
 534 0004 0200     		.2byte	0x2
 535 0006 00000000 		.4byte	.Ldebug_abbrev0
 536 000a 04       		.byte	0x4
 537 000b 01       		.uleb128 0x1
 538 000c 8B040000 		.4byte	.LASF68
 539 0010 0C       		.byte	0xc
 540 0011 AC000000 		.4byte	.LASF69
 541 0015 5F010000 		.4byte	.LASF70
 542 0019 00000000 		.4byte	.Ltext0
 543 001d E4020000 		.4byte	.Letext0
 544 0021 00000000 		.4byte	.Ldebug_line0
 545 0025 02       		.uleb128 0x2
 546 0026 01       		.byte	0x1
 547 0027 06       		.byte	0x6
 548 0028 43010000 		.4byte	.LASF0
 549 002c 02       		.uleb128 0x2
 550 002d 01       		.byte	0x1
 551 002e 08       		.byte	0x8
 552 002f 06020000 		.4byte	.LASF1
 553 0033 02       		.uleb128 0x2
 554 0034 02       		.byte	0x2
 555 0035 05       		.byte	0x5
 556 0036 3D000000 		.4byte	.LASF2
 557 003a 03       		.uleb128 0x3
 558 003b 91000000 		.4byte	.LASF5
 559 003f 02       		.byte	0x2
 560 0040 39       		.byte	0x39
 561 0041 45000000 		.4byte	0x45
 562 0045 02       		.uleb128 0x2
 563 0046 02       		.byte	0x2
 564 0047 07       		.byte	0x7
 565 0048 18030000 		.4byte	.LASF3
 566 004c 02       		.uleb128 0x2
 567 004d 04       		.byte	0x4
 568 004e 05       		.byte	0x5
 569 004f B7010000 		.4byte	.LASF4
 570 0053 03       		.uleb128 0x3
 571 0054 86000000 		.4byte	.LASF6
 572 0058 02       		.byte	0x2
 573 0059 4F       		.byte	0x4f
 574 005a 5E000000 		.4byte	0x5e
 575 005e 02       		.uleb128 0x2
 576 005f 04       		.byte	0x4
 577 0060 07       		.byte	0x7
 578 0061 D8020000 		.4byte	.LASF7
ARM GAS  G:\Users\Jaxb\AppData\Local\Temp\ccbTvrRb.s 			page 19


 579 0065 02       		.uleb128 0x2
 580 0066 08       		.byte	0x8
 581 0067 05       		.byte	0x5
 582 0068 8D010000 		.4byte	.LASF8
 583 006c 02       		.uleb128 0x2
 584 006d 08       		.byte	0x8
 585 006e 07       		.byte	0x7
 586 006f 74020000 		.4byte	.LASF9
 587 0073 04       		.uleb128 0x4
 588 0074 04       		.byte	0x4
 589 0075 05       		.byte	0x5
 590 0076 696E7400 		.ascii	"int\000"
 591 007a 05       		.uleb128 0x5
 592 007b 73000000 		.4byte	0x73
 593 007f 02       		.uleb128 0x2
 594 0080 04       		.byte	0x4
 595 0081 07       		.byte	0x7
 596 0082 B7020000 		.4byte	.LASF10
 597 0086 03       		.uleb128 0x3
 598 0087 49030000 		.4byte	.LASF11
 599 008b 03       		.byte	0x3
 600 008c 24       		.byte	0x24
 601 008d 3A000000 		.4byte	0x3a
 602 0091 03       		.uleb128 0x3
 603 0092 8B020000 		.4byte	.LASF12
 604 0096 03       		.byte	0x3
 605 0097 30       		.byte	0x30
 606 0098 53000000 		.4byte	0x53
 607 009c 05       		.uleb128 0x5
 608 009d 91000000 		.4byte	0x91
 609 00a1 06       		.uleb128 0x6
 610 00a2 47050000 		.4byte	.LASF13
 611 00a6 04       		.byte	0x4
 612 00a7 CE06     		.2byte	0x6ce
 613 00a9 7A000000 		.4byte	0x7a
 614 00ad 01       		.byte	0x1
 615 00ae 01       		.byte	0x1
 616 00af 07       		.uleb128 0x7
 617 00b0 6A030000 		.4byte	.LASF14
 618 00b4 05       		.byte	0x5
 619 00b5 35       		.byte	0x35
 620 00b6 91000000 		.4byte	0x91
 621 00ba 01       		.byte	0x1
 622 00bb 01       		.byte	0x1
 623 00bc 08       		.uleb128 0x8
 624 00bd 07       		.byte	0x7
 625 00be 01       		.byte	0x1
 626 00bf 2C000000 		.4byte	0x2c
 627 00c3 06       		.byte	0x6
 628 00c4 0902     		.2byte	0x209
 629 00c6 D7000000 		.4byte	0xd7
 630 00ca 09       		.uleb128 0x9
 631 00cb 3B010000 		.4byte	.LASF15
 632 00cf 00       		.byte	0
 633 00d0 09       		.uleb128 0x9
 634 00d1 9B010000 		.4byte	.LASF16
 635 00d5 01       		.byte	0x1
ARM GAS  G:\Users\Jaxb\AppData\Local\Temp\ccbTvrRb.s 			page 20


 636 00d6 00       		.byte	0
 637 00d7 0A       		.uleb128 0xa
 638 00d8 1C       		.byte	0x1c
 639 00d9 06       		.byte	0x6
 640 00da E903     		.2byte	0x3e9
 641 00dc 4A010000 		.4byte	0x14a
 642 00e0 0B       		.uleb128 0xb
 643 00e1 43524C00 		.ascii	"CRL\000"
 644 00e5 06       		.byte	0x6
 645 00e6 EB03     		.2byte	0x3eb
 646 00e8 9C000000 		.4byte	0x9c
 647 00ec 02       		.byte	0x2
 648 00ed 23       		.byte	0x23
 649 00ee 00       		.uleb128 0
 650 00ef 0B       		.uleb128 0xb
 651 00f0 43524800 		.ascii	"CRH\000"
 652 00f4 06       		.byte	0x6
 653 00f5 EC03     		.2byte	0x3ec
 654 00f7 9C000000 		.4byte	0x9c
 655 00fb 02       		.byte	0x2
 656 00fc 23       		.byte	0x23
 657 00fd 04       		.uleb128 0x4
 658 00fe 0B       		.uleb128 0xb
 659 00ff 49445200 		.ascii	"IDR\000"
 660 0103 06       		.byte	0x6
 661 0104 ED03     		.2byte	0x3ed
 662 0106 9C000000 		.4byte	0x9c
 663 010a 02       		.byte	0x2
 664 010b 23       		.byte	0x23
 665 010c 08       		.uleb128 0x8
 666 010d 0B       		.uleb128 0xb
 667 010e 4F445200 		.ascii	"ODR\000"
 668 0112 06       		.byte	0x6
 669 0113 EE03     		.2byte	0x3ee
 670 0115 9C000000 		.4byte	0x9c
 671 0119 02       		.byte	0x2
 672 011a 23       		.byte	0x23
 673 011b 0C       		.uleb128 0xc
 674 011c 0C       		.uleb128 0xc
 675 011d D0010000 		.4byte	.LASF17
 676 0121 06       		.byte	0x6
 677 0122 EF03     		.2byte	0x3ef
 678 0124 9C000000 		.4byte	0x9c
 679 0128 02       		.byte	0x2
 680 0129 23       		.byte	0x23
 681 012a 10       		.uleb128 0x10
 682 012b 0B       		.uleb128 0xb
 683 012c 42525200 		.ascii	"BRR\000"
 684 0130 06       		.byte	0x6
 685 0131 F003     		.2byte	0x3f0
 686 0133 9C000000 		.4byte	0x9c
 687 0137 02       		.byte	0x2
 688 0138 23       		.byte	0x23
 689 0139 14       		.uleb128 0x14
 690 013a 0C       		.uleb128 0xc
 691 013b 54050000 		.4byte	.LASF18
 692 013f 06       		.byte	0x6
ARM GAS  G:\Users\Jaxb\AppData\Local\Temp\ccbTvrRb.s 			page 21


 693 0140 F103     		.2byte	0x3f1
 694 0142 9C000000 		.4byte	0x9c
 695 0146 02       		.byte	0x2
 696 0147 23       		.byte	0x23
 697 0148 18       		.uleb128 0x18
 698 0149 00       		.byte	0
 699 014a 0D       		.uleb128 0xd
 700 014b 00000000 		.4byte	.LASF19
 701 014f 06       		.byte	0x6
 702 0150 F203     		.2byte	0x3f2
 703 0152 D7000000 		.4byte	0xd7
 704 0156 0E       		.uleb128 0xe
 705 0157 07       		.byte	0x7
 706 0158 01       		.byte	0x1
 707 0159 2C000000 		.4byte	0x2c
 708 015d 07       		.byte	0x7
 709 015e 3B       		.byte	0x3b
 710 015f 76010000 		.4byte	0x176
 711 0163 09       		.uleb128 0x9
 712 0164 D5010000 		.4byte	.LASF20
 713 0168 01       		.byte	0x1
 714 0169 09       		.uleb128 0x9
 715 016a 54020000 		.4byte	.LASF21
 716 016e 02       		.byte	0x2
 717 016f 09       		.uleb128 0x9
 718 0170 18040000 		.4byte	.LASF22
 719 0174 03       		.byte	0x3
 720 0175 00       		.byte	0
 721 0176 03       		.uleb128 0x3
 722 0177 CB030000 		.4byte	.LASF23
 723 017b 07       		.byte	0x7
 724 017c 3F       		.byte	0x3f
 725 017d 56010000 		.4byte	0x156
 726 0181 0E       		.uleb128 0xe
 727 0182 07       		.byte	0x7
 728 0183 01       		.byte	0x1
 729 0184 2C000000 		.4byte	0x2c
 730 0188 07       		.byte	0x7
 731 0189 48       		.byte	0x48
 732 018a BF010000 		.4byte	0x1bf
 733 018e 09       		.uleb128 0x9
 734 018f 9F030000 		.4byte	.LASF24
 735 0193 00       		.byte	0
 736 0194 09       		.uleb128 0x9
 737 0195 31050000 		.4byte	.LASF25
 738 0199 04       		.byte	0x4
 739 019a 09       		.uleb128 0x9
 740 019b 3B030000 		.4byte	.LASF26
 741 019f 28       		.byte	0x28
 742 01a0 09       		.uleb128 0x9
 743 01a1 7A030000 		.4byte	.LASF27
 744 01a5 48       		.byte	0x48
 745 01a6 09       		.uleb128 0x9
 746 01a7 25020000 		.4byte	.LASF28
 747 01ab 14       		.byte	0x14
 748 01ac 09       		.uleb128 0x9
 749 01ad 7A040000 		.4byte	.LASF29
ARM GAS  G:\Users\Jaxb\AppData\Local\Temp\ccbTvrRb.s 			page 22


 750 01b1 10       		.byte	0x10
 751 01b2 09       		.uleb128 0x9
 752 01b3 7B050000 		.4byte	.LASF30
 753 01b7 1C       		.byte	0x1c
 754 01b8 09       		.uleb128 0x9
 755 01b9 4F010000 		.4byte	.LASF31
 756 01bd 18       		.byte	0x18
 757 01be 00       		.byte	0
 758 01bf 03       		.uleb128 0x3
 759 01c0 69040000 		.4byte	.LASF32
 760 01c4 07       		.byte	0x7
 761 01c5 50       		.byte	0x50
 762 01c6 81010000 		.4byte	0x181
 763 01ca 0F       		.uleb128 0xf
 764 01cb 04       		.byte	0x4
 765 01cc 07       		.byte	0x7
 766 01cd 5B       		.byte	0x5b
 767 01ce FD010000 		.4byte	0x1fd
 768 01d2 10       		.uleb128 0x10
 769 01d3 1E000000 		.4byte	.LASF33
 770 01d7 07       		.byte	0x7
 771 01d8 5D       		.byte	0x5d
 772 01d9 86000000 		.4byte	0x86
 773 01dd 02       		.byte	0x2
 774 01de 23       		.byte	0x23
 775 01df 00       		.uleb128 0
 776 01e0 10       		.uleb128 0x10
 777 01e1 02010000 		.4byte	.LASF34
 778 01e5 07       		.byte	0x7
 779 01e6 60       		.byte	0x60
 780 01e7 76010000 		.4byte	0x176
 781 01eb 02       		.byte	0x2
 782 01ec 23       		.byte	0x23
 783 01ed 02       		.uleb128 0x2
 784 01ee 10       		.uleb128 0x10
 785 01ef C1030000 		.4byte	.LASF35
 786 01f3 07       		.byte	0x7
 787 01f4 63       		.byte	0x63
 788 01f5 BF010000 		.4byte	0x1bf
 789 01f9 02       		.byte	0x2
 790 01fa 23       		.byte	0x23
 791 01fb 03       		.uleb128 0x3
 792 01fc 00       		.byte	0
 793 01fd 03       		.uleb128 0x3
 794 01fe 94020000 		.4byte	.LASF36
 795 0202 07       		.byte	0x7
 796 0203 65       		.byte	0x65
 797 0204 CA010000 		.4byte	0x1ca
 798 0208 0F       		.uleb128 0xf
 799 0209 1C       		.byte	0x1c
 800 020a 08       		.byte	0x8
 801 020b 32       		.byte	0x32
 802 020c 73020000 		.4byte	0x273
 803 0210 10       		.uleb128 0x10
 804 0211 EC000000 		.4byte	.LASF37
 805 0215 08       		.byte	0x8
 806 0216 34       		.byte	0x34
ARM GAS  G:\Users\Jaxb\AppData\Local\Temp\ccbTvrRb.s 			page 23


 807 0217 91000000 		.4byte	0x91
 808 021b 02       		.byte	0x2
 809 021c 23       		.byte	0x23
 810 021d 00       		.uleb128 0
 811 021e 10       		.uleb128 0x10
 812 021f 29040000 		.4byte	.LASF38
 813 0223 08       		.byte	0x8
 814 0224 39       		.byte	0x39
 815 0225 91000000 		.4byte	0x91
 816 0229 02       		.byte	0x2
 817 022a 23       		.byte	0x23
 818 022b 04       		.uleb128 0x4
 819 022c 10       		.uleb128 0x10
 820 022d EA020000 		.4byte	.LASF39
 821 0231 08       		.byte	0x8
 822 0232 3E       		.byte	0x3e
 823 0233 91000000 		.4byte	0x91
 824 0237 02       		.byte	0x2
 825 0238 23       		.byte	0x23
 826 0239 08       		.uleb128 0x8
 827 023a 10       		.uleb128 0x10
 828 023b 55000000 		.4byte	.LASF40
 829 023f 08       		.byte	0x8
 830 0240 43       		.byte	0x43
 831 0241 91000000 		.4byte	0x91
 832 0245 02       		.byte	0x2
 833 0246 23       		.byte	0x23
 834 0247 0C       		.uleb128 0xc
 835 0248 10       		.uleb128 0x10
 836 0249 F4030000 		.4byte	.LASF41
 837 024d 08       		.byte	0x8
 838 024e 48       		.byte	0x48
 839 024f 91000000 		.4byte	0x91
 840 0253 02       		.byte	0x2
 841 0254 23       		.byte	0x23
 842 0255 10       		.uleb128 0x10
 843 0256 10       		.uleb128 0x10
 844 0257 14020000 		.4byte	.LASF42
 845 025b 08       		.byte	0x8
 846 025c 4C       		.byte	0x4c
 847 025d 91000000 		.4byte	0x91
 848 0261 02       		.byte	0x2
 849 0262 23       		.byte	0x23
 850 0263 14       		.uleb128 0x14
 851 0264 10       		.uleb128 0x10
 852 0265 E6010000 		.4byte	.LASF43
 853 0269 08       		.byte	0x8
 854 026a 54       		.byte	0x54
 855 026b 91000000 		.4byte	0x91
 856 026f 02       		.byte	0x2
 857 0270 23       		.byte	0x23
 858 0271 18       		.uleb128 0x18
 859 0272 00       		.byte	0
 860 0273 03       		.uleb128 0x3
 861 0274 36020000 		.4byte	.LASF44
 862 0278 08       		.byte	0x8
 863 0279 56       		.byte	0x56
ARM GAS  G:\Users\Jaxb\AppData\Local\Temp\ccbTvrRb.s 			page 24


 864 027a 08020000 		.4byte	0x208
 865 027e 0F       		.uleb128 0xf
 866 027f 3C       		.byte	0x3c
 867 0280 08       		.byte	0x8
 868 0281 5C       		.byte	0x5c
 869 0282 59030000 		.4byte	0x359
 870 0286 10       		.uleb128 0x10
 871 0287 59050000 		.4byte	.LASF45
 872 028b 08       		.byte	0x8
 873 028c 5E       		.byte	0x5e
 874 028d 91000000 		.4byte	0x91
 875 0291 02       		.byte	0x2
 876 0292 23       		.byte	0x23
 877 0293 00       		.uleb128 0
 878 0294 10       		.uleb128 0x10
 879 0295 AD030000 		.4byte	.LASF46
 880 0299 08       		.byte	0x8
 881 029a 61       		.byte	0x61
 882 029b 91000000 		.4byte	0x91
 883 029f 02       		.byte	0x2
 884 02a0 23       		.byte	0x23
 885 02a1 04       		.uleb128 0x4
 886 02a2 10       		.uleb128 0x10
 887 02a3 9C000000 		.4byte	.LASF47
 888 02a7 08       		.byte	0x8
 889 02a8 65       		.byte	0x65
 890 02a9 91000000 		.4byte	0x91
 891 02ad 02       		.byte	0x2
 892 02ae 23       		.byte	0x23
 893 02af 08       		.uleb128 0x8
 894 02b0 10       		.uleb128 0x10
 895 02b1 A2010000 		.4byte	.LASF48
 896 02b5 08       		.byte	0x8
 897 02b6 69       		.byte	0x69
 898 02b7 91000000 		.4byte	0x91
 899 02bb 02       		.byte	0x2
 900 02bc 23       		.byte	0x23
 901 02bd 0C       		.uleb128 0xc
 902 02be 10       		.uleb128 0x10
 903 02bf 17010000 		.4byte	.LASF49
 904 02c3 08       		.byte	0x8
 905 02c4 6C       		.byte	0x6c
 906 02c5 91000000 		.4byte	0x91
 907 02c9 02       		.byte	0x2
 908 02ca 23       		.byte	0x23
 909 02cb 10       		.uleb128 0x10
 910 02cc 10       		.uleb128 0x10
 911 02cd 70000000 		.4byte	.LASF50
 912 02d1 08       		.byte	0x8
 913 02d2 70       		.byte	0x70
 914 02d3 91000000 		.4byte	0x91
 915 02d7 02       		.byte	0x2
 916 02d8 23       		.byte	0x23
 917 02d9 14       		.uleb128 0x14
 918 02da 10       		.uleb128 0x10
 919 02db 63050000 		.4byte	.LASF51
 920 02df 08       		.byte	0x8
ARM GAS  G:\Users\Jaxb\AppData\Local\Temp\ccbTvrRb.s 			page 25


 921 02e0 74       		.byte	0x74
 922 02e1 91000000 		.4byte	0x91
 923 02e5 02       		.byte	0x2
 924 02e6 23       		.byte	0x23
 925 02e7 18       		.uleb128 0x18
 926 02e8 10       		.uleb128 0x10
 927 02e9 47000000 		.4byte	.LASF52
 928 02ed 08       		.byte	0x8
 929 02ee 78       		.byte	0x78
 930 02ef 91000000 		.4byte	0x91
 931 02f3 02       		.byte	0x2
 932 02f4 23       		.byte	0x23
 933 02f5 1C       		.uleb128 0x1c
 934 02f6 10       		.uleb128 0x10
 935 02f7 27000000 		.4byte	.LASF53
 936 02fb 08       		.byte	0x8
 937 02fc 7C       		.byte	0x7c
 938 02fd 91000000 		.4byte	0x91
 939 0301 02       		.byte	0x2
 940 0302 23       		.byte	0x23
 941 0303 20       		.uleb128 0x20
 942 0304 10       		.uleb128 0x10
 943 0305 C4020000 		.4byte	.LASF54
 944 0309 08       		.byte	0x8
 945 030a 81       		.byte	0x81
 946 030b 91000000 		.4byte	0x91
 947 030f 02       		.byte	0x2
 948 0310 23       		.byte	0x23
 949 0311 24       		.uleb128 0x24
 950 0312 10       		.uleb128 0x10
 951 0313 F6010000 		.4byte	.LASF55
 952 0317 08       		.byte	0x8
 953 0318 84       		.byte	0x84
 954 0319 91000000 		.4byte	0x91
 955 031d 02       		.byte	0x2
 956 031e 23       		.byte	0x23
 957 031f 28       		.uleb128 0x28
 958 0320 10       		.uleb128 0x10
 959 0321 A5020000 		.4byte	.LASF56
 960 0325 08       		.byte	0x8
 961 0326 88       		.byte	0x88
 962 0327 91000000 		.4byte	0x91
 963 032b 02       		.byte	0x2
 964 032c 23       		.byte	0x23
 965 032d 2C       		.uleb128 0x2c
 966 032e 10       		.uleb128 0x10
 967 032f 64020000 		.4byte	.LASF57
 968 0333 08       		.byte	0x8
 969 0334 8B       		.byte	0x8b
 970 0335 91000000 		.4byte	0x91
 971 0339 02       		.byte	0x2
 972 033a 23       		.byte	0x23
 973 033b 30       		.uleb128 0x30
 974 033c 10       		.uleb128 0x10
 975 033d FD020000 		.4byte	.LASF58
 976 0341 08       		.byte	0x8
 977 0342 8E       		.byte	0x8e
ARM GAS  G:\Users\Jaxb\AppData\Local\Temp\ccbTvrRb.s 			page 26


 978 0343 59030000 		.4byte	0x359
 979 0347 02       		.byte	0x2
 980 0348 23       		.byte	0x23
 981 0349 34       		.uleb128 0x34
 982 034a 10       		.uleb128 0x10
 983 034b DD030000 		.4byte	.LASF59
 984 034f 08       		.byte	0x8
 985 0350 90       		.byte	0x90
 986 0351 59030000 		.4byte	0x359
 987 0355 02       		.byte	0x2
 988 0356 23       		.byte	0x23
 989 0357 38       		.uleb128 0x38
 990 0358 00       		.byte	0
 991 0359 11       		.uleb128 0x11
 992 035a 04       		.byte	0x4
 993 035b 73020000 		.4byte	0x273
 994 035f 03       		.uleb128 0x3
 995 0360 52030000 		.4byte	.LASF60
 996 0364 08       		.byte	0x8
 997 0365 91       		.byte	0x91
 998 0366 7E020000 		.4byte	0x27e
 999 036a 12       		.uleb128 0x12
 1000 036b 01       		.byte	0x1
 1001 036c 2C010000 		.4byte	.LASF71
 1002 0370 01       		.byte	0x1
 1003 0371 BF       		.byte	0xbf
 1004 0372 01       		.byte	0x1
 1005 0373 00000000 		.4byte	.LFB30
 1006 0377 E4020000 		.4byte	.LFE30
 1007 037b 00000000 		.4byte	.LLST0
 1008 037f 01       		.byte	0x1
 1009 0380 35080000 		.4byte	0x835
 1010 0384 13       		.uleb128 0x13
 1011 0385 3E040000 		.4byte	.LASF61
 1012 0389 01       		.byte	0x1
 1013 038a C1       		.byte	0xc1
 1014 038b 5F030000 		.4byte	0x35f
 1015 038f 03       		.byte	0x3
 1016 0390 91       		.byte	0x91
 1017 0391 9C7F     		.sleb128 -100
 1018 0393 13       		.uleb128 0x13
 1019 0394 C0010000 		.4byte	.LASF62
 1020 0398 01       		.byte	0x1
 1021 0399 C2       		.byte	0xc2
 1022 039a 73020000 		.4byte	0x273
 1023 039e 03       		.byte	0x3
 1024 039f 91       		.byte	0x91
 1025 03a0 807F     		.sleb128 -128
 1026 03a2 14       		.uleb128 0x14
 1027 03a3 35080000 		.4byte	0x835
 1028 03a7 04000000 		.4byte	.LBB4
 1029 03ab 00000000 		.4byte	.Ldebug_ranges0+0
 1030 03af 01       		.byte	0x1
 1031 03b0 C5       		.byte	0xc5
 1032 03b1 EF070000 		.4byte	0x7ef
 1033 03b5 15       		.uleb128 0x15
 1034 03b6 00000000 		.4byte	.Ldebug_ranges0+0
ARM GAS  G:\Users\Jaxb\AppData\Local\Temp\ccbTvrRb.s 			page 27


 1035 03ba 16       		.uleb128 0x16
 1036 03bb 42080000 		.4byte	0x842
 1037 03bf 03       		.byte	0x3
 1038 03c0 91       		.byte	0x91
 1039 03c1 9C7F     		.sleb128 -100
 1040 03c3 17       		.uleb128 0x17
 1041 03c4 14000000 		.4byte	.LVL0
 1042 03c8 4E080000 		.4byte	0x84e
 1043 03cc DE030000 		.4byte	0x3de
 1044 03d0 18       		.uleb128 0x18
 1045 03d1 01       		.byte	0x1
 1046 03d2 50       		.byte	0x50
 1047 03d3 03       		.byte	0x3
 1048 03d4 0A       		.byte	0xa
 1049 03d5 E001     		.2byte	0x1e0
 1050 03d7 18       		.uleb128 0x18
 1051 03d8 01       		.byte	0x1
 1052 03d9 51       		.byte	0x51
 1053 03da 02       		.byte	0x2
 1054 03db 78       		.byte	0x78
 1055 03dc 00       		.sleb128 0
 1056 03dd 00       		.byte	0
 1057 03de 17       		.uleb128 0x17
 1058 03df 3E000000 		.4byte	.LVL1
 1059 03e3 5C080000 		.4byte	0x85c
 1060 03e7 F8030000 		.4byte	0x3f8
 1061 03eb 18       		.uleb128 0x18
 1062 03ec 01       		.byte	0x1
 1063 03ed 50       		.byte	0x50
 1064 03ee 02       		.byte	0x2
 1065 03ef 75       		.byte	0x75
 1066 03f0 00       		.sleb128 0
 1067 03f1 18       		.uleb128 0x18
 1068 03f2 01       		.byte	0x1
 1069 03f3 51       		.byte	0x51
 1070 03f4 02       		.byte	0x2
 1071 03f5 74       		.byte	0x74
 1072 03f6 00       		.sleb128 0
 1073 03f7 00       		.byte	0
 1074 03f8 17       		.uleb128 0x17
 1075 03f9 4A000000 		.4byte	.LVL2
 1076 03fd 5C080000 		.4byte	0x85c
 1077 0401 12040000 		.4byte	0x412
 1078 0405 18       		.uleb128 0x18
 1079 0406 01       		.byte	0x1
 1080 0407 50       		.byte	0x50
 1081 0408 02       		.byte	0x2
 1082 0409 75       		.byte	0x75
 1083 040a 00       		.sleb128 0
 1084 040b 18       		.uleb128 0x18
 1085 040c 01       		.byte	0x1
 1086 040d 51       		.byte	0x51
 1087 040e 02       		.byte	0x2
 1088 040f 74       		.byte	0x74
 1089 0410 00       		.sleb128 0
 1090 0411 00       		.byte	0
 1091 0412 17       		.uleb128 0x17
ARM GAS  G:\Users\Jaxb\AppData\Local\Temp\ccbTvrRb.s 			page 28


 1092 0413 56000000 		.4byte	.LVL3
 1093 0417 5C080000 		.4byte	0x85c
 1094 041b 2C040000 		.4byte	0x42c
 1095 041f 18       		.uleb128 0x18
 1096 0420 01       		.byte	0x1
 1097 0421 50       		.byte	0x50
 1098 0422 02       		.byte	0x2
 1099 0423 75       		.byte	0x75
 1100 0424 00       		.sleb128 0
 1101 0425 18       		.uleb128 0x18
 1102 0426 01       		.byte	0x1
 1103 0427 51       		.byte	0x51
 1104 0428 02       		.byte	0x2
 1105 0429 74       		.byte	0x74
 1106 042a 00       		.sleb128 0
 1107 042b 00       		.byte	0
 1108 042c 17       		.uleb128 0x17
 1109 042d 62000000 		.4byte	.LVL4
 1110 0431 5C080000 		.4byte	0x85c
 1111 0435 46040000 		.4byte	0x446
 1112 0439 18       		.uleb128 0x18
 1113 043a 01       		.byte	0x1
 1114 043b 50       		.byte	0x50
 1115 043c 02       		.byte	0x2
 1116 043d 75       		.byte	0x75
 1117 043e 00       		.sleb128 0
 1118 043f 18       		.uleb128 0x18
 1119 0440 01       		.byte	0x1
 1120 0441 51       		.byte	0x51
 1121 0442 02       		.byte	0x2
 1122 0443 74       		.byte	0x74
 1123 0444 00       		.sleb128 0
 1124 0445 00       		.byte	0
 1125 0446 17       		.uleb128 0x17
 1126 0447 6E000000 		.4byte	.LVL5
 1127 044b 5C080000 		.4byte	0x85c
 1128 044f 60040000 		.4byte	0x460
 1129 0453 18       		.uleb128 0x18
 1130 0454 01       		.byte	0x1
 1131 0455 50       		.byte	0x50
 1132 0456 02       		.byte	0x2
 1133 0457 75       		.byte	0x75
 1134 0458 00       		.sleb128 0
 1135 0459 18       		.uleb128 0x18
 1136 045a 01       		.byte	0x1
 1137 045b 51       		.byte	0x51
 1138 045c 02       		.byte	0x2
 1139 045d 74       		.byte	0x74
 1140 045e 00       		.sleb128 0
 1141 045f 00       		.byte	0
 1142 0460 17       		.uleb128 0x17
 1143 0461 7E000000 		.4byte	.LVL6
 1144 0465 5C080000 		.4byte	0x85c
 1145 0469 7A040000 		.4byte	0x47a
 1146 046d 18       		.uleb128 0x18
 1147 046e 01       		.byte	0x1
 1148 046f 50       		.byte	0x50
ARM GAS  G:\Users\Jaxb\AppData\Local\Temp\ccbTvrRb.s 			page 29


 1149 0470 02       		.byte	0x2
 1150 0471 75       		.byte	0x75
 1151 0472 00       		.sleb128 0
 1152 0473 18       		.uleb128 0x18
 1153 0474 01       		.byte	0x1
 1154 0475 51       		.byte	0x51
 1155 0476 02       		.byte	0x2
 1156 0477 74       		.byte	0x74
 1157 0478 00       		.sleb128 0
 1158 0479 00       		.byte	0
 1159 047a 17       		.uleb128 0x17
 1160 047b 92000000 		.4byte	.LVL7
 1161 047f 5C080000 		.4byte	0x85c
 1162 0483 94040000 		.4byte	0x494
 1163 0487 18       		.uleb128 0x18
 1164 0488 01       		.byte	0x1
 1165 0489 50       		.byte	0x50
 1166 048a 02       		.byte	0x2
 1167 048b 75       		.byte	0x75
 1168 048c 00       		.sleb128 0
 1169 048d 18       		.uleb128 0x18
 1170 048e 01       		.byte	0x1
 1171 048f 51       		.byte	0x51
 1172 0490 02       		.byte	0x2
 1173 0491 74       		.byte	0x74
 1174 0492 00       		.sleb128 0
 1175 0493 00       		.byte	0
 1176 0494 17       		.uleb128 0x17
 1177 0495 9E000000 		.4byte	.LVL8
 1178 0499 5C080000 		.4byte	0x85c
 1179 049d AE040000 		.4byte	0x4ae
 1180 04a1 18       		.uleb128 0x18
 1181 04a2 01       		.byte	0x1
 1182 04a3 50       		.byte	0x50
 1183 04a4 02       		.byte	0x2
 1184 04a5 75       		.byte	0x75
 1185 04a6 00       		.sleb128 0
 1186 04a7 18       		.uleb128 0x18
 1187 04a8 01       		.byte	0x1
 1188 04a9 51       		.byte	0x51
 1189 04aa 02       		.byte	0x2
 1190 04ab 74       		.byte	0x74
 1191 04ac 00       		.sleb128 0
 1192 04ad 00       		.byte	0
 1193 04ae 17       		.uleb128 0x17
 1194 04af AE000000 		.4byte	.LVL9
 1195 04b3 5C080000 		.4byte	0x85c
 1196 04b7 C8040000 		.4byte	0x4c8
 1197 04bb 18       		.uleb128 0x18
 1198 04bc 01       		.byte	0x1
 1199 04bd 50       		.byte	0x50
 1200 04be 02       		.byte	0x2
 1201 04bf 75       		.byte	0x75
 1202 04c0 00       		.sleb128 0
 1203 04c1 18       		.uleb128 0x18
 1204 04c2 01       		.byte	0x1
 1205 04c3 51       		.byte	0x51
ARM GAS  G:\Users\Jaxb\AppData\Local\Temp\ccbTvrRb.s 			page 30


 1206 04c4 02       		.byte	0x2
 1207 04c5 74       		.byte	0x74
 1208 04c6 00       		.sleb128 0
 1209 04c7 00       		.byte	0
 1210 04c8 17       		.uleb128 0x17
 1211 04c9 C0000000 		.4byte	.LVL10
 1212 04cd 5C080000 		.4byte	0x85c
 1213 04d1 E5040000 		.4byte	0x4e5
 1214 04d5 18       		.uleb128 0x18
 1215 04d6 01       		.byte	0x1
 1216 04d7 50       		.byte	0x50
 1217 04d8 05       		.byte	0x5
 1218 04d9 0C       		.byte	0xc
 1219 04da 001C0140 		.4byte	0x40011c00
 1220 04de 18       		.uleb128 0x18
 1221 04df 01       		.byte	0x1
 1222 04e0 51       		.byte	0x51
 1223 04e1 02       		.byte	0x2
 1224 04e2 74       		.byte	0x74
 1225 04e3 00       		.sleb128 0
 1226 04e4 00       		.byte	0
 1227 04e5 17       		.uleb128 0x17
 1228 04e6 CC000000 		.4byte	.LVL11
 1229 04ea 5C080000 		.4byte	0x85c
 1230 04ee FF040000 		.4byte	0x4ff
 1231 04f2 18       		.uleb128 0x18
 1232 04f3 01       		.byte	0x1
 1233 04f4 50       		.byte	0x50
 1234 04f5 02       		.byte	0x2
 1235 04f6 77       		.byte	0x77
 1236 04f7 00       		.sleb128 0
 1237 04f8 18       		.uleb128 0x18
 1238 04f9 01       		.byte	0x1
 1239 04fa 51       		.byte	0x51
 1240 04fb 02       		.byte	0x2
 1241 04fc 74       		.byte	0x74
 1242 04fd 00       		.sleb128 0
 1243 04fe 00       		.byte	0
 1244 04ff 17       		.uleb128 0x17
 1245 0500 D8000000 		.4byte	.LVL12
 1246 0504 5C080000 		.4byte	0x85c
 1247 0508 19050000 		.4byte	0x519
 1248 050c 18       		.uleb128 0x18
 1249 050d 01       		.byte	0x1
 1250 050e 50       		.byte	0x50
 1251 050f 02       		.byte	0x2
 1252 0510 77       		.byte	0x77
 1253 0511 00       		.sleb128 0
 1254 0512 18       		.uleb128 0x18
 1255 0513 01       		.byte	0x1
 1256 0514 51       		.byte	0x51
 1257 0515 02       		.byte	0x2
 1258 0516 74       		.byte	0x74
 1259 0517 00       		.sleb128 0
 1260 0518 00       		.byte	0
 1261 0519 17       		.uleb128 0x17
 1262 051a E4000000 		.4byte	.LVL13
ARM GAS  G:\Users\Jaxb\AppData\Local\Temp\ccbTvrRb.s 			page 31


 1263 051e 5C080000 		.4byte	0x85c
 1264 0522 33050000 		.4byte	0x533
 1265 0526 18       		.uleb128 0x18
 1266 0527 01       		.byte	0x1
 1267 0528 50       		.byte	0x50
 1268 0529 02       		.byte	0x2
 1269 052a 77       		.byte	0x77
 1270 052b 00       		.sleb128 0
 1271 052c 18       		.uleb128 0x18
 1272 052d 01       		.byte	0x1
 1273 052e 51       		.byte	0x51
 1274 052f 02       		.byte	0x2
 1275 0530 74       		.byte	0x74
 1276 0531 00       		.sleb128 0
 1277 0532 00       		.byte	0
 1278 0533 17       		.uleb128 0x17
 1279 0534 F0000000 		.4byte	.LVL14
 1280 0538 5C080000 		.4byte	0x85c
 1281 053c 4D050000 		.4byte	0x54d
 1282 0540 18       		.uleb128 0x18
 1283 0541 01       		.byte	0x1
 1284 0542 50       		.byte	0x50
 1285 0543 02       		.byte	0x2
 1286 0544 77       		.byte	0x77
 1287 0545 00       		.sleb128 0
 1288 0546 18       		.uleb128 0x18
 1289 0547 01       		.byte	0x1
 1290 0548 51       		.byte	0x51
 1291 0549 02       		.byte	0x2
 1292 054a 74       		.byte	0x74
 1293 054b 00       		.sleb128 0
 1294 054c 00       		.byte	0
 1295 054d 17       		.uleb128 0x17
 1296 054e FC000000 		.4byte	.LVL15
 1297 0552 5C080000 		.4byte	0x85c
 1298 0556 67050000 		.4byte	0x567
 1299 055a 18       		.uleb128 0x18
 1300 055b 01       		.byte	0x1
 1301 055c 50       		.byte	0x50
 1302 055d 02       		.byte	0x2
 1303 055e 77       		.byte	0x77
 1304 055f 00       		.sleb128 0
 1305 0560 18       		.uleb128 0x18
 1306 0561 01       		.byte	0x1
 1307 0562 51       		.byte	0x51
 1308 0563 02       		.byte	0x2
 1309 0564 74       		.byte	0x74
 1310 0565 00       		.sleb128 0
 1311 0566 00       		.byte	0
 1312 0567 17       		.uleb128 0x17
 1313 0568 12010000 		.4byte	.LVL16
 1314 056c 5C080000 		.4byte	0x85c
 1315 0570 81050000 		.4byte	0x581
 1316 0574 18       		.uleb128 0x18
 1317 0575 01       		.byte	0x1
 1318 0576 50       		.byte	0x50
 1319 0577 02       		.byte	0x2
ARM GAS  G:\Users\Jaxb\AppData\Local\Temp\ccbTvrRb.s 			page 32


 1320 0578 77       		.byte	0x77
 1321 0579 00       		.sleb128 0
 1322 057a 18       		.uleb128 0x18
 1323 057b 01       		.byte	0x1
 1324 057c 51       		.byte	0x51
 1325 057d 02       		.byte	0x2
 1326 057e 74       		.byte	0x74
 1327 057f 00       		.sleb128 0
 1328 0580 00       		.byte	0
 1329 0581 17       		.uleb128 0x17
 1330 0582 1E010000 		.4byte	.LVL17
 1331 0586 5C080000 		.4byte	0x85c
 1332 058a 9B050000 		.4byte	0x59b
 1333 058e 18       		.uleb128 0x18
 1334 058f 01       		.byte	0x1
 1335 0590 50       		.byte	0x50
 1336 0591 02       		.byte	0x2
 1337 0592 75       		.byte	0x75
 1338 0593 00       		.sleb128 0
 1339 0594 18       		.uleb128 0x18
 1340 0595 01       		.byte	0x1
 1341 0596 51       		.byte	0x51
 1342 0597 02       		.byte	0x2
 1343 0598 74       		.byte	0x74
 1344 0599 00       		.sleb128 0
 1345 059a 00       		.byte	0
 1346 059b 17       		.uleb128 0x17
 1347 059c 32010000 		.4byte	.LVL18
 1348 05a0 5C080000 		.4byte	0x85c
 1349 05a4 B5050000 		.4byte	0x5b5
 1350 05a8 18       		.uleb128 0x18
 1351 05a9 01       		.byte	0x1
 1352 05aa 50       		.byte	0x50
 1353 05ab 02       		.byte	0x2
 1354 05ac 75       		.byte	0x75
 1355 05ad 00       		.sleb128 0
 1356 05ae 18       		.uleb128 0x18
 1357 05af 01       		.byte	0x1
 1358 05b0 51       		.byte	0x51
 1359 05b1 02       		.byte	0x2
 1360 05b2 74       		.byte	0x74
 1361 05b3 00       		.sleb128 0
 1362 05b4 00       		.byte	0
 1363 05b5 17       		.uleb128 0x17
 1364 05b6 3E010000 		.4byte	.LVL19
 1365 05ba 5C080000 		.4byte	0x85c
 1366 05be CF050000 		.4byte	0x5cf
 1367 05c2 18       		.uleb128 0x18
 1368 05c3 01       		.byte	0x1
 1369 05c4 50       		.byte	0x50
 1370 05c5 02       		.byte	0x2
 1371 05c6 75       		.byte	0x75
 1372 05c7 00       		.sleb128 0
 1373 05c8 18       		.uleb128 0x18
 1374 05c9 01       		.byte	0x1
 1375 05ca 51       		.byte	0x51
 1376 05cb 02       		.byte	0x2
ARM GAS  G:\Users\Jaxb\AppData\Local\Temp\ccbTvrRb.s 			page 33


 1377 05cc 74       		.byte	0x74
 1378 05cd 00       		.sleb128 0
 1379 05ce 00       		.byte	0
 1380 05cf 17       		.uleb128 0x17
 1381 05d0 4E010000 		.4byte	.LVL20
 1382 05d4 5C080000 		.4byte	0x85c
 1383 05d8 E9050000 		.4byte	0x5e9
 1384 05dc 18       		.uleb128 0x18
 1385 05dd 01       		.byte	0x1
 1386 05de 50       		.byte	0x50
 1387 05df 02       		.byte	0x2
 1388 05e0 75       		.byte	0x75
 1389 05e1 00       		.sleb128 0
 1390 05e2 18       		.uleb128 0x18
 1391 05e3 01       		.byte	0x1
 1392 05e4 51       		.byte	0x51
 1393 05e5 02       		.byte	0x2
 1394 05e6 74       		.byte	0x74
 1395 05e7 00       		.sleb128 0
 1396 05e8 00       		.byte	0
 1397 05e9 17       		.uleb128 0x17
 1398 05ea 5E010000 		.4byte	.LVL21
 1399 05ee 5C080000 		.4byte	0x85c
 1400 05f2 03060000 		.4byte	0x603
 1401 05f6 18       		.uleb128 0x18
 1402 05f7 01       		.byte	0x1
 1403 05f8 50       		.byte	0x50
 1404 05f9 02       		.byte	0x2
 1405 05fa 75       		.byte	0x75
 1406 05fb 00       		.sleb128 0
 1407 05fc 18       		.uleb128 0x18
 1408 05fd 01       		.byte	0x1
 1409 05fe 51       		.byte	0x51
 1410 05ff 02       		.byte	0x2
 1411 0600 74       		.byte	0x74
 1412 0601 00       		.sleb128 0
 1413 0602 00       		.byte	0
 1414 0603 17       		.uleb128 0x17
 1415 0604 6A010000 		.4byte	.LVL22
 1416 0608 5C080000 		.4byte	0x85c
 1417 060c 1D060000 		.4byte	0x61d
 1418 0610 18       		.uleb128 0x18
 1419 0611 01       		.byte	0x1
 1420 0612 50       		.byte	0x50
 1421 0613 02       		.byte	0x2
 1422 0614 75       		.byte	0x75
 1423 0615 00       		.sleb128 0
 1424 0616 18       		.uleb128 0x18
 1425 0617 01       		.byte	0x1
 1426 0618 51       		.byte	0x51
 1427 0619 02       		.byte	0x2
 1428 061a 74       		.byte	0x74
 1429 061b 00       		.sleb128 0
 1430 061c 00       		.byte	0
 1431 061d 17       		.uleb128 0x17
 1432 061e 76010000 		.4byte	.LVL23
 1433 0622 5C080000 		.4byte	0x85c
ARM GAS  G:\Users\Jaxb\AppData\Local\Temp\ccbTvrRb.s 			page 34


 1434 0626 37060000 		.4byte	0x637
 1435 062a 18       		.uleb128 0x18
 1436 062b 01       		.byte	0x1
 1437 062c 50       		.byte	0x50
 1438 062d 02       		.byte	0x2
 1439 062e 75       		.byte	0x75
 1440 062f 00       		.sleb128 0
 1441 0630 18       		.uleb128 0x18
 1442 0631 01       		.byte	0x1
 1443 0632 51       		.byte	0x51
 1444 0633 02       		.byte	0x2
 1445 0634 74       		.byte	0x74
 1446 0635 00       		.sleb128 0
 1447 0636 00       		.byte	0
 1448 0637 17       		.uleb128 0x17
 1449 0638 86010000 		.4byte	.LVL24
 1450 063c 5C080000 		.4byte	0x85c
 1451 0640 51060000 		.4byte	0x651
 1452 0644 18       		.uleb128 0x18
 1453 0645 01       		.byte	0x1
 1454 0646 50       		.byte	0x50
 1455 0647 02       		.byte	0x2
 1456 0648 76       		.byte	0x76
 1457 0649 00       		.sleb128 0
 1458 064a 18       		.uleb128 0x18
 1459 064b 01       		.byte	0x1
 1460 064c 51       		.byte	0x51
 1461 064d 02       		.byte	0x2
 1462 064e 74       		.byte	0x74
 1463 064f 00       		.sleb128 0
 1464 0650 00       		.byte	0
 1465 0651 17       		.uleb128 0x17
 1466 0652 96010000 		.4byte	.LVL25
 1467 0656 5C080000 		.4byte	0x85c
 1468 065a 6B060000 		.4byte	0x66b
 1469 065e 18       		.uleb128 0x18
 1470 065f 01       		.byte	0x1
 1471 0660 50       		.byte	0x50
 1472 0661 02       		.byte	0x2
 1473 0662 76       		.byte	0x76
 1474 0663 00       		.sleb128 0
 1475 0664 18       		.uleb128 0x18
 1476 0665 01       		.byte	0x1
 1477 0666 51       		.byte	0x51
 1478 0667 02       		.byte	0x2
 1479 0668 74       		.byte	0x74
 1480 0669 00       		.sleb128 0
 1481 066a 00       		.byte	0
 1482 066b 17       		.uleb128 0x17
 1483 066c A6010000 		.4byte	.LVL26
 1484 0670 5C080000 		.4byte	0x85c
 1485 0674 85060000 		.4byte	0x685
 1486 0678 18       		.uleb128 0x18
 1487 0679 01       		.byte	0x1
 1488 067a 50       		.byte	0x50
 1489 067b 02       		.byte	0x2
 1490 067c 76       		.byte	0x76
ARM GAS  G:\Users\Jaxb\AppData\Local\Temp\ccbTvrRb.s 			page 35


 1491 067d 00       		.sleb128 0
 1492 067e 18       		.uleb128 0x18
 1493 067f 01       		.byte	0x1
 1494 0680 51       		.byte	0x51
 1495 0681 02       		.byte	0x2
 1496 0682 74       		.byte	0x74
 1497 0683 00       		.sleb128 0
 1498 0684 00       		.byte	0
 1499 0685 17       		.uleb128 0x17
 1500 0686 B6010000 		.4byte	.LVL27
 1501 068a 5C080000 		.4byte	0x85c
 1502 068e 9F060000 		.4byte	0x69f
 1503 0692 18       		.uleb128 0x18
 1504 0693 01       		.byte	0x1
 1505 0694 50       		.byte	0x50
 1506 0695 02       		.byte	0x2
 1507 0696 76       		.byte	0x76
 1508 0697 00       		.sleb128 0
 1509 0698 18       		.uleb128 0x18
 1510 0699 01       		.byte	0x1
 1511 069a 51       		.byte	0x51
 1512 069b 02       		.byte	0x2
 1513 069c 74       		.byte	0x74
 1514 069d 00       		.sleb128 0
 1515 069e 00       		.byte	0
 1516 069f 17       		.uleb128 0x17
 1517 06a0 C6010000 		.4byte	.LVL28
 1518 06a4 5C080000 		.4byte	0x85c
 1519 06a8 B9060000 		.4byte	0x6b9
 1520 06ac 18       		.uleb128 0x18
 1521 06ad 01       		.byte	0x1
 1522 06ae 50       		.byte	0x50
 1523 06af 02       		.byte	0x2
 1524 06b0 76       		.byte	0x76
 1525 06b1 00       		.sleb128 0
 1526 06b2 18       		.uleb128 0x18
 1527 06b3 01       		.byte	0x1
 1528 06b4 51       		.byte	0x51
 1529 06b5 02       		.byte	0x2
 1530 06b6 74       		.byte	0x74
 1531 06b7 00       		.sleb128 0
 1532 06b8 00       		.byte	0
 1533 06b9 17       		.uleb128 0x17
 1534 06ba D6010000 		.4byte	.LVL29
 1535 06be 5C080000 		.4byte	0x85c
 1536 06c2 D3060000 		.4byte	0x6d3
 1537 06c6 18       		.uleb128 0x18
 1538 06c7 01       		.byte	0x1
 1539 06c8 50       		.byte	0x50
 1540 06c9 02       		.byte	0x2
 1541 06ca 76       		.byte	0x76
 1542 06cb 00       		.sleb128 0
 1543 06cc 18       		.uleb128 0x18
 1544 06cd 01       		.byte	0x1
 1545 06ce 51       		.byte	0x51
 1546 06cf 02       		.byte	0x2
 1547 06d0 74       		.byte	0x74
ARM GAS  G:\Users\Jaxb\AppData\Local\Temp\ccbTvrRb.s 			page 36


 1548 06d1 00       		.sleb128 0
 1549 06d2 00       		.byte	0
 1550 06d3 17       		.uleb128 0x17
 1551 06d4 E6010000 		.4byte	.LVL30
 1552 06d8 5C080000 		.4byte	0x85c
 1553 06dc ED060000 		.4byte	0x6ed
 1554 06e0 18       		.uleb128 0x18
 1555 06e1 01       		.byte	0x1
 1556 06e2 50       		.byte	0x50
 1557 06e3 02       		.byte	0x2
 1558 06e4 76       		.byte	0x76
 1559 06e5 00       		.sleb128 0
 1560 06e6 18       		.uleb128 0x18
 1561 06e7 01       		.byte	0x1
 1562 06e8 51       		.byte	0x51
 1563 06e9 02       		.byte	0x2
 1564 06ea 74       		.byte	0x74
 1565 06eb 00       		.sleb128 0
 1566 06ec 00       		.byte	0
 1567 06ed 17       		.uleb128 0x17
 1568 06ee F6010000 		.4byte	.LVL31
 1569 06f2 5C080000 		.4byte	0x85c
 1570 06f6 07070000 		.4byte	0x707
 1571 06fa 18       		.uleb128 0x18
 1572 06fb 01       		.byte	0x1
 1573 06fc 50       		.byte	0x50
 1574 06fd 02       		.byte	0x2
 1575 06fe 76       		.byte	0x76
 1576 06ff 00       		.sleb128 0
 1577 0700 18       		.uleb128 0x18
 1578 0701 01       		.byte	0x1
 1579 0702 51       		.byte	0x51
 1580 0703 02       		.byte	0x2
 1581 0704 74       		.byte	0x74
 1582 0705 00       		.sleb128 0
 1583 0706 00       		.byte	0
 1584 0707 17       		.uleb128 0x17
 1585 0708 06020000 		.4byte	.LVL32
 1586 070c 5C080000 		.4byte	0x85c
 1587 0710 21070000 		.4byte	0x721
 1588 0714 18       		.uleb128 0x18
 1589 0715 01       		.byte	0x1
 1590 0716 50       		.byte	0x50
 1591 0717 02       		.byte	0x2
 1592 0718 76       		.byte	0x76
 1593 0719 00       		.sleb128 0
 1594 071a 18       		.uleb128 0x18
 1595 071b 01       		.byte	0x1
 1596 071c 51       		.byte	0x51
 1597 071d 02       		.byte	0x2
 1598 071e 74       		.byte	0x74
 1599 071f 00       		.sleb128 0
 1600 0720 00       		.byte	0
 1601 0721 17       		.uleb128 0x17
 1602 0722 16020000 		.4byte	.LVL33
 1603 0726 5C080000 		.4byte	0x85c
 1604 072a 3B070000 		.4byte	0x73b
ARM GAS  G:\Users\Jaxb\AppData\Local\Temp\ccbTvrRb.s 			page 37


 1605 072e 18       		.uleb128 0x18
 1606 072f 01       		.byte	0x1
 1607 0730 50       		.byte	0x50
 1608 0731 02       		.byte	0x2
 1609 0732 75       		.byte	0x75
 1610 0733 00       		.sleb128 0
 1611 0734 18       		.uleb128 0x18
 1612 0735 01       		.byte	0x1
 1613 0736 51       		.byte	0x51
 1614 0737 02       		.byte	0x2
 1615 0738 74       		.byte	0x74
 1616 0739 00       		.sleb128 0
 1617 073a 00       		.byte	0
 1618 073b 17       		.uleb128 0x17
 1619 073c 26020000 		.4byte	.LVL34
 1620 0740 5C080000 		.4byte	0x85c
 1621 0744 55070000 		.4byte	0x755
 1622 0748 18       		.uleb128 0x18
 1623 0749 01       		.byte	0x1
 1624 074a 50       		.byte	0x50
 1625 074b 02       		.byte	0x2
 1626 074c 75       		.byte	0x75
 1627 074d 00       		.sleb128 0
 1628 074e 18       		.uleb128 0x18
 1629 074f 01       		.byte	0x1
 1630 0750 51       		.byte	0x51
 1631 0751 02       		.byte	0x2
 1632 0752 74       		.byte	0x74
 1633 0753 00       		.sleb128 0
 1634 0754 00       		.byte	0
 1635 0755 17       		.uleb128 0x17
 1636 0756 36020000 		.4byte	.LVL35
 1637 075a 5C080000 		.4byte	0x85c
 1638 075e 6F070000 		.4byte	0x76f
 1639 0762 18       		.uleb128 0x18
 1640 0763 01       		.byte	0x1
 1641 0764 50       		.byte	0x50
 1642 0765 02       		.byte	0x2
 1643 0766 75       		.byte	0x75
 1644 0767 00       		.sleb128 0
 1645 0768 18       		.uleb128 0x18
 1646 0769 01       		.byte	0x1
 1647 076a 51       		.byte	0x51
 1648 076b 02       		.byte	0x2
 1649 076c 74       		.byte	0x74
 1650 076d 00       		.sleb128 0
 1651 076e 00       		.byte	0
 1652 076f 17       		.uleb128 0x17
 1653 0770 46020000 		.4byte	.LVL36
 1654 0774 5C080000 		.4byte	0x85c
 1655 0778 89070000 		.4byte	0x789
 1656 077c 18       		.uleb128 0x18
 1657 077d 01       		.byte	0x1
 1658 077e 50       		.byte	0x50
 1659 077f 02       		.byte	0x2
 1660 0780 77       		.byte	0x77
 1661 0781 00       		.sleb128 0
ARM GAS  G:\Users\Jaxb\AppData\Local\Temp\ccbTvrRb.s 			page 38


 1662 0782 18       		.uleb128 0x18
 1663 0783 01       		.byte	0x1
 1664 0784 51       		.byte	0x51
 1665 0785 02       		.byte	0x2
 1666 0786 74       		.byte	0x74
 1667 0787 00       		.sleb128 0
 1668 0788 00       		.byte	0
 1669 0789 17       		.uleb128 0x17
 1670 078a 56020000 		.4byte	.LVL37
 1671 078e 5C080000 		.4byte	0x85c
 1672 0792 A3070000 		.4byte	0x7a3
 1673 0796 18       		.uleb128 0x18
 1674 0797 01       		.byte	0x1
 1675 0798 50       		.byte	0x50
 1676 0799 02       		.byte	0x2
 1677 079a 75       		.byte	0x75
 1678 079b 00       		.sleb128 0
 1679 079c 18       		.uleb128 0x18
 1680 079d 01       		.byte	0x1
 1681 079e 51       		.byte	0x51
 1682 079f 02       		.byte	0x2
 1683 07a0 74       		.byte	0x74
 1684 07a1 00       		.sleb128 0
 1685 07a2 00       		.byte	0
 1686 07a3 17       		.uleb128 0x17
 1687 07a4 62020000 		.4byte	.LVL38
 1688 07a8 5C080000 		.4byte	0x85c
 1689 07ac BD070000 		.4byte	0x7bd
 1690 07b0 18       		.uleb128 0x18
 1691 07b1 01       		.byte	0x1
 1692 07b2 50       		.byte	0x50
 1693 07b3 02       		.byte	0x2
 1694 07b4 75       		.byte	0x75
 1695 07b5 00       		.sleb128 0
 1696 07b6 18       		.uleb128 0x18
 1697 07b7 01       		.byte	0x1
 1698 07b8 51       		.byte	0x51
 1699 07b9 02       		.byte	0x2
 1700 07ba 74       		.byte	0x74
 1701 07bb 00       		.sleb128 0
 1702 07bc 00       		.byte	0
 1703 07bd 17       		.uleb128 0x17
 1704 07be 6E020000 		.4byte	.LVL39
 1705 07c2 5C080000 		.4byte	0x85c
 1706 07c6 D7070000 		.4byte	0x7d7
 1707 07ca 18       		.uleb128 0x18
 1708 07cb 01       		.byte	0x1
 1709 07cc 50       		.byte	0x50
 1710 07cd 02       		.byte	0x2
 1711 07ce 76       		.byte	0x76
 1712 07cf 00       		.sleb128 0
 1713 07d0 18       		.uleb128 0x18
 1714 07d1 01       		.byte	0x1
 1715 07d2 51       		.byte	0x51
 1716 07d3 02       		.byte	0x2
 1717 07d4 74       		.byte	0x74
 1718 07d5 00       		.sleb128 0
ARM GAS  G:\Users\Jaxb\AppData\Local\Temp\ccbTvrRb.s 			page 39


 1719 07d6 00       		.byte	0
 1720 07d7 19       		.uleb128 0x19
 1721 07d8 7A020000 		.4byte	.LVL40
 1722 07dc 5C080000 		.4byte	0x85c
 1723 07e0 18       		.uleb128 0x18
 1724 07e1 01       		.byte	0x1
 1725 07e2 50       		.byte	0x50
 1726 07e3 02       		.byte	0x2
 1727 07e4 76       		.byte	0x76
 1728 07e5 00       		.sleb128 0
 1729 07e6 18       		.uleb128 0x18
 1730 07e7 01       		.byte	0x1
 1731 07e8 51       		.byte	0x51
 1732 07e9 02       		.byte	0x2
 1733 07ea 74       		.byte	0x74
 1734 07eb 00       		.sleb128 0
 1735 07ec 00       		.byte	0
 1736 07ed 00       		.byte	0
 1737 07ee 00       		.byte	0
 1738 07ef 17       		.uleb128 0x17
 1739 07f0 84020000 		.4byte	.LVL41
 1740 07f4 6A080000 		.4byte	0x86a
 1741 07f8 0A080000 		.4byte	0x80a
 1742 07fc 18       		.uleb128 0x18
 1743 07fd 01       		.byte	0x1
 1744 07fe 50       		.byte	0x50
 1745 07ff 03       		.byte	0x3
 1746 0800 0A       		.byte	0xa
 1747 0801 0001     		.2byte	0x100
 1748 0803 18       		.uleb128 0x18
 1749 0804 01       		.byte	0x1
 1750 0805 51       		.byte	0x51
 1751 0806 02       		.byte	0x2
 1752 0807 78       		.byte	0x78
 1753 0808 00       		.sleb128 0
 1754 0809 00       		.byte	0
 1755 080a 17       		.uleb128 0x17
 1756 080b C6020000 		.4byte	.LVL42
 1757 080f 78080000 		.4byte	0x878
 1758 0813 1E080000 		.4byte	0x81e
 1759 0817 18       		.uleb128 0x18
 1760 0818 01       		.byte	0x1
 1761 0819 50       		.byte	0x50
 1762 081a 02       		.byte	0x2
 1763 081b 74       		.byte	0x74
 1764 081c 00       		.sleb128 0
 1765 081d 00       		.byte	0
 1766 081e 19       		.uleb128 0x19
 1767 081f CE020000 		.4byte	.LVL43
 1768 0823 86080000 		.4byte	0x886
 1769 0827 18       		.uleb128 0x18
 1770 0828 01       		.byte	0x1
 1771 0829 50       		.byte	0x50
 1772 082a 02       		.byte	0x2
 1773 082b 7B       		.byte	0x7b
 1774 082c 00       		.sleb128 0
 1775 082d 18       		.uleb128 0x18
ARM GAS  G:\Users\Jaxb\AppData\Local\Temp\ccbTvrRb.s 			page 40


 1776 082e 01       		.byte	0x1
 1777 082f 51       		.byte	0x51
 1778 0830 02       		.byte	0x2
 1779 0831 78       		.byte	0x78
 1780 0832 00       		.sleb128 0
 1781 0833 00       		.byte	0
 1782 0834 00       		.byte	0
 1783 0835 1A       		.uleb128 0x1a
 1784 0836 0D000000 		.4byte	.LASF72
 1785 083a 01       		.byte	0x1
 1786 083b 1D       		.byte	0x1d
 1787 083c 01       		.byte	0x1
 1788 083d 01       		.byte	0x1
 1789 083e 4E080000 		.4byte	0x84e
 1790 0842 1B       		.uleb128 0x1b
 1791 0843 05040000 		.4byte	.LASF73
 1792 0847 01       		.byte	0x1
 1793 0848 1F       		.byte	0x1f
 1794 0849 FD010000 		.4byte	0x1fd
 1795 084d 00       		.byte	0
 1796 084e 1C       		.uleb128 0x1c
 1797 084f 01       		.byte	0x1
 1798 0850 01       		.byte	0x1
 1799 0851 88030000 		.4byte	.LASF63
 1800 0855 88030000 		.4byte	.LASF63
 1801 0859 09       		.byte	0x9
 1802 085a B502     		.2byte	0x2b5
 1803 085c 1C       		.uleb128 0x1c
 1804 085d 01       		.byte	0x1
 1805 085e 01       		.byte	0x1
 1806 085f 0D010000 		.4byte	.LASF64
 1807 0863 0D010000 		.4byte	.LASF64
 1808 0867 07       		.byte	0x7
 1809 0868 5F01     		.2byte	0x15f
 1810 086a 1C       		.uleb128 0x1c
 1811 086b 01       		.byte	0x1
 1812 086c 01       		.byte	0x1
 1813 086d D6000000 		.4byte	.LASF65
 1814 0871 D6000000 		.4byte	.LASF65
 1815 0875 09       		.byte	0x9
 1816 0876 B402     		.2byte	0x2b4
 1817 0878 1C       		.uleb128 0x1c
 1818 0879 01       		.byte	0x1
 1819 087a 01       		.byte	0x1
 1820 087b 58040000 		.4byte	.LASF66
 1821 087f 58040000 		.4byte	.LASF66
 1822 0883 08       		.byte	0x8
 1823 0884 BB02     		.2byte	0x2bb
 1824 0886 1C       		.uleb128 0x1c
 1825 0887 01       		.byte	0x1
 1826 0888 01       		.byte	0x1
 1827 0889 2B030000 		.4byte	.LASF67
 1828 088d 2B030000 		.4byte	.LASF67
 1829 0891 08       		.byte	0x8
 1830 0892 C102     		.2byte	0x2c1
 1831 0894 00       		.byte	0
 1832              		.section	.debug_abbrev,"",%progbits
ARM GAS  G:\Users\Jaxb\AppData\Local\Temp\ccbTvrRb.s 			page 41


 1833              	.Ldebug_abbrev0:
 1834 0000 01       		.uleb128 0x1
 1835 0001 11       		.uleb128 0x11
 1836 0002 01       		.byte	0x1
 1837 0003 25       		.uleb128 0x25
 1838 0004 0E       		.uleb128 0xe
 1839 0005 13       		.uleb128 0x13
 1840 0006 0B       		.uleb128 0xb
 1841 0007 03       		.uleb128 0x3
 1842 0008 0E       		.uleb128 0xe
 1843 0009 1B       		.uleb128 0x1b
 1844 000a 0E       		.uleb128 0xe
 1845 000b 11       		.uleb128 0x11
 1846 000c 01       		.uleb128 0x1
 1847 000d 12       		.uleb128 0x12
 1848 000e 01       		.uleb128 0x1
 1849 000f 10       		.uleb128 0x10
 1850 0010 06       		.uleb128 0x6
 1851 0011 00       		.byte	0
 1852 0012 00       		.byte	0
 1853 0013 02       		.uleb128 0x2
 1854 0014 24       		.uleb128 0x24
 1855 0015 00       		.byte	0
 1856 0016 0B       		.uleb128 0xb
 1857 0017 0B       		.uleb128 0xb
 1858 0018 3E       		.uleb128 0x3e
 1859 0019 0B       		.uleb128 0xb
 1860 001a 03       		.uleb128 0x3
 1861 001b 0E       		.uleb128 0xe
 1862 001c 00       		.byte	0
 1863 001d 00       		.byte	0
 1864 001e 03       		.uleb128 0x3
 1865 001f 16       		.uleb128 0x16
 1866 0020 00       		.byte	0
 1867 0021 03       		.uleb128 0x3
 1868 0022 0E       		.uleb128 0xe
 1869 0023 3A       		.uleb128 0x3a
 1870 0024 0B       		.uleb128 0xb
 1871 0025 3B       		.uleb128 0x3b
 1872 0026 0B       		.uleb128 0xb
 1873 0027 49       		.uleb128 0x49
 1874 0028 13       		.uleb128 0x13
 1875 0029 00       		.byte	0
 1876 002a 00       		.byte	0
 1877 002b 04       		.uleb128 0x4
 1878 002c 24       		.uleb128 0x24
 1879 002d 00       		.byte	0
 1880 002e 0B       		.uleb128 0xb
 1881 002f 0B       		.uleb128 0xb
 1882 0030 3E       		.uleb128 0x3e
 1883 0031 0B       		.uleb128 0xb
 1884 0032 03       		.uleb128 0x3
 1885 0033 08       		.uleb128 0x8
 1886 0034 00       		.byte	0
 1887 0035 00       		.byte	0
 1888 0036 05       		.uleb128 0x5
 1889 0037 35       		.uleb128 0x35
ARM GAS  G:\Users\Jaxb\AppData\Local\Temp\ccbTvrRb.s 			page 42


 1890 0038 00       		.byte	0
 1891 0039 49       		.uleb128 0x49
 1892 003a 13       		.uleb128 0x13
 1893 003b 00       		.byte	0
 1894 003c 00       		.byte	0
 1895 003d 06       		.uleb128 0x6
 1896 003e 34       		.uleb128 0x34
 1897 003f 00       		.byte	0
 1898 0040 03       		.uleb128 0x3
 1899 0041 0E       		.uleb128 0xe
 1900 0042 3A       		.uleb128 0x3a
 1901 0043 0B       		.uleb128 0xb
 1902 0044 3B       		.uleb128 0x3b
 1903 0045 05       		.uleb128 0x5
 1904 0046 49       		.uleb128 0x49
 1905 0047 13       		.uleb128 0x13
 1906 0048 3F       		.uleb128 0x3f
 1907 0049 0C       		.uleb128 0xc
 1908 004a 3C       		.uleb128 0x3c
 1909 004b 0C       		.uleb128 0xc
 1910 004c 00       		.byte	0
 1911 004d 00       		.byte	0
 1912 004e 07       		.uleb128 0x7
 1913 004f 34       		.uleb128 0x34
 1914 0050 00       		.byte	0
 1915 0051 03       		.uleb128 0x3
 1916 0052 0E       		.uleb128 0xe
 1917 0053 3A       		.uleb128 0x3a
 1918 0054 0B       		.uleb128 0xb
 1919 0055 3B       		.uleb128 0x3b
 1920 0056 0B       		.uleb128 0xb
 1921 0057 49       		.uleb128 0x49
 1922 0058 13       		.uleb128 0x13
 1923 0059 3F       		.uleb128 0x3f
 1924 005a 0C       		.uleb128 0xc
 1925 005b 3C       		.uleb128 0x3c
 1926 005c 0C       		.uleb128 0xc
 1927 005d 00       		.byte	0
 1928 005e 00       		.byte	0
 1929 005f 08       		.uleb128 0x8
 1930 0060 04       		.uleb128 0x4
 1931 0061 01       		.byte	0x1
 1932 0062 3E       		.uleb128 0x3e
 1933 0063 0B       		.uleb128 0xb
 1934 0064 0B       		.uleb128 0xb
 1935 0065 0B       		.uleb128 0xb
 1936 0066 49       		.uleb128 0x49
 1937 0067 13       		.uleb128 0x13
 1938 0068 3A       		.uleb128 0x3a
 1939 0069 0B       		.uleb128 0xb
 1940 006a 3B       		.uleb128 0x3b
 1941 006b 05       		.uleb128 0x5
 1942 006c 01       		.uleb128 0x1
 1943 006d 13       		.uleb128 0x13
 1944 006e 00       		.byte	0
 1945 006f 00       		.byte	0
 1946 0070 09       		.uleb128 0x9
ARM GAS  G:\Users\Jaxb\AppData\Local\Temp\ccbTvrRb.s 			page 43


 1947 0071 28       		.uleb128 0x28
 1948 0072 00       		.byte	0
 1949 0073 03       		.uleb128 0x3
 1950 0074 0E       		.uleb128 0xe
 1951 0075 1C       		.uleb128 0x1c
 1952 0076 0B       		.uleb128 0xb
 1953 0077 00       		.byte	0
 1954 0078 00       		.byte	0
 1955 0079 0A       		.uleb128 0xa
 1956 007a 13       		.uleb128 0x13
 1957 007b 01       		.byte	0x1
 1958 007c 0B       		.uleb128 0xb
 1959 007d 0B       		.uleb128 0xb
 1960 007e 3A       		.uleb128 0x3a
 1961 007f 0B       		.uleb128 0xb
 1962 0080 3B       		.uleb128 0x3b
 1963 0081 05       		.uleb128 0x5
 1964 0082 01       		.uleb128 0x1
 1965 0083 13       		.uleb128 0x13
 1966 0084 00       		.byte	0
 1967 0085 00       		.byte	0
 1968 0086 0B       		.uleb128 0xb
 1969 0087 0D       		.uleb128 0xd
 1970 0088 00       		.byte	0
 1971 0089 03       		.uleb128 0x3
 1972 008a 08       		.uleb128 0x8
 1973 008b 3A       		.uleb128 0x3a
 1974 008c 0B       		.uleb128 0xb
 1975 008d 3B       		.uleb128 0x3b
 1976 008e 05       		.uleb128 0x5
 1977 008f 49       		.uleb128 0x49
 1978 0090 13       		.uleb128 0x13
 1979 0091 38       		.uleb128 0x38
 1980 0092 0A       		.uleb128 0xa
 1981 0093 00       		.byte	0
 1982 0094 00       		.byte	0
 1983 0095 0C       		.uleb128 0xc
 1984 0096 0D       		.uleb128 0xd
 1985 0097 00       		.byte	0
 1986 0098 03       		.uleb128 0x3
 1987 0099 0E       		.uleb128 0xe
 1988 009a 3A       		.uleb128 0x3a
 1989 009b 0B       		.uleb128 0xb
 1990 009c 3B       		.uleb128 0x3b
 1991 009d 05       		.uleb128 0x5
 1992 009e 49       		.uleb128 0x49
 1993 009f 13       		.uleb128 0x13
 1994 00a0 38       		.uleb128 0x38
 1995 00a1 0A       		.uleb128 0xa
 1996 00a2 00       		.byte	0
 1997 00a3 00       		.byte	0
 1998 00a4 0D       		.uleb128 0xd
 1999 00a5 16       		.uleb128 0x16
 2000 00a6 00       		.byte	0
 2001 00a7 03       		.uleb128 0x3
 2002 00a8 0E       		.uleb128 0xe
 2003 00a9 3A       		.uleb128 0x3a
ARM GAS  G:\Users\Jaxb\AppData\Local\Temp\ccbTvrRb.s 			page 44


 2004 00aa 0B       		.uleb128 0xb
 2005 00ab 3B       		.uleb128 0x3b
 2006 00ac 05       		.uleb128 0x5
 2007 00ad 49       		.uleb128 0x49
 2008 00ae 13       		.uleb128 0x13
 2009 00af 00       		.byte	0
 2010 00b0 00       		.byte	0
 2011 00b1 0E       		.uleb128 0xe
 2012 00b2 04       		.uleb128 0x4
 2013 00b3 01       		.byte	0x1
 2014 00b4 3E       		.uleb128 0x3e
 2015 00b5 0B       		.uleb128 0xb
 2016 00b6 0B       		.uleb128 0xb
 2017 00b7 0B       		.uleb128 0xb
 2018 00b8 49       		.uleb128 0x49
 2019 00b9 13       		.uleb128 0x13
 2020 00ba 3A       		.uleb128 0x3a
 2021 00bb 0B       		.uleb128 0xb
 2022 00bc 3B       		.uleb128 0x3b
 2023 00bd 0B       		.uleb128 0xb
 2024 00be 01       		.uleb128 0x1
 2025 00bf 13       		.uleb128 0x13
 2026 00c0 00       		.byte	0
 2027 00c1 00       		.byte	0
 2028 00c2 0F       		.uleb128 0xf
 2029 00c3 13       		.uleb128 0x13
 2030 00c4 01       		.byte	0x1
 2031 00c5 0B       		.uleb128 0xb
 2032 00c6 0B       		.uleb128 0xb
 2033 00c7 3A       		.uleb128 0x3a
 2034 00c8 0B       		.uleb128 0xb
 2035 00c9 3B       		.uleb128 0x3b
 2036 00ca 0B       		.uleb128 0xb
 2037 00cb 01       		.uleb128 0x1
 2038 00cc 13       		.uleb128 0x13
 2039 00cd 00       		.byte	0
 2040 00ce 00       		.byte	0
 2041 00cf 10       		.uleb128 0x10
 2042 00d0 0D       		.uleb128 0xd
 2043 00d1 00       		.byte	0
 2044 00d2 03       		.uleb128 0x3
 2045 00d3 0E       		.uleb128 0xe
 2046 00d4 3A       		.uleb128 0x3a
 2047 00d5 0B       		.uleb128 0xb
 2048 00d6 3B       		.uleb128 0x3b
 2049 00d7 0B       		.uleb128 0xb
 2050 00d8 49       		.uleb128 0x49
 2051 00d9 13       		.uleb128 0x13
 2052 00da 38       		.uleb128 0x38
 2053 00db 0A       		.uleb128 0xa
 2054 00dc 00       		.byte	0
 2055 00dd 00       		.byte	0
 2056 00de 11       		.uleb128 0x11
 2057 00df 0F       		.uleb128 0xf
 2058 00e0 00       		.byte	0
 2059 00e1 0B       		.uleb128 0xb
 2060 00e2 0B       		.uleb128 0xb
ARM GAS  G:\Users\Jaxb\AppData\Local\Temp\ccbTvrRb.s 			page 45


 2061 00e3 49       		.uleb128 0x49
 2062 00e4 13       		.uleb128 0x13
 2063 00e5 00       		.byte	0
 2064 00e6 00       		.byte	0
 2065 00e7 12       		.uleb128 0x12
 2066 00e8 2E       		.uleb128 0x2e
 2067 00e9 01       		.byte	0x1
 2068 00ea 3F       		.uleb128 0x3f
 2069 00eb 0C       		.uleb128 0xc
 2070 00ec 03       		.uleb128 0x3
 2071 00ed 0E       		.uleb128 0xe
 2072 00ee 3A       		.uleb128 0x3a
 2073 00ef 0B       		.uleb128 0xb
 2074 00f0 3B       		.uleb128 0x3b
 2075 00f1 0B       		.uleb128 0xb
 2076 00f2 27       		.uleb128 0x27
 2077 00f3 0C       		.uleb128 0xc
 2078 00f4 11       		.uleb128 0x11
 2079 00f5 01       		.uleb128 0x1
 2080 00f6 12       		.uleb128 0x12
 2081 00f7 01       		.uleb128 0x1
 2082 00f8 40       		.uleb128 0x40
 2083 00f9 06       		.uleb128 0x6
 2084 00fa 9742     		.uleb128 0x2117
 2085 00fc 0C       		.uleb128 0xc
 2086 00fd 01       		.uleb128 0x1
 2087 00fe 13       		.uleb128 0x13
 2088 00ff 00       		.byte	0
 2089 0100 00       		.byte	0
 2090 0101 13       		.uleb128 0x13
 2091 0102 34       		.uleb128 0x34
 2092 0103 00       		.byte	0
 2093 0104 03       		.uleb128 0x3
 2094 0105 0E       		.uleb128 0xe
 2095 0106 3A       		.uleb128 0x3a
 2096 0107 0B       		.uleb128 0xb
 2097 0108 3B       		.uleb128 0x3b
 2098 0109 0B       		.uleb128 0xb
 2099 010a 49       		.uleb128 0x49
 2100 010b 13       		.uleb128 0x13
 2101 010c 02       		.uleb128 0x2
 2102 010d 0A       		.uleb128 0xa
 2103 010e 00       		.byte	0
 2104 010f 00       		.byte	0
 2105 0110 14       		.uleb128 0x14
 2106 0111 1D       		.uleb128 0x1d
 2107 0112 01       		.byte	0x1
 2108 0113 31       		.uleb128 0x31
 2109 0114 13       		.uleb128 0x13
 2110 0115 52       		.uleb128 0x52
 2111 0116 01       		.uleb128 0x1
 2112 0117 55       		.uleb128 0x55
 2113 0118 06       		.uleb128 0x6
 2114 0119 58       		.uleb128 0x58
 2115 011a 0B       		.uleb128 0xb
 2116 011b 59       		.uleb128 0x59
 2117 011c 0B       		.uleb128 0xb
ARM GAS  G:\Users\Jaxb\AppData\Local\Temp\ccbTvrRb.s 			page 46


 2118 011d 01       		.uleb128 0x1
 2119 011e 13       		.uleb128 0x13
 2120 011f 00       		.byte	0
 2121 0120 00       		.byte	0
 2122 0121 15       		.uleb128 0x15
 2123 0122 0B       		.uleb128 0xb
 2124 0123 01       		.byte	0x1
 2125 0124 55       		.uleb128 0x55
 2126 0125 06       		.uleb128 0x6
 2127 0126 00       		.byte	0
 2128 0127 00       		.byte	0
 2129 0128 16       		.uleb128 0x16
 2130 0129 34       		.uleb128 0x34
 2131 012a 00       		.byte	0
 2132 012b 31       		.uleb128 0x31
 2133 012c 13       		.uleb128 0x13
 2134 012d 02       		.uleb128 0x2
 2135 012e 0A       		.uleb128 0xa
 2136 012f 00       		.byte	0
 2137 0130 00       		.byte	0
 2138 0131 17       		.uleb128 0x17
 2139 0132 898201   		.uleb128 0x4109
 2140 0135 01       		.byte	0x1
 2141 0136 11       		.uleb128 0x11
 2142 0137 01       		.uleb128 0x1
 2143 0138 31       		.uleb128 0x31
 2144 0139 13       		.uleb128 0x13
 2145 013a 01       		.uleb128 0x1
 2146 013b 13       		.uleb128 0x13
 2147 013c 00       		.byte	0
 2148 013d 00       		.byte	0
 2149 013e 18       		.uleb128 0x18
 2150 013f 8A8201   		.uleb128 0x410a
 2151 0142 00       		.byte	0
 2152 0143 02       		.uleb128 0x2
 2153 0144 0A       		.uleb128 0xa
 2154 0145 9142     		.uleb128 0x2111
 2155 0147 0A       		.uleb128 0xa
 2156 0148 00       		.byte	0
 2157 0149 00       		.byte	0
 2158 014a 19       		.uleb128 0x19
 2159 014b 898201   		.uleb128 0x4109
 2160 014e 01       		.byte	0x1
 2161 014f 11       		.uleb128 0x11
 2162 0150 01       		.uleb128 0x1
 2163 0151 31       		.uleb128 0x31
 2164 0152 13       		.uleb128 0x13
 2165 0153 00       		.byte	0
 2166 0154 00       		.byte	0
 2167 0155 1A       		.uleb128 0x1a
 2168 0156 2E       		.uleb128 0x2e
 2169 0157 01       		.byte	0x1
 2170 0158 03       		.uleb128 0x3
 2171 0159 0E       		.uleb128 0xe
 2172 015a 3A       		.uleb128 0x3a
 2173 015b 0B       		.uleb128 0xb
 2174 015c 3B       		.uleb128 0x3b
ARM GAS  G:\Users\Jaxb\AppData\Local\Temp\ccbTvrRb.s 			page 47


 2175 015d 0B       		.uleb128 0xb
 2176 015e 27       		.uleb128 0x27
 2177 015f 0C       		.uleb128 0xc
 2178 0160 20       		.uleb128 0x20
 2179 0161 0B       		.uleb128 0xb
 2180 0162 01       		.uleb128 0x1
 2181 0163 13       		.uleb128 0x13
 2182 0164 00       		.byte	0
 2183 0165 00       		.byte	0
 2184 0166 1B       		.uleb128 0x1b
 2185 0167 34       		.uleb128 0x34
 2186 0168 00       		.byte	0
 2187 0169 03       		.uleb128 0x3
 2188 016a 0E       		.uleb128 0xe
 2189 016b 3A       		.uleb128 0x3a
 2190 016c 0B       		.uleb128 0xb
 2191 016d 3B       		.uleb128 0x3b
 2192 016e 0B       		.uleb128 0xb
 2193 016f 49       		.uleb128 0x49
 2194 0170 13       		.uleb128 0x13
 2195 0171 00       		.byte	0
 2196 0172 00       		.byte	0
 2197 0173 1C       		.uleb128 0x1c
 2198 0174 2E       		.uleb128 0x2e
 2199 0175 00       		.byte	0
 2200 0176 3F       		.uleb128 0x3f
 2201 0177 0C       		.uleb128 0xc
 2202 0178 3C       		.uleb128 0x3c
 2203 0179 0C       		.uleb128 0xc
 2204 017a 8740     		.uleb128 0x2007
 2205 017c 0E       		.uleb128 0xe
 2206 017d 03       		.uleb128 0x3
 2207 017e 0E       		.uleb128 0xe
 2208 017f 3A       		.uleb128 0x3a
 2209 0180 0B       		.uleb128 0xb
 2210 0181 3B       		.uleb128 0x3b
 2211 0182 05       		.uleb128 0x5
 2212 0183 00       		.byte	0
 2213 0184 00       		.byte	0
 2214 0185 00       		.byte	0
 2215              		.section	.debug_loc,"",%progbits
 2216              	.Ldebug_loc0:
 2217              	.LLST0:
 2218 0000 00000000 		.4byte	.LFB30-.Ltext0
 2219 0004 04000000 		.4byte	.LCFI0-.Ltext0
 2220 0008 0200     		.2byte	0x2
 2221 000a 7D       		.byte	0x7d
 2222 000b 00       		.sleb128 0
 2223 000c 04000000 		.4byte	.LCFI0-.Ltext0
 2224 0010 0A000000 		.4byte	.LCFI1-.Ltext0
 2225 0014 0200     		.2byte	0x2
 2226 0016 7D       		.byte	0x7d
 2227 0017 24       		.sleb128 36
 2228 0018 0A000000 		.4byte	.LCFI1-.Ltext0
 2229 001c D0020000 		.4byte	.LCFI2-.Ltext0
 2230 0020 0300     		.2byte	0x3
 2231 0022 7D       		.byte	0x7d
ARM GAS  G:\Users\Jaxb\AppData\Local\Temp\ccbTvrRb.s 			page 48


 2232 0023 8001     		.sleb128 128
 2233 0025 D0020000 		.4byte	.LCFI2-.Ltext0
 2234 0029 E4020000 		.4byte	.LFE30-.Ltext0
 2235 002d 0200     		.2byte	0x2
 2236 002f 7D       		.byte	0x7d
 2237 0030 24       		.sleb128 36
 2238 0031 00000000 		.4byte	0
 2239 0035 00000000 		.4byte	0
 2240              		.section	.debug_aranges,"",%progbits
 2241 0000 1C000000 		.4byte	0x1c
 2242 0004 0200     		.2byte	0x2
 2243 0006 00000000 		.4byte	.Ldebug_info0
 2244 000a 04       		.byte	0x4
 2245 000b 00       		.byte	0
 2246 000c 0000     		.2byte	0
 2247 000e 0000     		.2byte	0
 2248 0010 00000000 		.4byte	.Ltext0
 2249 0014 E4020000 		.4byte	.Letext0-.Ltext0
 2250 0018 00000000 		.4byte	0
 2251 001c 00000000 		.4byte	0
 2252              		.section	.debug_ranges,"",%progbits
 2253              	.Ldebug_ranges0:
 2254 0000 04000000 		.4byte	.LBB4-.Ltext0
 2255 0004 08000000 		.4byte	.LBE4-.Ltext0
 2256 0008 0A000000 		.4byte	.LBB7-.Ltext0
 2257 000c 7A020000 		.4byte	.LBE7-.Ltext0
 2258 0010 00000000 		.4byte	0
 2259 0014 00000000 		.4byte	0
 2260              		.section	.debug_line,"",%progbits
 2261              	.Ldebug_line0:
 2262 0000 49020000 		.section	.debug_str,"MS",%progbits,1
 2262      02005501 
 2262      00000201 
 2262      FB0E0D00 
 2262      01010101 
 2263              	.LASF19:
 2264 0000 4750494F 		.ascii	"GPIO_TypeDef\000"
 2264      5F547970 
 2264      65446566 
 2264      00
 2265              	.LASF72:
 2266 000d 5352414D 		.ascii	"SRAM_GPIO_Config\000"
 2266      5F475049 
 2266      4F5F436F 
 2266      6E666967 
 2266      00
 2267              	.LASF33:
 2268 001e 4750494F 		.ascii	"GPIO_Pin\000"
 2268      5F50696E 
 2268      00
 2269              	.LASF53:
 2270 0027 46534D43 		.ascii	"FSMC_WaitSignalActive\000"
 2270      5F576169 
 2270      74536967 
 2270      6E616C41 
 2270      63746976 
 2271              	.LASF2:
ARM GAS  G:\Users\Jaxb\AppData\Local\Temp\ccbTvrRb.s 			page 49


 2272 003d 73686F72 		.ascii	"short int\000"
 2272      7420696E 
 2272      7400
 2273              	.LASF52:
 2274 0047 46534D43 		.ascii	"FSMC_WrapMode\000"
 2274      5F577261 
 2274      704D6F64 
 2274      6500
 2275              	.LASF40:
 2276 0055 46534D43 		.ascii	"FSMC_BusTurnAroundDuration\000"
 2276      5F427573 
 2276      5475726E 
 2276      41726F75 
 2276      6E644475 
 2277              	.LASF50:
 2278 0070 46534D43 		.ascii	"FSMC_AsynchronousWait\000"
 2278      5F417379 
 2278      6E636872 
 2278      6F6E6F75 
 2278      73576169 
 2279              	.LASF6:
 2280 0086 5F5F7569 		.ascii	"__uint32_t\000"
 2280      6E743332 
 2280      5F7400
 2281              	.LASF5:
 2282 0091 5F5F7569 		.ascii	"__uint16_t\000"
 2282      6E743136 
 2282      5F7400
 2283              	.LASF47:
 2284 009c 46534D43 		.ascii	"FSMC_MemoryType\000"
 2284      5F4D656D 
 2284      6F727954 
 2284      79706500 
 2285              	.LASF69:
 2286 00ac 2E2E2F2E 		.ascii	"../../source/src/kernel/OS_CPU/bsp/sram.c\000"
 2286      2E2F736F 
 2286      75726365 
 2286      2F737263 
 2286      2F6B6572 
 2287              	.LASF65:
 2288 00d6 5243435F 		.ascii	"RCC_AHBPeriphClockCmd\000"
 2288      41484250 
 2288      65726970 
 2288      68436C6F 
 2288      636B436D 
 2289              	.LASF37:
 2290 00ec 46534D43 		.ascii	"FSMC_AddressSetupTime\000"
 2290      5F416464 
 2290      72657373 
 2290      53657475 
 2290      7054696D 
 2291              	.LASF34:
 2292 0102 4750494F 		.ascii	"GPIO_Speed\000"
 2292      5F537065 
 2292      656400
 2293              	.LASF64:
 2294 010d 4750494F 		.ascii	"GPIO_Init\000"
ARM GAS  G:\Users\Jaxb\AppData\Local\Temp\ccbTvrRb.s 			page 50


 2294      5F496E69 
 2294      7400
 2295              	.LASF49:
 2296 0117 46534D43 		.ascii	"FSMC_BurstAccessMode\000"
 2296      5F427572 
 2296      73744163 
 2296      63657373 
 2296      4D6F6465 
 2297              	.LASF71:
 2298 012c 46534D43 		.ascii	"FSMC_SRAM_Init\000"
 2298      5F535241 
 2298      4D5F496E 
 2298      697400
 2299              	.LASF15:
 2300 013b 44495341 		.ascii	"DISABLE\000"
 2300      424C4500 
 2301              	.LASF0:
 2302 0143 7369676E 		.ascii	"signed char\000"
 2302      65642063 
 2302      68617200 
 2303              	.LASF31:
 2304 014f 4750494F 		.ascii	"GPIO_Mode_AF_PP\000"
 2304      5F4D6F64 
 2304      655F4146 
 2304      5F505000 
 2305              	.LASF70:
 2306 015f 463A5C6B 		.ascii	"F:\\kaka\\KAKAOS\\C\\windows\\Project\\RVMDK\243\250"
 2306      616B615C 
 2306      4B414B41 
 2306      4F535C43 
 2306      5C77696E 
 2307 0187 757635A3 		.ascii	"uv5\243\251\000"
 2307      A900
 2308              	.LASF8:
 2309 018d 6C6F6E67 		.ascii	"long long int\000"
 2309      206C6F6E 
 2309      6720696E 
 2309      7400
 2310              	.LASF16:
 2311 019b 454E4142 		.ascii	"ENABLE\000"
 2311      4C4500
 2312              	.LASF48:
 2313 01a2 46534D43 		.ascii	"FSMC_MemoryDataWidth\000"
 2313      5F4D656D 
 2313      6F727944 
 2313      61746157 
 2313      69647468 
 2314              	.LASF4:
 2315 01b7 6C6F6E67 		.ascii	"long int\000"
 2315      20696E74 
 2315      00
 2316              	.LASF62:
 2317 01c0 72656164 		.ascii	"readWriteTiming\000"
 2317      57726974 
 2317      6554696D 
 2317      696E6700 
 2318              	.LASF17:
ARM GAS  G:\Users\Jaxb\AppData\Local\Temp\ccbTvrRb.s 			page 51


 2319 01d0 42535252 		.ascii	"BSRR\000"
 2319      00
 2320              	.LASF20:
 2321 01d5 4750494F 		.ascii	"GPIO_Speed_10MHz\000"
 2321      5F537065 
 2321      65645F31 
 2321      304D487A 
 2321      00
 2322              	.LASF43:
 2323 01e6 46534D43 		.ascii	"FSMC_AccessMode\000"
 2323      5F416363 
 2323      6573734D 
 2323      6F646500 
 2324              	.LASF55:
 2325 01f6 46534D43 		.ascii	"FSMC_WaitSignal\000"
 2325      5F576169 
 2325      74536967 
 2325      6E616C00 
 2326              	.LASF1:
 2327 0206 756E7369 		.ascii	"unsigned char\000"
 2327      676E6564 
 2327      20636861 
 2327      7200
 2328              	.LASF42:
 2329 0214 46534D43 		.ascii	"FSMC_DataLatency\000"
 2329      5F446174 
 2329      614C6174 
 2329      656E6379 
 2329      00
 2330              	.LASF28:
 2331 0225 4750494F 		.ascii	"GPIO_Mode_Out_OD\000"
 2331      5F4D6F64 
 2331      655F4F75 
 2331      745F4F44 
 2331      00
 2332              	.LASF44:
 2333 0236 46534D43 		.ascii	"FSMC_NORSRAMTimingInitTypeDef\000"
 2333      5F4E4F52 
 2333      5352414D 
 2333      54696D69 
 2333      6E67496E 
 2334              	.LASF21:
 2335 0254 4750494F 		.ascii	"GPIO_Speed_2MHz\000"
 2335      5F537065 
 2335      65645F32 
 2335      4D487A00 
 2336              	.LASF57:
 2337 0264 46534D43 		.ascii	"FSMC_WriteBurst\000"
 2337      5F577269 
 2337      74654275 
 2337      72737400 
 2338              	.LASF9:
 2339 0274 6C6F6E67 		.ascii	"long long unsigned int\000"
 2339      206C6F6E 
 2339      6720756E 
 2339      7369676E 
 2339      65642069 
ARM GAS  G:\Users\Jaxb\AppData\Local\Temp\ccbTvrRb.s 			page 52


 2340              	.LASF12:
 2341 028b 75696E74 		.ascii	"uint32_t\000"
 2341      33325F74 
 2341      00
 2342              	.LASF36:
 2343 0294 4750494F 		.ascii	"GPIO_InitTypeDef\000"
 2343      5F496E69 
 2343      74547970 
 2343      65446566 
 2343      00
 2344              	.LASF56:
 2345 02a5 46534D43 		.ascii	"FSMC_ExtendedMode\000"
 2345      5F457874 
 2345      656E6465 
 2345      644D6F64 
 2345      6500
 2346              	.LASF10:
 2347 02b7 756E7369 		.ascii	"unsigned int\000"
 2347      676E6564 
 2347      20696E74 
 2347      00
 2348              	.LASF54:
 2349 02c4 46534D43 		.ascii	"FSMC_WriteOperation\000"
 2349      5F577269 
 2349      74654F70 
 2349      65726174 
 2349      696F6E00 
 2350              	.LASF7:
 2351 02d8 6C6F6E67 		.ascii	"long unsigned int\000"
 2351      20756E73 
 2351      69676E65 
 2351      6420696E 
 2351      7400
 2352              	.LASF39:
 2353 02ea 46534D43 		.ascii	"FSMC_DataSetupTime\000"
 2353      5F446174 
 2353      61536574 
 2353      75705469 
 2353      6D6500
 2354              	.LASF58:
 2355 02fd 46534D43 		.ascii	"FSMC_ReadWriteTimingStruct\000"
 2355      5F526561 
 2355      64577269 
 2355      74655469 
 2355      6D696E67 
 2356              	.LASF3:
 2357 0318 73686F72 		.ascii	"short unsigned int\000"
 2357      7420756E 
 2357      7369676E 
 2357      65642069 
 2357      6E7400
 2358              	.LASF67:
 2359 032b 46534D43 		.ascii	"FSMC_NORSRAMCmd\000"
 2359      5F4E4F52 
 2359      5352414D 
 2359      436D6400 
 2360              	.LASF26:
ARM GAS  G:\Users\Jaxb\AppData\Local\Temp\ccbTvrRb.s 			page 53


 2361 033b 4750494F 		.ascii	"GPIO_Mode_IPD\000"
 2361      5F4D6F64 
 2361      655F4950 
 2361      4400
 2362              	.LASF11:
 2363 0349 75696E74 		.ascii	"uint16_t\000"
 2363      31365F74 
 2363      00
 2364              	.LASF60:
 2365 0352 46534D43 		.ascii	"FSMC_NORSRAMInitTypeDef\000"
 2365      5F4E4F52 
 2365      5352414D 
 2365      496E6974 
 2365      54797065 
 2366              	.LASF14:
 2367 036a 53797374 		.ascii	"SystemCoreClock\000"
 2367      656D436F 
 2367      7265436C 
 2367      6F636B00 
 2368              	.LASF27:
 2369 037a 4750494F 		.ascii	"GPIO_Mode_IPU\000"
 2369      5F4D6F64 
 2369      655F4950 
 2369      5500
 2370              	.LASF63:
 2371 0388 5243435F 		.ascii	"RCC_APB2PeriphClockCmd\000"
 2371      41504232 
 2371      50657269 
 2371      7068436C 
 2371      6F636B43 
 2372              	.LASF24:
 2373 039f 4750494F 		.ascii	"GPIO_Mode_AIN\000"
 2373      5F4D6F64 
 2373      655F4149 
 2373      4E00
 2374              	.LASF46:
 2375 03ad 46534D43 		.ascii	"FSMC_DataAddressMux\000"
 2375      5F446174 
 2375      61416464 
 2375      72657373 
 2375      4D757800 
 2376              	.LASF35:
 2377 03c1 4750494F 		.ascii	"GPIO_Mode\000"
 2377      5F4D6F64 
 2377      6500
 2378              	.LASF23:
 2379 03cb 4750494F 		.ascii	"GPIOSpeed_TypeDef\000"
 2379      53706565 
 2379      645F5479 
 2379      70654465 
 2379      6600
 2380              	.LASF59:
 2381 03dd 46534D43 		.ascii	"FSMC_WriteTimingStruct\000"
 2381      5F577269 
 2381      74655469 
 2381      6D696E67 
 2381      53747275 
ARM GAS  G:\Users\Jaxb\AppData\Local\Temp\ccbTvrRb.s 			page 54


 2382              	.LASF41:
 2383 03f4 46534D43 		.ascii	"FSMC_CLKDivision\000"
 2383      5F434C4B 
 2383      44697669 
 2383      73696F6E 
 2383      00
 2384              	.LASF73:
 2385 0405 4750494F 		.ascii	"GPIO_InitStructure\000"
 2385      5F496E69 
 2385      74537472 
 2385      75637475 
 2385      726500
 2386              	.LASF22:
 2387 0418 4750494F 		.ascii	"GPIO_Speed_50MHz\000"
 2387      5F537065 
 2387      65645F35 
 2387      304D487A 
 2387      00
 2388              	.LASF38:
 2389 0429 46534D43 		.ascii	"FSMC_AddressHoldTime\000"
 2389      5F416464 
 2389      72657373 
 2389      486F6C64 
 2389      54696D65 
 2390              	.LASF61:
 2391 043e 46534D43 		.ascii	"FSMC_NORSRAMInitStructure\000"
 2391      5F4E4F52 
 2391      5352414D 
 2391      496E6974 
 2391      53747275 
 2392              	.LASF66:
 2393 0458 46534D43 		.ascii	"FSMC_NORSRAMInit\000"
 2393      5F4E4F52 
 2393      5352414D 
 2393      496E6974 
 2393      00
 2394              	.LASF32:
 2395 0469 4750494F 		.ascii	"GPIOMode_TypeDef\000"
 2395      4D6F6465 
 2395      5F547970 
 2395      65446566 
 2395      00
 2396              	.LASF29:
 2397 047a 4750494F 		.ascii	"GPIO_Mode_Out_PP\000"
 2397      5F4D6F64 
 2397      655F4F75 
 2397      745F5050 
 2397      00
 2398              	.LASF68:
 2399 048b 474E5520 		.ascii	"GNU C11 7.3.1 20180622 (release) [ARM/embedded-7-br"
 2399      43313120 
 2399      372E332E 
 2399      31203230 
 2399      31383036 
 2400 04be 616E6368 		.ascii	"anch revision 261907] -mcpu=cortex-m3 -mthumb -mapc"
 2400      20726576 
 2400      6973696F 
ARM GAS  G:\Users\Jaxb\AppData\Local\Temp\ccbTvrRb.s 			page 55


 2400      6E203236 
 2400      31393037 
 2401 04f1 732D6672 		.ascii	"s-frame -mthumb-interwork -mcpu=cortex-m3 -mthumb -"
 2401      616D6520 
 2401      2D6D7468 
 2401      756D622D 
 2401      696E7465 
 2402 0524 67647761 		.ascii	"gdwarf-2 -O2\000"
 2402      72662D32 
 2402      202D4F32 
 2402      00
 2403              	.LASF25:
 2404 0531 4750494F 		.ascii	"GPIO_Mode_IN_FLOATING\000"
 2404      5F4D6F64 
 2404      655F494E 
 2404      5F464C4F 
 2404      4154494E 
 2405              	.LASF13:
 2406 0547 49544D5F 		.ascii	"ITM_RxBuffer\000"
 2406      52784275 
 2406      66666572 
 2406      00
 2407              	.LASF18:
 2408 0554 4C434B52 		.ascii	"LCKR\000"
 2408      00
 2409              	.LASF45:
 2410 0559 46534D43 		.ascii	"FSMC_Bank\000"
 2410      5F42616E 
 2410      6B00
 2411              	.LASF51:
 2412 0563 46534D43 		.ascii	"FSMC_WaitSignalPolarity\000"
 2412      5F576169 
 2412      74536967 
 2412      6E616C50 
 2412      6F6C6172 
 2413              	.LASF30:
 2414 057b 4750494F 		.ascii	"GPIO_Mode_AF_OD\000"
 2414      5F4D6F64 
 2414      655F4146 
 2414      5F4F4400 
 2415              		.ident	"GCC: (GNU Tools for Arm Embedded Processors 7-2018-q2-update) 7.3.1 20180622 (release) [AR
ARM GAS  G:\Users\Jaxb\AppData\Local\Temp\ccbTvrRb.s 			page 56


DEFINED SYMBOLS
                            *ABS*:00000000 sram.c
G:\Users\Jaxb\AppData\Local\Temp\ccbTvrRb.s:15     .text:00000000 $t
G:\Users\Jaxb\AppData\Local\Temp\ccbTvrRb.s:23     .text:00000000 FSMC_SRAM_Init
G:\Users\Jaxb\AppData\Local\Temp\ccbTvrRb.s:515    .text:000002d4 $d

UNDEFINED SYMBOLS
RCC_APB2PeriphClockCmd
GPIO_Init
RCC_AHBPeriphClockCmd
FSMC_NORSRAMInit
FSMC_NORSRAMCmd
