ARM GAS  G:\Users\Jaxb\AppData\Local\Temp\ccY8QPD8.s 			page 1


   1              		.cpu cortex-m3
   2              		.eabi_attribute 20, 1
   3              		.eabi_attribute 21, 1
   4              		.eabi_attribute 23, 3
   5              		.eabi_attribute 24, 1
   6              		.eabi_attribute 25, 1
   7              		.eabi_attribute 26, 1
   8              		.eabi_attribute 30, 6
   9              		.eabi_attribute 34, 1
  10              		.eabi_attribute 18, 4
  11              		.file	"sram.c"
  12              		.text
  13              	.Ltext0:
  14              		.cfi_sections	.debug_frame
  15              		.align	1
  16              		.syntax unified
  17              		.thumb
  18              		.thumb_func
  19              		.fpu softvfp
  20              		.type	SRAM_GPIO_Config, %function
  21              	SRAM_GPIO_Config:
  22              	.LFB29:
  23              		.file 1 "../../source/src/kernel/OS_CPU/bsp/sram.c"
   1:../../source/src/kernel/OS_CPU/bsp/sram.c **** /**
   2:../../source/src/kernel/OS_CPU/bsp/sram.c ****   ******************************************************************************
   3:../../source/src/kernel/OS_CPU/bsp/sram.c ****   * @file    sram.c
   4:../../source/src/kernel/OS_CPU/bsp/sram.c ****   * @author  fire
   5:../../source/src/kernel/OS_CPU/bsp/sram.c ****   * @version V1.0
   6:../../source/src/kernel/OS_CPU/bsp/sram.c ****   * @date    2015-xx-xx
   7:../../source/src/kernel/OS_CPU/bsp/sram.c ****   * @brief   sram应用函数接口
   8:../../source/src/kernel/OS_CPU/bsp/sram.c ****   ******************************************************************************
   9:../../source/src/kernel/OS_CPU/bsp/sram.c ****   * @attention
  10:../../source/src/kernel/OS_CPU/bsp/sram.c ****   *
  11:../../source/src/kernel/OS_CPU/bsp/sram.c ****   * 实验平台:秉火 F103-霸道 STM32  开发板  
  12:../../source/src/kernel/OS_CPU/bsp/sram.c ****   * 论坛    :http://www.firebbs.cn
  13:../../source/src/kernel/OS_CPU/bsp/sram.c ****   * 淘宝    :https://fire-stm32.taobao.com
  14:../../source/src/kernel/OS_CPU/bsp/sram.c ****   *
  15:../../source/src/kernel/OS_CPU/bsp/sram.c ****   ******************************************************************************
  16:../../source/src/kernel/OS_CPU/bsp/sram.c ****   */
  17:../../source/src/kernel/OS_CPU/bsp/sram.c **** 
  18:../../source/src/kernel/OS_CPU/bsp/sram.c **** 
  19:../../source/src/kernel/OS_CPU/bsp/sram.c **** 
  20:../../source/src/kernel/OS_CPU/bsp/sram.c **** #include "sram.h"	  
  21:../../source/src/kernel/OS_CPU/bsp/sram.c **** #include "stm32f10x_fsmc.h"
  22:../../source/src/kernel/OS_CPU/bsp/sram.c **** 
  23:../../source/src/kernel/OS_CPU/bsp/sram.c **** 
  24:../../source/src/kernel/OS_CPU/bsp/sram.c **** /**
  25:../../source/src/kernel/OS_CPU/bsp/sram.c ****   * @brief  初始化控制SRAM的IO
  26:../../source/src/kernel/OS_CPU/bsp/sram.c ****   * @param  无
  27:../../source/src/kernel/OS_CPU/bsp/sram.c ****   * @retval 无
  28:../../source/src/kernel/OS_CPU/bsp/sram.c ****   */
  29:../../source/src/kernel/OS_CPU/bsp/sram.c **** static void SRAM_GPIO_Config(void)
  30:../../source/src/kernel/OS_CPU/bsp/sram.c **** {
  24              		.loc 1 30 0
  25              		.cfi_startproc
  26              		@ args = 0, pretend = 0, frame = 8
  27              		@ frame_needed = 1, uses_anonymous_args = 0
ARM GAS  G:\Users\Jaxb\AppData\Local\Temp\ccY8QPD8.s 			page 2


  28 0000 80B5     		push	{r7, lr}
  29              	.LCFI0:
  30              		.cfi_def_cfa_offset 8
  31              		.cfi_offset 7, -8
  32              		.cfi_offset 14, -4
  33 0002 82B0     		sub	sp, sp, #8
  34              	.LCFI1:
  35              		.cfi_def_cfa_offset 16
  36 0004 00AF     		add	r7, sp, #0
  37              	.LCFI2:
  38              		.cfi_def_cfa_register 7
  31:../../source/src/kernel/OS_CPU/bsp/sram.c **** 	GPIO_InitTypeDef  GPIO_InitStructure;
  32:../../source/src/kernel/OS_CPU/bsp/sram.c ****  
  33:../../source/src/kernel/OS_CPU/bsp/sram.c ****   /* 使能SRAM相关的GPIO时钟 */
  34:../../source/src/kernel/OS_CPU/bsp/sram.c **** 
  35:../../source/src/kernel/OS_CPU/bsp/sram.c ****                          /*地址信号线*/
  36:../../source/src/kernel/OS_CPU/bsp/sram.c ****   RCC_APB2PeriphClockCmd(FSMC_A0_GPIO_CLK | FSMC_A1_GPIO_CLK | FSMC_A2_GPIO_CLK | 
  39              		.loc 1 36 0
  40 0006 0121     		movs	r1, #1
  41 0008 4FF4F070 		mov	r0, #480
  42 000c FFF7FEFF 		bl	RCC_APB2PeriphClockCmd
  37:../../source/src/kernel/OS_CPU/bsp/sram.c ****                          FSMC_A3_GPIO_CLK | FSMC_A4_GPIO_CLK | FSMC_A5_GPIO_CLK |
  38:../../source/src/kernel/OS_CPU/bsp/sram.c ****                          FSMC_A6_GPIO_CLK | FSMC_A7_GPIO_CLK | FSMC_A8_GPIO_CLK |
  39:../../source/src/kernel/OS_CPU/bsp/sram.c ****                          FSMC_A9_GPIO_CLK | FSMC_A10_GPIO_CLK| FSMC_A11_GPIO_CLK| 
  40:../../source/src/kernel/OS_CPU/bsp/sram.c **** 												 FSMC_A12_GPIO_CLK| FSMC_A13_GPIO_CLK|FSMC_A14_GPIO_CLK|
  41:../../source/src/kernel/OS_CPU/bsp/sram.c **** 												 FSMC_A15_GPIO_CLK|FSMC_A16_GPIO_CLK|FSMC_A17_GPIO_CLK|FSMC_A18_GPIO_CLK|
  42:../../source/src/kernel/OS_CPU/bsp/sram.c ****                          /*数据信号线*/
  43:../../source/src/kernel/OS_CPU/bsp/sram.c ****                          FSMC_D0_GPIO_CLK | FSMC_D1_GPIO_CLK | FSMC_D2_GPIO_CLK | 
  44:../../source/src/kernel/OS_CPU/bsp/sram.c ****                          FSMC_D3_GPIO_CLK | FSMC_D4_GPIO_CLK | FSMC_D5_GPIO_CLK |
  45:../../source/src/kernel/OS_CPU/bsp/sram.c ****                          FSMC_D6_GPIO_CLK | FSMC_D7_GPIO_CLK | FSMC_D8_GPIO_CLK |
  46:../../source/src/kernel/OS_CPU/bsp/sram.c ****                          FSMC_D9_GPIO_CLK | FSMC_D10_GPIO_CLK| FSMC_D11_GPIO_CLK|
  47:../../source/src/kernel/OS_CPU/bsp/sram.c ****                          FSMC_D12_GPIO_CLK| FSMC_D13_GPIO_CLK| FSMC_D14_GPIO_CLK|
  48:../../source/src/kernel/OS_CPU/bsp/sram.c ****                          FSMC_D15_GPIO_CLK|  
  49:../../source/src/kernel/OS_CPU/bsp/sram.c ****                          /*控制信号线*/
  50:../../source/src/kernel/OS_CPU/bsp/sram.c ****                          FSMC_CS_GPIO_CLK  | FSMC_WE_GPIO_CLK | FSMC_OE_GPIO_CLK |
  51:../../source/src/kernel/OS_CPU/bsp/sram.c ****                          FSMC_UDQM_GPIO_CLK|FSMC_LDQM_GPIO_CLK, ENABLE);
  52:../../source/src/kernel/OS_CPU/bsp/sram.c **** 												 
  53:../../source/src/kernel/OS_CPU/bsp/sram.c **** 
  54:../../source/src/kernel/OS_CPU/bsp/sram.c **** 
  55:../../source/src/kernel/OS_CPU/bsp/sram.c **** 	 /*-- GPIO 配置 -----------------------------------------------------*/
  56:../../source/src/kernel/OS_CPU/bsp/sram.c **** 
  57:../../source/src/kernel/OS_CPU/bsp/sram.c ****   /* 通用 GPIO 配置 */
  58:../../source/src/kernel/OS_CPU/bsp/sram.c ****   GPIO_InitStructure.GPIO_Mode  = GPIO_Mode_AF_PP;       //配置为复用功能
  43              		.loc 1 58 0
  44 0010 1823     		movs	r3, #24
  45 0012 FB71     		strb	r3, [r7, #7]
  59:../../source/src/kernel/OS_CPU/bsp/sram.c ****   GPIO_InitStructure.GPIO_Speed = GPIO_Speed_50MHz;     
  46              		.loc 1 59 0
  47 0014 0323     		movs	r3, #3
  48 0016 BB71     		strb	r3, [r7, #6]
  60:../../source/src/kernel/OS_CPU/bsp/sram.c ****   
  61:../../source/src/kernel/OS_CPU/bsp/sram.c ****   /*A地址信号线 针对引脚配置*/
  62:../../source/src/kernel/OS_CPU/bsp/sram.c ****   GPIO_InitStructure.GPIO_Pin = FSMC_A0_GPIO_PIN; 
  49              		.loc 1 62 0
  50 0018 0123     		movs	r3, #1
  51 001a BB80     		strh	r3, [r7, #4]	@ movhi
  63:../../source/src/kernel/OS_CPU/bsp/sram.c ****   GPIO_Init(FSMC_A0_GPIO_PORT, &GPIO_InitStructure);
ARM GAS  G:\Users\Jaxb\AppData\Local\Temp\ccY8QPD8.s 			page 3


  52              		.loc 1 63 0
  53 001c 3B1D     		adds	r3, r7, #4
  54 001e 1946     		mov	r1, r3
  55 0020 9648     		ldr	r0, .L2
  56 0022 FFF7FEFF 		bl	GPIO_Init
  64:../../source/src/kernel/OS_CPU/bsp/sram.c ****   
  65:../../source/src/kernel/OS_CPU/bsp/sram.c ****   GPIO_InitStructure.GPIO_Pin = FSMC_A1_GPIO_PIN; 
  57              		.loc 1 65 0
  58 0026 0223     		movs	r3, #2
  59 0028 BB80     		strh	r3, [r7, #4]	@ movhi
  66:../../source/src/kernel/OS_CPU/bsp/sram.c ****   GPIO_Init(FSMC_A1_GPIO_PORT, &GPIO_InitStructure);
  60              		.loc 1 66 0
  61 002a 3B1D     		adds	r3, r7, #4
  62 002c 1946     		mov	r1, r3
  63 002e 9348     		ldr	r0, .L2
  64 0030 FFF7FEFF 		bl	GPIO_Init
  67:../../source/src/kernel/OS_CPU/bsp/sram.c ****   
  68:../../source/src/kernel/OS_CPU/bsp/sram.c ****   GPIO_InitStructure.GPIO_Pin = FSMC_A2_GPIO_PIN; 
  65              		.loc 1 68 0
  66 0034 0423     		movs	r3, #4
  67 0036 BB80     		strh	r3, [r7, #4]	@ movhi
  69:../../source/src/kernel/OS_CPU/bsp/sram.c ****   GPIO_Init(FSMC_A2_GPIO_PORT, &GPIO_InitStructure);
  68              		.loc 1 69 0
  69 0038 3B1D     		adds	r3, r7, #4
  70 003a 1946     		mov	r1, r3
  71 003c 8F48     		ldr	r0, .L2
  72 003e FFF7FEFF 		bl	GPIO_Init
  70:../../source/src/kernel/OS_CPU/bsp/sram.c ****   
  71:../../source/src/kernel/OS_CPU/bsp/sram.c ****   GPIO_InitStructure.GPIO_Pin = FSMC_A3_GPIO_PIN; 
  73              		.loc 1 71 0
  74 0042 0823     		movs	r3, #8
  75 0044 BB80     		strh	r3, [r7, #4]	@ movhi
  72:../../source/src/kernel/OS_CPU/bsp/sram.c ****   GPIO_Init(FSMC_A3_GPIO_PORT, &GPIO_InitStructure);
  76              		.loc 1 72 0
  77 0046 3B1D     		adds	r3, r7, #4
  78 0048 1946     		mov	r1, r3
  79 004a 8C48     		ldr	r0, .L2
  80 004c FFF7FEFF 		bl	GPIO_Init
  73:../../source/src/kernel/OS_CPU/bsp/sram.c ****   
  74:../../source/src/kernel/OS_CPU/bsp/sram.c ****   GPIO_InitStructure.GPIO_Pin = FSMC_A4_GPIO_PIN; 
  81              		.loc 1 74 0
  82 0050 1023     		movs	r3, #16
  83 0052 BB80     		strh	r3, [r7, #4]	@ movhi
  75:../../source/src/kernel/OS_CPU/bsp/sram.c ****   GPIO_Init(FSMC_A4_GPIO_PORT, &GPIO_InitStructure);
  84              		.loc 1 75 0
  85 0054 3B1D     		adds	r3, r7, #4
  86 0056 1946     		mov	r1, r3
  87 0058 8848     		ldr	r0, .L2
  88 005a FFF7FEFF 		bl	GPIO_Init
  76:../../source/src/kernel/OS_CPU/bsp/sram.c ****   
  77:../../source/src/kernel/OS_CPU/bsp/sram.c ****   GPIO_InitStructure.GPIO_Pin = FSMC_A5_GPIO_PIN; 
  89              		.loc 1 77 0
  90 005e 2023     		movs	r3, #32
  91 0060 BB80     		strh	r3, [r7, #4]	@ movhi
  78:../../source/src/kernel/OS_CPU/bsp/sram.c ****   GPIO_Init(FSMC_A5_GPIO_PORT, &GPIO_InitStructure);
  92              		.loc 1 78 0
  93 0062 3B1D     		adds	r3, r7, #4
ARM GAS  G:\Users\Jaxb\AppData\Local\Temp\ccY8QPD8.s 			page 4


  94 0064 1946     		mov	r1, r3
  95 0066 8548     		ldr	r0, .L2
  96 0068 FFF7FEFF 		bl	GPIO_Init
  79:../../source/src/kernel/OS_CPU/bsp/sram.c ****   
  80:../../source/src/kernel/OS_CPU/bsp/sram.c ****   GPIO_InitStructure.GPIO_Pin = FSMC_A6_GPIO_PIN; 
  97              		.loc 1 80 0
  98 006c 4FF48053 		mov	r3, #4096
  99 0070 BB80     		strh	r3, [r7, #4]	@ movhi
  81:../../source/src/kernel/OS_CPU/bsp/sram.c ****   GPIO_Init(FSMC_A6_GPIO_PORT, &GPIO_InitStructure);
 100              		.loc 1 81 0
 101 0072 3B1D     		adds	r3, r7, #4
 102 0074 1946     		mov	r1, r3
 103 0076 8148     		ldr	r0, .L2
 104 0078 FFF7FEFF 		bl	GPIO_Init
  82:../../source/src/kernel/OS_CPU/bsp/sram.c ****   
  83:../../source/src/kernel/OS_CPU/bsp/sram.c ****   GPIO_InitStructure.GPIO_Pin = FSMC_A7_GPIO_PIN; 
 105              		.loc 1 83 0
 106 007c 4FF40053 		mov	r3, #8192
 107 0080 BB80     		strh	r3, [r7, #4]	@ movhi
  84:../../source/src/kernel/OS_CPU/bsp/sram.c ****   GPIO_Init(FSMC_A7_GPIO_PORT, &GPIO_InitStructure);
 108              		.loc 1 84 0
 109 0082 3B1D     		adds	r3, r7, #4
 110 0084 1946     		mov	r1, r3
 111 0086 7D48     		ldr	r0, .L2
 112 0088 FFF7FEFF 		bl	GPIO_Init
  85:../../source/src/kernel/OS_CPU/bsp/sram.c ****   
  86:../../source/src/kernel/OS_CPU/bsp/sram.c ****   GPIO_InitStructure.GPIO_Pin = FSMC_A8_GPIO_PIN; 
 113              		.loc 1 86 0
 114 008c 4FF48043 		mov	r3, #16384
 115 0090 BB80     		strh	r3, [r7, #4]	@ movhi
  87:../../source/src/kernel/OS_CPU/bsp/sram.c ****   GPIO_Init(FSMC_A8_GPIO_PORT, &GPIO_InitStructure);
 116              		.loc 1 87 0
 117 0092 3B1D     		adds	r3, r7, #4
 118 0094 1946     		mov	r1, r3
 119 0096 7948     		ldr	r0, .L2
 120 0098 FFF7FEFF 		bl	GPIO_Init
  88:../../source/src/kernel/OS_CPU/bsp/sram.c ****   
  89:../../source/src/kernel/OS_CPU/bsp/sram.c ****   GPIO_InitStructure.GPIO_Pin = FSMC_A9_GPIO_PIN; 
 121              		.loc 1 89 0
 122 009c 4FF40043 		mov	r3, #32768
 123 00a0 BB80     		strh	r3, [r7, #4]	@ movhi
  90:../../source/src/kernel/OS_CPU/bsp/sram.c ****   GPIO_Init(FSMC_A9_GPIO_PORT, &GPIO_InitStructure);
 124              		.loc 1 90 0
 125 00a2 3B1D     		adds	r3, r7, #4
 126 00a4 1946     		mov	r1, r3
 127 00a6 7548     		ldr	r0, .L2
 128 00a8 FFF7FEFF 		bl	GPIO_Init
  91:../../source/src/kernel/OS_CPU/bsp/sram.c ****   
  92:../../source/src/kernel/OS_CPU/bsp/sram.c ****   GPIO_InitStructure.GPIO_Pin = FSMC_A10_GPIO_PIN; 
 129              		.loc 1 92 0
 130 00ac 0123     		movs	r3, #1
 131 00ae BB80     		strh	r3, [r7, #4]	@ movhi
  93:../../source/src/kernel/OS_CPU/bsp/sram.c ****   GPIO_Init(FSMC_A10_GPIO_PORT, &GPIO_InitStructure);
 132              		.loc 1 93 0
 133 00b0 3B1D     		adds	r3, r7, #4
 134 00b2 1946     		mov	r1, r3
 135 00b4 7248     		ldr	r0, .L2+4
ARM GAS  G:\Users\Jaxb\AppData\Local\Temp\ccY8QPD8.s 			page 5


 136 00b6 FFF7FEFF 		bl	GPIO_Init
  94:../../source/src/kernel/OS_CPU/bsp/sram.c ****   
  95:../../source/src/kernel/OS_CPU/bsp/sram.c ****   GPIO_InitStructure.GPIO_Pin = FSMC_A11_GPIO_PIN; 
 137              		.loc 1 95 0
 138 00ba 0223     		movs	r3, #2
 139 00bc BB80     		strh	r3, [r7, #4]	@ movhi
  96:../../source/src/kernel/OS_CPU/bsp/sram.c ****   GPIO_Init(FSMC_A11_GPIO_PORT, &GPIO_InitStructure);
 140              		.loc 1 96 0
 141 00be 3B1D     		adds	r3, r7, #4
 142 00c0 1946     		mov	r1, r3
 143 00c2 6F48     		ldr	r0, .L2+4
 144 00c4 FFF7FEFF 		bl	GPIO_Init
  97:../../source/src/kernel/OS_CPU/bsp/sram.c **** 	
  98:../../source/src/kernel/OS_CPU/bsp/sram.c **** 	GPIO_InitStructure.GPIO_Pin = FSMC_A12_GPIO_PIN; 
 145              		.loc 1 98 0
 146 00c8 0423     		movs	r3, #4
 147 00ca BB80     		strh	r3, [r7, #4]	@ movhi
  99:../../source/src/kernel/OS_CPU/bsp/sram.c ****   GPIO_Init(FSMC_A12_GPIO_PORT, &GPIO_InitStructure);
 148              		.loc 1 99 0
 149 00cc 3B1D     		adds	r3, r7, #4
 150 00ce 1946     		mov	r1, r3
 151 00d0 6B48     		ldr	r0, .L2+4
 152 00d2 FFF7FEFF 		bl	GPIO_Init
 100:../../source/src/kernel/OS_CPU/bsp/sram.c ****   
 101:../../source/src/kernel/OS_CPU/bsp/sram.c ****   GPIO_InitStructure.GPIO_Pin = FSMC_A13_GPIO_PIN; 
 153              		.loc 1 101 0
 154 00d6 0823     		movs	r3, #8
 155 00d8 BB80     		strh	r3, [r7, #4]	@ movhi
 102:../../source/src/kernel/OS_CPU/bsp/sram.c ****   GPIO_Init(FSMC_A13_GPIO_PORT, &GPIO_InitStructure);
 156              		.loc 1 102 0
 157 00da 3B1D     		adds	r3, r7, #4
 158 00dc 1946     		mov	r1, r3
 159 00de 6848     		ldr	r0, .L2+4
 160 00e0 FFF7FEFF 		bl	GPIO_Init
 103:../../source/src/kernel/OS_CPU/bsp/sram.c ****   
 104:../../source/src/kernel/OS_CPU/bsp/sram.c ****   GPIO_InitStructure.GPIO_Pin = FSMC_A14_GPIO_PIN; 
 161              		.loc 1 104 0
 162 00e4 1023     		movs	r3, #16
 163 00e6 BB80     		strh	r3, [r7, #4]	@ movhi
 105:../../source/src/kernel/OS_CPU/bsp/sram.c ****   GPIO_Init(FSMC_A14_GPIO_PORT, &GPIO_InitStructure);
 164              		.loc 1 105 0
 165 00e8 3B1D     		adds	r3, r7, #4
 166 00ea 1946     		mov	r1, r3
 167 00ec 6448     		ldr	r0, .L2+4
 168 00ee FFF7FEFF 		bl	GPIO_Init
 106:../../source/src/kernel/OS_CPU/bsp/sram.c ****   
 107:../../source/src/kernel/OS_CPU/bsp/sram.c ****   GPIO_InitStructure.GPIO_Pin = FSMC_A15_GPIO_PIN; 
 169              		.loc 1 107 0
 170 00f2 2023     		movs	r3, #32
 171 00f4 BB80     		strh	r3, [r7, #4]	@ movhi
 108:../../source/src/kernel/OS_CPU/bsp/sram.c ****   GPIO_Init(FSMC_A15_GPIO_PORT, &GPIO_InitStructure);	
 172              		.loc 1 108 0
 173 00f6 3B1D     		adds	r3, r7, #4
 174 00f8 1946     		mov	r1, r3
 175 00fa 6148     		ldr	r0, .L2+4
 176 00fc FFF7FEFF 		bl	GPIO_Init
 109:../../source/src/kernel/OS_CPU/bsp/sram.c **** 	
ARM GAS  G:\Users\Jaxb\AppData\Local\Temp\ccY8QPD8.s 			page 6


 110:../../source/src/kernel/OS_CPU/bsp/sram.c **** 	GPIO_InitStructure.GPIO_Pin = FSMC_A16_GPIO_PIN; 
 177              		.loc 1 110 0
 178 0100 4FF40063 		mov	r3, #2048
 179 0104 BB80     		strh	r3, [r7, #4]	@ movhi
 111:../../source/src/kernel/OS_CPU/bsp/sram.c ****   GPIO_Init(FSMC_A16_GPIO_PORT, &GPIO_InitStructure);
 180              		.loc 1 111 0
 181 0106 3B1D     		adds	r3, r7, #4
 182 0108 1946     		mov	r1, r3
 183 010a 5E48     		ldr	r0, .L2+8
 184 010c FFF7FEFF 		bl	GPIO_Init
 112:../../source/src/kernel/OS_CPU/bsp/sram.c ****   
 113:../../source/src/kernel/OS_CPU/bsp/sram.c ****   GPIO_InitStructure.GPIO_Pin = FSMC_A17_GPIO_PIN; 
 185              		.loc 1 113 0
 186 0110 4FF48053 		mov	r3, #4096
 187 0114 BB80     		strh	r3, [r7, #4]	@ movhi
 114:../../source/src/kernel/OS_CPU/bsp/sram.c ****   GPIO_Init(FSMC_A17_GPIO_PORT, &GPIO_InitStructure);
 188              		.loc 1 114 0
 189 0116 3B1D     		adds	r3, r7, #4
 190 0118 1946     		mov	r1, r3
 191 011a 5A48     		ldr	r0, .L2+8
 192 011c FFF7FEFF 		bl	GPIO_Init
 115:../../source/src/kernel/OS_CPU/bsp/sram.c ****   
 116:../../source/src/kernel/OS_CPU/bsp/sram.c ****   GPIO_InitStructure.GPIO_Pin = FSMC_A18_GPIO_PIN; 
 193              		.loc 1 116 0
 194 0120 4FF40053 		mov	r3, #8192
 195 0124 BB80     		strh	r3, [r7, #4]	@ movhi
 117:../../source/src/kernel/OS_CPU/bsp/sram.c ****   GPIO_Init(FSMC_A18_GPIO_PORT, &GPIO_InitStructure);
 196              		.loc 1 117 0
 197 0126 3B1D     		adds	r3, r7, #4
 198 0128 1946     		mov	r1, r3
 199 012a 5648     		ldr	r0, .L2+8
 200 012c FFF7FEFF 		bl	GPIO_Init
 118:../../source/src/kernel/OS_CPU/bsp/sram.c ****     
 119:../../source/src/kernel/OS_CPU/bsp/sram.c ****   /*DQ数据信号线 针对引脚配置*/
 120:../../source/src/kernel/OS_CPU/bsp/sram.c ****   GPIO_InitStructure.GPIO_Pin = FSMC_D0_GPIO_PIN; 
 201              		.loc 1 120 0
 202 0130 4FF48043 		mov	r3, #16384
 203 0134 BB80     		strh	r3, [r7, #4]	@ movhi
 121:../../source/src/kernel/OS_CPU/bsp/sram.c ****   GPIO_Init(FSMC_D0_GPIO_PORT, &GPIO_InitStructure);
 204              		.loc 1 121 0
 205 0136 3B1D     		adds	r3, r7, #4
 206 0138 1946     		mov	r1, r3
 207 013a 5248     		ldr	r0, .L2+8
 208 013c FFF7FEFF 		bl	GPIO_Init
 122:../../source/src/kernel/OS_CPU/bsp/sram.c ****   
 123:../../source/src/kernel/OS_CPU/bsp/sram.c ****   GPIO_InitStructure.GPIO_Pin = FSMC_D1_GPIO_PIN; 
 209              		.loc 1 123 0
 210 0140 4FF40043 		mov	r3, #32768
 211 0144 BB80     		strh	r3, [r7, #4]	@ movhi
 124:../../source/src/kernel/OS_CPU/bsp/sram.c ****   GPIO_Init(FSMC_D1_GPIO_PORT, &GPIO_InitStructure);
 212              		.loc 1 124 0
 213 0146 3B1D     		adds	r3, r7, #4
 214 0148 1946     		mov	r1, r3
 215 014a 4E48     		ldr	r0, .L2+8
 216 014c FFF7FEFF 		bl	GPIO_Init
 125:../../source/src/kernel/OS_CPU/bsp/sram.c ****     
 126:../../source/src/kernel/OS_CPU/bsp/sram.c ****   GPIO_InitStructure.GPIO_Pin = FSMC_D2_GPIO_PIN; 
ARM GAS  G:\Users\Jaxb\AppData\Local\Temp\ccY8QPD8.s 			page 7


 217              		.loc 1 126 0
 218 0150 0123     		movs	r3, #1
 219 0152 BB80     		strh	r3, [r7, #4]	@ movhi
 127:../../source/src/kernel/OS_CPU/bsp/sram.c ****   GPIO_Init(FSMC_D2_GPIO_PORT, &GPIO_InitStructure);
 220              		.loc 1 127 0
 221 0154 3B1D     		adds	r3, r7, #4
 222 0156 1946     		mov	r1, r3
 223 0158 4A48     		ldr	r0, .L2+8
 224 015a FFF7FEFF 		bl	GPIO_Init
 128:../../source/src/kernel/OS_CPU/bsp/sram.c ****   
 129:../../source/src/kernel/OS_CPU/bsp/sram.c ****   GPIO_InitStructure.GPIO_Pin = FSMC_D3_GPIO_PIN; 
 225              		.loc 1 129 0
 226 015e 0223     		movs	r3, #2
 227 0160 BB80     		strh	r3, [r7, #4]	@ movhi
 130:../../source/src/kernel/OS_CPU/bsp/sram.c ****   GPIO_Init(FSMC_D3_GPIO_PORT, &GPIO_InitStructure);
 228              		.loc 1 130 0
 229 0162 3B1D     		adds	r3, r7, #4
 230 0164 1946     		mov	r1, r3
 231 0166 4748     		ldr	r0, .L2+8
 232 0168 FFF7FEFF 		bl	GPIO_Init
 131:../../source/src/kernel/OS_CPU/bsp/sram.c ****   
 132:../../source/src/kernel/OS_CPU/bsp/sram.c ****   GPIO_InitStructure.GPIO_Pin = FSMC_D4_GPIO_PIN; 
 233              		.loc 1 132 0
 234 016c 8023     		movs	r3, #128
 235 016e BB80     		strh	r3, [r7, #4]	@ movhi
 133:../../source/src/kernel/OS_CPU/bsp/sram.c ****   GPIO_Init(FSMC_D4_GPIO_PORT, &GPIO_InitStructure);
 236              		.loc 1 133 0
 237 0170 3B1D     		adds	r3, r7, #4
 238 0172 1946     		mov	r1, r3
 239 0174 4448     		ldr	r0, .L2+12
 240 0176 FFF7FEFF 		bl	GPIO_Init
 134:../../source/src/kernel/OS_CPU/bsp/sram.c ****   
 135:../../source/src/kernel/OS_CPU/bsp/sram.c ****   GPIO_InitStructure.GPIO_Pin = FSMC_D5_GPIO_PIN; 
 241              		.loc 1 135 0
 242 017a 4FF48073 		mov	r3, #256
 243 017e BB80     		strh	r3, [r7, #4]	@ movhi
 136:../../source/src/kernel/OS_CPU/bsp/sram.c ****   GPIO_Init(FSMC_D5_GPIO_PORT, &GPIO_InitStructure);
 244              		.loc 1 136 0
 245 0180 3B1D     		adds	r3, r7, #4
 246 0182 1946     		mov	r1, r3
 247 0184 4048     		ldr	r0, .L2+12
 248 0186 FFF7FEFF 		bl	GPIO_Init
 137:../../source/src/kernel/OS_CPU/bsp/sram.c ****   
 138:../../source/src/kernel/OS_CPU/bsp/sram.c ****   GPIO_InitStructure.GPIO_Pin = FSMC_D6_GPIO_PIN; 
 249              		.loc 1 138 0
 250 018a 4FF40073 		mov	r3, #512
 251 018e BB80     		strh	r3, [r7, #4]	@ movhi
 139:../../source/src/kernel/OS_CPU/bsp/sram.c ****   GPIO_Init(FSMC_D6_GPIO_PORT, &GPIO_InitStructure);
 252              		.loc 1 139 0
 253 0190 3B1D     		adds	r3, r7, #4
 254 0192 1946     		mov	r1, r3
 255 0194 3C48     		ldr	r0, .L2+12
 256 0196 FFF7FEFF 		bl	GPIO_Init
 140:../../source/src/kernel/OS_CPU/bsp/sram.c ****   
 141:../../source/src/kernel/OS_CPU/bsp/sram.c ****   GPIO_InitStructure.GPIO_Pin = FSMC_D7_GPIO_PIN; 
 257              		.loc 1 141 0
 258 019a 4FF48063 		mov	r3, #1024
ARM GAS  G:\Users\Jaxb\AppData\Local\Temp\ccY8QPD8.s 			page 8


 259 019e BB80     		strh	r3, [r7, #4]	@ movhi
 142:../../source/src/kernel/OS_CPU/bsp/sram.c ****   GPIO_Init(FSMC_D7_GPIO_PORT, &GPIO_InitStructure);
 260              		.loc 1 142 0
 261 01a0 3B1D     		adds	r3, r7, #4
 262 01a2 1946     		mov	r1, r3
 263 01a4 3848     		ldr	r0, .L2+12
 264 01a6 FFF7FEFF 		bl	GPIO_Init
 143:../../source/src/kernel/OS_CPU/bsp/sram.c ****   
 144:../../source/src/kernel/OS_CPU/bsp/sram.c ****   GPIO_InitStructure.GPIO_Pin = FSMC_D8_GPIO_PIN; 
 265              		.loc 1 144 0
 266 01aa 4FF40063 		mov	r3, #2048
 267 01ae BB80     		strh	r3, [r7, #4]	@ movhi
 145:../../source/src/kernel/OS_CPU/bsp/sram.c ****   GPIO_Init(FSMC_D8_GPIO_PORT, &GPIO_InitStructure);
 268              		.loc 1 145 0
 269 01b0 3B1D     		adds	r3, r7, #4
 270 01b2 1946     		mov	r1, r3
 271 01b4 3448     		ldr	r0, .L2+12
 272 01b6 FFF7FEFF 		bl	GPIO_Init
 146:../../source/src/kernel/OS_CPU/bsp/sram.c ****   
 147:../../source/src/kernel/OS_CPU/bsp/sram.c ****   GPIO_InitStructure.GPIO_Pin = FSMC_D9_GPIO_PIN; 
 273              		.loc 1 147 0
 274 01ba 4FF48053 		mov	r3, #4096
 275 01be BB80     		strh	r3, [r7, #4]	@ movhi
 148:../../source/src/kernel/OS_CPU/bsp/sram.c ****   GPIO_Init(FSMC_D9_GPIO_PORT, &GPIO_InitStructure);
 276              		.loc 1 148 0
 277 01c0 3B1D     		adds	r3, r7, #4
 278 01c2 1946     		mov	r1, r3
 279 01c4 3048     		ldr	r0, .L2+12
 280 01c6 FFF7FEFF 		bl	GPIO_Init
 149:../../source/src/kernel/OS_CPU/bsp/sram.c ****   
 150:../../source/src/kernel/OS_CPU/bsp/sram.c ****   GPIO_InitStructure.GPIO_Pin = FSMC_D10_GPIO_PIN; 
 281              		.loc 1 150 0
 282 01ca 4FF40053 		mov	r3, #8192
 283 01ce BB80     		strh	r3, [r7, #4]	@ movhi
 151:../../source/src/kernel/OS_CPU/bsp/sram.c ****   GPIO_Init(FSMC_D10_GPIO_PORT, &GPIO_InitStructure);
 284              		.loc 1 151 0
 285 01d0 3B1D     		adds	r3, r7, #4
 286 01d2 1946     		mov	r1, r3
 287 01d4 2C48     		ldr	r0, .L2+12
 288 01d6 FFF7FEFF 		bl	GPIO_Init
 152:../../source/src/kernel/OS_CPU/bsp/sram.c ****   
 153:../../source/src/kernel/OS_CPU/bsp/sram.c ****   GPIO_InitStructure.GPIO_Pin = FSMC_D11_GPIO_PIN; 
 289              		.loc 1 153 0
 290 01da 4FF48043 		mov	r3, #16384
 291 01de BB80     		strh	r3, [r7, #4]	@ movhi
 154:../../source/src/kernel/OS_CPU/bsp/sram.c ****   GPIO_Init(FSMC_D11_GPIO_PORT, &GPIO_InitStructure);
 292              		.loc 1 154 0
 293 01e0 3B1D     		adds	r3, r7, #4
 294 01e2 1946     		mov	r1, r3
 295 01e4 2848     		ldr	r0, .L2+12
 296 01e6 FFF7FEFF 		bl	GPIO_Init
 155:../../source/src/kernel/OS_CPU/bsp/sram.c ****   
 156:../../source/src/kernel/OS_CPU/bsp/sram.c ****   GPIO_InitStructure.GPIO_Pin = FSMC_D12_GPIO_PIN; 
 297              		.loc 1 156 0
 298 01ea 4FF40043 		mov	r3, #32768
 299 01ee BB80     		strh	r3, [r7, #4]	@ movhi
 157:../../source/src/kernel/OS_CPU/bsp/sram.c ****   GPIO_Init(FSMC_D12_GPIO_PORT, &GPIO_InitStructure);
ARM GAS  G:\Users\Jaxb\AppData\Local\Temp\ccY8QPD8.s 			page 9


 300              		.loc 1 157 0
 301 01f0 3B1D     		adds	r3, r7, #4
 302 01f2 1946     		mov	r1, r3
 303 01f4 2448     		ldr	r0, .L2+12
 304 01f6 FFF7FEFF 		bl	GPIO_Init
 158:../../source/src/kernel/OS_CPU/bsp/sram.c ****   
 159:../../source/src/kernel/OS_CPU/bsp/sram.c ****   GPIO_InitStructure.GPIO_Pin = FSMC_D13_GPIO_PIN; 
 305              		.loc 1 159 0
 306 01fa 4FF48073 		mov	r3, #256
 307 01fe BB80     		strh	r3, [r7, #4]	@ movhi
 160:../../source/src/kernel/OS_CPU/bsp/sram.c ****   GPIO_Init(FSMC_D13_GPIO_PORT, &GPIO_InitStructure);
 308              		.loc 1 160 0
 309 0200 3B1D     		adds	r3, r7, #4
 310 0202 1946     		mov	r1, r3
 311 0204 1F48     		ldr	r0, .L2+8
 312 0206 FFF7FEFF 		bl	GPIO_Init
 161:../../source/src/kernel/OS_CPU/bsp/sram.c ****   
 162:../../source/src/kernel/OS_CPU/bsp/sram.c ****   GPIO_InitStructure.GPIO_Pin = FSMC_D14_GPIO_PIN; 
 313              		.loc 1 162 0
 314 020a 4FF40073 		mov	r3, #512
 315 020e BB80     		strh	r3, [r7, #4]	@ movhi
 163:../../source/src/kernel/OS_CPU/bsp/sram.c ****   GPIO_Init(FSMC_D14_GPIO_PORT, &GPIO_InitStructure);
 316              		.loc 1 163 0
 317 0210 3B1D     		adds	r3, r7, #4
 318 0212 1946     		mov	r1, r3
 319 0214 1B48     		ldr	r0, .L2+8
 320 0216 FFF7FEFF 		bl	GPIO_Init
 164:../../source/src/kernel/OS_CPU/bsp/sram.c ****   
 165:../../source/src/kernel/OS_CPU/bsp/sram.c ****   GPIO_InitStructure.GPIO_Pin = FSMC_D15_GPIO_PIN; 
 321              		.loc 1 165 0
 322 021a 4FF48063 		mov	r3, #1024
 323 021e BB80     		strh	r3, [r7, #4]	@ movhi
 166:../../source/src/kernel/OS_CPU/bsp/sram.c ****   GPIO_Init(FSMC_D15_GPIO_PORT, &GPIO_InitStructure);
 324              		.loc 1 166 0
 325 0220 3B1D     		adds	r3, r7, #4
 326 0222 1946     		mov	r1, r3
 327 0224 1748     		ldr	r0, .L2+8
 328 0226 FFF7FEFF 		bl	GPIO_Init
 167:../../source/src/kernel/OS_CPU/bsp/sram.c ****   
 168:../../source/src/kernel/OS_CPU/bsp/sram.c ****   /*控制信号线*/
 169:../../source/src/kernel/OS_CPU/bsp/sram.c ****   GPIO_InitStructure.GPIO_Pin = FSMC_CS_GPIO_PIN; 
 329              		.loc 1 169 0
 330 022a 4FF48063 		mov	r3, #1024
 331 022e BB80     		strh	r3, [r7, #4]	@ movhi
 170:../../source/src/kernel/OS_CPU/bsp/sram.c ****   GPIO_Init(FSMC_CS_GPIO_PORT, &GPIO_InitStructure);
 332              		.loc 1 170 0
 333 0230 3B1D     		adds	r3, r7, #4
 334 0232 1946     		mov	r1, r3
 335 0234 1248     		ldr	r0, .L2+4
 336 0236 FFF7FEFF 		bl	GPIO_Init
 171:../../source/src/kernel/OS_CPU/bsp/sram.c ****     
 172:../../source/src/kernel/OS_CPU/bsp/sram.c ****   GPIO_InitStructure.GPIO_Pin = FSMC_WE_GPIO_PIN; 
 337              		.loc 1 172 0
 338 023a 2023     		movs	r3, #32
 339 023c BB80     		strh	r3, [r7, #4]	@ movhi
 173:../../source/src/kernel/OS_CPU/bsp/sram.c ****   GPIO_Init(FSMC_WE_GPIO_PORT, &GPIO_InitStructure);
 340              		.loc 1 173 0
ARM GAS  G:\Users\Jaxb\AppData\Local\Temp\ccY8QPD8.s 			page 10


 341 023e 3B1D     		adds	r3, r7, #4
 342 0240 1946     		mov	r1, r3
 343 0242 1048     		ldr	r0, .L2+8
 344 0244 FFF7FEFF 		bl	GPIO_Init
 174:../../source/src/kernel/OS_CPU/bsp/sram.c ****   
 175:../../source/src/kernel/OS_CPU/bsp/sram.c ****   GPIO_InitStructure.GPIO_Pin = FSMC_OE_GPIO_PIN; 
 345              		.loc 1 175 0
 346 0248 1023     		movs	r3, #16
 347 024a BB80     		strh	r3, [r7, #4]	@ movhi
 176:../../source/src/kernel/OS_CPU/bsp/sram.c ****   GPIO_Init(FSMC_OE_GPIO_PORT, &GPIO_InitStructure);    
 348              		.loc 1 176 0
 349 024c 3B1D     		adds	r3, r7, #4
 350 024e 1946     		mov	r1, r3
 351 0250 0C48     		ldr	r0, .L2+8
 352 0252 FFF7FEFF 		bl	GPIO_Init
 177:../../source/src/kernel/OS_CPU/bsp/sram.c ****   
 178:../../source/src/kernel/OS_CPU/bsp/sram.c ****   GPIO_InitStructure.GPIO_Pin = FSMC_UDQM_GPIO_PIN; 
 353              		.loc 1 178 0
 354 0256 0223     		movs	r3, #2
 355 0258 BB80     		strh	r3, [r7, #4]	@ movhi
 179:../../source/src/kernel/OS_CPU/bsp/sram.c ****   GPIO_Init(FSMC_UDQM_GPIO_PORT, &GPIO_InitStructure);
 356              		.loc 1 179 0
 357 025a 3B1D     		adds	r3, r7, #4
 358 025c 1946     		mov	r1, r3
 359 025e 0A48     		ldr	r0, .L2+12
 360 0260 FFF7FEFF 		bl	GPIO_Init
 180:../../source/src/kernel/OS_CPU/bsp/sram.c ****   
 181:../../source/src/kernel/OS_CPU/bsp/sram.c ****   GPIO_InitStructure.GPIO_Pin = FSMC_LDQM_GPIO_PIN; 
 361              		.loc 1 181 0
 362 0264 0123     		movs	r3, #1
 363 0266 BB80     		strh	r3, [r7, #4]	@ movhi
 182:../../source/src/kernel/OS_CPU/bsp/sram.c ****   GPIO_Init(FSMC_LDQM_GPIO_PORT, &GPIO_InitStructure);	
 364              		.loc 1 182 0
 365 0268 3B1D     		adds	r3, r7, #4
 366 026a 1946     		mov	r1, r3
 367 026c 0648     		ldr	r0, .L2+12
 368 026e FFF7FEFF 		bl	GPIO_Init
 183:../../source/src/kernel/OS_CPU/bsp/sram.c **** }				  			
 369              		.loc 1 183 0
 370 0272 00BF     		nop
 371 0274 0837     		adds	r7, r7, #8
 372              	.LCFI3:
 373              		.cfi_def_cfa_offset 8
 374 0276 BD46     		mov	sp, r7
 375              	.LCFI4:
 376              		.cfi_def_cfa_register 13
 377              		@ sp needed
 378 0278 80BD     		pop	{r7, pc}
 379              	.L3:
 380 027a 00BF     		.align	2
 381              	.L2:
 382 027c 001C0140 		.word	1073814528
 383 0280 00200140 		.word	1073815552
 384 0284 00140140 		.word	1073812480
 385 0288 00180140 		.word	1073813504
 386              		.cfi_endproc
 387              	.LFE29:
ARM GAS  G:\Users\Jaxb\AppData\Local\Temp\ccY8QPD8.s 			page 11


 388              		.size	SRAM_GPIO_Config, .-SRAM_GPIO_Config
 389              		.align	1
 390              		.global	FSMC_SRAM_Init
 391              		.syntax unified
 392              		.thumb
 393              		.thumb_func
 394              		.fpu softvfp
 395              		.type	FSMC_SRAM_Init, %function
 396              	FSMC_SRAM_Init:
 397              	.LFB30:
 184:../../source/src/kernel/OS_CPU/bsp/sram.c **** 
 185:../../source/src/kernel/OS_CPU/bsp/sram.c **** 
 186:../../source/src/kernel/OS_CPU/bsp/sram.c **** /**
 187:../../source/src/kernel/OS_CPU/bsp/sram.c ****   * @brief  初始化FSMC外设
 188:../../source/src/kernel/OS_CPU/bsp/sram.c ****   * @param  None. 
 189:../../source/src/kernel/OS_CPU/bsp/sram.c ****   * @retval None.
 190:../../source/src/kernel/OS_CPU/bsp/sram.c ****   */
 191:../../source/src/kernel/OS_CPU/bsp/sram.c **** void FSMC_SRAM_Init(void)
 192:../../source/src/kernel/OS_CPU/bsp/sram.c **** {	
 398              		.loc 1 192 0
 399              		.cfi_startproc
 400              		@ args = 0, pretend = 0, frame = 88
 401              		@ frame_needed = 1, uses_anonymous_args = 0
 402 028c 80B5     		push	{r7, lr}
 403              	.LCFI5:
 404              		.cfi_def_cfa_offset 8
 405              		.cfi_offset 7, -8
 406              		.cfi_offset 14, -4
 407 028e 96B0     		sub	sp, sp, #88
 408              	.LCFI6:
 409              		.cfi_def_cfa_offset 96
 410 0290 00AF     		add	r7, sp, #0
 411              	.LCFI7:
 412              		.cfi_def_cfa_register 7
 193:../../source/src/kernel/OS_CPU/bsp/sram.c **** 	FSMC_NORSRAMInitTypeDef  FSMC_NORSRAMInitStructure;
 194:../../source/src/kernel/OS_CPU/bsp/sram.c **** 	FSMC_NORSRAMTimingInitTypeDef  readWriteTiming;
 195:../../source/src/kernel/OS_CPU/bsp/sram.c **** 
 196:../../source/src/kernel/OS_CPU/bsp/sram.c **** 	/*初始化SRAM相关的GPIO*/
 197:../../source/src/kernel/OS_CPU/bsp/sram.c **** 	SRAM_GPIO_Config();
 413              		.loc 1 197 0
 414 0292 FFF7B5FE 		bl	SRAM_GPIO_Config
 198:../../source/src/kernel/OS_CPU/bsp/sram.c **** 		
 199:../../source/src/kernel/OS_CPU/bsp/sram.c **** 	/*使能FSMC外设时钟*/
 200:../../source/src/kernel/OS_CPU/bsp/sram.c **** 	RCC_AHBPeriphClockCmd(RCC_AHBPeriph_FSMC,ENABLE);
 415              		.loc 1 200 0
 416 0296 0121     		movs	r1, #1
 417 0298 4FF48070 		mov	r0, #256
 418 029c FFF7FEFF 		bl	RCC_AHBPeriphClockCmd
 201:../../source/src/kernel/OS_CPU/bsp/sram.c **** 
 202:../../source/src/kernel/OS_CPU/bsp/sram.c **** 	//地址建立时间（ADDSET）为1个HCLK 1/72M=14ns
 203:../../source/src/kernel/OS_CPU/bsp/sram.c **** 	readWriteTiming.FSMC_AddressSetupTime = 0x00;	
 419              		.loc 1 203 0
 420 02a0 0023     		movs	r3, #0
 421 02a2 3B60     		str	r3, [r7]
 204:../../source/src/kernel/OS_CPU/bsp/sram.c **** 
 205:../../source/src/kernel/OS_CPU/bsp/sram.c **** 	//地址保持时间（ADDHLD）模式A未用到
 206:../../source/src/kernel/OS_CPU/bsp/sram.c **** 	readWriteTiming.FSMC_AddressHoldTime = 0x00;	 
ARM GAS  G:\Users\Jaxb\AppData\Local\Temp\ccY8QPD8.s 			page 12


 422              		.loc 1 206 0
 423 02a4 0023     		movs	r3, #0
 424 02a6 7B60     		str	r3, [r7, #4]
 207:../../source/src/kernel/OS_CPU/bsp/sram.c **** 
 208:../../source/src/kernel/OS_CPU/bsp/sram.c **** 	//数据保持时间（DATAST）+ 1个HCLK = 3/72M=42ns(对EM的SRAM芯片)	
 209:../../source/src/kernel/OS_CPU/bsp/sram.c **** 	readWriteTiming.FSMC_DataSetupTime = 0x02;		  
 425              		.loc 1 209 0
 426 02a8 0223     		movs	r3, #2
 427 02aa BB60     		str	r3, [r7, #8]
 210:../../source/src/kernel/OS_CPU/bsp/sram.c **** 	
 211:../../source/src/kernel/OS_CPU/bsp/sram.c **** 	//设置总线转换周期，仅用于复用模式的NOR操作
 212:../../source/src/kernel/OS_CPU/bsp/sram.c **** 	readWriteTiming.FSMC_BusTurnAroundDuration = 0x00;
 428              		.loc 1 212 0
 429 02ac 0023     		movs	r3, #0
 430 02ae FB60     		str	r3, [r7, #12]
 213:../../source/src/kernel/OS_CPU/bsp/sram.c **** 	
 214:../../source/src/kernel/OS_CPU/bsp/sram.c **** 	//设置时钟分频，仅用于同步类型的存储器
 215:../../source/src/kernel/OS_CPU/bsp/sram.c **** 	readWriteTiming.FSMC_CLKDivision = 0x00;	
 431              		.loc 1 215 0
 432 02b0 0023     		movs	r3, #0
 433 02b2 3B61     		str	r3, [r7, #16]
 216:../../source/src/kernel/OS_CPU/bsp/sram.c **** 
 217:../../source/src/kernel/OS_CPU/bsp/sram.c **** 	//数据保持时间，仅用于同步型的NOR
 218:../../source/src/kernel/OS_CPU/bsp/sram.c **** 	readWriteTiming.FSMC_DataLatency = 0x00;		
 434              		.loc 1 218 0
 435 02b4 0023     		movs	r3, #0
 436 02b6 7B61     		str	r3, [r7, #20]
 219:../../source/src/kernel/OS_CPU/bsp/sram.c **** 	
 220:../../source/src/kernel/OS_CPU/bsp/sram.c **** 	//选择匹配SRAM的模式
 221:../../source/src/kernel/OS_CPU/bsp/sram.c **** 	readWriteTiming.FSMC_AccessMode = FSMC_AccessMode_A;	 
 437              		.loc 1 221 0
 438 02b8 0023     		movs	r3, #0
 439 02ba BB61     		str	r3, [r7, #24]
 222:../../source/src/kernel/OS_CPU/bsp/sram.c ****     
 223:../../source/src/kernel/OS_CPU/bsp/sram.c **** 
 224:../../source/src/kernel/OS_CPU/bsp/sram.c **** 	// 选择FSMC映射的存储区域： Bank1 sram3
 225:../../source/src/kernel/OS_CPU/bsp/sram.c **** 	FSMC_NORSRAMInitStructure.FSMC_Bank = FSMC_Bank1_NORSRAM3;
 440              		.loc 1 225 0
 441 02bc 0423     		movs	r3, #4
 442 02be FB61     		str	r3, [r7, #28]
 226:../../source/src/kernel/OS_CPU/bsp/sram.c **** 	
 227:../../source/src/kernel/OS_CPU/bsp/sram.c **** 	//设置地址总线与数据总线是否复用，仅用于NOR
 228:../../source/src/kernel/OS_CPU/bsp/sram.c **** 	FSMC_NORSRAMInitStructure.FSMC_DataAddressMux = FSMC_DataAddressMux_Disable; 
 443              		.loc 1 228 0
 444 02c0 0023     		movs	r3, #0
 445 02c2 3B62     		str	r3, [r7, #32]
 229:../../source/src/kernel/OS_CPU/bsp/sram.c **** 	
 230:../../source/src/kernel/OS_CPU/bsp/sram.c **** 	//设置要控制的存储器类型：SRAM类型
 231:../../source/src/kernel/OS_CPU/bsp/sram.c **** 	FSMC_NORSRAMInitStructure.FSMC_MemoryType =FSMC_MemoryType_SRAM;   
 446              		.loc 1 231 0
 447 02c4 0023     		movs	r3, #0
 448 02c6 7B62     		str	r3, [r7, #36]
 232:../../source/src/kernel/OS_CPU/bsp/sram.c **** 	
 233:../../source/src/kernel/OS_CPU/bsp/sram.c **** 	//存储器数据宽度：16位
 234:../../source/src/kernel/OS_CPU/bsp/sram.c **** 	FSMC_NORSRAMInitStructure.FSMC_MemoryDataWidth = FSMC_MemoryDataWidth_16b; 
 449              		.loc 1 234 0
 450 02c8 1023     		movs	r3, #16
ARM GAS  G:\Users\Jaxb\AppData\Local\Temp\ccY8QPD8.s 			page 13


 451 02ca BB62     		str	r3, [r7, #40]
 235:../../source/src/kernel/OS_CPU/bsp/sram.c **** 	
 236:../../source/src/kernel/OS_CPU/bsp/sram.c **** 	//设置是否使用突发访问模式，仅用于同步类型的存储器
 237:../../source/src/kernel/OS_CPU/bsp/sram.c **** 	FSMC_NORSRAMInitStructure.FSMC_BurstAccessMode =FSMC_BurstAccessMode_Disable;
 452              		.loc 1 237 0
 453 02cc 0023     		movs	r3, #0
 454 02ce FB62     		str	r3, [r7, #44]
 238:../../source/src/kernel/OS_CPU/bsp/sram.c **** 	
 239:../../source/src/kernel/OS_CPU/bsp/sram.c **** 	//设置是否使能等待信号，仅用于同步类型的存储器
 240:../../source/src/kernel/OS_CPU/bsp/sram.c **** 	FSMC_NORSRAMInitStructure.FSMC_AsynchronousWait=FSMC_AsynchronousWait_Disable;
 455              		.loc 1 240 0
 456 02d0 0023     		movs	r3, #0
 457 02d2 3B63     		str	r3, [r7, #48]
 241:../../source/src/kernel/OS_CPU/bsp/sram.c **** 	
 242:../../source/src/kernel/OS_CPU/bsp/sram.c **** 	//设置等待信号的有效极性，仅用于同步类型的存储器
 243:../../source/src/kernel/OS_CPU/bsp/sram.c **** 	FSMC_NORSRAMInitStructure.FSMC_WaitSignalPolarity = FSMC_WaitSignalPolarity_Low;
 458              		.loc 1 243 0
 459 02d4 0023     		movs	r3, #0
 460 02d6 7B63     		str	r3, [r7, #52]
 244:../../source/src/kernel/OS_CPU/bsp/sram.c **** 	
 245:../../source/src/kernel/OS_CPU/bsp/sram.c **** 	//设置是否支持把非对齐的突发操作，仅用于同步类型的存储器
 246:../../source/src/kernel/OS_CPU/bsp/sram.c **** 	FSMC_NORSRAMInitStructure.FSMC_WrapMode = FSMC_WrapMode_Disable; 
 461              		.loc 1 246 0
 462 02d8 0023     		movs	r3, #0
 463 02da BB63     		str	r3, [r7, #56]
 247:../../source/src/kernel/OS_CPU/bsp/sram.c **** 	
 248:../../source/src/kernel/OS_CPU/bsp/sram.c **** 	//设置等待信号插入的时间，仅用于同步类型的存储器
 249:../../source/src/kernel/OS_CPU/bsp/sram.c **** 	FSMC_NORSRAMInitStructure.FSMC_WaitSignalActive = FSMC_WaitSignalActive_BeforeWaitState;
 464              		.loc 1 249 0
 465 02dc 0023     		movs	r3, #0
 466 02de FB63     		str	r3, [r7, #60]
 250:../../source/src/kernel/OS_CPU/bsp/sram.c **** 	
 251:../../source/src/kernel/OS_CPU/bsp/sram.c **** 	//存储器写使能 
 252:../../source/src/kernel/OS_CPU/bsp/sram.c **** 	FSMC_NORSRAMInitStructure.FSMC_WriteOperation = FSMC_WriteOperation_Enable;
 467              		.loc 1 252 0
 468 02e0 4FF48053 		mov	r3, #4096
 469 02e4 3B64     		str	r3, [r7, #64]
 253:../../source/src/kernel/OS_CPU/bsp/sram.c **** 	
 254:../../source/src/kernel/OS_CPU/bsp/sram.c **** 	//不使用等待信号
 255:../../source/src/kernel/OS_CPU/bsp/sram.c **** 	FSMC_NORSRAMInitStructure.FSMC_WaitSignal = FSMC_WaitSignal_Disable;  		
 470              		.loc 1 255 0
 471 02e6 0023     		movs	r3, #0
 472 02e8 7B64     		str	r3, [r7, #68]
 256:../../source/src/kernel/OS_CPU/bsp/sram.c **** 	
 257:../../source/src/kernel/OS_CPU/bsp/sram.c **** 	// 不使用扩展模式，读写使用相同的时序
 258:../../source/src/kernel/OS_CPU/bsp/sram.c **** 	FSMC_NORSRAMInitStructure.FSMC_ExtendedMode = FSMC_ExtendedMode_Disable; 
 473              		.loc 1 258 0
 474 02ea 0023     		movs	r3, #0
 475 02ec BB64     		str	r3, [r7, #72]
 259:../../source/src/kernel/OS_CPU/bsp/sram.c **** 	
 260:../../source/src/kernel/OS_CPU/bsp/sram.c **** 	//突发写操作
 261:../../source/src/kernel/OS_CPU/bsp/sram.c **** 	FSMC_NORSRAMInitStructure.FSMC_WriteBurst = FSMC_WriteBurst_Disable;  
 476              		.loc 1 261 0
 477 02ee 0023     		movs	r3, #0
 478 02f0 FB64     		str	r3, [r7, #76]
 262:../../source/src/kernel/OS_CPU/bsp/sram.c **** 	
 263:../../source/src/kernel/OS_CPU/bsp/sram.c **** 	//读写时序配置
ARM GAS  G:\Users\Jaxb\AppData\Local\Temp\ccY8QPD8.s 			page 14


 264:../../source/src/kernel/OS_CPU/bsp/sram.c **** 	FSMC_NORSRAMInitStructure.FSMC_ReadWriteTimingStruct = &readWriteTiming;
 479              		.loc 1 264 0
 480 02f2 3B46     		mov	r3, r7
 481 02f4 3B65     		str	r3, [r7, #80]
 265:../../source/src/kernel/OS_CPU/bsp/sram.c **** 	
 266:../../source/src/kernel/OS_CPU/bsp/sram.c **** 	//读写同样时序，使用扩展模式时这个配置才有效
 267:../../source/src/kernel/OS_CPU/bsp/sram.c **** 	FSMC_NORSRAMInitStructure.FSMC_WriteTimingStruct = &readWriteTiming; 
 482              		.loc 1 267 0
 483 02f6 3B46     		mov	r3, r7
 484 02f8 7B65     		str	r3, [r7, #84]
 268:../../source/src/kernel/OS_CPU/bsp/sram.c **** 
 269:../../source/src/kernel/OS_CPU/bsp/sram.c **** 	FSMC_NORSRAMInit(&FSMC_NORSRAMInitStructure);  //初始化FSMC配置
 485              		.loc 1 269 0
 486 02fa 07F11C03 		add	r3, r7, #28
 487 02fe 1846     		mov	r0, r3
 488 0300 FFF7FEFF 		bl	FSMC_NORSRAMInit
 270:../../source/src/kernel/OS_CPU/bsp/sram.c **** 
 271:../../source/src/kernel/OS_CPU/bsp/sram.c **** 	FSMC_NORSRAMCmd(FSMC_Bank1_NORSRAM3, ENABLE);  // 使能BANK										  
 489              		.loc 1 271 0
 490 0304 0121     		movs	r1, #1
 491 0306 0420     		movs	r0, #4
 492 0308 FFF7FEFF 		bl	FSMC_NORSRAMCmd
 272:../../source/src/kernel/OS_CPU/bsp/sram.c **** 											
 273:../../source/src/kernel/OS_CPU/bsp/sram.c **** }
 493              		.loc 1 273 0
 494 030c 00BF     		nop
 495 030e 5837     		adds	r7, r7, #88
 496              	.LCFI8:
 497              		.cfi_def_cfa_offset 8
 498 0310 BD46     		mov	sp, r7
 499              	.LCFI9:
 500              		.cfi_def_cfa_register 13
 501              		@ sp needed
 502 0312 80BD     		pop	{r7, pc}
 503              		.cfi_endproc
 504              	.LFE30:
 505              		.size	FSMC_SRAM_Init, .-FSMC_SRAM_Init
 506              	.Letext0:
 507              		.file 2 "f:\\arm\\gcc2018\\arm-none-eabi\\include\\machine\\_default_types.h"
 508              		.file 3 "f:\\arm\\gcc2018\\arm-none-eabi\\include\\sys\\_stdint.h"
 509              		.file 4 "../../source/include/core_cm3.h"
 510              		.file 5 "../../source/include/system_stm32f10x.h"
 511              		.file 6 "../../source/include/stm32f10x.h"
 512              		.file 7 "../../source/src/FWlib/inc/stm32f10x_gpio.h"
 513              		.file 8 "../../source/src/FWlib/inc/stm32f10x_fsmc.h"
 514              		.section	.debug_info,"",%progbits
 515              	.Ldebug_info0:
 516 0000 C4030000 		.4byte	0x3c4
 517 0004 0200     		.2byte	0x2
 518 0006 00000000 		.4byte	.Ldebug_abbrev0
 519 000a 04       		.byte	0x4
 520 000b 01       		.uleb128 0x1
 521 000c 22040000 		.4byte	.LASF64
 522 0010 0C       		.byte	0xc
 523 0011 AC000000 		.4byte	.LASF65
 524 0015 3F010000 		.4byte	.LASF66
 525 0019 00000000 		.4byte	.Ltext0
ARM GAS  G:\Users\Jaxb\AppData\Local\Temp\ccY8QPD8.s 			page 15


 526 001d 14030000 		.4byte	.Letext0
 527 0021 00000000 		.4byte	.Ldebug_line0
 528 0025 02       		.uleb128 0x2
 529 0026 01       		.byte	0x1
 530 0027 06       		.byte	0x6
 531 0028 23010000 		.4byte	.LASF0
 532 002c 02       		.uleb128 0x2
 533 002d 01       		.byte	0x1
 534 002e 08       		.byte	0x8
 535 002f E6010000 		.4byte	.LASF1
 536 0033 02       		.uleb128 0x2
 537 0034 02       		.byte	0x2
 538 0035 05       		.byte	0x5
 539 0036 3D000000 		.4byte	.LASF2
 540 003a 03       		.uleb128 0x3
 541 003b 91000000 		.4byte	.LASF5
 542 003f 02       		.byte	0x2
 543 0040 39       		.byte	0x39
 544 0041 45000000 		.4byte	0x45
 545 0045 02       		.uleb128 0x2
 546 0046 02       		.byte	0x2
 547 0047 07       		.byte	0x7
 548 0048 F8020000 		.4byte	.LASF3
 549 004c 02       		.uleb128 0x2
 550 004d 04       		.byte	0x4
 551 004e 05       		.byte	0x5
 552 004f 97010000 		.4byte	.LASF4
 553 0053 03       		.uleb128 0x3
 554 0054 86000000 		.4byte	.LASF6
 555 0058 02       		.byte	0x2
 556 0059 4F       		.byte	0x4f
 557 005a 5E000000 		.4byte	0x5e
 558 005e 02       		.uleb128 0x2
 559 005f 04       		.byte	0x4
 560 0060 07       		.byte	0x7
 561 0061 B8020000 		.4byte	.LASF7
 562 0065 02       		.uleb128 0x2
 563 0066 08       		.byte	0x8
 564 0067 05       		.byte	0x5
 565 0068 6D010000 		.4byte	.LASF8
 566 006c 02       		.uleb128 0x2
 567 006d 08       		.byte	0x8
 568 006e 07       		.byte	0x7
 569 006f 54020000 		.4byte	.LASF9
 570 0073 04       		.uleb128 0x4
 571 0074 04       		.byte	0x4
 572 0075 05       		.byte	0x5
 573 0076 696E7400 		.ascii	"int\000"
 574 007a 05       		.uleb128 0x5
 575 007b 73000000 		.4byte	0x73
 576 007f 02       		.uleb128 0x2
 577 0080 04       		.byte	0x4
 578 0081 07       		.byte	0x7
 579 0082 97020000 		.4byte	.LASF10
 580 0086 03       		.uleb128 0x3
 581 0087 19030000 		.4byte	.LASF11
 582 008b 03       		.byte	0x3
ARM GAS  G:\Users\Jaxb\AppData\Local\Temp\ccY8QPD8.s 			page 16


 583 008c 24       		.byte	0x24
 584 008d 3A000000 		.4byte	0x3a
 585 0091 03       		.uleb128 0x3
 586 0092 6B020000 		.4byte	.LASF12
 587 0096 03       		.byte	0x3
 588 0097 30       		.byte	0x30
 589 0098 53000000 		.4byte	0x53
 590 009c 05       		.uleb128 0x5
 591 009d 91000000 		.4byte	0x91
 592 00a1 06       		.uleb128 0x6
 593 00a2 EF040000 		.4byte	.LASF13
 594 00a6 04       		.byte	0x4
 595 00a7 CE06     		.2byte	0x6ce
 596 00a9 7A000000 		.4byte	0x7a
 597 00ad 01       		.byte	0x1
 598 00ae 01       		.byte	0x1
 599 00af 07       		.uleb128 0x7
 600 00b0 3A030000 		.4byte	.LASF14
 601 00b4 05       		.byte	0x5
 602 00b5 35       		.byte	0x35
 603 00b6 91000000 		.4byte	0x91
 604 00ba 01       		.byte	0x1
 605 00bb 01       		.byte	0x1
 606 00bc 08       		.uleb128 0x8
 607 00bd 07       		.byte	0x7
 608 00be 01       		.byte	0x1
 609 00bf 2C000000 		.4byte	0x2c
 610 00c3 06       		.byte	0x6
 611 00c4 0902     		.2byte	0x209
 612 00c6 D7000000 		.4byte	0xd7
 613 00ca 09       		.uleb128 0x9
 614 00cb 1B010000 		.4byte	.LASF15
 615 00cf 00       		.byte	0
 616 00d0 09       		.uleb128 0x9
 617 00d1 7B010000 		.4byte	.LASF16
 618 00d5 01       		.byte	0x1
 619 00d6 00       		.byte	0
 620 00d7 0A       		.uleb128 0xa
 621 00d8 1C       		.byte	0x1c
 622 00d9 06       		.byte	0x6
 623 00da E903     		.2byte	0x3e9
 624 00dc 4A010000 		.4byte	0x14a
 625 00e0 0B       		.uleb128 0xb
 626 00e1 43524C00 		.ascii	"CRL\000"
 627 00e5 06       		.byte	0x6
 628 00e6 EB03     		.2byte	0x3eb
 629 00e8 9C000000 		.4byte	0x9c
 630 00ec 02       		.byte	0x2
 631 00ed 23       		.byte	0x23
 632 00ee 00       		.uleb128 0
 633 00ef 0B       		.uleb128 0xb
 634 00f0 43524800 		.ascii	"CRH\000"
 635 00f4 06       		.byte	0x6
 636 00f5 EC03     		.2byte	0x3ec
 637 00f7 9C000000 		.4byte	0x9c
 638 00fb 02       		.byte	0x2
 639 00fc 23       		.byte	0x23
ARM GAS  G:\Users\Jaxb\AppData\Local\Temp\ccY8QPD8.s 			page 17


 640 00fd 04       		.uleb128 0x4
 641 00fe 0B       		.uleb128 0xb
 642 00ff 49445200 		.ascii	"IDR\000"
 643 0103 06       		.byte	0x6
 644 0104 ED03     		.2byte	0x3ed
 645 0106 9C000000 		.4byte	0x9c
 646 010a 02       		.byte	0x2
 647 010b 23       		.byte	0x23
 648 010c 08       		.uleb128 0x8
 649 010d 0B       		.uleb128 0xb
 650 010e 4F445200 		.ascii	"ODR\000"
 651 0112 06       		.byte	0x6
 652 0113 EE03     		.2byte	0x3ee
 653 0115 9C000000 		.4byte	0x9c
 654 0119 02       		.byte	0x2
 655 011a 23       		.byte	0x23
 656 011b 0C       		.uleb128 0xc
 657 011c 0C       		.uleb128 0xc
 658 011d B0010000 		.4byte	.LASF17
 659 0121 06       		.byte	0x6
 660 0122 EF03     		.2byte	0x3ef
 661 0124 9C000000 		.4byte	0x9c
 662 0128 02       		.byte	0x2
 663 0129 23       		.byte	0x23
 664 012a 10       		.uleb128 0x10
 665 012b 0B       		.uleb128 0xb
 666 012c 42525200 		.ascii	"BRR\000"
 667 0130 06       		.byte	0x6
 668 0131 F003     		.2byte	0x3f0
 669 0133 9C000000 		.4byte	0x9c
 670 0137 02       		.byte	0x2
 671 0138 23       		.byte	0x23
 672 0139 14       		.uleb128 0x14
 673 013a 0C       		.uleb128 0xc
 674 013b FC040000 		.4byte	.LASF18
 675 013f 06       		.byte	0x6
 676 0140 F103     		.2byte	0x3f1
 677 0142 9C000000 		.4byte	0x9c
 678 0146 02       		.byte	0x2
 679 0147 23       		.byte	0x23
 680 0148 18       		.uleb128 0x18
 681 0149 00       		.byte	0
 682 014a 0D       		.uleb128 0xd
 683 014b 00000000 		.4byte	.LASF19
 684 014f 06       		.byte	0x6
 685 0150 F203     		.2byte	0x3f2
 686 0152 D7000000 		.4byte	0xd7
 687 0156 0E       		.uleb128 0xe
 688 0157 07       		.byte	0x7
 689 0158 01       		.byte	0x1
 690 0159 2C000000 		.4byte	0x2c
 691 015d 07       		.byte	0x7
 692 015e 3B       		.byte	0x3b
 693 015f 76010000 		.4byte	0x176
 694 0163 09       		.uleb128 0x9
 695 0164 B5010000 		.4byte	.LASF20
 696 0168 01       		.byte	0x1
ARM GAS  G:\Users\Jaxb\AppData\Local\Temp\ccY8QPD8.s 			page 18


 697 0169 09       		.uleb128 0x9
 698 016a 34020000 		.4byte	.LASF21
 699 016e 02       		.byte	0x2
 700 016f 09       		.uleb128 0x9
 701 0170 D1030000 		.4byte	.LASF22
 702 0174 03       		.byte	0x3
 703 0175 00       		.byte	0
 704 0176 03       		.uleb128 0x3
 705 0177 84030000 		.4byte	.LASF23
 706 017b 07       		.byte	0x7
 707 017c 3F       		.byte	0x3f
 708 017d 56010000 		.4byte	0x156
 709 0181 0E       		.uleb128 0xe
 710 0182 07       		.byte	0x7
 711 0183 01       		.byte	0x1
 712 0184 2C000000 		.4byte	0x2c
 713 0188 07       		.byte	0x7
 714 0189 48       		.byte	0x48
 715 018a BF010000 		.4byte	0x1bf
 716 018e 09       		.uleb128 0x9
 717 018f 58030000 		.4byte	.LASF24
 718 0193 00       		.byte	0
 719 0194 09       		.uleb128 0x9
 720 0195 D9040000 		.4byte	.LASF25
 721 0199 04       		.byte	0x4
 722 019a 09       		.uleb128 0x9
 723 019b 0B030000 		.4byte	.LASF26
 724 019f 28       		.byte	0x28
 725 01a0 09       		.uleb128 0x9
 726 01a1 4A030000 		.4byte	.LASF27
 727 01a5 48       		.byte	0x48
 728 01a6 09       		.uleb128 0x9
 729 01a7 05020000 		.4byte	.LASF28
 730 01ab 14       		.byte	0x14
 731 01ac 09       		.uleb128 0x9
 732 01ad C8040000 		.4byte	.LASF29
 733 01b1 10       		.byte	0x10
 734 01b2 09       		.uleb128 0x9
 735 01b3 23050000 		.4byte	.LASF30
 736 01b7 1C       		.byte	0x1c
 737 01b8 09       		.uleb128 0x9
 738 01b9 2F010000 		.4byte	.LASF31
 739 01bd 18       		.byte	0x18
 740 01be 00       		.byte	0
 741 01bf 03       		.uleb128 0x3
 742 01c0 11040000 		.4byte	.LASF32
 743 01c4 07       		.byte	0x7
 744 01c5 50       		.byte	0x50
 745 01c6 81010000 		.4byte	0x181
 746 01ca 0F       		.uleb128 0xf
 747 01cb 04       		.byte	0x4
 748 01cc 07       		.byte	0x7
 749 01cd 5B       		.byte	0x5b
 750 01ce FD010000 		.4byte	0x1fd
 751 01d2 10       		.uleb128 0x10
 752 01d3 1E000000 		.4byte	.LASF33
 753 01d7 07       		.byte	0x7
ARM GAS  G:\Users\Jaxb\AppData\Local\Temp\ccY8QPD8.s 			page 19


 754 01d8 5D       		.byte	0x5d
 755 01d9 86000000 		.4byte	0x86
 756 01dd 02       		.byte	0x2
 757 01de 23       		.byte	0x23
 758 01df 00       		.uleb128 0
 759 01e0 10       		.uleb128 0x10
 760 01e1 EC000000 		.4byte	.LASF34
 761 01e5 07       		.byte	0x7
 762 01e6 60       		.byte	0x60
 763 01e7 76010000 		.4byte	0x176
 764 01eb 02       		.byte	0x2
 765 01ec 23       		.byte	0x23
 766 01ed 02       		.uleb128 0x2
 767 01ee 10       		.uleb128 0x10
 768 01ef 7A030000 		.4byte	.LASF35
 769 01f3 07       		.byte	0x7
 770 01f4 63       		.byte	0x63
 771 01f5 BF010000 		.4byte	0x1bf
 772 01f9 02       		.byte	0x2
 773 01fa 23       		.byte	0x23
 774 01fb 03       		.uleb128 0x3
 775 01fc 00       		.byte	0
 776 01fd 03       		.uleb128 0x3
 777 01fe 74020000 		.4byte	.LASF36
 778 0202 07       		.byte	0x7
 779 0203 65       		.byte	0x65
 780 0204 CA010000 		.4byte	0x1ca
 781 0208 0F       		.uleb128 0xf
 782 0209 1C       		.byte	0x1c
 783 020a 08       		.byte	0x8
 784 020b 32       		.byte	0x32
 785 020c 73020000 		.4byte	0x273
 786 0210 10       		.uleb128 0x10
 787 0211 D6000000 		.4byte	.LASF37
 788 0215 08       		.byte	0x8
 789 0216 34       		.byte	0x34
 790 0217 91000000 		.4byte	0x91
 791 021b 02       		.byte	0x2
 792 021c 23       		.byte	0x23
 793 021d 00       		.uleb128 0
 794 021e 10       		.uleb128 0x10
 795 021f E2030000 		.4byte	.LASF38
 796 0223 08       		.byte	0x8
 797 0224 39       		.byte	0x39
 798 0225 91000000 		.4byte	0x91
 799 0229 02       		.byte	0x2
 800 022a 23       		.byte	0x23
 801 022b 04       		.uleb128 0x4
 802 022c 10       		.uleb128 0x10
 803 022d CA020000 		.4byte	.LASF39
 804 0231 08       		.byte	0x8
 805 0232 3E       		.byte	0x3e
 806 0233 91000000 		.4byte	0x91
 807 0237 02       		.byte	0x2
 808 0238 23       		.byte	0x23
 809 0239 08       		.uleb128 0x8
 810 023a 10       		.uleb128 0x10
ARM GAS  G:\Users\Jaxb\AppData\Local\Temp\ccY8QPD8.s 			page 20


 811 023b 55000000 		.4byte	.LASF40
 812 023f 08       		.byte	0x8
 813 0240 43       		.byte	0x43
 814 0241 91000000 		.4byte	0x91
 815 0245 02       		.byte	0x2
 816 0246 23       		.byte	0x23
 817 0247 0C       		.uleb128 0xc
 818 0248 10       		.uleb128 0x10
 819 0249 AD030000 		.4byte	.LASF41
 820 024d 08       		.byte	0x8
 821 024e 48       		.byte	0x48
 822 024f 91000000 		.4byte	0x91
 823 0253 02       		.byte	0x2
 824 0254 23       		.byte	0x23
 825 0255 10       		.uleb128 0x10
 826 0256 10       		.uleb128 0x10
 827 0257 F4010000 		.4byte	.LASF42
 828 025b 08       		.byte	0x8
 829 025c 4C       		.byte	0x4c
 830 025d 91000000 		.4byte	0x91
 831 0261 02       		.byte	0x2
 832 0262 23       		.byte	0x23
 833 0263 14       		.uleb128 0x14
 834 0264 10       		.uleb128 0x10
 835 0265 C6010000 		.4byte	.LASF43
 836 0269 08       		.byte	0x8
 837 026a 54       		.byte	0x54
 838 026b 91000000 		.4byte	0x91
 839 026f 02       		.byte	0x2
 840 0270 23       		.byte	0x23
 841 0271 18       		.uleb128 0x18
 842 0272 00       		.byte	0
 843 0273 03       		.uleb128 0x3
 844 0274 16020000 		.4byte	.LASF44
 845 0278 08       		.byte	0x8
 846 0279 56       		.byte	0x56
 847 027a 08020000 		.4byte	0x208
 848 027e 0F       		.uleb128 0xf
 849 027f 3C       		.byte	0x3c
 850 0280 08       		.byte	0x8
 851 0281 5C       		.byte	0x5c
 852 0282 59030000 		.4byte	0x359
 853 0286 10       		.uleb128 0x10
 854 0287 01050000 		.4byte	.LASF45
 855 028b 08       		.byte	0x8
 856 028c 5E       		.byte	0x5e
 857 028d 91000000 		.4byte	0x91
 858 0291 02       		.byte	0x2
 859 0292 23       		.byte	0x23
 860 0293 00       		.uleb128 0
 861 0294 10       		.uleb128 0x10
 862 0295 66030000 		.4byte	.LASF46
 863 0299 08       		.byte	0x8
 864 029a 61       		.byte	0x61
 865 029b 91000000 		.4byte	0x91
 866 029f 02       		.byte	0x2
 867 02a0 23       		.byte	0x23
ARM GAS  G:\Users\Jaxb\AppData\Local\Temp\ccY8QPD8.s 			page 21


 868 02a1 04       		.uleb128 0x4
 869 02a2 10       		.uleb128 0x10
 870 02a3 9C000000 		.4byte	.LASF47
 871 02a7 08       		.byte	0x8
 872 02a8 65       		.byte	0x65
 873 02a9 91000000 		.4byte	0x91
 874 02ad 02       		.byte	0x2
 875 02ae 23       		.byte	0x23
 876 02af 08       		.uleb128 0x8
 877 02b0 10       		.uleb128 0x10
 878 02b1 82010000 		.4byte	.LASF48
 879 02b5 08       		.byte	0x8
 880 02b6 69       		.byte	0x69
 881 02b7 91000000 		.4byte	0x91
 882 02bb 02       		.byte	0x2
 883 02bc 23       		.byte	0x23
 884 02bd 0C       		.uleb128 0xc
 885 02be 10       		.uleb128 0x10
 886 02bf F7000000 		.4byte	.LASF49
 887 02c3 08       		.byte	0x8
 888 02c4 6C       		.byte	0x6c
 889 02c5 91000000 		.4byte	0x91
 890 02c9 02       		.byte	0x2
 891 02ca 23       		.byte	0x23
 892 02cb 10       		.uleb128 0x10
 893 02cc 10       		.uleb128 0x10
 894 02cd 70000000 		.4byte	.LASF50
 895 02d1 08       		.byte	0x8
 896 02d2 70       		.byte	0x70
 897 02d3 91000000 		.4byte	0x91
 898 02d7 02       		.byte	0x2
 899 02d8 23       		.byte	0x23
 900 02d9 14       		.uleb128 0x14
 901 02da 10       		.uleb128 0x10
 902 02db 0B050000 		.4byte	.LASF51
 903 02df 08       		.byte	0x8
 904 02e0 74       		.byte	0x74
 905 02e1 91000000 		.4byte	0x91
 906 02e5 02       		.byte	0x2
 907 02e6 23       		.byte	0x23
 908 02e7 18       		.uleb128 0x18
 909 02e8 10       		.uleb128 0x10
 910 02e9 47000000 		.4byte	.LASF52
 911 02ed 08       		.byte	0x8
 912 02ee 78       		.byte	0x78
 913 02ef 91000000 		.4byte	0x91
 914 02f3 02       		.byte	0x2
 915 02f4 23       		.byte	0x23
 916 02f5 1C       		.uleb128 0x1c
 917 02f6 10       		.uleb128 0x10
 918 02f7 27000000 		.4byte	.LASF53
 919 02fb 08       		.byte	0x8
 920 02fc 7C       		.byte	0x7c
 921 02fd 91000000 		.4byte	0x91
 922 0301 02       		.byte	0x2
 923 0302 23       		.byte	0x23
 924 0303 20       		.uleb128 0x20
ARM GAS  G:\Users\Jaxb\AppData\Local\Temp\ccY8QPD8.s 			page 22


 925 0304 10       		.uleb128 0x10
 926 0305 A4020000 		.4byte	.LASF54
 927 0309 08       		.byte	0x8
 928 030a 81       		.byte	0x81
 929 030b 91000000 		.4byte	0x91
 930 030f 02       		.byte	0x2
 931 0310 23       		.byte	0x23
 932 0311 24       		.uleb128 0x24
 933 0312 10       		.uleb128 0x10
 934 0313 D6010000 		.4byte	.LASF55
 935 0317 08       		.byte	0x8
 936 0318 84       		.byte	0x84
 937 0319 91000000 		.4byte	0x91
 938 031d 02       		.byte	0x2
 939 031e 23       		.byte	0x23
 940 031f 28       		.uleb128 0x28
 941 0320 10       		.uleb128 0x10
 942 0321 85020000 		.4byte	.LASF56
 943 0325 08       		.byte	0x8
 944 0326 88       		.byte	0x88
 945 0327 91000000 		.4byte	0x91
 946 032b 02       		.byte	0x2
 947 032c 23       		.byte	0x23
 948 032d 2C       		.uleb128 0x2c
 949 032e 10       		.uleb128 0x10
 950 032f 44020000 		.4byte	.LASF57
 951 0333 08       		.byte	0x8
 952 0334 8B       		.byte	0x8b
 953 0335 91000000 		.4byte	0x91
 954 0339 02       		.byte	0x2
 955 033a 23       		.byte	0x23
 956 033b 30       		.uleb128 0x30
 957 033c 10       		.uleb128 0x10
 958 033d DD020000 		.4byte	.LASF58
 959 0341 08       		.byte	0x8
 960 0342 8E       		.byte	0x8e
 961 0343 59030000 		.4byte	0x359
 962 0347 02       		.byte	0x2
 963 0348 23       		.byte	0x23
 964 0349 34       		.uleb128 0x34
 965 034a 10       		.uleb128 0x10
 966 034b 96030000 		.4byte	.LASF59
 967 034f 08       		.byte	0x8
 968 0350 90       		.byte	0x90
 969 0351 59030000 		.4byte	0x359
 970 0355 02       		.byte	0x2
 971 0356 23       		.byte	0x23
 972 0357 38       		.uleb128 0x38
 973 0358 00       		.byte	0
 974 0359 11       		.uleb128 0x11
 975 035a 04       		.byte	0x4
 976 035b 73020000 		.4byte	0x273
 977 035f 03       		.uleb128 0x3
 978 0360 22030000 		.4byte	.LASF60
 979 0364 08       		.byte	0x8
 980 0365 91       		.byte	0x91
 981 0366 7E020000 		.4byte	0x27e
ARM GAS  G:\Users\Jaxb\AppData\Local\Temp\ccY8QPD8.s 			page 23


 982 036a 12       		.uleb128 0x12
 983 036b 01       		.byte	0x1
 984 036c 0C010000 		.4byte	.LASF67
 985 0370 01       		.byte	0x1
 986 0371 BF       		.byte	0xbf
 987 0372 01       		.byte	0x1
 988 0373 8C020000 		.4byte	.LFB30
 989 0377 14030000 		.4byte	.LFE30
 990 037b 00000000 		.4byte	.LLST1
 991 037f 01       		.byte	0x1
 992 0380 A3030000 		.4byte	0x3a3
 993 0384 13       		.uleb128 0x13
 994 0385 F7030000 		.4byte	.LASF61
 995 0389 01       		.byte	0x1
 996 038a C1       		.byte	0xc1
 997 038b 5F030000 		.4byte	0x35f
 998 038f 03       		.byte	0x3
 999 0390 91       		.byte	0x91
 1000 0391 BC7F     		.sleb128 -68
 1001 0393 13       		.uleb128 0x13
 1002 0394 A0010000 		.4byte	.LASF62
 1003 0398 01       		.byte	0x1
 1004 0399 C2       		.byte	0xc2
 1005 039a 73020000 		.4byte	0x273
 1006 039e 03       		.byte	0x3
 1007 039f 91       		.byte	0x91
 1008 03a0 A07F     		.sleb128 -96
 1009 03a2 00       		.byte	0
 1010 03a3 14       		.uleb128 0x14
 1011 03a4 0D000000 		.4byte	.LASF68
 1012 03a8 01       		.byte	0x1
 1013 03a9 1D       		.byte	0x1d
 1014 03aa 01       		.byte	0x1
 1015 03ab 00000000 		.4byte	.LFB29
 1016 03af 8C020000 		.4byte	.LFE29
 1017 03b3 52000000 		.4byte	.LLST0
 1018 03b7 01       		.byte	0x1
 1019 03b8 13       		.uleb128 0x13
 1020 03b9 BE030000 		.4byte	.LASF63
 1021 03bd 01       		.byte	0x1
 1022 03be 1F       		.byte	0x1f
 1023 03bf FD010000 		.4byte	0x1fd
 1024 03c3 02       		.byte	0x2
 1025 03c4 91       		.byte	0x91
 1026 03c5 74       		.sleb128 -12
 1027 03c6 00       		.byte	0
 1028 03c7 00       		.byte	0
 1029              		.section	.debug_abbrev,"",%progbits
 1030              	.Ldebug_abbrev0:
 1031 0000 01       		.uleb128 0x1
 1032 0001 11       		.uleb128 0x11
 1033 0002 01       		.byte	0x1
 1034 0003 25       		.uleb128 0x25
 1035 0004 0E       		.uleb128 0xe
 1036 0005 13       		.uleb128 0x13
 1037 0006 0B       		.uleb128 0xb
 1038 0007 03       		.uleb128 0x3
ARM GAS  G:\Users\Jaxb\AppData\Local\Temp\ccY8QPD8.s 			page 24


 1039 0008 0E       		.uleb128 0xe
 1040 0009 1B       		.uleb128 0x1b
 1041 000a 0E       		.uleb128 0xe
 1042 000b 11       		.uleb128 0x11
 1043 000c 01       		.uleb128 0x1
 1044 000d 12       		.uleb128 0x12
 1045 000e 01       		.uleb128 0x1
 1046 000f 10       		.uleb128 0x10
 1047 0010 06       		.uleb128 0x6
 1048 0011 00       		.byte	0
 1049 0012 00       		.byte	0
 1050 0013 02       		.uleb128 0x2
 1051 0014 24       		.uleb128 0x24
 1052 0015 00       		.byte	0
 1053 0016 0B       		.uleb128 0xb
 1054 0017 0B       		.uleb128 0xb
 1055 0018 3E       		.uleb128 0x3e
 1056 0019 0B       		.uleb128 0xb
 1057 001a 03       		.uleb128 0x3
 1058 001b 0E       		.uleb128 0xe
 1059 001c 00       		.byte	0
 1060 001d 00       		.byte	0
 1061 001e 03       		.uleb128 0x3
 1062 001f 16       		.uleb128 0x16
 1063 0020 00       		.byte	0
 1064 0021 03       		.uleb128 0x3
 1065 0022 0E       		.uleb128 0xe
 1066 0023 3A       		.uleb128 0x3a
 1067 0024 0B       		.uleb128 0xb
 1068 0025 3B       		.uleb128 0x3b
 1069 0026 0B       		.uleb128 0xb
 1070 0027 49       		.uleb128 0x49
 1071 0028 13       		.uleb128 0x13
 1072 0029 00       		.byte	0
 1073 002a 00       		.byte	0
 1074 002b 04       		.uleb128 0x4
 1075 002c 24       		.uleb128 0x24
 1076 002d 00       		.byte	0
 1077 002e 0B       		.uleb128 0xb
 1078 002f 0B       		.uleb128 0xb
 1079 0030 3E       		.uleb128 0x3e
 1080 0031 0B       		.uleb128 0xb
 1081 0032 03       		.uleb128 0x3
 1082 0033 08       		.uleb128 0x8
 1083 0034 00       		.byte	0
 1084 0035 00       		.byte	0
 1085 0036 05       		.uleb128 0x5
 1086 0037 35       		.uleb128 0x35
 1087 0038 00       		.byte	0
 1088 0039 49       		.uleb128 0x49
 1089 003a 13       		.uleb128 0x13
 1090 003b 00       		.byte	0
 1091 003c 00       		.byte	0
 1092 003d 06       		.uleb128 0x6
 1093 003e 34       		.uleb128 0x34
 1094 003f 00       		.byte	0
 1095 0040 03       		.uleb128 0x3
ARM GAS  G:\Users\Jaxb\AppData\Local\Temp\ccY8QPD8.s 			page 25


 1096 0041 0E       		.uleb128 0xe
 1097 0042 3A       		.uleb128 0x3a
 1098 0043 0B       		.uleb128 0xb
 1099 0044 3B       		.uleb128 0x3b
 1100 0045 05       		.uleb128 0x5
 1101 0046 49       		.uleb128 0x49
 1102 0047 13       		.uleb128 0x13
 1103 0048 3F       		.uleb128 0x3f
 1104 0049 0C       		.uleb128 0xc
 1105 004a 3C       		.uleb128 0x3c
 1106 004b 0C       		.uleb128 0xc
 1107 004c 00       		.byte	0
 1108 004d 00       		.byte	0
 1109 004e 07       		.uleb128 0x7
 1110 004f 34       		.uleb128 0x34
 1111 0050 00       		.byte	0
 1112 0051 03       		.uleb128 0x3
 1113 0052 0E       		.uleb128 0xe
 1114 0053 3A       		.uleb128 0x3a
 1115 0054 0B       		.uleb128 0xb
 1116 0055 3B       		.uleb128 0x3b
 1117 0056 0B       		.uleb128 0xb
 1118 0057 49       		.uleb128 0x49
 1119 0058 13       		.uleb128 0x13
 1120 0059 3F       		.uleb128 0x3f
 1121 005a 0C       		.uleb128 0xc
 1122 005b 3C       		.uleb128 0x3c
 1123 005c 0C       		.uleb128 0xc
 1124 005d 00       		.byte	0
 1125 005e 00       		.byte	0
 1126 005f 08       		.uleb128 0x8
 1127 0060 04       		.uleb128 0x4
 1128 0061 01       		.byte	0x1
 1129 0062 3E       		.uleb128 0x3e
 1130 0063 0B       		.uleb128 0xb
 1131 0064 0B       		.uleb128 0xb
 1132 0065 0B       		.uleb128 0xb
 1133 0066 49       		.uleb128 0x49
 1134 0067 13       		.uleb128 0x13
 1135 0068 3A       		.uleb128 0x3a
 1136 0069 0B       		.uleb128 0xb
 1137 006a 3B       		.uleb128 0x3b
 1138 006b 05       		.uleb128 0x5
 1139 006c 01       		.uleb128 0x1
 1140 006d 13       		.uleb128 0x13
 1141 006e 00       		.byte	0
 1142 006f 00       		.byte	0
 1143 0070 09       		.uleb128 0x9
 1144 0071 28       		.uleb128 0x28
 1145 0072 00       		.byte	0
 1146 0073 03       		.uleb128 0x3
 1147 0074 0E       		.uleb128 0xe
 1148 0075 1C       		.uleb128 0x1c
 1149 0076 0B       		.uleb128 0xb
 1150 0077 00       		.byte	0
 1151 0078 00       		.byte	0
 1152 0079 0A       		.uleb128 0xa
ARM GAS  G:\Users\Jaxb\AppData\Local\Temp\ccY8QPD8.s 			page 26


 1153 007a 13       		.uleb128 0x13
 1154 007b 01       		.byte	0x1
 1155 007c 0B       		.uleb128 0xb
 1156 007d 0B       		.uleb128 0xb
 1157 007e 3A       		.uleb128 0x3a
 1158 007f 0B       		.uleb128 0xb
 1159 0080 3B       		.uleb128 0x3b
 1160 0081 05       		.uleb128 0x5
 1161 0082 01       		.uleb128 0x1
 1162 0083 13       		.uleb128 0x13
 1163 0084 00       		.byte	0
 1164 0085 00       		.byte	0
 1165 0086 0B       		.uleb128 0xb
 1166 0087 0D       		.uleb128 0xd
 1167 0088 00       		.byte	0
 1168 0089 03       		.uleb128 0x3
 1169 008a 08       		.uleb128 0x8
 1170 008b 3A       		.uleb128 0x3a
 1171 008c 0B       		.uleb128 0xb
 1172 008d 3B       		.uleb128 0x3b
 1173 008e 05       		.uleb128 0x5
 1174 008f 49       		.uleb128 0x49
 1175 0090 13       		.uleb128 0x13
 1176 0091 38       		.uleb128 0x38
 1177 0092 0A       		.uleb128 0xa
 1178 0093 00       		.byte	0
 1179 0094 00       		.byte	0
 1180 0095 0C       		.uleb128 0xc
 1181 0096 0D       		.uleb128 0xd
 1182 0097 00       		.byte	0
 1183 0098 03       		.uleb128 0x3
 1184 0099 0E       		.uleb128 0xe
 1185 009a 3A       		.uleb128 0x3a
 1186 009b 0B       		.uleb128 0xb
 1187 009c 3B       		.uleb128 0x3b
 1188 009d 05       		.uleb128 0x5
 1189 009e 49       		.uleb128 0x49
 1190 009f 13       		.uleb128 0x13
 1191 00a0 38       		.uleb128 0x38
 1192 00a1 0A       		.uleb128 0xa
 1193 00a2 00       		.byte	0
 1194 00a3 00       		.byte	0
 1195 00a4 0D       		.uleb128 0xd
 1196 00a5 16       		.uleb128 0x16
 1197 00a6 00       		.byte	0
 1198 00a7 03       		.uleb128 0x3
 1199 00a8 0E       		.uleb128 0xe
 1200 00a9 3A       		.uleb128 0x3a
 1201 00aa 0B       		.uleb128 0xb
 1202 00ab 3B       		.uleb128 0x3b
 1203 00ac 05       		.uleb128 0x5
 1204 00ad 49       		.uleb128 0x49
 1205 00ae 13       		.uleb128 0x13
 1206 00af 00       		.byte	0
 1207 00b0 00       		.byte	0
 1208 00b1 0E       		.uleb128 0xe
 1209 00b2 04       		.uleb128 0x4
ARM GAS  G:\Users\Jaxb\AppData\Local\Temp\ccY8QPD8.s 			page 27


 1210 00b3 01       		.byte	0x1
 1211 00b4 3E       		.uleb128 0x3e
 1212 00b5 0B       		.uleb128 0xb
 1213 00b6 0B       		.uleb128 0xb
 1214 00b7 0B       		.uleb128 0xb
 1215 00b8 49       		.uleb128 0x49
 1216 00b9 13       		.uleb128 0x13
 1217 00ba 3A       		.uleb128 0x3a
 1218 00bb 0B       		.uleb128 0xb
 1219 00bc 3B       		.uleb128 0x3b
 1220 00bd 0B       		.uleb128 0xb
 1221 00be 01       		.uleb128 0x1
 1222 00bf 13       		.uleb128 0x13
 1223 00c0 00       		.byte	0
 1224 00c1 00       		.byte	0
 1225 00c2 0F       		.uleb128 0xf
 1226 00c3 13       		.uleb128 0x13
 1227 00c4 01       		.byte	0x1
 1228 00c5 0B       		.uleb128 0xb
 1229 00c6 0B       		.uleb128 0xb
 1230 00c7 3A       		.uleb128 0x3a
 1231 00c8 0B       		.uleb128 0xb
 1232 00c9 3B       		.uleb128 0x3b
 1233 00ca 0B       		.uleb128 0xb
 1234 00cb 01       		.uleb128 0x1
 1235 00cc 13       		.uleb128 0x13
 1236 00cd 00       		.byte	0
 1237 00ce 00       		.byte	0
 1238 00cf 10       		.uleb128 0x10
 1239 00d0 0D       		.uleb128 0xd
 1240 00d1 00       		.byte	0
 1241 00d2 03       		.uleb128 0x3
 1242 00d3 0E       		.uleb128 0xe
 1243 00d4 3A       		.uleb128 0x3a
 1244 00d5 0B       		.uleb128 0xb
 1245 00d6 3B       		.uleb128 0x3b
 1246 00d7 0B       		.uleb128 0xb
 1247 00d8 49       		.uleb128 0x49
 1248 00d9 13       		.uleb128 0x13
 1249 00da 38       		.uleb128 0x38
 1250 00db 0A       		.uleb128 0xa
 1251 00dc 00       		.byte	0
 1252 00dd 00       		.byte	0
 1253 00de 11       		.uleb128 0x11
 1254 00df 0F       		.uleb128 0xf
 1255 00e0 00       		.byte	0
 1256 00e1 0B       		.uleb128 0xb
 1257 00e2 0B       		.uleb128 0xb
 1258 00e3 49       		.uleb128 0x49
 1259 00e4 13       		.uleb128 0x13
 1260 00e5 00       		.byte	0
 1261 00e6 00       		.byte	0
 1262 00e7 12       		.uleb128 0x12
 1263 00e8 2E       		.uleb128 0x2e
 1264 00e9 01       		.byte	0x1
 1265 00ea 3F       		.uleb128 0x3f
 1266 00eb 0C       		.uleb128 0xc
ARM GAS  G:\Users\Jaxb\AppData\Local\Temp\ccY8QPD8.s 			page 28


 1267 00ec 03       		.uleb128 0x3
 1268 00ed 0E       		.uleb128 0xe
 1269 00ee 3A       		.uleb128 0x3a
 1270 00ef 0B       		.uleb128 0xb
 1271 00f0 3B       		.uleb128 0x3b
 1272 00f1 0B       		.uleb128 0xb
 1273 00f2 27       		.uleb128 0x27
 1274 00f3 0C       		.uleb128 0xc
 1275 00f4 11       		.uleb128 0x11
 1276 00f5 01       		.uleb128 0x1
 1277 00f6 12       		.uleb128 0x12
 1278 00f7 01       		.uleb128 0x1
 1279 00f8 40       		.uleb128 0x40
 1280 00f9 06       		.uleb128 0x6
 1281 00fa 9642     		.uleb128 0x2116
 1282 00fc 0C       		.uleb128 0xc
 1283 00fd 01       		.uleb128 0x1
 1284 00fe 13       		.uleb128 0x13
 1285 00ff 00       		.byte	0
 1286 0100 00       		.byte	0
 1287 0101 13       		.uleb128 0x13
 1288 0102 34       		.uleb128 0x34
 1289 0103 00       		.byte	0
 1290 0104 03       		.uleb128 0x3
 1291 0105 0E       		.uleb128 0xe
 1292 0106 3A       		.uleb128 0x3a
 1293 0107 0B       		.uleb128 0xb
 1294 0108 3B       		.uleb128 0x3b
 1295 0109 0B       		.uleb128 0xb
 1296 010a 49       		.uleb128 0x49
 1297 010b 13       		.uleb128 0x13
 1298 010c 02       		.uleb128 0x2
 1299 010d 0A       		.uleb128 0xa
 1300 010e 00       		.byte	0
 1301 010f 00       		.byte	0
 1302 0110 14       		.uleb128 0x14
 1303 0111 2E       		.uleb128 0x2e
 1304 0112 01       		.byte	0x1
 1305 0113 03       		.uleb128 0x3
 1306 0114 0E       		.uleb128 0xe
 1307 0115 3A       		.uleb128 0x3a
 1308 0116 0B       		.uleb128 0xb
 1309 0117 3B       		.uleb128 0x3b
 1310 0118 0B       		.uleb128 0xb
 1311 0119 27       		.uleb128 0x27
 1312 011a 0C       		.uleb128 0xc
 1313 011b 11       		.uleb128 0x11
 1314 011c 01       		.uleb128 0x1
 1315 011d 12       		.uleb128 0x12
 1316 011e 01       		.uleb128 0x1
 1317 011f 40       		.uleb128 0x40
 1318 0120 06       		.uleb128 0x6
 1319 0121 9642     		.uleb128 0x2116
 1320 0123 0C       		.uleb128 0xc
 1321 0124 00       		.byte	0
 1322 0125 00       		.byte	0
 1323 0126 00       		.byte	0
ARM GAS  G:\Users\Jaxb\AppData\Local\Temp\ccY8QPD8.s 			page 29


 1324              		.section	.debug_loc,"",%progbits
 1325              	.Ldebug_loc0:
 1326              	.LLST1:
 1327 0000 8C020000 		.4byte	.LFB30-.Ltext0
 1328 0004 8E020000 		.4byte	.LCFI5-.Ltext0
 1329 0008 0200     		.2byte	0x2
 1330 000a 7D       		.byte	0x7d
 1331 000b 00       		.sleb128 0
 1332 000c 8E020000 		.4byte	.LCFI5-.Ltext0
 1333 0010 90020000 		.4byte	.LCFI6-.Ltext0
 1334 0014 0200     		.2byte	0x2
 1335 0016 7D       		.byte	0x7d
 1336 0017 08       		.sleb128 8
 1337 0018 90020000 		.4byte	.LCFI6-.Ltext0
 1338 001c 92020000 		.4byte	.LCFI7-.Ltext0
 1339 0020 0300     		.2byte	0x3
 1340 0022 7D       		.byte	0x7d
 1341 0023 E000     		.sleb128 96
 1342 0025 92020000 		.4byte	.LCFI7-.Ltext0
 1343 0029 10030000 		.4byte	.LCFI8-.Ltext0
 1344 002d 0300     		.2byte	0x3
 1345 002f 77       		.byte	0x77
 1346 0030 E000     		.sleb128 96
 1347 0032 10030000 		.4byte	.LCFI8-.Ltext0
 1348 0036 12030000 		.4byte	.LCFI9-.Ltext0
 1349 003a 0200     		.2byte	0x2
 1350 003c 77       		.byte	0x77
 1351 003d 08       		.sleb128 8
 1352 003e 12030000 		.4byte	.LCFI9-.Ltext0
 1353 0042 14030000 		.4byte	.LFE30-.Ltext0
 1354 0046 0200     		.2byte	0x2
 1355 0048 7D       		.byte	0x7d
 1356 0049 08       		.sleb128 8
 1357 004a 00000000 		.4byte	0
 1358 004e 00000000 		.4byte	0
 1359              	.LLST0:
 1360 0052 00000000 		.4byte	.LFB29-.Ltext0
 1361 0056 02000000 		.4byte	.LCFI0-.Ltext0
 1362 005a 0200     		.2byte	0x2
 1363 005c 7D       		.byte	0x7d
 1364 005d 00       		.sleb128 0
 1365 005e 02000000 		.4byte	.LCFI0-.Ltext0
 1366 0062 04000000 		.4byte	.LCFI1-.Ltext0
 1367 0066 0200     		.2byte	0x2
 1368 0068 7D       		.byte	0x7d
 1369 0069 08       		.sleb128 8
 1370 006a 04000000 		.4byte	.LCFI1-.Ltext0
 1371 006e 06000000 		.4byte	.LCFI2-.Ltext0
 1372 0072 0200     		.2byte	0x2
 1373 0074 7D       		.byte	0x7d
 1374 0075 10       		.sleb128 16
 1375 0076 06000000 		.4byte	.LCFI2-.Ltext0
 1376 007a 76020000 		.4byte	.LCFI3-.Ltext0
 1377 007e 0200     		.2byte	0x2
 1378 0080 77       		.byte	0x77
 1379 0081 10       		.sleb128 16
 1380 0082 76020000 		.4byte	.LCFI3-.Ltext0
ARM GAS  G:\Users\Jaxb\AppData\Local\Temp\ccY8QPD8.s 			page 30


 1381 0086 78020000 		.4byte	.LCFI4-.Ltext0
 1382 008a 0200     		.2byte	0x2
 1383 008c 77       		.byte	0x77
 1384 008d 08       		.sleb128 8
 1385 008e 78020000 		.4byte	.LCFI4-.Ltext0
 1386 0092 8C020000 		.4byte	.LFE29-.Ltext0
 1387 0096 0200     		.2byte	0x2
 1388 0098 7D       		.byte	0x7d
 1389 0099 08       		.sleb128 8
 1390 009a 00000000 		.4byte	0
 1391 009e 00000000 		.4byte	0
 1392              		.section	.debug_aranges,"",%progbits
 1393 0000 1C000000 		.4byte	0x1c
 1394 0004 0200     		.2byte	0x2
 1395 0006 00000000 		.4byte	.Ldebug_info0
 1396 000a 04       		.byte	0x4
 1397 000b 00       		.byte	0
 1398 000c 0000     		.2byte	0
 1399 000e 0000     		.2byte	0
 1400 0010 00000000 		.4byte	.Ltext0
 1401 0014 14030000 		.4byte	.Letext0-.Ltext0
 1402 0018 00000000 		.4byte	0
 1403 001c 00000000 		.4byte	0
 1404              		.section	.debug_line,"",%progbits
 1405              	.Ldebug_line0:
 1406 0000 CB010000 		.section	.debug_str,"MS",%progbits,1
 1406      02004201 
 1406      00000201 
 1406      FB0E0D00 
 1406      01010101 
 1407              	.LASF19:
 1408 0000 4750494F 		.ascii	"GPIO_TypeDef\000"
 1408      5F547970 
 1408      65446566 
 1408      00
 1409              	.LASF68:
 1410 000d 5352414D 		.ascii	"SRAM_GPIO_Config\000"
 1410      5F475049 
 1410      4F5F436F 
 1410      6E666967 
 1410      00
 1411              	.LASF33:
 1412 001e 4750494F 		.ascii	"GPIO_Pin\000"
 1412      5F50696E 
 1412      00
 1413              	.LASF53:
 1414 0027 46534D43 		.ascii	"FSMC_WaitSignalActive\000"
 1414      5F576169 
 1414      74536967 
 1414      6E616C41 
 1414      63746976 
 1415              	.LASF2:
 1416 003d 73686F72 		.ascii	"short int\000"
 1416      7420696E 
 1416      7400
 1417              	.LASF52:
 1418 0047 46534D43 		.ascii	"FSMC_WrapMode\000"
ARM GAS  G:\Users\Jaxb\AppData\Local\Temp\ccY8QPD8.s 			page 31


 1418      5F577261 
 1418      704D6F64 
 1418      6500
 1419              	.LASF40:
 1420 0055 46534D43 		.ascii	"FSMC_BusTurnAroundDuration\000"
 1420      5F427573 
 1420      5475726E 
 1420      41726F75 
 1420      6E644475 
 1421              	.LASF50:
 1422 0070 46534D43 		.ascii	"FSMC_AsynchronousWait\000"
 1422      5F417379 
 1422      6E636872 
 1422      6F6E6F75 
 1422      73576169 
 1423              	.LASF6:
 1424 0086 5F5F7569 		.ascii	"__uint32_t\000"
 1424      6E743332 
 1424      5F7400
 1425              	.LASF5:
 1426 0091 5F5F7569 		.ascii	"__uint16_t\000"
 1426      6E743136 
 1426      5F7400
 1427              	.LASF47:
 1428 009c 46534D43 		.ascii	"FSMC_MemoryType\000"
 1428      5F4D656D 
 1428      6F727954 
 1428      79706500 
 1429              	.LASF65:
 1430 00ac 2E2E2F2E 		.ascii	"../../source/src/kernel/OS_CPU/bsp/sram.c\000"
 1430      2E2F736F 
 1430      75726365 
 1430      2F737263 
 1430      2F6B6572 
 1431              	.LASF37:
 1432 00d6 46534D43 		.ascii	"FSMC_AddressSetupTime\000"
 1432      5F416464 
 1432      72657373 
 1432      53657475 
 1432      7054696D 
 1433              	.LASF34:
 1434 00ec 4750494F 		.ascii	"GPIO_Speed\000"
 1434      5F537065 
 1434      656400
 1435              	.LASF49:
 1436 00f7 46534D43 		.ascii	"FSMC_BurstAccessMode\000"
 1436      5F427572 
 1436      73744163 
 1436      63657373 
 1436      4D6F6465 
 1437              	.LASF67:
 1438 010c 46534D43 		.ascii	"FSMC_SRAM_Init\000"
 1438      5F535241 
 1438      4D5F496E 
 1438      697400
 1439              	.LASF15:
 1440 011b 44495341 		.ascii	"DISABLE\000"
ARM GAS  G:\Users\Jaxb\AppData\Local\Temp\ccY8QPD8.s 			page 32


 1440      424C4500 
 1441              	.LASF0:
 1442 0123 7369676E 		.ascii	"signed char\000"
 1442      65642063 
 1442      68617200 
 1443              	.LASF31:
 1444 012f 4750494F 		.ascii	"GPIO_Mode_AF_PP\000"
 1444      5F4D6F64 
 1444      655F4146 
 1444      5F505000 
 1445              	.LASF66:
 1446 013f 463A5C6B 		.ascii	"F:\\kaka\\KAKAOS\\C\\windows\\Project\\RVMDK\243\250"
 1446      616B615C 
 1446      4B414B41 
 1446      4F535C43 
 1446      5C77696E 
 1447 0167 757635A3 		.ascii	"uv5\243\251\000"
 1447      A900
 1448              	.LASF8:
 1449 016d 6C6F6E67 		.ascii	"long long int\000"
 1449      206C6F6E 
 1449      6720696E 
 1449      7400
 1450              	.LASF16:
 1451 017b 454E4142 		.ascii	"ENABLE\000"
 1451      4C4500
 1452              	.LASF48:
 1453 0182 46534D43 		.ascii	"FSMC_MemoryDataWidth\000"
 1453      5F4D656D 
 1453      6F727944 
 1453      61746157 
 1453      69647468 
 1454              	.LASF4:
 1455 0197 6C6F6E67 		.ascii	"long int\000"
 1455      20696E74 
 1455      00
 1456              	.LASF62:
 1457 01a0 72656164 		.ascii	"readWriteTiming\000"
 1457      57726974 
 1457      6554696D 
 1457      696E6700 
 1458              	.LASF17:
 1459 01b0 42535252 		.ascii	"BSRR\000"
 1459      00
 1460              	.LASF20:
 1461 01b5 4750494F 		.ascii	"GPIO_Speed_10MHz\000"
 1461      5F537065 
 1461      65645F31 
 1461      304D487A 
 1461      00
 1462              	.LASF43:
 1463 01c6 46534D43 		.ascii	"FSMC_AccessMode\000"
 1463      5F416363 
 1463      6573734D 
 1463      6F646500 
 1464              	.LASF55:
 1465 01d6 46534D43 		.ascii	"FSMC_WaitSignal\000"
ARM GAS  G:\Users\Jaxb\AppData\Local\Temp\ccY8QPD8.s 			page 33


 1465      5F576169 
 1465      74536967 
 1465      6E616C00 
 1466              	.LASF1:
 1467 01e6 756E7369 		.ascii	"unsigned char\000"
 1467      676E6564 
 1467      20636861 
 1467      7200
 1468              	.LASF42:
 1469 01f4 46534D43 		.ascii	"FSMC_DataLatency\000"
 1469      5F446174 
 1469      614C6174 
 1469      656E6379 
 1469      00
 1470              	.LASF28:
 1471 0205 4750494F 		.ascii	"GPIO_Mode_Out_OD\000"
 1471      5F4D6F64 
 1471      655F4F75 
 1471      745F4F44 
 1471      00
 1472              	.LASF44:
 1473 0216 46534D43 		.ascii	"FSMC_NORSRAMTimingInitTypeDef\000"
 1473      5F4E4F52 
 1473      5352414D 
 1473      54696D69 
 1473      6E67496E 
 1474              	.LASF21:
 1475 0234 4750494F 		.ascii	"GPIO_Speed_2MHz\000"
 1475      5F537065 
 1475      65645F32 
 1475      4D487A00 
 1476              	.LASF57:
 1477 0244 46534D43 		.ascii	"FSMC_WriteBurst\000"
 1477      5F577269 
 1477      74654275 
 1477      72737400 
 1478              	.LASF9:
 1479 0254 6C6F6E67 		.ascii	"long long unsigned int\000"
 1479      206C6F6E 
 1479      6720756E 
 1479      7369676E 
 1479      65642069 
 1480              	.LASF12:
 1481 026b 75696E74 		.ascii	"uint32_t\000"
 1481      33325F74 
 1481      00
 1482              	.LASF36:
 1483 0274 4750494F 		.ascii	"GPIO_InitTypeDef\000"
 1483      5F496E69 
 1483      74547970 
 1483      65446566 
 1483      00
 1484              	.LASF56:
 1485 0285 46534D43 		.ascii	"FSMC_ExtendedMode\000"
 1485      5F457874 
 1485      656E6465 
 1485      644D6F64 
ARM GAS  G:\Users\Jaxb\AppData\Local\Temp\ccY8QPD8.s 			page 34


 1485      6500
 1486              	.LASF10:
 1487 0297 756E7369 		.ascii	"unsigned int\000"
 1487      676E6564 
 1487      20696E74 
 1487      00
 1488              	.LASF54:
 1489 02a4 46534D43 		.ascii	"FSMC_WriteOperation\000"
 1489      5F577269 
 1489      74654F70 
 1489      65726174 
 1489      696F6E00 
 1490              	.LASF7:
 1491 02b8 6C6F6E67 		.ascii	"long unsigned int\000"
 1491      20756E73 
 1491      69676E65 
 1491      6420696E 
 1491      7400
 1492              	.LASF39:
 1493 02ca 46534D43 		.ascii	"FSMC_DataSetupTime\000"
 1493      5F446174 
 1493      61536574 
 1493      75705469 
 1493      6D6500
 1494              	.LASF58:
 1495 02dd 46534D43 		.ascii	"FSMC_ReadWriteTimingStruct\000"
 1495      5F526561 
 1495      64577269 
 1495      74655469 
 1495      6D696E67 
 1496              	.LASF3:
 1497 02f8 73686F72 		.ascii	"short unsigned int\000"
 1497      7420756E 
 1497      7369676E 
 1497      65642069 
 1497      6E7400
 1498              	.LASF26:
 1499 030b 4750494F 		.ascii	"GPIO_Mode_IPD\000"
 1499      5F4D6F64 
 1499      655F4950 
 1499      4400
 1500              	.LASF11:
 1501 0319 75696E74 		.ascii	"uint16_t\000"
 1501      31365F74 
 1501      00
 1502              	.LASF60:
 1503 0322 46534D43 		.ascii	"FSMC_NORSRAMInitTypeDef\000"
 1503      5F4E4F52 
 1503      5352414D 
 1503      496E6974 
 1503      54797065 
 1504              	.LASF14:
 1505 033a 53797374 		.ascii	"SystemCoreClock\000"
 1505      656D436F 
 1505      7265436C 
 1505      6F636B00 
 1506              	.LASF27:
ARM GAS  G:\Users\Jaxb\AppData\Local\Temp\ccY8QPD8.s 			page 35


 1507 034a 4750494F 		.ascii	"GPIO_Mode_IPU\000"
 1507      5F4D6F64 
 1507      655F4950 
 1507      5500
 1508              	.LASF24:
 1509 0358 4750494F 		.ascii	"GPIO_Mode_AIN\000"
 1509      5F4D6F64 
 1509      655F4149 
 1509      4E00
 1510              	.LASF46:
 1511 0366 46534D43 		.ascii	"FSMC_DataAddressMux\000"
 1511      5F446174 
 1511      61416464 
 1511      72657373 
 1511      4D757800 
 1512              	.LASF35:
 1513 037a 4750494F 		.ascii	"GPIO_Mode\000"
 1513      5F4D6F64 
 1513      6500
 1514              	.LASF23:
 1515 0384 4750494F 		.ascii	"GPIOSpeed_TypeDef\000"
 1515      53706565 
 1515      645F5479 
 1515      70654465 
 1515      6600
 1516              	.LASF59:
 1517 0396 46534D43 		.ascii	"FSMC_WriteTimingStruct\000"
 1517      5F577269 
 1517      74655469 
 1517      6D696E67 
 1517      53747275 
 1518              	.LASF41:
 1519 03ad 46534D43 		.ascii	"FSMC_CLKDivision\000"
 1519      5F434C4B 
 1519      44697669 
 1519      73696F6E 
 1519      00
 1520              	.LASF63:
 1521 03be 4750494F 		.ascii	"GPIO_InitStructure\000"
 1521      5F496E69 
 1521      74537472 
 1521      75637475 
 1521      726500
 1522              	.LASF22:
 1523 03d1 4750494F 		.ascii	"GPIO_Speed_50MHz\000"
 1523      5F537065 
 1523      65645F35 
 1523      304D487A 
 1523      00
 1524              	.LASF38:
 1525 03e2 46534D43 		.ascii	"FSMC_AddressHoldTime\000"
 1525      5F416464 
 1525      72657373 
 1525      486F6C64 
 1525      54696D65 
 1526              	.LASF61:
 1527 03f7 46534D43 		.ascii	"FSMC_NORSRAMInitStructure\000"
ARM GAS  G:\Users\Jaxb\AppData\Local\Temp\ccY8QPD8.s 			page 36


 1527      5F4E4F52 
 1527      5352414D 
 1527      496E6974 
 1527      53747275 
 1528              	.LASF32:
 1529 0411 4750494F 		.ascii	"GPIOMode_TypeDef\000"
 1529      4D6F6465 
 1529      5F547970 
 1529      65446566 
 1529      00
 1530              	.LASF64:
 1531 0422 474E5520 		.ascii	"GNU C11 7.3.1 20180622 (release) [ARM/embedded-7-br"
 1531      43313120 
 1531      372E332E 
 1531      31203230 
 1531      31383036 
 1532 0455 616E6368 		.ascii	"anch revision 261907] -mcpu=cortex-m3 -mthumb -mapc"
 1532      20726576 
 1532      6973696F 
 1532      6E203236 
 1532      31393037 
 1533 0488 732D6672 		.ascii	"s-frame -mthumb-interwork -mcpu=cortex-m3 -mthumb -"
 1533      616D6520 
 1533      2D6D7468 
 1533      756D622D 
 1533      696E7465 
 1534 04bb 67647761 		.ascii	"gdwarf-2 -O0\000"
 1534      72662D32 
 1534      202D4F30 
 1534      00
 1535              	.LASF29:
 1536 04c8 4750494F 		.ascii	"GPIO_Mode_Out_PP\000"
 1536      5F4D6F64 
 1536      655F4F75 
 1536      745F5050 
 1536      00
 1537              	.LASF25:
 1538 04d9 4750494F 		.ascii	"GPIO_Mode_IN_FLOATING\000"
 1538      5F4D6F64 
 1538      655F494E 
 1538      5F464C4F 
 1538      4154494E 
 1539              	.LASF13:
 1540 04ef 49544D5F 		.ascii	"ITM_RxBuffer\000"
 1540      52784275 
 1540      66666572 
 1540      00
 1541              	.LASF18:
 1542 04fc 4C434B52 		.ascii	"LCKR\000"
 1542      00
 1543              	.LASF45:
 1544 0501 46534D43 		.ascii	"FSMC_Bank\000"
 1544      5F42616E 
 1544      6B00
 1545              	.LASF51:
 1546 050b 46534D43 		.ascii	"FSMC_WaitSignalPolarity\000"
 1546      5F576169 
ARM GAS  G:\Users\Jaxb\AppData\Local\Temp\ccY8QPD8.s 			page 37


 1546      74536967 
 1546      6E616C50 
 1546      6F6C6172 
 1547              	.LASF30:
 1548 0523 4750494F 		.ascii	"GPIO_Mode_AF_OD\000"
 1548      5F4D6F64 
 1548      655F4146 
 1548      5F4F4400 
 1549              		.ident	"GCC: (GNU Tools for Arm Embedded Processors 7-2018-q2-update) 7.3.1 20180622 (release) [AR
ARM GAS  G:\Users\Jaxb\AppData\Local\Temp\ccY8QPD8.s 			page 38


DEFINED SYMBOLS
                            *ABS*:00000000 sram.c
G:\Users\Jaxb\AppData\Local\Temp\ccY8QPD8.s:15     .text:00000000 $t
G:\Users\Jaxb\AppData\Local\Temp\ccY8QPD8.s:21     .text:00000000 SRAM_GPIO_Config
G:\Users\Jaxb\AppData\Local\Temp\ccY8QPD8.s:382    .text:0000027c $d
G:\Users\Jaxb\AppData\Local\Temp\ccY8QPD8.s:389    .text:0000028c $t
G:\Users\Jaxb\AppData\Local\Temp\ccY8QPD8.s:396    .text:0000028c FSMC_SRAM_Init

UNDEFINED SYMBOLS
RCC_APB2PeriphClockCmd
GPIO_Init
RCC_AHBPeriphClockCmd
FSMC_NORSRAMInit
FSMC_NORSRAMCmd
