ARM GAS  G:\Users\Jaxb\AppData\Local\Temp\cc4YWfMb.s 			page 1


   1              		.cpu cortex-m3
   2              		.eabi_attribute 20, 1
   3              		.eabi_attribute 21, 1
   4              		.eabi_attribute 23, 3
   5              		.eabi_attribute 24, 1
   6              		.eabi_attribute 25, 1
   7              		.eabi_attribute 26, 1
   8              		.eabi_attribute 30, 6
   9              		.eabi_attribute 34, 1
  10              		.eabi_attribute 18, 4
  11              		.file	"stm32f10x_adc.c"
  12              		.text
  13              	.Ltext0:
  14              		.cfi_sections	.debug_frame
  15              		.align	1
  16              		.global	ADC_DeInit
  17              		.syntax unified
  18              		.thumb
  19              		.thumb_func
  20              		.fpu softvfp
  21              		.type	ADC_DeInit, %function
  22              	ADC_DeInit:
  23              	.LFB29:
  24              		.file 1 "../../source/src/FWlib/src/stm32f10x_adc.c"
   1:../../source/src/FWlib/src/stm32f10x_adc.c **** /**
   2:../../source/src/FWlib/src/stm32f10x_adc.c ****   ******************************************************************************
   3:../../source/src/FWlib/src/stm32f10x_adc.c ****   * @file    stm32f10x_adc.c
   4:../../source/src/FWlib/src/stm32f10x_adc.c ****   * @author  MCD Application Team
   5:../../source/src/FWlib/src/stm32f10x_adc.c ****   * @version V3.5.0
   6:../../source/src/FWlib/src/stm32f10x_adc.c ****   * @date    11-March-2011
   7:../../source/src/FWlib/src/stm32f10x_adc.c ****   * @brief   This file provides all the ADC firmware functions.
   8:../../source/src/FWlib/src/stm32f10x_adc.c ****   ******************************************************************************
   9:../../source/src/FWlib/src/stm32f10x_adc.c ****   * @attention
  10:../../source/src/FWlib/src/stm32f10x_adc.c ****   *
  11:../../source/src/FWlib/src/stm32f10x_adc.c ****   * THE PRESENT FIRMWARE WHICH IS FOR GUIDANCE ONLY AIMS AT PROVIDING CUSTOMERS
  12:../../source/src/FWlib/src/stm32f10x_adc.c ****   * WITH CODING INFORMATION REGARDING THEIR PRODUCTS IN ORDER FOR THEM TO SAVE
  13:../../source/src/FWlib/src/stm32f10x_adc.c ****   * TIME. AS A RESULT, STMICROELECTRONICS SHALL NOT BE HELD LIABLE FOR ANY
  14:../../source/src/FWlib/src/stm32f10x_adc.c ****   * DIRECT, INDIRECT OR CONSEQUENTIAL DAMAGES WITH RESPECT TO ANY CLAIMS ARISING
  15:../../source/src/FWlib/src/stm32f10x_adc.c ****   * FROM THE CONTENT OF SUCH FIRMWARE AND/OR THE USE MADE BY CUSTOMERS OF THE
  16:../../source/src/FWlib/src/stm32f10x_adc.c ****   * CODING INFORMATION CONTAINED HEREIN IN CONNECTION WITH THEIR PRODUCTS.
  17:../../source/src/FWlib/src/stm32f10x_adc.c ****   *
  18:../../source/src/FWlib/src/stm32f10x_adc.c ****   * <h2><center>&copy; COPYRIGHT 2011 STMicroelectronics</center></h2>
  19:../../source/src/FWlib/src/stm32f10x_adc.c ****   ******************************************************************************
  20:../../source/src/FWlib/src/stm32f10x_adc.c ****   */
  21:../../source/src/FWlib/src/stm32f10x_adc.c **** 
  22:../../source/src/FWlib/src/stm32f10x_adc.c **** /* Includes ------------------------------------------------------------------*/
  23:../../source/src/FWlib/src/stm32f10x_adc.c **** #include "stm32f10x_adc.h"
  24:../../source/src/FWlib/src/stm32f10x_adc.c **** #include "stm32f10x_rcc.h"
  25:../../source/src/FWlib/src/stm32f10x_adc.c **** 
  26:../../source/src/FWlib/src/stm32f10x_adc.c **** /** @addtogroup STM32F10x_StdPeriph_Driver
  27:../../source/src/FWlib/src/stm32f10x_adc.c ****   * @{
  28:../../source/src/FWlib/src/stm32f10x_adc.c ****   */
  29:../../source/src/FWlib/src/stm32f10x_adc.c **** 
  30:../../source/src/FWlib/src/stm32f10x_adc.c **** /** @defgroup ADC 
  31:../../source/src/FWlib/src/stm32f10x_adc.c ****   * @brief ADC driver modules
  32:../../source/src/FWlib/src/stm32f10x_adc.c ****   * @{
  33:../../source/src/FWlib/src/stm32f10x_adc.c ****   */
ARM GAS  G:\Users\Jaxb\AppData\Local\Temp\cc4YWfMb.s 			page 2


  34:../../source/src/FWlib/src/stm32f10x_adc.c **** 
  35:../../source/src/FWlib/src/stm32f10x_adc.c **** /** @defgroup ADC_Private_TypesDefinitions
  36:../../source/src/FWlib/src/stm32f10x_adc.c ****   * @{
  37:../../source/src/FWlib/src/stm32f10x_adc.c ****   */
  38:../../source/src/FWlib/src/stm32f10x_adc.c **** 
  39:../../source/src/FWlib/src/stm32f10x_adc.c **** /**
  40:../../source/src/FWlib/src/stm32f10x_adc.c ****   * @}
  41:../../source/src/FWlib/src/stm32f10x_adc.c ****   */
  42:../../source/src/FWlib/src/stm32f10x_adc.c **** 
  43:../../source/src/FWlib/src/stm32f10x_adc.c **** /** @defgroup ADC_Private_Defines
  44:../../source/src/FWlib/src/stm32f10x_adc.c ****   * @{
  45:../../source/src/FWlib/src/stm32f10x_adc.c ****   */
  46:../../source/src/FWlib/src/stm32f10x_adc.c **** 
  47:../../source/src/FWlib/src/stm32f10x_adc.c **** /* ADC DISCNUM mask */
  48:../../source/src/FWlib/src/stm32f10x_adc.c **** #define CR1_DISCNUM_Reset           ((uint32_t)0xFFFF1FFF)
  49:../../source/src/FWlib/src/stm32f10x_adc.c **** 
  50:../../source/src/FWlib/src/stm32f10x_adc.c **** /* ADC DISCEN mask */
  51:../../source/src/FWlib/src/stm32f10x_adc.c **** #define CR1_DISCEN_Set              ((uint32_t)0x00000800)
  52:../../source/src/FWlib/src/stm32f10x_adc.c **** #define CR1_DISCEN_Reset            ((uint32_t)0xFFFFF7FF)
  53:../../source/src/FWlib/src/stm32f10x_adc.c **** 
  54:../../source/src/FWlib/src/stm32f10x_adc.c **** /* ADC JAUTO mask */
  55:../../source/src/FWlib/src/stm32f10x_adc.c **** #define CR1_JAUTO_Set               ((uint32_t)0x00000400)
  56:../../source/src/FWlib/src/stm32f10x_adc.c **** #define CR1_JAUTO_Reset             ((uint32_t)0xFFFFFBFF)
  57:../../source/src/FWlib/src/stm32f10x_adc.c **** 
  58:../../source/src/FWlib/src/stm32f10x_adc.c **** /* ADC JDISCEN mask */
  59:../../source/src/FWlib/src/stm32f10x_adc.c **** #define CR1_JDISCEN_Set             ((uint32_t)0x00001000)
  60:../../source/src/FWlib/src/stm32f10x_adc.c **** #define CR1_JDISCEN_Reset           ((uint32_t)0xFFFFEFFF)
  61:../../source/src/FWlib/src/stm32f10x_adc.c **** 
  62:../../source/src/FWlib/src/stm32f10x_adc.c **** /* ADC AWDCH mask */
  63:../../source/src/FWlib/src/stm32f10x_adc.c **** #define CR1_AWDCH_Reset             ((uint32_t)0xFFFFFFE0)
  64:../../source/src/FWlib/src/stm32f10x_adc.c **** 
  65:../../source/src/FWlib/src/stm32f10x_adc.c **** /* ADC Analog watchdog enable mode mask */
  66:../../source/src/FWlib/src/stm32f10x_adc.c **** #define CR1_AWDMode_Reset           ((uint32_t)0xFF3FFDFF)
  67:../../source/src/FWlib/src/stm32f10x_adc.c **** 
  68:../../source/src/FWlib/src/stm32f10x_adc.c **** /* CR1 register Mask */
  69:../../source/src/FWlib/src/stm32f10x_adc.c **** #define CR1_CLEAR_Mask              ((uint32_t)0xFFF0FEFF)
  70:../../source/src/FWlib/src/stm32f10x_adc.c **** 
  71:../../source/src/FWlib/src/stm32f10x_adc.c **** /* ADC ADON mask */
  72:../../source/src/FWlib/src/stm32f10x_adc.c **** #define CR2_ADON_Set                ((uint32_t)0x00000001)
  73:../../source/src/FWlib/src/stm32f10x_adc.c **** #define CR2_ADON_Reset              ((uint32_t)0xFFFFFFFE)
  74:../../source/src/FWlib/src/stm32f10x_adc.c **** 
  75:../../source/src/FWlib/src/stm32f10x_adc.c **** /* ADC DMA mask */
  76:../../source/src/FWlib/src/stm32f10x_adc.c **** #define CR2_DMA_Set                 ((uint32_t)0x00000100)
  77:../../source/src/FWlib/src/stm32f10x_adc.c **** #define CR2_DMA_Reset               ((uint32_t)0xFFFFFEFF)
  78:../../source/src/FWlib/src/stm32f10x_adc.c **** 
  79:../../source/src/FWlib/src/stm32f10x_adc.c **** /* ADC RSTCAL mask */
  80:../../source/src/FWlib/src/stm32f10x_adc.c **** #define CR2_RSTCAL_Set              ((uint32_t)0x00000008)
  81:../../source/src/FWlib/src/stm32f10x_adc.c **** 
  82:../../source/src/FWlib/src/stm32f10x_adc.c **** /* ADC CAL mask */
  83:../../source/src/FWlib/src/stm32f10x_adc.c **** #define CR2_CAL_Set                 ((uint32_t)0x00000004)
  84:../../source/src/FWlib/src/stm32f10x_adc.c **** 
  85:../../source/src/FWlib/src/stm32f10x_adc.c **** /* ADC SWSTART mask */
  86:../../source/src/FWlib/src/stm32f10x_adc.c **** #define CR2_SWSTART_Set             ((uint32_t)0x00400000)
  87:../../source/src/FWlib/src/stm32f10x_adc.c **** 
  88:../../source/src/FWlib/src/stm32f10x_adc.c **** /* ADC EXTTRIG mask */
  89:../../source/src/FWlib/src/stm32f10x_adc.c **** #define CR2_EXTTRIG_Set             ((uint32_t)0x00100000)
  90:../../source/src/FWlib/src/stm32f10x_adc.c **** #define CR2_EXTTRIG_Reset           ((uint32_t)0xFFEFFFFF)
ARM GAS  G:\Users\Jaxb\AppData\Local\Temp\cc4YWfMb.s 			page 3


  91:../../source/src/FWlib/src/stm32f10x_adc.c **** 
  92:../../source/src/FWlib/src/stm32f10x_adc.c **** /* ADC Software start mask */
  93:../../source/src/FWlib/src/stm32f10x_adc.c **** #define CR2_EXTTRIG_SWSTART_Set     ((uint32_t)0x00500000)
  94:../../source/src/FWlib/src/stm32f10x_adc.c **** #define CR2_EXTTRIG_SWSTART_Reset   ((uint32_t)0xFFAFFFFF)
  95:../../source/src/FWlib/src/stm32f10x_adc.c **** 
  96:../../source/src/FWlib/src/stm32f10x_adc.c **** /* ADC JEXTSEL mask */
  97:../../source/src/FWlib/src/stm32f10x_adc.c **** #define CR2_JEXTSEL_Reset           ((uint32_t)0xFFFF8FFF)
  98:../../source/src/FWlib/src/stm32f10x_adc.c **** 
  99:../../source/src/FWlib/src/stm32f10x_adc.c **** /* ADC JEXTTRIG mask */
 100:../../source/src/FWlib/src/stm32f10x_adc.c **** #define CR2_JEXTTRIG_Set            ((uint32_t)0x00008000)
 101:../../source/src/FWlib/src/stm32f10x_adc.c **** #define CR2_JEXTTRIG_Reset          ((uint32_t)0xFFFF7FFF)
 102:../../source/src/FWlib/src/stm32f10x_adc.c **** 
 103:../../source/src/FWlib/src/stm32f10x_adc.c **** /* ADC JSWSTART mask */
 104:../../source/src/FWlib/src/stm32f10x_adc.c **** #define CR2_JSWSTART_Set            ((uint32_t)0x00200000)
 105:../../source/src/FWlib/src/stm32f10x_adc.c **** 
 106:../../source/src/FWlib/src/stm32f10x_adc.c **** /* ADC injected software start mask */
 107:../../source/src/FWlib/src/stm32f10x_adc.c **** #define CR2_JEXTTRIG_JSWSTART_Set   ((uint32_t)0x00208000)
 108:../../source/src/FWlib/src/stm32f10x_adc.c **** #define CR2_JEXTTRIG_JSWSTART_Reset ((uint32_t)0xFFDF7FFF)
 109:../../source/src/FWlib/src/stm32f10x_adc.c **** 
 110:../../source/src/FWlib/src/stm32f10x_adc.c **** /* ADC TSPD mask */
 111:../../source/src/FWlib/src/stm32f10x_adc.c **** #define CR2_TSVREFE_Set             ((uint32_t)0x00800000)
 112:../../source/src/FWlib/src/stm32f10x_adc.c **** #define CR2_TSVREFE_Reset           ((uint32_t)0xFF7FFFFF)
 113:../../source/src/FWlib/src/stm32f10x_adc.c **** 
 114:../../source/src/FWlib/src/stm32f10x_adc.c **** /* CR2 register Mask */
 115:../../source/src/FWlib/src/stm32f10x_adc.c **** #define CR2_CLEAR_Mask              ((uint32_t)0xFFF1F7FD)
 116:../../source/src/FWlib/src/stm32f10x_adc.c **** 
 117:../../source/src/FWlib/src/stm32f10x_adc.c **** /* ADC SQx mask */
 118:../../source/src/FWlib/src/stm32f10x_adc.c **** #define SQR3_SQ_Set                 ((uint32_t)0x0000001F)
 119:../../source/src/FWlib/src/stm32f10x_adc.c **** #define SQR2_SQ_Set                 ((uint32_t)0x0000001F)
 120:../../source/src/FWlib/src/stm32f10x_adc.c **** #define SQR1_SQ_Set                 ((uint32_t)0x0000001F)
 121:../../source/src/FWlib/src/stm32f10x_adc.c **** 
 122:../../source/src/FWlib/src/stm32f10x_adc.c **** /* SQR1 register Mask */
 123:../../source/src/FWlib/src/stm32f10x_adc.c **** #define SQR1_CLEAR_Mask             ((uint32_t)0xFF0FFFFF)
 124:../../source/src/FWlib/src/stm32f10x_adc.c **** 
 125:../../source/src/FWlib/src/stm32f10x_adc.c **** /* ADC JSQx mask */
 126:../../source/src/FWlib/src/stm32f10x_adc.c **** #define JSQR_JSQ_Set                ((uint32_t)0x0000001F)
 127:../../source/src/FWlib/src/stm32f10x_adc.c **** 
 128:../../source/src/FWlib/src/stm32f10x_adc.c **** /* ADC JL mask */
 129:../../source/src/FWlib/src/stm32f10x_adc.c **** #define JSQR_JL_Set                 ((uint32_t)0x00300000)
 130:../../source/src/FWlib/src/stm32f10x_adc.c **** #define JSQR_JL_Reset               ((uint32_t)0xFFCFFFFF)
 131:../../source/src/FWlib/src/stm32f10x_adc.c **** 
 132:../../source/src/FWlib/src/stm32f10x_adc.c **** /* ADC SMPx mask */
 133:../../source/src/FWlib/src/stm32f10x_adc.c **** #define SMPR1_SMP_Set               ((uint32_t)0x00000007)
 134:../../source/src/FWlib/src/stm32f10x_adc.c **** #define SMPR2_SMP_Set               ((uint32_t)0x00000007)
 135:../../source/src/FWlib/src/stm32f10x_adc.c **** 
 136:../../source/src/FWlib/src/stm32f10x_adc.c **** /* ADC JDRx registers offset */
 137:../../source/src/FWlib/src/stm32f10x_adc.c **** #define JDR_Offset                  ((uint8_t)0x28)
 138:../../source/src/FWlib/src/stm32f10x_adc.c **** 
 139:../../source/src/FWlib/src/stm32f10x_adc.c **** /* ADC1 DR register base address */
 140:../../source/src/FWlib/src/stm32f10x_adc.c **** #define DR_ADDRESS                  ((uint32_t)0x4001244C)
 141:../../source/src/FWlib/src/stm32f10x_adc.c **** 
 142:../../source/src/FWlib/src/stm32f10x_adc.c **** /**
 143:../../source/src/FWlib/src/stm32f10x_adc.c ****   * @}
 144:../../source/src/FWlib/src/stm32f10x_adc.c ****   */
 145:../../source/src/FWlib/src/stm32f10x_adc.c **** 
 146:../../source/src/FWlib/src/stm32f10x_adc.c **** /** @defgroup ADC_Private_Macros
 147:../../source/src/FWlib/src/stm32f10x_adc.c ****   * @{
ARM GAS  G:\Users\Jaxb\AppData\Local\Temp\cc4YWfMb.s 			page 4


 148:../../source/src/FWlib/src/stm32f10x_adc.c ****   */
 149:../../source/src/FWlib/src/stm32f10x_adc.c **** 
 150:../../source/src/FWlib/src/stm32f10x_adc.c **** /**
 151:../../source/src/FWlib/src/stm32f10x_adc.c ****   * @}
 152:../../source/src/FWlib/src/stm32f10x_adc.c ****   */
 153:../../source/src/FWlib/src/stm32f10x_adc.c **** 
 154:../../source/src/FWlib/src/stm32f10x_adc.c **** /** @defgroup ADC_Private_Variables
 155:../../source/src/FWlib/src/stm32f10x_adc.c ****   * @{
 156:../../source/src/FWlib/src/stm32f10x_adc.c ****   */
 157:../../source/src/FWlib/src/stm32f10x_adc.c **** 
 158:../../source/src/FWlib/src/stm32f10x_adc.c **** /**
 159:../../source/src/FWlib/src/stm32f10x_adc.c ****   * @}
 160:../../source/src/FWlib/src/stm32f10x_adc.c ****   */
 161:../../source/src/FWlib/src/stm32f10x_adc.c **** 
 162:../../source/src/FWlib/src/stm32f10x_adc.c **** /** @defgroup ADC_Private_FunctionPrototypes
 163:../../source/src/FWlib/src/stm32f10x_adc.c ****   * @{
 164:../../source/src/FWlib/src/stm32f10x_adc.c ****   */
 165:../../source/src/FWlib/src/stm32f10x_adc.c **** 
 166:../../source/src/FWlib/src/stm32f10x_adc.c **** /**
 167:../../source/src/FWlib/src/stm32f10x_adc.c ****   * @}
 168:../../source/src/FWlib/src/stm32f10x_adc.c ****   */
 169:../../source/src/FWlib/src/stm32f10x_adc.c **** 
 170:../../source/src/FWlib/src/stm32f10x_adc.c **** /** @defgroup ADC_Private_Functions
 171:../../source/src/FWlib/src/stm32f10x_adc.c ****   * @{
 172:../../source/src/FWlib/src/stm32f10x_adc.c ****   */
 173:../../source/src/FWlib/src/stm32f10x_adc.c **** 
 174:../../source/src/FWlib/src/stm32f10x_adc.c **** /**
 175:../../source/src/FWlib/src/stm32f10x_adc.c ****   * @brief  Deinitializes the ADCx peripheral registers to their default reset values.
 176:../../source/src/FWlib/src/stm32f10x_adc.c ****   * @param  ADCx: where x can be 1, 2 or 3 to select the ADC peripheral.
 177:../../source/src/FWlib/src/stm32f10x_adc.c ****   * @retval None
 178:../../source/src/FWlib/src/stm32f10x_adc.c ****   */
 179:../../source/src/FWlib/src/stm32f10x_adc.c **** void ADC_DeInit(ADC_TypeDef* ADCx)
 180:../../source/src/FWlib/src/stm32f10x_adc.c **** {
  25              		.loc 1 180 0
  26              		.cfi_startproc
  27              		@ args = 0, pretend = 0, frame = 8
  28              		@ frame_needed = 1, uses_anonymous_args = 0
  29 0000 80B5     		push	{r7, lr}
  30              	.LCFI0:
  31              		.cfi_def_cfa_offset 8
  32              		.cfi_offset 7, -8
  33              		.cfi_offset 14, -4
  34 0002 82B0     		sub	sp, sp, #8
  35              	.LCFI1:
  36              		.cfi_def_cfa_offset 16
  37 0004 00AF     		add	r7, sp, #0
  38              	.LCFI2:
  39              		.cfi_def_cfa_register 7
  40 0006 7860     		str	r0, [r7, #4]
 181:../../source/src/FWlib/src/stm32f10x_adc.c ****   /* Check the parameters */
 182:../../source/src/FWlib/src/stm32f10x_adc.c ****   assert_param(IS_ADC_ALL_PERIPH(ADCx));
 183:../../source/src/FWlib/src/stm32f10x_adc.c ****   
 184:../../source/src/FWlib/src/stm32f10x_adc.c ****   if (ADCx == ADC1)
  41              		.loc 1 184 0
  42 0008 7B68     		ldr	r3, [r7, #4]
  43 000a 174A     		ldr	r2, .L6
  44 000c 9342     		cmp	r3, r2
ARM GAS  G:\Users\Jaxb\AppData\Local\Temp\cc4YWfMb.s 			page 5


  45 000e 0AD1     		bne	.L2
 185:../../source/src/FWlib/src/stm32f10x_adc.c ****   {
 186:../../source/src/FWlib/src/stm32f10x_adc.c ****     /* Enable ADC1 reset state */
 187:../../source/src/FWlib/src/stm32f10x_adc.c ****     RCC_APB2PeriphResetCmd(RCC_APB2Periph_ADC1, ENABLE);
  46              		.loc 1 187 0
  47 0010 0121     		movs	r1, #1
  48 0012 4FF40070 		mov	r0, #512
  49 0016 FFF7FEFF 		bl	RCC_APB2PeriphResetCmd
 188:../../source/src/FWlib/src/stm32f10x_adc.c ****     /* Release ADC1 from reset state */
 189:../../source/src/FWlib/src/stm32f10x_adc.c ****     RCC_APB2PeriphResetCmd(RCC_APB2Periph_ADC1, DISABLE);
  50              		.loc 1 189 0
  51 001a 0021     		movs	r1, #0
  52 001c 4FF40070 		mov	r0, #512
  53 0020 FFF7FEFF 		bl	RCC_APB2PeriphResetCmd
 190:../../source/src/FWlib/src/stm32f10x_adc.c ****   }
 191:../../source/src/FWlib/src/stm32f10x_adc.c ****   else if (ADCx == ADC2)
 192:../../source/src/FWlib/src/stm32f10x_adc.c ****   {
 193:../../source/src/FWlib/src/stm32f10x_adc.c ****     /* Enable ADC2 reset state */
 194:../../source/src/FWlib/src/stm32f10x_adc.c ****     RCC_APB2PeriphResetCmd(RCC_APB2Periph_ADC2, ENABLE);
 195:../../source/src/FWlib/src/stm32f10x_adc.c ****     /* Release ADC2 from reset state */
 196:../../source/src/FWlib/src/stm32f10x_adc.c ****     RCC_APB2PeriphResetCmd(RCC_APB2Periph_ADC2, DISABLE);
 197:../../source/src/FWlib/src/stm32f10x_adc.c ****   }
 198:../../source/src/FWlib/src/stm32f10x_adc.c ****   else
 199:../../source/src/FWlib/src/stm32f10x_adc.c ****   {
 200:../../source/src/FWlib/src/stm32f10x_adc.c ****     if (ADCx == ADC3)
 201:../../source/src/FWlib/src/stm32f10x_adc.c ****     {
 202:../../source/src/FWlib/src/stm32f10x_adc.c ****       /* Enable ADC3 reset state */
 203:../../source/src/FWlib/src/stm32f10x_adc.c ****       RCC_APB2PeriphResetCmd(RCC_APB2Periph_ADC3, ENABLE);
 204:../../source/src/FWlib/src/stm32f10x_adc.c ****       /* Release ADC3 from reset state */
 205:../../source/src/FWlib/src/stm32f10x_adc.c ****       RCC_APB2PeriphResetCmd(RCC_APB2Periph_ADC3, DISABLE);
 206:../../source/src/FWlib/src/stm32f10x_adc.c ****     }
 207:../../source/src/FWlib/src/stm32f10x_adc.c ****   }
 208:../../source/src/FWlib/src/stm32f10x_adc.c **** }
  54              		.loc 1 208 0
  55 0024 1CE0     		b	.L5
  56              	.L2:
 191:../../source/src/FWlib/src/stm32f10x_adc.c ****   {
  57              		.loc 1 191 0
  58 0026 7B68     		ldr	r3, [r7, #4]
  59 0028 104A     		ldr	r2, .L6+4
  60 002a 9342     		cmp	r3, r2
  61 002c 0AD1     		bne	.L4
 194:../../source/src/FWlib/src/stm32f10x_adc.c ****     /* Release ADC2 from reset state */
  62              		.loc 1 194 0
  63 002e 0121     		movs	r1, #1
  64 0030 4FF48060 		mov	r0, #1024
  65 0034 FFF7FEFF 		bl	RCC_APB2PeriphResetCmd
 196:../../source/src/FWlib/src/stm32f10x_adc.c ****   }
  66              		.loc 1 196 0
  67 0038 0021     		movs	r1, #0
  68 003a 4FF48060 		mov	r0, #1024
  69 003e FFF7FEFF 		bl	RCC_APB2PeriphResetCmd
  70              		.loc 1 208 0
  71 0042 0DE0     		b	.L5
  72              	.L4:
 200:../../source/src/FWlib/src/stm32f10x_adc.c ****     {
  73              		.loc 1 200 0
ARM GAS  G:\Users\Jaxb\AppData\Local\Temp\cc4YWfMb.s 			page 6


  74 0044 7B68     		ldr	r3, [r7, #4]
  75 0046 0A4A     		ldr	r2, .L6+8
  76 0048 9342     		cmp	r3, r2
  77 004a 09D1     		bne	.L5
 203:../../source/src/FWlib/src/stm32f10x_adc.c ****       /* Release ADC3 from reset state */
  78              		.loc 1 203 0
  79 004c 0121     		movs	r1, #1
  80 004e 4FF40040 		mov	r0, #32768
  81 0052 FFF7FEFF 		bl	RCC_APB2PeriphResetCmd
 205:../../source/src/FWlib/src/stm32f10x_adc.c ****     }
  82              		.loc 1 205 0
  83 0056 0021     		movs	r1, #0
  84 0058 4FF40040 		mov	r0, #32768
  85 005c FFF7FEFF 		bl	RCC_APB2PeriphResetCmd
  86              	.L5:
  87              		.loc 1 208 0
  88 0060 00BF     		nop
  89 0062 0837     		adds	r7, r7, #8
  90              	.LCFI3:
  91              		.cfi_def_cfa_offset 8
  92 0064 BD46     		mov	sp, r7
  93              	.LCFI4:
  94              		.cfi_def_cfa_register 13
  95              		@ sp needed
  96 0066 80BD     		pop	{r7, pc}
  97              	.L7:
  98              		.align	2
  99              	.L6:
 100 0068 00240140 		.word	1073816576
 101 006c 00280140 		.word	1073817600
 102 0070 003C0140 		.word	1073822720
 103              		.cfi_endproc
 104              	.LFE29:
 105              		.size	ADC_DeInit, .-ADC_DeInit
 106              		.align	1
 107              		.global	ADC_Init
 108              		.syntax unified
 109              		.thumb
 110              		.thumb_func
 111              		.fpu softvfp
 112              		.type	ADC_Init, %function
 113              	ADC_Init:
 114              	.LFB30:
 209:../../source/src/FWlib/src/stm32f10x_adc.c **** 
 210:../../source/src/FWlib/src/stm32f10x_adc.c **** /**
 211:../../source/src/FWlib/src/stm32f10x_adc.c ****   * @brief  Initializes the ADCx peripheral according to the specified parameters
 212:../../source/src/FWlib/src/stm32f10x_adc.c ****   *         in the ADC_InitStruct.
 213:../../source/src/FWlib/src/stm32f10x_adc.c ****   * @param  ADCx: where x can be 1, 2 or 3 to select the ADC peripheral.
 214:../../source/src/FWlib/src/stm32f10x_adc.c ****   * @param  ADC_InitStruct: pointer to an ADC_InitTypeDef structure that contains
 215:../../source/src/FWlib/src/stm32f10x_adc.c ****   *         the configuration information for the specified ADC peripheral.
 216:../../source/src/FWlib/src/stm32f10x_adc.c ****   * @retval None
 217:../../source/src/FWlib/src/stm32f10x_adc.c ****   */
 218:../../source/src/FWlib/src/stm32f10x_adc.c **** void ADC_Init(ADC_TypeDef* ADCx, ADC_InitTypeDef* ADC_InitStruct)
 219:../../source/src/FWlib/src/stm32f10x_adc.c **** {
 115              		.loc 1 219 0
 116              		.cfi_startproc
 117              		@ args = 0, pretend = 0, frame = 16
ARM GAS  G:\Users\Jaxb\AppData\Local\Temp\cc4YWfMb.s 			page 7


 118              		@ frame_needed = 1, uses_anonymous_args = 0
 119              		@ link register save eliminated.
 120 0074 80B4     		push	{r7}
 121              	.LCFI5:
 122              		.cfi_def_cfa_offset 4
 123              		.cfi_offset 7, -4
 124 0076 85B0     		sub	sp, sp, #20
 125              	.LCFI6:
 126              		.cfi_def_cfa_offset 24
 127 0078 00AF     		add	r7, sp, #0
 128              	.LCFI7:
 129              		.cfi_def_cfa_register 7
 130 007a 7860     		str	r0, [r7, #4]
 131 007c 3960     		str	r1, [r7]
 220:../../source/src/FWlib/src/stm32f10x_adc.c ****   uint32_t tmpreg1 = 0;
 132              		.loc 1 220 0
 133 007e 0023     		movs	r3, #0
 134 0080 FB60     		str	r3, [r7, #12]
 221:../../source/src/FWlib/src/stm32f10x_adc.c ****   uint8_t tmpreg2 = 0;
 135              		.loc 1 221 0
 136 0082 0023     		movs	r3, #0
 137 0084 FB72     		strb	r3, [r7, #11]
 222:../../source/src/FWlib/src/stm32f10x_adc.c ****   /* Check the parameters */
 223:../../source/src/FWlib/src/stm32f10x_adc.c ****   assert_param(IS_ADC_ALL_PERIPH(ADCx));
 224:../../source/src/FWlib/src/stm32f10x_adc.c ****   assert_param(IS_ADC_MODE(ADC_InitStruct->ADC_Mode));
 225:../../source/src/FWlib/src/stm32f10x_adc.c ****   assert_param(IS_FUNCTIONAL_STATE(ADC_InitStruct->ADC_ScanConvMode));
 226:../../source/src/FWlib/src/stm32f10x_adc.c ****   assert_param(IS_FUNCTIONAL_STATE(ADC_InitStruct->ADC_ContinuousConvMode));
 227:../../source/src/FWlib/src/stm32f10x_adc.c ****   assert_param(IS_ADC_EXT_TRIG(ADC_InitStruct->ADC_ExternalTrigConv));   
 228:../../source/src/FWlib/src/stm32f10x_adc.c ****   assert_param(IS_ADC_DATA_ALIGN(ADC_InitStruct->ADC_DataAlign)); 
 229:../../source/src/FWlib/src/stm32f10x_adc.c ****   assert_param(IS_ADC_REGULAR_LENGTH(ADC_InitStruct->ADC_NbrOfChannel));
 230:../../source/src/FWlib/src/stm32f10x_adc.c **** 
 231:../../source/src/FWlib/src/stm32f10x_adc.c ****   /*---------------------------- ADCx CR1 Configuration -----------------*/
 232:../../source/src/FWlib/src/stm32f10x_adc.c ****   /* Get the ADCx CR1 value */
 233:../../source/src/FWlib/src/stm32f10x_adc.c ****   tmpreg1 = ADCx->CR1;
 138              		.loc 1 233 0
 139 0086 7B68     		ldr	r3, [r7, #4]
 140 0088 5B68     		ldr	r3, [r3, #4]
 141 008a FB60     		str	r3, [r7, #12]
 234:../../source/src/FWlib/src/stm32f10x_adc.c ****   /* Clear DUALMOD and SCAN bits */
 235:../../source/src/FWlib/src/stm32f10x_adc.c ****   tmpreg1 &= CR1_CLEAR_Mask;
 142              		.loc 1 235 0
 143 008c FB68     		ldr	r3, [r7, #12]
 144 008e 23F47023 		bic	r3, r3, #983040
 145 0092 23F48073 		bic	r3, r3, #256
 146 0096 FB60     		str	r3, [r7, #12]
 236:../../source/src/FWlib/src/stm32f10x_adc.c ****   /* Configure ADCx: Dual mode and scan conversion mode */
 237:../../source/src/FWlib/src/stm32f10x_adc.c ****   /* Set DUALMOD bits according to ADC_Mode value */
 238:../../source/src/FWlib/src/stm32f10x_adc.c ****   /* Set SCAN bit according to ADC_ScanConvMode value */
 239:../../source/src/FWlib/src/stm32f10x_adc.c ****   tmpreg1 |= (uint32_t)(ADC_InitStruct->ADC_Mode | ((uint32_t)ADC_InitStruct->ADC_ScanConvMode << 8
 147              		.loc 1 239 0
 148 0098 3B68     		ldr	r3, [r7]
 149 009a 1A68     		ldr	r2, [r3]
 150 009c 3B68     		ldr	r3, [r7]
 151 009e 1B79     		ldrb	r3, [r3, #4]	@ zero_extendqisi2
 152 00a0 1B02     		lsls	r3, r3, #8
 153 00a2 1343     		orrs	r3, r3, r2
 154 00a4 FA68     		ldr	r2, [r7, #12]
ARM GAS  G:\Users\Jaxb\AppData\Local\Temp\cc4YWfMb.s 			page 8


 155 00a6 1343     		orrs	r3, r3, r2
 156 00a8 FB60     		str	r3, [r7, #12]
 240:../../source/src/FWlib/src/stm32f10x_adc.c ****   /* Write to ADCx CR1 */
 241:../../source/src/FWlib/src/stm32f10x_adc.c ****   ADCx->CR1 = tmpreg1;
 157              		.loc 1 241 0
 158 00aa 7B68     		ldr	r3, [r7, #4]
 159 00ac FA68     		ldr	r2, [r7, #12]
 160 00ae 5A60     		str	r2, [r3, #4]
 242:../../source/src/FWlib/src/stm32f10x_adc.c **** 
 243:../../source/src/FWlib/src/stm32f10x_adc.c ****   /*---------------------------- ADCx CR2 Configuration -----------------*/
 244:../../source/src/FWlib/src/stm32f10x_adc.c ****   /* Get the ADCx CR2 value */
 245:../../source/src/FWlib/src/stm32f10x_adc.c ****   tmpreg1 = ADCx->CR2;
 161              		.loc 1 245 0
 162 00b0 7B68     		ldr	r3, [r7, #4]
 163 00b2 9B68     		ldr	r3, [r3, #8]
 164 00b4 FB60     		str	r3, [r7, #12]
 246:../../source/src/FWlib/src/stm32f10x_adc.c ****   /* Clear CONT, ALIGN and EXTSEL bits */
 247:../../source/src/FWlib/src/stm32f10x_adc.c ****   tmpreg1 &= CR2_CLEAR_Mask;
 165              		.loc 1 247 0
 166 00b6 FA68     		ldr	r2, [r7, #12]
 167 00b8 164B     		ldr	r3, .L9
 168 00ba 1340     		ands	r3, r3, r2
 169 00bc FB60     		str	r3, [r7, #12]
 248:../../source/src/FWlib/src/stm32f10x_adc.c ****   /* Configure ADCx: external trigger event and continuous conversion mode */
 249:../../source/src/FWlib/src/stm32f10x_adc.c ****   /* Set ALIGN bit according to ADC_DataAlign value */
 250:../../source/src/FWlib/src/stm32f10x_adc.c ****   /* Set EXTSEL bits according to ADC_ExternalTrigConv value */
 251:../../source/src/FWlib/src/stm32f10x_adc.c ****   /* Set CONT bit according to ADC_ContinuousConvMode value */
 252:../../source/src/FWlib/src/stm32f10x_adc.c ****   tmpreg1 |= (uint32_t)(ADC_InitStruct->ADC_DataAlign | ADC_InitStruct->ADC_ExternalTrigConv |
 170              		.loc 1 252 0
 171 00be 3B68     		ldr	r3, [r7]
 172 00c0 DA68     		ldr	r2, [r3, #12]
 173 00c2 3B68     		ldr	r3, [r7]
 174 00c4 9B68     		ldr	r3, [r3, #8]
 175 00c6 1A43     		orrs	r2, r2, r3
 253:../../source/src/FWlib/src/stm32f10x_adc.c ****             ((uint32_t)ADC_InitStruct->ADC_ContinuousConvMode << 1));
 176              		.loc 1 253 0
 177 00c8 3B68     		ldr	r3, [r7]
 178 00ca 5B79     		ldrb	r3, [r3, #5]	@ zero_extendqisi2
 179 00cc 5B00     		lsls	r3, r3, #1
 252:../../source/src/FWlib/src/stm32f10x_adc.c ****             ((uint32_t)ADC_InitStruct->ADC_ContinuousConvMode << 1));
 180              		.loc 1 252 0
 181 00ce 1343     		orrs	r3, r3, r2
 182 00d0 FA68     		ldr	r2, [r7, #12]
 183 00d2 1343     		orrs	r3, r3, r2
 184 00d4 FB60     		str	r3, [r7, #12]
 254:../../source/src/FWlib/src/stm32f10x_adc.c ****   /* Write to ADCx CR2 */
 255:../../source/src/FWlib/src/stm32f10x_adc.c ****   ADCx->CR2 = tmpreg1;
 185              		.loc 1 255 0
 186 00d6 7B68     		ldr	r3, [r7, #4]
 187 00d8 FA68     		ldr	r2, [r7, #12]
 188 00da 9A60     		str	r2, [r3, #8]
 256:../../source/src/FWlib/src/stm32f10x_adc.c **** 
 257:../../source/src/FWlib/src/stm32f10x_adc.c ****   /*---------------------------- ADCx SQR1 Configuration -----------------*/
 258:../../source/src/FWlib/src/stm32f10x_adc.c ****   /* Get the ADCx SQR1 value */
 259:../../source/src/FWlib/src/stm32f10x_adc.c ****   tmpreg1 = ADCx->SQR1;
 189              		.loc 1 259 0
 190 00dc 7B68     		ldr	r3, [r7, #4]
ARM GAS  G:\Users\Jaxb\AppData\Local\Temp\cc4YWfMb.s 			page 9


 191 00de DB6A     		ldr	r3, [r3, #44]
 192 00e0 FB60     		str	r3, [r7, #12]
 260:../../source/src/FWlib/src/stm32f10x_adc.c ****   /* Clear L bits */
 261:../../source/src/FWlib/src/stm32f10x_adc.c ****   tmpreg1 &= SQR1_CLEAR_Mask;
 193              		.loc 1 261 0
 194 00e2 FB68     		ldr	r3, [r7, #12]
 195 00e4 23F47003 		bic	r3, r3, #15728640
 196 00e8 FB60     		str	r3, [r7, #12]
 262:../../source/src/FWlib/src/stm32f10x_adc.c ****   /* Configure ADCx: regular channel sequence length */
 263:../../source/src/FWlib/src/stm32f10x_adc.c ****   /* Set L bits according to ADC_NbrOfChannel value */
 264:../../source/src/FWlib/src/stm32f10x_adc.c ****   tmpreg2 |= (uint8_t) (ADC_InitStruct->ADC_NbrOfChannel - (uint8_t)1);
 197              		.loc 1 264 0
 198 00ea 3B68     		ldr	r3, [r7]
 199 00ec 1B7C     		ldrb	r3, [r3, #16]	@ zero_extendqisi2
 200 00ee 013B     		subs	r3, r3, #1
 201 00f0 DAB2     		uxtb	r2, r3
 202 00f2 FB7A     		ldrb	r3, [r7, #11]
 203 00f4 1343     		orrs	r3, r3, r2
 204 00f6 FB72     		strb	r3, [r7, #11]
 265:../../source/src/FWlib/src/stm32f10x_adc.c ****   tmpreg1 |= (uint32_t)tmpreg2 << 20;
 205              		.loc 1 265 0
 206 00f8 FB7A     		ldrb	r3, [r7, #11]	@ zero_extendqisi2
 207 00fa 1B05     		lsls	r3, r3, #20
 208 00fc FA68     		ldr	r2, [r7, #12]
 209 00fe 1343     		orrs	r3, r3, r2
 210 0100 FB60     		str	r3, [r7, #12]
 266:../../source/src/FWlib/src/stm32f10x_adc.c ****   /* Write to ADCx SQR1 */
 267:../../source/src/FWlib/src/stm32f10x_adc.c ****   ADCx->SQR1 = tmpreg1;
 211              		.loc 1 267 0
 212 0102 7B68     		ldr	r3, [r7, #4]
 213 0104 FA68     		ldr	r2, [r7, #12]
 214 0106 DA62     		str	r2, [r3, #44]
 268:../../source/src/FWlib/src/stm32f10x_adc.c **** }
 215              		.loc 1 268 0
 216 0108 00BF     		nop
 217 010a 1437     		adds	r7, r7, #20
 218              	.LCFI8:
 219              		.cfi_def_cfa_offset 4
 220 010c BD46     		mov	sp, r7
 221              	.LCFI9:
 222              		.cfi_def_cfa_register 13
 223              		@ sp needed
 224 010e 80BC     		pop	{r7}
 225              	.LCFI10:
 226              		.cfi_restore 7
 227              		.cfi_def_cfa_offset 0
 228 0110 7047     		bx	lr
 229              	.L10:
 230 0112 00BF     		.align	2
 231              	.L9:
 232 0114 FDF7F1FF 		.word	-919555
 233              		.cfi_endproc
 234              	.LFE30:
 235              		.size	ADC_Init, .-ADC_Init
 236              		.align	1
 237              		.global	ADC_StructInit
 238              		.syntax unified
ARM GAS  G:\Users\Jaxb\AppData\Local\Temp\cc4YWfMb.s 			page 10


 239              		.thumb
 240              		.thumb_func
 241              		.fpu softvfp
 242              		.type	ADC_StructInit, %function
 243              	ADC_StructInit:
 244              	.LFB31:
 269:../../source/src/FWlib/src/stm32f10x_adc.c **** 
 270:../../source/src/FWlib/src/stm32f10x_adc.c **** /**
 271:../../source/src/FWlib/src/stm32f10x_adc.c ****   * @brief  Fills each ADC_InitStruct member with its default value.
 272:../../source/src/FWlib/src/stm32f10x_adc.c ****   * @param  ADC_InitStruct : pointer to an ADC_InitTypeDef structure which will be initialized.
 273:../../source/src/FWlib/src/stm32f10x_adc.c ****   * @retval None
 274:../../source/src/FWlib/src/stm32f10x_adc.c ****   */
 275:../../source/src/FWlib/src/stm32f10x_adc.c **** void ADC_StructInit(ADC_InitTypeDef* ADC_InitStruct)
 276:../../source/src/FWlib/src/stm32f10x_adc.c **** {
 245              		.loc 1 276 0
 246              		.cfi_startproc
 247              		@ args = 0, pretend = 0, frame = 8
 248              		@ frame_needed = 1, uses_anonymous_args = 0
 249              		@ link register save eliminated.
 250 0118 80B4     		push	{r7}
 251              	.LCFI11:
 252              		.cfi_def_cfa_offset 4
 253              		.cfi_offset 7, -4
 254 011a 83B0     		sub	sp, sp, #12
 255              	.LCFI12:
 256              		.cfi_def_cfa_offset 16
 257 011c 00AF     		add	r7, sp, #0
 258              	.LCFI13:
 259              		.cfi_def_cfa_register 7
 260 011e 7860     		str	r0, [r7, #4]
 277:../../source/src/FWlib/src/stm32f10x_adc.c ****   /* Reset ADC init structure parameters values */
 278:../../source/src/FWlib/src/stm32f10x_adc.c ****   /* Initialize the ADC_Mode member */
 279:../../source/src/FWlib/src/stm32f10x_adc.c ****   ADC_InitStruct->ADC_Mode = ADC_Mode_Independent;
 261              		.loc 1 279 0
 262 0120 7B68     		ldr	r3, [r7, #4]
 263 0122 0022     		movs	r2, #0
 264 0124 1A60     		str	r2, [r3]
 280:../../source/src/FWlib/src/stm32f10x_adc.c ****   /* initialize the ADC_ScanConvMode member */
 281:../../source/src/FWlib/src/stm32f10x_adc.c ****   ADC_InitStruct->ADC_ScanConvMode = DISABLE;
 265              		.loc 1 281 0
 266 0126 7B68     		ldr	r3, [r7, #4]
 267 0128 0022     		movs	r2, #0
 268 012a 1A71     		strb	r2, [r3, #4]
 282:../../source/src/FWlib/src/stm32f10x_adc.c ****   /* Initialize the ADC_ContinuousConvMode member */
 283:../../source/src/FWlib/src/stm32f10x_adc.c ****   ADC_InitStruct->ADC_ContinuousConvMode = DISABLE;
 269              		.loc 1 283 0
 270 012c 7B68     		ldr	r3, [r7, #4]
 271 012e 0022     		movs	r2, #0
 272 0130 5A71     		strb	r2, [r3, #5]
 284:../../source/src/FWlib/src/stm32f10x_adc.c ****   /* Initialize the ADC_ExternalTrigConv member */
 285:../../source/src/FWlib/src/stm32f10x_adc.c ****   ADC_InitStruct->ADC_ExternalTrigConv = ADC_ExternalTrigConv_T1_CC1;
 273              		.loc 1 285 0
 274 0132 7B68     		ldr	r3, [r7, #4]
 275 0134 0022     		movs	r2, #0
 276 0136 9A60     		str	r2, [r3, #8]
 286:../../source/src/FWlib/src/stm32f10x_adc.c ****   /* Initialize the ADC_DataAlign member */
 287:../../source/src/FWlib/src/stm32f10x_adc.c ****   ADC_InitStruct->ADC_DataAlign = ADC_DataAlign_Right;
ARM GAS  G:\Users\Jaxb\AppData\Local\Temp\cc4YWfMb.s 			page 11


 277              		.loc 1 287 0
 278 0138 7B68     		ldr	r3, [r7, #4]
 279 013a 0022     		movs	r2, #0
 280 013c DA60     		str	r2, [r3, #12]
 288:../../source/src/FWlib/src/stm32f10x_adc.c ****   /* Initialize the ADC_NbrOfChannel member */
 289:../../source/src/FWlib/src/stm32f10x_adc.c ****   ADC_InitStruct->ADC_NbrOfChannel = 1;
 281              		.loc 1 289 0
 282 013e 7B68     		ldr	r3, [r7, #4]
 283 0140 0122     		movs	r2, #1
 284 0142 1A74     		strb	r2, [r3, #16]
 290:../../source/src/FWlib/src/stm32f10x_adc.c **** }
 285              		.loc 1 290 0
 286 0144 00BF     		nop
 287 0146 0C37     		adds	r7, r7, #12
 288              	.LCFI14:
 289              		.cfi_def_cfa_offset 4
 290 0148 BD46     		mov	sp, r7
 291              	.LCFI15:
 292              		.cfi_def_cfa_register 13
 293              		@ sp needed
 294 014a 80BC     		pop	{r7}
 295              	.LCFI16:
 296              		.cfi_restore 7
 297              		.cfi_def_cfa_offset 0
 298 014c 7047     		bx	lr
 299              		.cfi_endproc
 300              	.LFE31:
 301              		.size	ADC_StructInit, .-ADC_StructInit
 302              		.align	1
 303              		.global	ADC_Cmd
 304              		.syntax unified
 305              		.thumb
 306              		.thumb_func
 307              		.fpu softvfp
 308              		.type	ADC_Cmd, %function
 309              	ADC_Cmd:
 310              	.LFB32:
 291:../../source/src/FWlib/src/stm32f10x_adc.c **** 
 292:../../source/src/FWlib/src/stm32f10x_adc.c **** /**
 293:../../source/src/FWlib/src/stm32f10x_adc.c ****   * @brief  Enables or disables the specified ADC peripheral.
 294:../../source/src/FWlib/src/stm32f10x_adc.c ****   * @param  ADCx: where x can be 1, 2 or 3 to select the ADC peripheral.
 295:../../source/src/FWlib/src/stm32f10x_adc.c ****   * @param  NewState: new state of the ADCx peripheral.
 296:../../source/src/FWlib/src/stm32f10x_adc.c ****   *   This parameter can be: ENABLE or DISABLE.
 297:../../source/src/FWlib/src/stm32f10x_adc.c ****   * @retval None
 298:../../source/src/FWlib/src/stm32f10x_adc.c ****   */
 299:../../source/src/FWlib/src/stm32f10x_adc.c **** void ADC_Cmd(ADC_TypeDef* ADCx, FunctionalState NewState)
 300:../../source/src/FWlib/src/stm32f10x_adc.c **** {
 311              		.loc 1 300 0
 312              		.cfi_startproc
 313              		@ args = 0, pretend = 0, frame = 8
 314              		@ frame_needed = 1, uses_anonymous_args = 0
 315              		@ link register save eliminated.
 316 014e 80B4     		push	{r7}
 317              	.LCFI17:
 318              		.cfi_def_cfa_offset 4
 319              		.cfi_offset 7, -4
 320 0150 83B0     		sub	sp, sp, #12
ARM GAS  G:\Users\Jaxb\AppData\Local\Temp\cc4YWfMb.s 			page 12


 321              	.LCFI18:
 322              		.cfi_def_cfa_offset 16
 323 0152 00AF     		add	r7, sp, #0
 324              	.LCFI19:
 325              		.cfi_def_cfa_register 7
 326 0154 7860     		str	r0, [r7, #4]
 327 0156 0B46     		mov	r3, r1
 328 0158 FB70     		strb	r3, [r7, #3]
 301:../../source/src/FWlib/src/stm32f10x_adc.c ****   /* Check the parameters */
 302:../../source/src/FWlib/src/stm32f10x_adc.c ****   assert_param(IS_ADC_ALL_PERIPH(ADCx));
 303:../../source/src/FWlib/src/stm32f10x_adc.c ****   assert_param(IS_FUNCTIONAL_STATE(NewState));
 304:../../source/src/FWlib/src/stm32f10x_adc.c ****   if (NewState != DISABLE)
 329              		.loc 1 304 0
 330 015a FB78     		ldrb	r3, [r7, #3]	@ zero_extendqisi2
 331 015c 002B     		cmp	r3, #0
 332 015e 06D0     		beq	.L13
 305:../../source/src/FWlib/src/stm32f10x_adc.c ****   {
 306:../../source/src/FWlib/src/stm32f10x_adc.c ****     /* Set the ADON bit to wake up the ADC from power down mode */
 307:../../source/src/FWlib/src/stm32f10x_adc.c ****     ADCx->CR2 |= CR2_ADON_Set;
 333              		.loc 1 307 0
 334 0160 7B68     		ldr	r3, [r7, #4]
 335 0162 9B68     		ldr	r3, [r3, #8]
 336 0164 43F00102 		orr	r2, r3, #1
 337 0168 7B68     		ldr	r3, [r7, #4]
 338 016a 9A60     		str	r2, [r3, #8]
 308:../../source/src/FWlib/src/stm32f10x_adc.c ****   }
 309:../../source/src/FWlib/src/stm32f10x_adc.c ****   else
 310:../../source/src/FWlib/src/stm32f10x_adc.c ****   {
 311:../../source/src/FWlib/src/stm32f10x_adc.c ****     /* Disable the selected ADC peripheral */
 312:../../source/src/FWlib/src/stm32f10x_adc.c ****     ADCx->CR2 &= CR2_ADON_Reset;
 313:../../source/src/FWlib/src/stm32f10x_adc.c ****   }
 314:../../source/src/FWlib/src/stm32f10x_adc.c **** }
 339              		.loc 1 314 0
 340 016c 05E0     		b	.L15
 341              	.L13:
 312:../../source/src/FWlib/src/stm32f10x_adc.c ****   }
 342              		.loc 1 312 0
 343 016e 7B68     		ldr	r3, [r7, #4]
 344 0170 9B68     		ldr	r3, [r3, #8]
 345 0172 23F00102 		bic	r2, r3, #1
 346 0176 7B68     		ldr	r3, [r7, #4]
 347 0178 9A60     		str	r2, [r3, #8]
 348              	.L15:
 349              		.loc 1 314 0
 350 017a 00BF     		nop
 351 017c 0C37     		adds	r7, r7, #12
 352              	.LCFI20:
 353              		.cfi_def_cfa_offset 4
 354 017e BD46     		mov	sp, r7
 355              	.LCFI21:
 356              		.cfi_def_cfa_register 13
 357              		@ sp needed
 358 0180 80BC     		pop	{r7}
 359              	.LCFI22:
 360              		.cfi_restore 7
 361              		.cfi_def_cfa_offset 0
 362 0182 7047     		bx	lr
ARM GAS  G:\Users\Jaxb\AppData\Local\Temp\cc4YWfMb.s 			page 13


 363              		.cfi_endproc
 364              	.LFE32:
 365              		.size	ADC_Cmd, .-ADC_Cmd
 366              		.align	1
 367              		.global	ADC_DMACmd
 368              		.syntax unified
 369              		.thumb
 370              		.thumb_func
 371              		.fpu softvfp
 372              		.type	ADC_DMACmd, %function
 373              	ADC_DMACmd:
 374              	.LFB33:
 315:../../source/src/FWlib/src/stm32f10x_adc.c **** 
 316:../../source/src/FWlib/src/stm32f10x_adc.c **** /**
 317:../../source/src/FWlib/src/stm32f10x_adc.c ****   * @brief  Enables or disables the specified ADC DMA request.
 318:../../source/src/FWlib/src/stm32f10x_adc.c ****   * @param  ADCx: where x can be 1 or 3 to select the ADC peripheral.
 319:../../source/src/FWlib/src/stm32f10x_adc.c ****   *   Note: ADC2 hasn't a DMA capability.
 320:../../source/src/FWlib/src/stm32f10x_adc.c ****   * @param  NewState: new state of the selected ADC DMA transfer.
 321:../../source/src/FWlib/src/stm32f10x_adc.c ****   *   This parameter can be: ENABLE or DISABLE.
 322:../../source/src/FWlib/src/stm32f10x_adc.c ****   * @retval None
 323:../../source/src/FWlib/src/stm32f10x_adc.c ****   */
 324:../../source/src/FWlib/src/stm32f10x_adc.c **** void ADC_DMACmd(ADC_TypeDef* ADCx, FunctionalState NewState)
 325:../../source/src/FWlib/src/stm32f10x_adc.c **** {
 375              		.loc 1 325 0
 376              		.cfi_startproc
 377              		@ args = 0, pretend = 0, frame = 8
 378              		@ frame_needed = 1, uses_anonymous_args = 0
 379              		@ link register save eliminated.
 380 0184 80B4     		push	{r7}
 381              	.LCFI23:
 382              		.cfi_def_cfa_offset 4
 383              		.cfi_offset 7, -4
 384 0186 83B0     		sub	sp, sp, #12
 385              	.LCFI24:
 386              		.cfi_def_cfa_offset 16
 387 0188 00AF     		add	r7, sp, #0
 388              	.LCFI25:
 389              		.cfi_def_cfa_register 7
 390 018a 7860     		str	r0, [r7, #4]
 391 018c 0B46     		mov	r3, r1
 392 018e FB70     		strb	r3, [r7, #3]
 326:../../source/src/FWlib/src/stm32f10x_adc.c ****   /* Check the parameters */
 327:../../source/src/FWlib/src/stm32f10x_adc.c ****   assert_param(IS_ADC_DMA_PERIPH(ADCx));
 328:../../source/src/FWlib/src/stm32f10x_adc.c ****   assert_param(IS_FUNCTIONAL_STATE(NewState));
 329:../../source/src/FWlib/src/stm32f10x_adc.c ****   if (NewState != DISABLE)
 393              		.loc 1 329 0
 394 0190 FB78     		ldrb	r3, [r7, #3]	@ zero_extendqisi2
 395 0192 002B     		cmp	r3, #0
 396 0194 06D0     		beq	.L17
 330:../../source/src/FWlib/src/stm32f10x_adc.c ****   {
 331:../../source/src/FWlib/src/stm32f10x_adc.c ****     /* Enable the selected ADC DMA request */
 332:../../source/src/FWlib/src/stm32f10x_adc.c ****     ADCx->CR2 |= CR2_DMA_Set;
 397              		.loc 1 332 0
 398 0196 7B68     		ldr	r3, [r7, #4]
 399 0198 9B68     		ldr	r3, [r3, #8]
 400 019a 43F48072 		orr	r2, r3, #256
 401 019e 7B68     		ldr	r3, [r7, #4]
ARM GAS  G:\Users\Jaxb\AppData\Local\Temp\cc4YWfMb.s 			page 14


 402 01a0 9A60     		str	r2, [r3, #8]
 333:../../source/src/FWlib/src/stm32f10x_adc.c ****   }
 334:../../source/src/FWlib/src/stm32f10x_adc.c ****   else
 335:../../source/src/FWlib/src/stm32f10x_adc.c ****   {
 336:../../source/src/FWlib/src/stm32f10x_adc.c ****     /* Disable the selected ADC DMA request */
 337:../../source/src/FWlib/src/stm32f10x_adc.c ****     ADCx->CR2 &= CR2_DMA_Reset;
 338:../../source/src/FWlib/src/stm32f10x_adc.c ****   }
 339:../../source/src/FWlib/src/stm32f10x_adc.c **** }
 403              		.loc 1 339 0
 404 01a2 05E0     		b	.L19
 405              	.L17:
 337:../../source/src/FWlib/src/stm32f10x_adc.c ****   }
 406              		.loc 1 337 0
 407 01a4 7B68     		ldr	r3, [r7, #4]
 408 01a6 9B68     		ldr	r3, [r3, #8]
 409 01a8 23F48072 		bic	r2, r3, #256
 410 01ac 7B68     		ldr	r3, [r7, #4]
 411 01ae 9A60     		str	r2, [r3, #8]
 412              	.L19:
 413              		.loc 1 339 0
 414 01b0 00BF     		nop
 415 01b2 0C37     		adds	r7, r7, #12
 416              	.LCFI26:
 417              		.cfi_def_cfa_offset 4
 418 01b4 BD46     		mov	sp, r7
 419              	.LCFI27:
 420              		.cfi_def_cfa_register 13
 421              		@ sp needed
 422 01b6 80BC     		pop	{r7}
 423              	.LCFI28:
 424              		.cfi_restore 7
 425              		.cfi_def_cfa_offset 0
 426 01b8 7047     		bx	lr
 427              		.cfi_endproc
 428              	.LFE33:
 429              		.size	ADC_DMACmd, .-ADC_DMACmd
 430              		.align	1
 431              		.global	ADC_ITConfig
 432              		.syntax unified
 433              		.thumb
 434              		.thumb_func
 435              		.fpu softvfp
 436              		.type	ADC_ITConfig, %function
 437              	ADC_ITConfig:
 438              	.LFB34:
 340:../../source/src/FWlib/src/stm32f10x_adc.c **** 
 341:../../source/src/FWlib/src/stm32f10x_adc.c **** /**
 342:../../source/src/FWlib/src/stm32f10x_adc.c ****   * @brief  Enables or disables the specified ADC interrupts.
 343:../../source/src/FWlib/src/stm32f10x_adc.c ****   * @param  ADCx: where x can be 1, 2 or 3 to select the ADC peripheral.
 344:../../source/src/FWlib/src/stm32f10x_adc.c ****   * @param  ADC_IT: specifies the ADC interrupt sources to be enabled or disabled. 
 345:../../source/src/FWlib/src/stm32f10x_adc.c ****   *   This parameter can be any combination of the following values:
 346:../../source/src/FWlib/src/stm32f10x_adc.c ****   *     @arg ADC_IT_EOC: End of conversion interrupt mask
 347:../../source/src/FWlib/src/stm32f10x_adc.c ****   *     @arg ADC_IT_AWD: Analog watchdog interrupt mask
 348:../../source/src/FWlib/src/stm32f10x_adc.c ****   *     @arg ADC_IT_JEOC: End of injected conversion interrupt mask
 349:../../source/src/FWlib/src/stm32f10x_adc.c ****   * @param  NewState: new state of the specified ADC interrupts.
 350:../../source/src/FWlib/src/stm32f10x_adc.c ****   *   This parameter can be: ENABLE or DISABLE.
 351:../../source/src/FWlib/src/stm32f10x_adc.c ****   * @retval None
ARM GAS  G:\Users\Jaxb\AppData\Local\Temp\cc4YWfMb.s 			page 15


 352:../../source/src/FWlib/src/stm32f10x_adc.c ****   */
 353:../../source/src/FWlib/src/stm32f10x_adc.c **** void ADC_ITConfig(ADC_TypeDef* ADCx, uint16_t ADC_IT, FunctionalState NewState)
 354:../../source/src/FWlib/src/stm32f10x_adc.c **** {
 439              		.loc 1 354 0
 440              		.cfi_startproc
 441              		@ args = 0, pretend = 0, frame = 16
 442              		@ frame_needed = 1, uses_anonymous_args = 0
 443              		@ link register save eliminated.
 444 01ba 80B4     		push	{r7}
 445              	.LCFI29:
 446              		.cfi_def_cfa_offset 4
 447              		.cfi_offset 7, -4
 448 01bc 85B0     		sub	sp, sp, #20
 449              	.LCFI30:
 450              		.cfi_def_cfa_offset 24
 451 01be 00AF     		add	r7, sp, #0
 452              	.LCFI31:
 453              		.cfi_def_cfa_register 7
 454 01c0 7860     		str	r0, [r7, #4]
 455 01c2 0B46     		mov	r3, r1
 456 01c4 7B80     		strh	r3, [r7, #2]	@ movhi
 457 01c6 1346     		mov	r3, r2
 458 01c8 7B70     		strb	r3, [r7, #1]
 355:../../source/src/FWlib/src/stm32f10x_adc.c ****   uint8_t itmask = 0;
 459              		.loc 1 355 0
 460 01ca 0023     		movs	r3, #0
 461 01cc FB73     		strb	r3, [r7, #15]
 356:../../source/src/FWlib/src/stm32f10x_adc.c ****   /* Check the parameters */
 357:../../source/src/FWlib/src/stm32f10x_adc.c ****   assert_param(IS_ADC_ALL_PERIPH(ADCx));
 358:../../source/src/FWlib/src/stm32f10x_adc.c ****   assert_param(IS_FUNCTIONAL_STATE(NewState));
 359:../../source/src/FWlib/src/stm32f10x_adc.c ****   assert_param(IS_ADC_IT(ADC_IT));
 360:../../source/src/FWlib/src/stm32f10x_adc.c ****   /* Get the ADC IT index */
 361:../../source/src/FWlib/src/stm32f10x_adc.c ****   itmask = (uint8_t)ADC_IT;
 462              		.loc 1 361 0
 463 01ce 7B88     		ldrh	r3, [r7, #2]	@ movhi
 464 01d0 FB73     		strb	r3, [r7, #15]
 362:../../source/src/FWlib/src/stm32f10x_adc.c ****   if (NewState != DISABLE)
 465              		.loc 1 362 0
 466 01d2 7B78     		ldrb	r3, [r7, #1]	@ zero_extendqisi2
 467 01d4 002B     		cmp	r3, #0
 468 01d6 06D0     		beq	.L21
 363:../../source/src/FWlib/src/stm32f10x_adc.c ****   {
 364:../../source/src/FWlib/src/stm32f10x_adc.c ****     /* Enable the selected ADC interrupts */
 365:../../source/src/FWlib/src/stm32f10x_adc.c ****     ADCx->CR1 |= itmask;
 469              		.loc 1 365 0
 470 01d8 7B68     		ldr	r3, [r7, #4]
 471 01da 5A68     		ldr	r2, [r3, #4]
 472 01dc FB7B     		ldrb	r3, [r7, #15]	@ zero_extendqisi2
 473 01de 1A43     		orrs	r2, r2, r3
 474 01e0 7B68     		ldr	r3, [r7, #4]
 475 01e2 5A60     		str	r2, [r3, #4]
 366:../../source/src/FWlib/src/stm32f10x_adc.c ****   }
 367:../../source/src/FWlib/src/stm32f10x_adc.c ****   else
 368:../../source/src/FWlib/src/stm32f10x_adc.c ****   {
 369:../../source/src/FWlib/src/stm32f10x_adc.c ****     /* Disable the selected ADC interrupts */
 370:../../source/src/FWlib/src/stm32f10x_adc.c ****     ADCx->CR1 &= (~(uint32_t)itmask);
 371:../../source/src/FWlib/src/stm32f10x_adc.c ****   }
ARM GAS  G:\Users\Jaxb\AppData\Local\Temp\cc4YWfMb.s 			page 16


 372:../../source/src/FWlib/src/stm32f10x_adc.c **** }
 476              		.loc 1 372 0
 477 01e4 06E0     		b	.L23
 478              	.L21:
 370:../../source/src/FWlib/src/stm32f10x_adc.c ****   }
 479              		.loc 1 370 0
 480 01e6 7B68     		ldr	r3, [r7, #4]
 481 01e8 5A68     		ldr	r2, [r3, #4]
 482 01ea FB7B     		ldrb	r3, [r7, #15]	@ zero_extendqisi2
 483 01ec DB43     		mvns	r3, r3
 484 01ee 1A40     		ands	r2, r2, r3
 485 01f0 7B68     		ldr	r3, [r7, #4]
 486 01f2 5A60     		str	r2, [r3, #4]
 487              	.L23:
 488              		.loc 1 372 0
 489 01f4 00BF     		nop
 490 01f6 1437     		adds	r7, r7, #20
 491              	.LCFI32:
 492              		.cfi_def_cfa_offset 4
 493 01f8 BD46     		mov	sp, r7
 494              	.LCFI33:
 495              		.cfi_def_cfa_register 13
 496              		@ sp needed
 497 01fa 80BC     		pop	{r7}
 498              	.LCFI34:
 499              		.cfi_restore 7
 500              		.cfi_def_cfa_offset 0
 501 01fc 7047     		bx	lr
 502              		.cfi_endproc
 503              	.LFE34:
 504              		.size	ADC_ITConfig, .-ADC_ITConfig
 505              		.align	1
 506              		.global	ADC_ResetCalibration
 507              		.syntax unified
 508              		.thumb
 509              		.thumb_func
 510              		.fpu softvfp
 511              		.type	ADC_ResetCalibration, %function
 512              	ADC_ResetCalibration:
 513              	.LFB35:
 373:../../source/src/FWlib/src/stm32f10x_adc.c **** 
 374:../../source/src/FWlib/src/stm32f10x_adc.c **** /**
 375:../../source/src/FWlib/src/stm32f10x_adc.c ****   * @brief  Resets the selected ADC calibration registers.
 376:../../source/src/FWlib/src/stm32f10x_adc.c ****   * @param  ADCx: where x can be 1, 2 or 3 to select the ADC peripheral.
 377:../../source/src/FWlib/src/stm32f10x_adc.c ****   * @retval None
 378:../../source/src/FWlib/src/stm32f10x_adc.c ****   */
 379:../../source/src/FWlib/src/stm32f10x_adc.c **** void ADC_ResetCalibration(ADC_TypeDef* ADCx)
 380:../../source/src/FWlib/src/stm32f10x_adc.c **** {
 514              		.loc 1 380 0
 515              		.cfi_startproc
 516              		@ args = 0, pretend = 0, frame = 8
 517              		@ frame_needed = 1, uses_anonymous_args = 0
 518              		@ link register save eliminated.
 519 01fe 80B4     		push	{r7}
 520              	.LCFI35:
 521              		.cfi_def_cfa_offset 4
 522              		.cfi_offset 7, -4
ARM GAS  G:\Users\Jaxb\AppData\Local\Temp\cc4YWfMb.s 			page 17


 523 0200 83B0     		sub	sp, sp, #12
 524              	.LCFI36:
 525              		.cfi_def_cfa_offset 16
 526 0202 00AF     		add	r7, sp, #0
 527              	.LCFI37:
 528              		.cfi_def_cfa_register 7
 529 0204 7860     		str	r0, [r7, #4]
 381:../../source/src/FWlib/src/stm32f10x_adc.c ****   /* Check the parameters */
 382:../../source/src/FWlib/src/stm32f10x_adc.c ****   assert_param(IS_ADC_ALL_PERIPH(ADCx));
 383:../../source/src/FWlib/src/stm32f10x_adc.c ****   /* Resets the selected ADC calibration registers */  
 384:../../source/src/FWlib/src/stm32f10x_adc.c ****   ADCx->CR2 |= CR2_RSTCAL_Set;
 530              		.loc 1 384 0
 531 0206 7B68     		ldr	r3, [r7, #4]
 532 0208 9B68     		ldr	r3, [r3, #8]
 533 020a 43F00802 		orr	r2, r3, #8
 534 020e 7B68     		ldr	r3, [r7, #4]
 535 0210 9A60     		str	r2, [r3, #8]
 385:../../source/src/FWlib/src/stm32f10x_adc.c **** }
 536              		.loc 1 385 0
 537 0212 00BF     		nop
 538 0214 0C37     		adds	r7, r7, #12
 539              	.LCFI38:
 540              		.cfi_def_cfa_offset 4
 541 0216 BD46     		mov	sp, r7
 542              	.LCFI39:
 543              		.cfi_def_cfa_register 13
 544              		@ sp needed
 545 0218 80BC     		pop	{r7}
 546              	.LCFI40:
 547              		.cfi_restore 7
 548              		.cfi_def_cfa_offset 0
 549 021a 7047     		bx	lr
 550              		.cfi_endproc
 551              	.LFE35:
 552              		.size	ADC_ResetCalibration, .-ADC_ResetCalibration
 553              		.align	1
 554              		.global	ADC_GetResetCalibrationStatus
 555              		.syntax unified
 556              		.thumb
 557              		.thumb_func
 558              		.fpu softvfp
 559              		.type	ADC_GetResetCalibrationStatus, %function
 560              	ADC_GetResetCalibrationStatus:
 561              	.LFB36:
 386:../../source/src/FWlib/src/stm32f10x_adc.c **** 
 387:../../source/src/FWlib/src/stm32f10x_adc.c **** /**
 388:../../source/src/FWlib/src/stm32f10x_adc.c ****   * @brief  Gets the selected ADC reset calibration registers status.
 389:../../source/src/FWlib/src/stm32f10x_adc.c ****   * @param  ADCx: where x can be 1, 2 or 3 to select the ADC peripheral.
 390:../../source/src/FWlib/src/stm32f10x_adc.c ****   * @retval The new state of ADC reset calibration registers (SET or RESET).
 391:../../source/src/FWlib/src/stm32f10x_adc.c ****   */
 392:../../source/src/FWlib/src/stm32f10x_adc.c **** FlagStatus ADC_GetResetCalibrationStatus(ADC_TypeDef* ADCx)
 393:../../source/src/FWlib/src/stm32f10x_adc.c **** {
 562              		.loc 1 393 0
 563              		.cfi_startproc
 564              		@ args = 0, pretend = 0, frame = 16
 565              		@ frame_needed = 1, uses_anonymous_args = 0
 566              		@ link register save eliminated.
ARM GAS  G:\Users\Jaxb\AppData\Local\Temp\cc4YWfMb.s 			page 18


 567 021c 80B4     		push	{r7}
 568              	.LCFI41:
 569              		.cfi_def_cfa_offset 4
 570              		.cfi_offset 7, -4
 571 021e 85B0     		sub	sp, sp, #20
 572              	.LCFI42:
 573              		.cfi_def_cfa_offset 24
 574 0220 00AF     		add	r7, sp, #0
 575              	.LCFI43:
 576              		.cfi_def_cfa_register 7
 577 0222 7860     		str	r0, [r7, #4]
 394:../../source/src/FWlib/src/stm32f10x_adc.c ****   FlagStatus bitstatus = RESET;
 578              		.loc 1 394 0
 579 0224 0023     		movs	r3, #0
 580 0226 FB73     		strb	r3, [r7, #15]
 395:../../source/src/FWlib/src/stm32f10x_adc.c ****   /* Check the parameters */
 396:../../source/src/FWlib/src/stm32f10x_adc.c ****   assert_param(IS_ADC_ALL_PERIPH(ADCx));
 397:../../source/src/FWlib/src/stm32f10x_adc.c ****   /* Check the status of RSTCAL bit */
 398:../../source/src/FWlib/src/stm32f10x_adc.c ****   if ((ADCx->CR2 & CR2_RSTCAL_Set) != (uint32_t)RESET)
 581              		.loc 1 398 0
 582 0228 7B68     		ldr	r3, [r7, #4]
 583 022a 9B68     		ldr	r3, [r3, #8]
 584 022c 03F00803 		and	r3, r3, #8
 585 0230 002B     		cmp	r3, #0
 586 0232 02D0     		beq	.L26
 399:../../source/src/FWlib/src/stm32f10x_adc.c ****   {
 400:../../source/src/FWlib/src/stm32f10x_adc.c ****     /* RSTCAL bit is set */
 401:../../source/src/FWlib/src/stm32f10x_adc.c ****     bitstatus = SET;
 587              		.loc 1 401 0
 588 0234 0123     		movs	r3, #1
 589 0236 FB73     		strb	r3, [r7, #15]
 590 0238 01E0     		b	.L27
 591              	.L26:
 402:../../source/src/FWlib/src/stm32f10x_adc.c ****   }
 403:../../source/src/FWlib/src/stm32f10x_adc.c ****   else
 404:../../source/src/FWlib/src/stm32f10x_adc.c ****   {
 405:../../source/src/FWlib/src/stm32f10x_adc.c ****     /* RSTCAL bit is reset */
 406:../../source/src/FWlib/src/stm32f10x_adc.c ****     bitstatus = RESET;
 592              		.loc 1 406 0
 593 023a 0023     		movs	r3, #0
 594 023c FB73     		strb	r3, [r7, #15]
 595              	.L27:
 407:../../source/src/FWlib/src/stm32f10x_adc.c ****   }
 408:../../source/src/FWlib/src/stm32f10x_adc.c ****   /* Return the RSTCAL bit status */
 409:../../source/src/FWlib/src/stm32f10x_adc.c ****   return  bitstatus;
 596              		.loc 1 409 0
 597 023e FB7B     		ldrb	r3, [r7, #15]	@ zero_extendqisi2
 410:../../source/src/FWlib/src/stm32f10x_adc.c **** }
 598              		.loc 1 410 0
 599 0240 1846     		mov	r0, r3
 600 0242 1437     		adds	r7, r7, #20
 601              	.LCFI44:
 602              		.cfi_def_cfa_offset 4
 603 0244 BD46     		mov	sp, r7
 604              	.LCFI45:
 605              		.cfi_def_cfa_register 13
 606              		@ sp needed
ARM GAS  G:\Users\Jaxb\AppData\Local\Temp\cc4YWfMb.s 			page 19


 607 0246 80BC     		pop	{r7}
 608              	.LCFI46:
 609              		.cfi_restore 7
 610              		.cfi_def_cfa_offset 0
 611 0248 7047     		bx	lr
 612              		.cfi_endproc
 613              	.LFE36:
 614              		.size	ADC_GetResetCalibrationStatus, .-ADC_GetResetCalibrationStatus
 615              		.align	1
 616              		.global	ADC_StartCalibration
 617              		.syntax unified
 618              		.thumb
 619              		.thumb_func
 620              		.fpu softvfp
 621              		.type	ADC_StartCalibration, %function
 622              	ADC_StartCalibration:
 623              	.LFB37:
 411:../../source/src/FWlib/src/stm32f10x_adc.c **** 
 412:../../source/src/FWlib/src/stm32f10x_adc.c **** /**
 413:../../source/src/FWlib/src/stm32f10x_adc.c ****   * @brief  Starts the selected ADC calibration process.
 414:../../source/src/FWlib/src/stm32f10x_adc.c ****   * @param  ADCx: where x can be 1, 2 or 3 to select the ADC peripheral.
 415:../../source/src/FWlib/src/stm32f10x_adc.c ****   * @retval None
 416:../../source/src/FWlib/src/stm32f10x_adc.c ****   */
 417:../../source/src/FWlib/src/stm32f10x_adc.c **** void ADC_StartCalibration(ADC_TypeDef* ADCx)
 418:../../source/src/FWlib/src/stm32f10x_adc.c **** {
 624              		.loc 1 418 0
 625              		.cfi_startproc
 626              		@ args = 0, pretend = 0, frame = 8
 627              		@ frame_needed = 1, uses_anonymous_args = 0
 628              		@ link register save eliminated.
 629 024a 80B4     		push	{r7}
 630              	.LCFI47:
 631              		.cfi_def_cfa_offset 4
 632              		.cfi_offset 7, -4
 633 024c 83B0     		sub	sp, sp, #12
 634              	.LCFI48:
 635              		.cfi_def_cfa_offset 16
 636 024e 00AF     		add	r7, sp, #0
 637              	.LCFI49:
 638              		.cfi_def_cfa_register 7
 639 0250 7860     		str	r0, [r7, #4]
 419:../../source/src/FWlib/src/stm32f10x_adc.c ****   /* Check the parameters */
 420:../../source/src/FWlib/src/stm32f10x_adc.c ****   assert_param(IS_ADC_ALL_PERIPH(ADCx));
 421:../../source/src/FWlib/src/stm32f10x_adc.c ****   /* Enable the selected ADC calibration process */  
 422:../../source/src/FWlib/src/stm32f10x_adc.c ****   ADCx->CR2 |= CR2_CAL_Set;
 640              		.loc 1 422 0
 641 0252 7B68     		ldr	r3, [r7, #4]
 642 0254 9B68     		ldr	r3, [r3, #8]
 643 0256 43F00402 		orr	r2, r3, #4
 644 025a 7B68     		ldr	r3, [r7, #4]
 645 025c 9A60     		str	r2, [r3, #8]
 423:../../source/src/FWlib/src/stm32f10x_adc.c **** }
 646              		.loc 1 423 0
 647 025e 00BF     		nop
 648 0260 0C37     		adds	r7, r7, #12
 649              	.LCFI50:
 650              		.cfi_def_cfa_offset 4
ARM GAS  G:\Users\Jaxb\AppData\Local\Temp\cc4YWfMb.s 			page 20


 651 0262 BD46     		mov	sp, r7
 652              	.LCFI51:
 653              		.cfi_def_cfa_register 13
 654              		@ sp needed
 655 0264 80BC     		pop	{r7}
 656              	.LCFI52:
 657              		.cfi_restore 7
 658              		.cfi_def_cfa_offset 0
 659 0266 7047     		bx	lr
 660              		.cfi_endproc
 661              	.LFE37:
 662              		.size	ADC_StartCalibration, .-ADC_StartCalibration
 663              		.align	1
 664              		.global	ADC_GetCalibrationStatus
 665              		.syntax unified
 666              		.thumb
 667              		.thumb_func
 668              		.fpu softvfp
 669              		.type	ADC_GetCalibrationStatus, %function
 670              	ADC_GetCalibrationStatus:
 671              	.LFB38:
 424:../../source/src/FWlib/src/stm32f10x_adc.c **** 
 425:../../source/src/FWlib/src/stm32f10x_adc.c **** /**
 426:../../source/src/FWlib/src/stm32f10x_adc.c ****   * @brief  Gets the selected ADC calibration status.
 427:../../source/src/FWlib/src/stm32f10x_adc.c ****   * @param  ADCx: where x can be 1, 2 or 3 to select the ADC peripheral.
 428:../../source/src/FWlib/src/stm32f10x_adc.c ****   * @retval The new state of ADC calibration (SET or RESET).
 429:../../source/src/FWlib/src/stm32f10x_adc.c ****   */
 430:../../source/src/FWlib/src/stm32f10x_adc.c **** FlagStatus ADC_GetCalibrationStatus(ADC_TypeDef* ADCx)
 431:../../source/src/FWlib/src/stm32f10x_adc.c **** {
 672              		.loc 1 431 0
 673              		.cfi_startproc
 674              		@ args = 0, pretend = 0, frame = 16
 675              		@ frame_needed = 1, uses_anonymous_args = 0
 676              		@ link register save eliminated.
 677 0268 80B4     		push	{r7}
 678              	.LCFI53:
 679              		.cfi_def_cfa_offset 4
 680              		.cfi_offset 7, -4
 681 026a 85B0     		sub	sp, sp, #20
 682              	.LCFI54:
 683              		.cfi_def_cfa_offset 24
 684 026c 00AF     		add	r7, sp, #0
 685              	.LCFI55:
 686              		.cfi_def_cfa_register 7
 687 026e 7860     		str	r0, [r7, #4]
 432:../../source/src/FWlib/src/stm32f10x_adc.c ****   FlagStatus bitstatus = RESET;
 688              		.loc 1 432 0
 689 0270 0023     		movs	r3, #0
 690 0272 FB73     		strb	r3, [r7, #15]
 433:../../source/src/FWlib/src/stm32f10x_adc.c ****   /* Check the parameters */
 434:../../source/src/FWlib/src/stm32f10x_adc.c ****   assert_param(IS_ADC_ALL_PERIPH(ADCx));
 435:../../source/src/FWlib/src/stm32f10x_adc.c ****   /* Check the status of CAL bit */
 436:../../source/src/FWlib/src/stm32f10x_adc.c ****   if ((ADCx->CR2 & CR2_CAL_Set) != (uint32_t)RESET)
 691              		.loc 1 436 0
 692 0274 7B68     		ldr	r3, [r7, #4]
 693 0276 9B68     		ldr	r3, [r3, #8]
 694 0278 03F00403 		and	r3, r3, #4
ARM GAS  G:\Users\Jaxb\AppData\Local\Temp\cc4YWfMb.s 			page 21


 695 027c 002B     		cmp	r3, #0
 696 027e 02D0     		beq	.L31
 437:../../source/src/FWlib/src/stm32f10x_adc.c ****   {
 438:../../source/src/FWlib/src/stm32f10x_adc.c ****     /* CAL bit is set: calibration on going */
 439:../../source/src/FWlib/src/stm32f10x_adc.c ****     bitstatus = SET;
 697              		.loc 1 439 0
 698 0280 0123     		movs	r3, #1
 699 0282 FB73     		strb	r3, [r7, #15]
 700 0284 01E0     		b	.L32
 701              	.L31:
 440:../../source/src/FWlib/src/stm32f10x_adc.c ****   }
 441:../../source/src/FWlib/src/stm32f10x_adc.c ****   else
 442:../../source/src/FWlib/src/stm32f10x_adc.c ****   {
 443:../../source/src/FWlib/src/stm32f10x_adc.c ****     /* CAL bit is reset: end of calibration */
 444:../../source/src/FWlib/src/stm32f10x_adc.c ****     bitstatus = RESET;
 702              		.loc 1 444 0
 703 0286 0023     		movs	r3, #0
 704 0288 FB73     		strb	r3, [r7, #15]
 705              	.L32:
 445:../../source/src/FWlib/src/stm32f10x_adc.c ****   }
 446:../../source/src/FWlib/src/stm32f10x_adc.c ****   /* Return the CAL bit status */
 447:../../source/src/FWlib/src/stm32f10x_adc.c ****   return  bitstatus;
 706              		.loc 1 447 0
 707 028a FB7B     		ldrb	r3, [r7, #15]	@ zero_extendqisi2
 448:../../source/src/FWlib/src/stm32f10x_adc.c **** }
 708              		.loc 1 448 0
 709 028c 1846     		mov	r0, r3
 710 028e 1437     		adds	r7, r7, #20
 711              	.LCFI56:
 712              		.cfi_def_cfa_offset 4
 713 0290 BD46     		mov	sp, r7
 714              	.LCFI57:
 715              		.cfi_def_cfa_register 13
 716              		@ sp needed
 717 0292 80BC     		pop	{r7}
 718              	.LCFI58:
 719              		.cfi_restore 7
 720              		.cfi_def_cfa_offset 0
 721 0294 7047     		bx	lr
 722              		.cfi_endproc
 723              	.LFE38:
 724              		.size	ADC_GetCalibrationStatus, .-ADC_GetCalibrationStatus
 725              		.align	1
 726              		.global	ADC_SoftwareStartConvCmd
 727              		.syntax unified
 728              		.thumb
 729              		.thumb_func
 730              		.fpu softvfp
 731              		.type	ADC_SoftwareStartConvCmd, %function
 732              	ADC_SoftwareStartConvCmd:
 733              	.LFB39:
 449:../../source/src/FWlib/src/stm32f10x_adc.c **** 
 450:../../source/src/FWlib/src/stm32f10x_adc.c **** /**
 451:../../source/src/FWlib/src/stm32f10x_adc.c ****   * @brief  Enables or disables the selected ADC software start conversion .
 452:../../source/src/FWlib/src/stm32f10x_adc.c ****   * @param  ADCx: where x can be 1, 2 or 3 to select the ADC peripheral.
 453:../../source/src/FWlib/src/stm32f10x_adc.c ****   * @param  NewState: new state of the selected ADC software start conversion.
 454:../../source/src/FWlib/src/stm32f10x_adc.c ****   *   This parameter can be: ENABLE or DISABLE.
ARM GAS  G:\Users\Jaxb\AppData\Local\Temp\cc4YWfMb.s 			page 22


 455:../../source/src/FWlib/src/stm32f10x_adc.c ****   * @retval None
 456:../../source/src/FWlib/src/stm32f10x_adc.c ****   */
 457:../../source/src/FWlib/src/stm32f10x_adc.c **** void ADC_SoftwareStartConvCmd(ADC_TypeDef* ADCx, FunctionalState NewState)
 458:../../source/src/FWlib/src/stm32f10x_adc.c **** {
 734              		.loc 1 458 0
 735              		.cfi_startproc
 736              		@ args = 0, pretend = 0, frame = 8
 737              		@ frame_needed = 1, uses_anonymous_args = 0
 738              		@ link register save eliminated.
 739 0296 80B4     		push	{r7}
 740              	.LCFI59:
 741              		.cfi_def_cfa_offset 4
 742              		.cfi_offset 7, -4
 743 0298 83B0     		sub	sp, sp, #12
 744              	.LCFI60:
 745              		.cfi_def_cfa_offset 16
 746 029a 00AF     		add	r7, sp, #0
 747              	.LCFI61:
 748              		.cfi_def_cfa_register 7
 749 029c 7860     		str	r0, [r7, #4]
 750 029e 0B46     		mov	r3, r1
 751 02a0 FB70     		strb	r3, [r7, #3]
 459:../../source/src/FWlib/src/stm32f10x_adc.c ****   /* Check the parameters */
 460:../../source/src/FWlib/src/stm32f10x_adc.c ****   assert_param(IS_ADC_ALL_PERIPH(ADCx));
 461:../../source/src/FWlib/src/stm32f10x_adc.c ****   assert_param(IS_FUNCTIONAL_STATE(NewState));
 462:../../source/src/FWlib/src/stm32f10x_adc.c ****   if (NewState != DISABLE)
 752              		.loc 1 462 0
 753 02a2 FB78     		ldrb	r3, [r7, #3]	@ zero_extendqisi2
 754 02a4 002B     		cmp	r3, #0
 755 02a6 06D0     		beq	.L35
 463:../../source/src/FWlib/src/stm32f10x_adc.c ****   {
 464:../../source/src/FWlib/src/stm32f10x_adc.c ****     /* Enable the selected ADC conversion on external event and start the selected
 465:../../source/src/FWlib/src/stm32f10x_adc.c ****        ADC conversion */
 466:../../source/src/FWlib/src/stm32f10x_adc.c ****     ADCx->CR2 |= CR2_EXTTRIG_SWSTART_Set;
 756              		.loc 1 466 0
 757 02a8 7B68     		ldr	r3, [r7, #4]
 758 02aa 9B68     		ldr	r3, [r3, #8]
 759 02ac 43F4A002 		orr	r2, r3, #5242880
 760 02b0 7B68     		ldr	r3, [r7, #4]
 761 02b2 9A60     		str	r2, [r3, #8]
 467:../../source/src/FWlib/src/stm32f10x_adc.c ****   }
 468:../../source/src/FWlib/src/stm32f10x_adc.c ****   else
 469:../../source/src/FWlib/src/stm32f10x_adc.c ****   {
 470:../../source/src/FWlib/src/stm32f10x_adc.c ****     /* Disable the selected ADC conversion on external event and stop the selected
 471:../../source/src/FWlib/src/stm32f10x_adc.c ****        ADC conversion */
 472:../../source/src/FWlib/src/stm32f10x_adc.c ****     ADCx->CR2 &= CR2_EXTTRIG_SWSTART_Reset;
 473:../../source/src/FWlib/src/stm32f10x_adc.c ****   }
 474:../../source/src/FWlib/src/stm32f10x_adc.c **** }
 762              		.loc 1 474 0
 763 02b4 05E0     		b	.L37
 764              	.L35:
 472:../../source/src/FWlib/src/stm32f10x_adc.c ****   }
 765              		.loc 1 472 0
 766 02b6 7B68     		ldr	r3, [r7, #4]
 767 02b8 9B68     		ldr	r3, [r3, #8]
 768 02ba 23F4A002 		bic	r2, r3, #5242880
 769 02be 7B68     		ldr	r3, [r7, #4]
ARM GAS  G:\Users\Jaxb\AppData\Local\Temp\cc4YWfMb.s 			page 23


 770 02c0 9A60     		str	r2, [r3, #8]
 771              	.L37:
 772              		.loc 1 474 0
 773 02c2 00BF     		nop
 774 02c4 0C37     		adds	r7, r7, #12
 775              	.LCFI62:
 776              		.cfi_def_cfa_offset 4
 777 02c6 BD46     		mov	sp, r7
 778              	.LCFI63:
 779              		.cfi_def_cfa_register 13
 780              		@ sp needed
 781 02c8 80BC     		pop	{r7}
 782              	.LCFI64:
 783              		.cfi_restore 7
 784              		.cfi_def_cfa_offset 0
 785 02ca 7047     		bx	lr
 786              		.cfi_endproc
 787              	.LFE39:
 788              		.size	ADC_SoftwareStartConvCmd, .-ADC_SoftwareStartConvCmd
 789              		.align	1
 790              		.global	ADC_GetSoftwareStartConvStatus
 791              		.syntax unified
 792              		.thumb
 793              		.thumb_func
 794              		.fpu softvfp
 795              		.type	ADC_GetSoftwareStartConvStatus, %function
 796              	ADC_GetSoftwareStartConvStatus:
 797              	.LFB40:
 475:../../source/src/FWlib/src/stm32f10x_adc.c **** 
 476:../../source/src/FWlib/src/stm32f10x_adc.c **** /**
 477:../../source/src/FWlib/src/stm32f10x_adc.c ****   * @brief  Gets the selected ADC Software start conversion Status.
 478:../../source/src/FWlib/src/stm32f10x_adc.c ****   * @param  ADCx: where x can be 1, 2 or 3 to select the ADC peripheral.
 479:../../source/src/FWlib/src/stm32f10x_adc.c ****   * @retval The new state of ADC software start conversion (SET or RESET).
 480:../../source/src/FWlib/src/stm32f10x_adc.c ****   */
 481:../../source/src/FWlib/src/stm32f10x_adc.c **** FlagStatus ADC_GetSoftwareStartConvStatus(ADC_TypeDef* ADCx)
 482:../../source/src/FWlib/src/stm32f10x_adc.c **** {
 798              		.loc 1 482 0
 799              		.cfi_startproc
 800              		@ args = 0, pretend = 0, frame = 16
 801              		@ frame_needed = 1, uses_anonymous_args = 0
 802              		@ link register save eliminated.
 803 02cc 80B4     		push	{r7}
 804              	.LCFI65:
 805              		.cfi_def_cfa_offset 4
 806              		.cfi_offset 7, -4
 807 02ce 85B0     		sub	sp, sp, #20
 808              	.LCFI66:
 809              		.cfi_def_cfa_offset 24
 810 02d0 00AF     		add	r7, sp, #0
 811              	.LCFI67:
 812              		.cfi_def_cfa_register 7
 813 02d2 7860     		str	r0, [r7, #4]
 483:../../source/src/FWlib/src/stm32f10x_adc.c ****   FlagStatus bitstatus = RESET;
 814              		.loc 1 483 0
 815 02d4 0023     		movs	r3, #0
 816 02d6 FB73     		strb	r3, [r7, #15]
 484:../../source/src/FWlib/src/stm32f10x_adc.c ****   /* Check the parameters */
ARM GAS  G:\Users\Jaxb\AppData\Local\Temp\cc4YWfMb.s 			page 24


 485:../../source/src/FWlib/src/stm32f10x_adc.c ****   assert_param(IS_ADC_ALL_PERIPH(ADCx));
 486:../../source/src/FWlib/src/stm32f10x_adc.c ****   /* Check the status of SWSTART bit */
 487:../../source/src/FWlib/src/stm32f10x_adc.c ****   if ((ADCx->CR2 & CR2_SWSTART_Set) != (uint32_t)RESET)
 817              		.loc 1 487 0
 818 02d8 7B68     		ldr	r3, [r7, #4]
 819 02da 9B68     		ldr	r3, [r3, #8]
 820 02dc 03F48003 		and	r3, r3, #4194304
 821 02e0 002B     		cmp	r3, #0
 822 02e2 02D0     		beq	.L39
 488:../../source/src/FWlib/src/stm32f10x_adc.c ****   {
 489:../../source/src/FWlib/src/stm32f10x_adc.c ****     /* SWSTART bit is set */
 490:../../source/src/FWlib/src/stm32f10x_adc.c ****     bitstatus = SET;
 823              		.loc 1 490 0
 824 02e4 0123     		movs	r3, #1
 825 02e6 FB73     		strb	r3, [r7, #15]
 826 02e8 01E0     		b	.L40
 827              	.L39:
 491:../../source/src/FWlib/src/stm32f10x_adc.c ****   }
 492:../../source/src/FWlib/src/stm32f10x_adc.c ****   else
 493:../../source/src/FWlib/src/stm32f10x_adc.c ****   {
 494:../../source/src/FWlib/src/stm32f10x_adc.c ****     /* SWSTART bit is reset */
 495:../../source/src/FWlib/src/stm32f10x_adc.c ****     bitstatus = RESET;
 828              		.loc 1 495 0
 829 02ea 0023     		movs	r3, #0
 830 02ec FB73     		strb	r3, [r7, #15]
 831              	.L40:
 496:../../source/src/FWlib/src/stm32f10x_adc.c ****   }
 497:../../source/src/FWlib/src/stm32f10x_adc.c ****   /* Return the SWSTART bit status */
 498:../../source/src/FWlib/src/stm32f10x_adc.c ****   return  bitstatus;
 832              		.loc 1 498 0
 833 02ee FB7B     		ldrb	r3, [r7, #15]	@ zero_extendqisi2
 499:../../source/src/FWlib/src/stm32f10x_adc.c **** }
 834              		.loc 1 499 0
 835 02f0 1846     		mov	r0, r3
 836 02f2 1437     		adds	r7, r7, #20
 837              	.LCFI68:
 838              		.cfi_def_cfa_offset 4
 839 02f4 BD46     		mov	sp, r7
 840              	.LCFI69:
 841              		.cfi_def_cfa_register 13
 842              		@ sp needed
 843 02f6 80BC     		pop	{r7}
 844              	.LCFI70:
 845              		.cfi_restore 7
 846              		.cfi_def_cfa_offset 0
 847 02f8 7047     		bx	lr
 848              		.cfi_endproc
 849              	.LFE40:
 850              		.size	ADC_GetSoftwareStartConvStatus, .-ADC_GetSoftwareStartConvStatus
 851              		.align	1
 852              		.global	ADC_DiscModeChannelCountConfig
 853              		.syntax unified
 854              		.thumb
 855              		.thumb_func
 856              		.fpu softvfp
 857              		.type	ADC_DiscModeChannelCountConfig, %function
 858              	ADC_DiscModeChannelCountConfig:
ARM GAS  G:\Users\Jaxb\AppData\Local\Temp\cc4YWfMb.s 			page 25


 859              	.LFB41:
 500:../../source/src/FWlib/src/stm32f10x_adc.c **** 
 501:../../source/src/FWlib/src/stm32f10x_adc.c **** /**
 502:../../source/src/FWlib/src/stm32f10x_adc.c ****   * @brief  Configures the discontinuous mode for the selected ADC regular
 503:../../source/src/FWlib/src/stm32f10x_adc.c ****   *         group channel.
 504:../../source/src/FWlib/src/stm32f10x_adc.c ****   * @param  ADCx: where x can be 1, 2 or 3 to select the ADC peripheral.
 505:../../source/src/FWlib/src/stm32f10x_adc.c ****   * @param  Number: specifies the discontinuous mode regular channel
 506:../../source/src/FWlib/src/stm32f10x_adc.c ****   *         count value. This number must be between 1 and 8.
 507:../../source/src/FWlib/src/stm32f10x_adc.c ****   * @retval None
 508:../../source/src/FWlib/src/stm32f10x_adc.c ****   */
 509:../../source/src/FWlib/src/stm32f10x_adc.c **** void ADC_DiscModeChannelCountConfig(ADC_TypeDef* ADCx, uint8_t Number)
 510:../../source/src/FWlib/src/stm32f10x_adc.c **** {
 860              		.loc 1 510 0
 861              		.cfi_startproc
 862              		@ args = 0, pretend = 0, frame = 16
 863              		@ frame_needed = 1, uses_anonymous_args = 0
 864              		@ link register save eliminated.
 865 02fa 80B4     		push	{r7}
 866              	.LCFI71:
 867              		.cfi_def_cfa_offset 4
 868              		.cfi_offset 7, -4
 869 02fc 85B0     		sub	sp, sp, #20
 870              	.LCFI72:
 871              		.cfi_def_cfa_offset 24
 872 02fe 00AF     		add	r7, sp, #0
 873              	.LCFI73:
 874              		.cfi_def_cfa_register 7
 875 0300 7860     		str	r0, [r7, #4]
 876 0302 0B46     		mov	r3, r1
 877 0304 FB70     		strb	r3, [r7, #3]
 511:../../source/src/FWlib/src/stm32f10x_adc.c ****   uint32_t tmpreg1 = 0;
 878              		.loc 1 511 0
 879 0306 0023     		movs	r3, #0
 880 0308 FB60     		str	r3, [r7, #12]
 512:../../source/src/FWlib/src/stm32f10x_adc.c ****   uint32_t tmpreg2 = 0;
 881              		.loc 1 512 0
 882 030a 0023     		movs	r3, #0
 883 030c BB60     		str	r3, [r7, #8]
 513:../../source/src/FWlib/src/stm32f10x_adc.c ****   /* Check the parameters */
 514:../../source/src/FWlib/src/stm32f10x_adc.c ****   assert_param(IS_ADC_ALL_PERIPH(ADCx));
 515:../../source/src/FWlib/src/stm32f10x_adc.c ****   assert_param(IS_ADC_REGULAR_DISC_NUMBER(Number));
 516:../../source/src/FWlib/src/stm32f10x_adc.c ****   /* Get the old register value */
 517:../../source/src/FWlib/src/stm32f10x_adc.c ****   tmpreg1 = ADCx->CR1;
 884              		.loc 1 517 0
 885 030e 7B68     		ldr	r3, [r7, #4]
 886 0310 5B68     		ldr	r3, [r3, #4]
 887 0312 FB60     		str	r3, [r7, #12]
 518:../../source/src/FWlib/src/stm32f10x_adc.c ****   /* Clear the old discontinuous mode channel count */
 519:../../source/src/FWlib/src/stm32f10x_adc.c ****   tmpreg1 &= CR1_DISCNUM_Reset;
 888              		.loc 1 519 0
 889 0314 FB68     		ldr	r3, [r7, #12]
 890 0316 23F46043 		bic	r3, r3, #57344
 891 031a FB60     		str	r3, [r7, #12]
 520:../../source/src/FWlib/src/stm32f10x_adc.c ****   /* Set the discontinuous mode channel count */
 521:../../source/src/FWlib/src/stm32f10x_adc.c ****   tmpreg2 = Number - 1;
 892              		.loc 1 521 0
 893 031c FB78     		ldrb	r3, [r7, #3]	@ zero_extendqisi2
ARM GAS  G:\Users\Jaxb\AppData\Local\Temp\cc4YWfMb.s 			page 26


 894 031e 013B     		subs	r3, r3, #1
 895 0320 BB60     		str	r3, [r7, #8]
 522:../../source/src/FWlib/src/stm32f10x_adc.c ****   tmpreg1 |= tmpreg2 << 13;
 896              		.loc 1 522 0
 897 0322 BB68     		ldr	r3, [r7, #8]
 898 0324 5B03     		lsls	r3, r3, #13
 899 0326 FA68     		ldr	r2, [r7, #12]
 900 0328 1343     		orrs	r3, r3, r2
 901 032a FB60     		str	r3, [r7, #12]
 523:../../source/src/FWlib/src/stm32f10x_adc.c ****   /* Store the new register value */
 524:../../source/src/FWlib/src/stm32f10x_adc.c ****   ADCx->CR1 = tmpreg1;
 902              		.loc 1 524 0
 903 032c 7B68     		ldr	r3, [r7, #4]
 904 032e FA68     		ldr	r2, [r7, #12]
 905 0330 5A60     		str	r2, [r3, #4]
 525:../../source/src/FWlib/src/stm32f10x_adc.c **** }
 906              		.loc 1 525 0
 907 0332 00BF     		nop
 908 0334 1437     		adds	r7, r7, #20
 909              	.LCFI74:
 910              		.cfi_def_cfa_offset 4
 911 0336 BD46     		mov	sp, r7
 912              	.LCFI75:
 913              		.cfi_def_cfa_register 13
 914              		@ sp needed
 915 0338 80BC     		pop	{r7}
 916              	.LCFI76:
 917              		.cfi_restore 7
 918              		.cfi_def_cfa_offset 0
 919 033a 7047     		bx	lr
 920              		.cfi_endproc
 921              	.LFE41:
 922              		.size	ADC_DiscModeChannelCountConfig, .-ADC_DiscModeChannelCountConfig
 923              		.align	1
 924              		.global	ADC_DiscModeCmd
 925              		.syntax unified
 926              		.thumb
 927              		.thumb_func
 928              		.fpu softvfp
 929              		.type	ADC_DiscModeCmd, %function
 930              	ADC_DiscModeCmd:
 931              	.LFB42:
 526:../../source/src/FWlib/src/stm32f10x_adc.c **** 
 527:../../source/src/FWlib/src/stm32f10x_adc.c **** /**
 528:../../source/src/FWlib/src/stm32f10x_adc.c ****   * @brief  Enables or disables the discontinuous mode on regular group
 529:../../source/src/FWlib/src/stm32f10x_adc.c ****   *         channel for the specified ADC
 530:../../source/src/FWlib/src/stm32f10x_adc.c ****   * @param  ADCx: where x can be 1, 2 or 3 to select the ADC peripheral.
 531:../../source/src/FWlib/src/stm32f10x_adc.c ****   * @param  NewState: new state of the selected ADC discontinuous mode
 532:../../source/src/FWlib/src/stm32f10x_adc.c ****   *         on regular group channel.
 533:../../source/src/FWlib/src/stm32f10x_adc.c ****   *         This parameter can be: ENABLE or DISABLE.
 534:../../source/src/FWlib/src/stm32f10x_adc.c ****   * @retval None
 535:../../source/src/FWlib/src/stm32f10x_adc.c ****   */
 536:../../source/src/FWlib/src/stm32f10x_adc.c **** void ADC_DiscModeCmd(ADC_TypeDef* ADCx, FunctionalState NewState)
 537:../../source/src/FWlib/src/stm32f10x_adc.c **** {
 932              		.loc 1 537 0
 933              		.cfi_startproc
 934              		@ args = 0, pretend = 0, frame = 8
ARM GAS  G:\Users\Jaxb\AppData\Local\Temp\cc4YWfMb.s 			page 27


 935              		@ frame_needed = 1, uses_anonymous_args = 0
 936              		@ link register save eliminated.
 937 033c 80B4     		push	{r7}
 938              	.LCFI77:
 939              		.cfi_def_cfa_offset 4
 940              		.cfi_offset 7, -4
 941 033e 83B0     		sub	sp, sp, #12
 942              	.LCFI78:
 943              		.cfi_def_cfa_offset 16
 944 0340 00AF     		add	r7, sp, #0
 945              	.LCFI79:
 946              		.cfi_def_cfa_register 7
 947 0342 7860     		str	r0, [r7, #4]
 948 0344 0B46     		mov	r3, r1
 949 0346 FB70     		strb	r3, [r7, #3]
 538:../../source/src/FWlib/src/stm32f10x_adc.c ****   /* Check the parameters */
 539:../../source/src/FWlib/src/stm32f10x_adc.c ****   assert_param(IS_ADC_ALL_PERIPH(ADCx));
 540:../../source/src/FWlib/src/stm32f10x_adc.c ****   assert_param(IS_FUNCTIONAL_STATE(NewState));
 541:../../source/src/FWlib/src/stm32f10x_adc.c ****   if (NewState != DISABLE)
 950              		.loc 1 541 0
 951 0348 FB78     		ldrb	r3, [r7, #3]	@ zero_extendqisi2
 952 034a 002B     		cmp	r3, #0
 953 034c 06D0     		beq	.L44
 542:../../source/src/FWlib/src/stm32f10x_adc.c ****   {
 543:../../source/src/FWlib/src/stm32f10x_adc.c ****     /* Enable the selected ADC regular discontinuous mode */
 544:../../source/src/FWlib/src/stm32f10x_adc.c ****     ADCx->CR1 |= CR1_DISCEN_Set;
 954              		.loc 1 544 0
 955 034e 7B68     		ldr	r3, [r7, #4]
 956 0350 5B68     		ldr	r3, [r3, #4]
 957 0352 43F40062 		orr	r2, r3, #2048
 958 0356 7B68     		ldr	r3, [r7, #4]
 959 0358 5A60     		str	r2, [r3, #4]
 545:../../source/src/FWlib/src/stm32f10x_adc.c ****   }
 546:../../source/src/FWlib/src/stm32f10x_adc.c ****   else
 547:../../source/src/FWlib/src/stm32f10x_adc.c ****   {
 548:../../source/src/FWlib/src/stm32f10x_adc.c ****     /* Disable the selected ADC regular discontinuous mode */
 549:../../source/src/FWlib/src/stm32f10x_adc.c ****     ADCx->CR1 &= CR1_DISCEN_Reset;
 550:../../source/src/FWlib/src/stm32f10x_adc.c ****   }
 551:../../source/src/FWlib/src/stm32f10x_adc.c **** }
 960              		.loc 1 551 0
 961 035a 05E0     		b	.L46
 962              	.L44:
 549:../../source/src/FWlib/src/stm32f10x_adc.c ****   }
 963              		.loc 1 549 0
 964 035c 7B68     		ldr	r3, [r7, #4]
 965 035e 5B68     		ldr	r3, [r3, #4]
 966 0360 23F40062 		bic	r2, r3, #2048
 967 0364 7B68     		ldr	r3, [r7, #4]
 968 0366 5A60     		str	r2, [r3, #4]
 969              	.L46:
 970              		.loc 1 551 0
 971 0368 00BF     		nop
 972 036a 0C37     		adds	r7, r7, #12
 973              	.LCFI80:
 974              		.cfi_def_cfa_offset 4
 975 036c BD46     		mov	sp, r7
 976              	.LCFI81:
ARM GAS  G:\Users\Jaxb\AppData\Local\Temp\cc4YWfMb.s 			page 28


 977              		.cfi_def_cfa_register 13
 978              		@ sp needed
 979 036e 80BC     		pop	{r7}
 980              	.LCFI82:
 981              		.cfi_restore 7
 982              		.cfi_def_cfa_offset 0
 983 0370 7047     		bx	lr
 984              		.cfi_endproc
 985              	.LFE42:
 986              		.size	ADC_DiscModeCmd, .-ADC_DiscModeCmd
 987              		.align	1
 988              		.global	ADC_RegularChannelConfig
 989              		.syntax unified
 990              		.thumb
 991              		.thumb_func
 992              		.fpu softvfp
 993              		.type	ADC_RegularChannelConfig, %function
 994              	ADC_RegularChannelConfig:
 995              	.LFB43:
 552:../../source/src/FWlib/src/stm32f10x_adc.c **** 
 553:../../source/src/FWlib/src/stm32f10x_adc.c **** /**
 554:../../source/src/FWlib/src/stm32f10x_adc.c ****   * @brief  Configures for the selected ADC regular channel its corresponding
 555:../../source/src/FWlib/src/stm32f10x_adc.c ****   *         rank in the sequencer and its sample time.
 556:../../source/src/FWlib/src/stm32f10x_adc.c ****   * @param  ADCx: where x can be 1, 2 or 3 to select the ADC peripheral.
 557:../../source/src/FWlib/src/stm32f10x_adc.c ****   * @param  ADC_Channel: the ADC channel to configure. 
 558:../../source/src/FWlib/src/stm32f10x_adc.c ****   *   This parameter can be one of the following values:
 559:../../source/src/FWlib/src/stm32f10x_adc.c ****   *     @arg ADC_Channel_0: ADC Channel0 selected
 560:../../source/src/FWlib/src/stm32f10x_adc.c ****   *     @arg ADC_Channel_1: ADC Channel1 selected
 561:../../source/src/FWlib/src/stm32f10x_adc.c ****   *     @arg ADC_Channel_2: ADC Channel2 selected
 562:../../source/src/FWlib/src/stm32f10x_adc.c ****   *     @arg ADC_Channel_3: ADC Channel3 selected
 563:../../source/src/FWlib/src/stm32f10x_adc.c ****   *     @arg ADC_Channel_4: ADC Channel4 selected
 564:../../source/src/FWlib/src/stm32f10x_adc.c ****   *     @arg ADC_Channel_5: ADC Channel5 selected
 565:../../source/src/FWlib/src/stm32f10x_adc.c ****   *     @arg ADC_Channel_6: ADC Channel6 selected
 566:../../source/src/FWlib/src/stm32f10x_adc.c ****   *     @arg ADC_Channel_7: ADC Channel7 selected
 567:../../source/src/FWlib/src/stm32f10x_adc.c ****   *     @arg ADC_Channel_8: ADC Channel8 selected
 568:../../source/src/FWlib/src/stm32f10x_adc.c ****   *     @arg ADC_Channel_9: ADC Channel9 selected
 569:../../source/src/FWlib/src/stm32f10x_adc.c ****   *     @arg ADC_Channel_10: ADC Channel10 selected
 570:../../source/src/FWlib/src/stm32f10x_adc.c ****   *     @arg ADC_Channel_11: ADC Channel11 selected
 571:../../source/src/FWlib/src/stm32f10x_adc.c ****   *     @arg ADC_Channel_12: ADC Channel12 selected
 572:../../source/src/FWlib/src/stm32f10x_adc.c ****   *     @arg ADC_Channel_13: ADC Channel13 selected
 573:../../source/src/FWlib/src/stm32f10x_adc.c ****   *     @arg ADC_Channel_14: ADC Channel14 selected
 574:../../source/src/FWlib/src/stm32f10x_adc.c ****   *     @arg ADC_Channel_15: ADC Channel15 selected
 575:../../source/src/FWlib/src/stm32f10x_adc.c ****   *     @arg ADC_Channel_16: ADC Channel16 selected
 576:../../source/src/FWlib/src/stm32f10x_adc.c ****   *     @arg ADC_Channel_17: ADC Channel17 selected
 577:../../source/src/FWlib/src/stm32f10x_adc.c ****   * @param  Rank: The rank in the regular group sequencer. This parameter must be between 1 to 16.
 578:../../source/src/FWlib/src/stm32f10x_adc.c ****   * @param  ADC_SampleTime: The sample time value to be set for the selected channel. 
 579:../../source/src/FWlib/src/stm32f10x_adc.c ****   *   This parameter can be one of the following values:
 580:../../source/src/FWlib/src/stm32f10x_adc.c ****   *     @arg ADC_SampleTime_1Cycles5: Sample time equal to 1.5 cycles
 581:../../source/src/FWlib/src/stm32f10x_adc.c ****   *     @arg ADC_SampleTime_7Cycles5: Sample time equal to 7.5 cycles
 582:../../source/src/FWlib/src/stm32f10x_adc.c ****   *     @arg ADC_SampleTime_13Cycles5: Sample time equal to 13.5 cycles
 583:../../source/src/FWlib/src/stm32f10x_adc.c ****   *     @arg ADC_SampleTime_28Cycles5: Sample time equal to 28.5 cycles	
 584:../../source/src/FWlib/src/stm32f10x_adc.c ****   *     @arg ADC_SampleTime_41Cycles5: Sample time equal to 41.5 cycles	
 585:../../source/src/FWlib/src/stm32f10x_adc.c ****   *     @arg ADC_SampleTime_55Cycles5: Sample time equal to 55.5 cycles	
 586:../../source/src/FWlib/src/stm32f10x_adc.c ****   *     @arg ADC_SampleTime_71Cycles5: Sample time equal to 71.5 cycles	
 587:../../source/src/FWlib/src/stm32f10x_adc.c ****   *     @arg ADC_SampleTime_239Cycles5: Sample time equal to 239.5 cycles	
 588:../../source/src/FWlib/src/stm32f10x_adc.c ****   * @retval None
 589:../../source/src/FWlib/src/stm32f10x_adc.c ****   */
ARM GAS  G:\Users\Jaxb\AppData\Local\Temp\cc4YWfMb.s 			page 29


 590:../../source/src/FWlib/src/stm32f10x_adc.c **** void ADC_RegularChannelConfig(ADC_TypeDef* ADCx, uint8_t ADC_Channel, uint8_t Rank, uint8_t ADC_Sam
 591:../../source/src/FWlib/src/stm32f10x_adc.c **** {
 996              		.loc 1 591 0
 997              		.cfi_startproc
 998              		@ args = 0, pretend = 0, frame = 16
 999              		@ frame_needed = 1, uses_anonymous_args = 0
 1000              		@ link register save eliminated.
 1001 0372 80B4     		push	{r7}
 1002              	.LCFI83:
 1003              		.cfi_def_cfa_offset 4
 1004              		.cfi_offset 7, -4
 1005 0374 85B0     		sub	sp, sp, #20
 1006              	.LCFI84:
 1007              		.cfi_def_cfa_offset 24
 1008 0376 00AF     		add	r7, sp, #0
 1009              	.LCFI85:
 1010              		.cfi_def_cfa_register 7
 1011 0378 7860     		str	r0, [r7, #4]
 1012 037a 0846     		mov	r0, r1
 1013 037c 1146     		mov	r1, r2
 1014 037e 1A46     		mov	r2, r3
 1015 0380 0346     		mov	r3, r0
 1016 0382 FB70     		strb	r3, [r7, #3]
 1017 0384 0B46     		mov	r3, r1
 1018 0386 BB70     		strb	r3, [r7, #2]
 1019 0388 1346     		mov	r3, r2
 1020 038a 7B70     		strb	r3, [r7, #1]
 592:../../source/src/FWlib/src/stm32f10x_adc.c ****   uint32_t tmpreg1 = 0, tmpreg2 = 0;
 1021              		.loc 1 592 0
 1022 038c 0023     		movs	r3, #0
 1023 038e FB60     		str	r3, [r7, #12]
 1024 0390 0023     		movs	r3, #0
 1025 0392 BB60     		str	r3, [r7, #8]
 593:../../source/src/FWlib/src/stm32f10x_adc.c ****   /* Check the parameters */
 594:../../source/src/FWlib/src/stm32f10x_adc.c ****   assert_param(IS_ADC_ALL_PERIPH(ADCx));
 595:../../source/src/FWlib/src/stm32f10x_adc.c ****   assert_param(IS_ADC_CHANNEL(ADC_Channel));
 596:../../source/src/FWlib/src/stm32f10x_adc.c ****   assert_param(IS_ADC_REGULAR_RANK(Rank));
 597:../../source/src/FWlib/src/stm32f10x_adc.c ****   assert_param(IS_ADC_SAMPLE_TIME(ADC_SampleTime));
 598:../../source/src/FWlib/src/stm32f10x_adc.c ****   /* if ADC_Channel_10 ... ADC_Channel_17 is selected */
 599:../../source/src/FWlib/src/stm32f10x_adc.c ****   if (ADC_Channel > ADC_Channel_9)
 1026              		.loc 1 599 0
 1027 0394 FB78     		ldrb	r3, [r7, #3]	@ zero_extendqisi2
 1028 0396 092B     		cmp	r3, #9
 1029 0398 23D9     		bls	.L48
 600:../../source/src/FWlib/src/stm32f10x_adc.c ****   {
 601:../../source/src/FWlib/src/stm32f10x_adc.c ****     /* Get the old register value */
 602:../../source/src/FWlib/src/stm32f10x_adc.c ****     tmpreg1 = ADCx->SMPR1;
 1030              		.loc 1 602 0
 1031 039a 7B68     		ldr	r3, [r7, #4]
 1032 039c DB68     		ldr	r3, [r3, #12]
 1033 039e FB60     		str	r3, [r7, #12]
 603:../../source/src/FWlib/src/stm32f10x_adc.c ****     /* Calculate the mask to clear */
 604:../../source/src/FWlib/src/stm32f10x_adc.c ****     tmpreg2 = SMPR1_SMP_Set << (3 * (ADC_Channel - 10));
 1034              		.loc 1 604 0
 1035 03a0 FB78     		ldrb	r3, [r7, #3]	@ zero_extendqisi2
 1036 03a2 A3F10A02 		sub	r2, r3, #10
 1037 03a6 1346     		mov	r3, r2
ARM GAS  G:\Users\Jaxb\AppData\Local\Temp\cc4YWfMb.s 			page 30


 1038 03a8 5B00     		lsls	r3, r3, #1
 1039 03aa 1344     		add	r3, r3, r2
 1040 03ac 0722     		movs	r2, #7
 1041 03ae 02FA03F3 		lsl	r3, r2, r3
 1042 03b2 BB60     		str	r3, [r7, #8]
 605:../../source/src/FWlib/src/stm32f10x_adc.c ****     /* Clear the old channel sample time */
 606:../../source/src/FWlib/src/stm32f10x_adc.c ****     tmpreg1 &= ~tmpreg2;
 1043              		.loc 1 606 0
 1044 03b4 BB68     		ldr	r3, [r7, #8]
 1045 03b6 DB43     		mvns	r3, r3
 1046 03b8 FA68     		ldr	r2, [r7, #12]
 1047 03ba 1340     		ands	r3, r3, r2
 1048 03bc FB60     		str	r3, [r7, #12]
 607:../../source/src/FWlib/src/stm32f10x_adc.c ****     /* Calculate the mask to set */
 608:../../source/src/FWlib/src/stm32f10x_adc.c ****     tmpreg2 = (uint32_t)ADC_SampleTime << (3 * (ADC_Channel - 10));
 1049              		.loc 1 608 0
 1050 03be 7978     		ldrb	r1, [r7, #1]	@ zero_extendqisi2
 1051 03c0 FB78     		ldrb	r3, [r7, #3]	@ zero_extendqisi2
 1052 03c2 A3F10A02 		sub	r2, r3, #10
 1053 03c6 1346     		mov	r3, r2
 1054 03c8 5B00     		lsls	r3, r3, #1
 1055 03ca 1344     		add	r3, r3, r2
 1056 03cc 01FA03F3 		lsl	r3, r1, r3
 1057 03d0 BB60     		str	r3, [r7, #8]
 609:../../source/src/FWlib/src/stm32f10x_adc.c ****     /* Set the new channel sample time */
 610:../../source/src/FWlib/src/stm32f10x_adc.c ****     tmpreg1 |= tmpreg2;
 1058              		.loc 1 610 0
 1059 03d2 FA68     		ldr	r2, [r7, #12]
 1060 03d4 BB68     		ldr	r3, [r7, #8]
 1061 03d6 1343     		orrs	r3, r3, r2
 1062 03d8 FB60     		str	r3, [r7, #12]
 611:../../source/src/FWlib/src/stm32f10x_adc.c ****     /* Store the new register value */
 612:../../source/src/FWlib/src/stm32f10x_adc.c ****     ADCx->SMPR1 = tmpreg1;
 1063              		.loc 1 612 0
 1064 03da 7B68     		ldr	r3, [r7, #4]
 1065 03dc FA68     		ldr	r2, [r7, #12]
 1066 03de DA60     		str	r2, [r3, #12]
 1067 03e0 1EE0     		b	.L49
 1068              	.L48:
 613:../../source/src/FWlib/src/stm32f10x_adc.c ****   }
 614:../../source/src/FWlib/src/stm32f10x_adc.c ****   else /* ADC_Channel include in ADC_Channel_[0..9] */
 615:../../source/src/FWlib/src/stm32f10x_adc.c ****   {
 616:../../source/src/FWlib/src/stm32f10x_adc.c ****     /* Get the old register value */
 617:../../source/src/FWlib/src/stm32f10x_adc.c ****     tmpreg1 = ADCx->SMPR2;
 1069              		.loc 1 617 0
 1070 03e2 7B68     		ldr	r3, [r7, #4]
 1071 03e4 1B69     		ldr	r3, [r3, #16]
 1072 03e6 FB60     		str	r3, [r7, #12]
 618:../../source/src/FWlib/src/stm32f10x_adc.c ****     /* Calculate the mask to clear */
 619:../../source/src/FWlib/src/stm32f10x_adc.c ****     tmpreg2 = SMPR2_SMP_Set << (3 * ADC_Channel);
 1073              		.loc 1 619 0
 1074 03e8 FA78     		ldrb	r2, [r7, #3]	@ zero_extendqisi2
 1075 03ea 1346     		mov	r3, r2
 1076 03ec 5B00     		lsls	r3, r3, #1
 1077 03ee 1344     		add	r3, r3, r2
 1078 03f0 0722     		movs	r2, #7
 1079 03f2 02FA03F3 		lsl	r3, r2, r3
ARM GAS  G:\Users\Jaxb\AppData\Local\Temp\cc4YWfMb.s 			page 31


 1080 03f6 BB60     		str	r3, [r7, #8]
 620:../../source/src/FWlib/src/stm32f10x_adc.c ****     /* Clear the old channel sample time */
 621:../../source/src/FWlib/src/stm32f10x_adc.c ****     tmpreg1 &= ~tmpreg2;
 1081              		.loc 1 621 0
 1082 03f8 BB68     		ldr	r3, [r7, #8]
 1083 03fa DB43     		mvns	r3, r3
 1084 03fc FA68     		ldr	r2, [r7, #12]
 1085 03fe 1340     		ands	r3, r3, r2
 1086 0400 FB60     		str	r3, [r7, #12]
 622:../../source/src/FWlib/src/stm32f10x_adc.c ****     /* Calculate the mask to set */
 623:../../source/src/FWlib/src/stm32f10x_adc.c ****     tmpreg2 = (uint32_t)ADC_SampleTime << (3 * ADC_Channel);
 1087              		.loc 1 623 0
 1088 0402 7978     		ldrb	r1, [r7, #1]	@ zero_extendqisi2
 1089 0404 FA78     		ldrb	r2, [r7, #3]	@ zero_extendqisi2
 1090 0406 1346     		mov	r3, r2
 1091 0408 5B00     		lsls	r3, r3, #1
 1092 040a 1344     		add	r3, r3, r2
 1093 040c 01FA03F3 		lsl	r3, r1, r3
 1094 0410 BB60     		str	r3, [r7, #8]
 624:../../source/src/FWlib/src/stm32f10x_adc.c ****     /* Set the new channel sample time */
 625:../../source/src/FWlib/src/stm32f10x_adc.c ****     tmpreg1 |= tmpreg2;
 1095              		.loc 1 625 0
 1096 0412 FA68     		ldr	r2, [r7, #12]
 1097 0414 BB68     		ldr	r3, [r7, #8]
 1098 0416 1343     		orrs	r3, r3, r2
 1099 0418 FB60     		str	r3, [r7, #12]
 626:../../source/src/FWlib/src/stm32f10x_adc.c ****     /* Store the new register value */
 627:../../source/src/FWlib/src/stm32f10x_adc.c ****     ADCx->SMPR2 = tmpreg1;
 1100              		.loc 1 627 0
 1101 041a 7B68     		ldr	r3, [r7, #4]
 1102 041c FA68     		ldr	r2, [r7, #12]
 1103 041e 1A61     		str	r2, [r3, #16]
 1104              	.L49:
 628:../../source/src/FWlib/src/stm32f10x_adc.c ****   }
 629:../../source/src/FWlib/src/stm32f10x_adc.c ****   /* For Rank 1 to 6 */
 630:../../source/src/FWlib/src/stm32f10x_adc.c ****   if (Rank < 7)
 1105              		.loc 1 630 0
 1106 0420 BB78     		ldrb	r3, [r7, #2]	@ zero_extendqisi2
 1107 0422 062B     		cmp	r3, #6
 1108 0424 21D8     		bhi	.L50
 631:../../source/src/FWlib/src/stm32f10x_adc.c ****   {
 632:../../source/src/FWlib/src/stm32f10x_adc.c ****     /* Get the old register value */
 633:../../source/src/FWlib/src/stm32f10x_adc.c ****     tmpreg1 = ADCx->SQR3;
 1109              		.loc 1 633 0
 1110 0426 7B68     		ldr	r3, [r7, #4]
 1111 0428 5B6B     		ldr	r3, [r3, #52]
 1112 042a FB60     		str	r3, [r7, #12]
 634:../../source/src/FWlib/src/stm32f10x_adc.c ****     /* Calculate the mask to clear */
 635:../../source/src/FWlib/src/stm32f10x_adc.c ****     tmpreg2 = SQR3_SQ_Set << (5 * (Rank - 1));
 1113              		.loc 1 635 0
 1114 042c BB78     		ldrb	r3, [r7, #2]	@ zero_extendqisi2
 1115 042e 5A1E     		subs	r2, r3, #1
 1116 0430 1346     		mov	r3, r2
 1117 0432 9B00     		lsls	r3, r3, #2
 1118 0434 1344     		add	r3, r3, r2
 1119 0436 1F22     		movs	r2, #31
 1120 0438 02FA03F3 		lsl	r3, r2, r3
ARM GAS  G:\Users\Jaxb\AppData\Local\Temp\cc4YWfMb.s 			page 32


 1121 043c BB60     		str	r3, [r7, #8]
 636:../../source/src/FWlib/src/stm32f10x_adc.c ****     /* Clear the old SQx bits for the selected rank */
 637:../../source/src/FWlib/src/stm32f10x_adc.c ****     tmpreg1 &= ~tmpreg2;
 1122              		.loc 1 637 0
 1123 043e BB68     		ldr	r3, [r7, #8]
 1124 0440 DB43     		mvns	r3, r3
 1125 0442 FA68     		ldr	r2, [r7, #12]
 1126 0444 1340     		ands	r3, r3, r2
 1127 0446 FB60     		str	r3, [r7, #12]
 638:../../source/src/FWlib/src/stm32f10x_adc.c ****     /* Calculate the mask to set */
 639:../../source/src/FWlib/src/stm32f10x_adc.c ****     tmpreg2 = (uint32_t)ADC_Channel << (5 * (Rank - 1));
 1128              		.loc 1 639 0
 1129 0448 F978     		ldrb	r1, [r7, #3]	@ zero_extendqisi2
 1130 044a BB78     		ldrb	r3, [r7, #2]	@ zero_extendqisi2
 1131 044c 5A1E     		subs	r2, r3, #1
 1132 044e 1346     		mov	r3, r2
 1133 0450 9B00     		lsls	r3, r3, #2
 1134 0452 1344     		add	r3, r3, r2
 1135 0454 01FA03F3 		lsl	r3, r1, r3
 1136 0458 BB60     		str	r3, [r7, #8]
 640:../../source/src/FWlib/src/stm32f10x_adc.c ****     /* Set the SQx bits for the selected rank */
 641:../../source/src/FWlib/src/stm32f10x_adc.c ****     tmpreg1 |= tmpreg2;
 1137              		.loc 1 641 0
 1138 045a FA68     		ldr	r2, [r7, #12]
 1139 045c BB68     		ldr	r3, [r7, #8]
 1140 045e 1343     		orrs	r3, r3, r2
 1141 0460 FB60     		str	r3, [r7, #12]
 642:../../source/src/FWlib/src/stm32f10x_adc.c ****     /* Store the new register value */
 643:../../source/src/FWlib/src/stm32f10x_adc.c ****     ADCx->SQR3 = tmpreg1;
 1142              		.loc 1 643 0
 1143 0462 7B68     		ldr	r3, [r7, #4]
 1144 0464 FA68     		ldr	r2, [r7, #12]
 1145 0466 5A63     		str	r2, [r3, #52]
 644:../../source/src/FWlib/src/stm32f10x_adc.c ****   }
 645:../../source/src/FWlib/src/stm32f10x_adc.c ****   /* For Rank 7 to 12 */
 646:../../source/src/FWlib/src/stm32f10x_adc.c ****   else if (Rank < 13)
 647:../../source/src/FWlib/src/stm32f10x_adc.c ****   {
 648:../../source/src/FWlib/src/stm32f10x_adc.c ****     /* Get the old register value */
 649:../../source/src/FWlib/src/stm32f10x_adc.c ****     tmpreg1 = ADCx->SQR2;
 650:../../source/src/FWlib/src/stm32f10x_adc.c ****     /* Calculate the mask to clear */
 651:../../source/src/FWlib/src/stm32f10x_adc.c ****     tmpreg2 = SQR2_SQ_Set << (5 * (Rank - 7));
 652:../../source/src/FWlib/src/stm32f10x_adc.c ****     /* Clear the old SQx bits for the selected rank */
 653:../../source/src/FWlib/src/stm32f10x_adc.c ****     tmpreg1 &= ~tmpreg2;
 654:../../source/src/FWlib/src/stm32f10x_adc.c ****     /* Calculate the mask to set */
 655:../../source/src/FWlib/src/stm32f10x_adc.c ****     tmpreg2 = (uint32_t)ADC_Channel << (5 * (Rank - 7));
 656:../../source/src/FWlib/src/stm32f10x_adc.c ****     /* Set the SQx bits for the selected rank */
 657:../../source/src/FWlib/src/stm32f10x_adc.c ****     tmpreg1 |= tmpreg2;
 658:../../source/src/FWlib/src/stm32f10x_adc.c ****     /* Store the new register value */
 659:../../source/src/FWlib/src/stm32f10x_adc.c ****     ADCx->SQR2 = tmpreg1;
 660:../../source/src/FWlib/src/stm32f10x_adc.c ****   }
 661:../../source/src/FWlib/src/stm32f10x_adc.c ****   /* For Rank 13 to 16 */
 662:../../source/src/FWlib/src/stm32f10x_adc.c ****   else
 663:../../source/src/FWlib/src/stm32f10x_adc.c ****   {
 664:../../source/src/FWlib/src/stm32f10x_adc.c ****     /* Get the old register value */
 665:../../source/src/FWlib/src/stm32f10x_adc.c ****     tmpreg1 = ADCx->SQR1;
 666:../../source/src/FWlib/src/stm32f10x_adc.c ****     /* Calculate the mask to clear */
 667:../../source/src/FWlib/src/stm32f10x_adc.c ****     tmpreg2 = SQR1_SQ_Set << (5 * (Rank - 13));
ARM GAS  G:\Users\Jaxb\AppData\Local\Temp\cc4YWfMb.s 			page 33


 668:../../source/src/FWlib/src/stm32f10x_adc.c ****     /* Clear the old SQx bits for the selected rank */
 669:../../source/src/FWlib/src/stm32f10x_adc.c ****     tmpreg1 &= ~tmpreg2;
 670:../../source/src/FWlib/src/stm32f10x_adc.c ****     /* Calculate the mask to set */
 671:../../source/src/FWlib/src/stm32f10x_adc.c ****     tmpreg2 = (uint32_t)ADC_Channel << (5 * (Rank - 13));
 672:../../source/src/FWlib/src/stm32f10x_adc.c ****     /* Set the SQx bits for the selected rank */
 673:../../source/src/FWlib/src/stm32f10x_adc.c ****     tmpreg1 |= tmpreg2;
 674:../../source/src/FWlib/src/stm32f10x_adc.c ****     /* Store the new register value */
 675:../../source/src/FWlib/src/stm32f10x_adc.c ****     ADCx->SQR1 = tmpreg1;
 676:../../source/src/FWlib/src/stm32f10x_adc.c ****   }
 677:../../source/src/FWlib/src/stm32f10x_adc.c **** }
 1146              		.loc 1 677 0
 1147 0468 47E0     		b	.L53
 1148              	.L50:
 646:../../source/src/FWlib/src/stm32f10x_adc.c ****   {
 1149              		.loc 1 646 0
 1150 046a BB78     		ldrb	r3, [r7, #2]	@ zero_extendqisi2
 1151 046c 0C2B     		cmp	r3, #12
 1152 046e 21D8     		bhi	.L52
 649:../../source/src/FWlib/src/stm32f10x_adc.c ****     /* Calculate the mask to clear */
 1153              		.loc 1 649 0
 1154 0470 7B68     		ldr	r3, [r7, #4]
 1155 0472 1B6B     		ldr	r3, [r3, #48]
 1156 0474 FB60     		str	r3, [r7, #12]
 651:../../source/src/FWlib/src/stm32f10x_adc.c ****     /* Clear the old SQx bits for the selected rank */
 1157              		.loc 1 651 0
 1158 0476 BB78     		ldrb	r3, [r7, #2]	@ zero_extendqisi2
 1159 0478 DA1F     		subs	r2, r3, #7
 1160 047a 1346     		mov	r3, r2
 1161 047c 9B00     		lsls	r3, r3, #2
 1162 047e 1344     		add	r3, r3, r2
 1163 0480 1F22     		movs	r2, #31
 1164 0482 02FA03F3 		lsl	r3, r2, r3
 1165 0486 BB60     		str	r3, [r7, #8]
 653:../../source/src/FWlib/src/stm32f10x_adc.c ****     /* Calculate the mask to set */
 1166              		.loc 1 653 0
 1167 0488 BB68     		ldr	r3, [r7, #8]
 1168 048a DB43     		mvns	r3, r3
 1169 048c FA68     		ldr	r2, [r7, #12]
 1170 048e 1340     		ands	r3, r3, r2
 1171 0490 FB60     		str	r3, [r7, #12]
 655:../../source/src/FWlib/src/stm32f10x_adc.c ****     /* Set the SQx bits for the selected rank */
 1172              		.loc 1 655 0
 1173 0492 F978     		ldrb	r1, [r7, #3]	@ zero_extendqisi2
 1174 0494 BB78     		ldrb	r3, [r7, #2]	@ zero_extendqisi2
 1175 0496 DA1F     		subs	r2, r3, #7
 1176 0498 1346     		mov	r3, r2
 1177 049a 9B00     		lsls	r3, r3, #2
 1178 049c 1344     		add	r3, r3, r2
 1179 049e 01FA03F3 		lsl	r3, r1, r3
 1180 04a2 BB60     		str	r3, [r7, #8]
 657:../../source/src/FWlib/src/stm32f10x_adc.c ****     /* Store the new register value */
 1181              		.loc 1 657 0
 1182 04a4 FA68     		ldr	r2, [r7, #12]
 1183 04a6 BB68     		ldr	r3, [r7, #8]
 1184 04a8 1343     		orrs	r3, r3, r2
 1185 04aa FB60     		str	r3, [r7, #12]
 659:../../source/src/FWlib/src/stm32f10x_adc.c ****   }
ARM GAS  G:\Users\Jaxb\AppData\Local\Temp\cc4YWfMb.s 			page 34


 1186              		.loc 1 659 0
 1187 04ac 7B68     		ldr	r3, [r7, #4]
 1188 04ae FA68     		ldr	r2, [r7, #12]
 1189 04b0 1A63     		str	r2, [r3, #48]
 1190              		.loc 1 677 0
 1191 04b2 22E0     		b	.L53
 1192              	.L52:
 665:../../source/src/FWlib/src/stm32f10x_adc.c ****     /* Calculate the mask to clear */
 1193              		.loc 1 665 0
 1194 04b4 7B68     		ldr	r3, [r7, #4]
 1195 04b6 DB6A     		ldr	r3, [r3, #44]
 1196 04b8 FB60     		str	r3, [r7, #12]
 667:../../source/src/FWlib/src/stm32f10x_adc.c ****     /* Clear the old SQx bits for the selected rank */
 1197              		.loc 1 667 0
 1198 04ba BB78     		ldrb	r3, [r7, #2]	@ zero_extendqisi2
 1199 04bc A3F10D02 		sub	r2, r3, #13
 1200 04c0 1346     		mov	r3, r2
 1201 04c2 9B00     		lsls	r3, r3, #2
 1202 04c4 1344     		add	r3, r3, r2
 1203 04c6 1F22     		movs	r2, #31
 1204 04c8 02FA03F3 		lsl	r3, r2, r3
 1205 04cc BB60     		str	r3, [r7, #8]
 669:../../source/src/FWlib/src/stm32f10x_adc.c ****     /* Calculate the mask to set */
 1206              		.loc 1 669 0
 1207 04ce BB68     		ldr	r3, [r7, #8]
 1208 04d0 DB43     		mvns	r3, r3
 1209 04d2 FA68     		ldr	r2, [r7, #12]
 1210 04d4 1340     		ands	r3, r3, r2
 1211 04d6 FB60     		str	r3, [r7, #12]
 671:../../source/src/FWlib/src/stm32f10x_adc.c ****     /* Set the SQx bits for the selected rank */
 1212              		.loc 1 671 0
 1213 04d8 F978     		ldrb	r1, [r7, #3]	@ zero_extendqisi2
 1214 04da BB78     		ldrb	r3, [r7, #2]	@ zero_extendqisi2
 1215 04dc A3F10D02 		sub	r2, r3, #13
 1216 04e0 1346     		mov	r3, r2
 1217 04e2 9B00     		lsls	r3, r3, #2
 1218 04e4 1344     		add	r3, r3, r2
 1219 04e6 01FA03F3 		lsl	r3, r1, r3
 1220 04ea BB60     		str	r3, [r7, #8]
 673:../../source/src/FWlib/src/stm32f10x_adc.c ****     /* Store the new register value */
 1221              		.loc 1 673 0
 1222 04ec FA68     		ldr	r2, [r7, #12]
 1223 04ee BB68     		ldr	r3, [r7, #8]
 1224 04f0 1343     		orrs	r3, r3, r2
 1225 04f2 FB60     		str	r3, [r7, #12]
 675:../../source/src/FWlib/src/stm32f10x_adc.c ****   }
 1226              		.loc 1 675 0
 1227 04f4 7B68     		ldr	r3, [r7, #4]
 1228 04f6 FA68     		ldr	r2, [r7, #12]
 1229 04f8 DA62     		str	r2, [r3, #44]
 1230              	.L53:
 1231              		.loc 1 677 0
 1232 04fa 00BF     		nop
 1233 04fc 1437     		adds	r7, r7, #20
 1234              	.LCFI86:
 1235              		.cfi_def_cfa_offset 4
 1236 04fe BD46     		mov	sp, r7
ARM GAS  G:\Users\Jaxb\AppData\Local\Temp\cc4YWfMb.s 			page 35


 1237              	.LCFI87:
 1238              		.cfi_def_cfa_register 13
 1239              		@ sp needed
 1240 0500 80BC     		pop	{r7}
 1241              	.LCFI88:
 1242              		.cfi_restore 7
 1243              		.cfi_def_cfa_offset 0
 1244 0502 7047     		bx	lr
 1245              		.cfi_endproc
 1246              	.LFE43:
 1247              		.size	ADC_RegularChannelConfig, .-ADC_RegularChannelConfig
 1248              		.align	1
 1249              		.global	ADC_ExternalTrigConvCmd
 1250              		.syntax unified
 1251              		.thumb
 1252              		.thumb_func
 1253              		.fpu softvfp
 1254              		.type	ADC_ExternalTrigConvCmd, %function
 1255              	ADC_ExternalTrigConvCmd:
 1256              	.LFB44:
 678:../../source/src/FWlib/src/stm32f10x_adc.c **** 
 679:../../source/src/FWlib/src/stm32f10x_adc.c **** /**
 680:../../source/src/FWlib/src/stm32f10x_adc.c ****   * @brief  Enables or disables the ADCx conversion through external trigger.
 681:../../source/src/FWlib/src/stm32f10x_adc.c ****   * @param  ADCx: where x can be 1, 2 or 3 to select the ADC peripheral.
 682:../../source/src/FWlib/src/stm32f10x_adc.c ****   * @param  NewState: new state of the selected ADC external trigger start of conversion.
 683:../../source/src/FWlib/src/stm32f10x_adc.c ****   *   This parameter can be: ENABLE or DISABLE.
 684:../../source/src/FWlib/src/stm32f10x_adc.c ****   * @retval None
 685:../../source/src/FWlib/src/stm32f10x_adc.c ****   */
 686:../../source/src/FWlib/src/stm32f10x_adc.c **** void ADC_ExternalTrigConvCmd(ADC_TypeDef* ADCx, FunctionalState NewState)
 687:../../source/src/FWlib/src/stm32f10x_adc.c **** {
 1257              		.loc 1 687 0
 1258              		.cfi_startproc
 1259              		@ args = 0, pretend = 0, frame = 8
 1260              		@ frame_needed = 1, uses_anonymous_args = 0
 1261              		@ link register save eliminated.
 1262 0504 80B4     		push	{r7}
 1263              	.LCFI89:
 1264              		.cfi_def_cfa_offset 4
 1265              		.cfi_offset 7, -4
 1266 0506 83B0     		sub	sp, sp, #12
 1267              	.LCFI90:
 1268              		.cfi_def_cfa_offset 16
 1269 0508 00AF     		add	r7, sp, #0
 1270              	.LCFI91:
 1271              		.cfi_def_cfa_register 7
 1272 050a 7860     		str	r0, [r7, #4]
 1273 050c 0B46     		mov	r3, r1
 1274 050e FB70     		strb	r3, [r7, #3]
 688:../../source/src/FWlib/src/stm32f10x_adc.c ****   /* Check the parameters */
 689:../../source/src/FWlib/src/stm32f10x_adc.c ****   assert_param(IS_ADC_ALL_PERIPH(ADCx));
 690:../../source/src/FWlib/src/stm32f10x_adc.c ****   assert_param(IS_FUNCTIONAL_STATE(NewState));
 691:../../source/src/FWlib/src/stm32f10x_adc.c ****   if (NewState != DISABLE)
 1275              		.loc 1 691 0
 1276 0510 FB78     		ldrb	r3, [r7, #3]	@ zero_extendqisi2
 1277 0512 002B     		cmp	r3, #0
 1278 0514 06D0     		beq	.L55
 692:../../source/src/FWlib/src/stm32f10x_adc.c ****   {
ARM GAS  G:\Users\Jaxb\AppData\Local\Temp\cc4YWfMb.s 			page 36


 693:../../source/src/FWlib/src/stm32f10x_adc.c ****     /* Enable the selected ADC conversion on external event */
 694:../../source/src/FWlib/src/stm32f10x_adc.c ****     ADCx->CR2 |= CR2_EXTTRIG_Set;
 1279              		.loc 1 694 0
 1280 0516 7B68     		ldr	r3, [r7, #4]
 1281 0518 9B68     		ldr	r3, [r3, #8]
 1282 051a 43F48012 		orr	r2, r3, #1048576
 1283 051e 7B68     		ldr	r3, [r7, #4]
 1284 0520 9A60     		str	r2, [r3, #8]
 695:../../source/src/FWlib/src/stm32f10x_adc.c ****   }
 696:../../source/src/FWlib/src/stm32f10x_adc.c ****   else
 697:../../source/src/FWlib/src/stm32f10x_adc.c ****   {
 698:../../source/src/FWlib/src/stm32f10x_adc.c ****     /* Disable the selected ADC conversion on external event */
 699:../../source/src/FWlib/src/stm32f10x_adc.c ****     ADCx->CR2 &= CR2_EXTTRIG_Reset;
 700:../../source/src/FWlib/src/stm32f10x_adc.c ****   }
 701:../../source/src/FWlib/src/stm32f10x_adc.c **** }
 1285              		.loc 1 701 0
 1286 0522 05E0     		b	.L57
 1287              	.L55:
 699:../../source/src/FWlib/src/stm32f10x_adc.c ****   }
 1288              		.loc 1 699 0
 1289 0524 7B68     		ldr	r3, [r7, #4]
 1290 0526 9B68     		ldr	r3, [r3, #8]
 1291 0528 23F48012 		bic	r2, r3, #1048576
 1292 052c 7B68     		ldr	r3, [r7, #4]
 1293 052e 9A60     		str	r2, [r3, #8]
 1294              	.L57:
 1295              		.loc 1 701 0
 1296 0530 00BF     		nop
 1297 0532 0C37     		adds	r7, r7, #12
 1298              	.LCFI92:
 1299              		.cfi_def_cfa_offset 4
 1300 0534 BD46     		mov	sp, r7
 1301              	.LCFI93:
 1302              		.cfi_def_cfa_register 13
 1303              		@ sp needed
 1304 0536 80BC     		pop	{r7}
 1305              	.LCFI94:
 1306              		.cfi_restore 7
 1307              		.cfi_def_cfa_offset 0
 1308 0538 7047     		bx	lr
 1309              		.cfi_endproc
 1310              	.LFE44:
 1311              		.size	ADC_ExternalTrigConvCmd, .-ADC_ExternalTrigConvCmd
 1312              		.align	1
 1313              		.global	ADC_GetConversionValue
 1314              		.syntax unified
 1315              		.thumb
 1316              		.thumb_func
 1317              		.fpu softvfp
 1318              		.type	ADC_GetConversionValue, %function
 1319              	ADC_GetConversionValue:
 1320              	.LFB45:
 702:../../source/src/FWlib/src/stm32f10x_adc.c **** 
 703:../../source/src/FWlib/src/stm32f10x_adc.c **** /**
 704:../../source/src/FWlib/src/stm32f10x_adc.c ****   * @brief  Returns the last ADCx conversion result data for regular channel.
 705:../../source/src/FWlib/src/stm32f10x_adc.c ****   * @param  ADCx: where x can be 1, 2 or 3 to select the ADC peripheral.
 706:../../source/src/FWlib/src/stm32f10x_adc.c ****   * @retval The Data conversion value.
ARM GAS  G:\Users\Jaxb\AppData\Local\Temp\cc4YWfMb.s 			page 37


 707:../../source/src/FWlib/src/stm32f10x_adc.c ****   */
 708:../../source/src/FWlib/src/stm32f10x_adc.c **** uint16_t ADC_GetConversionValue(ADC_TypeDef* ADCx)
 709:../../source/src/FWlib/src/stm32f10x_adc.c **** {
 1321              		.loc 1 709 0
 1322              		.cfi_startproc
 1323              		@ args = 0, pretend = 0, frame = 8
 1324              		@ frame_needed = 1, uses_anonymous_args = 0
 1325              		@ link register save eliminated.
 1326 053a 80B4     		push	{r7}
 1327              	.LCFI95:
 1328              		.cfi_def_cfa_offset 4
 1329              		.cfi_offset 7, -4
 1330 053c 83B0     		sub	sp, sp, #12
 1331              	.LCFI96:
 1332              		.cfi_def_cfa_offset 16
 1333 053e 00AF     		add	r7, sp, #0
 1334              	.LCFI97:
 1335              		.cfi_def_cfa_register 7
 1336 0540 7860     		str	r0, [r7, #4]
 710:../../source/src/FWlib/src/stm32f10x_adc.c ****   /* Check the parameters */
 711:../../source/src/FWlib/src/stm32f10x_adc.c ****   assert_param(IS_ADC_ALL_PERIPH(ADCx));
 712:../../source/src/FWlib/src/stm32f10x_adc.c ****   /* Return the selected ADC conversion value */
 713:../../source/src/FWlib/src/stm32f10x_adc.c ****   return (uint16_t) ADCx->DR;
 1337              		.loc 1 713 0
 1338 0542 7B68     		ldr	r3, [r7, #4]
 1339 0544 DB6C     		ldr	r3, [r3, #76]
 1340 0546 9BB2     		uxth	r3, r3
 714:../../source/src/FWlib/src/stm32f10x_adc.c **** }
 1341              		.loc 1 714 0
 1342 0548 1846     		mov	r0, r3
 1343 054a 0C37     		adds	r7, r7, #12
 1344              	.LCFI98:
 1345              		.cfi_def_cfa_offset 4
 1346 054c BD46     		mov	sp, r7
 1347              	.LCFI99:
 1348              		.cfi_def_cfa_register 13
 1349              		@ sp needed
 1350 054e 80BC     		pop	{r7}
 1351              	.LCFI100:
 1352              		.cfi_restore 7
 1353              		.cfi_def_cfa_offset 0
 1354 0550 7047     		bx	lr
 1355              		.cfi_endproc
 1356              	.LFE45:
 1357              		.size	ADC_GetConversionValue, .-ADC_GetConversionValue
 1358              		.align	1
 1359              		.global	ADC_GetDualModeConversionValue
 1360              		.syntax unified
 1361              		.thumb
 1362              		.thumb_func
 1363              		.fpu softvfp
 1364              		.type	ADC_GetDualModeConversionValue, %function
 1365              	ADC_GetDualModeConversionValue:
 1366              	.LFB46:
 715:../../source/src/FWlib/src/stm32f10x_adc.c **** 
 716:../../source/src/FWlib/src/stm32f10x_adc.c **** /**
 717:../../source/src/FWlib/src/stm32f10x_adc.c ****   * @brief  Returns the last ADC1 and ADC2 conversion result data in dual mode.
ARM GAS  G:\Users\Jaxb\AppData\Local\Temp\cc4YWfMb.s 			page 38


 718:../../source/src/FWlib/src/stm32f10x_adc.c ****   * @retval The Data conversion value.
 719:../../source/src/FWlib/src/stm32f10x_adc.c ****   */
 720:../../source/src/FWlib/src/stm32f10x_adc.c **** uint32_t ADC_GetDualModeConversionValue(void)
 721:../../source/src/FWlib/src/stm32f10x_adc.c **** {
 1367              		.loc 1 721 0
 1368              		.cfi_startproc
 1369              		@ args = 0, pretend = 0, frame = 0
 1370              		@ frame_needed = 1, uses_anonymous_args = 0
 1371              		@ link register save eliminated.
 1372 0552 80B4     		push	{r7}
 1373              	.LCFI101:
 1374              		.cfi_def_cfa_offset 4
 1375              		.cfi_offset 7, -4
 1376 0554 00AF     		add	r7, sp, #0
 1377              	.LCFI102:
 1378              		.cfi_def_cfa_register 7
 722:../../source/src/FWlib/src/stm32f10x_adc.c ****   /* Return the dual mode conversion value */
 723:../../source/src/FWlib/src/stm32f10x_adc.c ****   return (*(__IO uint32_t *) DR_ADDRESS);
 1379              		.loc 1 723 0
 1380 0556 034B     		ldr	r3, .L62
 1381 0558 1B68     		ldr	r3, [r3]
 724:../../source/src/FWlib/src/stm32f10x_adc.c **** }
 1382              		.loc 1 724 0
 1383 055a 1846     		mov	r0, r3
 1384 055c BD46     		mov	sp, r7
 1385              	.LCFI103:
 1386              		.cfi_def_cfa_register 13
 1387              		@ sp needed
 1388 055e 80BC     		pop	{r7}
 1389              	.LCFI104:
 1390              		.cfi_restore 7
 1391              		.cfi_def_cfa_offset 0
 1392 0560 7047     		bx	lr
 1393              	.L63:
 1394 0562 00BF     		.align	2
 1395              	.L62:
 1396 0564 4C240140 		.word	1073816652
 1397              		.cfi_endproc
 1398              	.LFE46:
 1399              		.size	ADC_GetDualModeConversionValue, .-ADC_GetDualModeConversionValue
 1400              		.align	1
 1401              		.global	ADC_AutoInjectedConvCmd
 1402              		.syntax unified
 1403              		.thumb
 1404              		.thumb_func
 1405              		.fpu softvfp
 1406              		.type	ADC_AutoInjectedConvCmd, %function
 1407              	ADC_AutoInjectedConvCmd:
 1408              	.LFB47:
 725:../../source/src/FWlib/src/stm32f10x_adc.c **** 
 726:../../source/src/FWlib/src/stm32f10x_adc.c **** /**
 727:../../source/src/FWlib/src/stm32f10x_adc.c ****   * @brief  Enables or disables the selected ADC automatic injected group
 728:../../source/src/FWlib/src/stm32f10x_adc.c ****   *         conversion after regular one.
 729:../../source/src/FWlib/src/stm32f10x_adc.c ****   * @param  ADCx: where x can be 1, 2 or 3 to select the ADC peripheral.
 730:../../source/src/FWlib/src/stm32f10x_adc.c ****   * @param  NewState: new state of the selected ADC auto injected conversion
 731:../../source/src/FWlib/src/stm32f10x_adc.c ****   *   This parameter can be: ENABLE or DISABLE.
 732:../../source/src/FWlib/src/stm32f10x_adc.c ****   * @retval None
ARM GAS  G:\Users\Jaxb\AppData\Local\Temp\cc4YWfMb.s 			page 39


 733:../../source/src/FWlib/src/stm32f10x_adc.c ****   */
 734:../../source/src/FWlib/src/stm32f10x_adc.c **** void ADC_AutoInjectedConvCmd(ADC_TypeDef* ADCx, FunctionalState NewState)
 735:../../source/src/FWlib/src/stm32f10x_adc.c **** {
 1409              		.loc 1 735 0
 1410              		.cfi_startproc
 1411              		@ args = 0, pretend = 0, frame = 8
 1412              		@ frame_needed = 1, uses_anonymous_args = 0
 1413              		@ link register save eliminated.
 1414 0568 80B4     		push	{r7}
 1415              	.LCFI105:
 1416              		.cfi_def_cfa_offset 4
 1417              		.cfi_offset 7, -4
 1418 056a 83B0     		sub	sp, sp, #12
 1419              	.LCFI106:
 1420              		.cfi_def_cfa_offset 16
 1421 056c 00AF     		add	r7, sp, #0
 1422              	.LCFI107:
 1423              		.cfi_def_cfa_register 7
 1424 056e 7860     		str	r0, [r7, #4]
 1425 0570 0B46     		mov	r3, r1
 1426 0572 FB70     		strb	r3, [r7, #3]
 736:../../source/src/FWlib/src/stm32f10x_adc.c ****   /* Check the parameters */
 737:../../source/src/FWlib/src/stm32f10x_adc.c ****   assert_param(IS_ADC_ALL_PERIPH(ADCx));
 738:../../source/src/FWlib/src/stm32f10x_adc.c ****   assert_param(IS_FUNCTIONAL_STATE(NewState));
 739:../../source/src/FWlib/src/stm32f10x_adc.c ****   if (NewState != DISABLE)
 1427              		.loc 1 739 0
 1428 0574 FB78     		ldrb	r3, [r7, #3]	@ zero_extendqisi2
 1429 0576 002B     		cmp	r3, #0
 1430 0578 06D0     		beq	.L65
 740:../../source/src/FWlib/src/stm32f10x_adc.c ****   {
 741:../../source/src/FWlib/src/stm32f10x_adc.c ****     /* Enable the selected ADC automatic injected group conversion */
 742:../../source/src/FWlib/src/stm32f10x_adc.c ****     ADCx->CR1 |= CR1_JAUTO_Set;
 1431              		.loc 1 742 0
 1432 057a 7B68     		ldr	r3, [r7, #4]
 1433 057c 5B68     		ldr	r3, [r3, #4]
 1434 057e 43F48062 		orr	r2, r3, #1024
 1435 0582 7B68     		ldr	r3, [r7, #4]
 1436 0584 5A60     		str	r2, [r3, #4]
 743:../../source/src/FWlib/src/stm32f10x_adc.c ****   }
 744:../../source/src/FWlib/src/stm32f10x_adc.c ****   else
 745:../../source/src/FWlib/src/stm32f10x_adc.c ****   {
 746:../../source/src/FWlib/src/stm32f10x_adc.c ****     /* Disable the selected ADC automatic injected group conversion */
 747:../../source/src/FWlib/src/stm32f10x_adc.c ****     ADCx->CR1 &= CR1_JAUTO_Reset;
 748:../../source/src/FWlib/src/stm32f10x_adc.c ****   }
 749:../../source/src/FWlib/src/stm32f10x_adc.c **** }
 1437              		.loc 1 749 0
 1438 0586 05E0     		b	.L67
 1439              	.L65:
 747:../../source/src/FWlib/src/stm32f10x_adc.c ****   }
 1440              		.loc 1 747 0
 1441 0588 7B68     		ldr	r3, [r7, #4]
 1442 058a 5B68     		ldr	r3, [r3, #4]
 1443 058c 23F48062 		bic	r2, r3, #1024
 1444 0590 7B68     		ldr	r3, [r7, #4]
 1445 0592 5A60     		str	r2, [r3, #4]
 1446              	.L67:
 1447              		.loc 1 749 0
ARM GAS  G:\Users\Jaxb\AppData\Local\Temp\cc4YWfMb.s 			page 40


 1448 0594 00BF     		nop
 1449 0596 0C37     		adds	r7, r7, #12
 1450              	.LCFI108:
 1451              		.cfi_def_cfa_offset 4
 1452 0598 BD46     		mov	sp, r7
 1453              	.LCFI109:
 1454              		.cfi_def_cfa_register 13
 1455              		@ sp needed
 1456 059a 80BC     		pop	{r7}
 1457              	.LCFI110:
 1458              		.cfi_restore 7
 1459              		.cfi_def_cfa_offset 0
 1460 059c 7047     		bx	lr
 1461              		.cfi_endproc
 1462              	.LFE47:
 1463              		.size	ADC_AutoInjectedConvCmd, .-ADC_AutoInjectedConvCmd
 1464              		.align	1
 1465              		.global	ADC_InjectedDiscModeCmd
 1466              		.syntax unified
 1467              		.thumb
 1468              		.thumb_func
 1469              		.fpu softvfp
 1470              		.type	ADC_InjectedDiscModeCmd, %function
 1471              	ADC_InjectedDiscModeCmd:
 1472              	.LFB48:
 750:../../source/src/FWlib/src/stm32f10x_adc.c **** 
 751:../../source/src/FWlib/src/stm32f10x_adc.c **** /**
 752:../../source/src/FWlib/src/stm32f10x_adc.c ****   * @brief  Enables or disables the discontinuous mode for injected group
 753:../../source/src/FWlib/src/stm32f10x_adc.c ****   *         channel for the specified ADC
 754:../../source/src/FWlib/src/stm32f10x_adc.c ****   * @param  ADCx: where x can be 1, 2 or 3 to select the ADC peripheral.
 755:../../source/src/FWlib/src/stm32f10x_adc.c ****   * @param  NewState: new state of the selected ADC discontinuous mode
 756:../../source/src/FWlib/src/stm32f10x_adc.c ****   *         on injected group channel.
 757:../../source/src/FWlib/src/stm32f10x_adc.c ****   *   This parameter can be: ENABLE or DISABLE.
 758:../../source/src/FWlib/src/stm32f10x_adc.c ****   * @retval None
 759:../../source/src/FWlib/src/stm32f10x_adc.c ****   */
 760:../../source/src/FWlib/src/stm32f10x_adc.c **** void ADC_InjectedDiscModeCmd(ADC_TypeDef* ADCx, FunctionalState NewState)
 761:../../source/src/FWlib/src/stm32f10x_adc.c **** {
 1473              		.loc 1 761 0
 1474              		.cfi_startproc
 1475              		@ args = 0, pretend = 0, frame = 8
 1476              		@ frame_needed = 1, uses_anonymous_args = 0
 1477              		@ link register save eliminated.
 1478 059e 80B4     		push	{r7}
 1479              	.LCFI111:
 1480              		.cfi_def_cfa_offset 4
 1481              		.cfi_offset 7, -4
 1482 05a0 83B0     		sub	sp, sp, #12
 1483              	.LCFI112:
 1484              		.cfi_def_cfa_offset 16
 1485 05a2 00AF     		add	r7, sp, #0
 1486              	.LCFI113:
 1487              		.cfi_def_cfa_register 7
 1488 05a4 7860     		str	r0, [r7, #4]
 1489 05a6 0B46     		mov	r3, r1
 1490 05a8 FB70     		strb	r3, [r7, #3]
 762:../../source/src/FWlib/src/stm32f10x_adc.c ****   /* Check the parameters */
 763:../../source/src/FWlib/src/stm32f10x_adc.c ****   assert_param(IS_ADC_ALL_PERIPH(ADCx));
ARM GAS  G:\Users\Jaxb\AppData\Local\Temp\cc4YWfMb.s 			page 41


 764:../../source/src/FWlib/src/stm32f10x_adc.c ****   assert_param(IS_FUNCTIONAL_STATE(NewState));
 765:../../source/src/FWlib/src/stm32f10x_adc.c ****   if (NewState != DISABLE)
 1491              		.loc 1 765 0
 1492 05aa FB78     		ldrb	r3, [r7, #3]	@ zero_extendqisi2
 1493 05ac 002B     		cmp	r3, #0
 1494 05ae 06D0     		beq	.L69
 766:../../source/src/FWlib/src/stm32f10x_adc.c ****   {
 767:../../source/src/FWlib/src/stm32f10x_adc.c ****     /* Enable the selected ADC injected discontinuous mode */
 768:../../source/src/FWlib/src/stm32f10x_adc.c ****     ADCx->CR1 |= CR1_JDISCEN_Set;
 1495              		.loc 1 768 0
 1496 05b0 7B68     		ldr	r3, [r7, #4]
 1497 05b2 5B68     		ldr	r3, [r3, #4]
 1498 05b4 43F48052 		orr	r2, r3, #4096
 1499 05b8 7B68     		ldr	r3, [r7, #4]
 1500 05ba 5A60     		str	r2, [r3, #4]
 769:../../source/src/FWlib/src/stm32f10x_adc.c ****   }
 770:../../source/src/FWlib/src/stm32f10x_adc.c ****   else
 771:../../source/src/FWlib/src/stm32f10x_adc.c ****   {
 772:../../source/src/FWlib/src/stm32f10x_adc.c ****     /* Disable the selected ADC injected discontinuous mode */
 773:../../source/src/FWlib/src/stm32f10x_adc.c ****     ADCx->CR1 &= CR1_JDISCEN_Reset;
 774:../../source/src/FWlib/src/stm32f10x_adc.c ****   }
 775:../../source/src/FWlib/src/stm32f10x_adc.c **** }
 1501              		.loc 1 775 0
 1502 05bc 05E0     		b	.L71
 1503              	.L69:
 773:../../source/src/FWlib/src/stm32f10x_adc.c ****   }
 1504              		.loc 1 773 0
 1505 05be 7B68     		ldr	r3, [r7, #4]
 1506 05c0 5B68     		ldr	r3, [r3, #4]
 1507 05c2 23F48052 		bic	r2, r3, #4096
 1508 05c6 7B68     		ldr	r3, [r7, #4]
 1509 05c8 5A60     		str	r2, [r3, #4]
 1510              	.L71:
 1511              		.loc 1 775 0
 1512 05ca 00BF     		nop
 1513 05cc 0C37     		adds	r7, r7, #12
 1514              	.LCFI114:
 1515              		.cfi_def_cfa_offset 4
 1516 05ce BD46     		mov	sp, r7
 1517              	.LCFI115:
 1518              		.cfi_def_cfa_register 13
 1519              		@ sp needed
 1520 05d0 80BC     		pop	{r7}
 1521              	.LCFI116:
 1522              		.cfi_restore 7
 1523              		.cfi_def_cfa_offset 0
 1524 05d2 7047     		bx	lr
 1525              		.cfi_endproc
 1526              	.LFE48:
 1527              		.size	ADC_InjectedDiscModeCmd, .-ADC_InjectedDiscModeCmd
 1528              		.align	1
 1529              		.global	ADC_ExternalTrigInjectedConvConfig
 1530              		.syntax unified
 1531              		.thumb
 1532              		.thumb_func
 1533              		.fpu softvfp
 1534              		.type	ADC_ExternalTrigInjectedConvConfig, %function
ARM GAS  G:\Users\Jaxb\AppData\Local\Temp\cc4YWfMb.s 			page 42


 1535              	ADC_ExternalTrigInjectedConvConfig:
 1536              	.LFB49:
 776:../../source/src/FWlib/src/stm32f10x_adc.c **** 
 777:../../source/src/FWlib/src/stm32f10x_adc.c **** /**
 778:../../source/src/FWlib/src/stm32f10x_adc.c ****   * @brief  Configures the ADCx external trigger for injected channels conversion.
 779:../../source/src/FWlib/src/stm32f10x_adc.c ****   * @param  ADCx: where x can be 1, 2 or 3 to select the ADC peripheral.
 780:../../source/src/FWlib/src/stm32f10x_adc.c ****   * @param  ADC_ExternalTrigInjecConv: specifies the ADC trigger to start injected conversion. 
 781:../../source/src/FWlib/src/stm32f10x_adc.c ****   *   This parameter can be one of the following values:
 782:../../source/src/FWlib/src/stm32f10x_adc.c ****   *     @arg ADC_ExternalTrigInjecConv_T1_TRGO: Timer1 TRGO event selected (for ADC1, ADC2 and ADC3
 783:../../source/src/FWlib/src/stm32f10x_adc.c ****   *     @arg ADC_ExternalTrigInjecConv_T1_CC4: Timer1 capture compare4 selected (for ADC1, ADC2 and
 784:../../source/src/FWlib/src/stm32f10x_adc.c ****   *     @arg ADC_ExternalTrigInjecConv_T2_TRGO: Timer2 TRGO event selected (for ADC1 and ADC2)
 785:../../source/src/FWlib/src/stm32f10x_adc.c ****   *     @arg ADC_ExternalTrigInjecConv_T2_CC1: Timer2 capture compare1 selected (for ADC1 and ADC2)
 786:../../source/src/FWlib/src/stm32f10x_adc.c ****   *     @arg ADC_ExternalTrigInjecConv_T3_CC4: Timer3 capture compare4 selected (for ADC1 and ADC2)
 787:../../source/src/FWlib/src/stm32f10x_adc.c ****   *     @arg ADC_ExternalTrigInjecConv_T4_TRGO: Timer4 TRGO event selected (for ADC1 and ADC2)
 788:../../source/src/FWlib/src/stm32f10x_adc.c ****   *     @arg ADC_ExternalTrigInjecConv_Ext_IT15_TIM8_CC4: External interrupt line 15 or Timer8
 789:../../source/src/FWlib/src/stm32f10x_adc.c ****   *                                                       capture compare4 event selected (for ADC1
 790:../../source/src/FWlib/src/stm32f10x_adc.c ****   *     @arg ADC_ExternalTrigInjecConv_T4_CC3: Timer4 capture compare3 selected (for ADC3 only)
 791:../../source/src/FWlib/src/stm32f10x_adc.c ****   *     @arg ADC_ExternalTrigInjecConv_T8_CC2: Timer8 capture compare2 selected (for ADC3 only)    
 792:../../source/src/FWlib/src/stm32f10x_adc.c ****   *     @arg ADC_ExternalTrigInjecConv_T8_CC4: Timer8 capture compare4 selected (for ADC3 only)
 793:../../source/src/FWlib/src/stm32f10x_adc.c ****   *     @arg ADC_ExternalTrigInjecConv_T5_TRGO: Timer5 TRGO event selected (for ADC3 only)         
 794:../../source/src/FWlib/src/stm32f10x_adc.c ****   *     @arg ADC_ExternalTrigInjecConv_T5_CC4: Timer5 capture compare4 selected (for ADC3 only)    
 795:../../source/src/FWlib/src/stm32f10x_adc.c ****   *     @arg ADC_ExternalTrigInjecConv_None: Injected conversion started by software and not
 796:../../source/src/FWlib/src/stm32f10x_adc.c ****   *                                          by external trigger (for ADC1, ADC2 and ADC3)
 797:../../source/src/FWlib/src/stm32f10x_adc.c ****   * @retval None
 798:../../source/src/FWlib/src/stm32f10x_adc.c ****   */
 799:../../source/src/FWlib/src/stm32f10x_adc.c **** void ADC_ExternalTrigInjectedConvConfig(ADC_TypeDef* ADCx, uint32_t ADC_ExternalTrigInjecConv)
 800:../../source/src/FWlib/src/stm32f10x_adc.c **** {
 1537              		.loc 1 800 0
 1538              		.cfi_startproc
 1539              		@ args = 0, pretend = 0, frame = 16
 1540              		@ frame_needed = 1, uses_anonymous_args = 0
 1541              		@ link register save eliminated.
 1542 05d4 80B4     		push	{r7}
 1543              	.LCFI117:
 1544              		.cfi_def_cfa_offset 4
 1545              		.cfi_offset 7, -4
 1546 05d6 85B0     		sub	sp, sp, #20
 1547              	.LCFI118:
 1548              		.cfi_def_cfa_offset 24
 1549 05d8 00AF     		add	r7, sp, #0
 1550              	.LCFI119:
 1551              		.cfi_def_cfa_register 7
 1552 05da 7860     		str	r0, [r7, #4]
 1553 05dc 3960     		str	r1, [r7]
 801:../../source/src/FWlib/src/stm32f10x_adc.c ****   uint32_t tmpreg = 0;
 1554              		.loc 1 801 0
 1555 05de 0023     		movs	r3, #0
 1556 05e0 FB60     		str	r3, [r7, #12]
 802:../../source/src/FWlib/src/stm32f10x_adc.c ****   /* Check the parameters */
 803:../../source/src/FWlib/src/stm32f10x_adc.c ****   assert_param(IS_ADC_ALL_PERIPH(ADCx));
 804:../../source/src/FWlib/src/stm32f10x_adc.c ****   assert_param(IS_ADC_EXT_INJEC_TRIG(ADC_ExternalTrigInjecConv));
 805:../../source/src/FWlib/src/stm32f10x_adc.c ****   /* Get the old register value */
 806:../../source/src/FWlib/src/stm32f10x_adc.c ****   tmpreg = ADCx->CR2;
 1557              		.loc 1 806 0
 1558 05e2 7B68     		ldr	r3, [r7, #4]
 1559 05e4 9B68     		ldr	r3, [r3, #8]
 1560 05e6 FB60     		str	r3, [r7, #12]
ARM GAS  G:\Users\Jaxb\AppData\Local\Temp\cc4YWfMb.s 			page 43


 807:../../source/src/FWlib/src/stm32f10x_adc.c ****   /* Clear the old external event selection for injected group */
 808:../../source/src/FWlib/src/stm32f10x_adc.c ****   tmpreg &= CR2_JEXTSEL_Reset;
 1561              		.loc 1 808 0
 1562 05e8 FB68     		ldr	r3, [r7, #12]
 1563 05ea 23F4E043 		bic	r3, r3, #28672
 1564 05ee FB60     		str	r3, [r7, #12]
 809:../../source/src/FWlib/src/stm32f10x_adc.c ****   /* Set the external event selection for injected group */
 810:../../source/src/FWlib/src/stm32f10x_adc.c ****   tmpreg |= ADC_ExternalTrigInjecConv;
 1565              		.loc 1 810 0
 1566 05f0 FA68     		ldr	r2, [r7, #12]
 1567 05f2 3B68     		ldr	r3, [r7]
 1568 05f4 1343     		orrs	r3, r3, r2
 1569 05f6 FB60     		str	r3, [r7, #12]
 811:../../source/src/FWlib/src/stm32f10x_adc.c ****   /* Store the new register value */
 812:../../source/src/FWlib/src/stm32f10x_adc.c ****   ADCx->CR2 = tmpreg;
 1570              		.loc 1 812 0
 1571 05f8 7B68     		ldr	r3, [r7, #4]
 1572 05fa FA68     		ldr	r2, [r7, #12]
 1573 05fc 9A60     		str	r2, [r3, #8]
 813:../../source/src/FWlib/src/stm32f10x_adc.c **** }
 1574              		.loc 1 813 0
 1575 05fe 00BF     		nop
 1576 0600 1437     		adds	r7, r7, #20
 1577              	.LCFI120:
 1578              		.cfi_def_cfa_offset 4
 1579 0602 BD46     		mov	sp, r7
 1580              	.LCFI121:
 1581              		.cfi_def_cfa_register 13
 1582              		@ sp needed
 1583 0604 80BC     		pop	{r7}
 1584              	.LCFI122:
 1585              		.cfi_restore 7
 1586              		.cfi_def_cfa_offset 0
 1587 0606 7047     		bx	lr
 1588              		.cfi_endproc
 1589              	.LFE49:
 1590              		.size	ADC_ExternalTrigInjectedConvConfig, .-ADC_ExternalTrigInjectedConvConfig
 1591              		.align	1
 1592              		.global	ADC_ExternalTrigInjectedConvCmd
 1593              		.syntax unified
 1594              		.thumb
 1595              		.thumb_func
 1596              		.fpu softvfp
 1597              		.type	ADC_ExternalTrigInjectedConvCmd, %function
 1598              	ADC_ExternalTrigInjectedConvCmd:
 1599              	.LFB50:
 814:../../source/src/FWlib/src/stm32f10x_adc.c **** 
 815:../../source/src/FWlib/src/stm32f10x_adc.c **** /**
 816:../../source/src/FWlib/src/stm32f10x_adc.c ****   * @brief  Enables or disables the ADCx injected channels conversion through
 817:../../source/src/FWlib/src/stm32f10x_adc.c ****   *         external trigger
 818:../../source/src/FWlib/src/stm32f10x_adc.c ****   * @param  ADCx: where x can be 1, 2 or 3 to select the ADC peripheral.
 819:../../source/src/FWlib/src/stm32f10x_adc.c ****   * @param  NewState: new state of the selected ADC external trigger start of
 820:../../source/src/FWlib/src/stm32f10x_adc.c ****   *         injected conversion.
 821:../../source/src/FWlib/src/stm32f10x_adc.c ****   *   This parameter can be: ENABLE or DISABLE.
 822:../../source/src/FWlib/src/stm32f10x_adc.c ****   * @retval None
 823:../../source/src/FWlib/src/stm32f10x_adc.c ****   */
 824:../../source/src/FWlib/src/stm32f10x_adc.c **** void ADC_ExternalTrigInjectedConvCmd(ADC_TypeDef* ADCx, FunctionalState NewState)
ARM GAS  G:\Users\Jaxb\AppData\Local\Temp\cc4YWfMb.s 			page 44


 825:../../source/src/FWlib/src/stm32f10x_adc.c **** {
 1600              		.loc 1 825 0
 1601              		.cfi_startproc
 1602              		@ args = 0, pretend = 0, frame = 8
 1603              		@ frame_needed = 1, uses_anonymous_args = 0
 1604              		@ link register save eliminated.
 1605 0608 80B4     		push	{r7}
 1606              	.LCFI123:
 1607              		.cfi_def_cfa_offset 4
 1608              		.cfi_offset 7, -4
 1609 060a 83B0     		sub	sp, sp, #12
 1610              	.LCFI124:
 1611              		.cfi_def_cfa_offset 16
 1612 060c 00AF     		add	r7, sp, #0
 1613              	.LCFI125:
 1614              		.cfi_def_cfa_register 7
 1615 060e 7860     		str	r0, [r7, #4]
 1616 0610 0B46     		mov	r3, r1
 1617 0612 FB70     		strb	r3, [r7, #3]
 826:../../source/src/FWlib/src/stm32f10x_adc.c ****   /* Check the parameters */
 827:../../source/src/FWlib/src/stm32f10x_adc.c ****   assert_param(IS_ADC_ALL_PERIPH(ADCx));
 828:../../source/src/FWlib/src/stm32f10x_adc.c ****   assert_param(IS_FUNCTIONAL_STATE(NewState));
 829:../../source/src/FWlib/src/stm32f10x_adc.c ****   if (NewState != DISABLE)
 1618              		.loc 1 829 0
 1619 0614 FB78     		ldrb	r3, [r7, #3]	@ zero_extendqisi2
 1620 0616 002B     		cmp	r3, #0
 1621 0618 06D0     		beq	.L74
 830:../../source/src/FWlib/src/stm32f10x_adc.c ****   {
 831:../../source/src/FWlib/src/stm32f10x_adc.c ****     /* Enable the selected ADC external event selection for injected group */
 832:../../source/src/FWlib/src/stm32f10x_adc.c ****     ADCx->CR2 |= CR2_JEXTTRIG_Set;
 1622              		.loc 1 832 0
 1623 061a 7B68     		ldr	r3, [r7, #4]
 1624 061c 9B68     		ldr	r3, [r3, #8]
 1625 061e 43F40042 		orr	r2, r3, #32768
 1626 0622 7B68     		ldr	r3, [r7, #4]
 1627 0624 9A60     		str	r2, [r3, #8]
 833:../../source/src/FWlib/src/stm32f10x_adc.c ****   }
 834:../../source/src/FWlib/src/stm32f10x_adc.c ****   else
 835:../../source/src/FWlib/src/stm32f10x_adc.c ****   {
 836:../../source/src/FWlib/src/stm32f10x_adc.c ****     /* Disable the selected ADC external event selection for injected group */
 837:../../source/src/FWlib/src/stm32f10x_adc.c ****     ADCx->CR2 &= CR2_JEXTTRIG_Reset;
 838:../../source/src/FWlib/src/stm32f10x_adc.c ****   }
 839:../../source/src/FWlib/src/stm32f10x_adc.c **** }
 1628              		.loc 1 839 0
 1629 0626 05E0     		b	.L76
 1630              	.L74:
 837:../../source/src/FWlib/src/stm32f10x_adc.c ****   }
 1631              		.loc 1 837 0
 1632 0628 7B68     		ldr	r3, [r7, #4]
 1633 062a 9B68     		ldr	r3, [r3, #8]
 1634 062c 23F40042 		bic	r2, r3, #32768
 1635 0630 7B68     		ldr	r3, [r7, #4]
 1636 0632 9A60     		str	r2, [r3, #8]
 1637              	.L76:
 1638              		.loc 1 839 0
 1639 0634 00BF     		nop
 1640 0636 0C37     		adds	r7, r7, #12
ARM GAS  G:\Users\Jaxb\AppData\Local\Temp\cc4YWfMb.s 			page 45


 1641              	.LCFI126:
 1642              		.cfi_def_cfa_offset 4
 1643 0638 BD46     		mov	sp, r7
 1644              	.LCFI127:
 1645              		.cfi_def_cfa_register 13
 1646              		@ sp needed
 1647 063a 80BC     		pop	{r7}
 1648              	.LCFI128:
 1649              		.cfi_restore 7
 1650              		.cfi_def_cfa_offset 0
 1651 063c 7047     		bx	lr
 1652              		.cfi_endproc
 1653              	.LFE50:
 1654              		.size	ADC_ExternalTrigInjectedConvCmd, .-ADC_ExternalTrigInjectedConvCmd
 1655              		.align	1
 1656              		.global	ADC_SoftwareStartInjectedConvCmd
 1657              		.syntax unified
 1658              		.thumb
 1659              		.thumb_func
 1660              		.fpu softvfp
 1661              		.type	ADC_SoftwareStartInjectedConvCmd, %function
 1662              	ADC_SoftwareStartInjectedConvCmd:
 1663              	.LFB51:
 840:../../source/src/FWlib/src/stm32f10x_adc.c **** 
 841:../../source/src/FWlib/src/stm32f10x_adc.c **** /**
 842:../../source/src/FWlib/src/stm32f10x_adc.c ****   * @brief  Enables or disables the selected ADC start of the injected 
 843:../../source/src/FWlib/src/stm32f10x_adc.c ****   *         channels conversion.
 844:../../source/src/FWlib/src/stm32f10x_adc.c ****   * @param  ADCx: where x can be 1, 2 or 3 to select the ADC peripheral.
 845:../../source/src/FWlib/src/stm32f10x_adc.c ****   * @param  NewState: new state of the selected ADC software start injected conversion.
 846:../../source/src/FWlib/src/stm32f10x_adc.c ****   *   This parameter can be: ENABLE or DISABLE.
 847:../../source/src/FWlib/src/stm32f10x_adc.c ****   * @retval None
 848:../../source/src/FWlib/src/stm32f10x_adc.c ****   */
 849:../../source/src/FWlib/src/stm32f10x_adc.c **** void ADC_SoftwareStartInjectedConvCmd(ADC_TypeDef* ADCx, FunctionalState NewState)
 850:../../source/src/FWlib/src/stm32f10x_adc.c **** {
 1664              		.loc 1 850 0
 1665              		.cfi_startproc
 1666              		@ args = 0, pretend = 0, frame = 8
 1667              		@ frame_needed = 1, uses_anonymous_args = 0
 1668              		@ link register save eliminated.
 1669 063e 80B4     		push	{r7}
 1670              	.LCFI129:
 1671              		.cfi_def_cfa_offset 4
 1672              		.cfi_offset 7, -4
 1673 0640 83B0     		sub	sp, sp, #12
 1674              	.LCFI130:
 1675              		.cfi_def_cfa_offset 16
 1676 0642 00AF     		add	r7, sp, #0
 1677              	.LCFI131:
 1678              		.cfi_def_cfa_register 7
 1679 0644 7860     		str	r0, [r7, #4]
 1680 0646 0B46     		mov	r3, r1
 1681 0648 FB70     		strb	r3, [r7, #3]
 851:../../source/src/FWlib/src/stm32f10x_adc.c ****   /* Check the parameters */
 852:../../source/src/FWlib/src/stm32f10x_adc.c ****   assert_param(IS_ADC_ALL_PERIPH(ADCx));
 853:../../source/src/FWlib/src/stm32f10x_adc.c ****   assert_param(IS_FUNCTIONAL_STATE(NewState));
 854:../../source/src/FWlib/src/stm32f10x_adc.c ****   if (NewState != DISABLE)
 1682              		.loc 1 854 0
ARM GAS  G:\Users\Jaxb\AppData\Local\Temp\cc4YWfMb.s 			page 46


 1683 064a FB78     		ldrb	r3, [r7, #3]	@ zero_extendqisi2
 1684 064c 002B     		cmp	r3, #0
 1685 064e 06D0     		beq	.L78
 855:../../source/src/FWlib/src/stm32f10x_adc.c ****   {
 856:../../source/src/FWlib/src/stm32f10x_adc.c ****     /* Enable the selected ADC conversion for injected group on external event and start the select
 857:../../source/src/FWlib/src/stm32f10x_adc.c ****        ADC injected conversion */
 858:../../source/src/FWlib/src/stm32f10x_adc.c ****     ADCx->CR2 |= CR2_JEXTTRIG_JSWSTART_Set;
 1686              		.loc 1 858 0
 1687 0650 7B68     		ldr	r3, [r7, #4]
 1688 0652 9B68     		ldr	r3, [r3, #8]
 1689 0654 43F40212 		orr	r2, r3, #2129920
 1690 0658 7B68     		ldr	r3, [r7, #4]
 1691 065a 9A60     		str	r2, [r3, #8]
 859:../../source/src/FWlib/src/stm32f10x_adc.c ****   }
 860:../../source/src/FWlib/src/stm32f10x_adc.c ****   else
 861:../../source/src/FWlib/src/stm32f10x_adc.c ****   {
 862:../../source/src/FWlib/src/stm32f10x_adc.c ****     /* Disable the selected ADC conversion on external event for injected group and stop the select
 863:../../source/src/FWlib/src/stm32f10x_adc.c ****        ADC injected conversion */
 864:../../source/src/FWlib/src/stm32f10x_adc.c ****     ADCx->CR2 &= CR2_JEXTTRIG_JSWSTART_Reset;
 865:../../source/src/FWlib/src/stm32f10x_adc.c ****   }
 866:../../source/src/FWlib/src/stm32f10x_adc.c **** }
 1692              		.loc 1 866 0
 1693 065c 05E0     		b	.L80
 1694              	.L78:
 864:../../source/src/FWlib/src/stm32f10x_adc.c ****   }
 1695              		.loc 1 864 0
 1696 065e 7B68     		ldr	r3, [r7, #4]
 1697 0660 9B68     		ldr	r3, [r3, #8]
 1698 0662 23F40212 		bic	r2, r3, #2129920
 1699 0666 7B68     		ldr	r3, [r7, #4]
 1700 0668 9A60     		str	r2, [r3, #8]
 1701              	.L80:
 1702              		.loc 1 866 0
 1703 066a 00BF     		nop
 1704 066c 0C37     		adds	r7, r7, #12
 1705              	.LCFI132:
 1706              		.cfi_def_cfa_offset 4
 1707 066e BD46     		mov	sp, r7
 1708              	.LCFI133:
 1709              		.cfi_def_cfa_register 13
 1710              		@ sp needed
 1711 0670 80BC     		pop	{r7}
 1712              	.LCFI134:
 1713              		.cfi_restore 7
 1714              		.cfi_def_cfa_offset 0
 1715 0672 7047     		bx	lr
 1716              		.cfi_endproc
 1717              	.LFE51:
 1718              		.size	ADC_SoftwareStartInjectedConvCmd, .-ADC_SoftwareStartInjectedConvCmd
 1719              		.align	1
 1720              		.global	ADC_GetSoftwareStartInjectedConvCmdStatus
 1721              		.syntax unified
 1722              		.thumb
 1723              		.thumb_func
 1724              		.fpu softvfp
 1725              		.type	ADC_GetSoftwareStartInjectedConvCmdStatus, %function
 1726              	ADC_GetSoftwareStartInjectedConvCmdStatus:
ARM GAS  G:\Users\Jaxb\AppData\Local\Temp\cc4YWfMb.s 			page 47


 1727              	.LFB52:
 867:../../source/src/FWlib/src/stm32f10x_adc.c **** 
 868:../../source/src/FWlib/src/stm32f10x_adc.c **** /**
 869:../../source/src/FWlib/src/stm32f10x_adc.c ****   * @brief  Gets the selected ADC Software start injected conversion Status.
 870:../../source/src/FWlib/src/stm32f10x_adc.c ****   * @param  ADCx: where x can be 1, 2 or 3 to select the ADC peripheral.
 871:../../source/src/FWlib/src/stm32f10x_adc.c ****   * @retval The new state of ADC software start injected conversion (SET or RESET).
 872:../../source/src/FWlib/src/stm32f10x_adc.c ****   */
 873:../../source/src/FWlib/src/stm32f10x_adc.c **** FlagStatus ADC_GetSoftwareStartInjectedConvCmdStatus(ADC_TypeDef* ADCx)
 874:../../source/src/FWlib/src/stm32f10x_adc.c **** {
 1728              		.loc 1 874 0
 1729              		.cfi_startproc
 1730              		@ args = 0, pretend = 0, frame = 16
 1731              		@ frame_needed = 1, uses_anonymous_args = 0
 1732              		@ link register save eliminated.
 1733 0674 80B4     		push	{r7}
 1734              	.LCFI135:
 1735              		.cfi_def_cfa_offset 4
 1736              		.cfi_offset 7, -4
 1737 0676 85B0     		sub	sp, sp, #20
 1738              	.LCFI136:
 1739              		.cfi_def_cfa_offset 24
 1740 0678 00AF     		add	r7, sp, #0
 1741              	.LCFI137:
 1742              		.cfi_def_cfa_register 7
 1743 067a 7860     		str	r0, [r7, #4]
 875:../../source/src/FWlib/src/stm32f10x_adc.c ****   FlagStatus bitstatus = RESET;
 1744              		.loc 1 875 0
 1745 067c 0023     		movs	r3, #0
 1746 067e FB73     		strb	r3, [r7, #15]
 876:../../source/src/FWlib/src/stm32f10x_adc.c ****   /* Check the parameters */
 877:../../source/src/FWlib/src/stm32f10x_adc.c ****   assert_param(IS_ADC_ALL_PERIPH(ADCx));
 878:../../source/src/FWlib/src/stm32f10x_adc.c ****   /* Check the status of JSWSTART bit */
 879:../../source/src/FWlib/src/stm32f10x_adc.c ****   if ((ADCx->CR2 & CR2_JSWSTART_Set) != (uint32_t)RESET)
 1747              		.loc 1 879 0
 1748 0680 7B68     		ldr	r3, [r7, #4]
 1749 0682 9B68     		ldr	r3, [r3, #8]
 1750 0684 03F40013 		and	r3, r3, #2097152
 1751 0688 002B     		cmp	r3, #0
 1752 068a 02D0     		beq	.L82
 880:../../source/src/FWlib/src/stm32f10x_adc.c ****   {
 881:../../source/src/FWlib/src/stm32f10x_adc.c ****     /* JSWSTART bit is set */
 882:../../source/src/FWlib/src/stm32f10x_adc.c ****     bitstatus = SET;
 1753              		.loc 1 882 0
 1754 068c 0123     		movs	r3, #1
 1755 068e FB73     		strb	r3, [r7, #15]
 1756 0690 01E0     		b	.L83
 1757              	.L82:
 883:../../source/src/FWlib/src/stm32f10x_adc.c ****   }
 884:../../source/src/FWlib/src/stm32f10x_adc.c ****   else
 885:../../source/src/FWlib/src/stm32f10x_adc.c ****   {
 886:../../source/src/FWlib/src/stm32f10x_adc.c ****     /* JSWSTART bit is reset */
 887:../../source/src/FWlib/src/stm32f10x_adc.c ****     bitstatus = RESET;
 1758              		.loc 1 887 0
 1759 0692 0023     		movs	r3, #0
 1760 0694 FB73     		strb	r3, [r7, #15]
 1761              	.L83:
 888:../../source/src/FWlib/src/stm32f10x_adc.c ****   }
ARM GAS  G:\Users\Jaxb\AppData\Local\Temp\cc4YWfMb.s 			page 48


 889:../../source/src/FWlib/src/stm32f10x_adc.c ****   /* Return the JSWSTART bit status */
 890:../../source/src/FWlib/src/stm32f10x_adc.c ****   return  bitstatus;
 1762              		.loc 1 890 0
 1763 0696 FB7B     		ldrb	r3, [r7, #15]	@ zero_extendqisi2
 891:../../source/src/FWlib/src/stm32f10x_adc.c **** }
 1764              		.loc 1 891 0
 1765 0698 1846     		mov	r0, r3
 1766 069a 1437     		adds	r7, r7, #20
 1767              	.LCFI138:
 1768              		.cfi_def_cfa_offset 4
 1769 069c BD46     		mov	sp, r7
 1770              	.LCFI139:
 1771              		.cfi_def_cfa_register 13
 1772              		@ sp needed
 1773 069e 80BC     		pop	{r7}
 1774              	.LCFI140:
 1775              		.cfi_restore 7
 1776              		.cfi_def_cfa_offset 0
 1777 06a0 7047     		bx	lr
 1778              		.cfi_endproc
 1779              	.LFE52:
 1780              		.size	ADC_GetSoftwareStartInjectedConvCmdStatus, .-ADC_GetSoftwareStartInjectedConvCmdStatus
 1781              		.align	1
 1782              		.global	ADC_InjectedChannelConfig
 1783              		.syntax unified
 1784              		.thumb
 1785              		.thumb_func
 1786              		.fpu softvfp
 1787              		.type	ADC_InjectedChannelConfig, %function
 1788              	ADC_InjectedChannelConfig:
 1789              	.LFB53:
 892:../../source/src/FWlib/src/stm32f10x_adc.c **** 
 893:../../source/src/FWlib/src/stm32f10x_adc.c **** /**
 894:../../source/src/FWlib/src/stm32f10x_adc.c ****   * @brief  Configures for the selected ADC injected channel its corresponding
 895:../../source/src/FWlib/src/stm32f10x_adc.c ****   *         rank in the sequencer and its sample time.
 896:../../source/src/FWlib/src/stm32f10x_adc.c ****   * @param  ADCx: where x can be 1, 2 or 3 to select the ADC peripheral.
 897:../../source/src/FWlib/src/stm32f10x_adc.c ****   * @param  ADC_Channel: the ADC channel to configure. 
 898:../../source/src/FWlib/src/stm32f10x_adc.c ****   *   This parameter can be one of the following values:
 899:../../source/src/FWlib/src/stm32f10x_adc.c ****   *     @arg ADC_Channel_0: ADC Channel0 selected
 900:../../source/src/FWlib/src/stm32f10x_adc.c ****   *     @arg ADC_Channel_1: ADC Channel1 selected
 901:../../source/src/FWlib/src/stm32f10x_adc.c ****   *     @arg ADC_Channel_2: ADC Channel2 selected
 902:../../source/src/FWlib/src/stm32f10x_adc.c ****   *     @arg ADC_Channel_3: ADC Channel3 selected
 903:../../source/src/FWlib/src/stm32f10x_adc.c ****   *     @arg ADC_Channel_4: ADC Channel4 selected
 904:../../source/src/FWlib/src/stm32f10x_adc.c ****   *     @arg ADC_Channel_5: ADC Channel5 selected
 905:../../source/src/FWlib/src/stm32f10x_adc.c ****   *     @arg ADC_Channel_6: ADC Channel6 selected
 906:../../source/src/FWlib/src/stm32f10x_adc.c ****   *     @arg ADC_Channel_7: ADC Channel7 selected
 907:../../source/src/FWlib/src/stm32f10x_adc.c ****   *     @arg ADC_Channel_8: ADC Channel8 selected
 908:../../source/src/FWlib/src/stm32f10x_adc.c ****   *     @arg ADC_Channel_9: ADC Channel9 selected
 909:../../source/src/FWlib/src/stm32f10x_adc.c ****   *     @arg ADC_Channel_10: ADC Channel10 selected
 910:../../source/src/FWlib/src/stm32f10x_adc.c ****   *     @arg ADC_Channel_11: ADC Channel11 selected
 911:../../source/src/FWlib/src/stm32f10x_adc.c ****   *     @arg ADC_Channel_12: ADC Channel12 selected
 912:../../source/src/FWlib/src/stm32f10x_adc.c ****   *     @arg ADC_Channel_13: ADC Channel13 selected
 913:../../source/src/FWlib/src/stm32f10x_adc.c ****   *     @arg ADC_Channel_14: ADC Channel14 selected
 914:../../source/src/FWlib/src/stm32f10x_adc.c ****   *     @arg ADC_Channel_15: ADC Channel15 selected
 915:../../source/src/FWlib/src/stm32f10x_adc.c ****   *     @arg ADC_Channel_16: ADC Channel16 selected
 916:../../source/src/FWlib/src/stm32f10x_adc.c ****   *     @arg ADC_Channel_17: ADC Channel17 selected
 917:../../source/src/FWlib/src/stm32f10x_adc.c ****   * @param  Rank: The rank in the injected group sequencer. This parameter must be between 1 and 4.
ARM GAS  G:\Users\Jaxb\AppData\Local\Temp\cc4YWfMb.s 			page 49


 918:../../source/src/FWlib/src/stm32f10x_adc.c ****   * @param  ADC_SampleTime: The sample time value to be set for the selected channel. 
 919:../../source/src/FWlib/src/stm32f10x_adc.c ****   *   This parameter can be one of the following values:
 920:../../source/src/FWlib/src/stm32f10x_adc.c ****   *     @arg ADC_SampleTime_1Cycles5: Sample time equal to 1.5 cycles
 921:../../source/src/FWlib/src/stm32f10x_adc.c ****   *     @arg ADC_SampleTime_7Cycles5: Sample time equal to 7.5 cycles
 922:../../source/src/FWlib/src/stm32f10x_adc.c ****   *     @arg ADC_SampleTime_13Cycles5: Sample time equal to 13.5 cycles
 923:../../source/src/FWlib/src/stm32f10x_adc.c ****   *     @arg ADC_SampleTime_28Cycles5: Sample time equal to 28.5 cycles	
 924:../../source/src/FWlib/src/stm32f10x_adc.c ****   *     @arg ADC_SampleTime_41Cycles5: Sample time equal to 41.5 cycles	
 925:../../source/src/FWlib/src/stm32f10x_adc.c ****   *     @arg ADC_SampleTime_55Cycles5: Sample time equal to 55.5 cycles	
 926:../../source/src/FWlib/src/stm32f10x_adc.c ****   *     @arg ADC_SampleTime_71Cycles5: Sample time equal to 71.5 cycles	
 927:../../source/src/FWlib/src/stm32f10x_adc.c ****   *     @arg ADC_SampleTime_239Cycles5: Sample time equal to 239.5 cycles	
 928:../../source/src/FWlib/src/stm32f10x_adc.c ****   * @retval None
 929:../../source/src/FWlib/src/stm32f10x_adc.c ****   */
 930:../../source/src/FWlib/src/stm32f10x_adc.c **** void ADC_InjectedChannelConfig(ADC_TypeDef* ADCx, uint8_t ADC_Channel, uint8_t Rank, uint8_t ADC_Sa
 931:../../source/src/FWlib/src/stm32f10x_adc.c **** {
 1790              		.loc 1 931 0
 1791              		.cfi_startproc
 1792              		@ args = 0, pretend = 0, frame = 24
 1793              		@ frame_needed = 1, uses_anonymous_args = 0
 1794              		@ link register save eliminated.
 1795 06a2 80B4     		push	{r7}
 1796              	.LCFI141:
 1797              		.cfi_def_cfa_offset 4
 1798              		.cfi_offset 7, -4
 1799 06a4 87B0     		sub	sp, sp, #28
 1800              	.LCFI142:
 1801              		.cfi_def_cfa_offset 32
 1802 06a6 00AF     		add	r7, sp, #0
 1803              	.LCFI143:
 1804              		.cfi_def_cfa_register 7
 1805 06a8 7860     		str	r0, [r7, #4]
 1806 06aa 0846     		mov	r0, r1
 1807 06ac 1146     		mov	r1, r2
 1808 06ae 1A46     		mov	r2, r3
 1809 06b0 0346     		mov	r3, r0
 1810 06b2 FB70     		strb	r3, [r7, #3]
 1811 06b4 0B46     		mov	r3, r1
 1812 06b6 BB70     		strb	r3, [r7, #2]
 1813 06b8 1346     		mov	r3, r2
 1814 06ba 7B70     		strb	r3, [r7, #1]
 932:../../source/src/FWlib/src/stm32f10x_adc.c ****   uint32_t tmpreg1 = 0, tmpreg2 = 0, tmpreg3 = 0;
 1815              		.loc 1 932 0
 1816 06bc 0023     		movs	r3, #0
 1817 06be 7B61     		str	r3, [r7, #20]
 1818 06c0 0023     		movs	r3, #0
 1819 06c2 3B61     		str	r3, [r7, #16]
 1820 06c4 0023     		movs	r3, #0
 1821 06c6 FB60     		str	r3, [r7, #12]
 933:../../source/src/FWlib/src/stm32f10x_adc.c ****   /* Check the parameters */
 934:../../source/src/FWlib/src/stm32f10x_adc.c ****   assert_param(IS_ADC_ALL_PERIPH(ADCx));
 935:../../source/src/FWlib/src/stm32f10x_adc.c ****   assert_param(IS_ADC_CHANNEL(ADC_Channel));
 936:../../source/src/FWlib/src/stm32f10x_adc.c ****   assert_param(IS_ADC_INJECTED_RANK(Rank));
 937:../../source/src/FWlib/src/stm32f10x_adc.c ****   assert_param(IS_ADC_SAMPLE_TIME(ADC_SampleTime));
 938:../../source/src/FWlib/src/stm32f10x_adc.c ****   /* if ADC_Channel_10 ... ADC_Channel_17 is selected */
 939:../../source/src/FWlib/src/stm32f10x_adc.c ****   if (ADC_Channel > ADC_Channel_9)
 1822              		.loc 1 939 0
 1823 06c8 FB78     		ldrb	r3, [r7, #3]	@ zero_extendqisi2
 1824 06ca 092B     		cmp	r3, #9
ARM GAS  G:\Users\Jaxb\AppData\Local\Temp\cc4YWfMb.s 			page 50


 1825 06cc 23D9     		bls	.L86
 940:../../source/src/FWlib/src/stm32f10x_adc.c ****   {
 941:../../source/src/FWlib/src/stm32f10x_adc.c ****     /* Get the old register value */
 942:../../source/src/FWlib/src/stm32f10x_adc.c ****     tmpreg1 = ADCx->SMPR1;
 1826              		.loc 1 942 0
 1827 06ce 7B68     		ldr	r3, [r7, #4]
 1828 06d0 DB68     		ldr	r3, [r3, #12]
 1829 06d2 7B61     		str	r3, [r7, #20]
 943:../../source/src/FWlib/src/stm32f10x_adc.c ****     /* Calculate the mask to clear */
 944:../../source/src/FWlib/src/stm32f10x_adc.c ****     tmpreg2 = SMPR1_SMP_Set << (3*(ADC_Channel - 10));
 1830              		.loc 1 944 0
 1831 06d4 FB78     		ldrb	r3, [r7, #3]	@ zero_extendqisi2
 1832 06d6 A3F10A02 		sub	r2, r3, #10
 1833 06da 1346     		mov	r3, r2
 1834 06dc 5B00     		lsls	r3, r3, #1
 1835 06de 1344     		add	r3, r3, r2
 1836 06e0 0722     		movs	r2, #7
 1837 06e2 02FA03F3 		lsl	r3, r2, r3
 1838 06e6 3B61     		str	r3, [r7, #16]
 945:../../source/src/FWlib/src/stm32f10x_adc.c ****     /* Clear the old channel sample time */
 946:../../source/src/FWlib/src/stm32f10x_adc.c ****     tmpreg1 &= ~tmpreg2;
 1839              		.loc 1 946 0
 1840 06e8 3B69     		ldr	r3, [r7, #16]
 1841 06ea DB43     		mvns	r3, r3
 1842 06ec 7A69     		ldr	r2, [r7, #20]
 1843 06ee 1340     		ands	r3, r3, r2
 1844 06f0 7B61     		str	r3, [r7, #20]
 947:../../source/src/FWlib/src/stm32f10x_adc.c ****     /* Calculate the mask to set */
 948:../../source/src/FWlib/src/stm32f10x_adc.c ****     tmpreg2 = (uint32_t)ADC_SampleTime << (3*(ADC_Channel - 10));
 1845              		.loc 1 948 0
 1846 06f2 7978     		ldrb	r1, [r7, #1]	@ zero_extendqisi2
 1847 06f4 FB78     		ldrb	r3, [r7, #3]	@ zero_extendqisi2
 1848 06f6 A3F10A02 		sub	r2, r3, #10
 1849 06fa 1346     		mov	r3, r2
 1850 06fc 5B00     		lsls	r3, r3, #1
 1851 06fe 1344     		add	r3, r3, r2
 1852 0700 01FA03F3 		lsl	r3, r1, r3
 1853 0704 3B61     		str	r3, [r7, #16]
 949:../../source/src/FWlib/src/stm32f10x_adc.c ****     /* Set the new channel sample time */
 950:../../source/src/FWlib/src/stm32f10x_adc.c ****     tmpreg1 |= tmpreg2;
 1854              		.loc 1 950 0
 1855 0706 7A69     		ldr	r2, [r7, #20]
 1856 0708 3B69     		ldr	r3, [r7, #16]
 1857 070a 1343     		orrs	r3, r3, r2
 1858 070c 7B61     		str	r3, [r7, #20]
 951:../../source/src/FWlib/src/stm32f10x_adc.c ****     /* Store the new register value */
 952:../../source/src/FWlib/src/stm32f10x_adc.c ****     ADCx->SMPR1 = tmpreg1;
 1859              		.loc 1 952 0
 1860 070e 7B68     		ldr	r3, [r7, #4]
 1861 0710 7A69     		ldr	r2, [r7, #20]
 1862 0712 DA60     		str	r2, [r3, #12]
 1863 0714 1EE0     		b	.L87
 1864              	.L86:
 953:../../source/src/FWlib/src/stm32f10x_adc.c ****   }
 954:../../source/src/FWlib/src/stm32f10x_adc.c ****   else /* ADC_Channel include in ADC_Channel_[0..9] */
 955:../../source/src/FWlib/src/stm32f10x_adc.c ****   {
 956:../../source/src/FWlib/src/stm32f10x_adc.c ****     /* Get the old register value */
ARM GAS  G:\Users\Jaxb\AppData\Local\Temp\cc4YWfMb.s 			page 51


 957:../../source/src/FWlib/src/stm32f10x_adc.c ****     tmpreg1 = ADCx->SMPR2;
 1865              		.loc 1 957 0
 1866 0716 7B68     		ldr	r3, [r7, #4]
 1867 0718 1B69     		ldr	r3, [r3, #16]
 1868 071a 7B61     		str	r3, [r7, #20]
 958:../../source/src/FWlib/src/stm32f10x_adc.c ****     /* Calculate the mask to clear */
 959:../../source/src/FWlib/src/stm32f10x_adc.c ****     tmpreg2 = SMPR2_SMP_Set << (3 * ADC_Channel);
 1869              		.loc 1 959 0
 1870 071c FA78     		ldrb	r2, [r7, #3]	@ zero_extendqisi2
 1871 071e 1346     		mov	r3, r2
 1872 0720 5B00     		lsls	r3, r3, #1
 1873 0722 1344     		add	r3, r3, r2
 1874 0724 0722     		movs	r2, #7
 1875 0726 02FA03F3 		lsl	r3, r2, r3
 1876 072a 3B61     		str	r3, [r7, #16]
 960:../../source/src/FWlib/src/stm32f10x_adc.c ****     /* Clear the old channel sample time */
 961:../../source/src/FWlib/src/stm32f10x_adc.c ****     tmpreg1 &= ~tmpreg2;
 1877              		.loc 1 961 0
 1878 072c 3B69     		ldr	r3, [r7, #16]
 1879 072e DB43     		mvns	r3, r3
 1880 0730 7A69     		ldr	r2, [r7, #20]
 1881 0732 1340     		ands	r3, r3, r2
 1882 0734 7B61     		str	r3, [r7, #20]
 962:../../source/src/FWlib/src/stm32f10x_adc.c ****     /* Calculate the mask to set */
 963:../../source/src/FWlib/src/stm32f10x_adc.c ****     tmpreg2 = (uint32_t)ADC_SampleTime << (3 * ADC_Channel);
 1883              		.loc 1 963 0
 1884 0736 7978     		ldrb	r1, [r7, #1]	@ zero_extendqisi2
 1885 0738 FA78     		ldrb	r2, [r7, #3]	@ zero_extendqisi2
 1886 073a 1346     		mov	r3, r2
 1887 073c 5B00     		lsls	r3, r3, #1
 1888 073e 1344     		add	r3, r3, r2
 1889 0740 01FA03F3 		lsl	r3, r1, r3
 1890 0744 3B61     		str	r3, [r7, #16]
 964:../../source/src/FWlib/src/stm32f10x_adc.c ****     /* Set the new channel sample time */
 965:../../source/src/FWlib/src/stm32f10x_adc.c ****     tmpreg1 |= tmpreg2;
 1891              		.loc 1 965 0
 1892 0746 7A69     		ldr	r2, [r7, #20]
 1893 0748 3B69     		ldr	r3, [r7, #16]
 1894 074a 1343     		orrs	r3, r3, r2
 1895 074c 7B61     		str	r3, [r7, #20]
 966:../../source/src/FWlib/src/stm32f10x_adc.c ****     /* Store the new register value */
 967:../../source/src/FWlib/src/stm32f10x_adc.c ****     ADCx->SMPR2 = tmpreg1;
 1896              		.loc 1 967 0
 1897 074e 7B68     		ldr	r3, [r7, #4]
 1898 0750 7A69     		ldr	r2, [r7, #20]
 1899 0752 1A61     		str	r2, [r3, #16]
 1900              	.L87:
 968:../../source/src/FWlib/src/stm32f10x_adc.c ****   }
 969:../../source/src/FWlib/src/stm32f10x_adc.c ****   /* Rank configuration */
 970:../../source/src/FWlib/src/stm32f10x_adc.c ****   /* Get the old register value */
 971:../../source/src/FWlib/src/stm32f10x_adc.c ****   tmpreg1 = ADCx->JSQR;
 1901              		.loc 1 971 0
 1902 0754 7B68     		ldr	r3, [r7, #4]
 1903 0756 9B6B     		ldr	r3, [r3, #56]
 1904 0758 7B61     		str	r3, [r7, #20]
 972:../../source/src/FWlib/src/stm32f10x_adc.c ****   /* Get JL value: Number = JL+1 */
 973:../../source/src/FWlib/src/stm32f10x_adc.c ****   tmpreg3 =  (tmpreg1 & JSQR_JL_Set)>> 20;
ARM GAS  G:\Users\Jaxb\AppData\Local\Temp\cc4YWfMb.s 			page 52


 1905              		.loc 1 973 0
 1906 075a 7B69     		ldr	r3, [r7, #20]
 1907 075c 1B0D     		lsrs	r3, r3, #20
 1908 075e 03F00303 		and	r3, r3, #3
 1909 0762 FB60     		str	r3, [r7, #12]
 974:../../source/src/FWlib/src/stm32f10x_adc.c ****   /* Calculate the mask to clear: ((Rank-1)+(4-JL-1)) */
 975:../../source/src/FWlib/src/stm32f10x_adc.c ****   tmpreg2 = JSQR_JSQ_Set << (5 * (uint8_t)((Rank + 3) - (tmpreg3 + 1)));
 1910              		.loc 1 975 0
 1911 0764 FB68     		ldr	r3, [r7, #12]
 1912 0766 DBB2     		uxtb	r3, r3
 1913 0768 BA78     		ldrb	r2, [r7, #2]
 1914 076a D31A     		subs	r3, r2, r3
 1915 076c DBB2     		uxtb	r3, r3
 1916 076e 0233     		adds	r3, r3, #2
 1917 0770 DBB2     		uxtb	r3, r3
 1918 0772 1A46     		mov	r2, r3
 1919 0774 1346     		mov	r3, r2
 1920 0776 9B00     		lsls	r3, r3, #2
 1921 0778 1344     		add	r3, r3, r2
 1922 077a 1F22     		movs	r2, #31
 1923 077c 02FA03F3 		lsl	r3, r2, r3
 1924 0780 3B61     		str	r3, [r7, #16]
 976:../../source/src/FWlib/src/stm32f10x_adc.c ****   /* Clear the old JSQx bits for the selected rank */
 977:../../source/src/FWlib/src/stm32f10x_adc.c ****   tmpreg1 &= ~tmpreg2;
 1925              		.loc 1 977 0
 1926 0782 3B69     		ldr	r3, [r7, #16]
 1927 0784 DB43     		mvns	r3, r3
 1928 0786 7A69     		ldr	r2, [r7, #20]
 1929 0788 1340     		ands	r3, r3, r2
 1930 078a 7B61     		str	r3, [r7, #20]
 978:../../source/src/FWlib/src/stm32f10x_adc.c ****   /* Calculate the mask to set: ((Rank-1)+(4-JL-1)) */
 979:../../source/src/FWlib/src/stm32f10x_adc.c ****   tmpreg2 = (uint32_t)ADC_Channel << (5 * (uint8_t)((Rank + 3) - (tmpreg3 + 1)));
 1931              		.loc 1 979 0
 1932 078c FA78     		ldrb	r2, [r7, #3]	@ zero_extendqisi2
 1933 078e FB68     		ldr	r3, [r7, #12]
 1934 0790 DBB2     		uxtb	r3, r3
 1935 0792 B978     		ldrb	r1, [r7, #2]
 1936 0794 CB1A     		subs	r3, r1, r3
 1937 0796 DBB2     		uxtb	r3, r3
 1938 0798 0233     		adds	r3, r3, #2
 1939 079a DBB2     		uxtb	r3, r3
 1940 079c 1946     		mov	r1, r3
 1941 079e 0B46     		mov	r3, r1
 1942 07a0 9B00     		lsls	r3, r3, #2
 1943 07a2 0B44     		add	r3, r3, r1
 1944 07a4 02FA03F3 		lsl	r3, r2, r3
 1945 07a8 3B61     		str	r3, [r7, #16]
 980:../../source/src/FWlib/src/stm32f10x_adc.c ****   /* Set the JSQx bits for the selected rank */
 981:../../source/src/FWlib/src/stm32f10x_adc.c ****   tmpreg1 |= tmpreg2;
 1946              		.loc 1 981 0
 1947 07aa 7A69     		ldr	r2, [r7, #20]
 1948 07ac 3B69     		ldr	r3, [r7, #16]
 1949 07ae 1343     		orrs	r3, r3, r2
 1950 07b0 7B61     		str	r3, [r7, #20]
 982:../../source/src/FWlib/src/stm32f10x_adc.c ****   /* Store the new register value */
 983:../../source/src/FWlib/src/stm32f10x_adc.c ****   ADCx->JSQR = tmpreg1;
 1951              		.loc 1 983 0
ARM GAS  G:\Users\Jaxb\AppData\Local\Temp\cc4YWfMb.s 			page 53


 1952 07b2 7B68     		ldr	r3, [r7, #4]
 1953 07b4 7A69     		ldr	r2, [r7, #20]
 1954 07b6 9A63     		str	r2, [r3, #56]
 984:../../source/src/FWlib/src/stm32f10x_adc.c **** }
 1955              		.loc 1 984 0
 1956 07b8 00BF     		nop
 1957 07ba 1C37     		adds	r7, r7, #28
 1958              	.LCFI144:
 1959              		.cfi_def_cfa_offset 4
 1960 07bc BD46     		mov	sp, r7
 1961              	.LCFI145:
 1962              		.cfi_def_cfa_register 13
 1963              		@ sp needed
 1964 07be 80BC     		pop	{r7}
 1965              	.LCFI146:
 1966              		.cfi_restore 7
 1967              		.cfi_def_cfa_offset 0
 1968 07c0 7047     		bx	lr
 1969              		.cfi_endproc
 1970              	.LFE53:
 1971              		.size	ADC_InjectedChannelConfig, .-ADC_InjectedChannelConfig
 1972              		.align	1
 1973              		.global	ADC_InjectedSequencerLengthConfig
 1974              		.syntax unified
 1975              		.thumb
 1976              		.thumb_func
 1977              		.fpu softvfp
 1978              		.type	ADC_InjectedSequencerLengthConfig, %function
 1979              	ADC_InjectedSequencerLengthConfig:
 1980              	.LFB54:
 985:../../source/src/FWlib/src/stm32f10x_adc.c **** 
 986:../../source/src/FWlib/src/stm32f10x_adc.c **** /**
 987:../../source/src/FWlib/src/stm32f10x_adc.c ****   * @brief  Configures the sequencer length for injected channels
 988:../../source/src/FWlib/src/stm32f10x_adc.c ****   * @param  ADCx: where x can be 1, 2 or 3 to select the ADC peripheral.
 989:../../source/src/FWlib/src/stm32f10x_adc.c ****   * @param  Length: The sequencer length. 
 990:../../source/src/FWlib/src/stm32f10x_adc.c ****   *   This parameter must be a number between 1 to 4.
 991:../../source/src/FWlib/src/stm32f10x_adc.c ****   * @retval None
 992:../../source/src/FWlib/src/stm32f10x_adc.c ****   */
 993:../../source/src/FWlib/src/stm32f10x_adc.c **** void ADC_InjectedSequencerLengthConfig(ADC_TypeDef* ADCx, uint8_t Length)
 994:../../source/src/FWlib/src/stm32f10x_adc.c **** {
 1981              		.loc 1 994 0
 1982              		.cfi_startproc
 1983              		@ args = 0, pretend = 0, frame = 16
 1984              		@ frame_needed = 1, uses_anonymous_args = 0
 1985              		@ link register save eliminated.
 1986 07c2 80B4     		push	{r7}
 1987              	.LCFI147:
 1988              		.cfi_def_cfa_offset 4
 1989              		.cfi_offset 7, -4
 1990 07c4 85B0     		sub	sp, sp, #20
 1991              	.LCFI148:
 1992              		.cfi_def_cfa_offset 24
 1993 07c6 00AF     		add	r7, sp, #0
 1994              	.LCFI149:
 1995              		.cfi_def_cfa_register 7
 1996 07c8 7860     		str	r0, [r7, #4]
 1997 07ca 0B46     		mov	r3, r1
ARM GAS  G:\Users\Jaxb\AppData\Local\Temp\cc4YWfMb.s 			page 54


 1998 07cc FB70     		strb	r3, [r7, #3]
 995:../../source/src/FWlib/src/stm32f10x_adc.c ****   uint32_t tmpreg1 = 0;
 1999              		.loc 1 995 0
 2000 07ce 0023     		movs	r3, #0
 2001 07d0 FB60     		str	r3, [r7, #12]
 996:../../source/src/FWlib/src/stm32f10x_adc.c ****   uint32_t tmpreg2 = 0;
 2002              		.loc 1 996 0
 2003 07d2 0023     		movs	r3, #0
 2004 07d4 BB60     		str	r3, [r7, #8]
 997:../../source/src/FWlib/src/stm32f10x_adc.c ****   /* Check the parameters */
 998:../../source/src/FWlib/src/stm32f10x_adc.c ****   assert_param(IS_ADC_ALL_PERIPH(ADCx));
 999:../../source/src/FWlib/src/stm32f10x_adc.c ****   assert_param(IS_ADC_INJECTED_LENGTH(Length));
1000:../../source/src/FWlib/src/stm32f10x_adc.c ****   
1001:../../source/src/FWlib/src/stm32f10x_adc.c ****   /* Get the old register value */
1002:../../source/src/FWlib/src/stm32f10x_adc.c ****   tmpreg1 = ADCx->JSQR;
 2005              		.loc 1 1002 0
 2006 07d6 7B68     		ldr	r3, [r7, #4]
 2007 07d8 9B6B     		ldr	r3, [r3, #56]
 2008 07da FB60     		str	r3, [r7, #12]
1003:../../source/src/FWlib/src/stm32f10x_adc.c ****   /* Clear the old injected sequnence lenght JL bits */
1004:../../source/src/FWlib/src/stm32f10x_adc.c ****   tmpreg1 &= JSQR_JL_Reset;
 2009              		.loc 1 1004 0
 2010 07dc FB68     		ldr	r3, [r7, #12]
 2011 07de 23F44013 		bic	r3, r3, #3145728
 2012 07e2 FB60     		str	r3, [r7, #12]
1005:../../source/src/FWlib/src/stm32f10x_adc.c ****   /* Set the injected sequnence lenght JL bits */
1006:../../source/src/FWlib/src/stm32f10x_adc.c ****   tmpreg2 = Length - 1; 
 2013              		.loc 1 1006 0
 2014 07e4 FB78     		ldrb	r3, [r7, #3]	@ zero_extendqisi2
 2015 07e6 013B     		subs	r3, r3, #1
 2016 07e8 BB60     		str	r3, [r7, #8]
1007:../../source/src/FWlib/src/stm32f10x_adc.c ****   tmpreg1 |= tmpreg2 << 20;
 2017              		.loc 1 1007 0
 2018 07ea BB68     		ldr	r3, [r7, #8]
 2019 07ec 1B05     		lsls	r3, r3, #20
 2020 07ee FA68     		ldr	r2, [r7, #12]
 2021 07f0 1343     		orrs	r3, r3, r2
 2022 07f2 FB60     		str	r3, [r7, #12]
1008:../../source/src/FWlib/src/stm32f10x_adc.c ****   /* Store the new register value */
1009:../../source/src/FWlib/src/stm32f10x_adc.c ****   ADCx->JSQR = tmpreg1;
 2023              		.loc 1 1009 0
 2024 07f4 7B68     		ldr	r3, [r7, #4]
 2025 07f6 FA68     		ldr	r2, [r7, #12]
 2026 07f8 9A63     		str	r2, [r3, #56]
1010:../../source/src/FWlib/src/stm32f10x_adc.c **** }
 2027              		.loc 1 1010 0
 2028 07fa 00BF     		nop
 2029 07fc 1437     		adds	r7, r7, #20
 2030              	.LCFI150:
 2031              		.cfi_def_cfa_offset 4
 2032 07fe BD46     		mov	sp, r7
 2033              	.LCFI151:
 2034              		.cfi_def_cfa_register 13
 2035              		@ sp needed
 2036 0800 80BC     		pop	{r7}
 2037              	.LCFI152:
 2038              		.cfi_restore 7
ARM GAS  G:\Users\Jaxb\AppData\Local\Temp\cc4YWfMb.s 			page 55


 2039              		.cfi_def_cfa_offset 0
 2040 0802 7047     		bx	lr
 2041              		.cfi_endproc
 2042              	.LFE54:
 2043              		.size	ADC_InjectedSequencerLengthConfig, .-ADC_InjectedSequencerLengthConfig
 2044              		.align	1
 2045              		.global	ADC_SetInjectedOffset
 2046              		.syntax unified
 2047              		.thumb
 2048              		.thumb_func
 2049              		.fpu softvfp
 2050              		.type	ADC_SetInjectedOffset, %function
 2051              	ADC_SetInjectedOffset:
 2052              	.LFB55:
1011:../../source/src/FWlib/src/stm32f10x_adc.c **** 
1012:../../source/src/FWlib/src/stm32f10x_adc.c **** /**
1013:../../source/src/FWlib/src/stm32f10x_adc.c ****   * @brief  Set the injected channels conversion value offset
1014:../../source/src/FWlib/src/stm32f10x_adc.c ****   * @param  ADCx: where x can be 1, 2 or 3 to select the ADC peripheral.
1015:../../source/src/FWlib/src/stm32f10x_adc.c ****   * @param  ADC_InjectedChannel: the ADC injected channel to set its offset. 
1016:../../source/src/FWlib/src/stm32f10x_adc.c ****   *   This parameter can be one of the following values:
1017:../../source/src/FWlib/src/stm32f10x_adc.c ****   *     @arg ADC_InjectedChannel_1: Injected Channel1 selected
1018:../../source/src/FWlib/src/stm32f10x_adc.c ****   *     @arg ADC_InjectedChannel_2: Injected Channel2 selected
1019:../../source/src/FWlib/src/stm32f10x_adc.c ****   *     @arg ADC_InjectedChannel_3: Injected Channel3 selected
1020:../../source/src/FWlib/src/stm32f10x_adc.c ****   *     @arg ADC_InjectedChannel_4: Injected Channel4 selected
1021:../../source/src/FWlib/src/stm32f10x_adc.c ****   * @param  Offset: the offset value for the selected ADC injected channel
1022:../../source/src/FWlib/src/stm32f10x_adc.c ****   *   This parameter must be a 12bit value.
1023:../../source/src/FWlib/src/stm32f10x_adc.c ****   * @retval None
1024:../../source/src/FWlib/src/stm32f10x_adc.c ****   */
1025:../../source/src/FWlib/src/stm32f10x_adc.c **** void ADC_SetInjectedOffset(ADC_TypeDef* ADCx, uint8_t ADC_InjectedChannel, uint16_t Offset)
1026:../../source/src/FWlib/src/stm32f10x_adc.c **** {
 2053              		.loc 1 1026 0
 2054              		.cfi_startproc
 2055              		@ args = 0, pretend = 0, frame = 16
 2056              		@ frame_needed = 1, uses_anonymous_args = 0
 2057              		@ link register save eliminated.
 2058 0804 80B4     		push	{r7}
 2059              	.LCFI153:
 2060              		.cfi_def_cfa_offset 4
 2061              		.cfi_offset 7, -4
 2062 0806 85B0     		sub	sp, sp, #20
 2063              	.LCFI154:
 2064              		.cfi_def_cfa_offset 24
 2065 0808 00AF     		add	r7, sp, #0
 2066              	.LCFI155:
 2067              		.cfi_def_cfa_register 7
 2068 080a 7860     		str	r0, [r7, #4]
 2069 080c 0B46     		mov	r3, r1
 2070 080e FB70     		strb	r3, [r7, #3]
 2071 0810 1346     		mov	r3, r2	@ movhi
 2072 0812 3B80     		strh	r3, [r7]	@ movhi
1027:../../source/src/FWlib/src/stm32f10x_adc.c ****   __IO uint32_t tmp = 0;
 2073              		.loc 1 1027 0
 2074 0814 0023     		movs	r3, #0
 2075 0816 FB60     		str	r3, [r7, #12]
1028:../../source/src/FWlib/src/stm32f10x_adc.c ****   
1029:../../source/src/FWlib/src/stm32f10x_adc.c ****   /* Check the parameters */
1030:../../source/src/FWlib/src/stm32f10x_adc.c ****   assert_param(IS_ADC_ALL_PERIPH(ADCx));
ARM GAS  G:\Users\Jaxb\AppData\Local\Temp\cc4YWfMb.s 			page 56


1031:../../source/src/FWlib/src/stm32f10x_adc.c ****   assert_param(IS_ADC_INJECTED_CHANNEL(ADC_InjectedChannel));
1032:../../source/src/FWlib/src/stm32f10x_adc.c ****   assert_param(IS_ADC_OFFSET(Offset));  
1033:../../source/src/FWlib/src/stm32f10x_adc.c ****   
1034:../../source/src/FWlib/src/stm32f10x_adc.c ****   tmp = (uint32_t)ADCx;
 2076              		.loc 1 1034 0
 2077 0818 7B68     		ldr	r3, [r7, #4]
 2078 081a FB60     		str	r3, [r7, #12]
1035:../../source/src/FWlib/src/stm32f10x_adc.c ****   tmp += ADC_InjectedChannel;
 2079              		.loc 1 1035 0
 2080 081c FA78     		ldrb	r2, [r7, #3]	@ zero_extendqisi2
 2081 081e FB68     		ldr	r3, [r7, #12]
 2082 0820 1344     		add	r3, r3, r2
 2083 0822 FB60     		str	r3, [r7, #12]
1036:../../source/src/FWlib/src/stm32f10x_adc.c ****   
1037:../../source/src/FWlib/src/stm32f10x_adc.c ****   /* Set the selected injected channel data offset */
1038:../../source/src/FWlib/src/stm32f10x_adc.c ****   *(__IO uint32_t *) tmp = (uint32_t)Offset;
 2084              		.loc 1 1038 0
 2085 0824 FB68     		ldr	r3, [r7, #12]
 2086 0826 1A46     		mov	r2, r3
 2087 0828 3B88     		ldrh	r3, [r7]
 2088 082a 1360     		str	r3, [r2]
1039:../../source/src/FWlib/src/stm32f10x_adc.c **** }
 2089              		.loc 1 1039 0
 2090 082c 00BF     		nop
 2091 082e 1437     		adds	r7, r7, #20
 2092              	.LCFI156:
 2093              		.cfi_def_cfa_offset 4
 2094 0830 BD46     		mov	sp, r7
 2095              	.LCFI157:
 2096              		.cfi_def_cfa_register 13
 2097              		@ sp needed
 2098 0832 80BC     		pop	{r7}
 2099              	.LCFI158:
 2100              		.cfi_restore 7
 2101              		.cfi_def_cfa_offset 0
 2102 0834 7047     		bx	lr
 2103              		.cfi_endproc
 2104              	.LFE55:
 2105              		.size	ADC_SetInjectedOffset, .-ADC_SetInjectedOffset
 2106              		.align	1
 2107              		.global	ADC_GetInjectedConversionValue
 2108              		.syntax unified
 2109              		.thumb
 2110              		.thumb_func
 2111              		.fpu softvfp
 2112              		.type	ADC_GetInjectedConversionValue, %function
 2113              	ADC_GetInjectedConversionValue:
 2114              	.LFB56:
1040:../../source/src/FWlib/src/stm32f10x_adc.c **** 
1041:../../source/src/FWlib/src/stm32f10x_adc.c **** /**
1042:../../source/src/FWlib/src/stm32f10x_adc.c ****   * @brief  Returns the ADC injected channel conversion result
1043:../../source/src/FWlib/src/stm32f10x_adc.c ****   * @param  ADCx: where x can be 1, 2 or 3 to select the ADC peripheral.
1044:../../source/src/FWlib/src/stm32f10x_adc.c ****   * @param  ADC_InjectedChannel: the converted ADC injected channel.
1045:../../source/src/FWlib/src/stm32f10x_adc.c ****   *   This parameter can be one of the following values:
1046:../../source/src/FWlib/src/stm32f10x_adc.c ****   *     @arg ADC_InjectedChannel_1: Injected Channel1 selected
1047:../../source/src/FWlib/src/stm32f10x_adc.c ****   *     @arg ADC_InjectedChannel_2: Injected Channel2 selected
1048:../../source/src/FWlib/src/stm32f10x_adc.c ****   *     @arg ADC_InjectedChannel_3: Injected Channel3 selected
ARM GAS  G:\Users\Jaxb\AppData\Local\Temp\cc4YWfMb.s 			page 57


1049:../../source/src/FWlib/src/stm32f10x_adc.c ****   *     @arg ADC_InjectedChannel_4: Injected Channel4 selected
1050:../../source/src/FWlib/src/stm32f10x_adc.c ****   * @retval The Data conversion value.
1051:../../source/src/FWlib/src/stm32f10x_adc.c ****   */
1052:../../source/src/FWlib/src/stm32f10x_adc.c **** uint16_t ADC_GetInjectedConversionValue(ADC_TypeDef* ADCx, uint8_t ADC_InjectedChannel)
1053:../../source/src/FWlib/src/stm32f10x_adc.c **** {
 2115              		.loc 1 1053 0
 2116              		.cfi_startproc
 2117              		@ args = 0, pretend = 0, frame = 16
 2118              		@ frame_needed = 1, uses_anonymous_args = 0
 2119              		@ link register save eliminated.
 2120 0836 80B4     		push	{r7}
 2121              	.LCFI159:
 2122              		.cfi_def_cfa_offset 4
 2123              		.cfi_offset 7, -4
 2124 0838 85B0     		sub	sp, sp, #20
 2125              	.LCFI160:
 2126              		.cfi_def_cfa_offset 24
 2127 083a 00AF     		add	r7, sp, #0
 2128              	.LCFI161:
 2129              		.cfi_def_cfa_register 7
 2130 083c 7860     		str	r0, [r7, #4]
 2131 083e 0B46     		mov	r3, r1
 2132 0840 FB70     		strb	r3, [r7, #3]
1054:../../source/src/FWlib/src/stm32f10x_adc.c ****   __IO uint32_t tmp = 0;
 2133              		.loc 1 1054 0
 2134 0842 0023     		movs	r3, #0
 2135 0844 FB60     		str	r3, [r7, #12]
1055:../../source/src/FWlib/src/stm32f10x_adc.c ****   
1056:../../source/src/FWlib/src/stm32f10x_adc.c ****   /* Check the parameters */
1057:../../source/src/FWlib/src/stm32f10x_adc.c ****   assert_param(IS_ADC_ALL_PERIPH(ADCx));
1058:../../source/src/FWlib/src/stm32f10x_adc.c ****   assert_param(IS_ADC_INJECTED_CHANNEL(ADC_InjectedChannel));
1059:../../source/src/FWlib/src/stm32f10x_adc.c **** 
1060:../../source/src/FWlib/src/stm32f10x_adc.c ****   tmp = (uint32_t)ADCx;
 2136              		.loc 1 1060 0
 2137 0846 7B68     		ldr	r3, [r7, #4]
 2138 0848 FB60     		str	r3, [r7, #12]
1061:../../source/src/FWlib/src/stm32f10x_adc.c ****   tmp += ADC_InjectedChannel + JDR_Offset;
 2139              		.loc 1 1061 0
 2140 084a FA78     		ldrb	r2, [r7, #3]	@ zero_extendqisi2
 2141 084c FB68     		ldr	r3, [r7, #12]
 2142 084e 1344     		add	r3, r3, r2
 2143 0850 2833     		adds	r3, r3, #40
 2144 0852 FB60     		str	r3, [r7, #12]
1062:../../source/src/FWlib/src/stm32f10x_adc.c ****   
1063:../../source/src/FWlib/src/stm32f10x_adc.c ****   /* Returns the selected injected channel conversion data value */
1064:../../source/src/FWlib/src/stm32f10x_adc.c ****   return (uint16_t) (*(__IO uint32_t*)  tmp);   
 2145              		.loc 1 1064 0
 2146 0854 FB68     		ldr	r3, [r7, #12]
 2147 0856 1B68     		ldr	r3, [r3]
 2148 0858 9BB2     		uxth	r3, r3
1065:../../source/src/FWlib/src/stm32f10x_adc.c **** }
 2149              		.loc 1 1065 0
 2150 085a 1846     		mov	r0, r3
 2151 085c 1437     		adds	r7, r7, #20
 2152              	.LCFI162:
 2153              		.cfi_def_cfa_offset 4
 2154 085e BD46     		mov	sp, r7
ARM GAS  G:\Users\Jaxb\AppData\Local\Temp\cc4YWfMb.s 			page 58


 2155              	.LCFI163:
 2156              		.cfi_def_cfa_register 13
 2157              		@ sp needed
 2158 0860 80BC     		pop	{r7}
 2159              	.LCFI164:
 2160              		.cfi_restore 7
 2161              		.cfi_def_cfa_offset 0
 2162 0862 7047     		bx	lr
 2163              		.cfi_endproc
 2164              	.LFE56:
 2165              		.size	ADC_GetInjectedConversionValue, .-ADC_GetInjectedConversionValue
 2166              		.align	1
 2167              		.global	ADC_AnalogWatchdogCmd
 2168              		.syntax unified
 2169              		.thumb
 2170              		.thumb_func
 2171              		.fpu softvfp
 2172              		.type	ADC_AnalogWatchdogCmd, %function
 2173              	ADC_AnalogWatchdogCmd:
 2174              	.LFB57:
1066:../../source/src/FWlib/src/stm32f10x_adc.c **** 
1067:../../source/src/FWlib/src/stm32f10x_adc.c **** /**
1068:../../source/src/FWlib/src/stm32f10x_adc.c ****   * @brief  Enables or disables the analog watchdog on single/all regular
1069:../../source/src/FWlib/src/stm32f10x_adc.c ****   *         or injected channels
1070:../../source/src/FWlib/src/stm32f10x_adc.c ****   * @param  ADCx: where x can be 1, 2 or 3 to select the ADC peripheral.
1071:../../source/src/FWlib/src/stm32f10x_adc.c ****   * @param  ADC_AnalogWatchdog: the ADC analog watchdog configuration.
1072:../../source/src/FWlib/src/stm32f10x_adc.c ****   *   This parameter can be one of the following values:
1073:../../source/src/FWlib/src/stm32f10x_adc.c ****   *     @arg ADC_AnalogWatchdog_SingleRegEnable: Analog watchdog on a single regular channel
1074:../../source/src/FWlib/src/stm32f10x_adc.c ****   *     @arg ADC_AnalogWatchdog_SingleInjecEnable: Analog watchdog on a single injected channel
1075:../../source/src/FWlib/src/stm32f10x_adc.c ****   *     @arg ADC_AnalogWatchdog_SingleRegOrInjecEnable: Analog watchdog on a single regular or inje
1076:../../source/src/FWlib/src/stm32f10x_adc.c ****   *     @arg ADC_AnalogWatchdog_AllRegEnable: Analog watchdog on  all regular channel
1077:../../source/src/FWlib/src/stm32f10x_adc.c ****   *     @arg ADC_AnalogWatchdog_AllInjecEnable: Analog watchdog on  all injected channel
1078:../../source/src/FWlib/src/stm32f10x_adc.c ****   *     @arg ADC_AnalogWatchdog_AllRegAllInjecEnable: Analog watchdog on all regular and injected c
1079:../../source/src/FWlib/src/stm32f10x_adc.c ****   *     @arg ADC_AnalogWatchdog_None: No channel guarded by the analog watchdog
1080:../../source/src/FWlib/src/stm32f10x_adc.c ****   * @retval None	  
1081:../../source/src/FWlib/src/stm32f10x_adc.c ****   */
1082:../../source/src/FWlib/src/stm32f10x_adc.c **** void ADC_AnalogWatchdogCmd(ADC_TypeDef* ADCx, uint32_t ADC_AnalogWatchdog)
1083:../../source/src/FWlib/src/stm32f10x_adc.c **** {
 2175              		.loc 1 1083 0
 2176              		.cfi_startproc
 2177              		@ args = 0, pretend = 0, frame = 16
 2178              		@ frame_needed = 1, uses_anonymous_args = 0
 2179              		@ link register save eliminated.
 2180 0864 80B4     		push	{r7}
 2181              	.LCFI165:
 2182              		.cfi_def_cfa_offset 4
 2183              		.cfi_offset 7, -4
 2184 0866 85B0     		sub	sp, sp, #20
 2185              	.LCFI166:
 2186              		.cfi_def_cfa_offset 24
 2187 0868 00AF     		add	r7, sp, #0
 2188              	.LCFI167:
 2189              		.cfi_def_cfa_register 7
 2190 086a 7860     		str	r0, [r7, #4]
 2191 086c 3960     		str	r1, [r7]
1084:../../source/src/FWlib/src/stm32f10x_adc.c ****   uint32_t tmpreg = 0;
 2192              		.loc 1 1084 0
ARM GAS  G:\Users\Jaxb\AppData\Local\Temp\cc4YWfMb.s 			page 59


 2193 086e 0023     		movs	r3, #0
 2194 0870 FB60     		str	r3, [r7, #12]
1085:../../source/src/FWlib/src/stm32f10x_adc.c ****   /* Check the parameters */
1086:../../source/src/FWlib/src/stm32f10x_adc.c ****   assert_param(IS_ADC_ALL_PERIPH(ADCx));
1087:../../source/src/FWlib/src/stm32f10x_adc.c ****   assert_param(IS_ADC_ANALOG_WATCHDOG(ADC_AnalogWatchdog));
1088:../../source/src/FWlib/src/stm32f10x_adc.c ****   /* Get the old register value */
1089:../../source/src/FWlib/src/stm32f10x_adc.c ****   tmpreg = ADCx->CR1;
 2195              		.loc 1 1089 0
 2196 0872 7B68     		ldr	r3, [r7, #4]
 2197 0874 5B68     		ldr	r3, [r3, #4]
 2198 0876 FB60     		str	r3, [r7, #12]
1090:../../source/src/FWlib/src/stm32f10x_adc.c ****   /* Clear AWDEN, AWDENJ and AWDSGL bits */
1091:../../source/src/FWlib/src/stm32f10x_adc.c ****   tmpreg &= CR1_AWDMode_Reset;
 2199              		.loc 1 1091 0
 2200 0878 FB68     		ldr	r3, [r7, #12]
 2201 087a 23F44003 		bic	r3, r3, #12582912
 2202 087e 23F40073 		bic	r3, r3, #512
 2203 0882 FB60     		str	r3, [r7, #12]
1092:../../source/src/FWlib/src/stm32f10x_adc.c ****   /* Set the analog watchdog enable mode */
1093:../../source/src/FWlib/src/stm32f10x_adc.c ****   tmpreg |= ADC_AnalogWatchdog;
 2204              		.loc 1 1093 0
 2205 0884 FA68     		ldr	r2, [r7, #12]
 2206 0886 3B68     		ldr	r3, [r7]
 2207 0888 1343     		orrs	r3, r3, r2
 2208 088a FB60     		str	r3, [r7, #12]
1094:../../source/src/FWlib/src/stm32f10x_adc.c ****   /* Store the new register value */
1095:../../source/src/FWlib/src/stm32f10x_adc.c ****   ADCx->CR1 = tmpreg;
 2209              		.loc 1 1095 0
 2210 088c 7B68     		ldr	r3, [r7, #4]
 2211 088e FA68     		ldr	r2, [r7, #12]
 2212 0890 5A60     		str	r2, [r3, #4]
1096:../../source/src/FWlib/src/stm32f10x_adc.c **** }
 2213              		.loc 1 1096 0
 2214 0892 00BF     		nop
 2215 0894 1437     		adds	r7, r7, #20
 2216              	.LCFI168:
 2217              		.cfi_def_cfa_offset 4
 2218 0896 BD46     		mov	sp, r7
 2219              	.LCFI169:
 2220              		.cfi_def_cfa_register 13
 2221              		@ sp needed
 2222 0898 80BC     		pop	{r7}
 2223              	.LCFI170:
 2224              		.cfi_restore 7
 2225              		.cfi_def_cfa_offset 0
 2226 089a 7047     		bx	lr
 2227              		.cfi_endproc
 2228              	.LFE57:
 2229              		.size	ADC_AnalogWatchdogCmd, .-ADC_AnalogWatchdogCmd
 2230              		.align	1
 2231              		.global	ADC_AnalogWatchdogThresholdsConfig
 2232              		.syntax unified
 2233              		.thumb
 2234              		.thumb_func
 2235              		.fpu softvfp
 2236              		.type	ADC_AnalogWatchdogThresholdsConfig, %function
 2237              	ADC_AnalogWatchdogThresholdsConfig:
ARM GAS  G:\Users\Jaxb\AppData\Local\Temp\cc4YWfMb.s 			page 60


 2238              	.LFB58:
1097:../../source/src/FWlib/src/stm32f10x_adc.c **** 
1098:../../source/src/FWlib/src/stm32f10x_adc.c **** /**
1099:../../source/src/FWlib/src/stm32f10x_adc.c ****   * @brief  Configures the high and low thresholds of the analog watchdog.
1100:../../source/src/FWlib/src/stm32f10x_adc.c ****   * @param  ADCx: where x can be 1, 2 or 3 to select the ADC peripheral.
1101:../../source/src/FWlib/src/stm32f10x_adc.c ****   * @param  HighThreshold: the ADC analog watchdog High threshold value.
1102:../../source/src/FWlib/src/stm32f10x_adc.c ****   *   This parameter must be a 12bit value.
1103:../../source/src/FWlib/src/stm32f10x_adc.c ****   * @param  LowThreshold: the ADC analog watchdog Low threshold value.
1104:../../source/src/FWlib/src/stm32f10x_adc.c ****   *   This parameter must be a 12bit value.
1105:../../source/src/FWlib/src/stm32f10x_adc.c ****   * @retval None
1106:../../source/src/FWlib/src/stm32f10x_adc.c ****   */
1107:../../source/src/FWlib/src/stm32f10x_adc.c **** void ADC_AnalogWatchdogThresholdsConfig(ADC_TypeDef* ADCx, uint16_t HighThreshold,
1108:../../source/src/FWlib/src/stm32f10x_adc.c ****                                         uint16_t LowThreshold)
1109:../../source/src/FWlib/src/stm32f10x_adc.c **** {
 2239              		.loc 1 1109 0
 2240              		.cfi_startproc
 2241              		@ args = 0, pretend = 0, frame = 8
 2242              		@ frame_needed = 1, uses_anonymous_args = 0
 2243              		@ link register save eliminated.
 2244 089c 80B4     		push	{r7}
 2245              	.LCFI171:
 2246              		.cfi_def_cfa_offset 4
 2247              		.cfi_offset 7, -4
 2248 089e 83B0     		sub	sp, sp, #12
 2249              	.LCFI172:
 2250              		.cfi_def_cfa_offset 16
 2251 08a0 00AF     		add	r7, sp, #0
 2252              	.LCFI173:
 2253              		.cfi_def_cfa_register 7
 2254 08a2 7860     		str	r0, [r7, #4]
 2255 08a4 0B46     		mov	r3, r1
 2256 08a6 7B80     		strh	r3, [r7, #2]	@ movhi
 2257 08a8 1346     		mov	r3, r2	@ movhi
 2258 08aa 3B80     		strh	r3, [r7]	@ movhi
1110:../../source/src/FWlib/src/stm32f10x_adc.c ****   /* Check the parameters */
1111:../../source/src/FWlib/src/stm32f10x_adc.c ****   assert_param(IS_ADC_ALL_PERIPH(ADCx));
1112:../../source/src/FWlib/src/stm32f10x_adc.c ****   assert_param(IS_ADC_THRESHOLD(HighThreshold));
1113:../../source/src/FWlib/src/stm32f10x_adc.c ****   assert_param(IS_ADC_THRESHOLD(LowThreshold));
1114:../../source/src/FWlib/src/stm32f10x_adc.c ****   /* Set the ADCx high threshold */
1115:../../source/src/FWlib/src/stm32f10x_adc.c ****   ADCx->HTR = HighThreshold;
 2259              		.loc 1 1115 0
 2260 08ac 7A88     		ldrh	r2, [r7, #2]
 2261 08ae 7B68     		ldr	r3, [r7, #4]
 2262 08b0 5A62     		str	r2, [r3, #36]
1116:../../source/src/FWlib/src/stm32f10x_adc.c ****   /* Set the ADCx low threshold */
1117:../../source/src/FWlib/src/stm32f10x_adc.c ****   ADCx->LTR = LowThreshold;
 2263              		.loc 1 1117 0
 2264 08b2 3A88     		ldrh	r2, [r7]
 2265 08b4 7B68     		ldr	r3, [r7, #4]
 2266 08b6 9A62     		str	r2, [r3, #40]
1118:../../source/src/FWlib/src/stm32f10x_adc.c **** }
 2267              		.loc 1 1118 0
 2268 08b8 00BF     		nop
 2269 08ba 0C37     		adds	r7, r7, #12
 2270              	.LCFI174:
 2271              		.cfi_def_cfa_offset 4
 2272 08bc BD46     		mov	sp, r7
ARM GAS  G:\Users\Jaxb\AppData\Local\Temp\cc4YWfMb.s 			page 61


 2273              	.LCFI175:
 2274              		.cfi_def_cfa_register 13
 2275              		@ sp needed
 2276 08be 80BC     		pop	{r7}
 2277              	.LCFI176:
 2278              		.cfi_restore 7
 2279              		.cfi_def_cfa_offset 0
 2280 08c0 7047     		bx	lr
 2281              		.cfi_endproc
 2282              	.LFE58:
 2283              		.size	ADC_AnalogWatchdogThresholdsConfig, .-ADC_AnalogWatchdogThresholdsConfig
 2284              		.align	1
 2285              		.global	ADC_AnalogWatchdogSingleChannelConfig
 2286              		.syntax unified
 2287              		.thumb
 2288              		.thumb_func
 2289              		.fpu softvfp
 2290              		.type	ADC_AnalogWatchdogSingleChannelConfig, %function
 2291              	ADC_AnalogWatchdogSingleChannelConfig:
 2292              	.LFB59:
1119:../../source/src/FWlib/src/stm32f10x_adc.c **** 
1120:../../source/src/FWlib/src/stm32f10x_adc.c **** /**
1121:../../source/src/FWlib/src/stm32f10x_adc.c ****   * @brief  Configures the analog watchdog guarded single channel
1122:../../source/src/FWlib/src/stm32f10x_adc.c ****   * @param  ADCx: where x can be 1, 2 or 3 to select the ADC peripheral.
1123:../../source/src/FWlib/src/stm32f10x_adc.c ****   * @param  ADC_Channel: the ADC channel to configure for the analog watchdog. 
1124:../../source/src/FWlib/src/stm32f10x_adc.c ****   *   This parameter can be one of the following values:
1125:../../source/src/FWlib/src/stm32f10x_adc.c ****   *     @arg ADC_Channel_0: ADC Channel0 selected
1126:../../source/src/FWlib/src/stm32f10x_adc.c ****   *     @arg ADC_Channel_1: ADC Channel1 selected
1127:../../source/src/FWlib/src/stm32f10x_adc.c ****   *     @arg ADC_Channel_2: ADC Channel2 selected
1128:../../source/src/FWlib/src/stm32f10x_adc.c ****   *     @arg ADC_Channel_3: ADC Channel3 selected
1129:../../source/src/FWlib/src/stm32f10x_adc.c ****   *     @arg ADC_Channel_4: ADC Channel4 selected
1130:../../source/src/FWlib/src/stm32f10x_adc.c ****   *     @arg ADC_Channel_5: ADC Channel5 selected
1131:../../source/src/FWlib/src/stm32f10x_adc.c ****   *     @arg ADC_Channel_6: ADC Channel6 selected
1132:../../source/src/FWlib/src/stm32f10x_adc.c ****   *     @arg ADC_Channel_7: ADC Channel7 selected
1133:../../source/src/FWlib/src/stm32f10x_adc.c ****   *     @arg ADC_Channel_8: ADC Channel8 selected
1134:../../source/src/FWlib/src/stm32f10x_adc.c ****   *     @arg ADC_Channel_9: ADC Channel9 selected
1135:../../source/src/FWlib/src/stm32f10x_adc.c ****   *     @arg ADC_Channel_10: ADC Channel10 selected
1136:../../source/src/FWlib/src/stm32f10x_adc.c ****   *     @arg ADC_Channel_11: ADC Channel11 selected
1137:../../source/src/FWlib/src/stm32f10x_adc.c ****   *     @arg ADC_Channel_12: ADC Channel12 selected
1138:../../source/src/FWlib/src/stm32f10x_adc.c ****   *     @arg ADC_Channel_13: ADC Channel13 selected
1139:../../source/src/FWlib/src/stm32f10x_adc.c ****   *     @arg ADC_Channel_14: ADC Channel14 selected
1140:../../source/src/FWlib/src/stm32f10x_adc.c ****   *     @arg ADC_Channel_15: ADC Channel15 selected
1141:../../source/src/FWlib/src/stm32f10x_adc.c ****   *     @arg ADC_Channel_16: ADC Channel16 selected
1142:../../source/src/FWlib/src/stm32f10x_adc.c ****   *     @arg ADC_Channel_17: ADC Channel17 selected
1143:../../source/src/FWlib/src/stm32f10x_adc.c ****   * @retval None
1144:../../source/src/FWlib/src/stm32f10x_adc.c ****   */
1145:../../source/src/FWlib/src/stm32f10x_adc.c **** void ADC_AnalogWatchdogSingleChannelConfig(ADC_TypeDef* ADCx, uint8_t ADC_Channel)
1146:../../source/src/FWlib/src/stm32f10x_adc.c **** {
 2293              		.loc 1 1146 0
 2294              		.cfi_startproc
 2295              		@ args = 0, pretend = 0, frame = 16
 2296              		@ frame_needed = 1, uses_anonymous_args = 0
 2297              		@ link register save eliminated.
 2298 08c2 80B4     		push	{r7}
 2299              	.LCFI177:
 2300              		.cfi_def_cfa_offset 4
 2301              		.cfi_offset 7, -4
ARM GAS  G:\Users\Jaxb\AppData\Local\Temp\cc4YWfMb.s 			page 62


 2302 08c4 85B0     		sub	sp, sp, #20
 2303              	.LCFI178:
 2304              		.cfi_def_cfa_offset 24
 2305 08c6 00AF     		add	r7, sp, #0
 2306              	.LCFI179:
 2307              		.cfi_def_cfa_register 7
 2308 08c8 7860     		str	r0, [r7, #4]
 2309 08ca 0B46     		mov	r3, r1
 2310 08cc FB70     		strb	r3, [r7, #3]
1147:../../source/src/FWlib/src/stm32f10x_adc.c ****   uint32_t tmpreg = 0;
 2311              		.loc 1 1147 0
 2312 08ce 0023     		movs	r3, #0
 2313 08d0 FB60     		str	r3, [r7, #12]
1148:../../source/src/FWlib/src/stm32f10x_adc.c ****   /* Check the parameters */
1149:../../source/src/FWlib/src/stm32f10x_adc.c ****   assert_param(IS_ADC_ALL_PERIPH(ADCx));
1150:../../source/src/FWlib/src/stm32f10x_adc.c ****   assert_param(IS_ADC_CHANNEL(ADC_Channel));
1151:../../source/src/FWlib/src/stm32f10x_adc.c ****   /* Get the old register value */
1152:../../source/src/FWlib/src/stm32f10x_adc.c ****   tmpreg = ADCx->CR1;
 2314              		.loc 1 1152 0
 2315 08d2 7B68     		ldr	r3, [r7, #4]
 2316 08d4 5B68     		ldr	r3, [r3, #4]
 2317 08d6 FB60     		str	r3, [r7, #12]
1153:../../source/src/FWlib/src/stm32f10x_adc.c ****   /* Clear the Analog watchdog channel select bits */
1154:../../source/src/FWlib/src/stm32f10x_adc.c ****   tmpreg &= CR1_AWDCH_Reset;
 2318              		.loc 1 1154 0
 2319 08d8 FB68     		ldr	r3, [r7, #12]
 2320 08da 23F01F03 		bic	r3, r3, #31
 2321 08de FB60     		str	r3, [r7, #12]
1155:../../source/src/FWlib/src/stm32f10x_adc.c ****   /* Set the Analog watchdog channel */
1156:../../source/src/FWlib/src/stm32f10x_adc.c ****   tmpreg |= ADC_Channel;
 2322              		.loc 1 1156 0
 2323 08e0 FB78     		ldrb	r3, [r7, #3]	@ zero_extendqisi2
 2324 08e2 FA68     		ldr	r2, [r7, #12]
 2325 08e4 1343     		orrs	r3, r3, r2
 2326 08e6 FB60     		str	r3, [r7, #12]
1157:../../source/src/FWlib/src/stm32f10x_adc.c ****   /* Store the new register value */
1158:../../source/src/FWlib/src/stm32f10x_adc.c ****   ADCx->CR1 = tmpreg;
 2327              		.loc 1 1158 0
 2328 08e8 7B68     		ldr	r3, [r7, #4]
 2329 08ea FA68     		ldr	r2, [r7, #12]
 2330 08ec 5A60     		str	r2, [r3, #4]
1159:../../source/src/FWlib/src/stm32f10x_adc.c **** }
 2331              		.loc 1 1159 0
 2332 08ee 00BF     		nop
 2333 08f0 1437     		adds	r7, r7, #20
 2334              	.LCFI180:
 2335              		.cfi_def_cfa_offset 4
 2336 08f2 BD46     		mov	sp, r7
 2337              	.LCFI181:
 2338              		.cfi_def_cfa_register 13
 2339              		@ sp needed
 2340 08f4 80BC     		pop	{r7}
 2341              	.LCFI182:
 2342              		.cfi_restore 7
 2343              		.cfi_def_cfa_offset 0
 2344 08f6 7047     		bx	lr
 2345              		.cfi_endproc
ARM GAS  G:\Users\Jaxb\AppData\Local\Temp\cc4YWfMb.s 			page 63


 2346              	.LFE59:
 2347              		.size	ADC_AnalogWatchdogSingleChannelConfig, .-ADC_AnalogWatchdogSingleChannelConfig
 2348              		.align	1
 2349              		.global	ADC_TempSensorVrefintCmd
 2350              		.syntax unified
 2351              		.thumb
 2352              		.thumb_func
 2353              		.fpu softvfp
 2354              		.type	ADC_TempSensorVrefintCmd, %function
 2355              	ADC_TempSensorVrefintCmd:
 2356              	.LFB60:
1160:../../source/src/FWlib/src/stm32f10x_adc.c **** 
1161:../../source/src/FWlib/src/stm32f10x_adc.c **** /**
1162:../../source/src/FWlib/src/stm32f10x_adc.c ****   * @brief  Enables or disables the temperature sensor and Vrefint channel.
1163:../../source/src/FWlib/src/stm32f10x_adc.c ****   * @param  NewState: new state of the temperature sensor.
1164:../../source/src/FWlib/src/stm32f10x_adc.c ****   *   This parameter can be: ENABLE or DISABLE.
1165:../../source/src/FWlib/src/stm32f10x_adc.c ****   * @retval None
1166:../../source/src/FWlib/src/stm32f10x_adc.c ****   */
1167:../../source/src/FWlib/src/stm32f10x_adc.c **** void ADC_TempSensorVrefintCmd(FunctionalState NewState)
1168:../../source/src/FWlib/src/stm32f10x_adc.c **** {
 2357              		.loc 1 1168 0
 2358              		.cfi_startproc
 2359              		@ args = 0, pretend = 0, frame = 8
 2360              		@ frame_needed = 1, uses_anonymous_args = 0
 2361              		@ link register save eliminated.
 2362 08f8 80B4     		push	{r7}
 2363              	.LCFI183:
 2364              		.cfi_def_cfa_offset 4
 2365              		.cfi_offset 7, -4
 2366 08fa 83B0     		sub	sp, sp, #12
 2367              	.LCFI184:
 2368              		.cfi_def_cfa_offset 16
 2369 08fc 00AF     		add	r7, sp, #0
 2370              	.LCFI185:
 2371              		.cfi_def_cfa_register 7
 2372 08fe 0346     		mov	r3, r0
 2373 0900 FB71     		strb	r3, [r7, #7]
1169:../../source/src/FWlib/src/stm32f10x_adc.c ****   /* Check the parameters */
1170:../../source/src/FWlib/src/stm32f10x_adc.c ****   assert_param(IS_FUNCTIONAL_STATE(NewState));
1171:../../source/src/FWlib/src/stm32f10x_adc.c ****   if (NewState != DISABLE)
 2374              		.loc 1 1171 0
 2375 0902 FB79     		ldrb	r3, [r7, #7]	@ zero_extendqisi2
 2376 0904 002B     		cmp	r3, #0
 2377 0906 06D0     		beq	.L96
1172:../../source/src/FWlib/src/stm32f10x_adc.c ****   {
1173:../../source/src/FWlib/src/stm32f10x_adc.c ****     /* Enable the temperature sensor and Vrefint channel*/
1174:../../source/src/FWlib/src/stm32f10x_adc.c ****     ADC1->CR2 |= CR2_TSVREFE_Set;
 2378              		.loc 1 1174 0
 2379 0908 084B     		ldr	r3, .L99
 2380 090a 9B68     		ldr	r3, [r3, #8]
 2381 090c 074A     		ldr	r2, .L99
 2382 090e 43F40003 		orr	r3, r3, #8388608
 2383 0912 9360     		str	r3, [r2, #8]
1175:../../source/src/FWlib/src/stm32f10x_adc.c ****   }
1176:../../source/src/FWlib/src/stm32f10x_adc.c ****   else
1177:../../source/src/FWlib/src/stm32f10x_adc.c ****   {
1178:../../source/src/FWlib/src/stm32f10x_adc.c ****     /* Disable the temperature sensor and Vrefint channel*/
ARM GAS  G:\Users\Jaxb\AppData\Local\Temp\cc4YWfMb.s 			page 64


1179:../../source/src/FWlib/src/stm32f10x_adc.c ****     ADC1->CR2 &= CR2_TSVREFE_Reset;
1180:../../source/src/FWlib/src/stm32f10x_adc.c ****   }
1181:../../source/src/FWlib/src/stm32f10x_adc.c **** }
 2384              		.loc 1 1181 0
 2385 0914 05E0     		b	.L98
 2386              	.L96:
1179:../../source/src/FWlib/src/stm32f10x_adc.c ****   }
 2387              		.loc 1 1179 0
 2388 0916 054B     		ldr	r3, .L99
 2389 0918 9B68     		ldr	r3, [r3, #8]
 2390 091a 044A     		ldr	r2, .L99
 2391 091c 23F40003 		bic	r3, r3, #8388608
 2392 0920 9360     		str	r3, [r2, #8]
 2393              	.L98:
 2394              		.loc 1 1181 0
 2395 0922 00BF     		nop
 2396 0924 0C37     		adds	r7, r7, #12
 2397              	.LCFI186:
 2398              		.cfi_def_cfa_offset 4
 2399 0926 BD46     		mov	sp, r7
 2400              	.LCFI187:
 2401              		.cfi_def_cfa_register 13
 2402              		@ sp needed
 2403 0928 80BC     		pop	{r7}
 2404              	.LCFI188:
 2405              		.cfi_restore 7
 2406              		.cfi_def_cfa_offset 0
 2407 092a 7047     		bx	lr
 2408              	.L100:
 2409              		.align	2
 2410              	.L99:
 2411 092c 00240140 		.word	1073816576
 2412              		.cfi_endproc
 2413              	.LFE60:
 2414              		.size	ADC_TempSensorVrefintCmd, .-ADC_TempSensorVrefintCmd
 2415              		.align	1
 2416              		.global	ADC_GetFlagStatus
 2417              		.syntax unified
 2418              		.thumb
 2419              		.thumb_func
 2420              		.fpu softvfp
 2421              		.type	ADC_GetFlagStatus, %function
 2422              	ADC_GetFlagStatus:
 2423              	.LFB61:
1182:../../source/src/FWlib/src/stm32f10x_adc.c **** 
1183:../../source/src/FWlib/src/stm32f10x_adc.c **** /**
1184:../../source/src/FWlib/src/stm32f10x_adc.c ****   * @brief  Checks whether the specified ADC flag is set or not.
1185:../../source/src/FWlib/src/stm32f10x_adc.c ****   * @param  ADCx: where x can be 1, 2 or 3 to select the ADC peripheral.
1186:../../source/src/FWlib/src/stm32f10x_adc.c ****   * @param  ADC_FLAG: specifies the flag to check. 
1187:../../source/src/FWlib/src/stm32f10x_adc.c ****   *   This parameter can be one of the following values:
1188:../../source/src/FWlib/src/stm32f10x_adc.c ****   *     @arg ADC_FLAG_AWD: Analog watchdog flag
1189:../../source/src/FWlib/src/stm32f10x_adc.c ****   *     @arg ADC_FLAG_EOC: End of conversion flag
1190:../../source/src/FWlib/src/stm32f10x_adc.c ****   *     @arg ADC_FLAG_JEOC: End of injected group conversion flag
1191:../../source/src/FWlib/src/stm32f10x_adc.c ****   *     @arg ADC_FLAG_JSTRT: Start of injected group conversion flag
1192:../../source/src/FWlib/src/stm32f10x_adc.c ****   *     @arg ADC_FLAG_STRT: Start of regular group conversion flag
1193:../../source/src/FWlib/src/stm32f10x_adc.c ****   * @retval The new state of ADC_FLAG (SET or RESET).
1194:../../source/src/FWlib/src/stm32f10x_adc.c ****   */
ARM GAS  G:\Users\Jaxb\AppData\Local\Temp\cc4YWfMb.s 			page 65


1195:../../source/src/FWlib/src/stm32f10x_adc.c **** FlagStatus ADC_GetFlagStatus(ADC_TypeDef* ADCx, uint8_t ADC_FLAG)
1196:../../source/src/FWlib/src/stm32f10x_adc.c **** {
 2424              		.loc 1 1196 0
 2425              		.cfi_startproc
 2426              		@ args = 0, pretend = 0, frame = 16
 2427              		@ frame_needed = 1, uses_anonymous_args = 0
 2428              		@ link register save eliminated.
 2429 0930 80B4     		push	{r7}
 2430              	.LCFI189:
 2431              		.cfi_def_cfa_offset 4
 2432              		.cfi_offset 7, -4
 2433 0932 85B0     		sub	sp, sp, #20
 2434              	.LCFI190:
 2435              		.cfi_def_cfa_offset 24
 2436 0934 00AF     		add	r7, sp, #0
 2437              	.LCFI191:
 2438              		.cfi_def_cfa_register 7
 2439 0936 7860     		str	r0, [r7, #4]
 2440 0938 0B46     		mov	r3, r1
 2441 093a FB70     		strb	r3, [r7, #3]
1197:../../source/src/FWlib/src/stm32f10x_adc.c ****   FlagStatus bitstatus = RESET;
 2442              		.loc 1 1197 0
 2443 093c 0023     		movs	r3, #0
 2444 093e FB73     		strb	r3, [r7, #15]
1198:../../source/src/FWlib/src/stm32f10x_adc.c ****   /* Check the parameters */
1199:../../source/src/FWlib/src/stm32f10x_adc.c ****   assert_param(IS_ADC_ALL_PERIPH(ADCx));
1200:../../source/src/FWlib/src/stm32f10x_adc.c ****   assert_param(IS_ADC_GET_FLAG(ADC_FLAG));
1201:../../source/src/FWlib/src/stm32f10x_adc.c ****   /* Check the status of the specified ADC flag */
1202:../../source/src/FWlib/src/stm32f10x_adc.c ****   if ((ADCx->SR & ADC_FLAG) != (uint8_t)RESET)
 2445              		.loc 1 1202 0
 2446 0940 7B68     		ldr	r3, [r7, #4]
 2447 0942 1A68     		ldr	r2, [r3]
 2448 0944 FB78     		ldrb	r3, [r7, #3]	@ zero_extendqisi2
 2449 0946 1340     		ands	r3, r3, r2
 2450 0948 002B     		cmp	r3, #0
 2451 094a 02D0     		beq	.L102
1203:../../source/src/FWlib/src/stm32f10x_adc.c ****   {
1204:../../source/src/FWlib/src/stm32f10x_adc.c ****     /* ADC_FLAG is set */
1205:../../source/src/FWlib/src/stm32f10x_adc.c ****     bitstatus = SET;
 2452              		.loc 1 1205 0
 2453 094c 0123     		movs	r3, #1
 2454 094e FB73     		strb	r3, [r7, #15]
 2455 0950 01E0     		b	.L103
 2456              	.L102:
1206:../../source/src/FWlib/src/stm32f10x_adc.c ****   }
1207:../../source/src/FWlib/src/stm32f10x_adc.c ****   else
1208:../../source/src/FWlib/src/stm32f10x_adc.c ****   {
1209:../../source/src/FWlib/src/stm32f10x_adc.c ****     /* ADC_FLAG is reset */
1210:../../source/src/FWlib/src/stm32f10x_adc.c ****     bitstatus = RESET;
 2457              		.loc 1 1210 0
 2458 0952 0023     		movs	r3, #0
 2459 0954 FB73     		strb	r3, [r7, #15]
 2460              	.L103:
1211:../../source/src/FWlib/src/stm32f10x_adc.c ****   }
1212:../../source/src/FWlib/src/stm32f10x_adc.c ****   /* Return the ADC_FLAG status */
1213:../../source/src/FWlib/src/stm32f10x_adc.c ****   return  bitstatus;
 2461              		.loc 1 1213 0
ARM GAS  G:\Users\Jaxb\AppData\Local\Temp\cc4YWfMb.s 			page 66


 2462 0956 FB7B     		ldrb	r3, [r7, #15]	@ zero_extendqisi2
1214:../../source/src/FWlib/src/stm32f10x_adc.c **** }
 2463              		.loc 1 1214 0
 2464 0958 1846     		mov	r0, r3
 2465 095a 1437     		adds	r7, r7, #20
 2466              	.LCFI192:
 2467              		.cfi_def_cfa_offset 4
 2468 095c BD46     		mov	sp, r7
 2469              	.LCFI193:
 2470              		.cfi_def_cfa_register 13
 2471              		@ sp needed
 2472 095e 80BC     		pop	{r7}
 2473              	.LCFI194:
 2474              		.cfi_restore 7
 2475              		.cfi_def_cfa_offset 0
 2476 0960 7047     		bx	lr
 2477              		.cfi_endproc
 2478              	.LFE61:
 2479              		.size	ADC_GetFlagStatus, .-ADC_GetFlagStatus
 2480              		.align	1
 2481              		.global	ADC_ClearFlag
 2482              		.syntax unified
 2483              		.thumb
 2484              		.thumb_func
 2485              		.fpu softvfp
 2486              		.type	ADC_ClearFlag, %function
 2487              	ADC_ClearFlag:
 2488              	.LFB62:
1215:../../source/src/FWlib/src/stm32f10x_adc.c **** 
1216:../../source/src/FWlib/src/stm32f10x_adc.c **** /**
1217:../../source/src/FWlib/src/stm32f10x_adc.c ****   * @brief  Clears the ADCx's pending flags.
1218:../../source/src/FWlib/src/stm32f10x_adc.c ****   * @param  ADCx: where x can be 1, 2 or 3 to select the ADC peripheral.
1219:../../source/src/FWlib/src/stm32f10x_adc.c ****   * @param  ADC_FLAG: specifies the flag to clear. 
1220:../../source/src/FWlib/src/stm32f10x_adc.c ****   *   This parameter can be any combination of the following values:
1221:../../source/src/FWlib/src/stm32f10x_adc.c ****   *     @arg ADC_FLAG_AWD: Analog watchdog flag
1222:../../source/src/FWlib/src/stm32f10x_adc.c ****   *     @arg ADC_FLAG_EOC: End of conversion flag
1223:../../source/src/FWlib/src/stm32f10x_adc.c ****   *     @arg ADC_FLAG_JEOC: End of injected group conversion flag
1224:../../source/src/FWlib/src/stm32f10x_adc.c ****   *     @arg ADC_FLAG_JSTRT: Start of injected group conversion flag
1225:../../source/src/FWlib/src/stm32f10x_adc.c ****   *     @arg ADC_FLAG_STRT: Start of regular group conversion flag
1226:../../source/src/FWlib/src/stm32f10x_adc.c ****   * @retval None
1227:../../source/src/FWlib/src/stm32f10x_adc.c ****   */
1228:../../source/src/FWlib/src/stm32f10x_adc.c **** void ADC_ClearFlag(ADC_TypeDef* ADCx, uint8_t ADC_FLAG)
1229:../../source/src/FWlib/src/stm32f10x_adc.c **** {
 2489              		.loc 1 1229 0
 2490              		.cfi_startproc
 2491              		@ args = 0, pretend = 0, frame = 8
 2492              		@ frame_needed = 1, uses_anonymous_args = 0
 2493              		@ link register save eliminated.
 2494 0962 80B4     		push	{r7}
 2495              	.LCFI195:
 2496              		.cfi_def_cfa_offset 4
 2497              		.cfi_offset 7, -4
 2498 0964 83B0     		sub	sp, sp, #12
 2499              	.LCFI196:
 2500              		.cfi_def_cfa_offset 16
 2501 0966 00AF     		add	r7, sp, #0
 2502              	.LCFI197:
ARM GAS  G:\Users\Jaxb\AppData\Local\Temp\cc4YWfMb.s 			page 67


 2503              		.cfi_def_cfa_register 7
 2504 0968 7860     		str	r0, [r7, #4]
 2505 096a 0B46     		mov	r3, r1
 2506 096c FB70     		strb	r3, [r7, #3]
1230:../../source/src/FWlib/src/stm32f10x_adc.c ****   /* Check the parameters */
1231:../../source/src/FWlib/src/stm32f10x_adc.c ****   assert_param(IS_ADC_ALL_PERIPH(ADCx));
1232:../../source/src/FWlib/src/stm32f10x_adc.c ****   assert_param(IS_ADC_CLEAR_FLAG(ADC_FLAG));
1233:../../source/src/FWlib/src/stm32f10x_adc.c ****   /* Clear the selected ADC flags */
1234:../../source/src/FWlib/src/stm32f10x_adc.c ****   ADCx->SR = ~(uint32_t)ADC_FLAG;
 2507              		.loc 1 1234 0
 2508 096e FB78     		ldrb	r3, [r7, #3]	@ zero_extendqisi2
 2509 0970 DA43     		mvns	r2, r3
 2510 0972 7B68     		ldr	r3, [r7, #4]
 2511 0974 1A60     		str	r2, [r3]
1235:../../source/src/FWlib/src/stm32f10x_adc.c **** }
 2512              		.loc 1 1235 0
 2513 0976 00BF     		nop
 2514 0978 0C37     		adds	r7, r7, #12
 2515              	.LCFI198:
 2516              		.cfi_def_cfa_offset 4
 2517 097a BD46     		mov	sp, r7
 2518              	.LCFI199:
 2519              		.cfi_def_cfa_register 13
 2520              		@ sp needed
 2521 097c 80BC     		pop	{r7}
 2522              	.LCFI200:
 2523              		.cfi_restore 7
 2524              		.cfi_def_cfa_offset 0
 2525 097e 7047     		bx	lr
 2526              		.cfi_endproc
 2527              	.LFE62:
 2528              		.size	ADC_ClearFlag, .-ADC_ClearFlag
 2529              		.align	1
 2530              		.global	ADC_GetITStatus
 2531              		.syntax unified
 2532              		.thumb
 2533              		.thumb_func
 2534              		.fpu softvfp
 2535              		.type	ADC_GetITStatus, %function
 2536              	ADC_GetITStatus:
 2537              	.LFB63:
1236:../../source/src/FWlib/src/stm32f10x_adc.c **** 
1237:../../source/src/FWlib/src/stm32f10x_adc.c **** /**
1238:../../source/src/FWlib/src/stm32f10x_adc.c ****   * @brief  Checks whether the specified ADC interrupt has occurred or not.
1239:../../source/src/FWlib/src/stm32f10x_adc.c ****   * @param  ADCx: where x can be 1, 2 or 3 to select the ADC peripheral.
1240:../../source/src/FWlib/src/stm32f10x_adc.c ****   * @param  ADC_IT: specifies the ADC interrupt source to check. 
1241:../../source/src/FWlib/src/stm32f10x_adc.c ****   *   This parameter can be one of the following values:
1242:../../source/src/FWlib/src/stm32f10x_adc.c ****   *     @arg ADC_IT_EOC: End of conversion interrupt mask
1243:../../source/src/FWlib/src/stm32f10x_adc.c ****   *     @arg ADC_IT_AWD: Analog watchdog interrupt mask
1244:../../source/src/FWlib/src/stm32f10x_adc.c ****   *     @arg ADC_IT_JEOC: End of injected conversion interrupt mask
1245:../../source/src/FWlib/src/stm32f10x_adc.c ****   * @retval The new state of ADC_IT (SET or RESET).
1246:../../source/src/FWlib/src/stm32f10x_adc.c ****   */
1247:../../source/src/FWlib/src/stm32f10x_adc.c **** ITStatus ADC_GetITStatus(ADC_TypeDef* ADCx, uint16_t ADC_IT)
1248:../../source/src/FWlib/src/stm32f10x_adc.c **** {
 2538              		.loc 1 1248 0
 2539              		.cfi_startproc
 2540              		@ args = 0, pretend = 0, frame = 24
ARM GAS  G:\Users\Jaxb\AppData\Local\Temp\cc4YWfMb.s 			page 68


 2541              		@ frame_needed = 1, uses_anonymous_args = 0
 2542              		@ link register save eliminated.
 2543 0980 80B4     		push	{r7}
 2544              	.LCFI201:
 2545              		.cfi_def_cfa_offset 4
 2546              		.cfi_offset 7, -4
 2547 0982 87B0     		sub	sp, sp, #28
 2548              	.LCFI202:
 2549              		.cfi_def_cfa_offset 32
 2550 0984 00AF     		add	r7, sp, #0
 2551              	.LCFI203:
 2552              		.cfi_def_cfa_register 7
 2553 0986 7860     		str	r0, [r7, #4]
 2554 0988 0B46     		mov	r3, r1
 2555 098a 7B80     		strh	r3, [r7, #2]	@ movhi
1249:../../source/src/FWlib/src/stm32f10x_adc.c ****   ITStatus bitstatus = RESET;
 2556              		.loc 1 1249 0
 2557 098c 0023     		movs	r3, #0
 2558 098e FB75     		strb	r3, [r7, #23]
1250:../../source/src/FWlib/src/stm32f10x_adc.c ****   uint32_t itmask = 0, enablestatus = 0;
 2559              		.loc 1 1250 0
 2560 0990 0023     		movs	r3, #0
 2561 0992 3B61     		str	r3, [r7, #16]
 2562 0994 0023     		movs	r3, #0
 2563 0996 FB60     		str	r3, [r7, #12]
1251:../../source/src/FWlib/src/stm32f10x_adc.c ****   /* Check the parameters */
1252:../../source/src/FWlib/src/stm32f10x_adc.c ****   assert_param(IS_ADC_ALL_PERIPH(ADCx));
1253:../../source/src/FWlib/src/stm32f10x_adc.c ****   assert_param(IS_ADC_GET_IT(ADC_IT));
1254:../../source/src/FWlib/src/stm32f10x_adc.c ****   /* Get the ADC IT index */
1255:../../source/src/FWlib/src/stm32f10x_adc.c ****   itmask = ADC_IT >> 8;
 2564              		.loc 1 1255 0
 2565 0998 7B88     		ldrh	r3, [r7, #2]
 2566 099a 1B0A     		lsrs	r3, r3, #8
 2567 099c 9BB2     		uxth	r3, r3
 2568 099e 3B61     		str	r3, [r7, #16]
1256:../../source/src/FWlib/src/stm32f10x_adc.c ****   /* Get the ADC_IT enable bit status */
1257:../../source/src/FWlib/src/stm32f10x_adc.c ****   enablestatus = (ADCx->CR1 & (uint8_t)ADC_IT) ;
 2569              		.loc 1 1257 0
 2570 09a0 7B68     		ldr	r3, [r7, #4]
 2571 09a2 5B68     		ldr	r3, [r3, #4]
 2572 09a4 7A88     		ldrh	r2, [r7, #2]	@ movhi
 2573 09a6 D2B2     		uxtb	r2, r2
 2574 09a8 1340     		ands	r3, r3, r2
 2575 09aa FB60     		str	r3, [r7, #12]
1258:../../source/src/FWlib/src/stm32f10x_adc.c ****   /* Check the status of the specified ADC interrupt */
1259:../../source/src/FWlib/src/stm32f10x_adc.c ****   if (((ADCx->SR & itmask) != (uint32_t)RESET) && enablestatus)
 2576              		.loc 1 1259 0
 2577 09ac 7B68     		ldr	r3, [r7, #4]
 2578 09ae 1A68     		ldr	r2, [r3]
 2579 09b0 3B69     		ldr	r3, [r7, #16]
 2580 09b2 1340     		ands	r3, r3, r2
 2581 09b4 002B     		cmp	r3, #0
 2582 09b6 05D0     		beq	.L107
 2583              		.loc 1 1259 0 is_stmt 0 discriminator 1
 2584 09b8 FB68     		ldr	r3, [r7, #12]
 2585 09ba 002B     		cmp	r3, #0
 2586 09bc 02D0     		beq	.L107
ARM GAS  G:\Users\Jaxb\AppData\Local\Temp\cc4YWfMb.s 			page 69


1260:../../source/src/FWlib/src/stm32f10x_adc.c ****   {
1261:../../source/src/FWlib/src/stm32f10x_adc.c ****     /* ADC_IT is set */
1262:../../source/src/FWlib/src/stm32f10x_adc.c ****     bitstatus = SET;
 2587              		.loc 1 1262 0 is_stmt 1
 2588 09be 0123     		movs	r3, #1
 2589 09c0 FB75     		strb	r3, [r7, #23]
 2590 09c2 01E0     		b	.L108
 2591              	.L107:
1263:../../source/src/FWlib/src/stm32f10x_adc.c ****   }
1264:../../source/src/FWlib/src/stm32f10x_adc.c ****   else
1265:../../source/src/FWlib/src/stm32f10x_adc.c ****   {
1266:../../source/src/FWlib/src/stm32f10x_adc.c ****     /* ADC_IT is reset */
1267:../../source/src/FWlib/src/stm32f10x_adc.c ****     bitstatus = RESET;
 2592              		.loc 1 1267 0
 2593 09c4 0023     		movs	r3, #0
 2594 09c6 FB75     		strb	r3, [r7, #23]
 2595              	.L108:
1268:../../source/src/FWlib/src/stm32f10x_adc.c ****   }
1269:../../source/src/FWlib/src/stm32f10x_adc.c ****   /* Return the ADC_IT status */
1270:../../source/src/FWlib/src/stm32f10x_adc.c ****   return  bitstatus;
 2596              		.loc 1 1270 0
 2597 09c8 FB7D     		ldrb	r3, [r7, #23]	@ zero_extendqisi2
1271:../../source/src/FWlib/src/stm32f10x_adc.c **** }
 2598              		.loc 1 1271 0
 2599 09ca 1846     		mov	r0, r3
 2600 09cc 1C37     		adds	r7, r7, #28
 2601              	.LCFI204:
 2602              		.cfi_def_cfa_offset 4
 2603 09ce BD46     		mov	sp, r7
 2604              	.LCFI205:
 2605              		.cfi_def_cfa_register 13
 2606              		@ sp needed
 2607 09d0 80BC     		pop	{r7}
 2608              	.LCFI206:
 2609              		.cfi_restore 7
 2610              		.cfi_def_cfa_offset 0
 2611 09d2 7047     		bx	lr
 2612              		.cfi_endproc
 2613              	.LFE63:
 2614              		.size	ADC_GetITStatus, .-ADC_GetITStatus
 2615              		.align	1
 2616              		.global	ADC_ClearITPendingBit
 2617              		.syntax unified
 2618              		.thumb
 2619              		.thumb_func
 2620              		.fpu softvfp
 2621              		.type	ADC_ClearITPendingBit, %function
 2622              	ADC_ClearITPendingBit:
 2623              	.LFB64:
1272:../../source/src/FWlib/src/stm32f10x_adc.c **** 
1273:../../source/src/FWlib/src/stm32f10x_adc.c **** /**
1274:../../source/src/FWlib/src/stm32f10x_adc.c ****   * @brief  Clears the ADCx's interrupt pending bits.
1275:../../source/src/FWlib/src/stm32f10x_adc.c ****   * @param  ADCx: where x can be 1, 2 or 3 to select the ADC peripheral.
1276:../../source/src/FWlib/src/stm32f10x_adc.c ****   * @param  ADC_IT: specifies the ADC interrupt pending bit to clear.
1277:../../source/src/FWlib/src/stm32f10x_adc.c ****   *   This parameter can be any combination of the following values:
1278:../../source/src/FWlib/src/stm32f10x_adc.c ****   *     @arg ADC_IT_EOC: End of conversion interrupt mask
1279:../../source/src/FWlib/src/stm32f10x_adc.c ****   *     @arg ADC_IT_AWD: Analog watchdog interrupt mask
ARM GAS  G:\Users\Jaxb\AppData\Local\Temp\cc4YWfMb.s 			page 70


1280:../../source/src/FWlib/src/stm32f10x_adc.c ****   *     @arg ADC_IT_JEOC: End of injected conversion interrupt mask
1281:../../source/src/FWlib/src/stm32f10x_adc.c ****   * @retval None
1282:../../source/src/FWlib/src/stm32f10x_adc.c ****   */
1283:../../source/src/FWlib/src/stm32f10x_adc.c **** void ADC_ClearITPendingBit(ADC_TypeDef* ADCx, uint16_t ADC_IT)
1284:../../source/src/FWlib/src/stm32f10x_adc.c **** {
 2624              		.loc 1 1284 0
 2625              		.cfi_startproc
 2626              		@ args = 0, pretend = 0, frame = 16
 2627              		@ frame_needed = 1, uses_anonymous_args = 0
 2628              		@ link register save eliminated.
 2629 09d4 80B4     		push	{r7}
 2630              	.LCFI207:
 2631              		.cfi_def_cfa_offset 4
 2632              		.cfi_offset 7, -4
 2633 09d6 85B0     		sub	sp, sp, #20
 2634              	.LCFI208:
 2635              		.cfi_def_cfa_offset 24
 2636 09d8 00AF     		add	r7, sp, #0
 2637              	.LCFI209:
 2638              		.cfi_def_cfa_register 7
 2639 09da 7860     		str	r0, [r7, #4]
 2640 09dc 0B46     		mov	r3, r1
 2641 09de 7B80     		strh	r3, [r7, #2]	@ movhi
1285:../../source/src/FWlib/src/stm32f10x_adc.c ****   uint8_t itmask = 0;
 2642              		.loc 1 1285 0
 2643 09e0 0023     		movs	r3, #0
 2644 09e2 FB73     		strb	r3, [r7, #15]
1286:../../source/src/FWlib/src/stm32f10x_adc.c ****   /* Check the parameters */
1287:../../source/src/FWlib/src/stm32f10x_adc.c ****   assert_param(IS_ADC_ALL_PERIPH(ADCx));
1288:../../source/src/FWlib/src/stm32f10x_adc.c ****   assert_param(IS_ADC_IT(ADC_IT));
1289:../../source/src/FWlib/src/stm32f10x_adc.c ****   /* Get the ADC IT index */
1290:../../source/src/FWlib/src/stm32f10x_adc.c ****   itmask = (uint8_t)(ADC_IT >> 8);
 2645              		.loc 1 1290 0
 2646 09e4 7B88     		ldrh	r3, [r7, #2]
 2647 09e6 1B0A     		lsrs	r3, r3, #8
 2648 09e8 9BB2     		uxth	r3, r3
 2649 09ea FB73     		strb	r3, [r7, #15]
1291:../../source/src/FWlib/src/stm32f10x_adc.c ****   /* Clear the selected ADC interrupt pending bits */
1292:../../source/src/FWlib/src/stm32f10x_adc.c ****   ADCx->SR = ~(uint32_t)itmask;
 2650              		.loc 1 1292 0
 2651 09ec FB7B     		ldrb	r3, [r7, #15]	@ zero_extendqisi2
 2652 09ee DA43     		mvns	r2, r3
 2653 09f0 7B68     		ldr	r3, [r7, #4]
 2654 09f2 1A60     		str	r2, [r3]
1293:../../source/src/FWlib/src/stm32f10x_adc.c **** }
 2655              		.loc 1 1293 0
 2656 09f4 00BF     		nop
 2657 09f6 1437     		adds	r7, r7, #20
 2658              	.LCFI210:
 2659              		.cfi_def_cfa_offset 4
 2660 09f8 BD46     		mov	sp, r7
 2661              	.LCFI211:
 2662              		.cfi_def_cfa_register 13
 2663              		@ sp needed
 2664 09fa 80BC     		pop	{r7}
 2665              	.LCFI212:
 2666              		.cfi_restore 7
ARM GAS  G:\Users\Jaxb\AppData\Local\Temp\cc4YWfMb.s 			page 71


 2667              		.cfi_def_cfa_offset 0
 2668 09fc 7047     		bx	lr
 2669              		.cfi_endproc
 2670              	.LFE64:
 2671              		.size	ADC_ClearITPendingBit, .-ADC_ClearITPendingBit
 2672              	.Letext0:
 2673              		.file 2 "f:\\arm\\gcc2018\\arm-none-eabi\\include\\machine\\_default_types.h"
 2674              		.file 3 "f:\\arm\\gcc2018\\arm-none-eabi\\include\\sys\\_stdint.h"
 2675              		.file 4 "../../source/include/core_cm3.h"
 2676              		.file 5 "../../source/include/system_stm32f10x.h"
 2677              		.file 6 "../../source/include/stm32f10x.h"
 2678              		.file 7 "../../source/src/FWlib/inc/stm32f10x_adc.h"
 2679 09fe 00BF     		.section	.debug_info,"",%progbits
 2680              	.Ldebug_info0:
 2681 0000 540C0000 		.4byte	0xc54
 2682 0004 0200     		.2byte	0x2
 2683 0006 00000000 		.4byte	.Ldebug_abbrev0
 2684 000a 04       		.byte	0x4
 2685 000b 01       		.uleb128 0x1
 2686 000c 72000000 		.4byte	.LASF102
 2687 0010 0C       		.byte	0xc
 2688 0011 B5040000 		.4byte	.LASF103
 2689 0015 95020000 		.4byte	.LASF104
 2690 0019 00000000 		.4byte	.Ltext0
 2691 001d FE090000 		.4byte	.Letext0
 2692 0021 00000000 		.4byte	.Ldebug_line0
 2693 0025 02       		.uleb128 0x2
 2694 0026 01       		.byte	0x1
 2695 0027 06       		.byte	0x6
 2696 0028 DF030000 		.4byte	.LASF0
 2697 002c 03       		.uleb128 0x3
 2698 002d ED020000 		.4byte	.LASF3
 2699 0031 02       		.byte	0x2
 2700 0032 2B       		.byte	0x2b
 2701 0033 37000000 		.4byte	0x37
 2702 0037 02       		.uleb128 0x2
 2703 0038 01       		.byte	0x1
 2704 0039 08       		.byte	0x8
 2705 003a 2D030000 		.4byte	.LASF1
 2706 003e 02       		.uleb128 0x2
 2707 003f 02       		.byte	0x2
 2708 0040 05       		.byte	0x5
 2709 0041 AA010000 		.4byte	.LASF2
 2710 0045 03       		.uleb128 0x3
 2711 0046 9A010000 		.4byte	.LASF4
 2712 004a 02       		.byte	0x2
 2713 004b 39       		.byte	0x39
 2714 004c 50000000 		.4byte	0x50
 2715 0050 02       		.uleb128 0x2
 2716 0051 02       		.byte	0x2
 2717 0052 07       		.byte	0x7
 2718 0053 A2040000 		.4byte	.LASF5
 2719 0057 02       		.uleb128 0x2
 2720 0058 04       		.byte	0x4
 2721 0059 05       		.byte	0x5
 2722 005a DF020000 		.4byte	.LASF6
 2723 005e 03       		.uleb128 0x3
ARM GAS  G:\Users\Jaxb\AppData\Local\Temp\cc4YWfMb.s 			page 72


 2724 005f 87010000 		.4byte	.LASF7
 2725 0063 02       		.byte	0x2
 2726 0064 4F       		.byte	0x4f
 2727 0065 69000000 		.4byte	0x69
 2728 0069 02       		.uleb128 0x2
 2729 006a 04       		.byte	0x4
 2730 006b 07       		.byte	0x7
 2731 006c E2050000 		.4byte	.LASF8
 2732 0070 02       		.uleb128 0x2
 2733 0071 08       		.byte	0x8
 2734 0072 05       		.byte	0x5
 2735 0073 C3020000 		.4byte	.LASF9
 2736 0077 02       		.uleb128 0x2
 2737 0078 08       		.byte	0x8
 2738 0079 07       		.byte	0x7
 2739 007a EB030000 		.4byte	.LASF10
 2740 007e 04       		.uleb128 0x4
 2741 007f 04       		.byte	0x4
 2742 0080 05       		.byte	0x5
 2743 0081 696E7400 		.ascii	"int\000"
 2744 0085 05       		.uleb128 0x5
 2745 0086 7E000000 		.4byte	0x7e
 2746 008a 02       		.uleb128 0x2
 2747 008b 04       		.byte	0x4
 2748 008c 07       		.byte	0x7
 2749 008d 2E040000 		.4byte	.LASF11
 2750 0091 03       		.uleb128 0x3
 2751 0092 08020000 		.4byte	.LASF12
 2752 0096 03       		.byte	0x3
 2753 0097 18       		.byte	0x18
 2754 0098 2C000000 		.4byte	0x2c
 2755 009c 03       		.uleb128 0x3
 2756 009d 5A040000 		.4byte	.LASF13
 2757 00a1 03       		.byte	0x3
 2758 00a2 24       		.byte	0x24
 2759 00a3 45000000 		.4byte	0x45
 2760 00a7 03       		.uleb128 0x3
 2761 00a8 02040000 		.4byte	.LASF14
 2762 00ac 03       		.byte	0x3
 2763 00ad 30       		.byte	0x30
 2764 00ae 5E000000 		.4byte	0x5e
 2765 00b2 05       		.uleb128 0x5
 2766 00b3 A7000000 		.4byte	0xa7
 2767 00b7 06       		.uleb128 0x6
 2768 00b8 48060000 		.4byte	.LASF15
 2769 00bc 04       		.byte	0x4
 2770 00bd CE06     		.2byte	0x6ce
 2771 00bf 85000000 		.4byte	0x85
 2772 00c3 01       		.byte	0x1
 2773 00c4 01       		.byte	0x1
 2774 00c5 07       		.uleb128 0x7
 2775 00c6 56050000 		.4byte	.LASF16
 2776 00ca 05       		.byte	0x5
 2777 00cb 35       		.byte	0x35
 2778 00cc A7000000 		.4byte	0xa7
 2779 00d0 01       		.byte	0x1
 2780 00d1 01       		.byte	0x1
ARM GAS  G:\Users\Jaxb\AppData\Local\Temp\cc4YWfMb.s 			page 73


 2781 00d2 08       		.uleb128 0x8
 2782 00d3 07       		.byte	0x7
 2783 00d4 01       		.byte	0x1
 2784 00d5 37000000 		.4byte	0x37
 2785 00d9 06       		.byte	0x6
 2786 00da 0702     		.2byte	0x207
 2787 00dc ED000000 		.4byte	0xed
 2788 00e0 09       		.uleb128 0x9
 2789 00e1 7D060000 		.4byte	.LASF17
 2790 00e5 00       		.byte	0
 2791 00e6 0A       		.uleb128 0xa
 2792 00e7 53455400 		.ascii	"SET\000"
 2793 00eb 01       		.byte	0x1
 2794 00ec 00       		.byte	0
 2795 00ed 0B       		.uleb128 0xb
 2796 00ee E4060000 		.4byte	.LASF18
 2797 00f2 06       		.byte	0x6
 2798 00f3 0702     		.2byte	0x207
 2799 00f5 D2000000 		.4byte	0xd2
 2800 00f9 0B       		.uleb128 0xb
 2801 00fa 9D050000 		.4byte	.LASF19
 2802 00fe 06       		.byte	0x6
 2803 00ff 0702     		.2byte	0x207
 2804 0101 D2000000 		.4byte	0xd2
 2805 0105 08       		.uleb128 0x8
 2806 0106 07       		.byte	0x7
 2807 0107 01       		.byte	0x1
 2808 0108 37000000 		.4byte	0x37
 2809 010c 06       		.byte	0x6
 2810 010d 0902     		.2byte	0x209
 2811 010f 20010000 		.4byte	0x120
 2812 0113 09       		.uleb128 0x9
 2813 0114 80020000 		.4byte	.LASF20
 2814 0118 00       		.byte	0
 2815 0119 09       		.uleb128 0x9
 2816 011a 09070000 		.4byte	.LASF21
 2817 011e 01       		.byte	0x1
 2818 011f 00       		.byte	0
 2819 0120 0B       		.uleb128 0xb
 2820 0121 38060000 		.4byte	.LASF22
 2821 0125 06       		.byte	0x6
 2822 0126 0902     		.2byte	0x209
 2823 0128 05010000 		.4byte	0x105
 2824 012c 0C       		.uleb128 0xc
 2825 012d 50       		.byte	0x50
 2826 012e 06       		.byte	0x6
 2827 012f 1E02     		.2byte	0x21e
 2828 0131 60020000 		.4byte	0x260
 2829 0135 0D       		.uleb128 0xd
 2830 0136 535200   		.ascii	"SR\000"
 2831 0139 06       		.byte	0x6
 2832 013a 2002     		.2byte	0x220
 2833 013c B2000000 		.4byte	0xb2
 2834 0140 02       		.byte	0x2
 2835 0141 23       		.byte	0x23
 2836 0142 00       		.uleb128 0
 2837 0143 0D       		.uleb128 0xd
ARM GAS  G:\Users\Jaxb\AppData\Local\Temp\cc4YWfMb.s 			page 74


 2838 0144 43523100 		.ascii	"CR1\000"
 2839 0148 06       		.byte	0x6
 2840 0149 2102     		.2byte	0x221
 2841 014b B2000000 		.4byte	0xb2
 2842 014f 02       		.byte	0x2
 2843 0150 23       		.byte	0x23
 2844 0151 04       		.uleb128 0x4
 2845 0152 0D       		.uleb128 0xd
 2846 0153 43523200 		.ascii	"CR2\000"
 2847 0157 06       		.byte	0x6
 2848 0158 2202     		.2byte	0x222
 2849 015a B2000000 		.4byte	0xb2
 2850 015e 02       		.byte	0x2
 2851 015f 23       		.byte	0x23
 2852 0160 08       		.uleb128 0x8
 2853 0161 0E       		.uleb128 0xe
 2854 0162 CF060000 		.4byte	.LASF23
 2855 0166 06       		.byte	0x6
 2856 0167 2302     		.2byte	0x223
 2857 0169 B2000000 		.4byte	0xb2
 2858 016d 02       		.byte	0x2
 2859 016e 23       		.byte	0x23
 2860 016f 0C       		.uleb128 0xc
 2861 0170 0E       		.uleb128 0xe
 2862 0171 D5060000 		.4byte	.LASF24
 2863 0175 06       		.byte	0x6
 2864 0176 2402     		.2byte	0x224
 2865 0178 B2000000 		.4byte	0xb2
 2866 017c 02       		.byte	0x2
 2867 017d 23       		.byte	0x23
 2868 017e 10       		.uleb128 0x10
 2869 017f 0E       		.uleb128 0xe
 2870 0180 67060000 		.4byte	.LASF25
 2871 0184 06       		.byte	0x6
 2872 0185 2502     		.2byte	0x225
 2873 0187 B2000000 		.4byte	0xb2
 2874 018b 02       		.byte	0x2
 2875 018c 23       		.byte	0x23
 2876 018d 14       		.uleb128 0x14
 2877 018e 0E       		.uleb128 0xe
 2878 018f 83060000 		.4byte	.LASF26
 2879 0193 06       		.byte	0x6
 2880 0194 2602     		.2byte	0x226
 2881 0196 B2000000 		.4byte	0xb2
 2882 019a 02       		.byte	0x2
 2883 019b 23       		.byte	0x23
 2884 019c 18       		.uleb128 0x18
 2885 019d 0E       		.uleb128 0xe
 2886 019e 80040000 		.4byte	.LASF27
 2887 01a2 06       		.byte	0x6
 2888 01a3 2702     		.2byte	0x227
 2889 01a5 B2000000 		.4byte	0xb2
 2890 01a9 02       		.byte	0x2
 2891 01aa 23       		.byte	0x23
 2892 01ab 1C       		.uleb128 0x1c
 2893 01ac 0E       		.uleb128 0xe
 2894 01ad 5F030000 		.4byte	.LASF28
ARM GAS  G:\Users\Jaxb\AppData\Local\Temp\cc4YWfMb.s 			page 75


 2895 01b1 06       		.byte	0x6
 2896 01b2 2802     		.2byte	0x228
 2897 01b4 B2000000 		.4byte	0xb2
 2898 01b8 02       		.byte	0x2
 2899 01b9 23       		.byte	0x23
 2900 01ba 20       		.uleb128 0x20
 2901 01bb 0D       		.uleb128 0xd
 2902 01bc 48545200 		.ascii	"HTR\000"
 2903 01c0 06       		.byte	0x6
 2904 01c1 2902     		.2byte	0x229
 2905 01c3 B2000000 		.4byte	0xb2
 2906 01c7 02       		.byte	0x2
 2907 01c8 23       		.byte	0x23
 2908 01c9 24       		.uleb128 0x24
 2909 01ca 0D       		.uleb128 0xd
 2910 01cb 4C545200 		.ascii	"LTR\000"
 2911 01cf 06       		.byte	0x6
 2912 01d0 2A02     		.2byte	0x22a
 2913 01d2 B2000000 		.4byte	0xb2
 2914 01d6 02       		.byte	0x2
 2915 01d7 23       		.byte	0x23
 2916 01d8 28       		.uleb128 0x28
 2917 01d9 0E       		.uleb128 0xe
 2918 01da 91060000 		.4byte	.LASF29
 2919 01de 06       		.byte	0x6
 2920 01df 2B02     		.2byte	0x22b
 2921 01e1 B2000000 		.4byte	0xb2
 2922 01e5 02       		.byte	0x2
 2923 01e6 23       		.byte	0x23
 2924 01e7 2C       		.uleb128 0x2c
 2925 01e8 0E       		.uleb128 0xe
 2926 01e9 96060000 		.4byte	.LASF30
 2927 01ed 06       		.byte	0x6
 2928 01ee 2C02     		.2byte	0x22c
 2929 01f0 B2000000 		.4byte	0xb2
 2930 01f4 02       		.byte	0x2
 2931 01f5 23       		.byte	0x23
 2932 01f6 30       		.uleb128 0x30
 2933 01f7 0E       		.uleb128 0xe
 2934 01f8 9B060000 		.4byte	.LASF31
 2935 01fc 06       		.byte	0x6
 2936 01fd 2D02     		.2byte	0x22d
 2937 01ff B2000000 		.4byte	0xb2
 2938 0203 02       		.byte	0x2
 2939 0204 23       		.byte	0x23
 2940 0205 34       		.uleb128 0x34
 2941 0206 0E       		.uleb128 0xe
 2942 0207 A5010000 		.4byte	.LASF32
 2943 020b 06       		.byte	0x6
 2944 020c 2E02     		.2byte	0x22e
 2945 020e B2000000 		.4byte	0xb2
 2946 0212 02       		.byte	0x2
 2947 0213 23       		.byte	0x23
 2948 0214 38       		.uleb128 0x38
 2949 0215 0E       		.uleb128 0xe
 2950 0216 E8020000 		.4byte	.LASF33
 2951 021a 06       		.byte	0x6
ARM GAS  G:\Users\Jaxb\AppData\Local\Temp\cc4YWfMb.s 			page 76


 2952 021b 2F02     		.2byte	0x22f
 2953 021d B2000000 		.4byte	0xb2
 2954 0221 02       		.byte	0x2
 2955 0222 23       		.byte	0x23
 2956 0223 3C       		.uleb128 0x3c
 2957 0224 0E       		.uleb128 0xe
 2958 0225 63000000 		.4byte	.LASF34
 2959 0229 06       		.byte	0x6
 2960 022a 3002     		.2byte	0x230
 2961 022c B2000000 		.4byte	0xb2
 2962 0230 02       		.byte	0x2
 2963 0231 23       		.byte	0x23
 2964 0232 40       		.uleb128 0x40
 2965 0233 0E       		.uleb128 0xe
 2966 0234 68000000 		.4byte	.LASF35
 2967 0238 06       		.byte	0x6
 2968 0239 3102     		.2byte	0x231
 2969 023b B2000000 		.4byte	0xb2
 2970 023f 02       		.byte	0x2
 2971 0240 23       		.byte	0x23
 2972 0241 44       		.uleb128 0x44
 2973 0242 0E       		.uleb128 0xe
 2974 0243 6D000000 		.4byte	.LASF36
 2975 0247 06       		.byte	0x6
 2976 0248 3202     		.2byte	0x232
 2977 024a B2000000 		.4byte	0xb2
 2978 024e 02       		.byte	0x2
 2979 024f 23       		.byte	0x23
 2980 0250 48       		.uleb128 0x48
 2981 0251 0D       		.uleb128 0xd
 2982 0252 445200   		.ascii	"DR\000"
 2983 0255 06       		.byte	0x6
 2984 0256 3302     		.2byte	0x233
 2985 0258 B2000000 		.4byte	0xb2
 2986 025c 02       		.byte	0x2
 2987 025d 23       		.byte	0x23
 2988 025e 4C       		.uleb128 0x4c
 2989 025f 00       		.byte	0
 2990 0260 0B       		.uleb128 0xb
 2991 0261 C3060000 		.4byte	.LASF37
 2992 0265 06       		.byte	0x6
 2993 0266 3402     		.2byte	0x234
 2994 0268 2C010000 		.4byte	0x12c
 2995 026c 0F       		.uleb128 0xf
 2996 026d 14       		.byte	0x14
 2997 026e 07       		.byte	0x7
 2998 026f 33       		.byte	0x33
 2999 0270 C9020000 		.4byte	0x2c9
 3000 0274 10       		.uleb128 0x10
 3001 0275 7D030000 		.4byte	.LASF38
 3002 0279 07       		.byte	0x7
 3003 027a 35       		.byte	0x35
 3004 027b A7000000 		.4byte	0xa7
 3005 027f 02       		.byte	0x2
 3006 0280 23       		.byte	0x23
 3007 0281 00       		.uleb128 0
 3008 0282 10       		.uleb128 0x10
ARM GAS  G:\Users\Jaxb\AppData\Local\Temp\cc4YWfMb.s 			page 77


 3009 0283 C3010000 		.4byte	.LASF39
 3010 0287 07       		.byte	0x7
 3011 0288 39       		.byte	0x39
 3012 0289 20010000 		.4byte	0x120
 3013 028d 02       		.byte	0x2
 3014 028e 23       		.byte	0x23
 3015 028f 04       		.uleb128 0x4
 3016 0290 10       		.uleb128 0x10
 3017 0291 26050000 		.4byte	.LASF40
 3018 0295 07       		.byte	0x7
 3019 0296 3D       		.byte	0x3d
 3020 0297 20010000 		.4byte	0x120
 3021 029b 02       		.byte	0x2
 3022 029c 23       		.byte	0x23
 3023 029d 05       		.uleb128 0x5
 3024 029e 10       		.uleb128 0x10
 3025 029f 66050000 		.4byte	.LASF41
 3026 02a3 07       		.byte	0x7
 3027 02a4 41       		.byte	0x41
 3028 02a5 A7000000 		.4byte	0xa7
 3029 02a9 02       		.byte	0x2
 3030 02aa 23       		.byte	0x23
 3031 02ab 08       		.uleb128 0x8
 3032 02ac 10       		.uleb128 0x10
 3033 02ad 18010000 		.4byte	.LASF42
 3034 02b1 07       		.byte	0x7
 3035 02b2 45       		.byte	0x45
 3036 02b3 A7000000 		.4byte	0xa7
 3037 02b7 02       		.byte	0x2
 3038 02b8 23       		.byte	0x23
 3039 02b9 0C       		.uleb128 0xc
 3040 02ba 10       		.uleb128 0x10
 3041 02bb 6F040000 		.4byte	.LASF43
 3042 02bf 07       		.byte	0x7
 3043 02c0 48       		.byte	0x48
 3044 02c1 91000000 		.4byte	0x91
 3045 02c5 02       		.byte	0x2
 3046 02c6 23       		.byte	0x23
 3047 02c7 10       		.uleb128 0x10
 3048 02c8 00       		.byte	0
 3049 02c9 03       		.uleb128 0x3
 3050 02ca 15000000 		.4byte	.LASF44
 3051 02ce 07       		.byte	0x7
 3052 02cf 4B       		.byte	0x4b
 3053 02d0 6C020000 		.4byte	0x26c
 3054 02d4 11       		.uleb128 0x11
 3055 02d5 01       		.byte	0x1
 3056 02d6 D4010000 		.4byte	.LASF50
 3057 02da 01       		.byte	0x1
 3058 02db 0305     		.2byte	0x503
 3059 02dd 01       		.byte	0x1
 3060 02de D4090000 		.4byte	.LFB64
 3061 02e2 FE090000 		.4byte	.LFE64
 3062 02e6 00000000 		.4byte	.LLST35
 3063 02ea 01       		.byte	0x1
 3064 02eb 1D030000 		.4byte	0x31d
 3065 02ef 12       		.uleb128 0x12
ARM GAS  G:\Users\Jaxb\AppData\Local\Temp\cc4YWfMb.s 			page 78


 3066 02f0 00000000 		.4byte	.LASF45
 3067 02f4 01       		.byte	0x1
 3068 02f5 0305     		.2byte	0x503
 3069 02f7 1D030000 		.4byte	0x31d
 3070 02fb 02       		.byte	0x2
 3071 02fc 91       		.byte	0x91
 3072 02fd 6C       		.sleb128 -20
 3073 02fe 12       		.uleb128 0x12
 3074 02ff B5060000 		.4byte	.LASF46
 3075 0303 01       		.byte	0x1
 3076 0304 0305     		.2byte	0x503
 3077 0306 9C000000 		.4byte	0x9c
 3078 030a 02       		.byte	0x2
 3079 030b 91       		.byte	0x91
 3080 030c 6A       		.sleb128 -22
 3081 030d 13       		.uleb128 0x13
 3082 030e BC060000 		.4byte	.LASF47
 3083 0312 01       		.byte	0x1
 3084 0313 0505     		.2byte	0x505
 3085 0315 91000000 		.4byte	0x91
 3086 0319 02       		.byte	0x2
 3087 031a 91       		.byte	0x91
 3088 031b 77       		.sleb128 -9
 3089 031c 00       		.byte	0
 3090 031d 14       		.uleb128 0x14
 3091 031e 04       		.byte	0x4
 3092 031f 60020000 		.4byte	0x260
 3093 0323 15       		.uleb128 0x15
 3094 0324 01       		.byte	0x1
 3095 0325 41010000 		.4byte	.LASF53
 3096 0329 01       		.byte	0x1
 3097 032a DF04     		.2byte	0x4df
 3098 032c 01       		.byte	0x1
 3099 032d F9000000 		.4byte	0xf9
 3100 0331 80090000 		.4byte	.LFB63
 3101 0335 D4090000 		.4byte	.LFE63
 3102 0339 5C000000 		.4byte	.LLST34
 3103 033d 01       		.byte	0x1
 3104 033e 8E030000 		.4byte	0x38e
 3105 0342 12       		.uleb128 0x12
 3106 0343 00000000 		.4byte	.LASF45
 3107 0347 01       		.byte	0x1
 3108 0348 DF04     		.2byte	0x4df
 3109 034a 1D030000 		.4byte	0x31d
 3110 034e 02       		.byte	0x2
 3111 034f 91       		.byte	0x91
 3112 0350 64       		.sleb128 -28
 3113 0351 12       		.uleb128 0x12
 3114 0352 B5060000 		.4byte	.LASF46
 3115 0356 01       		.byte	0x1
 3116 0357 DF04     		.2byte	0x4df
 3117 0359 9C000000 		.4byte	0x9c
 3118 035d 02       		.byte	0x2
 3119 035e 91       		.byte	0x91
 3120 035f 62       		.sleb128 -30
 3121 0360 13       		.uleb128 0x13
 3122 0361 1C050000 		.4byte	.LASF48
ARM GAS  G:\Users\Jaxb\AppData\Local\Temp\cc4YWfMb.s 			page 79


 3123 0365 01       		.byte	0x1
 3124 0366 E104     		.2byte	0x4e1
 3125 0368 F9000000 		.4byte	0xf9
 3126 036c 02       		.byte	0x2
 3127 036d 91       		.byte	0x91
 3128 036e 77       		.sleb128 -9
 3129 036f 13       		.uleb128 0x13
 3130 0370 BC060000 		.4byte	.LASF47
 3131 0374 01       		.byte	0x1
 3132 0375 E204     		.2byte	0x4e2
 3133 0377 A7000000 		.4byte	0xa7
 3134 037b 02       		.byte	0x2
 3135 037c 91       		.byte	0x91
 3136 037d 70       		.sleb128 -16
 3137 037e 13       		.uleb128 0x13
 3138 037f 88020000 		.4byte	.LASF49
 3139 0383 01       		.byte	0x1
 3140 0384 E204     		.2byte	0x4e2
 3141 0386 A7000000 		.4byte	0xa7
 3142 038a 02       		.byte	0x2
 3143 038b 91       		.byte	0x91
 3144 038c 6C       		.sleb128 -20
 3145 038d 00       		.byte	0
 3146 038e 11       		.uleb128 0x11
 3147 038f 01       		.byte	0x1
 3148 0390 33010000 		.4byte	.LASF51
 3149 0394 01       		.byte	0x1
 3150 0395 CC04     		.2byte	0x4cc
 3151 0397 01       		.byte	0x1
 3152 0398 62090000 		.4byte	.LFB62
 3153 039c 80090000 		.4byte	.LFE62
 3154 03a0 B8000000 		.4byte	.LLST33
 3155 03a4 01       		.byte	0x1
 3156 03a5 C8030000 		.4byte	0x3c8
 3157 03a9 12       		.uleb128 0x12
 3158 03aa 00000000 		.4byte	.LASF45
 3159 03ae 01       		.byte	0x1
 3160 03af CC04     		.2byte	0x4cc
 3161 03b1 1D030000 		.4byte	0x31d
 3162 03b5 02       		.byte	0x2
 3163 03b6 91       		.byte	0x91
 3164 03b7 74       		.sleb128 -12
 3165 03b8 12       		.uleb128 0x12
 3166 03b9 10020000 		.4byte	.LASF52
 3167 03bd 01       		.byte	0x1
 3168 03be CC04     		.2byte	0x4cc
 3169 03c0 91000000 		.4byte	0x91
 3170 03c4 02       		.byte	0x2
 3171 03c5 91       		.byte	0x91
 3172 03c6 73       		.sleb128 -13
 3173 03c7 00       		.byte	0
 3174 03c8 15       		.uleb128 0x15
 3175 03c9 01       		.byte	0x1
 3176 03ca 55060000 		.4byte	.LASF54
 3177 03ce 01       		.byte	0x1
 3178 03cf AB04     		.2byte	0x4ab
 3179 03d1 01       		.byte	0x1
ARM GAS  G:\Users\Jaxb\AppData\Local\Temp\cc4YWfMb.s 			page 80


 3180 03d2 ED000000 		.4byte	0xed
 3181 03d6 30090000 		.4byte	.LFB61
 3182 03da 62090000 		.4byte	.LFE61
 3183 03de 14010000 		.4byte	.LLST32
 3184 03e2 01       		.byte	0x1
 3185 03e3 15040000 		.4byte	0x415
 3186 03e7 12       		.uleb128 0x12
 3187 03e8 00000000 		.4byte	.LASF45
 3188 03ec 01       		.byte	0x1
 3189 03ed AB04     		.2byte	0x4ab
 3190 03ef 1D030000 		.4byte	0x31d
 3191 03f3 02       		.byte	0x2
 3192 03f4 91       		.byte	0x91
 3193 03f5 6C       		.sleb128 -20
 3194 03f6 12       		.uleb128 0x12
 3195 03f7 10020000 		.4byte	.LASF52
 3196 03fb 01       		.byte	0x1
 3197 03fc AB04     		.2byte	0x4ab
 3198 03fe 91000000 		.4byte	0x91
 3199 0402 02       		.byte	0x2
 3200 0403 91       		.byte	0x91
 3201 0404 6B       		.sleb128 -21
 3202 0405 13       		.uleb128 0x13
 3203 0406 1C050000 		.4byte	.LASF48
 3204 040a 01       		.byte	0x1
 3205 040b AD04     		.2byte	0x4ad
 3206 040d ED000000 		.4byte	0xed
 3207 0411 02       		.byte	0x2
 3208 0412 91       		.byte	0x91
 3209 0413 77       		.sleb128 -9
 3210 0414 00       		.byte	0
 3211 0415 11       		.uleb128 0x11
 3212 0416 01       		.byte	0x1
 3213 0417 51010000 		.4byte	.LASF55
 3214 041b 01       		.byte	0x1
 3215 041c 8F04     		.2byte	0x48f
 3216 041e 01       		.byte	0x1
 3217 041f F8080000 		.4byte	.LFB60
 3218 0423 30090000 		.4byte	.LFE60
 3219 0427 70010000 		.4byte	.LLST31
 3220 042b 01       		.byte	0x1
 3221 042c 40040000 		.4byte	0x440
 3222 0430 12       		.uleb128 0x12
 3223 0431 38020000 		.4byte	.LASF56
 3224 0435 01       		.byte	0x1
 3225 0436 8F04     		.2byte	0x48f
 3226 0438 20010000 		.4byte	0x120
 3227 043c 02       		.byte	0x2
 3228 043d 91       		.byte	0x91
 3229 043e 77       		.sleb128 -9
 3230 043f 00       		.byte	0
 3231 0440 11       		.uleb128 0x11
 3232 0441 01       		.byte	0x1
 3233 0442 41020000 		.4byte	.LASF57
 3234 0446 01       		.byte	0x1
 3235 0447 7904     		.2byte	0x479
 3236 0449 01       		.byte	0x1
ARM GAS  G:\Users\Jaxb\AppData\Local\Temp\cc4YWfMb.s 			page 81


 3237 044a C2080000 		.4byte	.LFB59
 3238 044e F8080000 		.4byte	.LFE59
 3239 0452 CC010000 		.4byte	.LLST30
 3240 0456 01       		.byte	0x1
 3241 0457 89040000 		.4byte	0x489
 3242 045b 12       		.uleb128 0x12
 3243 045c 00000000 		.4byte	.LASF45
 3244 0460 01       		.byte	0x1
 3245 0461 7904     		.2byte	0x479
 3246 0463 1D030000 		.4byte	0x31d
 3247 0467 02       		.byte	0x2
 3248 0468 91       		.byte	0x91
 3249 0469 6C       		.sleb128 -20
 3250 046a 12       		.uleb128 0x12
 3251 046b 63040000 		.4byte	.LASF58
 3252 046f 01       		.byte	0x1
 3253 0470 7904     		.2byte	0x479
 3254 0472 91000000 		.4byte	0x91
 3255 0476 02       		.byte	0x2
 3256 0477 91       		.byte	0x91
 3257 0478 6B       		.sleb128 -21
 3258 0479 13       		.uleb128 0x13
 3259 047a 3B030000 		.4byte	.LASF59
 3260 047e 01       		.byte	0x1
 3261 047f 7B04     		.2byte	0x47b
 3262 0481 A7000000 		.4byte	0xa7
 3263 0485 02       		.byte	0x2
 3264 0486 91       		.byte	0x91
 3265 0487 74       		.sleb128 -12
 3266 0488 00       		.byte	0
 3267 0489 11       		.uleb128 0x11
 3268 048a 01       		.byte	0x1
 3269 048b F9040000 		.4byte	.LASF60
 3270 048f 01       		.byte	0x1
 3271 0490 5304     		.2byte	0x453
 3272 0492 01       		.byte	0x1
 3273 0493 9C080000 		.4byte	.LFB58
 3274 0497 C2080000 		.4byte	.LFE58
 3275 049b 28020000 		.4byte	.LLST29
 3276 049f 01       		.byte	0x1
 3277 04a0 D2040000 		.4byte	0x4d2
 3278 04a4 12       		.uleb128 0x12
 3279 04a5 00000000 		.4byte	.LASF45
 3280 04a9 01       		.byte	0x1
 3281 04aa 5304     		.2byte	0x453
 3282 04ac 1D030000 		.4byte	0x31d
 3283 04b0 02       		.byte	0x2
 3284 04b1 91       		.byte	0x91
 3285 04b2 74       		.sleb128 -12
 3286 04b3 12       		.uleb128 0x12
 3287 04b4 D1020000 		.4byte	.LASF61
 3288 04b8 01       		.byte	0x1
 3289 04b9 5304     		.2byte	0x453
 3290 04bb 9C000000 		.4byte	0x9c
 3291 04bf 02       		.byte	0x2
 3292 04c0 91       		.byte	0x91
 3293 04c1 72       		.sleb128 -14
ARM GAS  G:\Users\Jaxb\AppData\Local\Temp\cc4YWfMb.s 			page 82


 3294 04c2 12       		.uleb128 0x12
 3295 04c3 26010000 		.4byte	.LASF62
 3296 04c7 01       		.byte	0x1
 3297 04c8 5404     		.2byte	0x454
 3298 04ca 9C000000 		.4byte	0x9c
 3299 04ce 02       		.byte	0x2
 3300 04cf 91       		.byte	0x91
 3301 04d0 70       		.sleb128 -16
 3302 04d1 00       		.byte	0
 3303 04d2 11       		.uleb128 0x11
 3304 04d3 01       		.byte	0x1
 3305 04d4 71010000 		.4byte	.LASF63
 3306 04d8 01       		.byte	0x1
 3307 04d9 3A04     		.2byte	0x43a
 3308 04db 01       		.byte	0x1
 3309 04dc 64080000 		.4byte	.LFB57
 3310 04e0 9C080000 		.4byte	.LFE57
 3311 04e4 84020000 		.4byte	.LLST28
 3312 04e8 01       		.byte	0x1
 3313 04e9 1B050000 		.4byte	0x51b
 3314 04ed 12       		.uleb128 0x12
 3315 04ee 00000000 		.4byte	.LASF45
 3316 04f2 01       		.byte	0x1
 3317 04f3 3A04     		.2byte	0x43a
 3318 04f5 1D030000 		.4byte	0x31d
 3319 04f9 02       		.byte	0x2
 3320 04fa 91       		.byte	0x91
 3321 04fb 6C       		.sleb128 -20
 3322 04fc 12       		.uleb128 0x12
 3323 04fd A6050000 		.4byte	.LASF64
 3324 0501 01       		.byte	0x1
 3325 0502 3A04     		.2byte	0x43a
 3326 0504 A7000000 		.4byte	0xa7
 3327 0508 02       		.byte	0x2
 3328 0509 91       		.byte	0x91
 3329 050a 68       		.sleb128 -24
 3330 050b 13       		.uleb128 0x13
 3331 050c 3B030000 		.4byte	.LASF59
 3332 0510 01       		.byte	0x1
 3333 0511 3C04     		.2byte	0x43c
 3334 0513 A7000000 		.4byte	0xa7
 3335 0517 02       		.byte	0x2
 3336 0518 91       		.byte	0x91
 3337 0519 74       		.sleb128 -12
 3338 051a 00       		.byte	0
 3339 051b 15       		.uleb128 0x15
 3340 051c 01       		.byte	0x1
 3341 051d 3B040000 		.4byte	.LASF65
 3342 0521 01       		.byte	0x1
 3343 0522 1C04     		.2byte	0x41c
 3344 0524 01       		.byte	0x1
 3345 0525 9C000000 		.4byte	0x9c
 3346 0529 36080000 		.4byte	.LFB56
 3347 052d 64080000 		.4byte	.LFE56
 3348 0531 E0020000 		.4byte	.LLST27
 3349 0535 01       		.byte	0x1
 3350 0536 68050000 		.4byte	0x568
ARM GAS  G:\Users\Jaxb\AppData\Local\Temp\cc4YWfMb.s 			page 83


 3351 053a 12       		.uleb128 0x12
 3352 053b 00000000 		.4byte	.LASF45
 3353 053f 01       		.byte	0x1
 3354 0540 1C04     		.2byte	0x41c
 3355 0542 1D030000 		.4byte	0x31d
 3356 0546 02       		.byte	0x2
 3357 0547 91       		.byte	0x91
 3358 0548 6C       		.sleb128 -20
 3359 0549 12       		.uleb128 0x12
 3360 054a 24060000 		.4byte	.LASF66
 3361 054e 01       		.byte	0x1
 3362 054f 1C04     		.2byte	0x41c
 3363 0551 91000000 		.4byte	0x91
 3364 0555 02       		.byte	0x2
 3365 0556 91       		.byte	0x91
 3366 0557 6B       		.sleb128 -21
 3367 0558 16       		.uleb128 0x16
 3368 0559 746D7000 		.ascii	"tmp\000"
 3369 055d 01       		.byte	0x1
 3370 055e 1E04     		.2byte	0x41e
 3371 0560 B2000000 		.4byte	0xb2
 3372 0564 02       		.byte	0x2
 3373 0565 91       		.byte	0x91
 3374 0566 74       		.sleb128 -12
 3375 0567 00       		.byte	0
 3376 0568 11       		.uleb128 0x11
 3377 0569 01       		.byte	0x1
 3378 056a 86030000 		.4byte	.LASF67
 3379 056e 01       		.byte	0x1
 3380 056f 0104     		.2byte	0x401
 3381 0571 01       		.byte	0x1
 3382 0572 04080000 		.4byte	.LFB55
 3383 0576 36080000 		.4byte	.LFE55
 3384 057a 3C030000 		.4byte	.LLST26
 3385 057e 01       		.byte	0x1
 3386 057f C0050000 		.4byte	0x5c0
 3387 0583 12       		.uleb128 0x12
 3388 0584 00000000 		.4byte	.LASF45
 3389 0588 01       		.byte	0x1
 3390 0589 0104     		.2byte	0x401
 3391 058b 1D030000 		.4byte	0x31d
 3392 058f 02       		.byte	0x2
 3393 0590 91       		.byte	0x91
 3394 0591 6C       		.sleb128 -20
 3395 0592 12       		.uleb128 0x12
 3396 0593 24060000 		.4byte	.LASF66
 3397 0597 01       		.byte	0x1
 3398 0598 0104     		.2byte	0x401
 3399 059a 91000000 		.4byte	0x91
 3400 059e 02       		.byte	0x2
 3401 059f 91       		.byte	0x91
 3402 05a0 6B       		.sleb128 -21
 3403 05a1 12       		.uleb128 0x12
 3404 05a2 86040000 		.4byte	.LASF68
 3405 05a6 01       		.byte	0x1
 3406 05a7 0104     		.2byte	0x401
 3407 05a9 9C000000 		.4byte	0x9c
ARM GAS  G:\Users\Jaxb\AppData\Local\Temp\cc4YWfMb.s 			page 84


 3408 05ad 02       		.byte	0x2
 3409 05ae 91       		.byte	0x91
 3410 05af 68       		.sleb128 -24
 3411 05b0 16       		.uleb128 0x16
 3412 05b1 746D7000 		.ascii	"tmp\000"
 3413 05b5 01       		.byte	0x1
 3414 05b6 0304     		.2byte	0x403
 3415 05b8 B2000000 		.4byte	0xb2
 3416 05bc 02       		.byte	0x2
 3417 05bd 91       		.byte	0x91
 3418 05be 74       		.sleb128 -12
 3419 05bf 00       		.byte	0
 3420 05c0 11       		.uleb128 0x11
 3421 05c1 01       		.byte	0x1
 3422 05c2 7B050000 		.4byte	.LASF69
 3423 05c6 01       		.byte	0x1
 3424 05c7 E103     		.2byte	0x3e1
 3425 05c9 01       		.byte	0x1
 3426 05ca C2070000 		.4byte	.LFB54
 3427 05ce 04080000 		.4byte	.LFE54
 3428 05d2 98030000 		.4byte	.LLST25
 3429 05d6 01       		.byte	0x1
 3430 05d7 18060000 		.4byte	0x618
 3431 05db 12       		.uleb128 0x12
 3432 05dc 00000000 		.4byte	.LASF45
 3433 05e0 01       		.byte	0x1
 3434 05e1 E103     		.2byte	0x3e1
 3435 05e3 1D030000 		.4byte	0x31d
 3436 05e7 02       		.byte	0x2
 3437 05e8 91       		.byte	0x91
 3438 05e9 6C       		.sleb128 -20
 3439 05ea 12       		.uleb128 0x12
 3440 05eb 25000000 		.4byte	.LASF70
 3441 05ef 01       		.byte	0x1
 3442 05f0 E103     		.2byte	0x3e1
 3443 05f2 91000000 		.4byte	0x91
 3444 05f6 02       		.byte	0x2
 3445 05f7 91       		.byte	0x91
 3446 05f8 6B       		.sleb128 -21
 3447 05f9 13       		.uleb128 0x13
 3448 05fa 05000000 		.4byte	.LASF71
 3449 05fe 01       		.byte	0x1
 3450 05ff E303     		.2byte	0x3e3
 3451 0601 A7000000 		.4byte	0xa7
 3452 0605 02       		.byte	0x2
 3453 0606 91       		.byte	0x91
 3454 0607 74       		.sleb128 -12
 3455 0608 13       		.uleb128 0x13
 3456 0609 0D000000 		.4byte	.LASF72
 3457 060d 01       		.byte	0x1
 3458 060e E403     		.2byte	0x3e4
 3459 0610 A7000000 		.4byte	0xa7
 3460 0614 02       		.byte	0x2
 3461 0615 91       		.byte	0x91
 3462 0616 70       		.sleb128 -16
 3463 0617 00       		.byte	0
 3464 0618 11       		.uleb128 0x11
ARM GAS  G:\Users\Jaxb\AppData\Local\Temp\cc4YWfMb.s 			page 85


 3465 0619 01       		.byte	0x1
 3466 061a B9050000 		.4byte	.LASF73
 3467 061e 01       		.byte	0x1
 3468 061f A203     		.2byte	0x3a2
 3469 0621 01       		.byte	0x1
 3470 0622 A2060000 		.4byte	.LFB53
 3471 0626 C2070000 		.4byte	.LFE53
 3472 062a F4030000 		.4byte	.LLST24
 3473 062e 01       		.byte	0x1
 3474 062f 9D060000 		.4byte	0x69d
 3475 0633 12       		.uleb128 0x12
 3476 0634 00000000 		.4byte	.LASF45
 3477 0638 01       		.byte	0x1
 3478 0639 A203     		.2byte	0x3a2
 3479 063b 1D030000 		.4byte	0x31d
 3480 063f 02       		.byte	0x2
 3481 0640 91       		.byte	0x91
 3482 0641 64       		.sleb128 -28
 3483 0642 12       		.uleb128 0x12
 3484 0643 63040000 		.4byte	.LASF58
 3485 0647 01       		.byte	0x1
 3486 0648 A203     		.2byte	0x3a2
 3487 064a 91000000 		.4byte	0x91
 3488 064e 02       		.byte	0x2
 3489 064f 91       		.byte	0x91
 3490 0650 63       		.sleb128 -29
 3491 0651 12       		.uleb128 0x12
 3492 0652 42030000 		.4byte	.LASF74
 3493 0656 01       		.byte	0x1
 3494 0657 A203     		.2byte	0x3a2
 3495 0659 91000000 		.4byte	0x91
 3496 065d 02       		.byte	0x2
 3497 065e 91       		.byte	0x91
 3498 065f 62       		.sleb128 -30
 3499 0660 12       		.uleb128 0x12
 3500 0661 D3050000 		.4byte	.LASF75
 3501 0665 01       		.byte	0x1
 3502 0666 A203     		.2byte	0x3a2
 3503 0668 91000000 		.4byte	0x91
 3504 066c 02       		.byte	0x2
 3505 066d 91       		.byte	0x91
 3506 066e 61       		.sleb128 -31
 3507 066f 13       		.uleb128 0x13
 3508 0670 05000000 		.4byte	.LASF71
 3509 0674 01       		.byte	0x1
 3510 0675 A403     		.2byte	0x3a4
 3511 0677 A7000000 		.4byte	0xa7
 3512 067b 02       		.byte	0x2
 3513 067c 91       		.byte	0x91
 3514 067d 74       		.sleb128 -12
 3515 067e 13       		.uleb128 0x13
 3516 067f 0D000000 		.4byte	.LASF72
 3517 0683 01       		.byte	0x1
 3518 0684 A403     		.2byte	0x3a4
 3519 0686 A7000000 		.4byte	0xa7
 3520 068a 02       		.byte	0x2
 3521 068b 91       		.byte	0x91
ARM GAS  G:\Users\Jaxb\AppData\Local\Temp\cc4YWfMb.s 			page 86


 3522 068c 70       		.sleb128 -16
 3523 068d 13       		.uleb128 0x13
 3524 068e 89060000 		.4byte	.LASF76
 3525 0692 01       		.byte	0x1
 3526 0693 A403     		.2byte	0x3a4
 3527 0695 A7000000 		.4byte	0xa7
 3528 0699 02       		.byte	0x2
 3529 069a 91       		.byte	0x91
 3530 069b 6C       		.sleb128 -20
 3531 069c 00       		.byte	0
 3532 069d 15       		.uleb128 0x15
 3533 069e 01       		.byte	0x1
 3534 069f 39000000 		.4byte	.LASF77
 3535 06a3 01       		.byte	0x1
 3536 06a4 6903     		.2byte	0x369
 3537 06a6 01       		.byte	0x1
 3538 06a7 ED000000 		.4byte	0xed
 3539 06ab 74060000 		.4byte	.LFB52
 3540 06af A2060000 		.4byte	.LFE52
 3541 06b3 50040000 		.4byte	.LLST23
 3542 06b7 01       		.byte	0x1
 3543 06b8 DB060000 		.4byte	0x6db
 3544 06bc 12       		.uleb128 0x12
 3545 06bd 00000000 		.4byte	.LASF45
 3546 06c1 01       		.byte	0x1
 3547 06c2 6903     		.2byte	0x369
 3548 06c4 1D030000 		.4byte	0x31d
 3549 06c8 02       		.byte	0x2
 3550 06c9 91       		.byte	0x91
 3551 06ca 6C       		.sleb128 -20
 3552 06cb 13       		.uleb128 0x13
 3553 06cc 1C050000 		.4byte	.LASF48
 3554 06d0 01       		.byte	0x1
 3555 06d1 6B03     		.2byte	0x36b
 3556 06d3 ED000000 		.4byte	0xed
 3557 06d7 02       		.byte	0x2
 3558 06d8 91       		.byte	0x91
 3559 06d9 77       		.sleb128 -9
 3560 06da 00       		.byte	0
 3561 06db 11       		.uleb128 0x11
 3562 06dc 01       		.byte	0x1
 3563 06dd 03060000 		.4byte	.LASF78
 3564 06e1 01       		.byte	0x1
 3565 06e2 5103     		.2byte	0x351
 3566 06e4 01       		.byte	0x1
 3567 06e5 3E060000 		.4byte	.LFB51
 3568 06e9 74060000 		.4byte	.LFE51
 3569 06ed AC040000 		.4byte	.LLST22
 3570 06f1 01       		.byte	0x1
 3571 06f2 15070000 		.4byte	0x715
 3572 06f6 12       		.uleb128 0x12
 3573 06f7 00000000 		.4byte	.LASF45
 3574 06fb 01       		.byte	0x1
 3575 06fc 5103     		.2byte	0x351
 3576 06fe 1D030000 		.4byte	0x31d
 3577 0702 02       		.byte	0x2
 3578 0703 91       		.byte	0x91
ARM GAS  G:\Users\Jaxb\AppData\Local\Temp\cc4YWfMb.s 			page 87


 3579 0704 74       		.sleb128 -12
 3580 0705 12       		.uleb128 0x12
 3581 0706 38020000 		.4byte	.LASF56
 3582 070a 01       		.byte	0x1
 3583 070b 5103     		.2byte	0x351
 3584 070d 20010000 		.4byte	0x120
 3585 0711 02       		.byte	0x2
 3586 0712 91       		.byte	0x91
 3587 0713 73       		.sleb128 -13
 3588 0714 00       		.byte	0
 3589 0715 11       		.uleb128 0x11
 3590 0716 01       		.byte	0x1
 3591 0717 A7030000 		.4byte	.LASF79
 3592 071b 01       		.byte	0x1
 3593 071c 3803     		.2byte	0x338
 3594 071e 01       		.byte	0x1
 3595 071f 08060000 		.4byte	.LFB50
 3596 0723 3E060000 		.4byte	.LFE50
 3597 0727 08050000 		.4byte	.LLST21
 3598 072b 01       		.byte	0x1
 3599 072c 4F070000 		.4byte	0x74f
 3600 0730 12       		.uleb128 0x12
 3601 0731 00000000 		.4byte	.LASF45
 3602 0735 01       		.byte	0x1
 3603 0736 3803     		.2byte	0x338
 3604 0738 1D030000 		.4byte	0x31d
 3605 073c 02       		.byte	0x2
 3606 073d 91       		.byte	0x91
 3607 073e 74       		.sleb128 -12
 3608 073f 12       		.uleb128 0x12
 3609 0740 38020000 		.4byte	.LASF56
 3610 0744 01       		.byte	0x1
 3611 0745 3803     		.2byte	0x338
 3612 0747 20010000 		.4byte	0x120
 3613 074b 02       		.byte	0x2
 3614 074c 91       		.byte	0x91
 3615 074d 73       		.sleb128 -13
 3616 074e 00       		.byte	0
 3617 074f 11       		.uleb128 0x11
 3618 0750 01       		.byte	0x1
 3619 0751 0B040000 		.4byte	.LASF80
 3620 0755 01       		.byte	0x1
 3621 0756 1F03     		.2byte	0x31f
 3622 0758 01       		.byte	0x1
 3623 0759 D4050000 		.4byte	.LFB49
 3624 075d 08060000 		.4byte	.LFE49
 3625 0761 64050000 		.4byte	.LLST20
 3626 0765 01       		.byte	0x1
 3627 0766 98070000 		.4byte	0x798
 3628 076a 12       		.uleb128 0x12
 3629 076b 00000000 		.4byte	.LASF45
 3630 076f 01       		.byte	0x1
 3631 0770 1F03     		.2byte	0x31f
 3632 0772 1D030000 		.4byte	0x31d
 3633 0776 02       		.byte	0x2
 3634 0777 91       		.byte	0x91
 3635 0778 6C       		.sleb128 -20
ARM GAS  G:\Users\Jaxb\AppData\Local\Temp\cc4YWfMb.s 			page 88


 3636 0779 12       		.uleb128 0x12
 3637 077a EF060000 		.4byte	.LASF81
 3638 077e 01       		.byte	0x1
 3639 077f 1F03     		.2byte	0x31f
 3640 0781 A7000000 		.4byte	0xa7
 3641 0785 02       		.byte	0x2
 3642 0786 91       		.byte	0x91
 3643 0787 68       		.sleb128 -24
 3644 0788 13       		.uleb128 0x13
 3645 0789 3B030000 		.4byte	.LASF59
 3646 078d 01       		.byte	0x1
 3647 078e 2103     		.2byte	0x321
 3648 0790 A7000000 		.4byte	0xa7
 3649 0794 02       		.byte	0x2
 3650 0795 91       		.byte	0x91
 3651 0796 74       		.sleb128 -12
 3652 0797 00       		.byte	0
 3653 0798 11       		.uleb128 0x11
 3654 0799 01       		.byte	0x1
 3655 079a C7030000 		.4byte	.LASF82
 3656 079e 01       		.byte	0x1
 3657 079f F802     		.2byte	0x2f8
 3658 07a1 01       		.byte	0x1
 3659 07a2 9E050000 		.4byte	.LFB48
 3660 07a6 D4050000 		.4byte	.LFE48
 3661 07aa C0050000 		.4byte	.LLST19
 3662 07ae 01       		.byte	0x1
 3663 07af D2070000 		.4byte	0x7d2
 3664 07b3 12       		.uleb128 0x12
 3665 07b4 00000000 		.4byte	.LASF45
 3666 07b8 01       		.byte	0x1
 3667 07b9 F802     		.2byte	0x2f8
 3668 07bb 1D030000 		.4byte	0x31d
 3669 07bf 02       		.byte	0x2
 3670 07c0 91       		.byte	0x91
 3671 07c1 74       		.sleb128 -12
 3672 07c2 12       		.uleb128 0x12
 3673 07c3 38020000 		.4byte	.LASF56
 3674 07c7 01       		.byte	0x1
 3675 07c8 F802     		.2byte	0x2f8
 3676 07ca 20010000 		.4byte	0x120
 3677 07ce 02       		.byte	0x2
 3678 07cf 91       		.byte	0x91
 3679 07d0 73       		.sleb128 -13
 3680 07d1 00       		.byte	0
 3681 07d2 11       		.uleb128 0x11
 3682 07d3 01       		.byte	0x1
 3683 07d4 47030000 		.4byte	.LASF83
 3684 07d8 01       		.byte	0x1
 3685 07d9 DE02     		.2byte	0x2de
 3686 07db 01       		.byte	0x1
 3687 07dc 68050000 		.4byte	.LFB47
 3688 07e0 9E050000 		.4byte	.LFE47
 3689 07e4 1C060000 		.4byte	.LLST18
 3690 07e8 01       		.byte	0x1
 3691 07e9 0C080000 		.4byte	0x80c
 3692 07ed 12       		.uleb128 0x12
ARM GAS  G:\Users\Jaxb\AppData\Local\Temp\cc4YWfMb.s 			page 89


 3693 07ee 00000000 		.4byte	.LASF45
 3694 07f2 01       		.byte	0x1
 3695 07f3 DE02     		.2byte	0x2de
 3696 07f5 1D030000 		.4byte	0x31d
 3697 07f9 02       		.byte	0x2
 3698 07fa 91       		.byte	0x91
 3699 07fb 74       		.sleb128 -12
 3700 07fc 12       		.uleb128 0x12
 3701 07fd 38020000 		.4byte	.LASF56
 3702 0801 01       		.byte	0x1
 3703 0802 DE02     		.2byte	0x2de
 3704 0804 20010000 		.4byte	0x120
 3705 0808 02       		.byte	0x2
 3706 0809 91       		.byte	0x91
 3707 080a 73       		.sleb128 -13
 3708 080b 00       		.byte	0
 3709 080c 17       		.uleb128 0x17
 3710 080d 01       		.byte	0x1
 3711 080e 1B070000 		.4byte	.LASF105
 3712 0812 01       		.byte	0x1
 3713 0813 D002     		.2byte	0x2d0
 3714 0815 01       		.byte	0x1
 3715 0816 A7000000 		.4byte	0xa7
 3716 081a 52050000 		.4byte	.LFB46
 3717 081e 68050000 		.4byte	.LFE46
 3718 0822 78060000 		.4byte	.LLST17
 3719 0826 01       		.byte	0x1
 3720 0827 15       		.uleb128 0x15
 3721 0828 01       		.byte	0x1
 3722 0829 16030000 		.4byte	.LASF84
 3723 082d 01       		.byte	0x1
 3724 082e C402     		.2byte	0x2c4
 3725 0830 01       		.byte	0x1
 3726 0831 9C000000 		.4byte	0x9c
 3727 0835 3A050000 		.4byte	.LFB45
 3728 0839 52050000 		.4byte	.LFE45
 3729 083d BC060000 		.4byte	.LLST16
 3730 0841 01       		.byte	0x1
 3731 0842 56080000 		.4byte	0x856
 3732 0846 12       		.uleb128 0x12
 3733 0847 00000000 		.4byte	.LASF45
 3734 084b 01       		.byte	0x1
 3735 084c C402     		.2byte	0x2c4
 3736 084e 1D030000 		.4byte	0x31d
 3737 0852 02       		.byte	0x2
 3738 0853 91       		.byte	0x91
 3739 0854 74       		.sleb128 -12
 3740 0855 00       		.byte	0
 3741 0856 11       		.uleb128 0x11
 3742 0857 01       		.byte	0x1
 3743 0858 65030000 		.4byte	.LASF85
 3744 085c 01       		.byte	0x1
 3745 085d AE02     		.2byte	0x2ae
 3746 085f 01       		.byte	0x1
 3747 0860 04050000 		.4byte	.LFB44
 3748 0864 3A050000 		.4byte	.LFE44
 3749 0868 18070000 		.4byte	.LLST15
ARM GAS  G:\Users\Jaxb\AppData\Local\Temp\cc4YWfMb.s 			page 90


 3750 086c 01       		.byte	0x1
 3751 086d 90080000 		.4byte	0x890
 3752 0871 12       		.uleb128 0x12
 3753 0872 00000000 		.4byte	.LASF45
 3754 0876 01       		.byte	0x1
 3755 0877 AE02     		.2byte	0x2ae
 3756 0879 1D030000 		.4byte	0x31d
 3757 087d 02       		.byte	0x2
 3758 087e 91       		.byte	0x91
 3759 087f 74       		.sleb128 -12
 3760 0880 12       		.uleb128 0x12
 3761 0881 38020000 		.4byte	.LASF56
 3762 0885 01       		.byte	0x1
 3763 0886 AE02     		.2byte	0x2ae
 3764 0888 20010000 		.4byte	0x120
 3765 088c 02       		.byte	0x2
 3766 088d 91       		.byte	0x91
 3767 088e 73       		.sleb128 -13
 3768 088f 00       		.byte	0
 3769 0890 11       		.uleb128 0x11
 3770 0891 01       		.byte	0x1
 3771 0892 67020000 		.4byte	.LASF86
 3772 0896 01       		.byte	0x1
 3773 0897 4E02     		.2byte	0x24e
 3774 0899 01       		.byte	0x1
 3775 089a 72030000 		.4byte	.LFB43
 3776 089e 04050000 		.4byte	.LFE43
 3777 08a2 74070000 		.4byte	.LLST14
 3778 08a6 01       		.byte	0x1
 3779 08a7 06090000 		.4byte	0x906
 3780 08ab 12       		.uleb128 0x12
 3781 08ac 00000000 		.4byte	.LASF45
 3782 08b0 01       		.byte	0x1
 3783 08b1 4E02     		.2byte	0x24e
 3784 08b3 1D030000 		.4byte	0x31d
 3785 08b7 02       		.byte	0x2
 3786 08b8 91       		.byte	0x91
 3787 08b9 6C       		.sleb128 -20
 3788 08ba 12       		.uleb128 0x12
 3789 08bb 63040000 		.4byte	.LASF58
 3790 08bf 01       		.byte	0x1
 3791 08c0 4E02     		.2byte	0x24e
 3792 08c2 91000000 		.4byte	0x91
 3793 08c6 02       		.byte	0x2
 3794 08c7 91       		.byte	0x91
 3795 08c8 6B       		.sleb128 -21
 3796 08c9 12       		.uleb128 0x12
 3797 08ca 42030000 		.4byte	.LASF74
 3798 08ce 01       		.byte	0x1
 3799 08cf 4E02     		.2byte	0x24e
 3800 08d1 91000000 		.4byte	0x91
 3801 08d5 02       		.byte	0x2
 3802 08d6 91       		.byte	0x91
 3803 08d7 6A       		.sleb128 -22
 3804 08d8 12       		.uleb128 0x12
 3805 08d9 D3050000 		.4byte	.LASF75
 3806 08dd 01       		.byte	0x1
ARM GAS  G:\Users\Jaxb\AppData\Local\Temp\cc4YWfMb.s 			page 91


 3807 08de 4E02     		.2byte	0x24e
 3808 08e0 91000000 		.4byte	0x91
 3809 08e4 02       		.byte	0x2
 3810 08e5 91       		.byte	0x91
 3811 08e6 69       		.sleb128 -23
 3812 08e7 13       		.uleb128 0x13
 3813 08e8 05000000 		.4byte	.LASF71
 3814 08ec 01       		.byte	0x1
 3815 08ed 5002     		.2byte	0x250
 3816 08ef A7000000 		.4byte	0xa7
 3817 08f3 02       		.byte	0x2
 3818 08f4 91       		.byte	0x91
 3819 08f5 74       		.sleb128 -12
 3820 08f6 13       		.uleb128 0x13
 3821 08f7 0D000000 		.4byte	.LASF72
 3822 08fb 01       		.byte	0x1
 3823 08fc 5002     		.2byte	0x250
 3824 08fe A7000000 		.4byte	0xa7
 3825 0902 02       		.byte	0x2
 3826 0903 91       		.byte	0x91
 3827 0904 70       		.sleb128 -16
 3828 0905 00       		.byte	0
 3829 0906 11       		.uleb128 0x11
 3830 0907 01       		.byte	0x1
 3831 0908 6D060000 		.4byte	.LASF87
 3832 090c 01       		.byte	0x1
 3833 090d 1802     		.2byte	0x218
 3834 090f 01       		.byte	0x1
 3835 0910 3C030000 		.4byte	.LFB42
 3836 0914 72030000 		.4byte	.LFE42
 3837 0918 D0070000 		.4byte	.LLST13
 3838 091c 01       		.byte	0x1
 3839 091d 40090000 		.4byte	0x940
 3840 0921 12       		.uleb128 0x12
 3841 0922 00000000 		.4byte	.LASF45
 3842 0926 01       		.byte	0x1
 3843 0927 1802     		.2byte	0x218
 3844 0929 1D030000 		.4byte	0x31d
 3845 092d 02       		.byte	0x2
 3846 092e 91       		.byte	0x91
 3847 092f 74       		.sleb128 -12
 3848 0930 12       		.uleb128 0x12
 3849 0931 38020000 		.4byte	.LASF56
 3850 0935 01       		.byte	0x1
 3851 0936 1802     		.2byte	0x218
 3852 0938 20010000 		.4byte	0x120
 3853 093c 02       		.byte	0x2
 3854 093d 91       		.byte	0x91
 3855 093e 73       		.sleb128 -13
 3856 093f 00       		.byte	0
 3857 0940 11       		.uleb128 0x11
 3858 0941 01       		.byte	0x1
 3859 0942 F7020000 		.4byte	.LASF88
 3860 0946 01       		.byte	0x1
 3861 0947 FD01     		.2byte	0x1fd
 3862 0949 01       		.byte	0x1
 3863 094a FA020000 		.4byte	.LFB41
ARM GAS  G:\Users\Jaxb\AppData\Local\Temp\cc4YWfMb.s 			page 92


 3864 094e 3C030000 		.4byte	.LFE41
 3865 0952 2C080000 		.4byte	.LLST12
 3866 0956 01       		.byte	0x1
 3867 0957 98090000 		.4byte	0x998
 3868 095b 12       		.uleb128 0x12
 3869 095c 00000000 		.4byte	.LASF45
 3870 0960 01       		.byte	0x1
 3871 0961 FD01     		.2byte	0x1fd
 3872 0963 1D030000 		.4byte	0x31d
 3873 0967 02       		.byte	0x2
 3874 0968 91       		.byte	0x91
 3875 0969 6C       		.sleb128 -20
 3876 096a 12       		.uleb128 0x12
 3877 096b 6A010000 		.4byte	.LASF89
 3878 096f 01       		.byte	0x1
 3879 0970 FD01     		.2byte	0x1fd
 3880 0972 91000000 		.4byte	0x91
 3881 0976 02       		.byte	0x2
 3882 0977 91       		.byte	0x91
 3883 0978 6B       		.sleb128 -21
 3884 0979 13       		.uleb128 0x13
 3885 097a 05000000 		.4byte	.LASF71
 3886 097e 01       		.byte	0x1
 3887 097f FF01     		.2byte	0x1ff
 3888 0981 A7000000 		.4byte	0xa7
 3889 0985 02       		.byte	0x2
 3890 0986 91       		.byte	0x91
 3891 0987 74       		.sleb128 -12
 3892 0988 13       		.uleb128 0x13
 3893 0989 0D000000 		.4byte	.LASF72
 3894 098d 01       		.byte	0x1
 3895 098e 0002     		.2byte	0x200
 3896 0990 A7000000 		.4byte	0xa7
 3897 0994 02       		.byte	0x2
 3898 0995 91       		.byte	0x91
 3899 0996 70       		.sleb128 -16
 3900 0997 00       		.byte	0
 3901 0998 15       		.uleb128 0x15
 3902 0999 01       		.byte	0x1
 3903 099a 19020000 		.4byte	.LASF90
 3904 099e 01       		.byte	0x1
 3905 099f E101     		.2byte	0x1e1
 3906 09a1 01       		.byte	0x1
 3907 09a2 ED000000 		.4byte	0xed
 3908 09a6 CC020000 		.4byte	.LFB40
 3909 09aa FA020000 		.4byte	.LFE40
 3910 09ae 88080000 		.4byte	.LLST11
 3911 09b2 01       		.byte	0x1
 3912 09b3 D6090000 		.4byte	0x9d6
 3913 09b7 12       		.uleb128 0x12
 3914 09b8 00000000 		.4byte	.LASF45
 3915 09bc 01       		.byte	0x1
 3916 09bd E101     		.2byte	0x1e1
 3917 09bf 1D030000 		.4byte	0x31d
 3918 09c3 02       		.byte	0x2
 3919 09c4 91       		.byte	0x91
 3920 09c5 6C       		.sleb128 -20
ARM GAS  G:\Users\Jaxb\AppData\Local\Temp\cc4YWfMb.s 			page 93


 3921 09c6 13       		.uleb128 0x13
 3922 09c7 1C050000 		.4byte	.LASF48
 3923 09cb 01       		.byte	0x1
 3924 09cc E301     		.2byte	0x1e3
 3925 09ce ED000000 		.4byte	0xed
 3926 09d2 02       		.byte	0x2
 3927 09d3 91       		.byte	0x91
 3928 09d4 77       		.sleb128 -9
 3929 09d5 00       		.byte	0
 3930 09d6 11       		.uleb128 0x11
 3931 09d7 01       		.byte	0x1
 3932 09d8 3D050000 		.4byte	.LASF91
 3933 09dc 01       		.byte	0x1
 3934 09dd C901     		.2byte	0x1c9
 3935 09df 01       		.byte	0x1
 3936 09e0 96020000 		.4byte	.LFB39
 3937 09e4 CC020000 		.4byte	.LFE39
 3938 09e8 E4080000 		.4byte	.LLST10
 3939 09ec 01       		.byte	0x1
 3940 09ed 100A0000 		.4byte	0xa10
 3941 09f1 12       		.uleb128 0x12
 3942 09f2 00000000 		.4byte	.LASF45
 3943 09f6 01       		.byte	0x1
 3944 09f7 C901     		.2byte	0x1c9
 3945 09f9 1D030000 		.4byte	0x31d
 3946 09fd 02       		.byte	0x2
 3947 09fe 91       		.byte	0x91
 3948 09ff 74       		.sleb128 -12
 3949 0a00 12       		.uleb128 0x12
 3950 0a01 38020000 		.4byte	.LASF56
 3951 0a05 01       		.byte	0x1
 3952 0a06 C901     		.2byte	0x1c9
 3953 0a08 20010000 		.4byte	0x120
 3954 0a0c 02       		.byte	0x2
 3955 0a0d 91       		.byte	0x91
 3956 0a0e 73       		.sleb128 -13
 3957 0a0f 00       		.byte	0
 3958 0a10 15       		.uleb128 0x15
 3959 0a11 01       		.byte	0x1
 3960 0a12 E0040000 		.4byte	.LASF92
 3961 0a16 01       		.byte	0x1
 3962 0a17 AE01     		.2byte	0x1ae
 3963 0a19 01       		.byte	0x1
 3964 0a1a ED000000 		.4byte	0xed
 3965 0a1e 68020000 		.4byte	.LFB38
 3966 0a22 96020000 		.4byte	.LFE38
 3967 0a26 40090000 		.4byte	.LLST9
 3968 0a2a 01       		.byte	0x1
 3969 0a2b 4E0A0000 		.4byte	0xa4e
 3970 0a2f 12       		.uleb128 0x12
 3971 0a30 00000000 		.4byte	.LASF45
 3972 0a34 01       		.byte	0x1
 3973 0a35 AE01     		.2byte	0x1ae
 3974 0a37 1D030000 		.4byte	0x31d
 3975 0a3b 02       		.byte	0x2
 3976 0a3c 91       		.byte	0x91
 3977 0a3d 6C       		.sleb128 -20
ARM GAS  G:\Users\Jaxb\AppData\Local\Temp\cc4YWfMb.s 			page 94


 3978 0a3e 13       		.uleb128 0x13
 3979 0a3f 1C050000 		.4byte	.LASF48
 3980 0a43 01       		.byte	0x1
 3981 0a44 B001     		.2byte	0x1b0
 3982 0a46 ED000000 		.4byte	0xed
 3983 0a4a 02       		.byte	0x2
 3984 0a4b 91       		.byte	0x91
 3985 0a4c 77       		.sleb128 -9
 3986 0a4d 00       		.byte	0
 3987 0a4e 11       		.uleb128 0x11
 3988 0a4f 01       		.byte	0x1
 3989 0a50 8D040000 		.4byte	.LASF93
 3990 0a54 01       		.byte	0x1
 3991 0a55 A101     		.2byte	0x1a1
 3992 0a57 01       		.byte	0x1
 3993 0a58 4A020000 		.4byte	.LFB37
 3994 0a5c 68020000 		.4byte	.LFE37
 3995 0a60 9C090000 		.4byte	.LLST8
 3996 0a64 01       		.byte	0x1
 3997 0a65 790A0000 		.4byte	0xa79
 3998 0a69 12       		.uleb128 0x12
 3999 0a6a 00000000 		.4byte	.LASF45
 4000 0a6e 01       		.byte	0x1
 4001 0a6f A101     		.2byte	0x1a1
 4002 0a71 1D030000 		.4byte	0x31d
 4003 0a75 02       		.byte	0x2
 4004 0a76 91       		.byte	0x91
 4005 0a77 74       		.sleb128 -12
 4006 0a78 00       		.byte	0
 4007 0a79 15       		.uleb128 0x15
 4008 0a7a 01       		.byte	0x1
 4009 0a7b EA010000 		.4byte	.LASF94
 4010 0a7f 01       		.byte	0x1
 4011 0a80 8801     		.2byte	0x188
 4012 0a82 01       		.byte	0x1
 4013 0a83 ED000000 		.4byte	0xed
 4014 0a87 1C020000 		.4byte	.LFB36
 4015 0a8b 4A020000 		.4byte	.LFE36
 4016 0a8f F8090000 		.4byte	.LLST7
 4017 0a93 01       		.byte	0x1
 4018 0a94 B70A0000 		.4byte	0xab7
 4019 0a98 12       		.uleb128 0x12
 4020 0a99 00000000 		.4byte	.LASF45
 4021 0a9d 01       		.byte	0x1
 4022 0a9e 8801     		.2byte	0x188
 4023 0aa0 1D030000 		.4byte	0x31d
 4024 0aa4 02       		.byte	0x2
 4025 0aa5 91       		.byte	0x91
 4026 0aa6 6C       		.sleb128 -20
 4027 0aa7 13       		.uleb128 0x13
 4028 0aa8 1C050000 		.4byte	.LASF48
 4029 0aac 01       		.byte	0x1
 4030 0aad 8A01     		.2byte	0x18a
 4031 0aaf ED000000 		.4byte	0xed
 4032 0ab3 02       		.byte	0x2
 4033 0ab4 91       		.byte	0x91
 4034 0ab5 77       		.sleb128 -9
ARM GAS  G:\Users\Jaxb\AppData\Local\Temp\cc4YWfMb.s 			page 95


 4035 0ab6 00       		.byte	0
 4036 0ab7 11       		.uleb128 0x11
 4037 0ab8 01       		.byte	0x1
 4038 0ab9 A0060000 		.4byte	.LASF95
 4039 0abd 01       		.byte	0x1
 4040 0abe 7B01     		.2byte	0x17b
 4041 0ac0 01       		.byte	0x1
 4042 0ac1 FE010000 		.4byte	.LFB35
 4043 0ac5 1C020000 		.4byte	.LFE35
 4044 0ac9 540A0000 		.4byte	.LLST6
 4045 0acd 01       		.byte	0x1
 4046 0ace E20A0000 		.4byte	0xae2
 4047 0ad2 12       		.uleb128 0x12
 4048 0ad3 00000000 		.4byte	.LASF45
 4049 0ad7 01       		.byte	0x1
 4050 0ad8 7B01     		.2byte	0x17b
 4051 0ada 1D030000 		.4byte	0x31d
 4052 0ade 02       		.byte	0x2
 4053 0adf 91       		.byte	0x91
 4054 0ae0 74       		.sleb128 -12
 4055 0ae1 00       		.byte	0
 4056 0ae2 11       		.uleb128 0x11
 4057 0ae3 01       		.byte	0x1
 4058 0ae4 2C000000 		.4byte	.LASF96
 4059 0ae8 01       		.byte	0x1
 4060 0ae9 6101     		.2byte	0x161
 4061 0aeb 01       		.byte	0x1
 4062 0aec BA010000 		.4byte	.LFB34
 4063 0af0 FE010000 		.4byte	.LFE34
 4064 0af4 B00A0000 		.4byte	.LLST5
 4065 0af8 01       		.byte	0x1
 4066 0af9 3A0B0000 		.4byte	0xb3a
 4067 0afd 12       		.uleb128 0x12
 4068 0afe 00000000 		.4byte	.LASF45
 4069 0b02 01       		.byte	0x1
 4070 0b03 6101     		.2byte	0x161
 4071 0b05 1D030000 		.4byte	0x31d
 4072 0b09 02       		.byte	0x2
 4073 0b0a 91       		.byte	0x91
 4074 0b0b 6C       		.sleb128 -20
 4075 0b0c 12       		.uleb128 0x12
 4076 0b0d B5060000 		.4byte	.LASF46
 4077 0b11 01       		.byte	0x1
 4078 0b12 6101     		.2byte	0x161
 4079 0b14 9C000000 		.4byte	0x9c
 4080 0b18 02       		.byte	0x2
 4081 0b19 91       		.byte	0x91
 4082 0b1a 6A       		.sleb128 -22
 4083 0b1b 12       		.uleb128 0x12
 4084 0b1c 38020000 		.4byte	.LASF56
 4085 0b20 01       		.byte	0x1
 4086 0b21 6101     		.2byte	0x161
 4087 0b23 20010000 		.4byte	0x120
 4088 0b27 02       		.byte	0x2
 4089 0b28 91       		.byte	0x91
 4090 0b29 69       		.sleb128 -23
 4091 0b2a 13       		.uleb128 0x13
ARM GAS  G:\Users\Jaxb\AppData\Local\Temp\cc4YWfMb.s 			page 96


 4092 0b2b BC060000 		.4byte	.LASF47
 4093 0b2f 01       		.byte	0x1
 4094 0b30 6301     		.2byte	0x163
 4095 0b32 91000000 		.4byte	0x91
 4096 0b36 02       		.byte	0x2
 4097 0b37 91       		.byte	0x91
 4098 0b38 77       		.sleb128 -9
 4099 0b39 00       		.byte	0
 4100 0b3a 11       		.uleb128 0x11
 4101 0b3b 01       		.byte	0x1
 4102 0b3c 10070000 		.4byte	.LASF97
 4103 0b40 01       		.byte	0x1
 4104 0b41 4401     		.2byte	0x144
 4105 0b43 01       		.byte	0x1
 4106 0b44 84010000 		.4byte	.LFB33
 4107 0b48 BA010000 		.4byte	.LFE33
 4108 0b4c 0C0B0000 		.4byte	.LLST4
 4109 0b50 01       		.byte	0x1
 4110 0b51 740B0000 		.4byte	0xb74
 4111 0b55 12       		.uleb128 0x12
 4112 0b56 00000000 		.4byte	.LASF45
 4113 0b5a 01       		.byte	0x1
 4114 0b5b 4401     		.2byte	0x144
 4115 0b5d 1D030000 		.4byte	0x31d
 4116 0b61 02       		.byte	0x2
 4117 0b62 91       		.byte	0x91
 4118 0b63 74       		.sleb128 -12
 4119 0b64 12       		.uleb128 0x12
 4120 0b65 38020000 		.4byte	.LASF56
 4121 0b69 01       		.byte	0x1
 4122 0b6a 4401     		.2byte	0x144
 4123 0b6c 20010000 		.4byte	0x120
 4124 0b70 02       		.byte	0x2
 4125 0b71 91       		.byte	0x91
 4126 0b72 73       		.sleb128 -13
 4127 0b73 00       		.byte	0
 4128 0b74 11       		.uleb128 0x11
 4129 0b75 01       		.byte	0x1
 4130 0b76 92010000 		.4byte	.LASF98
 4131 0b7a 01       		.byte	0x1
 4132 0b7b 2B01     		.2byte	0x12b
 4133 0b7d 01       		.byte	0x1
 4134 0b7e 4E010000 		.4byte	.LFB32
 4135 0b82 84010000 		.4byte	.LFE32
 4136 0b86 680B0000 		.4byte	.LLST3
 4137 0b8a 01       		.byte	0x1
 4138 0b8b AE0B0000 		.4byte	0xbae
 4139 0b8f 12       		.uleb128 0x12
 4140 0b90 00000000 		.4byte	.LASF45
 4141 0b94 01       		.byte	0x1
 4142 0b95 2B01     		.2byte	0x12b
 4143 0b97 1D030000 		.4byte	0x31d
 4144 0b9b 02       		.byte	0x2
 4145 0b9c 91       		.byte	0x91
 4146 0b9d 74       		.sleb128 -12
 4147 0b9e 12       		.uleb128 0x12
 4148 0b9f 38020000 		.4byte	.LASF56
ARM GAS  G:\Users\Jaxb\AppData\Local\Temp\cc4YWfMb.s 			page 97


 4149 0ba3 01       		.byte	0x1
 4150 0ba4 2B01     		.2byte	0x12b
 4151 0ba6 20010000 		.4byte	0x120
 4152 0baa 02       		.byte	0x2
 4153 0bab 91       		.byte	0x91
 4154 0bac 73       		.sleb128 -13
 4155 0bad 00       		.byte	0
 4156 0bae 11       		.uleb128 0x11
 4157 0baf 01       		.byte	0x1
 4158 0bb0 F4050000 		.4byte	.LASF99
 4159 0bb4 01       		.byte	0x1
 4160 0bb5 1301     		.2byte	0x113
 4161 0bb7 01       		.byte	0x1
 4162 0bb8 18010000 		.4byte	.LFB31
 4163 0bbc 4E010000 		.4byte	.LFE31
 4164 0bc0 C40B0000 		.4byte	.LLST2
 4165 0bc4 01       		.byte	0x1
 4166 0bc5 D90B0000 		.4byte	0xbd9
 4167 0bc9 12       		.uleb128 0x12
 4168 0bca B4010000 		.4byte	.LASF100
 4169 0bce 01       		.byte	0x1
 4170 0bcf 1301     		.2byte	0x113
 4171 0bd1 D90B0000 		.4byte	0xbd9
 4172 0bd5 02       		.byte	0x2
 4173 0bd6 91       		.byte	0x91
 4174 0bd7 74       		.sleb128 -12
 4175 0bd8 00       		.byte	0
 4176 0bd9 14       		.uleb128 0x14
 4177 0bda 04       		.byte	0x4
 4178 0bdb C9020000 		.4byte	0x2c9
 4179 0bdf 18       		.uleb128 0x18
 4180 0be0 01       		.byte	0x1
 4181 0be1 DB060000 		.4byte	.LASF101
 4182 0be5 01       		.byte	0x1
 4183 0be6 DA       		.byte	0xda
 4184 0be7 01       		.byte	0x1
 4185 0be8 74000000 		.4byte	.LFB30
 4186 0bec 18010000 		.4byte	.LFE30
 4187 0bf0 200C0000 		.4byte	.LLST1
 4188 0bf4 01       		.byte	0x1
 4189 0bf5 320C0000 		.4byte	0xc32
 4190 0bf9 19       		.uleb128 0x19
 4191 0bfa 00000000 		.4byte	.LASF45
 4192 0bfe 01       		.byte	0x1
 4193 0bff DA       		.byte	0xda
 4194 0c00 1D030000 		.4byte	0x31d
 4195 0c04 02       		.byte	0x2
 4196 0c05 91       		.byte	0x91
 4197 0c06 6C       		.sleb128 -20
 4198 0c07 19       		.uleb128 0x19
 4199 0c08 B4010000 		.4byte	.LASF100
 4200 0c0c 01       		.byte	0x1
 4201 0c0d DA       		.byte	0xda
 4202 0c0e D90B0000 		.4byte	0xbd9
 4203 0c12 02       		.byte	0x2
 4204 0c13 91       		.byte	0x91
 4205 0c14 68       		.sleb128 -24
ARM GAS  G:\Users\Jaxb\AppData\Local\Temp\cc4YWfMb.s 			page 98


 4206 0c15 1A       		.uleb128 0x1a
 4207 0c16 05000000 		.4byte	.LASF71
 4208 0c1a 01       		.byte	0x1
 4209 0c1b DC       		.byte	0xdc
 4210 0c1c A7000000 		.4byte	0xa7
 4211 0c20 02       		.byte	0x2
 4212 0c21 91       		.byte	0x91
 4213 0c22 74       		.sleb128 -12
 4214 0c23 1A       		.uleb128 0x1a
 4215 0c24 0D000000 		.4byte	.LASF72
 4216 0c28 01       		.byte	0x1
 4217 0c29 DD       		.byte	0xdd
 4218 0c2a 91000000 		.4byte	0x91
 4219 0c2e 02       		.byte	0x2
 4220 0c2f 91       		.byte	0x91
 4221 0c30 73       		.sleb128 -13
 4222 0c31 00       		.byte	0
 4223 0c32 1B       		.uleb128 0x1b
 4224 0c33 01       		.byte	0x1
 4225 0c34 9C030000 		.4byte	.LASF106
 4226 0c38 01       		.byte	0x1
 4227 0c39 B3       		.byte	0xb3
 4228 0c3a 01       		.byte	0x1
 4229 0c3b 00000000 		.4byte	.LFB29
 4230 0c3f 74000000 		.4byte	.LFE29
 4231 0c43 7C0C0000 		.4byte	.LLST0
 4232 0c47 01       		.byte	0x1
 4233 0c48 19       		.uleb128 0x19
 4234 0c49 00000000 		.4byte	.LASF45
 4235 0c4d 01       		.byte	0x1
 4236 0c4e B3       		.byte	0xb3
 4237 0c4f 1D030000 		.4byte	0x31d
 4238 0c53 02       		.byte	0x2
 4239 0c54 91       		.byte	0x91
 4240 0c55 74       		.sleb128 -12
 4241 0c56 00       		.byte	0
 4242 0c57 00       		.byte	0
 4243              		.section	.debug_abbrev,"",%progbits
 4244              	.Ldebug_abbrev0:
 4245 0000 01       		.uleb128 0x1
 4246 0001 11       		.uleb128 0x11
 4247 0002 01       		.byte	0x1
 4248 0003 25       		.uleb128 0x25
 4249 0004 0E       		.uleb128 0xe
 4250 0005 13       		.uleb128 0x13
 4251 0006 0B       		.uleb128 0xb
 4252 0007 03       		.uleb128 0x3
 4253 0008 0E       		.uleb128 0xe
 4254 0009 1B       		.uleb128 0x1b
 4255 000a 0E       		.uleb128 0xe
 4256 000b 11       		.uleb128 0x11
 4257 000c 01       		.uleb128 0x1
 4258 000d 12       		.uleb128 0x12
 4259 000e 01       		.uleb128 0x1
 4260 000f 10       		.uleb128 0x10
 4261 0010 06       		.uleb128 0x6
 4262 0011 00       		.byte	0
ARM GAS  G:\Users\Jaxb\AppData\Local\Temp\cc4YWfMb.s 			page 99


 4263 0012 00       		.byte	0
 4264 0013 02       		.uleb128 0x2
 4265 0014 24       		.uleb128 0x24
 4266 0015 00       		.byte	0
 4267 0016 0B       		.uleb128 0xb
 4268 0017 0B       		.uleb128 0xb
 4269 0018 3E       		.uleb128 0x3e
 4270 0019 0B       		.uleb128 0xb
 4271 001a 03       		.uleb128 0x3
 4272 001b 0E       		.uleb128 0xe
 4273 001c 00       		.byte	0
 4274 001d 00       		.byte	0
 4275 001e 03       		.uleb128 0x3
 4276 001f 16       		.uleb128 0x16
 4277 0020 00       		.byte	0
 4278 0021 03       		.uleb128 0x3
 4279 0022 0E       		.uleb128 0xe
 4280 0023 3A       		.uleb128 0x3a
 4281 0024 0B       		.uleb128 0xb
 4282 0025 3B       		.uleb128 0x3b
 4283 0026 0B       		.uleb128 0xb
 4284 0027 49       		.uleb128 0x49
 4285 0028 13       		.uleb128 0x13
 4286 0029 00       		.byte	0
 4287 002a 00       		.byte	0
 4288 002b 04       		.uleb128 0x4
 4289 002c 24       		.uleb128 0x24
 4290 002d 00       		.byte	0
 4291 002e 0B       		.uleb128 0xb
 4292 002f 0B       		.uleb128 0xb
 4293 0030 3E       		.uleb128 0x3e
 4294 0031 0B       		.uleb128 0xb
 4295 0032 03       		.uleb128 0x3
 4296 0033 08       		.uleb128 0x8
 4297 0034 00       		.byte	0
 4298 0035 00       		.byte	0
 4299 0036 05       		.uleb128 0x5
 4300 0037 35       		.uleb128 0x35
 4301 0038 00       		.byte	0
 4302 0039 49       		.uleb128 0x49
 4303 003a 13       		.uleb128 0x13
 4304 003b 00       		.byte	0
 4305 003c 00       		.byte	0
 4306 003d 06       		.uleb128 0x6
 4307 003e 34       		.uleb128 0x34
 4308 003f 00       		.byte	0
 4309 0040 03       		.uleb128 0x3
 4310 0041 0E       		.uleb128 0xe
 4311 0042 3A       		.uleb128 0x3a
 4312 0043 0B       		.uleb128 0xb
 4313 0044 3B       		.uleb128 0x3b
 4314 0045 05       		.uleb128 0x5
 4315 0046 49       		.uleb128 0x49
 4316 0047 13       		.uleb128 0x13
 4317 0048 3F       		.uleb128 0x3f
 4318 0049 0C       		.uleb128 0xc
 4319 004a 3C       		.uleb128 0x3c
ARM GAS  G:\Users\Jaxb\AppData\Local\Temp\cc4YWfMb.s 			page 100


 4320 004b 0C       		.uleb128 0xc
 4321 004c 00       		.byte	0
 4322 004d 00       		.byte	0
 4323 004e 07       		.uleb128 0x7
 4324 004f 34       		.uleb128 0x34
 4325 0050 00       		.byte	0
 4326 0051 03       		.uleb128 0x3
 4327 0052 0E       		.uleb128 0xe
 4328 0053 3A       		.uleb128 0x3a
 4329 0054 0B       		.uleb128 0xb
 4330 0055 3B       		.uleb128 0x3b
 4331 0056 0B       		.uleb128 0xb
 4332 0057 49       		.uleb128 0x49
 4333 0058 13       		.uleb128 0x13
 4334 0059 3F       		.uleb128 0x3f
 4335 005a 0C       		.uleb128 0xc
 4336 005b 3C       		.uleb128 0x3c
 4337 005c 0C       		.uleb128 0xc
 4338 005d 00       		.byte	0
 4339 005e 00       		.byte	0
 4340 005f 08       		.uleb128 0x8
 4341 0060 04       		.uleb128 0x4
 4342 0061 01       		.byte	0x1
 4343 0062 3E       		.uleb128 0x3e
 4344 0063 0B       		.uleb128 0xb
 4345 0064 0B       		.uleb128 0xb
 4346 0065 0B       		.uleb128 0xb
 4347 0066 49       		.uleb128 0x49
 4348 0067 13       		.uleb128 0x13
 4349 0068 3A       		.uleb128 0x3a
 4350 0069 0B       		.uleb128 0xb
 4351 006a 3B       		.uleb128 0x3b
 4352 006b 05       		.uleb128 0x5
 4353 006c 01       		.uleb128 0x1
 4354 006d 13       		.uleb128 0x13
 4355 006e 00       		.byte	0
 4356 006f 00       		.byte	0
 4357 0070 09       		.uleb128 0x9
 4358 0071 28       		.uleb128 0x28
 4359 0072 00       		.byte	0
 4360 0073 03       		.uleb128 0x3
 4361 0074 0E       		.uleb128 0xe
 4362 0075 1C       		.uleb128 0x1c
 4363 0076 0B       		.uleb128 0xb
 4364 0077 00       		.byte	0
 4365 0078 00       		.byte	0
 4366 0079 0A       		.uleb128 0xa
 4367 007a 28       		.uleb128 0x28
 4368 007b 00       		.byte	0
 4369 007c 03       		.uleb128 0x3
 4370 007d 08       		.uleb128 0x8
 4371 007e 1C       		.uleb128 0x1c
 4372 007f 0B       		.uleb128 0xb
 4373 0080 00       		.byte	0
 4374 0081 00       		.byte	0
 4375 0082 0B       		.uleb128 0xb
 4376 0083 16       		.uleb128 0x16
ARM GAS  G:\Users\Jaxb\AppData\Local\Temp\cc4YWfMb.s 			page 101


 4377 0084 00       		.byte	0
 4378 0085 03       		.uleb128 0x3
 4379 0086 0E       		.uleb128 0xe
 4380 0087 3A       		.uleb128 0x3a
 4381 0088 0B       		.uleb128 0xb
 4382 0089 3B       		.uleb128 0x3b
 4383 008a 05       		.uleb128 0x5
 4384 008b 49       		.uleb128 0x49
 4385 008c 13       		.uleb128 0x13
 4386 008d 00       		.byte	0
 4387 008e 00       		.byte	0
 4388 008f 0C       		.uleb128 0xc
 4389 0090 13       		.uleb128 0x13
 4390 0091 01       		.byte	0x1
 4391 0092 0B       		.uleb128 0xb
 4392 0093 0B       		.uleb128 0xb
 4393 0094 3A       		.uleb128 0x3a
 4394 0095 0B       		.uleb128 0xb
 4395 0096 3B       		.uleb128 0x3b
 4396 0097 05       		.uleb128 0x5
 4397 0098 01       		.uleb128 0x1
 4398 0099 13       		.uleb128 0x13
 4399 009a 00       		.byte	0
 4400 009b 00       		.byte	0
 4401 009c 0D       		.uleb128 0xd
 4402 009d 0D       		.uleb128 0xd
 4403 009e 00       		.byte	0
 4404 009f 03       		.uleb128 0x3
 4405 00a0 08       		.uleb128 0x8
 4406 00a1 3A       		.uleb128 0x3a
 4407 00a2 0B       		.uleb128 0xb
 4408 00a3 3B       		.uleb128 0x3b
 4409 00a4 05       		.uleb128 0x5
 4410 00a5 49       		.uleb128 0x49
 4411 00a6 13       		.uleb128 0x13
 4412 00a7 38       		.uleb128 0x38
 4413 00a8 0A       		.uleb128 0xa
 4414 00a9 00       		.byte	0
 4415 00aa 00       		.byte	0
 4416 00ab 0E       		.uleb128 0xe
 4417 00ac 0D       		.uleb128 0xd
 4418 00ad 00       		.byte	0
 4419 00ae 03       		.uleb128 0x3
 4420 00af 0E       		.uleb128 0xe
 4421 00b0 3A       		.uleb128 0x3a
 4422 00b1 0B       		.uleb128 0xb
 4423 00b2 3B       		.uleb128 0x3b
 4424 00b3 05       		.uleb128 0x5
 4425 00b4 49       		.uleb128 0x49
 4426 00b5 13       		.uleb128 0x13
 4427 00b6 38       		.uleb128 0x38
 4428 00b7 0A       		.uleb128 0xa
 4429 00b8 00       		.byte	0
 4430 00b9 00       		.byte	0
 4431 00ba 0F       		.uleb128 0xf
 4432 00bb 13       		.uleb128 0x13
 4433 00bc 01       		.byte	0x1
ARM GAS  G:\Users\Jaxb\AppData\Local\Temp\cc4YWfMb.s 			page 102


 4434 00bd 0B       		.uleb128 0xb
 4435 00be 0B       		.uleb128 0xb
 4436 00bf 3A       		.uleb128 0x3a
 4437 00c0 0B       		.uleb128 0xb
 4438 00c1 3B       		.uleb128 0x3b
 4439 00c2 0B       		.uleb128 0xb
 4440 00c3 01       		.uleb128 0x1
 4441 00c4 13       		.uleb128 0x13
 4442 00c5 00       		.byte	0
 4443 00c6 00       		.byte	0
 4444 00c7 10       		.uleb128 0x10
 4445 00c8 0D       		.uleb128 0xd
 4446 00c9 00       		.byte	0
 4447 00ca 03       		.uleb128 0x3
 4448 00cb 0E       		.uleb128 0xe
 4449 00cc 3A       		.uleb128 0x3a
 4450 00cd 0B       		.uleb128 0xb
 4451 00ce 3B       		.uleb128 0x3b
 4452 00cf 0B       		.uleb128 0xb
 4453 00d0 49       		.uleb128 0x49
 4454 00d1 13       		.uleb128 0x13
 4455 00d2 38       		.uleb128 0x38
 4456 00d3 0A       		.uleb128 0xa
 4457 00d4 00       		.byte	0
 4458 00d5 00       		.byte	0
 4459 00d6 11       		.uleb128 0x11
 4460 00d7 2E       		.uleb128 0x2e
 4461 00d8 01       		.byte	0x1
 4462 00d9 3F       		.uleb128 0x3f
 4463 00da 0C       		.uleb128 0xc
 4464 00db 03       		.uleb128 0x3
 4465 00dc 0E       		.uleb128 0xe
 4466 00dd 3A       		.uleb128 0x3a
 4467 00de 0B       		.uleb128 0xb
 4468 00df 3B       		.uleb128 0x3b
 4469 00e0 05       		.uleb128 0x5
 4470 00e1 27       		.uleb128 0x27
 4471 00e2 0C       		.uleb128 0xc
 4472 00e3 11       		.uleb128 0x11
 4473 00e4 01       		.uleb128 0x1
 4474 00e5 12       		.uleb128 0x12
 4475 00e6 01       		.uleb128 0x1
 4476 00e7 40       		.uleb128 0x40
 4477 00e8 06       		.uleb128 0x6
 4478 00e9 9742     		.uleb128 0x2117
 4479 00eb 0C       		.uleb128 0xc
 4480 00ec 01       		.uleb128 0x1
 4481 00ed 13       		.uleb128 0x13
 4482 00ee 00       		.byte	0
 4483 00ef 00       		.byte	0
 4484 00f0 12       		.uleb128 0x12
 4485 00f1 05       		.uleb128 0x5
 4486 00f2 00       		.byte	0
 4487 00f3 03       		.uleb128 0x3
 4488 00f4 0E       		.uleb128 0xe
 4489 00f5 3A       		.uleb128 0x3a
 4490 00f6 0B       		.uleb128 0xb
ARM GAS  G:\Users\Jaxb\AppData\Local\Temp\cc4YWfMb.s 			page 103


 4491 00f7 3B       		.uleb128 0x3b
 4492 00f8 05       		.uleb128 0x5
 4493 00f9 49       		.uleb128 0x49
 4494 00fa 13       		.uleb128 0x13
 4495 00fb 02       		.uleb128 0x2
 4496 00fc 0A       		.uleb128 0xa
 4497 00fd 00       		.byte	0
 4498 00fe 00       		.byte	0
 4499 00ff 13       		.uleb128 0x13
 4500 0100 34       		.uleb128 0x34
 4501 0101 00       		.byte	0
 4502 0102 03       		.uleb128 0x3
 4503 0103 0E       		.uleb128 0xe
 4504 0104 3A       		.uleb128 0x3a
 4505 0105 0B       		.uleb128 0xb
 4506 0106 3B       		.uleb128 0x3b
 4507 0107 05       		.uleb128 0x5
 4508 0108 49       		.uleb128 0x49
 4509 0109 13       		.uleb128 0x13
 4510 010a 02       		.uleb128 0x2
 4511 010b 0A       		.uleb128 0xa
 4512 010c 00       		.byte	0
 4513 010d 00       		.byte	0
 4514 010e 14       		.uleb128 0x14
 4515 010f 0F       		.uleb128 0xf
 4516 0110 00       		.byte	0
 4517 0111 0B       		.uleb128 0xb
 4518 0112 0B       		.uleb128 0xb
 4519 0113 49       		.uleb128 0x49
 4520 0114 13       		.uleb128 0x13
 4521 0115 00       		.byte	0
 4522 0116 00       		.byte	0
 4523 0117 15       		.uleb128 0x15
 4524 0118 2E       		.uleb128 0x2e
 4525 0119 01       		.byte	0x1
 4526 011a 3F       		.uleb128 0x3f
 4527 011b 0C       		.uleb128 0xc
 4528 011c 03       		.uleb128 0x3
 4529 011d 0E       		.uleb128 0xe
 4530 011e 3A       		.uleb128 0x3a
 4531 011f 0B       		.uleb128 0xb
 4532 0120 3B       		.uleb128 0x3b
 4533 0121 05       		.uleb128 0x5
 4534 0122 27       		.uleb128 0x27
 4535 0123 0C       		.uleb128 0xc
 4536 0124 49       		.uleb128 0x49
 4537 0125 13       		.uleb128 0x13
 4538 0126 11       		.uleb128 0x11
 4539 0127 01       		.uleb128 0x1
 4540 0128 12       		.uleb128 0x12
 4541 0129 01       		.uleb128 0x1
 4542 012a 40       		.uleb128 0x40
 4543 012b 06       		.uleb128 0x6
 4544 012c 9742     		.uleb128 0x2117
 4545 012e 0C       		.uleb128 0xc
 4546 012f 01       		.uleb128 0x1
 4547 0130 13       		.uleb128 0x13
ARM GAS  G:\Users\Jaxb\AppData\Local\Temp\cc4YWfMb.s 			page 104


 4548 0131 00       		.byte	0
 4549 0132 00       		.byte	0
 4550 0133 16       		.uleb128 0x16
 4551 0134 34       		.uleb128 0x34
 4552 0135 00       		.byte	0
 4553 0136 03       		.uleb128 0x3
 4554 0137 08       		.uleb128 0x8
 4555 0138 3A       		.uleb128 0x3a
 4556 0139 0B       		.uleb128 0xb
 4557 013a 3B       		.uleb128 0x3b
 4558 013b 05       		.uleb128 0x5
 4559 013c 49       		.uleb128 0x49
 4560 013d 13       		.uleb128 0x13
 4561 013e 02       		.uleb128 0x2
 4562 013f 0A       		.uleb128 0xa
 4563 0140 00       		.byte	0
 4564 0141 00       		.byte	0
 4565 0142 17       		.uleb128 0x17
 4566 0143 2E       		.uleb128 0x2e
 4567 0144 00       		.byte	0
 4568 0145 3F       		.uleb128 0x3f
 4569 0146 0C       		.uleb128 0xc
 4570 0147 03       		.uleb128 0x3
 4571 0148 0E       		.uleb128 0xe
 4572 0149 3A       		.uleb128 0x3a
 4573 014a 0B       		.uleb128 0xb
 4574 014b 3B       		.uleb128 0x3b
 4575 014c 05       		.uleb128 0x5
 4576 014d 27       		.uleb128 0x27
 4577 014e 0C       		.uleb128 0xc
 4578 014f 49       		.uleb128 0x49
 4579 0150 13       		.uleb128 0x13
 4580 0151 11       		.uleb128 0x11
 4581 0152 01       		.uleb128 0x1
 4582 0153 12       		.uleb128 0x12
 4583 0154 01       		.uleb128 0x1
 4584 0155 40       		.uleb128 0x40
 4585 0156 06       		.uleb128 0x6
 4586 0157 9742     		.uleb128 0x2117
 4587 0159 0C       		.uleb128 0xc
 4588 015a 00       		.byte	0
 4589 015b 00       		.byte	0
 4590 015c 18       		.uleb128 0x18
 4591 015d 2E       		.uleb128 0x2e
 4592 015e 01       		.byte	0x1
 4593 015f 3F       		.uleb128 0x3f
 4594 0160 0C       		.uleb128 0xc
 4595 0161 03       		.uleb128 0x3
 4596 0162 0E       		.uleb128 0xe
 4597 0163 3A       		.uleb128 0x3a
 4598 0164 0B       		.uleb128 0xb
 4599 0165 3B       		.uleb128 0x3b
 4600 0166 0B       		.uleb128 0xb
 4601 0167 27       		.uleb128 0x27
 4602 0168 0C       		.uleb128 0xc
 4603 0169 11       		.uleb128 0x11
 4604 016a 01       		.uleb128 0x1
ARM GAS  G:\Users\Jaxb\AppData\Local\Temp\cc4YWfMb.s 			page 105


 4605 016b 12       		.uleb128 0x12
 4606 016c 01       		.uleb128 0x1
 4607 016d 40       		.uleb128 0x40
 4608 016e 06       		.uleb128 0x6
 4609 016f 9742     		.uleb128 0x2117
 4610 0171 0C       		.uleb128 0xc
 4611 0172 01       		.uleb128 0x1
 4612 0173 13       		.uleb128 0x13
 4613 0174 00       		.byte	0
 4614 0175 00       		.byte	0
 4615 0176 19       		.uleb128 0x19
 4616 0177 05       		.uleb128 0x5
 4617 0178 00       		.byte	0
 4618 0179 03       		.uleb128 0x3
 4619 017a 0E       		.uleb128 0xe
 4620 017b 3A       		.uleb128 0x3a
 4621 017c 0B       		.uleb128 0xb
 4622 017d 3B       		.uleb128 0x3b
 4623 017e 0B       		.uleb128 0xb
 4624 017f 49       		.uleb128 0x49
 4625 0180 13       		.uleb128 0x13
 4626 0181 02       		.uleb128 0x2
 4627 0182 0A       		.uleb128 0xa
 4628 0183 00       		.byte	0
 4629 0184 00       		.byte	0
 4630 0185 1A       		.uleb128 0x1a
 4631 0186 34       		.uleb128 0x34
 4632 0187 00       		.byte	0
 4633 0188 03       		.uleb128 0x3
 4634 0189 0E       		.uleb128 0xe
 4635 018a 3A       		.uleb128 0x3a
 4636 018b 0B       		.uleb128 0xb
 4637 018c 3B       		.uleb128 0x3b
 4638 018d 0B       		.uleb128 0xb
 4639 018e 49       		.uleb128 0x49
 4640 018f 13       		.uleb128 0x13
 4641 0190 02       		.uleb128 0x2
 4642 0191 0A       		.uleb128 0xa
 4643 0192 00       		.byte	0
 4644 0193 00       		.byte	0
 4645 0194 1B       		.uleb128 0x1b
 4646 0195 2E       		.uleb128 0x2e
 4647 0196 01       		.byte	0x1
 4648 0197 3F       		.uleb128 0x3f
 4649 0198 0C       		.uleb128 0xc
 4650 0199 03       		.uleb128 0x3
 4651 019a 0E       		.uleb128 0xe
 4652 019b 3A       		.uleb128 0x3a
 4653 019c 0B       		.uleb128 0xb
 4654 019d 3B       		.uleb128 0x3b
 4655 019e 0B       		.uleb128 0xb
 4656 019f 27       		.uleb128 0x27
 4657 01a0 0C       		.uleb128 0xc
 4658 01a1 11       		.uleb128 0x11
 4659 01a2 01       		.uleb128 0x1
 4660 01a3 12       		.uleb128 0x12
 4661 01a4 01       		.uleb128 0x1
ARM GAS  G:\Users\Jaxb\AppData\Local\Temp\cc4YWfMb.s 			page 106


 4662 01a5 40       		.uleb128 0x40
 4663 01a6 06       		.uleb128 0x6
 4664 01a7 9642     		.uleb128 0x2116
 4665 01a9 0C       		.uleb128 0xc
 4666 01aa 00       		.byte	0
 4667 01ab 00       		.byte	0
 4668 01ac 00       		.byte	0
 4669              		.section	.debug_loc,"",%progbits
 4670              	.Ldebug_loc0:
 4671              	.LLST35:
 4672 0000 D4090000 		.4byte	.LFB64-.Ltext0
 4673 0004 D6090000 		.4byte	.LCFI207-.Ltext0
 4674 0008 0200     		.2byte	0x2
 4675 000a 7D       		.byte	0x7d
 4676 000b 00       		.sleb128 0
 4677 000c D6090000 		.4byte	.LCFI207-.Ltext0
 4678 0010 D8090000 		.4byte	.LCFI208-.Ltext0
 4679 0014 0200     		.2byte	0x2
 4680 0016 7D       		.byte	0x7d
 4681 0017 04       		.sleb128 4
 4682 0018 D8090000 		.4byte	.LCFI208-.Ltext0
 4683 001c DA090000 		.4byte	.LCFI209-.Ltext0
 4684 0020 0200     		.2byte	0x2
 4685 0022 7D       		.byte	0x7d
 4686 0023 18       		.sleb128 24
 4687 0024 DA090000 		.4byte	.LCFI209-.Ltext0
 4688 0028 F8090000 		.4byte	.LCFI210-.Ltext0
 4689 002c 0200     		.2byte	0x2
 4690 002e 77       		.byte	0x77
 4691 002f 18       		.sleb128 24
 4692 0030 F8090000 		.4byte	.LCFI210-.Ltext0
 4693 0034 FA090000 		.4byte	.LCFI211-.Ltext0
 4694 0038 0200     		.2byte	0x2
 4695 003a 77       		.byte	0x77
 4696 003b 04       		.sleb128 4
 4697 003c FA090000 		.4byte	.LCFI211-.Ltext0
 4698 0040 FC090000 		.4byte	.LCFI212-.Ltext0
 4699 0044 0200     		.2byte	0x2
 4700 0046 7D       		.byte	0x7d
 4701 0047 04       		.sleb128 4
 4702 0048 FC090000 		.4byte	.LCFI212-.Ltext0
 4703 004c FE090000 		.4byte	.LFE64-.Ltext0
 4704 0050 0200     		.2byte	0x2
 4705 0052 7D       		.byte	0x7d
 4706 0053 00       		.sleb128 0
 4707 0054 00000000 		.4byte	0
 4708 0058 00000000 		.4byte	0
 4709              	.LLST34:
 4710 005c 80090000 		.4byte	.LFB63-.Ltext0
 4711 0060 82090000 		.4byte	.LCFI201-.Ltext0
 4712 0064 0200     		.2byte	0x2
 4713 0066 7D       		.byte	0x7d
 4714 0067 00       		.sleb128 0
 4715 0068 82090000 		.4byte	.LCFI201-.Ltext0
 4716 006c 84090000 		.4byte	.LCFI202-.Ltext0
 4717 0070 0200     		.2byte	0x2
 4718 0072 7D       		.byte	0x7d
ARM GAS  G:\Users\Jaxb\AppData\Local\Temp\cc4YWfMb.s 			page 107


 4719 0073 04       		.sleb128 4
 4720 0074 84090000 		.4byte	.LCFI202-.Ltext0
 4721 0078 86090000 		.4byte	.LCFI203-.Ltext0
 4722 007c 0200     		.2byte	0x2
 4723 007e 7D       		.byte	0x7d
 4724 007f 20       		.sleb128 32
 4725 0080 86090000 		.4byte	.LCFI203-.Ltext0
 4726 0084 CE090000 		.4byte	.LCFI204-.Ltext0
 4727 0088 0200     		.2byte	0x2
 4728 008a 77       		.byte	0x77
 4729 008b 20       		.sleb128 32
 4730 008c CE090000 		.4byte	.LCFI204-.Ltext0
 4731 0090 D0090000 		.4byte	.LCFI205-.Ltext0
 4732 0094 0200     		.2byte	0x2
 4733 0096 77       		.byte	0x77
 4734 0097 04       		.sleb128 4
 4735 0098 D0090000 		.4byte	.LCFI205-.Ltext0
 4736 009c D2090000 		.4byte	.LCFI206-.Ltext0
 4737 00a0 0200     		.2byte	0x2
 4738 00a2 7D       		.byte	0x7d
 4739 00a3 04       		.sleb128 4
 4740 00a4 D2090000 		.4byte	.LCFI206-.Ltext0
 4741 00a8 D4090000 		.4byte	.LFE63-.Ltext0
 4742 00ac 0200     		.2byte	0x2
 4743 00ae 7D       		.byte	0x7d
 4744 00af 00       		.sleb128 0
 4745 00b0 00000000 		.4byte	0
 4746 00b4 00000000 		.4byte	0
 4747              	.LLST33:
 4748 00b8 62090000 		.4byte	.LFB62-.Ltext0
 4749 00bc 64090000 		.4byte	.LCFI195-.Ltext0
 4750 00c0 0200     		.2byte	0x2
 4751 00c2 7D       		.byte	0x7d
 4752 00c3 00       		.sleb128 0
 4753 00c4 64090000 		.4byte	.LCFI195-.Ltext0
 4754 00c8 66090000 		.4byte	.LCFI196-.Ltext0
 4755 00cc 0200     		.2byte	0x2
 4756 00ce 7D       		.byte	0x7d
 4757 00cf 04       		.sleb128 4
 4758 00d0 66090000 		.4byte	.LCFI196-.Ltext0
 4759 00d4 68090000 		.4byte	.LCFI197-.Ltext0
 4760 00d8 0200     		.2byte	0x2
 4761 00da 7D       		.byte	0x7d
 4762 00db 10       		.sleb128 16
 4763 00dc 68090000 		.4byte	.LCFI197-.Ltext0
 4764 00e0 7A090000 		.4byte	.LCFI198-.Ltext0
 4765 00e4 0200     		.2byte	0x2
 4766 00e6 77       		.byte	0x77
 4767 00e7 10       		.sleb128 16
 4768 00e8 7A090000 		.4byte	.LCFI198-.Ltext0
 4769 00ec 7C090000 		.4byte	.LCFI199-.Ltext0
 4770 00f0 0200     		.2byte	0x2
 4771 00f2 77       		.byte	0x77
 4772 00f3 04       		.sleb128 4
 4773 00f4 7C090000 		.4byte	.LCFI199-.Ltext0
 4774 00f8 7E090000 		.4byte	.LCFI200-.Ltext0
 4775 00fc 0200     		.2byte	0x2
ARM GAS  G:\Users\Jaxb\AppData\Local\Temp\cc4YWfMb.s 			page 108


 4776 00fe 7D       		.byte	0x7d
 4777 00ff 04       		.sleb128 4
 4778 0100 7E090000 		.4byte	.LCFI200-.Ltext0
 4779 0104 80090000 		.4byte	.LFE62-.Ltext0
 4780 0108 0200     		.2byte	0x2
 4781 010a 7D       		.byte	0x7d
 4782 010b 00       		.sleb128 0
 4783 010c 00000000 		.4byte	0
 4784 0110 00000000 		.4byte	0
 4785              	.LLST32:
 4786 0114 30090000 		.4byte	.LFB61-.Ltext0
 4787 0118 32090000 		.4byte	.LCFI189-.Ltext0
 4788 011c 0200     		.2byte	0x2
 4789 011e 7D       		.byte	0x7d
 4790 011f 00       		.sleb128 0
 4791 0120 32090000 		.4byte	.LCFI189-.Ltext0
 4792 0124 34090000 		.4byte	.LCFI190-.Ltext0
 4793 0128 0200     		.2byte	0x2
 4794 012a 7D       		.byte	0x7d
 4795 012b 04       		.sleb128 4
 4796 012c 34090000 		.4byte	.LCFI190-.Ltext0
 4797 0130 36090000 		.4byte	.LCFI191-.Ltext0
 4798 0134 0200     		.2byte	0x2
 4799 0136 7D       		.byte	0x7d
 4800 0137 18       		.sleb128 24
 4801 0138 36090000 		.4byte	.LCFI191-.Ltext0
 4802 013c 5C090000 		.4byte	.LCFI192-.Ltext0
 4803 0140 0200     		.2byte	0x2
 4804 0142 77       		.byte	0x77
 4805 0143 18       		.sleb128 24
 4806 0144 5C090000 		.4byte	.LCFI192-.Ltext0
 4807 0148 5E090000 		.4byte	.LCFI193-.Ltext0
 4808 014c 0200     		.2byte	0x2
 4809 014e 77       		.byte	0x77
 4810 014f 04       		.sleb128 4
 4811 0150 5E090000 		.4byte	.LCFI193-.Ltext0
 4812 0154 60090000 		.4byte	.LCFI194-.Ltext0
 4813 0158 0200     		.2byte	0x2
 4814 015a 7D       		.byte	0x7d
 4815 015b 04       		.sleb128 4
 4816 015c 60090000 		.4byte	.LCFI194-.Ltext0
 4817 0160 62090000 		.4byte	.LFE61-.Ltext0
 4818 0164 0200     		.2byte	0x2
 4819 0166 7D       		.byte	0x7d
 4820 0167 00       		.sleb128 0
 4821 0168 00000000 		.4byte	0
 4822 016c 00000000 		.4byte	0
 4823              	.LLST31:
 4824 0170 F8080000 		.4byte	.LFB60-.Ltext0
 4825 0174 FA080000 		.4byte	.LCFI183-.Ltext0
 4826 0178 0200     		.2byte	0x2
 4827 017a 7D       		.byte	0x7d
 4828 017b 00       		.sleb128 0
 4829 017c FA080000 		.4byte	.LCFI183-.Ltext0
 4830 0180 FC080000 		.4byte	.LCFI184-.Ltext0
 4831 0184 0200     		.2byte	0x2
 4832 0186 7D       		.byte	0x7d
ARM GAS  G:\Users\Jaxb\AppData\Local\Temp\cc4YWfMb.s 			page 109


 4833 0187 04       		.sleb128 4
 4834 0188 FC080000 		.4byte	.LCFI184-.Ltext0
 4835 018c FE080000 		.4byte	.LCFI185-.Ltext0
 4836 0190 0200     		.2byte	0x2
 4837 0192 7D       		.byte	0x7d
 4838 0193 10       		.sleb128 16
 4839 0194 FE080000 		.4byte	.LCFI185-.Ltext0
 4840 0198 26090000 		.4byte	.LCFI186-.Ltext0
 4841 019c 0200     		.2byte	0x2
 4842 019e 77       		.byte	0x77
 4843 019f 10       		.sleb128 16
 4844 01a0 26090000 		.4byte	.LCFI186-.Ltext0
 4845 01a4 28090000 		.4byte	.LCFI187-.Ltext0
 4846 01a8 0200     		.2byte	0x2
 4847 01aa 77       		.byte	0x77
 4848 01ab 04       		.sleb128 4
 4849 01ac 28090000 		.4byte	.LCFI187-.Ltext0
 4850 01b0 2A090000 		.4byte	.LCFI188-.Ltext0
 4851 01b4 0200     		.2byte	0x2
 4852 01b6 7D       		.byte	0x7d
 4853 01b7 04       		.sleb128 4
 4854 01b8 2A090000 		.4byte	.LCFI188-.Ltext0
 4855 01bc 30090000 		.4byte	.LFE60-.Ltext0
 4856 01c0 0200     		.2byte	0x2
 4857 01c2 7D       		.byte	0x7d
 4858 01c3 00       		.sleb128 0
 4859 01c4 00000000 		.4byte	0
 4860 01c8 00000000 		.4byte	0
 4861              	.LLST30:
 4862 01cc C2080000 		.4byte	.LFB59-.Ltext0
 4863 01d0 C4080000 		.4byte	.LCFI177-.Ltext0
 4864 01d4 0200     		.2byte	0x2
 4865 01d6 7D       		.byte	0x7d
 4866 01d7 00       		.sleb128 0
 4867 01d8 C4080000 		.4byte	.LCFI177-.Ltext0
 4868 01dc C6080000 		.4byte	.LCFI178-.Ltext0
 4869 01e0 0200     		.2byte	0x2
 4870 01e2 7D       		.byte	0x7d
 4871 01e3 04       		.sleb128 4
 4872 01e4 C6080000 		.4byte	.LCFI178-.Ltext0
 4873 01e8 C8080000 		.4byte	.LCFI179-.Ltext0
 4874 01ec 0200     		.2byte	0x2
 4875 01ee 7D       		.byte	0x7d
 4876 01ef 18       		.sleb128 24
 4877 01f0 C8080000 		.4byte	.LCFI179-.Ltext0
 4878 01f4 F2080000 		.4byte	.LCFI180-.Ltext0
 4879 01f8 0200     		.2byte	0x2
 4880 01fa 77       		.byte	0x77
 4881 01fb 18       		.sleb128 24
 4882 01fc F2080000 		.4byte	.LCFI180-.Ltext0
 4883 0200 F4080000 		.4byte	.LCFI181-.Ltext0
 4884 0204 0200     		.2byte	0x2
 4885 0206 77       		.byte	0x77
 4886 0207 04       		.sleb128 4
 4887 0208 F4080000 		.4byte	.LCFI181-.Ltext0
 4888 020c F6080000 		.4byte	.LCFI182-.Ltext0
 4889 0210 0200     		.2byte	0x2
ARM GAS  G:\Users\Jaxb\AppData\Local\Temp\cc4YWfMb.s 			page 110


 4890 0212 7D       		.byte	0x7d
 4891 0213 04       		.sleb128 4
 4892 0214 F6080000 		.4byte	.LCFI182-.Ltext0
 4893 0218 F8080000 		.4byte	.LFE59-.Ltext0
 4894 021c 0200     		.2byte	0x2
 4895 021e 7D       		.byte	0x7d
 4896 021f 00       		.sleb128 0
 4897 0220 00000000 		.4byte	0
 4898 0224 00000000 		.4byte	0
 4899              	.LLST29:
 4900 0228 9C080000 		.4byte	.LFB58-.Ltext0
 4901 022c 9E080000 		.4byte	.LCFI171-.Ltext0
 4902 0230 0200     		.2byte	0x2
 4903 0232 7D       		.byte	0x7d
 4904 0233 00       		.sleb128 0
 4905 0234 9E080000 		.4byte	.LCFI171-.Ltext0
 4906 0238 A0080000 		.4byte	.LCFI172-.Ltext0
 4907 023c 0200     		.2byte	0x2
 4908 023e 7D       		.byte	0x7d
 4909 023f 04       		.sleb128 4
 4910 0240 A0080000 		.4byte	.LCFI172-.Ltext0
 4911 0244 A2080000 		.4byte	.LCFI173-.Ltext0
 4912 0248 0200     		.2byte	0x2
 4913 024a 7D       		.byte	0x7d
 4914 024b 10       		.sleb128 16
 4915 024c A2080000 		.4byte	.LCFI173-.Ltext0
 4916 0250 BC080000 		.4byte	.LCFI174-.Ltext0
 4917 0254 0200     		.2byte	0x2
 4918 0256 77       		.byte	0x77
 4919 0257 10       		.sleb128 16
 4920 0258 BC080000 		.4byte	.LCFI174-.Ltext0
 4921 025c BE080000 		.4byte	.LCFI175-.Ltext0
 4922 0260 0200     		.2byte	0x2
 4923 0262 77       		.byte	0x77
 4924 0263 04       		.sleb128 4
 4925 0264 BE080000 		.4byte	.LCFI175-.Ltext0
 4926 0268 C0080000 		.4byte	.LCFI176-.Ltext0
 4927 026c 0200     		.2byte	0x2
 4928 026e 7D       		.byte	0x7d
 4929 026f 04       		.sleb128 4
 4930 0270 C0080000 		.4byte	.LCFI176-.Ltext0
 4931 0274 C2080000 		.4byte	.LFE58-.Ltext0
 4932 0278 0200     		.2byte	0x2
 4933 027a 7D       		.byte	0x7d
 4934 027b 00       		.sleb128 0
 4935 027c 00000000 		.4byte	0
 4936 0280 00000000 		.4byte	0
 4937              	.LLST28:
 4938 0284 64080000 		.4byte	.LFB57-.Ltext0
 4939 0288 66080000 		.4byte	.LCFI165-.Ltext0
 4940 028c 0200     		.2byte	0x2
 4941 028e 7D       		.byte	0x7d
 4942 028f 00       		.sleb128 0
 4943 0290 66080000 		.4byte	.LCFI165-.Ltext0
 4944 0294 68080000 		.4byte	.LCFI166-.Ltext0
 4945 0298 0200     		.2byte	0x2
 4946 029a 7D       		.byte	0x7d
ARM GAS  G:\Users\Jaxb\AppData\Local\Temp\cc4YWfMb.s 			page 111


 4947 029b 04       		.sleb128 4
 4948 029c 68080000 		.4byte	.LCFI166-.Ltext0
 4949 02a0 6A080000 		.4byte	.LCFI167-.Ltext0
 4950 02a4 0200     		.2byte	0x2
 4951 02a6 7D       		.byte	0x7d
 4952 02a7 18       		.sleb128 24
 4953 02a8 6A080000 		.4byte	.LCFI167-.Ltext0
 4954 02ac 96080000 		.4byte	.LCFI168-.Ltext0
 4955 02b0 0200     		.2byte	0x2
 4956 02b2 77       		.byte	0x77
 4957 02b3 18       		.sleb128 24
 4958 02b4 96080000 		.4byte	.LCFI168-.Ltext0
 4959 02b8 98080000 		.4byte	.LCFI169-.Ltext0
 4960 02bc 0200     		.2byte	0x2
 4961 02be 77       		.byte	0x77
 4962 02bf 04       		.sleb128 4
 4963 02c0 98080000 		.4byte	.LCFI169-.Ltext0
 4964 02c4 9A080000 		.4byte	.LCFI170-.Ltext0
 4965 02c8 0200     		.2byte	0x2
 4966 02ca 7D       		.byte	0x7d
 4967 02cb 04       		.sleb128 4
 4968 02cc 9A080000 		.4byte	.LCFI170-.Ltext0
 4969 02d0 9C080000 		.4byte	.LFE57-.Ltext0
 4970 02d4 0200     		.2byte	0x2
 4971 02d6 7D       		.byte	0x7d
 4972 02d7 00       		.sleb128 0
 4973 02d8 00000000 		.4byte	0
 4974 02dc 00000000 		.4byte	0
 4975              	.LLST27:
 4976 02e0 36080000 		.4byte	.LFB56-.Ltext0
 4977 02e4 38080000 		.4byte	.LCFI159-.Ltext0
 4978 02e8 0200     		.2byte	0x2
 4979 02ea 7D       		.byte	0x7d
 4980 02eb 00       		.sleb128 0
 4981 02ec 38080000 		.4byte	.LCFI159-.Ltext0
 4982 02f0 3A080000 		.4byte	.LCFI160-.Ltext0
 4983 02f4 0200     		.2byte	0x2
 4984 02f6 7D       		.byte	0x7d
 4985 02f7 04       		.sleb128 4
 4986 02f8 3A080000 		.4byte	.LCFI160-.Ltext0
 4987 02fc 3C080000 		.4byte	.LCFI161-.Ltext0
 4988 0300 0200     		.2byte	0x2
 4989 0302 7D       		.byte	0x7d
 4990 0303 18       		.sleb128 24
 4991 0304 3C080000 		.4byte	.LCFI161-.Ltext0
 4992 0308 5E080000 		.4byte	.LCFI162-.Ltext0
 4993 030c 0200     		.2byte	0x2
 4994 030e 77       		.byte	0x77
 4995 030f 18       		.sleb128 24
 4996 0310 5E080000 		.4byte	.LCFI162-.Ltext0
 4997 0314 60080000 		.4byte	.LCFI163-.Ltext0
 4998 0318 0200     		.2byte	0x2
 4999 031a 77       		.byte	0x77
 5000 031b 04       		.sleb128 4
 5001 031c 60080000 		.4byte	.LCFI163-.Ltext0
 5002 0320 62080000 		.4byte	.LCFI164-.Ltext0
 5003 0324 0200     		.2byte	0x2
ARM GAS  G:\Users\Jaxb\AppData\Local\Temp\cc4YWfMb.s 			page 112


 5004 0326 7D       		.byte	0x7d
 5005 0327 04       		.sleb128 4
 5006 0328 62080000 		.4byte	.LCFI164-.Ltext0
 5007 032c 64080000 		.4byte	.LFE56-.Ltext0
 5008 0330 0200     		.2byte	0x2
 5009 0332 7D       		.byte	0x7d
 5010 0333 00       		.sleb128 0
 5011 0334 00000000 		.4byte	0
 5012 0338 00000000 		.4byte	0
 5013              	.LLST26:
 5014 033c 04080000 		.4byte	.LFB55-.Ltext0
 5015 0340 06080000 		.4byte	.LCFI153-.Ltext0
 5016 0344 0200     		.2byte	0x2
 5017 0346 7D       		.byte	0x7d
 5018 0347 00       		.sleb128 0
 5019 0348 06080000 		.4byte	.LCFI153-.Ltext0
 5020 034c 08080000 		.4byte	.LCFI154-.Ltext0
 5021 0350 0200     		.2byte	0x2
 5022 0352 7D       		.byte	0x7d
 5023 0353 04       		.sleb128 4
 5024 0354 08080000 		.4byte	.LCFI154-.Ltext0
 5025 0358 0A080000 		.4byte	.LCFI155-.Ltext0
 5026 035c 0200     		.2byte	0x2
 5027 035e 7D       		.byte	0x7d
 5028 035f 18       		.sleb128 24
 5029 0360 0A080000 		.4byte	.LCFI155-.Ltext0
 5030 0364 30080000 		.4byte	.LCFI156-.Ltext0
 5031 0368 0200     		.2byte	0x2
 5032 036a 77       		.byte	0x77
 5033 036b 18       		.sleb128 24
 5034 036c 30080000 		.4byte	.LCFI156-.Ltext0
 5035 0370 32080000 		.4byte	.LCFI157-.Ltext0
 5036 0374 0200     		.2byte	0x2
 5037 0376 77       		.byte	0x77
 5038 0377 04       		.sleb128 4
 5039 0378 32080000 		.4byte	.LCFI157-.Ltext0
 5040 037c 34080000 		.4byte	.LCFI158-.Ltext0
 5041 0380 0200     		.2byte	0x2
 5042 0382 7D       		.byte	0x7d
 5043 0383 04       		.sleb128 4
 5044 0384 34080000 		.4byte	.LCFI158-.Ltext0
 5045 0388 36080000 		.4byte	.LFE55-.Ltext0
 5046 038c 0200     		.2byte	0x2
 5047 038e 7D       		.byte	0x7d
 5048 038f 00       		.sleb128 0
 5049 0390 00000000 		.4byte	0
 5050 0394 00000000 		.4byte	0
 5051              	.LLST25:
 5052 0398 C2070000 		.4byte	.LFB54-.Ltext0
 5053 039c C4070000 		.4byte	.LCFI147-.Ltext0
 5054 03a0 0200     		.2byte	0x2
 5055 03a2 7D       		.byte	0x7d
 5056 03a3 00       		.sleb128 0
 5057 03a4 C4070000 		.4byte	.LCFI147-.Ltext0
 5058 03a8 C6070000 		.4byte	.LCFI148-.Ltext0
 5059 03ac 0200     		.2byte	0x2
 5060 03ae 7D       		.byte	0x7d
ARM GAS  G:\Users\Jaxb\AppData\Local\Temp\cc4YWfMb.s 			page 113


 5061 03af 04       		.sleb128 4
 5062 03b0 C6070000 		.4byte	.LCFI148-.Ltext0
 5063 03b4 C8070000 		.4byte	.LCFI149-.Ltext0
 5064 03b8 0200     		.2byte	0x2
 5065 03ba 7D       		.byte	0x7d
 5066 03bb 18       		.sleb128 24
 5067 03bc C8070000 		.4byte	.LCFI149-.Ltext0
 5068 03c0 FE070000 		.4byte	.LCFI150-.Ltext0
 5069 03c4 0200     		.2byte	0x2
 5070 03c6 77       		.byte	0x77
 5071 03c7 18       		.sleb128 24
 5072 03c8 FE070000 		.4byte	.LCFI150-.Ltext0
 5073 03cc 00080000 		.4byte	.LCFI151-.Ltext0
 5074 03d0 0200     		.2byte	0x2
 5075 03d2 77       		.byte	0x77
 5076 03d3 04       		.sleb128 4
 5077 03d4 00080000 		.4byte	.LCFI151-.Ltext0
 5078 03d8 02080000 		.4byte	.LCFI152-.Ltext0
 5079 03dc 0200     		.2byte	0x2
 5080 03de 7D       		.byte	0x7d
 5081 03df 04       		.sleb128 4
 5082 03e0 02080000 		.4byte	.LCFI152-.Ltext0
 5083 03e4 04080000 		.4byte	.LFE54-.Ltext0
 5084 03e8 0200     		.2byte	0x2
 5085 03ea 7D       		.byte	0x7d
 5086 03eb 00       		.sleb128 0
 5087 03ec 00000000 		.4byte	0
 5088 03f0 00000000 		.4byte	0
 5089              	.LLST24:
 5090 03f4 A2060000 		.4byte	.LFB53-.Ltext0
 5091 03f8 A4060000 		.4byte	.LCFI141-.Ltext0
 5092 03fc 0200     		.2byte	0x2
 5093 03fe 7D       		.byte	0x7d
 5094 03ff 00       		.sleb128 0
 5095 0400 A4060000 		.4byte	.LCFI141-.Ltext0
 5096 0404 A6060000 		.4byte	.LCFI142-.Ltext0
 5097 0408 0200     		.2byte	0x2
 5098 040a 7D       		.byte	0x7d
 5099 040b 04       		.sleb128 4
 5100 040c A6060000 		.4byte	.LCFI142-.Ltext0
 5101 0410 A8060000 		.4byte	.LCFI143-.Ltext0
 5102 0414 0200     		.2byte	0x2
 5103 0416 7D       		.byte	0x7d
 5104 0417 20       		.sleb128 32
 5105 0418 A8060000 		.4byte	.LCFI143-.Ltext0
 5106 041c BC070000 		.4byte	.LCFI144-.Ltext0
 5107 0420 0200     		.2byte	0x2
 5108 0422 77       		.byte	0x77
 5109 0423 20       		.sleb128 32
 5110 0424 BC070000 		.4byte	.LCFI144-.Ltext0
 5111 0428 BE070000 		.4byte	.LCFI145-.Ltext0
 5112 042c 0200     		.2byte	0x2
 5113 042e 77       		.byte	0x77
 5114 042f 04       		.sleb128 4
 5115 0430 BE070000 		.4byte	.LCFI145-.Ltext0
 5116 0434 C0070000 		.4byte	.LCFI146-.Ltext0
 5117 0438 0200     		.2byte	0x2
ARM GAS  G:\Users\Jaxb\AppData\Local\Temp\cc4YWfMb.s 			page 114


 5118 043a 7D       		.byte	0x7d
 5119 043b 04       		.sleb128 4
 5120 043c C0070000 		.4byte	.LCFI146-.Ltext0
 5121 0440 C2070000 		.4byte	.LFE53-.Ltext0
 5122 0444 0200     		.2byte	0x2
 5123 0446 7D       		.byte	0x7d
 5124 0447 00       		.sleb128 0
 5125 0448 00000000 		.4byte	0
 5126 044c 00000000 		.4byte	0
 5127              	.LLST23:
 5128 0450 74060000 		.4byte	.LFB52-.Ltext0
 5129 0454 76060000 		.4byte	.LCFI135-.Ltext0
 5130 0458 0200     		.2byte	0x2
 5131 045a 7D       		.byte	0x7d
 5132 045b 00       		.sleb128 0
 5133 045c 76060000 		.4byte	.LCFI135-.Ltext0
 5134 0460 78060000 		.4byte	.LCFI136-.Ltext0
 5135 0464 0200     		.2byte	0x2
 5136 0466 7D       		.byte	0x7d
 5137 0467 04       		.sleb128 4
 5138 0468 78060000 		.4byte	.LCFI136-.Ltext0
 5139 046c 7A060000 		.4byte	.LCFI137-.Ltext0
 5140 0470 0200     		.2byte	0x2
 5141 0472 7D       		.byte	0x7d
 5142 0473 18       		.sleb128 24
 5143 0474 7A060000 		.4byte	.LCFI137-.Ltext0
 5144 0478 9C060000 		.4byte	.LCFI138-.Ltext0
 5145 047c 0200     		.2byte	0x2
 5146 047e 77       		.byte	0x77
 5147 047f 18       		.sleb128 24
 5148 0480 9C060000 		.4byte	.LCFI138-.Ltext0
 5149 0484 9E060000 		.4byte	.LCFI139-.Ltext0
 5150 0488 0200     		.2byte	0x2
 5151 048a 77       		.byte	0x77
 5152 048b 04       		.sleb128 4
 5153 048c 9E060000 		.4byte	.LCFI139-.Ltext0
 5154 0490 A0060000 		.4byte	.LCFI140-.Ltext0
 5155 0494 0200     		.2byte	0x2
 5156 0496 7D       		.byte	0x7d
 5157 0497 04       		.sleb128 4
 5158 0498 A0060000 		.4byte	.LCFI140-.Ltext0
 5159 049c A2060000 		.4byte	.LFE52-.Ltext0
 5160 04a0 0200     		.2byte	0x2
 5161 04a2 7D       		.byte	0x7d
 5162 04a3 00       		.sleb128 0
 5163 04a4 00000000 		.4byte	0
 5164 04a8 00000000 		.4byte	0
 5165              	.LLST22:
 5166 04ac 3E060000 		.4byte	.LFB51-.Ltext0
 5167 04b0 40060000 		.4byte	.LCFI129-.Ltext0
 5168 04b4 0200     		.2byte	0x2
 5169 04b6 7D       		.byte	0x7d
 5170 04b7 00       		.sleb128 0
 5171 04b8 40060000 		.4byte	.LCFI129-.Ltext0
 5172 04bc 42060000 		.4byte	.LCFI130-.Ltext0
 5173 04c0 0200     		.2byte	0x2
 5174 04c2 7D       		.byte	0x7d
ARM GAS  G:\Users\Jaxb\AppData\Local\Temp\cc4YWfMb.s 			page 115


 5175 04c3 04       		.sleb128 4
 5176 04c4 42060000 		.4byte	.LCFI130-.Ltext0
 5177 04c8 44060000 		.4byte	.LCFI131-.Ltext0
 5178 04cc 0200     		.2byte	0x2
 5179 04ce 7D       		.byte	0x7d
 5180 04cf 10       		.sleb128 16
 5181 04d0 44060000 		.4byte	.LCFI131-.Ltext0
 5182 04d4 6E060000 		.4byte	.LCFI132-.Ltext0
 5183 04d8 0200     		.2byte	0x2
 5184 04da 77       		.byte	0x77
 5185 04db 10       		.sleb128 16
 5186 04dc 6E060000 		.4byte	.LCFI132-.Ltext0
 5187 04e0 70060000 		.4byte	.LCFI133-.Ltext0
 5188 04e4 0200     		.2byte	0x2
 5189 04e6 77       		.byte	0x77
 5190 04e7 04       		.sleb128 4
 5191 04e8 70060000 		.4byte	.LCFI133-.Ltext0
 5192 04ec 72060000 		.4byte	.LCFI134-.Ltext0
 5193 04f0 0200     		.2byte	0x2
 5194 04f2 7D       		.byte	0x7d
 5195 04f3 04       		.sleb128 4
 5196 04f4 72060000 		.4byte	.LCFI134-.Ltext0
 5197 04f8 74060000 		.4byte	.LFE51-.Ltext0
 5198 04fc 0200     		.2byte	0x2
 5199 04fe 7D       		.byte	0x7d
 5200 04ff 00       		.sleb128 0
 5201 0500 00000000 		.4byte	0
 5202 0504 00000000 		.4byte	0
 5203              	.LLST21:
 5204 0508 08060000 		.4byte	.LFB50-.Ltext0
 5205 050c 0A060000 		.4byte	.LCFI123-.Ltext0
 5206 0510 0200     		.2byte	0x2
 5207 0512 7D       		.byte	0x7d
 5208 0513 00       		.sleb128 0
 5209 0514 0A060000 		.4byte	.LCFI123-.Ltext0
 5210 0518 0C060000 		.4byte	.LCFI124-.Ltext0
 5211 051c 0200     		.2byte	0x2
 5212 051e 7D       		.byte	0x7d
 5213 051f 04       		.sleb128 4
 5214 0520 0C060000 		.4byte	.LCFI124-.Ltext0
 5215 0524 0E060000 		.4byte	.LCFI125-.Ltext0
 5216 0528 0200     		.2byte	0x2
 5217 052a 7D       		.byte	0x7d
 5218 052b 10       		.sleb128 16
 5219 052c 0E060000 		.4byte	.LCFI125-.Ltext0
 5220 0530 38060000 		.4byte	.LCFI126-.Ltext0
 5221 0534 0200     		.2byte	0x2
 5222 0536 77       		.byte	0x77
 5223 0537 10       		.sleb128 16
 5224 0538 38060000 		.4byte	.LCFI126-.Ltext0
 5225 053c 3A060000 		.4byte	.LCFI127-.Ltext0
 5226 0540 0200     		.2byte	0x2
 5227 0542 77       		.byte	0x77
 5228 0543 04       		.sleb128 4
 5229 0544 3A060000 		.4byte	.LCFI127-.Ltext0
 5230 0548 3C060000 		.4byte	.LCFI128-.Ltext0
 5231 054c 0200     		.2byte	0x2
ARM GAS  G:\Users\Jaxb\AppData\Local\Temp\cc4YWfMb.s 			page 116


 5232 054e 7D       		.byte	0x7d
 5233 054f 04       		.sleb128 4
 5234 0550 3C060000 		.4byte	.LCFI128-.Ltext0
 5235 0554 3E060000 		.4byte	.LFE50-.Ltext0
 5236 0558 0200     		.2byte	0x2
 5237 055a 7D       		.byte	0x7d
 5238 055b 00       		.sleb128 0
 5239 055c 00000000 		.4byte	0
 5240 0560 00000000 		.4byte	0
 5241              	.LLST20:
 5242 0564 D4050000 		.4byte	.LFB49-.Ltext0
 5243 0568 D6050000 		.4byte	.LCFI117-.Ltext0
 5244 056c 0200     		.2byte	0x2
 5245 056e 7D       		.byte	0x7d
 5246 056f 00       		.sleb128 0
 5247 0570 D6050000 		.4byte	.LCFI117-.Ltext0
 5248 0574 D8050000 		.4byte	.LCFI118-.Ltext0
 5249 0578 0200     		.2byte	0x2
 5250 057a 7D       		.byte	0x7d
 5251 057b 04       		.sleb128 4
 5252 057c D8050000 		.4byte	.LCFI118-.Ltext0
 5253 0580 DA050000 		.4byte	.LCFI119-.Ltext0
 5254 0584 0200     		.2byte	0x2
 5255 0586 7D       		.byte	0x7d
 5256 0587 18       		.sleb128 24
 5257 0588 DA050000 		.4byte	.LCFI119-.Ltext0
 5258 058c 02060000 		.4byte	.LCFI120-.Ltext0
 5259 0590 0200     		.2byte	0x2
 5260 0592 77       		.byte	0x77
 5261 0593 18       		.sleb128 24
 5262 0594 02060000 		.4byte	.LCFI120-.Ltext0
 5263 0598 04060000 		.4byte	.LCFI121-.Ltext0
 5264 059c 0200     		.2byte	0x2
 5265 059e 77       		.byte	0x77
 5266 059f 04       		.sleb128 4
 5267 05a0 04060000 		.4byte	.LCFI121-.Ltext0
 5268 05a4 06060000 		.4byte	.LCFI122-.Ltext0
 5269 05a8 0200     		.2byte	0x2
 5270 05aa 7D       		.byte	0x7d
 5271 05ab 04       		.sleb128 4
 5272 05ac 06060000 		.4byte	.LCFI122-.Ltext0
 5273 05b0 08060000 		.4byte	.LFE49-.Ltext0
 5274 05b4 0200     		.2byte	0x2
 5275 05b6 7D       		.byte	0x7d
 5276 05b7 00       		.sleb128 0
 5277 05b8 00000000 		.4byte	0
 5278 05bc 00000000 		.4byte	0
 5279              	.LLST19:
 5280 05c0 9E050000 		.4byte	.LFB48-.Ltext0
 5281 05c4 A0050000 		.4byte	.LCFI111-.Ltext0
 5282 05c8 0200     		.2byte	0x2
 5283 05ca 7D       		.byte	0x7d
 5284 05cb 00       		.sleb128 0
 5285 05cc A0050000 		.4byte	.LCFI111-.Ltext0
 5286 05d0 A2050000 		.4byte	.LCFI112-.Ltext0
 5287 05d4 0200     		.2byte	0x2
 5288 05d6 7D       		.byte	0x7d
ARM GAS  G:\Users\Jaxb\AppData\Local\Temp\cc4YWfMb.s 			page 117


 5289 05d7 04       		.sleb128 4
 5290 05d8 A2050000 		.4byte	.LCFI112-.Ltext0
 5291 05dc A4050000 		.4byte	.LCFI113-.Ltext0
 5292 05e0 0200     		.2byte	0x2
 5293 05e2 7D       		.byte	0x7d
 5294 05e3 10       		.sleb128 16
 5295 05e4 A4050000 		.4byte	.LCFI113-.Ltext0
 5296 05e8 CE050000 		.4byte	.LCFI114-.Ltext0
 5297 05ec 0200     		.2byte	0x2
 5298 05ee 77       		.byte	0x77
 5299 05ef 10       		.sleb128 16
 5300 05f0 CE050000 		.4byte	.LCFI114-.Ltext0
 5301 05f4 D0050000 		.4byte	.LCFI115-.Ltext0
 5302 05f8 0200     		.2byte	0x2
 5303 05fa 77       		.byte	0x77
 5304 05fb 04       		.sleb128 4
 5305 05fc D0050000 		.4byte	.LCFI115-.Ltext0
 5306 0600 D2050000 		.4byte	.LCFI116-.Ltext0
 5307 0604 0200     		.2byte	0x2
 5308 0606 7D       		.byte	0x7d
 5309 0607 04       		.sleb128 4
 5310 0608 D2050000 		.4byte	.LCFI116-.Ltext0
 5311 060c D4050000 		.4byte	.LFE48-.Ltext0
 5312 0610 0200     		.2byte	0x2
 5313 0612 7D       		.byte	0x7d
 5314 0613 00       		.sleb128 0
 5315 0614 00000000 		.4byte	0
 5316 0618 00000000 		.4byte	0
 5317              	.LLST18:
 5318 061c 68050000 		.4byte	.LFB47-.Ltext0
 5319 0620 6A050000 		.4byte	.LCFI105-.Ltext0
 5320 0624 0200     		.2byte	0x2
 5321 0626 7D       		.byte	0x7d
 5322 0627 00       		.sleb128 0
 5323 0628 6A050000 		.4byte	.LCFI105-.Ltext0
 5324 062c 6C050000 		.4byte	.LCFI106-.Ltext0
 5325 0630 0200     		.2byte	0x2
 5326 0632 7D       		.byte	0x7d
 5327 0633 04       		.sleb128 4
 5328 0634 6C050000 		.4byte	.LCFI106-.Ltext0
 5329 0638 6E050000 		.4byte	.LCFI107-.Ltext0
 5330 063c 0200     		.2byte	0x2
 5331 063e 7D       		.byte	0x7d
 5332 063f 10       		.sleb128 16
 5333 0640 6E050000 		.4byte	.LCFI107-.Ltext0
 5334 0644 98050000 		.4byte	.LCFI108-.Ltext0
 5335 0648 0200     		.2byte	0x2
 5336 064a 77       		.byte	0x77
 5337 064b 10       		.sleb128 16
 5338 064c 98050000 		.4byte	.LCFI108-.Ltext0
 5339 0650 9A050000 		.4byte	.LCFI109-.Ltext0
 5340 0654 0200     		.2byte	0x2
 5341 0656 77       		.byte	0x77
 5342 0657 04       		.sleb128 4
 5343 0658 9A050000 		.4byte	.LCFI109-.Ltext0
 5344 065c 9C050000 		.4byte	.LCFI110-.Ltext0
 5345 0660 0200     		.2byte	0x2
ARM GAS  G:\Users\Jaxb\AppData\Local\Temp\cc4YWfMb.s 			page 118


 5346 0662 7D       		.byte	0x7d
 5347 0663 04       		.sleb128 4
 5348 0664 9C050000 		.4byte	.LCFI110-.Ltext0
 5349 0668 9E050000 		.4byte	.LFE47-.Ltext0
 5350 066c 0200     		.2byte	0x2
 5351 066e 7D       		.byte	0x7d
 5352 066f 00       		.sleb128 0
 5353 0670 00000000 		.4byte	0
 5354 0674 00000000 		.4byte	0
 5355              	.LLST17:
 5356 0678 52050000 		.4byte	.LFB46-.Ltext0
 5357 067c 54050000 		.4byte	.LCFI101-.Ltext0
 5358 0680 0200     		.2byte	0x2
 5359 0682 7D       		.byte	0x7d
 5360 0683 00       		.sleb128 0
 5361 0684 54050000 		.4byte	.LCFI101-.Ltext0
 5362 0688 56050000 		.4byte	.LCFI102-.Ltext0
 5363 068c 0200     		.2byte	0x2
 5364 068e 7D       		.byte	0x7d
 5365 068f 04       		.sleb128 4
 5366 0690 56050000 		.4byte	.LCFI102-.Ltext0
 5367 0694 5E050000 		.4byte	.LCFI103-.Ltext0
 5368 0698 0200     		.2byte	0x2
 5369 069a 77       		.byte	0x77
 5370 069b 04       		.sleb128 4
 5371 069c 5E050000 		.4byte	.LCFI103-.Ltext0
 5372 06a0 60050000 		.4byte	.LCFI104-.Ltext0
 5373 06a4 0200     		.2byte	0x2
 5374 06a6 7D       		.byte	0x7d
 5375 06a7 04       		.sleb128 4
 5376 06a8 60050000 		.4byte	.LCFI104-.Ltext0
 5377 06ac 68050000 		.4byte	.LFE46-.Ltext0
 5378 06b0 0200     		.2byte	0x2
 5379 06b2 7D       		.byte	0x7d
 5380 06b3 00       		.sleb128 0
 5381 06b4 00000000 		.4byte	0
 5382 06b8 00000000 		.4byte	0
 5383              	.LLST16:
 5384 06bc 3A050000 		.4byte	.LFB45-.Ltext0
 5385 06c0 3C050000 		.4byte	.LCFI95-.Ltext0
 5386 06c4 0200     		.2byte	0x2
 5387 06c6 7D       		.byte	0x7d
 5388 06c7 00       		.sleb128 0
 5389 06c8 3C050000 		.4byte	.LCFI95-.Ltext0
 5390 06cc 3E050000 		.4byte	.LCFI96-.Ltext0
 5391 06d0 0200     		.2byte	0x2
 5392 06d2 7D       		.byte	0x7d
 5393 06d3 04       		.sleb128 4
 5394 06d4 3E050000 		.4byte	.LCFI96-.Ltext0
 5395 06d8 40050000 		.4byte	.LCFI97-.Ltext0
 5396 06dc 0200     		.2byte	0x2
 5397 06de 7D       		.byte	0x7d
 5398 06df 10       		.sleb128 16
 5399 06e0 40050000 		.4byte	.LCFI97-.Ltext0
 5400 06e4 4C050000 		.4byte	.LCFI98-.Ltext0
 5401 06e8 0200     		.2byte	0x2
 5402 06ea 77       		.byte	0x77
ARM GAS  G:\Users\Jaxb\AppData\Local\Temp\cc4YWfMb.s 			page 119


 5403 06eb 10       		.sleb128 16
 5404 06ec 4C050000 		.4byte	.LCFI98-.Ltext0
 5405 06f0 4E050000 		.4byte	.LCFI99-.Ltext0
 5406 06f4 0200     		.2byte	0x2
 5407 06f6 77       		.byte	0x77
 5408 06f7 04       		.sleb128 4
 5409 06f8 4E050000 		.4byte	.LCFI99-.Ltext0
 5410 06fc 50050000 		.4byte	.LCFI100-.Ltext0
 5411 0700 0200     		.2byte	0x2
 5412 0702 7D       		.byte	0x7d
 5413 0703 04       		.sleb128 4
 5414 0704 50050000 		.4byte	.LCFI100-.Ltext0
 5415 0708 52050000 		.4byte	.LFE45-.Ltext0
 5416 070c 0200     		.2byte	0x2
 5417 070e 7D       		.byte	0x7d
 5418 070f 00       		.sleb128 0
 5419 0710 00000000 		.4byte	0
 5420 0714 00000000 		.4byte	0
 5421              	.LLST15:
 5422 0718 04050000 		.4byte	.LFB44-.Ltext0
 5423 071c 06050000 		.4byte	.LCFI89-.Ltext0
 5424 0720 0200     		.2byte	0x2
 5425 0722 7D       		.byte	0x7d
 5426 0723 00       		.sleb128 0
 5427 0724 06050000 		.4byte	.LCFI89-.Ltext0
 5428 0728 08050000 		.4byte	.LCFI90-.Ltext0
 5429 072c 0200     		.2byte	0x2
 5430 072e 7D       		.byte	0x7d
 5431 072f 04       		.sleb128 4
 5432 0730 08050000 		.4byte	.LCFI90-.Ltext0
 5433 0734 0A050000 		.4byte	.LCFI91-.Ltext0
 5434 0738 0200     		.2byte	0x2
 5435 073a 7D       		.byte	0x7d
 5436 073b 10       		.sleb128 16
 5437 073c 0A050000 		.4byte	.LCFI91-.Ltext0
 5438 0740 34050000 		.4byte	.LCFI92-.Ltext0
 5439 0744 0200     		.2byte	0x2
 5440 0746 77       		.byte	0x77
 5441 0747 10       		.sleb128 16
 5442 0748 34050000 		.4byte	.LCFI92-.Ltext0
 5443 074c 36050000 		.4byte	.LCFI93-.Ltext0
 5444 0750 0200     		.2byte	0x2
 5445 0752 77       		.byte	0x77
 5446 0753 04       		.sleb128 4
 5447 0754 36050000 		.4byte	.LCFI93-.Ltext0
 5448 0758 38050000 		.4byte	.LCFI94-.Ltext0
 5449 075c 0200     		.2byte	0x2
 5450 075e 7D       		.byte	0x7d
 5451 075f 04       		.sleb128 4
 5452 0760 38050000 		.4byte	.LCFI94-.Ltext0
 5453 0764 3A050000 		.4byte	.LFE44-.Ltext0
 5454 0768 0200     		.2byte	0x2
 5455 076a 7D       		.byte	0x7d
 5456 076b 00       		.sleb128 0
 5457 076c 00000000 		.4byte	0
 5458 0770 00000000 		.4byte	0
 5459              	.LLST14:
ARM GAS  G:\Users\Jaxb\AppData\Local\Temp\cc4YWfMb.s 			page 120


 5460 0774 72030000 		.4byte	.LFB43-.Ltext0
 5461 0778 74030000 		.4byte	.LCFI83-.Ltext0
 5462 077c 0200     		.2byte	0x2
 5463 077e 7D       		.byte	0x7d
 5464 077f 00       		.sleb128 0
 5465 0780 74030000 		.4byte	.LCFI83-.Ltext0
 5466 0784 76030000 		.4byte	.LCFI84-.Ltext0
 5467 0788 0200     		.2byte	0x2
 5468 078a 7D       		.byte	0x7d
 5469 078b 04       		.sleb128 4
 5470 078c 76030000 		.4byte	.LCFI84-.Ltext0
 5471 0790 78030000 		.4byte	.LCFI85-.Ltext0
 5472 0794 0200     		.2byte	0x2
 5473 0796 7D       		.byte	0x7d
 5474 0797 18       		.sleb128 24
 5475 0798 78030000 		.4byte	.LCFI85-.Ltext0
 5476 079c FE040000 		.4byte	.LCFI86-.Ltext0
 5477 07a0 0200     		.2byte	0x2
 5478 07a2 77       		.byte	0x77
 5479 07a3 18       		.sleb128 24
 5480 07a4 FE040000 		.4byte	.LCFI86-.Ltext0
 5481 07a8 00050000 		.4byte	.LCFI87-.Ltext0
 5482 07ac 0200     		.2byte	0x2
 5483 07ae 77       		.byte	0x77
 5484 07af 04       		.sleb128 4
 5485 07b0 00050000 		.4byte	.LCFI87-.Ltext0
 5486 07b4 02050000 		.4byte	.LCFI88-.Ltext0
 5487 07b8 0200     		.2byte	0x2
 5488 07ba 7D       		.byte	0x7d
 5489 07bb 04       		.sleb128 4
 5490 07bc 02050000 		.4byte	.LCFI88-.Ltext0
 5491 07c0 04050000 		.4byte	.LFE43-.Ltext0
 5492 07c4 0200     		.2byte	0x2
 5493 07c6 7D       		.byte	0x7d
 5494 07c7 00       		.sleb128 0
 5495 07c8 00000000 		.4byte	0
 5496 07cc 00000000 		.4byte	0
 5497              	.LLST13:
 5498 07d0 3C030000 		.4byte	.LFB42-.Ltext0
 5499 07d4 3E030000 		.4byte	.LCFI77-.Ltext0
 5500 07d8 0200     		.2byte	0x2
 5501 07da 7D       		.byte	0x7d
 5502 07db 00       		.sleb128 0
 5503 07dc 3E030000 		.4byte	.LCFI77-.Ltext0
 5504 07e0 40030000 		.4byte	.LCFI78-.Ltext0
 5505 07e4 0200     		.2byte	0x2
 5506 07e6 7D       		.byte	0x7d
 5507 07e7 04       		.sleb128 4
 5508 07e8 40030000 		.4byte	.LCFI78-.Ltext0
 5509 07ec 42030000 		.4byte	.LCFI79-.Ltext0
 5510 07f0 0200     		.2byte	0x2
 5511 07f2 7D       		.byte	0x7d
 5512 07f3 10       		.sleb128 16
 5513 07f4 42030000 		.4byte	.LCFI79-.Ltext0
 5514 07f8 6C030000 		.4byte	.LCFI80-.Ltext0
 5515 07fc 0200     		.2byte	0x2
 5516 07fe 77       		.byte	0x77
ARM GAS  G:\Users\Jaxb\AppData\Local\Temp\cc4YWfMb.s 			page 121


 5517 07ff 10       		.sleb128 16
 5518 0800 6C030000 		.4byte	.LCFI80-.Ltext0
 5519 0804 6E030000 		.4byte	.LCFI81-.Ltext0
 5520 0808 0200     		.2byte	0x2
 5521 080a 77       		.byte	0x77
 5522 080b 04       		.sleb128 4
 5523 080c 6E030000 		.4byte	.LCFI81-.Ltext0
 5524 0810 70030000 		.4byte	.LCFI82-.Ltext0
 5525 0814 0200     		.2byte	0x2
 5526 0816 7D       		.byte	0x7d
 5527 0817 04       		.sleb128 4
 5528 0818 70030000 		.4byte	.LCFI82-.Ltext0
 5529 081c 72030000 		.4byte	.LFE42-.Ltext0
 5530 0820 0200     		.2byte	0x2
 5531 0822 7D       		.byte	0x7d
 5532 0823 00       		.sleb128 0
 5533 0824 00000000 		.4byte	0
 5534 0828 00000000 		.4byte	0
 5535              	.LLST12:
 5536 082c FA020000 		.4byte	.LFB41-.Ltext0
 5537 0830 FC020000 		.4byte	.LCFI71-.Ltext0
 5538 0834 0200     		.2byte	0x2
 5539 0836 7D       		.byte	0x7d
 5540 0837 00       		.sleb128 0
 5541 0838 FC020000 		.4byte	.LCFI71-.Ltext0
 5542 083c FE020000 		.4byte	.LCFI72-.Ltext0
 5543 0840 0200     		.2byte	0x2
 5544 0842 7D       		.byte	0x7d
 5545 0843 04       		.sleb128 4
 5546 0844 FE020000 		.4byte	.LCFI72-.Ltext0
 5547 0848 00030000 		.4byte	.LCFI73-.Ltext0
 5548 084c 0200     		.2byte	0x2
 5549 084e 7D       		.byte	0x7d
 5550 084f 18       		.sleb128 24
 5551 0850 00030000 		.4byte	.LCFI73-.Ltext0
 5552 0854 36030000 		.4byte	.LCFI74-.Ltext0
 5553 0858 0200     		.2byte	0x2
 5554 085a 77       		.byte	0x77
 5555 085b 18       		.sleb128 24
 5556 085c 36030000 		.4byte	.LCFI74-.Ltext0
 5557 0860 38030000 		.4byte	.LCFI75-.Ltext0
 5558 0864 0200     		.2byte	0x2
 5559 0866 77       		.byte	0x77
 5560 0867 04       		.sleb128 4
 5561 0868 38030000 		.4byte	.LCFI75-.Ltext0
 5562 086c 3A030000 		.4byte	.LCFI76-.Ltext0
 5563 0870 0200     		.2byte	0x2
 5564 0872 7D       		.byte	0x7d
 5565 0873 04       		.sleb128 4
 5566 0874 3A030000 		.4byte	.LCFI76-.Ltext0
 5567 0878 3C030000 		.4byte	.LFE41-.Ltext0
 5568 087c 0200     		.2byte	0x2
 5569 087e 7D       		.byte	0x7d
 5570 087f 00       		.sleb128 0
 5571 0880 00000000 		.4byte	0
 5572 0884 00000000 		.4byte	0
 5573              	.LLST11:
ARM GAS  G:\Users\Jaxb\AppData\Local\Temp\cc4YWfMb.s 			page 122


 5574 0888 CC020000 		.4byte	.LFB40-.Ltext0
 5575 088c CE020000 		.4byte	.LCFI65-.Ltext0
 5576 0890 0200     		.2byte	0x2
 5577 0892 7D       		.byte	0x7d
 5578 0893 00       		.sleb128 0
 5579 0894 CE020000 		.4byte	.LCFI65-.Ltext0
 5580 0898 D0020000 		.4byte	.LCFI66-.Ltext0
 5581 089c 0200     		.2byte	0x2
 5582 089e 7D       		.byte	0x7d
 5583 089f 04       		.sleb128 4
 5584 08a0 D0020000 		.4byte	.LCFI66-.Ltext0
 5585 08a4 D2020000 		.4byte	.LCFI67-.Ltext0
 5586 08a8 0200     		.2byte	0x2
 5587 08aa 7D       		.byte	0x7d
 5588 08ab 18       		.sleb128 24
 5589 08ac D2020000 		.4byte	.LCFI67-.Ltext0
 5590 08b0 F4020000 		.4byte	.LCFI68-.Ltext0
 5591 08b4 0200     		.2byte	0x2
 5592 08b6 77       		.byte	0x77
 5593 08b7 18       		.sleb128 24
 5594 08b8 F4020000 		.4byte	.LCFI68-.Ltext0
 5595 08bc F6020000 		.4byte	.LCFI69-.Ltext0
 5596 08c0 0200     		.2byte	0x2
 5597 08c2 77       		.byte	0x77
 5598 08c3 04       		.sleb128 4
 5599 08c4 F6020000 		.4byte	.LCFI69-.Ltext0
 5600 08c8 F8020000 		.4byte	.LCFI70-.Ltext0
 5601 08cc 0200     		.2byte	0x2
 5602 08ce 7D       		.byte	0x7d
 5603 08cf 04       		.sleb128 4
 5604 08d0 F8020000 		.4byte	.LCFI70-.Ltext0
 5605 08d4 FA020000 		.4byte	.LFE40-.Ltext0
 5606 08d8 0200     		.2byte	0x2
 5607 08da 7D       		.byte	0x7d
 5608 08db 00       		.sleb128 0
 5609 08dc 00000000 		.4byte	0
 5610 08e0 00000000 		.4byte	0
 5611              	.LLST10:
 5612 08e4 96020000 		.4byte	.LFB39-.Ltext0
 5613 08e8 98020000 		.4byte	.LCFI59-.Ltext0
 5614 08ec 0200     		.2byte	0x2
 5615 08ee 7D       		.byte	0x7d
 5616 08ef 00       		.sleb128 0
 5617 08f0 98020000 		.4byte	.LCFI59-.Ltext0
 5618 08f4 9A020000 		.4byte	.LCFI60-.Ltext0
 5619 08f8 0200     		.2byte	0x2
 5620 08fa 7D       		.byte	0x7d
 5621 08fb 04       		.sleb128 4
 5622 08fc 9A020000 		.4byte	.LCFI60-.Ltext0
 5623 0900 9C020000 		.4byte	.LCFI61-.Ltext0
 5624 0904 0200     		.2byte	0x2
 5625 0906 7D       		.byte	0x7d
 5626 0907 10       		.sleb128 16
 5627 0908 9C020000 		.4byte	.LCFI61-.Ltext0
 5628 090c C6020000 		.4byte	.LCFI62-.Ltext0
 5629 0910 0200     		.2byte	0x2
 5630 0912 77       		.byte	0x77
ARM GAS  G:\Users\Jaxb\AppData\Local\Temp\cc4YWfMb.s 			page 123


 5631 0913 10       		.sleb128 16
 5632 0914 C6020000 		.4byte	.LCFI62-.Ltext0
 5633 0918 C8020000 		.4byte	.LCFI63-.Ltext0
 5634 091c 0200     		.2byte	0x2
 5635 091e 77       		.byte	0x77
 5636 091f 04       		.sleb128 4
 5637 0920 C8020000 		.4byte	.LCFI63-.Ltext0
 5638 0924 CA020000 		.4byte	.LCFI64-.Ltext0
 5639 0928 0200     		.2byte	0x2
 5640 092a 7D       		.byte	0x7d
 5641 092b 04       		.sleb128 4
 5642 092c CA020000 		.4byte	.LCFI64-.Ltext0
 5643 0930 CC020000 		.4byte	.LFE39-.Ltext0
 5644 0934 0200     		.2byte	0x2
 5645 0936 7D       		.byte	0x7d
 5646 0937 00       		.sleb128 0
 5647 0938 00000000 		.4byte	0
 5648 093c 00000000 		.4byte	0
 5649              	.LLST9:
 5650 0940 68020000 		.4byte	.LFB38-.Ltext0
 5651 0944 6A020000 		.4byte	.LCFI53-.Ltext0
 5652 0948 0200     		.2byte	0x2
 5653 094a 7D       		.byte	0x7d
 5654 094b 00       		.sleb128 0
 5655 094c 6A020000 		.4byte	.LCFI53-.Ltext0
 5656 0950 6C020000 		.4byte	.LCFI54-.Ltext0
 5657 0954 0200     		.2byte	0x2
 5658 0956 7D       		.byte	0x7d
 5659 0957 04       		.sleb128 4
 5660 0958 6C020000 		.4byte	.LCFI54-.Ltext0
 5661 095c 6E020000 		.4byte	.LCFI55-.Ltext0
 5662 0960 0200     		.2byte	0x2
 5663 0962 7D       		.byte	0x7d
 5664 0963 18       		.sleb128 24
 5665 0964 6E020000 		.4byte	.LCFI55-.Ltext0
 5666 0968 90020000 		.4byte	.LCFI56-.Ltext0
 5667 096c 0200     		.2byte	0x2
 5668 096e 77       		.byte	0x77
 5669 096f 18       		.sleb128 24
 5670 0970 90020000 		.4byte	.LCFI56-.Ltext0
 5671 0974 92020000 		.4byte	.LCFI57-.Ltext0
 5672 0978 0200     		.2byte	0x2
 5673 097a 77       		.byte	0x77
 5674 097b 04       		.sleb128 4
 5675 097c 92020000 		.4byte	.LCFI57-.Ltext0
 5676 0980 94020000 		.4byte	.LCFI58-.Ltext0
 5677 0984 0200     		.2byte	0x2
 5678 0986 7D       		.byte	0x7d
 5679 0987 04       		.sleb128 4
 5680 0988 94020000 		.4byte	.LCFI58-.Ltext0
 5681 098c 96020000 		.4byte	.LFE38-.Ltext0
 5682 0990 0200     		.2byte	0x2
 5683 0992 7D       		.byte	0x7d
 5684 0993 00       		.sleb128 0
 5685 0994 00000000 		.4byte	0
 5686 0998 00000000 		.4byte	0
 5687              	.LLST8:
ARM GAS  G:\Users\Jaxb\AppData\Local\Temp\cc4YWfMb.s 			page 124


 5688 099c 4A020000 		.4byte	.LFB37-.Ltext0
 5689 09a0 4C020000 		.4byte	.LCFI47-.Ltext0
 5690 09a4 0200     		.2byte	0x2
 5691 09a6 7D       		.byte	0x7d
 5692 09a7 00       		.sleb128 0
 5693 09a8 4C020000 		.4byte	.LCFI47-.Ltext0
 5694 09ac 4E020000 		.4byte	.LCFI48-.Ltext0
 5695 09b0 0200     		.2byte	0x2
 5696 09b2 7D       		.byte	0x7d
 5697 09b3 04       		.sleb128 4
 5698 09b4 4E020000 		.4byte	.LCFI48-.Ltext0
 5699 09b8 50020000 		.4byte	.LCFI49-.Ltext0
 5700 09bc 0200     		.2byte	0x2
 5701 09be 7D       		.byte	0x7d
 5702 09bf 10       		.sleb128 16
 5703 09c0 50020000 		.4byte	.LCFI49-.Ltext0
 5704 09c4 62020000 		.4byte	.LCFI50-.Ltext0
 5705 09c8 0200     		.2byte	0x2
 5706 09ca 77       		.byte	0x77
 5707 09cb 10       		.sleb128 16
 5708 09cc 62020000 		.4byte	.LCFI50-.Ltext0
 5709 09d0 64020000 		.4byte	.LCFI51-.Ltext0
 5710 09d4 0200     		.2byte	0x2
 5711 09d6 77       		.byte	0x77
 5712 09d7 04       		.sleb128 4
 5713 09d8 64020000 		.4byte	.LCFI51-.Ltext0
 5714 09dc 66020000 		.4byte	.LCFI52-.Ltext0
 5715 09e0 0200     		.2byte	0x2
 5716 09e2 7D       		.byte	0x7d
 5717 09e3 04       		.sleb128 4
 5718 09e4 66020000 		.4byte	.LCFI52-.Ltext0
 5719 09e8 68020000 		.4byte	.LFE37-.Ltext0
 5720 09ec 0200     		.2byte	0x2
 5721 09ee 7D       		.byte	0x7d
 5722 09ef 00       		.sleb128 0
 5723 09f0 00000000 		.4byte	0
 5724 09f4 00000000 		.4byte	0
 5725              	.LLST7:
 5726 09f8 1C020000 		.4byte	.LFB36-.Ltext0
 5727 09fc 1E020000 		.4byte	.LCFI41-.Ltext0
 5728 0a00 0200     		.2byte	0x2
 5729 0a02 7D       		.byte	0x7d
 5730 0a03 00       		.sleb128 0
 5731 0a04 1E020000 		.4byte	.LCFI41-.Ltext0
 5732 0a08 20020000 		.4byte	.LCFI42-.Ltext0
 5733 0a0c 0200     		.2byte	0x2
 5734 0a0e 7D       		.byte	0x7d
 5735 0a0f 04       		.sleb128 4
 5736 0a10 20020000 		.4byte	.LCFI42-.Ltext0
 5737 0a14 22020000 		.4byte	.LCFI43-.Ltext0
 5738 0a18 0200     		.2byte	0x2
 5739 0a1a 7D       		.byte	0x7d
 5740 0a1b 18       		.sleb128 24
 5741 0a1c 22020000 		.4byte	.LCFI43-.Ltext0
 5742 0a20 44020000 		.4byte	.LCFI44-.Ltext0
 5743 0a24 0200     		.2byte	0x2
 5744 0a26 77       		.byte	0x77
ARM GAS  G:\Users\Jaxb\AppData\Local\Temp\cc4YWfMb.s 			page 125


 5745 0a27 18       		.sleb128 24
 5746 0a28 44020000 		.4byte	.LCFI44-.Ltext0
 5747 0a2c 46020000 		.4byte	.LCFI45-.Ltext0
 5748 0a30 0200     		.2byte	0x2
 5749 0a32 77       		.byte	0x77
 5750 0a33 04       		.sleb128 4
 5751 0a34 46020000 		.4byte	.LCFI45-.Ltext0
 5752 0a38 48020000 		.4byte	.LCFI46-.Ltext0
 5753 0a3c 0200     		.2byte	0x2
 5754 0a3e 7D       		.byte	0x7d
 5755 0a3f 04       		.sleb128 4
 5756 0a40 48020000 		.4byte	.LCFI46-.Ltext0
 5757 0a44 4A020000 		.4byte	.LFE36-.Ltext0
 5758 0a48 0200     		.2byte	0x2
 5759 0a4a 7D       		.byte	0x7d
 5760 0a4b 00       		.sleb128 0
 5761 0a4c 00000000 		.4byte	0
 5762 0a50 00000000 		.4byte	0
 5763              	.LLST6:
 5764 0a54 FE010000 		.4byte	.LFB35-.Ltext0
 5765 0a58 00020000 		.4byte	.LCFI35-.Ltext0
 5766 0a5c 0200     		.2byte	0x2
 5767 0a5e 7D       		.byte	0x7d
 5768 0a5f 00       		.sleb128 0
 5769 0a60 00020000 		.4byte	.LCFI35-.Ltext0
 5770 0a64 02020000 		.4byte	.LCFI36-.Ltext0
 5771 0a68 0200     		.2byte	0x2
 5772 0a6a 7D       		.byte	0x7d
 5773 0a6b 04       		.sleb128 4
 5774 0a6c 02020000 		.4byte	.LCFI36-.Ltext0
 5775 0a70 04020000 		.4byte	.LCFI37-.Ltext0
 5776 0a74 0200     		.2byte	0x2
 5777 0a76 7D       		.byte	0x7d
 5778 0a77 10       		.sleb128 16
 5779 0a78 04020000 		.4byte	.LCFI37-.Ltext0
 5780 0a7c 16020000 		.4byte	.LCFI38-.Ltext0
 5781 0a80 0200     		.2byte	0x2
 5782 0a82 77       		.byte	0x77
 5783 0a83 10       		.sleb128 16
 5784 0a84 16020000 		.4byte	.LCFI38-.Ltext0
 5785 0a88 18020000 		.4byte	.LCFI39-.Ltext0
 5786 0a8c 0200     		.2byte	0x2
 5787 0a8e 77       		.byte	0x77
 5788 0a8f 04       		.sleb128 4
 5789 0a90 18020000 		.4byte	.LCFI39-.Ltext0
 5790 0a94 1A020000 		.4byte	.LCFI40-.Ltext0
 5791 0a98 0200     		.2byte	0x2
 5792 0a9a 7D       		.byte	0x7d
 5793 0a9b 04       		.sleb128 4
 5794 0a9c 1A020000 		.4byte	.LCFI40-.Ltext0
 5795 0aa0 1C020000 		.4byte	.LFE35-.Ltext0
 5796 0aa4 0200     		.2byte	0x2
 5797 0aa6 7D       		.byte	0x7d
 5798 0aa7 00       		.sleb128 0
 5799 0aa8 00000000 		.4byte	0
 5800 0aac 00000000 		.4byte	0
 5801              	.LLST5:
ARM GAS  G:\Users\Jaxb\AppData\Local\Temp\cc4YWfMb.s 			page 126


 5802 0ab0 BA010000 		.4byte	.LFB34-.Ltext0
 5803 0ab4 BC010000 		.4byte	.LCFI29-.Ltext0
 5804 0ab8 0200     		.2byte	0x2
 5805 0aba 7D       		.byte	0x7d
 5806 0abb 00       		.sleb128 0
 5807 0abc BC010000 		.4byte	.LCFI29-.Ltext0
 5808 0ac0 BE010000 		.4byte	.LCFI30-.Ltext0
 5809 0ac4 0200     		.2byte	0x2
 5810 0ac6 7D       		.byte	0x7d
 5811 0ac7 04       		.sleb128 4
 5812 0ac8 BE010000 		.4byte	.LCFI30-.Ltext0
 5813 0acc C0010000 		.4byte	.LCFI31-.Ltext0
 5814 0ad0 0200     		.2byte	0x2
 5815 0ad2 7D       		.byte	0x7d
 5816 0ad3 18       		.sleb128 24
 5817 0ad4 C0010000 		.4byte	.LCFI31-.Ltext0
 5818 0ad8 F8010000 		.4byte	.LCFI32-.Ltext0
 5819 0adc 0200     		.2byte	0x2
 5820 0ade 77       		.byte	0x77
 5821 0adf 18       		.sleb128 24
 5822 0ae0 F8010000 		.4byte	.LCFI32-.Ltext0
 5823 0ae4 FA010000 		.4byte	.LCFI33-.Ltext0
 5824 0ae8 0200     		.2byte	0x2
 5825 0aea 77       		.byte	0x77
 5826 0aeb 04       		.sleb128 4
 5827 0aec FA010000 		.4byte	.LCFI33-.Ltext0
 5828 0af0 FC010000 		.4byte	.LCFI34-.Ltext0
 5829 0af4 0200     		.2byte	0x2
 5830 0af6 7D       		.byte	0x7d
 5831 0af7 04       		.sleb128 4
 5832 0af8 FC010000 		.4byte	.LCFI34-.Ltext0
 5833 0afc FE010000 		.4byte	.LFE34-.Ltext0
 5834 0b00 0200     		.2byte	0x2
 5835 0b02 7D       		.byte	0x7d
 5836 0b03 00       		.sleb128 0
 5837 0b04 00000000 		.4byte	0
 5838 0b08 00000000 		.4byte	0
 5839              	.LLST4:
 5840 0b0c 84010000 		.4byte	.LFB33-.Ltext0
 5841 0b10 86010000 		.4byte	.LCFI23-.Ltext0
 5842 0b14 0200     		.2byte	0x2
 5843 0b16 7D       		.byte	0x7d
 5844 0b17 00       		.sleb128 0
 5845 0b18 86010000 		.4byte	.LCFI23-.Ltext0
 5846 0b1c 88010000 		.4byte	.LCFI24-.Ltext0
 5847 0b20 0200     		.2byte	0x2
 5848 0b22 7D       		.byte	0x7d
 5849 0b23 04       		.sleb128 4
 5850 0b24 88010000 		.4byte	.LCFI24-.Ltext0
 5851 0b28 8A010000 		.4byte	.LCFI25-.Ltext0
 5852 0b2c 0200     		.2byte	0x2
 5853 0b2e 7D       		.byte	0x7d
 5854 0b2f 10       		.sleb128 16
 5855 0b30 8A010000 		.4byte	.LCFI25-.Ltext0
 5856 0b34 B4010000 		.4byte	.LCFI26-.Ltext0
 5857 0b38 0200     		.2byte	0x2
 5858 0b3a 77       		.byte	0x77
ARM GAS  G:\Users\Jaxb\AppData\Local\Temp\cc4YWfMb.s 			page 127


 5859 0b3b 10       		.sleb128 16
 5860 0b3c B4010000 		.4byte	.LCFI26-.Ltext0
 5861 0b40 B6010000 		.4byte	.LCFI27-.Ltext0
 5862 0b44 0200     		.2byte	0x2
 5863 0b46 77       		.byte	0x77
 5864 0b47 04       		.sleb128 4
 5865 0b48 B6010000 		.4byte	.LCFI27-.Ltext0
 5866 0b4c B8010000 		.4byte	.LCFI28-.Ltext0
 5867 0b50 0200     		.2byte	0x2
 5868 0b52 7D       		.byte	0x7d
 5869 0b53 04       		.sleb128 4
 5870 0b54 B8010000 		.4byte	.LCFI28-.Ltext0
 5871 0b58 BA010000 		.4byte	.LFE33-.Ltext0
 5872 0b5c 0200     		.2byte	0x2
 5873 0b5e 7D       		.byte	0x7d
 5874 0b5f 00       		.sleb128 0
 5875 0b60 00000000 		.4byte	0
 5876 0b64 00000000 		.4byte	0
 5877              	.LLST3:
 5878 0b68 4E010000 		.4byte	.LFB32-.Ltext0
 5879 0b6c 50010000 		.4byte	.LCFI17-.Ltext0
 5880 0b70 0200     		.2byte	0x2
 5881 0b72 7D       		.byte	0x7d
 5882 0b73 00       		.sleb128 0
 5883 0b74 50010000 		.4byte	.LCFI17-.Ltext0
 5884 0b78 52010000 		.4byte	.LCFI18-.Ltext0
 5885 0b7c 0200     		.2byte	0x2
 5886 0b7e 7D       		.byte	0x7d
 5887 0b7f 04       		.sleb128 4
 5888 0b80 52010000 		.4byte	.LCFI18-.Ltext0
 5889 0b84 54010000 		.4byte	.LCFI19-.Ltext0
 5890 0b88 0200     		.2byte	0x2
 5891 0b8a 7D       		.byte	0x7d
 5892 0b8b 10       		.sleb128 16
 5893 0b8c 54010000 		.4byte	.LCFI19-.Ltext0
 5894 0b90 7E010000 		.4byte	.LCFI20-.Ltext0
 5895 0b94 0200     		.2byte	0x2
 5896 0b96 77       		.byte	0x77
 5897 0b97 10       		.sleb128 16
 5898 0b98 7E010000 		.4byte	.LCFI20-.Ltext0
 5899 0b9c 80010000 		.4byte	.LCFI21-.Ltext0
 5900 0ba0 0200     		.2byte	0x2
 5901 0ba2 77       		.byte	0x77
 5902 0ba3 04       		.sleb128 4
 5903 0ba4 80010000 		.4byte	.LCFI21-.Ltext0
 5904 0ba8 82010000 		.4byte	.LCFI22-.Ltext0
 5905 0bac 0200     		.2byte	0x2
 5906 0bae 7D       		.byte	0x7d
 5907 0baf 04       		.sleb128 4
 5908 0bb0 82010000 		.4byte	.LCFI22-.Ltext0
 5909 0bb4 84010000 		.4byte	.LFE32-.Ltext0
 5910 0bb8 0200     		.2byte	0x2
 5911 0bba 7D       		.byte	0x7d
 5912 0bbb 00       		.sleb128 0
 5913 0bbc 00000000 		.4byte	0
 5914 0bc0 00000000 		.4byte	0
 5915              	.LLST2:
ARM GAS  G:\Users\Jaxb\AppData\Local\Temp\cc4YWfMb.s 			page 128


 5916 0bc4 18010000 		.4byte	.LFB31-.Ltext0
 5917 0bc8 1A010000 		.4byte	.LCFI11-.Ltext0
 5918 0bcc 0200     		.2byte	0x2
 5919 0bce 7D       		.byte	0x7d
 5920 0bcf 00       		.sleb128 0
 5921 0bd0 1A010000 		.4byte	.LCFI11-.Ltext0
 5922 0bd4 1C010000 		.4byte	.LCFI12-.Ltext0
 5923 0bd8 0200     		.2byte	0x2
 5924 0bda 7D       		.byte	0x7d
 5925 0bdb 04       		.sleb128 4
 5926 0bdc 1C010000 		.4byte	.LCFI12-.Ltext0
 5927 0be0 1E010000 		.4byte	.LCFI13-.Ltext0
 5928 0be4 0200     		.2byte	0x2
 5929 0be6 7D       		.byte	0x7d
 5930 0be7 10       		.sleb128 16
 5931 0be8 1E010000 		.4byte	.LCFI13-.Ltext0
 5932 0bec 48010000 		.4byte	.LCFI14-.Ltext0
 5933 0bf0 0200     		.2byte	0x2
 5934 0bf2 77       		.byte	0x77
 5935 0bf3 10       		.sleb128 16
 5936 0bf4 48010000 		.4byte	.LCFI14-.Ltext0
 5937 0bf8 4A010000 		.4byte	.LCFI15-.Ltext0
 5938 0bfc 0200     		.2byte	0x2
 5939 0bfe 77       		.byte	0x77
 5940 0bff 04       		.sleb128 4
 5941 0c00 4A010000 		.4byte	.LCFI15-.Ltext0
 5942 0c04 4C010000 		.4byte	.LCFI16-.Ltext0
 5943 0c08 0200     		.2byte	0x2
 5944 0c0a 7D       		.byte	0x7d
 5945 0c0b 04       		.sleb128 4
 5946 0c0c 4C010000 		.4byte	.LCFI16-.Ltext0
 5947 0c10 4E010000 		.4byte	.LFE31-.Ltext0
 5948 0c14 0200     		.2byte	0x2
 5949 0c16 7D       		.byte	0x7d
 5950 0c17 00       		.sleb128 0
 5951 0c18 00000000 		.4byte	0
 5952 0c1c 00000000 		.4byte	0
 5953              	.LLST1:
 5954 0c20 74000000 		.4byte	.LFB30-.Ltext0
 5955 0c24 76000000 		.4byte	.LCFI5-.Ltext0
 5956 0c28 0200     		.2byte	0x2
 5957 0c2a 7D       		.byte	0x7d
 5958 0c2b 00       		.sleb128 0
 5959 0c2c 76000000 		.4byte	.LCFI5-.Ltext0
 5960 0c30 78000000 		.4byte	.LCFI6-.Ltext0
 5961 0c34 0200     		.2byte	0x2
 5962 0c36 7D       		.byte	0x7d
 5963 0c37 04       		.sleb128 4
 5964 0c38 78000000 		.4byte	.LCFI6-.Ltext0
 5965 0c3c 7A000000 		.4byte	.LCFI7-.Ltext0
 5966 0c40 0200     		.2byte	0x2
 5967 0c42 7D       		.byte	0x7d
 5968 0c43 18       		.sleb128 24
 5969 0c44 7A000000 		.4byte	.LCFI7-.Ltext0
 5970 0c48 0C010000 		.4byte	.LCFI8-.Ltext0
 5971 0c4c 0200     		.2byte	0x2
 5972 0c4e 77       		.byte	0x77
ARM GAS  G:\Users\Jaxb\AppData\Local\Temp\cc4YWfMb.s 			page 129


 5973 0c4f 18       		.sleb128 24
 5974 0c50 0C010000 		.4byte	.LCFI8-.Ltext0
 5975 0c54 0E010000 		.4byte	.LCFI9-.Ltext0
 5976 0c58 0200     		.2byte	0x2
 5977 0c5a 77       		.byte	0x77
 5978 0c5b 04       		.sleb128 4
 5979 0c5c 0E010000 		.4byte	.LCFI9-.Ltext0
 5980 0c60 10010000 		.4byte	.LCFI10-.Ltext0
 5981 0c64 0200     		.2byte	0x2
 5982 0c66 7D       		.byte	0x7d
 5983 0c67 04       		.sleb128 4
 5984 0c68 10010000 		.4byte	.LCFI10-.Ltext0
 5985 0c6c 18010000 		.4byte	.LFE30-.Ltext0
 5986 0c70 0200     		.2byte	0x2
 5987 0c72 7D       		.byte	0x7d
 5988 0c73 00       		.sleb128 0
 5989 0c74 00000000 		.4byte	0
 5990 0c78 00000000 		.4byte	0
 5991              	.LLST0:
 5992 0c7c 00000000 		.4byte	.LFB29-.Ltext0
 5993 0c80 02000000 		.4byte	.LCFI0-.Ltext0
 5994 0c84 0200     		.2byte	0x2
 5995 0c86 7D       		.byte	0x7d
 5996 0c87 00       		.sleb128 0
 5997 0c88 02000000 		.4byte	.LCFI0-.Ltext0
 5998 0c8c 04000000 		.4byte	.LCFI1-.Ltext0
 5999 0c90 0200     		.2byte	0x2
 6000 0c92 7D       		.byte	0x7d
 6001 0c93 08       		.sleb128 8
 6002 0c94 04000000 		.4byte	.LCFI1-.Ltext0
 6003 0c98 06000000 		.4byte	.LCFI2-.Ltext0
 6004 0c9c 0200     		.2byte	0x2
 6005 0c9e 7D       		.byte	0x7d
 6006 0c9f 10       		.sleb128 16
 6007 0ca0 06000000 		.4byte	.LCFI2-.Ltext0
 6008 0ca4 64000000 		.4byte	.LCFI3-.Ltext0
 6009 0ca8 0200     		.2byte	0x2
 6010 0caa 77       		.byte	0x77
 6011 0cab 10       		.sleb128 16
 6012 0cac 64000000 		.4byte	.LCFI3-.Ltext0
 6013 0cb0 66000000 		.4byte	.LCFI4-.Ltext0
 6014 0cb4 0200     		.2byte	0x2
 6015 0cb6 77       		.byte	0x77
 6016 0cb7 08       		.sleb128 8
 6017 0cb8 66000000 		.4byte	.LCFI4-.Ltext0
 6018 0cbc 74000000 		.4byte	.LFE29-.Ltext0
 6019 0cc0 0200     		.2byte	0x2
 6020 0cc2 7D       		.byte	0x7d
 6021 0cc3 08       		.sleb128 8
 6022 0cc4 00000000 		.4byte	0
 6023 0cc8 00000000 		.4byte	0
 6024              		.section	.debug_aranges,"",%progbits
 6025 0000 1C000000 		.4byte	0x1c
 6026 0004 0200     		.2byte	0x2
 6027 0006 00000000 		.4byte	.Ldebug_info0
 6028 000a 04       		.byte	0x4
 6029 000b 00       		.byte	0
ARM GAS  G:\Users\Jaxb\AppData\Local\Temp\cc4YWfMb.s 			page 130


 6030 000c 0000     		.2byte	0
 6031 000e 0000     		.2byte	0
 6032 0010 00000000 		.4byte	.Ltext0
 6033 0014 FE090000 		.4byte	.Letext0-.Ltext0
 6034 0018 00000000 		.4byte	0
 6035 001c 00000000 		.4byte	0
 6036              		.section	.debug_line,"",%progbits
 6037              	.Ldebug_line0:
 6038 0000 B1020000 		.section	.debug_str,"MS",%progbits,1
 6038      02002E01 
 6038      00000201 
 6038      FB0E0D00 
 6038      01010101 
 6039              	.LASF45:
 6040 0000 41444378 		.ascii	"ADCx\000"
 6040      00
 6041              	.LASF71:
 6042 0005 746D7072 		.ascii	"tmpreg1\000"
 6042      65673100 
 6043              	.LASF72:
 6044 000d 746D7072 		.ascii	"tmpreg2\000"
 6044      65673200 
 6045              	.LASF44:
 6046 0015 4144435F 		.ascii	"ADC_InitTypeDef\000"
 6046      496E6974 
 6046      54797065 
 6046      44656600 
 6047              	.LASF70:
 6048 0025 4C656E67 		.ascii	"Length\000"
 6048      746800
 6049              	.LASF96:
 6050 002c 4144435F 		.ascii	"ADC_ITConfig\000"
 6050      4954436F 
 6050      6E666967 
 6050      00
 6051              	.LASF77:
 6052 0039 4144435F 		.ascii	"ADC_GetSoftwareStartInjectedConvCmdStatus\000"
 6052      47657453 
 6052      6F667477 
 6052      61726553 
 6052      74617274 
 6053              	.LASF34:
 6054 0063 4A445232 		.ascii	"JDR2\000"
 6054      00
 6055              	.LASF35:
 6056 0068 4A445233 		.ascii	"JDR3\000"
 6056      00
 6057              	.LASF36:
 6058 006d 4A445234 		.ascii	"JDR4\000"
 6058      00
 6059              	.LASF102:
 6060 0072 474E5520 		.ascii	"GNU C11 7.3.1 20180622 (release) [ARM/embedded-7-br"
 6060      43313120 
 6060      372E332E 
 6060      31203230 
 6060      31383036 
 6061 00a5 616E6368 		.ascii	"anch revision 261907] -mcpu=cortex-m3 -mthumb -mapc"
ARM GAS  G:\Users\Jaxb\AppData\Local\Temp\cc4YWfMb.s 			page 131


 6061      20726576 
 6061      6973696F 
 6061      6E203236 
 6061      31393037 
 6062 00d8 732D6672 		.ascii	"s-frame -mthumb-interwork -mcpu=cortex-m3 -mthumb -"
 6062      616D6520 
 6062      2D6D7468 
 6062      756D622D 
 6062      696E7465 
 6063 010b 67647761 		.ascii	"gdwarf-2 -O0\000"
 6063      72662D32 
 6063      202D4F30 
 6063      00
 6064              	.LASF42:
 6065 0118 4144435F 		.ascii	"ADC_DataAlign\000"
 6065      44617461 
 6065      416C6967 
 6065      6E00
 6066              	.LASF62:
 6067 0126 4C6F7754 		.ascii	"LowThreshold\000"
 6067      68726573 
 6067      686F6C64 
 6067      00
 6068              	.LASF51:
 6069 0133 4144435F 		.ascii	"ADC_ClearFlag\000"
 6069      436C6561 
 6069      72466C61 
 6069      6700
 6070              	.LASF53:
 6071 0141 4144435F 		.ascii	"ADC_GetITStatus\000"
 6071      47657449 
 6071      54537461 
 6071      74757300 
 6072              	.LASF55:
 6073 0151 4144435F 		.ascii	"ADC_TempSensorVrefintCmd\000"
 6073      54656D70 
 6073      53656E73 
 6073      6F725672 
 6073      6566696E 
 6074              	.LASF89:
 6075 016a 4E756D62 		.ascii	"Number\000"
 6075      657200
 6076              	.LASF63:
 6077 0171 4144435F 		.ascii	"ADC_AnalogWatchdogCmd\000"
 6077      416E616C 
 6077      6F675761 
 6077      74636864 
 6077      6F67436D 
 6078              	.LASF7:
 6079 0187 5F5F7569 		.ascii	"__uint32_t\000"
 6079      6E743332 
 6079      5F7400
 6080              	.LASF98:
 6081 0192 4144435F 		.ascii	"ADC_Cmd\000"
 6081      436D6400 
 6082              	.LASF4:
 6083 019a 5F5F7569 		.ascii	"__uint16_t\000"
ARM GAS  G:\Users\Jaxb\AppData\Local\Temp\cc4YWfMb.s 			page 132


 6083      6E743136 
 6083      5F7400
 6084              	.LASF32:
 6085 01a5 4A535152 		.ascii	"JSQR\000"
 6085      00
 6086              	.LASF2:
 6087 01aa 73686F72 		.ascii	"short int\000"
 6087      7420696E 
 6087      7400
 6088              	.LASF100:
 6089 01b4 4144435F 		.ascii	"ADC_InitStruct\000"
 6089      496E6974 
 6089      53747275 
 6089      637400
 6090              	.LASF39:
 6091 01c3 4144435F 		.ascii	"ADC_ScanConvMode\000"
 6091      5363616E 
 6091      436F6E76 
 6091      4D6F6465 
 6091      00
 6092              	.LASF50:
 6093 01d4 4144435F 		.ascii	"ADC_ClearITPendingBit\000"
 6093      436C6561 
 6093      72495450 
 6093      656E6469 
 6093      6E674269 
 6094              	.LASF94:
 6095 01ea 4144435F 		.ascii	"ADC_GetResetCalibrationStatus\000"
 6095      47657452 
 6095      65736574 
 6095      43616C69 
 6095      62726174 
 6096              	.LASF12:
 6097 0208 75696E74 		.ascii	"uint8_t\000"
 6097      385F7400 
 6098              	.LASF52:
 6099 0210 4144435F 		.ascii	"ADC_FLAG\000"
 6099      464C4147 
 6099      00
 6100              	.LASF90:
 6101 0219 4144435F 		.ascii	"ADC_GetSoftwareStartConvStatus\000"
 6101      47657453 
 6101      6F667477 
 6101      61726553 
 6101      74617274 
 6102              	.LASF56:
 6103 0238 4E657753 		.ascii	"NewState\000"
 6103      74617465 
 6103      00
 6104              	.LASF57:
 6105 0241 4144435F 		.ascii	"ADC_AnalogWatchdogSingleChannelConfig\000"
 6105      416E616C 
 6105      6F675761 
 6105      74636864 
 6105      6F675369 
 6106              	.LASF86:
 6107 0267 4144435F 		.ascii	"ADC_RegularChannelConfig\000"
ARM GAS  G:\Users\Jaxb\AppData\Local\Temp\cc4YWfMb.s 			page 133


 6107      52656775 
 6107      6C617243 
 6107      68616E6E 
 6107      656C436F 
 6108              	.LASF20:
 6109 0280 44495341 		.ascii	"DISABLE\000"
 6109      424C4500 
 6110              	.LASF49:
 6111 0288 656E6162 		.ascii	"enablestatus\000"
 6111      6C657374 
 6111      61747573 
 6111      00
 6112              	.LASF104:
 6113 0295 463A5C6B 		.ascii	"F:\\kaka\\KAKAOS\\C\\windows\\Project\\RVMDK\243\250"
 6113      616B615C 
 6113      4B414B41 
 6113      4F535C43 
 6113      5C77696E 
 6114 02bd 757635A3 		.ascii	"uv5\243\251\000"
 6114      A900
 6115              	.LASF9:
 6116 02c3 6C6F6E67 		.ascii	"long long int\000"
 6116      206C6F6E 
 6116      6720696E 
 6116      7400
 6117              	.LASF61:
 6118 02d1 48696768 		.ascii	"HighThreshold\000"
 6118      54687265 
 6118      73686F6C 
 6118      6400
 6119              	.LASF6:
 6120 02df 6C6F6E67 		.ascii	"long int\000"
 6120      20696E74 
 6120      00
 6121              	.LASF33:
 6122 02e8 4A445231 		.ascii	"JDR1\000"
 6122      00
 6123              	.LASF3:
 6124 02ed 5F5F7569 		.ascii	"__uint8_t\000"
 6124      6E74385F 
 6124      7400
 6125              	.LASF88:
 6126 02f7 4144435F 		.ascii	"ADC_DiscModeChannelCountConfig\000"
 6126      44697363 
 6126      4D6F6465 
 6126      4368616E 
 6126      6E656C43 
 6127              	.LASF84:
 6128 0316 4144435F 		.ascii	"ADC_GetConversionValue\000"
 6128      47657443 
 6128      6F6E7665 
 6128      7273696F 
 6128      6E56616C 
 6129              	.LASF1:
 6130 032d 756E7369 		.ascii	"unsigned char\000"
 6130      676E6564 
 6130      20636861 
ARM GAS  G:\Users\Jaxb\AppData\Local\Temp\cc4YWfMb.s 			page 134


 6130      7200
 6131              	.LASF59:
 6132 033b 746D7072 		.ascii	"tmpreg\000"
 6132      656700
 6133              	.LASF74:
 6134 0342 52616E6B 		.ascii	"Rank\000"
 6134      00
 6135              	.LASF83:
 6136 0347 4144435F 		.ascii	"ADC_AutoInjectedConvCmd\000"
 6136      4175746F 
 6136      496E6A65 
 6136      63746564 
 6136      436F6E76 
 6137              	.LASF28:
 6138 035f 4A4F4652 		.ascii	"JOFR4\000"
 6138      3400
 6139              	.LASF85:
 6140 0365 4144435F 		.ascii	"ADC_ExternalTrigConvCmd\000"
 6140      45787465 
 6140      726E616C 
 6140      54726967 
 6140      436F6E76 
 6141              	.LASF38:
 6142 037d 4144435F 		.ascii	"ADC_Mode\000"
 6142      4D6F6465 
 6142      00
 6143              	.LASF67:
 6144 0386 4144435F 		.ascii	"ADC_SetInjectedOffset\000"
 6144      53657449 
 6144      6E6A6563 
 6144      7465644F 
 6144      66667365 
 6145              	.LASF106:
 6146 039c 4144435F 		.ascii	"ADC_DeInit\000"
 6146      4465496E 
 6146      697400
 6147              	.LASF79:
 6148 03a7 4144435F 		.ascii	"ADC_ExternalTrigInjectedConvCmd\000"
 6148      45787465 
 6148      726E616C 
 6148      54726967 
 6148      496E6A65 
 6149              	.LASF82:
 6150 03c7 4144435F 		.ascii	"ADC_InjectedDiscModeCmd\000"
 6150      496E6A65 
 6150      63746564 
 6150      44697363 
 6150      4D6F6465 
 6151              	.LASF0:
 6152 03df 7369676E 		.ascii	"signed char\000"
 6152      65642063 
 6152      68617200 
 6153              	.LASF10:
 6154 03eb 6C6F6E67 		.ascii	"long long unsigned int\000"
 6154      206C6F6E 
 6154      6720756E 
 6154      7369676E 
ARM GAS  G:\Users\Jaxb\AppData\Local\Temp\cc4YWfMb.s 			page 135


 6154      65642069 
 6155              	.LASF14:
 6156 0402 75696E74 		.ascii	"uint32_t\000"
 6156      33325F74 
 6156      00
 6157              	.LASF80:
 6158 040b 4144435F 		.ascii	"ADC_ExternalTrigInjectedConvConfig\000"
 6158      45787465 
 6158      726E616C 
 6158      54726967 
 6158      496E6A65 
 6159              	.LASF11:
 6160 042e 756E7369 		.ascii	"unsigned int\000"
 6160      676E6564 
 6160      20696E74 
 6160      00
 6161              	.LASF65:
 6162 043b 4144435F 		.ascii	"ADC_GetInjectedConversionValue\000"
 6162      47657449 
 6162      6E6A6563 
 6162      74656443 
 6162      6F6E7665 
 6163              	.LASF13:
 6164 045a 75696E74 		.ascii	"uint16_t\000"
 6164      31365F74 
 6164      00
 6165              	.LASF58:
 6166 0463 4144435F 		.ascii	"ADC_Channel\000"
 6166      4368616E 
 6166      6E656C00 
 6167              	.LASF43:
 6168 046f 4144435F 		.ascii	"ADC_NbrOfChannel\000"
 6168      4E62724F 
 6168      66436861 
 6168      6E6E656C 
 6168      00
 6169              	.LASF27:
 6170 0480 4A4F4652 		.ascii	"JOFR3\000"
 6170      3300
 6171              	.LASF68:
 6172 0486 4F666673 		.ascii	"Offset\000"
 6172      657400
 6173              	.LASF93:
 6174 048d 4144435F 		.ascii	"ADC_StartCalibration\000"
 6174      53746172 
 6174      7443616C 
 6174      69627261 
 6174      74696F6E 
 6175              	.LASF5:
 6176 04a2 73686F72 		.ascii	"short unsigned int\000"
 6176      7420756E 
 6176      7369676E 
 6176      65642069 
 6176      6E7400
 6177              	.LASF103:
 6178 04b5 2E2E2F2E 		.ascii	"../../source/src/FWlib/src/stm32f10x_adc.c\000"
 6178      2E2F736F 
ARM GAS  G:\Users\Jaxb\AppData\Local\Temp\cc4YWfMb.s 			page 136


 6178      75726365 
 6178      2F737263 
 6178      2F46576C 
 6179              	.LASF92:
 6180 04e0 4144435F 		.ascii	"ADC_GetCalibrationStatus\000"
 6180      47657443 
 6180      616C6962 
 6180      72617469 
 6180      6F6E5374 
 6181              	.LASF60:
 6182 04f9 4144435F 		.ascii	"ADC_AnalogWatchdogThresholdsConfig\000"
 6182      416E616C 
 6182      6F675761 
 6182      74636864 
 6182      6F675468 
 6183              	.LASF48:
 6184 051c 62697473 		.ascii	"bitstatus\000"
 6184      74617475 
 6184      7300
 6185              	.LASF40:
 6186 0526 4144435F 		.ascii	"ADC_ContinuousConvMode\000"
 6186      436F6E74 
 6186      696E756F 
 6186      7573436F 
 6186      6E764D6F 
 6187              	.LASF91:
 6188 053d 4144435F 		.ascii	"ADC_SoftwareStartConvCmd\000"
 6188      536F6674 
 6188      77617265 
 6188      53746172 
 6188      74436F6E 
 6189              	.LASF16:
 6190 0556 53797374 		.ascii	"SystemCoreClock\000"
 6190      656D436F 
 6190      7265436C 
 6190      6F636B00 
 6191              	.LASF41:
 6192 0566 4144435F 		.ascii	"ADC_ExternalTrigConv\000"
 6192      45787465 
 6192      726E616C 
 6192      54726967 
 6192      436F6E76 
 6193              	.LASF69:
 6194 057b 4144435F 		.ascii	"ADC_InjectedSequencerLengthConfig\000"
 6194      496E6A65 
 6194      63746564 
 6194      53657175 
 6194      656E6365 
 6195              	.LASF19:
 6196 059d 49545374 		.ascii	"ITStatus\000"
 6196      61747573 
 6196      00
 6197              	.LASF64:
 6198 05a6 4144435F 		.ascii	"ADC_AnalogWatchdog\000"
 6198      416E616C 
 6198      6F675761 
 6198      74636864 
ARM GAS  G:\Users\Jaxb\AppData\Local\Temp\cc4YWfMb.s 			page 137


 6198      6F6700
 6199              	.LASF73:
 6200 05b9 4144435F 		.ascii	"ADC_InjectedChannelConfig\000"
 6200      496E6A65 
 6200      63746564 
 6200      4368616E 
 6200      6E656C43 
 6201              	.LASF75:
 6202 05d3 4144435F 		.ascii	"ADC_SampleTime\000"
 6202      53616D70 
 6202      6C655469 
 6202      6D6500
 6203              	.LASF8:
 6204 05e2 6C6F6E67 		.ascii	"long unsigned int\000"
 6204      20756E73 
 6204      69676E65 
 6204      6420696E 
 6204      7400
 6205              	.LASF99:
 6206 05f4 4144435F 		.ascii	"ADC_StructInit\000"
 6206      53747275 
 6206      6374496E 
 6206      697400
 6207              	.LASF78:
 6208 0603 4144435F 		.ascii	"ADC_SoftwareStartInjectedConvCmd\000"
 6208      536F6674 
 6208      77617265 
 6208      53746172 
 6208      74496E6A 
 6209              	.LASF66:
 6210 0624 4144435F 		.ascii	"ADC_InjectedChannel\000"
 6210      496E6A65 
 6210      63746564 
 6210      4368616E 
 6210      6E656C00 
 6211              	.LASF22:
 6212 0638 46756E63 		.ascii	"FunctionalState\000"
 6212      74696F6E 
 6212      616C5374 
 6212      61746500 
 6213              	.LASF15:
 6214 0648 49544D5F 		.ascii	"ITM_RxBuffer\000"
 6214      52784275 
 6214      66666572 
 6214      00
 6215              	.LASF54:
 6216 0655 4144435F 		.ascii	"ADC_GetFlagStatus\000"
 6216      47657446 
 6216      6C616753 
 6216      74617475 
 6216      7300
 6217              	.LASF25:
 6218 0667 4A4F4652 		.ascii	"JOFR1\000"
 6218      3100
 6219              	.LASF87:
 6220 066d 4144435F 		.ascii	"ADC_DiscModeCmd\000"
 6220      44697363 
ARM GAS  G:\Users\Jaxb\AppData\Local\Temp\cc4YWfMb.s 			page 138


 6220      4D6F6465 
 6220      436D6400 
 6221              	.LASF17:
 6222 067d 52455345 		.ascii	"RESET\000"
 6222      5400
 6223              	.LASF26:
 6224 0683 4A4F4652 		.ascii	"JOFR2\000"
 6224      3200
 6225              	.LASF76:
 6226 0689 746D7072 		.ascii	"tmpreg3\000"
 6226      65673300 
 6227              	.LASF29:
 6228 0691 53515231 		.ascii	"SQR1\000"
 6228      00
 6229              	.LASF30:
 6230 0696 53515232 		.ascii	"SQR2\000"
 6230      00
 6231              	.LASF31:
 6232 069b 53515233 		.ascii	"SQR3\000"
 6232      00
 6233              	.LASF95:
 6234 06a0 4144435F 		.ascii	"ADC_ResetCalibration\000"
 6234      52657365 
 6234      7443616C 
 6234      69627261 
 6234      74696F6E 
 6235              	.LASF46:
 6236 06b5 4144435F 		.ascii	"ADC_IT\000"
 6236      495400
 6237              	.LASF47:
 6238 06bc 69746D61 		.ascii	"itmask\000"
 6238      736B00
 6239              	.LASF37:
 6240 06c3 4144435F 		.ascii	"ADC_TypeDef\000"
 6240      54797065 
 6240      44656600 
 6241              	.LASF23:
 6242 06cf 534D5052 		.ascii	"SMPR1\000"
 6242      3100
 6243              	.LASF24:
 6244 06d5 534D5052 		.ascii	"SMPR2\000"
 6244      3200
 6245              	.LASF101:
 6246 06db 4144435F 		.ascii	"ADC_Init\000"
 6246      496E6974 
 6246      00
 6247              	.LASF18:
 6248 06e4 466C6167 		.ascii	"FlagStatus\000"
 6248      53746174 
 6248      757300
 6249              	.LASF81:
 6250 06ef 4144435F 		.ascii	"ADC_ExternalTrigInjecConv\000"
 6250      45787465 
 6250      726E616C 
 6250      54726967 
 6250      496E6A65 
 6251              	.LASF21:
ARM GAS  G:\Users\Jaxb\AppData\Local\Temp\cc4YWfMb.s 			page 139


 6252 0709 454E4142 		.ascii	"ENABLE\000"
 6252      4C4500
 6253              	.LASF97:
 6254 0710 4144435F 		.ascii	"ADC_DMACmd\000"
 6254      444D4143 
 6254      6D6400
 6255              	.LASF105:
 6256 071b 4144435F 		.ascii	"ADC_GetDualModeConversionValue\000"
 6256      47657444 
 6256      75616C4D 
 6256      6F646543 
 6256      6F6E7665 
 6257              		.ident	"GCC: (GNU Tools for Arm Embedded Processors 7-2018-q2-update) 7.3.1 20180622 (release) [AR
ARM GAS  G:\Users\Jaxb\AppData\Local\Temp\cc4YWfMb.s 			page 140


DEFINED SYMBOLS
                            *ABS*:00000000 stm32f10x_adc.c
G:\Users\Jaxb\AppData\Local\Temp\cc4YWfMb.s:15     .text:00000000 $t
G:\Users\Jaxb\AppData\Local\Temp\cc4YWfMb.s:22     .text:00000000 ADC_DeInit
G:\Users\Jaxb\AppData\Local\Temp\cc4YWfMb.s:100    .text:00000068 $d
G:\Users\Jaxb\AppData\Local\Temp\cc4YWfMb.s:106    .text:00000074 $t
G:\Users\Jaxb\AppData\Local\Temp\cc4YWfMb.s:113    .text:00000074 ADC_Init
G:\Users\Jaxb\AppData\Local\Temp\cc4YWfMb.s:232    .text:00000114 $d
G:\Users\Jaxb\AppData\Local\Temp\cc4YWfMb.s:236    .text:00000118 $t
G:\Users\Jaxb\AppData\Local\Temp\cc4YWfMb.s:243    .text:00000118 ADC_StructInit
G:\Users\Jaxb\AppData\Local\Temp\cc4YWfMb.s:309    .text:0000014e ADC_Cmd
G:\Users\Jaxb\AppData\Local\Temp\cc4YWfMb.s:373    .text:00000184 ADC_DMACmd
G:\Users\Jaxb\AppData\Local\Temp\cc4YWfMb.s:437    .text:000001ba ADC_ITConfig
G:\Users\Jaxb\AppData\Local\Temp\cc4YWfMb.s:512    .text:000001fe ADC_ResetCalibration
G:\Users\Jaxb\AppData\Local\Temp\cc4YWfMb.s:560    .text:0000021c ADC_GetResetCalibrationStatus
G:\Users\Jaxb\AppData\Local\Temp\cc4YWfMb.s:622    .text:0000024a ADC_StartCalibration
G:\Users\Jaxb\AppData\Local\Temp\cc4YWfMb.s:670    .text:00000268 ADC_GetCalibrationStatus
G:\Users\Jaxb\AppData\Local\Temp\cc4YWfMb.s:732    .text:00000296 ADC_SoftwareStartConvCmd
G:\Users\Jaxb\AppData\Local\Temp\cc4YWfMb.s:796    .text:000002cc ADC_GetSoftwareStartConvStatus
G:\Users\Jaxb\AppData\Local\Temp\cc4YWfMb.s:858    .text:000002fa ADC_DiscModeChannelCountConfig
G:\Users\Jaxb\AppData\Local\Temp\cc4YWfMb.s:930    .text:0000033c ADC_DiscModeCmd
G:\Users\Jaxb\AppData\Local\Temp\cc4YWfMb.s:994    .text:00000372 ADC_RegularChannelConfig
G:\Users\Jaxb\AppData\Local\Temp\cc4YWfMb.s:1255   .text:00000504 ADC_ExternalTrigConvCmd
G:\Users\Jaxb\AppData\Local\Temp\cc4YWfMb.s:1319   .text:0000053a ADC_GetConversionValue
G:\Users\Jaxb\AppData\Local\Temp\cc4YWfMb.s:1365   .text:00000552 ADC_GetDualModeConversionValue
G:\Users\Jaxb\AppData\Local\Temp\cc4YWfMb.s:1396   .text:00000564 $d
G:\Users\Jaxb\AppData\Local\Temp\cc4YWfMb.s:1400   .text:00000568 $t
G:\Users\Jaxb\AppData\Local\Temp\cc4YWfMb.s:1407   .text:00000568 ADC_AutoInjectedConvCmd
G:\Users\Jaxb\AppData\Local\Temp\cc4YWfMb.s:1471   .text:0000059e ADC_InjectedDiscModeCmd
G:\Users\Jaxb\AppData\Local\Temp\cc4YWfMb.s:1535   .text:000005d4 ADC_ExternalTrigInjectedConvConfig
G:\Users\Jaxb\AppData\Local\Temp\cc4YWfMb.s:1598   .text:00000608 ADC_ExternalTrigInjectedConvCmd
G:\Users\Jaxb\AppData\Local\Temp\cc4YWfMb.s:1662   .text:0000063e ADC_SoftwareStartInjectedConvCmd
G:\Users\Jaxb\AppData\Local\Temp\cc4YWfMb.s:1726   .text:00000674 ADC_GetSoftwareStartInjectedConvCmdStatus
G:\Users\Jaxb\AppData\Local\Temp\cc4YWfMb.s:1788   .text:000006a2 ADC_InjectedChannelConfig
G:\Users\Jaxb\AppData\Local\Temp\cc4YWfMb.s:1979   .text:000007c2 ADC_InjectedSequencerLengthConfig
G:\Users\Jaxb\AppData\Local\Temp\cc4YWfMb.s:2051   .text:00000804 ADC_SetInjectedOffset
G:\Users\Jaxb\AppData\Local\Temp\cc4YWfMb.s:2113   .text:00000836 ADC_GetInjectedConversionValue
G:\Users\Jaxb\AppData\Local\Temp\cc4YWfMb.s:2173   .text:00000864 ADC_AnalogWatchdogCmd
G:\Users\Jaxb\AppData\Local\Temp\cc4YWfMb.s:2237   .text:0000089c ADC_AnalogWatchdogThresholdsConfig
G:\Users\Jaxb\AppData\Local\Temp\cc4YWfMb.s:2291   .text:000008c2 ADC_AnalogWatchdogSingleChannelConfig
G:\Users\Jaxb\AppData\Local\Temp\cc4YWfMb.s:2355   .text:000008f8 ADC_TempSensorVrefintCmd
G:\Users\Jaxb\AppData\Local\Temp\cc4YWfMb.s:2411   .text:0000092c $d
G:\Users\Jaxb\AppData\Local\Temp\cc4YWfMb.s:2415   .text:00000930 $t
G:\Users\Jaxb\AppData\Local\Temp\cc4YWfMb.s:2422   .text:00000930 ADC_GetFlagStatus
G:\Users\Jaxb\AppData\Local\Temp\cc4YWfMb.s:2487   .text:00000962 ADC_ClearFlag
G:\Users\Jaxb\AppData\Local\Temp\cc4YWfMb.s:2536   .text:00000980 ADC_GetITStatus
G:\Users\Jaxb\AppData\Local\Temp\cc4YWfMb.s:2622   .text:000009d4 ADC_ClearITPendingBit

UNDEFINED SYMBOLS
RCC_APB2PeriphResetCmd
