ARM GAS  G:\Users\Jaxb\AppData\Local\Temp\ccVwt5n8.s 			page 1


   1              		.cpu cortex-m3
   2              		.eabi_attribute 20, 1
   3              		.eabi_attribute 21, 1
   4              		.eabi_attribute 23, 3
   5              		.eabi_attribute 24, 1
   6              		.eabi_attribute 25, 1
   7              		.eabi_attribute 26, 1
   8              		.eabi_attribute 30, 6
   9              		.eabi_attribute 34, 1
  10              		.eabi_attribute 18, 4
  11              		.file	"stm32f10x_bkp.c"
  12              		.text
  13              	.Ltext0:
  14              		.cfi_sections	.debug_frame
  15              		.align	1
  16              		.global	BKP_DeInit
  17              		.syntax unified
  18              		.thumb
  19              		.thumb_func
  20              		.fpu softvfp
  21              		.type	BKP_DeInit, %function
  22              	BKP_DeInit:
  23              	.LFB29:
  24              		.file 1 "../../source/src/FWlib/src/stm32f10x_bkp.c"
   1:../../source/src/FWlib/src/stm32f10x_bkp.c **** /**
   2:../../source/src/FWlib/src/stm32f10x_bkp.c ****   ******************************************************************************
   3:../../source/src/FWlib/src/stm32f10x_bkp.c ****   * @file    stm32f10x_bkp.c
   4:../../source/src/FWlib/src/stm32f10x_bkp.c ****   * @author  MCD Application Team
   5:../../source/src/FWlib/src/stm32f10x_bkp.c ****   * @version V3.5.0
   6:../../source/src/FWlib/src/stm32f10x_bkp.c ****   * @date    11-March-2011
   7:../../source/src/FWlib/src/stm32f10x_bkp.c ****   * @brief   This file provides all the BKP firmware functions.
   8:../../source/src/FWlib/src/stm32f10x_bkp.c ****   ******************************************************************************
   9:../../source/src/FWlib/src/stm32f10x_bkp.c ****   * @attention
  10:../../source/src/FWlib/src/stm32f10x_bkp.c ****   *
  11:../../source/src/FWlib/src/stm32f10x_bkp.c ****   * THE PRESENT FIRMWARE WHICH IS FOR GUIDANCE ONLY AIMS AT PROVIDING CUSTOMERS
  12:../../source/src/FWlib/src/stm32f10x_bkp.c ****   * WITH CODING INFORMATION REGARDING THEIR PRODUCTS IN ORDER FOR THEM TO SAVE
  13:../../source/src/FWlib/src/stm32f10x_bkp.c ****   * TIME. AS A RESULT, STMICROELECTRONICS SHALL NOT BE HELD LIABLE FOR ANY
  14:../../source/src/FWlib/src/stm32f10x_bkp.c ****   * DIRECT, INDIRECT OR CONSEQUENTIAL DAMAGES WITH RESPECT TO ANY CLAIMS ARISING
  15:../../source/src/FWlib/src/stm32f10x_bkp.c ****   * FROM THE CONTENT OF SUCH FIRMWARE AND/OR THE USE MADE BY CUSTOMERS OF THE
  16:../../source/src/FWlib/src/stm32f10x_bkp.c ****   * CODING INFORMATION CONTAINED HEREIN IN CONNECTION WITH THEIR PRODUCTS.
  17:../../source/src/FWlib/src/stm32f10x_bkp.c ****   *
  18:../../source/src/FWlib/src/stm32f10x_bkp.c ****   * <h2><center>&copy; COPYRIGHT 2011 STMicroelectronics</center></h2>
  19:../../source/src/FWlib/src/stm32f10x_bkp.c ****   ******************************************************************************
  20:../../source/src/FWlib/src/stm32f10x_bkp.c ****   */
  21:../../source/src/FWlib/src/stm32f10x_bkp.c **** 
  22:../../source/src/FWlib/src/stm32f10x_bkp.c **** /* Includes ------------------------------------------------------------------*/
  23:../../source/src/FWlib/src/stm32f10x_bkp.c **** #include "stm32f10x_bkp.h"
  24:../../source/src/FWlib/src/stm32f10x_bkp.c **** #include "stm32f10x_rcc.h"
  25:../../source/src/FWlib/src/stm32f10x_bkp.c **** 
  26:../../source/src/FWlib/src/stm32f10x_bkp.c **** /** @addtogroup STM32F10x_StdPeriph_Driver
  27:../../source/src/FWlib/src/stm32f10x_bkp.c ****   * @{
  28:../../source/src/FWlib/src/stm32f10x_bkp.c ****   */
  29:../../source/src/FWlib/src/stm32f10x_bkp.c **** 
  30:../../source/src/FWlib/src/stm32f10x_bkp.c **** /** @defgroup BKP 
  31:../../source/src/FWlib/src/stm32f10x_bkp.c ****   * @brief BKP driver modules
  32:../../source/src/FWlib/src/stm32f10x_bkp.c ****   * @{
  33:../../source/src/FWlib/src/stm32f10x_bkp.c ****   */
ARM GAS  G:\Users\Jaxb\AppData\Local\Temp\ccVwt5n8.s 			page 2


  34:../../source/src/FWlib/src/stm32f10x_bkp.c **** 
  35:../../source/src/FWlib/src/stm32f10x_bkp.c **** /** @defgroup BKP_Private_TypesDefinitions
  36:../../source/src/FWlib/src/stm32f10x_bkp.c ****   * @{
  37:../../source/src/FWlib/src/stm32f10x_bkp.c ****   */
  38:../../source/src/FWlib/src/stm32f10x_bkp.c **** 
  39:../../source/src/FWlib/src/stm32f10x_bkp.c **** /**
  40:../../source/src/FWlib/src/stm32f10x_bkp.c ****   * @}
  41:../../source/src/FWlib/src/stm32f10x_bkp.c ****   */
  42:../../source/src/FWlib/src/stm32f10x_bkp.c **** 
  43:../../source/src/FWlib/src/stm32f10x_bkp.c **** /** @defgroup BKP_Private_Defines
  44:../../source/src/FWlib/src/stm32f10x_bkp.c ****   * @{
  45:../../source/src/FWlib/src/stm32f10x_bkp.c ****   */
  46:../../source/src/FWlib/src/stm32f10x_bkp.c **** 
  47:../../source/src/FWlib/src/stm32f10x_bkp.c **** /* ------------ BKP registers bit address in the alias region --------------- */
  48:../../source/src/FWlib/src/stm32f10x_bkp.c **** #define BKP_OFFSET        (BKP_BASE - PERIPH_BASE)
  49:../../source/src/FWlib/src/stm32f10x_bkp.c **** 
  50:../../source/src/FWlib/src/stm32f10x_bkp.c **** /* --- CR Register ----*/
  51:../../source/src/FWlib/src/stm32f10x_bkp.c **** 
  52:../../source/src/FWlib/src/stm32f10x_bkp.c **** /* Alias word address of TPAL bit */
  53:../../source/src/FWlib/src/stm32f10x_bkp.c **** #define CR_OFFSET         (BKP_OFFSET + 0x30)
  54:../../source/src/FWlib/src/stm32f10x_bkp.c **** #define TPAL_BitNumber    0x01
  55:../../source/src/FWlib/src/stm32f10x_bkp.c **** #define CR_TPAL_BB        (PERIPH_BB_BASE + (CR_OFFSET * 32) + (TPAL_BitNumber * 4))
  56:../../source/src/FWlib/src/stm32f10x_bkp.c **** 
  57:../../source/src/FWlib/src/stm32f10x_bkp.c **** /* Alias word address of TPE bit */
  58:../../source/src/FWlib/src/stm32f10x_bkp.c **** #define TPE_BitNumber     0x00
  59:../../source/src/FWlib/src/stm32f10x_bkp.c **** #define CR_TPE_BB         (PERIPH_BB_BASE + (CR_OFFSET * 32) + (TPE_BitNumber * 4))
  60:../../source/src/FWlib/src/stm32f10x_bkp.c **** 
  61:../../source/src/FWlib/src/stm32f10x_bkp.c **** /* --- CSR Register ---*/
  62:../../source/src/FWlib/src/stm32f10x_bkp.c **** 
  63:../../source/src/FWlib/src/stm32f10x_bkp.c **** /* Alias word address of TPIE bit */
  64:../../source/src/FWlib/src/stm32f10x_bkp.c **** #define CSR_OFFSET        (BKP_OFFSET + 0x34)
  65:../../source/src/FWlib/src/stm32f10x_bkp.c **** #define TPIE_BitNumber    0x02
  66:../../source/src/FWlib/src/stm32f10x_bkp.c **** #define CSR_TPIE_BB       (PERIPH_BB_BASE + (CSR_OFFSET * 32) + (TPIE_BitNumber * 4))
  67:../../source/src/FWlib/src/stm32f10x_bkp.c **** 
  68:../../source/src/FWlib/src/stm32f10x_bkp.c **** /* Alias word address of TIF bit */
  69:../../source/src/FWlib/src/stm32f10x_bkp.c **** #define TIF_BitNumber     0x09
  70:../../source/src/FWlib/src/stm32f10x_bkp.c **** #define CSR_TIF_BB        (PERIPH_BB_BASE + (CSR_OFFSET * 32) + (TIF_BitNumber * 4))
  71:../../source/src/FWlib/src/stm32f10x_bkp.c **** 
  72:../../source/src/FWlib/src/stm32f10x_bkp.c **** /* Alias word address of TEF bit */
  73:../../source/src/FWlib/src/stm32f10x_bkp.c **** #define TEF_BitNumber     0x08
  74:../../source/src/FWlib/src/stm32f10x_bkp.c **** #define CSR_TEF_BB        (PERIPH_BB_BASE + (CSR_OFFSET * 32) + (TEF_BitNumber * 4))
  75:../../source/src/FWlib/src/stm32f10x_bkp.c **** 
  76:../../source/src/FWlib/src/stm32f10x_bkp.c **** /* ---------------------- BKP registers bit mask ------------------------ */
  77:../../source/src/FWlib/src/stm32f10x_bkp.c **** 
  78:../../source/src/FWlib/src/stm32f10x_bkp.c **** /* RTCCR register bit mask */
  79:../../source/src/FWlib/src/stm32f10x_bkp.c **** #define RTCCR_CAL_MASK    ((uint16_t)0xFF80)
  80:../../source/src/FWlib/src/stm32f10x_bkp.c **** #define RTCCR_MASK        ((uint16_t)0xFC7F)
  81:../../source/src/FWlib/src/stm32f10x_bkp.c **** 
  82:../../source/src/FWlib/src/stm32f10x_bkp.c **** /**
  83:../../source/src/FWlib/src/stm32f10x_bkp.c ****   * @}
  84:../../source/src/FWlib/src/stm32f10x_bkp.c ****   */ 
  85:../../source/src/FWlib/src/stm32f10x_bkp.c **** 
  86:../../source/src/FWlib/src/stm32f10x_bkp.c **** 
  87:../../source/src/FWlib/src/stm32f10x_bkp.c **** /** @defgroup BKP_Private_Macros
  88:../../source/src/FWlib/src/stm32f10x_bkp.c ****   * @{
  89:../../source/src/FWlib/src/stm32f10x_bkp.c ****   */
  90:../../source/src/FWlib/src/stm32f10x_bkp.c **** 
ARM GAS  G:\Users\Jaxb\AppData\Local\Temp\ccVwt5n8.s 			page 3


  91:../../source/src/FWlib/src/stm32f10x_bkp.c **** /**
  92:../../source/src/FWlib/src/stm32f10x_bkp.c ****   * @}
  93:../../source/src/FWlib/src/stm32f10x_bkp.c ****   */
  94:../../source/src/FWlib/src/stm32f10x_bkp.c **** 
  95:../../source/src/FWlib/src/stm32f10x_bkp.c **** /** @defgroup BKP_Private_Variables
  96:../../source/src/FWlib/src/stm32f10x_bkp.c ****   * @{
  97:../../source/src/FWlib/src/stm32f10x_bkp.c ****   */
  98:../../source/src/FWlib/src/stm32f10x_bkp.c **** 
  99:../../source/src/FWlib/src/stm32f10x_bkp.c **** /**
 100:../../source/src/FWlib/src/stm32f10x_bkp.c ****   * @}
 101:../../source/src/FWlib/src/stm32f10x_bkp.c ****   */
 102:../../source/src/FWlib/src/stm32f10x_bkp.c **** 
 103:../../source/src/FWlib/src/stm32f10x_bkp.c **** /** @defgroup BKP_Private_FunctionPrototypes
 104:../../source/src/FWlib/src/stm32f10x_bkp.c ****   * @{
 105:../../source/src/FWlib/src/stm32f10x_bkp.c ****   */
 106:../../source/src/FWlib/src/stm32f10x_bkp.c **** 
 107:../../source/src/FWlib/src/stm32f10x_bkp.c **** /**
 108:../../source/src/FWlib/src/stm32f10x_bkp.c ****   * @}
 109:../../source/src/FWlib/src/stm32f10x_bkp.c ****   */
 110:../../source/src/FWlib/src/stm32f10x_bkp.c **** 
 111:../../source/src/FWlib/src/stm32f10x_bkp.c **** /** @defgroup BKP_Private_Functions
 112:../../source/src/FWlib/src/stm32f10x_bkp.c ****   * @{
 113:../../source/src/FWlib/src/stm32f10x_bkp.c ****   */
 114:../../source/src/FWlib/src/stm32f10x_bkp.c **** 
 115:../../source/src/FWlib/src/stm32f10x_bkp.c **** /**
 116:../../source/src/FWlib/src/stm32f10x_bkp.c ****   * @brief  Deinitializes the BKP peripheral registers to their default reset values.
 117:../../source/src/FWlib/src/stm32f10x_bkp.c ****   * @param  None
 118:../../source/src/FWlib/src/stm32f10x_bkp.c ****   * @retval None
 119:../../source/src/FWlib/src/stm32f10x_bkp.c ****   */
 120:../../source/src/FWlib/src/stm32f10x_bkp.c **** void BKP_DeInit(void)
 121:../../source/src/FWlib/src/stm32f10x_bkp.c **** {
  25              		.loc 1 121 0
  26              		.cfi_startproc
  27              		@ args = 0, pretend = 0, frame = 0
  28              		@ frame_needed = 1, uses_anonymous_args = 0
  29 0000 80B5     		push	{r7, lr}
  30              	.LCFI0:
  31              		.cfi_def_cfa_offset 8
  32              		.cfi_offset 7, -8
  33              		.cfi_offset 14, -4
  34 0002 00AF     		add	r7, sp, #0
  35              	.LCFI1:
  36              		.cfi_def_cfa_register 7
 122:../../source/src/FWlib/src/stm32f10x_bkp.c ****   RCC_BackupResetCmd(ENABLE);
  37              		.loc 1 122 0
  38 0004 0120     		movs	r0, #1
  39 0006 FFF7FEFF 		bl	RCC_BackupResetCmd
 123:../../source/src/FWlib/src/stm32f10x_bkp.c ****   RCC_BackupResetCmd(DISABLE);
  40              		.loc 1 123 0
  41 000a 0020     		movs	r0, #0
  42 000c FFF7FEFF 		bl	RCC_BackupResetCmd
 124:../../source/src/FWlib/src/stm32f10x_bkp.c **** }
  43              		.loc 1 124 0
  44 0010 00BF     		nop
  45 0012 80BD     		pop	{r7, pc}
  46              		.cfi_endproc
  47              	.LFE29:
ARM GAS  G:\Users\Jaxb\AppData\Local\Temp\ccVwt5n8.s 			page 4


  48              		.size	BKP_DeInit, .-BKP_DeInit
  49              		.align	1
  50              		.global	BKP_TamperPinLevelConfig
  51              		.syntax unified
  52              		.thumb
  53              		.thumb_func
  54              		.fpu softvfp
  55              		.type	BKP_TamperPinLevelConfig, %function
  56              	BKP_TamperPinLevelConfig:
  57              	.LFB30:
 125:../../source/src/FWlib/src/stm32f10x_bkp.c **** 
 126:../../source/src/FWlib/src/stm32f10x_bkp.c **** /**
 127:../../source/src/FWlib/src/stm32f10x_bkp.c ****   * @brief  Configures the Tamper Pin active level.
 128:../../source/src/FWlib/src/stm32f10x_bkp.c ****   * @param  BKP_TamperPinLevel: specifies the Tamper Pin active level.
 129:../../source/src/FWlib/src/stm32f10x_bkp.c ****   *   This parameter can be one of the following values:
 130:../../source/src/FWlib/src/stm32f10x_bkp.c ****   *     @arg BKP_TamperPinLevel_High: Tamper pin active on high level
 131:../../source/src/FWlib/src/stm32f10x_bkp.c ****   *     @arg BKP_TamperPinLevel_Low: Tamper pin active on low level
 132:../../source/src/FWlib/src/stm32f10x_bkp.c ****   * @retval None
 133:../../source/src/FWlib/src/stm32f10x_bkp.c ****   */
 134:../../source/src/FWlib/src/stm32f10x_bkp.c **** void BKP_TamperPinLevelConfig(uint16_t BKP_TamperPinLevel)
 135:../../source/src/FWlib/src/stm32f10x_bkp.c **** {
  58              		.loc 1 135 0
  59              		.cfi_startproc
  60              		@ args = 0, pretend = 0, frame = 8
  61              		@ frame_needed = 1, uses_anonymous_args = 0
  62              		@ link register save eliminated.
  63 0014 80B4     		push	{r7}
  64              	.LCFI2:
  65              		.cfi_def_cfa_offset 4
  66              		.cfi_offset 7, -4
  67 0016 83B0     		sub	sp, sp, #12
  68              	.LCFI3:
  69              		.cfi_def_cfa_offset 16
  70 0018 00AF     		add	r7, sp, #0
  71              	.LCFI4:
  72              		.cfi_def_cfa_register 7
  73 001a 0346     		mov	r3, r0
  74 001c FB80     		strh	r3, [r7, #6]	@ movhi
 136:../../source/src/FWlib/src/stm32f10x_bkp.c ****   /* Check the parameters */
 137:../../source/src/FWlib/src/stm32f10x_bkp.c ****   assert_param(IS_BKP_TAMPER_PIN_LEVEL(BKP_TamperPinLevel));
 138:../../source/src/FWlib/src/stm32f10x_bkp.c ****   *(__IO uint32_t *) CR_TPAL_BB = BKP_TamperPinLevel;
  75              		.loc 1 138 0
  76 001e 044A     		ldr	r2, .L3
  77 0020 FB88     		ldrh	r3, [r7, #6]
  78 0022 1360     		str	r3, [r2]
 139:../../source/src/FWlib/src/stm32f10x_bkp.c **** }
  79              		.loc 1 139 0
  80 0024 00BF     		nop
  81 0026 0C37     		adds	r7, r7, #12
  82              	.LCFI5:
  83              		.cfi_def_cfa_offset 4
  84 0028 BD46     		mov	sp, r7
  85              	.LCFI6:
  86              		.cfi_def_cfa_register 13
  87              		@ sp needed
  88 002a 80BC     		pop	{r7}
  89              	.LCFI7:
ARM GAS  G:\Users\Jaxb\AppData\Local\Temp\ccVwt5n8.s 			page 5


  90              		.cfi_restore 7
  91              		.cfi_def_cfa_offset 0
  92 002c 7047     		bx	lr
  93              	.L4:
  94 002e 00BF     		.align	2
  95              	.L3:
  96 0030 04860D42 		.word	1108182532
  97              		.cfi_endproc
  98              	.LFE30:
  99              		.size	BKP_TamperPinLevelConfig, .-BKP_TamperPinLevelConfig
 100              		.align	1
 101              		.global	BKP_TamperPinCmd
 102              		.syntax unified
 103              		.thumb
 104              		.thumb_func
 105              		.fpu softvfp
 106              		.type	BKP_TamperPinCmd, %function
 107              	BKP_TamperPinCmd:
 108              	.LFB31:
 140:../../source/src/FWlib/src/stm32f10x_bkp.c **** 
 141:../../source/src/FWlib/src/stm32f10x_bkp.c **** /**
 142:../../source/src/FWlib/src/stm32f10x_bkp.c ****   * @brief  Enables or disables the Tamper Pin activation.
 143:../../source/src/FWlib/src/stm32f10x_bkp.c ****   * @param  NewState: new state of the Tamper Pin activation.
 144:../../source/src/FWlib/src/stm32f10x_bkp.c ****   *   This parameter can be: ENABLE or DISABLE.
 145:../../source/src/FWlib/src/stm32f10x_bkp.c ****   * @retval None
 146:../../source/src/FWlib/src/stm32f10x_bkp.c ****   */
 147:../../source/src/FWlib/src/stm32f10x_bkp.c **** void BKP_TamperPinCmd(FunctionalState NewState)
 148:../../source/src/FWlib/src/stm32f10x_bkp.c **** {
 109              		.loc 1 148 0
 110              		.cfi_startproc
 111              		@ args = 0, pretend = 0, frame = 8
 112              		@ frame_needed = 1, uses_anonymous_args = 0
 113              		@ link register save eliminated.
 114 0034 80B4     		push	{r7}
 115              	.LCFI8:
 116              		.cfi_def_cfa_offset 4
 117              		.cfi_offset 7, -4
 118 0036 83B0     		sub	sp, sp, #12
 119              	.LCFI9:
 120              		.cfi_def_cfa_offset 16
 121 0038 00AF     		add	r7, sp, #0
 122              	.LCFI10:
 123              		.cfi_def_cfa_register 7
 124 003a 0346     		mov	r3, r0
 125 003c FB71     		strb	r3, [r7, #7]
 149:../../source/src/FWlib/src/stm32f10x_bkp.c ****   /* Check the parameters */
 150:../../source/src/FWlib/src/stm32f10x_bkp.c ****   assert_param(IS_FUNCTIONAL_STATE(NewState));
 151:../../source/src/FWlib/src/stm32f10x_bkp.c ****   *(__IO uint32_t *) CR_TPE_BB = (uint32_t)NewState;
 126              		.loc 1 151 0
 127 003e 044A     		ldr	r2, .L6
 128 0040 FB79     		ldrb	r3, [r7, #7]	@ zero_extendqisi2
 129 0042 1360     		str	r3, [r2]
 152:../../source/src/FWlib/src/stm32f10x_bkp.c **** }
 130              		.loc 1 152 0
 131 0044 00BF     		nop
 132 0046 0C37     		adds	r7, r7, #12
 133              	.LCFI11:
ARM GAS  G:\Users\Jaxb\AppData\Local\Temp\ccVwt5n8.s 			page 6


 134              		.cfi_def_cfa_offset 4
 135 0048 BD46     		mov	sp, r7
 136              	.LCFI12:
 137              		.cfi_def_cfa_register 13
 138              		@ sp needed
 139 004a 80BC     		pop	{r7}
 140              	.LCFI13:
 141              		.cfi_restore 7
 142              		.cfi_def_cfa_offset 0
 143 004c 7047     		bx	lr
 144              	.L7:
 145 004e 00BF     		.align	2
 146              	.L6:
 147 0050 00860D42 		.word	1108182528
 148              		.cfi_endproc
 149              	.LFE31:
 150              		.size	BKP_TamperPinCmd, .-BKP_TamperPinCmd
 151              		.align	1
 152              		.global	BKP_ITConfig
 153              		.syntax unified
 154              		.thumb
 155              		.thumb_func
 156              		.fpu softvfp
 157              		.type	BKP_ITConfig, %function
 158              	BKP_ITConfig:
 159              	.LFB32:
 153:../../source/src/FWlib/src/stm32f10x_bkp.c **** 
 154:../../source/src/FWlib/src/stm32f10x_bkp.c **** /**
 155:../../source/src/FWlib/src/stm32f10x_bkp.c ****   * @brief  Enables or disables the Tamper Pin Interrupt.
 156:../../source/src/FWlib/src/stm32f10x_bkp.c ****   * @param  NewState: new state of the Tamper Pin Interrupt.
 157:../../source/src/FWlib/src/stm32f10x_bkp.c ****   *   This parameter can be: ENABLE or DISABLE.
 158:../../source/src/FWlib/src/stm32f10x_bkp.c ****   * @retval None
 159:../../source/src/FWlib/src/stm32f10x_bkp.c ****   */
 160:../../source/src/FWlib/src/stm32f10x_bkp.c **** void BKP_ITConfig(FunctionalState NewState)
 161:../../source/src/FWlib/src/stm32f10x_bkp.c **** {
 160              		.loc 1 161 0
 161              		.cfi_startproc
 162              		@ args = 0, pretend = 0, frame = 8
 163              		@ frame_needed = 1, uses_anonymous_args = 0
 164              		@ link register save eliminated.
 165 0054 80B4     		push	{r7}
 166              	.LCFI14:
 167              		.cfi_def_cfa_offset 4
 168              		.cfi_offset 7, -4
 169 0056 83B0     		sub	sp, sp, #12
 170              	.LCFI15:
 171              		.cfi_def_cfa_offset 16
 172 0058 00AF     		add	r7, sp, #0
 173              	.LCFI16:
 174              		.cfi_def_cfa_register 7
 175 005a 0346     		mov	r3, r0
 176 005c FB71     		strb	r3, [r7, #7]
 162:../../source/src/FWlib/src/stm32f10x_bkp.c ****   /* Check the parameters */
 163:../../source/src/FWlib/src/stm32f10x_bkp.c ****   assert_param(IS_FUNCTIONAL_STATE(NewState));
 164:../../source/src/FWlib/src/stm32f10x_bkp.c ****   *(__IO uint32_t *) CSR_TPIE_BB = (uint32_t)NewState;
 177              		.loc 1 164 0
 178 005e 044A     		ldr	r2, .L9
ARM GAS  G:\Users\Jaxb\AppData\Local\Temp\ccVwt5n8.s 			page 7


 179 0060 FB79     		ldrb	r3, [r7, #7]	@ zero_extendqisi2
 180 0062 1360     		str	r3, [r2]
 165:../../source/src/FWlib/src/stm32f10x_bkp.c **** }
 181              		.loc 1 165 0
 182 0064 00BF     		nop
 183 0066 0C37     		adds	r7, r7, #12
 184              	.LCFI17:
 185              		.cfi_def_cfa_offset 4
 186 0068 BD46     		mov	sp, r7
 187              	.LCFI18:
 188              		.cfi_def_cfa_register 13
 189              		@ sp needed
 190 006a 80BC     		pop	{r7}
 191              	.LCFI19:
 192              		.cfi_restore 7
 193              		.cfi_def_cfa_offset 0
 194 006c 7047     		bx	lr
 195              	.L10:
 196 006e 00BF     		.align	2
 197              	.L9:
 198 0070 88860D42 		.word	1108182664
 199              		.cfi_endproc
 200              	.LFE32:
 201              		.size	BKP_ITConfig, .-BKP_ITConfig
 202              		.align	1
 203              		.global	BKP_RTCOutputConfig
 204              		.syntax unified
 205              		.thumb
 206              		.thumb_func
 207              		.fpu softvfp
 208              		.type	BKP_RTCOutputConfig, %function
 209              	BKP_RTCOutputConfig:
 210              	.LFB33:
 166:../../source/src/FWlib/src/stm32f10x_bkp.c **** 
 167:../../source/src/FWlib/src/stm32f10x_bkp.c **** /**
 168:../../source/src/FWlib/src/stm32f10x_bkp.c ****   * @brief  Select the RTC output source to output on the Tamper pin.
 169:../../source/src/FWlib/src/stm32f10x_bkp.c ****   * @param  BKP_RTCOutputSource: specifies the RTC output source.
 170:../../source/src/FWlib/src/stm32f10x_bkp.c ****   *   This parameter can be one of the following values:
 171:../../source/src/FWlib/src/stm32f10x_bkp.c ****   *     @arg BKP_RTCOutputSource_None: no RTC output on the Tamper pin.
 172:../../source/src/FWlib/src/stm32f10x_bkp.c ****   *     @arg BKP_RTCOutputSource_CalibClock: output the RTC clock with frequency
 173:../../source/src/FWlib/src/stm32f10x_bkp.c ****   *                                          divided by 64 on the Tamper pin.
 174:../../source/src/FWlib/src/stm32f10x_bkp.c ****   *     @arg BKP_RTCOutputSource_Alarm: output the RTC Alarm pulse signal on
 175:../../source/src/FWlib/src/stm32f10x_bkp.c ****   *                                     the Tamper pin.
 176:../../source/src/FWlib/src/stm32f10x_bkp.c ****   *     @arg BKP_RTCOutputSource_Second: output the RTC Second pulse signal on
 177:../../source/src/FWlib/src/stm32f10x_bkp.c ****   *                                      the Tamper pin.  
 178:../../source/src/FWlib/src/stm32f10x_bkp.c ****   * @retval None
 179:../../source/src/FWlib/src/stm32f10x_bkp.c ****   */
 180:../../source/src/FWlib/src/stm32f10x_bkp.c **** void BKP_RTCOutputConfig(uint16_t BKP_RTCOutputSource)
 181:../../source/src/FWlib/src/stm32f10x_bkp.c **** {
 211              		.loc 1 181 0
 212              		.cfi_startproc
 213              		@ args = 0, pretend = 0, frame = 16
 214              		@ frame_needed = 1, uses_anonymous_args = 0
 215              		@ link register save eliminated.
 216 0074 80B4     		push	{r7}
 217              	.LCFI20:
 218              		.cfi_def_cfa_offset 4
ARM GAS  G:\Users\Jaxb\AppData\Local\Temp\ccVwt5n8.s 			page 8


 219              		.cfi_offset 7, -4
 220 0076 85B0     		sub	sp, sp, #20
 221              	.LCFI21:
 222              		.cfi_def_cfa_offset 24
 223 0078 00AF     		add	r7, sp, #0
 224              	.LCFI22:
 225              		.cfi_def_cfa_register 7
 226 007a 0346     		mov	r3, r0
 227 007c FB80     		strh	r3, [r7, #6]	@ movhi
 182:../../source/src/FWlib/src/stm32f10x_bkp.c ****   uint16_t tmpreg = 0;
 228              		.loc 1 182 0
 229 007e 0023     		movs	r3, #0
 230 0080 FB81     		strh	r3, [r7, #14]	@ movhi
 183:../../source/src/FWlib/src/stm32f10x_bkp.c ****   /* Check the parameters */
 184:../../source/src/FWlib/src/stm32f10x_bkp.c ****   assert_param(IS_BKP_RTC_OUTPUT_SOURCE(BKP_RTCOutputSource));
 185:../../source/src/FWlib/src/stm32f10x_bkp.c ****   tmpreg = BKP->RTCCR;
 231              		.loc 1 185 0
 232 0082 094B     		ldr	r3, .L12
 233 0084 9B8D     		ldrh	r3, [r3, #44]	@ movhi
 234 0086 FB81     		strh	r3, [r7, #14]	@ movhi
 186:../../source/src/FWlib/src/stm32f10x_bkp.c ****   /* Clear CCO, ASOE and ASOS bits */
 187:../../source/src/FWlib/src/stm32f10x_bkp.c ****   tmpreg &= RTCCR_MASK;
 235              		.loc 1 187 0
 236 0088 FB89     		ldrh	r3, [r7, #14]	@ movhi
 237 008a 23F46073 		bic	r3, r3, #896
 238 008e FB81     		strh	r3, [r7, #14]	@ movhi
 188:../../source/src/FWlib/src/stm32f10x_bkp.c ****   
 189:../../source/src/FWlib/src/stm32f10x_bkp.c ****   /* Set CCO, ASOE and ASOS bits according to BKP_RTCOutputSource value */
 190:../../source/src/FWlib/src/stm32f10x_bkp.c ****   tmpreg |= BKP_RTCOutputSource;
 239              		.loc 1 190 0
 240 0090 FA89     		ldrh	r2, [r7, #14]	@ movhi
 241 0092 FB88     		ldrh	r3, [r7, #6]	@ movhi
 242 0094 1343     		orrs	r3, r3, r2
 243 0096 FB81     		strh	r3, [r7, #14]	@ movhi
 191:../../source/src/FWlib/src/stm32f10x_bkp.c ****   /* Store the new value */
 192:../../source/src/FWlib/src/stm32f10x_bkp.c ****   BKP->RTCCR = tmpreg;
 244              		.loc 1 192 0
 245 0098 034A     		ldr	r2, .L12
 246 009a FB89     		ldrh	r3, [r7, #14]	@ movhi
 247 009c 9385     		strh	r3, [r2, #44]	@ movhi
 193:../../source/src/FWlib/src/stm32f10x_bkp.c **** }
 248              		.loc 1 193 0
 249 009e 00BF     		nop
 250 00a0 1437     		adds	r7, r7, #20
 251              	.LCFI23:
 252              		.cfi_def_cfa_offset 4
 253 00a2 BD46     		mov	sp, r7
 254              	.LCFI24:
 255              		.cfi_def_cfa_register 13
 256              		@ sp needed
 257 00a4 80BC     		pop	{r7}
 258              	.LCFI25:
 259              		.cfi_restore 7
 260              		.cfi_def_cfa_offset 0
 261 00a6 7047     		bx	lr
 262              	.L13:
 263              		.align	2
ARM GAS  G:\Users\Jaxb\AppData\Local\Temp\ccVwt5n8.s 			page 9


 264              	.L12:
 265 00a8 006C0040 		.word	1073769472
 266              		.cfi_endproc
 267              	.LFE33:
 268              		.size	BKP_RTCOutputConfig, .-BKP_RTCOutputConfig
 269              		.align	1
 270              		.global	BKP_SetRTCCalibrationValue
 271              		.syntax unified
 272              		.thumb
 273              		.thumb_func
 274              		.fpu softvfp
 275              		.type	BKP_SetRTCCalibrationValue, %function
 276              	BKP_SetRTCCalibrationValue:
 277              	.LFB34:
 194:../../source/src/FWlib/src/stm32f10x_bkp.c **** 
 195:../../source/src/FWlib/src/stm32f10x_bkp.c **** /**
 196:../../source/src/FWlib/src/stm32f10x_bkp.c ****   * @brief  Sets RTC Clock Calibration value.
 197:../../source/src/FWlib/src/stm32f10x_bkp.c ****   * @param  CalibrationValue: specifies the RTC Clock Calibration value.
 198:../../source/src/FWlib/src/stm32f10x_bkp.c ****   *   This parameter must be a number between 0 and 0x7F.
 199:../../source/src/FWlib/src/stm32f10x_bkp.c ****   * @retval None
 200:../../source/src/FWlib/src/stm32f10x_bkp.c ****   */
 201:../../source/src/FWlib/src/stm32f10x_bkp.c **** void BKP_SetRTCCalibrationValue(uint8_t CalibrationValue)
 202:../../source/src/FWlib/src/stm32f10x_bkp.c **** {
 278              		.loc 1 202 0
 279              		.cfi_startproc
 280              		@ args = 0, pretend = 0, frame = 16
 281              		@ frame_needed = 1, uses_anonymous_args = 0
 282              		@ link register save eliminated.
 283 00ac 80B4     		push	{r7}
 284              	.LCFI26:
 285              		.cfi_def_cfa_offset 4
 286              		.cfi_offset 7, -4
 287 00ae 85B0     		sub	sp, sp, #20
 288              	.LCFI27:
 289              		.cfi_def_cfa_offset 24
 290 00b0 00AF     		add	r7, sp, #0
 291              	.LCFI28:
 292              		.cfi_def_cfa_register 7
 293 00b2 0346     		mov	r3, r0
 294 00b4 FB71     		strb	r3, [r7, #7]
 203:../../source/src/FWlib/src/stm32f10x_bkp.c ****   uint16_t tmpreg = 0;
 295              		.loc 1 203 0
 296 00b6 0023     		movs	r3, #0
 297 00b8 FB81     		strh	r3, [r7, #14]	@ movhi
 204:../../source/src/FWlib/src/stm32f10x_bkp.c ****   /* Check the parameters */
 205:../../source/src/FWlib/src/stm32f10x_bkp.c ****   assert_param(IS_BKP_CALIBRATION_VALUE(CalibrationValue));
 206:../../source/src/FWlib/src/stm32f10x_bkp.c ****   tmpreg = BKP->RTCCR;
 298              		.loc 1 206 0
 299 00ba 0A4B     		ldr	r3, .L15
 300 00bc 9B8D     		ldrh	r3, [r3, #44]	@ movhi
 301 00be FB81     		strh	r3, [r7, #14]	@ movhi
 207:../../source/src/FWlib/src/stm32f10x_bkp.c ****   /* Clear CAL[6:0] bits */
 208:../../source/src/FWlib/src/stm32f10x_bkp.c ****   tmpreg &= RTCCR_CAL_MASK;
 302              		.loc 1 208 0
 303 00c0 FB89     		ldrh	r3, [r7, #14]	@ movhi
 304 00c2 23F07F03 		bic	r3, r3, #127
 305 00c6 FB81     		strh	r3, [r7, #14]	@ movhi
ARM GAS  G:\Users\Jaxb\AppData\Local\Temp\ccVwt5n8.s 			page 10


 209:../../source/src/FWlib/src/stm32f10x_bkp.c ****   /* Set CAL[6:0] bits according to CalibrationValue value */
 210:../../source/src/FWlib/src/stm32f10x_bkp.c ****   tmpreg |= CalibrationValue;
 306              		.loc 1 210 0
 307 00c8 FB79     		ldrb	r3, [r7, #7]	@ zero_extendqisi2
 308 00ca 9AB2     		uxth	r2, r3
 309 00cc FB89     		ldrh	r3, [r7, #14]	@ movhi
 310 00ce 1343     		orrs	r3, r3, r2
 311 00d0 FB81     		strh	r3, [r7, #14]	@ movhi
 211:../../source/src/FWlib/src/stm32f10x_bkp.c ****   /* Store the new value */
 212:../../source/src/FWlib/src/stm32f10x_bkp.c ****   BKP->RTCCR = tmpreg;
 312              		.loc 1 212 0
 313 00d2 044A     		ldr	r2, .L15
 314 00d4 FB89     		ldrh	r3, [r7, #14]	@ movhi
 315 00d6 9385     		strh	r3, [r2, #44]	@ movhi
 213:../../source/src/FWlib/src/stm32f10x_bkp.c **** }
 316              		.loc 1 213 0
 317 00d8 00BF     		nop
 318 00da 1437     		adds	r7, r7, #20
 319              	.LCFI29:
 320              		.cfi_def_cfa_offset 4
 321 00dc BD46     		mov	sp, r7
 322              	.LCFI30:
 323              		.cfi_def_cfa_register 13
 324              		@ sp needed
 325 00de 80BC     		pop	{r7}
 326              	.LCFI31:
 327              		.cfi_restore 7
 328              		.cfi_def_cfa_offset 0
 329 00e0 7047     		bx	lr
 330              	.L16:
 331 00e2 00BF     		.align	2
 332              	.L15:
 333 00e4 006C0040 		.word	1073769472
 334              		.cfi_endproc
 335              	.LFE34:
 336              		.size	BKP_SetRTCCalibrationValue, .-BKP_SetRTCCalibrationValue
 337              		.align	1
 338              		.global	BKP_WriteBackupRegister
 339              		.syntax unified
 340              		.thumb
 341              		.thumb_func
 342              		.fpu softvfp
 343              		.type	BKP_WriteBackupRegister, %function
 344              	BKP_WriteBackupRegister:
 345              	.LFB35:
 214:../../source/src/FWlib/src/stm32f10x_bkp.c **** 
 215:../../source/src/FWlib/src/stm32f10x_bkp.c **** /**
 216:../../source/src/FWlib/src/stm32f10x_bkp.c ****   * @brief  Writes user data to the specified Data Backup Register.
 217:../../source/src/FWlib/src/stm32f10x_bkp.c ****   * @param  BKP_DR: specifies the Data Backup Register.
 218:../../source/src/FWlib/src/stm32f10x_bkp.c ****   *   This parameter can be BKP_DRx where x:[1, 42]
 219:../../source/src/FWlib/src/stm32f10x_bkp.c ****   * @param  Data: data to write
 220:../../source/src/FWlib/src/stm32f10x_bkp.c ****   * @retval None
 221:../../source/src/FWlib/src/stm32f10x_bkp.c ****   */
 222:../../source/src/FWlib/src/stm32f10x_bkp.c **** void BKP_WriteBackupRegister(uint16_t BKP_DR, uint16_t Data)
 223:../../source/src/FWlib/src/stm32f10x_bkp.c **** {
 346              		.loc 1 223 0
 347              		.cfi_startproc
ARM GAS  G:\Users\Jaxb\AppData\Local\Temp\ccVwt5n8.s 			page 11


 348              		@ args = 0, pretend = 0, frame = 16
 349              		@ frame_needed = 1, uses_anonymous_args = 0
 350              		@ link register save eliminated.
 351 00e8 80B4     		push	{r7}
 352              	.LCFI32:
 353              		.cfi_def_cfa_offset 4
 354              		.cfi_offset 7, -4
 355 00ea 85B0     		sub	sp, sp, #20
 356              	.LCFI33:
 357              		.cfi_def_cfa_offset 24
 358 00ec 00AF     		add	r7, sp, #0
 359              	.LCFI34:
 360              		.cfi_def_cfa_register 7
 361 00ee 0346     		mov	r3, r0
 362 00f0 0A46     		mov	r2, r1
 363 00f2 FB80     		strh	r3, [r7, #6]	@ movhi
 364 00f4 1346     		mov	r3, r2	@ movhi
 365 00f6 BB80     		strh	r3, [r7, #4]	@ movhi
 224:../../source/src/FWlib/src/stm32f10x_bkp.c ****   __IO uint32_t tmp = 0;
 366              		.loc 1 224 0
 367 00f8 0023     		movs	r3, #0
 368 00fa FB60     		str	r3, [r7, #12]
 225:../../source/src/FWlib/src/stm32f10x_bkp.c **** 
 226:../../source/src/FWlib/src/stm32f10x_bkp.c ****   /* Check the parameters */
 227:../../source/src/FWlib/src/stm32f10x_bkp.c ****   assert_param(IS_BKP_DR(BKP_DR));
 228:../../source/src/FWlib/src/stm32f10x_bkp.c **** 
 229:../../source/src/FWlib/src/stm32f10x_bkp.c ****   tmp = (uint32_t)BKP_BASE; 
 369              		.loc 1 229 0
 370 00fc 074B     		ldr	r3, .L18
 371 00fe FB60     		str	r3, [r7, #12]
 230:../../source/src/FWlib/src/stm32f10x_bkp.c ****   tmp += BKP_DR;
 372              		.loc 1 230 0
 373 0100 FA88     		ldrh	r2, [r7, #6]
 374 0102 FB68     		ldr	r3, [r7, #12]
 375 0104 1344     		add	r3, r3, r2
 376 0106 FB60     		str	r3, [r7, #12]
 231:../../source/src/FWlib/src/stm32f10x_bkp.c **** 
 232:../../source/src/FWlib/src/stm32f10x_bkp.c ****   *(__IO uint32_t *) tmp = Data;
 377              		.loc 1 232 0
 378 0108 FB68     		ldr	r3, [r7, #12]
 379 010a 1A46     		mov	r2, r3
 380 010c BB88     		ldrh	r3, [r7, #4]
 381 010e 1360     		str	r3, [r2]
 233:../../source/src/FWlib/src/stm32f10x_bkp.c **** }
 382              		.loc 1 233 0
 383 0110 00BF     		nop
 384 0112 1437     		adds	r7, r7, #20
 385              	.LCFI35:
 386              		.cfi_def_cfa_offset 4
 387 0114 BD46     		mov	sp, r7
 388              	.LCFI36:
 389              		.cfi_def_cfa_register 13
 390              		@ sp needed
 391 0116 80BC     		pop	{r7}
 392              	.LCFI37:
 393              		.cfi_restore 7
 394              		.cfi_def_cfa_offset 0
ARM GAS  G:\Users\Jaxb\AppData\Local\Temp\ccVwt5n8.s 			page 12


 395 0118 7047     		bx	lr
 396              	.L19:
 397 011a 00BF     		.align	2
 398              	.L18:
 399 011c 006C0040 		.word	1073769472
 400              		.cfi_endproc
 401              	.LFE35:
 402              		.size	BKP_WriteBackupRegister, .-BKP_WriteBackupRegister
 403              		.align	1
 404              		.global	BKP_ReadBackupRegister
 405              		.syntax unified
 406              		.thumb
 407              		.thumb_func
 408              		.fpu softvfp
 409              		.type	BKP_ReadBackupRegister, %function
 410              	BKP_ReadBackupRegister:
 411              	.LFB36:
 234:../../source/src/FWlib/src/stm32f10x_bkp.c **** 
 235:../../source/src/FWlib/src/stm32f10x_bkp.c **** /**
 236:../../source/src/FWlib/src/stm32f10x_bkp.c ****   * @brief  Reads data from the specified Data Backup Register.
 237:../../source/src/FWlib/src/stm32f10x_bkp.c ****   * @param  BKP_DR: specifies the Data Backup Register.
 238:../../source/src/FWlib/src/stm32f10x_bkp.c ****   *   This parameter can be BKP_DRx where x:[1, 42]
 239:../../source/src/FWlib/src/stm32f10x_bkp.c ****   * @retval The content of the specified Data Backup Register
 240:../../source/src/FWlib/src/stm32f10x_bkp.c ****   */
 241:../../source/src/FWlib/src/stm32f10x_bkp.c **** uint16_t BKP_ReadBackupRegister(uint16_t BKP_DR)
 242:../../source/src/FWlib/src/stm32f10x_bkp.c **** {
 412              		.loc 1 242 0
 413              		.cfi_startproc
 414              		@ args = 0, pretend = 0, frame = 16
 415              		@ frame_needed = 1, uses_anonymous_args = 0
 416              		@ link register save eliminated.
 417 0120 80B4     		push	{r7}
 418              	.LCFI38:
 419              		.cfi_def_cfa_offset 4
 420              		.cfi_offset 7, -4
 421 0122 85B0     		sub	sp, sp, #20
 422              	.LCFI39:
 423              		.cfi_def_cfa_offset 24
 424 0124 00AF     		add	r7, sp, #0
 425              	.LCFI40:
 426              		.cfi_def_cfa_register 7
 427 0126 0346     		mov	r3, r0
 428 0128 FB80     		strh	r3, [r7, #6]	@ movhi
 243:../../source/src/FWlib/src/stm32f10x_bkp.c ****   __IO uint32_t tmp = 0;
 429              		.loc 1 243 0
 430 012a 0023     		movs	r3, #0
 431 012c FB60     		str	r3, [r7, #12]
 244:../../source/src/FWlib/src/stm32f10x_bkp.c **** 
 245:../../source/src/FWlib/src/stm32f10x_bkp.c ****   /* Check the parameters */
 246:../../source/src/FWlib/src/stm32f10x_bkp.c ****   assert_param(IS_BKP_DR(BKP_DR));
 247:../../source/src/FWlib/src/stm32f10x_bkp.c **** 
 248:../../source/src/FWlib/src/stm32f10x_bkp.c ****   tmp = (uint32_t)BKP_BASE; 
 432              		.loc 1 248 0
 433 012e 074B     		ldr	r3, .L22
 434 0130 FB60     		str	r3, [r7, #12]
 249:../../source/src/FWlib/src/stm32f10x_bkp.c ****   tmp += BKP_DR;
 435              		.loc 1 249 0
ARM GAS  G:\Users\Jaxb\AppData\Local\Temp\ccVwt5n8.s 			page 13


 436 0132 FA88     		ldrh	r2, [r7, #6]
 437 0134 FB68     		ldr	r3, [r7, #12]
 438 0136 1344     		add	r3, r3, r2
 439 0138 FB60     		str	r3, [r7, #12]
 250:../../source/src/FWlib/src/stm32f10x_bkp.c **** 
 251:../../source/src/FWlib/src/stm32f10x_bkp.c ****   return (*(__IO uint16_t *) tmp);
 440              		.loc 1 251 0
 441 013a FB68     		ldr	r3, [r7, #12]
 442 013c 1B88     		ldrh	r3, [r3]	@ movhi
 443 013e 9BB2     		uxth	r3, r3
 252:../../source/src/FWlib/src/stm32f10x_bkp.c **** }
 444              		.loc 1 252 0
 445 0140 1846     		mov	r0, r3
 446 0142 1437     		adds	r7, r7, #20
 447              	.LCFI41:
 448              		.cfi_def_cfa_offset 4
 449 0144 BD46     		mov	sp, r7
 450              	.LCFI42:
 451              		.cfi_def_cfa_register 13
 452              		@ sp needed
 453 0146 80BC     		pop	{r7}
 454              	.LCFI43:
 455              		.cfi_restore 7
 456              		.cfi_def_cfa_offset 0
 457 0148 7047     		bx	lr
 458              	.L23:
 459 014a 00BF     		.align	2
 460              	.L22:
 461 014c 006C0040 		.word	1073769472
 462              		.cfi_endproc
 463              	.LFE36:
 464              		.size	BKP_ReadBackupRegister, .-BKP_ReadBackupRegister
 465              		.align	1
 466              		.global	BKP_GetFlagStatus
 467              		.syntax unified
 468              		.thumb
 469              		.thumb_func
 470              		.fpu softvfp
 471              		.type	BKP_GetFlagStatus, %function
 472              	BKP_GetFlagStatus:
 473              	.LFB37:
 253:../../source/src/FWlib/src/stm32f10x_bkp.c **** 
 254:../../source/src/FWlib/src/stm32f10x_bkp.c **** /**
 255:../../source/src/FWlib/src/stm32f10x_bkp.c ****   * @brief  Checks whether the Tamper Pin Event flag is set or not.
 256:../../source/src/FWlib/src/stm32f10x_bkp.c ****   * @param  None
 257:../../source/src/FWlib/src/stm32f10x_bkp.c ****   * @retval The new state of the Tamper Pin Event flag (SET or RESET).
 258:../../source/src/FWlib/src/stm32f10x_bkp.c ****   */
 259:../../source/src/FWlib/src/stm32f10x_bkp.c **** FlagStatus BKP_GetFlagStatus(void)
 260:../../source/src/FWlib/src/stm32f10x_bkp.c **** {
 474              		.loc 1 260 0
 475              		.cfi_startproc
 476              		@ args = 0, pretend = 0, frame = 0
 477              		@ frame_needed = 1, uses_anonymous_args = 0
 478              		@ link register save eliminated.
 479 0150 80B4     		push	{r7}
 480              	.LCFI44:
 481              		.cfi_def_cfa_offset 4
ARM GAS  G:\Users\Jaxb\AppData\Local\Temp\ccVwt5n8.s 			page 14


 482              		.cfi_offset 7, -4
 483 0152 00AF     		add	r7, sp, #0
 484              	.LCFI45:
 485              		.cfi_def_cfa_register 7
 261:../../source/src/FWlib/src/stm32f10x_bkp.c ****   return (FlagStatus)(*(__IO uint32_t *) CSR_TEF_BB);
 486              		.loc 1 261 0
 487 0154 034B     		ldr	r3, .L26
 488 0156 1B68     		ldr	r3, [r3]
 489 0158 DBB2     		uxtb	r3, r3
 262:../../source/src/FWlib/src/stm32f10x_bkp.c **** }
 490              		.loc 1 262 0
 491 015a 1846     		mov	r0, r3
 492 015c BD46     		mov	sp, r7
 493              	.LCFI46:
 494              		.cfi_def_cfa_register 13
 495              		@ sp needed
 496 015e 80BC     		pop	{r7}
 497              	.LCFI47:
 498              		.cfi_restore 7
 499              		.cfi_def_cfa_offset 0
 500 0160 7047     		bx	lr
 501              	.L27:
 502 0162 00BF     		.align	2
 503              	.L26:
 504 0164 A0860D42 		.word	1108182688
 505              		.cfi_endproc
 506              	.LFE37:
 507              		.size	BKP_GetFlagStatus, .-BKP_GetFlagStatus
 508              		.align	1
 509              		.global	BKP_ClearFlag
 510              		.syntax unified
 511              		.thumb
 512              		.thumb_func
 513              		.fpu softvfp
 514              		.type	BKP_ClearFlag, %function
 515              	BKP_ClearFlag:
 516              	.LFB38:
 263:../../source/src/FWlib/src/stm32f10x_bkp.c **** 
 264:../../source/src/FWlib/src/stm32f10x_bkp.c **** /**
 265:../../source/src/FWlib/src/stm32f10x_bkp.c ****   * @brief  Clears Tamper Pin Event pending flag.
 266:../../source/src/FWlib/src/stm32f10x_bkp.c ****   * @param  None
 267:../../source/src/FWlib/src/stm32f10x_bkp.c ****   * @retval None
 268:../../source/src/FWlib/src/stm32f10x_bkp.c ****   */
 269:../../source/src/FWlib/src/stm32f10x_bkp.c **** void BKP_ClearFlag(void)
 270:../../source/src/FWlib/src/stm32f10x_bkp.c **** {
 517              		.loc 1 270 0
 518              		.cfi_startproc
 519              		@ args = 0, pretend = 0, frame = 0
 520              		@ frame_needed = 1, uses_anonymous_args = 0
 521              		@ link register save eliminated.
 522 0168 80B4     		push	{r7}
 523              	.LCFI48:
 524              		.cfi_def_cfa_offset 4
 525              		.cfi_offset 7, -4
 526 016a 00AF     		add	r7, sp, #0
 527              	.LCFI49:
 528              		.cfi_def_cfa_register 7
ARM GAS  G:\Users\Jaxb\AppData\Local\Temp\ccVwt5n8.s 			page 15


 271:../../source/src/FWlib/src/stm32f10x_bkp.c ****   /* Set CTE bit to clear Tamper Pin Event flag */
 272:../../source/src/FWlib/src/stm32f10x_bkp.c ****   BKP->CSR |= BKP_CSR_CTE;
 529              		.loc 1 272 0
 530 016c 054B     		ldr	r3, .L29
 531 016e 9B8E     		ldrh	r3, [r3, #52]	@ movhi
 532 0170 9BB2     		uxth	r3, r3
 533 0172 044A     		ldr	r2, .L29
 534 0174 43F00103 		orr	r3, r3, #1
 535 0178 9BB2     		uxth	r3, r3
 536 017a 9386     		strh	r3, [r2, #52]	@ movhi
 273:../../source/src/FWlib/src/stm32f10x_bkp.c **** }
 537              		.loc 1 273 0
 538 017c 00BF     		nop
 539 017e BD46     		mov	sp, r7
 540              	.LCFI50:
 541              		.cfi_def_cfa_register 13
 542              		@ sp needed
 543 0180 80BC     		pop	{r7}
 544              	.LCFI51:
 545              		.cfi_restore 7
 546              		.cfi_def_cfa_offset 0
 547 0182 7047     		bx	lr
 548              	.L30:
 549              		.align	2
 550              	.L29:
 551 0184 006C0040 		.word	1073769472
 552              		.cfi_endproc
 553              	.LFE38:
 554              		.size	BKP_ClearFlag, .-BKP_ClearFlag
 555              		.align	1
 556              		.global	BKP_GetITStatus
 557              		.syntax unified
 558              		.thumb
 559              		.thumb_func
 560              		.fpu softvfp
 561              		.type	BKP_GetITStatus, %function
 562              	BKP_GetITStatus:
 563              	.LFB39:
 274:../../source/src/FWlib/src/stm32f10x_bkp.c **** 
 275:../../source/src/FWlib/src/stm32f10x_bkp.c **** /**
 276:../../source/src/FWlib/src/stm32f10x_bkp.c ****   * @brief  Checks whether the Tamper Pin Interrupt has occurred or not.
 277:../../source/src/FWlib/src/stm32f10x_bkp.c ****   * @param  None
 278:../../source/src/FWlib/src/stm32f10x_bkp.c ****   * @retval The new state of the Tamper Pin Interrupt (SET or RESET).
 279:../../source/src/FWlib/src/stm32f10x_bkp.c ****   */
 280:../../source/src/FWlib/src/stm32f10x_bkp.c **** ITStatus BKP_GetITStatus(void)
 281:../../source/src/FWlib/src/stm32f10x_bkp.c **** {
 564              		.loc 1 281 0
 565              		.cfi_startproc
 566              		@ args = 0, pretend = 0, frame = 0
 567              		@ frame_needed = 1, uses_anonymous_args = 0
 568              		@ link register save eliminated.
 569 0188 80B4     		push	{r7}
 570              	.LCFI52:
 571              		.cfi_def_cfa_offset 4
 572              		.cfi_offset 7, -4
 573 018a 00AF     		add	r7, sp, #0
 574              	.LCFI53:
ARM GAS  G:\Users\Jaxb\AppData\Local\Temp\ccVwt5n8.s 			page 16


 575              		.cfi_def_cfa_register 7
 282:../../source/src/FWlib/src/stm32f10x_bkp.c ****   return (ITStatus)(*(__IO uint32_t *) CSR_TIF_BB);
 576              		.loc 1 282 0
 577 018c 034B     		ldr	r3, .L33
 578 018e 1B68     		ldr	r3, [r3]
 579 0190 DBB2     		uxtb	r3, r3
 283:../../source/src/FWlib/src/stm32f10x_bkp.c **** }
 580              		.loc 1 283 0
 581 0192 1846     		mov	r0, r3
 582 0194 BD46     		mov	sp, r7
 583              	.LCFI54:
 584              		.cfi_def_cfa_register 13
 585              		@ sp needed
 586 0196 80BC     		pop	{r7}
 587              	.LCFI55:
 588              		.cfi_restore 7
 589              		.cfi_def_cfa_offset 0
 590 0198 7047     		bx	lr
 591              	.L34:
 592 019a 00BF     		.align	2
 593              	.L33:
 594 019c A4860D42 		.word	1108182692
 595              		.cfi_endproc
 596              	.LFE39:
 597              		.size	BKP_GetITStatus, .-BKP_GetITStatus
 598              		.align	1
 599              		.global	BKP_ClearITPendingBit
 600              		.syntax unified
 601              		.thumb
 602              		.thumb_func
 603              		.fpu softvfp
 604              		.type	BKP_ClearITPendingBit, %function
 605              	BKP_ClearITPendingBit:
 606              	.LFB40:
 284:../../source/src/FWlib/src/stm32f10x_bkp.c **** 
 285:../../source/src/FWlib/src/stm32f10x_bkp.c **** /**
 286:../../source/src/FWlib/src/stm32f10x_bkp.c ****   * @brief  Clears Tamper Pin Interrupt pending bit.
 287:../../source/src/FWlib/src/stm32f10x_bkp.c ****   * @param  None
 288:../../source/src/FWlib/src/stm32f10x_bkp.c ****   * @retval None
 289:../../source/src/FWlib/src/stm32f10x_bkp.c ****   */
 290:../../source/src/FWlib/src/stm32f10x_bkp.c **** void BKP_ClearITPendingBit(void)
 291:../../source/src/FWlib/src/stm32f10x_bkp.c **** {
 607              		.loc 1 291 0
 608              		.cfi_startproc
 609              		@ args = 0, pretend = 0, frame = 0
 610              		@ frame_needed = 1, uses_anonymous_args = 0
 611              		@ link register save eliminated.
 612 01a0 80B4     		push	{r7}
 613              	.LCFI56:
 614              		.cfi_def_cfa_offset 4
 615              		.cfi_offset 7, -4
 616 01a2 00AF     		add	r7, sp, #0
 617              	.LCFI57:
 618              		.cfi_def_cfa_register 7
 292:../../source/src/FWlib/src/stm32f10x_bkp.c ****   /* Set CTI bit to clear Tamper Pin Interrupt pending bit */
 293:../../source/src/FWlib/src/stm32f10x_bkp.c ****   BKP->CSR |= BKP_CSR_CTI;
 619              		.loc 1 293 0
ARM GAS  G:\Users\Jaxb\AppData\Local\Temp\ccVwt5n8.s 			page 17


 620 01a4 054B     		ldr	r3, .L36
 621 01a6 9B8E     		ldrh	r3, [r3, #52]	@ movhi
 622 01a8 9BB2     		uxth	r3, r3
 623 01aa 044A     		ldr	r2, .L36
 624 01ac 43F00203 		orr	r3, r3, #2
 625 01b0 9BB2     		uxth	r3, r3
 626 01b2 9386     		strh	r3, [r2, #52]	@ movhi
 294:../../source/src/FWlib/src/stm32f10x_bkp.c **** }
 627              		.loc 1 294 0
 628 01b4 00BF     		nop
 629 01b6 BD46     		mov	sp, r7
 630              	.LCFI58:
 631              		.cfi_def_cfa_register 13
 632              		@ sp needed
 633 01b8 80BC     		pop	{r7}
 634              	.LCFI59:
 635              		.cfi_restore 7
 636              		.cfi_def_cfa_offset 0
 637 01ba 7047     		bx	lr
 638              	.L37:
 639              		.align	2
 640              	.L36:
 641 01bc 006C0040 		.word	1073769472
 642              		.cfi_endproc
 643              	.LFE40:
 644              		.size	BKP_ClearITPendingBit, .-BKP_ClearITPendingBit
 645              	.Letext0:
 646              		.file 2 "f:\\arm\\gcc2018\\arm-none-eabi\\include\\machine\\_default_types.h"
 647              		.file 3 "f:\\arm\\gcc2018\\arm-none-eabi\\include\\sys\\_stdint.h"
 648              		.file 4 "../../source/include/core_cm3.h"
 649              		.file 5 "../../source/include/system_stm32f10x.h"
 650              		.file 6 "../../source/include/stm32f10x.h"
 651              		.section	.debug_info,"",%progbits
 652              	.Ldebug_info0:
 653 0000 AB080000 		.4byte	0x8ab
 654 0004 0200     		.2byte	0x2
 655 0006 00000000 		.4byte	.Ldebug_abbrev0
 656 000a 04       		.byte	0x4
 657 000b 01       		.uleb128 0x1
 658 000c EF010000 		.4byte	.LASF122
 659 0010 0C       		.byte	0xc
 660 0011 95020000 		.4byte	.LASF123
 661 0015 1C000000 		.4byte	.LASF124
 662 0019 00000000 		.4byte	.Ltext0
 663 001d C0010000 		.4byte	.Letext0
 664 0021 00000000 		.4byte	.Ldebug_line0
 665 0025 02       		.uleb128 0x2
 666 0026 01       		.byte	0x1
 667 0027 06       		.byte	0x6
 668 0028 EA040000 		.4byte	.LASF0
 669 002c 03       		.uleb128 0x3
 670 002d 11040000 		.4byte	.LASF3
 671 0031 02       		.byte	0x2
 672 0032 2B       		.byte	0x2b
 673 0033 37000000 		.4byte	0x37
 674 0037 02       		.uleb128 0x2
 675 0038 01       		.byte	0x1
ARM GAS  G:\Users\Jaxb\AppData\Local\Temp\ccVwt5n8.s 			page 18


 676 0039 08       		.byte	0x8
 677 003a 50040000 		.4byte	.LASF1
 678 003e 02       		.uleb128 0x2
 679 003f 02       		.byte	0x2
 680 0040 05       		.byte	0x5
 681 0041 8F030000 		.4byte	.LASF2
 682 0045 03       		.uleb128 0x3
 683 0046 03010000 		.4byte	.LASF4
 684 004a 02       		.byte	0x2
 685 004b 39       		.byte	0x39
 686 004c 50000000 		.4byte	0x50
 687 0050 02       		.uleb128 0x2
 688 0051 02       		.byte	0x2
 689 0052 07       		.byte	0x7
 690 0053 F6040000 		.4byte	.LASF5
 691 0057 02       		.uleb128 0x2
 692 0058 04       		.byte	0x4
 693 0059 05       		.byte	0x5
 694 005a AD030000 		.4byte	.LASF6
 695 005e 03       		.uleb128 0x3
 696 005f 5E040000 		.4byte	.LASF7
 697 0063 02       		.byte	0x2
 698 0064 4F       		.byte	0x4f
 699 0065 69000000 		.4byte	0x69
 700 0069 02       		.uleb128 0x2
 701 006a 04       		.byte	0x4
 702 006b 07       		.byte	0x7
 703 006c 3E040000 		.4byte	.LASF8
 704 0070 02       		.uleb128 0x2
 705 0071 08       		.byte	0x8
 706 0072 05       		.byte	0x5
 707 0073 B3010000 		.4byte	.LASF9
 708 0077 02       		.uleb128 0x2
 709 0078 08       		.byte	0x8
 710 0079 07       		.byte	0x7
 711 007a EC000000 		.4byte	.LASF10
 712 007e 04       		.uleb128 0x4
 713 007f 04       		.byte	0x4
 714 0080 05       		.byte	0x5
 715 0081 696E7400 		.ascii	"int\000"
 716 0085 05       		.uleb128 0x5
 717 0086 7E000000 		.4byte	0x7e
 718 008a 02       		.uleb128 0x2
 719 008b 04       		.byte	0x4
 720 008c 07       		.byte	0x7
 721 008d 81000000 		.4byte	.LASF11
 722 0091 03       		.uleb128 0x3
 723 0092 7E010000 		.4byte	.LASF12
 724 0096 03       		.byte	0x3
 725 0097 18       		.byte	0x18
 726 0098 2C000000 		.4byte	0x2c
 727 009c 03       		.uleb128 0x3
 728 009d 03030000 		.4byte	.LASF13
 729 00a1 03       		.byte	0x3
 730 00a2 24       		.byte	0x24
 731 00a3 45000000 		.4byte	0x45
 732 00a7 05       		.uleb128 0x5
ARM GAS  G:\Users\Jaxb\AppData\Local\Temp\ccVwt5n8.s 			page 19


 733 00a8 9C000000 		.4byte	0x9c
 734 00ac 03       		.uleb128 0x3
 735 00ad C1000000 		.4byte	.LASF14
 736 00b1 03       		.byte	0x3
 737 00b2 30       		.byte	0x30
 738 00b3 5E000000 		.4byte	0x5e
 739 00b7 05       		.uleb128 0x5
 740 00b8 AC000000 		.4byte	0xac
 741 00bc 06       		.uleb128 0x6
 742 00bd B6030000 		.4byte	.LASF15
 743 00c1 04       		.byte	0x4
 744 00c2 CE06     		.2byte	0x6ce
 745 00c4 85000000 		.4byte	0x85
 746 00c8 01       		.byte	0x1
 747 00c9 01       		.byte	0x1
 748 00ca 07       		.uleb128 0x7
 749 00cb 00000000 		.4byte	.LASF16
 750 00cf 05       		.byte	0x5
 751 00d0 35       		.byte	0x35
 752 00d1 AC000000 		.4byte	0xac
 753 00d5 01       		.byte	0x1
 754 00d6 01       		.byte	0x1
 755 00d7 08       		.uleb128 0x8
 756 00d8 07       		.byte	0x7
 757 00d9 01       		.byte	0x1
 758 00da 37000000 		.4byte	0x37
 759 00de 06       		.byte	0x6
 760 00df 0702     		.2byte	0x207
 761 00e1 F2000000 		.4byte	0xf2
 762 00e5 09       		.uleb128 0x9
 763 00e6 C3030000 		.4byte	.LASF17
 764 00ea 00       		.byte	0
 765 00eb 0A       		.uleb128 0xa
 766 00ec 53455400 		.ascii	"SET\000"
 767 00f0 01       		.byte	0x1
 768 00f1 00       		.byte	0
 769 00f2 0B       		.uleb128 0xb
 770 00f3 A5000000 		.4byte	.LASF18
 771 00f7 06       		.byte	0x6
 772 00f8 0702     		.2byte	0x207
 773 00fa D7000000 		.4byte	0xd7
 774 00fe 0B       		.uleb128 0xb
 775 00ff 32010000 		.4byte	.LASF19
 776 0103 06       		.byte	0x6
 777 0104 0702     		.2byte	0x207
 778 0106 D7000000 		.4byte	0xd7
 779 010a 08       		.uleb128 0x8
 780 010b 07       		.byte	0x7
 781 010c 01       		.byte	0x1
 782 010d 37000000 		.4byte	0x37
 783 0111 06       		.byte	0x6
 784 0112 0902     		.2byte	0x209
 785 0114 25010000 		.4byte	0x125
 786 0118 09       		.uleb128 0x9
 787 0119 68010000 		.4byte	.LASF20
 788 011d 00       		.byte	0
 789 011e 09       		.uleb128 0x9
ARM GAS  G:\Users\Jaxb\AppData\Local\Temp\ccVwt5n8.s 			page 20


 790 011f 28040000 		.4byte	.LASF21
 791 0123 01       		.byte	0x1
 792 0124 00       		.byte	0
 793 0125 0B       		.uleb128 0xb
 794 0126 8E000000 		.4byte	.LASF22
 795 012a 06       		.byte	0x6
 796 012b 0902     		.2byte	0x209
 797 012d 0A010000 		.4byte	0x10a
 798 0131 0C       		.uleb128 0xc
 799 0132 C0       		.byte	0xc0
 800 0133 06       		.byte	0x6
 801 0134 3A02     		.2byte	0x23a
 802 0136 AF060000 		.4byte	0x6af
 803 013a 0D       		.uleb128 0xd
 804 013b 49030000 		.4byte	.LASF23
 805 013f 06       		.byte	0x6
 806 0140 3C02     		.2byte	0x23c
 807 0142 AC000000 		.4byte	0xac
 808 0146 02       		.byte	0x2
 809 0147 23       		.byte	0x23
 810 0148 00       		.uleb128 0
 811 0149 0E       		.uleb128 0xe
 812 014a 44523100 		.ascii	"DR1\000"
 813 014e 06       		.byte	0x6
 814 014f 3D02     		.2byte	0x23d
 815 0151 A7000000 		.4byte	0xa7
 816 0155 02       		.byte	0x2
 817 0156 23       		.byte	0x23
 818 0157 04       		.uleb128 0x4
 819 0158 0D       		.uleb128 0xd
 820 0159 53030000 		.4byte	.LASF24
 821 015d 06       		.byte	0x6
 822 015e 3E02     		.2byte	0x23e
 823 0160 9C000000 		.4byte	0x9c
 824 0164 02       		.byte	0x2
 825 0165 23       		.byte	0x23
 826 0166 06       		.uleb128 0x6
 827 0167 0E       		.uleb128 0xe
 828 0168 44523200 		.ascii	"DR2\000"
 829 016c 06       		.byte	0x6
 830 016d 3F02     		.2byte	0x23f
 831 016f A7000000 		.4byte	0xa7
 832 0173 02       		.byte	0x2
 833 0174 23       		.byte	0x23
 834 0175 08       		.uleb128 0x8
 835 0176 0D       		.uleb128 0xd
 836 0177 5D030000 		.4byte	.LASF25
 837 017b 06       		.byte	0x6
 838 017c 4002     		.2byte	0x240
 839 017e 9C000000 		.4byte	0x9c
 840 0182 02       		.byte	0x2
 841 0183 23       		.byte	0x23
 842 0184 0A       		.uleb128 0xa
 843 0185 0E       		.uleb128 0xe
 844 0186 44523300 		.ascii	"DR3\000"
 845 018a 06       		.byte	0x6
 846 018b 4102     		.2byte	0x241
ARM GAS  G:\Users\Jaxb\AppData\Local\Temp\ccVwt5n8.s 			page 21


 847 018d A7000000 		.4byte	0xa7
 848 0191 02       		.byte	0x2
 849 0192 23       		.byte	0x23
 850 0193 0C       		.uleb128 0xc
 851 0194 0D       		.uleb128 0xd
 852 0195 67030000 		.4byte	.LASF26
 853 0199 06       		.byte	0x6
 854 019a 4202     		.2byte	0x242
 855 019c 9C000000 		.4byte	0x9c
 856 01a0 02       		.byte	0x2
 857 01a1 23       		.byte	0x23
 858 01a2 0E       		.uleb128 0xe
 859 01a3 0E       		.uleb128 0xe
 860 01a4 44523400 		.ascii	"DR4\000"
 861 01a8 06       		.byte	0x6
 862 01a9 4302     		.2byte	0x243
 863 01ab A7000000 		.4byte	0xa7
 864 01af 02       		.byte	0x2
 865 01b0 23       		.byte	0x23
 866 01b1 10       		.uleb128 0x10
 867 01b2 0D       		.uleb128 0xd
 868 01b3 71030000 		.4byte	.LASF27
 869 01b7 06       		.byte	0x6
 870 01b8 4402     		.2byte	0x244
 871 01ba 9C000000 		.4byte	0x9c
 872 01be 02       		.byte	0x2
 873 01bf 23       		.byte	0x23
 874 01c0 12       		.uleb128 0x12
 875 01c1 0E       		.uleb128 0xe
 876 01c2 44523500 		.ascii	"DR5\000"
 877 01c6 06       		.byte	0x6
 878 01c7 4502     		.2byte	0x245
 879 01c9 A7000000 		.4byte	0xa7
 880 01cd 02       		.byte	0x2
 881 01ce 23       		.byte	0x23
 882 01cf 14       		.uleb128 0x14
 883 01d0 0D       		.uleb128 0xd
 884 01d1 7B030000 		.4byte	.LASF28
 885 01d5 06       		.byte	0x6
 886 01d6 4602     		.2byte	0x246
 887 01d8 9C000000 		.4byte	0x9c
 888 01dc 02       		.byte	0x2
 889 01dd 23       		.byte	0x23
 890 01de 16       		.uleb128 0x16
 891 01df 0E       		.uleb128 0xe
 892 01e0 44523600 		.ascii	"DR6\000"
 893 01e4 06       		.byte	0x6
 894 01e5 4702     		.2byte	0x247
 895 01e7 A7000000 		.4byte	0xa7
 896 01eb 02       		.byte	0x2
 897 01ec 23       		.byte	0x23
 898 01ed 18       		.uleb128 0x18
 899 01ee 0D       		.uleb128 0xd
 900 01ef 85030000 		.4byte	.LASF29
 901 01f3 06       		.byte	0x6
 902 01f4 4802     		.2byte	0x248
 903 01f6 9C000000 		.4byte	0x9c
ARM GAS  G:\Users\Jaxb\AppData\Local\Temp\ccVwt5n8.s 			page 22


 904 01fa 02       		.byte	0x2
 905 01fb 23       		.byte	0x23
 906 01fc 1A       		.uleb128 0x1a
 907 01fd 0E       		.uleb128 0xe
 908 01fe 44523700 		.ascii	"DR7\000"
 909 0202 06       		.byte	0x6
 910 0203 4902     		.2byte	0x249
 911 0205 A7000000 		.4byte	0xa7
 912 0209 02       		.byte	0x2
 913 020a 23       		.byte	0x23
 914 020b 1C       		.uleb128 0x1c
 915 020c 0D       		.uleb128 0xd
 916 020d 77050000 		.4byte	.LASF30
 917 0211 06       		.byte	0x6
 918 0212 4A02     		.2byte	0x24a
 919 0214 9C000000 		.4byte	0x9c
 920 0218 02       		.byte	0x2
 921 0219 23       		.byte	0x23
 922 021a 1E       		.uleb128 0x1e
 923 021b 0E       		.uleb128 0xe
 924 021c 44523800 		.ascii	"DR8\000"
 925 0220 06       		.byte	0x6
 926 0221 4B02     		.2byte	0x24b
 927 0223 A7000000 		.4byte	0xa7
 928 0227 02       		.byte	0x2
 929 0228 23       		.byte	0x23
 930 0229 20       		.uleb128 0x20
 931 022a 0D       		.uleb128 0xd
 932 022b 99030000 		.4byte	.LASF31
 933 022f 06       		.byte	0x6
 934 0230 4C02     		.2byte	0x24c
 935 0232 9C000000 		.4byte	0x9c
 936 0236 02       		.byte	0x2
 937 0237 23       		.byte	0x23
 938 0238 22       		.uleb128 0x22
 939 0239 0E       		.uleb128 0xe
 940 023a 44523900 		.ascii	"DR9\000"
 941 023e 06       		.byte	0x6
 942 023f 4D02     		.2byte	0x24d
 943 0241 A7000000 		.4byte	0xa7
 944 0245 02       		.byte	0x2
 945 0246 23       		.byte	0x23
 946 0247 24       		.uleb128 0x24
 947 0248 0D       		.uleb128 0xd
 948 0249 A3030000 		.4byte	.LASF32
 949 024d 06       		.byte	0x6
 950 024e 4E02     		.2byte	0x24e
 951 0250 9C000000 		.4byte	0x9c
 952 0254 02       		.byte	0x2
 953 0255 23       		.byte	0x23
 954 0256 26       		.uleb128 0x26
 955 0257 0D       		.uleb128 0xd
 956 0258 C0020000 		.4byte	.LASF33
 957 025c 06       		.byte	0x6
 958 025d 4F02     		.2byte	0x24f
 959 025f A7000000 		.4byte	0xa7
 960 0263 02       		.byte	0x2
ARM GAS  G:\Users\Jaxb\AppData\Local\Temp\ccVwt5n8.s 			page 23


 961 0264 23       		.byte	0x23
 962 0265 28       		.uleb128 0x28
 963 0266 0D       		.uleb128 0xd
 964 0267 69040000 		.4byte	.LASF34
 965 026b 06       		.byte	0x6
 966 026c 5002     		.2byte	0x250
 967 026e 9C000000 		.4byte	0x9c
 968 0272 02       		.byte	0x2
 969 0273 23       		.byte	0x23
 970 0274 2A       		.uleb128 0x2a
 971 0275 0D       		.uleb128 0xd
 972 0276 CC040000 		.4byte	.LASF35
 973 027a 06       		.byte	0x6
 974 027b 5102     		.2byte	0x251
 975 027d A7000000 		.4byte	0xa7
 976 0281 02       		.byte	0x2
 977 0282 23       		.byte	0x23
 978 0283 2C       		.uleb128 0x2c
 979 0284 0D       		.uleb128 0xd
 980 0285 74040000 		.4byte	.LASF36
 981 0289 06       		.byte	0x6
 982 028a 5202     		.2byte	0x252
 983 028c 9C000000 		.4byte	0x9c
 984 0290 02       		.byte	0x2
 985 0291 23       		.byte	0x23
 986 0292 2E       		.uleb128 0x2e
 987 0293 0E       		.uleb128 0xe
 988 0294 435200   		.ascii	"CR\000"
 989 0297 06       		.byte	0x6
 990 0298 5302     		.2byte	0x253
 991 029a A7000000 		.4byte	0xa7
 992 029e 02       		.byte	0x2
 993 029f 23       		.byte	0x23
 994 02a0 30       		.uleb128 0x30
 995 02a1 0D       		.uleb128 0xd
 996 02a2 7F040000 		.4byte	.LASF37
 997 02a6 06       		.byte	0x6
 998 02a7 5402     		.2byte	0x254
 999 02a9 9C000000 		.4byte	0x9c
 1000 02ad 02       		.byte	0x2
 1001 02ae 23       		.byte	0x23
 1002 02af 32       		.uleb128 0x32
 1003 02b0 0E       		.uleb128 0xe
 1004 02b1 43535200 		.ascii	"CSR\000"
 1005 02b5 06       		.byte	0x6
 1006 02b6 5502     		.2byte	0x255
 1007 02b8 A7000000 		.4byte	0xa7
 1008 02bc 02       		.byte	0x2
 1009 02bd 23       		.byte	0x23
 1010 02be 34       		.uleb128 0x34
 1011 02bf 0D       		.uleb128 0xd
 1012 02c0 8A040000 		.4byte	.LASF38
 1013 02c4 06       		.byte	0x6
 1014 02c5 5602     		.2byte	0x256
 1015 02c7 AF060000 		.4byte	0x6af
 1016 02cb 02       		.byte	0x2
 1017 02cc 23       		.byte	0x23
ARM GAS  G:\Users\Jaxb\AppData\Local\Temp\ccVwt5n8.s 			page 24


 1018 02cd 36       		.uleb128 0x36
 1019 02ce 0D       		.uleb128 0xd
 1020 02cf C5020000 		.4byte	.LASF39
 1021 02d3 06       		.byte	0x6
 1022 02d4 5702     		.2byte	0x257
 1023 02d6 A7000000 		.4byte	0xa7
 1024 02da 02       		.byte	0x2
 1025 02db 23       		.byte	0x23
 1026 02dc 40       		.uleb128 0x40
 1027 02dd 0D       		.uleb128 0xd
 1028 02de 95040000 		.4byte	.LASF40
 1029 02e2 06       		.byte	0x6
 1030 02e3 5802     		.2byte	0x258
 1031 02e5 9C000000 		.4byte	0x9c
 1032 02e9 02       		.byte	0x2
 1033 02ea 23       		.byte	0x23
 1034 02eb 42       		.uleb128 0x42
 1035 02ec 0D       		.uleb128 0xd
 1036 02ed CA020000 		.4byte	.LASF41
 1037 02f1 06       		.byte	0x6
 1038 02f2 5902     		.2byte	0x259
 1039 02f4 A7000000 		.4byte	0xa7
 1040 02f8 02       		.byte	0x2
 1041 02f9 23       		.byte	0x23
 1042 02fa 44       		.uleb128 0x44
 1043 02fb 0D       		.uleb128 0xd
 1044 02fc 0E010000 		.4byte	.LASF42
 1045 0300 06       		.byte	0x6
 1046 0301 5A02     		.2byte	0x25a
 1047 0303 9C000000 		.4byte	0x9c
 1048 0307 02       		.byte	0x2
 1049 0308 23       		.byte	0x23
 1050 0309 46       		.uleb128 0x46
 1051 030a 0D       		.uleb128 0xd
 1052 030b CF020000 		.4byte	.LASF43
 1053 030f 06       		.byte	0x6
 1054 0310 5B02     		.2byte	0x25b
 1055 0312 A7000000 		.4byte	0xa7
 1056 0316 02       		.byte	0x2
 1057 0317 23       		.byte	0x23
 1058 0318 48       		.uleb128 0x48
 1059 0319 0D       		.uleb128 0xd
 1060 031a A0040000 		.4byte	.LASF44
 1061 031e 06       		.byte	0x6
 1062 031f 5C02     		.2byte	0x25c
 1063 0321 9C000000 		.4byte	0x9c
 1064 0325 02       		.byte	0x2
 1065 0326 23       		.byte	0x23
 1066 0327 4A       		.uleb128 0x4a
 1067 0328 0D       		.uleb128 0xd
 1068 0329 D4020000 		.4byte	.LASF45
 1069 032d 06       		.byte	0x6
 1070 032e 5D02     		.2byte	0x25d
 1071 0330 A7000000 		.4byte	0xa7
 1072 0334 02       		.byte	0x2
 1073 0335 23       		.byte	0x23
 1074 0336 4C       		.uleb128 0x4c
ARM GAS  G:\Users\Jaxb\AppData\Local\Temp\ccVwt5n8.s 			page 25


 1075 0337 0D       		.uleb128 0xd
 1076 0338 AB040000 		.4byte	.LASF46
 1077 033c 06       		.byte	0x6
 1078 033d 5E02     		.2byte	0x25e
 1079 033f 9C000000 		.4byte	0x9c
 1080 0343 02       		.byte	0x2
 1081 0344 23       		.byte	0x23
 1082 0345 4E       		.uleb128 0x4e
 1083 0346 0D       		.uleb128 0xd
 1084 0347 D9020000 		.4byte	.LASF47
 1085 034b 06       		.byte	0x6
 1086 034c 5F02     		.2byte	0x25f
 1087 034e A7000000 		.4byte	0xa7
 1088 0352 02       		.byte	0x2
 1089 0353 23       		.byte	0x23
 1090 0354 50       		.uleb128 0x50
 1091 0355 0D       		.uleb128 0xd
 1092 0356 B6040000 		.4byte	.LASF48
 1093 035a 06       		.byte	0x6
 1094 035b 6002     		.2byte	0x260
 1095 035d 9C000000 		.4byte	0x9c
 1096 0361 02       		.byte	0x2
 1097 0362 23       		.byte	0x23
 1098 0363 52       		.uleb128 0x52
 1099 0364 0D       		.uleb128 0xd
 1100 0365 DE020000 		.4byte	.LASF49
 1101 0369 06       		.byte	0x6
 1102 036a 6102     		.2byte	0x261
 1103 036c A7000000 		.4byte	0xa7
 1104 0370 02       		.byte	0x2
 1105 0371 23       		.byte	0x23
 1106 0372 54       		.uleb128 0x54
 1107 0373 0D       		.uleb128 0xd
 1108 0374 C1040000 		.4byte	.LASF50
 1109 0378 06       		.byte	0x6
 1110 0379 6202     		.2byte	0x262
 1111 037b 9C000000 		.4byte	0x9c
 1112 037f 02       		.byte	0x2
 1113 0380 23       		.byte	0x23
 1114 0381 56       		.uleb128 0x56
 1115 0382 0D       		.uleb128 0xd
 1116 0383 E3020000 		.4byte	.LASF51
 1117 0387 06       		.byte	0x6
 1118 0388 6302     		.2byte	0x263
 1119 038a A7000000 		.4byte	0xa7
 1120 038e 02       		.byte	0x2
 1121 038f 23       		.byte	0x23
 1122 0390 58       		.uleb128 0x58
 1123 0391 0D       		.uleb128 0xd
 1124 0392 09050000 		.4byte	.LASF52
 1125 0396 06       		.byte	0x6
 1126 0397 6402     		.2byte	0x264
 1127 0399 9C000000 		.4byte	0x9c
 1128 039d 02       		.byte	0x2
 1129 039e 23       		.byte	0x23
 1130 039f 5A       		.uleb128 0x5a
 1131 03a0 0D       		.uleb128 0xd
ARM GAS  G:\Users\Jaxb\AppData\Local\Temp\ccVwt5n8.s 			page 26


 1132 03a1 E8020000 		.4byte	.LASF53
 1133 03a5 06       		.byte	0x6
 1134 03a6 6502     		.2byte	0x265
 1135 03a8 A7000000 		.4byte	0xa7
 1136 03ac 02       		.byte	0x2
 1137 03ad 23       		.byte	0x23
 1138 03ae 5C       		.uleb128 0x5c
 1139 03af 0D       		.uleb128 0xd
 1140 03b0 14050000 		.4byte	.LASF54
 1141 03b4 06       		.byte	0x6
 1142 03b5 6602     		.2byte	0x266
 1143 03b7 9C000000 		.4byte	0x9c
 1144 03bb 02       		.byte	0x2
 1145 03bc 23       		.byte	0x23
 1146 03bd 5E       		.uleb128 0x5e
 1147 03be 0D       		.uleb128 0xd
 1148 03bf ED020000 		.4byte	.LASF55
 1149 03c3 06       		.byte	0x6
 1150 03c4 6702     		.2byte	0x267
 1151 03c6 A7000000 		.4byte	0xa7
 1152 03ca 02       		.byte	0x2
 1153 03cb 23       		.byte	0x23
 1154 03cc 60       		.uleb128 0x60
 1155 03cd 0D       		.uleb128 0xd
 1156 03ce 1F050000 		.4byte	.LASF56
 1157 03d2 06       		.byte	0x6
 1158 03d3 6802     		.2byte	0x268
 1159 03d5 9C000000 		.4byte	0x9c
 1160 03d9 02       		.byte	0x2
 1161 03da 23       		.byte	0x23
 1162 03db 62       		.uleb128 0x62
 1163 03dc 0D       		.uleb128 0xd
 1164 03dd 0C030000 		.4byte	.LASF57
 1165 03e1 06       		.byte	0x6
 1166 03e2 6902     		.2byte	0x269
 1167 03e4 A7000000 		.4byte	0xa7
 1168 03e8 02       		.byte	0x2
 1169 03e9 23       		.byte	0x23
 1170 03ea 64       		.uleb128 0x64
 1171 03eb 0D       		.uleb128 0xd
 1172 03ec 2A050000 		.4byte	.LASF58
 1173 03f0 06       		.byte	0x6
 1174 03f1 6A02     		.2byte	0x26a
 1175 03f3 9C000000 		.4byte	0x9c
 1176 03f7 02       		.byte	0x2
 1177 03f8 23       		.byte	0x23
 1178 03f9 66       		.uleb128 0x66
 1179 03fa 0D       		.uleb128 0xd
 1180 03fb 11030000 		.4byte	.LASF59
 1181 03ff 06       		.byte	0x6
 1182 0400 6B02     		.2byte	0x26b
 1183 0402 A7000000 		.4byte	0xa7
 1184 0406 02       		.byte	0x2
 1185 0407 23       		.byte	0x23
 1186 0408 68       		.uleb128 0x68
 1187 0409 0D       		.uleb128 0xd
 1188 040a 35050000 		.4byte	.LASF60
ARM GAS  G:\Users\Jaxb\AppData\Local\Temp\ccVwt5n8.s 			page 27


 1189 040e 06       		.byte	0x6
 1190 040f 6C02     		.2byte	0x26c
 1191 0411 9C000000 		.4byte	0x9c
 1192 0415 02       		.byte	0x2
 1193 0416 23       		.byte	0x23
 1194 0417 6A       		.uleb128 0x6a
 1195 0418 0D       		.uleb128 0xd
 1196 0419 16030000 		.4byte	.LASF61
 1197 041d 06       		.byte	0x6
 1198 041e 6D02     		.2byte	0x26d
 1199 0420 A7000000 		.4byte	0xa7
 1200 0424 02       		.byte	0x2
 1201 0425 23       		.byte	0x23
 1202 0426 6C       		.uleb128 0x6c
 1203 0427 0D       		.uleb128 0xd
 1204 0428 40050000 		.4byte	.LASF62
 1205 042c 06       		.byte	0x6
 1206 042d 6E02     		.2byte	0x26e
 1207 042f 9C000000 		.4byte	0x9c
 1208 0433 02       		.byte	0x2
 1209 0434 23       		.byte	0x23
 1210 0435 6E       		.uleb128 0x6e
 1211 0436 0D       		.uleb128 0xd
 1212 0437 1B030000 		.4byte	.LASF63
 1213 043b 06       		.byte	0x6
 1214 043c 6F02     		.2byte	0x26f
 1215 043e A7000000 		.4byte	0xa7
 1216 0442 02       		.byte	0x2
 1217 0443 23       		.byte	0x23
 1218 0444 70       		.uleb128 0x70
 1219 0445 0D       		.uleb128 0xd
 1220 0446 4B050000 		.4byte	.LASF64
 1221 044a 06       		.byte	0x6
 1222 044b 7002     		.2byte	0x270
 1223 044d 9C000000 		.4byte	0x9c
 1224 0451 02       		.byte	0x2
 1225 0452 23       		.byte	0x23
 1226 0453 72       		.uleb128 0x72
 1227 0454 0D       		.uleb128 0xd
 1228 0455 20030000 		.4byte	.LASF65
 1229 0459 06       		.byte	0x6
 1230 045a 7102     		.2byte	0x271
 1231 045c A7000000 		.4byte	0xa7
 1232 0460 02       		.byte	0x2
 1233 0461 23       		.byte	0x23
 1234 0462 74       		.uleb128 0x74
 1235 0463 0D       		.uleb128 0xd
 1236 0464 56050000 		.4byte	.LASF66
 1237 0468 06       		.byte	0x6
 1238 0469 7202     		.2byte	0x272
 1239 046b 9C000000 		.4byte	0x9c
 1240 046f 02       		.byte	0x2
 1241 0470 23       		.byte	0x23
 1242 0471 76       		.uleb128 0x76
 1243 0472 0D       		.uleb128 0xd
 1244 0473 25030000 		.4byte	.LASF67
 1245 0477 06       		.byte	0x6
ARM GAS  G:\Users\Jaxb\AppData\Local\Temp\ccVwt5n8.s 			page 28


 1246 0478 7302     		.2byte	0x273
 1247 047a A7000000 		.4byte	0xa7
 1248 047e 02       		.byte	0x2
 1249 047f 23       		.byte	0x23
 1250 0480 78       		.uleb128 0x78
 1251 0481 0D       		.uleb128 0xd
 1252 0482 61050000 		.4byte	.LASF68
 1253 0486 06       		.byte	0x6
 1254 0487 7402     		.2byte	0x274
 1255 0489 9C000000 		.4byte	0x9c
 1256 048d 02       		.byte	0x2
 1257 048e 23       		.byte	0x23
 1258 048f 7A       		.uleb128 0x7a
 1259 0490 0D       		.uleb128 0xd
 1260 0491 2A030000 		.4byte	.LASF69
 1261 0495 06       		.byte	0x6
 1262 0496 7502     		.2byte	0x275
 1263 0498 A7000000 		.4byte	0xa7
 1264 049c 02       		.byte	0x2
 1265 049d 23       		.byte	0x23
 1266 049e 7C       		.uleb128 0x7c
 1267 049f 0D       		.uleb128 0xd
 1268 04a0 6C050000 		.4byte	.LASF70
 1269 04a4 06       		.byte	0x6
 1270 04a5 7602     		.2byte	0x276
 1271 04a7 9C000000 		.4byte	0x9c
 1272 04ab 02       		.byte	0x2
 1273 04ac 23       		.byte	0x23
 1274 04ad 7E       		.uleb128 0x7e
 1275 04ae 0D       		.uleb128 0xd
 1276 04af 2F030000 		.4byte	.LASF71
 1277 04b3 06       		.byte	0x6
 1278 04b4 7702     		.2byte	0x277
 1279 04b6 A7000000 		.4byte	0xa7
 1280 04ba 03       		.byte	0x3
 1281 04bb 23       		.byte	0x23
 1282 04bc 8001     		.uleb128 0x80
 1283 04be 0D       		.uleb128 0xd
 1284 04bf 86050000 		.4byte	.LASF72
 1285 04c3 06       		.byte	0x6
 1286 04c4 7802     		.2byte	0x278
 1287 04c6 9C000000 		.4byte	0x9c
 1288 04ca 03       		.byte	0x3
 1289 04cb 23       		.byte	0x23
 1290 04cc 8201     		.uleb128 0x82
 1291 04ce 0D       		.uleb128 0xd
 1292 04cf 34030000 		.4byte	.LASF73
 1293 04d3 06       		.byte	0x6
 1294 04d4 7902     		.2byte	0x279
 1295 04d6 A7000000 		.4byte	0xa7
 1296 04da 03       		.byte	0x3
 1297 04db 23       		.byte	0x23
 1298 04dc 8401     		.uleb128 0x84
 1299 04de 0D       		.uleb128 0xd
 1300 04df 91050000 		.4byte	.LASF74
 1301 04e3 06       		.byte	0x6
 1302 04e4 7A02     		.2byte	0x27a
ARM GAS  G:\Users\Jaxb\AppData\Local\Temp\ccVwt5n8.s 			page 29


 1303 04e6 9C000000 		.4byte	0x9c
 1304 04ea 03       		.byte	0x3
 1305 04eb 23       		.byte	0x23
 1306 04ec 8601     		.uleb128 0x86
 1307 04ee 0D       		.uleb128 0xd
 1308 04ef 39030000 		.4byte	.LASF75
 1309 04f3 06       		.byte	0x6
 1310 04f4 7B02     		.2byte	0x27b
 1311 04f6 A7000000 		.4byte	0xa7
 1312 04fa 03       		.byte	0x3
 1313 04fb 23       		.byte	0x23
 1314 04fc 8801     		.uleb128 0x88
 1315 04fe 0D       		.uleb128 0xd
 1316 04ff 9C050000 		.4byte	.LASF76
 1317 0503 06       		.byte	0x6
 1318 0504 7C02     		.2byte	0x27c
 1319 0506 9C000000 		.4byte	0x9c
 1320 050a 03       		.byte	0x3
 1321 050b 23       		.byte	0x23
 1322 050c 8A01     		.uleb128 0x8a
 1323 050e 0D       		.uleb128 0xd
 1324 050f C9030000 		.4byte	.LASF77
 1325 0513 06       		.byte	0x6
 1326 0514 7D02     		.2byte	0x27d
 1327 0516 A7000000 		.4byte	0xa7
 1328 051a 03       		.byte	0x3
 1329 051b 23       		.byte	0x23
 1330 051c 8C01     		.uleb128 0x8c
 1331 051e 0D       		.uleb128 0xd
 1332 051f A7050000 		.4byte	.LASF78
 1333 0523 06       		.byte	0x6
 1334 0524 7E02     		.2byte	0x27e
 1335 0526 9C000000 		.4byte	0x9c
 1336 052a 03       		.byte	0x3
 1337 052b 23       		.byte	0x23
 1338 052c 8E01     		.uleb128 0x8e
 1339 052e 0D       		.uleb128 0xd
 1340 052f CE030000 		.4byte	.LASF79
 1341 0533 06       		.byte	0x6
 1342 0534 7F02     		.2byte	0x27f
 1343 0536 A7000000 		.4byte	0xa7
 1344 053a 03       		.byte	0x3
 1345 053b 23       		.byte	0x23
 1346 053c 9001     		.uleb128 0x90
 1347 053e 0D       		.uleb128 0xd
 1348 053f B2050000 		.4byte	.LASF80
 1349 0543 06       		.byte	0x6
 1350 0544 8002     		.2byte	0x280
 1351 0546 9C000000 		.4byte	0x9c
 1352 054a 03       		.byte	0x3
 1353 054b 23       		.byte	0x23
 1354 054c 9201     		.uleb128 0x92
 1355 054e 0D       		.uleb128 0xd
 1356 054f D3030000 		.4byte	.LASF81
 1357 0553 06       		.byte	0x6
 1358 0554 8102     		.2byte	0x281
 1359 0556 A7000000 		.4byte	0xa7
ARM GAS  G:\Users\Jaxb\AppData\Local\Temp\ccVwt5n8.s 			page 30


 1360 055a 03       		.byte	0x3
 1361 055b 23       		.byte	0x23
 1362 055c 9401     		.uleb128 0x94
 1363 055e 0D       		.uleb128 0xd
 1364 055f BD050000 		.4byte	.LASF82
 1365 0563 06       		.byte	0x6
 1366 0564 8202     		.2byte	0x282
 1367 0566 9C000000 		.4byte	0x9c
 1368 056a 03       		.byte	0x3
 1369 056b 23       		.byte	0x23
 1370 056c 9601     		.uleb128 0x96
 1371 056e 0D       		.uleb128 0xd
 1372 056f D8030000 		.4byte	.LASF83
 1373 0573 06       		.byte	0x6
 1374 0574 8302     		.2byte	0x283
 1375 0576 A7000000 		.4byte	0xa7
 1376 057a 03       		.byte	0x3
 1377 057b 23       		.byte	0x23
 1378 057c 9801     		.uleb128 0x98
 1379 057e 0D       		.uleb128 0xd
 1380 057f C8050000 		.4byte	.LASF84
 1381 0583 06       		.byte	0x6
 1382 0584 8402     		.2byte	0x284
 1383 0586 9C000000 		.4byte	0x9c
 1384 058a 03       		.byte	0x3
 1385 058b 23       		.byte	0x23
 1386 058c 9A01     		.uleb128 0x9a
 1387 058e 0D       		.uleb128 0xd
 1388 058f DD030000 		.4byte	.LASF85
 1389 0593 06       		.byte	0x6
 1390 0594 8502     		.2byte	0x285
 1391 0596 A7000000 		.4byte	0xa7
 1392 059a 03       		.byte	0x3
 1393 059b 23       		.byte	0x23
 1394 059c 9C01     		.uleb128 0x9c
 1395 059e 0D       		.uleb128 0xd
 1396 059f D3050000 		.4byte	.LASF86
 1397 05a3 06       		.byte	0x6
 1398 05a4 8602     		.2byte	0x286
 1399 05a6 9C000000 		.4byte	0x9c
 1400 05aa 03       		.byte	0x3
 1401 05ab 23       		.byte	0x23
 1402 05ac 9E01     		.uleb128 0x9e
 1403 05ae 0D       		.uleb128 0xd
 1404 05af E2030000 		.4byte	.LASF87
 1405 05b3 06       		.byte	0x6
 1406 05b4 8702     		.2byte	0x287
 1407 05b6 A7000000 		.4byte	0xa7
 1408 05ba 03       		.byte	0x3
 1409 05bb 23       		.byte	0x23
 1410 05bc A001     		.uleb128 0xa0
 1411 05be 0D       		.uleb128 0xd
 1412 05bf DE050000 		.4byte	.LASF88
 1413 05c3 06       		.byte	0x6
 1414 05c4 8802     		.2byte	0x288
 1415 05c6 9C000000 		.4byte	0x9c
 1416 05ca 03       		.byte	0x3
ARM GAS  G:\Users\Jaxb\AppData\Local\Temp\ccVwt5n8.s 			page 31


 1417 05cb 23       		.byte	0x23
 1418 05cc A201     		.uleb128 0xa2
 1419 05ce 0D       		.uleb128 0xd
 1420 05cf E7030000 		.4byte	.LASF89
 1421 05d3 06       		.byte	0x6
 1422 05d4 8902     		.2byte	0x289
 1423 05d6 A7000000 		.4byte	0xa7
 1424 05da 03       		.byte	0x3
 1425 05db 23       		.byte	0x23
 1426 05dc A401     		.uleb128 0xa4
 1427 05de 0D       		.uleb128 0xd
 1428 05df E9050000 		.4byte	.LASF90
 1429 05e3 06       		.byte	0x6
 1430 05e4 8A02     		.2byte	0x28a
 1431 05e6 9C000000 		.4byte	0x9c
 1432 05ea 03       		.byte	0x3
 1433 05eb 23       		.byte	0x23
 1434 05ec A601     		.uleb128 0xa6
 1435 05ee 0D       		.uleb128 0xd
 1436 05ef EC030000 		.4byte	.LASF91
 1437 05f3 06       		.byte	0x6
 1438 05f4 8B02     		.2byte	0x28b
 1439 05f6 A7000000 		.4byte	0xa7
 1440 05fa 03       		.byte	0x3
 1441 05fb 23       		.byte	0x23
 1442 05fc A801     		.uleb128 0xa8
 1443 05fe 0D       		.uleb128 0xd
 1444 05ff 4A000000 		.4byte	.LASF92
 1445 0603 06       		.byte	0x6
 1446 0604 8C02     		.2byte	0x28c
 1447 0606 9C000000 		.4byte	0x9c
 1448 060a 03       		.byte	0x3
 1449 060b 23       		.byte	0x23
 1450 060c AA01     		.uleb128 0xaa
 1451 060e 0D       		.uleb128 0xd
 1452 060f F1030000 		.4byte	.LASF93
 1453 0613 06       		.byte	0x6
 1454 0614 8D02     		.2byte	0x28d
 1455 0616 A7000000 		.4byte	0xa7
 1456 061a 03       		.byte	0x3
 1457 061b 23       		.byte	0x23
 1458 061c AC01     		.uleb128 0xac
 1459 061e 0D       		.uleb128 0xd
 1460 061f 55000000 		.4byte	.LASF94
 1461 0623 06       		.byte	0x6
 1462 0624 8E02     		.2byte	0x28e
 1463 0626 9C000000 		.4byte	0x9c
 1464 062a 03       		.byte	0x3
 1465 062b 23       		.byte	0x23
 1466 062c AE01     		.uleb128 0xae
 1467 062e 0D       		.uleb128 0xd
 1468 062f F6030000 		.4byte	.LASF95
 1469 0633 06       		.byte	0x6
 1470 0634 8F02     		.2byte	0x28f
 1471 0636 A7000000 		.4byte	0xa7
 1472 063a 03       		.byte	0x3
 1473 063b 23       		.byte	0x23
ARM GAS  G:\Users\Jaxb\AppData\Local\Temp\ccVwt5n8.s 			page 32


 1474 063c B001     		.uleb128 0xb0
 1475 063e 0D       		.uleb128 0xd
 1476 063f 60000000 		.4byte	.LASF96
 1477 0643 06       		.byte	0x6
 1478 0644 9002     		.2byte	0x290
 1479 0646 9C000000 		.4byte	0x9c
 1480 064a 03       		.byte	0x3
 1481 064b 23       		.byte	0x23
 1482 064c B201     		.uleb128 0xb2
 1483 064e 0D       		.uleb128 0xd
 1484 064f 2F040000 		.4byte	.LASF97
 1485 0653 06       		.byte	0x6
 1486 0654 9102     		.2byte	0x291
 1487 0656 A7000000 		.4byte	0xa7
 1488 065a 03       		.byte	0x3
 1489 065b 23       		.byte	0x23
 1490 065c B401     		.uleb128 0xb4
 1491 065e 0D       		.uleb128 0xd
 1492 065f 6B000000 		.4byte	.LASF98
 1493 0663 06       		.byte	0x6
 1494 0664 9202     		.2byte	0x292
 1495 0666 9C000000 		.4byte	0x9c
 1496 066a 03       		.byte	0x3
 1497 066b 23       		.byte	0x23
 1498 066c B601     		.uleb128 0xb6
 1499 066e 0D       		.uleb128 0xd
 1500 066f 34040000 		.4byte	.LASF99
 1501 0673 06       		.byte	0x6
 1502 0674 9302     		.2byte	0x293
 1503 0676 A7000000 		.4byte	0xa7
 1504 067a 03       		.byte	0x3
 1505 067b 23       		.byte	0x23
 1506 067c B801     		.uleb128 0xb8
 1507 067e 0D       		.uleb128 0xd
 1508 067f 76000000 		.4byte	.LASF100
 1509 0683 06       		.byte	0x6
 1510 0684 9402     		.2byte	0x294
 1511 0686 9C000000 		.4byte	0x9c
 1512 068a 03       		.byte	0x3
 1513 068b 23       		.byte	0x23
 1514 068c BA01     		.uleb128 0xba
 1515 068e 0D       		.uleb128 0xd
 1516 068f 39040000 		.4byte	.LASF101
 1517 0693 06       		.byte	0x6
 1518 0694 9502     		.2byte	0x295
 1519 0696 A7000000 		.4byte	0xa7
 1520 069a 03       		.byte	0x3
 1521 069b 23       		.byte	0x23
 1522 069c BC01     		.uleb128 0xbc
 1523 069e 0D       		.uleb128 0xd
 1524 069f 3E030000 		.4byte	.LASF102
 1525 06a3 06       		.byte	0x6
 1526 06a4 9602     		.2byte	0x296
 1527 06a6 9C000000 		.4byte	0x9c
 1528 06aa 03       		.byte	0x3
 1529 06ab 23       		.byte	0x23
 1530 06ac BE01     		.uleb128 0xbe
ARM GAS  G:\Users\Jaxb\AppData\Local\Temp\ccVwt5n8.s 			page 33


 1531 06ae 00       		.byte	0
 1532 06af 0F       		.uleb128 0xf
 1533 06b0 9C000000 		.4byte	0x9c
 1534 06b4 BF060000 		.4byte	0x6bf
 1535 06b8 10       		.uleb128 0x10
 1536 06b9 8A000000 		.4byte	0x8a
 1537 06bd 04       		.byte	0x4
 1538 06be 00       		.byte	0
 1539 06bf 0B       		.uleb128 0xb
 1540 06c0 10000000 		.4byte	.LASF103
 1541 06c4 06       		.byte	0x6
 1542 06c5 9702     		.2byte	0x297
 1543 06c7 31010000 		.4byte	0x131
 1544 06cb 11       		.uleb128 0x11
 1545 06cc 01       		.byte	0x1
 1546 06cd FB030000 		.4byte	.LASF104
 1547 06d1 01       		.byte	0x1
 1548 06d2 2201     		.2byte	0x122
 1549 06d4 01       		.byte	0x1
 1550 06d5 A0010000 		.4byte	.LFB40
 1551 06d9 C0010000 		.4byte	.LFE40
 1552 06dd 00000000 		.4byte	.LLST11
 1553 06e1 01       		.byte	0x1
 1554 06e2 12       		.uleb128 0x12
 1555 06e3 01       		.byte	0x1
 1556 06e4 58010000 		.4byte	.LASF106
 1557 06e8 01       		.byte	0x1
 1558 06e9 1801     		.2byte	0x118
 1559 06eb 01       		.byte	0x1
 1560 06ec FE000000 		.4byte	0xfe
 1561 06f0 88010000 		.4byte	.LFB39
 1562 06f4 A0010000 		.4byte	.LFE39
 1563 06f8 44000000 		.4byte	.LLST10
 1564 06fc 01       		.byte	0x1
 1565 06fd 11       		.uleb128 0x11
 1566 06fe 01       		.byte	0x1
 1567 06ff 70010000 		.4byte	.LASF105
 1568 0703 01       		.byte	0x1
 1569 0704 0D01     		.2byte	0x10d
 1570 0706 01       		.byte	0x1
 1571 0707 68010000 		.4byte	.LFB38
 1572 070b 88010000 		.4byte	.LFE38
 1573 070f 88000000 		.4byte	.LLST9
 1574 0713 01       		.byte	0x1
 1575 0714 12       		.uleb128 0x12
 1576 0715 01       		.byte	0x1
 1577 0716 19010000 		.4byte	.LASF107
 1578 071a 01       		.byte	0x1
 1579 071b 0301     		.2byte	0x103
 1580 071d 01       		.byte	0x1
 1581 071e F2000000 		.4byte	0xf2
 1582 0722 50010000 		.4byte	.LFB37
 1583 0726 68010000 		.4byte	.LFE37
 1584 072a CC000000 		.4byte	.LLST8
 1585 072e 01       		.byte	0x1
 1586 072f 13       		.uleb128 0x13
 1587 0730 01       		.byte	0x1
ARM GAS  G:\Users\Jaxb\AppData\Local\Temp\ccVwt5n8.s 			page 34


 1588 0731 D5000000 		.4byte	.LASF125
 1589 0735 01       		.byte	0x1
 1590 0736 F1       		.byte	0xf1
 1591 0737 01       		.byte	0x1
 1592 0738 9C000000 		.4byte	0x9c
 1593 073c 20010000 		.4byte	.LFB36
 1594 0740 50010000 		.4byte	.LFE36
 1595 0744 10010000 		.4byte	.LLST7
 1596 0748 01       		.byte	0x1
 1597 0749 6A070000 		.4byte	0x76a
 1598 074d 14       		.uleb128 0x14
 1599 074e 9E000000 		.4byte	.LASF108
 1600 0752 01       		.byte	0x1
 1601 0753 F1       		.byte	0xf1
 1602 0754 9C000000 		.4byte	0x9c
 1603 0758 02       		.byte	0x2
 1604 0759 91       		.byte	0x91
 1605 075a 6E       		.sleb128 -18
 1606 075b 15       		.uleb128 0x15
 1607 075c 746D7000 		.ascii	"tmp\000"
 1608 0760 01       		.byte	0x1
 1609 0761 F3       		.byte	0xf3
 1610 0762 B7000000 		.4byte	0xb7
 1611 0766 02       		.byte	0x2
 1612 0767 91       		.byte	0x91
 1613 0768 74       		.sleb128 -12
 1614 0769 00       		.byte	0
 1615 076a 16       		.uleb128 0x16
 1616 076b 01       		.byte	0x1
 1617 076c D2040000 		.4byte	.LASF110
 1618 0770 01       		.byte	0x1
 1619 0771 DE       		.byte	0xde
 1620 0772 01       		.byte	0x1
 1621 0773 E8000000 		.4byte	.LFB35
 1622 0777 20010000 		.4byte	.LFE35
 1623 077b 6C010000 		.4byte	.LLST6
 1624 077f 01       		.byte	0x1
 1625 0780 AF070000 		.4byte	0x7af
 1626 0784 14       		.uleb128 0x14
 1627 0785 9E000000 		.4byte	.LASF108
 1628 0789 01       		.byte	0x1
 1629 078a DE       		.byte	0xde
 1630 078b 9C000000 		.4byte	0x9c
 1631 078f 02       		.byte	0x2
 1632 0790 91       		.byte	0x91
 1633 0791 6E       		.sleb128 -18
 1634 0792 14       		.uleb128 0x14
 1635 0793 81050000 		.4byte	.LASF109
 1636 0797 01       		.byte	0x1
 1637 0798 DE       		.byte	0xde
 1638 0799 9C000000 		.4byte	0x9c
 1639 079d 02       		.byte	0x2
 1640 079e 91       		.byte	0x91
 1641 079f 6C       		.sleb128 -20
 1642 07a0 15       		.uleb128 0x15
 1643 07a1 746D7000 		.ascii	"tmp\000"
 1644 07a5 01       		.byte	0x1
ARM GAS  G:\Users\Jaxb\AppData\Local\Temp\ccVwt5n8.s 			page 35


 1645 07a6 E0       		.byte	0xe0
 1646 07a7 B7000000 		.4byte	0xb7
 1647 07ab 02       		.byte	0x2
 1648 07ac 91       		.byte	0x91
 1649 07ad 74       		.sleb128 -12
 1650 07ae 00       		.byte	0
 1651 07af 16       		.uleb128 0x16
 1652 07b0 01       		.byte	0x1
 1653 07b1 C1010000 		.4byte	.LASF111
 1654 07b5 01       		.byte	0x1
 1655 07b6 C9       		.byte	0xc9
 1656 07b7 01       		.byte	0x1
 1657 07b8 AC000000 		.4byte	.LFB34
 1658 07bc E8000000 		.4byte	.LFE34
 1659 07c0 C8010000 		.4byte	.LLST5
 1660 07c4 01       		.byte	0x1
 1661 07c5 E6070000 		.4byte	0x7e6
 1662 07c9 14       		.uleb128 0x14
 1663 07ca B0000000 		.4byte	.LASF112
 1664 07ce 01       		.byte	0x1
 1665 07cf C9       		.byte	0xc9
 1666 07d0 91000000 		.4byte	0x91
 1667 07d4 02       		.byte	0x2
 1668 07d5 91       		.byte	0x91
 1669 07d6 6F       		.sleb128 -17
 1670 07d7 17       		.uleb128 0x17
 1671 07d8 2B010000 		.4byte	.LASF113
 1672 07dc 01       		.byte	0x1
 1673 07dd CB       		.byte	0xcb
 1674 07de 9C000000 		.4byte	0x9c
 1675 07e2 02       		.byte	0x2
 1676 07e3 91       		.byte	0x91
 1677 07e4 76       		.sleb128 -10
 1678 07e5 00       		.byte	0
 1679 07e6 16       		.uleb128 0x16
 1680 07e7 01       		.byte	0x1
 1681 07e8 3B010000 		.4byte	.LASF114
 1682 07ec 01       		.byte	0x1
 1683 07ed B4       		.byte	0xb4
 1684 07ee 01       		.byte	0x1
 1685 07ef 74000000 		.4byte	.LFB33
 1686 07f3 AC000000 		.4byte	.LFE33
 1687 07f7 24020000 		.4byte	.LLST4
 1688 07fb 01       		.byte	0x1
 1689 07fc 1D080000 		.4byte	0x81d
 1690 0800 14       		.uleb128 0x14
 1691 0801 9F010000 		.4byte	.LASF115
 1692 0805 01       		.byte	0x1
 1693 0806 B4       		.byte	0xb4
 1694 0807 9C000000 		.4byte	0x9c
 1695 080b 02       		.byte	0x2
 1696 080c 91       		.byte	0x91
 1697 080d 6E       		.sleb128 -18
 1698 080e 17       		.uleb128 0x17
 1699 080f 2B010000 		.4byte	.LASF113
 1700 0813 01       		.byte	0x1
 1701 0814 B6       		.byte	0xb6
ARM GAS  G:\Users\Jaxb\AppData\Local\Temp\ccVwt5n8.s 			page 36


 1702 0815 9C000000 		.4byte	0x9c
 1703 0819 02       		.byte	0x2
 1704 081a 91       		.byte	0x91
 1705 081b 76       		.sleb128 -10
 1706 081c 00       		.byte	0
 1707 081d 16       		.uleb128 0x16
 1708 081e 01       		.byte	0x1
 1709 081f 1B040000 		.4byte	.LASF116
 1710 0823 01       		.byte	0x1
 1711 0824 A0       		.byte	0xa0
 1712 0825 01       		.byte	0x1
 1713 0826 54000000 		.4byte	.LFB32
 1714 082a 74000000 		.4byte	.LFE32
 1715 082e 80020000 		.4byte	.LLST3
 1716 0832 01       		.byte	0x1
 1717 0833 46080000 		.4byte	0x846
 1718 0837 14       		.uleb128 0x14
 1719 0838 4F010000 		.4byte	.LASF117
 1720 083c 01       		.byte	0x1
 1721 083d A0       		.byte	0xa0
 1722 083e 25010000 		.4byte	0x125
 1723 0842 02       		.byte	0x2
 1724 0843 91       		.byte	0x91
 1725 0844 77       		.sleb128 -9
 1726 0845 00       		.byte	0
 1727 0846 16       		.uleb128 0x16
 1728 0847 01       		.byte	0x1
 1729 0848 F2020000 		.4byte	.LASF118
 1730 084c 01       		.byte	0x1
 1731 084d 93       		.byte	0x93
 1732 084e 01       		.byte	0x1
 1733 084f 34000000 		.4byte	.LFB31
 1734 0853 54000000 		.4byte	.LFE31
 1735 0857 DC020000 		.4byte	.LLST2
 1736 085b 01       		.byte	0x1
 1737 085c 6F080000 		.4byte	0x86f
 1738 0860 14       		.uleb128 0x14
 1739 0861 4F010000 		.4byte	.LASF117
 1740 0865 01       		.byte	0x1
 1741 0866 93       		.byte	0x93
 1742 0867 25010000 		.4byte	0x125
 1743 086b 02       		.byte	0x2
 1744 086c 91       		.byte	0x91
 1745 086d 77       		.sleb128 -9
 1746 086e 00       		.byte	0
 1747 086f 16       		.uleb128 0x16
 1748 0870 01       		.byte	0x1
 1749 0871 86010000 		.4byte	.LASF119
 1750 0875 01       		.byte	0x1
 1751 0876 86       		.byte	0x86
 1752 0877 01       		.byte	0x1
 1753 0878 14000000 		.4byte	.LFB30
 1754 087c 34000000 		.4byte	.LFE30
 1755 0880 38030000 		.4byte	.LLST1
 1756 0884 01       		.byte	0x1
 1757 0885 98080000 		.4byte	0x898
 1758 0889 14       		.uleb128 0x14
ARM GAS  G:\Users\Jaxb\AppData\Local\Temp\ccVwt5n8.s 			page 37


 1759 088a DC010000 		.4byte	.LASF120
 1760 088e 01       		.byte	0x1
 1761 088f 86       		.byte	0x86
 1762 0890 9C000000 		.4byte	0x9c
 1763 0894 02       		.byte	0x2
 1764 0895 91       		.byte	0x91
 1765 0896 76       		.sleb128 -10
 1766 0897 00       		.byte	0
 1767 0898 18       		.uleb128 0x18
 1768 0899 01       		.byte	0x1
 1769 089a CA000000 		.4byte	.LASF121
 1770 089e 01       		.byte	0x1
 1771 089f 78       		.byte	0x78
 1772 08a0 01       		.byte	0x1
 1773 08a1 00000000 		.4byte	.LFB29
 1774 08a5 14000000 		.4byte	.LFE29
 1775 08a9 94030000 		.4byte	.LLST0
 1776 08ad 01       		.byte	0x1
 1777 08ae 00       		.byte	0
 1778              		.section	.debug_abbrev,"",%progbits
 1779              	.Ldebug_abbrev0:
 1780 0000 01       		.uleb128 0x1
 1781 0001 11       		.uleb128 0x11
 1782 0002 01       		.byte	0x1
 1783 0003 25       		.uleb128 0x25
 1784 0004 0E       		.uleb128 0xe
 1785 0005 13       		.uleb128 0x13
 1786 0006 0B       		.uleb128 0xb
 1787 0007 03       		.uleb128 0x3
 1788 0008 0E       		.uleb128 0xe
 1789 0009 1B       		.uleb128 0x1b
 1790 000a 0E       		.uleb128 0xe
 1791 000b 11       		.uleb128 0x11
 1792 000c 01       		.uleb128 0x1
 1793 000d 12       		.uleb128 0x12
 1794 000e 01       		.uleb128 0x1
 1795 000f 10       		.uleb128 0x10
 1796 0010 06       		.uleb128 0x6
 1797 0011 00       		.byte	0
 1798 0012 00       		.byte	0
 1799 0013 02       		.uleb128 0x2
 1800 0014 24       		.uleb128 0x24
 1801 0015 00       		.byte	0
 1802 0016 0B       		.uleb128 0xb
 1803 0017 0B       		.uleb128 0xb
 1804 0018 3E       		.uleb128 0x3e
 1805 0019 0B       		.uleb128 0xb
 1806 001a 03       		.uleb128 0x3
 1807 001b 0E       		.uleb128 0xe
 1808 001c 00       		.byte	0
 1809 001d 00       		.byte	0
 1810 001e 03       		.uleb128 0x3
 1811 001f 16       		.uleb128 0x16
 1812 0020 00       		.byte	0
 1813 0021 03       		.uleb128 0x3
 1814 0022 0E       		.uleb128 0xe
 1815 0023 3A       		.uleb128 0x3a
ARM GAS  G:\Users\Jaxb\AppData\Local\Temp\ccVwt5n8.s 			page 38


 1816 0024 0B       		.uleb128 0xb
 1817 0025 3B       		.uleb128 0x3b
 1818 0026 0B       		.uleb128 0xb
 1819 0027 49       		.uleb128 0x49
 1820 0028 13       		.uleb128 0x13
 1821 0029 00       		.byte	0
 1822 002a 00       		.byte	0
 1823 002b 04       		.uleb128 0x4
 1824 002c 24       		.uleb128 0x24
 1825 002d 00       		.byte	0
 1826 002e 0B       		.uleb128 0xb
 1827 002f 0B       		.uleb128 0xb
 1828 0030 3E       		.uleb128 0x3e
 1829 0031 0B       		.uleb128 0xb
 1830 0032 03       		.uleb128 0x3
 1831 0033 08       		.uleb128 0x8
 1832 0034 00       		.byte	0
 1833 0035 00       		.byte	0
 1834 0036 05       		.uleb128 0x5
 1835 0037 35       		.uleb128 0x35
 1836 0038 00       		.byte	0
 1837 0039 49       		.uleb128 0x49
 1838 003a 13       		.uleb128 0x13
 1839 003b 00       		.byte	0
 1840 003c 00       		.byte	0
 1841 003d 06       		.uleb128 0x6
 1842 003e 34       		.uleb128 0x34
 1843 003f 00       		.byte	0
 1844 0040 03       		.uleb128 0x3
 1845 0041 0E       		.uleb128 0xe
 1846 0042 3A       		.uleb128 0x3a
 1847 0043 0B       		.uleb128 0xb
 1848 0044 3B       		.uleb128 0x3b
 1849 0045 05       		.uleb128 0x5
 1850 0046 49       		.uleb128 0x49
 1851 0047 13       		.uleb128 0x13
 1852 0048 3F       		.uleb128 0x3f
 1853 0049 0C       		.uleb128 0xc
 1854 004a 3C       		.uleb128 0x3c
 1855 004b 0C       		.uleb128 0xc
 1856 004c 00       		.byte	0
 1857 004d 00       		.byte	0
 1858 004e 07       		.uleb128 0x7
 1859 004f 34       		.uleb128 0x34
 1860 0050 00       		.byte	0
 1861 0051 03       		.uleb128 0x3
 1862 0052 0E       		.uleb128 0xe
 1863 0053 3A       		.uleb128 0x3a
 1864 0054 0B       		.uleb128 0xb
 1865 0055 3B       		.uleb128 0x3b
 1866 0056 0B       		.uleb128 0xb
 1867 0057 49       		.uleb128 0x49
 1868 0058 13       		.uleb128 0x13
 1869 0059 3F       		.uleb128 0x3f
 1870 005a 0C       		.uleb128 0xc
 1871 005b 3C       		.uleb128 0x3c
 1872 005c 0C       		.uleb128 0xc
ARM GAS  G:\Users\Jaxb\AppData\Local\Temp\ccVwt5n8.s 			page 39


 1873 005d 00       		.byte	0
 1874 005e 00       		.byte	0
 1875 005f 08       		.uleb128 0x8
 1876 0060 04       		.uleb128 0x4
 1877 0061 01       		.byte	0x1
 1878 0062 3E       		.uleb128 0x3e
 1879 0063 0B       		.uleb128 0xb
 1880 0064 0B       		.uleb128 0xb
 1881 0065 0B       		.uleb128 0xb
 1882 0066 49       		.uleb128 0x49
 1883 0067 13       		.uleb128 0x13
 1884 0068 3A       		.uleb128 0x3a
 1885 0069 0B       		.uleb128 0xb
 1886 006a 3B       		.uleb128 0x3b
 1887 006b 05       		.uleb128 0x5
 1888 006c 01       		.uleb128 0x1
 1889 006d 13       		.uleb128 0x13
 1890 006e 00       		.byte	0
 1891 006f 00       		.byte	0
 1892 0070 09       		.uleb128 0x9
 1893 0071 28       		.uleb128 0x28
 1894 0072 00       		.byte	0
 1895 0073 03       		.uleb128 0x3
 1896 0074 0E       		.uleb128 0xe
 1897 0075 1C       		.uleb128 0x1c
 1898 0076 0B       		.uleb128 0xb
 1899 0077 00       		.byte	0
 1900 0078 00       		.byte	0
 1901 0079 0A       		.uleb128 0xa
 1902 007a 28       		.uleb128 0x28
 1903 007b 00       		.byte	0
 1904 007c 03       		.uleb128 0x3
 1905 007d 08       		.uleb128 0x8
 1906 007e 1C       		.uleb128 0x1c
 1907 007f 0B       		.uleb128 0xb
 1908 0080 00       		.byte	0
 1909 0081 00       		.byte	0
 1910 0082 0B       		.uleb128 0xb
 1911 0083 16       		.uleb128 0x16
 1912 0084 00       		.byte	0
 1913 0085 03       		.uleb128 0x3
 1914 0086 0E       		.uleb128 0xe
 1915 0087 3A       		.uleb128 0x3a
 1916 0088 0B       		.uleb128 0xb
 1917 0089 3B       		.uleb128 0x3b
 1918 008a 05       		.uleb128 0x5
 1919 008b 49       		.uleb128 0x49
 1920 008c 13       		.uleb128 0x13
 1921 008d 00       		.byte	0
 1922 008e 00       		.byte	0
 1923 008f 0C       		.uleb128 0xc
 1924 0090 13       		.uleb128 0x13
 1925 0091 01       		.byte	0x1
 1926 0092 0B       		.uleb128 0xb
 1927 0093 0B       		.uleb128 0xb
 1928 0094 3A       		.uleb128 0x3a
 1929 0095 0B       		.uleb128 0xb
ARM GAS  G:\Users\Jaxb\AppData\Local\Temp\ccVwt5n8.s 			page 40


 1930 0096 3B       		.uleb128 0x3b
 1931 0097 05       		.uleb128 0x5
 1932 0098 01       		.uleb128 0x1
 1933 0099 13       		.uleb128 0x13
 1934 009a 00       		.byte	0
 1935 009b 00       		.byte	0
 1936 009c 0D       		.uleb128 0xd
 1937 009d 0D       		.uleb128 0xd
 1938 009e 00       		.byte	0
 1939 009f 03       		.uleb128 0x3
 1940 00a0 0E       		.uleb128 0xe
 1941 00a1 3A       		.uleb128 0x3a
 1942 00a2 0B       		.uleb128 0xb
 1943 00a3 3B       		.uleb128 0x3b
 1944 00a4 05       		.uleb128 0x5
 1945 00a5 49       		.uleb128 0x49
 1946 00a6 13       		.uleb128 0x13
 1947 00a7 38       		.uleb128 0x38
 1948 00a8 0A       		.uleb128 0xa
 1949 00a9 00       		.byte	0
 1950 00aa 00       		.byte	0
 1951 00ab 0E       		.uleb128 0xe
 1952 00ac 0D       		.uleb128 0xd
 1953 00ad 00       		.byte	0
 1954 00ae 03       		.uleb128 0x3
 1955 00af 08       		.uleb128 0x8
 1956 00b0 3A       		.uleb128 0x3a
 1957 00b1 0B       		.uleb128 0xb
 1958 00b2 3B       		.uleb128 0x3b
 1959 00b3 05       		.uleb128 0x5
 1960 00b4 49       		.uleb128 0x49
 1961 00b5 13       		.uleb128 0x13
 1962 00b6 38       		.uleb128 0x38
 1963 00b7 0A       		.uleb128 0xa
 1964 00b8 00       		.byte	0
 1965 00b9 00       		.byte	0
 1966 00ba 0F       		.uleb128 0xf
 1967 00bb 01       		.uleb128 0x1
 1968 00bc 01       		.byte	0x1
 1969 00bd 49       		.uleb128 0x49
 1970 00be 13       		.uleb128 0x13
 1971 00bf 01       		.uleb128 0x1
 1972 00c0 13       		.uleb128 0x13
 1973 00c1 00       		.byte	0
 1974 00c2 00       		.byte	0
 1975 00c3 10       		.uleb128 0x10
 1976 00c4 21       		.uleb128 0x21
 1977 00c5 00       		.byte	0
 1978 00c6 49       		.uleb128 0x49
 1979 00c7 13       		.uleb128 0x13
 1980 00c8 2F       		.uleb128 0x2f
 1981 00c9 0B       		.uleb128 0xb
 1982 00ca 00       		.byte	0
 1983 00cb 00       		.byte	0
 1984 00cc 11       		.uleb128 0x11
 1985 00cd 2E       		.uleb128 0x2e
 1986 00ce 00       		.byte	0
ARM GAS  G:\Users\Jaxb\AppData\Local\Temp\ccVwt5n8.s 			page 41


 1987 00cf 3F       		.uleb128 0x3f
 1988 00d0 0C       		.uleb128 0xc
 1989 00d1 03       		.uleb128 0x3
 1990 00d2 0E       		.uleb128 0xe
 1991 00d3 3A       		.uleb128 0x3a
 1992 00d4 0B       		.uleb128 0xb
 1993 00d5 3B       		.uleb128 0x3b
 1994 00d6 05       		.uleb128 0x5
 1995 00d7 27       		.uleb128 0x27
 1996 00d8 0C       		.uleb128 0xc
 1997 00d9 11       		.uleb128 0x11
 1998 00da 01       		.uleb128 0x1
 1999 00db 12       		.uleb128 0x12
 2000 00dc 01       		.uleb128 0x1
 2001 00dd 40       		.uleb128 0x40
 2002 00de 06       		.uleb128 0x6
 2003 00df 9742     		.uleb128 0x2117
 2004 00e1 0C       		.uleb128 0xc
 2005 00e2 00       		.byte	0
 2006 00e3 00       		.byte	0
 2007 00e4 12       		.uleb128 0x12
 2008 00e5 2E       		.uleb128 0x2e
 2009 00e6 00       		.byte	0
 2010 00e7 3F       		.uleb128 0x3f
 2011 00e8 0C       		.uleb128 0xc
 2012 00e9 03       		.uleb128 0x3
 2013 00ea 0E       		.uleb128 0xe
 2014 00eb 3A       		.uleb128 0x3a
 2015 00ec 0B       		.uleb128 0xb
 2016 00ed 3B       		.uleb128 0x3b
 2017 00ee 05       		.uleb128 0x5
 2018 00ef 27       		.uleb128 0x27
 2019 00f0 0C       		.uleb128 0xc
 2020 00f1 49       		.uleb128 0x49
 2021 00f2 13       		.uleb128 0x13
 2022 00f3 11       		.uleb128 0x11
 2023 00f4 01       		.uleb128 0x1
 2024 00f5 12       		.uleb128 0x12
 2025 00f6 01       		.uleb128 0x1
 2026 00f7 40       		.uleb128 0x40
 2027 00f8 06       		.uleb128 0x6
 2028 00f9 9742     		.uleb128 0x2117
 2029 00fb 0C       		.uleb128 0xc
 2030 00fc 00       		.byte	0
 2031 00fd 00       		.byte	0
 2032 00fe 13       		.uleb128 0x13
 2033 00ff 2E       		.uleb128 0x2e
 2034 0100 01       		.byte	0x1
 2035 0101 3F       		.uleb128 0x3f
 2036 0102 0C       		.uleb128 0xc
 2037 0103 03       		.uleb128 0x3
 2038 0104 0E       		.uleb128 0xe
 2039 0105 3A       		.uleb128 0x3a
 2040 0106 0B       		.uleb128 0xb
 2041 0107 3B       		.uleb128 0x3b
 2042 0108 0B       		.uleb128 0xb
 2043 0109 27       		.uleb128 0x27
ARM GAS  G:\Users\Jaxb\AppData\Local\Temp\ccVwt5n8.s 			page 42


 2044 010a 0C       		.uleb128 0xc
 2045 010b 49       		.uleb128 0x49
 2046 010c 13       		.uleb128 0x13
 2047 010d 11       		.uleb128 0x11
 2048 010e 01       		.uleb128 0x1
 2049 010f 12       		.uleb128 0x12
 2050 0110 01       		.uleb128 0x1
 2051 0111 40       		.uleb128 0x40
 2052 0112 06       		.uleb128 0x6
 2053 0113 9742     		.uleb128 0x2117
 2054 0115 0C       		.uleb128 0xc
 2055 0116 01       		.uleb128 0x1
 2056 0117 13       		.uleb128 0x13
 2057 0118 00       		.byte	0
 2058 0119 00       		.byte	0
 2059 011a 14       		.uleb128 0x14
 2060 011b 05       		.uleb128 0x5
 2061 011c 00       		.byte	0
 2062 011d 03       		.uleb128 0x3
 2063 011e 0E       		.uleb128 0xe
 2064 011f 3A       		.uleb128 0x3a
 2065 0120 0B       		.uleb128 0xb
 2066 0121 3B       		.uleb128 0x3b
 2067 0122 0B       		.uleb128 0xb
 2068 0123 49       		.uleb128 0x49
 2069 0124 13       		.uleb128 0x13
 2070 0125 02       		.uleb128 0x2
 2071 0126 0A       		.uleb128 0xa
 2072 0127 00       		.byte	0
 2073 0128 00       		.byte	0
 2074 0129 15       		.uleb128 0x15
 2075 012a 34       		.uleb128 0x34
 2076 012b 00       		.byte	0
 2077 012c 03       		.uleb128 0x3
 2078 012d 08       		.uleb128 0x8
 2079 012e 3A       		.uleb128 0x3a
 2080 012f 0B       		.uleb128 0xb
 2081 0130 3B       		.uleb128 0x3b
 2082 0131 0B       		.uleb128 0xb
 2083 0132 49       		.uleb128 0x49
 2084 0133 13       		.uleb128 0x13
 2085 0134 02       		.uleb128 0x2
 2086 0135 0A       		.uleb128 0xa
 2087 0136 00       		.byte	0
 2088 0137 00       		.byte	0
 2089 0138 16       		.uleb128 0x16
 2090 0139 2E       		.uleb128 0x2e
 2091 013a 01       		.byte	0x1
 2092 013b 3F       		.uleb128 0x3f
 2093 013c 0C       		.uleb128 0xc
 2094 013d 03       		.uleb128 0x3
 2095 013e 0E       		.uleb128 0xe
 2096 013f 3A       		.uleb128 0x3a
 2097 0140 0B       		.uleb128 0xb
 2098 0141 3B       		.uleb128 0x3b
 2099 0142 0B       		.uleb128 0xb
 2100 0143 27       		.uleb128 0x27
ARM GAS  G:\Users\Jaxb\AppData\Local\Temp\ccVwt5n8.s 			page 43


 2101 0144 0C       		.uleb128 0xc
 2102 0145 11       		.uleb128 0x11
 2103 0146 01       		.uleb128 0x1
 2104 0147 12       		.uleb128 0x12
 2105 0148 01       		.uleb128 0x1
 2106 0149 40       		.uleb128 0x40
 2107 014a 06       		.uleb128 0x6
 2108 014b 9742     		.uleb128 0x2117
 2109 014d 0C       		.uleb128 0xc
 2110 014e 01       		.uleb128 0x1
 2111 014f 13       		.uleb128 0x13
 2112 0150 00       		.byte	0
 2113 0151 00       		.byte	0
 2114 0152 17       		.uleb128 0x17
 2115 0153 34       		.uleb128 0x34
 2116 0154 00       		.byte	0
 2117 0155 03       		.uleb128 0x3
 2118 0156 0E       		.uleb128 0xe
 2119 0157 3A       		.uleb128 0x3a
 2120 0158 0B       		.uleb128 0xb
 2121 0159 3B       		.uleb128 0x3b
 2122 015a 0B       		.uleb128 0xb
 2123 015b 49       		.uleb128 0x49
 2124 015c 13       		.uleb128 0x13
 2125 015d 02       		.uleb128 0x2
 2126 015e 0A       		.uleb128 0xa
 2127 015f 00       		.byte	0
 2128 0160 00       		.byte	0
 2129 0161 18       		.uleb128 0x18
 2130 0162 2E       		.uleb128 0x2e
 2131 0163 00       		.byte	0
 2132 0164 3F       		.uleb128 0x3f
 2133 0165 0C       		.uleb128 0xc
 2134 0166 03       		.uleb128 0x3
 2135 0167 0E       		.uleb128 0xe
 2136 0168 3A       		.uleb128 0x3a
 2137 0169 0B       		.uleb128 0xb
 2138 016a 3B       		.uleb128 0x3b
 2139 016b 0B       		.uleb128 0xb
 2140 016c 27       		.uleb128 0x27
 2141 016d 0C       		.uleb128 0xc
 2142 016e 11       		.uleb128 0x11
 2143 016f 01       		.uleb128 0x1
 2144 0170 12       		.uleb128 0x12
 2145 0171 01       		.uleb128 0x1
 2146 0172 40       		.uleb128 0x40
 2147 0173 06       		.uleb128 0x6
 2148 0174 9642     		.uleb128 0x2116
 2149 0176 0C       		.uleb128 0xc
 2150 0177 00       		.byte	0
 2151 0178 00       		.byte	0
 2152 0179 00       		.byte	0
 2153              		.section	.debug_loc,"",%progbits
 2154              	.Ldebug_loc0:
 2155              	.LLST11:
 2156 0000 A0010000 		.4byte	.LFB40-.Ltext0
 2157 0004 A2010000 		.4byte	.LCFI56-.Ltext0
ARM GAS  G:\Users\Jaxb\AppData\Local\Temp\ccVwt5n8.s 			page 44


 2158 0008 0200     		.2byte	0x2
 2159 000a 7D       		.byte	0x7d
 2160 000b 00       		.sleb128 0
 2161 000c A2010000 		.4byte	.LCFI56-.Ltext0
 2162 0010 A4010000 		.4byte	.LCFI57-.Ltext0
 2163 0014 0200     		.2byte	0x2
 2164 0016 7D       		.byte	0x7d
 2165 0017 04       		.sleb128 4
 2166 0018 A4010000 		.4byte	.LCFI57-.Ltext0
 2167 001c B8010000 		.4byte	.LCFI58-.Ltext0
 2168 0020 0200     		.2byte	0x2
 2169 0022 77       		.byte	0x77
 2170 0023 04       		.sleb128 4
 2171 0024 B8010000 		.4byte	.LCFI58-.Ltext0
 2172 0028 BA010000 		.4byte	.LCFI59-.Ltext0
 2173 002c 0200     		.2byte	0x2
 2174 002e 7D       		.byte	0x7d
 2175 002f 04       		.sleb128 4
 2176 0030 BA010000 		.4byte	.LCFI59-.Ltext0
 2177 0034 C0010000 		.4byte	.LFE40-.Ltext0
 2178 0038 0200     		.2byte	0x2
 2179 003a 7D       		.byte	0x7d
 2180 003b 00       		.sleb128 0
 2181 003c 00000000 		.4byte	0
 2182 0040 00000000 		.4byte	0
 2183              	.LLST10:
 2184 0044 88010000 		.4byte	.LFB39-.Ltext0
 2185 0048 8A010000 		.4byte	.LCFI52-.Ltext0
 2186 004c 0200     		.2byte	0x2
 2187 004e 7D       		.byte	0x7d
 2188 004f 00       		.sleb128 0
 2189 0050 8A010000 		.4byte	.LCFI52-.Ltext0
 2190 0054 8C010000 		.4byte	.LCFI53-.Ltext0
 2191 0058 0200     		.2byte	0x2
 2192 005a 7D       		.byte	0x7d
 2193 005b 04       		.sleb128 4
 2194 005c 8C010000 		.4byte	.LCFI53-.Ltext0
 2195 0060 96010000 		.4byte	.LCFI54-.Ltext0
 2196 0064 0200     		.2byte	0x2
 2197 0066 77       		.byte	0x77
 2198 0067 04       		.sleb128 4
 2199 0068 96010000 		.4byte	.LCFI54-.Ltext0
 2200 006c 98010000 		.4byte	.LCFI55-.Ltext0
 2201 0070 0200     		.2byte	0x2
 2202 0072 7D       		.byte	0x7d
 2203 0073 04       		.sleb128 4
 2204 0074 98010000 		.4byte	.LCFI55-.Ltext0
 2205 0078 A0010000 		.4byte	.LFE39-.Ltext0
 2206 007c 0200     		.2byte	0x2
 2207 007e 7D       		.byte	0x7d
 2208 007f 00       		.sleb128 0
 2209 0080 00000000 		.4byte	0
 2210 0084 00000000 		.4byte	0
 2211              	.LLST9:
 2212 0088 68010000 		.4byte	.LFB38-.Ltext0
 2213 008c 6A010000 		.4byte	.LCFI48-.Ltext0
 2214 0090 0200     		.2byte	0x2
ARM GAS  G:\Users\Jaxb\AppData\Local\Temp\ccVwt5n8.s 			page 45


 2215 0092 7D       		.byte	0x7d
 2216 0093 00       		.sleb128 0
 2217 0094 6A010000 		.4byte	.LCFI48-.Ltext0
 2218 0098 6C010000 		.4byte	.LCFI49-.Ltext0
 2219 009c 0200     		.2byte	0x2
 2220 009e 7D       		.byte	0x7d
 2221 009f 04       		.sleb128 4
 2222 00a0 6C010000 		.4byte	.LCFI49-.Ltext0
 2223 00a4 80010000 		.4byte	.LCFI50-.Ltext0
 2224 00a8 0200     		.2byte	0x2
 2225 00aa 77       		.byte	0x77
 2226 00ab 04       		.sleb128 4
 2227 00ac 80010000 		.4byte	.LCFI50-.Ltext0
 2228 00b0 82010000 		.4byte	.LCFI51-.Ltext0
 2229 00b4 0200     		.2byte	0x2
 2230 00b6 7D       		.byte	0x7d
 2231 00b7 04       		.sleb128 4
 2232 00b8 82010000 		.4byte	.LCFI51-.Ltext0
 2233 00bc 88010000 		.4byte	.LFE38-.Ltext0
 2234 00c0 0200     		.2byte	0x2
 2235 00c2 7D       		.byte	0x7d
 2236 00c3 00       		.sleb128 0
 2237 00c4 00000000 		.4byte	0
 2238 00c8 00000000 		.4byte	0
 2239              	.LLST8:
 2240 00cc 50010000 		.4byte	.LFB37-.Ltext0
 2241 00d0 52010000 		.4byte	.LCFI44-.Ltext0
 2242 00d4 0200     		.2byte	0x2
 2243 00d6 7D       		.byte	0x7d
 2244 00d7 00       		.sleb128 0
 2245 00d8 52010000 		.4byte	.LCFI44-.Ltext0
 2246 00dc 54010000 		.4byte	.LCFI45-.Ltext0
 2247 00e0 0200     		.2byte	0x2
 2248 00e2 7D       		.byte	0x7d
 2249 00e3 04       		.sleb128 4
 2250 00e4 54010000 		.4byte	.LCFI45-.Ltext0
 2251 00e8 5E010000 		.4byte	.LCFI46-.Ltext0
 2252 00ec 0200     		.2byte	0x2
 2253 00ee 77       		.byte	0x77
 2254 00ef 04       		.sleb128 4
 2255 00f0 5E010000 		.4byte	.LCFI46-.Ltext0
 2256 00f4 60010000 		.4byte	.LCFI47-.Ltext0
 2257 00f8 0200     		.2byte	0x2
 2258 00fa 7D       		.byte	0x7d
 2259 00fb 04       		.sleb128 4
 2260 00fc 60010000 		.4byte	.LCFI47-.Ltext0
 2261 0100 68010000 		.4byte	.LFE37-.Ltext0
 2262 0104 0200     		.2byte	0x2
 2263 0106 7D       		.byte	0x7d
 2264 0107 00       		.sleb128 0
 2265 0108 00000000 		.4byte	0
 2266 010c 00000000 		.4byte	0
 2267              	.LLST7:
 2268 0110 20010000 		.4byte	.LFB36-.Ltext0
 2269 0114 22010000 		.4byte	.LCFI38-.Ltext0
 2270 0118 0200     		.2byte	0x2
 2271 011a 7D       		.byte	0x7d
ARM GAS  G:\Users\Jaxb\AppData\Local\Temp\ccVwt5n8.s 			page 46


 2272 011b 00       		.sleb128 0
 2273 011c 22010000 		.4byte	.LCFI38-.Ltext0
 2274 0120 24010000 		.4byte	.LCFI39-.Ltext0
 2275 0124 0200     		.2byte	0x2
 2276 0126 7D       		.byte	0x7d
 2277 0127 04       		.sleb128 4
 2278 0128 24010000 		.4byte	.LCFI39-.Ltext0
 2279 012c 26010000 		.4byte	.LCFI40-.Ltext0
 2280 0130 0200     		.2byte	0x2
 2281 0132 7D       		.byte	0x7d
 2282 0133 18       		.sleb128 24
 2283 0134 26010000 		.4byte	.LCFI40-.Ltext0
 2284 0138 44010000 		.4byte	.LCFI41-.Ltext0
 2285 013c 0200     		.2byte	0x2
 2286 013e 77       		.byte	0x77
 2287 013f 18       		.sleb128 24
 2288 0140 44010000 		.4byte	.LCFI41-.Ltext0
 2289 0144 46010000 		.4byte	.LCFI42-.Ltext0
 2290 0148 0200     		.2byte	0x2
 2291 014a 77       		.byte	0x77
 2292 014b 04       		.sleb128 4
 2293 014c 46010000 		.4byte	.LCFI42-.Ltext0
 2294 0150 48010000 		.4byte	.LCFI43-.Ltext0
 2295 0154 0200     		.2byte	0x2
 2296 0156 7D       		.byte	0x7d
 2297 0157 04       		.sleb128 4
 2298 0158 48010000 		.4byte	.LCFI43-.Ltext0
 2299 015c 50010000 		.4byte	.LFE36-.Ltext0
 2300 0160 0200     		.2byte	0x2
 2301 0162 7D       		.byte	0x7d
 2302 0163 00       		.sleb128 0
 2303 0164 00000000 		.4byte	0
 2304 0168 00000000 		.4byte	0
 2305              	.LLST6:
 2306 016c E8000000 		.4byte	.LFB35-.Ltext0
 2307 0170 EA000000 		.4byte	.LCFI32-.Ltext0
 2308 0174 0200     		.2byte	0x2
 2309 0176 7D       		.byte	0x7d
 2310 0177 00       		.sleb128 0
 2311 0178 EA000000 		.4byte	.LCFI32-.Ltext0
 2312 017c EC000000 		.4byte	.LCFI33-.Ltext0
 2313 0180 0200     		.2byte	0x2
 2314 0182 7D       		.byte	0x7d
 2315 0183 04       		.sleb128 4
 2316 0184 EC000000 		.4byte	.LCFI33-.Ltext0
 2317 0188 EE000000 		.4byte	.LCFI34-.Ltext0
 2318 018c 0200     		.2byte	0x2
 2319 018e 7D       		.byte	0x7d
 2320 018f 18       		.sleb128 24
 2321 0190 EE000000 		.4byte	.LCFI34-.Ltext0
 2322 0194 14010000 		.4byte	.LCFI35-.Ltext0
 2323 0198 0200     		.2byte	0x2
 2324 019a 77       		.byte	0x77
 2325 019b 18       		.sleb128 24
 2326 019c 14010000 		.4byte	.LCFI35-.Ltext0
 2327 01a0 16010000 		.4byte	.LCFI36-.Ltext0
 2328 01a4 0200     		.2byte	0x2
ARM GAS  G:\Users\Jaxb\AppData\Local\Temp\ccVwt5n8.s 			page 47


 2329 01a6 77       		.byte	0x77
 2330 01a7 04       		.sleb128 4
 2331 01a8 16010000 		.4byte	.LCFI36-.Ltext0
 2332 01ac 18010000 		.4byte	.LCFI37-.Ltext0
 2333 01b0 0200     		.2byte	0x2
 2334 01b2 7D       		.byte	0x7d
 2335 01b3 04       		.sleb128 4
 2336 01b4 18010000 		.4byte	.LCFI37-.Ltext0
 2337 01b8 20010000 		.4byte	.LFE35-.Ltext0
 2338 01bc 0200     		.2byte	0x2
 2339 01be 7D       		.byte	0x7d
 2340 01bf 00       		.sleb128 0
 2341 01c0 00000000 		.4byte	0
 2342 01c4 00000000 		.4byte	0
 2343              	.LLST5:
 2344 01c8 AC000000 		.4byte	.LFB34-.Ltext0
 2345 01cc AE000000 		.4byte	.LCFI26-.Ltext0
 2346 01d0 0200     		.2byte	0x2
 2347 01d2 7D       		.byte	0x7d
 2348 01d3 00       		.sleb128 0
 2349 01d4 AE000000 		.4byte	.LCFI26-.Ltext0
 2350 01d8 B0000000 		.4byte	.LCFI27-.Ltext0
 2351 01dc 0200     		.2byte	0x2
 2352 01de 7D       		.byte	0x7d
 2353 01df 04       		.sleb128 4
 2354 01e0 B0000000 		.4byte	.LCFI27-.Ltext0
 2355 01e4 B2000000 		.4byte	.LCFI28-.Ltext0
 2356 01e8 0200     		.2byte	0x2
 2357 01ea 7D       		.byte	0x7d
 2358 01eb 18       		.sleb128 24
 2359 01ec B2000000 		.4byte	.LCFI28-.Ltext0
 2360 01f0 DC000000 		.4byte	.LCFI29-.Ltext0
 2361 01f4 0200     		.2byte	0x2
 2362 01f6 77       		.byte	0x77
 2363 01f7 18       		.sleb128 24
 2364 01f8 DC000000 		.4byte	.LCFI29-.Ltext0
 2365 01fc DE000000 		.4byte	.LCFI30-.Ltext0
 2366 0200 0200     		.2byte	0x2
 2367 0202 77       		.byte	0x77
 2368 0203 04       		.sleb128 4
 2369 0204 DE000000 		.4byte	.LCFI30-.Ltext0
 2370 0208 E0000000 		.4byte	.LCFI31-.Ltext0
 2371 020c 0200     		.2byte	0x2
 2372 020e 7D       		.byte	0x7d
 2373 020f 04       		.sleb128 4
 2374 0210 E0000000 		.4byte	.LCFI31-.Ltext0
 2375 0214 E8000000 		.4byte	.LFE34-.Ltext0
 2376 0218 0200     		.2byte	0x2
 2377 021a 7D       		.byte	0x7d
 2378 021b 00       		.sleb128 0
 2379 021c 00000000 		.4byte	0
 2380 0220 00000000 		.4byte	0
 2381              	.LLST4:
 2382 0224 74000000 		.4byte	.LFB33-.Ltext0
 2383 0228 76000000 		.4byte	.LCFI20-.Ltext0
 2384 022c 0200     		.2byte	0x2
 2385 022e 7D       		.byte	0x7d
ARM GAS  G:\Users\Jaxb\AppData\Local\Temp\ccVwt5n8.s 			page 48


 2386 022f 00       		.sleb128 0
 2387 0230 76000000 		.4byte	.LCFI20-.Ltext0
 2388 0234 78000000 		.4byte	.LCFI21-.Ltext0
 2389 0238 0200     		.2byte	0x2
 2390 023a 7D       		.byte	0x7d
 2391 023b 04       		.sleb128 4
 2392 023c 78000000 		.4byte	.LCFI21-.Ltext0
 2393 0240 7A000000 		.4byte	.LCFI22-.Ltext0
 2394 0244 0200     		.2byte	0x2
 2395 0246 7D       		.byte	0x7d
 2396 0247 18       		.sleb128 24
 2397 0248 7A000000 		.4byte	.LCFI22-.Ltext0
 2398 024c A2000000 		.4byte	.LCFI23-.Ltext0
 2399 0250 0200     		.2byte	0x2
 2400 0252 77       		.byte	0x77
 2401 0253 18       		.sleb128 24
 2402 0254 A2000000 		.4byte	.LCFI23-.Ltext0
 2403 0258 A4000000 		.4byte	.LCFI24-.Ltext0
 2404 025c 0200     		.2byte	0x2
 2405 025e 77       		.byte	0x77
 2406 025f 04       		.sleb128 4
 2407 0260 A4000000 		.4byte	.LCFI24-.Ltext0
 2408 0264 A6000000 		.4byte	.LCFI25-.Ltext0
 2409 0268 0200     		.2byte	0x2
 2410 026a 7D       		.byte	0x7d
 2411 026b 04       		.sleb128 4
 2412 026c A6000000 		.4byte	.LCFI25-.Ltext0
 2413 0270 AC000000 		.4byte	.LFE33-.Ltext0
 2414 0274 0200     		.2byte	0x2
 2415 0276 7D       		.byte	0x7d
 2416 0277 00       		.sleb128 0
 2417 0278 00000000 		.4byte	0
 2418 027c 00000000 		.4byte	0
 2419              	.LLST3:
 2420 0280 54000000 		.4byte	.LFB32-.Ltext0
 2421 0284 56000000 		.4byte	.LCFI14-.Ltext0
 2422 0288 0200     		.2byte	0x2
 2423 028a 7D       		.byte	0x7d
 2424 028b 00       		.sleb128 0
 2425 028c 56000000 		.4byte	.LCFI14-.Ltext0
 2426 0290 58000000 		.4byte	.LCFI15-.Ltext0
 2427 0294 0200     		.2byte	0x2
 2428 0296 7D       		.byte	0x7d
 2429 0297 04       		.sleb128 4
 2430 0298 58000000 		.4byte	.LCFI15-.Ltext0
 2431 029c 5A000000 		.4byte	.LCFI16-.Ltext0
 2432 02a0 0200     		.2byte	0x2
 2433 02a2 7D       		.byte	0x7d
 2434 02a3 10       		.sleb128 16
 2435 02a4 5A000000 		.4byte	.LCFI16-.Ltext0
 2436 02a8 68000000 		.4byte	.LCFI17-.Ltext0
 2437 02ac 0200     		.2byte	0x2
 2438 02ae 77       		.byte	0x77
 2439 02af 10       		.sleb128 16
 2440 02b0 68000000 		.4byte	.LCFI17-.Ltext0
 2441 02b4 6A000000 		.4byte	.LCFI18-.Ltext0
 2442 02b8 0200     		.2byte	0x2
ARM GAS  G:\Users\Jaxb\AppData\Local\Temp\ccVwt5n8.s 			page 49


 2443 02ba 77       		.byte	0x77
 2444 02bb 04       		.sleb128 4
 2445 02bc 6A000000 		.4byte	.LCFI18-.Ltext0
 2446 02c0 6C000000 		.4byte	.LCFI19-.Ltext0
 2447 02c4 0200     		.2byte	0x2
 2448 02c6 7D       		.byte	0x7d
 2449 02c7 04       		.sleb128 4
 2450 02c8 6C000000 		.4byte	.LCFI19-.Ltext0
 2451 02cc 74000000 		.4byte	.LFE32-.Ltext0
 2452 02d0 0200     		.2byte	0x2
 2453 02d2 7D       		.byte	0x7d
 2454 02d3 00       		.sleb128 0
 2455 02d4 00000000 		.4byte	0
 2456 02d8 00000000 		.4byte	0
 2457              	.LLST2:
 2458 02dc 34000000 		.4byte	.LFB31-.Ltext0
 2459 02e0 36000000 		.4byte	.LCFI8-.Ltext0
 2460 02e4 0200     		.2byte	0x2
 2461 02e6 7D       		.byte	0x7d
 2462 02e7 00       		.sleb128 0
 2463 02e8 36000000 		.4byte	.LCFI8-.Ltext0
 2464 02ec 38000000 		.4byte	.LCFI9-.Ltext0
 2465 02f0 0200     		.2byte	0x2
 2466 02f2 7D       		.byte	0x7d
 2467 02f3 04       		.sleb128 4
 2468 02f4 38000000 		.4byte	.LCFI9-.Ltext0
 2469 02f8 3A000000 		.4byte	.LCFI10-.Ltext0
 2470 02fc 0200     		.2byte	0x2
 2471 02fe 7D       		.byte	0x7d
 2472 02ff 10       		.sleb128 16
 2473 0300 3A000000 		.4byte	.LCFI10-.Ltext0
 2474 0304 48000000 		.4byte	.LCFI11-.Ltext0
 2475 0308 0200     		.2byte	0x2
 2476 030a 77       		.byte	0x77
 2477 030b 10       		.sleb128 16
 2478 030c 48000000 		.4byte	.LCFI11-.Ltext0
 2479 0310 4A000000 		.4byte	.LCFI12-.Ltext0
 2480 0314 0200     		.2byte	0x2
 2481 0316 77       		.byte	0x77
 2482 0317 04       		.sleb128 4
 2483 0318 4A000000 		.4byte	.LCFI12-.Ltext0
 2484 031c 4C000000 		.4byte	.LCFI13-.Ltext0
 2485 0320 0200     		.2byte	0x2
 2486 0322 7D       		.byte	0x7d
 2487 0323 04       		.sleb128 4
 2488 0324 4C000000 		.4byte	.LCFI13-.Ltext0
 2489 0328 54000000 		.4byte	.LFE31-.Ltext0
 2490 032c 0200     		.2byte	0x2
 2491 032e 7D       		.byte	0x7d
 2492 032f 00       		.sleb128 0
 2493 0330 00000000 		.4byte	0
 2494 0334 00000000 		.4byte	0
 2495              	.LLST1:
 2496 0338 14000000 		.4byte	.LFB30-.Ltext0
 2497 033c 16000000 		.4byte	.LCFI2-.Ltext0
 2498 0340 0200     		.2byte	0x2
 2499 0342 7D       		.byte	0x7d
ARM GAS  G:\Users\Jaxb\AppData\Local\Temp\ccVwt5n8.s 			page 50


 2500 0343 00       		.sleb128 0
 2501 0344 16000000 		.4byte	.LCFI2-.Ltext0
 2502 0348 18000000 		.4byte	.LCFI3-.Ltext0
 2503 034c 0200     		.2byte	0x2
 2504 034e 7D       		.byte	0x7d
 2505 034f 04       		.sleb128 4
 2506 0350 18000000 		.4byte	.LCFI3-.Ltext0
 2507 0354 1A000000 		.4byte	.LCFI4-.Ltext0
 2508 0358 0200     		.2byte	0x2
 2509 035a 7D       		.byte	0x7d
 2510 035b 10       		.sleb128 16
 2511 035c 1A000000 		.4byte	.LCFI4-.Ltext0
 2512 0360 28000000 		.4byte	.LCFI5-.Ltext0
 2513 0364 0200     		.2byte	0x2
 2514 0366 77       		.byte	0x77
 2515 0367 10       		.sleb128 16
 2516 0368 28000000 		.4byte	.LCFI5-.Ltext0
 2517 036c 2A000000 		.4byte	.LCFI6-.Ltext0
 2518 0370 0200     		.2byte	0x2
 2519 0372 77       		.byte	0x77
 2520 0373 04       		.sleb128 4
 2521 0374 2A000000 		.4byte	.LCFI6-.Ltext0
 2522 0378 2C000000 		.4byte	.LCFI7-.Ltext0
 2523 037c 0200     		.2byte	0x2
 2524 037e 7D       		.byte	0x7d
 2525 037f 04       		.sleb128 4
 2526 0380 2C000000 		.4byte	.LCFI7-.Ltext0
 2527 0384 34000000 		.4byte	.LFE30-.Ltext0
 2528 0388 0200     		.2byte	0x2
 2529 038a 7D       		.byte	0x7d
 2530 038b 00       		.sleb128 0
 2531 038c 00000000 		.4byte	0
 2532 0390 00000000 		.4byte	0
 2533              	.LLST0:
 2534 0394 00000000 		.4byte	.LFB29-.Ltext0
 2535 0398 02000000 		.4byte	.LCFI0-.Ltext0
 2536 039c 0200     		.2byte	0x2
 2537 039e 7D       		.byte	0x7d
 2538 039f 00       		.sleb128 0
 2539 03a0 02000000 		.4byte	.LCFI0-.Ltext0
 2540 03a4 04000000 		.4byte	.LCFI1-.Ltext0
 2541 03a8 0200     		.2byte	0x2
 2542 03aa 7D       		.byte	0x7d
 2543 03ab 08       		.sleb128 8
 2544 03ac 04000000 		.4byte	.LCFI1-.Ltext0
 2545 03b0 14000000 		.4byte	.LFE29-.Ltext0
 2546 03b4 0200     		.2byte	0x2
 2547 03b6 77       		.byte	0x77
 2548 03b7 08       		.sleb128 8
 2549 03b8 00000000 		.4byte	0
 2550 03bc 00000000 		.4byte	0
 2551              		.section	.debug_aranges,"",%progbits
 2552 0000 1C000000 		.4byte	0x1c
 2553 0004 0200     		.2byte	0x2
 2554 0006 00000000 		.4byte	.Ldebug_info0
 2555 000a 04       		.byte	0x4
 2556 000b 00       		.byte	0
ARM GAS  G:\Users\Jaxb\AppData\Local\Temp\ccVwt5n8.s 			page 51


 2557 000c 0000     		.2byte	0
 2558 000e 0000     		.2byte	0
 2559 0010 00000000 		.4byte	.Ltext0
 2560 0014 C0010000 		.4byte	.Letext0-.Ltext0
 2561 0018 00000000 		.4byte	0
 2562 001c 00000000 		.4byte	0
 2563              		.section	.debug_line,"",%progbits
 2564              	.Ldebug_line0:
 2565 0000 56010000 		.section	.debug_str,"MS",%progbits,1
 2565      02000001 
 2565      00000201 
 2565      FB0E0D00 
 2565      01010101 
 2566              	.LASF16:
 2567 0000 53797374 		.ascii	"SystemCoreClock\000"
 2567      656D436F 
 2567      7265436C 
 2567      6F636B00 
 2568              	.LASF103:
 2569 0010 424B505F 		.ascii	"BKP_TypeDef\000"
 2569      54797065 
 2569      44656600 
 2570              	.LASF124:
 2571 001c 463A5C6B 		.ascii	"F:\\kaka\\KAKAOS\\C\\windows\\Project\\RVMDK\243\250"
 2571      616B615C 
 2571      4B414B41 
 2571      4F535C43 
 2571      5C77696E 
 2572 0044 757635A3 		.ascii	"uv5\243\251\000"
 2572      A900
 2573              	.LASF92:
 2574 004a 52455345 		.ascii	"RESERVED40\000"
 2574      52564544 
 2574      343000
 2575              	.LASF94:
 2576 0055 52455345 		.ascii	"RESERVED41\000"
 2576      52564544 
 2576      343100
 2577              	.LASF96:
 2578 0060 52455345 		.ascii	"RESERVED42\000"
 2578      52564544 
 2578      343200
 2579              	.LASF98:
 2580 006b 52455345 		.ascii	"RESERVED43\000"
 2580      52564544 
 2580      343300
 2581              	.LASF100:
 2582 0076 52455345 		.ascii	"RESERVED44\000"
 2582      52564544 
 2582      343400
 2583              	.LASF11:
 2584 0081 756E7369 		.ascii	"unsigned int\000"
 2584      676E6564 
 2584      20696E74 
 2584      00
 2585              	.LASF22:
 2586 008e 46756E63 		.ascii	"FunctionalState\000"
ARM GAS  G:\Users\Jaxb\AppData\Local\Temp\ccVwt5n8.s 			page 52


 2586      74696F6E 
 2586      616C5374 
 2586      61746500 
 2587              	.LASF108:
 2588 009e 424B505F 		.ascii	"BKP_DR\000"
 2588      445200
 2589              	.LASF18:
 2590 00a5 466C6167 		.ascii	"FlagStatus\000"
 2590      53746174 
 2590      757300
 2591              	.LASF112:
 2592 00b0 43616C69 		.ascii	"CalibrationValue\000"
 2592      62726174 
 2592      696F6E56 
 2592      616C7565 
 2592      00
 2593              	.LASF14:
 2594 00c1 75696E74 		.ascii	"uint32_t\000"
 2594      33325F74 
 2594      00
 2595              	.LASF121:
 2596 00ca 424B505F 		.ascii	"BKP_DeInit\000"
 2596      4465496E 
 2596      697400
 2597              	.LASF125:
 2598 00d5 424B505F 		.ascii	"BKP_ReadBackupRegister\000"
 2598      52656164 
 2598      4261636B 
 2598      75705265 
 2598      67697374 
 2599              	.LASF10:
 2600 00ec 6C6F6E67 		.ascii	"long long unsigned int\000"
 2600      206C6F6E 
 2600      6720756E 
 2600      7369676E 
 2600      65642069 
 2601              	.LASF4:
 2602 0103 5F5F7569 		.ascii	"__uint16_t\000"
 2602      6E743136 
 2602      5F7400
 2603              	.LASF42:
 2604 010e 52455345 		.ascii	"RESERVED15\000"
 2604      52564544 
 2604      313500
 2605              	.LASF107:
 2606 0119 424B505F 		.ascii	"BKP_GetFlagStatus\000"
 2606      47657446 
 2606      6C616753 
 2606      74617475 
 2606      7300
 2607              	.LASF113:
 2608 012b 746D7072 		.ascii	"tmpreg\000"
 2608      656700
 2609              	.LASF19:
 2610 0132 49545374 		.ascii	"ITStatus\000"
 2610      61747573 
 2610      00
ARM GAS  G:\Users\Jaxb\AppData\Local\Temp\ccVwt5n8.s 			page 53


 2611              	.LASF114:
 2612 013b 424B505F 		.ascii	"BKP_RTCOutputConfig\000"
 2612      5254434F 
 2612      75747075 
 2612      74436F6E 
 2612      66696700 
 2613              	.LASF117:
 2614 014f 4E657753 		.ascii	"NewState\000"
 2614      74617465 
 2614      00
 2615              	.LASF106:
 2616 0158 424B505F 		.ascii	"BKP_GetITStatus\000"
 2616      47657449 
 2616      54537461 
 2616      74757300 
 2617              	.LASF20:
 2618 0168 44495341 		.ascii	"DISABLE\000"
 2618      424C4500 
 2619              	.LASF105:
 2620 0170 424B505F 		.ascii	"BKP_ClearFlag\000"
 2620      436C6561 
 2620      72466C61 
 2620      6700
 2621              	.LASF12:
 2622 017e 75696E74 		.ascii	"uint8_t\000"
 2622      385F7400 
 2623              	.LASF119:
 2624 0186 424B505F 		.ascii	"BKP_TamperPinLevelConfig\000"
 2624      54616D70 
 2624      65725069 
 2624      6E4C6576 
 2624      656C436F 
 2625              	.LASF115:
 2626 019f 424B505F 		.ascii	"BKP_RTCOutputSource\000"
 2626      5254434F 
 2626      75747075 
 2626      74536F75 
 2626      72636500 
 2627              	.LASF9:
 2628 01b3 6C6F6E67 		.ascii	"long long int\000"
 2628      206C6F6E 
 2628      6720696E 
 2628      7400
 2629              	.LASF111:
 2630 01c1 424B505F 		.ascii	"BKP_SetRTCCalibrationValue\000"
 2630      53657452 
 2630      54434361 
 2630      6C696272 
 2630      6174696F 
 2631              	.LASF120:
 2632 01dc 424B505F 		.ascii	"BKP_TamperPinLevel\000"
 2632      54616D70 
 2632      65725069 
 2632      6E4C6576 
 2632      656C00
 2633              	.LASF122:
 2634 01ef 474E5520 		.ascii	"GNU C11 7.3.1 20180622 (release) [ARM/embedded-7-br"
ARM GAS  G:\Users\Jaxb\AppData\Local\Temp\ccVwt5n8.s 			page 54


 2634      43313120 
 2634      372E332E 
 2634      31203230 
 2634      31383036 
 2635 0222 616E6368 		.ascii	"anch revision 261907] -mcpu=cortex-m3 -mthumb -mapc"
 2635      20726576 
 2635      6973696F 
 2635      6E203236 
 2635      31393037 
 2636 0255 732D6672 		.ascii	"s-frame -mthumb-interwork -mcpu=cortex-m3 -mthumb -"
 2636      616D6520 
 2636      2D6D7468 
 2636      756D622D 
 2636      696E7465 
 2637 0288 67647761 		.ascii	"gdwarf-2 -O0\000"
 2637      72662D32 
 2637      202D4F30 
 2637      00
 2638              	.LASF123:
 2639 0295 2E2E2F2E 		.ascii	"../../source/src/FWlib/src/stm32f10x_bkp.c\000"
 2639      2E2F736F 
 2639      75726365 
 2639      2F737263 
 2639      2F46576C 
 2640              	.LASF33:
 2641 02c0 44523130 		.ascii	"DR10\000"
 2641      00
 2642              	.LASF39:
 2643 02c5 44523131 		.ascii	"DR11\000"
 2643      00
 2644              	.LASF41:
 2645 02ca 44523132 		.ascii	"DR12\000"
 2645      00
 2646              	.LASF43:
 2647 02cf 44523133 		.ascii	"DR13\000"
 2647      00
 2648              	.LASF45:
 2649 02d4 44523134 		.ascii	"DR14\000"
 2649      00
 2650              	.LASF47:
 2651 02d9 44523135 		.ascii	"DR15\000"
 2651      00
 2652              	.LASF49:
 2653 02de 44523136 		.ascii	"DR16\000"
 2653      00
 2654              	.LASF51:
 2655 02e3 44523137 		.ascii	"DR17\000"
 2655      00
 2656              	.LASF53:
 2657 02e8 44523138 		.ascii	"DR18\000"
 2657      00
 2658              	.LASF55:
 2659 02ed 44523139 		.ascii	"DR19\000"
 2659      00
 2660              	.LASF118:
 2661 02f2 424B505F 		.ascii	"BKP_TamperPinCmd\000"
 2661      54616D70 
ARM GAS  G:\Users\Jaxb\AppData\Local\Temp\ccVwt5n8.s 			page 55


 2661      65725069 
 2661      6E436D64 
 2661      00
 2662              	.LASF13:
 2663 0303 75696E74 		.ascii	"uint16_t\000"
 2663      31365F74 
 2663      00
 2664              	.LASF57:
 2665 030c 44523230 		.ascii	"DR20\000"
 2665      00
 2666              	.LASF59:
 2667 0311 44523231 		.ascii	"DR21\000"
 2667      00
 2668              	.LASF61:
 2669 0316 44523232 		.ascii	"DR22\000"
 2669      00
 2670              	.LASF63:
 2671 031b 44523233 		.ascii	"DR23\000"
 2671      00
 2672              	.LASF65:
 2673 0320 44523234 		.ascii	"DR24\000"
 2673      00
 2674              	.LASF67:
 2675 0325 44523235 		.ascii	"DR25\000"
 2675      00
 2676              	.LASF69:
 2677 032a 44523236 		.ascii	"DR26\000"
 2677      00
 2678              	.LASF71:
 2679 032f 44523237 		.ascii	"DR27\000"
 2679      00
 2680              	.LASF73:
 2681 0334 44523238 		.ascii	"DR28\000"
 2681      00
 2682              	.LASF75:
 2683 0339 44523239 		.ascii	"DR29\000"
 2683      00
 2684              	.LASF102:
 2685 033e 52455345 		.ascii	"RESERVED45\000"
 2685      52564544 
 2685      343500
 2686              	.LASF23:
 2687 0349 52455345 		.ascii	"RESERVED0\000"
 2687      52564544 
 2687      3000
 2688              	.LASF24:
 2689 0353 52455345 		.ascii	"RESERVED1\000"
 2689      52564544 
 2689      3100
 2690              	.LASF25:
 2691 035d 52455345 		.ascii	"RESERVED2\000"
 2691      52564544 
 2691      3200
 2692              	.LASF26:
 2693 0367 52455345 		.ascii	"RESERVED3\000"
 2693      52564544 
 2693      3300
ARM GAS  G:\Users\Jaxb\AppData\Local\Temp\ccVwt5n8.s 			page 56


 2694              	.LASF27:
 2695 0371 52455345 		.ascii	"RESERVED4\000"
 2695      52564544 
 2695      3400
 2696              	.LASF28:
 2697 037b 52455345 		.ascii	"RESERVED5\000"
 2697      52564544 
 2697      3500
 2698              	.LASF29:
 2699 0385 52455345 		.ascii	"RESERVED6\000"
 2699      52564544 
 2699      3600
 2700              	.LASF2:
 2701 038f 73686F72 		.ascii	"short int\000"
 2701      7420696E 
 2701      7400
 2702              	.LASF31:
 2703 0399 52455345 		.ascii	"RESERVED8\000"
 2703      52564544 
 2703      3800
 2704              	.LASF32:
 2705 03a3 52455345 		.ascii	"RESERVED9\000"
 2705      52564544 
 2705      3900
 2706              	.LASF6:
 2707 03ad 6C6F6E67 		.ascii	"long int\000"
 2707      20696E74 
 2707      00
 2708              	.LASF15:
 2709 03b6 49544D5F 		.ascii	"ITM_RxBuffer\000"
 2709      52784275 
 2709      66666572 
 2709      00
 2710              	.LASF17:
 2711 03c3 52455345 		.ascii	"RESET\000"
 2711      5400
 2712              	.LASF77:
 2713 03c9 44523330 		.ascii	"DR30\000"
 2713      00
 2714              	.LASF79:
 2715 03ce 44523331 		.ascii	"DR31\000"
 2715      00
 2716              	.LASF81:
 2717 03d3 44523332 		.ascii	"DR32\000"
 2717      00
 2718              	.LASF83:
 2719 03d8 44523333 		.ascii	"DR33\000"
 2719      00
 2720              	.LASF85:
 2721 03dd 44523334 		.ascii	"DR34\000"
 2721      00
 2722              	.LASF87:
 2723 03e2 44523335 		.ascii	"DR35\000"
 2723      00
 2724              	.LASF89:
 2725 03e7 44523336 		.ascii	"DR36\000"
 2725      00
ARM GAS  G:\Users\Jaxb\AppData\Local\Temp\ccVwt5n8.s 			page 57


 2726              	.LASF91:
 2727 03ec 44523337 		.ascii	"DR37\000"
 2727      00
 2728              	.LASF93:
 2729 03f1 44523338 		.ascii	"DR38\000"
 2729      00
 2730              	.LASF95:
 2731 03f6 44523339 		.ascii	"DR39\000"
 2731      00
 2732              	.LASF104:
 2733 03fb 424B505F 		.ascii	"BKP_ClearITPendingBit\000"
 2733      436C6561 
 2733      72495450 
 2733      656E6469 
 2733      6E674269 
 2734              	.LASF3:
 2735 0411 5F5F7569 		.ascii	"__uint8_t\000"
 2735      6E74385F 
 2735      7400
 2736              	.LASF116:
 2737 041b 424B505F 		.ascii	"BKP_ITConfig\000"
 2737      4954436F 
 2737      6E666967 
 2737      00
 2738              	.LASF21:
 2739 0428 454E4142 		.ascii	"ENABLE\000"
 2739      4C4500
 2740              	.LASF97:
 2741 042f 44523430 		.ascii	"DR40\000"
 2741      00
 2742              	.LASF99:
 2743 0434 44523431 		.ascii	"DR41\000"
 2743      00
 2744              	.LASF101:
 2745 0439 44523432 		.ascii	"DR42\000"
 2745      00
 2746              	.LASF8:
 2747 043e 6C6F6E67 		.ascii	"long unsigned int\000"
 2747      20756E73 
 2747      69676E65 
 2747      6420696E 
 2747      7400
 2748              	.LASF1:
 2749 0450 756E7369 		.ascii	"unsigned char\000"
 2749      676E6564 
 2749      20636861 
 2749      7200
 2750              	.LASF7:
 2751 045e 5F5F7569 		.ascii	"__uint32_t\000"
 2751      6E743332 
 2751      5F7400
 2752              	.LASF34:
 2753 0469 52455345 		.ascii	"RESERVED10\000"
 2753      52564544 
 2753      313000
 2754              	.LASF36:
 2755 0474 52455345 		.ascii	"RESERVED11\000"
ARM GAS  G:\Users\Jaxb\AppData\Local\Temp\ccVwt5n8.s 			page 58


 2755      52564544 
 2755      313100
 2756              	.LASF37:
 2757 047f 52455345 		.ascii	"RESERVED12\000"
 2757      52564544 
 2757      313200
 2758              	.LASF38:
 2759 048a 52455345 		.ascii	"RESERVED13\000"
 2759      52564544 
 2759      313300
 2760              	.LASF40:
 2761 0495 52455345 		.ascii	"RESERVED14\000"
 2761      52564544 
 2761      313400
 2762              	.LASF44:
 2763 04a0 52455345 		.ascii	"RESERVED16\000"
 2763      52564544 
 2763      313600
 2764              	.LASF46:
 2765 04ab 52455345 		.ascii	"RESERVED17\000"
 2765      52564544 
 2765      313700
 2766              	.LASF48:
 2767 04b6 52455345 		.ascii	"RESERVED18\000"
 2767      52564544 
 2767      313800
 2768              	.LASF50:
 2769 04c1 52455345 		.ascii	"RESERVED19\000"
 2769      52564544 
 2769      313900
 2770              	.LASF35:
 2771 04cc 52544343 		.ascii	"RTCCR\000"
 2771      5200
 2772              	.LASF110:
 2773 04d2 424B505F 		.ascii	"BKP_WriteBackupRegister\000"
 2773      57726974 
 2773      65426163 
 2773      6B757052 
 2773      65676973 
 2774              	.LASF0:
 2775 04ea 7369676E 		.ascii	"signed char\000"
 2775      65642063 
 2775      68617200 
 2776              	.LASF5:
 2777 04f6 73686F72 		.ascii	"short unsigned int\000"
 2777      7420756E 
 2777      7369676E 
 2777      65642069 
 2777      6E7400
 2778              	.LASF52:
 2779 0509 52455345 		.ascii	"RESERVED20\000"
 2779      52564544 
 2779      323000
 2780              	.LASF54:
 2781 0514 52455345 		.ascii	"RESERVED21\000"
 2781      52564544 
 2781      323100
ARM GAS  G:\Users\Jaxb\AppData\Local\Temp\ccVwt5n8.s 			page 59


 2782              	.LASF56:
 2783 051f 52455345 		.ascii	"RESERVED22\000"
 2783      52564544 
 2783      323200
 2784              	.LASF58:
 2785 052a 52455345 		.ascii	"RESERVED23\000"
 2785      52564544 
 2785      323300
 2786              	.LASF60:
 2787 0535 52455345 		.ascii	"RESERVED24\000"
 2787      52564544 
 2787      323400
 2788              	.LASF62:
 2789 0540 52455345 		.ascii	"RESERVED25\000"
 2789      52564544 
 2789      323500
 2790              	.LASF64:
 2791 054b 52455345 		.ascii	"RESERVED26\000"
 2791      52564544 
 2791      323600
 2792              	.LASF66:
 2793 0556 52455345 		.ascii	"RESERVED27\000"
 2793      52564544 
 2793      323700
 2794              	.LASF68:
 2795 0561 52455345 		.ascii	"RESERVED28\000"
 2795      52564544 
 2795      323800
 2796              	.LASF70:
 2797 056c 52455345 		.ascii	"RESERVED29\000"
 2797      52564544 
 2797      323900
 2798              	.LASF30:
 2799 0577 52455345 		.ascii	"RESERVED7\000"
 2799      52564544 
 2799      3700
 2800              	.LASF109:
 2801 0581 44617461 		.ascii	"Data\000"
 2801      00
 2802              	.LASF72:
 2803 0586 52455345 		.ascii	"RESERVED30\000"
 2803      52564544 
 2803      333000
 2804              	.LASF74:
 2805 0591 52455345 		.ascii	"RESERVED31\000"
 2805      52564544 
 2805      333100
 2806              	.LASF76:
 2807 059c 52455345 		.ascii	"RESERVED32\000"
 2807      52564544 
 2807      333200
 2808              	.LASF78:
 2809 05a7 52455345 		.ascii	"RESERVED33\000"
 2809      52564544 
 2809      333300
 2810              	.LASF80:
 2811 05b2 52455345 		.ascii	"RESERVED34\000"
ARM GAS  G:\Users\Jaxb\AppData\Local\Temp\ccVwt5n8.s 			page 60


 2811      52564544 
 2811      333400
 2812              	.LASF82:
 2813 05bd 52455345 		.ascii	"RESERVED35\000"
 2813      52564544 
 2813      333500
 2814              	.LASF84:
 2815 05c8 52455345 		.ascii	"RESERVED36\000"
 2815      52564544 
 2815      333600
 2816              	.LASF86:
 2817 05d3 52455345 		.ascii	"RESERVED37\000"
 2817      52564544 
 2817      333700
 2818              	.LASF88:
 2819 05de 52455345 		.ascii	"RESERVED38\000"
 2819      52564544 
 2819      333800
 2820              	.LASF90:
 2821 05e9 52455345 		.ascii	"RESERVED39\000"
 2821      52564544 
 2821      333900
 2822              		.ident	"GCC: (GNU Tools for Arm Embedded Processors 7-2018-q2-update) 7.3.1 20180622 (release) [AR
ARM GAS  G:\Users\Jaxb\AppData\Local\Temp\ccVwt5n8.s 			page 61


DEFINED SYMBOLS
                            *ABS*:00000000 stm32f10x_bkp.c
G:\Users\Jaxb\AppData\Local\Temp\ccVwt5n8.s:15     .text:00000000 $t
G:\Users\Jaxb\AppData\Local\Temp\ccVwt5n8.s:22     .text:00000000 BKP_DeInit
G:\Users\Jaxb\AppData\Local\Temp\ccVwt5n8.s:56     .text:00000014 BKP_TamperPinLevelConfig
G:\Users\Jaxb\AppData\Local\Temp\ccVwt5n8.s:96     .text:00000030 $d
G:\Users\Jaxb\AppData\Local\Temp\ccVwt5n8.s:100    .text:00000034 $t
G:\Users\Jaxb\AppData\Local\Temp\ccVwt5n8.s:107    .text:00000034 BKP_TamperPinCmd
G:\Users\Jaxb\AppData\Local\Temp\ccVwt5n8.s:147    .text:00000050 $d
G:\Users\Jaxb\AppData\Local\Temp\ccVwt5n8.s:151    .text:00000054 $t
G:\Users\Jaxb\AppData\Local\Temp\ccVwt5n8.s:158    .text:00000054 BKP_ITConfig
G:\Users\Jaxb\AppData\Local\Temp\ccVwt5n8.s:198    .text:00000070 $d
G:\Users\Jaxb\AppData\Local\Temp\ccVwt5n8.s:202    .text:00000074 $t
G:\Users\Jaxb\AppData\Local\Temp\ccVwt5n8.s:209    .text:00000074 BKP_RTCOutputConfig
G:\Users\Jaxb\AppData\Local\Temp\ccVwt5n8.s:265    .text:000000a8 $d
G:\Users\Jaxb\AppData\Local\Temp\ccVwt5n8.s:269    .text:000000ac $t
G:\Users\Jaxb\AppData\Local\Temp\ccVwt5n8.s:276    .text:000000ac BKP_SetRTCCalibrationValue
G:\Users\Jaxb\AppData\Local\Temp\ccVwt5n8.s:333    .text:000000e4 $d
G:\Users\Jaxb\AppData\Local\Temp\ccVwt5n8.s:337    .text:000000e8 $t
G:\Users\Jaxb\AppData\Local\Temp\ccVwt5n8.s:344    .text:000000e8 BKP_WriteBackupRegister
G:\Users\Jaxb\AppData\Local\Temp\ccVwt5n8.s:399    .text:0000011c $d
G:\Users\Jaxb\AppData\Local\Temp\ccVwt5n8.s:403    .text:00000120 $t
G:\Users\Jaxb\AppData\Local\Temp\ccVwt5n8.s:410    .text:00000120 BKP_ReadBackupRegister
G:\Users\Jaxb\AppData\Local\Temp\ccVwt5n8.s:461    .text:0000014c $d
G:\Users\Jaxb\AppData\Local\Temp\ccVwt5n8.s:465    .text:00000150 $t
G:\Users\Jaxb\AppData\Local\Temp\ccVwt5n8.s:472    .text:00000150 BKP_GetFlagStatus
G:\Users\Jaxb\AppData\Local\Temp\ccVwt5n8.s:504    .text:00000164 $d
G:\Users\Jaxb\AppData\Local\Temp\ccVwt5n8.s:508    .text:00000168 $t
G:\Users\Jaxb\AppData\Local\Temp\ccVwt5n8.s:515    .text:00000168 BKP_ClearFlag
G:\Users\Jaxb\AppData\Local\Temp\ccVwt5n8.s:551    .text:00000184 $d
G:\Users\Jaxb\AppData\Local\Temp\ccVwt5n8.s:555    .text:00000188 $t
G:\Users\Jaxb\AppData\Local\Temp\ccVwt5n8.s:562    .text:00000188 BKP_GetITStatus
G:\Users\Jaxb\AppData\Local\Temp\ccVwt5n8.s:594    .text:0000019c $d
G:\Users\Jaxb\AppData\Local\Temp\ccVwt5n8.s:598    .text:000001a0 $t
G:\Users\Jaxb\AppData\Local\Temp\ccVwt5n8.s:605    .text:000001a0 BKP_ClearITPendingBit
G:\Users\Jaxb\AppData\Local\Temp\ccVwt5n8.s:641    .text:000001bc $d

UNDEFINED SYMBOLS
RCC_BackupResetCmd
