ARM GAS  G:\Users\Jaxb\AppData\Local\Temp\cc4z3oeX.s 			page 1


   1              		.cpu cortex-m3
   2              		.eabi_attribute 20, 1
   3              		.eabi_attribute 21, 1
   4              		.eabi_attribute 23, 3
   5              		.eabi_attribute 24, 1
   6              		.eabi_attribute 25, 1
   7              		.eabi_attribute 26, 1
   8              		.eabi_attribute 30, 6
   9              		.eabi_attribute 34, 1
  10              		.eabi_attribute 18, 4
  11              		.file	"stm32f10x_dac.c"
  12              		.text
  13              	.Ltext0:
  14              		.cfi_sections	.debug_frame
  15              		.align	1
  16              		.global	DAC_DeInit
  17              		.syntax unified
  18              		.thumb
  19              		.thumb_func
  20              		.fpu softvfp
  21              		.type	DAC_DeInit, %function
  22              	DAC_DeInit:
  23              	.LFB29:
  24              		.file 1 "../../source/src/FWlib/src/stm32f10x_dac.c"
   1:../../source/src/FWlib/src/stm32f10x_dac.c **** /**
   2:../../source/src/FWlib/src/stm32f10x_dac.c ****   ******************************************************************************
   3:../../source/src/FWlib/src/stm32f10x_dac.c ****   * @file    stm32f10x_dac.c
   4:../../source/src/FWlib/src/stm32f10x_dac.c ****   * @author  MCD Application Team
   5:../../source/src/FWlib/src/stm32f10x_dac.c ****   * @version V3.5.0
   6:../../source/src/FWlib/src/stm32f10x_dac.c ****   * @date    11-March-2011
   7:../../source/src/FWlib/src/stm32f10x_dac.c ****   * @brief   This file provides all the DAC firmware functions.
   8:../../source/src/FWlib/src/stm32f10x_dac.c ****   ******************************************************************************
   9:../../source/src/FWlib/src/stm32f10x_dac.c ****   * @attention
  10:../../source/src/FWlib/src/stm32f10x_dac.c ****   *
  11:../../source/src/FWlib/src/stm32f10x_dac.c ****   * THE PRESENT FIRMWARE WHICH IS FOR GUIDANCE ONLY AIMS AT PROVIDING CUSTOMERS
  12:../../source/src/FWlib/src/stm32f10x_dac.c ****   * WITH CODING INFORMATION REGARDING THEIR PRODUCTS IN ORDER FOR THEM TO SAVE
  13:../../source/src/FWlib/src/stm32f10x_dac.c ****   * TIME. AS A RESULT, STMICROELECTRONICS SHALL NOT BE HELD LIABLE FOR ANY
  14:../../source/src/FWlib/src/stm32f10x_dac.c ****   * DIRECT, INDIRECT OR CONSEQUENTIAL DAMAGES WITH RESPECT TO ANY CLAIMS ARISING
  15:../../source/src/FWlib/src/stm32f10x_dac.c ****   * FROM THE CONTENT OF SUCH FIRMWARE AND/OR THE USE MADE BY CUSTOMERS OF THE
  16:../../source/src/FWlib/src/stm32f10x_dac.c ****   * CODING INFORMATION CONTAINED HEREIN IN CONNECTION WITH THEIR PRODUCTS.
  17:../../source/src/FWlib/src/stm32f10x_dac.c ****   *
  18:../../source/src/FWlib/src/stm32f10x_dac.c ****   * <h2><center>&copy; COPYRIGHT 2011 STMicroelectronics</center></h2>
  19:../../source/src/FWlib/src/stm32f10x_dac.c ****   ******************************************************************************
  20:../../source/src/FWlib/src/stm32f10x_dac.c ****   */
  21:../../source/src/FWlib/src/stm32f10x_dac.c **** 
  22:../../source/src/FWlib/src/stm32f10x_dac.c **** /* Includes ------------------------------------------------------------------*/
  23:../../source/src/FWlib/src/stm32f10x_dac.c **** #include "stm32f10x_dac.h"
  24:../../source/src/FWlib/src/stm32f10x_dac.c **** #include "stm32f10x_rcc.h"
  25:../../source/src/FWlib/src/stm32f10x_dac.c **** 
  26:../../source/src/FWlib/src/stm32f10x_dac.c **** /** @addtogroup STM32F10x_StdPeriph_Driver
  27:../../source/src/FWlib/src/stm32f10x_dac.c ****   * @{
  28:../../source/src/FWlib/src/stm32f10x_dac.c ****   */
  29:../../source/src/FWlib/src/stm32f10x_dac.c **** 
  30:../../source/src/FWlib/src/stm32f10x_dac.c **** /** @defgroup DAC 
  31:../../source/src/FWlib/src/stm32f10x_dac.c ****   * @brief DAC driver modules
  32:../../source/src/FWlib/src/stm32f10x_dac.c ****   * @{
  33:../../source/src/FWlib/src/stm32f10x_dac.c ****   */ 
ARM GAS  G:\Users\Jaxb\AppData\Local\Temp\cc4z3oeX.s 			page 2


  34:../../source/src/FWlib/src/stm32f10x_dac.c **** 
  35:../../source/src/FWlib/src/stm32f10x_dac.c **** /** @defgroup DAC_Private_TypesDefinitions
  36:../../source/src/FWlib/src/stm32f10x_dac.c ****   * @{
  37:../../source/src/FWlib/src/stm32f10x_dac.c ****   */
  38:../../source/src/FWlib/src/stm32f10x_dac.c **** 
  39:../../source/src/FWlib/src/stm32f10x_dac.c **** /**
  40:../../source/src/FWlib/src/stm32f10x_dac.c ****   * @}
  41:../../source/src/FWlib/src/stm32f10x_dac.c ****   */
  42:../../source/src/FWlib/src/stm32f10x_dac.c **** 
  43:../../source/src/FWlib/src/stm32f10x_dac.c **** /** @defgroup DAC_Private_Defines
  44:../../source/src/FWlib/src/stm32f10x_dac.c ****   * @{
  45:../../source/src/FWlib/src/stm32f10x_dac.c ****   */
  46:../../source/src/FWlib/src/stm32f10x_dac.c **** 
  47:../../source/src/FWlib/src/stm32f10x_dac.c **** /* CR register Mask */
  48:../../source/src/FWlib/src/stm32f10x_dac.c **** #define CR_CLEAR_MASK              ((uint32_t)0x00000FFE)
  49:../../source/src/FWlib/src/stm32f10x_dac.c **** 
  50:../../source/src/FWlib/src/stm32f10x_dac.c **** /* DAC Dual Channels SWTRIG masks */
  51:../../source/src/FWlib/src/stm32f10x_dac.c **** #define DUAL_SWTRIG_SET            ((uint32_t)0x00000003)
  52:../../source/src/FWlib/src/stm32f10x_dac.c **** #define DUAL_SWTRIG_RESET          ((uint32_t)0xFFFFFFFC)
  53:../../source/src/FWlib/src/stm32f10x_dac.c **** 
  54:../../source/src/FWlib/src/stm32f10x_dac.c **** /* DHR registers offsets */
  55:../../source/src/FWlib/src/stm32f10x_dac.c **** #define DHR12R1_OFFSET             ((uint32_t)0x00000008)
  56:../../source/src/FWlib/src/stm32f10x_dac.c **** #define DHR12R2_OFFSET             ((uint32_t)0x00000014)
  57:../../source/src/FWlib/src/stm32f10x_dac.c **** #define DHR12RD_OFFSET             ((uint32_t)0x00000020)
  58:../../source/src/FWlib/src/stm32f10x_dac.c **** 
  59:../../source/src/FWlib/src/stm32f10x_dac.c **** /* DOR register offset */
  60:../../source/src/FWlib/src/stm32f10x_dac.c **** #define DOR_OFFSET                 ((uint32_t)0x0000002C)
  61:../../source/src/FWlib/src/stm32f10x_dac.c **** /**
  62:../../source/src/FWlib/src/stm32f10x_dac.c ****   * @}
  63:../../source/src/FWlib/src/stm32f10x_dac.c ****   */
  64:../../source/src/FWlib/src/stm32f10x_dac.c **** 
  65:../../source/src/FWlib/src/stm32f10x_dac.c **** /** @defgroup DAC_Private_Macros
  66:../../source/src/FWlib/src/stm32f10x_dac.c ****   * @{
  67:../../source/src/FWlib/src/stm32f10x_dac.c ****   */
  68:../../source/src/FWlib/src/stm32f10x_dac.c **** 
  69:../../source/src/FWlib/src/stm32f10x_dac.c **** /**
  70:../../source/src/FWlib/src/stm32f10x_dac.c ****   * @}
  71:../../source/src/FWlib/src/stm32f10x_dac.c ****   */
  72:../../source/src/FWlib/src/stm32f10x_dac.c **** 
  73:../../source/src/FWlib/src/stm32f10x_dac.c **** /** @defgroup DAC_Private_Variables
  74:../../source/src/FWlib/src/stm32f10x_dac.c ****   * @{
  75:../../source/src/FWlib/src/stm32f10x_dac.c ****   */
  76:../../source/src/FWlib/src/stm32f10x_dac.c **** 
  77:../../source/src/FWlib/src/stm32f10x_dac.c **** /**
  78:../../source/src/FWlib/src/stm32f10x_dac.c ****   * @}
  79:../../source/src/FWlib/src/stm32f10x_dac.c ****   */
  80:../../source/src/FWlib/src/stm32f10x_dac.c **** 
  81:../../source/src/FWlib/src/stm32f10x_dac.c **** /** @defgroup DAC_Private_FunctionPrototypes
  82:../../source/src/FWlib/src/stm32f10x_dac.c ****   * @{
  83:../../source/src/FWlib/src/stm32f10x_dac.c ****   */
  84:../../source/src/FWlib/src/stm32f10x_dac.c **** 
  85:../../source/src/FWlib/src/stm32f10x_dac.c **** /**
  86:../../source/src/FWlib/src/stm32f10x_dac.c ****   * @}
  87:../../source/src/FWlib/src/stm32f10x_dac.c ****   */
  88:../../source/src/FWlib/src/stm32f10x_dac.c **** 
  89:../../source/src/FWlib/src/stm32f10x_dac.c **** /** @defgroup DAC_Private_Functions
  90:../../source/src/FWlib/src/stm32f10x_dac.c ****   * @{
ARM GAS  G:\Users\Jaxb\AppData\Local\Temp\cc4z3oeX.s 			page 3


  91:../../source/src/FWlib/src/stm32f10x_dac.c ****   */
  92:../../source/src/FWlib/src/stm32f10x_dac.c **** 
  93:../../source/src/FWlib/src/stm32f10x_dac.c **** /**
  94:../../source/src/FWlib/src/stm32f10x_dac.c ****   * @brief  Deinitializes the DAC peripheral registers to their default reset values.
  95:../../source/src/FWlib/src/stm32f10x_dac.c ****   * @param  None
  96:../../source/src/FWlib/src/stm32f10x_dac.c ****   * @retval None
  97:../../source/src/FWlib/src/stm32f10x_dac.c ****   */
  98:../../source/src/FWlib/src/stm32f10x_dac.c **** void DAC_DeInit(void)
  99:../../source/src/FWlib/src/stm32f10x_dac.c **** {
  25              		.loc 1 99 0
  26              		.cfi_startproc
  27              		@ args = 0, pretend = 0, frame = 0
  28              		@ frame_needed = 1, uses_anonymous_args = 0
  29 0000 80B5     		push	{r7, lr}
  30              	.LCFI0:
  31              		.cfi_def_cfa_offset 8
  32              		.cfi_offset 7, -8
  33              		.cfi_offset 14, -4
  34 0002 00AF     		add	r7, sp, #0
  35              	.LCFI1:
  36              		.cfi_def_cfa_register 7
 100:../../source/src/FWlib/src/stm32f10x_dac.c ****   /* Enable DAC reset state */
 101:../../source/src/FWlib/src/stm32f10x_dac.c ****   RCC_APB1PeriphResetCmd(RCC_APB1Periph_DAC, ENABLE);
  37              		.loc 1 101 0
  38 0004 0121     		movs	r1, #1
  39 0006 4FF00050 		mov	r0, #536870912
  40 000a FFF7FEFF 		bl	RCC_APB1PeriphResetCmd
 102:../../source/src/FWlib/src/stm32f10x_dac.c ****   /* Release DAC from reset state */
 103:../../source/src/FWlib/src/stm32f10x_dac.c ****   RCC_APB1PeriphResetCmd(RCC_APB1Periph_DAC, DISABLE);
  41              		.loc 1 103 0
  42 000e 0021     		movs	r1, #0
  43 0010 4FF00050 		mov	r0, #536870912
  44 0014 FFF7FEFF 		bl	RCC_APB1PeriphResetCmd
 104:../../source/src/FWlib/src/stm32f10x_dac.c **** }
  45              		.loc 1 104 0
  46 0018 00BF     		nop
  47 001a 80BD     		pop	{r7, pc}
  48              		.cfi_endproc
  49              	.LFE29:
  50              		.size	DAC_DeInit, .-DAC_DeInit
  51              		.align	1
  52              		.global	DAC_Init
  53              		.syntax unified
  54              		.thumb
  55              		.thumb_func
  56              		.fpu softvfp
  57              		.type	DAC_Init, %function
  58              	DAC_Init:
  59              	.LFB30:
 105:../../source/src/FWlib/src/stm32f10x_dac.c **** 
 106:../../source/src/FWlib/src/stm32f10x_dac.c **** /**
 107:../../source/src/FWlib/src/stm32f10x_dac.c ****   * @brief  Initializes the DAC peripheral according to the specified 
 108:../../source/src/FWlib/src/stm32f10x_dac.c ****   *         parameters in the DAC_InitStruct.
 109:../../source/src/FWlib/src/stm32f10x_dac.c ****   * @param  DAC_Channel: the selected DAC channel. 
 110:../../source/src/FWlib/src/stm32f10x_dac.c ****   *   This parameter can be one of the following values:
 111:../../source/src/FWlib/src/stm32f10x_dac.c ****   *     @arg DAC_Channel_1: DAC Channel1 selected
 112:../../source/src/FWlib/src/stm32f10x_dac.c ****   *     @arg DAC_Channel_2: DAC Channel2 selected
ARM GAS  G:\Users\Jaxb\AppData\Local\Temp\cc4z3oeX.s 			page 4


 113:../../source/src/FWlib/src/stm32f10x_dac.c ****   * @param  DAC_InitStruct: pointer to a DAC_InitTypeDef structure that
 114:../../source/src/FWlib/src/stm32f10x_dac.c ****   *        contains the configuration information for the specified DAC channel.
 115:../../source/src/FWlib/src/stm32f10x_dac.c ****   * @retval None
 116:../../source/src/FWlib/src/stm32f10x_dac.c ****   */
 117:../../source/src/FWlib/src/stm32f10x_dac.c **** void DAC_Init(uint32_t DAC_Channel, DAC_InitTypeDef* DAC_InitStruct)
 118:../../source/src/FWlib/src/stm32f10x_dac.c **** {
  60              		.loc 1 118 0
  61              		.cfi_startproc
  62              		@ args = 0, pretend = 0, frame = 16
  63              		@ frame_needed = 1, uses_anonymous_args = 0
  64              		@ link register save eliminated.
  65 001c 80B4     		push	{r7}
  66              	.LCFI2:
  67              		.cfi_def_cfa_offset 4
  68              		.cfi_offset 7, -4
  69 001e 85B0     		sub	sp, sp, #20
  70              	.LCFI3:
  71              		.cfi_def_cfa_offset 24
  72 0020 00AF     		add	r7, sp, #0
  73              	.LCFI4:
  74              		.cfi_def_cfa_register 7
  75 0022 7860     		str	r0, [r7, #4]
  76 0024 3960     		str	r1, [r7]
 119:../../source/src/FWlib/src/stm32f10x_dac.c ****   uint32_t tmpreg1 = 0, tmpreg2 = 0;
  77              		.loc 1 119 0
  78 0026 0023     		movs	r3, #0
  79 0028 FB60     		str	r3, [r7, #12]
  80 002a 0023     		movs	r3, #0
  81 002c BB60     		str	r3, [r7, #8]
 120:../../source/src/FWlib/src/stm32f10x_dac.c ****   /* Check the DAC parameters */
 121:../../source/src/FWlib/src/stm32f10x_dac.c ****   assert_param(IS_DAC_TRIGGER(DAC_InitStruct->DAC_Trigger));
 122:../../source/src/FWlib/src/stm32f10x_dac.c ****   assert_param(IS_DAC_GENERATE_WAVE(DAC_InitStruct->DAC_WaveGeneration));
 123:../../source/src/FWlib/src/stm32f10x_dac.c ****   assert_param(IS_DAC_LFSR_UNMASK_TRIANGLE_AMPLITUDE(DAC_InitStruct->DAC_LFSRUnmask_TriangleAmplitu
 124:../../source/src/FWlib/src/stm32f10x_dac.c ****   assert_param(IS_DAC_OUTPUT_BUFFER_STATE(DAC_InitStruct->DAC_OutputBuffer));
 125:../../source/src/FWlib/src/stm32f10x_dac.c **** /*---------------------------- DAC CR Configuration --------------------------*/
 126:../../source/src/FWlib/src/stm32f10x_dac.c ****   /* Get the DAC CR value */
 127:../../source/src/FWlib/src/stm32f10x_dac.c ****   tmpreg1 = DAC->CR;
  82              		.loc 1 127 0
  83 002e 134B     		ldr	r3, .L3
  84 0030 1B68     		ldr	r3, [r3]
  85 0032 FB60     		str	r3, [r7, #12]
 128:../../source/src/FWlib/src/stm32f10x_dac.c ****   /* Clear BOFFx, TENx, TSELx, WAVEx and MAMPx bits */
 129:../../source/src/FWlib/src/stm32f10x_dac.c ****   tmpreg1 &= ~(CR_CLEAR_MASK << DAC_Channel);
  86              		.loc 1 129 0
  87 0034 40F6FE72 		movw	r2, #4094
  88 0038 7B68     		ldr	r3, [r7, #4]
  89 003a 02FA03F3 		lsl	r3, r2, r3
  90 003e DB43     		mvns	r3, r3
  91 0040 FA68     		ldr	r2, [r7, #12]
  92 0042 1340     		ands	r3, r3, r2
  93 0044 FB60     		str	r3, [r7, #12]
 130:../../source/src/FWlib/src/stm32f10x_dac.c ****   /* Configure for the selected DAC channel: buffer output, trigger, wave generation,
 131:../../source/src/FWlib/src/stm32f10x_dac.c ****      mask/amplitude for wave generation */
 132:../../source/src/FWlib/src/stm32f10x_dac.c ****   /* Set TSELx and TENx bits according to DAC_Trigger value */
 133:../../source/src/FWlib/src/stm32f10x_dac.c ****   /* Set WAVEx bits according to DAC_WaveGeneration value */
 134:../../source/src/FWlib/src/stm32f10x_dac.c ****   /* Set MAMPx bits according to DAC_LFSRUnmask_TriangleAmplitude value */ 
 135:../../source/src/FWlib/src/stm32f10x_dac.c ****   /* Set BOFFx bit according to DAC_OutputBuffer value */   
ARM GAS  G:\Users\Jaxb\AppData\Local\Temp\cc4z3oeX.s 			page 5


 136:../../source/src/FWlib/src/stm32f10x_dac.c ****   tmpreg2 = (DAC_InitStruct->DAC_Trigger | DAC_InitStruct->DAC_WaveGeneration |
  94              		.loc 1 136 0
  95 0046 3B68     		ldr	r3, [r7]
  96 0048 1A68     		ldr	r2, [r3]
  97 004a 3B68     		ldr	r3, [r7]
  98 004c 5B68     		ldr	r3, [r3, #4]
  99 004e 1A43     		orrs	r2, r2, r3
 137:../../source/src/FWlib/src/stm32f10x_dac.c ****              DAC_InitStruct->DAC_LFSRUnmask_TriangleAmplitude | DAC_InitStruct->DAC_OutputBuffer);
 100              		.loc 1 137 0
 101 0050 3B68     		ldr	r3, [r7]
 102 0052 9B68     		ldr	r3, [r3, #8]
 136:../../source/src/FWlib/src/stm32f10x_dac.c ****              DAC_InitStruct->DAC_LFSRUnmask_TriangleAmplitude | DAC_InitStruct->DAC_OutputBuffer);
 103              		.loc 1 136 0
 104 0054 1A43     		orrs	r2, r2, r3
 105              		.loc 1 137 0
 106 0056 3B68     		ldr	r3, [r7]
 107 0058 DB68     		ldr	r3, [r3, #12]
 136:../../source/src/FWlib/src/stm32f10x_dac.c ****              DAC_InitStruct->DAC_LFSRUnmask_TriangleAmplitude | DAC_InitStruct->DAC_OutputBuffer);
 108              		.loc 1 136 0
 109 005a 1343     		orrs	r3, r3, r2
 110 005c BB60     		str	r3, [r7, #8]
 138:../../source/src/FWlib/src/stm32f10x_dac.c ****   /* Calculate CR register value depending on DAC_Channel */
 139:../../source/src/FWlib/src/stm32f10x_dac.c ****   tmpreg1 |= tmpreg2 << DAC_Channel;
 111              		.loc 1 139 0
 112 005e BA68     		ldr	r2, [r7, #8]
 113 0060 7B68     		ldr	r3, [r7, #4]
 114 0062 02FA03F3 		lsl	r3, r2, r3
 115 0066 FA68     		ldr	r2, [r7, #12]
 116 0068 1343     		orrs	r3, r3, r2
 117 006a FB60     		str	r3, [r7, #12]
 140:../../source/src/FWlib/src/stm32f10x_dac.c ****   /* Write to DAC CR */
 141:../../source/src/FWlib/src/stm32f10x_dac.c ****   DAC->CR = tmpreg1;
 118              		.loc 1 141 0
 119 006c 034A     		ldr	r2, .L3
 120 006e FB68     		ldr	r3, [r7, #12]
 121 0070 1360     		str	r3, [r2]
 142:../../source/src/FWlib/src/stm32f10x_dac.c **** }
 122              		.loc 1 142 0
 123 0072 00BF     		nop
 124 0074 1437     		adds	r7, r7, #20
 125              	.LCFI5:
 126              		.cfi_def_cfa_offset 4
 127 0076 BD46     		mov	sp, r7
 128              	.LCFI6:
 129              		.cfi_def_cfa_register 13
 130              		@ sp needed
 131 0078 80BC     		pop	{r7}
 132              	.LCFI7:
 133              		.cfi_restore 7
 134              		.cfi_def_cfa_offset 0
 135 007a 7047     		bx	lr
 136              	.L4:
 137              		.align	2
 138              	.L3:
 139 007c 00740040 		.word	1073771520
 140              		.cfi_endproc
 141              	.LFE30:
ARM GAS  G:\Users\Jaxb\AppData\Local\Temp\cc4z3oeX.s 			page 6


 142              		.size	DAC_Init, .-DAC_Init
 143              		.align	1
 144              		.global	DAC_StructInit
 145              		.syntax unified
 146              		.thumb
 147              		.thumb_func
 148              		.fpu softvfp
 149              		.type	DAC_StructInit, %function
 150              	DAC_StructInit:
 151              	.LFB31:
 143:../../source/src/FWlib/src/stm32f10x_dac.c **** 
 144:../../source/src/FWlib/src/stm32f10x_dac.c **** /**
 145:../../source/src/FWlib/src/stm32f10x_dac.c ****   * @brief  Fills each DAC_InitStruct member with its default value.
 146:../../source/src/FWlib/src/stm32f10x_dac.c ****   * @param  DAC_InitStruct : pointer to a DAC_InitTypeDef structure which will
 147:../../source/src/FWlib/src/stm32f10x_dac.c ****   *         be initialized.
 148:../../source/src/FWlib/src/stm32f10x_dac.c ****   * @retval None
 149:../../source/src/FWlib/src/stm32f10x_dac.c ****   */
 150:../../source/src/FWlib/src/stm32f10x_dac.c **** void DAC_StructInit(DAC_InitTypeDef* DAC_InitStruct)
 151:../../source/src/FWlib/src/stm32f10x_dac.c **** {
 152              		.loc 1 151 0
 153              		.cfi_startproc
 154              		@ args = 0, pretend = 0, frame = 8
 155              		@ frame_needed = 1, uses_anonymous_args = 0
 156              		@ link register save eliminated.
 157 0080 80B4     		push	{r7}
 158              	.LCFI8:
 159              		.cfi_def_cfa_offset 4
 160              		.cfi_offset 7, -4
 161 0082 83B0     		sub	sp, sp, #12
 162              	.LCFI9:
 163              		.cfi_def_cfa_offset 16
 164 0084 00AF     		add	r7, sp, #0
 165              	.LCFI10:
 166              		.cfi_def_cfa_register 7
 167 0086 7860     		str	r0, [r7, #4]
 152:../../source/src/FWlib/src/stm32f10x_dac.c **** /*--------------- Reset DAC init structure parameters values -----------------*/
 153:../../source/src/FWlib/src/stm32f10x_dac.c ****   /* Initialize the DAC_Trigger member */
 154:../../source/src/FWlib/src/stm32f10x_dac.c ****   DAC_InitStruct->DAC_Trigger = DAC_Trigger_None;
 168              		.loc 1 154 0
 169 0088 7B68     		ldr	r3, [r7, #4]
 170 008a 0022     		movs	r2, #0
 171 008c 1A60     		str	r2, [r3]
 155:../../source/src/FWlib/src/stm32f10x_dac.c ****   /* Initialize the DAC_WaveGeneration member */
 156:../../source/src/FWlib/src/stm32f10x_dac.c ****   DAC_InitStruct->DAC_WaveGeneration = DAC_WaveGeneration_None;
 172              		.loc 1 156 0
 173 008e 7B68     		ldr	r3, [r7, #4]
 174 0090 0022     		movs	r2, #0
 175 0092 5A60     		str	r2, [r3, #4]
 157:../../source/src/FWlib/src/stm32f10x_dac.c ****   /* Initialize the DAC_LFSRUnmask_TriangleAmplitude member */
 158:../../source/src/FWlib/src/stm32f10x_dac.c ****   DAC_InitStruct->DAC_LFSRUnmask_TriangleAmplitude = DAC_LFSRUnmask_Bit0;
 176              		.loc 1 158 0
 177 0094 7B68     		ldr	r3, [r7, #4]
 178 0096 0022     		movs	r2, #0
 179 0098 9A60     		str	r2, [r3, #8]
 159:../../source/src/FWlib/src/stm32f10x_dac.c ****   /* Initialize the DAC_OutputBuffer member */
 160:../../source/src/FWlib/src/stm32f10x_dac.c ****   DAC_InitStruct->DAC_OutputBuffer = DAC_OutputBuffer_Enable;
 180              		.loc 1 160 0
ARM GAS  G:\Users\Jaxb\AppData\Local\Temp\cc4z3oeX.s 			page 7


 181 009a 7B68     		ldr	r3, [r7, #4]
 182 009c 0022     		movs	r2, #0
 183 009e DA60     		str	r2, [r3, #12]
 161:../../source/src/FWlib/src/stm32f10x_dac.c **** }
 184              		.loc 1 161 0
 185 00a0 00BF     		nop
 186 00a2 0C37     		adds	r7, r7, #12
 187              	.LCFI11:
 188              		.cfi_def_cfa_offset 4
 189 00a4 BD46     		mov	sp, r7
 190              	.LCFI12:
 191              		.cfi_def_cfa_register 13
 192              		@ sp needed
 193 00a6 80BC     		pop	{r7}
 194              	.LCFI13:
 195              		.cfi_restore 7
 196              		.cfi_def_cfa_offset 0
 197 00a8 7047     		bx	lr
 198              		.cfi_endproc
 199              	.LFE31:
 200              		.size	DAC_StructInit, .-DAC_StructInit
 201              		.align	1
 202              		.global	DAC_Cmd
 203              		.syntax unified
 204              		.thumb
 205              		.thumb_func
 206              		.fpu softvfp
 207              		.type	DAC_Cmd, %function
 208              	DAC_Cmd:
 209              	.LFB32:
 162:../../source/src/FWlib/src/stm32f10x_dac.c **** 
 163:../../source/src/FWlib/src/stm32f10x_dac.c **** /**
 164:../../source/src/FWlib/src/stm32f10x_dac.c ****   * @brief  Enables or disables the specified DAC channel.
 165:../../source/src/FWlib/src/stm32f10x_dac.c ****   * @param  DAC_Channel: the selected DAC channel. 
 166:../../source/src/FWlib/src/stm32f10x_dac.c ****   *   This parameter can be one of the following values:
 167:../../source/src/FWlib/src/stm32f10x_dac.c ****   *     @arg DAC_Channel_1: DAC Channel1 selected
 168:../../source/src/FWlib/src/stm32f10x_dac.c ****   *     @arg DAC_Channel_2: DAC Channel2 selected
 169:../../source/src/FWlib/src/stm32f10x_dac.c ****   * @param  NewState: new state of the DAC channel. 
 170:../../source/src/FWlib/src/stm32f10x_dac.c ****   *   This parameter can be: ENABLE or DISABLE.
 171:../../source/src/FWlib/src/stm32f10x_dac.c ****   * @retval None
 172:../../source/src/FWlib/src/stm32f10x_dac.c ****   */
 173:../../source/src/FWlib/src/stm32f10x_dac.c **** void DAC_Cmd(uint32_t DAC_Channel, FunctionalState NewState)
 174:../../source/src/FWlib/src/stm32f10x_dac.c **** {
 210              		.loc 1 174 0
 211              		.cfi_startproc
 212              		@ args = 0, pretend = 0, frame = 8
 213              		@ frame_needed = 1, uses_anonymous_args = 0
 214              		@ link register save eliminated.
 215 00aa 80B4     		push	{r7}
 216              	.LCFI14:
 217              		.cfi_def_cfa_offset 4
 218              		.cfi_offset 7, -4
 219 00ac 83B0     		sub	sp, sp, #12
 220              	.LCFI15:
 221              		.cfi_def_cfa_offset 16
 222 00ae 00AF     		add	r7, sp, #0
 223              	.LCFI16:
ARM GAS  G:\Users\Jaxb\AppData\Local\Temp\cc4z3oeX.s 			page 8


 224              		.cfi_def_cfa_register 7
 225 00b0 7860     		str	r0, [r7, #4]
 226 00b2 0B46     		mov	r3, r1
 227 00b4 FB70     		strb	r3, [r7, #3]
 175:../../source/src/FWlib/src/stm32f10x_dac.c ****   /* Check the parameters */
 176:../../source/src/FWlib/src/stm32f10x_dac.c ****   assert_param(IS_DAC_CHANNEL(DAC_Channel));
 177:../../source/src/FWlib/src/stm32f10x_dac.c ****   assert_param(IS_FUNCTIONAL_STATE(NewState));
 178:../../source/src/FWlib/src/stm32f10x_dac.c ****   if (NewState != DISABLE)
 228              		.loc 1 178 0
 229 00b6 FB78     		ldrb	r3, [r7, #3]	@ zero_extendqisi2
 230 00b8 002B     		cmp	r3, #0
 231 00ba 09D0     		beq	.L7
 179:../../source/src/FWlib/src/stm32f10x_dac.c ****   {
 180:../../source/src/FWlib/src/stm32f10x_dac.c ****     /* Enable the selected DAC channel */
 181:../../source/src/FWlib/src/stm32f10x_dac.c ****     DAC->CR |= (DAC_CR_EN1 << DAC_Channel);
 232              		.loc 1 181 0
 233 00bc 0C4B     		ldr	r3, .L10
 234 00be 1A68     		ldr	r2, [r3]
 235 00c0 0121     		movs	r1, #1
 236 00c2 7B68     		ldr	r3, [r7, #4]
 237 00c4 01FA03F3 		lsl	r3, r1, r3
 238 00c8 0949     		ldr	r1, .L10
 239 00ca 1343     		orrs	r3, r3, r2
 240 00cc 0B60     		str	r3, [r1]
 182:../../source/src/FWlib/src/stm32f10x_dac.c ****   }
 183:../../source/src/FWlib/src/stm32f10x_dac.c ****   else
 184:../../source/src/FWlib/src/stm32f10x_dac.c ****   {
 185:../../source/src/FWlib/src/stm32f10x_dac.c ****     /* Disable the selected DAC channel */
 186:../../source/src/FWlib/src/stm32f10x_dac.c ****     DAC->CR &= ~(DAC_CR_EN1 << DAC_Channel);
 187:../../source/src/FWlib/src/stm32f10x_dac.c ****   }
 188:../../source/src/FWlib/src/stm32f10x_dac.c **** }
 241              		.loc 1 188 0
 242 00ce 09E0     		b	.L9
 243              	.L7:
 186:../../source/src/FWlib/src/stm32f10x_dac.c ****   }
 244              		.loc 1 186 0
 245 00d0 074B     		ldr	r3, .L10
 246 00d2 1A68     		ldr	r2, [r3]
 247 00d4 0121     		movs	r1, #1
 248 00d6 7B68     		ldr	r3, [r7, #4]
 249 00d8 01FA03F3 		lsl	r3, r1, r3
 250 00dc DB43     		mvns	r3, r3
 251 00de 0449     		ldr	r1, .L10
 252 00e0 1340     		ands	r3, r3, r2
 253 00e2 0B60     		str	r3, [r1]
 254              	.L9:
 255              		.loc 1 188 0
 256 00e4 00BF     		nop
 257 00e6 0C37     		adds	r7, r7, #12
 258              	.LCFI17:
 259              		.cfi_def_cfa_offset 4
 260 00e8 BD46     		mov	sp, r7
 261              	.LCFI18:
 262              		.cfi_def_cfa_register 13
 263              		@ sp needed
 264 00ea 80BC     		pop	{r7}
 265              	.LCFI19:
ARM GAS  G:\Users\Jaxb\AppData\Local\Temp\cc4z3oeX.s 			page 9


 266              		.cfi_restore 7
 267              		.cfi_def_cfa_offset 0
 268 00ec 7047     		bx	lr
 269              	.L11:
 270 00ee 00BF     		.align	2
 271              	.L10:
 272 00f0 00740040 		.word	1073771520
 273              		.cfi_endproc
 274              	.LFE32:
 275              		.size	DAC_Cmd, .-DAC_Cmd
 276              		.align	1
 277              		.global	DAC_DMACmd
 278              		.syntax unified
 279              		.thumb
 280              		.thumb_func
 281              		.fpu softvfp
 282              		.type	DAC_DMACmd, %function
 283              	DAC_DMACmd:
 284              	.LFB33:
 189:../../source/src/FWlib/src/stm32f10x_dac.c **** #if defined (STM32F10X_LD_VL) || defined (STM32F10X_MD_VL) || defined (STM32F10X_HD_VL)
 190:../../source/src/FWlib/src/stm32f10x_dac.c **** /**
 191:../../source/src/FWlib/src/stm32f10x_dac.c ****   * @brief  Enables or disables the specified DAC interrupts.
 192:../../source/src/FWlib/src/stm32f10x_dac.c ****   * @param  DAC_Channel: the selected DAC channel. 
 193:../../source/src/FWlib/src/stm32f10x_dac.c ****   *   This parameter can be one of the following values:
 194:../../source/src/FWlib/src/stm32f10x_dac.c ****   *     @arg DAC_Channel_1: DAC Channel1 selected
 195:../../source/src/FWlib/src/stm32f10x_dac.c ****   *     @arg DAC_Channel_2: DAC Channel2 selected
 196:../../source/src/FWlib/src/stm32f10x_dac.c ****   * @param  DAC_IT: specifies the DAC interrupt sources to be enabled or disabled. 
 197:../../source/src/FWlib/src/stm32f10x_dac.c ****   *   This parameter can be the following values:
 198:../../source/src/FWlib/src/stm32f10x_dac.c ****   *     @arg DAC_IT_DMAUDR: DMA underrun interrupt mask                      
 199:../../source/src/FWlib/src/stm32f10x_dac.c ****   * @param  NewState: new state of the specified DAC interrupts.
 200:../../source/src/FWlib/src/stm32f10x_dac.c ****   *   This parameter can be: ENABLE or DISABLE.
 201:../../source/src/FWlib/src/stm32f10x_dac.c ****   * @retval None
 202:../../source/src/FWlib/src/stm32f10x_dac.c ****   */ 
 203:../../source/src/FWlib/src/stm32f10x_dac.c **** void DAC_ITConfig(uint32_t DAC_Channel, uint32_t DAC_IT, FunctionalState NewState)  
 204:../../source/src/FWlib/src/stm32f10x_dac.c **** {
 205:../../source/src/FWlib/src/stm32f10x_dac.c ****   /* Check the parameters */
 206:../../source/src/FWlib/src/stm32f10x_dac.c ****   assert_param(IS_DAC_CHANNEL(DAC_Channel));
 207:../../source/src/FWlib/src/stm32f10x_dac.c ****   assert_param(IS_FUNCTIONAL_STATE(NewState));
 208:../../source/src/FWlib/src/stm32f10x_dac.c ****   assert_param(IS_DAC_IT(DAC_IT)); 
 209:../../source/src/FWlib/src/stm32f10x_dac.c **** 
 210:../../source/src/FWlib/src/stm32f10x_dac.c ****   if (NewState != DISABLE)
 211:../../source/src/FWlib/src/stm32f10x_dac.c ****   {
 212:../../source/src/FWlib/src/stm32f10x_dac.c ****     /* Enable the selected DAC interrupts */
 213:../../source/src/FWlib/src/stm32f10x_dac.c ****     DAC->CR |=  (DAC_IT << DAC_Channel);
 214:../../source/src/FWlib/src/stm32f10x_dac.c ****   }
 215:../../source/src/FWlib/src/stm32f10x_dac.c ****   else
 216:../../source/src/FWlib/src/stm32f10x_dac.c ****   {
 217:../../source/src/FWlib/src/stm32f10x_dac.c ****     /* Disable the selected DAC interrupts */
 218:../../source/src/FWlib/src/stm32f10x_dac.c ****     DAC->CR &= (~(uint32_t)(DAC_IT << DAC_Channel));
 219:../../source/src/FWlib/src/stm32f10x_dac.c ****   }
 220:../../source/src/FWlib/src/stm32f10x_dac.c **** }
 221:../../source/src/FWlib/src/stm32f10x_dac.c **** #endif
 222:../../source/src/FWlib/src/stm32f10x_dac.c **** 
 223:../../source/src/FWlib/src/stm32f10x_dac.c **** /**
 224:../../source/src/FWlib/src/stm32f10x_dac.c ****   * @brief  Enables or disables the specified DAC channel DMA request.
 225:../../source/src/FWlib/src/stm32f10x_dac.c ****   * @param  DAC_Channel: the selected DAC channel. 
 226:../../source/src/FWlib/src/stm32f10x_dac.c ****   *   This parameter can be one of the following values:
ARM GAS  G:\Users\Jaxb\AppData\Local\Temp\cc4z3oeX.s 			page 10


 227:../../source/src/FWlib/src/stm32f10x_dac.c ****   *     @arg DAC_Channel_1: DAC Channel1 selected
 228:../../source/src/FWlib/src/stm32f10x_dac.c ****   *     @arg DAC_Channel_2: DAC Channel2 selected
 229:../../source/src/FWlib/src/stm32f10x_dac.c ****   * @param  NewState: new state of the selected DAC channel DMA request.
 230:../../source/src/FWlib/src/stm32f10x_dac.c ****   *   This parameter can be: ENABLE or DISABLE.
 231:../../source/src/FWlib/src/stm32f10x_dac.c ****   * @retval None
 232:../../source/src/FWlib/src/stm32f10x_dac.c ****   */
 233:../../source/src/FWlib/src/stm32f10x_dac.c **** void DAC_DMACmd(uint32_t DAC_Channel, FunctionalState NewState)
 234:../../source/src/FWlib/src/stm32f10x_dac.c **** {
 285              		.loc 1 234 0
 286              		.cfi_startproc
 287              		@ args = 0, pretend = 0, frame = 8
 288              		@ frame_needed = 1, uses_anonymous_args = 0
 289              		@ link register save eliminated.
 290 00f4 80B4     		push	{r7}
 291              	.LCFI20:
 292              		.cfi_def_cfa_offset 4
 293              		.cfi_offset 7, -4
 294 00f6 83B0     		sub	sp, sp, #12
 295              	.LCFI21:
 296              		.cfi_def_cfa_offset 16
 297 00f8 00AF     		add	r7, sp, #0
 298              	.LCFI22:
 299              		.cfi_def_cfa_register 7
 300 00fa 7860     		str	r0, [r7, #4]
 301 00fc 0B46     		mov	r3, r1
 302 00fe FB70     		strb	r3, [r7, #3]
 235:../../source/src/FWlib/src/stm32f10x_dac.c ****   /* Check the parameters */
 236:../../source/src/FWlib/src/stm32f10x_dac.c ****   assert_param(IS_DAC_CHANNEL(DAC_Channel));
 237:../../source/src/FWlib/src/stm32f10x_dac.c ****   assert_param(IS_FUNCTIONAL_STATE(NewState));
 238:../../source/src/FWlib/src/stm32f10x_dac.c ****   if (NewState != DISABLE)
 303              		.loc 1 238 0
 304 0100 FB78     		ldrb	r3, [r7, #3]	@ zero_extendqisi2
 305 0102 002B     		cmp	r3, #0
 306 0104 0AD0     		beq	.L13
 239:../../source/src/FWlib/src/stm32f10x_dac.c ****   {
 240:../../source/src/FWlib/src/stm32f10x_dac.c ****     /* Enable the selected DAC channel DMA request */
 241:../../source/src/FWlib/src/stm32f10x_dac.c ****     DAC->CR |= (DAC_CR_DMAEN1 << DAC_Channel);
 307              		.loc 1 241 0
 308 0106 0D4B     		ldr	r3, .L16
 309 0108 1A68     		ldr	r2, [r3]
 310 010a 4FF48051 		mov	r1, #4096
 311 010e 7B68     		ldr	r3, [r7, #4]
 312 0110 01FA03F3 		lsl	r3, r1, r3
 313 0114 0949     		ldr	r1, .L16
 314 0116 1343     		orrs	r3, r3, r2
 315 0118 0B60     		str	r3, [r1]
 242:../../source/src/FWlib/src/stm32f10x_dac.c ****   }
 243:../../source/src/FWlib/src/stm32f10x_dac.c ****   else
 244:../../source/src/FWlib/src/stm32f10x_dac.c ****   {
 245:../../source/src/FWlib/src/stm32f10x_dac.c ****     /* Disable the selected DAC channel DMA request */
 246:../../source/src/FWlib/src/stm32f10x_dac.c ****     DAC->CR &= ~(DAC_CR_DMAEN1 << DAC_Channel);
 247:../../source/src/FWlib/src/stm32f10x_dac.c ****   }
 248:../../source/src/FWlib/src/stm32f10x_dac.c **** }
 316              		.loc 1 248 0
 317 011a 0AE0     		b	.L15
 318              	.L13:
 246:../../source/src/FWlib/src/stm32f10x_dac.c ****   }
ARM GAS  G:\Users\Jaxb\AppData\Local\Temp\cc4z3oeX.s 			page 11


 319              		.loc 1 246 0
 320 011c 074B     		ldr	r3, .L16
 321 011e 1A68     		ldr	r2, [r3]
 322 0120 4FF48051 		mov	r1, #4096
 323 0124 7B68     		ldr	r3, [r7, #4]
 324 0126 01FA03F3 		lsl	r3, r1, r3
 325 012a DB43     		mvns	r3, r3
 326 012c 0349     		ldr	r1, .L16
 327 012e 1340     		ands	r3, r3, r2
 328 0130 0B60     		str	r3, [r1]
 329              	.L15:
 330              		.loc 1 248 0
 331 0132 00BF     		nop
 332 0134 0C37     		adds	r7, r7, #12
 333              	.LCFI23:
 334              		.cfi_def_cfa_offset 4
 335 0136 BD46     		mov	sp, r7
 336              	.LCFI24:
 337              		.cfi_def_cfa_register 13
 338              		@ sp needed
 339 0138 80BC     		pop	{r7}
 340              	.LCFI25:
 341              		.cfi_restore 7
 342              		.cfi_def_cfa_offset 0
 343 013a 7047     		bx	lr
 344              	.L17:
 345              		.align	2
 346              	.L16:
 347 013c 00740040 		.word	1073771520
 348              		.cfi_endproc
 349              	.LFE33:
 350              		.size	DAC_DMACmd, .-DAC_DMACmd
 351              		.align	1
 352              		.global	DAC_SoftwareTriggerCmd
 353              		.syntax unified
 354              		.thumb
 355              		.thumb_func
 356              		.fpu softvfp
 357              		.type	DAC_SoftwareTriggerCmd, %function
 358              	DAC_SoftwareTriggerCmd:
 359              	.LFB34:
 249:../../source/src/FWlib/src/stm32f10x_dac.c **** 
 250:../../source/src/FWlib/src/stm32f10x_dac.c **** /**
 251:../../source/src/FWlib/src/stm32f10x_dac.c ****   * @brief  Enables or disables the selected DAC channel software trigger.
 252:../../source/src/FWlib/src/stm32f10x_dac.c ****   * @param  DAC_Channel: the selected DAC channel. 
 253:../../source/src/FWlib/src/stm32f10x_dac.c ****   *   This parameter can be one of the following values:
 254:../../source/src/FWlib/src/stm32f10x_dac.c ****   *     @arg DAC_Channel_1: DAC Channel1 selected
 255:../../source/src/FWlib/src/stm32f10x_dac.c ****   *     @arg DAC_Channel_2: DAC Channel2 selected
 256:../../source/src/FWlib/src/stm32f10x_dac.c ****   * @param  NewState: new state of the selected DAC channel software trigger.
 257:../../source/src/FWlib/src/stm32f10x_dac.c ****   *   This parameter can be: ENABLE or DISABLE.
 258:../../source/src/FWlib/src/stm32f10x_dac.c ****   * @retval None
 259:../../source/src/FWlib/src/stm32f10x_dac.c ****   */
 260:../../source/src/FWlib/src/stm32f10x_dac.c **** void DAC_SoftwareTriggerCmd(uint32_t DAC_Channel, FunctionalState NewState)
 261:../../source/src/FWlib/src/stm32f10x_dac.c **** {
 360              		.loc 1 261 0
 361              		.cfi_startproc
 362              		@ args = 0, pretend = 0, frame = 8
ARM GAS  G:\Users\Jaxb\AppData\Local\Temp\cc4z3oeX.s 			page 12


 363              		@ frame_needed = 1, uses_anonymous_args = 0
 364              		@ link register save eliminated.
 365 0140 80B4     		push	{r7}
 366              	.LCFI26:
 367              		.cfi_def_cfa_offset 4
 368              		.cfi_offset 7, -4
 369 0142 83B0     		sub	sp, sp, #12
 370              	.LCFI27:
 371              		.cfi_def_cfa_offset 16
 372 0144 00AF     		add	r7, sp, #0
 373              	.LCFI28:
 374              		.cfi_def_cfa_register 7
 375 0146 7860     		str	r0, [r7, #4]
 376 0148 0B46     		mov	r3, r1
 377 014a FB70     		strb	r3, [r7, #3]
 262:../../source/src/FWlib/src/stm32f10x_dac.c ****   /* Check the parameters */
 263:../../source/src/FWlib/src/stm32f10x_dac.c ****   assert_param(IS_DAC_CHANNEL(DAC_Channel));
 264:../../source/src/FWlib/src/stm32f10x_dac.c ****   assert_param(IS_FUNCTIONAL_STATE(NewState));
 265:../../source/src/FWlib/src/stm32f10x_dac.c ****   if (NewState != DISABLE)
 378              		.loc 1 265 0
 379 014c FB78     		ldrb	r3, [r7, #3]	@ zero_extendqisi2
 380 014e 002B     		cmp	r3, #0
 381 0150 0AD0     		beq	.L19
 266:../../source/src/FWlib/src/stm32f10x_dac.c ****   {
 267:../../source/src/FWlib/src/stm32f10x_dac.c ****     /* Enable software trigger for the selected DAC channel */
 268:../../source/src/FWlib/src/stm32f10x_dac.c ****     DAC->SWTRIGR |= (uint32_t)DAC_SWTRIGR_SWTRIG1 << (DAC_Channel >> 4);
 382              		.loc 1 268 0
 383 0152 0D4B     		ldr	r3, .L22
 384 0154 5A68     		ldr	r2, [r3, #4]
 385 0156 7B68     		ldr	r3, [r7, #4]
 386 0158 1B09     		lsrs	r3, r3, #4
 387 015a 0121     		movs	r1, #1
 388 015c 01FA03F3 		lsl	r3, r1, r3
 389 0160 0949     		ldr	r1, .L22
 390 0162 1343     		orrs	r3, r3, r2
 391 0164 4B60     		str	r3, [r1, #4]
 269:../../source/src/FWlib/src/stm32f10x_dac.c ****   }
 270:../../source/src/FWlib/src/stm32f10x_dac.c ****   else
 271:../../source/src/FWlib/src/stm32f10x_dac.c ****   {
 272:../../source/src/FWlib/src/stm32f10x_dac.c ****     /* Disable software trigger for the selected DAC channel */
 273:../../source/src/FWlib/src/stm32f10x_dac.c ****     DAC->SWTRIGR &= ~((uint32_t)DAC_SWTRIGR_SWTRIG1 << (DAC_Channel >> 4));
 274:../../source/src/FWlib/src/stm32f10x_dac.c ****   }
 275:../../source/src/FWlib/src/stm32f10x_dac.c **** }
 392              		.loc 1 275 0
 393 0166 0AE0     		b	.L21
 394              	.L19:
 273:../../source/src/FWlib/src/stm32f10x_dac.c ****   }
 395              		.loc 1 273 0
 396 0168 074B     		ldr	r3, .L22
 397 016a 5A68     		ldr	r2, [r3, #4]
 398 016c 7B68     		ldr	r3, [r7, #4]
 399 016e 1B09     		lsrs	r3, r3, #4
 400 0170 0121     		movs	r1, #1
 401 0172 01FA03F3 		lsl	r3, r1, r3
 402 0176 DB43     		mvns	r3, r3
 403 0178 0349     		ldr	r1, .L22
 404 017a 1340     		ands	r3, r3, r2
ARM GAS  G:\Users\Jaxb\AppData\Local\Temp\cc4z3oeX.s 			page 13


 405 017c 4B60     		str	r3, [r1, #4]
 406              	.L21:
 407              		.loc 1 275 0
 408 017e 00BF     		nop
 409 0180 0C37     		adds	r7, r7, #12
 410              	.LCFI29:
 411              		.cfi_def_cfa_offset 4
 412 0182 BD46     		mov	sp, r7
 413              	.LCFI30:
 414              		.cfi_def_cfa_register 13
 415              		@ sp needed
 416 0184 80BC     		pop	{r7}
 417              	.LCFI31:
 418              		.cfi_restore 7
 419              		.cfi_def_cfa_offset 0
 420 0186 7047     		bx	lr
 421              	.L23:
 422              		.align	2
 423              	.L22:
 424 0188 00740040 		.word	1073771520
 425              		.cfi_endproc
 426              	.LFE34:
 427              		.size	DAC_SoftwareTriggerCmd, .-DAC_SoftwareTriggerCmd
 428              		.align	1
 429              		.global	DAC_DualSoftwareTriggerCmd
 430              		.syntax unified
 431              		.thumb
 432              		.thumb_func
 433              		.fpu softvfp
 434              		.type	DAC_DualSoftwareTriggerCmd, %function
 435              	DAC_DualSoftwareTriggerCmd:
 436              	.LFB35:
 276:../../source/src/FWlib/src/stm32f10x_dac.c **** 
 277:../../source/src/FWlib/src/stm32f10x_dac.c **** /**
 278:../../source/src/FWlib/src/stm32f10x_dac.c ****   * @brief  Enables or disables simultaneously the two DAC channels software
 279:../../source/src/FWlib/src/stm32f10x_dac.c ****   *   triggers.
 280:../../source/src/FWlib/src/stm32f10x_dac.c ****   * @param  NewState: new state of the DAC channels software triggers.
 281:../../source/src/FWlib/src/stm32f10x_dac.c ****   *   This parameter can be: ENABLE or DISABLE.
 282:../../source/src/FWlib/src/stm32f10x_dac.c ****   * @retval None
 283:../../source/src/FWlib/src/stm32f10x_dac.c ****   */
 284:../../source/src/FWlib/src/stm32f10x_dac.c **** void DAC_DualSoftwareTriggerCmd(FunctionalState NewState)
 285:../../source/src/FWlib/src/stm32f10x_dac.c **** {
 437              		.loc 1 285 0
 438              		.cfi_startproc
 439              		@ args = 0, pretend = 0, frame = 8
 440              		@ frame_needed = 1, uses_anonymous_args = 0
 441              		@ link register save eliminated.
 442 018c 80B4     		push	{r7}
 443              	.LCFI32:
 444              		.cfi_def_cfa_offset 4
 445              		.cfi_offset 7, -4
 446 018e 83B0     		sub	sp, sp, #12
 447              	.LCFI33:
 448              		.cfi_def_cfa_offset 16
 449 0190 00AF     		add	r7, sp, #0
 450              	.LCFI34:
 451              		.cfi_def_cfa_register 7
ARM GAS  G:\Users\Jaxb\AppData\Local\Temp\cc4z3oeX.s 			page 14


 452 0192 0346     		mov	r3, r0
 453 0194 FB71     		strb	r3, [r7, #7]
 286:../../source/src/FWlib/src/stm32f10x_dac.c ****   /* Check the parameters */
 287:../../source/src/FWlib/src/stm32f10x_dac.c ****   assert_param(IS_FUNCTIONAL_STATE(NewState));
 288:../../source/src/FWlib/src/stm32f10x_dac.c ****   if (NewState != DISABLE)
 454              		.loc 1 288 0
 455 0196 FB79     		ldrb	r3, [r7, #7]	@ zero_extendqisi2
 456 0198 002B     		cmp	r3, #0
 457 019a 06D0     		beq	.L25
 289:../../source/src/FWlib/src/stm32f10x_dac.c ****   {
 290:../../source/src/FWlib/src/stm32f10x_dac.c ****     /* Enable software trigger for both DAC channels */
 291:../../source/src/FWlib/src/stm32f10x_dac.c ****     DAC->SWTRIGR |= DUAL_SWTRIG_SET ;
 458              		.loc 1 291 0
 459 019c 084B     		ldr	r3, .L28
 460 019e 5B68     		ldr	r3, [r3, #4]
 461 01a0 074A     		ldr	r2, .L28
 462 01a2 43F00303 		orr	r3, r3, #3
 463 01a6 5360     		str	r3, [r2, #4]
 292:../../source/src/FWlib/src/stm32f10x_dac.c ****   }
 293:../../source/src/FWlib/src/stm32f10x_dac.c ****   else
 294:../../source/src/FWlib/src/stm32f10x_dac.c ****   {
 295:../../source/src/FWlib/src/stm32f10x_dac.c ****     /* Disable software trigger for both DAC channels */
 296:../../source/src/FWlib/src/stm32f10x_dac.c ****     DAC->SWTRIGR &= DUAL_SWTRIG_RESET;
 297:../../source/src/FWlib/src/stm32f10x_dac.c ****   }
 298:../../source/src/FWlib/src/stm32f10x_dac.c **** }
 464              		.loc 1 298 0
 465 01a8 05E0     		b	.L27
 466              	.L25:
 296:../../source/src/FWlib/src/stm32f10x_dac.c ****   }
 467              		.loc 1 296 0
 468 01aa 054B     		ldr	r3, .L28
 469 01ac 5B68     		ldr	r3, [r3, #4]
 470 01ae 044A     		ldr	r2, .L28
 471 01b0 23F00303 		bic	r3, r3, #3
 472 01b4 5360     		str	r3, [r2, #4]
 473              	.L27:
 474              		.loc 1 298 0
 475 01b6 00BF     		nop
 476 01b8 0C37     		adds	r7, r7, #12
 477              	.LCFI35:
 478              		.cfi_def_cfa_offset 4
 479 01ba BD46     		mov	sp, r7
 480              	.LCFI36:
 481              		.cfi_def_cfa_register 13
 482              		@ sp needed
 483 01bc 80BC     		pop	{r7}
 484              	.LCFI37:
 485              		.cfi_restore 7
 486              		.cfi_def_cfa_offset 0
 487 01be 7047     		bx	lr
 488              	.L29:
 489              		.align	2
 490              	.L28:
 491 01c0 00740040 		.word	1073771520
 492              		.cfi_endproc
 493              	.LFE35:
 494              		.size	DAC_DualSoftwareTriggerCmd, .-DAC_DualSoftwareTriggerCmd
ARM GAS  G:\Users\Jaxb\AppData\Local\Temp\cc4z3oeX.s 			page 15


 495              		.align	1
 496              		.global	DAC_WaveGenerationCmd
 497              		.syntax unified
 498              		.thumb
 499              		.thumb_func
 500              		.fpu softvfp
 501              		.type	DAC_WaveGenerationCmd, %function
 502              	DAC_WaveGenerationCmd:
 503              	.LFB36:
 299:../../source/src/FWlib/src/stm32f10x_dac.c **** 
 300:../../source/src/FWlib/src/stm32f10x_dac.c **** /**
 301:../../source/src/FWlib/src/stm32f10x_dac.c ****   * @brief  Enables or disables the selected DAC channel wave generation.
 302:../../source/src/FWlib/src/stm32f10x_dac.c ****   * @param  DAC_Channel: the selected DAC channel. 
 303:../../source/src/FWlib/src/stm32f10x_dac.c ****   *   This parameter can be one of the following values:
 304:../../source/src/FWlib/src/stm32f10x_dac.c ****   *     @arg DAC_Channel_1: DAC Channel1 selected
 305:../../source/src/FWlib/src/stm32f10x_dac.c ****   *     @arg DAC_Channel_2: DAC Channel2 selected
 306:../../source/src/FWlib/src/stm32f10x_dac.c ****   * @param  DAC_Wave: Specifies the wave type to enable or disable.
 307:../../source/src/FWlib/src/stm32f10x_dac.c ****   *   This parameter can be one of the following values:
 308:../../source/src/FWlib/src/stm32f10x_dac.c ****   *     @arg DAC_Wave_Noise: noise wave generation
 309:../../source/src/FWlib/src/stm32f10x_dac.c ****   *     @arg DAC_Wave_Triangle: triangle wave generation
 310:../../source/src/FWlib/src/stm32f10x_dac.c ****   * @param  NewState: new state of the selected DAC channel wave generation.
 311:../../source/src/FWlib/src/stm32f10x_dac.c ****   *   This parameter can be: ENABLE or DISABLE.
 312:../../source/src/FWlib/src/stm32f10x_dac.c ****   * @retval None
 313:../../source/src/FWlib/src/stm32f10x_dac.c ****   */
 314:../../source/src/FWlib/src/stm32f10x_dac.c **** void DAC_WaveGenerationCmd(uint32_t DAC_Channel, uint32_t DAC_Wave, FunctionalState NewState)
 315:../../source/src/FWlib/src/stm32f10x_dac.c **** {
 504              		.loc 1 315 0
 505              		.cfi_startproc
 506              		@ args = 0, pretend = 0, frame = 16
 507              		@ frame_needed = 1, uses_anonymous_args = 0
 508              		@ link register save eliminated.
 509 01c4 80B4     		push	{r7}
 510              	.LCFI38:
 511              		.cfi_def_cfa_offset 4
 512              		.cfi_offset 7, -4
 513 01c6 85B0     		sub	sp, sp, #20
 514              	.LCFI39:
 515              		.cfi_def_cfa_offset 24
 516 01c8 00AF     		add	r7, sp, #0
 517              	.LCFI40:
 518              		.cfi_def_cfa_register 7
 519 01ca F860     		str	r0, [r7, #12]
 520 01cc B960     		str	r1, [r7, #8]
 521 01ce 1346     		mov	r3, r2
 522 01d0 FB71     		strb	r3, [r7, #7]
 316:../../source/src/FWlib/src/stm32f10x_dac.c ****   /* Check the parameters */
 317:../../source/src/FWlib/src/stm32f10x_dac.c ****   assert_param(IS_DAC_CHANNEL(DAC_Channel));
 318:../../source/src/FWlib/src/stm32f10x_dac.c ****   assert_param(IS_DAC_WAVE(DAC_Wave)); 
 319:../../source/src/FWlib/src/stm32f10x_dac.c ****   assert_param(IS_FUNCTIONAL_STATE(NewState));
 320:../../source/src/FWlib/src/stm32f10x_dac.c ****   if (NewState != DISABLE)
 523              		.loc 1 320 0
 524 01d2 FB79     		ldrb	r3, [r7, #7]	@ zero_extendqisi2
 525 01d4 002B     		cmp	r3, #0
 526 01d6 09D0     		beq	.L31
 321:../../source/src/FWlib/src/stm32f10x_dac.c ****   {
 322:../../source/src/FWlib/src/stm32f10x_dac.c ****     /* Enable the selected wave generation for the selected DAC channel */
 323:../../source/src/FWlib/src/stm32f10x_dac.c ****     DAC->CR |= DAC_Wave << DAC_Channel;
ARM GAS  G:\Users\Jaxb\AppData\Local\Temp\cc4z3oeX.s 			page 16


 527              		.loc 1 323 0
 528 01d8 0C4B     		ldr	r3, .L34
 529 01da 1A68     		ldr	r2, [r3]
 530 01dc B968     		ldr	r1, [r7, #8]
 531 01de FB68     		ldr	r3, [r7, #12]
 532 01e0 01FA03F3 		lsl	r3, r1, r3
 533 01e4 0949     		ldr	r1, .L34
 534 01e6 1343     		orrs	r3, r3, r2
 535 01e8 0B60     		str	r3, [r1]
 324:../../source/src/FWlib/src/stm32f10x_dac.c ****   }
 325:../../source/src/FWlib/src/stm32f10x_dac.c ****   else
 326:../../source/src/FWlib/src/stm32f10x_dac.c ****   {
 327:../../source/src/FWlib/src/stm32f10x_dac.c ****     /* Disable the selected wave generation for the selected DAC channel */
 328:../../source/src/FWlib/src/stm32f10x_dac.c ****     DAC->CR &= ~(DAC_Wave << DAC_Channel);
 329:../../source/src/FWlib/src/stm32f10x_dac.c ****   }
 330:../../source/src/FWlib/src/stm32f10x_dac.c **** }
 536              		.loc 1 330 0
 537 01ea 09E0     		b	.L33
 538              	.L31:
 328:../../source/src/FWlib/src/stm32f10x_dac.c ****   }
 539              		.loc 1 328 0
 540 01ec 074B     		ldr	r3, .L34
 541 01ee 1A68     		ldr	r2, [r3]
 542 01f0 B968     		ldr	r1, [r7, #8]
 543 01f2 FB68     		ldr	r3, [r7, #12]
 544 01f4 01FA03F3 		lsl	r3, r1, r3
 545 01f8 DB43     		mvns	r3, r3
 546 01fa 0449     		ldr	r1, .L34
 547 01fc 1340     		ands	r3, r3, r2
 548 01fe 0B60     		str	r3, [r1]
 549              	.L33:
 550              		.loc 1 330 0
 551 0200 00BF     		nop
 552 0202 1437     		adds	r7, r7, #20
 553              	.LCFI41:
 554              		.cfi_def_cfa_offset 4
 555 0204 BD46     		mov	sp, r7
 556              	.LCFI42:
 557              		.cfi_def_cfa_register 13
 558              		@ sp needed
 559 0206 80BC     		pop	{r7}
 560              	.LCFI43:
 561              		.cfi_restore 7
 562              		.cfi_def_cfa_offset 0
 563 0208 7047     		bx	lr
 564              	.L35:
 565 020a 00BF     		.align	2
 566              	.L34:
 567 020c 00740040 		.word	1073771520
 568              		.cfi_endproc
 569              	.LFE36:
 570              		.size	DAC_WaveGenerationCmd, .-DAC_WaveGenerationCmd
 571              		.align	1
 572              		.global	DAC_SetChannel1Data
 573              		.syntax unified
 574              		.thumb
 575              		.thumb_func
ARM GAS  G:\Users\Jaxb\AppData\Local\Temp\cc4z3oeX.s 			page 17


 576              		.fpu softvfp
 577              		.type	DAC_SetChannel1Data, %function
 578              	DAC_SetChannel1Data:
 579              	.LFB37:
 331:../../source/src/FWlib/src/stm32f10x_dac.c **** 
 332:../../source/src/FWlib/src/stm32f10x_dac.c **** /**
 333:../../source/src/FWlib/src/stm32f10x_dac.c ****   * @brief  Set the specified data holding register value for DAC channel1.
 334:../../source/src/FWlib/src/stm32f10x_dac.c ****   * @param  DAC_Align: Specifies the data alignment for DAC channel1.
 335:../../source/src/FWlib/src/stm32f10x_dac.c ****   *   This parameter can be one of the following values:
 336:../../source/src/FWlib/src/stm32f10x_dac.c ****   *     @arg DAC_Align_8b_R: 8bit right data alignment selected
 337:../../source/src/FWlib/src/stm32f10x_dac.c ****   *     @arg DAC_Align_12b_L: 12bit left data alignment selected
 338:../../source/src/FWlib/src/stm32f10x_dac.c ****   *     @arg DAC_Align_12b_R: 12bit right data alignment selected
 339:../../source/src/FWlib/src/stm32f10x_dac.c ****   * @param  Data : Data to be loaded in the selected data holding register.
 340:../../source/src/FWlib/src/stm32f10x_dac.c ****   * @retval None
 341:../../source/src/FWlib/src/stm32f10x_dac.c ****   */
 342:../../source/src/FWlib/src/stm32f10x_dac.c **** void DAC_SetChannel1Data(uint32_t DAC_Align, uint16_t Data)
 343:../../source/src/FWlib/src/stm32f10x_dac.c **** {  
 580              		.loc 1 343 0
 581              		.cfi_startproc
 582              		@ args = 0, pretend = 0, frame = 16
 583              		@ frame_needed = 1, uses_anonymous_args = 0
 584              		@ link register save eliminated.
 585 0210 80B4     		push	{r7}
 586              	.LCFI44:
 587              		.cfi_def_cfa_offset 4
 588              		.cfi_offset 7, -4
 589 0212 85B0     		sub	sp, sp, #20
 590              	.LCFI45:
 591              		.cfi_def_cfa_offset 24
 592 0214 00AF     		add	r7, sp, #0
 593              	.LCFI46:
 594              		.cfi_def_cfa_register 7
 595 0216 7860     		str	r0, [r7, #4]
 596 0218 0B46     		mov	r3, r1
 597 021a 7B80     		strh	r3, [r7, #2]	@ movhi
 344:../../source/src/FWlib/src/stm32f10x_dac.c ****   __IO uint32_t tmp = 0;
 598              		.loc 1 344 0
 599 021c 0023     		movs	r3, #0
 600 021e FB60     		str	r3, [r7, #12]
 345:../../source/src/FWlib/src/stm32f10x_dac.c ****   
 346:../../source/src/FWlib/src/stm32f10x_dac.c ****   /* Check the parameters */
 347:../../source/src/FWlib/src/stm32f10x_dac.c ****   assert_param(IS_DAC_ALIGN(DAC_Align));
 348:../../source/src/FWlib/src/stm32f10x_dac.c ****   assert_param(IS_DAC_DATA(Data));
 349:../../source/src/FWlib/src/stm32f10x_dac.c ****   
 350:../../source/src/FWlib/src/stm32f10x_dac.c ****   tmp = (uint32_t)DAC_BASE; 
 601              		.loc 1 350 0
 602 0220 074B     		ldr	r3, .L37
 603 0222 FB60     		str	r3, [r7, #12]
 351:../../source/src/FWlib/src/stm32f10x_dac.c ****   tmp += DHR12R1_OFFSET + DAC_Align;
 604              		.loc 1 351 0
 605 0224 FA68     		ldr	r2, [r7, #12]
 606 0226 7B68     		ldr	r3, [r7, #4]
 607 0228 1344     		add	r3, r3, r2
 608 022a 0833     		adds	r3, r3, #8
 609 022c FB60     		str	r3, [r7, #12]
 352:../../source/src/FWlib/src/stm32f10x_dac.c **** 
 353:../../source/src/FWlib/src/stm32f10x_dac.c ****   /* Set the DAC channel1 selected data holding register */
ARM GAS  G:\Users\Jaxb\AppData\Local\Temp\cc4z3oeX.s 			page 18


 354:../../source/src/FWlib/src/stm32f10x_dac.c ****   *(__IO uint32_t *) tmp = Data;
 610              		.loc 1 354 0
 611 022e FB68     		ldr	r3, [r7, #12]
 612 0230 1A46     		mov	r2, r3
 613 0232 7B88     		ldrh	r3, [r7, #2]
 614 0234 1360     		str	r3, [r2]
 355:../../source/src/FWlib/src/stm32f10x_dac.c **** }
 615              		.loc 1 355 0
 616 0236 00BF     		nop
 617 0238 1437     		adds	r7, r7, #20
 618              	.LCFI47:
 619              		.cfi_def_cfa_offset 4
 620 023a BD46     		mov	sp, r7
 621              	.LCFI48:
 622              		.cfi_def_cfa_register 13
 623              		@ sp needed
 624 023c 80BC     		pop	{r7}
 625              	.LCFI49:
 626              		.cfi_restore 7
 627              		.cfi_def_cfa_offset 0
 628 023e 7047     		bx	lr
 629              	.L38:
 630              		.align	2
 631              	.L37:
 632 0240 00740040 		.word	1073771520
 633              		.cfi_endproc
 634              	.LFE37:
 635              		.size	DAC_SetChannel1Data, .-DAC_SetChannel1Data
 636              		.align	1
 637              		.global	DAC_SetChannel2Data
 638              		.syntax unified
 639              		.thumb
 640              		.thumb_func
 641              		.fpu softvfp
 642              		.type	DAC_SetChannel2Data, %function
 643              	DAC_SetChannel2Data:
 644              	.LFB38:
 356:../../source/src/FWlib/src/stm32f10x_dac.c **** 
 357:../../source/src/FWlib/src/stm32f10x_dac.c **** /**
 358:../../source/src/FWlib/src/stm32f10x_dac.c ****   * @brief  Set the specified data holding register value for DAC channel2.
 359:../../source/src/FWlib/src/stm32f10x_dac.c ****   * @param  DAC_Align: Specifies the data alignment for DAC channel2.
 360:../../source/src/FWlib/src/stm32f10x_dac.c ****   *   This parameter can be one of the following values:
 361:../../source/src/FWlib/src/stm32f10x_dac.c ****   *     @arg DAC_Align_8b_R: 8bit right data alignment selected
 362:../../source/src/FWlib/src/stm32f10x_dac.c ****   *     @arg DAC_Align_12b_L: 12bit left data alignment selected
 363:../../source/src/FWlib/src/stm32f10x_dac.c ****   *     @arg DAC_Align_12b_R: 12bit right data alignment selected
 364:../../source/src/FWlib/src/stm32f10x_dac.c ****   * @param  Data : Data to be loaded in the selected data holding register.
 365:../../source/src/FWlib/src/stm32f10x_dac.c ****   * @retval None
 366:../../source/src/FWlib/src/stm32f10x_dac.c ****   */
 367:../../source/src/FWlib/src/stm32f10x_dac.c **** void DAC_SetChannel2Data(uint32_t DAC_Align, uint16_t Data)
 368:../../source/src/FWlib/src/stm32f10x_dac.c **** {
 645              		.loc 1 368 0
 646              		.cfi_startproc
 647              		@ args = 0, pretend = 0, frame = 16
 648              		@ frame_needed = 1, uses_anonymous_args = 0
 649              		@ link register save eliminated.
 650 0244 80B4     		push	{r7}
 651              	.LCFI50:
ARM GAS  G:\Users\Jaxb\AppData\Local\Temp\cc4z3oeX.s 			page 19


 652              		.cfi_def_cfa_offset 4
 653              		.cfi_offset 7, -4
 654 0246 85B0     		sub	sp, sp, #20
 655              	.LCFI51:
 656              		.cfi_def_cfa_offset 24
 657 0248 00AF     		add	r7, sp, #0
 658              	.LCFI52:
 659              		.cfi_def_cfa_register 7
 660 024a 7860     		str	r0, [r7, #4]
 661 024c 0B46     		mov	r3, r1
 662 024e 7B80     		strh	r3, [r7, #2]	@ movhi
 369:../../source/src/FWlib/src/stm32f10x_dac.c ****   __IO uint32_t tmp = 0;
 663              		.loc 1 369 0
 664 0250 0023     		movs	r3, #0
 665 0252 FB60     		str	r3, [r7, #12]
 370:../../source/src/FWlib/src/stm32f10x_dac.c **** 
 371:../../source/src/FWlib/src/stm32f10x_dac.c ****   /* Check the parameters */
 372:../../source/src/FWlib/src/stm32f10x_dac.c ****   assert_param(IS_DAC_ALIGN(DAC_Align));
 373:../../source/src/FWlib/src/stm32f10x_dac.c ****   assert_param(IS_DAC_DATA(Data));
 374:../../source/src/FWlib/src/stm32f10x_dac.c ****   
 375:../../source/src/FWlib/src/stm32f10x_dac.c ****   tmp = (uint32_t)DAC_BASE;
 666              		.loc 1 375 0
 667 0254 074B     		ldr	r3, .L40
 668 0256 FB60     		str	r3, [r7, #12]
 376:../../source/src/FWlib/src/stm32f10x_dac.c ****   tmp += DHR12R2_OFFSET + DAC_Align;
 669              		.loc 1 376 0
 670 0258 FA68     		ldr	r2, [r7, #12]
 671 025a 7B68     		ldr	r3, [r7, #4]
 672 025c 1344     		add	r3, r3, r2
 673 025e 1433     		adds	r3, r3, #20
 674 0260 FB60     		str	r3, [r7, #12]
 377:../../source/src/FWlib/src/stm32f10x_dac.c **** 
 378:../../source/src/FWlib/src/stm32f10x_dac.c ****   /* Set the DAC channel2 selected data holding register */
 379:../../source/src/FWlib/src/stm32f10x_dac.c ****   *(__IO uint32_t *)tmp = Data;
 675              		.loc 1 379 0
 676 0262 FB68     		ldr	r3, [r7, #12]
 677 0264 1A46     		mov	r2, r3
 678 0266 7B88     		ldrh	r3, [r7, #2]
 679 0268 1360     		str	r3, [r2]
 380:../../source/src/FWlib/src/stm32f10x_dac.c **** }
 680              		.loc 1 380 0
 681 026a 00BF     		nop
 682 026c 1437     		adds	r7, r7, #20
 683              	.LCFI53:
 684              		.cfi_def_cfa_offset 4
 685 026e BD46     		mov	sp, r7
 686              	.LCFI54:
 687              		.cfi_def_cfa_register 13
 688              		@ sp needed
 689 0270 80BC     		pop	{r7}
 690              	.LCFI55:
 691              		.cfi_restore 7
 692              		.cfi_def_cfa_offset 0
 693 0272 7047     		bx	lr
 694              	.L41:
 695              		.align	2
 696              	.L40:
ARM GAS  G:\Users\Jaxb\AppData\Local\Temp\cc4z3oeX.s 			page 20


 697 0274 00740040 		.word	1073771520
 698              		.cfi_endproc
 699              	.LFE38:
 700              		.size	DAC_SetChannel2Data, .-DAC_SetChannel2Data
 701              		.align	1
 702              		.global	DAC_SetDualChannelData
 703              		.syntax unified
 704              		.thumb
 705              		.thumb_func
 706              		.fpu softvfp
 707              		.type	DAC_SetDualChannelData, %function
 708              	DAC_SetDualChannelData:
 709              	.LFB39:
 381:../../source/src/FWlib/src/stm32f10x_dac.c **** 
 382:../../source/src/FWlib/src/stm32f10x_dac.c **** /**
 383:../../source/src/FWlib/src/stm32f10x_dac.c ****   * @brief  Set the specified data holding register value for dual channel
 384:../../source/src/FWlib/src/stm32f10x_dac.c ****   *   DAC.
 385:../../source/src/FWlib/src/stm32f10x_dac.c ****   * @param  DAC_Align: Specifies the data alignment for dual channel DAC.
 386:../../source/src/FWlib/src/stm32f10x_dac.c ****   *   This parameter can be one of the following values:
 387:../../source/src/FWlib/src/stm32f10x_dac.c ****   *     @arg DAC_Align_8b_R: 8bit right data alignment selected
 388:../../source/src/FWlib/src/stm32f10x_dac.c ****   *     @arg DAC_Align_12b_L: 12bit left data alignment selected
 389:../../source/src/FWlib/src/stm32f10x_dac.c ****   *     @arg DAC_Align_12b_R: 12bit right data alignment selected
 390:../../source/src/FWlib/src/stm32f10x_dac.c ****   * @param  Data2: Data for DAC Channel2 to be loaded in the selected data 
 391:../../source/src/FWlib/src/stm32f10x_dac.c ****   *   holding register.
 392:../../source/src/FWlib/src/stm32f10x_dac.c ****   * @param  Data1: Data for DAC Channel1 to be loaded in the selected data 
 393:../../source/src/FWlib/src/stm32f10x_dac.c ****   *   holding register.
 394:../../source/src/FWlib/src/stm32f10x_dac.c ****   * @retval None
 395:../../source/src/FWlib/src/stm32f10x_dac.c ****   */
 396:../../source/src/FWlib/src/stm32f10x_dac.c **** void DAC_SetDualChannelData(uint32_t DAC_Align, uint16_t Data2, uint16_t Data1)
 397:../../source/src/FWlib/src/stm32f10x_dac.c **** {
 710              		.loc 1 397 0
 711              		.cfi_startproc
 712              		@ args = 0, pretend = 0, frame = 16
 713              		@ frame_needed = 1, uses_anonymous_args = 0
 714              		@ link register save eliminated.
 715 0278 80B4     		push	{r7}
 716              	.LCFI56:
 717              		.cfi_def_cfa_offset 4
 718              		.cfi_offset 7, -4
 719 027a 85B0     		sub	sp, sp, #20
 720              	.LCFI57:
 721              		.cfi_def_cfa_offset 24
 722 027c 00AF     		add	r7, sp, #0
 723              	.LCFI58:
 724              		.cfi_def_cfa_register 7
 725 027e 7860     		str	r0, [r7, #4]
 726 0280 0B46     		mov	r3, r1
 727 0282 7B80     		strh	r3, [r7, #2]	@ movhi
 728 0284 1346     		mov	r3, r2	@ movhi
 729 0286 3B80     		strh	r3, [r7]	@ movhi
 398:../../source/src/FWlib/src/stm32f10x_dac.c ****   uint32_t data = 0, tmp = 0;
 730              		.loc 1 398 0
 731 0288 0023     		movs	r3, #0
 732 028a FB60     		str	r3, [r7, #12]
 733 028c 0023     		movs	r3, #0
 734 028e BB60     		str	r3, [r7, #8]
 399:../../source/src/FWlib/src/stm32f10x_dac.c ****   
ARM GAS  G:\Users\Jaxb\AppData\Local\Temp\cc4z3oeX.s 			page 21


 400:../../source/src/FWlib/src/stm32f10x_dac.c ****   /* Check the parameters */
 401:../../source/src/FWlib/src/stm32f10x_dac.c ****   assert_param(IS_DAC_ALIGN(DAC_Align));
 402:../../source/src/FWlib/src/stm32f10x_dac.c ****   assert_param(IS_DAC_DATA(Data1));
 403:../../source/src/FWlib/src/stm32f10x_dac.c ****   assert_param(IS_DAC_DATA(Data2));
 404:../../source/src/FWlib/src/stm32f10x_dac.c ****   
 405:../../source/src/FWlib/src/stm32f10x_dac.c ****   /* Calculate and set dual DAC data holding register value */
 406:../../source/src/FWlib/src/stm32f10x_dac.c ****   if (DAC_Align == DAC_Align_8b_R)
 735              		.loc 1 406 0
 736 0290 7B68     		ldr	r3, [r7, #4]
 737 0292 082B     		cmp	r3, #8
 738 0294 05D1     		bne	.L43
 407:../../source/src/FWlib/src/stm32f10x_dac.c ****   {
 408:../../source/src/FWlib/src/stm32f10x_dac.c ****     data = ((uint32_t)Data2 << 8) | Data1; 
 739              		.loc 1 408 0
 740 0296 7B88     		ldrh	r3, [r7, #2]
 741 0298 1A02     		lsls	r2, r3, #8
 742 029a 3B88     		ldrh	r3, [r7]
 743 029c 1343     		orrs	r3, r3, r2
 744 029e FB60     		str	r3, [r7, #12]
 745 02a0 04E0     		b	.L44
 746              	.L43:
 409:../../source/src/FWlib/src/stm32f10x_dac.c ****   }
 410:../../source/src/FWlib/src/stm32f10x_dac.c ****   else
 411:../../source/src/FWlib/src/stm32f10x_dac.c ****   {
 412:../../source/src/FWlib/src/stm32f10x_dac.c ****     data = ((uint32_t)Data2 << 16) | Data1;
 747              		.loc 1 412 0
 748 02a2 7B88     		ldrh	r3, [r7, #2]
 749 02a4 1A04     		lsls	r2, r3, #16
 750 02a6 3B88     		ldrh	r3, [r7]
 751 02a8 1343     		orrs	r3, r3, r2
 752 02aa FB60     		str	r3, [r7, #12]
 753              	.L44:
 413:../../source/src/FWlib/src/stm32f10x_dac.c ****   }
 414:../../source/src/FWlib/src/stm32f10x_dac.c ****   
 415:../../source/src/FWlib/src/stm32f10x_dac.c ****   tmp = (uint32_t)DAC_BASE;
 754              		.loc 1 415 0
 755 02ac 074B     		ldr	r3, .L45
 756 02ae BB60     		str	r3, [r7, #8]
 416:../../source/src/FWlib/src/stm32f10x_dac.c ****   tmp += DHR12RD_OFFSET + DAC_Align;
 757              		.loc 1 416 0
 758 02b0 7A68     		ldr	r2, [r7, #4]
 759 02b2 BB68     		ldr	r3, [r7, #8]
 760 02b4 1344     		add	r3, r3, r2
 761 02b6 2033     		adds	r3, r3, #32
 762 02b8 BB60     		str	r3, [r7, #8]
 417:../../source/src/FWlib/src/stm32f10x_dac.c **** 
 418:../../source/src/FWlib/src/stm32f10x_dac.c ****   /* Set the dual DAC selected data holding register */
 419:../../source/src/FWlib/src/stm32f10x_dac.c ****   *(__IO uint32_t *)tmp = data;
 763              		.loc 1 419 0
 764 02ba BB68     		ldr	r3, [r7, #8]
 765 02bc FA68     		ldr	r2, [r7, #12]
 766 02be 1A60     		str	r2, [r3]
 420:../../source/src/FWlib/src/stm32f10x_dac.c **** }
 767              		.loc 1 420 0
 768 02c0 00BF     		nop
 769 02c2 1437     		adds	r7, r7, #20
 770              	.LCFI59:
ARM GAS  G:\Users\Jaxb\AppData\Local\Temp\cc4z3oeX.s 			page 22


 771              		.cfi_def_cfa_offset 4
 772 02c4 BD46     		mov	sp, r7
 773              	.LCFI60:
 774              		.cfi_def_cfa_register 13
 775              		@ sp needed
 776 02c6 80BC     		pop	{r7}
 777              	.LCFI61:
 778              		.cfi_restore 7
 779              		.cfi_def_cfa_offset 0
 780 02c8 7047     		bx	lr
 781              	.L46:
 782 02ca 00BF     		.align	2
 783              	.L45:
 784 02cc 00740040 		.word	1073771520
 785              		.cfi_endproc
 786              	.LFE39:
 787              		.size	DAC_SetDualChannelData, .-DAC_SetDualChannelData
 788              		.align	1
 789              		.global	DAC_GetDataOutputValue
 790              		.syntax unified
 791              		.thumb
 792              		.thumb_func
 793              		.fpu softvfp
 794              		.type	DAC_GetDataOutputValue, %function
 795              	DAC_GetDataOutputValue:
 796              	.LFB40:
 421:../../source/src/FWlib/src/stm32f10x_dac.c **** 
 422:../../source/src/FWlib/src/stm32f10x_dac.c **** /**
 423:../../source/src/FWlib/src/stm32f10x_dac.c ****   * @brief  Returns the last data output value of the selected DAC channel.
 424:../../source/src/FWlib/src/stm32f10x_dac.c ****   * @param  DAC_Channel: the selected DAC channel. 
 425:../../source/src/FWlib/src/stm32f10x_dac.c ****   *   This parameter can be one of the following values:
 426:../../source/src/FWlib/src/stm32f10x_dac.c ****   *     @arg DAC_Channel_1: DAC Channel1 selected
 427:../../source/src/FWlib/src/stm32f10x_dac.c ****   *     @arg DAC_Channel_2: DAC Channel2 selected
 428:../../source/src/FWlib/src/stm32f10x_dac.c ****   * @retval The selected DAC channel data output value.
 429:../../source/src/FWlib/src/stm32f10x_dac.c ****   */
 430:../../source/src/FWlib/src/stm32f10x_dac.c **** uint16_t DAC_GetDataOutputValue(uint32_t DAC_Channel)
 431:../../source/src/FWlib/src/stm32f10x_dac.c **** {
 797              		.loc 1 431 0
 798              		.cfi_startproc
 799              		@ args = 0, pretend = 0, frame = 16
 800              		@ frame_needed = 1, uses_anonymous_args = 0
 801              		@ link register save eliminated.
 802 02d0 80B4     		push	{r7}
 803              	.LCFI62:
 804              		.cfi_def_cfa_offset 4
 805              		.cfi_offset 7, -4
 806 02d2 85B0     		sub	sp, sp, #20
 807              	.LCFI63:
 808              		.cfi_def_cfa_offset 24
 809 02d4 00AF     		add	r7, sp, #0
 810              	.LCFI64:
 811              		.cfi_def_cfa_register 7
 812 02d6 7860     		str	r0, [r7, #4]
 432:../../source/src/FWlib/src/stm32f10x_dac.c ****   __IO uint32_t tmp = 0;
 813              		.loc 1 432 0
 814 02d8 0023     		movs	r3, #0
 815 02da FB60     		str	r3, [r7, #12]
ARM GAS  G:\Users\Jaxb\AppData\Local\Temp\cc4z3oeX.s 			page 23


 433:../../source/src/FWlib/src/stm32f10x_dac.c ****   
 434:../../source/src/FWlib/src/stm32f10x_dac.c ****   /* Check the parameters */
 435:../../source/src/FWlib/src/stm32f10x_dac.c ****   assert_param(IS_DAC_CHANNEL(DAC_Channel));
 436:../../source/src/FWlib/src/stm32f10x_dac.c ****   
 437:../../source/src/FWlib/src/stm32f10x_dac.c ****   tmp = (uint32_t) DAC_BASE ;
 816              		.loc 1 437 0
 817 02dc 074B     		ldr	r3, .L49
 818 02de FB60     		str	r3, [r7, #12]
 438:../../source/src/FWlib/src/stm32f10x_dac.c ****   tmp += DOR_OFFSET + ((uint32_t)DAC_Channel >> 2);
 819              		.loc 1 438 0
 820 02e0 7B68     		ldr	r3, [r7, #4]
 821 02e2 9A08     		lsrs	r2, r3, #2
 822 02e4 FB68     		ldr	r3, [r7, #12]
 823 02e6 1344     		add	r3, r3, r2
 824 02e8 2C33     		adds	r3, r3, #44
 825 02ea FB60     		str	r3, [r7, #12]
 439:../../source/src/FWlib/src/stm32f10x_dac.c ****   
 440:../../source/src/FWlib/src/stm32f10x_dac.c ****   /* Returns the DAC channel data output register value */
 441:../../source/src/FWlib/src/stm32f10x_dac.c ****   return (uint16_t) (*(__IO uint32_t*) tmp);
 826              		.loc 1 441 0
 827 02ec FB68     		ldr	r3, [r7, #12]
 828 02ee 1B68     		ldr	r3, [r3]
 829 02f0 9BB2     		uxth	r3, r3
 442:../../source/src/FWlib/src/stm32f10x_dac.c **** }
 830              		.loc 1 442 0
 831 02f2 1846     		mov	r0, r3
 832 02f4 1437     		adds	r7, r7, #20
 833              	.LCFI65:
 834              		.cfi_def_cfa_offset 4
 835 02f6 BD46     		mov	sp, r7
 836              	.LCFI66:
 837              		.cfi_def_cfa_register 13
 838              		@ sp needed
 839 02f8 80BC     		pop	{r7}
 840              	.LCFI67:
 841              		.cfi_restore 7
 842              		.cfi_def_cfa_offset 0
 843 02fa 7047     		bx	lr
 844              	.L50:
 845              		.align	2
 846              	.L49:
 847 02fc 00740040 		.word	1073771520
 848              		.cfi_endproc
 849              	.LFE40:
 850              		.size	DAC_GetDataOutputValue, .-DAC_GetDataOutputValue
 851              	.Letext0:
 852              		.file 2 "f:\\arm\\gcc2018\\arm-none-eabi\\include\\machine\\_default_types.h"
 853              		.file 3 "f:\\arm\\gcc2018\\arm-none-eabi\\include\\sys\\_stdint.h"
 854              		.file 4 "../../source/include/core_cm3.h"
 855              		.file 5 "../../source/include/system_stm32f10x.h"
 856              		.file 6 "../../source/include/stm32f10x.h"
 857              		.file 7 "../../source/src/FWlib/inc/stm32f10x_dac.h"
 858              		.section	.debug_info,"",%progbits
 859              	.Ldebug_info0:
 860 0000 05050000 		.4byte	0x505
 861 0004 0200     		.2byte	0x2
 862 0006 00000000 		.4byte	.Ldebug_abbrev0
ARM GAS  G:\Users\Jaxb\AppData\Local\Temp\cc4z3oeX.s 			page 24


 863 000a 04       		.byte	0x4
 864 000b 01       		.uleb128 0x1
 865 000c F8020000 		.4byte	.LASF59
 866 0010 0C       		.byte	0xc
 867 0011 1C010000 		.4byte	.LASF60
 868 0015 E0000000 		.4byte	.LASF61
 869 0019 00000000 		.4byte	.Ltext0
 870 001d 00030000 		.4byte	.Letext0
 871 0021 00000000 		.4byte	.Ldebug_line0
 872 0025 02       		.uleb128 0x2
 873 0026 01       		.byte	0x1
 874 0027 06       		.byte	0x6
 875 0028 C9010000 		.4byte	.LASF0
 876 002c 03       		.uleb128 0x3
 877 002d E4030000 		.4byte	.LASF3
 878 0031 02       		.byte	0x2
 879 0032 2B       		.byte	0x2b
 880 0033 37000000 		.4byte	0x37
 881 0037 02       		.uleb128 0x2
 882 0038 01       		.byte	0x1
 883 0039 08       		.byte	0x8
 884 003a 95010000 		.4byte	.LASF1
 885 003e 02       		.uleb128 0x2
 886 003f 02       		.byte	0x2
 887 0040 05       		.byte	0x5
 888 0041 4D000000 		.4byte	.LASF2
 889 0045 03       		.uleb128 0x3
 890 0046 A1000000 		.4byte	.LASF4
 891 004a 02       		.byte	0x2
 892 004b 39       		.byte	0x39
 893 004c 50000000 		.4byte	0x50
 894 0050 02       		.uleb128 0x2
 895 0051 02       		.byte	0x2
 896 0052 07       		.byte	0x7
 897 0053 32020000 		.4byte	.LASF5
 898 0057 02       		.uleb128 0x2
 899 0058 04       		.byte	0x4
 900 0059 05       		.byte	0x5
 901 005a 47010000 		.4byte	.LASF6
 902 005e 03       		.uleb128 0x3
 903 005f 85000000 		.4byte	.LASF7
 904 0063 02       		.byte	0x2
 905 0064 4F       		.byte	0x4f
 906 0065 69000000 		.4byte	0x69
 907 0069 02       		.uleb128 0x2
 908 006a 04       		.byte	0x4
 909 006b 07       		.byte	0x7
 910 006c AB020000 		.4byte	.LASF8
 911 0070 02       		.uleb128 0x2
 912 0071 08       		.byte	0x8
 913 0072 05       		.byte	0x5
 914 0073 0E010000 		.4byte	.LASF9
 915 0077 02       		.uleb128 0x2
 916 0078 08       		.byte	0x8
 917 0079 07       		.byte	0x7
 918 007a D5010000 		.4byte	.LASF10
 919 007e 04       		.uleb128 0x4
ARM GAS  G:\Users\Jaxb\AppData\Local\Temp\cc4z3oeX.s 			page 25


 920 007f 04       		.byte	0x4
 921 0080 05       		.byte	0x5
 922 0081 696E7400 		.ascii	"int\000"
 923 0085 05       		.uleb128 0x5
 924 0086 7E000000 		.4byte	0x7e
 925 008a 02       		.uleb128 0x2
 926 008b 04       		.byte	0x4
 927 008c 07       		.byte	0x7
 928 008d F5010000 		.4byte	.LASF11
 929 0091 03       		.uleb128 0x3
 930 0092 AC000000 		.4byte	.LASF12
 931 0096 03       		.byte	0x3
 932 0097 18       		.byte	0x18
 933 0098 2C000000 		.4byte	0x2c
 934 009c 03       		.uleb128 0x3
 935 009d 02020000 		.4byte	.LASF13
 936 00a1 03       		.byte	0x3
 937 00a2 24       		.byte	0x24
 938 00a3 45000000 		.4byte	0x45
 939 00a7 03       		.uleb128 0x3
 940 00a8 EC010000 		.4byte	.LASF14
 941 00ac 03       		.byte	0x3
 942 00ad 30       		.byte	0x30
 943 00ae 5E000000 		.4byte	0x5e
 944 00b2 05       		.uleb128 0x5
 945 00b3 A7000000 		.4byte	0xa7
 946 00b7 06       		.uleb128 0x6
 947 00b8 A3030000 		.4byte	.LASF15
 948 00bc 04       		.byte	0x4
 949 00bd CE06     		.2byte	0x6ce
 950 00bf 85000000 		.4byte	0x85
 951 00c3 01       		.byte	0x1
 952 00c4 01       		.byte	0x1
 953 00c5 07       		.uleb128 0x7
 954 00c6 88020000 		.4byte	.LASF16
 955 00ca 05       		.byte	0x5
 956 00cb 35       		.byte	0x35
 957 00cc A7000000 		.4byte	0xa7
 958 00d0 01       		.byte	0x1
 959 00d1 01       		.byte	0x1
 960 00d2 08       		.uleb128 0x8
 961 00d3 07       		.byte	0x7
 962 00d4 01       		.byte	0x1
 963 00d5 37000000 		.4byte	0x37
 964 00d9 06       		.byte	0x6
 965 00da 0902     		.2byte	0x209
 966 00dc ED000000 		.4byte	0xed
 967 00e0 09       		.uleb128 0x9
 968 00e1 D8000000 		.4byte	.LASF17
 969 00e5 00       		.byte	0
 970 00e6 09       		.uleb128 0x9
 971 00e7 DD030000 		.4byte	.LASF18
 972 00eb 01       		.byte	0x1
 973 00ec 00       		.byte	0
 974 00ed 0A       		.uleb128 0xa
 975 00ee BD020000 		.4byte	.LASF19
 976 00f2 06       		.byte	0x6
ARM GAS  G:\Users\Jaxb\AppData\Local\Temp\cc4z3oeX.s 			page 26


 977 00f3 0902     		.2byte	0x209
 978 00f5 D2000000 		.4byte	0xd2
 979 00f9 0B       		.uleb128 0xb
 980 00fa 34       		.byte	0x34
 981 00fb 06       		.byte	0x6
 982 00fc FC02     		.2byte	0x2fc
 983 00fe C5010000 		.4byte	0x1c5
 984 0102 0C       		.uleb128 0xc
 985 0103 435200   		.ascii	"CR\000"
 986 0106 06       		.byte	0x6
 987 0107 FE02     		.2byte	0x2fe
 988 0109 B2000000 		.4byte	0xb2
 989 010d 02       		.byte	0x2
 990 010e 23       		.byte	0x23
 991 010f 00       		.uleb128 0
 992 0110 0D       		.uleb128 0xd
 993 0111 B2010000 		.4byte	.LASF20
 994 0115 06       		.byte	0x6
 995 0116 FF02     		.2byte	0x2ff
 996 0118 B2000000 		.4byte	0xb2
 997 011c 02       		.byte	0x2
 998 011d 23       		.byte	0x23
 999 011e 04       		.uleb128 0x4
 1000 011f 0D       		.uleb128 0xd
 1001 0120 78020000 		.4byte	.LASF21
 1002 0124 06       		.byte	0x6
 1003 0125 0003     		.2byte	0x300
 1004 0127 B2000000 		.4byte	0xb2
 1005 012b 02       		.byte	0x2
 1006 012c 23       		.byte	0x23
 1007 012d 08       		.uleb128 0x8
 1008 012e 0D       		.uleb128 0xd
 1009 012f 3D000000 		.4byte	.LASF22
 1010 0133 06       		.byte	0x6
 1011 0134 0103     		.2byte	0x301
 1012 0136 B2000000 		.4byte	0xb2
 1013 013a 02       		.byte	0x2
 1014 013b 23       		.byte	0x23
 1015 013c 0C       		.uleb128 0xc
 1016 013d 0D       		.uleb128 0xd
 1017 013e BC030000 		.4byte	.LASF23
 1018 0142 06       		.byte	0x6
 1019 0143 0203     		.2byte	0x302
 1020 0145 B2000000 		.4byte	0xb2
 1021 0149 02       		.byte	0x2
 1022 014a 23       		.byte	0x23
 1023 014b 10       		.uleb128 0x10
 1024 014c 0D       		.uleb128 0xd
 1025 014d 80020000 		.4byte	.LASF24
 1026 0151 06       		.byte	0x6
 1027 0152 0303     		.2byte	0x303
 1028 0154 B2000000 		.4byte	0xb2
 1029 0158 02       		.byte	0x2
 1030 0159 23       		.byte	0x23
 1031 015a 14       		.uleb128 0x14
 1032 015b 0D       		.uleb128 0xd
 1033 015c 45000000 		.4byte	.LASF25
ARM GAS  G:\Users\Jaxb\AppData\Local\Temp\cc4z3oeX.s 			page 27


 1034 0160 06       		.byte	0x6
 1035 0161 0403     		.2byte	0x304
 1036 0163 B2000000 		.4byte	0xb2
 1037 0167 02       		.byte	0x2
 1038 0168 23       		.byte	0x23
 1039 0169 18       		.uleb128 0x18
 1040 016a 0D       		.uleb128 0xd
 1041 016b C3030000 		.4byte	.LASF26
 1042 016f 06       		.byte	0x6
 1043 0170 0503     		.2byte	0x305
 1044 0172 B2000000 		.4byte	0xb2
 1045 0176 02       		.byte	0x2
 1046 0177 23       		.byte	0x23
 1047 0178 1C       		.uleb128 0x1c
 1048 0179 0D       		.uleb128 0xd
 1049 017a A3020000 		.4byte	.LASF27
 1050 017e 06       		.byte	0x6
 1051 017f 0603     		.2byte	0x306
 1052 0181 B2000000 		.4byte	0xb2
 1053 0185 02       		.byte	0x2
 1054 0186 23       		.byte	0x23
 1055 0187 20       		.uleb128 0x20
 1056 0188 0D       		.uleb128 0xd
 1057 0189 6D000000 		.4byte	.LASF28
 1058 018d 06       		.byte	0x6
 1059 018e 0703     		.2byte	0x307
 1060 0190 B2000000 		.4byte	0xb2
 1061 0194 02       		.byte	0x2
 1062 0195 23       		.byte	0x23
 1063 0196 24       		.uleb128 0x24
 1064 0197 0D       		.uleb128 0xd
 1065 0198 1F000000 		.4byte	.LASF29
 1066 019c 06       		.byte	0x6
 1067 019d 0803     		.2byte	0x308
 1068 019f B2000000 		.4byte	0xb2
 1069 01a3 02       		.byte	0x2
 1070 01a4 23       		.byte	0x23
 1071 01a5 28       		.uleb128 0x28
 1072 01a6 0D       		.uleb128 0xd
 1073 01a7 0B020000 		.4byte	.LASF30
 1074 01ab 06       		.byte	0x6
 1075 01ac 0903     		.2byte	0x309
 1076 01ae B2000000 		.4byte	0xb2
 1077 01b2 02       		.byte	0x2
 1078 01b3 23       		.byte	0x23
 1079 01b4 2C       		.uleb128 0x2c
 1080 01b5 0D       		.uleb128 0xd
 1081 01b6 9E030000 		.4byte	.LASF31
 1082 01ba 06       		.byte	0x6
 1083 01bb 0A03     		.2byte	0x30a
 1084 01bd B2000000 		.4byte	0xb2
 1085 01c1 02       		.byte	0x2
 1086 01c2 23       		.byte	0x23
 1087 01c3 30       		.uleb128 0x30
 1088 01c4 00       		.byte	0
 1089 01c5 0A       		.uleb128 0xa
 1090 01c6 B0030000 		.4byte	.LASF32
ARM GAS  G:\Users\Jaxb\AppData\Local\Temp\cc4z3oeX.s 			page 28


 1091 01ca 06       		.byte	0x6
 1092 01cb 0E03     		.2byte	0x30e
 1093 01cd F9000000 		.4byte	0xf9
 1094 01d1 0E       		.uleb128 0xe
 1095 01d2 10       		.byte	0x10
 1096 01d3 07       		.byte	0x7
 1097 01d4 32       		.byte	0x32
 1098 01d5 12020000 		.4byte	0x212
 1099 01d9 0F       		.uleb128 0xf
 1100 01da 70010000 		.4byte	.LASF33
 1101 01de 07       		.byte	0x7
 1102 01df 34       		.byte	0x34
 1103 01e0 A7000000 		.4byte	0xa7
 1104 01e4 02       		.byte	0x2
 1105 01e5 23       		.byte	0x23
 1106 01e6 00       		.uleb128 0
 1107 01e7 0F       		.uleb128 0xf
 1108 01e8 CA030000 		.4byte	.LASF34
 1109 01ec 07       		.byte	0x7
 1110 01ed 37       		.byte	0x37
 1111 01ee A7000000 		.4byte	0xa7
 1112 01f2 02       		.byte	0x2
 1113 01f3 23       		.byte	0x23
 1114 01f4 04       		.uleb128 0x4
 1115 01f5 0F       		.uleb128 0xf
 1116 01f6 4D020000 		.4byte	.LASF35
 1117 01fa 07       		.byte	0x7
 1118 01fb 3B       		.byte	0x3b
 1119 01fc A7000000 		.4byte	0xa7
 1120 0200 02       		.byte	0x2
 1121 0201 23       		.byte	0x23
 1122 0202 08       		.uleb128 0x8
 1123 0203 0F       		.uleb128 0xf
 1124 0204 90000000 		.4byte	.LASF36
 1125 0208 07       		.byte	0x7
 1126 0209 3F       		.byte	0x3f
 1127 020a A7000000 		.4byte	0xa7
 1128 020e 02       		.byte	0x2
 1129 020f 23       		.byte	0x23
 1130 0210 0C       		.uleb128 0xc
 1131 0211 00       		.byte	0
 1132 0212 03       		.uleb128 0x3
 1133 0213 75000000 		.4byte	.LASF37
 1134 0217 07       		.byte	0x7
 1135 0218 41       		.byte	0x41
 1136 0219 D1010000 		.4byte	0x1d1
 1137 021d 10       		.uleb128 0x10
 1138 021e 01       		.byte	0x1
 1139 021f 08000000 		.4byte	.LASF62
 1140 0223 01       		.byte	0x1
 1141 0224 AE01     		.2byte	0x1ae
 1142 0226 01       		.byte	0x1
 1143 0227 9C000000 		.4byte	0x9c
 1144 022b D0020000 		.4byte	.LFB40
 1145 022f 00030000 		.4byte	.LFE40
 1146 0233 00000000 		.4byte	.LLST11
 1147 0237 01       		.byte	0x1
ARM GAS  G:\Users\Jaxb\AppData\Local\Temp\cc4z3oeX.s 			page 29


 1148 0238 5B020000 		.4byte	0x25b
 1149 023c 11       		.uleb128 0x11
 1150 023d 1B020000 		.4byte	.LASF38
 1151 0241 01       		.byte	0x1
 1152 0242 AE01     		.2byte	0x1ae
 1153 0244 A7000000 		.4byte	0xa7
 1154 0248 02       		.byte	0x2
 1155 0249 91       		.byte	0x91
 1156 024a 6C       		.sleb128 -20
 1157 024b 12       		.uleb128 0x12
 1158 024c 746D7000 		.ascii	"tmp\000"
 1159 0250 01       		.byte	0x1
 1160 0251 B001     		.2byte	0x1b0
 1161 0253 B2000000 		.4byte	0xb2
 1162 0257 02       		.byte	0x2
 1163 0258 91       		.byte	0x91
 1164 0259 74       		.sleb128 -12
 1165 025a 00       		.byte	0
 1166 025b 13       		.uleb128 0x13
 1167 025c 01       		.byte	0x1
 1168 025d 50010000 		.4byte	.LASF43
 1169 0261 01       		.byte	0x1
 1170 0262 8C01     		.2byte	0x18c
 1171 0264 01       		.byte	0x1
 1172 0265 78020000 		.4byte	.LFB39
 1173 0269 D0020000 		.4byte	.LFE39
 1174 026d 5C000000 		.4byte	.LLST10
 1175 0271 01       		.byte	0x1
 1176 0272 C2020000 		.4byte	0x2c2
 1177 0276 11       		.uleb128 0x11
 1178 0277 6E020000 		.4byte	.LASF39
 1179 027b 01       		.byte	0x1
 1180 027c 8C01     		.2byte	0x18c
 1181 027e A7000000 		.4byte	0xa7
 1182 0282 02       		.byte	0x2
 1183 0283 91       		.byte	0x91
 1184 0284 6C       		.sleb128 -20
 1185 0285 11       		.uleb128 0x11
 1186 0286 98020000 		.4byte	.LASF40
 1187 028a 01       		.byte	0x1
 1188 028b 8C01     		.2byte	0x18c
 1189 028d 9C000000 		.4byte	0x9c
 1190 0291 02       		.byte	0x2
 1191 0292 91       		.byte	0x91
 1192 0293 6A       		.sleb128 -22
 1193 0294 11       		.uleb128 0x11
 1194 0295 F2020000 		.4byte	.LASF41
 1195 0299 01       		.byte	0x1
 1196 029a 8C01     		.2byte	0x18c
 1197 029c 9C000000 		.4byte	0x9c
 1198 02a0 02       		.byte	0x2
 1199 02a1 91       		.byte	0x91
 1200 02a2 68       		.sleb128 -24
 1201 02a3 14       		.uleb128 0x14
 1202 02a4 9E020000 		.4byte	.LASF42
 1203 02a8 01       		.byte	0x1
 1204 02a9 8E01     		.2byte	0x18e
ARM GAS  G:\Users\Jaxb\AppData\Local\Temp\cc4z3oeX.s 			page 30


 1205 02ab A7000000 		.4byte	0xa7
 1206 02af 02       		.byte	0x2
 1207 02b0 91       		.byte	0x91
 1208 02b1 74       		.sleb128 -12
 1209 02b2 12       		.uleb128 0x12
 1210 02b3 746D7000 		.ascii	"tmp\000"
 1211 02b7 01       		.byte	0x1
 1212 02b8 8E01     		.2byte	0x18e
 1213 02ba A7000000 		.4byte	0xa7
 1214 02be 02       		.byte	0x2
 1215 02bf 91       		.byte	0x91
 1216 02c0 70       		.sleb128 -16
 1217 02c1 00       		.byte	0
 1218 02c2 13       		.uleb128 0x13
 1219 02c3 01       		.byte	0x1
 1220 02c4 CD020000 		.4byte	.LASF44
 1221 02c8 01       		.byte	0x1
 1222 02c9 6F01     		.2byte	0x16f
 1223 02cb 01       		.byte	0x1
 1224 02cc 44020000 		.4byte	.LFB38
 1225 02d0 78020000 		.4byte	.LFE38
 1226 02d4 B8000000 		.4byte	.LLST9
 1227 02d8 01       		.byte	0x1
 1228 02d9 0B030000 		.4byte	0x30b
 1229 02dd 11       		.uleb128 0x11
 1230 02de 6E020000 		.4byte	.LASF39
 1231 02e2 01       		.byte	0x1
 1232 02e3 6F01     		.2byte	0x16f
 1233 02e5 A7000000 		.4byte	0xa7
 1234 02e9 02       		.byte	0x2
 1235 02ea 91       		.byte	0x91
 1236 02eb 6C       		.sleb128 -20
 1237 02ec 11       		.uleb128 0x11
 1238 02ed 7C010000 		.4byte	.LASF45
 1239 02f1 01       		.byte	0x1
 1240 02f2 6F01     		.2byte	0x16f
 1241 02f4 9C000000 		.4byte	0x9c
 1242 02f8 02       		.byte	0x2
 1243 02f9 91       		.byte	0x91
 1244 02fa 6A       		.sleb128 -22
 1245 02fb 12       		.uleb128 0x12
 1246 02fc 746D7000 		.ascii	"tmp\000"
 1247 0300 01       		.byte	0x1
 1248 0301 7101     		.2byte	0x171
 1249 0303 B2000000 		.4byte	0xb2
 1250 0307 02       		.byte	0x2
 1251 0308 91       		.byte	0x91
 1252 0309 74       		.sleb128 -12
 1253 030a 00       		.byte	0
 1254 030b 13       		.uleb128 0x13
 1255 030c 01       		.byte	0x1
 1256 030d 81010000 		.4byte	.LASF46
 1257 0311 01       		.byte	0x1
 1258 0312 5601     		.2byte	0x156
 1259 0314 01       		.byte	0x1
 1260 0315 10020000 		.4byte	.LFB37
 1261 0319 44020000 		.4byte	.LFE37
ARM GAS  G:\Users\Jaxb\AppData\Local\Temp\cc4z3oeX.s 			page 31


 1262 031d 14010000 		.4byte	.LLST8
 1263 0321 01       		.byte	0x1
 1264 0322 54030000 		.4byte	0x354
 1265 0326 11       		.uleb128 0x11
 1266 0327 6E020000 		.4byte	.LASF39
 1267 032b 01       		.byte	0x1
 1268 032c 5601     		.2byte	0x156
 1269 032e A7000000 		.4byte	0xa7
 1270 0332 02       		.byte	0x2
 1271 0333 91       		.byte	0x91
 1272 0334 6C       		.sleb128 -20
 1273 0335 11       		.uleb128 0x11
 1274 0336 7C010000 		.4byte	.LASF45
 1275 033a 01       		.byte	0x1
 1276 033b 5601     		.2byte	0x156
 1277 033d 9C000000 		.4byte	0x9c
 1278 0341 02       		.byte	0x2
 1279 0342 91       		.byte	0x91
 1280 0343 6A       		.sleb128 -22
 1281 0344 12       		.uleb128 0x12
 1282 0345 746D7000 		.ascii	"tmp\000"
 1283 0349 01       		.byte	0x1
 1284 034a 5801     		.2byte	0x158
 1285 034c B2000000 		.4byte	0xb2
 1286 0350 02       		.byte	0x2
 1287 0351 91       		.byte	0x91
 1288 0352 74       		.sleb128 -12
 1289 0353 00       		.byte	0
 1290 0354 13       		.uleb128 0x13
 1291 0355 01       		.byte	0x1
 1292 0356 57000000 		.4byte	.LASF47
 1293 035a 01       		.byte	0x1
 1294 035b 3A01     		.2byte	0x13a
 1295 035d 01       		.byte	0x1
 1296 035e C4010000 		.4byte	.LFB36
 1297 0362 10020000 		.4byte	.LFE36
 1298 0366 70010000 		.4byte	.LLST7
 1299 036a 01       		.byte	0x1
 1300 036b 9D030000 		.4byte	0x39d
 1301 036f 11       		.uleb128 0x11
 1302 0370 1B020000 		.4byte	.LASF38
 1303 0374 01       		.byte	0x1
 1304 0375 3A01     		.2byte	0x13a
 1305 0377 A7000000 		.4byte	0xa7
 1306 037b 02       		.byte	0x2
 1307 037c 91       		.byte	0x91
 1308 037d 74       		.sleb128 -12
 1309 037e 11       		.uleb128 0x11
 1310 037f 67010000 		.4byte	.LASF48
 1311 0383 01       		.byte	0x1
 1312 0384 3A01     		.2byte	0x13a
 1313 0386 A7000000 		.4byte	0xa7
 1314 038a 02       		.byte	0x2
 1315 038b 91       		.byte	0x91
 1316 038c 70       		.sleb128 -16
 1317 038d 11       		.uleb128 0x11
 1318 038e CF000000 		.4byte	.LASF49
ARM GAS  G:\Users\Jaxb\AppData\Local\Temp\cc4z3oeX.s 			page 32


 1319 0392 01       		.byte	0x1
 1320 0393 3A01     		.2byte	0x13a
 1321 0395 ED000000 		.4byte	0xed
 1322 0399 02       		.byte	0x2
 1323 039a 91       		.byte	0x91
 1324 039b 6F       		.sleb128 -17
 1325 039c 00       		.byte	0
 1326 039d 13       		.uleb128 0x13
 1327 039e 01       		.byte	0x1
 1328 039f B4000000 		.4byte	.LASF50
 1329 03a3 01       		.byte	0x1
 1330 03a4 1C01     		.2byte	0x11c
 1331 03a6 01       		.byte	0x1
 1332 03a7 8C010000 		.4byte	.LFB35
 1333 03ab C4010000 		.4byte	.LFE35
 1334 03af CC010000 		.4byte	.LLST6
 1335 03b3 01       		.byte	0x1
 1336 03b4 C8030000 		.4byte	0x3c8
 1337 03b8 11       		.uleb128 0x11
 1338 03b9 CF000000 		.4byte	.LASF49
 1339 03bd 01       		.byte	0x1
 1340 03be 1C01     		.2byte	0x11c
 1341 03c0 ED000000 		.4byte	0xed
 1342 03c4 02       		.byte	0x2
 1343 03c5 91       		.byte	0x91
 1344 03c6 77       		.sleb128 -9
 1345 03c7 00       		.byte	0
 1346 03c8 13       		.uleb128 0x13
 1347 03c9 01       		.byte	0x1
 1348 03ca 26000000 		.4byte	.LASF51
 1349 03ce 01       		.byte	0x1
 1350 03cf 0401     		.2byte	0x104
 1351 03d1 01       		.byte	0x1
 1352 03d2 40010000 		.4byte	.LFB34
 1353 03d6 8C010000 		.4byte	.LFE34
 1354 03da 28020000 		.4byte	.LLST5
 1355 03de 01       		.byte	0x1
 1356 03df 02040000 		.4byte	0x402
 1357 03e3 11       		.uleb128 0x11
 1358 03e4 1B020000 		.4byte	.LASF38
 1359 03e8 01       		.byte	0x1
 1360 03e9 0401     		.2byte	0x104
 1361 03eb A7000000 		.4byte	0xa7
 1362 03ef 02       		.byte	0x2
 1363 03f0 91       		.byte	0x91
 1364 03f1 74       		.sleb128 -12
 1365 03f2 11       		.uleb128 0x11
 1366 03f3 CF000000 		.4byte	.LASF49
 1367 03f7 01       		.byte	0x1
 1368 03f8 0401     		.2byte	0x104
 1369 03fa ED000000 		.4byte	0xed
 1370 03fe 02       		.byte	0x2
 1371 03ff 91       		.byte	0x91
 1372 0400 73       		.sleb128 -13
 1373 0401 00       		.byte	0
 1374 0402 15       		.uleb128 0x15
 1375 0403 01       		.byte	0x1
ARM GAS  G:\Users\Jaxb\AppData\Local\Temp\cc4z3oeX.s 			page 33


 1376 0404 10020000 		.4byte	.LASF52
 1377 0408 01       		.byte	0x1
 1378 0409 E9       		.byte	0xe9
 1379 040a 01       		.byte	0x1
 1380 040b F4000000 		.4byte	.LFB33
 1381 040f 40010000 		.4byte	.LFE33
 1382 0413 84020000 		.4byte	.LLST4
 1383 0417 01       		.byte	0x1
 1384 0418 39040000 		.4byte	0x439
 1385 041c 16       		.uleb128 0x16
 1386 041d 1B020000 		.4byte	.LASF38
 1387 0421 01       		.byte	0x1
 1388 0422 E9       		.byte	0xe9
 1389 0423 A7000000 		.4byte	0xa7
 1390 0427 02       		.byte	0x2
 1391 0428 91       		.byte	0x91
 1392 0429 74       		.sleb128 -12
 1393 042a 16       		.uleb128 0x16
 1394 042b CF000000 		.4byte	.LASF49
 1395 042f 01       		.byte	0x1
 1396 0430 E9       		.byte	0xe9
 1397 0431 ED000000 		.4byte	0xed
 1398 0435 02       		.byte	0x2
 1399 0436 91       		.byte	0x91
 1400 0437 73       		.sleb128 -13
 1401 0438 00       		.byte	0
 1402 0439 15       		.uleb128 0x15
 1403 043a 01       		.byte	0x1
 1404 043b E1020000 		.4byte	.LASF53
 1405 043f 01       		.byte	0x1
 1406 0440 AD       		.byte	0xad
 1407 0441 01       		.byte	0x1
 1408 0442 AA000000 		.4byte	.LFB32
 1409 0446 F4000000 		.4byte	.LFE32
 1410 044a E0020000 		.4byte	.LLST3
 1411 044e 01       		.byte	0x1
 1412 044f 70040000 		.4byte	0x470
 1413 0453 16       		.uleb128 0x16
 1414 0454 1B020000 		.4byte	.LASF38
 1415 0458 01       		.byte	0x1
 1416 0459 AD       		.byte	0xad
 1417 045a A7000000 		.4byte	0xa7
 1418 045e 02       		.byte	0x2
 1419 045f 91       		.byte	0x91
 1420 0460 74       		.sleb128 -12
 1421 0461 16       		.uleb128 0x16
 1422 0462 CF000000 		.4byte	.LASF49
 1423 0466 01       		.byte	0x1
 1424 0467 AD       		.byte	0xad
 1425 0468 ED000000 		.4byte	0xed
 1426 046c 02       		.byte	0x2
 1427 046d 91       		.byte	0x91
 1428 046e 73       		.sleb128 -13
 1429 046f 00       		.byte	0
 1430 0470 15       		.uleb128 0x15
 1431 0471 01       		.byte	0x1
 1432 0472 BA010000 		.4byte	.LASF54
ARM GAS  G:\Users\Jaxb\AppData\Local\Temp\cc4z3oeX.s 			page 34


 1433 0476 01       		.byte	0x1
 1434 0477 96       		.byte	0x96
 1435 0478 01       		.byte	0x1
 1436 0479 80000000 		.4byte	.LFB31
 1437 047d AA000000 		.4byte	.LFE31
 1438 0481 3C030000 		.4byte	.LLST2
 1439 0485 01       		.byte	0x1
 1440 0486 99040000 		.4byte	0x499
 1441 048a 16       		.uleb128 0x16
 1442 048b A3010000 		.4byte	.LASF55
 1443 048f 01       		.byte	0x1
 1444 0490 96       		.byte	0x96
 1445 0491 99040000 		.4byte	0x499
 1446 0495 02       		.byte	0x2
 1447 0496 91       		.byte	0x91
 1448 0497 74       		.sleb128 -12
 1449 0498 00       		.byte	0
 1450 0499 17       		.uleb128 0x17
 1451 049a 04       		.byte	0x4
 1452 049b 12020000 		.4byte	0x212
 1453 049f 15       		.uleb128 0x15
 1454 04a0 01       		.byte	0x1
 1455 04a1 E9020000 		.4byte	.LASF56
 1456 04a5 01       		.byte	0x1
 1457 04a6 75       		.byte	0x75
 1458 04a7 01       		.byte	0x1
 1459 04a8 1C000000 		.4byte	.LFB30
 1460 04ac 80000000 		.4byte	.LFE30
 1461 04b0 98030000 		.4byte	.LLST1
 1462 04b4 01       		.byte	0x1
 1463 04b5 F2040000 		.4byte	0x4f2
 1464 04b9 16       		.uleb128 0x16
 1465 04ba 1B020000 		.4byte	.LASF38
 1466 04be 01       		.byte	0x1
 1467 04bf 75       		.byte	0x75
 1468 04c0 A7000000 		.4byte	0xa7
 1469 04c4 02       		.byte	0x2
 1470 04c5 91       		.byte	0x91
 1471 04c6 6C       		.sleb128 -20
 1472 04c7 16       		.uleb128 0x16
 1473 04c8 A3010000 		.4byte	.LASF55
 1474 04cc 01       		.byte	0x1
 1475 04cd 75       		.byte	0x75
 1476 04ce 99040000 		.4byte	0x499
 1477 04d2 02       		.byte	0x2
 1478 04d3 91       		.byte	0x91
 1479 04d4 68       		.sleb128 -24
 1480 04d5 18       		.uleb128 0x18
 1481 04d6 00000000 		.4byte	.LASF57
 1482 04da 01       		.byte	0x1
 1483 04db 77       		.byte	0x77
 1484 04dc A7000000 		.4byte	0xa7
 1485 04e0 02       		.byte	0x2
 1486 04e1 91       		.byte	0x91
 1487 04e2 74       		.sleb128 -12
 1488 04e3 18       		.uleb128 0x18
 1489 04e4 45020000 		.4byte	.LASF58
ARM GAS  G:\Users\Jaxb\AppData\Local\Temp\cc4z3oeX.s 			page 35


 1490 04e8 01       		.byte	0x1
 1491 04e9 77       		.byte	0x77
 1492 04ea A7000000 		.4byte	0xa7
 1493 04ee 02       		.byte	0x2
 1494 04ef 91       		.byte	0x91
 1495 04f0 70       		.sleb128 -16
 1496 04f1 00       		.byte	0
 1497 04f2 19       		.uleb128 0x19
 1498 04f3 01       		.byte	0x1
 1499 04f4 27020000 		.4byte	.LASF63
 1500 04f8 01       		.byte	0x1
 1501 04f9 62       		.byte	0x62
 1502 04fa 01       		.byte	0x1
 1503 04fb 00000000 		.4byte	.LFB29
 1504 04ff 1C000000 		.4byte	.LFE29
 1505 0503 F4030000 		.4byte	.LLST0
 1506 0507 01       		.byte	0x1
 1507 0508 00       		.byte	0
 1508              		.section	.debug_abbrev,"",%progbits
 1509              	.Ldebug_abbrev0:
 1510 0000 01       		.uleb128 0x1
 1511 0001 11       		.uleb128 0x11
 1512 0002 01       		.byte	0x1
 1513 0003 25       		.uleb128 0x25
 1514 0004 0E       		.uleb128 0xe
 1515 0005 13       		.uleb128 0x13
 1516 0006 0B       		.uleb128 0xb
 1517 0007 03       		.uleb128 0x3
 1518 0008 0E       		.uleb128 0xe
 1519 0009 1B       		.uleb128 0x1b
 1520 000a 0E       		.uleb128 0xe
 1521 000b 11       		.uleb128 0x11
 1522 000c 01       		.uleb128 0x1
 1523 000d 12       		.uleb128 0x12
 1524 000e 01       		.uleb128 0x1
 1525 000f 10       		.uleb128 0x10
 1526 0010 06       		.uleb128 0x6
 1527 0011 00       		.byte	0
 1528 0012 00       		.byte	0
 1529 0013 02       		.uleb128 0x2
 1530 0014 24       		.uleb128 0x24
 1531 0015 00       		.byte	0
 1532 0016 0B       		.uleb128 0xb
 1533 0017 0B       		.uleb128 0xb
 1534 0018 3E       		.uleb128 0x3e
 1535 0019 0B       		.uleb128 0xb
 1536 001a 03       		.uleb128 0x3
 1537 001b 0E       		.uleb128 0xe
 1538 001c 00       		.byte	0
 1539 001d 00       		.byte	0
 1540 001e 03       		.uleb128 0x3
 1541 001f 16       		.uleb128 0x16
 1542 0020 00       		.byte	0
 1543 0021 03       		.uleb128 0x3
 1544 0022 0E       		.uleb128 0xe
 1545 0023 3A       		.uleb128 0x3a
 1546 0024 0B       		.uleb128 0xb
ARM GAS  G:\Users\Jaxb\AppData\Local\Temp\cc4z3oeX.s 			page 36


 1547 0025 3B       		.uleb128 0x3b
 1548 0026 0B       		.uleb128 0xb
 1549 0027 49       		.uleb128 0x49
 1550 0028 13       		.uleb128 0x13
 1551 0029 00       		.byte	0
 1552 002a 00       		.byte	0
 1553 002b 04       		.uleb128 0x4
 1554 002c 24       		.uleb128 0x24
 1555 002d 00       		.byte	0
 1556 002e 0B       		.uleb128 0xb
 1557 002f 0B       		.uleb128 0xb
 1558 0030 3E       		.uleb128 0x3e
 1559 0031 0B       		.uleb128 0xb
 1560 0032 03       		.uleb128 0x3
 1561 0033 08       		.uleb128 0x8
 1562 0034 00       		.byte	0
 1563 0035 00       		.byte	0
 1564 0036 05       		.uleb128 0x5
 1565 0037 35       		.uleb128 0x35
 1566 0038 00       		.byte	0
 1567 0039 49       		.uleb128 0x49
 1568 003a 13       		.uleb128 0x13
 1569 003b 00       		.byte	0
 1570 003c 00       		.byte	0
 1571 003d 06       		.uleb128 0x6
 1572 003e 34       		.uleb128 0x34
 1573 003f 00       		.byte	0
 1574 0040 03       		.uleb128 0x3
 1575 0041 0E       		.uleb128 0xe
 1576 0042 3A       		.uleb128 0x3a
 1577 0043 0B       		.uleb128 0xb
 1578 0044 3B       		.uleb128 0x3b
 1579 0045 05       		.uleb128 0x5
 1580 0046 49       		.uleb128 0x49
 1581 0047 13       		.uleb128 0x13
 1582 0048 3F       		.uleb128 0x3f
 1583 0049 0C       		.uleb128 0xc
 1584 004a 3C       		.uleb128 0x3c
 1585 004b 0C       		.uleb128 0xc
 1586 004c 00       		.byte	0
 1587 004d 00       		.byte	0
 1588 004e 07       		.uleb128 0x7
 1589 004f 34       		.uleb128 0x34
 1590 0050 00       		.byte	0
 1591 0051 03       		.uleb128 0x3
 1592 0052 0E       		.uleb128 0xe
 1593 0053 3A       		.uleb128 0x3a
 1594 0054 0B       		.uleb128 0xb
 1595 0055 3B       		.uleb128 0x3b
 1596 0056 0B       		.uleb128 0xb
 1597 0057 49       		.uleb128 0x49
 1598 0058 13       		.uleb128 0x13
 1599 0059 3F       		.uleb128 0x3f
 1600 005a 0C       		.uleb128 0xc
 1601 005b 3C       		.uleb128 0x3c
 1602 005c 0C       		.uleb128 0xc
 1603 005d 00       		.byte	0
ARM GAS  G:\Users\Jaxb\AppData\Local\Temp\cc4z3oeX.s 			page 37


 1604 005e 00       		.byte	0
 1605 005f 08       		.uleb128 0x8
 1606 0060 04       		.uleb128 0x4
 1607 0061 01       		.byte	0x1
 1608 0062 3E       		.uleb128 0x3e
 1609 0063 0B       		.uleb128 0xb
 1610 0064 0B       		.uleb128 0xb
 1611 0065 0B       		.uleb128 0xb
 1612 0066 49       		.uleb128 0x49
 1613 0067 13       		.uleb128 0x13
 1614 0068 3A       		.uleb128 0x3a
 1615 0069 0B       		.uleb128 0xb
 1616 006a 3B       		.uleb128 0x3b
 1617 006b 05       		.uleb128 0x5
 1618 006c 01       		.uleb128 0x1
 1619 006d 13       		.uleb128 0x13
 1620 006e 00       		.byte	0
 1621 006f 00       		.byte	0
 1622 0070 09       		.uleb128 0x9
 1623 0071 28       		.uleb128 0x28
 1624 0072 00       		.byte	0
 1625 0073 03       		.uleb128 0x3
 1626 0074 0E       		.uleb128 0xe
 1627 0075 1C       		.uleb128 0x1c
 1628 0076 0B       		.uleb128 0xb
 1629 0077 00       		.byte	0
 1630 0078 00       		.byte	0
 1631 0079 0A       		.uleb128 0xa
 1632 007a 16       		.uleb128 0x16
 1633 007b 00       		.byte	0
 1634 007c 03       		.uleb128 0x3
 1635 007d 0E       		.uleb128 0xe
 1636 007e 3A       		.uleb128 0x3a
 1637 007f 0B       		.uleb128 0xb
 1638 0080 3B       		.uleb128 0x3b
 1639 0081 05       		.uleb128 0x5
 1640 0082 49       		.uleb128 0x49
 1641 0083 13       		.uleb128 0x13
 1642 0084 00       		.byte	0
 1643 0085 00       		.byte	0
 1644 0086 0B       		.uleb128 0xb
 1645 0087 13       		.uleb128 0x13
 1646 0088 01       		.byte	0x1
 1647 0089 0B       		.uleb128 0xb
 1648 008a 0B       		.uleb128 0xb
 1649 008b 3A       		.uleb128 0x3a
 1650 008c 0B       		.uleb128 0xb
 1651 008d 3B       		.uleb128 0x3b
 1652 008e 05       		.uleb128 0x5
 1653 008f 01       		.uleb128 0x1
 1654 0090 13       		.uleb128 0x13
 1655 0091 00       		.byte	0
 1656 0092 00       		.byte	0
 1657 0093 0C       		.uleb128 0xc
 1658 0094 0D       		.uleb128 0xd
 1659 0095 00       		.byte	0
 1660 0096 03       		.uleb128 0x3
ARM GAS  G:\Users\Jaxb\AppData\Local\Temp\cc4z3oeX.s 			page 38


 1661 0097 08       		.uleb128 0x8
 1662 0098 3A       		.uleb128 0x3a
 1663 0099 0B       		.uleb128 0xb
 1664 009a 3B       		.uleb128 0x3b
 1665 009b 05       		.uleb128 0x5
 1666 009c 49       		.uleb128 0x49
 1667 009d 13       		.uleb128 0x13
 1668 009e 38       		.uleb128 0x38
 1669 009f 0A       		.uleb128 0xa
 1670 00a0 00       		.byte	0
 1671 00a1 00       		.byte	0
 1672 00a2 0D       		.uleb128 0xd
 1673 00a3 0D       		.uleb128 0xd
 1674 00a4 00       		.byte	0
 1675 00a5 03       		.uleb128 0x3
 1676 00a6 0E       		.uleb128 0xe
 1677 00a7 3A       		.uleb128 0x3a
 1678 00a8 0B       		.uleb128 0xb
 1679 00a9 3B       		.uleb128 0x3b
 1680 00aa 05       		.uleb128 0x5
 1681 00ab 49       		.uleb128 0x49
 1682 00ac 13       		.uleb128 0x13
 1683 00ad 38       		.uleb128 0x38
 1684 00ae 0A       		.uleb128 0xa
 1685 00af 00       		.byte	0
 1686 00b0 00       		.byte	0
 1687 00b1 0E       		.uleb128 0xe
 1688 00b2 13       		.uleb128 0x13
 1689 00b3 01       		.byte	0x1
 1690 00b4 0B       		.uleb128 0xb
 1691 00b5 0B       		.uleb128 0xb
 1692 00b6 3A       		.uleb128 0x3a
 1693 00b7 0B       		.uleb128 0xb
 1694 00b8 3B       		.uleb128 0x3b
 1695 00b9 0B       		.uleb128 0xb
 1696 00ba 01       		.uleb128 0x1
 1697 00bb 13       		.uleb128 0x13
 1698 00bc 00       		.byte	0
 1699 00bd 00       		.byte	0
 1700 00be 0F       		.uleb128 0xf
 1701 00bf 0D       		.uleb128 0xd
 1702 00c0 00       		.byte	0
 1703 00c1 03       		.uleb128 0x3
 1704 00c2 0E       		.uleb128 0xe
 1705 00c3 3A       		.uleb128 0x3a
 1706 00c4 0B       		.uleb128 0xb
 1707 00c5 3B       		.uleb128 0x3b
 1708 00c6 0B       		.uleb128 0xb
 1709 00c7 49       		.uleb128 0x49
 1710 00c8 13       		.uleb128 0x13
 1711 00c9 38       		.uleb128 0x38
 1712 00ca 0A       		.uleb128 0xa
 1713 00cb 00       		.byte	0
 1714 00cc 00       		.byte	0
 1715 00cd 10       		.uleb128 0x10
 1716 00ce 2E       		.uleb128 0x2e
 1717 00cf 01       		.byte	0x1
ARM GAS  G:\Users\Jaxb\AppData\Local\Temp\cc4z3oeX.s 			page 39


 1718 00d0 3F       		.uleb128 0x3f
 1719 00d1 0C       		.uleb128 0xc
 1720 00d2 03       		.uleb128 0x3
 1721 00d3 0E       		.uleb128 0xe
 1722 00d4 3A       		.uleb128 0x3a
 1723 00d5 0B       		.uleb128 0xb
 1724 00d6 3B       		.uleb128 0x3b
 1725 00d7 05       		.uleb128 0x5
 1726 00d8 27       		.uleb128 0x27
 1727 00d9 0C       		.uleb128 0xc
 1728 00da 49       		.uleb128 0x49
 1729 00db 13       		.uleb128 0x13
 1730 00dc 11       		.uleb128 0x11
 1731 00dd 01       		.uleb128 0x1
 1732 00de 12       		.uleb128 0x12
 1733 00df 01       		.uleb128 0x1
 1734 00e0 40       		.uleb128 0x40
 1735 00e1 06       		.uleb128 0x6
 1736 00e2 9742     		.uleb128 0x2117
 1737 00e4 0C       		.uleb128 0xc
 1738 00e5 01       		.uleb128 0x1
 1739 00e6 13       		.uleb128 0x13
 1740 00e7 00       		.byte	0
 1741 00e8 00       		.byte	0
 1742 00e9 11       		.uleb128 0x11
 1743 00ea 05       		.uleb128 0x5
 1744 00eb 00       		.byte	0
 1745 00ec 03       		.uleb128 0x3
 1746 00ed 0E       		.uleb128 0xe
 1747 00ee 3A       		.uleb128 0x3a
 1748 00ef 0B       		.uleb128 0xb
 1749 00f0 3B       		.uleb128 0x3b
 1750 00f1 05       		.uleb128 0x5
 1751 00f2 49       		.uleb128 0x49
 1752 00f3 13       		.uleb128 0x13
 1753 00f4 02       		.uleb128 0x2
 1754 00f5 0A       		.uleb128 0xa
 1755 00f6 00       		.byte	0
 1756 00f7 00       		.byte	0
 1757 00f8 12       		.uleb128 0x12
 1758 00f9 34       		.uleb128 0x34
 1759 00fa 00       		.byte	0
 1760 00fb 03       		.uleb128 0x3
 1761 00fc 08       		.uleb128 0x8
 1762 00fd 3A       		.uleb128 0x3a
 1763 00fe 0B       		.uleb128 0xb
 1764 00ff 3B       		.uleb128 0x3b
 1765 0100 05       		.uleb128 0x5
 1766 0101 49       		.uleb128 0x49
 1767 0102 13       		.uleb128 0x13
 1768 0103 02       		.uleb128 0x2
 1769 0104 0A       		.uleb128 0xa
 1770 0105 00       		.byte	0
 1771 0106 00       		.byte	0
 1772 0107 13       		.uleb128 0x13
 1773 0108 2E       		.uleb128 0x2e
 1774 0109 01       		.byte	0x1
ARM GAS  G:\Users\Jaxb\AppData\Local\Temp\cc4z3oeX.s 			page 40


 1775 010a 3F       		.uleb128 0x3f
 1776 010b 0C       		.uleb128 0xc
 1777 010c 03       		.uleb128 0x3
 1778 010d 0E       		.uleb128 0xe
 1779 010e 3A       		.uleb128 0x3a
 1780 010f 0B       		.uleb128 0xb
 1781 0110 3B       		.uleb128 0x3b
 1782 0111 05       		.uleb128 0x5
 1783 0112 27       		.uleb128 0x27
 1784 0113 0C       		.uleb128 0xc
 1785 0114 11       		.uleb128 0x11
 1786 0115 01       		.uleb128 0x1
 1787 0116 12       		.uleb128 0x12
 1788 0117 01       		.uleb128 0x1
 1789 0118 40       		.uleb128 0x40
 1790 0119 06       		.uleb128 0x6
 1791 011a 9742     		.uleb128 0x2117
 1792 011c 0C       		.uleb128 0xc
 1793 011d 01       		.uleb128 0x1
 1794 011e 13       		.uleb128 0x13
 1795 011f 00       		.byte	0
 1796 0120 00       		.byte	0
 1797 0121 14       		.uleb128 0x14
 1798 0122 34       		.uleb128 0x34
 1799 0123 00       		.byte	0
 1800 0124 03       		.uleb128 0x3
 1801 0125 0E       		.uleb128 0xe
 1802 0126 3A       		.uleb128 0x3a
 1803 0127 0B       		.uleb128 0xb
 1804 0128 3B       		.uleb128 0x3b
 1805 0129 05       		.uleb128 0x5
 1806 012a 49       		.uleb128 0x49
 1807 012b 13       		.uleb128 0x13
 1808 012c 02       		.uleb128 0x2
 1809 012d 0A       		.uleb128 0xa
 1810 012e 00       		.byte	0
 1811 012f 00       		.byte	0
 1812 0130 15       		.uleb128 0x15
 1813 0131 2E       		.uleb128 0x2e
 1814 0132 01       		.byte	0x1
 1815 0133 3F       		.uleb128 0x3f
 1816 0134 0C       		.uleb128 0xc
 1817 0135 03       		.uleb128 0x3
 1818 0136 0E       		.uleb128 0xe
 1819 0137 3A       		.uleb128 0x3a
 1820 0138 0B       		.uleb128 0xb
 1821 0139 3B       		.uleb128 0x3b
 1822 013a 0B       		.uleb128 0xb
 1823 013b 27       		.uleb128 0x27
 1824 013c 0C       		.uleb128 0xc
 1825 013d 11       		.uleb128 0x11
 1826 013e 01       		.uleb128 0x1
 1827 013f 12       		.uleb128 0x12
 1828 0140 01       		.uleb128 0x1
 1829 0141 40       		.uleb128 0x40
 1830 0142 06       		.uleb128 0x6
 1831 0143 9742     		.uleb128 0x2117
ARM GAS  G:\Users\Jaxb\AppData\Local\Temp\cc4z3oeX.s 			page 41


 1832 0145 0C       		.uleb128 0xc
 1833 0146 01       		.uleb128 0x1
 1834 0147 13       		.uleb128 0x13
 1835 0148 00       		.byte	0
 1836 0149 00       		.byte	0
 1837 014a 16       		.uleb128 0x16
 1838 014b 05       		.uleb128 0x5
 1839 014c 00       		.byte	0
 1840 014d 03       		.uleb128 0x3
 1841 014e 0E       		.uleb128 0xe
 1842 014f 3A       		.uleb128 0x3a
 1843 0150 0B       		.uleb128 0xb
 1844 0151 3B       		.uleb128 0x3b
 1845 0152 0B       		.uleb128 0xb
 1846 0153 49       		.uleb128 0x49
 1847 0154 13       		.uleb128 0x13
 1848 0155 02       		.uleb128 0x2
 1849 0156 0A       		.uleb128 0xa
 1850 0157 00       		.byte	0
 1851 0158 00       		.byte	0
 1852 0159 17       		.uleb128 0x17
 1853 015a 0F       		.uleb128 0xf
 1854 015b 00       		.byte	0
 1855 015c 0B       		.uleb128 0xb
 1856 015d 0B       		.uleb128 0xb
 1857 015e 49       		.uleb128 0x49
 1858 015f 13       		.uleb128 0x13
 1859 0160 00       		.byte	0
 1860 0161 00       		.byte	0
 1861 0162 18       		.uleb128 0x18
 1862 0163 34       		.uleb128 0x34
 1863 0164 00       		.byte	0
 1864 0165 03       		.uleb128 0x3
 1865 0166 0E       		.uleb128 0xe
 1866 0167 3A       		.uleb128 0x3a
 1867 0168 0B       		.uleb128 0xb
 1868 0169 3B       		.uleb128 0x3b
 1869 016a 0B       		.uleb128 0xb
 1870 016b 49       		.uleb128 0x49
 1871 016c 13       		.uleb128 0x13
 1872 016d 02       		.uleb128 0x2
 1873 016e 0A       		.uleb128 0xa
 1874 016f 00       		.byte	0
 1875 0170 00       		.byte	0
 1876 0171 19       		.uleb128 0x19
 1877 0172 2E       		.uleb128 0x2e
 1878 0173 00       		.byte	0
 1879 0174 3F       		.uleb128 0x3f
 1880 0175 0C       		.uleb128 0xc
 1881 0176 03       		.uleb128 0x3
 1882 0177 0E       		.uleb128 0xe
 1883 0178 3A       		.uleb128 0x3a
 1884 0179 0B       		.uleb128 0xb
 1885 017a 3B       		.uleb128 0x3b
 1886 017b 0B       		.uleb128 0xb
 1887 017c 27       		.uleb128 0x27
 1888 017d 0C       		.uleb128 0xc
ARM GAS  G:\Users\Jaxb\AppData\Local\Temp\cc4z3oeX.s 			page 42


 1889 017e 11       		.uleb128 0x11
 1890 017f 01       		.uleb128 0x1
 1891 0180 12       		.uleb128 0x12
 1892 0181 01       		.uleb128 0x1
 1893 0182 40       		.uleb128 0x40
 1894 0183 06       		.uleb128 0x6
 1895 0184 9642     		.uleb128 0x2116
 1896 0186 0C       		.uleb128 0xc
 1897 0187 00       		.byte	0
 1898 0188 00       		.byte	0
 1899 0189 00       		.byte	0
 1900              		.section	.debug_loc,"",%progbits
 1901              	.Ldebug_loc0:
 1902              	.LLST11:
 1903 0000 D0020000 		.4byte	.LFB40-.Ltext0
 1904 0004 D2020000 		.4byte	.LCFI62-.Ltext0
 1905 0008 0200     		.2byte	0x2
 1906 000a 7D       		.byte	0x7d
 1907 000b 00       		.sleb128 0
 1908 000c D2020000 		.4byte	.LCFI62-.Ltext0
 1909 0010 D4020000 		.4byte	.LCFI63-.Ltext0
 1910 0014 0200     		.2byte	0x2
 1911 0016 7D       		.byte	0x7d
 1912 0017 04       		.sleb128 4
 1913 0018 D4020000 		.4byte	.LCFI63-.Ltext0
 1914 001c D6020000 		.4byte	.LCFI64-.Ltext0
 1915 0020 0200     		.2byte	0x2
 1916 0022 7D       		.byte	0x7d
 1917 0023 18       		.sleb128 24
 1918 0024 D6020000 		.4byte	.LCFI64-.Ltext0
 1919 0028 F6020000 		.4byte	.LCFI65-.Ltext0
 1920 002c 0200     		.2byte	0x2
 1921 002e 77       		.byte	0x77
 1922 002f 18       		.sleb128 24
 1923 0030 F6020000 		.4byte	.LCFI65-.Ltext0
 1924 0034 F8020000 		.4byte	.LCFI66-.Ltext0
 1925 0038 0200     		.2byte	0x2
 1926 003a 77       		.byte	0x77
 1927 003b 04       		.sleb128 4
 1928 003c F8020000 		.4byte	.LCFI66-.Ltext0
 1929 0040 FA020000 		.4byte	.LCFI67-.Ltext0
 1930 0044 0200     		.2byte	0x2
 1931 0046 7D       		.byte	0x7d
 1932 0047 04       		.sleb128 4
 1933 0048 FA020000 		.4byte	.LCFI67-.Ltext0
 1934 004c 00030000 		.4byte	.LFE40-.Ltext0
 1935 0050 0200     		.2byte	0x2
 1936 0052 7D       		.byte	0x7d
 1937 0053 00       		.sleb128 0
 1938 0054 00000000 		.4byte	0
 1939 0058 00000000 		.4byte	0
 1940              	.LLST10:
 1941 005c 78020000 		.4byte	.LFB39-.Ltext0
 1942 0060 7A020000 		.4byte	.LCFI56-.Ltext0
 1943 0064 0200     		.2byte	0x2
 1944 0066 7D       		.byte	0x7d
 1945 0067 00       		.sleb128 0
ARM GAS  G:\Users\Jaxb\AppData\Local\Temp\cc4z3oeX.s 			page 43


 1946 0068 7A020000 		.4byte	.LCFI56-.Ltext0
 1947 006c 7C020000 		.4byte	.LCFI57-.Ltext0
 1948 0070 0200     		.2byte	0x2
 1949 0072 7D       		.byte	0x7d
 1950 0073 04       		.sleb128 4
 1951 0074 7C020000 		.4byte	.LCFI57-.Ltext0
 1952 0078 7E020000 		.4byte	.LCFI58-.Ltext0
 1953 007c 0200     		.2byte	0x2
 1954 007e 7D       		.byte	0x7d
 1955 007f 18       		.sleb128 24
 1956 0080 7E020000 		.4byte	.LCFI58-.Ltext0
 1957 0084 C4020000 		.4byte	.LCFI59-.Ltext0
 1958 0088 0200     		.2byte	0x2
 1959 008a 77       		.byte	0x77
 1960 008b 18       		.sleb128 24
 1961 008c C4020000 		.4byte	.LCFI59-.Ltext0
 1962 0090 C6020000 		.4byte	.LCFI60-.Ltext0
 1963 0094 0200     		.2byte	0x2
 1964 0096 77       		.byte	0x77
 1965 0097 04       		.sleb128 4
 1966 0098 C6020000 		.4byte	.LCFI60-.Ltext0
 1967 009c C8020000 		.4byte	.LCFI61-.Ltext0
 1968 00a0 0200     		.2byte	0x2
 1969 00a2 7D       		.byte	0x7d
 1970 00a3 04       		.sleb128 4
 1971 00a4 C8020000 		.4byte	.LCFI61-.Ltext0
 1972 00a8 D0020000 		.4byte	.LFE39-.Ltext0
 1973 00ac 0200     		.2byte	0x2
 1974 00ae 7D       		.byte	0x7d
 1975 00af 00       		.sleb128 0
 1976 00b0 00000000 		.4byte	0
 1977 00b4 00000000 		.4byte	0
 1978              	.LLST9:
 1979 00b8 44020000 		.4byte	.LFB38-.Ltext0
 1980 00bc 46020000 		.4byte	.LCFI50-.Ltext0
 1981 00c0 0200     		.2byte	0x2
 1982 00c2 7D       		.byte	0x7d
 1983 00c3 00       		.sleb128 0
 1984 00c4 46020000 		.4byte	.LCFI50-.Ltext0
 1985 00c8 48020000 		.4byte	.LCFI51-.Ltext0
 1986 00cc 0200     		.2byte	0x2
 1987 00ce 7D       		.byte	0x7d
 1988 00cf 04       		.sleb128 4
 1989 00d0 48020000 		.4byte	.LCFI51-.Ltext0
 1990 00d4 4A020000 		.4byte	.LCFI52-.Ltext0
 1991 00d8 0200     		.2byte	0x2
 1992 00da 7D       		.byte	0x7d
 1993 00db 18       		.sleb128 24
 1994 00dc 4A020000 		.4byte	.LCFI52-.Ltext0
 1995 00e0 6E020000 		.4byte	.LCFI53-.Ltext0
 1996 00e4 0200     		.2byte	0x2
 1997 00e6 77       		.byte	0x77
 1998 00e7 18       		.sleb128 24
 1999 00e8 6E020000 		.4byte	.LCFI53-.Ltext0
 2000 00ec 70020000 		.4byte	.LCFI54-.Ltext0
 2001 00f0 0200     		.2byte	0x2
 2002 00f2 77       		.byte	0x77
ARM GAS  G:\Users\Jaxb\AppData\Local\Temp\cc4z3oeX.s 			page 44


 2003 00f3 04       		.sleb128 4
 2004 00f4 70020000 		.4byte	.LCFI54-.Ltext0
 2005 00f8 72020000 		.4byte	.LCFI55-.Ltext0
 2006 00fc 0200     		.2byte	0x2
 2007 00fe 7D       		.byte	0x7d
 2008 00ff 04       		.sleb128 4
 2009 0100 72020000 		.4byte	.LCFI55-.Ltext0
 2010 0104 78020000 		.4byte	.LFE38-.Ltext0
 2011 0108 0200     		.2byte	0x2
 2012 010a 7D       		.byte	0x7d
 2013 010b 00       		.sleb128 0
 2014 010c 00000000 		.4byte	0
 2015 0110 00000000 		.4byte	0
 2016              	.LLST8:
 2017 0114 10020000 		.4byte	.LFB37-.Ltext0
 2018 0118 12020000 		.4byte	.LCFI44-.Ltext0
 2019 011c 0200     		.2byte	0x2
 2020 011e 7D       		.byte	0x7d
 2021 011f 00       		.sleb128 0
 2022 0120 12020000 		.4byte	.LCFI44-.Ltext0
 2023 0124 14020000 		.4byte	.LCFI45-.Ltext0
 2024 0128 0200     		.2byte	0x2
 2025 012a 7D       		.byte	0x7d
 2026 012b 04       		.sleb128 4
 2027 012c 14020000 		.4byte	.LCFI45-.Ltext0
 2028 0130 16020000 		.4byte	.LCFI46-.Ltext0
 2029 0134 0200     		.2byte	0x2
 2030 0136 7D       		.byte	0x7d
 2031 0137 18       		.sleb128 24
 2032 0138 16020000 		.4byte	.LCFI46-.Ltext0
 2033 013c 3A020000 		.4byte	.LCFI47-.Ltext0
 2034 0140 0200     		.2byte	0x2
 2035 0142 77       		.byte	0x77
 2036 0143 18       		.sleb128 24
 2037 0144 3A020000 		.4byte	.LCFI47-.Ltext0
 2038 0148 3C020000 		.4byte	.LCFI48-.Ltext0
 2039 014c 0200     		.2byte	0x2
 2040 014e 77       		.byte	0x77
 2041 014f 04       		.sleb128 4
 2042 0150 3C020000 		.4byte	.LCFI48-.Ltext0
 2043 0154 3E020000 		.4byte	.LCFI49-.Ltext0
 2044 0158 0200     		.2byte	0x2
 2045 015a 7D       		.byte	0x7d
 2046 015b 04       		.sleb128 4
 2047 015c 3E020000 		.4byte	.LCFI49-.Ltext0
 2048 0160 44020000 		.4byte	.LFE37-.Ltext0
 2049 0164 0200     		.2byte	0x2
 2050 0166 7D       		.byte	0x7d
 2051 0167 00       		.sleb128 0
 2052 0168 00000000 		.4byte	0
 2053 016c 00000000 		.4byte	0
 2054              	.LLST7:
 2055 0170 C4010000 		.4byte	.LFB36-.Ltext0
 2056 0174 C6010000 		.4byte	.LCFI38-.Ltext0
 2057 0178 0200     		.2byte	0x2
 2058 017a 7D       		.byte	0x7d
 2059 017b 00       		.sleb128 0
ARM GAS  G:\Users\Jaxb\AppData\Local\Temp\cc4z3oeX.s 			page 45


 2060 017c C6010000 		.4byte	.LCFI38-.Ltext0
 2061 0180 C8010000 		.4byte	.LCFI39-.Ltext0
 2062 0184 0200     		.2byte	0x2
 2063 0186 7D       		.byte	0x7d
 2064 0187 04       		.sleb128 4
 2065 0188 C8010000 		.4byte	.LCFI39-.Ltext0
 2066 018c CA010000 		.4byte	.LCFI40-.Ltext0
 2067 0190 0200     		.2byte	0x2
 2068 0192 7D       		.byte	0x7d
 2069 0193 18       		.sleb128 24
 2070 0194 CA010000 		.4byte	.LCFI40-.Ltext0
 2071 0198 04020000 		.4byte	.LCFI41-.Ltext0
 2072 019c 0200     		.2byte	0x2
 2073 019e 77       		.byte	0x77
 2074 019f 18       		.sleb128 24
 2075 01a0 04020000 		.4byte	.LCFI41-.Ltext0
 2076 01a4 06020000 		.4byte	.LCFI42-.Ltext0
 2077 01a8 0200     		.2byte	0x2
 2078 01aa 77       		.byte	0x77
 2079 01ab 04       		.sleb128 4
 2080 01ac 06020000 		.4byte	.LCFI42-.Ltext0
 2081 01b0 08020000 		.4byte	.LCFI43-.Ltext0
 2082 01b4 0200     		.2byte	0x2
 2083 01b6 7D       		.byte	0x7d
 2084 01b7 04       		.sleb128 4
 2085 01b8 08020000 		.4byte	.LCFI43-.Ltext0
 2086 01bc 10020000 		.4byte	.LFE36-.Ltext0
 2087 01c0 0200     		.2byte	0x2
 2088 01c2 7D       		.byte	0x7d
 2089 01c3 00       		.sleb128 0
 2090 01c4 00000000 		.4byte	0
 2091 01c8 00000000 		.4byte	0
 2092              	.LLST6:
 2093 01cc 8C010000 		.4byte	.LFB35-.Ltext0
 2094 01d0 8E010000 		.4byte	.LCFI32-.Ltext0
 2095 01d4 0200     		.2byte	0x2
 2096 01d6 7D       		.byte	0x7d
 2097 01d7 00       		.sleb128 0
 2098 01d8 8E010000 		.4byte	.LCFI32-.Ltext0
 2099 01dc 90010000 		.4byte	.LCFI33-.Ltext0
 2100 01e0 0200     		.2byte	0x2
 2101 01e2 7D       		.byte	0x7d
 2102 01e3 04       		.sleb128 4
 2103 01e4 90010000 		.4byte	.LCFI33-.Ltext0
 2104 01e8 92010000 		.4byte	.LCFI34-.Ltext0
 2105 01ec 0200     		.2byte	0x2
 2106 01ee 7D       		.byte	0x7d
 2107 01ef 10       		.sleb128 16
 2108 01f0 92010000 		.4byte	.LCFI34-.Ltext0
 2109 01f4 BA010000 		.4byte	.LCFI35-.Ltext0
 2110 01f8 0200     		.2byte	0x2
 2111 01fa 77       		.byte	0x77
 2112 01fb 10       		.sleb128 16
 2113 01fc BA010000 		.4byte	.LCFI35-.Ltext0
 2114 0200 BC010000 		.4byte	.LCFI36-.Ltext0
 2115 0204 0200     		.2byte	0x2
 2116 0206 77       		.byte	0x77
ARM GAS  G:\Users\Jaxb\AppData\Local\Temp\cc4z3oeX.s 			page 46


 2117 0207 04       		.sleb128 4
 2118 0208 BC010000 		.4byte	.LCFI36-.Ltext0
 2119 020c BE010000 		.4byte	.LCFI37-.Ltext0
 2120 0210 0200     		.2byte	0x2
 2121 0212 7D       		.byte	0x7d
 2122 0213 04       		.sleb128 4
 2123 0214 BE010000 		.4byte	.LCFI37-.Ltext0
 2124 0218 C4010000 		.4byte	.LFE35-.Ltext0
 2125 021c 0200     		.2byte	0x2
 2126 021e 7D       		.byte	0x7d
 2127 021f 00       		.sleb128 0
 2128 0220 00000000 		.4byte	0
 2129 0224 00000000 		.4byte	0
 2130              	.LLST5:
 2131 0228 40010000 		.4byte	.LFB34-.Ltext0
 2132 022c 42010000 		.4byte	.LCFI26-.Ltext0
 2133 0230 0200     		.2byte	0x2
 2134 0232 7D       		.byte	0x7d
 2135 0233 00       		.sleb128 0
 2136 0234 42010000 		.4byte	.LCFI26-.Ltext0
 2137 0238 44010000 		.4byte	.LCFI27-.Ltext0
 2138 023c 0200     		.2byte	0x2
 2139 023e 7D       		.byte	0x7d
 2140 023f 04       		.sleb128 4
 2141 0240 44010000 		.4byte	.LCFI27-.Ltext0
 2142 0244 46010000 		.4byte	.LCFI28-.Ltext0
 2143 0248 0200     		.2byte	0x2
 2144 024a 7D       		.byte	0x7d
 2145 024b 10       		.sleb128 16
 2146 024c 46010000 		.4byte	.LCFI28-.Ltext0
 2147 0250 82010000 		.4byte	.LCFI29-.Ltext0
 2148 0254 0200     		.2byte	0x2
 2149 0256 77       		.byte	0x77
 2150 0257 10       		.sleb128 16
 2151 0258 82010000 		.4byte	.LCFI29-.Ltext0
 2152 025c 84010000 		.4byte	.LCFI30-.Ltext0
 2153 0260 0200     		.2byte	0x2
 2154 0262 77       		.byte	0x77
 2155 0263 04       		.sleb128 4
 2156 0264 84010000 		.4byte	.LCFI30-.Ltext0
 2157 0268 86010000 		.4byte	.LCFI31-.Ltext0
 2158 026c 0200     		.2byte	0x2
 2159 026e 7D       		.byte	0x7d
 2160 026f 04       		.sleb128 4
 2161 0270 86010000 		.4byte	.LCFI31-.Ltext0
 2162 0274 8C010000 		.4byte	.LFE34-.Ltext0
 2163 0278 0200     		.2byte	0x2
 2164 027a 7D       		.byte	0x7d
 2165 027b 00       		.sleb128 0
 2166 027c 00000000 		.4byte	0
 2167 0280 00000000 		.4byte	0
 2168              	.LLST4:
 2169 0284 F4000000 		.4byte	.LFB33-.Ltext0
 2170 0288 F6000000 		.4byte	.LCFI20-.Ltext0
 2171 028c 0200     		.2byte	0x2
 2172 028e 7D       		.byte	0x7d
 2173 028f 00       		.sleb128 0
ARM GAS  G:\Users\Jaxb\AppData\Local\Temp\cc4z3oeX.s 			page 47


 2174 0290 F6000000 		.4byte	.LCFI20-.Ltext0
 2175 0294 F8000000 		.4byte	.LCFI21-.Ltext0
 2176 0298 0200     		.2byte	0x2
 2177 029a 7D       		.byte	0x7d
 2178 029b 04       		.sleb128 4
 2179 029c F8000000 		.4byte	.LCFI21-.Ltext0
 2180 02a0 FA000000 		.4byte	.LCFI22-.Ltext0
 2181 02a4 0200     		.2byte	0x2
 2182 02a6 7D       		.byte	0x7d
 2183 02a7 10       		.sleb128 16
 2184 02a8 FA000000 		.4byte	.LCFI22-.Ltext0
 2185 02ac 36010000 		.4byte	.LCFI23-.Ltext0
 2186 02b0 0200     		.2byte	0x2
 2187 02b2 77       		.byte	0x77
 2188 02b3 10       		.sleb128 16
 2189 02b4 36010000 		.4byte	.LCFI23-.Ltext0
 2190 02b8 38010000 		.4byte	.LCFI24-.Ltext0
 2191 02bc 0200     		.2byte	0x2
 2192 02be 77       		.byte	0x77
 2193 02bf 04       		.sleb128 4
 2194 02c0 38010000 		.4byte	.LCFI24-.Ltext0
 2195 02c4 3A010000 		.4byte	.LCFI25-.Ltext0
 2196 02c8 0200     		.2byte	0x2
 2197 02ca 7D       		.byte	0x7d
 2198 02cb 04       		.sleb128 4
 2199 02cc 3A010000 		.4byte	.LCFI25-.Ltext0
 2200 02d0 40010000 		.4byte	.LFE33-.Ltext0
 2201 02d4 0200     		.2byte	0x2
 2202 02d6 7D       		.byte	0x7d
 2203 02d7 00       		.sleb128 0
 2204 02d8 00000000 		.4byte	0
 2205 02dc 00000000 		.4byte	0
 2206              	.LLST3:
 2207 02e0 AA000000 		.4byte	.LFB32-.Ltext0
 2208 02e4 AC000000 		.4byte	.LCFI14-.Ltext0
 2209 02e8 0200     		.2byte	0x2
 2210 02ea 7D       		.byte	0x7d
 2211 02eb 00       		.sleb128 0
 2212 02ec AC000000 		.4byte	.LCFI14-.Ltext0
 2213 02f0 AE000000 		.4byte	.LCFI15-.Ltext0
 2214 02f4 0200     		.2byte	0x2
 2215 02f6 7D       		.byte	0x7d
 2216 02f7 04       		.sleb128 4
 2217 02f8 AE000000 		.4byte	.LCFI15-.Ltext0
 2218 02fc B0000000 		.4byte	.LCFI16-.Ltext0
 2219 0300 0200     		.2byte	0x2
 2220 0302 7D       		.byte	0x7d
 2221 0303 10       		.sleb128 16
 2222 0304 B0000000 		.4byte	.LCFI16-.Ltext0
 2223 0308 E8000000 		.4byte	.LCFI17-.Ltext0
 2224 030c 0200     		.2byte	0x2
 2225 030e 77       		.byte	0x77
 2226 030f 10       		.sleb128 16
 2227 0310 E8000000 		.4byte	.LCFI17-.Ltext0
 2228 0314 EA000000 		.4byte	.LCFI18-.Ltext0
 2229 0318 0200     		.2byte	0x2
 2230 031a 77       		.byte	0x77
ARM GAS  G:\Users\Jaxb\AppData\Local\Temp\cc4z3oeX.s 			page 48


 2231 031b 04       		.sleb128 4
 2232 031c EA000000 		.4byte	.LCFI18-.Ltext0
 2233 0320 EC000000 		.4byte	.LCFI19-.Ltext0
 2234 0324 0200     		.2byte	0x2
 2235 0326 7D       		.byte	0x7d
 2236 0327 04       		.sleb128 4
 2237 0328 EC000000 		.4byte	.LCFI19-.Ltext0
 2238 032c F4000000 		.4byte	.LFE32-.Ltext0
 2239 0330 0200     		.2byte	0x2
 2240 0332 7D       		.byte	0x7d
 2241 0333 00       		.sleb128 0
 2242 0334 00000000 		.4byte	0
 2243 0338 00000000 		.4byte	0
 2244              	.LLST2:
 2245 033c 80000000 		.4byte	.LFB31-.Ltext0
 2246 0340 82000000 		.4byte	.LCFI8-.Ltext0
 2247 0344 0200     		.2byte	0x2
 2248 0346 7D       		.byte	0x7d
 2249 0347 00       		.sleb128 0
 2250 0348 82000000 		.4byte	.LCFI8-.Ltext0
 2251 034c 84000000 		.4byte	.LCFI9-.Ltext0
 2252 0350 0200     		.2byte	0x2
 2253 0352 7D       		.byte	0x7d
 2254 0353 04       		.sleb128 4
 2255 0354 84000000 		.4byte	.LCFI9-.Ltext0
 2256 0358 86000000 		.4byte	.LCFI10-.Ltext0
 2257 035c 0200     		.2byte	0x2
 2258 035e 7D       		.byte	0x7d
 2259 035f 10       		.sleb128 16
 2260 0360 86000000 		.4byte	.LCFI10-.Ltext0
 2261 0364 A4000000 		.4byte	.LCFI11-.Ltext0
 2262 0368 0200     		.2byte	0x2
 2263 036a 77       		.byte	0x77
 2264 036b 10       		.sleb128 16
 2265 036c A4000000 		.4byte	.LCFI11-.Ltext0
 2266 0370 A6000000 		.4byte	.LCFI12-.Ltext0
 2267 0374 0200     		.2byte	0x2
 2268 0376 77       		.byte	0x77
 2269 0377 04       		.sleb128 4
 2270 0378 A6000000 		.4byte	.LCFI12-.Ltext0
 2271 037c A8000000 		.4byte	.LCFI13-.Ltext0
 2272 0380 0200     		.2byte	0x2
 2273 0382 7D       		.byte	0x7d
 2274 0383 04       		.sleb128 4
 2275 0384 A8000000 		.4byte	.LCFI13-.Ltext0
 2276 0388 AA000000 		.4byte	.LFE31-.Ltext0
 2277 038c 0200     		.2byte	0x2
 2278 038e 7D       		.byte	0x7d
 2279 038f 00       		.sleb128 0
 2280 0390 00000000 		.4byte	0
 2281 0394 00000000 		.4byte	0
 2282              	.LLST1:
 2283 0398 1C000000 		.4byte	.LFB30-.Ltext0
 2284 039c 1E000000 		.4byte	.LCFI2-.Ltext0
 2285 03a0 0200     		.2byte	0x2
 2286 03a2 7D       		.byte	0x7d
 2287 03a3 00       		.sleb128 0
ARM GAS  G:\Users\Jaxb\AppData\Local\Temp\cc4z3oeX.s 			page 49


 2288 03a4 1E000000 		.4byte	.LCFI2-.Ltext0
 2289 03a8 20000000 		.4byte	.LCFI3-.Ltext0
 2290 03ac 0200     		.2byte	0x2
 2291 03ae 7D       		.byte	0x7d
 2292 03af 04       		.sleb128 4
 2293 03b0 20000000 		.4byte	.LCFI3-.Ltext0
 2294 03b4 22000000 		.4byte	.LCFI4-.Ltext0
 2295 03b8 0200     		.2byte	0x2
 2296 03ba 7D       		.byte	0x7d
 2297 03bb 18       		.sleb128 24
 2298 03bc 22000000 		.4byte	.LCFI4-.Ltext0
 2299 03c0 76000000 		.4byte	.LCFI5-.Ltext0
 2300 03c4 0200     		.2byte	0x2
 2301 03c6 77       		.byte	0x77
 2302 03c7 18       		.sleb128 24
 2303 03c8 76000000 		.4byte	.LCFI5-.Ltext0
 2304 03cc 78000000 		.4byte	.LCFI6-.Ltext0
 2305 03d0 0200     		.2byte	0x2
 2306 03d2 77       		.byte	0x77
 2307 03d3 04       		.sleb128 4
 2308 03d4 78000000 		.4byte	.LCFI6-.Ltext0
 2309 03d8 7A000000 		.4byte	.LCFI7-.Ltext0
 2310 03dc 0200     		.2byte	0x2
 2311 03de 7D       		.byte	0x7d
 2312 03df 04       		.sleb128 4
 2313 03e0 7A000000 		.4byte	.LCFI7-.Ltext0
 2314 03e4 80000000 		.4byte	.LFE30-.Ltext0
 2315 03e8 0200     		.2byte	0x2
 2316 03ea 7D       		.byte	0x7d
 2317 03eb 00       		.sleb128 0
 2318 03ec 00000000 		.4byte	0
 2319 03f0 00000000 		.4byte	0
 2320              	.LLST0:
 2321 03f4 00000000 		.4byte	.LFB29-.Ltext0
 2322 03f8 02000000 		.4byte	.LCFI0-.Ltext0
 2323 03fc 0200     		.2byte	0x2
 2324 03fe 7D       		.byte	0x7d
 2325 03ff 00       		.sleb128 0
 2326 0400 02000000 		.4byte	.LCFI0-.Ltext0
 2327 0404 04000000 		.4byte	.LCFI1-.Ltext0
 2328 0408 0200     		.2byte	0x2
 2329 040a 7D       		.byte	0x7d
 2330 040b 08       		.sleb128 8
 2331 040c 04000000 		.4byte	.LCFI1-.Ltext0
 2332 0410 1C000000 		.4byte	.LFE29-.Ltext0
 2333 0414 0200     		.2byte	0x2
 2334 0416 77       		.byte	0x77
 2335 0417 08       		.sleb128 8
 2336 0418 00000000 		.4byte	0
 2337 041c 00000000 		.4byte	0
 2338              		.section	.debug_aranges,"",%progbits
 2339 0000 1C000000 		.4byte	0x1c
 2340 0004 0200     		.2byte	0x2
 2341 0006 00000000 		.4byte	.Ldebug_info0
 2342 000a 04       		.byte	0x4
 2343 000b 00       		.byte	0
 2344 000c 0000     		.2byte	0
ARM GAS  G:\Users\Jaxb\AppData\Local\Temp\cc4z3oeX.s 			page 50


 2345 000e 0000     		.2byte	0
 2346 0010 00000000 		.4byte	.Ltext0
 2347 0014 00030000 		.4byte	.Letext0-.Ltext0
 2348 0018 00000000 		.4byte	0
 2349 001c 00000000 		.4byte	0
 2350              		.section	.debug_line,"",%progbits
 2351              	.Ldebug_line0:
 2352 0000 A8010000 		.section	.debug_str,"MS",%progbits,1
 2352      02002E01 
 2352      00000201 
 2352      FB0E0D00 
 2352      01010101 
 2353              	.LASF57:
 2354 0000 746D7072 		.ascii	"tmpreg1\000"
 2354      65673100 
 2355              	.LASF62:
 2356 0008 4441435F 		.ascii	"DAC_GetDataOutputValue\000"
 2356      47657444 
 2356      6174614F 
 2356      75747075 
 2356      7456616C 
 2357              	.LASF29:
 2358 001f 44485238 		.ascii	"DHR8RD\000"
 2358      524400
 2359              	.LASF51:
 2360 0026 4441435F 		.ascii	"DAC_SoftwareTriggerCmd\000"
 2360      536F6674 
 2360      77617265 
 2360      54726967 
 2360      67657243 
 2361              	.LASF22:
 2362 003d 44485231 		.ascii	"DHR12L1\000"
 2362      324C3100 
 2363              	.LASF25:
 2364 0045 44485231 		.ascii	"DHR12L2\000"
 2364      324C3200 
 2365              	.LASF2:
 2366 004d 73686F72 		.ascii	"short int\000"
 2366      7420696E 
 2366      7400
 2367              	.LASF47:
 2368 0057 4441435F 		.ascii	"DAC_WaveGenerationCmd\000"
 2368      57617665 
 2368      47656E65 
 2368      72617469 
 2368      6F6E436D 
 2369              	.LASF28:
 2370 006d 44485231 		.ascii	"DHR12LD\000"
 2370      324C4400 
 2371              	.LASF37:
 2372 0075 4441435F 		.ascii	"DAC_InitTypeDef\000"
 2372      496E6974 
 2372      54797065 
 2372      44656600 
 2373              	.LASF7:
 2374 0085 5F5F7569 		.ascii	"__uint32_t\000"
 2374      6E743332 
ARM GAS  G:\Users\Jaxb\AppData\Local\Temp\cc4z3oeX.s 			page 51


 2374      5F7400
 2375              	.LASF36:
 2376 0090 4441435F 		.ascii	"DAC_OutputBuffer\000"
 2376      4F757470 
 2376      75744275 
 2376      66666572 
 2376      00
 2377              	.LASF4:
 2378 00a1 5F5F7569 		.ascii	"__uint16_t\000"
 2378      6E743136 
 2378      5F7400
 2379              	.LASF12:
 2380 00ac 75696E74 		.ascii	"uint8_t\000"
 2380      385F7400 
 2381              	.LASF50:
 2382 00b4 4441435F 		.ascii	"DAC_DualSoftwareTriggerCmd\000"
 2382      4475616C 
 2382      536F6674 
 2382      77617265 
 2382      54726967 
 2383              	.LASF49:
 2384 00cf 4E657753 		.ascii	"NewState\000"
 2384      74617465 
 2384      00
 2385              	.LASF17:
 2386 00d8 44495341 		.ascii	"DISABLE\000"
 2386      424C4500 
 2387              	.LASF61:
 2388 00e0 463A5C6B 		.ascii	"F:\\kaka\\KAKAOS\\C\\windows\\Project\\RVMDK\243\250"
 2388      616B615C 
 2388      4B414B41 
 2388      4F535C43 
 2388      5C77696E 
 2389 0108 757635A3 		.ascii	"uv5\243\251\000"
 2389      A900
 2390              	.LASF9:
 2391 010e 6C6F6E67 		.ascii	"long long int\000"
 2391      206C6F6E 
 2391      6720696E 
 2391      7400
 2392              	.LASF60:
 2393 011c 2E2E2F2E 		.ascii	"../../source/src/FWlib/src/stm32f10x_dac.c\000"
 2393      2E2F736F 
 2393      75726365 
 2393      2F737263 
 2393      2F46576C 
 2394              	.LASF6:
 2395 0147 6C6F6E67 		.ascii	"long int\000"
 2395      20696E74 
 2395      00
 2396              	.LASF43:
 2397 0150 4441435F 		.ascii	"DAC_SetDualChannelData\000"
 2397      53657444 
 2397      75616C43 
 2397      68616E6E 
 2397      656C4461 
 2398              	.LASF48:
ARM GAS  G:\Users\Jaxb\AppData\Local\Temp\cc4z3oeX.s 			page 52


 2399 0167 4441435F 		.ascii	"DAC_Wave\000"
 2399      57617665 
 2399      00
 2400              	.LASF33:
 2401 0170 4441435F 		.ascii	"DAC_Trigger\000"
 2401      54726967 
 2401      67657200 
 2402              	.LASF45:
 2403 017c 44617461 		.ascii	"Data\000"
 2403      00
 2404              	.LASF46:
 2405 0181 4441435F 		.ascii	"DAC_SetChannel1Data\000"
 2405      53657443 
 2405      68616E6E 
 2405      656C3144 
 2405      61746100 
 2406              	.LASF1:
 2407 0195 756E7369 		.ascii	"unsigned char\000"
 2407      676E6564 
 2407      20636861 
 2407      7200
 2408              	.LASF55:
 2409 01a3 4441435F 		.ascii	"DAC_InitStruct\000"
 2409      496E6974 
 2409      53747275 
 2409      637400
 2410              	.LASF20:
 2411 01b2 53575452 		.ascii	"SWTRIGR\000"
 2411      49475200 
 2412              	.LASF54:
 2413 01ba 4441435F 		.ascii	"DAC_StructInit\000"
 2413      53747275 
 2413      6374496E 
 2413      697400
 2414              	.LASF0:
 2415 01c9 7369676E 		.ascii	"signed char\000"
 2415      65642063 
 2415      68617200 
 2416              	.LASF10:
 2417 01d5 6C6F6E67 		.ascii	"long long unsigned int\000"
 2417      206C6F6E 
 2417      6720756E 
 2417      7369676E 
 2417      65642069 
 2418              	.LASF14:
 2419 01ec 75696E74 		.ascii	"uint32_t\000"
 2419      33325F74 
 2419      00
 2420              	.LASF11:
 2421 01f5 756E7369 		.ascii	"unsigned int\000"
 2421      676E6564 
 2421      20696E74 
 2421      00
 2422              	.LASF13:
 2423 0202 75696E74 		.ascii	"uint16_t\000"
 2423      31365F74 
 2423      00
ARM GAS  G:\Users\Jaxb\AppData\Local\Temp\cc4z3oeX.s 			page 53


 2424              	.LASF30:
 2425 020b 444F5231 		.ascii	"DOR1\000"
 2425      00
 2426              	.LASF52:
 2427 0210 4441435F 		.ascii	"DAC_DMACmd\000"
 2427      444D4143 
 2427      6D6400
 2428              	.LASF38:
 2429 021b 4441435F 		.ascii	"DAC_Channel\000"
 2429      4368616E 
 2429      6E656C00 
 2430              	.LASF63:
 2431 0227 4441435F 		.ascii	"DAC_DeInit\000"
 2431      4465496E 
 2431      697400
 2432              	.LASF5:
 2433 0232 73686F72 		.ascii	"short unsigned int\000"
 2433      7420756E 
 2433      7369676E 
 2433      65642069 
 2433      6E7400
 2434              	.LASF58:
 2435 0245 746D7072 		.ascii	"tmpreg2\000"
 2435      65673200 
 2436              	.LASF35:
 2437 024d 4441435F 		.ascii	"DAC_LFSRUnmask_TriangleAmplitude\000"
 2437      4C465352 
 2437      556E6D61 
 2437      736B5F54 
 2437      7269616E 
 2438              	.LASF39:
 2439 026e 4441435F 		.ascii	"DAC_Align\000"
 2439      416C6967 
 2439      6E00
 2440              	.LASF21:
 2441 0278 44485231 		.ascii	"DHR12R1\000"
 2441      32523100 
 2442              	.LASF24:
 2443 0280 44485231 		.ascii	"DHR12R2\000"
 2443      32523200 
 2444              	.LASF16:
 2445 0288 53797374 		.ascii	"SystemCoreClock\000"
 2445      656D436F 
 2445      7265436C 
 2445      6F636B00 
 2446              	.LASF40:
 2447 0298 44617461 		.ascii	"Data2\000"
 2447      3200
 2448              	.LASF42:
 2449 029e 64617461 		.ascii	"data\000"
 2449      00
 2450              	.LASF27:
 2451 02a3 44485231 		.ascii	"DHR12RD\000"
 2451      32524400 
 2452              	.LASF8:
 2453 02ab 6C6F6E67 		.ascii	"long unsigned int\000"
 2453      20756E73 
ARM GAS  G:\Users\Jaxb\AppData\Local\Temp\cc4z3oeX.s 			page 54


 2453      69676E65 
 2453      6420696E 
 2453      7400
 2454              	.LASF19:
 2455 02bd 46756E63 		.ascii	"FunctionalState\000"
 2455      74696F6E 
 2455      616C5374 
 2455      61746500 
 2456              	.LASF44:
 2457 02cd 4441435F 		.ascii	"DAC_SetChannel2Data\000"
 2457      53657443 
 2457      68616E6E 
 2457      656C3244 
 2457      61746100 
 2458              	.LASF53:
 2459 02e1 4441435F 		.ascii	"DAC_Cmd\000"
 2459      436D6400 
 2460              	.LASF56:
 2461 02e9 4441435F 		.ascii	"DAC_Init\000"
 2461      496E6974 
 2461      00
 2462              	.LASF41:
 2463 02f2 44617461 		.ascii	"Data1\000"
 2463      3100
 2464              	.LASF59:
 2465 02f8 474E5520 		.ascii	"GNU C11 7.3.1 20180622 (release) [ARM/embedded-7-br"
 2465      43313120 
 2465      372E332E 
 2465      31203230 
 2465      31383036 
 2466 032b 616E6368 		.ascii	"anch revision 261907] -mcpu=cortex-m3 -mthumb -mapc"
 2466      20726576 
 2466      6973696F 
 2466      6E203236 
 2466      31393037 
 2467 035e 732D6672 		.ascii	"s-frame -mthumb-interwork -mcpu=cortex-m3 -mthumb -"
 2467      616D6520 
 2467      2D6D7468 
 2467      756D622D 
 2467      696E7465 
 2468 0391 67647761 		.ascii	"gdwarf-2 -O0\000"
 2468      72662D32 
 2468      202D4F30 
 2468      00
 2469              	.LASF31:
 2470 039e 444F5232 		.ascii	"DOR2\000"
 2470      00
 2471              	.LASF15:
 2472 03a3 49544D5F 		.ascii	"ITM_RxBuffer\000"
 2472      52784275 
 2472      66666572 
 2472      00
 2473              	.LASF32:
 2474 03b0 4441435F 		.ascii	"DAC_TypeDef\000"
 2474      54797065 
 2474      44656600 
 2475              	.LASF23:
ARM GAS  G:\Users\Jaxb\AppData\Local\Temp\cc4z3oeX.s 			page 55


 2476 03bc 44485238 		.ascii	"DHR8R1\000"
 2476      523100
 2477              	.LASF26:
 2478 03c3 44485238 		.ascii	"DHR8R2\000"
 2478      523200
 2479              	.LASF34:
 2480 03ca 4441435F 		.ascii	"DAC_WaveGeneration\000"
 2480      57617665 
 2480      47656E65 
 2480      72617469 
 2480      6F6E00
 2481              	.LASF18:
 2482 03dd 454E4142 		.ascii	"ENABLE\000"
 2482      4C4500
 2483              	.LASF3:
 2484 03e4 5F5F7569 		.ascii	"__uint8_t\000"
 2484      6E74385F 
 2484      7400
 2485              		.ident	"GCC: (GNU Tools for Arm Embedded Processors 7-2018-q2-update) 7.3.1 20180622 (release) [AR
ARM GAS  G:\Users\Jaxb\AppData\Local\Temp\cc4z3oeX.s 			page 56


DEFINED SYMBOLS
                            *ABS*:00000000 stm32f10x_dac.c
G:\Users\Jaxb\AppData\Local\Temp\cc4z3oeX.s:15     .text:00000000 $t
G:\Users\Jaxb\AppData\Local\Temp\cc4z3oeX.s:22     .text:00000000 DAC_DeInit
G:\Users\Jaxb\AppData\Local\Temp\cc4z3oeX.s:58     .text:0000001c DAC_Init
G:\Users\Jaxb\AppData\Local\Temp\cc4z3oeX.s:139    .text:0000007c $d
G:\Users\Jaxb\AppData\Local\Temp\cc4z3oeX.s:143    .text:00000080 $t
G:\Users\Jaxb\AppData\Local\Temp\cc4z3oeX.s:150    .text:00000080 DAC_StructInit
G:\Users\Jaxb\AppData\Local\Temp\cc4z3oeX.s:208    .text:000000aa DAC_Cmd
G:\Users\Jaxb\AppData\Local\Temp\cc4z3oeX.s:272    .text:000000f0 $d
G:\Users\Jaxb\AppData\Local\Temp\cc4z3oeX.s:276    .text:000000f4 $t
G:\Users\Jaxb\AppData\Local\Temp\cc4z3oeX.s:283    .text:000000f4 DAC_DMACmd
G:\Users\Jaxb\AppData\Local\Temp\cc4z3oeX.s:347    .text:0000013c $d
G:\Users\Jaxb\AppData\Local\Temp\cc4z3oeX.s:351    .text:00000140 $t
G:\Users\Jaxb\AppData\Local\Temp\cc4z3oeX.s:358    .text:00000140 DAC_SoftwareTriggerCmd
G:\Users\Jaxb\AppData\Local\Temp\cc4z3oeX.s:424    .text:00000188 $d
G:\Users\Jaxb\AppData\Local\Temp\cc4z3oeX.s:428    .text:0000018c $t
G:\Users\Jaxb\AppData\Local\Temp\cc4z3oeX.s:435    .text:0000018c DAC_DualSoftwareTriggerCmd
G:\Users\Jaxb\AppData\Local\Temp\cc4z3oeX.s:491    .text:000001c0 $d
G:\Users\Jaxb\AppData\Local\Temp\cc4z3oeX.s:495    .text:000001c4 $t
G:\Users\Jaxb\AppData\Local\Temp\cc4z3oeX.s:502    .text:000001c4 DAC_WaveGenerationCmd
G:\Users\Jaxb\AppData\Local\Temp\cc4z3oeX.s:567    .text:0000020c $d
G:\Users\Jaxb\AppData\Local\Temp\cc4z3oeX.s:571    .text:00000210 $t
G:\Users\Jaxb\AppData\Local\Temp\cc4z3oeX.s:578    .text:00000210 DAC_SetChannel1Data
G:\Users\Jaxb\AppData\Local\Temp\cc4z3oeX.s:632    .text:00000240 $d
G:\Users\Jaxb\AppData\Local\Temp\cc4z3oeX.s:636    .text:00000244 $t
G:\Users\Jaxb\AppData\Local\Temp\cc4z3oeX.s:643    .text:00000244 DAC_SetChannel2Data
G:\Users\Jaxb\AppData\Local\Temp\cc4z3oeX.s:697    .text:00000274 $d
G:\Users\Jaxb\AppData\Local\Temp\cc4z3oeX.s:701    .text:00000278 $t
G:\Users\Jaxb\AppData\Local\Temp\cc4z3oeX.s:708    .text:00000278 DAC_SetDualChannelData
G:\Users\Jaxb\AppData\Local\Temp\cc4z3oeX.s:784    .text:000002cc $d
G:\Users\Jaxb\AppData\Local\Temp\cc4z3oeX.s:788    .text:000002d0 $t
G:\Users\Jaxb\AppData\Local\Temp\cc4z3oeX.s:795    .text:000002d0 DAC_GetDataOutputValue
G:\Users\Jaxb\AppData\Local\Temp\cc4z3oeX.s:847    .text:000002fc $d

UNDEFINED SYMBOLS
RCC_APB1PeriphResetCmd
