ARM GAS  G:\Users\Jaxb\AppData\Local\Temp\cc1bUhhc.s 			page 1


   1              		.cpu cortex-m3
   2              		.eabi_attribute 20, 1
   3              		.eabi_attribute 21, 1
   4              		.eabi_attribute 23, 3
   5              		.eabi_attribute 24, 1
   6              		.eabi_attribute 25, 1
   7              		.eabi_attribute 26, 1
   8              		.eabi_attribute 30, 6
   9              		.eabi_attribute 34, 1
  10              		.eabi_attribute 18, 4
  11              		.file	"stm32f10x_can.c"
  12              		.text
  13              	.Ltext0:
  14              		.cfi_sections	.debug_frame
  15              		.align	1
  16              		.global	CAN_DeInit
  17              		.syntax unified
  18              		.thumb
  19              		.thumb_func
  20              		.fpu softvfp
  21              		.type	CAN_DeInit, %function
  22              	CAN_DeInit:
  23              	.LFB29:
  24              		.file 1 "../../source/src/FWlib/src/stm32f10x_can.c"
   1:../../source/src/FWlib/src/stm32f10x_can.c **** /**
   2:../../source/src/FWlib/src/stm32f10x_can.c ****   ******************************************************************************
   3:../../source/src/FWlib/src/stm32f10x_can.c ****   * @file    stm32f10x_can.c
   4:../../source/src/FWlib/src/stm32f10x_can.c ****   * @author  MCD Application Team
   5:../../source/src/FWlib/src/stm32f10x_can.c ****   * @version V3.5.0
   6:../../source/src/FWlib/src/stm32f10x_can.c ****   * @date    11-March-2011
   7:../../source/src/FWlib/src/stm32f10x_can.c ****   * @brief   This file provides all the CAN firmware functions.
   8:../../source/src/FWlib/src/stm32f10x_can.c ****   ******************************************************************************
   9:../../source/src/FWlib/src/stm32f10x_can.c ****   * @attention
  10:../../source/src/FWlib/src/stm32f10x_can.c ****   *
  11:../../source/src/FWlib/src/stm32f10x_can.c ****   * THE PRESENT FIRMWARE WHICH IS FOR GUIDANCE ONLY AIMS AT PROVIDING CUSTOMERS
  12:../../source/src/FWlib/src/stm32f10x_can.c ****   * WITH CODING INFORMATION REGARDING THEIR PRODUCTS IN ORDER FOR THEM TO SAVE
  13:../../source/src/FWlib/src/stm32f10x_can.c ****   * TIME. AS A RESULT, STMICROELECTRONICS SHALL NOT BE HELD LIABLE FOR ANY
  14:../../source/src/FWlib/src/stm32f10x_can.c ****   * DIRECT, INDIRECT OR CONSEQUENTIAL DAMAGES WITH RESPECT TO ANY CLAIMS ARISING
  15:../../source/src/FWlib/src/stm32f10x_can.c ****   * FROM THE CONTENT OF SUCH FIRMWARE AND/OR THE USE MADE BY CUSTOMERS OF THE
  16:../../source/src/FWlib/src/stm32f10x_can.c ****   * CODING INFORMATION CONTAINED HEREIN IN CONNECTION WITH THEIR PRODUCTS.
  17:../../source/src/FWlib/src/stm32f10x_can.c ****   *
  18:../../source/src/FWlib/src/stm32f10x_can.c ****   * <h2><center>&copy; COPYRIGHT 2011 STMicroelectronics</center></h2>
  19:../../source/src/FWlib/src/stm32f10x_can.c ****   ******************************************************************************
  20:../../source/src/FWlib/src/stm32f10x_can.c ****   */
  21:../../source/src/FWlib/src/stm32f10x_can.c **** 
  22:../../source/src/FWlib/src/stm32f10x_can.c **** /* Includes ------------------------------------------------------------------*/
  23:../../source/src/FWlib/src/stm32f10x_can.c **** #include "stm32f10x_can.h"
  24:../../source/src/FWlib/src/stm32f10x_can.c **** #include "stm32f10x_rcc.h"
  25:../../source/src/FWlib/src/stm32f10x_can.c **** 
  26:../../source/src/FWlib/src/stm32f10x_can.c **** /** @addtogroup STM32F10x_StdPeriph_Driver
  27:../../source/src/FWlib/src/stm32f10x_can.c ****   * @{
  28:../../source/src/FWlib/src/stm32f10x_can.c ****   */
  29:../../source/src/FWlib/src/stm32f10x_can.c **** 
  30:../../source/src/FWlib/src/stm32f10x_can.c **** /** @defgroup CAN 
  31:../../source/src/FWlib/src/stm32f10x_can.c ****   * @brief CAN driver modules
  32:../../source/src/FWlib/src/stm32f10x_can.c ****   * @{
  33:../../source/src/FWlib/src/stm32f10x_can.c ****   */ 
ARM GAS  G:\Users\Jaxb\AppData\Local\Temp\cc1bUhhc.s 			page 2


  34:../../source/src/FWlib/src/stm32f10x_can.c **** 
  35:../../source/src/FWlib/src/stm32f10x_can.c **** /** @defgroup CAN_Private_TypesDefinitions
  36:../../source/src/FWlib/src/stm32f10x_can.c ****   * @{
  37:../../source/src/FWlib/src/stm32f10x_can.c ****   */
  38:../../source/src/FWlib/src/stm32f10x_can.c **** 
  39:../../source/src/FWlib/src/stm32f10x_can.c **** /**
  40:../../source/src/FWlib/src/stm32f10x_can.c ****   * @}
  41:../../source/src/FWlib/src/stm32f10x_can.c ****   */
  42:../../source/src/FWlib/src/stm32f10x_can.c **** 
  43:../../source/src/FWlib/src/stm32f10x_can.c **** /** @defgroup CAN_Private_Defines
  44:../../source/src/FWlib/src/stm32f10x_can.c ****   * @{
  45:../../source/src/FWlib/src/stm32f10x_can.c ****   */
  46:../../source/src/FWlib/src/stm32f10x_can.c **** 
  47:../../source/src/FWlib/src/stm32f10x_can.c **** /* CAN Master Control Register bits */
  48:../../source/src/FWlib/src/stm32f10x_can.c **** 
  49:../../source/src/FWlib/src/stm32f10x_can.c **** #define MCR_DBF      ((uint32_t)0x00010000) /* software master reset */
  50:../../source/src/FWlib/src/stm32f10x_can.c **** 
  51:../../source/src/FWlib/src/stm32f10x_can.c **** /* CAN Mailbox Transmit Request */
  52:../../source/src/FWlib/src/stm32f10x_can.c **** #define TMIDxR_TXRQ  ((uint32_t)0x00000001) /* Transmit mailbox request */
  53:../../source/src/FWlib/src/stm32f10x_can.c **** 
  54:../../source/src/FWlib/src/stm32f10x_can.c **** /* CAN Filter Master Register bits */
  55:../../source/src/FWlib/src/stm32f10x_can.c **** #define FMR_FINIT    ((uint32_t)0x00000001) /* Filter init mode */
  56:../../source/src/FWlib/src/stm32f10x_can.c **** 
  57:../../source/src/FWlib/src/stm32f10x_can.c **** /* Time out for INAK bit */
  58:../../source/src/FWlib/src/stm32f10x_can.c **** #define INAK_TIMEOUT        ((uint32_t)0x0000FFFF)
  59:../../source/src/FWlib/src/stm32f10x_can.c **** /* Time out for SLAK bit */
  60:../../source/src/FWlib/src/stm32f10x_can.c **** #define SLAK_TIMEOUT        ((uint32_t)0x0000FFFF)
  61:../../source/src/FWlib/src/stm32f10x_can.c **** 
  62:../../source/src/FWlib/src/stm32f10x_can.c **** 
  63:../../source/src/FWlib/src/stm32f10x_can.c **** 
  64:../../source/src/FWlib/src/stm32f10x_can.c **** /* Flags in TSR register */
  65:../../source/src/FWlib/src/stm32f10x_can.c **** #define CAN_FLAGS_TSR              ((uint32_t)0x08000000) 
  66:../../source/src/FWlib/src/stm32f10x_can.c **** /* Flags in RF1R register */
  67:../../source/src/FWlib/src/stm32f10x_can.c **** #define CAN_FLAGS_RF1R             ((uint32_t)0x04000000) 
  68:../../source/src/FWlib/src/stm32f10x_can.c **** /* Flags in RF0R register */
  69:../../source/src/FWlib/src/stm32f10x_can.c **** #define CAN_FLAGS_RF0R             ((uint32_t)0x02000000) 
  70:../../source/src/FWlib/src/stm32f10x_can.c **** /* Flags in MSR register */
  71:../../source/src/FWlib/src/stm32f10x_can.c **** #define CAN_FLAGS_MSR              ((uint32_t)0x01000000) 
  72:../../source/src/FWlib/src/stm32f10x_can.c **** /* Flags in ESR register */
  73:../../source/src/FWlib/src/stm32f10x_can.c **** #define CAN_FLAGS_ESR              ((uint32_t)0x00F00000) 
  74:../../source/src/FWlib/src/stm32f10x_can.c **** 
  75:../../source/src/FWlib/src/stm32f10x_can.c **** /* Mailboxes definition */
  76:../../source/src/FWlib/src/stm32f10x_can.c **** #define CAN_TXMAILBOX_0                   ((uint8_t)0x00)
  77:../../source/src/FWlib/src/stm32f10x_can.c **** #define CAN_TXMAILBOX_1                   ((uint8_t)0x01)
  78:../../source/src/FWlib/src/stm32f10x_can.c **** #define CAN_TXMAILBOX_2                   ((uint8_t)0x02) 
  79:../../source/src/FWlib/src/stm32f10x_can.c **** 
  80:../../source/src/FWlib/src/stm32f10x_can.c **** 
  81:../../source/src/FWlib/src/stm32f10x_can.c **** 
  82:../../source/src/FWlib/src/stm32f10x_can.c **** #define CAN_MODE_MASK              ((uint32_t) 0x00000003)
  83:../../source/src/FWlib/src/stm32f10x_can.c **** /**
  84:../../source/src/FWlib/src/stm32f10x_can.c ****   * @}
  85:../../source/src/FWlib/src/stm32f10x_can.c ****   */
  86:../../source/src/FWlib/src/stm32f10x_can.c **** 
  87:../../source/src/FWlib/src/stm32f10x_can.c **** /** @defgroup CAN_Private_Macros
  88:../../source/src/FWlib/src/stm32f10x_can.c ****   * @{
  89:../../source/src/FWlib/src/stm32f10x_can.c ****   */
  90:../../source/src/FWlib/src/stm32f10x_can.c **** 
ARM GAS  G:\Users\Jaxb\AppData\Local\Temp\cc1bUhhc.s 			page 3


  91:../../source/src/FWlib/src/stm32f10x_can.c **** /**
  92:../../source/src/FWlib/src/stm32f10x_can.c ****   * @}
  93:../../source/src/FWlib/src/stm32f10x_can.c ****   */
  94:../../source/src/FWlib/src/stm32f10x_can.c **** 
  95:../../source/src/FWlib/src/stm32f10x_can.c **** /** @defgroup CAN_Private_Variables
  96:../../source/src/FWlib/src/stm32f10x_can.c ****   * @{
  97:../../source/src/FWlib/src/stm32f10x_can.c ****   */
  98:../../source/src/FWlib/src/stm32f10x_can.c **** 
  99:../../source/src/FWlib/src/stm32f10x_can.c **** /**
 100:../../source/src/FWlib/src/stm32f10x_can.c ****   * @}
 101:../../source/src/FWlib/src/stm32f10x_can.c ****   */
 102:../../source/src/FWlib/src/stm32f10x_can.c **** 
 103:../../source/src/FWlib/src/stm32f10x_can.c **** /** @defgroup CAN_Private_FunctionPrototypes
 104:../../source/src/FWlib/src/stm32f10x_can.c ****   * @{
 105:../../source/src/FWlib/src/stm32f10x_can.c ****   */
 106:../../source/src/FWlib/src/stm32f10x_can.c **** 
 107:../../source/src/FWlib/src/stm32f10x_can.c **** static ITStatus CheckITStatus(uint32_t CAN_Reg, uint32_t It_Bit);
 108:../../source/src/FWlib/src/stm32f10x_can.c **** 
 109:../../source/src/FWlib/src/stm32f10x_can.c **** /**
 110:../../source/src/FWlib/src/stm32f10x_can.c ****   * @}
 111:../../source/src/FWlib/src/stm32f10x_can.c ****   */
 112:../../source/src/FWlib/src/stm32f10x_can.c **** 
 113:../../source/src/FWlib/src/stm32f10x_can.c **** /** @defgroup CAN_Private_Functions
 114:../../source/src/FWlib/src/stm32f10x_can.c ****   * @{
 115:../../source/src/FWlib/src/stm32f10x_can.c ****   */
 116:../../source/src/FWlib/src/stm32f10x_can.c **** 
 117:../../source/src/FWlib/src/stm32f10x_can.c **** /**
 118:../../source/src/FWlib/src/stm32f10x_can.c ****   * @brief  Deinitializes the CAN peripheral registers to their default reset values.
 119:../../source/src/FWlib/src/stm32f10x_can.c ****   * @param  CANx: where x can be 1 or 2 to select the CAN peripheral.
 120:../../source/src/FWlib/src/stm32f10x_can.c ****   * @retval None.
 121:../../source/src/FWlib/src/stm32f10x_can.c ****   */
 122:../../source/src/FWlib/src/stm32f10x_can.c **** void CAN_DeInit(CAN_TypeDef* CANx)
 123:../../source/src/FWlib/src/stm32f10x_can.c **** {
  25              		.loc 1 123 0
  26              		.cfi_startproc
  27              		@ args = 0, pretend = 0, frame = 8
  28              		@ frame_needed = 1, uses_anonymous_args = 0
  29 0000 80B5     		push	{r7, lr}
  30              	.LCFI0:
  31              		.cfi_def_cfa_offset 8
  32              		.cfi_offset 7, -8
  33              		.cfi_offset 14, -4
  34 0002 82B0     		sub	sp, sp, #8
  35              	.LCFI1:
  36              		.cfi_def_cfa_offset 16
  37 0004 00AF     		add	r7, sp, #0
  38              	.LCFI2:
  39              		.cfi_def_cfa_register 7
  40 0006 7860     		str	r0, [r7, #4]
 124:../../source/src/FWlib/src/stm32f10x_can.c ****   /* Check the parameters */
 125:../../source/src/FWlib/src/stm32f10x_can.c ****   assert_param(IS_CAN_ALL_PERIPH(CANx));
 126:../../source/src/FWlib/src/stm32f10x_can.c ****  
 127:../../source/src/FWlib/src/stm32f10x_can.c ****   if (CANx == CAN1)
  41              		.loc 1 127 0
  42 0008 7B68     		ldr	r3, [r7, #4]
  43 000a 0E4A     		ldr	r2, .L5
  44 000c 9342     		cmp	r3, r2
ARM GAS  G:\Users\Jaxb\AppData\Local\Temp\cc1bUhhc.s 			page 4


  45 000e 0AD1     		bne	.L2
 128:../../source/src/FWlib/src/stm32f10x_can.c ****   {
 129:../../source/src/FWlib/src/stm32f10x_can.c ****     /* Enable CAN1 reset state */
 130:../../source/src/FWlib/src/stm32f10x_can.c ****     RCC_APB1PeriphResetCmd(RCC_APB1Periph_CAN1, ENABLE);
  46              		.loc 1 130 0
  47 0010 0121     		movs	r1, #1
  48 0012 4FF00070 		mov	r0, #33554432
  49 0016 FFF7FEFF 		bl	RCC_APB1PeriphResetCmd
 131:../../source/src/FWlib/src/stm32f10x_can.c ****     /* Release CAN1 from reset state */
 132:../../source/src/FWlib/src/stm32f10x_can.c ****     RCC_APB1PeriphResetCmd(RCC_APB1Periph_CAN1, DISABLE);
  50              		.loc 1 132 0
  51 001a 0021     		movs	r1, #0
  52 001c 4FF00070 		mov	r0, #33554432
  53 0020 FFF7FEFF 		bl	RCC_APB1PeriphResetCmd
 133:../../source/src/FWlib/src/stm32f10x_can.c ****   }
 134:../../source/src/FWlib/src/stm32f10x_can.c ****   else
 135:../../source/src/FWlib/src/stm32f10x_can.c ****   {  
 136:../../source/src/FWlib/src/stm32f10x_can.c ****     /* Enable CAN2 reset state */
 137:../../source/src/FWlib/src/stm32f10x_can.c ****     RCC_APB1PeriphResetCmd(RCC_APB1Periph_CAN2, ENABLE);
 138:../../source/src/FWlib/src/stm32f10x_can.c ****     /* Release CAN2 from reset state */
 139:../../source/src/FWlib/src/stm32f10x_can.c ****     RCC_APB1PeriphResetCmd(RCC_APB1Periph_CAN2, DISABLE);
 140:../../source/src/FWlib/src/stm32f10x_can.c ****   }
 141:../../source/src/FWlib/src/stm32f10x_can.c **** }
  54              		.loc 1 141 0
  55 0024 09E0     		b	.L4
  56              	.L2:
 137:../../source/src/FWlib/src/stm32f10x_can.c ****     /* Release CAN2 from reset state */
  57              		.loc 1 137 0
  58 0026 0121     		movs	r1, #1
  59 0028 4FF08060 		mov	r0, #67108864
  60 002c FFF7FEFF 		bl	RCC_APB1PeriphResetCmd
 139:../../source/src/FWlib/src/stm32f10x_can.c ****   }
  61              		.loc 1 139 0
  62 0030 0021     		movs	r1, #0
  63 0032 4FF08060 		mov	r0, #67108864
  64 0036 FFF7FEFF 		bl	RCC_APB1PeriphResetCmd
  65              	.L4:
  66              		.loc 1 141 0
  67 003a 00BF     		nop
  68 003c 0837     		adds	r7, r7, #8
  69              	.LCFI3:
  70              		.cfi_def_cfa_offset 8
  71 003e BD46     		mov	sp, r7
  72              	.LCFI4:
  73              		.cfi_def_cfa_register 13
  74              		@ sp needed
  75 0040 80BD     		pop	{r7, pc}
  76              	.L6:
  77 0042 00BF     		.align	2
  78              	.L5:
  79 0044 00640040 		.word	1073767424
  80              		.cfi_endproc
  81              	.LFE29:
  82              		.size	CAN_DeInit, .-CAN_DeInit
  83              		.align	1
  84              		.global	CAN_Init
  85              		.syntax unified
ARM GAS  G:\Users\Jaxb\AppData\Local\Temp\cc1bUhhc.s 			page 5


  86              		.thumb
  87              		.thumb_func
  88              		.fpu softvfp
  89              		.type	CAN_Init, %function
  90              	CAN_Init:
  91              	.LFB30:
 142:../../source/src/FWlib/src/stm32f10x_can.c **** 
 143:../../source/src/FWlib/src/stm32f10x_can.c **** /**
 144:../../source/src/FWlib/src/stm32f10x_can.c ****   * @brief  Initializes the CAN peripheral according to the specified
 145:../../source/src/FWlib/src/stm32f10x_can.c ****   *         parameters in the CAN_InitStruct.
 146:../../source/src/FWlib/src/stm32f10x_can.c ****   * @param  CANx:           where x can be 1 or 2 to to select the CAN 
 147:../../source/src/FWlib/src/stm32f10x_can.c ****   *                         peripheral.
 148:../../source/src/FWlib/src/stm32f10x_can.c ****   * @param  CAN_InitStruct: pointer to a CAN_InitTypeDef structure that
 149:../../source/src/FWlib/src/stm32f10x_can.c ****   *                         contains the configuration information for the 
 150:../../source/src/FWlib/src/stm32f10x_can.c ****   *                         CAN peripheral.
 151:../../source/src/FWlib/src/stm32f10x_can.c ****   * @retval Constant indicates initialization succeed which will be 
 152:../../source/src/FWlib/src/stm32f10x_can.c ****   *         CAN_InitStatus_Failed or CAN_InitStatus_Success.
 153:../../source/src/FWlib/src/stm32f10x_can.c ****   */
 154:../../source/src/FWlib/src/stm32f10x_can.c **** uint8_t CAN_Init(CAN_TypeDef* CANx, CAN_InitTypeDef* CAN_InitStruct)
 155:../../source/src/FWlib/src/stm32f10x_can.c **** {
  92              		.loc 1 155 0
  93              		.cfi_startproc
  94              		@ args = 0, pretend = 0, frame = 16
  95              		@ frame_needed = 1, uses_anonymous_args = 0
  96              		@ link register save eliminated.
  97 0048 80B4     		push	{r7}
  98              	.LCFI5:
  99              		.cfi_def_cfa_offset 4
 100              		.cfi_offset 7, -4
 101 004a 85B0     		sub	sp, sp, #20
 102              	.LCFI6:
 103              		.cfi_def_cfa_offset 24
 104 004c 00AF     		add	r7, sp, #0
 105              	.LCFI7:
 106              		.cfi_def_cfa_register 7
 107 004e 7860     		str	r0, [r7, #4]
 108 0050 3960     		str	r1, [r7]
 156:../../source/src/FWlib/src/stm32f10x_can.c ****   uint8_t InitStatus = CAN_InitStatus_Failed;
 109              		.loc 1 156 0
 110 0052 0023     		movs	r3, #0
 111 0054 FB73     		strb	r3, [r7, #15]
 157:../../source/src/FWlib/src/stm32f10x_can.c ****   uint32_t wait_ack = 0x00000000;
 112              		.loc 1 157 0
 113 0056 0023     		movs	r3, #0
 114 0058 BB60     		str	r3, [r7, #8]
 158:../../source/src/FWlib/src/stm32f10x_can.c ****   /* Check the parameters */
 159:../../source/src/FWlib/src/stm32f10x_can.c ****   assert_param(IS_CAN_ALL_PERIPH(CANx));
 160:../../source/src/FWlib/src/stm32f10x_can.c ****   assert_param(IS_FUNCTIONAL_STATE(CAN_InitStruct->CAN_TTCM));
 161:../../source/src/FWlib/src/stm32f10x_can.c ****   assert_param(IS_FUNCTIONAL_STATE(CAN_InitStruct->CAN_ABOM));
 162:../../source/src/FWlib/src/stm32f10x_can.c ****   assert_param(IS_FUNCTIONAL_STATE(CAN_InitStruct->CAN_AWUM));
 163:../../source/src/FWlib/src/stm32f10x_can.c ****   assert_param(IS_FUNCTIONAL_STATE(CAN_InitStruct->CAN_NART));
 164:../../source/src/FWlib/src/stm32f10x_can.c ****   assert_param(IS_FUNCTIONAL_STATE(CAN_InitStruct->CAN_RFLM));
 165:../../source/src/FWlib/src/stm32f10x_can.c ****   assert_param(IS_FUNCTIONAL_STATE(CAN_InitStruct->CAN_TXFP));
 166:../../source/src/FWlib/src/stm32f10x_can.c ****   assert_param(IS_CAN_MODE(CAN_InitStruct->CAN_Mode));
 167:../../source/src/FWlib/src/stm32f10x_can.c ****   assert_param(IS_CAN_SJW(CAN_InitStruct->CAN_SJW));
 168:../../source/src/FWlib/src/stm32f10x_can.c ****   assert_param(IS_CAN_BS1(CAN_InitStruct->CAN_BS1));
 169:../../source/src/FWlib/src/stm32f10x_can.c ****   assert_param(IS_CAN_BS2(CAN_InitStruct->CAN_BS2));
ARM GAS  G:\Users\Jaxb\AppData\Local\Temp\cc1bUhhc.s 			page 6


 170:../../source/src/FWlib/src/stm32f10x_can.c ****   assert_param(IS_CAN_PRESCALER(CAN_InitStruct->CAN_Prescaler));
 171:../../source/src/FWlib/src/stm32f10x_can.c **** 
 172:../../source/src/FWlib/src/stm32f10x_can.c ****   /* Exit from sleep mode */
 173:../../source/src/FWlib/src/stm32f10x_can.c ****   CANx->MCR &= (~(uint32_t)CAN_MCR_SLEEP);
 115              		.loc 1 173 0
 116 005a 7B68     		ldr	r3, [r7, #4]
 117 005c 1B68     		ldr	r3, [r3]
 118 005e 23F00202 		bic	r2, r3, #2
 119 0062 7B68     		ldr	r3, [r7, #4]
 120 0064 1A60     		str	r2, [r3]
 174:../../source/src/FWlib/src/stm32f10x_can.c **** 
 175:../../source/src/FWlib/src/stm32f10x_can.c ****   /* Request initialisation */
 176:../../source/src/FWlib/src/stm32f10x_can.c ****   CANx->MCR |= CAN_MCR_INRQ ;
 121              		.loc 1 176 0
 122 0066 7B68     		ldr	r3, [r7, #4]
 123 0068 1B68     		ldr	r3, [r3]
 124 006a 43F00102 		orr	r2, r3, #1
 125 006e 7B68     		ldr	r3, [r7, #4]
 126 0070 1A60     		str	r2, [r3]
 177:../../source/src/FWlib/src/stm32f10x_can.c **** 
 178:../../source/src/FWlib/src/stm32f10x_can.c ****   /* Wait the acknowledge */
 179:../../source/src/FWlib/src/stm32f10x_can.c ****   while (((CANx->MSR & CAN_MSR_INAK) != CAN_MSR_INAK) && (wait_ack != INAK_TIMEOUT))
 127              		.loc 1 179 0
 128 0072 02E0     		b	.L8
 129              	.L10:
 180:../../source/src/FWlib/src/stm32f10x_can.c ****   {
 181:../../source/src/FWlib/src/stm32f10x_can.c ****     wait_ack++;
 130              		.loc 1 181 0
 131 0074 BB68     		ldr	r3, [r7, #8]
 132 0076 0133     		adds	r3, r3, #1
 133 0078 BB60     		str	r3, [r7, #8]
 134              	.L8:
 179:../../source/src/FWlib/src/stm32f10x_can.c ****   {
 135              		.loc 1 179 0
 136 007a 7B68     		ldr	r3, [r7, #4]
 137 007c 5B68     		ldr	r3, [r3, #4]
 138 007e 03F00103 		and	r3, r3, #1
 139 0082 012B     		cmp	r3, #1
 140 0084 04D0     		beq	.L9
 179:../../source/src/FWlib/src/stm32f10x_can.c ****   {
 141              		.loc 1 179 0 is_stmt 0 discriminator 1
 142 0086 BB68     		ldr	r3, [r7, #8]
 143 0088 4FF6FF72 		movw	r2, #65535
 144 008c 9342     		cmp	r3, r2
 145 008e F1D1     		bne	.L10
 146              	.L9:
 182:../../source/src/FWlib/src/stm32f10x_can.c ****   }
 183:../../source/src/FWlib/src/stm32f10x_can.c **** 
 184:../../source/src/FWlib/src/stm32f10x_can.c ****   /* Check acknowledge */
 185:../../source/src/FWlib/src/stm32f10x_can.c ****   if ((CANx->MSR & CAN_MSR_INAK) != CAN_MSR_INAK)
 147              		.loc 1 185 0 is_stmt 1
 148 0090 7B68     		ldr	r3, [r7, #4]
 149 0092 5B68     		ldr	r3, [r3, #4]
 150 0094 03F00103 		and	r3, r3, #1
 151 0098 012B     		cmp	r3, #1
 152 009a 02D0     		beq	.L11
 186:../../source/src/FWlib/src/stm32f10x_can.c ****   {
ARM GAS  G:\Users\Jaxb\AppData\Local\Temp\cc1bUhhc.s 			page 7


 187:../../source/src/FWlib/src/stm32f10x_can.c ****     InitStatus = CAN_InitStatus_Failed;
 153              		.loc 1 187 0
 154 009c 0023     		movs	r3, #0
 155 009e FB73     		strb	r3, [r7, #15]
 156 00a0 9CE0     		b	.L12
 157              	.L11:
 188:../../source/src/FWlib/src/stm32f10x_can.c ****   }
 189:../../source/src/FWlib/src/stm32f10x_can.c ****   else 
 190:../../source/src/FWlib/src/stm32f10x_can.c ****   {
 191:../../source/src/FWlib/src/stm32f10x_can.c ****     /* Set the time triggered communication mode */
 192:../../source/src/FWlib/src/stm32f10x_can.c ****     if (CAN_InitStruct->CAN_TTCM == ENABLE)
 158              		.loc 1 192 0
 159 00a2 3B68     		ldr	r3, [r7]
 160 00a4 9B79     		ldrb	r3, [r3, #6]	@ zero_extendqisi2
 161 00a6 012B     		cmp	r3, #1
 162 00a8 06D1     		bne	.L13
 193:../../source/src/FWlib/src/stm32f10x_can.c ****     {
 194:../../source/src/FWlib/src/stm32f10x_can.c ****       CANx->MCR |= CAN_MCR_TTCM;
 163              		.loc 1 194 0
 164 00aa 7B68     		ldr	r3, [r7, #4]
 165 00ac 1B68     		ldr	r3, [r3]
 166 00ae 43F08002 		orr	r2, r3, #128
 167 00b2 7B68     		ldr	r3, [r7, #4]
 168 00b4 1A60     		str	r2, [r3]
 169 00b6 05E0     		b	.L14
 170              	.L13:
 195:../../source/src/FWlib/src/stm32f10x_can.c ****     }
 196:../../source/src/FWlib/src/stm32f10x_can.c ****     else
 197:../../source/src/FWlib/src/stm32f10x_can.c ****     {
 198:../../source/src/FWlib/src/stm32f10x_can.c ****       CANx->MCR &= ~(uint32_t)CAN_MCR_TTCM;
 171              		.loc 1 198 0
 172 00b8 7B68     		ldr	r3, [r7, #4]
 173 00ba 1B68     		ldr	r3, [r3]
 174 00bc 23F08002 		bic	r2, r3, #128
 175 00c0 7B68     		ldr	r3, [r7, #4]
 176 00c2 1A60     		str	r2, [r3]
 177              	.L14:
 199:../../source/src/FWlib/src/stm32f10x_can.c ****     }
 200:../../source/src/FWlib/src/stm32f10x_can.c **** 
 201:../../source/src/FWlib/src/stm32f10x_can.c ****     /* Set the automatic bus-off management */
 202:../../source/src/FWlib/src/stm32f10x_can.c ****     if (CAN_InitStruct->CAN_ABOM == ENABLE)
 178              		.loc 1 202 0
 179 00c4 3B68     		ldr	r3, [r7]
 180 00c6 DB79     		ldrb	r3, [r3, #7]	@ zero_extendqisi2
 181 00c8 012B     		cmp	r3, #1
 182 00ca 06D1     		bne	.L15
 203:../../source/src/FWlib/src/stm32f10x_can.c ****     {
 204:../../source/src/FWlib/src/stm32f10x_can.c ****       CANx->MCR |= CAN_MCR_ABOM;
 183              		.loc 1 204 0
 184 00cc 7B68     		ldr	r3, [r7, #4]
 185 00ce 1B68     		ldr	r3, [r3]
 186 00d0 43F04002 		orr	r2, r3, #64
 187 00d4 7B68     		ldr	r3, [r7, #4]
 188 00d6 1A60     		str	r2, [r3]
 189 00d8 05E0     		b	.L16
 190              	.L15:
 205:../../source/src/FWlib/src/stm32f10x_can.c ****     }
ARM GAS  G:\Users\Jaxb\AppData\Local\Temp\cc1bUhhc.s 			page 8


 206:../../source/src/FWlib/src/stm32f10x_can.c ****     else
 207:../../source/src/FWlib/src/stm32f10x_can.c ****     {
 208:../../source/src/FWlib/src/stm32f10x_can.c ****       CANx->MCR &= ~(uint32_t)CAN_MCR_ABOM;
 191              		.loc 1 208 0
 192 00da 7B68     		ldr	r3, [r7, #4]
 193 00dc 1B68     		ldr	r3, [r3]
 194 00de 23F04002 		bic	r2, r3, #64
 195 00e2 7B68     		ldr	r3, [r7, #4]
 196 00e4 1A60     		str	r2, [r3]
 197              	.L16:
 209:../../source/src/FWlib/src/stm32f10x_can.c ****     }
 210:../../source/src/FWlib/src/stm32f10x_can.c **** 
 211:../../source/src/FWlib/src/stm32f10x_can.c ****     /* Set the automatic wake-up mode */
 212:../../source/src/FWlib/src/stm32f10x_can.c ****     if (CAN_InitStruct->CAN_AWUM == ENABLE)
 198              		.loc 1 212 0
 199 00e6 3B68     		ldr	r3, [r7]
 200 00e8 1B7A     		ldrb	r3, [r3, #8]	@ zero_extendqisi2
 201 00ea 012B     		cmp	r3, #1
 202 00ec 06D1     		bne	.L17
 213:../../source/src/FWlib/src/stm32f10x_can.c ****     {
 214:../../source/src/FWlib/src/stm32f10x_can.c ****       CANx->MCR |= CAN_MCR_AWUM;
 203              		.loc 1 214 0
 204 00ee 7B68     		ldr	r3, [r7, #4]
 205 00f0 1B68     		ldr	r3, [r3]
 206 00f2 43F02002 		orr	r2, r3, #32
 207 00f6 7B68     		ldr	r3, [r7, #4]
 208 00f8 1A60     		str	r2, [r3]
 209 00fa 05E0     		b	.L18
 210              	.L17:
 215:../../source/src/FWlib/src/stm32f10x_can.c ****     }
 216:../../source/src/FWlib/src/stm32f10x_can.c ****     else
 217:../../source/src/FWlib/src/stm32f10x_can.c ****     {
 218:../../source/src/FWlib/src/stm32f10x_can.c ****       CANx->MCR &= ~(uint32_t)CAN_MCR_AWUM;
 211              		.loc 1 218 0
 212 00fc 7B68     		ldr	r3, [r7, #4]
 213 00fe 1B68     		ldr	r3, [r3]
 214 0100 23F02002 		bic	r2, r3, #32
 215 0104 7B68     		ldr	r3, [r7, #4]
 216 0106 1A60     		str	r2, [r3]
 217              	.L18:
 219:../../source/src/FWlib/src/stm32f10x_can.c ****     }
 220:../../source/src/FWlib/src/stm32f10x_can.c **** 
 221:../../source/src/FWlib/src/stm32f10x_can.c ****     /* Set the no automatic retransmission */
 222:../../source/src/FWlib/src/stm32f10x_can.c ****     if (CAN_InitStruct->CAN_NART == ENABLE)
 218              		.loc 1 222 0
 219 0108 3B68     		ldr	r3, [r7]
 220 010a 5B7A     		ldrb	r3, [r3, #9]	@ zero_extendqisi2
 221 010c 012B     		cmp	r3, #1
 222 010e 06D1     		bne	.L19
 223:../../source/src/FWlib/src/stm32f10x_can.c ****     {
 224:../../source/src/FWlib/src/stm32f10x_can.c ****       CANx->MCR |= CAN_MCR_NART;
 223              		.loc 1 224 0
 224 0110 7B68     		ldr	r3, [r7, #4]
 225 0112 1B68     		ldr	r3, [r3]
 226 0114 43F01002 		orr	r2, r3, #16
 227 0118 7B68     		ldr	r3, [r7, #4]
 228 011a 1A60     		str	r2, [r3]
ARM GAS  G:\Users\Jaxb\AppData\Local\Temp\cc1bUhhc.s 			page 9


 229 011c 05E0     		b	.L20
 230              	.L19:
 225:../../source/src/FWlib/src/stm32f10x_can.c ****     }
 226:../../source/src/FWlib/src/stm32f10x_can.c ****     else
 227:../../source/src/FWlib/src/stm32f10x_can.c ****     {
 228:../../source/src/FWlib/src/stm32f10x_can.c ****       CANx->MCR &= ~(uint32_t)CAN_MCR_NART;
 231              		.loc 1 228 0
 232 011e 7B68     		ldr	r3, [r7, #4]
 233 0120 1B68     		ldr	r3, [r3]
 234 0122 23F01002 		bic	r2, r3, #16
 235 0126 7B68     		ldr	r3, [r7, #4]
 236 0128 1A60     		str	r2, [r3]
 237              	.L20:
 229:../../source/src/FWlib/src/stm32f10x_can.c ****     }
 230:../../source/src/FWlib/src/stm32f10x_can.c **** 
 231:../../source/src/FWlib/src/stm32f10x_can.c ****     /* Set the receive FIFO locked mode */
 232:../../source/src/FWlib/src/stm32f10x_can.c ****     if (CAN_InitStruct->CAN_RFLM == ENABLE)
 238              		.loc 1 232 0
 239 012a 3B68     		ldr	r3, [r7]
 240 012c 9B7A     		ldrb	r3, [r3, #10]	@ zero_extendqisi2
 241 012e 012B     		cmp	r3, #1
 242 0130 06D1     		bne	.L21
 233:../../source/src/FWlib/src/stm32f10x_can.c ****     {
 234:../../source/src/FWlib/src/stm32f10x_can.c ****       CANx->MCR |= CAN_MCR_RFLM;
 243              		.loc 1 234 0
 244 0132 7B68     		ldr	r3, [r7, #4]
 245 0134 1B68     		ldr	r3, [r3]
 246 0136 43F00802 		orr	r2, r3, #8
 247 013a 7B68     		ldr	r3, [r7, #4]
 248 013c 1A60     		str	r2, [r3]
 249 013e 05E0     		b	.L22
 250              	.L21:
 235:../../source/src/FWlib/src/stm32f10x_can.c ****     }
 236:../../source/src/FWlib/src/stm32f10x_can.c ****     else
 237:../../source/src/FWlib/src/stm32f10x_can.c ****     {
 238:../../source/src/FWlib/src/stm32f10x_can.c ****       CANx->MCR &= ~(uint32_t)CAN_MCR_RFLM;
 251              		.loc 1 238 0
 252 0140 7B68     		ldr	r3, [r7, #4]
 253 0142 1B68     		ldr	r3, [r3]
 254 0144 23F00802 		bic	r2, r3, #8
 255 0148 7B68     		ldr	r3, [r7, #4]
 256 014a 1A60     		str	r2, [r3]
 257              	.L22:
 239:../../source/src/FWlib/src/stm32f10x_can.c ****     }
 240:../../source/src/FWlib/src/stm32f10x_can.c **** 
 241:../../source/src/FWlib/src/stm32f10x_can.c ****     /* Set the transmit FIFO priority */
 242:../../source/src/FWlib/src/stm32f10x_can.c ****     if (CAN_InitStruct->CAN_TXFP == ENABLE)
 258              		.loc 1 242 0
 259 014c 3B68     		ldr	r3, [r7]
 260 014e DB7A     		ldrb	r3, [r3, #11]	@ zero_extendqisi2
 261 0150 012B     		cmp	r3, #1
 262 0152 06D1     		bne	.L23
 243:../../source/src/FWlib/src/stm32f10x_can.c ****     {
 244:../../source/src/FWlib/src/stm32f10x_can.c ****       CANx->MCR |= CAN_MCR_TXFP;
 263              		.loc 1 244 0
 264 0154 7B68     		ldr	r3, [r7, #4]
 265 0156 1B68     		ldr	r3, [r3]
ARM GAS  G:\Users\Jaxb\AppData\Local\Temp\cc1bUhhc.s 			page 10


 266 0158 43F00402 		orr	r2, r3, #4
 267 015c 7B68     		ldr	r3, [r7, #4]
 268 015e 1A60     		str	r2, [r3]
 269 0160 05E0     		b	.L24
 270              	.L23:
 245:../../source/src/FWlib/src/stm32f10x_can.c ****     }
 246:../../source/src/FWlib/src/stm32f10x_can.c ****     else
 247:../../source/src/FWlib/src/stm32f10x_can.c ****     {
 248:../../source/src/FWlib/src/stm32f10x_can.c ****       CANx->MCR &= ~(uint32_t)CAN_MCR_TXFP;
 271              		.loc 1 248 0
 272 0162 7B68     		ldr	r3, [r7, #4]
 273 0164 1B68     		ldr	r3, [r3]
 274 0166 23F00402 		bic	r2, r3, #4
 275 016a 7B68     		ldr	r3, [r7, #4]
 276 016c 1A60     		str	r2, [r3]
 277              	.L24:
 249:../../source/src/FWlib/src/stm32f10x_can.c ****     }
 250:../../source/src/FWlib/src/stm32f10x_can.c **** 
 251:../../source/src/FWlib/src/stm32f10x_can.c ****     /* Set the bit timing register */
 252:../../source/src/FWlib/src/stm32f10x_can.c ****     CANx->BTR = (uint32_t)((uint32_t)CAN_InitStruct->CAN_Mode << 30) | \
 278              		.loc 1 252 0
 279 016e 3B68     		ldr	r3, [r7]
 280 0170 9B78     		ldrb	r3, [r3, #2]	@ zero_extendqisi2
 281 0172 9A07     		lsls	r2, r3, #30
 253:../../source/src/FWlib/src/stm32f10x_can.c ****                 ((uint32_t)CAN_InitStruct->CAN_SJW << 24) | \
 282              		.loc 1 253 0
 283 0174 3B68     		ldr	r3, [r7]
 284 0176 DB78     		ldrb	r3, [r3, #3]	@ zero_extendqisi2
 285 0178 1B06     		lsls	r3, r3, #24
 252:../../source/src/FWlib/src/stm32f10x_can.c ****                 ((uint32_t)CAN_InitStruct->CAN_SJW << 24) | \
 286              		.loc 1 252 0
 287 017a 1A43     		orrs	r2, r2, r3
 254:../../source/src/FWlib/src/stm32f10x_can.c ****                 ((uint32_t)CAN_InitStruct->CAN_BS1 << 16) | \
 288              		.loc 1 254 0
 289 017c 3B68     		ldr	r3, [r7]
 290 017e 1B79     		ldrb	r3, [r3, #4]	@ zero_extendqisi2
 291 0180 1B04     		lsls	r3, r3, #16
 253:../../source/src/FWlib/src/stm32f10x_can.c ****                 ((uint32_t)CAN_InitStruct->CAN_SJW << 24) | \
 292              		.loc 1 253 0
 293 0182 1A43     		orrs	r2, r2, r3
 255:../../source/src/FWlib/src/stm32f10x_can.c ****                 ((uint32_t)CAN_InitStruct->CAN_BS2 << 20) | \
 294              		.loc 1 255 0
 295 0184 3B68     		ldr	r3, [r7]
 296 0186 5B79     		ldrb	r3, [r3, #5]	@ zero_extendqisi2
 297 0188 1B05     		lsls	r3, r3, #20
 254:../../source/src/FWlib/src/stm32f10x_can.c ****                 ((uint32_t)CAN_InitStruct->CAN_BS1 << 16) | \
 298              		.loc 1 254 0
 299 018a 1A43     		orrs	r2, r2, r3
 256:../../source/src/FWlib/src/stm32f10x_can.c ****                ((uint32_t)CAN_InitStruct->CAN_Prescaler - 1);
 300              		.loc 1 256 0
 301 018c 3B68     		ldr	r3, [r7]
 302 018e 1B88     		ldrh	r3, [r3]
 303 0190 013B     		subs	r3, r3, #1
 255:../../source/src/FWlib/src/stm32f10x_can.c ****                 ((uint32_t)CAN_InitStruct->CAN_BS2 << 20) | \
 304              		.loc 1 255 0
 305 0192 1A43     		orrs	r2, r2, r3
 252:../../source/src/FWlib/src/stm32f10x_can.c ****                 ((uint32_t)CAN_InitStruct->CAN_SJW << 24) | \
ARM GAS  G:\Users\Jaxb\AppData\Local\Temp\cc1bUhhc.s 			page 11


 306              		.loc 1 252 0
 307 0194 7B68     		ldr	r3, [r7, #4]
 308 0196 DA61     		str	r2, [r3, #28]
 257:../../source/src/FWlib/src/stm32f10x_can.c **** 
 258:../../source/src/FWlib/src/stm32f10x_can.c ****     /* Request leave initialisation */
 259:../../source/src/FWlib/src/stm32f10x_can.c ****     CANx->MCR &= ~(uint32_t)CAN_MCR_INRQ;
 309              		.loc 1 259 0
 310 0198 7B68     		ldr	r3, [r7, #4]
 311 019a 1B68     		ldr	r3, [r3]
 312 019c 23F00102 		bic	r2, r3, #1
 313 01a0 7B68     		ldr	r3, [r7, #4]
 314 01a2 1A60     		str	r2, [r3]
 260:../../source/src/FWlib/src/stm32f10x_can.c **** 
 261:../../source/src/FWlib/src/stm32f10x_can.c ****    /* Wait the acknowledge */
 262:../../source/src/FWlib/src/stm32f10x_can.c ****    wait_ack = 0;
 315              		.loc 1 262 0
 316 01a4 0023     		movs	r3, #0
 317 01a6 BB60     		str	r3, [r7, #8]
 263:../../source/src/FWlib/src/stm32f10x_can.c **** 
 264:../../source/src/FWlib/src/stm32f10x_can.c ****    while (((CANx->MSR & CAN_MSR_INAK) == CAN_MSR_INAK) && (wait_ack != INAK_TIMEOUT))
 318              		.loc 1 264 0
 319 01a8 02E0     		b	.L25
 320              	.L27:
 265:../../source/src/FWlib/src/stm32f10x_can.c ****    {
 266:../../source/src/FWlib/src/stm32f10x_can.c ****      wait_ack++;
 321              		.loc 1 266 0
 322 01aa BB68     		ldr	r3, [r7, #8]
 323 01ac 0133     		adds	r3, r3, #1
 324 01ae BB60     		str	r3, [r7, #8]
 325              	.L25:
 264:../../source/src/FWlib/src/stm32f10x_can.c ****    {
 326              		.loc 1 264 0
 327 01b0 7B68     		ldr	r3, [r7, #4]
 328 01b2 5B68     		ldr	r3, [r3, #4]
 329 01b4 03F00103 		and	r3, r3, #1
 330 01b8 012B     		cmp	r3, #1
 331 01ba 04D1     		bne	.L26
 264:../../source/src/FWlib/src/stm32f10x_can.c ****    {
 332              		.loc 1 264 0 is_stmt 0 discriminator 1
 333 01bc BB68     		ldr	r3, [r7, #8]
 334 01be 4FF6FF72 		movw	r2, #65535
 335 01c2 9342     		cmp	r3, r2
 336 01c4 F1D1     		bne	.L27
 337              	.L26:
 267:../../source/src/FWlib/src/stm32f10x_can.c ****    }
 268:../../source/src/FWlib/src/stm32f10x_can.c **** 
 269:../../source/src/FWlib/src/stm32f10x_can.c ****     /* ...and check acknowledged */
 270:../../source/src/FWlib/src/stm32f10x_can.c ****     if ((CANx->MSR & CAN_MSR_INAK) == CAN_MSR_INAK)
 338              		.loc 1 270 0 is_stmt 1
 339 01c6 7B68     		ldr	r3, [r7, #4]
 340 01c8 5B68     		ldr	r3, [r3, #4]
 341 01ca 03F00103 		and	r3, r3, #1
 342 01ce 012B     		cmp	r3, #1
 343 01d0 02D1     		bne	.L28
 271:../../source/src/FWlib/src/stm32f10x_can.c ****     {
 272:../../source/src/FWlib/src/stm32f10x_can.c ****       InitStatus = CAN_InitStatus_Failed;
 344              		.loc 1 272 0
ARM GAS  G:\Users\Jaxb\AppData\Local\Temp\cc1bUhhc.s 			page 12


 345 01d2 0023     		movs	r3, #0
 346 01d4 FB73     		strb	r3, [r7, #15]
 347 01d6 01E0     		b	.L12
 348              	.L28:
 273:../../source/src/FWlib/src/stm32f10x_can.c ****     }
 274:../../source/src/FWlib/src/stm32f10x_can.c ****     else
 275:../../source/src/FWlib/src/stm32f10x_can.c ****     {
 276:../../source/src/FWlib/src/stm32f10x_can.c ****       InitStatus = CAN_InitStatus_Success ;
 349              		.loc 1 276 0
 350 01d8 0123     		movs	r3, #1
 351 01da FB73     		strb	r3, [r7, #15]
 352              	.L12:
 277:../../source/src/FWlib/src/stm32f10x_can.c ****     }
 278:../../source/src/FWlib/src/stm32f10x_can.c ****   }
 279:../../source/src/FWlib/src/stm32f10x_can.c **** 
 280:../../source/src/FWlib/src/stm32f10x_can.c ****   /* At this step, return the status of initialization */
 281:../../source/src/FWlib/src/stm32f10x_can.c ****   return InitStatus;
 353              		.loc 1 281 0
 354 01dc FB7B     		ldrb	r3, [r7, #15]	@ zero_extendqisi2
 282:../../source/src/FWlib/src/stm32f10x_can.c **** }
 355              		.loc 1 282 0
 356 01de 1846     		mov	r0, r3
 357 01e0 1437     		adds	r7, r7, #20
 358              	.LCFI8:
 359              		.cfi_def_cfa_offset 4
 360 01e2 BD46     		mov	sp, r7
 361              	.LCFI9:
 362              		.cfi_def_cfa_register 13
 363              		@ sp needed
 364 01e4 80BC     		pop	{r7}
 365              	.LCFI10:
 366              		.cfi_restore 7
 367              		.cfi_def_cfa_offset 0
 368 01e6 7047     		bx	lr
 369              		.cfi_endproc
 370              	.LFE30:
 371              		.size	CAN_Init, .-CAN_Init
 372              		.align	1
 373              		.global	CAN_FilterInit
 374              		.syntax unified
 375              		.thumb
 376              		.thumb_func
 377              		.fpu softvfp
 378              		.type	CAN_FilterInit, %function
 379              	CAN_FilterInit:
 380              	.LFB31:
 283:../../source/src/FWlib/src/stm32f10x_can.c **** 
 284:../../source/src/FWlib/src/stm32f10x_can.c **** /**
 285:../../source/src/FWlib/src/stm32f10x_can.c ****   * @brief  Initializes the CAN peripheral according to the specified
 286:../../source/src/FWlib/src/stm32f10x_can.c ****   *         parameters in the CAN_FilterInitStruct.
 287:../../source/src/FWlib/src/stm32f10x_can.c ****   * @param  CAN_FilterInitStruct: pointer to a CAN_FilterInitTypeDef
 288:../../source/src/FWlib/src/stm32f10x_can.c ****   *                               structure that contains the configuration 
 289:../../source/src/FWlib/src/stm32f10x_can.c ****   *                               information.
 290:../../source/src/FWlib/src/stm32f10x_can.c ****   * @retval None.
 291:../../source/src/FWlib/src/stm32f10x_can.c ****   */
 292:../../source/src/FWlib/src/stm32f10x_can.c **** void CAN_FilterInit(CAN_FilterInitTypeDef* CAN_FilterInitStruct)
 293:../../source/src/FWlib/src/stm32f10x_can.c **** {
ARM GAS  G:\Users\Jaxb\AppData\Local\Temp\cc1bUhhc.s 			page 13


 381              		.loc 1 293 0
 382              		.cfi_startproc
 383              		@ args = 0, pretend = 0, frame = 16
 384              		@ frame_needed = 1, uses_anonymous_args = 0
 385              		@ link register save eliminated.
 386 01e8 90B4     		push	{r4, r7}
 387              	.LCFI11:
 388              		.cfi_def_cfa_offset 8
 389              		.cfi_offset 4, -8
 390              		.cfi_offset 7, -4
 391 01ea 84B0     		sub	sp, sp, #16
 392              	.LCFI12:
 393              		.cfi_def_cfa_offset 24
 394 01ec 00AF     		add	r7, sp, #0
 395              	.LCFI13:
 396              		.cfi_def_cfa_register 7
 397 01ee 7860     		str	r0, [r7, #4]
 294:../../source/src/FWlib/src/stm32f10x_can.c ****   uint32_t filter_number_bit_pos = 0;
 398              		.loc 1 294 0
 399 01f0 0023     		movs	r3, #0
 400 01f2 FB60     		str	r3, [r7, #12]
 295:../../source/src/FWlib/src/stm32f10x_can.c ****   /* Check the parameters */
 296:../../source/src/FWlib/src/stm32f10x_can.c ****   assert_param(IS_CAN_FILTER_NUMBER(CAN_FilterInitStruct->CAN_FilterNumber));
 297:../../source/src/FWlib/src/stm32f10x_can.c ****   assert_param(IS_CAN_FILTER_MODE(CAN_FilterInitStruct->CAN_FilterMode));
 298:../../source/src/FWlib/src/stm32f10x_can.c ****   assert_param(IS_CAN_FILTER_SCALE(CAN_FilterInitStruct->CAN_FilterScale));
 299:../../source/src/FWlib/src/stm32f10x_can.c ****   assert_param(IS_CAN_FILTER_FIFO(CAN_FilterInitStruct->CAN_FilterFIFOAssignment));
 300:../../source/src/FWlib/src/stm32f10x_can.c ****   assert_param(IS_FUNCTIONAL_STATE(CAN_FilterInitStruct->CAN_FilterActivation));
 301:../../source/src/FWlib/src/stm32f10x_can.c **** 
 302:../../source/src/FWlib/src/stm32f10x_can.c ****   filter_number_bit_pos = ((uint32_t)1) << CAN_FilterInitStruct->CAN_FilterNumber;
 401              		.loc 1 302 0
 402 01f4 7B68     		ldr	r3, [r7, #4]
 403 01f6 9B7A     		ldrb	r3, [r3, #10]	@ zero_extendqisi2
 404 01f8 1A46     		mov	r2, r3
 405 01fa 0123     		movs	r3, #1
 406 01fc 9340     		lsls	r3, r3, r2
 407 01fe FB60     		str	r3, [r7, #12]
 303:../../source/src/FWlib/src/stm32f10x_can.c **** 
 304:../../source/src/FWlib/src/stm32f10x_can.c ****   /* Initialisation mode for the filter */
 305:../../source/src/FWlib/src/stm32f10x_can.c ****   CAN1->FMR |= FMR_FINIT;
 408              		.loc 1 305 0
 409 0200 594B     		ldr	r3, .L38
 410 0202 D3F80032 		ldr	r3, [r3, #512]
 411 0206 584A     		ldr	r2, .L38
 412 0208 43F00103 		orr	r3, r3, #1
 413 020c C2F80032 		str	r3, [r2, #512]
 306:../../source/src/FWlib/src/stm32f10x_can.c **** 
 307:../../source/src/FWlib/src/stm32f10x_can.c ****   /* Filter Deactivation */
 308:../../source/src/FWlib/src/stm32f10x_can.c ****   CAN1->FA1R &= ~(uint32_t)filter_number_bit_pos;
 414              		.loc 1 308 0
 415 0210 554B     		ldr	r3, .L38
 416 0212 D3F81C22 		ldr	r2, [r3, #540]
 417 0216 FB68     		ldr	r3, [r7, #12]
 418 0218 DB43     		mvns	r3, r3
 419 021a 5349     		ldr	r1, .L38
 420 021c 1340     		ands	r3, r3, r2
 421 021e C1F81C32 		str	r3, [r1, #540]
 309:../../source/src/FWlib/src/stm32f10x_can.c **** 
ARM GAS  G:\Users\Jaxb\AppData\Local\Temp\cc1bUhhc.s 			page 14


 310:../../source/src/FWlib/src/stm32f10x_can.c ****   /* Filter Scale */
 311:../../source/src/FWlib/src/stm32f10x_can.c ****   if (CAN_FilterInitStruct->CAN_FilterScale == CAN_FilterScale_16bit)
 422              		.loc 1 311 0
 423 0222 7B68     		ldr	r3, [r7, #4]
 424 0224 1B7B     		ldrb	r3, [r3, #12]	@ zero_extendqisi2
 425 0226 002B     		cmp	r3, #0
 426 0228 29D1     		bne	.L31
 312:../../source/src/FWlib/src/stm32f10x_can.c ****   {
 313:../../source/src/FWlib/src/stm32f10x_can.c ****     /* 16-bit scale for the filter */
 314:../../source/src/FWlib/src/stm32f10x_can.c ****     CAN1->FS1R &= ~(uint32_t)filter_number_bit_pos;
 427              		.loc 1 314 0
 428 022a 4F4B     		ldr	r3, .L38
 429 022c D3F80C22 		ldr	r2, [r3, #524]
 430 0230 FB68     		ldr	r3, [r7, #12]
 431 0232 DB43     		mvns	r3, r3
 432 0234 4C49     		ldr	r1, .L38
 433 0236 1340     		ands	r3, r3, r2
 434 0238 C1F80C32 		str	r3, [r1, #524]
 315:../../source/src/FWlib/src/stm32f10x_can.c **** 
 316:../../source/src/FWlib/src/stm32f10x_can.c ****     /* First 16-bit identifier and First 16-bit mask */
 317:../../source/src/FWlib/src/stm32f10x_can.c ****     /* Or First 16-bit identifier and Second 16-bit identifier */
 318:../../source/src/FWlib/src/stm32f10x_can.c ****     CAN1->sFilterRegister[CAN_FilterInitStruct->CAN_FilterNumber].FR1 = 
 319:../../source/src/FWlib/src/stm32f10x_can.c ****     ((0x0000FFFF & (uint32_t)CAN_FilterInitStruct->CAN_FilterMaskIdLow) << 16) |
 435              		.loc 1 319 0
 436 023c 7B68     		ldr	r3, [r7, #4]
 437 023e DB88     		ldrh	r3, [r3, #6]
 438 0240 1B04     		lsls	r3, r3, #16
 320:../../source/src/FWlib/src/stm32f10x_can.c ****         (0x0000FFFF & (uint32_t)CAN_FilterInitStruct->CAN_FilterIdLow);
 439              		.loc 1 320 0
 440 0242 7A68     		ldr	r2, [r7, #4]
 441 0244 5288     		ldrh	r2, [r2, #2]
 442 0246 1446     		mov	r4, r2
 318:../../source/src/FWlib/src/stm32f10x_can.c ****     ((0x0000FFFF & (uint32_t)CAN_FilterInitStruct->CAN_FilterMaskIdLow) << 16) |
 443              		.loc 1 318 0
 444 0248 4749     		ldr	r1, .L38
 445 024a 7A68     		ldr	r2, [r7, #4]
 446 024c 927A     		ldrb	r2, [r2, #10]	@ zero_extendqisi2
 447 024e 1046     		mov	r0, r2
 319:../../source/src/FWlib/src/stm32f10x_can.c ****         (0x0000FFFF & (uint32_t)CAN_FilterInitStruct->CAN_FilterIdLow);
 448              		.loc 1 319 0
 449 0250 43EA0402 		orr	r2, r3, r4
 318:../../source/src/FWlib/src/stm32f10x_can.c ****     ((0x0000FFFF & (uint32_t)CAN_FilterInitStruct->CAN_FilterMaskIdLow) << 16) |
 450              		.loc 1 318 0
 451 0254 00F14803 		add	r3, r0, #72
 452 0258 41F83320 		str	r2, [r1, r3, lsl #3]
 321:../../source/src/FWlib/src/stm32f10x_can.c **** 
 322:../../source/src/FWlib/src/stm32f10x_can.c ****     /* Second 16-bit identifier and Second 16-bit mask */
 323:../../source/src/FWlib/src/stm32f10x_can.c ****     /* Or Third 16-bit identifier and Fourth 16-bit identifier */
 324:../../source/src/FWlib/src/stm32f10x_can.c ****     CAN1->sFilterRegister[CAN_FilterInitStruct->CAN_FilterNumber].FR2 = 
 325:../../source/src/FWlib/src/stm32f10x_can.c ****     ((0x0000FFFF & (uint32_t)CAN_FilterInitStruct->CAN_FilterMaskIdHigh) << 16) |
 453              		.loc 1 325 0
 454 025c 7B68     		ldr	r3, [r7, #4]
 455 025e 9B88     		ldrh	r3, [r3, #4]
 456 0260 1B04     		lsls	r3, r3, #16
 326:../../source/src/FWlib/src/stm32f10x_can.c ****         (0x0000FFFF & (uint32_t)CAN_FilterInitStruct->CAN_FilterIdHigh);
 457              		.loc 1 326 0
 458 0262 7A68     		ldr	r2, [r7, #4]
ARM GAS  G:\Users\Jaxb\AppData\Local\Temp\cc1bUhhc.s 			page 15


 459 0264 1288     		ldrh	r2, [r2]
 460 0266 1446     		mov	r4, r2
 324:../../source/src/FWlib/src/stm32f10x_can.c ****     ((0x0000FFFF & (uint32_t)CAN_FilterInitStruct->CAN_FilterMaskIdHigh) << 16) |
 461              		.loc 1 324 0
 462 0268 3F49     		ldr	r1, .L38
 463 026a 7A68     		ldr	r2, [r7, #4]
 464 026c 927A     		ldrb	r2, [r2, #10]	@ zero_extendqisi2
 465 026e 1046     		mov	r0, r2
 325:../../source/src/FWlib/src/stm32f10x_can.c ****         (0x0000FFFF & (uint32_t)CAN_FilterInitStruct->CAN_FilterIdHigh);
 466              		.loc 1 325 0
 467 0270 43EA0402 		orr	r2, r3, r4
 324:../../source/src/FWlib/src/stm32f10x_can.c ****     ((0x0000FFFF & (uint32_t)CAN_FilterInitStruct->CAN_FilterMaskIdHigh) << 16) |
 468              		.loc 1 324 0
 469 0274 00F14803 		add	r3, r0, #72
 470 0278 DB00     		lsls	r3, r3, #3
 471 027a 0B44     		add	r3, r3, r1
 472 027c 5A60     		str	r2, [r3, #4]
 473              	.L31:
 327:../../source/src/FWlib/src/stm32f10x_can.c ****   }
 328:../../source/src/FWlib/src/stm32f10x_can.c **** 
 329:../../source/src/FWlib/src/stm32f10x_can.c ****   if (CAN_FilterInitStruct->CAN_FilterScale == CAN_FilterScale_32bit)
 474              		.loc 1 329 0
 475 027e 7B68     		ldr	r3, [r7, #4]
 476 0280 1B7B     		ldrb	r3, [r3, #12]	@ zero_extendqisi2
 477 0282 012B     		cmp	r3, #1
 478 0284 28D1     		bne	.L32
 330:../../source/src/FWlib/src/stm32f10x_can.c ****   {
 331:../../source/src/FWlib/src/stm32f10x_can.c ****     /* 32-bit scale for the filter */
 332:../../source/src/FWlib/src/stm32f10x_can.c ****     CAN1->FS1R |= filter_number_bit_pos;
 479              		.loc 1 332 0
 480 0286 384B     		ldr	r3, .L38
 481 0288 D3F80C22 		ldr	r2, [r3, #524]
 482 028c 3649     		ldr	r1, .L38
 483 028e FB68     		ldr	r3, [r7, #12]
 484 0290 1343     		orrs	r3, r3, r2
 485 0292 C1F80C32 		str	r3, [r1, #524]
 333:../../source/src/FWlib/src/stm32f10x_can.c ****     /* 32-bit identifier or First 32-bit identifier */
 334:../../source/src/FWlib/src/stm32f10x_can.c ****     CAN1->sFilterRegister[CAN_FilterInitStruct->CAN_FilterNumber].FR1 = 
 335:../../source/src/FWlib/src/stm32f10x_can.c ****     ((0x0000FFFF & (uint32_t)CAN_FilterInitStruct->CAN_FilterIdHigh) << 16) |
 486              		.loc 1 335 0
 487 0296 7B68     		ldr	r3, [r7, #4]
 488 0298 1B88     		ldrh	r3, [r3]
 489 029a 1B04     		lsls	r3, r3, #16
 336:../../source/src/FWlib/src/stm32f10x_can.c ****         (0x0000FFFF & (uint32_t)CAN_FilterInitStruct->CAN_FilterIdLow);
 490              		.loc 1 336 0
 491 029c 7A68     		ldr	r2, [r7, #4]
 492 029e 5288     		ldrh	r2, [r2, #2]
 493 02a0 1446     		mov	r4, r2
 334:../../source/src/FWlib/src/stm32f10x_can.c ****     ((0x0000FFFF & (uint32_t)CAN_FilterInitStruct->CAN_FilterIdHigh) << 16) |
 494              		.loc 1 334 0
 495 02a2 3149     		ldr	r1, .L38
 496 02a4 7A68     		ldr	r2, [r7, #4]
 497 02a6 927A     		ldrb	r2, [r2, #10]	@ zero_extendqisi2
 498 02a8 1046     		mov	r0, r2
 335:../../source/src/FWlib/src/stm32f10x_can.c ****         (0x0000FFFF & (uint32_t)CAN_FilterInitStruct->CAN_FilterIdLow);
 499              		.loc 1 335 0
 500 02aa 43EA0402 		orr	r2, r3, r4
ARM GAS  G:\Users\Jaxb\AppData\Local\Temp\cc1bUhhc.s 			page 16


 334:../../source/src/FWlib/src/stm32f10x_can.c ****     ((0x0000FFFF & (uint32_t)CAN_FilterInitStruct->CAN_FilterIdHigh) << 16) |
 501              		.loc 1 334 0
 502 02ae 00F14803 		add	r3, r0, #72
 503 02b2 41F83320 		str	r2, [r1, r3, lsl #3]
 337:../../source/src/FWlib/src/stm32f10x_can.c ****     /* 32-bit mask or Second 32-bit identifier */
 338:../../source/src/FWlib/src/stm32f10x_can.c ****     CAN1->sFilterRegister[CAN_FilterInitStruct->CAN_FilterNumber].FR2 = 
 339:../../source/src/FWlib/src/stm32f10x_can.c ****     ((0x0000FFFF & (uint32_t)CAN_FilterInitStruct->CAN_FilterMaskIdHigh) << 16) |
 504              		.loc 1 339 0
 505 02b6 7B68     		ldr	r3, [r7, #4]
 506 02b8 9B88     		ldrh	r3, [r3, #4]
 507 02ba 1B04     		lsls	r3, r3, #16
 340:../../source/src/FWlib/src/stm32f10x_can.c ****         (0x0000FFFF & (uint32_t)CAN_FilterInitStruct->CAN_FilterMaskIdLow);
 508              		.loc 1 340 0
 509 02bc 7A68     		ldr	r2, [r7, #4]
 510 02be D288     		ldrh	r2, [r2, #6]
 511 02c0 1446     		mov	r4, r2
 338:../../source/src/FWlib/src/stm32f10x_can.c ****     ((0x0000FFFF & (uint32_t)CAN_FilterInitStruct->CAN_FilterMaskIdHigh) << 16) |
 512              		.loc 1 338 0
 513 02c2 2949     		ldr	r1, .L38
 514 02c4 7A68     		ldr	r2, [r7, #4]
 515 02c6 927A     		ldrb	r2, [r2, #10]	@ zero_extendqisi2
 516 02c8 1046     		mov	r0, r2
 339:../../source/src/FWlib/src/stm32f10x_can.c ****         (0x0000FFFF & (uint32_t)CAN_FilterInitStruct->CAN_FilterMaskIdLow);
 517              		.loc 1 339 0
 518 02ca 43EA0402 		orr	r2, r3, r4
 338:../../source/src/FWlib/src/stm32f10x_can.c ****     ((0x0000FFFF & (uint32_t)CAN_FilterInitStruct->CAN_FilterMaskIdHigh) << 16) |
 519              		.loc 1 338 0
 520 02ce 00F14803 		add	r3, r0, #72
 521 02d2 DB00     		lsls	r3, r3, #3
 522 02d4 0B44     		add	r3, r3, r1
 523 02d6 5A60     		str	r2, [r3, #4]
 524              	.L32:
 341:../../source/src/FWlib/src/stm32f10x_can.c ****   }
 342:../../source/src/FWlib/src/stm32f10x_can.c **** 
 343:../../source/src/FWlib/src/stm32f10x_can.c ****   /* Filter Mode */
 344:../../source/src/FWlib/src/stm32f10x_can.c ****   if (CAN_FilterInitStruct->CAN_FilterMode == CAN_FilterMode_IdMask)
 525              		.loc 1 344 0
 526 02d8 7B68     		ldr	r3, [r7, #4]
 527 02da DB7A     		ldrb	r3, [r3, #11]	@ zero_extendqisi2
 528 02dc 002B     		cmp	r3, #0
 529 02de 09D1     		bne	.L33
 345:../../source/src/FWlib/src/stm32f10x_can.c ****   {
 346:../../source/src/FWlib/src/stm32f10x_can.c ****     /*Id/Mask mode for the filter*/
 347:../../source/src/FWlib/src/stm32f10x_can.c ****     CAN1->FM1R &= ~(uint32_t)filter_number_bit_pos;
 530              		.loc 1 347 0
 531 02e0 214B     		ldr	r3, .L38
 532 02e2 D3F80422 		ldr	r2, [r3, #516]
 533 02e6 FB68     		ldr	r3, [r7, #12]
 534 02e8 DB43     		mvns	r3, r3
 535 02ea 1F49     		ldr	r1, .L38
 536 02ec 1340     		ands	r3, r3, r2
 537 02ee C1F80432 		str	r3, [r1, #516]
 538 02f2 07E0     		b	.L34
 539              	.L33:
 348:../../source/src/FWlib/src/stm32f10x_can.c ****   }
 349:../../source/src/FWlib/src/stm32f10x_can.c ****   else /* CAN_FilterInitStruct->CAN_FilterMode == CAN_FilterMode_IdList */
 350:../../source/src/FWlib/src/stm32f10x_can.c ****   {
ARM GAS  G:\Users\Jaxb\AppData\Local\Temp\cc1bUhhc.s 			page 17


 351:../../source/src/FWlib/src/stm32f10x_can.c ****     /*Identifier list mode for the filter*/
 352:../../source/src/FWlib/src/stm32f10x_can.c ****     CAN1->FM1R |= (uint32_t)filter_number_bit_pos;
 540              		.loc 1 352 0
 541 02f4 1C4B     		ldr	r3, .L38
 542 02f6 D3F80422 		ldr	r2, [r3, #516]
 543 02fa 1B49     		ldr	r1, .L38
 544 02fc FB68     		ldr	r3, [r7, #12]
 545 02fe 1343     		orrs	r3, r3, r2
 546 0300 C1F80432 		str	r3, [r1, #516]
 547              	.L34:
 353:../../source/src/FWlib/src/stm32f10x_can.c ****   }
 354:../../source/src/FWlib/src/stm32f10x_can.c **** 
 355:../../source/src/FWlib/src/stm32f10x_can.c ****   /* Filter FIFO assignment */
 356:../../source/src/FWlib/src/stm32f10x_can.c ****   if (CAN_FilterInitStruct->CAN_FilterFIFOAssignment == CAN_Filter_FIFO0)
 548              		.loc 1 356 0
 549 0304 7B68     		ldr	r3, [r7, #4]
 550 0306 1B89     		ldrh	r3, [r3, #8]
 551 0308 002B     		cmp	r3, #0
 552 030a 08D1     		bne	.L35
 357:../../source/src/FWlib/src/stm32f10x_can.c ****   {
 358:../../source/src/FWlib/src/stm32f10x_can.c ****     /* FIFO 0 assignation for the filter */
 359:../../source/src/FWlib/src/stm32f10x_can.c ****     CAN1->FFA1R &= ~(uint32_t)filter_number_bit_pos;
 553              		.loc 1 359 0
 554 030c 164B     		ldr	r3, .L38
 555 030e D3F81422 		ldr	r2, [r3, #532]
 556 0312 FB68     		ldr	r3, [r7, #12]
 557 0314 DB43     		mvns	r3, r3
 558 0316 1449     		ldr	r1, .L38
 559 0318 1340     		ands	r3, r3, r2
 560 031a C1F81432 		str	r3, [r1, #532]
 561              	.L35:
 360:../../source/src/FWlib/src/stm32f10x_can.c ****   }
 361:../../source/src/FWlib/src/stm32f10x_can.c **** 
 362:../../source/src/FWlib/src/stm32f10x_can.c ****   if (CAN_FilterInitStruct->CAN_FilterFIFOAssignment == CAN_Filter_FIFO1)
 562              		.loc 1 362 0
 563 031e 7B68     		ldr	r3, [r7, #4]
 564 0320 1B89     		ldrh	r3, [r3, #8]
 565 0322 012B     		cmp	r3, #1
 566 0324 07D1     		bne	.L36
 363:../../source/src/FWlib/src/stm32f10x_can.c ****   {
 364:../../source/src/FWlib/src/stm32f10x_can.c ****     /* FIFO 1 assignation for the filter */
 365:../../source/src/FWlib/src/stm32f10x_can.c ****     CAN1->FFA1R |= (uint32_t)filter_number_bit_pos;
 567              		.loc 1 365 0
 568 0326 104B     		ldr	r3, .L38
 569 0328 D3F81422 		ldr	r2, [r3, #532]
 570 032c 0E49     		ldr	r1, .L38
 571 032e FB68     		ldr	r3, [r7, #12]
 572 0330 1343     		orrs	r3, r3, r2
 573 0332 C1F81432 		str	r3, [r1, #532]
 574              	.L36:
 366:../../source/src/FWlib/src/stm32f10x_can.c ****   }
 367:../../source/src/FWlib/src/stm32f10x_can.c ****   
 368:../../source/src/FWlib/src/stm32f10x_can.c ****   /* Filter activation */
 369:../../source/src/FWlib/src/stm32f10x_can.c ****   if (CAN_FilterInitStruct->CAN_FilterActivation == ENABLE)
 575              		.loc 1 369 0
 576 0336 7B68     		ldr	r3, [r7, #4]
 577 0338 5B7B     		ldrb	r3, [r3, #13]	@ zero_extendqisi2
ARM GAS  G:\Users\Jaxb\AppData\Local\Temp\cc1bUhhc.s 			page 18


 578 033a 012B     		cmp	r3, #1
 579 033c 07D1     		bne	.L37
 370:../../source/src/FWlib/src/stm32f10x_can.c ****   {
 371:../../source/src/FWlib/src/stm32f10x_can.c ****     CAN1->FA1R |= filter_number_bit_pos;
 580              		.loc 1 371 0
 581 033e 0A4B     		ldr	r3, .L38
 582 0340 D3F81C22 		ldr	r2, [r3, #540]
 583 0344 0849     		ldr	r1, .L38
 584 0346 FB68     		ldr	r3, [r7, #12]
 585 0348 1343     		orrs	r3, r3, r2
 586 034a C1F81C32 		str	r3, [r1, #540]
 587              	.L37:
 372:../../source/src/FWlib/src/stm32f10x_can.c ****   }
 373:../../source/src/FWlib/src/stm32f10x_can.c **** 
 374:../../source/src/FWlib/src/stm32f10x_can.c ****   /* Leave the initialisation mode for the filter */
 375:../../source/src/FWlib/src/stm32f10x_can.c ****   CAN1->FMR &= ~FMR_FINIT;
 588              		.loc 1 375 0
 589 034e 064B     		ldr	r3, .L38
 590 0350 D3F80032 		ldr	r3, [r3, #512]
 591 0354 044A     		ldr	r2, .L38
 592 0356 23F00103 		bic	r3, r3, #1
 593 035a C2F80032 		str	r3, [r2, #512]
 376:../../source/src/FWlib/src/stm32f10x_can.c **** }
 594              		.loc 1 376 0
 595 035e 00BF     		nop
 596 0360 1037     		adds	r7, r7, #16
 597              	.LCFI14:
 598              		.cfi_def_cfa_offset 8
 599 0362 BD46     		mov	sp, r7
 600              	.LCFI15:
 601              		.cfi_def_cfa_register 13
 602              		@ sp needed
 603 0364 90BC     		pop	{r4, r7}
 604              	.LCFI16:
 605              		.cfi_restore 7
 606              		.cfi_restore 4
 607              		.cfi_def_cfa_offset 0
 608 0366 7047     		bx	lr
 609              	.L39:
 610              		.align	2
 611              	.L38:
 612 0368 00640040 		.word	1073767424
 613              		.cfi_endproc
 614              	.LFE31:
 615              		.size	CAN_FilterInit, .-CAN_FilterInit
 616              		.align	1
 617              		.global	CAN_StructInit
 618              		.syntax unified
 619              		.thumb
 620              		.thumb_func
 621              		.fpu softvfp
 622              		.type	CAN_StructInit, %function
 623              	CAN_StructInit:
 624              	.LFB32:
 377:../../source/src/FWlib/src/stm32f10x_can.c **** 
 378:../../source/src/FWlib/src/stm32f10x_can.c **** /**
 379:../../source/src/FWlib/src/stm32f10x_can.c ****   * @brief  Fills each CAN_InitStruct member with its default value.
ARM GAS  G:\Users\Jaxb\AppData\Local\Temp\cc1bUhhc.s 			page 19


 380:../../source/src/FWlib/src/stm32f10x_can.c ****   * @param  CAN_InitStruct: pointer to a CAN_InitTypeDef structure which
 381:../../source/src/FWlib/src/stm32f10x_can.c ****   *                         will be initialized.
 382:../../source/src/FWlib/src/stm32f10x_can.c ****   * @retval None.
 383:../../source/src/FWlib/src/stm32f10x_can.c ****   */
 384:../../source/src/FWlib/src/stm32f10x_can.c **** void CAN_StructInit(CAN_InitTypeDef* CAN_InitStruct)
 385:../../source/src/FWlib/src/stm32f10x_can.c **** {
 625              		.loc 1 385 0
 626              		.cfi_startproc
 627              		@ args = 0, pretend = 0, frame = 8
 628              		@ frame_needed = 1, uses_anonymous_args = 0
 629              		@ link register save eliminated.
 630 036c 80B4     		push	{r7}
 631              	.LCFI17:
 632              		.cfi_def_cfa_offset 4
 633              		.cfi_offset 7, -4
 634 036e 83B0     		sub	sp, sp, #12
 635              	.LCFI18:
 636              		.cfi_def_cfa_offset 16
 637 0370 00AF     		add	r7, sp, #0
 638              	.LCFI19:
 639              		.cfi_def_cfa_register 7
 640 0372 7860     		str	r0, [r7, #4]
 386:../../source/src/FWlib/src/stm32f10x_can.c ****   /* Reset CAN init structure parameters values */
 387:../../source/src/FWlib/src/stm32f10x_can.c ****   
 388:../../source/src/FWlib/src/stm32f10x_can.c ****   /* Initialize the time triggered communication mode */
 389:../../source/src/FWlib/src/stm32f10x_can.c ****   CAN_InitStruct->CAN_TTCM = DISABLE;
 641              		.loc 1 389 0
 642 0374 7B68     		ldr	r3, [r7, #4]
 643 0376 0022     		movs	r2, #0
 644 0378 9A71     		strb	r2, [r3, #6]
 390:../../source/src/FWlib/src/stm32f10x_can.c ****   
 391:../../source/src/FWlib/src/stm32f10x_can.c ****   /* Initialize the automatic bus-off management */
 392:../../source/src/FWlib/src/stm32f10x_can.c ****   CAN_InitStruct->CAN_ABOM = DISABLE;
 645              		.loc 1 392 0
 646 037a 7B68     		ldr	r3, [r7, #4]
 647 037c 0022     		movs	r2, #0
 648 037e DA71     		strb	r2, [r3, #7]
 393:../../source/src/FWlib/src/stm32f10x_can.c ****   
 394:../../source/src/FWlib/src/stm32f10x_can.c ****   /* Initialize the automatic wake-up mode */
 395:../../source/src/FWlib/src/stm32f10x_can.c ****   CAN_InitStruct->CAN_AWUM = DISABLE;
 649              		.loc 1 395 0
 650 0380 7B68     		ldr	r3, [r7, #4]
 651 0382 0022     		movs	r2, #0
 652 0384 1A72     		strb	r2, [r3, #8]
 396:../../source/src/FWlib/src/stm32f10x_can.c ****   
 397:../../source/src/FWlib/src/stm32f10x_can.c ****   /* Initialize the no automatic retransmission */
 398:../../source/src/FWlib/src/stm32f10x_can.c ****   CAN_InitStruct->CAN_NART = DISABLE;
 653              		.loc 1 398 0
 654 0386 7B68     		ldr	r3, [r7, #4]
 655 0388 0022     		movs	r2, #0
 656 038a 5A72     		strb	r2, [r3, #9]
 399:../../source/src/FWlib/src/stm32f10x_can.c ****   
 400:../../source/src/FWlib/src/stm32f10x_can.c ****   /* Initialize the receive FIFO locked mode */
 401:../../source/src/FWlib/src/stm32f10x_can.c ****   CAN_InitStruct->CAN_RFLM = DISABLE;
 657              		.loc 1 401 0
 658 038c 7B68     		ldr	r3, [r7, #4]
 659 038e 0022     		movs	r2, #0
ARM GAS  G:\Users\Jaxb\AppData\Local\Temp\cc1bUhhc.s 			page 20


 660 0390 9A72     		strb	r2, [r3, #10]
 402:../../source/src/FWlib/src/stm32f10x_can.c ****   
 403:../../source/src/FWlib/src/stm32f10x_can.c ****   /* Initialize the transmit FIFO priority */
 404:../../source/src/FWlib/src/stm32f10x_can.c ****   CAN_InitStruct->CAN_TXFP = DISABLE;
 661              		.loc 1 404 0
 662 0392 7B68     		ldr	r3, [r7, #4]
 663 0394 0022     		movs	r2, #0
 664 0396 DA72     		strb	r2, [r3, #11]
 405:../../source/src/FWlib/src/stm32f10x_can.c ****   
 406:../../source/src/FWlib/src/stm32f10x_can.c ****   /* Initialize the CAN_Mode member */
 407:../../source/src/FWlib/src/stm32f10x_can.c ****   CAN_InitStruct->CAN_Mode = CAN_Mode_Normal;
 665              		.loc 1 407 0
 666 0398 7B68     		ldr	r3, [r7, #4]
 667 039a 0022     		movs	r2, #0
 668 039c 9A70     		strb	r2, [r3, #2]
 408:../../source/src/FWlib/src/stm32f10x_can.c ****   
 409:../../source/src/FWlib/src/stm32f10x_can.c ****   /* Initialize the CAN_SJW member */
 410:../../source/src/FWlib/src/stm32f10x_can.c ****   CAN_InitStruct->CAN_SJW = CAN_SJW_1tq;
 669              		.loc 1 410 0
 670 039e 7B68     		ldr	r3, [r7, #4]
 671 03a0 0022     		movs	r2, #0
 672 03a2 DA70     		strb	r2, [r3, #3]
 411:../../source/src/FWlib/src/stm32f10x_can.c ****   
 412:../../source/src/FWlib/src/stm32f10x_can.c ****   /* Initialize the CAN_BS1 member */
 413:../../source/src/FWlib/src/stm32f10x_can.c ****   CAN_InitStruct->CAN_BS1 = CAN_BS1_4tq;
 673              		.loc 1 413 0
 674 03a4 7B68     		ldr	r3, [r7, #4]
 675 03a6 0322     		movs	r2, #3
 676 03a8 1A71     		strb	r2, [r3, #4]
 414:../../source/src/FWlib/src/stm32f10x_can.c ****   
 415:../../source/src/FWlib/src/stm32f10x_can.c ****   /* Initialize the CAN_BS2 member */
 416:../../source/src/FWlib/src/stm32f10x_can.c ****   CAN_InitStruct->CAN_BS2 = CAN_BS2_3tq;
 677              		.loc 1 416 0
 678 03aa 7B68     		ldr	r3, [r7, #4]
 679 03ac 0222     		movs	r2, #2
 680 03ae 5A71     		strb	r2, [r3, #5]
 417:../../source/src/FWlib/src/stm32f10x_can.c ****   
 418:../../source/src/FWlib/src/stm32f10x_can.c ****   /* Initialize the CAN_Prescaler member */
 419:../../source/src/FWlib/src/stm32f10x_can.c ****   CAN_InitStruct->CAN_Prescaler = 1;
 681              		.loc 1 419 0
 682 03b0 7B68     		ldr	r3, [r7, #4]
 683 03b2 0122     		movs	r2, #1
 684 03b4 1A80     		strh	r2, [r3]	@ movhi
 420:../../source/src/FWlib/src/stm32f10x_can.c **** }
 685              		.loc 1 420 0
 686 03b6 00BF     		nop
 687 03b8 0C37     		adds	r7, r7, #12
 688              	.LCFI20:
 689              		.cfi_def_cfa_offset 4
 690 03ba BD46     		mov	sp, r7
 691              	.LCFI21:
 692              		.cfi_def_cfa_register 13
 693              		@ sp needed
 694 03bc 80BC     		pop	{r7}
 695              	.LCFI22:
 696              		.cfi_restore 7
 697              		.cfi_def_cfa_offset 0
ARM GAS  G:\Users\Jaxb\AppData\Local\Temp\cc1bUhhc.s 			page 21


 698 03be 7047     		bx	lr
 699              		.cfi_endproc
 700              	.LFE32:
 701              		.size	CAN_StructInit, .-CAN_StructInit
 702              		.align	1
 703              		.global	CAN_SlaveStartBank
 704              		.syntax unified
 705              		.thumb
 706              		.thumb_func
 707              		.fpu softvfp
 708              		.type	CAN_SlaveStartBank, %function
 709              	CAN_SlaveStartBank:
 710              	.LFB33:
 421:../../source/src/FWlib/src/stm32f10x_can.c **** 
 422:../../source/src/FWlib/src/stm32f10x_can.c **** /**
 423:../../source/src/FWlib/src/stm32f10x_can.c ****   * @brief  Select the start bank filter for slave CAN.
 424:../../source/src/FWlib/src/stm32f10x_can.c ****   * @note   This function applies only to STM32 Connectivity line devices.
 425:../../source/src/FWlib/src/stm32f10x_can.c ****   * @param  CAN_BankNumber: Select the start slave bank filter from 1..27.
 426:../../source/src/FWlib/src/stm32f10x_can.c ****   * @retval None.
 427:../../source/src/FWlib/src/stm32f10x_can.c ****   */
 428:../../source/src/FWlib/src/stm32f10x_can.c **** void CAN_SlaveStartBank(uint8_t CAN_BankNumber) 
 429:../../source/src/FWlib/src/stm32f10x_can.c **** {
 711              		.loc 1 429 0
 712              		.cfi_startproc
 713              		@ args = 0, pretend = 0, frame = 8
 714              		@ frame_needed = 1, uses_anonymous_args = 0
 715              		@ link register save eliminated.
 716 03c0 80B4     		push	{r7}
 717              	.LCFI23:
 718              		.cfi_def_cfa_offset 4
 719              		.cfi_offset 7, -4
 720 03c2 83B0     		sub	sp, sp, #12
 721              	.LCFI24:
 722              		.cfi_def_cfa_offset 16
 723 03c4 00AF     		add	r7, sp, #0
 724              	.LCFI25:
 725              		.cfi_def_cfa_register 7
 726 03c6 0346     		mov	r3, r0
 727 03c8 FB71     		strb	r3, [r7, #7]
 430:../../source/src/FWlib/src/stm32f10x_can.c ****   /* Check the parameters */
 431:../../source/src/FWlib/src/stm32f10x_can.c ****   assert_param(IS_CAN_BANKNUMBER(CAN_BankNumber));
 432:../../source/src/FWlib/src/stm32f10x_can.c ****   
 433:../../source/src/FWlib/src/stm32f10x_can.c ****   /* Enter Initialisation mode for the filter */
 434:../../source/src/FWlib/src/stm32f10x_can.c ****   CAN1->FMR |= FMR_FINIT;
 728              		.loc 1 434 0
 729 03ca 144B     		ldr	r3, .L42
 730 03cc D3F80032 		ldr	r3, [r3, #512]
 731 03d0 124A     		ldr	r2, .L42
 732 03d2 43F00103 		orr	r3, r3, #1
 733 03d6 C2F80032 		str	r3, [r2, #512]
 435:../../source/src/FWlib/src/stm32f10x_can.c ****   
 436:../../source/src/FWlib/src/stm32f10x_can.c ****   /* Select the start slave bank */
 437:../../source/src/FWlib/src/stm32f10x_can.c ****   CAN1->FMR &= (uint32_t)0xFFFFC0F1 ;
 734              		.loc 1 437 0
 735 03da 104B     		ldr	r3, .L42
 736 03dc D3F80032 		ldr	r3, [r3, #512]
 737 03e0 0E4A     		ldr	r2, .L42
ARM GAS  G:\Users\Jaxb\AppData\Local\Temp\cc1bUhhc.s 			page 22


 738 03e2 23F47C53 		bic	r3, r3, #16128
 739 03e6 23F00E03 		bic	r3, r3, #14
 740 03ea C2F80032 		str	r3, [r2, #512]
 438:../../source/src/FWlib/src/stm32f10x_can.c ****   CAN1->FMR |= (uint32_t)(CAN_BankNumber)<<8;
 741              		.loc 1 438 0
 742 03ee 0B4B     		ldr	r3, .L42
 743 03f0 D3F80022 		ldr	r2, [r3, #512]
 744 03f4 FB79     		ldrb	r3, [r7, #7]	@ zero_extendqisi2
 745 03f6 1B02     		lsls	r3, r3, #8
 746 03f8 0849     		ldr	r1, .L42
 747 03fa 1343     		orrs	r3, r3, r2
 748 03fc C1F80032 		str	r3, [r1, #512]
 439:../../source/src/FWlib/src/stm32f10x_can.c ****   
 440:../../source/src/FWlib/src/stm32f10x_can.c ****   /* Leave Initialisation mode for the filter */
 441:../../source/src/FWlib/src/stm32f10x_can.c ****   CAN1->FMR &= ~FMR_FINIT;
 749              		.loc 1 441 0
 750 0400 064B     		ldr	r3, .L42
 751 0402 D3F80032 		ldr	r3, [r3, #512]
 752 0406 054A     		ldr	r2, .L42
 753 0408 23F00103 		bic	r3, r3, #1
 754 040c C2F80032 		str	r3, [r2, #512]
 442:../../source/src/FWlib/src/stm32f10x_can.c **** }
 755              		.loc 1 442 0
 756 0410 00BF     		nop
 757 0412 0C37     		adds	r7, r7, #12
 758              	.LCFI26:
 759              		.cfi_def_cfa_offset 4
 760 0414 BD46     		mov	sp, r7
 761              	.LCFI27:
 762              		.cfi_def_cfa_register 13
 763              		@ sp needed
 764 0416 80BC     		pop	{r7}
 765              	.LCFI28:
 766              		.cfi_restore 7
 767              		.cfi_def_cfa_offset 0
 768 0418 7047     		bx	lr
 769              	.L43:
 770 041a 00BF     		.align	2
 771              	.L42:
 772 041c 00640040 		.word	1073767424
 773              		.cfi_endproc
 774              	.LFE33:
 775              		.size	CAN_SlaveStartBank, .-CAN_SlaveStartBank
 776              		.align	1
 777              		.global	CAN_DBGFreeze
 778              		.syntax unified
 779              		.thumb
 780              		.thumb_func
 781              		.fpu softvfp
 782              		.type	CAN_DBGFreeze, %function
 783              	CAN_DBGFreeze:
 784              	.LFB34:
 443:../../source/src/FWlib/src/stm32f10x_can.c **** 
 444:../../source/src/FWlib/src/stm32f10x_can.c **** /**
 445:../../source/src/FWlib/src/stm32f10x_can.c ****   * @brief  Enables or disables the DBG Freeze for CAN.
 446:../../source/src/FWlib/src/stm32f10x_can.c ****   * @param  CANx:     where x can be 1 or 2 to to select the CAN peripheral.
 447:../../source/src/FWlib/src/stm32f10x_can.c ****   * @param  NewState: new state of the CAN peripheral. This parameter can 
ARM GAS  G:\Users\Jaxb\AppData\Local\Temp\cc1bUhhc.s 			page 23


 448:../../source/src/FWlib/src/stm32f10x_can.c ****   *                   be: ENABLE or DISABLE.
 449:../../source/src/FWlib/src/stm32f10x_can.c ****   * @retval None.
 450:../../source/src/FWlib/src/stm32f10x_can.c ****   */
 451:../../source/src/FWlib/src/stm32f10x_can.c **** void CAN_DBGFreeze(CAN_TypeDef* CANx, FunctionalState NewState)
 452:../../source/src/FWlib/src/stm32f10x_can.c **** {
 785              		.loc 1 452 0
 786              		.cfi_startproc
 787              		@ args = 0, pretend = 0, frame = 8
 788              		@ frame_needed = 1, uses_anonymous_args = 0
 789              		@ link register save eliminated.
 790 0420 80B4     		push	{r7}
 791              	.LCFI29:
 792              		.cfi_def_cfa_offset 4
 793              		.cfi_offset 7, -4
 794 0422 83B0     		sub	sp, sp, #12
 795              	.LCFI30:
 796              		.cfi_def_cfa_offset 16
 797 0424 00AF     		add	r7, sp, #0
 798              	.LCFI31:
 799              		.cfi_def_cfa_register 7
 800 0426 7860     		str	r0, [r7, #4]
 801 0428 0B46     		mov	r3, r1
 802 042a FB70     		strb	r3, [r7, #3]
 453:../../source/src/FWlib/src/stm32f10x_can.c ****   /* Check the parameters */
 454:../../source/src/FWlib/src/stm32f10x_can.c ****   assert_param(IS_CAN_ALL_PERIPH(CANx));
 455:../../source/src/FWlib/src/stm32f10x_can.c ****   assert_param(IS_FUNCTIONAL_STATE(NewState));
 456:../../source/src/FWlib/src/stm32f10x_can.c ****   
 457:../../source/src/FWlib/src/stm32f10x_can.c ****   if (NewState != DISABLE)
 803              		.loc 1 457 0
 804 042c FB78     		ldrb	r3, [r7, #3]	@ zero_extendqisi2
 805 042e 002B     		cmp	r3, #0
 806 0430 06D0     		beq	.L45
 458:../../source/src/FWlib/src/stm32f10x_can.c ****   {
 459:../../source/src/FWlib/src/stm32f10x_can.c ****     /* Enable Debug Freeze  */
 460:../../source/src/FWlib/src/stm32f10x_can.c ****     CANx->MCR |= MCR_DBF;
 807              		.loc 1 460 0
 808 0432 7B68     		ldr	r3, [r7, #4]
 809 0434 1B68     		ldr	r3, [r3]
 810 0436 43F48032 		orr	r2, r3, #65536
 811 043a 7B68     		ldr	r3, [r7, #4]
 812 043c 1A60     		str	r2, [r3]
 461:../../source/src/FWlib/src/stm32f10x_can.c ****   }
 462:../../source/src/FWlib/src/stm32f10x_can.c ****   else
 463:../../source/src/FWlib/src/stm32f10x_can.c ****   {
 464:../../source/src/FWlib/src/stm32f10x_can.c ****     /* Disable Debug Freeze */
 465:../../source/src/FWlib/src/stm32f10x_can.c ****     CANx->MCR &= ~MCR_DBF;
 466:../../source/src/FWlib/src/stm32f10x_can.c ****   }
 467:../../source/src/FWlib/src/stm32f10x_can.c **** }
 813              		.loc 1 467 0
 814 043e 05E0     		b	.L47
 815              	.L45:
 465:../../source/src/FWlib/src/stm32f10x_can.c ****   }
 816              		.loc 1 465 0
 817 0440 7B68     		ldr	r3, [r7, #4]
 818 0442 1B68     		ldr	r3, [r3]
 819 0444 23F48032 		bic	r2, r3, #65536
 820 0448 7B68     		ldr	r3, [r7, #4]
ARM GAS  G:\Users\Jaxb\AppData\Local\Temp\cc1bUhhc.s 			page 24


 821 044a 1A60     		str	r2, [r3]
 822              	.L47:
 823              		.loc 1 467 0
 824 044c 00BF     		nop
 825 044e 0C37     		adds	r7, r7, #12
 826              	.LCFI32:
 827              		.cfi_def_cfa_offset 4
 828 0450 BD46     		mov	sp, r7
 829              	.LCFI33:
 830              		.cfi_def_cfa_register 13
 831              		@ sp needed
 832 0452 80BC     		pop	{r7}
 833              	.LCFI34:
 834              		.cfi_restore 7
 835              		.cfi_def_cfa_offset 0
 836 0454 7047     		bx	lr
 837              		.cfi_endproc
 838              	.LFE34:
 839              		.size	CAN_DBGFreeze, .-CAN_DBGFreeze
 840              		.align	1
 841              		.global	CAN_TTComModeCmd
 842              		.syntax unified
 843              		.thumb
 844              		.thumb_func
 845              		.fpu softvfp
 846              		.type	CAN_TTComModeCmd, %function
 847              	CAN_TTComModeCmd:
 848              	.LFB35:
 468:../../source/src/FWlib/src/stm32f10x_can.c **** 
 469:../../source/src/FWlib/src/stm32f10x_can.c **** 
 470:../../source/src/FWlib/src/stm32f10x_can.c **** /**
 471:../../source/src/FWlib/src/stm32f10x_can.c ****   * @brief  Enables or disabes the CAN Time TriggerOperation communication mode.
 472:../../source/src/FWlib/src/stm32f10x_can.c ****   * @param  CANx:      where x can be 1 or 2 to to select the CAN peripheral.
 473:../../source/src/FWlib/src/stm32f10x_can.c ****   * @param  NewState : Mode new state , can be one of @ref FunctionalState.
 474:../../source/src/FWlib/src/stm32f10x_can.c ****   * @note   when enabled, Time stamp (TIME[15:0]) value is sent in the last 
 475:../../source/src/FWlib/src/stm32f10x_can.c ****   *         two data bytes of the 8-byte message: TIME[7:0] in data byte 6 
 476:../../source/src/FWlib/src/stm32f10x_can.c ****   *         and TIME[15:8] in data byte 7 
 477:../../source/src/FWlib/src/stm32f10x_can.c ****   * @note   DLC must be programmed as 8 in order Time Stamp (2 bytes) to be 
 478:../../source/src/FWlib/src/stm32f10x_can.c ****   *         sent over the CAN bus.  
 479:../../source/src/FWlib/src/stm32f10x_can.c ****   * @retval None
 480:../../source/src/FWlib/src/stm32f10x_can.c ****   */
 481:../../source/src/FWlib/src/stm32f10x_can.c **** void CAN_TTComModeCmd(CAN_TypeDef* CANx, FunctionalState NewState)
 482:../../source/src/FWlib/src/stm32f10x_can.c **** {
 849              		.loc 1 482 0
 850              		.cfi_startproc
 851              		@ args = 0, pretend = 0, frame = 8
 852              		@ frame_needed = 1, uses_anonymous_args = 0
 853              		@ link register save eliminated.
 854 0456 80B4     		push	{r7}
 855              	.LCFI35:
 856              		.cfi_def_cfa_offset 4
 857              		.cfi_offset 7, -4
 858 0458 83B0     		sub	sp, sp, #12
 859              	.LCFI36:
 860              		.cfi_def_cfa_offset 16
 861 045a 00AF     		add	r7, sp, #0
 862              	.LCFI37:
ARM GAS  G:\Users\Jaxb\AppData\Local\Temp\cc1bUhhc.s 			page 25


 863              		.cfi_def_cfa_register 7
 864 045c 7860     		str	r0, [r7, #4]
 865 045e 0B46     		mov	r3, r1
 866 0460 FB70     		strb	r3, [r7, #3]
 483:../../source/src/FWlib/src/stm32f10x_can.c ****   /* Check the parameters */
 484:../../source/src/FWlib/src/stm32f10x_can.c ****   assert_param(IS_CAN_ALL_PERIPH(CANx));
 485:../../source/src/FWlib/src/stm32f10x_can.c ****   assert_param(IS_FUNCTIONAL_STATE(NewState));
 486:../../source/src/FWlib/src/stm32f10x_can.c ****   if (NewState != DISABLE)
 867              		.loc 1 486 0
 868 0462 FB78     		ldrb	r3, [r7, #3]	@ zero_extendqisi2
 869 0464 002B     		cmp	r3, #0
 870 0466 1ED0     		beq	.L49
 487:../../source/src/FWlib/src/stm32f10x_can.c ****   {
 488:../../source/src/FWlib/src/stm32f10x_can.c ****     /* Enable the TTCM mode */
 489:../../source/src/FWlib/src/stm32f10x_can.c ****     CANx->MCR |= CAN_MCR_TTCM;
 871              		.loc 1 489 0
 872 0468 7B68     		ldr	r3, [r7, #4]
 873 046a 1B68     		ldr	r3, [r3]
 874 046c 43F08002 		orr	r2, r3, #128
 875 0470 7B68     		ldr	r3, [r7, #4]
 876 0472 1A60     		str	r2, [r3]
 490:../../source/src/FWlib/src/stm32f10x_can.c **** 
 491:../../source/src/FWlib/src/stm32f10x_can.c ****     /* Set TGT bits */
 492:../../source/src/FWlib/src/stm32f10x_can.c ****     CANx->sTxMailBox[0].TDTR |= ((uint32_t)CAN_TDT0R_TGT);
 877              		.loc 1 492 0
 878 0474 7B68     		ldr	r3, [r7, #4]
 879 0476 D3F88431 		ldr	r3, [r3, #388]
 880 047a 43F48072 		orr	r2, r3, #256
 881 047e 7B68     		ldr	r3, [r7, #4]
 882 0480 C3F88421 		str	r2, [r3, #388]
 493:../../source/src/FWlib/src/stm32f10x_can.c ****     CANx->sTxMailBox[1].TDTR |= ((uint32_t)CAN_TDT1R_TGT);
 883              		.loc 1 493 0
 884 0484 7B68     		ldr	r3, [r7, #4]
 885 0486 D3F89431 		ldr	r3, [r3, #404]
 886 048a 43F48072 		orr	r2, r3, #256
 887 048e 7B68     		ldr	r3, [r7, #4]
 888 0490 C3F89421 		str	r2, [r3, #404]
 494:../../source/src/FWlib/src/stm32f10x_can.c ****     CANx->sTxMailBox[2].TDTR |= ((uint32_t)CAN_TDT2R_TGT);
 889              		.loc 1 494 0
 890 0494 7B68     		ldr	r3, [r7, #4]
 891 0496 D3F8A431 		ldr	r3, [r3, #420]
 892 049a 43F48072 		orr	r2, r3, #256
 893 049e 7B68     		ldr	r3, [r7, #4]
 894 04a0 C3F8A421 		str	r2, [r3, #420]
 495:../../source/src/FWlib/src/stm32f10x_can.c ****   }
 496:../../source/src/FWlib/src/stm32f10x_can.c ****   else
 497:../../source/src/FWlib/src/stm32f10x_can.c ****   {
 498:../../source/src/FWlib/src/stm32f10x_can.c ****     /* Disable the TTCM mode */
 499:../../source/src/FWlib/src/stm32f10x_can.c ****     CANx->MCR &= (uint32_t)(~(uint32_t)CAN_MCR_TTCM);
 500:../../source/src/FWlib/src/stm32f10x_can.c **** 
 501:../../source/src/FWlib/src/stm32f10x_can.c ****     /* Reset TGT bits */
 502:../../source/src/FWlib/src/stm32f10x_can.c ****     CANx->sTxMailBox[0].TDTR &= ((uint32_t)~CAN_TDT0R_TGT);
 503:../../source/src/FWlib/src/stm32f10x_can.c ****     CANx->sTxMailBox[1].TDTR &= ((uint32_t)~CAN_TDT1R_TGT);
 504:../../source/src/FWlib/src/stm32f10x_can.c ****     CANx->sTxMailBox[2].TDTR &= ((uint32_t)~CAN_TDT2R_TGT);
 505:../../source/src/FWlib/src/stm32f10x_can.c ****   }
 506:../../source/src/FWlib/src/stm32f10x_can.c **** }
 895              		.loc 1 506 0
ARM GAS  G:\Users\Jaxb\AppData\Local\Temp\cc1bUhhc.s 			page 26


 896 04a4 1DE0     		b	.L51
 897              	.L49:
 499:../../source/src/FWlib/src/stm32f10x_can.c **** 
 898              		.loc 1 499 0
 899 04a6 7B68     		ldr	r3, [r7, #4]
 900 04a8 1B68     		ldr	r3, [r3]
 901 04aa 23F08002 		bic	r2, r3, #128
 902 04ae 7B68     		ldr	r3, [r7, #4]
 903 04b0 1A60     		str	r2, [r3]
 502:../../source/src/FWlib/src/stm32f10x_can.c ****     CANx->sTxMailBox[1].TDTR &= ((uint32_t)~CAN_TDT1R_TGT);
 904              		.loc 1 502 0
 905 04b2 7B68     		ldr	r3, [r7, #4]
 906 04b4 D3F88431 		ldr	r3, [r3, #388]
 907 04b8 23F48072 		bic	r2, r3, #256
 908 04bc 7B68     		ldr	r3, [r7, #4]
 909 04be C3F88421 		str	r2, [r3, #388]
 503:../../source/src/FWlib/src/stm32f10x_can.c ****     CANx->sTxMailBox[2].TDTR &= ((uint32_t)~CAN_TDT2R_TGT);
 910              		.loc 1 503 0
 911 04c2 7B68     		ldr	r3, [r7, #4]
 912 04c4 D3F89431 		ldr	r3, [r3, #404]
 913 04c8 23F48072 		bic	r2, r3, #256
 914 04cc 7B68     		ldr	r3, [r7, #4]
 915 04ce C3F89421 		str	r2, [r3, #404]
 504:../../source/src/FWlib/src/stm32f10x_can.c ****   }
 916              		.loc 1 504 0
 917 04d2 7B68     		ldr	r3, [r7, #4]
 918 04d4 D3F8A431 		ldr	r3, [r3, #420]
 919 04d8 23F48072 		bic	r2, r3, #256
 920 04dc 7B68     		ldr	r3, [r7, #4]
 921 04de C3F8A421 		str	r2, [r3, #420]
 922              	.L51:
 923              		.loc 1 506 0
 924 04e2 00BF     		nop
 925 04e4 0C37     		adds	r7, r7, #12
 926              	.LCFI38:
 927              		.cfi_def_cfa_offset 4
 928 04e6 BD46     		mov	sp, r7
 929              	.LCFI39:
 930              		.cfi_def_cfa_register 13
 931              		@ sp needed
 932 04e8 80BC     		pop	{r7}
 933              	.LCFI40:
 934              		.cfi_restore 7
 935              		.cfi_def_cfa_offset 0
 936 04ea 7047     		bx	lr
 937              		.cfi_endproc
 938              	.LFE35:
 939              		.size	CAN_TTComModeCmd, .-CAN_TTComModeCmd
 940              		.align	1
 941              		.global	CAN_Transmit
 942              		.syntax unified
 943              		.thumb
 944              		.thumb_func
 945              		.fpu softvfp
 946              		.type	CAN_Transmit, %function
 947              	CAN_Transmit:
 948              	.LFB36:
ARM GAS  G:\Users\Jaxb\AppData\Local\Temp\cc1bUhhc.s 			page 27


 507:../../source/src/FWlib/src/stm32f10x_can.c **** /**
 508:../../source/src/FWlib/src/stm32f10x_can.c ****   * @brief  Initiates the transmission of a message.
 509:../../source/src/FWlib/src/stm32f10x_can.c ****   * @param  CANx:      where x can be 1 or 2 to to select the CAN peripheral.
 510:../../source/src/FWlib/src/stm32f10x_can.c ****   * @param  TxMessage: pointer to a structure which contains CAN Id, CAN
 511:../../source/src/FWlib/src/stm32f10x_can.c ****   *                    DLC and CAN data.
 512:../../source/src/FWlib/src/stm32f10x_can.c ****   * @retval The number of the mailbox that is used for transmission
 513:../../source/src/FWlib/src/stm32f10x_can.c ****   *                    or CAN_TxStatus_NoMailBox if there is no empty mailbox.
 514:../../source/src/FWlib/src/stm32f10x_can.c ****   */
 515:../../source/src/FWlib/src/stm32f10x_can.c **** uint8_t CAN_Transmit(CAN_TypeDef* CANx, CanTxMsg* TxMessage)
 516:../../source/src/FWlib/src/stm32f10x_can.c **** {
 949              		.loc 1 516 0
 950              		.cfi_startproc
 951              		@ args = 0, pretend = 0, frame = 16
 952              		@ frame_needed = 1, uses_anonymous_args = 0
 953              		@ link register save eliminated.
 954 04ec 80B4     		push	{r7}
 955              	.LCFI41:
 956              		.cfi_def_cfa_offset 4
 957              		.cfi_offset 7, -4
 958 04ee 85B0     		sub	sp, sp, #20
 959              	.LCFI42:
 960              		.cfi_def_cfa_offset 24
 961 04f0 00AF     		add	r7, sp, #0
 962              	.LCFI43:
 963              		.cfi_def_cfa_register 7
 964 04f2 7860     		str	r0, [r7, #4]
 965 04f4 3960     		str	r1, [r7]
 517:../../source/src/FWlib/src/stm32f10x_can.c ****   uint8_t transmit_mailbox = 0;
 966              		.loc 1 517 0
 967 04f6 0023     		movs	r3, #0
 968 04f8 FB73     		strb	r3, [r7, #15]
 518:../../source/src/FWlib/src/stm32f10x_can.c ****   /* Check the parameters */
 519:../../source/src/FWlib/src/stm32f10x_can.c ****   assert_param(IS_CAN_ALL_PERIPH(CANx));
 520:../../source/src/FWlib/src/stm32f10x_can.c ****   assert_param(IS_CAN_IDTYPE(TxMessage->IDE));
 521:../../source/src/FWlib/src/stm32f10x_can.c ****   assert_param(IS_CAN_RTR(TxMessage->RTR));
 522:../../source/src/FWlib/src/stm32f10x_can.c ****   assert_param(IS_CAN_DLC(TxMessage->DLC));
 523:../../source/src/FWlib/src/stm32f10x_can.c **** 
 524:../../source/src/FWlib/src/stm32f10x_can.c ****   /* Select one empty transmit mailbox */
 525:../../source/src/FWlib/src/stm32f10x_can.c ****   if ((CANx->TSR&CAN_TSR_TME0) == CAN_TSR_TME0)
 969              		.loc 1 525 0
 970 04fa 7B68     		ldr	r3, [r7, #4]
 971 04fc 9B68     		ldr	r3, [r3, #8]
 972 04fe 03F08063 		and	r3, r3, #67108864
 973 0502 B3F1806F 		cmp	r3, #67108864
 974 0506 02D1     		bne	.L53
 526:../../source/src/FWlib/src/stm32f10x_can.c ****   {
 527:../../source/src/FWlib/src/stm32f10x_can.c ****     transmit_mailbox = 0;
 975              		.loc 1 527 0
 976 0508 0023     		movs	r3, #0
 977 050a FB73     		strb	r3, [r7, #15]
 978 050c 15E0     		b	.L54
 979              	.L53:
 528:../../source/src/FWlib/src/stm32f10x_can.c ****   }
 529:../../source/src/FWlib/src/stm32f10x_can.c ****   else if ((CANx->TSR&CAN_TSR_TME1) == CAN_TSR_TME1)
 980              		.loc 1 529 0
 981 050e 7B68     		ldr	r3, [r7, #4]
 982 0510 9B68     		ldr	r3, [r3, #8]
ARM GAS  G:\Users\Jaxb\AppData\Local\Temp\cc1bUhhc.s 			page 28


 983 0512 03F00063 		and	r3, r3, #134217728
 984 0516 B3F1006F 		cmp	r3, #134217728
 985 051a 02D1     		bne	.L55
 530:../../source/src/FWlib/src/stm32f10x_can.c ****   {
 531:../../source/src/FWlib/src/stm32f10x_can.c ****     transmit_mailbox = 1;
 986              		.loc 1 531 0
 987 051c 0123     		movs	r3, #1
 988 051e FB73     		strb	r3, [r7, #15]
 989 0520 0BE0     		b	.L54
 990              	.L55:
 532:../../source/src/FWlib/src/stm32f10x_can.c ****   }
 533:../../source/src/FWlib/src/stm32f10x_can.c ****   else if ((CANx->TSR&CAN_TSR_TME2) == CAN_TSR_TME2)
 991              		.loc 1 533 0
 992 0522 7B68     		ldr	r3, [r7, #4]
 993 0524 9B68     		ldr	r3, [r3, #8]
 994 0526 03F08053 		and	r3, r3, #268435456
 995 052a B3F1805F 		cmp	r3, #268435456
 996 052e 02D1     		bne	.L56
 534:../../source/src/FWlib/src/stm32f10x_can.c ****   {
 535:../../source/src/FWlib/src/stm32f10x_can.c ****     transmit_mailbox = 2;
 997              		.loc 1 535 0
 998 0530 0223     		movs	r3, #2
 999 0532 FB73     		strb	r3, [r7, #15]
 1000 0534 01E0     		b	.L54
 1001              	.L56:
 536:../../source/src/FWlib/src/stm32f10x_can.c ****   }
 537:../../source/src/FWlib/src/stm32f10x_can.c ****   else
 538:../../source/src/FWlib/src/stm32f10x_can.c ****   {
 539:../../source/src/FWlib/src/stm32f10x_can.c ****     transmit_mailbox = CAN_TxStatus_NoMailBox;
 1002              		.loc 1 539 0
 1003 0536 0423     		movs	r3, #4
 1004 0538 FB73     		strb	r3, [r7, #15]
 1005              	.L54:
 540:../../source/src/FWlib/src/stm32f10x_can.c ****   }
 541:../../source/src/FWlib/src/stm32f10x_can.c **** 
 542:../../source/src/FWlib/src/stm32f10x_can.c ****   if (transmit_mailbox != CAN_TxStatus_NoMailBox)
 1006              		.loc 1 542 0
 1007 053a FB7B     		ldrb	r3, [r7, #15]	@ zero_extendqisi2
 1008 053c 042B     		cmp	r3, #4
 1009 053e 00F09F80 		beq	.L57
 543:../../source/src/FWlib/src/stm32f10x_can.c ****   {
 544:../../source/src/FWlib/src/stm32f10x_can.c ****     /* Set up the Id */
 545:../../source/src/FWlib/src/stm32f10x_can.c ****     CANx->sTxMailBox[transmit_mailbox].TIR &= TMIDxR_TXRQ;
 1010              		.loc 1 545 0
 1011 0542 FB7B     		ldrb	r3, [r7, #15]	@ zero_extendqisi2
 1012 0544 7A68     		ldr	r2, [r7, #4]
 1013 0546 1833     		adds	r3, r3, #24
 1014 0548 1B01     		lsls	r3, r3, #4
 1015 054a 1344     		add	r3, r3, r2
 1016 054c 1A68     		ldr	r2, [r3]
 1017 054e FB7B     		ldrb	r3, [r7, #15]	@ zero_extendqisi2
 1018 0550 02F00102 		and	r2, r2, #1
 1019 0554 7968     		ldr	r1, [r7, #4]
 1020 0556 1833     		adds	r3, r3, #24
 1021 0558 1B01     		lsls	r3, r3, #4
 1022 055a 0B44     		add	r3, r3, r1
 1023 055c 1A60     		str	r2, [r3]
ARM GAS  G:\Users\Jaxb\AppData\Local\Temp\cc1bUhhc.s 			page 29


 546:../../source/src/FWlib/src/stm32f10x_can.c ****     if (TxMessage->IDE == CAN_Id_Standard)
 1024              		.loc 1 546 0
 1025 055e 3B68     		ldr	r3, [r7]
 1026 0560 1B7A     		ldrb	r3, [r3, #8]	@ zero_extendqisi2
 1027 0562 002B     		cmp	r3, #0
 1028 0564 13D1     		bne	.L58
 547:../../source/src/FWlib/src/stm32f10x_can.c ****     {
 548:../../source/src/FWlib/src/stm32f10x_can.c ****       assert_param(IS_CAN_STDID(TxMessage->StdId));  
 549:../../source/src/FWlib/src/stm32f10x_can.c ****       CANx->sTxMailBox[transmit_mailbox].TIR |= ((TxMessage->StdId << 21) | \
 1029              		.loc 1 549 0
 1030 0566 FB7B     		ldrb	r3, [r7, #15]	@ zero_extendqisi2
 1031 0568 7A68     		ldr	r2, [r7, #4]
 1032 056a 1833     		adds	r3, r3, #24
 1033 056c 1B01     		lsls	r3, r3, #4
 1034 056e 1344     		add	r3, r3, r2
 1035 0570 1968     		ldr	r1, [r3]
 1036 0572 3B68     		ldr	r3, [r7]
 1037 0574 1B68     		ldr	r3, [r3]
 1038 0576 5B05     		lsls	r3, r3, #21
 550:../../source/src/FWlib/src/stm32f10x_can.c ****                                                   TxMessage->RTR);
 1039              		.loc 1 550 0
 1040 0578 3A68     		ldr	r2, [r7]
 1041 057a 527A     		ldrb	r2, [r2, #9]	@ zero_extendqisi2
 549:../../source/src/FWlib/src/stm32f10x_can.c ****                                                   TxMessage->RTR);
 1042              		.loc 1 549 0
 1043 057c 1A43     		orrs	r2, r2, r3
 1044 057e FB7B     		ldrb	r3, [r7, #15]	@ zero_extendqisi2
 1045 0580 0A43     		orrs	r2, r2, r1
 1046 0582 7968     		ldr	r1, [r7, #4]
 1047 0584 1833     		adds	r3, r3, #24
 1048 0586 1B01     		lsls	r3, r3, #4
 1049 0588 0B44     		add	r3, r3, r1
 1050 058a 1A60     		str	r2, [r3]
 1051 058c 15E0     		b	.L59
 1052              	.L58:
 551:../../source/src/FWlib/src/stm32f10x_can.c ****     }
 552:../../source/src/FWlib/src/stm32f10x_can.c ****     else
 553:../../source/src/FWlib/src/stm32f10x_can.c ****     {
 554:../../source/src/FWlib/src/stm32f10x_can.c ****       assert_param(IS_CAN_EXTID(TxMessage->ExtId));
 555:../../source/src/FWlib/src/stm32f10x_can.c ****       CANx->sTxMailBox[transmit_mailbox].TIR |= ((TxMessage->ExtId << 3) | \
 1053              		.loc 1 555 0
 1054 058e FB7B     		ldrb	r3, [r7, #15]	@ zero_extendqisi2
 1055 0590 7A68     		ldr	r2, [r7, #4]
 1056 0592 1833     		adds	r3, r3, #24
 1057 0594 1B01     		lsls	r3, r3, #4
 1058 0596 1344     		add	r3, r3, r2
 1059 0598 1968     		ldr	r1, [r3]
 1060 059a 3B68     		ldr	r3, [r7]
 1061 059c 5B68     		ldr	r3, [r3, #4]
 1062 059e DB00     		lsls	r3, r3, #3
 556:../../source/src/FWlib/src/stm32f10x_can.c ****                                                   TxMessage->IDE | \
 1063              		.loc 1 556 0
 1064 05a0 3A68     		ldr	r2, [r7]
 1065 05a2 127A     		ldrb	r2, [r2, #8]	@ zero_extendqisi2
 555:../../source/src/FWlib/src/stm32f10x_can.c ****                                                   TxMessage->IDE | \
 1066              		.loc 1 555 0
 1067 05a4 1343     		orrs	r3, r3, r2
ARM GAS  G:\Users\Jaxb\AppData\Local\Temp\cc1bUhhc.s 			page 30


 557:../../source/src/FWlib/src/stm32f10x_can.c ****                                                   TxMessage->RTR);
 1068              		.loc 1 557 0
 1069 05a6 3A68     		ldr	r2, [r7]
 1070 05a8 527A     		ldrb	r2, [r2, #9]	@ zero_extendqisi2
 556:../../source/src/FWlib/src/stm32f10x_can.c ****                                                   TxMessage->IDE | \
 1071              		.loc 1 556 0
 1072 05aa 1A43     		orrs	r2, r2, r3
 555:../../source/src/FWlib/src/stm32f10x_can.c ****                                                   TxMessage->IDE | \
 1073              		.loc 1 555 0
 1074 05ac FB7B     		ldrb	r3, [r7, #15]	@ zero_extendqisi2
 1075 05ae 0A43     		orrs	r2, r2, r1
 1076 05b0 7968     		ldr	r1, [r7, #4]
 1077 05b2 1833     		adds	r3, r3, #24
 1078 05b4 1B01     		lsls	r3, r3, #4
 1079 05b6 0B44     		add	r3, r3, r1
 1080 05b8 1A60     		str	r2, [r3]
 1081              	.L59:
 558:../../source/src/FWlib/src/stm32f10x_can.c ****     }
 559:../../source/src/FWlib/src/stm32f10x_can.c ****     
 560:../../source/src/FWlib/src/stm32f10x_can.c ****     /* Set up the DLC */
 561:../../source/src/FWlib/src/stm32f10x_can.c ****     TxMessage->DLC &= (uint8_t)0x0000000F;
 1082              		.loc 1 561 0
 1083 05ba 3B68     		ldr	r3, [r7]
 1084 05bc 9B7A     		ldrb	r3, [r3, #10]	@ zero_extendqisi2
 1085 05be 03F00F03 		and	r3, r3, #15
 1086 05c2 DAB2     		uxtb	r2, r3
 1087 05c4 3B68     		ldr	r3, [r7]
 1088 05c6 9A72     		strb	r2, [r3, #10]
 562:../../source/src/FWlib/src/stm32f10x_can.c ****     CANx->sTxMailBox[transmit_mailbox].TDTR &= (uint32_t)0xFFFFFFF0;
 1089              		.loc 1 562 0
 1090 05c8 FB7B     		ldrb	r3, [r7, #15]	@ zero_extendqisi2
 1091 05ca 7A68     		ldr	r2, [r7, #4]
 1092 05cc 1833     		adds	r3, r3, #24
 1093 05ce 1B01     		lsls	r3, r3, #4
 1094 05d0 1344     		add	r3, r3, r2
 1095 05d2 0433     		adds	r3, r3, #4
 1096 05d4 1A68     		ldr	r2, [r3]
 1097 05d6 FB7B     		ldrb	r3, [r7, #15]	@ zero_extendqisi2
 1098 05d8 22F00F02 		bic	r2, r2, #15
 1099 05dc 7968     		ldr	r1, [r7, #4]
 1100 05de 1833     		adds	r3, r3, #24
 1101 05e0 1B01     		lsls	r3, r3, #4
 1102 05e2 0B44     		add	r3, r3, r1
 1103 05e4 0433     		adds	r3, r3, #4
 1104 05e6 1A60     		str	r2, [r3]
 563:../../source/src/FWlib/src/stm32f10x_can.c ****     CANx->sTxMailBox[transmit_mailbox].TDTR |= TxMessage->DLC;
 1105              		.loc 1 563 0
 1106 05e8 FB7B     		ldrb	r3, [r7, #15]	@ zero_extendqisi2
 1107 05ea 7A68     		ldr	r2, [r7, #4]
 1108 05ec 1833     		adds	r3, r3, #24
 1109 05ee 1B01     		lsls	r3, r3, #4
 1110 05f0 1344     		add	r3, r3, r2
 1111 05f2 0433     		adds	r3, r3, #4
 1112 05f4 1A68     		ldr	r2, [r3]
 1113 05f6 3B68     		ldr	r3, [r7]
 1114 05f8 9B7A     		ldrb	r3, [r3, #10]	@ zero_extendqisi2
 1115 05fa 1946     		mov	r1, r3
ARM GAS  G:\Users\Jaxb\AppData\Local\Temp\cc1bUhhc.s 			page 31


 1116 05fc FB7B     		ldrb	r3, [r7, #15]	@ zero_extendqisi2
 1117 05fe 0A43     		orrs	r2, r2, r1
 1118 0600 7968     		ldr	r1, [r7, #4]
 1119 0602 1833     		adds	r3, r3, #24
 1120 0604 1B01     		lsls	r3, r3, #4
 1121 0606 0B44     		add	r3, r3, r1
 1122 0608 0433     		adds	r3, r3, #4
 1123 060a 1A60     		str	r2, [r3]
 564:../../source/src/FWlib/src/stm32f10x_can.c **** 
 565:../../source/src/FWlib/src/stm32f10x_can.c ****     /* Set up the data field */
 566:../../source/src/FWlib/src/stm32f10x_can.c ****     CANx->sTxMailBox[transmit_mailbox].TDLR = (((uint32_t)TxMessage->Data[3] << 24) | 
 1124              		.loc 1 566 0
 1125 060c 3B68     		ldr	r3, [r7]
 1126 060e 9B7B     		ldrb	r3, [r3, #14]	@ zero_extendqisi2
 1127 0610 1A06     		lsls	r2, r3, #24
 567:../../source/src/FWlib/src/stm32f10x_can.c ****                                              ((uint32_t)TxMessage->Data[2] << 16) |
 1128              		.loc 1 567 0
 1129 0612 3B68     		ldr	r3, [r7]
 1130 0614 5B7B     		ldrb	r3, [r3, #13]	@ zero_extendqisi2
 1131 0616 1B04     		lsls	r3, r3, #16
 566:../../source/src/FWlib/src/stm32f10x_can.c ****                                              ((uint32_t)TxMessage->Data[2] << 16) |
 1132              		.loc 1 566 0
 1133 0618 1A43     		orrs	r2, r2, r3
 568:../../source/src/FWlib/src/stm32f10x_can.c ****                                              ((uint32_t)TxMessage->Data[1] << 8) | 
 1134              		.loc 1 568 0
 1135 061a 3B68     		ldr	r3, [r7]
 1136 061c 1B7B     		ldrb	r3, [r3, #12]	@ zero_extendqisi2
 1137 061e 1B02     		lsls	r3, r3, #8
 567:../../source/src/FWlib/src/stm32f10x_can.c ****                                              ((uint32_t)TxMessage->Data[2] << 16) |
 1138              		.loc 1 567 0
 1139 0620 1A43     		orrs	r2, r2, r3
 569:../../source/src/FWlib/src/stm32f10x_can.c ****                                              ((uint32_t)TxMessage->Data[0]));
 1140              		.loc 1 569 0
 1141 0622 3B68     		ldr	r3, [r7]
 1142 0624 DB7A     		ldrb	r3, [r3, #11]	@ zero_extendqisi2
 1143 0626 1946     		mov	r1, r3
 566:../../source/src/FWlib/src/stm32f10x_can.c ****                                              ((uint32_t)TxMessage->Data[2] << 16) |
 1144              		.loc 1 566 0
 1145 0628 FB7B     		ldrb	r3, [r7, #15]	@ zero_extendqisi2
 568:../../source/src/FWlib/src/stm32f10x_can.c ****                                              ((uint32_t)TxMessage->Data[1] << 8) | 
 1146              		.loc 1 568 0
 1147 062a 0A43     		orrs	r2, r2, r1
 566:../../source/src/FWlib/src/stm32f10x_can.c ****                                              ((uint32_t)TxMessage->Data[2] << 16) |
 1148              		.loc 1 566 0
 1149 062c 7968     		ldr	r1, [r7, #4]
 1150 062e 1B01     		lsls	r3, r3, #4
 1151 0630 0B44     		add	r3, r3, r1
 1152 0632 03F5C473 		add	r3, r3, #392
 1153 0636 1A60     		str	r2, [r3]
 570:../../source/src/FWlib/src/stm32f10x_can.c ****     CANx->sTxMailBox[transmit_mailbox].TDHR = (((uint32_t)TxMessage->Data[7] << 24) | 
 1154              		.loc 1 570 0
 1155 0638 3B68     		ldr	r3, [r7]
 1156 063a 9B7C     		ldrb	r3, [r3, #18]	@ zero_extendqisi2
 1157 063c 1A06     		lsls	r2, r3, #24
 571:../../source/src/FWlib/src/stm32f10x_can.c ****                                              ((uint32_t)TxMessage->Data[6] << 16) |
 1158              		.loc 1 571 0
 1159 063e 3B68     		ldr	r3, [r7]
ARM GAS  G:\Users\Jaxb\AppData\Local\Temp\cc1bUhhc.s 			page 32


 1160 0640 5B7C     		ldrb	r3, [r3, #17]	@ zero_extendqisi2
 1161 0642 1B04     		lsls	r3, r3, #16
 570:../../source/src/FWlib/src/stm32f10x_can.c ****     CANx->sTxMailBox[transmit_mailbox].TDHR = (((uint32_t)TxMessage->Data[7] << 24) | 
 1162              		.loc 1 570 0
 1163 0644 1A43     		orrs	r2, r2, r3
 572:../../source/src/FWlib/src/stm32f10x_can.c ****                                              ((uint32_t)TxMessage->Data[5] << 8) |
 1164              		.loc 1 572 0
 1165 0646 3B68     		ldr	r3, [r7]
 1166 0648 1B7C     		ldrb	r3, [r3, #16]	@ zero_extendqisi2
 1167 064a 1B02     		lsls	r3, r3, #8
 571:../../source/src/FWlib/src/stm32f10x_can.c ****                                              ((uint32_t)TxMessage->Data[6] << 16) |
 1168              		.loc 1 571 0
 1169 064c 1A43     		orrs	r2, r2, r3
 573:../../source/src/FWlib/src/stm32f10x_can.c ****                                              ((uint32_t)TxMessage->Data[4]));
 1170              		.loc 1 573 0
 1171 064e 3B68     		ldr	r3, [r7]
 1172 0650 DB7B     		ldrb	r3, [r3, #15]	@ zero_extendqisi2
 1173 0652 1946     		mov	r1, r3
 570:../../source/src/FWlib/src/stm32f10x_can.c ****                                              ((uint32_t)TxMessage->Data[6] << 16) |
 1174              		.loc 1 570 0
 1175 0654 FB7B     		ldrb	r3, [r7, #15]	@ zero_extendqisi2
 572:../../source/src/FWlib/src/stm32f10x_can.c ****                                              ((uint32_t)TxMessage->Data[5] << 8) |
 1176              		.loc 1 572 0
 1177 0656 0A43     		orrs	r2, r2, r1
 570:../../source/src/FWlib/src/stm32f10x_can.c ****                                              ((uint32_t)TxMessage->Data[6] << 16) |
 1178              		.loc 1 570 0
 1179 0658 7968     		ldr	r1, [r7, #4]
 1180 065a 1B01     		lsls	r3, r3, #4
 1181 065c 0B44     		add	r3, r3, r1
 1182 065e 03F5C673 		add	r3, r3, #396
 1183 0662 1A60     		str	r2, [r3]
 574:../../source/src/FWlib/src/stm32f10x_can.c ****     /* Request transmission */
 575:../../source/src/FWlib/src/stm32f10x_can.c ****     CANx->sTxMailBox[transmit_mailbox].TIR |= TMIDxR_TXRQ;
 1184              		.loc 1 575 0
 1185 0664 FB7B     		ldrb	r3, [r7, #15]	@ zero_extendqisi2
 1186 0666 7A68     		ldr	r2, [r7, #4]
 1187 0668 1833     		adds	r3, r3, #24
 1188 066a 1B01     		lsls	r3, r3, #4
 1189 066c 1344     		add	r3, r3, r2
 1190 066e 1A68     		ldr	r2, [r3]
 1191 0670 FB7B     		ldrb	r3, [r7, #15]	@ zero_extendqisi2
 1192 0672 42F00102 		orr	r2, r2, #1
 1193 0676 7968     		ldr	r1, [r7, #4]
 1194 0678 1833     		adds	r3, r3, #24
 1195 067a 1B01     		lsls	r3, r3, #4
 1196 067c 0B44     		add	r3, r3, r1
 1197 067e 1A60     		str	r2, [r3]
 1198              	.L57:
 576:../../source/src/FWlib/src/stm32f10x_can.c ****   }
 577:../../source/src/FWlib/src/stm32f10x_can.c ****   return transmit_mailbox;
 1199              		.loc 1 577 0
 1200 0680 FB7B     		ldrb	r3, [r7, #15]	@ zero_extendqisi2
 578:../../source/src/FWlib/src/stm32f10x_can.c **** }
 1201              		.loc 1 578 0
 1202 0682 1846     		mov	r0, r3
 1203 0684 1437     		adds	r7, r7, #20
 1204              	.LCFI44:
ARM GAS  G:\Users\Jaxb\AppData\Local\Temp\cc1bUhhc.s 			page 33


 1205              		.cfi_def_cfa_offset 4
 1206 0686 BD46     		mov	sp, r7
 1207              	.LCFI45:
 1208              		.cfi_def_cfa_register 13
 1209              		@ sp needed
 1210 0688 80BC     		pop	{r7}
 1211              	.LCFI46:
 1212              		.cfi_restore 7
 1213              		.cfi_def_cfa_offset 0
 1214 068a 7047     		bx	lr
 1215              		.cfi_endproc
 1216              	.LFE36:
 1217              		.size	CAN_Transmit, .-CAN_Transmit
 1218              		.align	1
 1219              		.global	CAN_TransmitStatus
 1220              		.syntax unified
 1221              		.thumb
 1222              		.thumb_func
 1223              		.fpu softvfp
 1224              		.type	CAN_TransmitStatus, %function
 1225              	CAN_TransmitStatus:
 1226              	.LFB37:
 579:../../source/src/FWlib/src/stm32f10x_can.c **** 
 580:../../source/src/FWlib/src/stm32f10x_can.c **** /**
 581:../../source/src/FWlib/src/stm32f10x_can.c ****   * @brief  Checks the transmission of a message.
 582:../../source/src/FWlib/src/stm32f10x_can.c ****   * @param  CANx:            where x can be 1 or 2 to to select the 
 583:../../source/src/FWlib/src/stm32f10x_can.c ****   *                          CAN peripheral.
 584:../../source/src/FWlib/src/stm32f10x_can.c ****   * @param  TransmitMailbox: the number of the mailbox that is used for 
 585:../../source/src/FWlib/src/stm32f10x_can.c ****   *                          transmission.
 586:../../source/src/FWlib/src/stm32f10x_can.c ****   * @retval CAN_TxStatus_Ok if the CAN driver transmits the message, CAN_TxStatus_Failed 
 587:../../source/src/FWlib/src/stm32f10x_can.c ****   *         in an other case.
 588:../../source/src/FWlib/src/stm32f10x_can.c ****   */
 589:../../source/src/FWlib/src/stm32f10x_can.c **** uint8_t CAN_TransmitStatus(CAN_TypeDef* CANx, uint8_t TransmitMailbox)
 590:../../source/src/FWlib/src/stm32f10x_can.c **** {
 1227              		.loc 1 590 0
 1228              		.cfi_startproc
 1229              		@ args = 0, pretend = 0, frame = 16
 1230              		@ frame_needed = 1, uses_anonymous_args = 0
 1231              		@ link register save eliminated.
 1232 068c 80B4     		push	{r7}
 1233              	.LCFI47:
 1234              		.cfi_def_cfa_offset 4
 1235              		.cfi_offset 7, -4
 1236 068e 85B0     		sub	sp, sp, #20
 1237              	.LCFI48:
 1238              		.cfi_def_cfa_offset 24
 1239 0690 00AF     		add	r7, sp, #0
 1240              	.LCFI49:
 1241              		.cfi_def_cfa_register 7
 1242 0692 7860     		str	r0, [r7, #4]
 1243 0694 0B46     		mov	r3, r1
 1244 0696 FB70     		strb	r3, [r7, #3]
 591:../../source/src/FWlib/src/stm32f10x_can.c ****   uint32_t state = 0;
 1245              		.loc 1 591 0
 1246 0698 0023     		movs	r3, #0
 1247 069a FB60     		str	r3, [r7, #12]
 592:../../source/src/FWlib/src/stm32f10x_can.c **** 
ARM GAS  G:\Users\Jaxb\AppData\Local\Temp\cc1bUhhc.s 			page 34


 593:../../source/src/FWlib/src/stm32f10x_can.c ****   /* Check the parameters */
 594:../../source/src/FWlib/src/stm32f10x_can.c ****   assert_param(IS_CAN_ALL_PERIPH(CANx));
 595:../../source/src/FWlib/src/stm32f10x_can.c ****   assert_param(IS_CAN_TRANSMITMAILBOX(TransmitMailbox));
 596:../../source/src/FWlib/src/stm32f10x_can.c ****  
 597:../../source/src/FWlib/src/stm32f10x_can.c ****   switch (TransmitMailbox)
 1248              		.loc 1 597 0
 1249 069c FB78     		ldrb	r3, [r7, #3]	@ zero_extendqisi2
 1250 069e 012B     		cmp	r3, #1
 1251 06a0 09D0     		beq	.L63
 1252 06a2 022B     		cmp	r3, #2
 1253 06a4 0DD0     		beq	.L64
 1254 06a6 002B     		cmp	r3, #0
 1255 06a8 11D1     		bne	.L78
 598:../../source/src/FWlib/src/stm32f10x_can.c ****   {
 599:../../source/src/FWlib/src/stm32f10x_can.c ****     case (CAN_TXMAILBOX_0): 
 600:../../source/src/FWlib/src/stm32f10x_can.c ****       state =   CANx->TSR &  (CAN_TSR_RQCP0 | CAN_TSR_TXOK0 | CAN_TSR_TME0);
 1256              		.loc 1 600 0
 1257 06aa 7B68     		ldr	r3, [r7, #4]
 1258 06ac 9A68     		ldr	r2, [r3, #8]
 1259 06ae 264B     		ldr	r3, .L79
 1260 06b0 1340     		ands	r3, r3, r2
 1261 06b2 FB60     		str	r3, [r7, #12]
 601:../../source/src/FWlib/src/stm32f10x_can.c ****       break;
 1262              		.loc 1 601 0
 1263 06b4 0EE0     		b	.L66
 1264              	.L63:
 602:../../source/src/FWlib/src/stm32f10x_can.c ****     case (CAN_TXMAILBOX_1): 
 603:../../source/src/FWlib/src/stm32f10x_can.c ****       state =   CANx->TSR &  (CAN_TSR_RQCP1 | CAN_TSR_TXOK1 | CAN_TSR_TME1);
 1265              		.loc 1 603 0
 1266 06b6 7B68     		ldr	r3, [r7, #4]
 1267 06b8 9A68     		ldr	r2, [r3, #8]
 1268 06ba 244B     		ldr	r3, .L79+4
 1269 06bc 1340     		ands	r3, r3, r2
 1270 06be FB60     		str	r3, [r7, #12]
 604:../../source/src/FWlib/src/stm32f10x_can.c ****       break;
 1271              		.loc 1 604 0
 1272 06c0 08E0     		b	.L66
 1273              	.L64:
 605:../../source/src/FWlib/src/stm32f10x_can.c ****     case (CAN_TXMAILBOX_2): 
 606:../../source/src/FWlib/src/stm32f10x_can.c ****       state =   CANx->TSR &  (CAN_TSR_RQCP2 | CAN_TSR_TXOK2 | CAN_TSR_TME2);
 1274              		.loc 1 606 0
 1275 06c2 7B68     		ldr	r3, [r7, #4]
 1276 06c4 9A68     		ldr	r2, [r3, #8]
 1277 06c6 224B     		ldr	r3, .L79+8
 1278 06c8 1340     		ands	r3, r3, r2
 1279 06ca FB60     		str	r3, [r7, #12]
 607:../../source/src/FWlib/src/stm32f10x_can.c ****       break;
 1280              		.loc 1 607 0
 1281 06cc 02E0     		b	.L66
 1282              	.L78:
 608:../../source/src/FWlib/src/stm32f10x_can.c ****     default:
 609:../../source/src/FWlib/src/stm32f10x_can.c ****       state = CAN_TxStatus_Failed;
 1283              		.loc 1 609 0
 1284 06ce 0023     		movs	r3, #0
 1285 06d0 FB60     		str	r3, [r7, #12]
 610:../../source/src/FWlib/src/stm32f10x_can.c ****       break;
 1286              		.loc 1 610 0
ARM GAS  G:\Users\Jaxb\AppData\Local\Temp\cc1bUhhc.s 			page 35


 1287 06d2 00BF     		nop
 1288              	.L66:
 611:../../source/src/FWlib/src/stm32f10x_can.c ****   }
 612:../../source/src/FWlib/src/stm32f10x_can.c ****   switch (state)
 1289              		.loc 1 612 0
 1290 06d4 FB68     		ldr	r3, [r7, #12]
 1291 06d6 1F4A     		ldr	r2, .L79+12
 1292 06d8 9342     		cmp	r3, r2
 1293 06da 1BD0     		beq	.L68
 1294 06dc 1D4A     		ldr	r2, .L79+12
 1295 06de 9342     		cmp	r3, r2
 1296 06e0 08D8     		bhi	.L69
 1297 06e2 1D4A     		ldr	r2, .L79+16
 1298 06e4 9342     		cmp	r3, r2
 1299 06e6 12D0     		beq	.L70
 1300 06e8 174A     		ldr	r2, .L79
 1301 06ea 9342     		cmp	r3, r2
 1302 06ec 18D0     		beq	.L71
 1303 06ee 002B     		cmp	r3, #0
 1304 06f0 0AD0     		beq	.L72
 1305 06f2 1EE0     		b	.L67
 1306              	.L69:
 1307 06f4 194A     		ldr	r2, .L79+20
 1308 06f6 9342     		cmp	r3, r2
 1309 06f8 0FD0     		beq	.L73
 1310 06fa 154A     		ldr	r2, .L79+8
 1311 06fc 9342     		cmp	r3, r2
 1312 06fe 15D0     		beq	.L74
 1313 0700 124A     		ldr	r2, .L79+4
 1314 0702 9342     		cmp	r3, r2
 1315 0704 0FD0     		beq	.L75
 1316 0706 14E0     		b	.L67
 1317              	.L72:
 613:../../source/src/FWlib/src/stm32f10x_can.c ****   {
 614:../../source/src/FWlib/src/stm32f10x_can.c ****       /* transmit pending  */
 615:../../source/src/FWlib/src/stm32f10x_can.c ****     case (0x0): state = CAN_TxStatus_Pending;
 1318              		.loc 1 615 0
 1319 0708 0223     		movs	r3, #2
 1320 070a FB60     		str	r3, [r7, #12]
 616:../../source/src/FWlib/src/stm32f10x_can.c ****       break;
 1321              		.loc 1 616 0
 1322 070c 14E0     		b	.L76
 1323              	.L70:
 617:../../source/src/FWlib/src/stm32f10x_can.c ****       /* transmit failed  */
 618:../../source/src/FWlib/src/stm32f10x_can.c ****      case (CAN_TSR_RQCP0 | CAN_TSR_TME0): state = CAN_TxStatus_Failed;
 1324              		.loc 1 618 0
 1325 070e 0023     		movs	r3, #0
 1326 0710 FB60     		str	r3, [r7, #12]
 619:../../source/src/FWlib/src/stm32f10x_can.c ****       break;
 1327              		.loc 1 619 0
 1328 0712 11E0     		b	.L76
 1329              	.L68:
 620:../../source/src/FWlib/src/stm32f10x_can.c ****      case (CAN_TSR_RQCP1 | CAN_TSR_TME1): state = CAN_TxStatus_Failed;
 1330              		.loc 1 620 0
 1331 0714 0023     		movs	r3, #0
 1332 0716 FB60     		str	r3, [r7, #12]
 621:../../source/src/FWlib/src/stm32f10x_can.c ****       break;
ARM GAS  G:\Users\Jaxb\AppData\Local\Temp\cc1bUhhc.s 			page 36


 1333              		.loc 1 621 0
 1334 0718 0EE0     		b	.L76
 1335              	.L73:
 622:../../source/src/FWlib/src/stm32f10x_can.c ****      case (CAN_TSR_RQCP2 | CAN_TSR_TME2): state = CAN_TxStatus_Failed;
 1336              		.loc 1 622 0
 1337 071a 0023     		movs	r3, #0
 1338 071c FB60     		str	r3, [r7, #12]
 623:../../source/src/FWlib/src/stm32f10x_can.c ****       break;
 1339              		.loc 1 623 0
 1340 071e 0BE0     		b	.L76
 1341              	.L71:
 624:../../source/src/FWlib/src/stm32f10x_can.c ****       /* transmit succeeded  */
 625:../../source/src/FWlib/src/stm32f10x_can.c ****     case (CAN_TSR_RQCP0 | CAN_TSR_TXOK0 | CAN_TSR_TME0):state = CAN_TxStatus_Ok;
 1342              		.loc 1 625 0
 1343 0720 0123     		movs	r3, #1
 1344 0722 FB60     		str	r3, [r7, #12]
 626:../../source/src/FWlib/src/stm32f10x_can.c ****       break;
 1345              		.loc 1 626 0
 1346 0724 08E0     		b	.L76
 1347              	.L75:
 627:../../source/src/FWlib/src/stm32f10x_can.c ****     case (CAN_TSR_RQCP1 | CAN_TSR_TXOK1 | CAN_TSR_TME1):state = CAN_TxStatus_Ok;
 1348              		.loc 1 627 0
 1349 0726 0123     		movs	r3, #1
 1350 0728 FB60     		str	r3, [r7, #12]
 628:../../source/src/FWlib/src/stm32f10x_can.c ****       break;
 1351              		.loc 1 628 0
 1352 072a 05E0     		b	.L76
 1353              	.L74:
 629:../../source/src/FWlib/src/stm32f10x_can.c ****     case (CAN_TSR_RQCP2 | CAN_TSR_TXOK2 | CAN_TSR_TME2):state = CAN_TxStatus_Ok;
 1354              		.loc 1 629 0
 1355 072c 0123     		movs	r3, #1
 1356 072e FB60     		str	r3, [r7, #12]
 630:../../source/src/FWlib/src/stm32f10x_can.c ****       break;
 1357              		.loc 1 630 0
 1358 0730 02E0     		b	.L76
 1359              	.L67:
 631:../../source/src/FWlib/src/stm32f10x_can.c ****     default: state = CAN_TxStatus_Failed;
 1360              		.loc 1 631 0
 1361 0732 0023     		movs	r3, #0
 1362 0734 FB60     		str	r3, [r7, #12]
 632:../../source/src/FWlib/src/stm32f10x_can.c ****       break;
 1363              		.loc 1 632 0
 1364 0736 00BF     		nop
 1365              	.L76:
 633:../../source/src/FWlib/src/stm32f10x_can.c ****   }
 634:../../source/src/FWlib/src/stm32f10x_can.c ****   return (uint8_t) state;
 1366              		.loc 1 634 0
 1367 0738 FB68     		ldr	r3, [r7, #12]
 1368 073a DBB2     		uxtb	r3, r3
 635:../../source/src/FWlib/src/stm32f10x_can.c **** }
 1369              		.loc 1 635 0
 1370 073c 1846     		mov	r0, r3
 1371 073e 1437     		adds	r7, r7, #20
 1372              	.LCFI50:
 1373              		.cfi_def_cfa_offset 4
 1374 0740 BD46     		mov	sp, r7
 1375              	.LCFI51:
ARM GAS  G:\Users\Jaxb\AppData\Local\Temp\cc1bUhhc.s 			page 37


 1376              		.cfi_def_cfa_register 13
 1377              		@ sp needed
 1378 0742 80BC     		pop	{r7}
 1379              	.LCFI52:
 1380              		.cfi_restore 7
 1381              		.cfi_def_cfa_offset 0
 1382 0744 7047     		bx	lr
 1383              	.L80:
 1384 0746 00BF     		.align	2
 1385              	.L79:
 1386 0748 03000004 		.word	67108867
 1387 074c 00030008 		.word	134218496
 1388 0750 00000310 		.word	268632064
 1389 0754 00010008 		.word	134217984
 1390 0758 01000004 		.word	67108865
 1391 075c 00000110 		.word	268500992
 1392              		.cfi_endproc
 1393              	.LFE37:
 1394              		.size	CAN_TransmitStatus, .-CAN_TransmitStatus
 1395              		.align	1
 1396              		.global	CAN_CancelTransmit
 1397              		.syntax unified
 1398              		.thumb
 1399              		.thumb_func
 1400              		.fpu softvfp
 1401              		.type	CAN_CancelTransmit, %function
 1402              	CAN_CancelTransmit:
 1403              	.LFB38:
 636:../../source/src/FWlib/src/stm32f10x_can.c **** 
 637:../../source/src/FWlib/src/stm32f10x_can.c **** /**
 638:../../source/src/FWlib/src/stm32f10x_can.c ****   * @brief  Cancels a transmit request.
 639:../../source/src/FWlib/src/stm32f10x_can.c ****   * @param  CANx:     where x can be 1 or 2 to to select the CAN peripheral. 
 640:../../source/src/FWlib/src/stm32f10x_can.c ****   * @param  Mailbox:  Mailbox number.
 641:../../source/src/FWlib/src/stm32f10x_can.c ****   * @retval None.
 642:../../source/src/FWlib/src/stm32f10x_can.c ****   */
 643:../../source/src/FWlib/src/stm32f10x_can.c **** void CAN_CancelTransmit(CAN_TypeDef* CANx, uint8_t Mailbox)
 644:../../source/src/FWlib/src/stm32f10x_can.c **** {
 1404              		.loc 1 644 0
 1405              		.cfi_startproc
 1406              		@ args = 0, pretend = 0, frame = 8
 1407              		@ frame_needed = 1, uses_anonymous_args = 0
 1408              		@ link register save eliminated.
 1409 0760 80B4     		push	{r7}
 1410              	.LCFI53:
 1411              		.cfi_def_cfa_offset 4
 1412              		.cfi_offset 7, -4
 1413 0762 83B0     		sub	sp, sp, #12
 1414              	.LCFI54:
 1415              		.cfi_def_cfa_offset 16
 1416 0764 00AF     		add	r7, sp, #0
 1417              	.LCFI55:
 1418              		.cfi_def_cfa_register 7
 1419 0766 7860     		str	r0, [r7, #4]
 1420 0768 0B46     		mov	r3, r1
 1421 076a FB70     		strb	r3, [r7, #3]
 645:../../source/src/FWlib/src/stm32f10x_can.c ****   /* Check the parameters */
 646:../../source/src/FWlib/src/stm32f10x_can.c ****   assert_param(IS_CAN_ALL_PERIPH(CANx));
ARM GAS  G:\Users\Jaxb\AppData\Local\Temp\cc1bUhhc.s 			page 38


 647:../../source/src/FWlib/src/stm32f10x_can.c ****   assert_param(IS_CAN_TRANSMITMAILBOX(Mailbox));
 648:../../source/src/FWlib/src/stm32f10x_can.c ****   /* abort transmission */
 649:../../source/src/FWlib/src/stm32f10x_can.c ****   switch (Mailbox)
 1422              		.loc 1 649 0
 1423 076c FB78     		ldrb	r3, [r7, #3]	@ zero_extendqisi2
 1424 076e 012B     		cmp	r3, #1
 1425 0770 0BD0     		beq	.L83
 1426 0772 022B     		cmp	r3, #2
 1427 0774 10D0     		beq	.L84
 1428 0776 002B     		cmp	r3, #0
 1429 0778 00D0     		beq	.L85
 650:../../source/src/FWlib/src/stm32f10x_can.c ****   {
 651:../../source/src/FWlib/src/stm32f10x_can.c ****     case (CAN_TXMAILBOX_0): CANx->TSR |= CAN_TSR_ABRQ0;
 652:../../source/src/FWlib/src/stm32f10x_can.c ****       break;
 653:../../source/src/FWlib/src/stm32f10x_can.c ****     case (CAN_TXMAILBOX_1): CANx->TSR |= CAN_TSR_ABRQ1;
 654:../../source/src/FWlib/src/stm32f10x_can.c ****       break;
 655:../../source/src/FWlib/src/stm32f10x_can.c ****     case (CAN_TXMAILBOX_2): CANx->TSR |= CAN_TSR_ABRQ2;
 656:../../source/src/FWlib/src/stm32f10x_can.c ****       break;
 657:../../source/src/FWlib/src/stm32f10x_can.c ****     default:
 658:../../source/src/FWlib/src/stm32f10x_can.c ****       break;
 1430              		.loc 1 658 0
 1431 077a 14E0     		b	.L86
 1432              	.L85:
 651:../../source/src/FWlib/src/stm32f10x_can.c ****       break;
 1433              		.loc 1 651 0
 1434 077c 7B68     		ldr	r3, [r7, #4]
 1435 077e 9B68     		ldr	r3, [r3, #8]
 1436 0780 43F08002 		orr	r2, r3, #128
 1437 0784 7B68     		ldr	r3, [r7, #4]
 1438 0786 9A60     		str	r2, [r3, #8]
 652:../../source/src/FWlib/src/stm32f10x_can.c ****     case (CAN_TXMAILBOX_1): CANx->TSR |= CAN_TSR_ABRQ1;
 1439              		.loc 1 652 0
 1440 0788 0DE0     		b	.L86
 1441              	.L83:
 653:../../source/src/FWlib/src/stm32f10x_can.c ****       break;
 1442              		.loc 1 653 0
 1443 078a 7B68     		ldr	r3, [r7, #4]
 1444 078c 9B68     		ldr	r3, [r3, #8]
 1445 078e 43F40042 		orr	r2, r3, #32768
 1446 0792 7B68     		ldr	r3, [r7, #4]
 1447 0794 9A60     		str	r2, [r3, #8]
 654:../../source/src/FWlib/src/stm32f10x_can.c ****     case (CAN_TXMAILBOX_2): CANx->TSR |= CAN_TSR_ABRQ2;
 1448              		.loc 1 654 0
 1449 0796 06E0     		b	.L86
 1450              	.L84:
 655:../../source/src/FWlib/src/stm32f10x_can.c ****       break;
 1451              		.loc 1 655 0
 1452 0798 7B68     		ldr	r3, [r7, #4]
 1453 079a 9B68     		ldr	r3, [r3, #8]
 1454 079c 43F40002 		orr	r2, r3, #8388608
 1455 07a0 7B68     		ldr	r3, [r7, #4]
 1456 07a2 9A60     		str	r2, [r3, #8]
 656:../../source/src/FWlib/src/stm32f10x_can.c ****     default:
 1457              		.loc 1 656 0
 1458 07a4 00BF     		nop
 1459              	.L86:
 659:../../source/src/FWlib/src/stm32f10x_can.c ****   }
ARM GAS  G:\Users\Jaxb\AppData\Local\Temp\cc1bUhhc.s 			page 39


 660:../../source/src/FWlib/src/stm32f10x_can.c **** }
 1460              		.loc 1 660 0
 1461 07a6 00BF     		nop
 1462 07a8 0C37     		adds	r7, r7, #12
 1463              	.LCFI56:
 1464              		.cfi_def_cfa_offset 4
 1465 07aa BD46     		mov	sp, r7
 1466              	.LCFI57:
 1467              		.cfi_def_cfa_register 13
 1468              		@ sp needed
 1469 07ac 80BC     		pop	{r7}
 1470              	.LCFI58:
 1471              		.cfi_restore 7
 1472              		.cfi_def_cfa_offset 0
 1473 07ae 7047     		bx	lr
 1474              		.cfi_endproc
 1475              	.LFE38:
 1476              		.size	CAN_CancelTransmit, .-CAN_CancelTransmit
 1477              		.align	1
 1478              		.global	CAN_Receive
 1479              		.syntax unified
 1480              		.thumb
 1481              		.thumb_func
 1482              		.fpu softvfp
 1483              		.type	CAN_Receive, %function
 1484              	CAN_Receive:
 1485              	.LFB39:
 661:../../source/src/FWlib/src/stm32f10x_can.c **** 
 662:../../source/src/FWlib/src/stm32f10x_can.c **** 
 663:../../source/src/FWlib/src/stm32f10x_can.c **** /**
 664:../../source/src/FWlib/src/stm32f10x_can.c ****   * @brief  Receives a message.
 665:../../source/src/FWlib/src/stm32f10x_can.c ****   * @param  CANx:       where x can be 1 or 2 to to select the CAN peripheral.
 666:../../source/src/FWlib/src/stm32f10x_can.c ****   * @param  FIFONumber: Receive FIFO number, CAN_FIFO0 or CAN_FIFO1.
 667:../../source/src/FWlib/src/stm32f10x_can.c ****   * @param  RxMessage:  pointer to a structure receive message which contains 
 668:../../source/src/FWlib/src/stm32f10x_can.c ****   *                     CAN Id, CAN DLC, CAN datas and FMI number.
 669:../../source/src/FWlib/src/stm32f10x_can.c ****   * @retval None.
 670:../../source/src/FWlib/src/stm32f10x_can.c ****   */
 671:../../source/src/FWlib/src/stm32f10x_can.c **** void CAN_Receive(CAN_TypeDef* CANx, uint8_t FIFONumber, CanRxMsg* RxMessage)
 672:../../source/src/FWlib/src/stm32f10x_can.c **** {
 1486              		.loc 1 672 0
 1487              		.cfi_startproc
 1488              		@ args = 0, pretend = 0, frame = 16
 1489              		@ frame_needed = 1, uses_anonymous_args = 0
 1490              		@ link register save eliminated.
 1491 07b0 80B4     		push	{r7}
 1492              	.LCFI59:
 1493              		.cfi_def_cfa_offset 4
 1494              		.cfi_offset 7, -4
 1495 07b2 85B0     		sub	sp, sp, #20
 1496              	.LCFI60:
 1497              		.cfi_def_cfa_offset 24
 1498 07b4 00AF     		add	r7, sp, #0
 1499              	.LCFI61:
 1500              		.cfi_def_cfa_register 7
 1501 07b6 F860     		str	r0, [r7, #12]
 1502 07b8 0B46     		mov	r3, r1
 1503 07ba 7A60     		str	r2, [r7, #4]
ARM GAS  G:\Users\Jaxb\AppData\Local\Temp\cc1bUhhc.s 			page 40


 1504 07bc FB72     		strb	r3, [r7, #11]
 673:../../source/src/FWlib/src/stm32f10x_can.c ****   /* Check the parameters */
 674:../../source/src/FWlib/src/stm32f10x_can.c ****   assert_param(IS_CAN_ALL_PERIPH(CANx));
 675:../../source/src/FWlib/src/stm32f10x_can.c ****   assert_param(IS_CAN_FIFO(FIFONumber));
 676:../../source/src/FWlib/src/stm32f10x_can.c ****   /* Get the Id */
 677:../../source/src/FWlib/src/stm32f10x_can.c ****   RxMessage->IDE = (uint8_t)0x04 & CANx->sFIFOMailBox[FIFONumber].RIR;
 1505              		.loc 1 677 0
 1506 07be FB7A     		ldrb	r3, [r7, #11]	@ zero_extendqisi2
 1507 07c0 FA68     		ldr	r2, [r7, #12]
 1508 07c2 1B33     		adds	r3, r3, #27
 1509 07c4 1B01     		lsls	r3, r3, #4
 1510 07c6 1344     		add	r3, r3, r2
 1511 07c8 1B68     		ldr	r3, [r3]
 1512 07ca DBB2     		uxtb	r3, r3
 1513 07cc 03F00403 		and	r3, r3, #4
 1514 07d0 DAB2     		uxtb	r2, r3
 1515 07d2 7B68     		ldr	r3, [r7, #4]
 1516 07d4 1A72     		strb	r2, [r3, #8]
 678:../../source/src/FWlib/src/stm32f10x_can.c ****   if (RxMessage->IDE == CAN_Id_Standard)
 1517              		.loc 1 678 0
 1518 07d6 7B68     		ldr	r3, [r7, #4]
 1519 07d8 1B7A     		ldrb	r3, [r3, #8]	@ zero_extendqisi2
 1520 07da 002B     		cmp	r3, #0
 1521 07dc 0BD1     		bne	.L88
 679:../../source/src/FWlib/src/stm32f10x_can.c ****   {
 680:../../source/src/FWlib/src/stm32f10x_can.c ****     RxMessage->StdId = (uint32_t)0x000007FF & (CANx->sFIFOMailBox[FIFONumber].RIR >> 21);
 1522              		.loc 1 680 0
 1523 07de FB7A     		ldrb	r3, [r7, #11]	@ zero_extendqisi2
 1524 07e0 FA68     		ldr	r2, [r7, #12]
 1525 07e2 1B33     		adds	r3, r3, #27
 1526 07e4 1B01     		lsls	r3, r3, #4
 1527 07e6 1344     		add	r3, r3, r2
 1528 07e8 1B68     		ldr	r3, [r3]
 1529 07ea 5B0D     		lsrs	r3, r3, #21
 1530 07ec C3F30A02 		ubfx	r2, r3, #0, #11
 1531 07f0 7B68     		ldr	r3, [r7, #4]
 1532 07f2 1A60     		str	r2, [r3]
 1533 07f4 0AE0     		b	.L89
 1534              	.L88:
 681:../../source/src/FWlib/src/stm32f10x_can.c ****   }
 682:../../source/src/FWlib/src/stm32f10x_can.c ****   else
 683:../../source/src/FWlib/src/stm32f10x_can.c ****   {
 684:../../source/src/FWlib/src/stm32f10x_can.c ****     RxMessage->ExtId = (uint32_t)0x1FFFFFFF & (CANx->sFIFOMailBox[FIFONumber].RIR >> 3);
 1535              		.loc 1 684 0
 1536 07f6 FB7A     		ldrb	r3, [r7, #11]	@ zero_extendqisi2
 1537 07f8 FA68     		ldr	r2, [r7, #12]
 1538 07fa 1B33     		adds	r3, r3, #27
 1539 07fc 1B01     		lsls	r3, r3, #4
 1540 07fe 1344     		add	r3, r3, r2
 1541 0800 1B68     		ldr	r3, [r3]
 1542 0802 DB08     		lsrs	r3, r3, #3
 1543 0804 23F06042 		bic	r2, r3, #-536870912
 1544 0808 7B68     		ldr	r3, [r7, #4]
 1545 080a 5A60     		str	r2, [r3, #4]
 1546              	.L89:
 685:../../source/src/FWlib/src/stm32f10x_can.c ****   }
 686:../../source/src/FWlib/src/stm32f10x_can.c ****   
ARM GAS  G:\Users\Jaxb\AppData\Local\Temp\cc1bUhhc.s 			page 41


 687:../../source/src/FWlib/src/stm32f10x_can.c ****   RxMessage->RTR = (uint8_t)0x02 & CANx->sFIFOMailBox[FIFONumber].RIR;
 1547              		.loc 1 687 0
 1548 080c FB7A     		ldrb	r3, [r7, #11]	@ zero_extendqisi2
 1549 080e FA68     		ldr	r2, [r7, #12]
 1550 0810 1B33     		adds	r3, r3, #27
 1551 0812 1B01     		lsls	r3, r3, #4
 1552 0814 1344     		add	r3, r3, r2
 1553 0816 1B68     		ldr	r3, [r3]
 1554 0818 DBB2     		uxtb	r3, r3
 1555 081a 03F00203 		and	r3, r3, #2
 1556 081e DAB2     		uxtb	r2, r3
 1557 0820 7B68     		ldr	r3, [r7, #4]
 1558 0822 5A72     		strb	r2, [r3, #9]
 688:../../source/src/FWlib/src/stm32f10x_can.c ****   /* Get the DLC */
 689:../../source/src/FWlib/src/stm32f10x_can.c ****   RxMessage->DLC = (uint8_t)0x0F & CANx->sFIFOMailBox[FIFONumber].RDTR;
 1559              		.loc 1 689 0
 1560 0824 FB7A     		ldrb	r3, [r7, #11]	@ zero_extendqisi2
 1561 0826 FA68     		ldr	r2, [r7, #12]
 1562 0828 1B33     		adds	r3, r3, #27
 1563 082a 1B01     		lsls	r3, r3, #4
 1564 082c 1344     		add	r3, r3, r2
 1565 082e 0433     		adds	r3, r3, #4
 1566 0830 1B68     		ldr	r3, [r3]
 1567 0832 DBB2     		uxtb	r3, r3
 1568 0834 03F00F03 		and	r3, r3, #15
 1569 0838 DAB2     		uxtb	r2, r3
 1570 083a 7B68     		ldr	r3, [r7, #4]
 1571 083c 9A72     		strb	r2, [r3, #10]
 690:../../source/src/FWlib/src/stm32f10x_can.c ****   /* Get the FMI */
 691:../../source/src/FWlib/src/stm32f10x_can.c ****   RxMessage->FMI = (uint8_t)0xFF & (CANx->sFIFOMailBox[FIFONumber].RDTR >> 8);
 1572              		.loc 1 691 0
 1573 083e FB7A     		ldrb	r3, [r7, #11]	@ zero_extendqisi2
 1574 0840 FA68     		ldr	r2, [r7, #12]
 1575 0842 1B33     		adds	r3, r3, #27
 1576 0844 1B01     		lsls	r3, r3, #4
 1577 0846 1344     		add	r3, r3, r2
 1578 0848 0433     		adds	r3, r3, #4
 1579 084a 1B68     		ldr	r3, [r3]
 1580 084c 1B0A     		lsrs	r3, r3, #8
 1581 084e DAB2     		uxtb	r2, r3
 1582 0850 7B68     		ldr	r3, [r7, #4]
 1583 0852 DA74     		strb	r2, [r3, #19]
 692:../../source/src/FWlib/src/stm32f10x_can.c ****   /* Get the data field */
 693:../../source/src/FWlib/src/stm32f10x_can.c ****   RxMessage->Data[0] = (uint8_t)0xFF & CANx->sFIFOMailBox[FIFONumber].RDLR;
 1584              		.loc 1 693 0
 1585 0854 FB7A     		ldrb	r3, [r7, #11]	@ zero_extendqisi2
 1586 0856 FA68     		ldr	r2, [r7, #12]
 1587 0858 1B01     		lsls	r3, r3, #4
 1588 085a 1344     		add	r3, r3, r2
 1589 085c 03F5DC73 		add	r3, r3, #440
 1590 0860 1B68     		ldr	r3, [r3]
 1591 0862 DAB2     		uxtb	r2, r3
 1592 0864 7B68     		ldr	r3, [r7, #4]
 1593 0866 DA72     		strb	r2, [r3, #11]
 694:../../source/src/FWlib/src/stm32f10x_can.c ****   RxMessage->Data[1] = (uint8_t)0xFF & (CANx->sFIFOMailBox[FIFONumber].RDLR >> 8);
 1594              		.loc 1 694 0
 1595 0868 FB7A     		ldrb	r3, [r7, #11]	@ zero_extendqisi2
ARM GAS  G:\Users\Jaxb\AppData\Local\Temp\cc1bUhhc.s 			page 42


 1596 086a FA68     		ldr	r2, [r7, #12]
 1597 086c 1B01     		lsls	r3, r3, #4
 1598 086e 1344     		add	r3, r3, r2
 1599 0870 03F5DC73 		add	r3, r3, #440
 1600 0874 1B68     		ldr	r3, [r3]
 1601 0876 1B0A     		lsrs	r3, r3, #8
 1602 0878 DAB2     		uxtb	r2, r3
 1603 087a 7B68     		ldr	r3, [r7, #4]
 1604 087c 1A73     		strb	r2, [r3, #12]
 695:../../source/src/FWlib/src/stm32f10x_can.c ****   RxMessage->Data[2] = (uint8_t)0xFF & (CANx->sFIFOMailBox[FIFONumber].RDLR >> 16);
 1605              		.loc 1 695 0
 1606 087e FB7A     		ldrb	r3, [r7, #11]	@ zero_extendqisi2
 1607 0880 FA68     		ldr	r2, [r7, #12]
 1608 0882 1B01     		lsls	r3, r3, #4
 1609 0884 1344     		add	r3, r3, r2
 1610 0886 03F5DC73 		add	r3, r3, #440
 1611 088a 1B68     		ldr	r3, [r3]
 1612 088c 1B0C     		lsrs	r3, r3, #16
 1613 088e DAB2     		uxtb	r2, r3
 1614 0890 7B68     		ldr	r3, [r7, #4]
 1615 0892 5A73     		strb	r2, [r3, #13]
 696:../../source/src/FWlib/src/stm32f10x_can.c ****   RxMessage->Data[3] = (uint8_t)0xFF & (CANx->sFIFOMailBox[FIFONumber].RDLR >> 24);
 1616              		.loc 1 696 0
 1617 0894 FB7A     		ldrb	r3, [r7, #11]	@ zero_extendqisi2
 1618 0896 FA68     		ldr	r2, [r7, #12]
 1619 0898 1B01     		lsls	r3, r3, #4
 1620 089a 1344     		add	r3, r3, r2
 1621 089c 03F5DC73 		add	r3, r3, #440
 1622 08a0 1B68     		ldr	r3, [r3]
 1623 08a2 1B0E     		lsrs	r3, r3, #24
 1624 08a4 DAB2     		uxtb	r2, r3
 1625 08a6 7B68     		ldr	r3, [r7, #4]
 1626 08a8 9A73     		strb	r2, [r3, #14]
 697:../../source/src/FWlib/src/stm32f10x_can.c ****   RxMessage->Data[4] = (uint8_t)0xFF & CANx->sFIFOMailBox[FIFONumber].RDHR;
 1627              		.loc 1 697 0
 1628 08aa FB7A     		ldrb	r3, [r7, #11]	@ zero_extendqisi2
 1629 08ac FA68     		ldr	r2, [r7, #12]
 1630 08ae 1B01     		lsls	r3, r3, #4
 1631 08b0 1344     		add	r3, r3, r2
 1632 08b2 03F5DE73 		add	r3, r3, #444
 1633 08b6 1B68     		ldr	r3, [r3]
 1634 08b8 DAB2     		uxtb	r2, r3
 1635 08ba 7B68     		ldr	r3, [r7, #4]
 1636 08bc DA73     		strb	r2, [r3, #15]
 698:../../source/src/FWlib/src/stm32f10x_can.c ****   RxMessage->Data[5] = (uint8_t)0xFF & (CANx->sFIFOMailBox[FIFONumber].RDHR >> 8);
 1637              		.loc 1 698 0
 1638 08be FB7A     		ldrb	r3, [r7, #11]	@ zero_extendqisi2
 1639 08c0 FA68     		ldr	r2, [r7, #12]
 1640 08c2 1B01     		lsls	r3, r3, #4
 1641 08c4 1344     		add	r3, r3, r2
 1642 08c6 03F5DE73 		add	r3, r3, #444
 1643 08ca 1B68     		ldr	r3, [r3]
 1644 08cc 1B0A     		lsrs	r3, r3, #8
 1645 08ce DAB2     		uxtb	r2, r3
 1646 08d0 7B68     		ldr	r3, [r7, #4]
 1647 08d2 1A74     		strb	r2, [r3, #16]
 699:../../source/src/FWlib/src/stm32f10x_can.c ****   RxMessage->Data[6] = (uint8_t)0xFF & (CANx->sFIFOMailBox[FIFONumber].RDHR >> 16);
ARM GAS  G:\Users\Jaxb\AppData\Local\Temp\cc1bUhhc.s 			page 43


 1648              		.loc 1 699 0
 1649 08d4 FB7A     		ldrb	r3, [r7, #11]	@ zero_extendqisi2
 1650 08d6 FA68     		ldr	r2, [r7, #12]
 1651 08d8 1B01     		lsls	r3, r3, #4
 1652 08da 1344     		add	r3, r3, r2
 1653 08dc 03F5DE73 		add	r3, r3, #444
 1654 08e0 1B68     		ldr	r3, [r3]
 1655 08e2 1B0C     		lsrs	r3, r3, #16
 1656 08e4 DAB2     		uxtb	r2, r3
 1657 08e6 7B68     		ldr	r3, [r7, #4]
 1658 08e8 5A74     		strb	r2, [r3, #17]
 700:../../source/src/FWlib/src/stm32f10x_can.c ****   RxMessage->Data[7] = (uint8_t)0xFF & (CANx->sFIFOMailBox[FIFONumber].RDHR >> 24);
 1659              		.loc 1 700 0
 1660 08ea FB7A     		ldrb	r3, [r7, #11]	@ zero_extendqisi2
 1661 08ec FA68     		ldr	r2, [r7, #12]
 1662 08ee 1B01     		lsls	r3, r3, #4
 1663 08f0 1344     		add	r3, r3, r2
 1664 08f2 03F5DE73 		add	r3, r3, #444
 1665 08f6 1B68     		ldr	r3, [r3]
 1666 08f8 1B0E     		lsrs	r3, r3, #24
 1667 08fa DAB2     		uxtb	r2, r3
 1668 08fc 7B68     		ldr	r3, [r7, #4]
 1669 08fe 9A74     		strb	r2, [r3, #18]
 701:../../source/src/FWlib/src/stm32f10x_can.c ****   /* Release the FIFO */
 702:../../source/src/FWlib/src/stm32f10x_can.c ****   /* Release FIFO0 */
 703:../../source/src/FWlib/src/stm32f10x_can.c ****   if (FIFONumber == CAN_FIFO0)
 1670              		.loc 1 703 0
 1671 0900 FB7A     		ldrb	r3, [r7, #11]	@ zero_extendqisi2
 1672 0902 002B     		cmp	r3, #0
 1673 0904 06D1     		bne	.L90
 704:../../source/src/FWlib/src/stm32f10x_can.c ****   {
 705:../../source/src/FWlib/src/stm32f10x_can.c ****     CANx->RF0R |= CAN_RF0R_RFOM0;
 1674              		.loc 1 705 0
 1675 0906 FB68     		ldr	r3, [r7, #12]
 1676 0908 DB68     		ldr	r3, [r3, #12]
 1677 090a 43F02002 		orr	r2, r3, #32
 1678 090e FB68     		ldr	r3, [r7, #12]
 1679 0910 DA60     		str	r2, [r3, #12]
 706:../../source/src/FWlib/src/stm32f10x_can.c ****   }
 707:../../source/src/FWlib/src/stm32f10x_can.c ****   /* Release FIFO1 */
 708:../../source/src/FWlib/src/stm32f10x_can.c ****   else /* FIFONumber == CAN_FIFO1 */
 709:../../source/src/FWlib/src/stm32f10x_can.c ****   {
 710:../../source/src/FWlib/src/stm32f10x_can.c ****     CANx->RF1R |= CAN_RF1R_RFOM1;
 711:../../source/src/FWlib/src/stm32f10x_can.c ****   }
 712:../../source/src/FWlib/src/stm32f10x_can.c **** }
 1680              		.loc 1 712 0
 1681 0912 05E0     		b	.L92
 1682              	.L90:
 710:../../source/src/FWlib/src/stm32f10x_can.c ****   }
 1683              		.loc 1 710 0
 1684 0914 FB68     		ldr	r3, [r7, #12]
 1685 0916 1B69     		ldr	r3, [r3, #16]
 1686 0918 43F02002 		orr	r2, r3, #32
 1687 091c FB68     		ldr	r3, [r7, #12]
 1688 091e 1A61     		str	r2, [r3, #16]
 1689              	.L92:
 1690              		.loc 1 712 0
ARM GAS  G:\Users\Jaxb\AppData\Local\Temp\cc1bUhhc.s 			page 44


 1691 0920 00BF     		nop
 1692 0922 1437     		adds	r7, r7, #20
 1693              	.LCFI62:
 1694              		.cfi_def_cfa_offset 4
 1695 0924 BD46     		mov	sp, r7
 1696              	.LCFI63:
 1697              		.cfi_def_cfa_register 13
 1698              		@ sp needed
 1699 0926 80BC     		pop	{r7}
 1700              	.LCFI64:
 1701              		.cfi_restore 7
 1702              		.cfi_def_cfa_offset 0
 1703 0928 7047     		bx	lr
 1704              		.cfi_endproc
 1705              	.LFE39:
 1706              		.size	CAN_Receive, .-CAN_Receive
 1707              		.align	1
 1708              		.global	CAN_FIFORelease
 1709              		.syntax unified
 1710              		.thumb
 1711              		.thumb_func
 1712              		.fpu softvfp
 1713              		.type	CAN_FIFORelease, %function
 1714              	CAN_FIFORelease:
 1715              	.LFB40:
 713:../../source/src/FWlib/src/stm32f10x_can.c **** 
 714:../../source/src/FWlib/src/stm32f10x_can.c **** /**
 715:../../source/src/FWlib/src/stm32f10x_can.c ****   * @brief  Releases the specified FIFO.
 716:../../source/src/FWlib/src/stm32f10x_can.c ****   * @param  CANx:       where x can be 1 or 2 to to select the CAN peripheral. 
 717:../../source/src/FWlib/src/stm32f10x_can.c ****   * @param  FIFONumber: FIFO to release, CAN_FIFO0 or CAN_FIFO1.
 718:../../source/src/FWlib/src/stm32f10x_can.c ****   * @retval None.
 719:../../source/src/FWlib/src/stm32f10x_can.c ****   */
 720:../../source/src/FWlib/src/stm32f10x_can.c **** void CAN_FIFORelease(CAN_TypeDef* CANx, uint8_t FIFONumber)
 721:../../source/src/FWlib/src/stm32f10x_can.c **** {
 1716              		.loc 1 721 0
 1717              		.cfi_startproc
 1718              		@ args = 0, pretend = 0, frame = 8
 1719              		@ frame_needed = 1, uses_anonymous_args = 0
 1720              		@ link register save eliminated.
 1721 092a 80B4     		push	{r7}
 1722              	.LCFI65:
 1723              		.cfi_def_cfa_offset 4
 1724              		.cfi_offset 7, -4
 1725 092c 83B0     		sub	sp, sp, #12
 1726              	.LCFI66:
 1727              		.cfi_def_cfa_offset 16
 1728 092e 00AF     		add	r7, sp, #0
 1729              	.LCFI67:
 1730              		.cfi_def_cfa_register 7
 1731 0930 7860     		str	r0, [r7, #4]
 1732 0932 0B46     		mov	r3, r1
 1733 0934 FB70     		strb	r3, [r7, #3]
 722:../../source/src/FWlib/src/stm32f10x_can.c ****   /* Check the parameters */
 723:../../source/src/FWlib/src/stm32f10x_can.c ****   assert_param(IS_CAN_ALL_PERIPH(CANx));
 724:../../source/src/FWlib/src/stm32f10x_can.c ****   assert_param(IS_CAN_FIFO(FIFONumber));
 725:../../source/src/FWlib/src/stm32f10x_can.c ****   /* Release FIFO0 */
 726:../../source/src/FWlib/src/stm32f10x_can.c ****   if (FIFONumber == CAN_FIFO0)
ARM GAS  G:\Users\Jaxb\AppData\Local\Temp\cc1bUhhc.s 			page 45


 1734              		.loc 1 726 0
 1735 0936 FB78     		ldrb	r3, [r7, #3]	@ zero_extendqisi2
 1736 0938 002B     		cmp	r3, #0
 1737 093a 06D1     		bne	.L94
 727:../../source/src/FWlib/src/stm32f10x_can.c ****   {
 728:../../source/src/FWlib/src/stm32f10x_can.c ****     CANx->RF0R |= CAN_RF0R_RFOM0;
 1738              		.loc 1 728 0
 1739 093c 7B68     		ldr	r3, [r7, #4]
 1740 093e DB68     		ldr	r3, [r3, #12]
 1741 0940 43F02002 		orr	r2, r3, #32
 1742 0944 7B68     		ldr	r3, [r7, #4]
 1743 0946 DA60     		str	r2, [r3, #12]
 729:../../source/src/FWlib/src/stm32f10x_can.c ****   }
 730:../../source/src/FWlib/src/stm32f10x_can.c ****   /* Release FIFO1 */
 731:../../source/src/FWlib/src/stm32f10x_can.c ****   else /* FIFONumber == CAN_FIFO1 */
 732:../../source/src/FWlib/src/stm32f10x_can.c ****   {
 733:../../source/src/FWlib/src/stm32f10x_can.c ****     CANx->RF1R |= CAN_RF1R_RFOM1;
 734:../../source/src/FWlib/src/stm32f10x_can.c ****   }
 735:../../source/src/FWlib/src/stm32f10x_can.c **** }
 1744              		.loc 1 735 0
 1745 0948 05E0     		b	.L96
 1746              	.L94:
 733:../../source/src/FWlib/src/stm32f10x_can.c ****   }
 1747              		.loc 1 733 0
 1748 094a 7B68     		ldr	r3, [r7, #4]
 1749 094c 1B69     		ldr	r3, [r3, #16]
 1750 094e 43F02002 		orr	r2, r3, #32
 1751 0952 7B68     		ldr	r3, [r7, #4]
 1752 0954 1A61     		str	r2, [r3, #16]
 1753              	.L96:
 1754              		.loc 1 735 0
 1755 0956 00BF     		nop
 1756 0958 0C37     		adds	r7, r7, #12
 1757              	.LCFI68:
 1758              		.cfi_def_cfa_offset 4
 1759 095a BD46     		mov	sp, r7
 1760              	.LCFI69:
 1761              		.cfi_def_cfa_register 13
 1762              		@ sp needed
 1763 095c 80BC     		pop	{r7}
 1764              	.LCFI70:
 1765              		.cfi_restore 7
 1766              		.cfi_def_cfa_offset 0
 1767 095e 7047     		bx	lr
 1768              		.cfi_endproc
 1769              	.LFE40:
 1770              		.size	CAN_FIFORelease, .-CAN_FIFORelease
 1771              		.align	1
 1772              		.global	CAN_MessagePending
 1773              		.syntax unified
 1774              		.thumb
 1775              		.thumb_func
 1776              		.fpu softvfp
 1777              		.type	CAN_MessagePending, %function
 1778              	CAN_MessagePending:
 1779              	.LFB41:
 736:../../source/src/FWlib/src/stm32f10x_can.c **** 
ARM GAS  G:\Users\Jaxb\AppData\Local\Temp\cc1bUhhc.s 			page 46


 737:../../source/src/FWlib/src/stm32f10x_can.c **** /**
 738:../../source/src/FWlib/src/stm32f10x_can.c ****   * @brief  Returns the number of pending messages.
 739:../../source/src/FWlib/src/stm32f10x_can.c ****   * @param  CANx:       where x can be 1 or 2 to to select the CAN peripheral.
 740:../../source/src/FWlib/src/stm32f10x_can.c ****   * @param  FIFONumber: Receive FIFO number, CAN_FIFO0 or CAN_FIFO1.
 741:../../source/src/FWlib/src/stm32f10x_can.c ****   * @retval NbMessage : which is the number of pending message.
 742:../../source/src/FWlib/src/stm32f10x_can.c ****   */
 743:../../source/src/FWlib/src/stm32f10x_can.c **** uint8_t CAN_MessagePending(CAN_TypeDef* CANx, uint8_t FIFONumber)
 744:../../source/src/FWlib/src/stm32f10x_can.c **** {
 1780              		.loc 1 744 0
 1781              		.cfi_startproc
 1782              		@ args = 0, pretend = 0, frame = 16
 1783              		@ frame_needed = 1, uses_anonymous_args = 0
 1784              		@ link register save eliminated.
 1785 0960 80B4     		push	{r7}
 1786              	.LCFI71:
 1787              		.cfi_def_cfa_offset 4
 1788              		.cfi_offset 7, -4
 1789 0962 85B0     		sub	sp, sp, #20
 1790              	.LCFI72:
 1791              		.cfi_def_cfa_offset 24
 1792 0964 00AF     		add	r7, sp, #0
 1793              	.LCFI73:
 1794              		.cfi_def_cfa_register 7
 1795 0966 7860     		str	r0, [r7, #4]
 1796 0968 0B46     		mov	r3, r1
 1797 096a FB70     		strb	r3, [r7, #3]
 745:../../source/src/FWlib/src/stm32f10x_can.c ****   uint8_t message_pending=0;
 1798              		.loc 1 745 0
 1799 096c 0023     		movs	r3, #0
 1800 096e FB73     		strb	r3, [r7, #15]
 746:../../source/src/FWlib/src/stm32f10x_can.c ****   /* Check the parameters */
 747:../../source/src/FWlib/src/stm32f10x_can.c ****   assert_param(IS_CAN_ALL_PERIPH(CANx));
 748:../../source/src/FWlib/src/stm32f10x_can.c ****   assert_param(IS_CAN_FIFO(FIFONumber));
 749:../../source/src/FWlib/src/stm32f10x_can.c ****   if (FIFONumber == CAN_FIFO0)
 1801              		.loc 1 749 0
 1802 0970 FB78     		ldrb	r3, [r7, #3]	@ zero_extendqisi2
 1803 0972 002B     		cmp	r3, #0
 1804 0974 06D1     		bne	.L98
 750:../../source/src/FWlib/src/stm32f10x_can.c ****   {
 751:../../source/src/FWlib/src/stm32f10x_can.c ****     message_pending = (uint8_t)(CANx->RF0R&(uint32_t)0x03);
 1805              		.loc 1 751 0
 1806 0976 7B68     		ldr	r3, [r7, #4]
 1807 0978 DB68     		ldr	r3, [r3, #12]
 1808 097a DBB2     		uxtb	r3, r3
 1809 097c 03F00303 		and	r3, r3, #3
 1810 0980 FB73     		strb	r3, [r7, #15]
 1811 0982 0BE0     		b	.L99
 1812              	.L98:
 752:../../source/src/FWlib/src/stm32f10x_can.c ****   }
 753:../../source/src/FWlib/src/stm32f10x_can.c ****   else if (FIFONumber == CAN_FIFO1)
 1813              		.loc 1 753 0
 1814 0984 FB78     		ldrb	r3, [r7, #3]	@ zero_extendqisi2
 1815 0986 012B     		cmp	r3, #1
 1816 0988 06D1     		bne	.L100
 754:../../source/src/FWlib/src/stm32f10x_can.c ****   {
 755:../../source/src/FWlib/src/stm32f10x_can.c ****     message_pending = (uint8_t)(CANx->RF1R&(uint32_t)0x03);
 1817              		.loc 1 755 0
ARM GAS  G:\Users\Jaxb\AppData\Local\Temp\cc1bUhhc.s 			page 47


 1818 098a 7B68     		ldr	r3, [r7, #4]
 1819 098c 1B69     		ldr	r3, [r3, #16]
 1820 098e DBB2     		uxtb	r3, r3
 1821 0990 03F00303 		and	r3, r3, #3
 1822 0994 FB73     		strb	r3, [r7, #15]
 1823 0996 01E0     		b	.L99
 1824              	.L100:
 756:../../source/src/FWlib/src/stm32f10x_can.c ****   }
 757:../../source/src/FWlib/src/stm32f10x_can.c ****   else
 758:../../source/src/FWlib/src/stm32f10x_can.c ****   {
 759:../../source/src/FWlib/src/stm32f10x_can.c ****     message_pending = 0;
 1825              		.loc 1 759 0
 1826 0998 0023     		movs	r3, #0
 1827 099a FB73     		strb	r3, [r7, #15]
 1828              	.L99:
 760:../../source/src/FWlib/src/stm32f10x_can.c ****   }
 761:../../source/src/FWlib/src/stm32f10x_can.c ****   return message_pending;
 1829              		.loc 1 761 0
 1830 099c FB7B     		ldrb	r3, [r7, #15]	@ zero_extendqisi2
 762:../../source/src/FWlib/src/stm32f10x_can.c **** }
 1831              		.loc 1 762 0
 1832 099e 1846     		mov	r0, r3
 1833 09a0 1437     		adds	r7, r7, #20
 1834              	.LCFI74:
 1835              		.cfi_def_cfa_offset 4
 1836 09a2 BD46     		mov	sp, r7
 1837              	.LCFI75:
 1838              		.cfi_def_cfa_register 13
 1839              		@ sp needed
 1840 09a4 80BC     		pop	{r7}
 1841              	.LCFI76:
 1842              		.cfi_restore 7
 1843              		.cfi_def_cfa_offset 0
 1844 09a6 7047     		bx	lr
 1845              		.cfi_endproc
 1846              	.LFE41:
 1847              		.size	CAN_MessagePending, .-CAN_MessagePending
 1848              		.align	1
 1849              		.global	CAN_OperatingModeRequest
 1850              		.syntax unified
 1851              		.thumb
 1852              		.thumb_func
 1853              		.fpu softvfp
 1854              		.type	CAN_OperatingModeRequest, %function
 1855              	CAN_OperatingModeRequest:
 1856              	.LFB42:
 763:../../source/src/FWlib/src/stm32f10x_can.c **** 
 764:../../source/src/FWlib/src/stm32f10x_can.c **** 
 765:../../source/src/FWlib/src/stm32f10x_can.c **** /**
 766:../../source/src/FWlib/src/stm32f10x_can.c ****   * @brief   Select the CAN Operation mode.
 767:../../source/src/FWlib/src/stm32f10x_can.c ****   * @param CAN_OperatingMode : CAN Operating Mode. This parameter can be one 
 768:../../source/src/FWlib/src/stm32f10x_can.c ****   *                            of @ref CAN_OperatingMode_TypeDef enumeration.
 769:../../source/src/FWlib/src/stm32f10x_can.c ****   * @retval status of the requested mode which can be 
 770:../../source/src/FWlib/src/stm32f10x_can.c ****   *         - CAN_ModeStatus_Failed    CAN failed entering the specific mode 
 771:../../source/src/FWlib/src/stm32f10x_can.c ****   *         - CAN_ModeStatus_Success   CAN Succeed entering the specific mode 
 772:../../source/src/FWlib/src/stm32f10x_can.c **** 
 773:../../source/src/FWlib/src/stm32f10x_can.c ****   */
ARM GAS  G:\Users\Jaxb\AppData\Local\Temp\cc1bUhhc.s 			page 48


 774:../../source/src/FWlib/src/stm32f10x_can.c **** uint8_t CAN_OperatingModeRequest(CAN_TypeDef* CANx, uint8_t CAN_OperatingMode)
 775:../../source/src/FWlib/src/stm32f10x_can.c **** {
 1857              		.loc 1 775 0
 1858              		.cfi_startproc
 1859              		@ args = 0, pretend = 0, frame = 16
 1860              		@ frame_needed = 1, uses_anonymous_args = 0
 1861              		@ link register save eliminated.
 1862 09a8 80B4     		push	{r7}
 1863              	.LCFI77:
 1864              		.cfi_def_cfa_offset 4
 1865              		.cfi_offset 7, -4
 1866 09aa 85B0     		sub	sp, sp, #20
 1867              	.LCFI78:
 1868              		.cfi_def_cfa_offset 24
 1869 09ac 00AF     		add	r7, sp, #0
 1870              	.LCFI79:
 1871              		.cfi_def_cfa_register 7
 1872 09ae 7860     		str	r0, [r7, #4]
 1873 09b0 0B46     		mov	r3, r1
 1874 09b2 FB70     		strb	r3, [r7, #3]
 776:../../source/src/FWlib/src/stm32f10x_can.c ****   uint8_t status = CAN_ModeStatus_Failed;
 1875              		.loc 1 776 0
 1876 09b4 0023     		movs	r3, #0
 1877 09b6 FB73     		strb	r3, [r7, #15]
 777:../../source/src/FWlib/src/stm32f10x_can.c ****   
 778:../../source/src/FWlib/src/stm32f10x_can.c ****   /* Timeout for INAK or also for SLAK bits*/
 779:../../source/src/FWlib/src/stm32f10x_can.c ****   uint32_t timeout = INAK_TIMEOUT; 
 1878              		.loc 1 779 0
 1879 09b8 4FF6FF73 		movw	r3, #65535
 1880 09bc BB60     		str	r3, [r7, #8]
 780:../../source/src/FWlib/src/stm32f10x_can.c **** 
 781:../../source/src/FWlib/src/stm32f10x_can.c ****   /* Check the parameters */
 782:../../source/src/FWlib/src/stm32f10x_can.c ****   assert_param(IS_CAN_ALL_PERIPH(CANx));
 783:../../source/src/FWlib/src/stm32f10x_can.c ****   assert_param(IS_CAN_OPERATING_MODE(CAN_OperatingMode));
 784:../../source/src/FWlib/src/stm32f10x_can.c **** 
 785:../../source/src/FWlib/src/stm32f10x_can.c ****   if (CAN_OperatingMode == CAN_OperatingMode_Initialization)
 1881              		.loc 1 785 0
 1882 09be FB78     		ldrb	r3, [r7, #3]	@ zero_extendqisi2
 1883 09c0 002B     		cmp	r3, #0
 1884 09c2 20D1     		bne	.L103
 786:../../source/src/FWlib/src/stm32f10x_can.c ****   {
 787:../../source/src/FWlib/src/stm32f10x_can.c ****     /* Request initialisation */
 788:../../source/src/FWlib/src/stm32f10x_can.c ****     CANx->MCR = (uint32_t)((CANx->MCR & (uint32_t)(~(uint32_t)CAN_MCR_SLEEP)) | CAN_MCR_INRQ);
 1885              		.loc 1 788 0
 1886 09c4 7B68     		ldr	r3, [r7, #4]
 1887 09c6 1B68     		ldr	r3, [r3]
 1888 09c8 23F00303 		bic	r3, r3, #3
 1889 09cc 43F00102 		orr	r2, r3, #1
 1890 09d0 7B68     		ldr	r3, [r7, #4]
 1891 09d2 1A60     		str	r2, [r3]
 789:../../source/src/FWlib/src/stm32f10x_can.c **** 
 790:../../source/src/FWlib/src/stm32f10x_can.c ****     /* Wait the acknowledge */
 791:../../source/src/FWlib/src/stm32f10x_can.c ****     while (((CANx->MSR & CAN_MODE_MASK) != CAN_MSR_INAK) && (timeout != 0))
 1892              		.loc 1 791 0
 1893 09d4 02E0     		b	.L104
 1894              	.L106:
 792:../../source/src/FWlib/src/stm32f10x_can.c ****     {
ARM GAS  G:\Users\Jaxb\AppData\Local\Temp\cc1bUhhc.s 			page 49


 793:../../source/src/FWlib/src/stm32f10x_can.c ****       timeout--;
 1895              		.loc 1 793 0
 1896 09d6 BB68     		ldr	r3, [r7, #8]
 1897 09d8 013B     		subs	r3, r3, #1
 1898 09da BB60     		str	r3, [r7, #8]
 1899              	.L104:
 791:../../source/src/FWlib/src/stm32f10x_can.c ****     {
 1900              		.loc 1 791 0
 1901 09dc 7B68     		ldr	r3, [r7, #4]
 1902 09de 5B68     		ldr	r3, [r3, #4]
 1903 09e0 03F00303 		and	r3, r3, #3
 1904 09e4 012B     		cmp	r3, #1
 1905 09e6 02D0     		beq	.L105
 791:../../source/src/FWlib/src/stm32f10x_can.c ****     {
 1906              		.loc 1 791 0 is_stmt 0 discriminator 1
 1907 09e8 BB68     		ldr	r3, [r7, #8]
 1908 09ea 002B     		cmp	r3, #0
 1909 09ec F3D1     		bne	.L106
 1910              	.L105:
 794:../../source/src/FWlib/src/stm32f10x_can.c ****     }
 795:../../source/src/FWlib/src/stm32f10x_can.c ****     if ((CANx->MSR & CAN_MODE_MASK) != CAN_MSR_INAK)
 1911              		.loc 1 795 0 is_stmt 1
 1912 09ee 7B68     		ldr	r3, [r7, #4]
 1913 09f0 5B68     		ldr	r3, [r3, #4]
 1914 09f2 03F00303 		and	r3, r3, #3
 1915 09f6 012B     		cmp	r3, #1
 1916 09f8 02D0     		beq	.L107
 796:../../source/src/FWlib/src/stm32f10x_can.c ****     {
 797:../../source/src/FWlib/src/stm32f10x_can.c ****       status = CAN_ModeStatus_Failed;
 1917              		.loc 1 797 0
 1918 09fa 0023     		movs	r3, #0
 1919 09fc FB73     		strb	r3, [r7, #15]
 1920 09fe 4AE0     		b	.L109
 1921              	.L107:
 798:../../source/src/FWlib/src/stm32f10x_can.c ****     }
 799:../../source/src/FWlib/src/stm32f10x_can.c ****     else
 800:../../source/src/FWlib/src/stm32f10x_can.c ****     {
 801:../../source/src/FWlib/src/stm32f10x_can.c ****       status = CAN_ModeStatus_Success;
 1922              		.loc 1 801 0
 1923 0a00 0123     		movs	r3, #1
 1924 0a02 FB73     		strb	r3, [r7, #15]
 1925 0a04 47E0     		b	.L109
 1926              	.L103:
 802:../../source/src/FWlib/src/stm32f10x_can.c ****     }
 803:../../source/src/FWlib/src/stm32f10x_can.c ****   }
 804:../../source/src/FWlib/src/stm32f10x_can.c ****   else  if (CAN_OperatingMode == CAN_OperatingMode_Normal)
 1927              		.loc 1 804 0
 1928 0a06 FB78     		ldrb	r3, [r7, #3]	@ zero_extendqisi2
 1929 0a08 012B     		cmp	r3, #1
 1930 0a0a 1ED1     		bne	.L110
 805:../../source/src/FWlib/src/stm32f10x_can.c ****   {
 806:../../source/src/FWlib/src/stm32f10x_can.c ****     /* Request leave initialisation and sleep mode  and enter Normal mode */
 807:../../source/src/FWlib/src/stm32f10x_can.c ****     CANx->MCR &= (uint32_t)(~(CAN_MCR_SLEEP|CAN_MCR_INRQ));
 1931              		.loc 1 807 0
 1932 0a0c 7B68     		ldr	r3, [r7, #4]
 1933 0a0e 1B68     		ldr	r3, [r3]
 1934 0a10 23F00302 		bic	r2, r3, #3
ARM GAS  G:\Users\Jaxb\AppData\Local\Temp\cc1bUhhc.s 			page 50


 1935 0a14 7B68     		ldr	r3, [r7, #4]
 1936 0a16 1A60     		str	r2, [r3]
 808:../../source/src/FWlib/src/stm32f10x_can.c **** 
 809:../../source/src/FWlib/src/stm32f10x_can.c ****     /* Wait the acknowledge */
 810:../../source/src/FWlib/src/stm32f10x_can.c ****     while (((CANx->MSR & CAN_MODE_MASK) != 0) && (timeout!=0))
 1937              		.loc 1 810 0
 1938 0a18 02E0     		b	.L111
 1939              	.L113:
 811:../../source/src/FWlib/src/stm32f10x_can.c ****     {
 812:../../source/src/FWlib/src/stm32f10x_can.c ****       timeout--;
 1940              		.loc 1 812 0
 1941 0a1a BB68     		ldr	r3, [r7, #8]
 1942 0a1c 013B     		subs	r3, r3, #1
 1943 0a1e BB60     		str	r3, [r7, #8]
 1944              	.L111:
 810:../../source/src/FWlib/src/stm32f10x_can.c ****     {
 1945              		.loc 1 810 0
 1946 0a20 7B68     		ldr	r3, [r7, #4]
 1947 0a22 5B68     		ldr	r3, [r3, #4]
 1948 0a24 03F00303 		and	r3, r3, #3
 1949 0a28 002B     		cmp	r3, #0
 1950 0a2a 02D0     		beq	.L112
 810:../../source/src/FWlib/src/stm32f10x_can.c ****     {
 1951              		.loc 1 810 0 is_stmt 0 discriminator 1
 1952 0a2c BB68     		ldr	r3, [r7, #8]
 1953 0a2e 002B     		cmp	r3, #0
 1954 0a30 F3D1     		bne	.L113
 1955              	.L112:
 813:../../source/src/FWlib/src/stm32f10x_can.c ****     }
 814:../../source/src/FWlib/src/stm32f10x_can.c ****     if ((CANx->MSR & CAN_MODE_MASK) != 0)
 1956              		.loc 1 814 0 is_stmt 1
 1957 0a32 7B68     		ldr	r3, [r7, #4]
 1958 0a34 5B68     		ldr	r3, [r3, #4]
 1959 0a36 03F00303 		and	r3, r3, #3
 1960 0a3a 002B     		cmp	r3, #0
 1961 0a3c 02D0     		beq	.L114
 815:../../source/src/FWlib/src/stm32f10x_can.c ****     {
 816:../../source/src/FWlib/src/stm32f10x_can.c ****       status = CAN_ModeStatus_Failed;
 1962              		.loc 1 816 0
 1963 0a3e 0023     		movs	r3, #0
 1964 0a40 FB73     		strb	r3, [r7, #15]
 1965 0a42 28E0     		b	.L109
 1966              	.L114:
 817:../../source/src/FWlib/src/stm32f10x_can.c ****     }
 818:../../source/src/FWlib/src/stm32f10x_can.c ****     else
 819:../../source/src/FWlib/src/stm32f10x_can.c ****     {
 820:../../source/src/FWlib/src/stm32f10x_can.c ****       status = CAN_ModeStatus_Success;
 1967              		.loc 1 820 0
 1968 0a44 0123     		movs	r3, #1
 1969 0a46 FB73     		strb	r3, [r7, #15]
 1970 0a48 25E0     		b	.L109
 1971              	.L110:
 821:../../source/src/FWlib/src/stm32f10x_can.c ****     }
 822:../../source/src/FWlib/src/stm32f10x_can.c ****   }
 823:../../source/src/FWlib/src/stm32f10x_can.c ****   else  if (CAN_OperatingMode == CAN_OperatingMode_Sleep)
 1972              		.loc 1 823 0
 1973 0a4a FB78     		ldrb	r3, [r7, #3]	@ zero_extendqisi2
ARM GAS  G:\Users\Jaxb\AppData\Local\Temp\cc1bUhhc.s 			page 51


 1974 0a4c 022B     		cmp	r3, #2
 1975 0a4e 20D1     		bne	.L116
 824:../../source/src/FWlib/src/stm32f10x_can.c ****   {
 825:../../source/src/FWlib/src/stm32f10x_can.c ****     /* Request Sleep mode */
 826:../../source/src/FWlib/src/stm32f10x_can.c ****     CANx->MCR = (uint32_t)((CANx->MCR & (uint32_t)(~(uint32_t)CAN_MCR_INRQ)) | CAN_MCR_SLEEP);
 1976              		.loc 1 826 0
 1977 0a50 7B68     		ldr	r3, [r7, #4]
 1978 0a52 1B68     		ldr	r3, [r3]
 1979 0a54 23F00303 		bic	r3, r3, #3
 1980 0a58 43F00202 		orr	r2, r3, #2
 1981 0a5c 7B68     		ldr	r3, [r7, #4]
 1982 0a5e 1A60     		str	r2, [r3]
 827:../../source/src/FWlib/src/stm32f10x_can.c **** 
 828:../../source/src/FWlib/src/stm32f10x_can.c ****     /* Wait the acknowledge */
 829:../../source/src/FWlib/src/stm32f10x_can.c ****     while (((CANx->MSR & CAN_MODE_MASK) != CAN_MSR_SLAK) && (timeout!=0))
 1983              		.loc 1 829 0
 1984 0a60 02E0     		b	.L117
 1985              	.L119:
 830:../../source/src/FWlib/src/stm32f10x_can.c ****     {
 831:../../source/src/FWlib/src/stm32f10x_can.c ****       timeout--;
 1986              		.loc 1 831 0
 1987 0a62 BB68     		ldr	r3, [r7, #8]
 1988 0a64 013B     		subs	r3, r3, #1
 1989 0a66 BB60     		str	r3, [r7, #8]
 1990              	.L117:
 829:../../source/src/FWlib/src/stm32f10x_can.c ****     {
 1991              		.loc 1 829 0
 1992 0a68 7B68     		ldr	r3, [r7, #4]
 1993 0a6a 5B68     		ldr	r3, [r3, #4]
 1994 0a6c 03F00303 		and	r3, r3, #3
 1995 0a70 022B     		cmp	r3, #2
 1996 0a72 02D0     		beq	.L118
 829:../../source/src/FWlib/src/stm32f10x_can.c ****     {
 1997              		.loc 1 829 0 is_stmt 0 discriminator 1
 1998 0a74 BB68     		ldr	r3, [r7, #8]
 1999 0a76 002B     		cmp	r3, #0
 2000 0a78 F3D1     		bne	.L119
 2001              	.L118:
 832:../../source/src/FWlib/src/stm32f10x_can.c ****     }
 833:../../source/src/FWlib/src/stm32f10x_can.c ****     if ((CANx->MSR & CAN_MODE_MASK) != CAN_MSR_SLAK)
 2002              		.loc 1 833 0 is_stmt 1
 2003 0a7a 7B68     		ldr	r3, [r7, #4]
 2004 0a7c 5B68     		ldr	r3, [r3, #4]
 2005 0a7e 03F00303 		and	r3, r3, #3
 2006 0a82 022B     		cmp	r3, #2
 2007 0a84 02D0     		beq	.L120
 834:../../source/src/FWlib/src/stm32f10x_can.c ****     {
 835:../../source/src/FWlib/src/stm32f10x_can.c ****       status = CAN_ModeStatus_Failed;
 2008              		.loc 1 835 0
 2009 0a86 0023     		movs	r3, #0
 2010 0a88 FB73     		strb	r3, [r7, #15]
 2011 0a8a 04E0     		b	.L109
 2012              	.L120:
 836:../../source/src/FWlib/src/stm32f10x_can.c ****     }
 837:../../source/src/FWlib/src/stm32f10x_can.c ****     else
 838:../../source/src/FWlib/src/stm32f10x_can.c ****     {
 839:../../source/src/FWlib/src/stm32f10x_can.c ****       status = CAN_ModeStatus_Success;
ARM GAS  G:\Users\Jaxb\AppData\Local\Temp\cc1bUhhc.s 			page 52


 2013              		.loc 1 839 0
 2014 0a8c 0123     		movs	r3, #1
 2015 0a8e FB73     		strb	r3, [r7, #15]
 2016 0a90 01E0     		b	.L109
 2017              	.L116:
 840:../../source/src/FWlib/src/stm32f10x_can.c ****     }
 841:../../source/src/FWlib/src/stm32f10x_can.c ****   }
 842:../../source/src/FWlib/src/stm32f10x_can.c ****   else
 843:../../source/src/FWlib/src/stm32f10x_can.c ****   {
 844:../../source/src/FWlib/src/stm32f10x_can.c ****     status = CAN_ModeStatus_Failed;
 2018              		.loc 1 844 0
 2019 0a92 0023     		movs	r3, #0
 2020 0a94 FB73     		strb	r3, [r7, #15]
 2021              	.L109:
 845:../../source/src/FWlib/src/stm32f10x_can.c ****   }
 846:../../source/src/FWlib/src/stm32f10x_can.c **** 
 847:../../source/src/FWlib/src/stm32f10x_can.c ****   return  (uint8_t) status;
 2022              		.loc 1 847 0
 2023 0a96 FB7B     		ldrb	r3, [r7, #15]	@ zero_extendqisi2
 848:../../source/src/FWlib/src/stm32f10x_can.c **** }
 2024              		.loc 1 848 0
 2025 0a98 1846     		mov	r0, r3
 2026 0a9a 1437     		adds	r7, r7, #20
 2027              	.LCFI80:
 2028              		.cfi_def_cfa_offset 4
 2029 0a9c BD46     		mov	sp, r7
 2030              	.LCFI81:
 2031              		.cfi_def_cfa_register 13
 2032              		@ sp needed
 2033 0a9e 80BC     		pop	{r7}
 2034              	.LCFI82:
 2035              		.cfi_restore 7
 2036              		.cfi_def_cfa_offset 0
 2037 0aa0 7047     		bx	lr
 2038              		.cfi_endproc
 2039              	.LFE42:
 2040              		.size	CAN_OperatingModeRequest, .-CAN_OperatingModeRequest
 2041              		.align	1
 2042              		.global	CAN_Sleep
 2043              		.syntax unified
 2044              		.thumb
 2045              		.thumb_func
 2046              		.fpu softvfp
 2047              		.type	CAN_Sleep, %function
 2048              	CAN_Sleep:
 2049              	.LFB43:
 849:../../source/src/FWlib/src/stm32f10x_can.c **** 
 850:../../source/src/FWlib/src/stm32f10x_can.c **** /**
 851:../../source/src/FWlib/src/stm32f10x_can.c ****   * @brief  Enters the low power mode.
 852:../../source/src/FWlib/src/stm32f10x_can.c ****   * @param  CANx:   where x can be 1 or 2 to to select the CAN peripheral.
 853:../../source/src/FWlib/src/stm32f10x_can.c ****   * @retval status: CAN_Sleep_Ok if sleep entered, CAN_Sleep_Failed in an 
 854:../../source/src/FWlib/src/stm32f10x_can.c ****   *                 other case.
 855:../../source/src/FWlib/src/stm32f10x_can.c ****   */
 856:../../source/src/FWlib/src/stm32f10x_can.c **** uint8_t CAN_Sleep(CAN_TypeDef* CANx)
 857:../../source/src/FWlib/src/stm32f10x_can.c **** {
 2050              		.loc 1 857 0
 2051              		.cfi_startproc
ARM GAS  G:\Users\Jaxb\AppData\Local\Temp\cc1bUhhc.s 			page 53


 2052              		@ args = 0, pretend = 0, frame = 16
 2053              		@ frame_needed = 1, uses_anonymous_args = 0
 2054              		@ link register save eliminated.
 2055 0aa2 80B4     		push	{r7}
 2056              	.LCFI83:
 2057              		.cfi_def_cfa_offset 4
 2058              		.cfi_offset 7, -4
 2059 0aa4 85B0     		sub	sp, sp, #20
 2060              	.LCFI84:
 2061              		.cfi_def_cfa_offset 24
 2062 0aa6 00AF     		add	r7, sp, #0
 2063              	.LCFI85:
 2064              		.cfi_def_cfa_register 7
 2065 0aa8 7860     		str	r0, [r7, #4]
 858:../../source/src/FWlib/src/stm32f10x_can.c ****   uint8_t sleepstatus = CAN_Sleep_Failed;
 2066              		.loc 1 858 0
 2067 0aaa 0023     		movs	r3, #0
 2068 0aac FB73     		strb	r3, [r7, #15]
 859:../../source/src/FWlib/src/stm32f10x_can.c ****   
 860:../../source/src/FWlib/src/stm32f10x_can.c ****   /* Check the parameters */
 861:../../source/src/FWlib/src/stm32f10x_can.c ****   assert_param(IS_CAN_ALL_PERIPH(CANx));
 862:../../source/src/FWlib/src/stm32f10x_can.c ****     
 863:../../source/src/FWlib/src/stm32f10x_can.c ****   /* Request Sleep mode */
 864:../../source/src/FWlib/src/stm32f10x_can.c ****    CANx->MCR = (((CANx->MCR) & (uint32_t)(~(uint32_t)CAN_MCR_INRQ)) | CAN_MCR_SLEEP);
 2069              		.loc 1 864 0
 2070 0aae 7B68     		ldr	r3, [r7, #4]
 2071 0ab0 1B68     		ldr	r3, [r3]
 2072 0ab2 23F00303 		bic	r3, r3, #3
 2073 0ab6 43F00202 		orr	r2, r3, #2
 2074 0aba 7B68     		ldr	r3, [r7, #4]
 2075 0abc 1A60     		str	r2, [r3]
 865:../../source/src/FWlib/src/stm32f10x_can.c ****    
 866:../../source/src/FWlib/src/stm32f10x_can.c ****   /* Sleep mode status */
 867:../../source/src/FWlib/src/stm32f10x_can.c ****   if ((CANx->MSR & (CAN_MSR_SLAK|CAN_MSR_INAK)) == CAN_MSR_SLAK)
 2076              		.loc 1 867 0
 2077 0abe 7B68     		ldr	r3, [r7, #4]
 2078 0ac0 5B68     		ldr	r3, [r3, #4]
 2079 0ac2 03F00303 		and	r3, r3, #3
 2080 0ac6 022B     		cmp	r3, #2
 2081 0ac8 01D1     		bne	.L124
 868:../../source/src/FWlib/src/stm32f10x_can.c ****   {
 869:../../source/src/FWlib/src/stm32f10x_can.c ****     /* Sleep mode not entered */
 870:../../source/src/FWlib/src/stm32f10x_can.c ****     sleepstatus =  CAN_Sleep_Ok;
 2082              		.loc 1 870 0
 2083 0aca 0123     		movs	r3, #1
 2084 0acc FB73     		strb	r3, [r7, #15]
 2085              	.L124:
 871:../../source/src/FWlib/src/stm32f10x_can.c ****   }
 872:../../source/src/FWlib/src/stm32f10x_can.c ****   /* return sleep mode status */
 873:../../source/src/FWlib/src/stm32f10x_can.c ****    return (uint8_t)sleepstatus;
 2086              		.loc 1 873 0
 2087 0ace FB7B     		ldrb	r3, [r7, #15]	@ zero_extendqisi2
 874:../../source/src/FWlib/src/stm32f10x_can.c **** }
 2088              		.loc 1 874 0
 2089 0ad0 1846     		mov	r0, r3
 2090 0ad2 1437     		adds	r7, r7, #20
 2091              	.LCFI86:
ARM GAS  G:\Users\Jaxb\AppData\Local\Temp\cc1bUhhc.s 			page 54


 2092              		.cfi_def_cfa_offset 4
 2093 0ad4 BD46     		mov	sp, r7
 2094              	.LCFI87:
 2095              		.cfi_def_cfa_register 13
 2096              		@ sp needed
 2097 0ad6 80BC     		pop	{r7}
 2098              	.LCFI88:
 2099              		.cfi_restore 7
 2100              		.cfi_def_cfa_offset 0
 2101 0ad8 7047     		bx	lr
 2102              		.cfi_endproc
 2103              	.LFE43:
 2104              		.size	CAN_Sleep, .-CAN_Sleep
 2105              		.align	1
 2106              		.global	CAN_WakeUp
 2107              		.syntax unified
 2108              		.thumb
 2109              		.thumb_func
 2110              		.fpu softvfp
 2111              		.type	CAN_WakeUp, %function
 2112              	CAN_WakeUp:
 2113              	.LFB44:
 875:../../source/src/FWlib/src/stm32f10x_can.c **** 
 876:../../source/src/FWlib/src/stm32f10x_can.c **** /**
 877:../../source/src/FWlib/src/stm32f10x_can.c ****   * @brief  Wakes the CAN up.
 878:../../source/src/FWlib/src/stm32f10x_can.c ****   * @param  CANx:    where x can be 1 or 2 to to select the CAN peripheral.
 879:../../source/src/FWlib/src/stm32f10x_can.c ****   * @retval status:  CAN_WakeUp_Ok if sleep mode left, CAN_WakeUp_Failed in an 
 880:../../source/src/FWlib/src/stm32f10x_can.c ****   *                  other case.
 881:../../source/src/FWlib/src/stm32f10x_can.c ****   */
 882:../../source/src/FWlib/src/stm32f10x_can.c **** uint8_t CAN_WakeUp(CAN_TypeDef* CANx)
 883:../../source/src/FWlib/src/stm32f10x_can.c **** {
 2114              		.loc 1 883 0
 2115              		.cfi_startproc
 2116              		@ args = 0, pretend = 0, frame = 16
 2117              		@ frame_needed = 1, uses_anonymous_args = 0
 2118              		@ link register save eliminated.
 2119 0ada 80B4     		push	{r7}
 2120              	.LCFI89:
 2121              		.cfi_def_cfa_offset 4
 2122              		.cfi_offset 7, -4
 2123 0adc 85B0     		sub	sp, sp, #20
 2124              	.LCFI90:
 2125              		.cfi_def_cfa_offset 24
 2126 0ade 00AF     		add	r7, sp, #0
 2127              	.LCFI91:
 2128              		.cfi_def_cfa_register 7
 2129 0ae0 7860     		str	r0, [r7, #4]
 884:../../source/src/FWlib/src/stm32f10x_can.c ****   uint32_t wait_slak = SLAK_TIMEOUT;
 2130              		.loc 1 884 0
 2131 0ae2 4FF6FF73 		movw	r3, #65535
 2132 0ae6 FB60     		str	r3, [r7, #12]
 885:../../source/src/FWlib/src/stm32f10x_can.c ****   uint8_t wakeupstatus = CAN_WakeUp_Failed;
 2133              		.loc 1 885 0
 2134 0ae8 0023     		movs	r3, #0
 2135 0aea FB72     		strb	r3, [r7, #11]
 886:../../source/src/FWlib/src/stm32f10x_can.c ****   
 887:../../source/src/FWlib/src/stm32f10x_can.c ****   /* Check the parameters */
ARM GAS  G:\Users\Jaxb\AppData\Local\Temp\cc1bUhhc.s 			page 55


 888:../../source/src/FWlib/src/stm32f10x_can.c ****   assert_param(IS_CAN_ALL_PERIPH(CANx));
 889:../../source/src/FWlib/src/stm32f10x_can.c ****     
 890:../../source/src/FWlib/src/stm32f10x_can.c ****   /* Wake up request */
 891:../../source/src/FWlib/src/stm32f10x_can.c ****   CANx->MCR &= ~(uint32_t)CAN_MCR_SLEEP;
 2136              		.loc 1 891 0
 2137 0aec 7B68     		ldr	r3, [r7, #4]
 2138 0aee 1B68     		ldr	r3, [r3]
 2139 0af0 23F00202 		bic	r2, r3, #2
 2140 0af4 7B68     		ldr	r3, [r7, #4]
 2141 0af6 1A60     		str	r2, [r3]
 892:../../source/src/FWlib/src/stm32f10x_can.c ****     
 893:../../source/src/FWlib/src/stm32f10x_can.c ****   /* Sleep mode status */
 894:../../source/src/FWlib/src/stm32f10x_can.c ****   while(((CANx->MSR & CAN_MSR_SLAK) == CAN_MSR_SLAK)&&(wait_slak!=0x00))
 2142              		.loc 1 894 0
 2143 0af8 02E0     		b	.L127
 2144              	.L129:
 895:../../source/src/FWlib/src/stm32f10x_can.c ****   {
 896:../../source/src/FWlib/src/stm32f10x_can.c ****    wait_slak--;
 2145              		.loc 1 896 0
 2146 0afa FB68     		ldr	r3, [r7, #12]
 2147 0afc 013B     		subs	r3, r3, #1
 2148 0afe FB60     		str	r3, [r7, #12]
 2149              	.L127:
 894:../../source/src/FWlib/src/stm32f10x_can.c ****   {
 2150              		.loc 1 894 0
 2151 0b00 7B68     		ldr	r3, [r7, #4]
 2152 0b02 5B68     		ldr	r3, [r3, #4]
 2153 0b04 03F00203 		and	r3, r3, #2
 2154 0b08 022B     		cmp	r3, #2
 2155 0b0a 02D1     		bne	.L128
 894:../../source/src/FWlib/src/stm32f10x_can.c ****   {
 2156              		.loc 1 894 0 is_stmt 0 discriminator 1
 2157 0b0c FB68     		ldr	r3, [r7, #12]
 2158 0b0e 002B     		cmp	r3, #0
 2159 0b10 F3D1     		bne	.L129
 2160              	.L128:
 897:../../source/src/FWlib/src/stm32f10x_can.c ****   }
 898:../../source/src/FWlib/src/stm32f10x_can.c ****   if((CANx->MSR & CAN_MSR_SLAK) != CAN_MSR_SLAK)
 2161              		.loc 1 898 0 is_stmt 1
 2162 0b12 7B68     		ldr	r3, [r7, #4]
 2163 0b14 5B68     		ldr	r3, [r3, #4]
 2164 0b16 03F00203 		and	r3, r3, #2
 2165 0b1a 022B     		cmp	r3, #2
 2166 0b1c 01D0     		beq	.L130
 899:../../source/src/FWlib/src/stm32f10x_can.c ****   {
 900:../../source/src/FWlib/src/stm32f10x_can.c ****    /* wake up done : Sleep mode exited */
 901:../../source/src/FWlib/src/stm32f10x_can.c ****     wakeupstatus = CAN_WakeUp_Ok;
 2167              		.loc 1 901 0
 2168 0b1e 0123     		movs	r3, #1
 2169 0b20 FB72     		strb	r3, [r7, #11]
 2170              	.L130:
 902:../../source/src/FWlib/src/stm32f10x_can.c ****   }
 903:../../source/src/FWlib/src/stm32f10x_can.c ****   /* return wakeup status */
 904:../../source/src/FWlib/src/stm32f10x_can.c ****   return (uint8_t)wakeupstatus;
 2171              		.loc 1 904 0
 2172 0b22 FB7A     		ldrb	r3, [r7, #11]	@ zero_extendqisi2
 905:../../source/src/FWlib/src/stm32f10x_can.c **** }
ARM GAS  G:\Users\Jaxb\AppData\Local\Temp\cc1bUhhc.s 			page 56


 2173              		.loc 1 905 0
 2174 0b24 1846     		mov	r0, r3
 2175 0b26 1437     		adds	r7, r7, #20
 2176              	.LCFI92:
 2177              		.cfi_def_cfa_offset 4
 2178 0b28 BD46     		mov	sp, r7
 2179              	.LCFI93:
 2180              		.cfi_def_cfa_register 13
 2181              		@ sp needed
 2182 0b2a 80BC     		pop	{r7}
 2183              	.LCFI94:
 2184              		.cfi_restore 7
 2185              		.cfi_def_cfa_offset 0
 2186 0b2c 7047     		bx	lr
 2187              		.cfi_endproc
 2188              	.LFE44:
 2189              		.size	CAN_WakeUp, .-CAN_WakeUp
 2190              		.align	1
 2191              		.global	CAN_GetLastErrorCode
 2192              		.syntax unified
 2193              		.thumb
 2194              		.thumb_func
 2195              		.fpu softvfp
 2196              		.type	CAN_GetLastErrorCode, %function
 2197              	CAN_GetLastErrorCode:
 2198              	.LFB45:
 906:../../source/src/FWlib/src/stm32f10x_can.c **** 
 907:../../source/src/FWlib/src/stm32f10x_can.c **** 
 908:../../source/src/FWlib/src/stm32f10x_can.c **** /**
 909:../../source/src/FWlib/src/stm32f10x_can.c ****   * @brief  Returns the CANx's last error code (LEC).
 910:../../source/src/FWlib/src/stm32f10x_can.c ****   * @param  CANx:          where x can be 1 or 2 to to select the CAN peripheral.  
 911:../../source/src/FWlib/src/stm32f10x_can.c ****   * @retval CAN_ErrorCode: specifies the Error code : 
 912:../../source/src/FWlib/src/stm32f10x_can.c ****   *                        - CAN_ERRORCODE_NoErr            No Error  
 913:../../source/src/FWlib/src/stm32f10x_can.c ****   *                        - CAN_ERRORCODE_StuffErr         Stuff Error
 914:../../source/src/FWlib/src/stm32f10x_can.c ****   *                        - CAN_ERRORCODE_FormErr          Form Error
 915:../../source/src/FWlib/src/stm32f10x_can.c ****   *                        - CAN_ERRORCODE_ACKErr           Acknowledgment Error
 916:../../source/src/FWlib/src/stm32f10x_can.c ****   *                        - CAN_ERRORCODE_BitRecessiveErr  Bit Recessive Error
 917:../../source/src/FWlib/src/stm32f10x_can.c ****   *                        - CAN_ERRORCODE_BitDominantErr   Bit Dominant Error
 918:../../source/src/FWlib/src/stm32f10x_can.c ****   *                        - CAN_ERRORCODE_CRCErr           CRC Error
 919:../../source/src/FWlib/src/stm32f10x_can.c ****   *                        - CAN_ERRORCODE_SoftwareSetErr   Software Set Error  
 920:../../source/src/FWlib/src/stm32f10x_can.c ****   */
 921:../../source/src/FWlib/src/stm32f10x_can.c ****  
 922:../../source/src/FWlib/src/stm32f10x_can.c **** uint8_t CAN_GetLastErrorCode(CAN_TypeDef* CANx)
 923:../../source/src/FWlib/src/stm32f10x_can.c **** {
 2199              		.loc 1 923 0
 2200              		.cfi_startproc
 2201              		@ args = 0, pretend = 0, frame = 16
 2202              		@ frame_needed = 1, uses_anonymous_args = 0
 2203              		@ link register save eliminated.
 2204 0b2e 80B4     		push	{r7}
 2205              	.LCFI95:
 2206              		.cfi_def_cfa_offset 4
 2207              		.cfi_offset 7, -4
 2208 0b30 85B0     		sub	sp, sp, #20
 2209              	.LCFI96:
 2210              		.cfi_def_cfa_offset 24
 2211 0b32 00AF     		add	r7, sp, #0
ARM GAS  G:\Users\Jaxb\AppData\Local\Temp\cc1bUhhc.s 			page 57


 2212              	.LCFI97:
 2213              		.cfi_def_cfa_register 7
 2214 0b34 7860     		str	r0, [r7, #4]
 924:../../source/src/FWlib/src/stm32f10x_can.c ****   uint8_t errorcode=0;
 2215              		.loc 1 924 0
 2216 0b36 0023     		movs	r3, #0
 2217 0b38 FB73     		strb	r3, [r7, #15]
 925:../../source/src/FWlib/src/stm32f10x_can.c ****   
 926:../../source/src/FWlib/src/stm32f10x_can.c ****   /* Check the parameters */
 927:../../source/src/FWlib/src/stm32f10x_can.c ****   assert_param(IS_CAN_ALL_PERIPH(CANx));
 928:../../source/src/FWlib/src/stm32f10x_can.c ****   
 929:../../source/src/FWlib/src/stm32f10x_can.c ****   /* Get the error code*/
 930:../../source/src/FWlib/src/stm32f10x_can.c ****   errorcode = (((uint8_t)CANx->ESR) & (uint8_t)CAN_ESR_LEC);
 2218              		.loc 1 930 0
 2219 0b3a 7B68     		ldr	r3, [r7, #4]
 2220 0b3c 9B69     		ldr	r3, [r3, #24]
 2221 0b3e DBB2     		uxtb	r3, r3
 2222 0b40 03F07003 		and	r3, r3, #112
 2223 0b44 FB73     		strb	r3, [r7, #15]
 931:../../source/src/FWlib/src/stm32f10x_can.c ****   
 932:../../source/src/FWlib/src/stm32f10x_can.c ****   /* Return the error code*/
 933:../../source/src/FWlib/src/stm32f10x_can.c ****   return errorcode;
 2224              		.loc 1 933 0
 2225 0b46 FB7B     		ldrb	r3, [r7, #15]	@ zero_extendqisi2
 934:../../source/src/FWlib/src/stm32f10x_can.c **** }
 2226              		.loc 1 934 0
 2227 0b48 1846     		mov	r0, r3
 2228 0b4a 1437     		adds	r7, r7, #20
 2229              	.LCFI98:
 2230              		.cfi_def_cfa_offset 4
 2231 0b4c BD46     		mov	sp, r7
 2232              	.LCFI99:
 2233              		.cfi_def_cfa_register 13
 2234              		@ sp needed
 2235 0b4e 80BC     		pop	{r7}
 2236              	.LCFI100:
 2237              		.cfi_restore 7
 2238              		.cfi_def_cfa_offset 0
 2239 0b50 7047     		bx	lr
 2240              		.cfi_endproc
 2241              	.LFE45:
 2242              		.size	CAN_GetLastErrorCode, .-CAN_GetLastErrorCode
 2243              		.align	1
 2244              		.global	CAN_GetReceiveErrorCounter
 2245              		.syntax unified
 2246              		.thumb
 2247              		.thumb_func
 2248              		.fpu softvfp
 2249              		.type	CAN_GetReceiveErrorCounter, %function
 2250              	CAN_GetReceiveErrorCounter:
 2251              	.LFB46:
 935:../../source/src/FWlib/src/stm32f10x_can.c **** /**
 936:../../source/src/FWlib/src/stm32f10x_can.c ****   * @brief  Returns the CANx Receive Error Counter (REC).
 937:../../source/src/FWlib/src/stm32f10x_can.c ****   * @note   In case of an error during reception, this counter is incremented 
 938:../../source/src/FWlib/src/stm32f10x_can.c ****   *         by 1 or by 8 depending on the error condition as defined by the CAN 
 939:../../source/src/FWlib/src/stm32f10x_can.c ****   *         standard. After every successful reception, the counter is 
 940:../../source/src/FWlib/src/stm32f10x_can.c ****   *         decremented by 1 or reset to 120 if its value was higher than 128. 
ARM GAS  G:\Users\Jaxb\AppData\Local\Temp\cc1bUhhc.s 			page 58


 941:../../source/src/FWlib/src/stm32f10x_can.c ****   *         When the counter value exceeds 127, the CAN controller enters the 
 942:../../source/src/FWlib/src/stm32f10x_can.c ****   *         error passive state.  
 943:../../source/src/FWlib/src/stm32f10x_can.c ****   * @param  CANx: where x can be 1 or 2 to to select the CAN peripheral.  
 944:../../source/src/FWlib/src/stm32f10x_can.c ****   * @retval CAN Receive Error Counter. 
 945:../../source/src/FWlib/src/stm32f10x_can.c ****   */
 946:../../source/src/FWlib/src/stm32f10x_can.c **** uint8_t CAN_GetReceiveErrorCounter(CAN_TypeDef* CANx)
 947:../../source/src/FWlib/src/stm32f10x_can.c **** {
 2252              		.loc 1 947 0
 2253              		.cfi_startproc
 2254              		@ args = 0, pretend = 0, frame = 16
 2255              		@ frame_needed = 1, uses_anonymous_args = 0
 2256              		@ link register save eliminated.
 2257 0b52 80B4     		push	{r7}
 2258              	.LCFI101:
 2259              		.cfi_def_cfa_offset 4
 2260              		.cfi_offset 7, -4
 2261 0b54 85B0     		sub	sp, sp, #20
 2262              	.LCFI102:
 2263              		.cfi_def_cfa_offset 24
 2264 0b56 00AF     		add	r7, sp, #0
 2265              	.LCFI103:
 2266              		.cfi_def_cfa_register 7
 2267 0b58 7860     		str	r0, [r7, #4]
 948:../../source/src/FWlib/src/stm32f10x_can.c ****   uint8_t counter=0;
 2268              		.loc 1 948 0
 2269 0b5a 0023     		movs	r3, #0
 2270 0b5c FB73     		strb	r3, [r7, #15]
 949:../../source/src/FWlib/src/stm32f10x_can.c ****   
 950:../../source/src/FWlib/src/stm32f10x_can.c ****   /* Check the parameters */
 951:../../source/src/FWlib/src/stm32f10x_can.c ****   assert_param(IS_CAN_ALL_PERIPH(CANx));
 952:../../source/src/FWlib/src/stm32f10x_can.c ****   
 953:../../source/src/FWlib/src/stm32f10x_can.c ****   /* Get the Receive Error Counter*/
 954:../../source/src/FWlib/src/stm32f10x_can.c ****   counter = (uint8_t)((CANx->ESR & CAN_ESR_REC)>> 24);
 2271              		.loc 1 954 0
 2272 0b5e 7B68     		ldr	r3, [r7, #4]
 2273 0b60 9B69     		ldr	r3, [r3, #24]
 2274 0b62 1B0E     		lsrs	r3, r3, #24
 2275 0b64 FB73     		strb	r3, [r7, #15]
 955:../../source/src/FWlib/src/stm32f10x_can.c ****   
 956:../../source/src/FWlib/src/stm32f10x_can.c ****   /* Return the Receive Error Counter*/
 957:../../source/src/FWlib/src/stm32f10x_can.c ****   return counter;
 2276              		.loc 1 957 0
 2277 0b66 FB7B     		ldrb	r3, [r7, #15]	@ zero_extendqisi2
 958:../../source/src/FWlib/src/stm32f10x_can.c **** }
 2278              		.loc 1 958 0
 2279 0b68 1846     		mov	r0, r3
 2280 0b6a 1437     		adds	r7, r7, #20
 2281              	.LCFI104:
 2282              		.cfi_def_cfa_offset 4
 2283 0b6c BD46     		mov	sp, r7
 2284              	.LCFI105:
 2285              		.cfi_def_cfa_register 13
 2286              		@ sp needed
 2287 0b6e 80BC     		pop	{r7}
 2288              	.LCFI106:
 2289              		.cfi_restore 7
 2290              		.cfi_def_cfa_offset 0
ARM GAS  G:\Users\Jaxb\AppData\Local\Temp\cc1bUhhc.s 			page 59


 2291 0b70 7047     		bx	lr
 2292              		.cfi_endproc
 2293              	.LFE46:
 2294              		.size	CAN_GetReceiveErrorCounter, .-CAN_GetReceiveErrorCounter
 2295              		.align	1
 2296              		.global	CAN_GetLSBTransmitErrorCounter
 2297              		.syntax unified
 2298              		.thumb
 2299              		.thumb_func
 2300              		.fpu softvfp
 2301              		.type	CAN_GetLSBTransmitErrorCounter, %function
 2302              	CAN_GetLSBTransmitErrorCounter:
 2303              	.LFB47:
 959:../../source/src/FWlib/src/stm32f10x_can.c **** 
 960:../../source/src/FWlib/src/stm32f10x_can.c **** 
 961:../../source/src/FWlib/src/stm32f10x_can.c **** /**
 962:../../source/src/FWlib/src/stm32f10x_can.c ****   * @brief  Returns the LSB of the 9-bit CANx Transmit Error Counter(TEC).
 963:../../source/src/FWlib/src/stm32f10x_can.c ****   * @param  CANx:   where x can be 1 or 2 to to select the CAN peripheral.  
 964:../../source/src/FWlib/src/stm32f10x_can.c ****   * @retval LSB of the 9-bit CAN Transmit Error Counter. 
 965:../../source/src/FWlib/src/stm32f10x_can.c ****   */
 966:../../source/src/FWlib/src/stm32f10x_can.c **** uint8_t CAN_GetLSBTransmitErrorCounter(CAN_TypeDef* CANx)
 967:../../source/src/FWlib/src/stm32f10x_can.c **** {
 2304              		.loc 1 967 0
 2305              		.cfi_startproc
 2306              		@ args = 0, pretend = 0, frame = 16
 2307              		@ frame_needed = 1, uses_anonymous_args = 0
 2308              		@ link register save eliminated.
 2309 0b72 80B4     		push	{r7}
 2310              	.LCFI107:
 2311              		.cfi_def_cfa_offset 4
 2312              		.cfi_offset 7, -4
 2313 0b74 85B0     		sub	sp, sp, #20
 2314              	.LCFI108:
 2315              		.cfi_def_cfa_offset 24
 2316 0b76 00AF     		add	r7, sp, #0
 2317              	.LCFI109:
 2318              		.cfi_def_cfa_register 7
 2319 0b78 7860     		str	r0, [r7, #4]
 968:../../source/src/FWlib/src/stm32f10x_can.c ****   uint8_t counter=0;
 2320              		.loc 1 968 0
 2321 0b7a 0023     		movs	r3, #0
 2322 0b7c FB73     		strb	r3, [r7, #15]
 969:../../source/src/FWlib/src/stm32f10x_can.c ****   
 970:../../source/src/FWlib/src/stm32f10x_can.c ****   /* Check the parameters */
 971:../../source/src/FWlib/src/stm32f10x_can.c ****   assert_param(IS_CAN_ALL_PERIPH(CANx));
 972:../../source/src/FWlib/src/stm32f10x_can.c ****   
 973:../../source/src/FWlib/src/stm32f10x_can.c ****   /* Get the LSB of the 9-bit CANx Transmit Error Counter(TEC) */
 974:../../source/src/FWlib/src/stm32f10x_can.c ****   counter = (uint8_t)((CANx->ESR & CAN_ESR_TEC)>> 16);
 2323              		.loc 1 974 0
 2324 0b7e 7B68     		ldr	r3, [r7, #4]
 2325 0b80 9B69     		ldr	r3, [r3, #24]
 2326 0b82 1B0C     		lsrs	r3, r3, #16
 2327 0b84 FB73     		strb	r3, [r7, #15]
 975:../../source/src/FWlib/src/stm32f10x_can.c ****   
 976:../../source/src/FWlib/src/stm32f10x_can.c ****   /* Return the LSB of the 9-bit CANx Transmit Error Counter(TEC) */
 977:../../source/src/FWlib/src/stm32f10x_can.c ****   return counter;
 2328              		.loc 1 977 0
ARM GAS  G:\Users\Jaxb\AppData\Local\Temp\cc1bUhhc.s 			page 60


 2329 0b86 FB7B     		ldrb	r3, [r7, #15]	@ zero_extendqisi2
 978:../../source/src/FWlib/src/stm32f10x_can.c **** }
 2330              		.loc 1 978 0
 2331 0b88 1846     		mov	r0, r3
 2332 0b8a 1437     		adds	r7, r7, #20
 2333              	.LCFI110:
 2334              		.cfi_def_cfa_offset 4
 2335 0b8c BD46     		mov	sp, r7
 2336              	.LCFI111:
 2337              		.cfi_def_cfa_register 13
 2338              		@ sp needed
 2339 0b8e 80BC     		pop	{r7}
 2340              	.LCFI112:
 2341              		.cfi_restore 7
 2342              		.cfi_def_cfa_offset 0
 2343 0b90 7047     		bx	lr
 2344              		.cfi_endproc
 2345              	.LFE47:
 2346              		.size	CAN_GetLSBTransmitErrorCounter, .-CAN_GetLSBTransmitErrorCounter
 2347              		.align	1
 2348              		.global	CAN_ITConfig
 2349              		.syntax unified
 2350              		.thumb
 2351              		.thumb_func
 2352              		.fpu softvfp
 2353              		.type	CAN_ITConfig, %function
 2354              	CAN_ITConfig:
 2355              	.LFB48:
 979:../../source/src/FWlib/src/stm32f10x_can.c **** 
 980:../../source/src/FWlib/src/stm32f10x_can.c **** 
 981:../../source/src/FWlib/src/stm32f10x_can.c **** /**
 982:../../source/src/FWlib/src/stm32f10x_can.c ****   * @brief  Enables or disables the specified CANx interrupts.
 983:../../source/src/FWlib/src/stm32f10x_can.c ****   * @param  CANx:   where x can be 1 or 2 to to select the CAN peripheral.
 984:../../source/src/FWlib/src/stm32f10x_can.c ****   * @param  CAN_IT: specifies the CAN interrupt sources to be enabled or disabled.
 985:../../source/src/FWlib/src/stm32f10x_can.c ****   *                 This parameter can be: 
 986:../../source/src/FWlib/src/stm32f10x_can.c ****   *                 - CAN_IT_TME, 
 987:../../source/src/FWlib/src/stm32f10x_can.c ****   *                 - CAN_IT_FMP0, 
 988:../../source/src/FWlib/src/stm32f10x_can.c ****   *                 - CAN_IT_FF0,
 989:../../source/src/FWlib/src/stm32f10x_can.c ****   *                 - CAN_IT_FOV0, 
 990:../../source/src/FWlib/src/stm32f10x_can.c ****   *                 - CAN_IT_FMP1, 
 991:../../source/src/FWlib/src/stm32f10x_can.c ****   *                 - CAN_IT_FF1,
 992:../../source/src/FWlib/src/stm32f10x_can.c ****   *                 - CAN_IT_FOV1, 
 993:../../source/src/FWlib/src/stm32f10x_can.c ****   *                 - CAN_IT_EWG, 
 994:../../source/src/FWlib/src/stm32f10x_can.c ****   *                 - CAN_IT_EPV,
 995:../../source/src/FWlib/src/stm32f10x_can.c ****   *                 - CAN_IT_LEC, 
 996:../../source/src/FWlib/src/stm32f10x_can.c ****   *                 - CAN_IT_ERR, 
 997:../../source/src/FWlib/src/stm32f10x_can.c ****   *                 - CAN_IT_WKU or 
 998:../../source/src/FWlib/src/stm32f10x_can.c ****   *                 - CAN_IT_SLK.
 999:../../source/src/FWlib/src/stm32f10x_can.c ****   * @param  NewState: new state of the CAN interrupts.
1000:../../source/src/FWlib/src/stm32f10x_can.c ****   *                   This parameter can be: ENABLE or DISABLE.
1001:../../source/src/FWlib/src/stm32f10x_can.c ****   * @retval None.
1002:../../source/src/FWlib/src/stm32f10x_can.c ****   */
1003:../../source/src/FWlib/src/stm32f10x_can.c **** void CAN_ITConfig(CAN_TypeDef* CANx, uint32_t CAN_IT, FunctionalState NewState)
1004:../../source/src/FWlib/src/stm32f10x_can.c **** {
 2356              		.loc 1 1004 0
 2357              		.cfi_startproc
 2358              		@ args = 0, pretend = 0, frame = 16
ARM GAS  G:\Users\Jaxb\AppData\Local\Temp\cc1bUhhc.s 			page 61


 2359              		@ frame_needed = 1, uses_anonymous_args = 0
 2360              		@ link register save eliminated.
 2361 0b92 80B4     		push	{r7}
 2362              	.LCFI113:
 2363              		.cfi_def_cfa_offset 4
 2364              		.cfi_offset 7, -4
 2365 0b94 85B0     		sub	sp, sp, #20
 2366              	.LCFI114:
 2367              		.cfi_def_cfa_offset 24
 2368 0b96 00AF     		add	r7, sp, #0
 2369              	.LCFI115:
 2370              		.cfi_def_cfa_register 7
 2371 0b98 F860     		str	r0, [r7, #12]
 2372 0b9a B960     		str	r1, [r7, #8]
 2373 0b9c 1346     		mov	r3, r2
 2374 0b9e FB71     		strb	r3, [r7, #7]
1005:../../source/src/FWlib/src/stm32f10x_can.c ****   /* Check the parameters */
1006:../../source/src/FWlib/src/stm32f10x_can.c ****   assert_param(IS_CAN_ALL_PERIPH(CANx));
1007:../../source/src/FWlib/src/stm32f10x_can.c ****   assert_param(IS_CAN_IT(CAN_IT));
1008:../../source/src/FWlib/src/stm32f10x_can.c ****   assert_param(IS_FUNCTIONAL_STATE(NewState));
1009:../../source/src/FWlib/src/stm32f10x_can.c **** 
1010:../../source/src/FWlib/src/stm32f10x_can.c ****   if (NewState != DISABLE)
 2375              		.loc 1 1010 0
 2376 0ba0 FB79     		ldrb	r3, [r7, #7]	@ zero_extendqisi2
 2377 0ba2 002B     		cmp	r3, #0
 2378 0ba4 06D0     		beq	.L139
1011:../../source/src/FWlib/src/stm32f10x_can.c ****   {
1012:../../source/src/FWlib/src/stm32f10x_can.c ****     /* Enable the selected CANx interrupt */
1013:../../source/src/FWlib/src/stm32f10x_can.c ****     CANx->IER |= CAN_IT;
 2379              		.loc 1 1013 0
 2380 0ba6 FB68     		ldr	r3, [r7, #12]
 2381 0ba8 5A69     		ldr	r2, [r3, #20]
 2382 0baa BB68     		ldr	r3, [r7, #8]
 2383 0bac 1A43     		orrs	r2, r2, r3
 2384 0bae FB68     		ldr	r3, [r7, #12]
 2385 0bb0 5A61     		str	r2, [r3, #20]
1014:../../source/src/FWlib/src/stm32f10x_can.c ****   }
1015:../../source/src/FWlib/src/stm32f10x_can.c ****   else
1016:../../source/src/FWlib/src/stm32f10x_can.c ****   {
1017:../../source/src/FWlib/src/stm32f10x_can.c ****     /* Disable the selected CANx interrupt */
1018:../../source/src/FWlib/src/stm32f10x_can.c ****     CANx->IER &= ~CAN_IT;
1019:../../source/src/FWlib/src/stm32f10x_can.c ****   }
1020:../../source/src/FWlib/src/stm32f10x_can.c **** }
 2386              		.loc 1 1020 0
 2387 0bb2 06E0     		b	.L141
 2388              	.L139:
1018:../../source/src/FWlib/src/stm32f10x_can.c ****   }
 2389              		.loc 1 1018 0
 2390 0bb4 FB68     		ldr	r3, [r7, #12]
 2391 0bb6 5A69     		ldr	r2, [r3, #20]
 2392 0bb8 BB68     		ldr	r3, [r7, #8]
 2393 0bba DB43     		mvns	r3, r3
 2394 0bbc 1A40     		ands	r2, r2, r3
 2395 0bbe FB68     		ldr	r3, [r7, #12]
 2396 0bc0 5A61     		str	r2, [r3, #20]
 2397              	.L141:
 2398              		.loc 1 1020 0
ARM GAS  G:\Users\Jaxb\AppData\Local\Temp\cc1bUhhc.s 			page 62


 2399 0bc2 00BF     		nop
 2400 0bc4 1437     		adds	r7, r7, #20
 2401              	.LCFI116:
 2402              		.cfi_def_cfa_offset 4
 2403 0bc6 BD46     		mov	sp, r7
 2404              	.LCFI117:
 2405              		.cfi_def_cfa_register 13
 2406              		@ sp needed
 2407 0bc8 80BC     		pop	{r7}
 2408              	.LCFI118:
 2409              		.cfi_restore 7
 2410              		.cfi_def_cfa_offset 0
 2411 0bca 7047     		bx	lr
 2412              		.cfi_endproc
 2413              	.LFE48:
 2414              		.size	CAN_ITConfig, .-CAN_ITConfig
 2415              		.align	1
 2416              		.global	CAN_GetFlagStatus
 2417              		.syntax unified
 2418              		.thumb
 2419              		.thumb_func
 2420              		.fpu softvfp
 2421              		.type	CAN_GetFlagStatus, %function
 2422              	CAN_GetFlagStatus:
 2423              	.LFB49:
1021:../../source/src/FWlib/src/stm32f10x_can.c **** /**
1022:../../source/src/FWlib/src/stm32f10x_can.c ****   * @brief  Checks whether the specified CAN flag is set or not.
1023:../../source/src/FWlib/src/stm32f10x_can.c ****   * @param  CANx:     where x can be 1 or 2 to to select the CAN peripheral.
1024:../../source/src/FWlib/src/stm32f10x_can.c ****   * @param  CAN_FLAG: specifies the flag to check.
1025:../../source/src/FWlib/src/stm32f10x_can.c ****   *                   This parameter can be one of the following flags: 
1026:../../source/src/FWlib/src/stm32f10x_can.c ****   *                  - CAN_FLAG_EWG
1027:../../source/src/FWlib/src/stm32f10x_can.c ****   *                  - CAN_FLAG_EPV 
1028:../../source/src/FWlib/src/stm32f10x_can.c ****   *                  - CAN_FLAG_BOF
1029:../../source/src/FWlib/src/stm32f10x_can.c ****   *                  - CAN_FLAG_RQCP0
1030:../../source/src/FWlib/src/stm32f10x_can.c ****   *                  - CAN_FLAG_RQCP1
1031:../../source/src/FWlib/src/stm32f10x_can.c ****   *                  - CAN_FLAG_RQCP2
1032:../../source/src/FWlib/src/stm32f10x_can.c ****   *                  - CAN_FLAG_FMP1   
1033:../../source/src/FWlib/src/stm32f10x_can.c ****   *                  - CAN_FLAG_FF1       
1034:../../source/src/FWlib/src/stm32f10x_can.c ****   *                  - CAN_FLAG_FOV1   
1035:../../source/src/FWlib/src/stm32f10x_can.c ****   *                  - CAN_FLAG_FMP0   
1036:../../source/src/FWlib/src/stm32f10x_can.c ****   *                  - CAN_FLAG_FF0       
1037:../../source/src/FWlib/src/stm32f10x_can.c ****   *                  - CAN_FLAG_FOV0   
1038:../../source/src/FWlib/src/stm32f10x_can.c ****   *                  - CAN_FLAG_WKU 
1039:../../source/src/FWlib/src/stm32f10x_can.c ****   *                  - CAN_FLAG_SLAK  
1040:../../source/src/FWlib/src/stm32f10x_can.c ****   *                  - CAN_FLAG_LEC       
1041:../../source/src/FWlib/src/stm32f10x_can.c ****   * @retval The new state of CAN_FLAG (SET or RESET).
1042:../../source/src/FWlib/src/stm32f10x_can.c ****   */
1043:../../source/src/FWlib/src/stm32f10x_can.c **** FlagStatus CAN_GetFlagStatus(CAN_TypeDef* CANx, uint32_t CAN_FLAG)
1044:../../source/src/FWlib/src/stm32f10x_can.c **** {
 2424              		.loc 1 1044 0
 2425              		.cfi_startproc
 2426              		@ args = 0, pretend = 0, frame = 16
 2427              		@ frame_needed = 1, uses_anonymous_args = 0
 2428              		@ link register save eliminated.
 2429 0bcc 80B4     		push	{r7}
 2430              	.LCFI119:
 2431              		.cfi_def_cfa_offset 4
ARM GAS  G:\Users\Jaxb\AppData\Local\Temp\cc1bUhhc.s 			page 63


 2432              		.cfi_offset 7, -4
 2433 0bce 85B0     		sub	sp, sp, #20
 2434              	.LCFI120:
 2435              		.cfi_def_cfa_offset 24
 2436 0bd0 00AF     		add	r7, sp, #0
 2437              	.LCFI121:
 2438              		.cfi_def_cfa_register 7
 2439 0bd2 7860     		str	r0, [r7, #4]
 2440 0bd4 3960     		str	r1, [r7]
1045:../../source/src/FWlib/src/stm32f10x_can.c ****   FlagStatus bitstatus = RESET;
 2441              		.loc 1 1045 0
 2442 0bd6 0023     		movs	r3, #0
 2443 0bd8 FB73     		strb	r3, [r7, #15]
1046:../../source/src/FWlib/src/stm32f10x_can.c ****   
1047:../../source/src/FWlib/src/stm32f10x_can.c ****   /* Check the parameters */
1048:../../source/src/FWlib/src/stm32f10x_can.c ****   assert_param(IS_CAN_ALL_PERIPH(CANx));
1049:../../source/src/FWlib/src/stm32f10x_can.c ****   assert_param(IS_CAN_GET_FLAG(CAN_FLAG));
1050:../../source/src/FWlib/src/stm32f10x_can.c ****   
1051:../../source/src/FWlib/src/stm32f10x_can.c **** 
1052:../../source/src/FWlib/src/stm32f10x_can.c ****   if((CAN_FLAG & CAN_FLAGS_ESR) != (uint32_t)RESET)
 2444              		.loc 1 1052 0
 2445 0bda 3B68     		ldr	r3, [r7]
 2446 0bdc 03F47003 		and	r3, r3, #15728640
 2447 0be0 002B     		cmp	r3, #0
 2448 0be2 0DD0     		beq	.L143
1053:../../source/src/FWlib/src/stm32f10x_can.c ****   { 
1054:../../source/src/FWlib/src/stm32f10x_can.c ****     /* Check the status of the specified CAN flag */
1055:../../source/src/FWlib/src/stm32f10x_can.c ****     if ((CANx->ESR & (CAN_FLAG & 0x000FFFFF)) != (uint32_t)RESET)
 2449              		.loc 1 1055 0
 2450 0be4 7B68     		ldr	r3, [r7, #4]
 2451 0be6 9A69     		ldr	r2, [r3, #24]
 2452 0be8 3B68     		ldr	r3, [r7]
 2453 0bea 1340     		ands	r3, r3, r2
 2454 0bec C3F31303 		ubfx	r3, r3, #0, #20
 2455 0bf0 002B     		cmp	r3, #0
 2456 0bf2 02D0     		beq	.L144
1056:../../source/src/FWlib/src/stm32f10x_can.c ****     { 
1057:../../source/src/FWlib/src/stm32f10x_can.c ****       /* CAN_FLAG is set */
1058:../../source/src/FWlib/src/stm32f10x_can.c ****       bitstatus = SET;
 2457              		.loc 1 1058 0
 2458 0bf4 0123     		movs	r3, #1
 2459 0bf6 FB73     		strb	r3, [r7, #15]
 2460 0bf8 48E0     		b	.L146
 2461              	.L144:
1059:../../source/src/FWlib/src/stm32f10x_can.c ****     }
1060:../../source/src/FWlib/src/stm32f10x_can.c ****     else
1061:../../source/src/FWlib/src/stm32f10x_can.c ****     { 
1062:../../source/src/FWlib/src/stm32f10x_can.c ****       /* CAN_FLAG is reset */
1063:../../source/src/FWlib/src/stm32f10x_can.c ****       bitstatus = RESET;
 2462              		.loc 1 1063 0
 2463 0bfa 0023     		movs	r3, #0
 2464 0bfc FB73     		strb	r3, [r7, #15]
 2465 0bfe 45E0     		b	.L146
 2466              	.L143:
1064:../../source/src/FWlib/src/stm32f10x_can.c ****     }
1065:../../source/src/FWlib/src/stm32f10x_can.c ****   }
1066:../../source/src/FWlib/src/stm32f10x_can.c ****   else if((CAN_FLAG & CAN_FLAGS_MSR) != (uint32_t)RESET)
ARM GAS  G:\Users\Jaxb\AppData\Local\Temp\cc1bUhhc.s 			page 64


 2467              		.loc 1 1066 0
 2468 0c00 3B68     		ldr	r3, [r7]
 2469 0c02 03F08073 		and	r3, r3, #16777216
 2470 0c06 002B     		cmp	r3, #0
 2471 0c08 0DD0     		beq	.L147
1067:../../source/src/FWlib/src/stm32f10x_can.c ****   { 
1068:../../source/src/FWlib/src/stm32f10x_can.c ****     /* Check the status of the specified CAN flag */
1069:../../source/src/FWlib/src/stm32f10x_can.c ****     if ((CANx->MSR & (CAN_FLAG & 0x000FFFFF)) != (uint32_t)RESET)
 2472              		.loc 1 1069 0
 2473 0c0a 7B68     		ldr	r3, [r7, #4]
 2474 0c0c 5A68     		ldr	r2, [r3, #4]
 2475 0c0e 3B68     		ldr	r3, [r7]
 2476 0c10 1340     		ands	r3, r3, r2
 2477 0c12 C3F31303 		ubfx	r3, r3, #0, #20
 2478 0c16 002B     		cmp	r3, #0
 2479 0c18 02D0     		beq	.L148
1070:../../source/src/FWlib/src/stm32f10x_can.c ****     { 
1071:../../source/src/FWlib/src/stm32f10x_can.c ****       /* CAN_FLAG is set */
1072:../../source/src/FWlib/src/stm32f10x_can.c ****       bitstatus = SET;
 2480              		.loc 1 1072 0
 2481 0c1a 0123     		movs	r3, #1
 2482 0c1c FB73     		strb	r3, [r7, #15]
 2483 0c1e 35E0     		b	.L146
 2484              	.L148:
1073:../../source/src/FWlib/src/stm32f10x_can.c ****     }
1074:../../source/src/FWlib/src/stm32f10x_can.c ****     else
1075:../../source/src/FWlib/src/stm32f10x_can.c ****     { 
1076:../../source/src/FWlib/src/stm32f10x_can.c ****       /* CAN_FLAG is reset */
1077:../../source/src/FWlib/src/stm32f10x_can.c ****       bitstatus = RESET;
 2485              		.loc 1 1077 0
 2486 0c20 0023     		movs	r3, #0
 2487 0c22 FB73     		strb	r3, [r7, #15]
 2488 0c24 32E0     		b	.L146
 2489              	.L147:
1078:../../source/src/FWlib/src/stm32f10x_can.c ****     }
1079:../../source/src/FWlib/src/stm32f10x_can.c ****   }
1080:../../source/src/FWlib/src/stm32f10x_can.c ****   else if((CAN_FLAG & CAN_FLAGS_TSR) != (uint32_t)RESET)
 2490              		.loc 1 1080 0
 2491 0c26 3B68     		ldr	r3, [r7]
 2492 0c28 03F00063 		and	r3, r3, #134217728
 2493 0c2c 002B     		cmp	r3, #0
 2494 0c2e 0DD0     		beq	.L150
1081:../../source/src/FWlib/src/stm32f10x_can.c ****   { 
1082:../../source/src/FWlib/src/stm32f10x_can.c ****     /* Check the status of the specified CAN flag */
1083:../../source/src/FWlib/src/stm32f10x_can.c ****     if ((CANx->TSR & (CAN_FLAG & 0x000FFFFF)) != (uint32_t)RESET)
 2495              		.loc 1 1083 0
 2496 0c30 7B68     		ldr	r3, [r7, #4]
 2497 0c32 9A68     		ldr	r2, [r3, #8]
 2498 0c34 3B68     		ldr	r3, [r7]
 2499 0c36 1340     		ands	r3, r3, r2
 2500 0c38 C3F31303 		ubfx	r3, r3, #0, #20
 2501 0c3c 002B     		cmp	r3, #0
 2502 0c3e 02D0     		beq	.L151
1084:../../source/src/FWlib/src/stm32f10x_can.c ****     { 
1085:../../source/src/FWlib/src/stm32f10x_can.c ****       /* CAN_FLAG is set */
1086:../../source/src/FWlib/src/stm32f10x_can.c ****       bitstatus = SET;
 2503              		.loc 1 1086 0
ARM GAS  G:\Users\Jaxb\AppData\Local\Temp\cc1bUhhc.s 			page 65


 2504 0c40 0123     		movs	r3, #1
 2505 0c42 FB73     		strb	r3, [r7, #15]
 2506 0c44 22E0     		b	.L146
 2507              	.L151:
1087:../../source/src/FWlib/src/stm32f10x_can.c ****     }
1088:../../source/src/FWlib/src/stm32f10x_can.c ****     else
1089:../../source/src/FWlib/src/stm32f10x_can.c ****     { 
1090:../../source/src/FWlib/src/stm32f10x_can.c ****       /* CAN_FLAG is reset */
1091:../../source/src/FWlib/src/stm32f10x_can.c ****       bitstatus = RESET;
 2508              		.loc 1 1091 0
 2509 0c46 0023     		movs	r3, #0
 2510 0c48 FB73     		strb	r3, [r7, #15]
 2511 0c4a 1FE0     		b	.L146
 2512              	.L150:
1092:../../source/src/FWlib/src/stm32f10x_can.c ****     }
1093:../../source/src/FWlib/src/stm32f10x_can.c ****   }
1094:../../source/src/FWlib/src/stm32f10x_can.c ****   else if((CAN_FLAG & CAN_FLAGS_RF0R) != (uint32_t)RESET)
 2513              		.loc 1 1094 0
 2514 0c4c 3B68     		ldr	r3, [r7]
 2515 0c4e 03F00073 		and	r3, r3, #33554432
 2516 0c52 002B     		cmp	r3, #0
 2517 0c54 0DD0     		beq	.L153
1095:../../source/src/FWlib/src/stm32f10x_can.c ****   { 
1096:../../source/src/FWlib/src/stm32f10x_can.c ****     /* Check the status of the specified CAN flag */
1097:../../source/src/FWlib/src/stm32f10x_can.c ****     if ((CANx->RF0R & (CAN_FLAG & 0x000FFFFF)) != (uint32_t)RESET)
 2518              		.loc 1 1097 0
 2519 0c56 7B68     		ldr	r3, [r7, #4]
 2520 0c58 DA68     		ldr	r2, [r3, #12]
 2521 0c5a 3B68     		ldr	r3, [r7]
 2522 0c5c 1340     		ands	r3, r3, r2
 2523 0c5e C3F31303 		ubfx	r3, r3, #0, #20
 2524 0c62 002B     		cmp	r3, #0
 2525 0c64 02D0     		beq	.L154
1098:../../source/src/FWlib/src/stm32f10x_can.c ****     { 
1099:../../source/src/FWlib/src/stm32f10x_can.c ****       /* CAN_FLAG is set */
1100:../../source/src/FWlib/src/stm32f10x_can.c ****       bitstatus = SET;
 2526              		.loc 1 1100 0
 2527 0c66 0123     		movs	r3, #1
 2528 0c68 FB73     		strb	r3, [r7, #15]
 2529 0c6a 0FE0     		b	.L146
 2530              	.L154:
1101:../../source/src/FWlib/src/stm32f10x_can.c ****     }
1102:../../source/src/FWlib/src/stm32f10x_can.c ****     else
1103:../../source/src/FWlib/src/stm32f10x_can.c ****     { 
1104:../../source/src/FWlib/src/stm32f10x_can.c ****       /* CAN_FLAG is reset */
1105:../../source/src/FWlib/src/stm32f10x_can.c ****       bitstatus = RESET;
 2531              		.loc 1 1105 0
 2532 0c6c 0023     		movs	r3, #0
 2533 0c6e FB73     		strb	r3, [r7, #15]
 2534 0c70 0CE0     		b	.L146
 2535              	.L153:
1106:../../source/src/FWlib/src/stm32f10x_can.c ****     }
1107:../../source/src/FWlib/src/stm32f10x_can.c ****   }
1108:../../source/src/FWlib/src/stm32f10x_can.c ****   else /* If(CAN_FLAG & CAN_FLAGS_RF1R != (uint32_t)RESET) */
1109:../../source/src/FWlib/src/stm32f10x_can.c ****   { 
1110:../../source/src/FWlib/src/stm32f10x_can.c ****     /* Check the status of the specified CAN flag */
1111:../../source/src/FWlib/src/stm32f10x_can.c ****     if ((uint32_t)(CANx->RF1R & (CAN_FLAG & 0x000FFFFF)) != (uint32_t)RESET)
ARM GAS  G:\Users\Jaxb\AppData\Local\Temp\cc1bUhhc.s 			page 66


 2536              		.loc 1 1111 0
 2537 0c72 7B68     		ldr	r3, [r7, #4]
 2538 0c74 1A69     		ldr	r2, [r3, #16]
 2539 0c76 3B68     		ldr	r3, [r7]
 2540 0c78 1340     		ands	r3, r3, r2
 2541 0c7a C3F31303 		ubfx	r3, r3, #0, #20
 2542 0c7e 002B     		cmp	r3, #0
 2543 0c80 02D0     		beq	.L156
1112:../../source/src/FWlib/src/stm32f10x_can.c ****     { 
1113:../../source/src/FWlib/src/stm32f10x_can.c ****       /* CAN_FLAG is set */
1114:../../source/src/FWlib/src/stm32f10x_can.c ****       bitstatus = SET;
 2544              		.loc 1 1114 0
 2545 0c82 0123     		movs	r3, #1
 2546 0c84 FB73     		strb	r3, [r7, #15]
 2547 0c86 01E0     		b	.L146
 2548              	.L156:
1115:../../source/src/FWlib/src/stm32f10x_can.c ****     }
1116:../../source/src/FWlib/src/stm32f10x_can.c ****     else
1117:../../source/src/FWlib/src/stm32f10x_can.c ****     { 
1118:../../source/src/FWlib/src/stm32f10x_can.c ****       /* CAN_FLAG is reset */
1119:../../source/src/FWlib/src/stm32f10x_can.c ****       bitstatus = RESET;
 2549              		.loc 1 1119 0
 2550 0c88 0023     		movs	r3, #0
 2551 0c8a FB73     		strb	r3, [r7, #15]
 2552              	.L146:
1120:../../source/src/FWlib/src/stm32f10x_can.c ****     }
1121:../../source/src/FWlib/src/stm32f10x_can.c ****   }
1122:../../source/src/FWlib/src/stm32f10x_can.c ****   /* Return the CAN_FLAG status */
1123:../../source/src/FWlib/src/stm32f10x_can.c ****   return  bitstatus;
 2553              		.loc 1 1123 0
 2554 0c8c FB7B     		ldrb	r3, [r7, #15]	@ zero_extendqisi2
1124:../../source/src/FWlib/src/stm32f10x_can.c **** }
 2555              		.loc 1 1124 0
 2556 0c8e 1846     		mov	r0, r3
 2557 0c90 1437     		adds	r7, r7, #20
 2558              	.LCFI122:
 2559              		.cfi_def_cfa_offset 4
 2560 0c92 BD46     		mov	sp, r7
 2561              	.LCFI123:
 2562              		.cfi_def_cfa_register 13
 2563              		@ sp needed
 2564 0c94 80BC     		pop	{r7}
 2565              	.LCFI124:
 2566              		.cfi_restore 7
 2567              		.cfi_def_cfa_offset 0
 2568 0c96 7047     		bx	lr
 2569              		.cfi_endproc
 2570              	.LFE49:
 2571              		.size	CAN_GetFlagStatus, .-CAN_GetFlagStatus
 2572              		.align	1
 2573              		.global	CAN_ClearFlag
 2574              		.syntax unified
 2575              		.thumb
 2576              		.thumb_func
 2577              		.fpu softvfp
 2578              		.type	CAN_ClearFlag, %function
 2579              	CAN_ClearFlag:
ARM GAS  G:\Users\Jaxb\AppData\Local\Temp\cc1bUhhc.s 			page 67


 2580              	.LFB50:
1125:../../source/src/FWlib/src/stm32f10x_can.c **** 
1126:../../source/src/FWlib/src/stm32f10x_can.c **** /**
1127:../../source/src/FWlib/src/stm32f10x_can.c ****   * @brief  Clears the CAN's pending flags.
1128:../../source/src/FWlib/src/stm32f10x_can.c ****   * @param  CANx:     where x can be 1 or 2 to to select the CAN peripheral.
1129:../../source/src/FWlib/src/stm32f10x_can.c ****   * @param  CAN_FLAG: specifies the flag to clear.
1130:../../source/src/FWlib/src/stm32f10x_can.c ****   *                   This parameter can be one of the following flags: 
1131:../../source/src/FWlib/src/stm32f10x_can.c ****   *                    - CAN_FLAG_RQCP0
1132:../../source/src/FWlib/src/stm32f10x_can.c ****   *                    - CAN_FLAG_RQCP1
1133:../../source/src/FWlib/src/stm32f10x_can.c ****   *                    - CAN_FLAG_RQCP2
1134:../../source/src/FWlib/src/stm32f10x_can.c ****   *                    - CAN_FLAG_FF1       
1135:../../source/src/FWlib/src/stm32f10x_can.c ****   *                    - CAN_FLAG_FOV1   
1136:../../source/src/FWlib/src/stm32f10x_can.c ****   *                    - CAN_FLAG_FF0       
1137:../../source/src/FWlib/src/stm32f10x_can.c ****   *                    - CAN_FLAG_FOV0   
1138:../../source/src/FWlib/src/stm32f10x_can.c ****   *                    - CAN_FLAG_WKU   
1139:../../source/src/FWlib/src/stm32f10x_can.c ****   *                    - CAN_FLAG_SLAK    
1140:../../source/src/FWlib/src/stm32f10x_can.c ****   *                    - CAN_FLAG_LEC       
1141:../../source/src/FWlib/src/stm32f10x_can.c ****   * @retval None.
1142:../../source/src/FWlib/src/stm32f10x_can.c ****   */
1143:../../source/src/FWlib/src/stm32f10x_can.c **** void CAN_ClearFlag(CAN_TypeDef* CANx, uint32_t CAN_FLAG)
1144:../../source/src/FWlib/src/stm32f10x_can.c **** {
 2581              		.loc 1 1144 0
 2582              		.cfi_startproc
 2583              		@ args = 0, pretend = 0, frame = 16
 2584              		@ frame_needed = 1, uses_anonymous_args = 0
 2585              		@ link register save eliminated.
 2586 0c98 80B4     		push	{r7}
 2587              	.LCFI125:
 2588              		.cfi_def_cfa_offset 4
 2589              		.cfi_offset 7, -4
 2590 0c9a 85B0     		sub	sp, sp, #20
 2591              	.LCFI126:
 2592              		.cfi_def_cfa_offset 24
 2593 0c9c 00AF     		add	r7, sp, #0
 2594              	.LCFI127:
 2595              		.cfi_def_cfa_register 7
 2596 0c9e 7860     		str	r0, [r7, #4]
 2597 0ca0 3960     		str	r1, [r7]
1145:../../source/src/FWlib/src/stm32f10x_can.c ****   uint32_t flagtmp=0;
 2598              		.loc 1 1145 0
 2599 0ca2 0023     		movs	r3, #0
 2600 0ca4 FB60     		str	r3, [r7, #12]
1146:../../source/src/FWlib/src/stm32f10x_can.c ****   /* Check the parameters */
1147:../../source/src/FWlib/src/stm32f10x_can.c ****   assert_param(IS_CAN_ALL_PERIPH(CANx));
1148:../../source/src/FWlib/src/stm32f10x_can.c ****   assert_param(IS_CAN_CLEAR_FLAG(CAN_FLAG));
1149:../../source/src/FWlib/src/stm32f10x_can.c ****   
1150:../../source/src/FWlib/src/stm32f10x_can.c ****   if (CAN_FLAG == CAN_FLAG_LEC) /* ESR register */
 2601              		.loc 1 1150 0
 2602 0ca6 3B68     		ldr	r3, [r7]
 2603 0ca8 164A     		ldr	r2, .L165
 2604 0caa 9342     		cmp	r3, r2
 2605 0cac 03D1     		bne	.L159
1151:../../source/src/FWlib/src/stm32f10x_can.c ****   {
1152:../../source/src/FWlib/src/stm32f10x_can.c ****     /* Clear the selected CAN flags */
1153:../../source/src/FWlib/src/stm32f10x_can.c ****     CANx->ESR = (uint32_t)RESET;
 2606              		.loc 1 1153 0
 2607 0cae 7B68     		ldr	r3, [r7, #4]
ARM GAS  G:\Users\Jaxb\AppData\Local\Temp\cc1bUhhc.s 			page 68


 2608 0cb0 0022     		movs	r2, #0
 2609 0cb2 9A61     		str	r2, [r3, #24]
1154:../../source/src/FWlib/src/stm32f10x_can.c ****   }
1155:../../source/src/FWlib/src/stm32f10x_can.c ****   else /* MSR or TSR or RF0R or RF1R */
1156:../../source/src/FWlib/src/stm32f10x_can.c ****   {
1157:../../source/src/FWlib/src/stm32f10x_can.c ****     flagtmp = CAN_FLAG & 0x000FFFFF;
1158:../../source/src/FWlib/src/stm32f10x_can.c **** 
1159:../../source/src/FWlib/src/stm32f10x_can.c ****     if ((CAN_FLAG & CAN_FLAGS_RF0R)!=(uint32_t)RESET)
1160:../../source/src/FWlib/src/stm32f10x_can.c ****     {
1161:../../source/src/FWlib/src/stm32f10x_can.c ****       /* Receive Flags */
1162:../../source/src/FWlib/src/stm32f10x_can.c ****       CANx->RF0R = (uint32_t)(flagtmp);
1163:../../source/src/FWlib/src/stm32f10x_can.c ****     }
1164:../../source/src/FWlib/src/stm32f10x_can.c ****     else if ((CAN_FLAG & CAN_FLAGS_RF1R)!=(uint32_t)RESET)
1165:../../source/src/FWlib/src/stm32f10x_can.c ****     {
1166:../../source/src/FWlib/src/stm32f10x_can.c ****       /* Receive Flags */
1167:../../source/src/FWlib/src/stm32f10x_can.c ****       CANx->RF1R = (uint32_t)(flagtmp);
1168:../../source/src/FWlib/src/stm32f10x_can.c ****     }
1169:../../source/src/FWlib/src/stm32f10x_can.c ****     else if ((CAN_FLAG & CAN_FLAGS_TSR)!=(uint32_t)RESET)
1170:../../source/src/FWlib/src/stm32f10x_can.c ****     {
1171:../../source/src/FWlib/src/stm32f10x_can.c ****       /* Transmit Flags */
1172:../../source/src/FWlib/src/stm32f10x_can.c ****       CANx->TSR = (uint32_t)(flagtmp);
1173:../../source/src/FWlib/src/stm32f10x_can.c ****     }
1174:../../source/src/FWlib/src/stm32f10x_can.c ****     else /* If((CAN_FLAG & CAN_FLAGS_MSR)!=(uint32_t)RESET) */
1175:../../source/src/FWlib/src/stm32f10x_can.c ****     {
1176:../../source/src/FWlib/src/stm32f10x_can.c ****       /* Operating mode Flags */
1177:../../source/src/FWlib/src/stm32f10x_can.c ****       CANx->MSR = (uint32_t)(flagtmp);
1178:../../source/src/FWlib/src/stm32f10x_can.c ****     }
1179:../../source/src/FWlib/src/stm32f10x_can.c ****   }
1180:../../source/src/FWlib/src/stm32f10x_can.c **** }
 2610              		.loc 1 1180 0
 2611 0cb4 21E0     		b	.L164
 2612              	.L159:
1157:../../source/src/FWlib/src/stm32f10x_can.c **** 
 2613              		.loc 1 1157 0
 2614 0cb6 3B68     		ldr	r3, [r7]
 2615 0cb8 C3F31303 		ubfx	r3, r3, #0, #20
 2616 0cbc FB60     		str	r3, [r7, #12]
1159:../../source/src/FWlib/src/stm32f10x_can.c ****     {
 2617              		.loc 1 1159 0
 2618 0cbe 3B68     		ldr	r3, [r7]
 2619 0cc0 03F00073 		and	r3, r3, #33554432
 2620 0cc4 002B     		cmp	r3, #0
 2621 0cc6 03D0     		beq	.L161
1162:../../source/src/FWlib/src/stm32f10x_can.c ****     }
 2622              		.loc 1 1162 0
 2623 0cc8 7B68     		ldr	r3, [r7, #4]
 2624 0cca FA68     		ldr	r2, [r7, #12]
 2625 0ccc DA60     		str	r2, [r3, #12]
 2626              		.loc 1 1180 0
 2627 0cce 14E0     		b	.L164
 2628              	.L161:
1164:../../source/src/FWlib/src/stm32f10x_can.c ****     {
 2629              		.loc 1 1164 0
 2630 0cd0 3B68     		ldr	r3, [r7]
 2631 0cd2 03F08063 		and	r3, r3, #67108864
 2632 0cd6 002B     		cmp	r3, #0
 2633 0cd8 03D0     		beq	.L162
ARM GAS  G:\Users\Jaxb\AppData\Local\Temp\cc1bUhhc.s 			page 69


1167:../../source/src/FWlib/src/stm32f10x_can.c ****     }
 2634              		.loc 1 1167 0
 2635 0cda 7B68     		ldr	r3, [r7, #4]
 2636 0cdc FA68     		ldr	r2, [r7, #12]
 2637 0cde 1A61     		str	r2, [r3, #16]
 2638              		.loc 1 1180 0
 2639 0ce0 0BE0     		b	.L164
 2640              	.L162:
1169:../../source/src/FWlib/src/stm32f10x_can.c ****     {
 2641              		.loc 1 1169 0
 2642 0ce2 3B68     		ldr	r3, [r7]
 2643 0ce4 03F00063 		and	r3, r3, #134217728
 2644 0ce8 002B     		cmp	r3, #0
 2645 0cea 03D0     		beq	.L163
1172:../../source/src/FWlib/src/stm32f10x_can.c ****     }
 2646              		.loc 1 1172 0
 2647 0cec 7B68     		ldr	r3, [r7, #4]
 2648 0cee FA68     		ldr	r2, [r7, #12]
 2649 0cf0 9A60     		str	r2, [r3, #8]
 2650              		.loc 1 1180 0
 2651 0cf2 02E0     		b	.L164
 2652              	.L163:
1177:../../source/src/FWlib/src/stm32f10x_can.c ****     }
 2653              		.loc 1 1177 0
 2654 0cf4 7B68     		ldr	r3, [r7, #4]
 2655 0cf6 FA68     		ldr	r2, [r7, #12]
 2656 0cf8 5A60     		str	r2, [r3, #4]
 2657              	.L164:
 2658              		.loc 1 1180 0
 2659 0cfa 00BF     		nop
 2660 0cfc 1437     		adds	r7, r7, #20
 2661              	.LCFI128:
 2662              		.cfi_def_cfa_offset 4
 2663 0cfe BD46     		mov	sp, r7
 2664              	.LCFI129:
 2665              		.cfi_def_cfa_register 13
 2666              		@ sp needed
 2667 0d00 80BC     		pop	{r7}
 2668              	.LCFI130:
 2669              		.cfi_restore 7
 2670              		.cfi_def_cfa_offset 0
 2671 0d02 7047     		bx	lr
 2672              	.L166:
 2673              		.align	2
 2674              	.L165:
 2675 0d04 7000F030 		.word	821035120
 2676              		.cfi_endproc
 2677              	.LFE50:
 2678              		.size	CAN_ClearFlag, .-CAN_ClearFlag
 2679              		.align	1
 2680              		.global	CAN_GetITStatus
 2681              		.syntax unified
 2682              		.thumb
 2683              		.thumb_func
 2684              		.fpu softvfp
 2685              		.type	CAN_GetITStatus, %function
 2686              	CAN_GetITStatus:
ARM GAS  G:\Users\Jaxb\AppData\Local\Temp\cc1bUhhc.s 			page 70


 2687              	.LFB51:
1181:../../source/src/FWlib/src/stm32f10x_can.c **** 
1182:../../source/src/FWlib/src/stm32f10x_can.c **** /**
1183:../../source/src/FWlib/src/stm32f10x_can.c ****   * @brief  Checks whether the specified CANx interrupt has occurred or not.
1184:../../source/src/FWlib/src/stm32f10x_can.c ****   * @param  CANx:    where x can be 1 or 2 to to select the CAN peripheral.
1185:../../source/src/FWlib/src/stm32f10x_can.c ****   * @param  CAN_IT:  specifies the CAN interrupt source to check.
1186:../../source/src/FWlib/src/stm32f10x_can.c ****   *                  This parameter can be one of the following flags: 
1187:../../source/src/FWlib/src/stm32f10x_can.c ****   *                 -  CAN_IT_TME               
1188:../../source/src/FWlib/src/stm32f10x_can.c ****   *                 -  CAN_IT_FMP0              
1189:../../source/src/FWlib/src/stm32f10x_can.c ****   *                 -  CAN_IT_FF0               
1190:../../source/src/FWlib/src/stm32f10x_can.c ****   *                 -  CAN_IT_FOV0              
1191:../../source/src/FWlib/src/stm32f10x_can.c ****   *                 -  CAN_IT_FMP1              
1192:../../source/src/FWlib/src/stm32f10x_can.c ****   *                 -  CAN_IT_FF1               
1193:../../source/src/FWlib/src/stm32f10x_can.c ****   *                 -  CAN_IT_FOV1              
1194:../../source/src/FWlib/src/stm32f10x_can.c ****   *                 -  CAN_IT_WKU  
1195:../../source/src/FWlib/src/stm32f10x_can.c ****   *                 -  CAN_IT_SLK  
1196:../../source/src/FWlib/src/stm32f10x_can.c ****   *                 -  CAN_IT_EWG    
1197:../../source/src/FWlib/src/stm32f10x_can.c ****   *                 -  CAN_IT_EPV    
1198:../../source/src/FWlib/src/stm32f10x_can.c ****   *                 -  CAN_IT_BOF    
1199:../../source/src/FWlib/src/stm32f10x_can.c ****   *                 -  CAN_IT_LEC    
1200:../../source/src/FWlib/src/stm32f10x_can.c ****   *                 -  CAN_IT_ERR 
1201:../../source/src/FWlib/src/stm32f10x_can.c ****   * @retval The current state of CAN_IT (SET or RESET).
1202:../../source/src/FWlib/src/stm32f10x_can.c ****   */
1203:../../source/src/FWlib/src/stm32f10x_can.c **** ITStatus CAN_GetITStatus(CAN_TypeDef* CANx, uint32_t CAN_IT)
1204:../../source/src/FWlib/src/stm32f10x_can.c **** {
 2688              		.loc 1 1204 0
 2689              		.cfi_startproc
 2690              		@ args = 0, pretend = 0, frame = 16
 2691              		@ frame_needed = 1, uses_anonymous_args = 0
 2692 0d08 80B5     		push	{r7, lr}
 2693              	.LCFI131:
 2694              		.cfi_def_cfa_offset 8
 2695              		.cfi_offset 7, -8
 2696              		.cfi_offset 14, -4
 2697 0d0a 84B0     		sub	sp, sp, #16
 2698              	.LCFI132:
 2699              		.cfi_def_cfa_offset 24
 2700 0d0c 00AF     		add	r7, sp, #0
 2701              	.LCFI133:
 2702              		.cfi_def_cfa_register 7
 2703 0d0e 7860     		str	r0, [r7, #4]
 2704 0d10 3960     		str	r1, [r7]
1205:../../source/src/FWlib/src/stm32f10x_can.c ****   ITStatus itstatus = RESET;
 2705              		.loc 1 1205 0
 2706 0d12 0023     		movs	r3, #0
 2707 0d14 FB73     		strb	r3, [r7, #15]
1206:../../source/src/FWlib/src/stm32f10x_can.c ****   /* Check the parameters */
1207:../../source/src/FWlib/src/stm32f10x_can.c ****   assert_param(IS_CAN_ALL_PERIPH(CANx));
1208:../../source/src/FWlib/src/stm32f10x_can.c ****   assert_param(IS_CAN_IT(CAN_IT));
1209:../../source/src/FWlib/src/stm32f10x_can.c ****   
1210:../../source/src/FWlib/src/stm32f10x_can.c ****   /* check the enable interrupt bit */
1211:../../source/src/FWlib/src/stm32f10x_can.c ****  if((CANx->IER & CAN_IT) != RESET)
 2708              		.loc 1 1211 0
 2709 0d16 7B68     		ldr	r3, [r7, #4]
 2710 0d18 5A69     		ldr	r2, [r3, #20]
 2711 0d1a 3B68     		ldr	r3, [r7]
 2712 0d1c 1340     		ands	r3, r3, r2
ARM GAS  G:\Users\Jaxb\AppData\Local\Temp\cc1bUhhc.s 			page 71


 2713 0d1e 002B     		cmp	r3, #0
 2714 0d20 00F0B280 		beq	.L168
1212:../../source/src/FWlib/src/stm32f10x_can.c ****  {
1213:../../source/src/FWlib/src/stm32f10x_can.c ****    /* in case the Interrupt is enabled, .... */
1214:../../source/src/FWlib/src/stm32f10x_can.c ****     switch (CAN_IT)
 2715              		.loc 1 1214 0
 2716 0d24 3B68     		ldr	r3, [r7]
 2717 0d26 402B     		cmp	r3, #64
 2718 0d28 62D0     		beq	.L170
 2719 0d2a 402B     		cmp	r3, #64
 2720 0d2c 0FD8     		bhi	.L171
 2721 0d2e 042B     		cmp	r3, #4
 2722 0d30 3AD0     		beq	.L172
 2723 0d32 042B     		cmp	r3, #4
 2724 0d34 04D8     		bhi	.L173
 2725 0d36 012B     		cmp	r3, #1
 2726 0d38 24D0     		beq	.L174
 2727 0d3a 022B     		cmp	r3, #2
 2728 0d3c 2BD0     		beq	.L175
 2729 0d3e 9FE0     		b	.L169
 2730              	.L173:
 2731 0d40 102B     		cmp	r3, #16
 2732 0d42 43D0     		beq	.L176
 2733 0d44 202B     		cmp	r3, #32
 2734 0d46 4AD0     		beq	.L177
 2735 0d48 082B     		cmp	r3, #8
 2736 0d4a 36D0     		beq	.L178
 2737 0d4c 98E0     		b	.L169
 2738              	.L171:
 2739 0d4e B3F5006F 		cmp	r3, #2048
 2740 0d52 00F08380 		beq	.L179
 2741 0d56 B3F5006F 		cmp	r3, #2048
 2742 0d5a 09D8     		bhi	.L180
 2743 0d5c B3F5007F 		cmp	r3, #512
 2744 0d60 6AD0     		beq	.L181
 2745 0d62 B3F5806F 		cmp	r3, #1024
 2746 0d66 70D0     		beq	.L182
 2747 0d68 B3F5807F 		cmp	r3, #256
 2748 0d6c 5BD0     		beq	.L183
 2749 0d6e 87E0     		b	.L169
 2750              	.L180:
 2751 0d70 B3F5803F 		cmp	r3, #65536
 2752 0d74 45D0     		beq	.L184
 2753 0d76 B3F5003F 		cmp	r3, #131072
 2754 0d7a 4BD0     		beq	.L185
 2755 0d7c B3F5004F 		cmp	r3, #32768
 2756 0d80 75D0     		beq	.L186
 2757 0d82 7DE0     		b	.L169
 2758              	.L174:
1215:../../source/src/FWlib/src/stm32f10x_can.c ****     {
1216:../../source/src/FWlib/src/stm32f10x_can.c ****       case CAN_IT_TME:
1217:../../source/src/FWlib/src/stm32f10x_can.c ****                /* Check CAN_TSR_RQCPx bits */
1218:../../source/src/FWlib/src/stm32f10x_can.c **** 	             itstatus = CheckITStatus(CANx->TSR, CAN_TSR_RQCP0|CAN_TSR_RQCP1|CAN_TSR_RQCP2);  
 2759              		.loc 1 1218 0
 2760 0d84 7B68     		ldr	r3, [r7, #4]
 2761 0d86 9B68     		ldr	r3, [r3, #8]
 2762 0d88 4349     		ldr	r1, .L190
ARM GAS  G:\Users\Jaxb\AppData\Local\Temp\cc1bUhhc.s 			page 72


 2763 0d8a 1846     		mov	r0, r3
 2764 0d8c 00F0F4F8 		bl	CheckITStatus
 2765 0d90 0346     		mov	r3, r0
 2766 0d92 FB73     		strb	r3, [r7, #15]
1219:../../source/src/FWlib/src/stm32f10x_can.c **** 	      break;
 2767              		.loc 1 1219 0
 2768 0d94 7AE0     		b	.L188
 2769              	.L175:
1220:../../source/src/FWlib/src/stm32f10x_can.c ****       case CAN_IT_FMP0:
1221:../../source/src/FWlib/src/stm32f10x_can.c ****                /* Check CAN_RF0R_FMP0 bit */
1222:../../source/src/FWlib/src/stm32f10x_can.c **** 	             itstatus = CheckITStatus(CANx->RF0R, CAN_RF0R_FMP0);  
 2770              		.loc 1 1222 0
 2771 0d96 7B68     		ldr	r3, [r7, #4]
 2772 0d98 DB68     		ldr	r3, [r3, #12]
 2773 0d9a 0321     		movs	r1, #3
 2774 0d9c 1846     		mov	r0, r3
 2775 0d9e 00F0EBF8 		bl	CheckITStatus
 2776 0da2 0346     		mov	r3, r0
 2777 0da4 FB73     		strb	r3, [r7, #15]
1223:../../source/src/FWlib/src/stm32f10x_can.c **** 	      break;
 2778              		.loc 1 1223 0
 2779 0da6 71E0     		b	.L188
 2780              	.L172:
1224:../../source/src/FWlib/src/stm32f10x_can.c ****       case CAN_IT_FF0:
1225:../../source/src/FWlib/src/stm32f10x_can.c ****                /* Check CAN_RF0R_FULL0 bit */
1226:../../source/src/FWlib/src/stm32f10x_can.c ****                itstatus = CheckITStatus(CANx->RF0R, CAN_RF0R_FULL0);  
 2781              		.loc 1 1226 0
 2782 0da8 7B68     		ldr	r3, [r7, #4]
 2783 0daa DB68     		ldr	r3, [r3, #12]
 2784 0dac 0821     		movs	r1, #8
 2785 0dae 1846     		mov	r0, r3
 2786 0db0 00F0E2F8 		bl	CheckITStatus
 2787 0db4 0346     		mov	r3, r0
 2788 0db6 FB73     		strb	r3, [r7, #15]
1227:../../source/src/FWlib/src/stm32f10x_can.c **** 	      break;
 2789              		.loc 1 1227 0
 2790 0db8 68E0     		b	.L188
 2791              	.L178:
1228:../../source/src/FWlib/src/stm32f10x_can.c ****       case CAN_IT_FOV0:
1229:../../source/src/FWlib/src/stm32f10x_can.c ****                /* Check CAN_RF0R_FOVR0 bit */
1230:../../source/src/FWlib/src/stm32f10x_can.c ****                itstatus = CheckITStatus(CANx->RF0R, CAN_RF0R_FOVR0);  
 2792              		.loc 1 1230 0
 2793 0dba 7B68     		ldr	r3, [r7, #4]
 2794 0dbc DB68     		ldr	r3, [r3, #12]
 2795 0dbe 1021     		movs	r1, #16
 2796 0dc0 1846     		mov	r0, r3
 2797 0dc2 00F0D9F8 		bl	CheckITStatus
 2798 0dc6 0346     		mov	r3, r0
 2799 0dc8 FB73     		strb	r3, [r7, #15]
1231:../../source/src/FWlib/src/stm32f10x_can.c **** 	      break;
 2800              		.loc 1 1231 0
 2801 0dca 5FE0     		b	.L188
 2802              	.L176:
1232:../../source/src/FWlib/src/stm32f10x_can.c ****       case CAN_IT_FMP1:
1233:../../source/src/FWlib/src/stm32f10x_can.c ****                /* Check CAN_RF1R_FMP1 bit */
1234:../../source/src/FWlib/src/stm32f10x_can.c ****                itstatus = CheckITStatus(CANx->RF1R, CAN_RF1R_FMP1);  
 2803              		.loc 1 1234 0
ARM GAS  G:\Users\Jaxb\AppData\Local\Temp\cc1bUhhc.s 			page 73


 2804 0dcc 7B68     		ldr	r3, [r7, #4]
 2805 0dce 1B69     		ldr	r3, [r3, #16]
 2806 0dd0 0321     		movs	r1, #3
 2807 0dd2 1846     		mov	r0, r3
 2808 0dd4 00F0D0F8 		bl	CheckITStatus
 2809 0dd8 0346     		mov	r3, r0
 2810 0dda FB73     		strb	r3, [r7, #15]
1235:../../source/src/FWlib/src/stm32f10x_can.c **** 	      break;
 2811              		.loc 1 1235 0
 2812 0ddc 56E0     		b	.L188
 2813              	.L177:
1236:../../source/src/FWlib/src/stm32f10x_can.c ****       case CAN_IT_FF1:
1237:../../source/src/FWlib/src/stm32f10x_can.c ****                /* Check CAN_RF1R_FULL1 bit */
1238:../../source/src/FWlib/src/stm32f10x_can.c **** 	             itstatus = CheckITStatus(CANx->RF1R, CAN_RF1R_FULL1);  
 2814              		.loc 1 1238 0
 2815 0dde 7B68     		ldr	r3, [r7, #4]
 2816 0de0 1B69     		ldr	r3, [r3, #16]
 2817 0de2 0821     		movs	r1, #8
 2818 0de4 1846     		mov	r0, r3
 2819 0de6 00F0C7F8 		bl	CheckITStatus
 2820 0dea 0346     		mov	r3, r0
 2821 0dec FB73     		strb	r3, [r7, #15]
1239:../../source/src/FWlib/src/stm32f10x_can.c **** 	      break;
 2822              		.loc 1 1239 0
 2823 0dee 4DE0     		b	.L188
 2824              	.L170:
1240:../../source/src/FWlib/src/stm32f10x_can.c ****       case CAN_IT_FOV1:
1241:../../source/src/FWlib/src/stm32f10x_can.c ****                /* Check CAN_RF1R_FOVR1 bit */
1242:../../source/src/FWlib/src/stm32f10x_can.c **** 	             itstatus = CheckITStatus(CANx->RF1R, CAN_RF1R_FOVR1);  
 2825              		.loc 1 1242 0
 2826 0df0 7B68     		ldr	r3, [r7, #4]
 2827 0df2 1B69     		ldr	r3, [r3, #16]
 2828 0df4 1021     		movs	r1, #16
 2829 0df6 1846     		mov	r0, r3
 2830 0df8 00F0BEF8 		bl	CheckITStatus
 2831 0dfc 0346     		mov	r3, r0
 2832 0dfe FB73     		strb	r3, [r7, #15]
1243:../../source/src/FWlib/src/stm32f10x_can.c **** 	      break;
 2833              		.loc 1 1243 0
 2834 0e00 44E0     		b	.L188
 2835              	.L184:
1244:../../source/src/FWlib/src/stm32f10x_can.c ****       case CAN_IT_WKU:
1245:../../source/src/FWlib/src/stm32f10x_can.c ****                /* Check CAN_MSR_WKUI bit */
1246:../../source/src/FWlib/src/stm32f10x_can.c ****                itstatus = CheckITStatus(CANx->MSR, CAN_MSR_WKUI);  
 2836              		.loc 1 1246 0
 2837 0e02 7B68     		ldr	r3, [r7, #4]
 2838 0e04 5B68     		ldr	r3, [r3, #4]
 2839 0e06 0821     		movs	r1, #8
 2840 0e08 1846     		mov	r0, r3
 2841 0e0a 00F0B5F8 		bl	CheckITStatus
 2842 0e0e 0346     		mov	r3, r0
 2843 0e10 FB73     		strb	r3, [r7, #15]
1247:../../source/src/FWlib/src/stm32f10x_can.c **** 	      break;
 2844              		.loc 1 1247 0
 2845 0e12 3BE0     		b	.L188
 2846              	.L185:
1248:../../source/src/FWlib/src/stm32f10x_can.c ****       case CAN_IT_SLK:
ARM GAS  G:\Users\Jaxb\AppData\Local\Temp\cc1bUhhc.s 			page 74


1249:../../source/src/FWlib/src/stm32f10x_can.c ****                /* Check CAN_MSR_SLAKI bit */
1250:../../source/src/FWlib/src/stm32f10x_can.c **** 	             itstatus = CheckITStatus(CANx->MSR, CAN_MSR_SLAKI);  
 2847              		.loc 1 1250 0
 2848 0e14 7B68     		ldr	r3, [r7, #4]
 2849 0e16 5B68     		ldr	r3, [r3, #4]
 2850 0e18 1021     		movs	r1, #16
 2851 0e1a 1846     		mov	r0, r3
 2852 0e1c 00F0ACF8 		bl	CheckITStatus
 2853 0e20 0346     		mov	r3, r0
 2854 0e22 FB73     		strb	r3, [r7, #15]
1251:../../source/src/FWlib/src/stm32f10x_can.c **** 	      break;
 2855              		.loc 1 1251 0
 2856 0e24 32E0     		b	.L188
 2857              	.L183:
1252:../../source/src/FWlib/src/stm32f10x_can.c ****       case CAN_IT_EWG:
1253:../../source/src/FWlib/src/stm32f10x_can.c ****                /* Check CAN_ESR_EWGF bit */
1254:../../source/src/FWlib/src/stm32f10x_can.c **** 	             itstatus = CheckITStatus(CANx->ESR, CAN_ESR_EWGF);  
 2858              		.loc 1 1254 0
 2859 0e26 7B68     		ldr	r3, [r7, #4]
 2860 0e28 9B69     		ldr	r3, [r3, #24]
 2861 0e2a 0121     		movs	r1, #1
 2862 0e2c 1846     		mov	r0, r3
 2863 0e2e 00F0A3F8 		bl	CheckITStatus
 2864 0e32 0346     		mov	r3, r0
 2865 0e34 FB73     		strb	r3, [r7, #15]
1255:../../source/src/FWlib/src/stm32f10x_can.c **** 	      break;
 2866              		.loc 1 1255 0
 2867 0e36 29E0     		b	.L188
 2868              	.L181:
1256:../../source/src/FWlib/src/stm32f10x_can.c ****       case CAN_IT_EPV:
1257:../../source/src/FWlib/src/stm32f10x_can.c ****                /* Check CAN_ESR_EPVF bit */
1258:../../source/src/FWlib/src/stm32f10x_can.c **** 	             itstatus = CheckITStatus(CANx->ESR, CAN_ESR_EPVF);  
 2869              		.loc 1 1258 0
 2870 0e38 7B68     		ldr	r3, [r7, #4]
 2871 0e3a 9B69     		ldr	r3, [r3, #24]
 2872 0e3c 0221     		movs	r1, #2
 2873 0e3e 1846     		mov	r0, r3
 2874 0e40 00F09AF8 		bl	CheckITStatus
 2875 0e44 0346     		mov	r3, r0
 2876 0e46 FB73     		strb	r3, [r7, #15]
1259:../../source/src/FWlib/src/stm32f10x_can.c **** 	      break;
 2877              		.loc 1 1259 0
 2878 0e48 20E0     		b	.L188
 2879              	.L182:
1260:../../source/src/FWlib/src/stm32f10x_can.c ****       case CAN_IT_BOF:
1261:../../source/src/FWlib/src/stm32f10x_can.c ****                /* Check CAN_ESR_BOFF bit */
1262:../../source/src/FWlib/src/stm32f10x_can.c **** 	             itstatus = CheckITStatus(CANx->ESR, CAN_ESR_BOFF);  
 2880              		.loc 1 1262 0
 2881 0e4a 7B68     		ldr	r3, [r7, #4]
 2882 0e4c 9B69     		ldr	r3, [r3, #24]
 2883 0e4e 0421     		movs	r1, #4
 2884 0e50 1846     		mov	r0, r3
 2885 0e52 00F091F8 		bl	CheckITStatus
 2886 0e56 0346     		mov	r3, r0
 2887 0e58 FB73     		strb	r3, [r7, #15]
1263:../../source/src/FWlib/src/stm32f10x_can.c **** 	      break;
 2888              		.loc 1 1263 0
ARM GAS  G:\Users\Jaxb\AppData\Local\Temp\cc1bUhhc.s 			page 75


 2889 0e5a 17E0     		b	.L188
 2890              	.L179:
1264:../../source/src/FWlib/src/stm32f10x_can.c ****       case CAN_IT_LEC:
1265:../../source/src/FWlib/src/stm32f10x_can.c ****                /* Check CAN_ESR_LEC bit */
1266:../../source/src/FWlib/src/stm32f10x_can.c **** 	             itstatus = CheckITStatus(CANx->ESR, CAN_ESR_LEC);  
 2891              		.loc 1 1266 0
 2892 0e5c 7B68     		ldr	r3, [r7, #4]
 2893 0e5e 9B69     		ldr	r3, [r3, #24]
 2894 0e60 7021     		movs	r1, #112
 2895 0e62 1846     		mov	r0, r3
 2896 0e64 00F088F8 		bl	CheckITStatus
 2897 0e68 0346     		mov	r3, r0
 2898 0e6a FB73     		strb	r3, [r7, #15]
1267:../../source/src/FWlib/src/stm32f10x_can.c **** 	      break;
 2899              		.loc 1 1267 0
 2900 0e6c 0EE0     		b	.L188
 2901              	.L186:
1268:../../source/src/FWlib/src/stm32f10x_can.c ****       case CAN_IT_ERR:
1269:../../source/src/FWlib/src/stm32f10x_can.c ****                /* Check CAN_MSR_ERRI bit */ 
1270:../../source/src/FWlib/src/stm32f10x_can.c ****                itstatus = CheckITStatus(CANx->MSR, CAN_MSR_ERRI); 
 2902              		.loc 1 1270 0
 2903 0e6e 7B68     		ldr	r3, [r7, #4]
 2904 0e70 5B68     		ldr	r3, [r3, #4]
 2905 0e72 0421     		movs	r1, #4
 2906 0e74 1846     		mov	r0, r3
 2907 0e76 00F07FF8 		bl	CheckITStatus
 2908 0e7a 0346     		mov	r3, r0
 2909 0e7c FB73     		strb	r3, [r7, #15]
1271:../../source/src/FWlib/src/stm32f10x_can.c **** 	      break;
 2910              		.loc 1 1271 0
 2911 0e7e 05E0     		b	.L188
 2912              	.L169:
1272:../../source/src/FWlib/src/stm32f10x_can.c ****       default :
1273:../../source/src/FWlib/src/stm32f10x_can.c ****                /* in case of error, return RESET */
1274:../../source/src/FWlib/src/stm32f10x_can.c ****               itstatus = RESET;
 2913              		.loc 1 1274 0
 2914 0e80 0023     		movs	r3, #0
 2915 0e82 FB73     		strb	r3, [r7, #15]
1275:../../source/src/FWlib/src/stm32f10x_can.c ****               break;
 2916              		.loc 1 1275 0
 2917 0e84 00BF     		nop
 2918 0e86 01E0     		b	.L188
 2919              	.L168:
1276:../../source/src/FWlib/src/stm32f10x_can.c ****     }
1277:../../source/src/FWlib/src/stm32f10x_can.c ****   }
1278:../../source/src/FWlib/src/stm32f10x_can.c ****   else
1279:../../source/src/FWlib/src/stm32f10x_can.c ****   {
1280:../../source/src/FWlib/src/stm32f10x_can.c ****    /* in case the Interrupt is not enabled, return RESET */
1281:../../source/src/FWlib/src/stm32f10x_can.c ****     itstatus  = RESET;
 2920              		.loc 1 1281 0
 2921 0e88 0023     		movs	r3, #0
 2922 0e8a FB73     		strb	r3, [r7, #15]
 2923              	.L188:
1282:../../source/src/FWlib/src/stm32f10x_can.c ****   }
1283:../../source/src/FWlib/src/stm32f10x_can.c ****   
1284:../../source/src/FWlib/src/stm32f10x_can.c ****   /* Return the CAN_IT status */
1285:../../source/src/FWlib/src/stm32f10x_can.c ****   return  itstatus;
ARM GAS  G:\Users\Jaxb\AppData\Local\Temp\cc1bUhhc.s 			page 76


 2924              		.loc 1 1285 0
 2925 0e8c FB7B     		ldrb	r3, [r7, #15]	@ zero_extendqisi2
1286:../../source/src/FWlib/src/stm32f10x_can.c **** }
 2926              		.loc 1 1286 0
 2927 0e8e 1846     		mov	r0, r3
 2928 0e90 1037     		adds	r7, r7, #16
 2929              	.LCFI134:
 2930              		.cfi_def_cfa_offset 8
 2931 0e92 BD46     		mov	sp, r7
 2932              	.LCFI135:
 2933              		.cfi_def_cfa_register 13
 2934              		@ sp needed
 2935 0e94 80BD     		pop	{r7, pc}
 2936              	.L191:
 2937 0e96 00BF     		.align	2
 2938              	.L190:
 2939 0e98 01010100 		.word	65793
 2940              		.cfi_endproc
 2941              	.LFE51:
 2942              		.size	CAN_GetITStatus, .-CAN_GetITStatus
 2943              		.align	1
 2944              		.global	CAN_ClearITPendingBit
 2945              		.syntax unified
 2946              		.thumb
 2947              		.thumb_func
 2948              		.fpu softvfp
 2949              		.type	CAN_ClearITPendingBit, %function
 2950              	CAN_ClearITPendingBit:
 2951              	.LFB52:
1287:../../source/src/FWlib/src/stm32f10x_can.c **** 
1288:../../source/src/FWlib/src/stm32f10x_can.c **** /**
1289:../../source/src/FWlib/src/stm32f10x_can.c ****   * @brief  Clears the CANx's interrupt pending bits.
1290:../../source/src/FWlib/src/stm32f10x_can.c ****   * @param  CANx:    where x can be 1 or 2 to to select the CAN peripheral.
1291:../../source/src/FWlib/src/stm32f10x_can.c ****   * @param  CAN_IT: specifies the interrupt pending bit to clear.
1292:../../source/src/FWlib/src/stm32f10x_can.c ****   *                  -  CAN_IT_TME                     
1293:../../source/src/FWlib/src/stm32f10x_can.c ****   *                  -  CAN_IT_FF0               
1294:../../source/src/FWlib/src/stm32f10x_can.c ****   *                  -  CAN_IT_FOV0                     
1295:../../source/src/FWlib/src/stm32f10x_can.c ****   *                  -  CAN_IT_FF1               
1296:../../source/src/FWlib/src/stm32f10x_can.c ****   *                  -  CAN_IT_FOV1              
1297:../../source/src/FWlib/src/stm32f10x_can.c ****   *                  -  CAN_IT_WKU  
1298:../../source/src/FWlib/src/stm32f10x_can.c ****   *                  -  CAN_IT_SLK  
1299:../../source/src/FWlib/src/stm32f10x_can.c ****   *                  -  CAN_IT_EWG    
1300:../../source/src/FWlib/src/stm32f10x_can.c ****   *                  -  CAN_IT_EPV    
1301:../../source/src/FWlib/src/stm32f10x_can.c ****   *                  -  CAN_IT_BOF    
1302:../../source/src/FWlib/src/stm32f10x_can.c ****   *                  -  CAN_IT_LEC    
1303:../../source/src/FWlib/src/stm32f10x_can.c ****   *                  -  CAN_IT_ERR 
1304:../../source/src/FWlib/src/stm32f10x_can.c ****   * @retval None.
1305:../../source/src/FWlib/src/stm32f10x_can.c ****   */
1306:../../source/src/FWlib/src/stm32f10x_can.c **** void CAN_ClearITPendingBit(CAN_TypeDef* CANx, uint32_t CAN_IT)
1307:../../source/src/FWlib/src/stm32f10x_can.c **** {
 2952              		.loc 1 1307 0
 2953              		.cfi_startproc
 2954              		@ args = 0, pretend = 0, frame = 8
 2955              		@ frame_needed = 1, uses_anonymous_args = 0
 2956              		@ link register save eliminated.
 2957 0e9c 80B4     		push	{r7}
 2958              	.LCFI136:
ARM GAS  G:\Users\Jaxb\AppData\Local\Temp\cc1bUhhc.s 			page 77


 2959              		.cfi_def_cfa_offset 4
 2960              		.cfi_offset 7, -4
 2961 0e9e 83B0     		sub	sp, sp, #12
 2962              	.LCFI137:
 2963              		.cfi_def_cfa_offset 16
 2964 0ea0 00AF     		add	r7, sp, #0
 2965              	.LCFI138:
 2966              		.cfi_def_cfa_register 7
 2967 0ea2 7860     		str	r0, [r7, #4]
 2968 0ea4 3960     		str	r1, [r7]
1308:../../source/src/FWlib/src/stm32f10x_can.c ****   /* Check the parameters */
1309:../../source/src/FWlib/src/stm32f10x_can.c ****   assert_param(IS_CAN_ALL_PERIPH(CANx));
1310:../../source/src/FWlib/src/stm32f10x_can.c ****   assert_param(IS_CAN_CLEAR_IT(CAN_IT));
1311:../../source/src/FWlib/src/stm32f10x_can.c **** 
1312:../../source/src/FWlib/src/stm32f10x_can.c ****   switch (CAN_IT)
 2969              		.loc 1 1312 0
 2970 0ea6 3B68     		ldr	r3, [r7]
 2971 0ea8 B3F5807F 		cmp	r3, #256
 2972 0eac 43D0     		beq	.L194
 2973 0eae B3F5807F 		cmp	r3, #256
 2974 0eb2 0DD8     		bhi	.L195
 2975 0eb4 082B     		cmp	r3, #8
 2976 0eb6 2AD0     		beq	.L196
 2977 0eb8 082B     		cmp	r3, #8
 2978 0eba 04D8     		bhi	.L197
 2979 0ebc 012B     		cmp	r3, #1
 2980 0ebe 1ED0     		beq	.L198
 2981 0ec0 042B     		cmp	r3, #4
 2982 0ec2 20D0     		beq	.L199
1313:../../source/src/FWlib/src/stm32f10x_can.c ****   {
1314:../../source/src/FWlib/src/stm32f10x_can.c ****       case CAN_IT_TME:
1315:../../source/src/FWlib/src/stm32f10x_can.c ****               /* Clear CAN_TSR_RQCPx (rc_w1)*/
1316:../../source/src/FWlib/src/stm32f10x_can.c **** 	      CANx->TSR = CAN_TSR_RQCP0|CAN_TSR_RQCP1|CAN_TSR_RQCP2;  
1317:../../source/src/FWlib/src/stm32f10x_can.c **** 	      break;
1318:../../source/src/FWlib/src/stm32f10x_can.c ****       case CAN_IT_FF0:
1319:../../source/src/FWlib/src/stm32f10x_can.c ****               /* Clear CAN_RF0R_FULL0 (rc_w1)*/
1320:../../source/src/FWlib/src/stm32f10x_can.c **** 	      CANx->RF0R = CAN_RF0R_FULL0; 
1321:../../source/src/FWlib/src/stm32f10x_can.c **** 	      break;
1322:../../source/src/FWlib/src/stm32f10x_can.c ****       case CAN_IT_FOV0:
1323:../../source/src/FWlib/src/stm32f10x_can.c ****               /* Clear CAN_RF0R_FOVR0 (rc_w1)*/
1324:../../source/src/FWlib/src/stm32f10x_can.c **** 	      CANx->RF0R = CAN_RF0R_FOVR0; 
1325:../../source/src/FWlib/src/stm32f10x_can.c **** 	      break;
1326:../../source/src/FWlib/src/stm32f10x_can.c ****       case CAN_IT_FF1:
1327:../../source/src/FWlib/src/stm32f10x_can.c ****               /* Clear CAN_RF1R_FULL1 (rc_w1)*/
1328:../../source/src/FWlib/src/stm32f10x_can.c **** 	      CANx->RF1R = CAN_RF1R_FULL1;  
1329:../../source/src/FWlib/src/stm32f10x_can.c **** 	      break;
1330:../../source/src/FWlib/src/stm32f10x_can.c ****       case CAN_IT_FOV1:
1331:../../source/src/FWlib/src/stm32f10x_can.c ****               /* Clear CAN_RF1R_FOVR1 (rc_w1)*/
1332:../../source/src/FWlib/src/stm32f10x_can.c **** 	      CANx->RF1R = CAN_RF1R_FOVR1; 
1333:../../source/src/FWlib/src/stm32f10x_can.c **** 	      break;
1334:../../source/src/FWlib/src/stm32f10x_can.c ****       case CAN_IT_WKU:
1335:../../source/src/FWlib/src/stm32f10x_can.c ****               /* Clear CAN_MSR_WKUI (rc_w1)*/
1336:../../source/src/FWlib/src/stm32f10x_can.c **** 	      CANx->MSR = CAN_MSR_WKUI;  
1337:../../source/src/FWlib/src/stm32f10x_can.c **** 	      break;
1338:../../source/src/FWlib/src/stm32f10x_can.c ****       case CAN_IT_SLK:
1339:../../source/src/FWlib/src/stm32f10x_can.c ****               /* Clear CAN_MSR_SLAKI (rc_w1)*/ 
1340:../../source/src/FWlib/src/stm32f10x_can.c **** 	      CANx->MSR = CAN_MSR_SLAKI;   
ARM GAS  G:\Users\Jaxb\AppData\Local\Temp\cc1bUhhc.s 			page 78


1341:../../source/src/FWlib/src/stm32f10x_can.c **** 	      break;
1342:../../source/src/FWlib/src/stm32f10x_can.c ****       case CAN_IT_EWG:
1343:../../source/src/FWlib/src/stm32f10x_can.c ****               /* Clear CAN_MSR_ERRI (rc_w1) */
1344:../../source/src/FWlib/src/stm32f10x_can.c **** 	      CANx->MSR = CAN_MSR_ERRI;
1345:../../source/src/FWlib/src/stm32f10x_can.c ****               /* Note : the corresponding Flag is cleared by hardware depending 
1346:../../source/src/FWlib/src/stm32f10x_can.c ****                         of the CAN Bus status*/ 
1347:../../source/src/FWlib/src/stm32f10x_can.c **** 	      break;
1348:../../source/src/FWlib/src/stm32f10x_can.c ****       case CAN_IT_EPV:
1349:../../source/src/FWlib/src/stm32f10x_can.c ****               /* Clear CAN_MSR_ERRI (rc_w1) */
1350:../../source/src/FWlib/src/stm32f10x_can.c **** 	      CANx->MSR = CAN_MSR_ERRI; 
1351:../../source/src/FWlib/src/stm32f10x_can.c ****               /* Note : the corresponding Flag is cleared by hardware depending 
1352:../../source/src/FWlib/src/stm32f10x_can.c ****                         of the CAN Bus status*/
1353:../../source/src/FWlib/src/stm32f10x_can.c **** 	      break;
1354:../../source/src/FWlib/src/stm32f10x_can.c ****       case CAN_IT_BOF:
1355:../../source/src/FWlib/src/stm32f10x_can.c ****               /* Clear CAN_MSR_ERRI (rc_w1) */ 
1356:../../source/src/FWlib/src/stm32f10x_can.c **** 	      CANx->MSR = CAN_MSR_ERRI; 
1357:../../source/src/FWlib/src/stm32f10x_can.c ****               /* Note : the corresponding Flag is cleared by hardware depending 
1358:../../source/src/FWlib/src/stm32f10x_can.c ****                         of the CAN Bus status*/
1359:../../source/src/FWlib/src/stm32f10x_can.c **** 	      break;
1360:../../source/src/FWlib/src/stm32f10x_can.c ****       case CAN_IT_LEC:
1361:../../source/src/FWlib/src/stm32f10x_can.c ****               /*  Clear LEC bits */
1362:../../source/src/FWlib/src/stm32f10x_can.c **** 	      CANx->ESR = RESET; 
1363:../../source/src/FWlib/src/stm32f10x_can.c ****               /* Clear CAN_MSR_ERRI (rc_w1) */
1364:../../source/src/FWlib/src/stm32f10x_can.c **** 	      CANx->MSR = CAN_MSR_ERRI; 
1365:../../source/src/FWlib/src/stm32f10x_can.c **** 	      break;
1366:../../source/src/FWlib/src/stm32f10x_can.c ****       case CAN_IT_ERR:
1367:../../source/src/FWlib/src/stm32f10x_can.c ****               /*Clear LEC bits */
1368:../../source/src/FWlib/src/stm32f10x_can.c **** 	      CANx->ESR = RESET; 
1369:../../source/src/FWlib/src/stm32f10x_can.c ****               /* Clear CAN_MSR_ERRI (rc_w1) */
1370:../../source/src/FWlib/src/stm32f10x_can.c **** 	      CANx->MSR = CAN_MSR_ERRI; 
1371:../../source/src/FWlib/src/stm32f10x_can.c **** 	      /* Note : BOFF, EPVF and EWGF Flags are cleared by hardware depending 
1372:../../source/src/FWlib/src/stm32f10x_can.c ****                   of the CAN Bus status*/
1373:../../source/src/FWlib/src/stm32f10x_can.c **** 	      break;
1374:../../source/src/FWlib/src/stm32f10x_can.c ****       default :
1375:../../source/src/FWlib/src/stm32f10x_can.c **** 	      break;
 2983              		.loc 1 1375 0
 2984 0ec4 51E0     		b	.L209
 2985              	.L197:
1312:../../source/src/FWlib/src/stm32f10x_can.c ****   {
 2986              		.loc 1 1312 0
 2987 0ec6 202B     		cmp	r3, #32
 2988 0ec8 25D0     		beq	.L200
 2989 0eca 402B     		cmp	r3, #64
 2990 0ecc 27D0     		beq	.L201
 2991              		.loc 1 1375 0
 2992 0ece 4CE0     		b	.L209
 2993              	.L195:
1312:../../source/src/FWlib/src/stm32f10x_can.c ****   {
 2994              		.loc 1 1312 0
 2995 0ed0 B3F5006F 		cmp	r3, #2048
 2996 0ed4 3BD0     		beq	.L202
 2997 0ed6 B3F5006F 		cmp	r3, #2048
 2998 0eda 06D8     		bhi	.L203
 2999 0edc B3F5007F 		cmp	r3, #512
 3000 0ee0 2DD0     		beq	.L204
 3001 0ee2 B3F5806F 		cmp	r3, #1024
 3002 0ee6 2ED0     		beq	.L205
ARM GAS  G:\Users\Jaxb\AppData\Local\Temp\cc1bUhhc.s 			page 79


 3003              		.loc 1 1375 0
 3004 0ee8 3FE0     		b	.L209
 3005              	.L203:
1312:../../source/src/FWlib/src/stm32f10x_can.c ****   {
 3006              		.loc 1 1312 0
 3007 0eea B3F5803F 		cmp	r3, #65536
 3008 0eee 1AD0     		beq	.L206
 3009 0ef0 B3F5003F 		cmp	r3, #131072
 3010 0ef4 1BD0     		beq	.L207
 3011 0ef6 B3F5004F 		cmp	r3, #32768
 3012 0efa 2FD0     		beq	.L208
 3013              		.loc 1 1375 0
 3014 0efc 35E0     		b	.L209
 3015              	.L198:
1316:../../source/src/FWlib/src/stm32f10x_can.c **** 	      break;
 3016              		.loc 1 1316 0
 3017 0efe 7B68     		ldr	r3, [r7, #4]
 3018 0f00 1C4A     		ldr	r2, .L210
 3019 0f02 9A60     		str	r2, [r3, #8]
1317:../../source/src/FWlib/src/stm32f10x_can.c ****       case CAN_IT_FF0:
 3020              		.loc 1 1317 0
 3021 0f04 31E0     		b	.L209
 3022              	.L199:
1320:../../source/src/FWlib/src/stm32f10x_can.c **** 	      break;
 3023              		.loc 1 1320 0
 3024 0f06 7B68     		ldr	r3, [r7, #4]
 3025 0f08 0822     		movs	r2, #8
 3026 0f0a DA60     		str	r2, [r3, #12]
1321:../../source/src/FWlib/src/stm32f10x_can.c ****       case CAN_IT_FOV0:
 3027              		.loc 1 1321 0
 3028 0f0c 2DE0     		b	.L209
 3029              	.L196:
1324:../../source/src/FWlib/src/stm32f10x_can.c **** 	      break;
 3030              		.loc 1 1324 0
 3031 0f0e 7B68     		ldr	r3, [r7, #4]
 3032 0f10 1022     		movs	r2, #16
 3033 0f12 DA60     		str	r2, [r3, #12]
1325:../../source/src/FWlib/src/stm32f10x_can.c ****       case CAN_IT_FF1:
 3034              		.loc 1 1325 0
 3035 0f14 29E0     		b	.L209
 3036              	.L200:
1328:../../source/src/FWlib/src/stm32f10x_can.c **** 	      break;
 3037              		.loc 1 1328 0
 3038 0f16 7B68     		ldr	r3, [r7, #4]
 3039 0f18 0822     		movs	r2, #8
 3040 0f1a 1A61     		str	r2, [r3, #16]
1329:../../source/src/FWlib/src/stm32f10x_can.c ****       case CAN_IT_FOV1:
 3041              		.loc 1 1329 0
 3042 0f1c 25E0     		b	.L209
 3043              	.L201:
1332:../../source/src/FWlib/src/stm32f10x_can.c **** 	      break;
 3044              		.loc 1 1332 0
 3045 0f1e 7B68     		ldr	r3, [r7, #4]
 3046 0f20 1022     		movs	r2, #16
 3047 0f22 1A61     		str	r2, [r3, #16]
1333:../../source/src/FWlib/src/stm32f10x_can.c ****       case CAN_IT_WKU:
 3048              		.loc 1 1333 0
ARM GAS  G:\Users\Jaxb\AppData\Local\Temp\cc1bUhhc.s 			page 80


 3049 0f24 21E0     		b	.L209
 3050              	.L206:
1336:../../source/src/FWlib/src/stm32f10x_can.c **** 	      break;
 3051              		.loc 1 1336 0
 3052 0f26 7B68     		ldr	r3, [r7, #4]
 3053 0f28 0822     		movs	r2, #8
 3054 0f2a 5A60     		str	r2, [r3, #4]
1337:../../source/src/FWlib/src/stm32f10x_can.c ****       case CAN_IT_SLK:
 3055              		.loc 1 1337 0
 3056 0f2c 1DE0     		b	.L209
 3057              	.L207:
1340:../../source/src/FWlib/src/stm32f10x_can.c **** 	      break;
 3058              		.loc 1 1340 0
 3059 0f2e 7B68     		ldr	r3, [r7, #4]
 3060 0f30 1022     		movs	r2, #16
 3061 0f32 5A60     		str	r2, [r3, #4]
1341:../../source/src/FWlib/src/stm32f10x_can.c ****       case CAN_IT_EWG:
 3062              		.loc 1 1341 0
 3063 0f34 19E0     		b	.L209
 3064              	.L194:
1344:../../source/src/FWlib/src/stm32f10x_can.c ****               /* Note : the corresponding Flag is cleared by hardware depending 
 3065              		.loc 1 1344 0
 3066 0f36 7B68     		ldr	r3, [r7, #4]
 3067 0f38 0422     		movs	r2, #4
 3068 0f3a 5A60     		str	r2, [r3, #4]
1347:../../source/src/FWlib/src/stm32f10x_can.c ****       case CAN_IT_EPV:
 3069              		.loc 1 1347 0
 3070 0f3c 15E0     		b	.L209
 3071              	.L204:
1350:../../source/src/FWlib/src/stm32f10x_can.c ****               /* Note : the corresponding Flag is cleared by hardware depending 
 3072              		.loc 1 1350 0
 3073 0f3e 7B68     		ldr	r3, [r7, #4]
 3074 0f40 0422     		movs	r2, #4
 3075 0f42 5A60     		str	r2, [r3, #4]
1353:../../source/src/FWlib/src/stm32f10x_can.c ****       case CAN_IT_BOF:
 3076              		.loc 1 1353 0
 3077 0f44 11E0     		b	.L209
 3078              	.L205:
1356:../../source/src/FWlib/src/stm32f10x_can.c ****               /* Note : the corresponding Flag is cleared by hardware depending 
 3079              		.loc 1 1356 0
 3080 0f46 7B68     		ldr	r3, [r7, #4]
 3081 0f48 0422     		movs	r2, #4
 3082 0f4a 5A60     		str	r2, [r3, #4]
1359:../../source/src/FWlib/src/stm32f10x_can.c ****       case CAN_IT_LEC:
 3083              		.loc 1 1359 0
 3084 0f4c 0DE0     		b	.L209
 3085              	.L202:
1362:../../source/src/FWlib/src/stm32f10x_can.c ****               /* Clear CAN_MSR_ERRI (rc_w1) */
 3086              		.loc 1 1362 0
 3087 0f4e 7B68     		ldr	r3, [r7, #4]
 3088 0f50 0022     		movs	r2, #0
 3089 0f52 9A61     		str	r2, [r3, #24]
1364:../../source/src/FWlib/src/stm32f10x_can.c **** 	      break;
 3090              		.loc 1 1364 0
 3091 0f54 7B68     		ldr	r3, [r7, #4]
 3092 0f56 0422     		movs	r2, #4
 3093 0f58 5A60     		str	r2, [r3, #4]
ARM GAS  G:\Users\Jaxb\AppData\Local\Temp\cc1bUhhc.s 			page 81


1365:../../source/src/FWlib/src/stm32f10x_can.c ****       case CAN_IT_ERR:
 3094              		.loc 1 1365 0
 3095 0f5a 06E0     		b	.L209
 3096              	.L208:
1368:../../source/src/FWlib/src/stm32f10x_can.c ****               /* Clear CAN_MSR_ERRI (rc_w1) */
 3097              		.loc 1 1368 0
 3098 0f5c 7B68     		ldr	r3, [r7, #4]
 3099 0f5e 0022     		movs	r2, #0
 3100 0f60 9A61     		str	r2, [r3, #24]
1370:../../source/src/FWlib/src/stm32f10x_can.c **** 	      /* Note : BOFF, EPVF and EWGF Flags are cleared by hardware depending 
 3101              		.loc 1 1370 0
 3102 0f62 7B68     		ldr	r3, [r7, #4]
 3103 0f64 0422     		movs	r2, #4
 3104 0f66 5A60     		str	r2, [r3, #4]
1373:../../source/src/FWlib/src/stm32f10x_can.c ****       default :
 3105              		.loc 1 1373 0
 3106 0f68 00BF     		nop
 3107              	.L209:
1376:../../source/src/FWlib/src/stm32f10x_can.c ****    }
1377:../../source/src/FWlib/src/stm32f10x_can.c **** }
 3108              		.loc 1 1377 0
 3109 0f6a 00BF     		nop
 3110 0f6c 0C37     		adds	r7, r7, #12
 3111              	.LCFI139:
 3112              		.cfi_def_cfa_offset 4
 3113 0f6e BD46     		mov	sp, r7
 3114              	.LCFI140:
 3115              		.cfi_def_cfa_register 13
 3116              		@ sp needed
 3117 0f70 80BC     		pop	{r7}
 3118              	.LCFI141:
 3119              		.cfi_restore 7
 3120              		.cfi_def_cfa_offset 0
 3121 0f72 7047     		bx	lr
 3122              	.L211:
 3123              		.align	2
 3124              	.L210:
 3125 0f74 01010100 		.word	65793
 3126              		.cfi_endproc
 3127              	.LFE52:
 3128              		.size	CAN_ClearITPendingBit, .-CAN_ClearITPendingBit
 3129              		.align	1
 3130              		.syntax unified
 3131              		.thumb
 3132              		.thumb_func
 3133              		.fpu softvfp
 3134              		.type	CheckITStatus, %function
 3135              	CheckITStatus:
 3136              	.LFB53:
1378:../../source/src/FWlib/src/stm32f10x_can.c **** 
1379:../../source/src/FWlib/src/stm32f10x_can.c **** /**
1380:../../source/src/FWlib/src/stm32f10x_can.c ****   * @brief  Checks whether the CAN interrupt has occurred or not.
1381:../../source/src/FWlib/src/stm32f10x_can.c ****   * @param  CAN_Reg: specifies the CAN interrupt register to check.
1382:../../source/src/FWlib/src/stm32f10x_can.c ****   * @param  It_Bit:  specifies the interrupt source bit to check.
1383:../../source/src/FWlib/src/stm32f10x_can.c ****   * @retval The new state of the CAN Interrupt (SET or RESET).
1384:../../source/src/FWlib/src/stm32f10x_can.c ****   */
1385:../../source/src/FWlib/src/stm32f10x_can.c **** static ITStatus CheckITStatus(uint32_t CAN_Reg, uint32_t It_Bit)
ARM GAS  G:\Users\Jaxb\AppData\Local\Temp\cc1bUhhc.s 			page 82


1386:../../source/src/FWlib/src/stm32f10x_can.c **** {
 3137              		.loc 1 1386 0
 3138              		.cfi_startproc
 3139              		@ args = 0, pretend = 0, frame = 16
 3140              		@ frame_needed = 1, uses_anonymous_args = 0
 3141              		@ link register save eliminated.
 3142 0f78 80B4     		push	{r7}
 3143              	.LCFI142:
 3144              		.cfi_def_cfa_offset 4
 3145              		.cfi_offset 7, -4
 3146 0f7a 85B0     		sub	sp, sp, #20
 3147              	.LCFI143:
 3148              		.cfi_def_cfa_offset 24
 3149 0f7c 00AF     		add	r7, sp, #0
 3150              	.LCFI144:
 3151              		.cfi_def_cfa_register 7
 3152 0f7e 7860     		str	r0, [r7, #4]
 3153 0f80 3960     		str	r1, [r7]
1387:../../source/src/FWlib/src/stm32f10x_can.c ****   ITStatus pendingbitstatus = RESET;
 3154              		.loc 1 1387 0
 3155 0f82 0023     		movs	r3, #0
 3156 0f84 FB73     		strb	r3, [r7, #15]
1388:../../source/src/FWlib/src/stm32f10x_can.c ****   
1389:../../source/src/FWlib/src/stm32f10x_can.c ****   if ((CAN_Reg & It_Bit) != (uint32_t)RESET)
 3157              		.loc 1 1389 0
 3158 0f86 7A68     		ldr	r2, [r7, #4]
 3159 0f88 3B68     		ldr	r3, [r7]
 3160 0f8a 1340     		ands	r3, r3, r2
 3161 0f8c 002B     		cmp	r3, #0
 3162 0f8e 02D0     		beq	.L213
1390:../../source/src/FWlib/src/stm32f10x_can.c ****   {
1391:../../source/src/FWlib/src/stm32f10x_can.c ****     /* CAN_IT is set */
1392:../../source/src/FWlib/src/stm32f10x_can.c ****     pendingbitstatus = SET;
 3163              		.loc 1 1392 0
 3164 0f90 0123     		movs	r3, #1
 3165 0f92 FB73     		strb	r3, [r7, #15]
 3166 0f94 01E0     		b	.L214
 3167              	.L213:
1393:../../source/src/FWlib/src/stm32f10x_can.c ****   }
1394:../../source/src/FWlib/src/stm32f10x_can.c ****   else
1395:../../source/src/FWlib/src/stm32f10x_can.c ****   {
1396:../../source/src/FWlib/src/stm32f10x_can.c ****     /* CAN_IT is reset */
1397:../../source/src/FWlib/src/stm32f10x_can.c ****     pendingbitstatus = RESET;
 3168              		.loc 1 1397 0
 3169 0f96 0023     		movs	r3, #0
 3170 0f98 FB73     		strb	r3, [r7, #15]
 3171              	.L214:
1398:../../source/src/FWlib/src/stm32f10x_can.c ****   }
1399:../../source/src/FWlib/src/stm32f10x_can.c ****   return pendingbitstatus;
 3172              		.loc 1 1399 0
 3173 0f9a FB7B     		ldrb	r3, [r7, #15]	@ zero_extendqisi2
1400:../../source/src/FWlib/src/stm32f10x_can.c **** }
 3174              		.loc 1 1400 0
 3175 0f9c 1846     		mov	r0, r3
 3176 0f9e 1437     		adds	r7, r7, #20
 3177              	.LCFI145:
 3178              		.cfi_def_cfa_offset 4
ARM GAS  G:\Users\Jaxb\AppData\Local\Temp\cc1bUhhc.s 			page 83


 3179 0fa0 BD46     		mov	sp, r7
 3180              	.LCFI146:
 3181              		.cfi_def_cfa_register 13
 3182              		@ sp needed
 3183 0fa2 80BC     		pop	{r7}
 3184              	.LCFI147:
 3185              		.cfi_restore 7
 3186              		.cfi_def_cfa_offset 0
 3187 0fa4 7047     		bx	lr
 3188              		.cfi_endproc
 3189              	.LFE53:
 3190              		.size	CheckITStatus, .-CheckITStatus
 3191              	.Letext0:
 3192              		.file 2 "f:\\arm\\gcc2018\\arm-none-eabi\\include\\machine\\_default_types.h"
 3193              		.file 3 "f:\\arm\\gcc2018\\arm-none-eabi\\include\\sys\\_stdint.h"
 3194              		.file 4 "../../source/include/core_cm3.h"
 3195              		.file 5 "../../source/include/system_stm32f10x.h"
 3196              		.file 6 "../../source/include/stm32f10x.h"
 3197              		.file 7 "../../source/src/FWlib/inc/stm32f10x_can.h"
 3198 0fa6 00BF     		.section	.debug_info,"",%progbits
 3199              	.Ldebug_info0:
 3200 0000 920C0000 		.4byte	0xc92
 3201 0004 0200     		.2byte	0x2
 3202 0006 00000000 		.4byte	.Ldebug_abbrev0
 3203 000a 04       		.byte	0x4
 3204 000b 01       		.uleb128 0x1
 3205 000c CE030000 		.4byte	.LASF130
 3206 0010 0C       		.byte	0xc
 3207 0011 4B050000 		.4byte	.LASF131
 3208 0015 49000000 		.4byte	.LASF132
 3209 0019 00000000 		.4byte	.Ltext0
 3210 001d A60F0000 		.4byte	.Letext0
 3211 0021 00000000 		.4byte	.Ldebug_line0
 3212 0025 02       		.uleb128 0x2
 3213 0026 01       		.byte	0x1
 3214 0027 06       		.byte	0x6
 3215 0028 03070000 		.4byte	.LASF0
 3216 002c 03       		.uleb128 0x3
 3217 002d 25060000 		.4byte	.LASF3
 3218 0031 02       		.byte	0x2
 3219 0032 2B       		.byte	0x2b
 3220 0033 37000000 		.4byte	0x37
 3221 0037 02       		.uleb128 0x2
 3222 0038 01       		.byte	0x1
 3223 0039 08       		.byte	0x8
 3224 003a A3060000 		.4byte	.LASF1
 3225 003e 02       		.uleb128 0x2
 3226 003f 02       		.byte	0x2
 3227 0040 05       		.byte	0x5
 3228 0041 8A050000 		.4byte	.LASF2
 3229 0045 03       		.uleb128 0x3
 3230 0046 F8010000 		.4byte	.LASF4
 3231 004a 02       		.byte	0x2
 3232 004b 39       		.byte	0x39
 3233 004c 50000000 		.4byte	0x50
 3234 0050 02       		.uleb128 0x2
 3235 0051 02       		.byte	0x2
ARM GAS  G:\Users\Jaxb\AppData\Local\Temp\cc1bUhhc.s 			page 84


 3236 0052 07       		.byte	0x7
 3237 0053 14070000 		.4byte	.LASF5
 3238 0057 02       		.uleb128 0x2
 3239 0058 04       		.byte	0x4
 3240 0059 05       		.byte	0x5
 3241 005a 94050000 		.4byte	.LASF6
 3242 005e 03       		.uleb128 0x3
 3243 005f BB060000 		.4byte	.LASF7
 3244 0063 02       		.byte	0x2
 3245 0064 4F       		.byte	0x4f
 3246 0065 69000000 		.4byte	0x69
 3247 0069 02       		.uleb128 0x2
 3248 006a 04       		.byte	0x4
 3249 006b 07       		.byte	0x7
 3250 006c 50060000 		.4byte	.LASF8
 3251 0070 02       		.uleb128 0x2
 3252 0071 08       		.byte	0x8
 3253 0072 05       		.byte	0x5
 3254 0073 AE030000 		.4byte	.LASF9
 3255 0077 02       		.uleb128 0x2
 3256 0078 08       		.byte	0x8
 3257 0079 07       		.byte	0x7
 3258 007a B7010000 		.4byte	.LASF10
 3259 007e 04       		.uleb128 0x4
 3260 007f 04       		.byte	0x4
 3261 0080 05       		.byte	0x5
 3262 0081 696E7400 		.ascii	"int\000"
 3263 0085 05       		.uleb128 0x5
 3264 0086 7E000000 		.4byte	0x7e
 3265 008a 02       		.uleb128 0x2
 3266 008b 04       		.byte	0x4
 3267 008c 07       		.byte	0x7
 3268 008d BA000000 		.4byte	.LASF11
 3269 0091 03       		.uleb128 0x3
 3270 0092 26030000 		.4byte	.LASF12
 3271 0096 03       		.byte	0x3
 3272 0097 18       		.byte	0x18
 3273 0098 2C000000 		.4byte	0x2c
 3274 009c 03       		.uleb128 0x3
 3275 009d E3040000 		.4byte	.LASF13
 3276 00a1 03       		.byte	0x3
 3277 00a2 24       		.byte	0x24
 3278 00a3 45000000 		.4byte	0x45
 3279 00a7 03       		.uleb128 0x3
 3280 00a8 41010000 		.4byte	.LASF14
 3281 00ac 03       		.byte	0x3
 3282 00ad 30       		.byte	0x30
 3283 00ae 5E000000 		.4byte	0x5e
 3284 00b2 05       		.uleb128 0x5
 3285 00b3 A7000000 		.4byte	0xa7
 3286 00b7 06       		.uleb128 0x6
 3287 00b8 B8050000 		.4byte	.LASF15
 3288 00bc 04       		.byte	0x4
 3289 00bd CE06     		.2byte	0x6ce
 3290 00bf 85000000 		.4byte	0x85
 3291 00c3 01       		.byte	0x1
 3292 00c4 01       		.byte	0x1
ARM GAS  G:\Users\Jaxb\AppData\Local\Temp\cc1bUhhc.s 			page 85


 3293 00c5 07       		.uleb128 0x7
 3294 00c6 10000000 		.4byte	.LASF16
 3295 00ca 05       		.byte	0x5
 3296 00cb 35       		.byte	0x35
 3297 00cc A7000000 		.4byte	0xa7
 3298 00d0 01       		.byte	0x1
 3299 00d1 01       		.byte	0x1
 3300 00d2 08       		.uleb128 0x8
 3301 00d3 07       		.byte	0x7
 3302 00d4 01       		.byte	0x1
 3303 00d5 37000000 		.4byte	0x37
 3304 00d9 06       		.byte	0x6
 3305 00da 0702     		.2byte	0x207
 3306 00dc ED000000 		.4byte	0xed
 3307 00e0 09       		.uleb128 0x9
 3308 00e1 E5050000 		.4byte	.LASF17
 3309 00e5 00       		.byte	0
 3310 00e6 0A       		.uleb128 0xa
 3311 00e7 53455400 		.ascii	"SET\000"
 3312 00eb 01       		.byte	0x1
 3313 00ec 00       		.byte	0
 3314 00ed 0B       		.uleb128 0xb
 3315 00ee EB000000 		.4byte	.LASF18
 3316 00f2 06       		.byte	0x6
 3317 00f3 0702     		.2byte	0x207
 3318 00f5 D2000000 		.4byte	0xd2
 3319 00f9 0B       		.uleb128 0xb
 3320 00fa 90020000 		.4byte	.LASF19
 3321 00fe 06       		.byte	0x6
 3322 00ff 0702     		.2byte	0x207
 3323 0101 D2000000 		.4byte	0xd2
 3324 0105 08       		.uleb128 0x8
 3325 0106 07       		.byte	0x7
 3326 0107 01       		.byte	0x1
 3327 0108 37000000 		.4byte	0x37
 3328 010c 06       		.byte	0x6
 3329 010d 0902     		.2byte	0x209
 3330 010f 20010000 		.4byte	0x120
 3331 0113 09       		.uleb128 0x9
 3332 0114 FA020000 		.4byte	.LASF20
 3333 0118 00       		.byte	0
 3334 0119 09       		.uleb128 0x9
 3335 011a 44060000 		.4byte	.LASF21
 3336 011e 01       		.byte	0x1
 3337 011f 00       		.byte	0
 3338 0120 0B       		.uleb128 0xb
 3339 0121 C7000000 		.4byte	.LASF22
 3340 0125 06       		.byte	0x6
 3341 0126 0902     		.2byte	0x209
 3342 0128 05010000 		.4byte	0x105
 3343 012c 0C       		.uleb128 0xc
 3344 012d 10       		.byte	0x10
 3345 012e 06       		.byte	0x6
 3346 012f 9D02     		.2byte	0x29d
 3347 0131 72010000 		.4byte	0x172
 3348 0135 0D       		.uleb128 0xd
 3349 0136 54495200 		.ascii	"TIR\000"
ARM GAS  G:\Users\Jaxb\AppData\Local\Temp\cc1bUhhc.s 			page 86


 3350 013a 06       		.byte	0x6
 3351 013b 9F02     		.2byte	0x29f
 3352 013d B2000000 		.4byte	0xb2
 3353 0141 02       		.byte	0x2
 3354 0142 23       		.byte	0x23
 3355 0143 00       		.uleb128 0
 3356 0144 0E       		.uleb128 0xe
 3357 0145 DE040000 		.4byte	.LASF23
 3358 0149 06       		.byte	0x6
 3359 014a A002     		.2byte	0x2a0
 3360 014c B2000000 		.4byte	0xb2
 3361 0150 02       		.byte	0x2
 3362 0151 23       		.byte	0x23
 3363 0152 04       		.uleb128 0x4
 3364 0153 0E       		.uleb128 0xe
 3365 0154 B5000000 		.4byte	.LASF24
 3366 0158 06       		.byte	0x6
 3367 0159 A102     		.2byte	0x2a1
 3368 015b B2000000 		.4byte	0xb2
 3369 015f 02       		.byte	0x2
 3370 0160 23       		.byte	0x23
 3371 0161 08       		.uleb128 0x8
 3372 0162 0E       		.uleb128 0xe
 3373 0163 7D060000 		.4byte	.LASF25
 3374 0167 06       		.byte	0x6
 3375 0168 A202     		.2byte	0x2a2
 3376 016a B2000000 		.4byte	0xb2
 3377 016e 02       		.byte	0x2
 3378 016f 23       		.byte	0x23
 3379 0170 0C       		.uleb128 0xc
 3380 0171 00       		.byte	0
 3381 0172 0B       		.uleb128 0xb
 3382 0173 35030000 		.4byte	.LASF26
 3383 0177 06       		.byte	0x6
 3384 0178 A302     		.2byte	0x2a3
 3385 017a 2C010000 		.4byte	0x12c
 3386 017e 0C       		.uleb128 0xc
 3387 017f 10       		.byte	0x10
 3388 0180 06       		.byte	0x6
 3389 0181 A902     		.2byte	0x2a9
 3390 0183 C4010000 		.4byte	0x1c4
 3391 0187 0D       		.uleb128 0xd
 3392 0188 52495200 		.ascii	"RIR\000"
 3393 018c 06       		.byte	0x6
 3394 018d AB02     		.2byte	0x2ab
 3395 018f B2000000 		.4byte	0xb2
 3396 0193 02       		.byte	0x2
 3397 0194 23       		.byte	0x23
 3398 0195 00       		.uleb128 0
 3399 0196 0E       		.uleb128 0xe
 3400 0197 21030000 		.4byte	.LASF27
 3401 019b 06       		.byte	0x6
 3402 019c AC02     		.2byte	0x2ac
 3403 019e B2000000 		.4byte	0xb2
 3404 01a2 02       		.byte	0x2
 3405 01a3 23       		.byte	0x23
 3406 01a4 04       		.uleb128 0x4
ARM GAS  G:\Users\Jaxb\AppData\Local\Temp\cc1bUhhc.s 			page 87


 3407 01a5 0E       		.uleb128 0xe
 3408 01a6 0F070000 		.4byte	.LASF28
 3409 01aa 06       		.byte	0x6
 3410 01ab AD02     		.2byte	0x2ad
 3411 01ad B2000000 		.4byte	0xb2
 3412 01b1 02       		.byte	0x2
 3413 01b2 23       		.byte	0x23
 3414 01b3 08       		.uleb128 0x8
 3415 01b4 0E       		.uleb128 0xe
 3416 01b5 12050000 		.4byte	.LASF29
 3417 01b9 06       		.byte	0x6
 3418 01ba AE02     		.2byte	0x2ae
 3419 01bc B2000000 		.4byte	0xb2
 3420 01c0 02       		.byte	0x2
 3421 01c1 23       		.byte	0x23
 3422 01c2 0C       		.uleb128 0xc
 3423 01c3 00       		.byte	0
 3424 01c4 0B       		.uleb128 0xb
 3425 01c5 82060000 		.4byte	.LASF30
 3426 01c9 06       		.byte	0x6
 3427 01ca AF02     		.2byte	0x2af
 3428 01cc 7E010000 		.4byte	0x17e
 3429 01d0 0C       		.uleb128 0xc
 3430 01d1 08       		.byte	0x8
 3431 01d2 06       		.byte	0x6
 3432 01d3 B502     		.2byte	0x2b5
 3433 01d5 F8010000 		.4byte	0x1f8
 3434 01d9 0D       		.uleb128 0xd
 3435 01da 46523100 		.ascii	"FR1\000"
 3436 01de 06       		.byte	0x6
 3437 01df B702     		.2byte	0x2b7
 3438 01e1 B2000000 		.4byte	0xb2
 3439 01e5 02       		.byte	0x2
 3440 01e6 23       		.byte	0x23
 3441 01e7 00       		.uleb128 0
 3442 01e8 0D       		.uleb128 0xd
 3443 01e9 46523200 		.ascii	"FR2\000"
 3444 01ed 06       		.byte	0x6
 3445 01ee B802     		.2byte	0x2b8
 3446 01f0 B2000000 		.4byte	0xb2
 3447 01f4 02       		.byte	0x2
 3448 01f5 23       		.byte	0x23
 3449 01f6 04       		.uleb128 0x4
 3450 01f7 00       		.byte	0
 3451 01f8 0B       		.uleb128 0xb
 3452 01f9 62060000 		.4byte	.LASF31
 3453 01fd 06       		.byte	0x6
 3454 01fe B902     		.2byte	0x2b9
 3455 0200 D0010000 		.4byte	0x1d0
 3456 0204 0F       		.uleb128 0xf
 3457 0205 B002     		.2byte	0x2b0
 3458 0207 06       		.byte	0x6
 3459 0208 BF02     		.2byte	0x2bf
 3460 020a 66030000 		.4byte	0x366
 3461 020e 0D       		.uleb128 0xd
 3462 020f 4D435200 		.ascii	"MCR\000"
 3463 0213 06       		.byte	0x6
ARM GAS  G:\Users\Jaxb\AppData\Local\Temp\cc1bUhhc.s 			page 88


 3464 0214 C102     		.2byte	0x2c1
 3465 0216 B2000000 		.4byte	0xb2
 3466 021a 02       		.byte	0x2
 3467 021b 23       		.byte	0x23
 3468 021c 00       		.uleb128 0
 3469 021d 0D       		.uleb128 0xd
 3470 021e 4D535200 		.ascii	"MSR\000"
 3471 0222 06       		.byte	0x6
 3472 0223 C202     		.2byte	0x2c2
 3473 0225 B2000000 		.4byte	0xb2
 3474 0229 02       		.byte	0x2
 3475 022a 23       		.byte	0x23
 3476 022b 04       		.uleb128 0x4
 3477 022c 0D       		.uleb128 0xd
 3478 022d 54535200 		.ascii	"TSR\000"
 3479 0231 06       		.byte	0x6
 3480 0232 C302     		.2byte	0x2c3
 3481 0234 B2000000 		.4byte	0xb2
 3482 0238 02       		.byte	0x2
 3483 0239 23       		.byte	0x23
 3484 023a 08       		.uleb128 0x8
 3485 023b 0E       		.uleb128 0xe
 3486 023c F8060000 		.4byte	.LASF32
 3487 0240 06       		.byte	0x6
 3488 0241 C402     		.2byte	0x2c4
 3489 0243 B2000000 		.4byte	0xb2
 3490 0247 02       		.byte	0x2
 3491 0248 23       		.byte	0x23
 3492 0249 0C       		.uleb128 0xc
 3493 024a 0E       		.uleb128 0xe
 3494 024b 30070000 		.4byte	.LASF33
 3495 024f 06       		.byte	0x6
 3496 0250 C502     		.2byte	0x2c5
 3497 0252 B2000000 		.4byte	0xb2
 3498 0256 02       		.byte	0x2
 3499 0257 23       		.byte	0x23
 3500 0258 10       		.uleb128 0x10
 3501 0259 0D       		.uleb128 0xd
 3502 025a 49455200 		.ascii	"IER\000"
 3503 025e 06       		.byte	0x6
 3504 025f C602     		.2byte	0x2c6
 3505 0261 B2000000 		.4byte	0xb2
 3506 0265 02       		.byte	0x2
 3507 0266 23       		.byte	0x23
 3508 0267 14       		.uleb128 0x14
 3509 0268 0D       		.uleb128 0xd
 3510 0269 45535200 		.ascii	"ESR\000"
 3511 026d 06       		.byte	0x6
 3512 026e C702     		.2byte	0x2c7
 3513 0270 B2000000 		.4byte	0xb2
 3514 0274 02       		.byte	0x2
 3515 0275 23       		.byte	0x23
 3516 0276 18       		.uleb128 0x18
 3517 0277 0D       		.uleb128 0xd
 3518 0278 42545200 		.ascii	"BTR\000"
 3519 027c 06       		.byte	0x6
 3520 027d C802     		.2byte	0x2c8
ARM GAS  G:\Users\Jaxb\AppData\Local\Temp\cc1bUhhc.s 			page 89


 3521 027f B2000000 		.4byte	0xb2
 3522 0283 02       		.byte	0x2
 3523 0284 23       		.byte	0x23
 3524 0285 1C       		.uleb128 0x1c
 3525 0286 0E       		.uleb128 0xe
 3526 0287 2D050000 		.4byte	.LASF34
 3527 028b 06       		.byte	0x6
 3528 028c C902     		.2byte	0x2c9
 3529 028e 66030000 		.4byte	0x366
 3530 0292 02       		.byte	0x2
 3531 0293 23       		.byte	0x23
 3532 0294 20       		.uleb128 0x20
 3533 0295 0E       		.uleb128 0xe
 3534 0296 E0000000 		.4byte	.LASF35
 3535 029a 06       		.byte	0x6
 3536 029b CA02     		.2byte	0x2ca
 3537 029d 76030000 		.4byte	0x376
 3538 02a1 03       		.byte	0x3
 3539 02a2 23       		.byte	0x23
 3540 02a3 8003     		.uleb128 0x180
 3541 02a5 0E       		.uleb128 0xe
 3542 02a6 7E030000 		.4byte	.LASF36
 3543 02aa 06       		.byte	0x6
 3544 02ab CB02     		.2byte	0x2cb
 3545 02ad 86030000 		.4byte	0x386
 3546 02b1 03       		.byte	0x3
 3547 02b2 23       		.byte	0x23
 3548 02b3 B003     		.uleb128 0x1b0
 3549 02b5 0E       		.uleb128 0xe
 3550 02b6 37050000 		.4byte	.LASF37
 3551 02ba 06       		.byte	0x6
 3552 02bb CC02     		.2byte	0x2cc
 3553 02bd 96030000 		.4byte	0x396
 3554 02c1 03       		.byte	0x3
 3555 02c2 23       		.byte	0x23
 3556 02c3 D003     		.uleb128 0x1d0
 3557 02c5 0D       		.uleb128 0xd
 3558 02c6 464D5200 		.ascii	"FMR\000"
 3559 02ca 06       		.byte	0x6
 3560 02cb CD02     		.2byte	0x2cd
 3561 02cd B2000000 		.4byte	0xb2
 3562 02d1 03       		.byte	0x3
 3563 02d2 23       		.byte	0x23
 3564 02d3 8004     		.uleb128 0x200
 3565 02d5 0E       		.uleb128 0xe
 3566 02d6 4B060000 		.4byte	.LASF38
 3567 02da 06       		.byte	0x6
 3568 02db CE02     		.2byte	0x2ce
 3569 02dd B2000000 		.4byte	0xb2
 3570 02e1 03       		.byte	0x3
 3571 02e2 23       		.byte	0x23
 3572 02e3 8404     		.uleb128 0x204
 3573 02e5 0E       		.uleb128 0xe
 3574 02e6 41050000 		.4byte	.LASF39
 3575 02ea 06       		.byte	0x6
 3576 02eb CF02     		.2byte	0x2cf
 3577 02ed A7000000 		.4byte	0xa7
ARM GAS  G:\Users\Jaxb\AppData\Local\Temp\cc1bUhhc.s 			page 90


 3578 02f1 03       		.byte	0x3
 3579 02f2 23       		.byte	0x23
 3580 02f3 8804     		.uleb128 0x208
 3581 02f5 0E       		.uleb128 0xe
 3582 02f6 21010000 		.4byte	.LASF40
 3583 02fa 06       		.byte	0x6
 3584 02fb D002     		.2byte	0x2d0
 3585 02fd B2000000 		.4byte	0xb2
 3586 0301 03       		.byte	0x3
 3587 0302 23       		.byte	0x23
 3588 0303 8C04     		.uleb128 0x20c
 3589 0305 0E       		.uleb128 0xe
 3590 0306 7F010000 		.4byte	.LASF41
 3591 030a 06       		.byte	0x6
 3592 030b D102     		.2byte	0x2d1
 3593 030d A7000000 		.4byte	0xa7
 3594 0311 03       		.byte	0x3
 3595 0312 23       		.byte	0x23
 3596 0313 9004     		.uleb128 0x210
 3597 0315 0E       		.uleb128 0xe
 3598 0316 20000000 		.4byte	.LASF42
 3599 031a 06       		.byte	0x6
 3600 031b D202     		.2byte	0x2d2
 3601 031d B2000000 		.4byte	0xb2
 3602 0321 03       		.byte	0x3
 3603 0322 23       		.byte	0x23
 3604 0323 9404     		.uleb128 0x214
 3605 0325 0E       		.uleb128 0xe
 3606 0326 76050000 		.4byte	.LASF43
 3607 032a 06       		.byte	0x6
 3608 032b D302     		.2byte	0x2d3
 3609 032d A7000000 		.4byte	0xa7
 3610 0331 03       		.byte	0x3
 3611 0332 23       		.byte	0x23
 3612 0333 9804     		.uleb128 0x218
 3613 0335 0E       		.uleb128 0xe
 3614 0336 26000000 		.4byte	.LASF44
 3615 033a 06       		.byte	0x6
 3616 033b D402     		.2byte	0x2d4
 3617 033d B2000000 		.4byte	0xb2
 3618 0341 03       		.byte	0x3
 3619 0342 23       		.byte	0x23
 3620 0343 9C04     		.uleb128 0x21c
 3621 0345 0E       		.uleb128 0xe
 3622 0346 80050000 		.4byte	.LASF45
 3623 034a 06       		.byte	0x6
 3624 034b D502     		.2byte	0x2d5
 3625 034d A6030000 		.4byte	0x3a6
 3626 0351 03       		.byte	0x3
 3627 0352 23       		.byte	0x23
 3628 0353 A004     		.uleb128 0x220
 3629 0355 0E       		.uleb128 0xe
 3630 0356 26010000 		.4byte	.LASF46
 3631 035a 06       		.byte	0x6
 3632 035b D702     		.2byte	0x2d7
 3633 035d B6030000 		.4byte	0x3b6
 3634 0361 03       		.byte	0x3
ARM GAS  G:\Users\Jaxb\AppData\Local\Temp\cc1bUhhc.s 			page 91


 3635 0362 23       		.byte	0x23
 3636 0363 C004     		.uleb128 0x240
 3637 0365 00       		.byte	0
 3638 0366 10       		.uleb128 0x10
 3639 0367 A7000000 		.4byte	0xa7
 3640 036b 76030000 		.4byte	0x376
 3641 036f 11       		.uleb128 0x11
 3642 0370 8A000000 		.4byte	0x8a
 3643 0374 57       		.byte	0x57
 3644 0375 00       		.byte	0
 3645 0376 10       		.uleb128 0x10
 3646 0377 72010000 		.4byte	0x172
 3647 037b 86030000 		.4byte	0x386
 3648 037f 11       		.uleb128 0x11
 3649 0380 8A000000 		.4byte	0x8a
 3650 0384 02       		.byte	0x2
 3651 0385 00       		.byte	0
 3652 0386 10       		.uleb128 0x10
 3653 0387 C4010000 		.4byte	0x1c4
 3654 038b 96030000 		.4byte	0x396
 3655 038f 11       		.uleb128 0x11
 3656 0390 8A000000 		.4byte	0x8a
 3657 0394 01       		.byte	0x1
 3658 0395 00       		.byte	0
 3659 0396 10       		.uleb128 0x10
 3660 0397 A7000000 		.4byte	0xa7
 3661 039b A6030000 		.4byte	0x3a6
 3662 039f 11       		.uleb128 0x11
 3663 03a0 8A000000 		.4byte	0x8a
 3664 03a4 0B       		.byte	0xb
 3665 03a5 00       		.byte	0
 3666 03a6 10       		.uleb128 0x10
 3667 03a7 A7000000 		.4byte	0xa7
 3668 03ab B6030000 		.4byte	0x3b6
 3669 03af 11       		.uleb128 0x11
 3670 03b0 8A000000 		.4byte	0x8a
 3671 03b4 07       		.byte	0x7
 3672 03b5 00       		.byte	0
 3673 03b6 10       		.uleb128 0x10
 3674 03b7 F8010000 		.4byte	0x1f8
 3675 03bb C6030000 		.4byte	0x3c6
 3676 03bf 11       		.uleb128 0x11
 3677 03c0 8A000000 		.4byte	0x8a
 3678 03c4 0D       		.byte	0xd
 3679 03c5 00       		.byte	0
 3680 03c6 0B       		.uleb128 0xb
 3681 03c7 AB040000 		.4byte	.LASF47
 3682 03cb 06       		.byte	0x6
 3683 03cc DB02     		.2byte	0x2db
 3684 03ce 04020000 		.4byte	0x204
 3685 03d2 12       		.uleb128 0x12
 3686 03d3 0C       		.byte	0xc
 3687 03d4 07       		.byte	0x7
 3688 03d5 35       		.byte	0x35
 3689 03d6 75040000 		.4byte	0x475
 3690 03da 13       		.uleb128 0x13
 3691 03db 1F050000 		.4byte	.LASF48
ARM GAS  G:\Users\Jaxb\AppData\Local\Temp\cc1bUhhc.s 			page 92


 3692 03df 07       		.byte	0x7
 3693 03e0 37       		.byte	0x37
 3694 03e1 9C000000 		.4byte	0x9c
 3695 03e5 02       		.byte	0x2
 3696 03e6 23       		.byte	0x23
 3697 03e7 00       		.uleb128 0
 3698 03e8 13       		.uleb128 0x13
 3699 03e9 03020000 		.4byte	.LASF49
 3700 03ed 07       		.byte	0x7
 3701 03ee 3A       		.byte	0x3a
 3702 03ef 91000000 		.4byte	0x91
 3703 03f3 02       		.byte	0x2
 3704 03f4 23       		.byte	0x23
 3705 03f5 02       		.uleb128 0x2
 3706 03f6 13       		.uleb128 0x13
 3707 03f7 11060000 		.4byte	.LASF50
 3708 03fb 07       		.byte	0x7
 3709 03fc 3E       		.byte	0x3e
 3710 03fd 91000000 		.4byte	0x91
 3711 0401 02       		.byte	0x2
 3712 0402 23       		.byte	0x23
 3713 0403 03       		.uleb128 0x3
 3714 0404 13       		.uleb128 0x13
 3715 0405 82040000 		.4byte	.LASF51
 3716 0409 07       		.byte	0x7
 3717 040a 44       		.byte	0x44
 3718 040b 91000000 		.4byte	0x91
 3719 040f 02       		.byte	0x2
 3720 0410 23       		.byte	0x23
 3721 0411 04       		.uleb128 0x4
 3722 0412 13       		.uleb128 0x13
 3723 0413 8A040000 		.4byte	.LASF52
 3724 0417 07       		.byte	0x7
 3725 0418 48       		.byte	0x48
 3726 0419 91000000 		.4byte	0x91
 3727 041d 02       		.byte	0x2
 3728 041e 23       		.byte	0x23
 3729 041f 05       		.uleb128 0x5
 3730 0420 13       		.uleb128 0x13
 3731 0421 02030000 		.4byte	.LASF53
 3732 0425 07       		.byte	0x7
 3733 0426 4D       		.byte	0x4d
 3734 0427 20010000 		.4byte	0x120
 3735 042b 02       		.byte	0x2
 3736 042c 23       		.byte	0x23
 3737 042d 06       		.uleb128 0x6
 3738 042e 13       		.uleb128 0x13
 3739 042f D7000000 		.4byte	.LASF54
 3740 0433 07       		.byte	0x7
 3741 0434 51       		.byte	0x51
 3742 0435 20010000 		.4byte	0x120
 3743 0439 02       		.byte	0x2
 3744 043a 23       		.byte	0x23
 3745 043b 07       		.uleb128 0x7
 3746 043c 13       		.uleb128 0x13
 3747 043d 9A060000 		.4byte	.LASF55
 3748 0441 07       		.byte	0x7
ARM GAS  G:\Users\Jaxb\AppData\Local\Temp\cc1bUhhc.s 			page 93


 3749 0442 55       		.byte	0x55
 3750 0443 20010000 		.4byte	0x120
 3751 0447 02       		.byte	0x2
 3752 0448 23       		.byte	0x23
 3753 0449 08       		.uleb128 0x8
 3754 044a 13       		.uleb128 0x13
 3755 044b F1020000 		.4byte	.LASF56
 3756 044f 07       		.byte	0x7
 3757 0450 59       		.byte	0x59
 3758 0451 20010000 		.4byte	0x120
 3759 0455 02       		.byte	0x2
 3760 0456 23       		.byte	0x23
 3761 0457 09       		.uleb128 0x9
 3762 0458 13       		.uleb128 0x13
 3763 0459 2D020000 		.4byte	.LASF57
 3764 045d 07       		.byte	0x7
 3765 045e 5D       		.byte	0x5d
 3766 045f 20010000 		.4byte	0x120
 3767 0463 02       		.byte	0x2
 3768 0464 23       		.byte	0x23
 3769 0465 0A       		.uleb128 0xa
 3770 0466 13       		.uleb128 0x13
 3771 0467 4A010000 		.4byte	.LASF58
 3772 046b 07       		.byte	0x7
 3773 046c 61       		.byte	0x61
 3774 046d 20010000 		.4byte	0x120
 3775 0471 02       		.byte	0x2
 3776 0472 23       		.byte	0x23
 3777 0473 0B       		.uleb128 0xb
 3778 0474 00       		.byte	0
 3779 0475 03       		.uleb128 0x3
 3780 0476 0C020000 		.4byte	.LASF59
 3781 047a 07       		.byte	0x7
 3782 047b 64       		.byte	0x64
 3783 047c D2030000 		.4byte	0x3d2
 3784 0480 12       		.uleb128 0x12
 3785 0481 0E       		.byte	0xe
 3786 0482 07       		.byte	0x7
 3787 0483 6A       		.byte	0x6a
 3788 0484 07050000 		.4byte	0x507
 3789 0488 13       		.uleb128 0x13
 3790 0489 54020000 		.4byte	.LASF60
 3791 048d 07       		.byte	0x7
 3792 048e 6C       		.byte	0x6c
 3793 048f 9C000000 		.4byte	0x9c
 3794 0493 02       		.byte	0x2
 3795 0494 23       		.byte	0x23
 3796 0495 00       		.uleb128 0
 3797 0496 13       		.uleb128 0x13
 3798 0497 EC040000 		.4byte	.LASF61
 3799 049b 07       		.byte	0x7
 3800 049c 70       		.byte	0x70
 3801 049d 9C000000 		.4byte	0x9c
 3802 04a1 02       		.byte	0x2
 3803 04a2 23       		.byte	0x23
 3804 04a3 02       		.uleb128 0x2
 3805 04a4 13       		.uleb128 0x13
ARM GAS  G:\Users\Jaxb\AppData\Local\Temp\cc1bUhhc.s 			page 94


 3806 04a5 A8020000 		.4byte	.LASF62
 3807 04a9 07       		.byte	0x7
 3808 04aa 74       		.byte	0x74
 3809 04ab 9C000000 		.4byte	0x9c
 3810 04af 02       		.byte	0x2
 3811 04b0 23       		.byte	0x23
 3812 04b1 04       		.uleb128 0x4
 3813 04b2 13       		.uleb128 0x13
 3814 04b3 DD020000 		.4byte	.LASF63
 3815 04b7 07       		.byte	0x7
 3816 04b8 79       		.byte	0x79
 3817 04b9 9C000000 		.4byte	0x9c
 3818 04bd 02       		.byte	0x2
 3819 04be 23       		.byte	0x23
 3820 04bf 06       		.uleb128 0x6
 3821 04c0 13       		.uleb128 0x13
 3822 04c1 92040000 		.4byte	.LASF64
 3823 04c5 07       		.byte	0x7
 3824 04c6 7E       		.byte	0x7e
 3825 04c7 9C000000 		.4byte	0x9c
 3826 04cb 02       		.byte	0x2
 3827 04cc 23       		.byte	0x23
 3828 04cd 08       		.uleb128 0x8
 3829 04ce 13       		.uleb128 0x13
 3830 04cf C6060000 		.4byte	.LASF65
 3831 04d3 07       		.byte	0x7
 3832 04d4 81       		.byte	0x81
 3833 04d5 91000000 		.4byte	0x91
 3834 04d9 02       		.byte	0x2
 3835 04da 23       		.byte	0x23
 3836 04db 0A       		.uleb128 0xa
 3837 04dc 13       		.uleb128 0x13
 3838 04dd 99020000 		.4byte	.LASF66
 3839 04e1 07       		.byte	0x7
 3840 04e2 83       		.byte	0x83
 3841 04e3 91000000 		.4byte	0x91
 3842 04e7 02       		.byte	0x2
 3843 04e8 23       		.byte	0x23
 3844 04e9 0B       		.uleb128 0xb
 3845 04ea 13       		.uleb128 0x13
 3846 04eb 9D050000 		.4byte	.LASF67
 3847 04ef 07       		.byte	0x7
 3848 04f0 86       		.byte	0x86
 3849 04f1 91000000 		.4byte	0x91
 3850 04f5 02       		.byte	0x2
 3851 04f6 23       		.byte	0x23
 3852 04f7 0C       		.uleb128 0xc
 3853 04f8 13       		.uleb128 0x13
 3854 04f9 B7040000 		.4byte	.LASF68
 3855 04fd 07       		.byte	0x7
 3856 04fe 89       		.byte	0x89
 3857 04ff 20010000 		.4byte	0x120
 3858 0503 02       		.byte	0x2
 3859 0504 23       		.byte	0x23
 3860 0505 0D       		.uleb128 0xd
 3861 0506 00       		.byte	0
 3862 0507 03       		.uleb128 0x3
ARM GAS  G:\Users\Jaxb\AppData\Local\Temp\cc1bUhhc.s 			page 95


 3863 0508 36020000 		.4byte	.LASF69
 3864 050c 07       		.byte	0x7
 3865 050d 8B       		.byte	0x8b
 3866 050e 80040000 		.4byte	0x480
 3867 0512 12       		.uleb128 0x12
 3868 0513 14       		.byte	0x14
 3869 0514 07       		.byte	0x7
 3870 0515 91       		.byte	0x91
 3871 0516 6F050000 		.4byte	0x56f
 3872 051a 13       		.uleb128 0x13
 3873 051b BC030000 		.4byte	.LASF70
 3874 051f 07       		.byte	0x7
 3875 0520 93       		.byte	0x93
 3876 0521 A7000000 		.4byte	0xa7
 3877 0525 02       		.byte	0x2
 3878 0526 23       		.byte	0x23
 3879 0527 00       		.uleb128 0
 3880 0528 13       		.uleb128 0x13
 3881 0529 34000000 		.4byte	.LASF71
 3882 052d 07       		.byte	0x7
 3883 052e 96       		.byte	0x96
 3884 052f A7000000 		.4byte	0xa7
 3885 0533 02       		.byte	0x2
 3886 0534 23       		.byte	0x23
 3887 0535 04       		.uleb128 0x4
 3888 0536 14       		.uleb128 0x14
 3889 0537 49444500 		.ascii	"IDE\000"
 3890 053b 07       		.byte	0x7
 3891 053c 99       		.byte	0x99
 3892 053d 91000000 		.4byte	0x91
 3893 0541 02       		.byte	0x2
 3894 0542 23       		.byte	0x23
 3895 0543 08       		.uleb128 0x8
 3896 0544 14       		.uleb128 0x14
 3897 0545 52545200 		.ascii	"RTR\000"
 3898 0549 07       		.byte	0x7
 3899 054a 9D       		.byte	0x9d
 3900 054b 91000000 		.4byte	0x91
 3901 054f 02       		.byte	0x2
 3902 0550 23       		.byte	0x23
 3903 0551 09       		.uleb128 0x9
 3904 0552 14       		.uleb128 0x14
 3905 0553 444C4300 		.ascii	"DLC\000"
 3906 0557 07       		.byte	0x7
 3907 0558 A1       		.byte	0xa1
 3908 0559 91000000 		.4byte	0x91
 3909 055d 02       		.byte	0x2
 3910 055e 23       		.byte	0x23
 3911 055f 0A       		.uleb128 0xa
 3912 0560 13       		.uleb128 0x13
 3913 0561 59070000 		.4byte	.LASF72
 3914 0565 07       		.byte	0x7
 3915 0566 A5       		.byte	0xa5
 3916 0567 6F050000 		.4byte	0x56f
 3917 056b 02       		.byte	0x2
 3918 056c 23       		.byte	0x23
 3919 056d 0B       		.uleb128 0xb
ARM GAS  G:\Users\Jaxb\AppData\Local\Temp\cc1bUhhc.s 			page 96


 3920 056e 00       		.byte	0
 3921 056f 10       		.uleb128 0x10
 3922 0570 91000000 		.4byte	0x91
 3923 0574 7F050000 		.4byte	0x57f
 3924 0578 11       		.uleb128 0x11
 3925 0579 8A000000 		.4byte	0x8a
 3926 057d 07       		.byte	0x7
 3927 057e 00       		.byte	0
 3928 057f 03       		.uleb128 0x3
 3929 0580 09050000 		.4byte	.LASF73
 3930 0584 07       		.byte	0x7
 3931 0585 A7       		.byte	0xa7
 3932 0586 12050000 		.4byte	0x512
 3933 058a 12       		.uleb128 0x12
 3934 058b 14       		.byte	0x14
 3935 058c 07       		.byte	0x7
 3936 058d AD       		.byte	0xad
 3937 058e F5050000 		.4byte	0x5f5
 3938 0592 13       		.uleb128 0x13
 3939 0593 BC030000 		.4byte	.LASF70
 3940 0597 07       		.byte	0x7
 3941 0598 AF       		.byte	0xaf
 3942 0599 A7000000 		.4byte	0xa7
 3943 059d 02       		.byte	0x2
 3944 059e 23       		.byte	0x23
 3945 059f 00       		.uleb128 0
 3946 05a0 13       		.uleb128 0x13
 3947 05a1 34000000 		.4byte	.LASF71
 3948 05a5 07       		.byte	0x7
 3949 05a6 B2       		.byte	0xb2
 3950 05a7 A7000000 		.4byte	0xa7
 3951 05ab 02       		.byte	0x2
 3952 05ac 23       		.byte	0x23
 3953 05ad 04       		.uleb128 0x4
 3954 05ae 14       		.uleb128 0x14
 3955 05af 49444500 		.ascii	"IDE\000"
 3956 05b3 07       		.byte	0x7
 3957 05b4 B5       		.byte	0xb5
 3958 05b5 91000000 		.4byte	0x91
 3959 05b9 02       		.byte	0x2
 3960 05ba 23       		.byte	0x23
 3961 05bb 08       		.uleb128 0x8
 3962 05bc 14       		.uleb128 0x14
 3963 05bd 52545200 		.ascii	"RTR\000"
 3964 05c1 07       		.byte	0x7
 3965 05c2 B9       		.byte	0xb9
 3966 05c3 91000000 		.4byte	0x91
 3967 05c7 02       		.byte	0x2
 3968 05c8 23       		.byte	0x23
 3969 05c9 09       		.uleb128 0x9
 3970 05ca 14       		.uleb128 0x14
 3971 05cb 444C4300 		.ascii	"DLC\000"
 3972 05cf 07       		.byte	0x7
 3973 05d0 BD       		.byte	0xbd
 3974 05d1 91000000 		.4byte	0x91
 3975 05d5 02       		.byte	0x2
 3976 05d6 23       		.byte	0x23
ARM GAS  G:\Users\Jaxb\AppData\Local\Temp\cc1bUhhc.s 			page 97


 3977 05d7 0A       		.uleb128 0xa
 3978 05d8 13       		.uleb128 0x13
 3979 05d9 59070000 		.4byte	.LASF72
 3980 05dd 07       		.byte	0x7
 3981 05de C0       		.byte	0xc0
 3982 05df 6F050000 		.4byte	0x56f
 3983 05e3 02       		.byte	0x2
 3984 05e4 23       		.byte	0x23
 3985 05e5 0B       		.uleb128 0xb
 3986 05e6 14       		.uleb128 0x14
 3987 05e7 464D4900 		.ascii	"FMI\000"
 3988 05eb 07       		.byte	0x7
 3989 05ec C3       		.byte	0xc3
 3990 05ed 91000000 		.4byte	0x91
 3991 05f1 02       		.byte	0x2
 3992 05f2 23       		.byte	0x23
 3993 05f3 13       		.uleb128 0x13
 3994 05f4 00       		.byte	0
 3995 05f5 03       		.uleb128 0x3
 3996 05f6 65020000 		.4byte	.LASF74
 3997 05fa 07       		.byte	0x7
 3998 05fb C6       		.byte	0xc6
 3999 05fc 8A050000 		.4byte	0x58a
 4000 0600 15       		.uleb128 0x15
 4001 0601 C5050000 		.4byte	.LASF133
 4002 0605 01       		.byte	0x1
 4003 0606 6905     		.2byte	0x569
 4004 0608 01       		.byte	0x1
 4005 0609 F9000000 		.4byte	0xf9
 4006 060d 780F0000 		.4byte	.LFB53
 4007 0611 A60F0000 		.4byte	.LFE53
 4008 0615 00000000 		.4byte	.LLST24
 4009 0619 01       		.byte	0x1
 4010 061a 4C060000 		.4byte	0x64c
 4011 061e 16       		.uleb128 0x16
 4012 061f F6000000 		.4byte	.LASF75
 4013 0623 01       		.byte	0x1
 4014 0624 6905     		.2byte	0x569
 4015 0626 A7000000 		.4byte	0xa7
 4016 062a 02       		.byte	0x2
 4017 062b 91       		.byte	0x91
 4018 062c 6C       		.sleb128 -20
 4019 062d 16       		.uleb128 0x16
 4020 062e 78010000 		.4byte	.LASF76
 4021 0632 01       		.byte	0x1
 4022 0633 6905     		.2byte	0x569
 4023 0635 A7000000 		.4byte	0xa7
 4024 0639 02       		.byte	0x2
 4025 063a 91       		.byte	0x91
 4026 063b 68       		.sleb128 -24
 4027 063c 17       		.uleb128 0x17
 4028 063d 1C020000 		.4byte	.LASF79
 4029 0641 01       		.byte	0x1
 4030 0642 6B05     		.2byte	0x56b
 4031 0644 F9000000 		.4byte	0xf9
 4032 0648 02       		.byte	0x2
 4033 0649 91       		.byte	0x91
ARM GAS  G:\Users\Jaxb\AppData\Local\Temp\cc1bUhhc.s 			page 98


 4034 064a 77       		.sleb128 -9
 4035 064b 00       		.byte	0
 4036 064c 18       		.uleb128 0x18
 4037 064d 01       		.byte	0x1
 4038 064e 62010000 		.4byte	.LASF81
 4039 0652 01       		.byte	0x1
 4040 0653 1A05     		.2byte	0x51a
 4041 0655 01       		.byte	0x1
 4042 0656 9C0E0000 		.4byte	.LFB52
 4043 065a 780F0000 		.4byte	.LFE52
 4044 065e 5C000000 		.4byte	.LLST23
 4045 0662 01       		.byte	0x1
 4046 0663 86060000 		.4byte	0x686
 4047 0667 16       		.uleb128 0x16
 4048 0668 A8010000 		.4byte	.LASF77
 4049 066c 01       		.byte	0x1
 4050 066d 1A05     		.2byte	0x51a
 4051 066f 86060000 		.4byte	0x686
 4052 0673 02       		.byte	0x2
 4053 0674 91       		.byte	0x91
 4054 0675 74       		.sleb128 -12
 4055 0676 16       		.uleb128 0x16
 4056 0677 52070000 		.4byte	.LASF78
 4057 067b 01       		.byte	0x1
 4058 067c 1A05     		.2byte	0x51a
 4059 067e A7000000 		.4byte	0xa7
 4060 0682 02       		.byte	0x2
 4061 0683 91       		.byte	0x91
 4062 0684 70       		.sleb128 -16
 4063 0685 00       		.byte	0
 4064 0686 19       		.uleb128 0x19
 4065 0687 04       		.byte	0x4
 4066 0688 C6030000 		.4byte	0x3c6
 4067 068c 1A       		.uleb128 0x1a
 4068 068d 01       		.byte	0x1
 4069 068e 8B030000 		.4byte	.LASF85
 4070 0692 01       		.byte	0x1
 4071 0693 B304     		.2byte	0x4b3
 4072 0695 01       		.byte	0x1
 4073 0696 F9000000 		.4byte	0xf9
 4074 069a 080D0000 		.4byte	.LFB51
 4075 069e 9C0E0000 		.4byte	.LFE51
 4076 06a2 B8000000 		.4byte	.LLST22
 4077 06a6 01       		.byte	0x1
 4078 06a7 D9060000 		.4byte	0x6d9
 4079 06ab 16       		.uleb128 0x16
 4080 06ac A8010000 		.4byte	.LASF77
 4081 06b0 01       		.byte	0x1
 4082 06b1 B304     		.2byte	0x4b3
 4083 06b3 86060000 		.4byte	0x686
 4084 06b7 02       		.byte	0x2
 4085 06b8 91       		.byte	0x91
 4086 06b9 6C       		.sleb128 -20
 4087 06ba 16       		.uleb128 0x16
 4088 06bb 52070000 		.4byte	.LASF78
 4089 06bf 01       		.byte	0x1
 4090 06c0 B304     		.2byte	0x4b3
ARM GAS  G:\Users\Jaxb\AppData\Local\Temp\cc1bUhhc.s 			page 99


 4091 06c2 A7000000 		.4byte	0xa7
 4092 06c6 02       		.byte	0x2
 4093 06c7 91       		.byte	0x91
 4094 06c8 68       		.sleb128 -24
 4095 06c9 17       		.uleb128 0x17
 4096 06ca DE010000 		.4byte	.LASF80
 4097 06ce 01       		.byte	0x1
 4098 06cf B504     		.2byte	0x4b5
 4099 06d1 F9000000 		.4byte	0xf9
 4100 06d5 02       		.byte	0x2
 4101 06d6 91       		.byte	0x91
 4102 06d7 77       		.sleb128 -9
 4103 06d8 00       		.byte	0
 4104 06d9 18       		.uleb128 0x18
 4105 06da 01       		.byte	0x1
 4106 06db EA060000 		.4byte	.LASF82
 4107 06df 01       		.byte	0x1
 4108 06e0 7704     		.2byte	0x477
 4109 06e2 01       		.byte	0x1
 4110 06e3 980C0000 		.4byte	.LFB50
 4111 06e7 080D0000 		.4byte	.LFE50
 4112 06eb 08010000 		.4byte	.LLST21
 4113 06ef 01       		.byte	0x1
 4114 06f0 22070000 		.4byte	0x722
 4115 06f4 16       		.uleb128 0x16
 4116 06f5 A8010000 		.4byte	.LASF77
 4117 06f9 01       		.byte	0x1
 4118 06fa 7704     		.2byte	0x477
 4119 06fc 86060000 		.4byte	0x686
 4120 0700 02       		.byte	0x2
 4121 0701 91       		.byte	0x91
 4122 0702 6C       		.sleb128 -20
 4123 0703 16       		.uleb128 0x16
 4124 0704 2B000000 		.4byte	.LASF83
 4125 0708 01       		.byte	0x1
 4126 0709 7704     		.2byte	0x477
 4127 070b A7000000 		.4byte	0xa7
 4128 070f 02       		.byte	0x2
 4129 0710 91       		.byte	0x91
 4130 0711 68       		.sleb128 -24
 4131 0712 17       		.uleb128 0x17
 4132 0713 17050000 		.4byte	.LASF84
 4133 0717 01       		.byte	0x1
 4134 0718 7904     		.2byte	0x479
 4135 071a A7000000 		.4byte	0xa7
 4136 071e 02       		.byte	0x2
 4137 071f 91       		.byte	0x91
 4138 0720 74       		.sleb128 -12
 4139 0721 00       		.byte	0
 4140 0722 1B       		.uleb128 0x1b
 4141 0723 01       		.byte	0x1
 4142 0724 D3050000 		.4byte	.LASF86
 4143 0728 01       		.byte	0x1
 4144 0729 1304     		.2byte	0x413
 4145 072b 01       		.byte	0x1
 4146 072c ED000000 		.4byte	0xed
 4147 0730 CC0B0000 		.4byte	.LFB49
ARM GAS  G:\Users\Jaxb\AppData\Local\Temp\cc1bUhhc.s 			page 100


 4148 0734 980C0000 		.4byte	.LFE49
 4149 0738 64010000 		.4byte	.LLST20
 4150 073c 01       		.byte	0x1
 4151 073d 6F070000 		.4byte	0x76f
 4152 0741 16       		.uleb128 0x16
 4153 0742 A8010000 		.4byte	.LASF77
 4154 0746 01       		.byte	0x1
 4155 0747 1304     		.2byte	0x413
 4156 0749 86060000 		.4byte	0x686
 4157 074d 02       		.byte	0x2
 4158 074e 91       		.byte	0x91
 4159 074f 6C       		.sleb128 -20
 4160 0750 16       		.uleb128 0x16
 4161 0751 2B000000 		.4byte	.LASF83
 4162 0755 01       		.byte	0x1
 4163 0756 1304     		.2byte	0x413
 4164 0758 A7000000 		.4byte	0xa7
 4165 075c 02       		.byte	0x2
 4166 075d 91       		.byte	0x91
 4167 075e 68       		.sleb128 -24
 4168 075f 17       		.uleb128 0x17
 4169 0760 35070000 		.4byte	.LASF87
 4170 0764 01       		.byte	0x1
 4171 0765 1504     		.2byte	0x415
 4172 0767 ED000000 		.4byte	0xed
 4173 076b 02       		.byte	0x2
 4174 076c 91       		.byte	0x91
 4175 076d 77       		.sleb128 -9
 4176 076e 00       		.byte	0
 4177 076f 18       		.uleb128 0x18
 4178 0770 01       		.byte	0x1
 4179 0771 BD020000 		.4byte	.LASF88
 4180 0775 01       		.byte	0x1
 4181 0776 EB03     		.2byte	0x3eb
 4182 0778 01       		.byte	0x1
 4183 0779 920B0000 		.4byte	.LFB48
 4184 077d CC0B0000 		.4byte	.LFE48
 4185 0781 C0010000 		.4byte	.LLST19
 4186 0785 01       		.byte	0x1
 4187 0786 B8070000 		.4byte	0x7b8
 4188 078a 16       		.uleb128 0x16
 4189 078b A8010000 		.4byte	.LASF77
 4190 078f 01       		.byte	0x1
 4191 0790 EB03     		.2byte	0x3eb
 4192 0792 86060000 		.4byte	0x686
 4193 0796 02       		.byte	0x2
 4194 0797 91       		.byte	0x91
 4195 0798 74       		.sleb128 -12
 4196 0799 16       		.uleb128 0x16
 4197 079a 52070000 		.4byte	.LASF78
 4198 079e 01       		.byte	0x1
 4199 079f EB03     		.2byte	0x3eb
 4200 07a1 A7000000 		.4byte	0xa7
 4201 07a5 02       		.byte	0x2
 4202 07a6 91       		.byte	0x91
 4203 07a7 70       		.sleb128 -16
 4204 07a8 16       		.uleb128 0x16
ARM GAS  G:\Users\Jaxb\AppData\Local\Temp\cc1bUhhc.s 			page 101


 4205 07a9 D4020000 		.4byte	.LASF89
 4206 07ad 01       		.byte	0x1
 4207 07ae EB03     		.2byte	0x3eb
 4208 07b0 20010000 		.4byte	0x120
 4209 07b4 02       		.byte	0x2
 4210 07b5 91       		.byte	0x91
 4211 07b6 6F       		.sleb128 -17
 4212 07b7 00       		.byte	0
 4213 07b8 1B       		.uleb128 0x1b
 4214 07b9 01       		.byte	0x1
 4215 07ba 89010000 		.4byte	.LASF90
 4216 07be 01       		.byte	0x1
 4217 07bf C603     		.2byte	0x3c6
 4218 07c1 01       		.byte	0x1
 4219 07c2 91000000 		.4byte	0x91
 4220 07c6 720B0000 		.4byte	.LFB47
 4221 07ca 920B0000 		.4byte	.LFE47
 4222 07ce 1C020000 		.4byte	.LLST18
 4223 07d2 01       		.byte	0x1
 4224 07d3 F6070000 		.4byte	0x7f6
 4225 07d7 16       		.uleb128 0x16
 4226 07d8 A8010000 		.4byte	.LASF77
 4227 07dc 01       		.byte	0x1
 4228 07dd C603     		.2byte	0x3c6
 4229 07df 86060000 		.4byte	0x686
 4230 07e3 02       		.byte	0x2
 4231 07e4 91       		.byte	0x91
 4232 07e5 6C       		.sleb128 -20
 4233 07e6 17       		.uleb128 0x17
 4234 07e7 4C020000 		.4byte	.LASF91
 4235 07eb 01       		.byte	0x1
 4236 07ec C803     		.2byte	0x3c8
 4237 07ee 91000000 		.4byte	0x91
 4238 07f2 02       		.byte	0x2
 4239 07f3 91       		.byte	0x91
 4240 07f4 77       		.sleb128 -9
 4241 07f5 00       		.byte	0
 4242 07f6 1B       		.uleb128 0x1b
 4243 07f7 01       		.byte	0x1
 4244 07f8 06010000 		.4byte	.LASF92
 4245 07fc 01       		.byte	0x1
 4246 07fd B203     		.2byte	0x3b2
 4247 07ff 01       		.byte	0x1
 4248 0800 91000000 		.4byte	0x91
 4249 0804 520B0000 		.4byte	.LFB46
 4250 0808 720B0000 		.4byte	.LFE46
 4251 080c 78020000 		.4byte	.LLST17
 4252 0810 01       		.byte	0x1
 4253 0811 34080000 		.4byte	0x834
 4254 0815 16       		.uleb128 0x16
 4255 0816 A8010000 		.4byte	.LASF77
 4256 081a 01       		.byte	0x1
 4257 081b B203     		.2byte	0x3b2
 4258 081d 86060000 		.4byte	0x686
 4259 0821 02       		.byte	0x2
 4260 0822 91       		.byte	0x91
 4261 0823 6C       		.sleb128 -20
ARM GAS  G:\Users\Jaxb\AppData\Local\Temp\cc1bUhhc.s 			page 102


 4262 0824 17       		.uleb128 0x17
 4263 0825 4C020000 		.4byte	.LASF91
 4264 0829 01       		.byte	0x1
 4265 082a B403     		.2byte	0x3b4
 4266 082c 91000000 		.4byte	0x91
 4267 0830 02       		.byte	0x2
 4268 0831 91       		.byte	0x91
 4269 0832 77       		.sleb128 -9
 4270 0833 00       		.byte	0
 4271 0834 1B       		.uleb128 0x1b
 4272 0835 01       		.byte	0x1
 4273 0836 6E020000 		.4byte	.LASF93
 4274 083a 01       		.byte	0x1
 4275 083b 9A03     		.2byte	0x39a
 4276 083d 01       		.byte	0x1
 4277 083e 91000000 		.4byte	0x91
 4278 0842 2E0B0000 		.4byte	.LFB45
 4279 0846 520B0000 		.4byte	.LFE45
 4280 084a D4020000 		.4byte	.LLST16
 4281 084e 01       		.byte	0x1
 4282 084f 72080000 		.4byte	0x872
 4283 0853 16       		.uleb128 0x16
 4284 0854 A8010000 		.4byte	.LASF77
 4285 0858 01       		.byte	0x1
 4286 0859 9A03     		.2byte	0x39a
 4287 085b 86060000 		.4byte	0x686
 4288 085f 02       		.byte	0x2
 4289 0860 91       		.byte	0x91
 4290 0861 6C       		.sleb128 -20
 4291 0862 17       		.uleb128 0x17
 4292 0863 AD010000 		.4byte	.LASF94
 4293 0867 01       		.byte	0x1
 4294 0868 9C03     		.2byte	0x39c
 4295 086a 91000000 		.4byte	0x91
 4296 086e 02       		.byte	0x2
 4297 086f 91       		.byte	0x91
 4298 0870 77       		.sleb128 -9
 4299 0871 00       		.byte	0
 4300 0872 1B       		.uleb128 0x1b
 4301 0873 01       		.byte	0x1
 4302 0874 5A030000 		.4byte	.LASF95
 4303 0878 01       		.byte	0x1
 4304 0879 7203     		.2byte	0x372
 4305 087b 01       		.byte	0x1
 4306 087c 91000000 		.4byte	0x91
 4307 0880 DA0A0000 		.4byte	.LFB44
 4308 0884 2E0B0000 		.4byte	.LFE44
 4309 0888 30030000 		.4byte	.LLST15
 4310 088c 01       		.byte	0x1
 4311 088d BF080000 		.4byte	0x8bf
 4312 0891 16       		.uleb128 0x16
 4313 0892 A8010000 		.4byte	.LASF77
 4314 0896 01       		.byte	0x1
 4315 0897 7203     		.2byte	0x372
 4316 0899 86060000 		.4byte	0x686
 4317 089d 02       		.byte	0x2
 4318 089e 91       		.byte	0x91
ARM GAS  G:\Users\Jaxb\AppData\Local\Temp\cc1bUhhc.s 			page 103


 4319 089f 6C       		.sleb128 -20
 4320 08a0 17       		.uleb128 0x17
 4321 08a1 EB050000 		.4byte	.LASF96
 4322 08a5 01       		.byte	0x1
 4323 08a6 7403     		.2byte	0x374
 4324 08a8 A7000000 		.4byte	0xa7
 4325 08ac 02       		.byte	0x2
 4326 08ad 91       		.byte	0x91
 4327 08ae 74       		.sleb128 -12
 4328 08af 17       		.uleb128 0x17
 4329 08b0 83020000 		.4byte	.LASF97
 4330 08b4 01       		.byte	0x1
 4331 08b5 7503     		.2byte	0x375
 4332 08b7 91000000 		.4byte	0x91
 4333 08bb 02       		.byte	0x2
 4334 08bc 91       		.byte	0x91
 4335 08bd 73       		.sleb128 -13
 4336 08be 00       		.byte	0
 4337 08bf 1B       		.uleb128 0x1b
 4338 08c0 01       		.byte	0x1
 4339 08c1 9A000000 		.4byte	.LASF98
 4340 08c5 01       		.byte	0x1
 4341 08c6 5803     		.2byte	0x358
 4342 08c8 01       		.byte	0x1
 4343 08c9 91000000 		.4byte	0x91
 4344 08cd A20A0000 		.4byte	.LFB43
 4345 08d1 DA0A0000 		.4byte	.LFE43
 4346 08d5 8C030000 		.4byte	.LLST14
 4347 08d9 01       		.byte	0x1
 4348 08da FD080000 		.4byte	0x8fd
 4349 08de 16       		.uleb128 0x16
 4350 08df A8010000 		.4byte	.LASF77
 4351 08e3 01       		.byte	0x1
 4352 08e4 5803     		.2byte	0x358
 4353 08e6 86060000 		.4byte	0x686
 4354 08ea 02       		.byte	0x2
 4355 08eb 91       		.byte	0x91
 4356 08ec 6C       		.sleb128 -20
 4357 08ed 17       		.uleb128 0x17
 4358 08ee C2030000 		.4byte	.LASF99
 4359 08f2 01       		.byte	0x1
 4360 08f3 5A03     		.2byte	0x35a
 4361 08f5 91000000 		.4byte	0x91
 4362 08f9 02       		.byte	0x2
 4363 08fa 91       		.byte	0x91
 4364 08fb 77       		.sleb128 -9
 4365 08fc 00       		.byte	0
 4366 08fd 1B       		.uleb128 0x1b
 4367 08fe 01       		.byte	0x1
 4368 08ff 65030000 		.4byte	.LASF100
 4369 0903 01       		.byte	0x1
 4370 0904 0603     		.2byte	0x306
 4371 0906 01       		.byte	0x1
 4372 0907 91000000 		.4byte	0x91
 4373 090b A8090000 		.4byte	.LFB42
 4374 090f A20A0000 		.4byte	.LFE42
 4375 0913 E8030000 		.4byte	.LLST13
ARM GAS  G:\Users\Jaxb\AppData\Local\Temp\cc1bUhhc.s 			page 104


 4376 0917 01       		.byte	0x1
 4377 0918 59090000 		.4byte	0x959
 4378 091c 16       		.uleb128 0x16
 4379 091d A8010000 		.4byte	.LASF77
 4380 0921 01       		.byte	0x1
 4381 0922 0603     		.2byte	0x306
 4382 0924 86060000 		.4byte	0x686
 4383 0928 02       		.byte	0x2
 4384 0929 91       		.byte	0x91
 4385 092a 6C       		.sleb128 -20
 4386 092b 16       		.uleb128 0x16
 4387 092c CC040000 		.4byte	.LASF101
 4388 0930 01       		.byte	0x1
 4389 0931 0603     		.2byte	0x306
 4390 0933 91000000 		.4byte	0x91
 4391 0937 02       		.byte	0x2
 4392 0938 91       		.byte	0x91
 4393 0939 6B       		.sleb128 -21
 4394 093a 17       		.uleb128 0x17
 4395 093b 2E030000 		.4byte	.LASF102
 4396 093f 01       		.byte	0x1
 4397 0940 0803     		.2byte	0x308
 4398 0942 91000000 		.4byte	0x91
 4399 0946 02       		.byte	0x2
 4400 0947 91       		.byte	0x91
 4401 0948 77       		.sleb128 -9
 4402 0949 17       		.uleb128 0x17
 4403 094a E2060000 		.4byte	.LASF103
 4404 094e 01       		.byte	0x1
 4405 094f 0B03     		.2byte	0x30b
 4406 0951 A7000000 		.4byte	0xa7
 4407 0955 02       		.byte	0x2
 4408 0956 91       		.byte	0x91
 4409 0957 70       		.sleb128 -16
 4410 0958 00       		.byte	0
 4411 0959 1B       		.uleb128 0x1b
 4412 095a 01       		.byte	0x1
 4413 095b 77000000 		.4byte	.LASF104
 4414 095f 01       		.byte	0x1
 4415 0960 E702     		.2byte	0x2e7
 4416 0962 01       		.byte	0x1
 4417 0963 91000000 		.4byte	0x91
 4418 0967 60090000 		.4byte	.LFB41
 4419 096b A8090000 		.4byte	.LFE41
 4420 096f 44040000 		.4byte	.LLST12
 4421 0973 01       		.byte	0x1
 4422 0974 A6090000 		.4byte	0x9a6
 4423 0978 16       		.uleb128 0x16
 4424 0979 A8010000 		.4byte	.LASF77
 4425 097d 01       		.byte	0x1
 4426 097e E702     		.2byte	0x2e7
 4427 0980 86060000 		.4byte	0x686
 4428 0984 02       		.byte	0x2
 4429 0985 91       		.byte	0x91
 4430 0986 6C       		.sleb128 -20
 4431 0987 16       		.uleb128 0x16
 4432 0988 36010000 		.4byte	.LASF105
ARM GAS  G:\Users\Jaxb\AppData\Local\Temp\cc1bUhhc.s 			page 105


 4433 098c 01       		.byte	0x1
 4434 098d E702     		.2byte	0x2e7
 4435 098f 91000000 		.4byte	0x91
 4436 0993 02       		.byte	0x2
 4437 0994 91       		.byte	0x91
 4438 0995 6B       		.sleb128 -21
 4439 0996 17       		.uleb128 0x17
 4440 0997 00000000 		.4byte	.LASF106
 4441 099b 01       		.byte	0x1
 4442 099c E902     		.2byte	0x2e9
 4443 099e 91000000 		.4byte	0x91
 4444 09a2 02       		.byte	0x2
 4445 09a3 91       		.byte	0x91
 4446 09a4 77       		.sleb128 -9
 4447 09a5 00       		.byte	0
 4448 09a6 18       		.uleb128 0x18
 4449 09a7 01       		.byte	0x1
 4450 09a8 CE010000 		.4byte	.LASF107
 4451 09ac 01       		.byte	0x1
 4452 09ad D002     		.2byte	0x2d0
 4453 09af 01       		.byte	0x1
 4454 09b0 2A090000 		.4byte	.LFB40
 4455 09b4 60090000 		.4byte	.LFE40
 4456 09b8 A0040000 		.4byte	.LLST11
 4457 09bc 01       		.byte	0x1
 4458 09bd E0090000 		.4byte	0x9e0
 4459 09c1 16       		.uleb128 0x16
 4460 09c2 A8010000 		.4byte	.LASF77
 4461 09c6 01       		.byte	0x1
 4462 09c7 D002     		.2byte	0x2d0
 4463 09c9 86060000 		.4byte	0x686
 4464 09cd 02       		.byte	0x2
 4465 09ce 91       		.byte	0x91
 4466 09cf 74       		.sleb128 -12
 4467 09d0 16       		.uleb128 0x16
 4468 09d1 36010000 		.4byte	.LASF105
 4469 09d5 01       		.byte	0x1
 4470 09d6 D002     		.2byte	0x2d0
 4471 09d8 91000000 		.4byte	0x91
 4472 09dc 02       		.byte	0x2
 4473 09dd 91       		.byte	0x91
 4474 09de 73       		.sleb128 -13
 4475 09df 00       		.byte	0
 4476 09e0 18       		.uleb128 0x18
 4477 09e1 01       		.byte	0x1
 4478 09e2 19060000 		.4byte	.LASF108
 4479 09e6 01       		.byte	0x1
 4480 09e7 9F02     		.2byte	0x29f
 4481 09e9 01       		.byte	0x1
 4482 09ea B0070000 		.4byte	.LFB39
 4483 09ee 2A090000 		.4byte	.LFE39
 4484 09f2 FC040000 		.4byte	.LLST10
 4485 09f6 01       		.byte	0x1
 4486 09f7 290A0000 		.4byte	0xa29
 4487 09fb 16       		.uleb128 0x16
 4488 09fc A8010000 		.4byte	.LASF77
 4489 0a00 01       		.byte	0x1
ARM GAS  G:\Users\Jaxb\AppData\Local\Temp\cc1bUhhc.s 			page 106


 4490 0a01 9F02     		.2byte	0x29f
 4491 0a03 86060000 		.4byte	0x686
 4492 0a07 02       		.byte	0x2
 4493 0a08 91       		.byte	0x91
 4494 0a09 74       		.sleb128 -12
 4495 0a0a 16       		.uleb128 0x16
 4496 0a0b 36010000 		.4byte	.LASF105
 4497 0a0f 01       		.byte	0x1
 4498 0a10 9F02     		.2byte	0x29f
 4499 0a12 91000000 		.4byte	0x91
 4500 0a16 02       		.byte	0x2
 4501 0a17 91       		.byte	0x91
 4502 0a18 73       		.sleb128 -13
 4503 0a19 16       		.uleb128 0x16
 4504 0a1a B1060000 		.4byte	.LASF109
 4505 0a1e 01       		.byte	0x1
 4506 0a1f 9F02     		.2byte	0x29f
 4507 0a21 290A0000 		.4byte	0xa29
 4508 0a25 02       		.byte	0x2
 4509 0a26 91       		.byte	0x91
 4510 0a27 6C       		.sleb128 -20
 4511 0a28 00       		.byte	0
 4512 0a29 19       		.uleb128 0x19
 4513 0a2a 04       		.byte	0x4
 4514 0a2b F5050000 		.4byte	0x5f5
 4515 0a2f 18       		.uleb128 0x18
 4516 0a30 01       		.byte	0x1
 4517 0a31 3F070000 		.4byte	.LASF110
 4518 0a35 01       		.byte	0x1
 4519 0a36 8302     		.2byte	0x283
 4520 0a38 01       		.byte	0x1
 4521 0a39 60070000 		.4byte	.LFB38
 4522 0a3d B0070000 		.4byte	.LFE38
 4523 0a41 58050000 		.4byte	.LLST9
 4524 0a45 01       		.byte	0x1
 4525 0a46 690A0000 		.4byte	0xa69
 4526 0a4a 16       		.uleb128 0x16
 4527 0a4b A8010000 		.4byte	.LASF77
 4528 0a4f 01       		.byte	0x1
 4529 0a50 8302     		.2byte	0x283
 4530 0a52 86060000 		.4byte	0x686
 4531 0a56 02       		.byte	0x2
 4532 0a57 91       		.byte	0x91
 4533 0a58 74       		.sleb128 -12
 4534 0a59 16       		.uleb128 0x16
 4535 0a5a FE000000 		.4byte	.LASF111
 4536 0a5e 01       		.byte	0x1
 4537 0a5f 8302     		.2byte	0x283
 4538 0a61 91000000 		.4byte	0x91
 4539 0a65 02       		.byte	0x2
 4540 0a66 91       		.byte	0x91
 4541 0a67 73       		.sleb128 -13
 4542 0a68 00       		.byte	0
 4543 0a69 1B       		.uleb128 0x1b
 4544 0a6a 01       		.byte	0x1
 4545 0a6b 9B030000 		.4byte	.LASF112
 4546 0a6f 01       		.byte	0x1
ARM GAS  G:\Users\Jaxb\AppData\Local\Temp\cc1bUhhc.s 			page 107


 4547 0a70 4D02     		.2byte	0x24d
 4548 0a72 01       		.byte	0x1
 4549 0a73 91000000 		.4byte	0x91
 4550 0a77 8C060000 		.4byte	.LFB37
 4551 0a7b 60070000 		.4byte	.LFE37
 4552 0a7f B4050000 		.4byte	.LLST8
 4553 0a83 01       		.byte	0x1
 4554 0a84 B60A0000 		.4byte	0xab6
 4555 0a88 16       		.uleb128 0x16
 4556 0a89 A8010000 		.4byte	.LASF77
 4557 0a8d 01       		.byte	0x1
 4558 0a8e 4D02     		.2byte	0x24d
 4559 0a90 86060000 		.4byte	0x686
 4560 0a94 02       		.byte	0x2
 4561 0a95 91       		.byte	0x91
 4562 0a96 6C       		.sleb128 -20
 4563 0a97 16       		.uleb128 0x16
 4564 0a98 8A000000 		.4byte	.LASF113
 4565 0a9c 01       		.byte	0x1
 4566 0a9d 4D02     		.2byte	0x24d
 4567 0a9f 91000000 		.4byte	0x91
 4568 0aa3 02       		.byte	0x2
 4569 0aa4 91       		.byte	0x91
 4570 0aa5 6B       		.sleb128 -21
 4571 0aa6 17       		.uleb128 0x17
 4572 0aa7 FD060000 		.4byte	.LASF114
 4573 0aab 01       		.byte	0x1
 4574 0aac 4F02     		.2byte	0x24f
 4575 0aae A7000000 		.4byte	0xa7
 4576 0ab2 02       		.byte	0x2
 4577 0ab3 91       		.byte	0x91
 4578 0ab4 74       		.sleb128 -12
 4579 0ab5 00       		.byte	0
 4580 0ab6 1B       		.uleb128 0x1b
 4581 0ab7 01       		.byte	0x1
 4582 0ab8 FC040000 		.4byte	.LASF115
 4583 0abc 01       		.byte	0x1
 4584 0abd 0302     		.2byte	0x203
 4585 0abf 01       		.byte	0x1
 4586 0ac0 91000000 		.4byte	0x91
 4587 0ac4 EC040000 		.4byte	.LFB36
 4588 0ac8 8C060000 		.4byte	.LFE36
 4589 0acc 10060000 		.4byte	.LLST7
 4590 0ad0 01       		.byte	0x1
 4591 0ad1 030B0000 		.4byte	0xb03
 4592 0ad5 16       		.uleb128 0x16
 4593 0ad6 A8010000 		.4byte	.LASF77
 4594 0ada 01       		.byte	0x1
 4595 0adb 0302     		.2byte	0x203
 4596 0add 86060000 		.4byte	0x686
 4597 0ae1 02       		.byte	0x2
 4598 0ae2 91       		.byte	0x91
 4599 0ae3 6C       		.sleb128 -20
 4600 0ae4 16       		.uleb128 0x16
 4601 0ae5 CA020000 		.4byte	.LASF116
 4602 0ae9 01       		.byte	0x1
 4603 0aea 0302     		.2byte	0x203
ARM GAS  G:\Users\Jaxb\AppData\Local\Temp\cc1bUhhc.s 			page 108


 4604 0aec 030B0000 		.4byte	0xb03
 4605 0af0 02       		.byte	0x2
 4606 0af1 91       		.byte	0x91
 4607 0af2 68       		.sleb128 -24
 4608 0af3 17       		.uleb128 0x17
 4609 0af4 E7010000 		.4byte	.LASF117
 4610 0af8 01       		.byte	0x1
 4611 0af9 0502     		.2byte	0x205
 4612 0afb 91000000 		.4byte	0x91
 4613 0aff 02       		.byte	0x2
 4614 0b00 91       		.byte	0x91
 4615 0b01 77       		.sleb128 -9
 4616 0b02 00       		.byte	0
 4617 0b03 19       		.uleb128 0x19
 4618 0b04 04       		.byte	0x4
 4619 0b05 7F050000 		.4byte	0x57f
 4620 0b09 18       		.uleb128 0x18
 4621 0b0a 01       		.byte	0x1
 4622 0b0b A4000000 		.4byte	.LASF118
 4623 0b0f 01       		.byte	0x1
 4624 0b10 E101     		.2byte	0x1e1
 4625 0b12 01       		.byte	0x1
 4626 0b13 56040000 		.4byte	.LFB35
 4627 0b17 EC040000 		.4byte	.LFE35
 4628 0b1b 6C060000 		.4byte	.LLST6
 4629 0b1f 01       		.byte	0x1
 4630 0b20 430B0000 		.4byte	0xb43
 4631 0b24 16       		.uleb128 0x16
 4632 0b25 A8010000 		.4byte	.LASF77
 4633 0b29 01       		.byte	0x1
 4634 0b2a E101     		.2byte	0x1e1
 4635 0b2c 86060000 		.4byte	0x686
 4636 0b30 02       		.byte	0x2
 4637 0b31 91       		.byte	0x91
 4638 0b32 74       		.sleb128 -12
 4639 0b33 16       		.uleb128 0x16
 4640 0b34 D4020000 		.4byte	.LASF89
 4641 0b38 01       		.byte	0x1
 4642 0b39 E101     		.2byte	0x1e1
 4643 0b3b 20010000 		.4byte	0x120
 4644 0b3f 02       		.byte	0x2
 4645 0b40 91       		.byte	0x91
 4646 0b41 73       		.sleb128 -13
 4647 0b42 00       		.byte	0
 4648 0b43 18       		.uleb128 0x18
 4649 0b44 01       		.byte	0x1
 4650 0b45 74040000 		.4byte	.LASF119
 4651 0b49 01       		.byte	0x1
 4652 0b4a C301     		.2byte	0x1c3
 4653 0b4c 01       		.byte	0x1
 4654 0b4d 20040000 		.4byte	.LFB34
 4655 0b51 56040000 		.4byte	.LFE34
 4656 0b55 C8060000 		.4byte	.LLST5
 4657 0b59 01       		.byte	0x1
 4658 0b5a 7D0B0000 		.4byte	0xb7d
 4659 0b5e 16       		.uleb128 0x16
 4660 0b5f A8010000 		.4byte	.LASF77
ARM GAS  G:\Users\Jaxb\AppData\Local\Temp\cc1bUhhc.s 			page 109


 4661 0b63 01       		.byte	0x1
 4662 0b64 C301     		.2byte	0x1c3
 4663 0b66 86060000 		.4byte	0x686
 4664 0b6a 02       		.byte	0x2
 4665 0b6b 91       		.byte	0x91
 4666 0b6c 74       		.sleb128 -12
 4667 0b6d 16       		.uleb128 0x16
 4668 0b6e D4020000 		.4byte	.LASF89
 4669 0b72 01       		.byte	0x1
 4670 0b73 C301     		.2byte	0x1c3
 4671 0b75 20010000 		.4byte	0x120
 4672 0b79 02       		.byte	0x2
 4673 0b7a 91       		.byte	0x91
 4674 0b7b 73       		.sleb128 -13
 4675 0b7c 00       		.byte	0
 4676 0b7d 18       		.uleb128 0x18
 4677 0b7e 01       		.byte	0x1
 4678 0b7f FE050000 		.4byte	.LASF120
 4679 0b83 01       		.byte	0x1
 4680 0b84 AC01     		.2byte	0x1ac
 4681 0b86 01       		.byte	0x1
 4682 0b87 C0030000 		.4byte	.LFB33
 4683 0b8b 20040000 		.4byte	.LFE33
 4684 0b8f 24070000 		.4byte	.LLST4
 4685 0b93 01       		.byte	0x1
 4686 0b94 A80B0000 		.4byte	0xba8
 4687 0b98 16       		.uleb128 0x16
 4688 0b99 53010000 		.4byte	.LASF121
 4689 0b9d 01       		.byte	0x1
 4690 0b9e AC01     		.2byte	0x1ac
 4691 0ba0 91000000 		.4byte	0x91
 4692 0ba4 02       		.byte	0x2
 4693 0ba5 91       		.byte	0x91
 4694 0ba6 77       		.sleb128 -9
 4695 0ba7 00       		.byte	0
 4696 0ba8 18       		.uleb128 0x18
 4697 0ba9 01       		.byte	0x1
 4698 0baa 3A000000 		.4byte	.LASF122
 4699 0bae 01       		.byte	0x1
 4700 0baf 8001     		.2byte	0x180
 4701 0bb1 01       		.byte	0x1
 4702 0bb2 6C030000 		.4byte	.LFB32
 4703 0bb6 C0030000 		.4byte	.LFE32
 4704 0bba 80070000 		.4byte	.LLST3
 4705 0bbe 01       		.byte	0x1
 4706 0bbf D30B0000 		.4byte	0xbd3
 4707 0bc3 16       		.uleb128 0x16
 4708 0bc4 4B030000 		.4byte	.LASF123
 4709 0bc8 01       		.byte	0x1
 4710 0bc9 8001     		.2byte	0x180
 4711 0bcb D30B0000 		.4byte	0xbd3
 4712 0bcf 02       		.byte	0x2
 4713 0bd0 91       		.byte	0x91
 4714 0bd1 74       		.sleb128 -12
 4715 0bd2 00       		.byte	0
 4716 0bd3 19       		.uleb128 0x19
 4717 0bd4 04       		.byte	0x4
ARM GAS  G:\Users\Jaxb\AppData\Local\Temp\cc1bUhhc.s 			page 110


 4718 0bd5 75040000 		.4byte	0x475
 4719 0bd9 18       		.uleb128 0x18
 4720 0bda 01       		.byte	0x1
 4721 0bdb 5E070000 		.4byte	.LASF124
 4722 0bdf 01       		.byte	0x1
 4723 0be0 2401     		.2byte	0x124
 4724 0be2 01       		.byte	0x1
 4725 0be3 E8010000 		.4byte	.LFB31
 4726 0be7 6C030000 		.4byte	.LFE31
 4727 0beb DC070000 		.4byte	.LLST2
 4728 0bef 01       		.byte	0x1
 4729 0bf0 130C0000 		.4byte	0xc13
 4730 0bf4 16       		.uleb128 0x16
 4731 0bf5 2F060000 		.4byte	.LASF125
 4732 0bf9 01       		.byte	0x1
 4733 0bfa 2401     		.2byte	0x124
 4734 0bfc 130C0000 		.4byte	0xc13
 4735 0c00 02       		.byte	0x2
 4736 0c01 91       		.byte	0x91
 4737 0c02 6C       		.sleb128 -20
 4738 0c03 17       		.uleb128 0x17
 4739 0c04 0B030000 		.4byte	.LASF126
 4740 0c08 01       		.byte	0x1
 4741 0c09 2601     		.2byte	0x126
 4742 0c0b A7000000 		.4byte	0xa7
 4743 0c0f 02       		.byte	0x2
 4744 0c10 91       		.byte	0x91
 4745 0c11 74       		.sleb128 -12
 4746 0c12 00       		.byte	0
 4747 0c13 19       		.uleb128 0x19
 4748 0c14 04       		.byte	0x4
 4749 0c15 07050000 		.4byte	0x507
 4750 0c19 1C       		.uleb128 0x1c
 4751 0c1a 01       		.byte	0x1
 4752 0c1b 27070000 		.4byte	.LASF127
 4753 0c1f 01       		.byte	0x1
 4754 0c20 9A       		.byte	0x9a
 4755 0c21 01       		.byte	0x1
 4756 0c22 91000000 		.4byte	0x91
 4757 0c26 48000000 		.4byte	.LFB30
 4758 0c2a E8010000 		.4byte	.LFE30
 4759 0c2e 38080000 		.4byte	.LLST1
 4760 0c32 01       		.byte	0x1
 4761 0c33 700C0000 		.4byte	0xc70
 4762 0c37 1D       		.uleb128 0x1d
 4763 0c38 A8010000 		.4byte	.LASF77
 4764 0c3c 01       		.byte	0x1
 4765 0c3d 9A       		.byte	0x9a
 4766 0c3e 86060000 		.4byte	0x686
 4767 0c42 02       		.byte	0x2
 4768 0c43 91       		.byte	0x91
 4769 0c44 6C       		.sleb128 -20
 4770 0c45 1D       		.uleb128 0x1d
 4771 0c46 4B030000 		.4byte	.LASF123
 4772 0c4a 01       		.byte	0x1
 4773 0c4b 9A       		.byte	0x9a
 4774 0c4c D30B0000 		.4byte	0xbd3
ARM GAS  G:\Users\Jaxb\AppData\Local\Temp\cc1bUhhc.s 			page 111


 4775 0c50 02       		.byte	0x2
 4776 0c51 91       		.byte	0x91
 4777 0c52 68       		.sleb128 -24
 4778 0c53 1E       		.uleb128 0x1e
 4779 0c54 AD050000 		.4byte	.LASF128
 4780 0c58 01       		.byte	0x1
 4781 0c59 9C       		.byte	0x9c
 4782 0c5a 91000000 		.4byte	0x91
 4783 0c5e 02       		.byte	0x2
 4784 0c5f 91       		.byte	0x91
 4785 0c60 77       		.sleb128 -9
 4786 0c61 1E       		.uleb128 0x1e
 4787 0c62 F5050000 		.4byte	.LASF129
 4788 0c66 01       		.byte	0x1
 4789 0c67 9D       		.byte	0x9d
 4790 0c68 A7000000 		.4byte	0xa7
 4791 0c6c 02       		.byte	0x2
 4792 0c6d 91       		.byte	0x91
 4793 0c6e 70       		.sleb128 -16
 4794 0c6f 00       		.byte	0
 4795 0c70 1F       		.uleb128 0x1f
 4796 0c71 01       		.byte	0x1
 4797 0c72 D7060000 		.4byte	.LASF134
 4798 0c76 01       		.byte	0x1
 4799 0c77 7A       		.byte	0x7a
 4800 0c78 01       		.byte	0x1
 4801 0c79 00000000 		.4byte	.LFB29
 4802 0c7d 48000000 		.4byte	.LFE29
 4803 0c81 94080000 		.4byte	.LLST0
 4804 0c85 01       		.byte	0x1
 4805 0c86 1D       		.uleb128 0x1d
 4806 0c87 A8010000 		.4byte	.LASF77
 4807 0c8b 01       		.byte	0x1
 4808 0c8c 7A       		.byte	0x7a
 4809 0c8d 86060000 		.4byte	0x686
 4810 0c91 02       		.byte	0x2
 4811 0c92 91       		.byte	0x91
 4812 0c93 74       		.sleb128 -12
 4813 0c94 00       		.byte	0
 4814 0c95 00       		.byte	0
 4815              		.section	.debug_abbrev,"",%progbits
 4816              	.Ldebug_abbrev0:
 4817 0000 01       		.uleb128 0x1
 4818 0001 11       		.uleb128 0x11
 4819 0002 01       		.byte	0x1
 4820 0003 25       		.uleb128 0x25
 4821 0004 0E       		.uleb128 0xe
 4822 0005 13       		.uleb128 0x13
 4823 0006 0B       		.uleb128 0xb
 4824 0007 03       		.uleb128 0x3
 4825 0008 0E       		.uleb128 0xe
 4826 0009 1B       		.uleb128 0x1b
 4827 000a 0E       		.uleb128 0xe
 4828 000b 11       		.uleb128 0x11
 4829 000c 01       		.uleb128 0x1
 4830 000d 12       		.uleb128 0x12
 4831 000e 01       		.uleb128 0x1
ARM GAS  G:\Users\Jaxb\AppData\Local\Temp\cc1bUhhc.s 			page 112


 4832 000f 10       		.uleb128 0x10
 4833 0010 06       		.uleb128 0x6
 4834 0011 00       		.byte	0
 4835 0012 00       		.byte	0
 4836 0013 02       		.uleb128 0x2
 4837 0014 24       		.uleb128 0x24
 4838 0015 00       		.byte	0
 4839 0016 0B       		.uleb128 0xb
 4840 0017 0B       		.uleb128 0xb
 4841 0018 3E       		.uleb128 0x3e
 4842 0019 0B       		.uleb128 0xb
 4843 001a 03       		.uleb128 0x3
 4844 001b 0E       		.uleb128 0xe
 4845 001c 00       		.byte	0
 4846 001d 00       		.byte	0
 4847 001e 03       		.uleb128 0x3
 4848 001f 16       		.uleb128 0x16
 4849 0020 00       		.byte	0
 4850 0021 03       		.uleb128 0x3
 4851 0022 0E       		.uleb128 0xe
 4852 0023 3A       		.uleb128 0x3a
 4853 0024 0B       		.uleb128 0xb
 4854 0025 3B       		.uleb128 0x3b
 4855 0026 0B       		.uleb128 0xb
 4856 0027 49       		.uleb128 0x49
 4857 0028 13       		.uleb128 0x13
 4858 0029 00       		.byte	0
 4859 002a 00       		.byte	0
 4860 002b 04       		.uleb128 0x4
 4861 002c 24       		.uleb128 0x24
 4862 002d 00       		.byte	0
 4863 002e 0B       		.uleb128 0xb
 4864 002f 0B       		.uleb128 0xb
 4865 0030 3E       		.uleb128 0x3e
 4866 0031 0B       		.uleb128 0xb
 4867 0032 03       		.uleb128 0x3
 4868 0033 08       		.uleb128 0x8
 4869 0034 00       		.byte	0
 4870 0035 00       		.byte	0
 4871 0036 05       		.uleb128 0x5
 4872 0037 35       		.uleb128 0x35
 4873 0038 00       		.byte	0
 4874 0039 49       		.uleb128 0x49
 4875 003a 13       		.uleb128 0x13
 4876 003b 00       		.byte	0
 4877 003c 00       		.byte	0
 4878 003d 06       		.uleb128 0x6
 4879 003e 34       		.uleb128 0x34
 4880 003f 00       		.byte	0
 4881 0040 03       		.uleb128 0x3
 4882 0041 0E       		.uleb128 0xe
 4883 0042 3A       		.uleb128 0x3a
 4884 0043 0B       		.uleb128 0xb
 4885 0044 3B       		.uleb128 0x3b
 4886 0045 05       		.uleb128 0x5
 4887 0046 49       		.uleb128 0x49
 4888 0047 13       		.uleb128 0x13
ARM GAS  G:\Users\Jaxb\AppData\Local\Temp\cc1bUhhc.s 			page 113


 4889 0048 3F       		.uleb128 0x3f
 4890 0049 0C       		.uleb128 0xc
 4891 004a 3C       		.uleb128 0x3c
 4892 004b 0C       		.uleb128 0xc
 4893 004c 00       		.byte	0
 4894 004d 00       		.byte	0
 4895 004e 07       		.uleb128 0x7
 4896 004f 34       		.uleb128 0x34
 4897 0050 00       		.byte	0
 4898 0051 03       		.uleb128 0x3
 4899 0052 0E       		.uleb128 0xe
 4900 0053 3A       		.uleb128 0x3a
 4901 0054 0B       		.uleb128 0xb
 4902 0055 3B       		.uleb128 0x3b
 4903 0056 0B       		.uleb128 0xb
 4904 0057 49       		.uleb128 0x49
 4905 0058 13       		.uleb128 0x13
 4906 0059 3F       		.uleb128 0x3f
 4907 005a 0C       		.uleb128 0xc
 4908 005b 3C       		.uleb128 0x3c
 4909 005c 0C       		.uleb128 0xc
 4910 005d 00       		.byte	0
 4911 005e 00       		.byte	0
 4912 005f 08       		.uleb128 0x8
 4913 0060 04       		.uleb128 0x4
 4914 0061 01       		.byte	0x1
 4915 0062 3E       		.uleb128 0x3e
 4916 0063 0B       		.uleb128 0xb
 4917 0064 0B       		.uleb128 0xb
 4918 0065 0B       		.uleb128 0xb
 4919 0066 49       		.uleb128 0x49
 4920 0067 13       		.uleb128 0x13
 4921 0068 3A       		.uleb128 0x3a
 4922 0069 0B       		.uleb128 0xb
 4923 006a 3B       		.uleb128 0x3b
 4924 006b 05       		.uleb128 0x5
 4925 006c 01       		.uleb128 0x1
 4926 006d 13       		.uleb128 0x13
 4927 006e 00       		.byte	0
 4928 006f 00       		.byte	0
 4929 0070 09       		.uleb128 0x9
 4930 0071 28       		.uleb128 0x28
 4931 0072 00       		.byte	0
 4932 0073 03       		.uleb128 0x3
 4933 0074 0E       		.uleb128 0xe
 4934 0075 1C       		.uleb128 0x1c
 4935 0076 0B       		.uleb128 0xb
 4936 0077 00       		.byte	0
 4937 0078 00       		.byte	0
 4938 0079 0A       		.uleb128 0xa
 4939 007a 28       		.uleb128 0x28
 4940 007b 00       		.byte	0
 4941 007c 03       		.uleb128 0x3
 4942 007d 08       		.uleb128 0x8
 4943 007e 1C       		.uleb128 0x1c
 4944 007f 0B       		.uleb128 0xb
 4945 0080 00       		.byte	0
ARM GAS  G:\Users\Jaxb\AppData\Local\Temp\cc1bUhhc.s 			page 114


 4946 0081 00       		.byte	0
 4947 0082 0B       		.uleb128 0xb
 4948 0083 16       		.uleb128 0x16
 4949 0084 00       		.byte	0
 4950 0085 03       		.uleb128 0x3
 4951 0086 0E       		.uleb128 0xe
 4952 0087 3A       		.uleb128 0x3a
 4953 0088 0B       		.uleb128 0xb
 4954 0089 3B       		.uleb128 0x3b
 4955 008a 05       		.uleb128 0x5
 4956 008b 49       		.uleb128 0x49
 4957 008c 13       		.uleb128 0x13
 4958 008d 00       		.byte	0
 4959 008e 00       		.byte	0
 4960 008f 0C       		.uleb128 0xc
 4961 0090 13       		.uleb128 0x13
 4962 0091 01       		.byte	0x1
 4963 0092 0B       		.uleb128 0xb
 4964 0093 0B       		.uleb128 0xb
 4965 0094 3A       		.uleb128 0x3a
 4966 0095 0B       		.uleb128 0xb
 4967 0096 3B       		.uleb128 0x3b
 4968 0097 05       		.uleb128 0x5
 4969 0098 01       		.uleb128 0x1
 4970 0099 13       		.uleb128 0x13
 4971 009a 00       		.byte	0
 4972 009b 00       		.byte	0
 4973 009c 0D       		.uleb128 0xd
 4974 009d 0D       		.uleb128 0xd
 4975 009e 00       		.byte	0
 4976 009f 03       		.uleb128 0x3
 4977 00a0 08       		.uleb128 0x8
 4978 00a1 3A       		.uleb128 0x3a
 4979 00a2 0B       		.uleb128 0xb
 4980 00a3 3B       		.uleb128 0x3b
 4981 00a4 05       		.uleb128 0x5
 4982 00a5 49       		.uleb128 0x49
 4983 00a6 13       		.uleb128 0x13
 4984 00a7 38       		.uleb128 0x38
 4985 00a8 0A       		.uleb128 0xa
 4986 00a9 00       		.byte	0
 4987 00aa 00       		.byte	0
 4988 00ab 0E       		.uleb128 0xe
 4989 00ac 0D       		.uleb128 0xd
 4990 00ad 00       		.byte	0
 4991 00ae 03       		.uleb128 0x3
 4992 00af 0E       		.uleb128 0xe
 4993 00b0 3A       		.uleb128 0x3a
 4994 00b1 0B       		.uleb128 0xb
 4995 00b2 3B       		.uleb128 0x3b
 4996 00b3 05       		.uleb128 0x5
 4997 00b4 49       		.uleb128 0x49
 4998 00b5 13       		.uleb128 0x13
 4999 00b6 38       		.uleb128 0x38
 5000 00b7 0A       		.uleb128 0xa
 5001 00b8 00       		.byte	0
 5002 00b9 00       		.byte	0
ARM GAS  G:\Users\Jaxb\AppData\Local\Temp\cc1bUhhc.s 			page 115


 5003 00ba 0F       		.uleb128 0xf
 5004 00bb 13       		.uleb128 0x13
 5005 00bc 01       		.byte	0x1
 5006 00bd 0B       		.uleb128 0xb
 5007 00be 05       		.uleb128 0x5
 5008 00bf 3A       		.uleb128 0x3a
 5009 00c0 0B       		.uleb128 0xb
 5010 00c1 3B       		.uleb128 0x3b
 5011 00c2 05       		.uleb128 0x5
 5012 00c3 01       		.uleb128 0x1
 5013 00c4 13       		.uleb128 0x13
 5014 00c5 00       		.byte	0
 5015 00c6 00       		.byte	0
 5016 00c7 10       		.uleb128 0x10
 5017 00c8 01       		.uleb128 0x1
 5018 00c9 01       		.byte	0x1
 5019 00ca 49       		.uleb128 0x49
 5020 00cb 13       		.uleb128 0x13
 5021 00cc 01       		.uleb128 0x1
 5022 00cd 13       		.uleb128 0x13
 5023 00ce 00       		.byte	0
 5024 00cf 00       		.byte	0
 5025 00d0 11       		.uleb128 0x11
 5026 00d1 21       		.uleb128 0x21
 5027 00d2 00       		.byte	0
 5028 00d3 49       		.uleb128 0x49
 5029 00d4 13       		.uleb128 0x13
 5030 00d5 2F       		.uleb128 0x2f
 5031 00d6 0B       		.uleb128 0xb
 5032 00d7 00       		.byte	0
 5033 00d8 00       		.byte	0
 5034 00d9 12       		.uleb128 0x12
 5035 00da 13       		.uleb128 0x13
 5036 00db 01       		.byte	0x1
 5037 00dc 0B       		.uleb128 0xb
 5038 00dd 0B       		.uleb128 0xb
 5039 00de 3A       		.uleb128 0x3a
 5040 00df 0B       		.uleb128 0xb
 5041 00e0 3B       		.uleb128 0x3b
 5042 00e1 0B       		.uleb128 0xb
 5043 00e2 01       		.uleb128 0x1
 5044 00e3 13       		.uleb128 0x13
 5045 00e4 00       		.byte	0
 5046 00e5 00       		.byte	0
 5047 00e6 13       		.uleb128 0x13
 5048 00e7 0D       		.uleb128 0xd
 5049 00e8 00       		.byte	0
 5050 00e9 03       		.uleb128 0x3
 5051 00ea 0E       		.uleb128 0xe
 5052 00eb 3A       		.uleb128 0x3a
 5053 00ec 0B       		.uleb128 0xb
 5054 00ed 3B       		.uleb128 0x3b
 5055 00ee 0B       		.uleb128 0xb
 5056 00ef 49       		.uleb128 0x49
 5057 00f0 13       		.uleb128 0x13
 5058 00f1 38       		.uleb128 0x38
 5059 00f2 0A       		.uleb128 0xa
ARM GAS  G:\Users\Jaxb\AppData\Local\Temp\cc1bUhhc.s 			page 116


 5060 00f3 00       		.byte	0
 5061 00f4 00       		.byte	0
 5062 00f5 14       		.uleb128 0x14
 5063 00f6 0D       		.uleb128 0xd
 5064 00f7 00       		.byte	0
 5065 00f8 03       		.uleb128 0x3
 5066 00f9 08       		.uleb128 0x8
 5067 00fa 3A       		.uleb128 0x3a
 5068 00fb 0B       		.uleb128 0xb
 5069 00fc 3B       		.uleb128 0x3b
 5070 00fd 0B       		.uleb128 0xb
 5071 00fe 49       		.uleb128 0x49
 5072 00ff 13       		.uleb128 0x13
 5073 0100 38       		.uleb128 0x38
 5074 0101 0A       		.uleb128 0xa
 5075 0102 00       		.byte	0
 5076 0103 00       		.byte	0
 5077 0104 15       		.uleb128 0x15
 5078 0105 2E       		.uleb128 0x2e
 5079 0106 01       		.byte	0x1
 5080 0107 03       		.uleb128 0x3
 5081 0108 0E       		.uleb128 0xe
 5082 0109 3A       		.uleb128 0x3a
 5083 010a 0B       		.uleb128 0xb
 5084 010b 3B       		.uleb128 0x3b
 5085 010c 05       		.uleb128 0x5
 5086 010d 27       		.uleb128 0x27
 5087 010e 0C       		.uleb128 0xc
 5088 010f 49       		.uleb128 0x49
 5089 0110 13       		.uleb128 0x13
 5090 0111 11       		.uleb128 0x11
 5091 0112 01       		.uleb128 0x1
 5092 0113 12       		.uleb128 0x12
 5093 0114 01       		.uleb128 0x1
 5094 0115 40       		.uleb128 0x40
 5095 0116 06       		.uleb128 0x6
 5096 0117 9742     		.uleb128 0x2117
 5097 0119 0C       		.uleb128 0xc
 5098 011a 01       		.uleb128 0x1
 5099 011b 13       		.uleb128 0x13
 5100 011c 00       		.byte	0
 5101 011d 00       		.byte	0
 5102 011e 16       		.uleb128 0x16
 5103 011f 05       		.uleb128 0x5
 5104 0120 00       		.byte	0
 5105 0121 03       		.uleb128 0x3
 5106 0122 0E       		.uleb128 0xe
 5107 0123 3A       		.uleb128 0x3a
 5108 0124 0B       		.uleb128 0xb
 5109 0125 3B       		.uleb128 0x3b
 5110 0126 05       		.uleb128 0x5
 5111 0127 49       		.uleb128 0x49
 5112 0128 13       		.uleb128 0x13
 5113 0129 02       		.uleb128 0x2
 5114 012a 0A       		.uleb128 0xa
 5115 012b 00       		.byte	0
 5116 012c 00       		.byte	0
ARM GAS  G:\Users\Jaxb\AppData\Local\Temp\cc1bUhhc.s 			page 117


 5117 012d 17       		.uleb128 0x17
 5118 012e 34       		.uleb128 0x34
 5119 012f 00       		.byte	0
 5120 0130 03       		.uleb128 0x3
 5121 0131 0E       		.uleb128 0xe
 5122 0132 3A       		.uleb128 0x3a
 5123 0133 0B       		.uleb128 0xb
 5124 0134 3B       		.uleb128 0x3b
 5125 0135 05       		.uleb128 0x5
 5126 0136 49       		.uleb128 0x49
 5127 0137 13       		.uleb128 0x13
 5128 0138 02       		.uleb128 0x2
 5129 0139 0A       		.uleb128 0xa
 5130 013a 00       		.byte	0
 5131 013b 00       		.byte	0
 5132 013c 18       		.uleb128 0x18
 5133 013d 2E       		.uleb128 0x2e
 5134 013e 01       		.byte	0x1
 5135 013f 3F       		.uleb128 0x3f
 5136 0140 0C       		.uleb128 0xc
 5137 0141 03       		.uleb128 0x3
 5138 0142 0E       		.uleb128 0xe
 5139 0143 3A       		.uleb128 0x3a
 5140 0144 0B       		.uleb128 0xb
 5141 0145 3B       		.uleb128 0x3b
 5142 0146 05       		.uleb128 0x5
 5143 0147 27       		.uleb128 0x27
 5144 0148 0C       		.uleb128 0xc
 5145 0149 11       		.uleb128 0x11
 5146 014a 01       		.uleb128 0x1
 5147 014b 12       		.uleb128 0x12
 5148 014c 01       		.uleb128 0x1
 5149 014d 40       		.uleb128 0x40
 5150 014e 06       		.uleb128 0x6
 5151 014f 9742     		.uleb128 0x2117
 5152 0151 0C       		.uleb128 0xc
 5153 0152 01       		.uleb128 0x1
 5154 0153 13       		.uleb128 0x13
 5155 0154 00       		.byte	0
 5156 0155 00       		.byte	0
 5157 0156 19       		.uleb128 0x19
 5158 0157 0F       		.uleb128 0xf
 5159 0158 00       		.byte	0
 5160 0159 0B       		.uleb128 0xb
 5161 015a 0B       		.uleb128 0xb
 5162 015b 49       		.uleb128 0x49
 5163 015c 13       		.uleb128 0x13
 5164 015d 00       		.byte	0
 5165 015e 00       		.byte	0
 5166 015f 1A       		.uleb128 0x1a
 5167 0160 2E       		.uleb128 0x2e
 5168 0161 01       		.byte	0x1
 5169 0162 3F       		.uleb128 0x3f
 5170 0163 0C       		.uleb128 0xc
 5171 0164 03       		.uleb128 0x3
 5172 0165 0E       		.uleb128 0xe
 5173 0166 3A       		.uleb128 0x3a
ARM GAS  G:\Users\Jaxb\AppData\Local\Temp\cc1bUhhc.s 			page 118


 5174 0167 0B       		.uleb128 0xb
 5175 0168 3B       		.uleb128 0x3b
 5176 0169 05       		.uleb128 0x5
 5177 016a 27       		.uleb128 0x27
 5178 016b 0C       		.uleb128 0xc
 5179 016c 49       		.uleb128 0x49
 5180 016d 13       		.uleb128 0x13
 5181 016e 11       		.uleb128 0x11
 5182 016f 01       		.uleb128 0x1
 5183 0170 12       		.uleb128 0x12
 5184 0171 01       		.uleb128 0x1
 5185 0172 40       		.uleb128 0x40
 5186 0173 06       		.uleb128 0x6
 5187 0174 9642     		.uleb128 0x2116
 5188 0176 0C       		.uleb128 0xc
 5189 0177 01       		.uleb128 0x1
 5190 0178 13       		.uleb128 0x13
 5191 0179 00       		.byte	0
 5192 017a 00       		.byte	0
 5193 017b 1B       		.uleb128 0x1b
 5194 017c 2E       		.uleb128 0x2e
 5195 017d 01       		.byte	0x1
 5196 017e 3F       		.uleb128 0x3f
 5197 017f 0C       		.uleb128 0xc
 5198 0180 03       		.uleb128 0x3
 5199 0181 0E       		.uleb128 0xe
 5200 0182 3A       		.uleb128 0x3a
 5201 0183 0B       		.uleb128 0xb
 5202 0184 3B       		.uleb128 0x3b
 5203 0185 05       		.uleb128 0x5
 5204 0186 27       		.uleb128 0x27
 5205 0187 0C       		.uleb128 0xc
 5206 0188 49       		.uleb128 0x49
 5207 0189 13       		.uleb128 0x13
 5208 018a 11       		.uleb128 0x11
 5209 018b 01       		.uleb128 0x1
 5210 018c 12       		.uleb128 0x12
 5211 018d 01       		.uleb128 0x1
 5212 018e 40       		.uleb128 0x40
 5213 018f 06       		.uleb128 0x6
 5214 0190 9742     		.uleb128 0x2117
 5215 0192 0C       		.uleb128 0xc
 5216 0193 01       		.uleb128 0x1
 5217 0194 13       		.uleb128 0x13
 5218 0195 00       		.byte	0
 5219 0196 00       		.byte	0
 5220 0197 1C       		.uleb128 0x1c
 5221 0198 2E       		.uleb128 0x2e
 5222 0199 01       		.byte	0x1
 5223 019a 3F       		.uleb128 0x3f
 5224 019b 0C       		.uleb128 0xc
 5225 019c 03       		.uleb128 0x3
 5226 019d 0E       		.uleb128 0xe
 5227 019e 3A       		.uleb128 0x3a
 5228 019f 0B       		.uleb128 0xb
 5229 01a0 3B       		.uleb128 0x3b
 5230 01a1 0B       		.uleb128 0xb
ARM GAS  G:\Users\Jaxb\AppData\Local\Temp\cc1bUhhc.s 			page 119


 5231 01a2 27       		.uleb128 0x27
 5232 01a3 0C       		.uleb128 0xc
 5233 01a4 49       		.uleb128 0x49
 5234 01a5 13       		.uleb128 0x13
 5235 01a6 11       		.uleb128 0x11
 5236 01a7 01       		.uleb128 0x1
 5237 01a8 12       		.uleb128 0x12
 5238 01a9 01       		.uleb128 0x1
 5239 01aa 40       		.uleb128 0x40
 5240 01ab 06       		.uleb128 0x6
 5241 01ac 9742     		.uleb128 0x2117
 5242 01ae 0C       		.uleb128 0xc
 5243 01af 01       		.uleb128 0x1
 5244 01b0 13       		.uleb128 0x13
 5245 01b1 00       		.byte	0
 5246 01b2 00       		.byte	0
 5247 01b3 1D       		.uleb128 0x1d
 5248 01b4 05       		.uleb128 0x5
 5249 01b5 00       		.byte	0
 5250 01b6 03       		.uleb128 0x3
 5251 01b7 0E       		.uleb128 0xe
 5252 01b8 3A       		.uleb128 0x3a
 5253 01b9 0B       		.uleb128 0xb
 5254 01ba 3B       		.uleb128 0x3b
 5255 01bb 0B       		.uleb128 0xb
 5256 01bc 49       		.uleb128 0x49
 5257 01bd 13       		.uleb128 0x13
 5258 01be 02       		.uleb128 0x2
 5259 01bf 0A       		.uleb128 0xa
 5260 01c0 00       		.byte	0
 5261 01c1 00       		.byte	0
 5262 01c2 1E       		.uleb128 0x1e
 5263 01c3 34       		.uleb128 0x34
 5264 01c4 00       		.byte	0
 5265 01c5 03       		.uleb128 0x3
 5266 01c6 0E       		.uleb128 0xe
 5267 01c7 3A       		.uleb128 0x3a
 5268 01c8 0B       		.uleb128 0xb
 5269 01c9 3B       		.uleb128 0x3b
 5270 01ca 0B       		.uleb128 0xb
 5271 01cb 49       		.uleb128 0x49
 5272 01cc 13       		.uleb128 0x13
 5273 01cd 02       		.uleb128 0x2
 5274 01ce 0A       		.uleb128 0xa
 5275 01cf 00       		.byte	0
 5276 01d0 00       		.byte	0
 5277 01d1 1F       		.uleb128 0x1f
 5278 01d2 2E       		.uleb128 0x2e
 5279 01d3 01       		.byte	0x1
 5280 01d4 3F       		.uleb128 0x3f
 5281 01d5 0C       		.uleb128 0xc
 5282 01d6 03       		.uleb128 0x3
 5283 01d7 0E       		.uleb128 0xe
 5284 01d8 3A       		.uleb128 0x3a
 5285 01d9 0B       		.uleb128 0xb
 5286 01da 3B       		.uleb128 0x3b
 5287 01db 0B       		.uleb128 0xb
ARM GAS  G:\Users\Jaxb\AppData\Local\Temp\cc1bUhhc.s 			page 120


 5288 01dc 27       		.uleb128 0x27
 5289 01dd 0C       		.uleb128 0xc
 5290 01de 11       		.uleb128 0x11
 5291 01df 01       		.uleb128 0x1
 5292 01e0 12       		.uleb128 0x12
 5293 01e1 01       		.uleb128 0x1
 5294 01e2 40       		.uleb128 0x40
 5295 01e3 06       		.uleb128 0x6
 5296 01e4 9642     		.uleb128 0x2116
 5297 01e6 0C       		.uleb128 0xc
 5298 01e7 00       		.byte	0
 5299 01e8 00       		.byte	0
 5300 01e9 00       		.byte	0
 5301              		.section	.debug_loc,"",%progbits
 5302              	.Ldebug_loc0:
 5303              	.LLST24:
 5304 0000 780F0000 		.4byte	.LFB53-.Ltext0
 5305 0004 7A0F0000 		.4byte	.LCFI142-.Ltext0
 5306 0008 0200     		.2byte	0x2
 5307 000a 7D       		.byte	0x7d
 5308 000b 00       		.sleb128 0
 5309 000c 7A0F0000 		.4byte	.LCFI142-.Ltext0
 5310 0010 7C0F0000 		.4byte	.LCFI143-.Ltext0
 5311 0014 0200     		.2byte	0x2
 5312 0016 7D       		.byte	0x7d
 5313 0017 04       		.sleb128 4
 5314 0018 7C0F0000 		.4byte	.LCFI143-.Ltext0
 5315 001c 7E0F0000 		.4byte	.LCFI144-.Ltext0
 5316 0020 0200     		.2byte	0x2
 5317 0022 7D       		.byte	0x7d
 5318 0023 18       		.sleb128 24
 5319 0024 7E0F0000 		.4byte	.LCFI144-.Ltext0
 5320 0028 A00F0000 		.4byte	.LCFI145-.Ltext0
 5321 002c 0200     		.2byte	0x2
 5322 002e 77       		.byte	0x77
 5323 002f 18       		.sleb128 24
 5324 0030 A00F0000 		.4byte	.LCFI145-.Ltext0
 5325 0034 A20F0000 		.4byte	.LCFI146-.Ltext0
 5326 0038 0200     		.2byte	0x2
 5327 003a 77       		.byte	0x77
 5328 003b 04       		.sleb128 4
 5329 003c A20F0000 		.4byte	.LCFI146-.Ltext0
 5330 0040 A40F0000 		.4byte	.LCFI147-.Ltext0
 5331 0044 0200     		.2byte	0x2
 5332 0046 7D       		.byte	0x7d
 5333 0047 04       		.sleb128 4
 5334 0048 A40F0000 		.4byte	.LCFI147-.Ltext0
 5335 004c A60F0000 		.4byte	.LFE53-.Ltext0
 5336 0050 0200     		.2byte	0x2
 5337 0052 7D       		.byte	0x7d
 5338 0053 00       		.sleb128 0
 5339 0054 00000000 		.4byte	0
 5340 0058 00000000 		.4byte	0
 5341              	.LLST23:
 5342 005c 9C0E0000 		.4byte	.LFB52-.Ltext0
 5343 0060 9E0E0000 		.4byte	.LCFI136-.Ltext0
 5344 0064 0200     		.2byte	0x2
ARM GAS  G:\Users\Jaxb\AppData\Local\Temp\cc1bUhhc.s 			page 121


 5345 0066 7D       		.byte	0x7d
 5346 0067 00       		.sleb128 0
 5347 0068 9E0E0000 		.4byte	.LCFI136-.Ltext0
 5348 006c A00E0000 		.4byte	.LCFI137-.Ltext0
 5349 0070 0200     		.2byte	0x2
 5350 0072 7D       		.byte	0x7d
 5351 0073 04       		.sleb128 4
 5352 0074 A00E0000 		.4byte	.LCFI137-.Ltext0
 5353 0078 A20E0000 		.4byte	.LCFI138-.Ltext0
 5354 007c 0200     		.2byte	0x2
 5355 007e 7D       		.byte	0x7d
 5356 007f 10       		.sleb128 16
 5357 0080 A20E0000 		.4byte	.LCFI138-.Ltext0
 5358 0084 6E0F0000 		.4byte	.LCFI139-.Ltext0
 5359 0088 0200     		.2byte	0x2
 5360 008a 77       		.byte	0x77
 5361 008b 10       		.sleb128 16
 5362 008c 6E0F0000 		.4byte	.LCFI139-.Ltext0
 5363 0090 700F0000 		.4byte	.LCFI140-.Ltext0
 5364 0094 0200     		.2byte	0x2
 5365 0096 77       		.byte	0x77
 5366 0097 04       		.sleb128 4
 5367 0098 700F0000 		.4byte	.LCFI140-.Ltext0
 5368 009c 720F0000 		.4byte	.LCFI141-.Ltext0
 5369 00a0 0200     		.2byte	0x2
 5370 00a2 7D       		.byte	0x7d
 5371 00a3 04       		.sleb128 4
 5372 00a4 720F0000 		.4byte	.LCFI141-.Ltext0
 5373 00a8 780F0000 		.4byte	.LFE52-.Ltext0
 5374 00ac 0200     		.2byte	0x2
 5375 00ae 7D       		.byte	0x7d
 5376 00af 00       		.sleb128 0
 5377 00b0 00000000 		.4byte	0
 5378 00b4 00000000 		.4byte	0
 5379              	.LLST22:
 5380 00b8 080D0000 		.4byte	.LFB51-.Ltext0
 5381 00bc 0A0D0000 		.4byte	.LCFI131-.Ltext0
 5382 00c0 0200     		.2byte	0x2
 5383 00c2 7D       		.byte	0x7d
 5384 00c3 00       		.sleb128 0
 5385 00c4 0A0D0000 		.4byte	.LCFI131-.Ltext0
 5386 00c8 0C0D0000 		.4byte	.LCFI132-.Ltext0
 5387 00cc 0200     		.2byte	0x2
 5388 00ce 7D       		.byte	0x7d
 5389 00cf 08       		.sleb128 8
 5390 00d0 0C0D0000 		.4byte	.LCFI132-.Ltext0
 5391 00d4 0E0D0000 		.4byte	.LCFI133-.Ltext0
 5392 00d8 0200     		.2byte	0x2
 5393 00da 7D       		.byte	0x7d
 5394 00db 18       		.sleb128 24
 5395 00dc 0E0D0000 		.4byte	.LCFI133-.Ltext0
 5396 00e0 920E0000 		.4byte	.LCFI134-.Ltext0
 5397 00e4 0200     		.2byte	0x2
 5398 00e6 77       		.byte	0x77
 5399 00e7 18       		.sleb128 24
 5400 00e8 920E0000 		.4byte	.LCFI134-.Ltext0
 5401 00ec 940E0000 		.4byte	.LCFI135-.Ltext0
ARM GAS  G:\Users\Jaxb\AppData\Local\Temp\cc1bUhhc.s 			page 122


 5402 00f0 0200     		.2byte	0x2
 5403 00f2 77       		.byte	0x77
 5404 00f3 08       		.sleb128 8
 5405 00f4 940E0000 		.4byte	.LCFI135-.Ltext0
 5406 00f8 9C0E0000 		.4byte	.LFE51-.Ltext0
 5407 00fc 0200     		.2byte	0x2
 5408 00fe 7D       		.byte	0x7d
 5409 00ff 08       		.sleb128 8
 5410 0100 00000000 		.4byte	0
 5411 0104 00000000 		.4byte	0
 5412              	.LLST21:
 5413 0108 980C0000 		.4byte	.LFB50-.Ltext0
 5414 010c 9A0C0000 		.4byte	.LCFI125-.Ltext0
 5415 0110 0200     		.2byte	0x2
 5416 0112 7D       		.byte	0x7d
 5417 0113 00       		.sleb128 0
 5418 0114 9A0C0000 		.4byte	.LCFI125-.Ltext0
 5419 0118 9C0C0000 		.4byte	.LCFI126-.Ltext0
 5420 011c 0200     		.2byte	0x2
 5421 011e 7D       		.byte	0x7d
 5422 011f 04       		.sleb128 4
 5423 0120 9C0C0000 		.4byte	.LCFI126-.Ltext0
 5424 0124 9E0C0000 		.4byte	.LCFI127-.Ltext0
 5425 0128 0200     		.2byte	0x2
 5426 012a 7D       		.byte	0x7d
 5427 012b 18       		.sleb128 24
 5428 012c 9E0C0000 		.4byte	.LCFI127-.Ltext0
 5429 0130 FE0C0000 		.4byte	.LCFI128-.Ltext0
 5430 0134 0200     		.2byte	0x2
 5431 0136 77       		.byte	0x77
 5432 0137 18       		.sleb128 24
 5433 0138 FE0C0000 		.4byte	.LCFI128-.Ltext0
 5434 013c 000D0000 		.4byte	.LCFI129-.Ltext0
 5435 0140 0200     		.2byte	0x2
 5436 0142 77       		.byte	0x77
 5437 0143 04       		.sleb128 4
 5438 0144 000D0000 		.4byte	.LCFI129-.Ltext0
 5439 0148 020D0000 		.4byte	.LCFI130-.Ltext0
 5440 014c 0200     		.2byte	0x2
 5441 014e 7D       		.byte	0x7d
 5442 014f 04       		.sleb128 4
 5443 0150 020D0000 		.4byte	.LCFI130-.Ltext0
 5444 0154 080D0000 		.4byte	.LFE50-.Ltext0
 5445 0158 0200     		.2byte	0x2
 5446 015a 7D       		.byte	0x7d
 5447 015b 00       		.sleb128 0
 5448 015c 00000000 		.4byte	0
 5449 0160 00000000 		.4byte	0
 5450              	.LLST20:
 5451 0164 CC0B0000 		.4byte	.LFB49-.Ltext0
 5452 0168 CE0B0000 		.4byte	.LCFI119-.Ltext0
 5453 016c 0200     		.2byte	0x2
 5454 016e 7D       		.byte	0x7d
 5455 016f 00       		.sleb128 0
 5456 0170 CE0B0000 		.4byte	.LCFI119-.Ltext0
 5457 0174 D00B0000 		.4byte	.LCFI120-.Ltext0
 5458 0178 0200     		.2byte	0x2
ARM GAS  G:\Users\Jaxb\AppData\Local\Temp\cc1bUhhc.s 			page 123


 5459 017a 7D       		.byte	0x7d
 5460 017b 04       		.sleb128 4
 5461 017c D00B0000 		.4byte	.LCFI120-.Ltext0
 5462 0180 D20B0000 		.4byte	.LCFI121-.Ltext0
 5463 0184 0200     		.2byte	0x2
 5464 0186 7D       		.byte	0x7d
 5465 0187 18       		.sleb128 24
 5466 0188 D20B0000 		.4byte	.LCFI121-.Ltext0
 5467 018c 920C0000 		.4byte	.LCFI122-.Ltext0
 5468 0190 0200     		.2byte	0x2
 5469 0192 77       		.byte	0x77
 5470 0193 18       		.sleb128 24
 5471 0194 920C0000 		.4byte	.LCFI122-.Ltext0
 5472 0198 940C0000 		.4byte	.LCFI123-.Ltext0
 5473 019c 0200     		.2byte	0x2
 5474 019e 77       		.byte	0x77
 5475 019f 04       		.sleb128 4
 5476 01a0 940C0000 		.4byte	.LCFI123-.Ltext0
 5477 01a4 960C0000 		.4byte	.LCFI124-.Ltext0
 5478 01a8 0200     		.2byte	0x2
 5479 01aa 7D       		.byte	0x7d
 5480 01ab 04       		.sleb128 4
 5481 01ac 960C0000 		.4byte	.LCFI124-.Ltext0
 5482 01b0 980C0000 		.4byte	.LFE49-.Ltext0
 5483 01b4 0200     		.2byte	0x2
 5484 01b6 7D       		.byte	0x7d
 5485 01b7 00       		.sleb128 0
 5486 01b8 00000000 		.4byte	0
 5487 01bc 00000000 		.4byte	0
 5488              	.LLST19:
 5489 01c0 920B0000 		.4byte	.LFB48-.Ltext0
 5490 01c4 940B0000 		.4byte	.LCFI113-.Ltext0
 5491 01c8 0200     		.2byte	0x2
 5492 01ca 7D       		.byte	0x7d
 5493 01cb 00       		.sleb128 0
 5494 01cc 940B0000 		.4byte	.LCFI113-.Ltext0
 5495 01d0 960B0000 		.4byte	.LCFI114-.Ltext0
 5496 01d4 0200     		.2byte	0x2
 5497 01d6 7D       		.byte	0x7d
 5498 01d7 04       		.sleb128 4
 5499 01d8 960B0000 		.4byte	.LCFI114-.Ltext0
 5500 01dc 980B0000 		.4byte	.LCFI115-.Ltext0
 5501 01e0 0200     		.2byte	0x2
 5502 01e2 7D       		.byte	0x7d
 5503 01e3 18       		.sleb128 24
 5504 01e4 980B0000 		.4byte	.LCFI115-.Ltext0
 5505 01e8 C60B0000 		.4byte	.LCFI116-.Ltext0
 5506 01ec 0200     		.2byte	0x2
 5507 01ee 77       		.byte	0x77
 5508 01ef 18       		.sleb128 24
 5509 01f0 C60B0000 		.4byte	.LCFI116-.Ltext0
 5510 01f4 C80B0000 		.4byte	.LCFI117-.Ltext0
 5511 01f8 0200     		.2byte	0x2
 5512 01fa 77       		.byte	0x77
 5513 01fb 04       		.sleb128 4
 5514 01fc C80B0000 		.4byte	.LCFI117-.Ltext0
 5515 0200 CA0B0000 		.4byte	.LCFI118-.Ltext0
ARM GAS  G:\Users\Jaxb\AppData\Local\Temp\cc1bUhhc.s 			page 124


 5516 0204 0200     		.2byte	0x2
 5517 0206 7D       		.byte	0x7d
 5518 0207 04       		.sleb128 4
 5519 0208 CA0B0000 		.4byte	.LCFI118-.Ltext0
 5520 020c CC0B0000 		.4byte	.LFE48-.Ltext0
 5521 0210 0200     		.2byte	0x2
 5522 0212 7D       		.byte	0x7d
 5523 0213 00       		.sleb128 0
 5524 0214 00000000 		.4byte	0
 5525 0218 00000000 		.4byte	0
 5526              	.LLST18:
 5527 021c 720B0000 		.4byte	.LFB47-.Ltext0
 5528 0220 740B0000 		.4byte	.LCFI107-.Ltext0
 5529 0224 0200     		.2byte	0x2
 5530 0226 7D       		.byte	0x7d
 5531 0227 00       		.sleb128 0
 5532 0228 740B0000 		.4byte	.LCFI107-.Ltext0
 5533 022c 760B0000 		.4byte	.LCFI108-.Ltext0
 5534 0230 0200     		.2byte	0x2
 5535 0232 7D       		.byte	0x7d
 5536 0233 04       		.sleb128 4
 5537 0234 760B0000 		.4byte	.LCFI108-.Ltext0
 5538 0238 780B0000 		.4byte	.LCFI109-.Ltext0
 5539 023c 0200     		.2byte	0x2
 5540 023e 7D       		.byte	0x7d
 5541 023f 18       		.sleb128 24
 5542 0240 780B0000 		.4byte	.LCFI109-.Ltext0
 5543 0244 8C0B0000 		.4byte	.LCFI110-.Ltext0
 5544 0248 0200     		.2byte	0x2
 5545 024a 77       		.byte	0x77
 5546 024b 18       		.sleb128 24
 5547 024c 8C0B0000 		.4byte	.LCFI110-.Ltext0
 5548 0250 8E0B0000 		.4byte	.LCFI111-.Ltext0
 5549 0254 0200     		.2byte	0x2
 5550 0256 77       		.byte	0x77
 5551 0257 04       		.sleb128 4
 5552 0258 8E0B0000 		.4byte	.LCFI111-.Ltext0
 5553 025c 900B0000 		.4byte	.LCFI112-.Ltext0
 5554 0260 0200     		.2byte	0x2
 5555 0262 7D       		.byte	0x7d
 5556 0263 04       		.sleb128 4
 5557 0264 900B0000 		.4byte	.LCFI112-.Ltext0
 5558 0268 920B0000 		.4byte	.LFE47-.Ltext0
 5559 026c 0200     		.2byte	0x2
 5560 026e 7D       		.byte	0x7d
 5561 026f 00       		.sleb128 0
 5562 0270 00000000 		.4byte	0
 5563 0274 00000000 		.4byte	0
 5564              	.LLST17:
 5565 0278 520B0000 		.4byte	.LFB46-.Ltext0
 5566 027c 540B0000 		.4byte	.LCFI101-.Ltext0
 5567 0280 0200     		.2byte	0x2
 5568 0282 7D       		.byte	0x7d
 5569 0283 00       		.sleb128 0
 5570 0284 540B0000 		.4byte	.LCFI101-.Ltext0
 5571 0288 560B0000 		.4byte	.LCFI102-.Ltext0
 5572 028c 0200     		.2byte	0x2
ARM GAS  G:\Users\Jaxb\AppData\Local\Temp\cc1bUhhc.s 			page 125


 5573 028e 7D       		.byte	0x7d
 5574 028f 04       		.sleb128 4
 5575 0290 560B0000 		.4byte	.LCFI102-.Ltext0
 5576 0294 580B0000 		.4byte	.LCFI103-.Ltext0
 5577 0298 0200     		.2byte	0x2
 5578 029a 7D       		.byte	0x7d
 5579 029b 18       		.sleb128 24
 5580 029c 580B0000 		.4byte	.LCFI103-.Ltext0
 5581 02a0 6C0B0000 		.4byte	.LCFI104-.Ltext0
 5582 02a4 0200     		.2byte	0x2
 5583 02a6 77       		.byte	0x77
 5584 02a7 18       		.sleb128 24
 5585 02a8 6C0B0000 		.4byte	.LCFI104-.Ltext0
 5586 02ac 6E0B0000 		.4byte	.LCFI105-.Ltext0
 5587 02b0 0200     		.2byte	0x2
 5588 02b2 77       		.byte	0x77
 5589 02b3 04       		.sleb128 4
 5590 02b4 6E0B0000 		.4byte	.LCFI105-.Ltext0
 5591 02b8 700B0000 		.4byte	.LCFI106-.Ltext0
 5592 02bc 0200     		.2byte	0x2
 5593 02be 7D       		.byte	0x7d
 5594 02bf 04       		.sleb128 4
 5595 02c0 700B0000 		.4byte	.LCFI106-.Ltext0
 5596 02c4 720B0000 		.4byte	.LFE46-.Ltext0
 5597 02c8 0200     		.2byte	0x2
 5598 02ca 7D       		.byte	0x7d
 5599 02cb 00       		.sleb128 0
 5600 02cc 00000000 		.4byte	0
 5601 02d0 00000000 		.4byte	0
 5602              	.LLST16:
 5603 02d4 2E0B0000 		.4byte	.LFB45-.Ltext0
 5604 02d8 300B0000 		.4byte	.LCFI95-.Ltext0
 5605 02dc 0200     		.2byte	0x2
 5606 02de 7D       		.byte	0x7d
 5607 02df 00       		.sleb128 0
 5608 02e0 300B0000 		.4byte	.LCFI95-.Ltext0
 5609 02e4 320B0000 		.4byte	.LCFI96-.Ltext0
 5610 02e8 0200     		.2byte	0x2
 5611 02ea 7D       		.byte	0x7d
 5612 02eb 04       		.sleb128 4
 5613 02ec 320B0000 		.4byte	.LCFI96-.Ltext0
 5614 02f0 340B0000 		.4byte	.LCFI97-.Ltext0
 5615 02f4 0200     		.2byte	0x2
 5616 02f6 7D       		.byte	0x7d
 5617 02f7 18       		.sleb128 24
 5618 02f8 340B0000 		.4byte	.LCFI97-.Ltext0
 5619 02fc 4C0B0000 		.4byte	.LCFI98-.Ltext0
 5620 0300 0200     		.2byte	0x2
 5621 0302 77       		.byte	0x77
 5622 0303 18       		.sleb128 24
 5623 0304 4C0B0000 		.4byte	.LCFI98-.Ltext0
 5624 0308 4E0B0000 		.4byte	.LCFI99-.Ltext0
 5625 030c 0200     		.2byte	0x2
 5626 030e 77       		.byte	0x77
 5627 030f 04       		.sleb128 4
 5628 0310 4E0B0000 		.4byte	.LCFI99-.Ltext0
 5629 0314 500B0000 		.4byte	.LCFI100-.Ltext0
ARM GAS  G:\Users\Jaxb\AppData\Local\Temp\cc1bUhhc.s 			page 126


 5630 0318 0200     		.2byte	0x2
 5631 031a 7D       		.byte	0x7d
 5632 031b 04       		.sleb128 4
 5633 031c 500B0000 		.4byte	.LCFI100-.Ltext0
 5634 0320 520B0000 		.4byte	.LFE45-.Ltext0
 5635 0324 0200     		.2byte	0x2
 5636 0326 7D       		.byte	0x7d
 5637 0327 00       		.sleb128 0
 5638 0328 00000000 		.4byte	0
 5639 032c 00000000 		.4byte	0
 5640              	.LLST15:
 5641 0330 DA0A0000 		.4byte	.LFB44-.Ltext0
 5642 0334 DC0A0000 		.4byte	.LCFI89-.Ltext0
 5643 0338 0200     		.2byte	0x2
 5644 033a 7D       		.byte	0x7d
 5645 033b 00       		.sleb128 0
 5646 033c DC0A0000 		.4byte	.LCFI89-.Ltext0
 5647 0340 DE0A0000 		.4byte	.LCFI90-.Ltext0
 5648 0344 0200     		.2byte	0x2
 5649 0346 7D       		.byte	0x7d
 5650 0347 04       		.sleb128 4
 5651 0348 DE0A0000 		.4byte	.LCFI90-.Ltext0
 5652 034c E00A0000 		.4byte	.LCFI91-.Ltext0
 5653 0350 0200     		.2byte	0x2
 5654 0352 7D       		.byte	0x7d
 5655 0353 18       		.sleb128 24
 5656 0354 E00A0000 		.4byte	.LCFI91-.Ltext0
 5657 0358 280B0000 		.4byte	.LCFI92-.Ltext0
 5658 035c 0200     		.2byte	0x2
 5659 035e 77       		.byte	0x77
 5660 035f 18       		.sleb128 24
 5661 0360 280B0000 		.4byte	.LCFI92-.Ltext0
 5662 0364 2A0B0000 		.4byte	.LCFI93-.Ltext0
 5663 0368 0200     		.2byte	0x2
 5664 036a 77       		.byte	0x77
 5665 036b 04       		.sleb128 4
 5666 036c 2A0B0000 		.4byte	.LCFI93-.Ltext0
 5667 0370 2C0B0000 		.4byte	.LCFI94-.Ltext0
 5668 0374 0200     		.2byte	0x2
 5669 0376 7D       		.byte	0x7d
 5670 0377 04       		.sleb128 4
 5671 0378 2C0B0000 		.4byte	.LCFI94-.Ltext0
 5672 037c 2E0B0000 		.4byte	.LFE44-.Ltext0
 5673 0380 0200     		.2byte	0x2
 5674 0382 7D       		.byte	0x7d
 5675 0383 00       		.sleb128 0
 5676 0384 00000000 		.4byte	0
 5677 0388 00000000 		.4byte	0
 5678              	.LLST14:
 5679 038c A20A0000 		.4byte	.LFB43-.Ltext0
 5680 0390 A40A0000 		.4byte	.LCFI83-.Ltext0
 5681 0394 0200     		.2byte	0x2
 5682 0396 7D       		.byte	0x7d
 5683 0397 00       		.sleb128 0
 5684 0398 A40A0000 		.4byte	.LCFI83-.Ltext0
 5685 039c A60A0000 		.4byte	.LCFI84-.Ltext0
 5686 03a0 0200     		.2byte	0x2
ARM GAS  G:\Users\Jaxb\AppData\Local\Temp\cc1bUhhc.s 			page 127


 5687 03a2 7D       		.byte	0x7d
 5688 03a3 04       		.sleb128 4
 5689 03a4 A60A0000 		.4byte	.LCFI84-.Ltext0
 5690 03a8 A80A0000 		.4byte	.LCFI85-.Ltext0
 5691 03ac 0200     		.2byte	0x2
 5692 03ae 7D       		.byte	0x7d
 5693 03af 18       		.sleb128 24
 5694 03b0 A80A0000 		.4byte	.LCFI85-.Ltext0
 5695 03b4 D40A0000 		.4byte	.LCFI86-.Ltext0
 5696 03b8 0200     		.2byte	0x2
 5697 03ba 77       		.byte	0x77
 5698 03bb 18       		.sleb128 24
 5699 03bc D40A0000 		.4byte	.LCFI86-.Ltext0
 5700 03c0 D60A0000 		.4byte	.LCFI87-.Ltext0
 5701 03c4 0200     		.2byte	0x2
 5702 03c6 77       		.byte	0x77
 5703 03c7 04       		.sleb128 4
 5704 03c8 D60A0000 		.4byte	.LCFI87-.Ltext0
 5705 03cc D80A0000 		.4byte	.LCFI88-.Ltext0
 5706 03d0 0200     		.2byte	0x2
 5707 03d2 7D       		.byte	0x7d
 5708 03d3 04       		.sleb128 4
 5709 03d4 D80A0000 		.4byte	.LCFI88-.Ltext0
 5710 03d8 DA0A0000 		.4byte	.LFE43-.Ltext0
 5711 03dc 0200     		.2byte	0x2
 5712 03de 7D       		.byte	0x7d
 5713 03df 00       		.sleb128 0
 5714 03e0 00000000 		.4byte	0
 5715 03e4 00000000 		.4byte	0
 5716              	.LLST13:
 5717 03e8 A8090000 		.4byte	.LFB42-.Ltext0
 5718 03ec AA090000 		.4byte	.LCFI77-.Ltext0
 5719 03f0 0200     		.2byte	0x2
 5720 03f2 7D       		.byte	0x7d
 5721 03f3 00       		.sleb128 0
 5722 03f4 AA090000 		.4byte	.LCFI77-.Ltext0
 5723 03f8 AC090000 		.4byte	.LCFI78-.Ltext0
 5724 03fc 0200     		.2byte	0x2
 5725 03fe 7D       		.byte	0x7d
 5726 03ff 04       		.sleb128 4
 5727 0400 AC090000 		.4byte	.LCFI78-.Ltext0
 5728 0404 AE090000 		.4byte	.LCFI79-.Ltext0
 5729 0408 0200     		.2byte	0x2
 5730 040a 7D       		.byte	0x7d
 5731 040b 18       		.sleb128 24
 5732 040c AE090000 		.4byte	.LCFI79-.Ltext0
 5733 0410 9C0A0000 		.4byte	.LCFI80-.Ltext0
 5734 0414 0200     		.2byte	0x2
 5735 0416 77       		.byte	0x77
 5736 0417 18       		.sleb128 24
 5737 0418 9C0A0000 		.4byte	.LCFI80-.Ltext0
 5738 041c 9E0A0000 		.4byte	.LCFI81-.Ltext0
 5739 0420 0200     		.2byte	0x2
 5740 0422 77       		.byte	0x77
 5741 0423 04       		.sleb128 4
 5742 0424 9E0A0000 		.4byte	.LCFI81-.Ltext0
 5743 0428 A00A0000 		.4byte	.LCFI82-.Ltext0
ARM GAS  G:\Users\Jaxb\AppData\Local\Temp\cc1bUhhc.s 			page 128


 5744 042c 0200     		.2byte	0x2
 5745 042e 7D       		.byte	0x7d
 5746 042f 04       		.sleb128 4
 5747 0430 A00A0000 		.4byte	.LCFI82-.Ltext0
 5748 0434 A20A0000 		.4byte	.LFE42-.Ltext0
 5749 0438 0200     		.2byte	0x2
 5750 043a 7D       		.byte	0x7d
 5751 043b 00       		.sleb128 0
 5752 043c 00000000 		.4byte	0
 5753 0440 00000000 		.4byte	0
 5754              	.LLST12:
 5755 0444 60090000 		.4byte	.LFB41-.Ltext0
 5756 0448 62090000 		.4byte	.LCFI71-.Ltext0
 5757 044c 0200     		.2byte	0x2
 5758 044e 7D       		.byte	0x7d
 5759 044f 00       		.sleb128 0
 5760 0450 62090000 		.4byte	.LCFI71-.Ltext0
 5761 0454 64090000 		.4byte	.LCFI72-.Ltext0
 5762 0458 0200     		.2byte	0x2
 5763 045a 7D       		.byte	0x7d
 5764 045b 04       		.sleb128 4
 5765 045c 64090000 		.4byte	.LCFI72-.Ltext0
 5766 0460 66090000 		.4byte	.LCFI73-.Ltext0
 5767 0464 0200     		.2byte	0x2
 5768 0466 7D       		.byte	0x7d
 5769 0467 18       		.sleb128 24
 5770 0468 66090000 		.4byte	.LCFI73-.Ltext0
 5771 046c A2090000 		.4byte	.LCFI74-.Ltext0
 5772 0470 0200     		.2byte	0x2
 5773 0472 77       		.byte	0x77
 5774 0473 18       		.sleb128 24
 5775 0474 A2090000 		.4byte	.LCFI74-.Ltext0
 5776 0478 A4090000 		.4byte	.LCFI75-.Ltext0
 5777 047c 0200     		.2byte	0x2
 5778 047e 77       		.byte	0x77
 5779 047f 04       		.sleb128 4
 5780 0480 A4090000 		.4byte	.LCFI75-.Ltext0
 5781 0484 A6090000 		.4byte	.LCFI76-.Ltext0
 5782 0488 0200     		.2byte	0x2
 5783 048a 7D       		.byte	0x7d
 5784 048b 04       		.sleb128 4
 5785 048c A6090000 		.4byte	.LCFI76-.Ltext0
 5786 0490 A8090000 		.4byte	.LFE41-.Ltext0
 5787 0494 0200     		.2byte	0x2
 5788 0496 7D       		.byte	0x7d
 5789 0497 00       		.sleb128 0
 5790 0498 00000000 		.4byte	0
 5791 049c 00000000 		.4byte	0
 5792              	.LLST11:
 5793 04a0 2A090000 		.4byte	.LFB40-.Ltext0
 5794 04a4 2C090000 		.4byte	.LCFI65-.Ltext0
 5795 04a8 0200     		.2byte	0x2
 5796 04aa 7D       		.byte	0x7d
 5797 04ab 00       		.sleb128 0
 5798 04ac 2C090000 		.4byte	.LCFI65-.Ltext0
 5799 04b0 2E090000 		.4byte	.LCFI66-.Ltext0
 5800 04b4 0200     		.2byte	0x2
ARM GAS  G:\Users\Jaxb\AppData\Local\Temp\cc1bUhhc.s 			page 129


 5801 04b6 7D       		.byte	0x7d
 5802 04b7 04       		.sleb128 4
 5803 04b8 2E090000 		.4byte	.LCFI66-.Ltext0
 5804 04bc 30090000 		.4byte	.LCFI67-.Ltext0
 5805 04c0 0200     		.2byte	0x2
 5806 04c2 7D       		.byte	0x7d
 5807 04c3 10       		.sleb128 16
 5808 04c4 30090000 		.4byte	.LCFI67-.Ltext0
 5809 04c8 5A090000 		.4byte	.LCFI68-.Ltext0
 5810 04cc 0200     		.2byte	0x2
 5811 04ce 77       		.byte	0x77
 5812 04cf 10       		.sleb128 16
 5813 04d0 5A090000 		.4byte	.LCFI68-.Ltext0
 5814 04d4 5C090000 		.4byte	.LCFI69-.Ltext0
 5815 04d8 0200     		.2byte	0x2
 5816 04da 77       		.byte	0x77
 5817 04db 04       		.sleb128 4
 5818 04dc 5C090000 		.4byte	.LCFI69-.Ltext0
 5819 04e0 5E090000 		.4byte	.LCFI70-.Ltext0
 5820 04e4 0200     		.2byte	0x2
 5821 04e6 7D       		.byte	0x7d
 5822 04e7 04       		.sleb128 4
 5823 04e8 5E090000 		.4byte	.LCFI70-.Ltext0
 5824 04ec 60090000 		.4byte	.LFE40-.Ltext0
 5825 04f0 0200     		.2byte	0x2
 5826 04f2 7D       		.byte	0x7d
 5827 04f3 00       		.sleb128 0
 5828 04f4 00000000 		.4byte	0
 5829 04f8 00000000 		.4byte	0
 5830              	.LLST10:
 5831 04fc B0070000 		.4byte	.LFB39-.Ltext0
 5832 0500 B2070000 		.4byte	.LCFI59-.Ltext0
 5833 0504 0200     		.2byte	0x2
 5834 0506 7D       		.byte	0x7d
 5835 0507 00       		.sleb128 0
 5836 0508 B2070000 		.4byte	.LCFI59-.Ltext0
 5837 050c B4070000 		.4byte	.LCFI60-.Ltext0
 5838 0510 0200     		.2byte	0x2
 5839 0512 7D       		.byte	0x7d
 5840 0513 04       		.sleb128 4
 5841 0514 B4070000 		.4byte	.LCFI60-.Ltext0
 5842 0518 B6070000 		.4byte	.LCFI61-.Ltext0
 5843 051c 0200     		.2byte	0x2
 5844 051e 7D       		.byte	0x7d
 5845 051f 18       		.sleb128 24
 5846 0520 B6070000 		.4byte	.LCFI61-.Ltext0
 5847 0524 24090000 		.4byte	.LCFI62-.Ltext0
 5848 0528 0200     		.2byte	0x2
 5849 052a 77       		.byte	0x77
 5850 052b 18       		.sleb128 24
 5851 052c 24090000 		.4byte	.LCFI62-.Ltext0
 5852 0530 26090000 		.4byte	.LCFI63-.Ltext0
 5853 0534 0200     		.2byte	0x2
 5854 0536 77       		.byte	0x77
 5855 0537 04       		.sleb128 4
 5856 0538 26090000 		.4byte	.LCFI63-.Ltext0
 5857 053c 28090000 		.4byte	.LCFI64-.Ltext0
ARM GAS  G:\Users\Jaxb\AppData\Local\Temp\cc1bUhhc.s 			page 130


 5858 0540 0200     		.2byte	0x2
 5859 0542 7D       		.byte	0x7d
 5860 0543 04       		.sleb128 4
 5861 0544 28090000 		.4byte	.LCFI64-.Ltext0
 5862 0548 2A090000 		.4byte	.LFE39-.Ltext0
 5863 054c 0200     		.2byte	0x2
 5864 054e 7D       		.byte	0x7d
 5865 054f 00       		.sleb128 0
 5866 0550 00000000 		.4byte	0
 5867 0554 00000000 		.4byte	0
 5868              	.LLST9:
 5869 0558 60070000 		.4byte	.LFB38-.Ltext0
 5870 055c 62070000 		.4byte	.LCFI53-.Ltext0
 5871 0560 0200     		.2byte	0x2
 5872 0562 7D       		.byte	0x7d
 5873 0563 00       		.sleb128 0
 5874 0564 62070000 		.4byte	.LCFI53-.Ltext0
 5875 0568 64070000 		.4byte	.LCFI54-.Ltext0
 5876 056c 0200     		.2byte	0x2
 5877 056e 7D       		.byte	0x7d
 5878 056f 04       		.sleb128 4
 5879 0570 64070000 		.4byte	.LCFI54-.Ltext0
 5880 0574 66070000 		.4byte	.LCFI55-.Ltext0
 5881 0578 0200     		.2byte	0x2
 5882 057a 7D       		.byte	0x7d
 5883 057b 10       		.sleb128 16
 5884 057c 66070000 		.4byte	.LCFI55-.Ltext0
 5885 0580 AA070000 		.4byte	.LCFI56-.Ltext0
 5886 0584 0200     		.2byte	0x2
 5887 0586 77       		.byte	0x77
 5888 0587 10       		.sleb128 16
 5889 0588 AA070000 		.4byte	.LCFI56-.Ltext0
 5890 058c AC070000 		.4byte	.LCFI57-.Ltext0
 5891 0590 0200     		.2byte	0x2
 5892 0592 77       		.byte	0x77
 5893 0593 04       		.sleb128 4
 5894 0594 AC070000 		.4byte	.LCFI57-.Ltext0
 5895 0598 AE070000 		.4byte	.LCFI58-.Ltext0
 5896 059c 0200     		.2byte	0x2
 5897 059e 7D       		.byte	0x7d
 5898 059f 04       		.sleb128 4
 5899 05a0 AE070000 		.4byte	.LCFI58-.Ltext0
 5900 05a4 B0070000 		.4byte	.LFE38-.Ltext0
 5901 05a8 0200     		.2byte	0x2
 5902 05aa 7D       		.byte	0x7d
 5903 05ab 00       		.sleb128 0
 5904 05ac 00000000 		.4byte	0
 5905 05b0 00000000 		.4byte	0
 5906              	.LLST8:
 5907 05b4 8C060000 		.4byte	.LFB37-.Ltext0
 5908 05b8 8E060000 		.4byte	.LCFI47-.Ltext0
 5909 05bc 0200     		.2byte	0x2
 5910 05be 7D       		.byte	0x7d
 5911 05bf 00       		.sleb128 0
 5912 05c0 8E060000 		.4byte	.LCFI47-.Ltext0
 5913 05c4 90060000 		.4byte	.LCFI48-.Ltext0
 5914 05c8 0200     		.2byte	0x2
ARM GAS  G:\Users\Jaxb\AppData\Local\Temp\cc1bUhhc.s 			page 131


 5915 05ca 7D       		.byte	0x7d
 5916 05cb 04       		.sleb128 4
 5917 05cc 90060000 		.4byte	.LCFI48-.Ltext0
 5918 05d0 92060000 		.4byte	.LCFI49-.Ltext0
 5919 05d4 0200     		.2byte	0x2
 5920 05d6 7D       		.byte	0x7d
 5921 05d7 18       		.sleb128 24
 5922 05d8 92060000 		.4byte	.LCFI49-.Ltext0
 5923 05dc 40070000 		.4byte	.LCFI50-.Ltext0
 5924 05e0 0200     		.2byte	0x2
 5925 05e2 77       		.byte	0x77
 5926 05e3 18       		.sleb128 24
 5927 05e4 40070000 		.4byte	.LCFI50-.Ltext0
 5928 05e8 42070000 		.4byte	.LCFI51-.Ltext0
 5929 05ec 0200     		.2byte	0x2
 5930 05ee 77       		.byte	0x77
 5931 05ef 04       		.sleb128 4
 5932 05f0 42070000 		.4byte	.LCFI51-.Ltext0
 5933 05f4 44070000 		.4byte	.LCFI52-.Ltext0
 5934 05f8 0200     		.2byte	0x2
 5935 05fa 7D       		.byte	0x7d
 5936 05fb 04       		.sleb128 4
 5937 05fc 44070000 		.4byte	.LCFI52-.Ltext0
 5938 0600 60070000 		.4byte	.LFE37-.Ltext0
 5939 0604 0200     		.2byte	0x2
 5940 0606 7D       		.byte	0x7d
 5941 0607 00       		.sleb128 0
 5942 0608 00000000 		.4byte	0
 5943 060c 00000000 		.4byte	0
 5944              	.LLST7:
 5945 0610 EC040000 		.4byte	.LFB36-.Ltext0
 5946 0614 EE040000 		.4byte	.LCFI41-.Ltext0
 5947 0618 0200     		.2byte	0x2
 5948 061a 7D       		.byte	0x7d
 5949 061b 00       		.sleb128 0
 5950 061c EE040000 		.4byte	.LCFI41-.Ltext0
 5951 0620 F0040000 		.4byte	.LCFI42-.Ltext0
 5952 0624 0200     		.2byte	0x2
 5953 0626 7D       		.byte	0x7d
 5954 0627 04       		.sleb128 4
 5955 0628 F0040000 		.4byte	.LCFI42-.Ltext0
 5956 062c F2040000 		.4byte	.LCFI43-.Ltext0
 5957 0630 0200     		.2byte	0x2
 5958 0632 7D       		.byte	0x7d
 5959 0633 18       		.sleb128 24
 5960 0634 F2040000 		.4byte	.LCFI43-.Ltext0
 5961 0638 86060000 		.4byte	.LCFI44-.Ltext0
 5962 063c 0200     		.2byte	0x2
 5963 063e 77       		.byte	0x77
 5964 063f 18       		.sleb128 24
 5965 0640 86060000 		.4byte	.LCFI44-.Ltext0
 5966 0644 88060000 		.4byte	.LCFI45-.Ltext0
 5967 0648 0200     		.2byte	0x2
 5968 064a 77       		.byte	0x77
 5969 064b 04       		.sleb128 4
 5970 064c 88060000 		.4byte	.LCFI45-.Ltext0
 5971 0650 8A060000 		.4byte	.LCFI46-.Ltext0
ARM GAS  G:\Users\Jaxb\AppData\Local\Temp\cc1bUhhc.s 			page 132


 5972 0654 0200     		.2byte	0x2
 5973 0656 7D       		.byte	0x7d
 5974 0657 04       		.sleb128 4
 5975 0658 8A060000 		.4byte	.LCFI46-.Ltext0
 5976 065c 8C060000 		.4byte	.LFE36-.Ltext0
 5977 0660 0200     		.2byte	0x2
 5978 0662 7D       		.byte	0x7d
 5979 0663 00       		.sleb128 0
 5980 0664 00000000 		.4byte	0
 5981 0668 00000000 		.4byte	0
 5982              	.LLST6:
 5983 066c 56040000 		.4byte	.LFB35-.Ltext0
 5984 0670 58040000 		.4byte	.LCFI35-.Ltext0
 5985 0674 0200     		.2byte	0x2
 5986 0676 7D       		.byte	0x7d
 5987 0677 00       		.sleb128 0
 5988 0678 58040000 		.4byte	.LCFI35-.Ltext0
 5989 067c 5A040000 		.4byte	.LCFI36-.Ltext0
 5990 0680 0200     		.2byte	0x2
 5991 0682 7D       		.byte	0x7d
 5992 0683 04       		.sleb128 4
 5993 0684 5A040000 		.4byte	.LCFI36-.Ltext0
 5994 0688 5C040000 		.4byte	.LCFI37-.Ltext0
 5995 068c 0200     		.2byte	0x2
 5996 068e 7D       		.byte	0x7d
 5997 068f 10       		.sleb128 16
 5998 0690 5C040000 		.4byte	.LCFI37-.Ltext0
 5999 0694 E6040000 		.4byte	.LCFI38-.Ltext0
 6000 0698 0200     		.2byte	0x2
 6001 069a 77       		.byte	0x77
 6002 069b 10       		.sleb128 16
 6003 069c E6040000 		.4byte	.LCFI38-.Ltext0
 6004 06a0 E8040000 		.4byte	.LCFI39-.Ltext0
 6005 06a4 0200     		.2byte	0x2
 6006 06a6 77       		.byte	0x77
 6007 06a7 04       		.sleb128 4
 6008 06a8 E8040000 		.4byte	.LCFI39-.Ltext0
 6009 06ac EA040000 		.4byte	.LCFI40-.Ltext0
 6010 06b0 0200     		.2byte	0x2
 6011 06b2 7D       		.byte	0x7d
 6012 06b3 04       		.sleb128 4
 6013 06b4 EA040000 		.4byte	.LCFI40-.Ltext0
 6014 06b8 EC040000 		.4byte	.LFE35-.Ltext0
 6015 06bc 0200     		.2byte	0x2
 6016 06be 7D       		.byte	0x7d
 6017 06bf 00       		.sleb128 0
 6018 06c0 00000000 		.4byte	0
 6019 06c4 00000000 		.4byte	0
 6020              	.LLST5:
 6021 06c8 20040000 		.4byte	.LFB34-.Ltext0
 6022 06cc 22040000 		.4byte	.LCFI29-.Ltext0
 6023 06d0 0200     		.2byte	0x2
 6024 06d2 7D       		.byte	0x7d
 6025 06d3 00       		.sleb128 0
 6026 06d4 22040000 		.4byte	.LCFI29-.Ltext0
 6027 06d8 24040000 		.4byte	.LCFI30-.Ltext0
 6028 06dc 0200     		.2byte	0x2
ARM GAS  G:\Users\Jaxb\AppData\Local\Temp\cc1bUhhc.s 			page 133


 6029 06de 7D       		.byte	0x7d
 6030 06df 04       		.sleb128 4
 6031 06e0 24040000 		.4byte	.LCFI30-.Ltext0
 6032 06e4 26040000 		.4byte	.LCFI31-.Ltext0
 6033 06e8 0200     		.2byte	0x2
 6034 06ea 7D       		.byte	0x7d
 6035 06eb 10       		.sleb128 16
 6036 06ec 26040000 		.4byte	.LCFI31-.Ltext0
 6037 06f0 50040000 		.4byte	.LCFI32-.Ltext0
 6038 06f4 0200     		.2byte	0x2
 6039 06f6 77       		.byte	0x77
 6040 06f7 10       		.sleb128 16
 6041 06f8 50040000 		.4byte	.LCFI32-.Ltext0
 6042 06fc 52040000 		.4byte	.LCFI33-.Ltext0
 6043 0700 0200     		.2byte	0x2
 6044 0702 77       		.byte	0x77
 6045 0703 04       		.sleb128 4
 6046 0704 52040000 		.4byte	.LCFI33-.Ltext0
 6047 0708 54040000 		.4byte	.LCFI34-.Ltext0
 6048 070c 0200     		.2byte	0x2
 6049 070e 7D       		.byte	0x7d
 6050 070f 04       		.sleb128 4
 6051 0710 54040000 		.4byte	.LCFI34-.Ltext0
 6052 0714 56040000 		.4byte	.LFE34-.Ltext0
 6053 0718 0200     		.2byte	0x2
 6054 071a 7D       		.byte	0x7d
 6055 071b 00       		.sleb128 0
 6056 071c 00000000 		.4byte	0
 6057 0720 00000000 		.4byte	0
 6058              	.LLST4:
 6059 0724 C0030000 		.4byte	.LFB33-.Ltext0
 6060 0728 C2030000 		.4byte	.LCFI23-.Ltext0
 6061 072c 0200     		.2byte	0x2
 6062 072e 7D       		.byte	0x7d
 6063 072f 00       		.sleb128 0
 6064 0730 C2030000 		.4byte	.LCFI23-.Ltext0
 6065 0734 C4030000 		.4byte	.LCFI24-.Ltext0
 6066 0738 0200     		.2byte	0x2
 6067 073a 7D       		.byte	0x7d
 6068 073b 04       		.sleb128 4
 6069 073c C4030000 		.4byte	.LCFI24-.Ltext0
 6070 0740 C6030000 		.4byte	.LCFI25-.Ltext0
 6071 0744 0200     		.2byte	0x2
 6072 0746 7D       		.byte	0x7d
 6073 0747 10       		.sleb128 16
 6074 0748 C6030000 		.4byte	.LCFI25-.Ltext0
 6075 074c 14040000 		.4byte	.LCFI26-.Ltext0
 6076 0750 0200     		.2byte	0x2
 6077 0752 77       		.byte	0x77
 6078 0753 10       		.sleb128 16
 6079 0754 14040000 		.4byte	.LCFI26-.Ltext0
 6080 0758 16040000 		.4byte	.LCFI27-.Ltext0
 6081 075c 0200     		.2byte	0x2
 6082 075e 77       		.byte	0x77
 6083 075f 04       		.sleb128 4
 6084 0760 16040000 		.4byte	.LCFI27-.Ltext0
 6085 0764 18040000 		.4byte	.LCFI28-.Ltext0
ARM GAS  G:\Users\Jaxb\AppData\Local\Temp\cc1bUhhc.s 			page 134


 6086 0768 0200     		.2byte	0x2
 6087 076a 7D       		.byte	0x7d
 6088 076b 04       		.sleb128 4
 6089 076c 18040000 		.4byte	.LCFI28-.Ltext0
 6090 0770 20040000 		.4byte	.LFE33-.Ltext0
 6091 0774 0200     		.2byte	0x2
 6092 0776 7D       		.byte	0x7d
 6093 0777 00       		.sleb128 0
 6094 0778 00000000 		.4byte	0
 6095 077c 00000000 		.4byte	0
 6096              	.LLST3:
 6097 0780 6C030000 		.4byte	.LFB32-.Ltext0
 6098 0784 6E030000 		.4byte	.LCFI17-.Ltext0
 6099 0788 0200     		.2byte	0x2
 6100 078a 7D       		.byte	0x7d
 6101 078b 00       		.sleb128 0
 6102 078c 6E030000 		.4byte	.LCFI17-.Ltext0
 6103 0790 70030000 		.4byte	.LCFI18-.Ltext0
 6104 0794 0200     		.2byte	0x2
 6105 0796 7D       		.byte	0x7d
 6106 0797 04       		.sleb128 4
 6107 0798 70030000 		.4byte	.LCFI18-.Ltext0
 6108 079c 72030000 		.4byte	.LCFI19-.Ltext0
 6109 07a0 0200     		.2byte	0x2
 6110 07a2 7D       		.byte	0x7d
 6111 07a3 10       		.sleb128 16
 6112 07a4 72030000 		.4byte	.LCFI19-.Ltext0
 6113 07a8 BA030000 		.4byte	.LCFI20-.Ltext0
 6114 07ac 0200     		.2byte	0x2
 6115 07ae 77       		.byte	0x77
 6116 07af 10       		.sleb128 16
 6117 07b0 BA030000 		.4byte	.LCFI20-.Ltext0
 6118 07b4 BC030000 		.4byte	.LCFI21-.Ltext0
 6119 07b8 0200     		.2byte	0x2
 6120 07ba 77       		.byte	0x77
 6121 07bb 04       		.sleb128 4
 6122 07bc BC030000 		.4byte	.LCFI21-.Ltext0
 6123 07c0 BE030000 		.4byte	.LCFI22-.Ltext0
 6124 07c4 0200     		.2byte	0x2
 6125 07c6 7D       		.byte	0x7d
 6126 07c7 04       		.sleb128 4
 6127 07c8 BE030000 		.4byte	.LCFI22-.Ltext0
 6128 07cc C0030000 		.4byte	.LFE32-.Ltext0
 6129 07d0 0200     		.2byte	0x2
 6130 07d2 7D       		.byte	0x7d
 6131 07d3 00       		.sleb128 0
 6132 07d4 00000000 		.4byte	0
 6133 07d8 00000000 		.4byte	0
 6134              	.LLST2:
 6135 07dc E8010000 		.4byte	.LFB31-.Ltext0
 6136 07e0 EA010000 		.4byte	.LCFI11-.Ltext0
 6137 07e4 0200     		.2byte	0x2
 6138 07e6 7D       		.byte	0x7d
 6139 07e7 00       		.sleb128 0
 6140 07e8 EA010000 		.4byte	.LCFI11-.Ltext0
 6141 07ec EC010000 		.4byte	.LCFI12-.Ltext0
 6142 07f0 0200     		.2byte	0x2
ARM GAS  G:\Users\Jaxb\AppData\Local\Temp\cc1bUhhc.s 			page 135


 6143 07f2 7D       		.byte	0x7d
 6144 07f3 08       		.sleb128 8
 6145 07f4 EC010000 		.4byte	.LCFI12-.Ltext0
 6146 07f8 EE010000 		.4byte	.LCFI13-.Ltext0
 6147 07fc 0200     		.2byte	0x2
 6148 07fe 7D       		.byte	0x7d
 6149 07ff 18       		.sleb128 24
 6150 0800 EE010000 		.4byte	.LCFI13-.Ltext0
 6151 0804 62030000 		.4byte	.LCFI14-.Ltext0
 6152 0808 0200     		.2byte	0x2
 6153 080a 77       		.byte	0x77
 6154 080b 18       		.sleb128 24
 6155 080c 62030000 		.4byte	.LCFI14-.Ltext0
 6156 0810 64030000 		.4byte	.LCFI15-.Ltext0
 6157 0814 0200     		.2byte	0x2
 6158 0816 77       		.byte	0x77
 6159 0817 08       		.sleb128 8
 6160 0818 64030000 		.4byte	.LCFI15-.Ltext0
 6161 081c 66030000 		.4byte	.LCFI16-.Ltext0
 6162 0820 0200     		.2byte	0x2
 6163 0822 7D       		.byte	0x7d
 6164 0823 08       		.sleb128 8
 6165 0824 66030000 		.4byte	.LCFI16-.Ltext0
 6166 0828 6C030000 		.4byte	.LFE31-.Ltext0
 6167 082c 0200     		.2byte	0x2
 6168 082e 7D       		.byte	0x7d
 6169 082f 00       		.sleb128 0
 6170 0830 00000000 		.4byte	0
 6171 0834 00000000 		.4byte	0
 6172              	.LLST1:
 6173 0838 48000000 		.4byte	.LFB30-.Ltext0
 6174 083c 4A000000 		.4byte	.LCFI5-.Ltext0
 6175 0840 0200     		.2byte	0x2
 6176 0842 7D       		.byte	0x7d
 6177 0843 00       		.sleb128 0
 6178 0844 4A000000 		.4byte	.LCFI5-.Ltext0
 6179 0848 4C000000 		.4byte	.LCFI6-.Ltext0
 6180 084c 0200     		.2byte	0x2
 6181 084e 7D       		.byte	0x7d
 6182 084f 04       		.sleb128 4
 6183 0850 4C000000 		.4byte	.LCFI6-.Ltext0
 6184 0854 4E000000 		.4byte	.LCFI7-.Ltext0
 6185 0858 0200     		.2byte	0x2
 6186 085a 7D       		.byte	0x7d
 6187 085b 18       		.sleb128 24
 6188 085c 4E000000 		.4byte	.LCFI7-.Ltext0
 6189 0860 E2010000 		.4byte	.LCFI8-.Ltext0
 6190 0864 0200     		.2byte	0x2
 6191 0866 77       		.byte	0x77
 6192 0867 18       		.sleb128 24
 6193 0868 E2010000 		.4byte	.LCFI8-.Ltext0
 6194 086c E4010000 		.4byte	.LCFI9-.Ltext0
 6195 0870 0200     		.2byte	0x2
 6196 0872 77       		.byte	0x77
 6197 0873 04       		.sleb128 4
 6198 0874 E4010000 		.4byte	.LCFI9-.Ltext0
 6199 0878 E6010000 		.4byte	.LCFI10-.Ltext0
ARM GAS  G:\Users\Jaxb\AppData\Local\Temp\cc1bUhhc.s 			page 136


 6200 087c 0200     		.2byte	0x2
 6201 087e 7D       		.byte	0x7d
 6202 087f 04       		.sleb128 4
 6203 0880 E6010000 		.4byte	.LCFI10-.Ltext0
 6204 0884 E8010000 		.4byte	.LFE30-.Ltext0
 6205 0888 0200     		.2byte	0x2
 6206 088a 7D       		.byte	0x7d
 6207 088b 00       		.sleb128 0
 6208 088c 00000000 		.4byte	0
 6209 0890 00000000 		.4byte	0
 6210              	.LLST0:
 6211 0894 00000000 		.4byte	.LFB29-.Ltext0
 6212 0898 02000000 		.4byte	.LCFI0-.Ltext0
 6213 089c 0200     		.2byte	0x2
 6214 089e 7D       		.byte	0x7d
 6215 089f 00       		.sleb128 0
 6216 08a0 02000000 		.4byte	.LCFI0-.Ltext0
 6217 08a4 04000000 		.4byte	.LCFI1-.Ltext0
 6218 08a8 0200     		.2byte	0x2
 6219 08aa 7D       		.byte	0x7d
 6220 08ab 08       		.sleb128 8
 6221 08ac 04000000 		.4byte	.LCFI1-.Ltext0
 6222 08b0 06000000 		.4byte	.LCFI2-.Ltext0
 6223 08b4 0200     		.2byte	0x2
 6224 08b6 7D       		.byte	0x7d
 6225 08b7 10       		.sleb128 16
 6226 08b8 06000000 		.4byte	.LCFI2-.Ltext0
 6227 08bc 3E000000 		.4byte	.LCFI3-.Ltext0
 6228 08c0 0200     		.2byte	0x2
 6229 08c2 77       		.byte	0x77
 6230 08c3 10       		.sleb128 16
 6231 08c4 3E000000 		.4byte	.LCFI3-.Ltext0
 6232 08c8 40000000 		.4byte	.LCFI4-.Ltext0
 6233 08cc 0200     		.2byte	0x2
 6234 08ce 77       		.byte	0x77
 6235 08cf 08       		.sleb128 8
 6236 08d0 40000000 		.4byte	.LCFI4-.Ltext0
 6237 08d4 48000000 		.4byte	.LFE29-.Ltext0
 6238 08d8 0200     		.2byte	0x2
 6239 08da 7D       		.byte	0x7d
 6240 08db 08       		.sleb128 8
 6241 08dc 00000000 		.4byte	0
 6242 08e0 00000000 		.4byte	0
 6243              		.section	.debug_aranges,"",%progbits
 6244 0000 1C000000 		.4byte	0x1c
 6245 0004 0200     		.2byte	0x2
 6246 0006 00000000 		.4byte	.Ldebug_info0
 6247 000a 04       		.byte	0x4
 6248 000b 00       		.byte	0
 6249 000c 0000     		.2byte	0
 6250 000e 0000     		.2byte	0
 6251 0010 00000000 		.4byte	.Ltext0
 6252 0014 A60F0000 		.4byte	.Letext0-.Ltext0
 6253 0018 00000000 		.4byte	0
 6254 001c 00000000 		.4byte	0
 6255              		.section	.debug_line,"",%progbits
 6256              	.Ldebug_line0:
ARM GAS  G:\Users\Jaxb\AppData\Local\Temp\cc1bUhhc.s 			page 137


 6257 0000 85030000 		.section	.debug_str,"MS",%progbits,1
 6257      02002E01 
 6257      00000201 
 6257      FB0E0D00 
 6257      01010101 
 6258              	.LASF106:
 6259 0000 6D657373 		.ascii	"message_pending\000"
 6259      6167655F 
 6259      70656E64 
 6259      696E6700 
 6260              	.LASF16:
 6261 0010 53797374 		.ascii	"SystemCoreClock\000"
 6261      656D436F 
 6261      7265436C 
 6261      6F636B00 
 6262              	.LASF42:
 6263 0020 46464131 		.ascii	"FFA1R\000"
 6263      5200
 6264              	.LASF44:
 6265 0026 46413152 		.ascii	"FA1R\000"
 6265      00
 6266              	.LASF83:
 6267 002b 43414E5F 		.ascii	"CAN_FLAG\000"
 6267      464C4147 
 6267      00
 6268              	.LASF71:
 6269 0034 45787449 		.ascii	"ExtId\000"
 6269      6400
 6270              	.LASF122:
 6271 003a 43414E5F 		.ascii	"CAN_StructInit\000"
 6271      53747275 
 6271      6374496E 
 6271      697400
 6272              	.LASF132:
 6273 0049 463A5C6B 		.ascii	"F:\\kaka\\KAKAOS\\C\\windows\\Project\\RVMDK\243\250"
 6273      616B615C 
 6273      4B414B41 
 6273      4F535C43 
 6273      5C77696E 
 6274 0071 757635A3 		.ascii	"uv5\243\251\000"
 6274      A900
 6275              	.LASF104:
 6276 0077 43414E5F 		.ascii	"CAN_MessagePending\000"
 6276      4D657373 
 6276      61676550 
 6276      656E6469 
 6276      6E6700
 6277              	.LASF113:
 6278 008a 5472616E 		.ascii	"TransmitMailbox\000"
 6278      736D6974 
 6278      4D61696C 
 6278      626F7800 
 6279              	.LASF98:
 6280 009a 43414E5F 		.ascii	"CAN_Sleep\000"
 6280      536C6565 
 6280      7000
 6281              	.LASF118:
ARM GAS  G:\Users\Jaxb\AppData\Local\Temp\cc1bUhhc.s 			page 138


 6282 00a4 43414E5F 		.ascii	"CAN_TTComModeCmd\000"
 6282      5454436F 
 6282      6D4D6F64 
 6282      65436D64 
 6282      00
 6283              	.LASF24:
 6284 00b5 54444C52 		.ascii	"TDLR\000"
 6284      00
 6285              	.LASF11:
 6286 00ba 756E7369 		.ascii	"unsigned int\000"
 6286      676E6564 
 6286      20696E74 
 6286      00
 6287              	.LASF22:
 6288 00c7 46756E63 		.ascii	"FunctionalState\000"
 6288      74696F6E 
 6288      616C5374 
 6288      61746500 
 6289              	.LASF54:
 6290 00d7 43414E5F 		.ascii	"CAN_ABOM\000"
 6290      41424F4D 
 6290      00
 6291              	.LASF35:
 6292 00e0 7354784D 		.ascii	"sTxMailBox\000"
 6292      61696C42 
 6292      6F7800
 6293              	.LASF18:
 6294 00eb 466C6167 		.ascii	"FlagStatus\000"
 6294      53746174 
 6294      757300
 6295              	.LASF75:
 6296 00f6 43414E5F 		.ascii	"CAN_Reg\000"
 6296      52656700 
 6297              	.LASF111:
 6298 00fe 4D61696C 		.ascii	"Mailbox\000"
 6298      626F7800 
 6299              	.LASF92:
 6300 0106 43414E5F 		.ascii	"CAN_GetReceiveErrorCounter\000"
 6300      47657452 
 6300      65636569 
 6300      76654572 
 6300      726F7243 
 6301              	.LASF40:
 6302 0121 46533152 		.ascii	"FS1R\000"
 6302      00
 6303              	.LASF46:
 6304 0126 7346696C 		.ascii	"sFilterRegister\000"
 6304      74657252 
 6304      65676973 
 6304      74657200 
 6305              	.LASF105:
 6306 0136 4649464F 		.ascii	"FIFONumber\000"
 6306      4E756D62 
 6306      657200
 6307              	.LASF14:
 6308 0141 75696E74 		.ascii	"uint32_t\000"
 6308      33325F74 
ARM GAS  G:\Users\Jaxb\AppData\Local\Temp\cc1bUhhc.s 			page 139


 6308      00
 6309              	.LASF58:
 6310 014a 43414E5F 		.ascii	"CAN_TXFP\000"
 6310      54584650 
 6310      00
 6311              	.LASF121:
 6312 0153 43414E5F 		.ascii	"CAN_BankNumber\000"
 6312      42616E6B 
 6312      4E756D62 
 6312      657200
 6313              	.LASF81:
 6314 0162 43414E5F 		.ascii	"CAN_ClearITPendingBit\000"
 6314      436C6561 
 6314      72495450 
 6314      656E6469 
 6314      6E674269 
 6315              	.LASF76:
 6316 0178 49745F42 		.ascii	"It_Bit\000"
 6316      697400
 6317              	.LASF41:
 6318 017f 52455345 		.ascii	"RESERVED3\000"
 6318      52564544 
 6318      3300
 6319              	.LASF90:
 6320 0189 43414E5F 		.ascii	"CAN_GetLSBTransmitErrorCounter\000"
 6320      4765744C 
 6320      53425472 
 6320      616E736D 
 6320      69744572 
 6321              	.LASF77:
 6322 01a8 43414E78 		.ascii	"CANx\000"
 6322      00
 6323              	.LASF94:
 6324 01ad 6572726F 		.ascii	"errorcode\000"
 6324      72636F64 
 6324      6500
 6325              	.LASF10:
 6326 01b7 6C6F6E67 		.ascii	"long long unsigned int\000"
 6326      206C6F6E 
 6326      6720756E 
 6326      7369676E 
 6326      65642069 
 6327              	.LASF107:
 6328 01ce 43414E5F 		.ascii	"CAN_FIFORelease\000"
 6328      4649464F 
 6328      52656C65 
 6328      61736500 
 6329              	.LASF80:
 6330 01de 69747374 		.ascii	"itstatus\000"
 6330      61747573 
 6330      00
 6331              	.LASF117:
 6332 01e7 7472616E 		.ascii	"transmit_mailbox\000"
 6332      736D6974 
 6332      5F6D6169 
 6332      6C626F78 
 6332      00
ARM GAS  G:\Users\Jaxb\AppData\Local\Temp\cc1bUhhc.s 			page 140


 6333              	.LASF4:
 6334 01f8 5F5F7569 		.ascii	"__uint16_t\000"
 6334      6E743136 
 6334      5F7400
 6335              	.LASF49:
 6336 0203 43414E5F 		.ascii	"CAN_Mode\000"
 6336      4D6F6465 
 6336      00
 6337              	.LASF59:
 6338 020c 43414E5F 		.ascii	"CAN_InitTypeDef\000"
 6338      496E6974 
 6338      54797065 
 6338      44656600 
 6339              	.LASF79:
 6340 021c 70656E64 		.ascii	"pendingbitstatus\000"
 6340      696E6762 
 6340      69747374 
 6340      61747573 
 6340      00
 6341              	.LASF57:
 6342 022d 43414E5F 		.ascii	"CAN_RFLM\000"
 6342      52464C4D 
 6342      00
 6343              	.LASF69:
 6344 0236 43414E5F 		.ascii	"CAN_FilterInitTypeDef\000"
 6344      46696C74 
 6344      6572496E 
 6344      69745479 
 6344      70654465 
 6345              	.LASF91:
 6346 024c 636F756E 		.ascii	"counter\000"
 6346      74657200 
 6347              	.LASF60:
 6348 0254 43414E5F 		.ascii	"CAN_FilterIdHigh\000"
 6348      46696C74 
 6348      65724964 
 6348      48696768 
 6348      00
 6349              	.LASF74:
 6350 0265 43616E52 		.ascii	"CanRxMsg\000"
 6350      784D7367 
 6350      00
 6351              	.LASF93:
 6352 026e 43414E5F 		.ascii	"CAN_GetLastErrorCode\000"
 6352      4765744C 
 6352      61737445 
 6352      72726F72 
 6352      436F6465 
 6353              	.LASF97:
 6354 0283 77616B65 		.ascii	"wakeupstatus\000"
 6354      75707374 
 6354      61747573 
 6354      00
 6355              	.LASF19:
 6356 0290 49545374 		.ascii	"ITStatus\000"
 6356      61747573 
 6356      00
ARM GAS  G:\Users\Jaxb\AppData\Local\Temp\cc1bUhhc.s 			page 141


 6357              	.LASF66:
 6358 0299 43414E5F 		.ascii	"CAN_FilterMode\000"
 6358      46696C74 
 6358      65724D6F 
 6358      646500
 6359              	.LASF62:
 6360 02a8 43414E5F 		.ascii	"CAN_FilterMaskIdHigh\000"
 6360      46696C74 
 6360      65724D61 
 6360      736B4964 
 6360      48696768 
 6361              	.LASF88:
 6362 02bd 43414E5F 		.ascii	"CAN_ITConfig\000"
 6362      4954436F 
 6362      6E666967 
 6362      00
 6363              	.LASF116:
 6364 02ca 54784D65 		.ascii	"TxMessage\000"
 6364      73736167 
 6364      6500
 6365              	.LASF89:
 6366 02d4 4E657753 		.ascii	"NewState\000"
 6366      74617465 
 6366      00
 6367              	.LASF63:
 6368 02dd 43414E5F 		.ascii	"CAN_FilterMaskIdLow\000"
 6368      46696C74 
 6368      65724D61 
 6368      736B4964 
 6368      4C6F7700 
 6369              	.LASF56:
 6370 02f1 43414E5F 		.ascii	"CAN_NART\000"
 6370      4E415254 
 6370      00
 6371              	.LASF20:
 6372 02fa 44495341 		.ascii	"DISABLE\000"
 6372      424C4500 
 6373              	.LASF53:
 6374 0302 43414E5F 		.ascii	"CAN_TTCM\000"
 6374      5454434D 
 6374      00
 6375              	.LASF126:
 6376 030b 66696C74 		.ascii	"filter_number_bit_pos\000"
 6376      65725F6E 
 6376      756D6265 
 6376      725F6269 
 6376      745F706F 
 6377              	.LASF27:
 6378 0321 52445452 		.ascii	"RDTR\000"
 6378      00
 6379              	.LASF12:
 6380 0326 75696E74 		.ascii	"uint8_t\000"
 6380      385F7400 
 6381              	.LASF102:
 6382 032e 73746174 		.ascii	"status\000"
 6382      757300
 6383              	.LASF26:
ARM GAS  G:\Users\Jaxb\AppData\Local\Temp\cc1bUhhc.s 			page 142


 6384 0335 43414E5F 		.ascii	"CAN_TxMailBox_TypeDef\000"
 6384      54784D61 
 6384      696C426F 
 6384      785F5479 
 6384      70654465 
 6385              	.LASF123:
 6386 034b 43414E5F 		.ascii	"CAN_InitStruct\000"
 6386      496E6974 
 6386      53747275 
 6386      637400
 6387              	.LASF95:
 6388 035a 43414E5F 		.ascii	"CAN_WakeUp\000"
 6388      57616B65 
 6388      557000
 6389              	.LASF100:
 6390 0365 43414E5F 		.ascii	"CAN_OperatingModeRequest\000"
 6390      4F706572 
 6390      6174696E 
 6390      674D6F64 
 6390      65526571 
 6391              	.LASF36:
 6392 037e 73464946 		.ascii	"sFIFOMailBox\000"
 6392      4F4D6169 
 6392      6C426F78 
 6392      00
 6393              	.LASF85:
 6394 038b 43414E5F 		.ascii	"CAN_GetITStatus\000"
 6394      47657449 
 6394      54537461 
 6394      74757300 
 6395              	.LASF112:
 6396 039b 43414E5F 		.ascii	"CAN_TransmitStatus\000"
 6396      5472616E 
 6396      736D6974 
 6396      53746174 
 6396      757300
 6397              	.LASF9:
 6398 03ae 6C6F6E67 		.ascii	"long long int\000"
 6398      206C6F6E 
 6398      6720696E 
 6398      7400
 6399              	.LASF70:
 6400 03bc 53746449 		.ascii	"StdId\000"
 6400      6400
 6401              	.LASF99:
 6402 03c2 736C6565 		.ascii	"sleepstatus\000"
 6402      70737461 
 6402      74757300 
 6403              	.LASF130:
 6404 03ce 474E5520 		.ascii	"GNU C11 7.3.1 20180622 (release) [ARM/embedded-7-br"
 6404      43313120 
 6404      372E332E 
 6404      31203230 
 6404      31383036 
 6405 0401 616E6368 		.ascii	"anch revision 261907] -mcpu=cortex-m3 -mthumb -mapc"
 6405      20726576 
 6405      6973696F 
ARM GAS  G:\Users\Jaxb\AppData\Local\Temp\cc1bUhhc.s 			page 143


 6405      6E203236 
 6405      31393037 
 6406 0434 732D6672 		.ascii	"s-frame -mthumb-interwork -mcpu=cortex-m3 -mthumb -"
 6406      616D6520 
 6406      2D6D7468 
 6406      756D622D 
 6406      696E7465 
 6407 0467 67647761 		.ascii	"gdwarf-2 -O0\000"
 6407      72662D32 
 6407      202D4F30 
 6407      00
 6408              	.LASF119:
 6409 0474 43414E5F 		.ascii	"CAN_DBGFreeze\000"
 6409      44424746 
 6409      7265657A 
 6409      6500
 6410              	.LASF51:
 6411 0482 43414E5F 		.ascii	"CAN_BS1\000"
 6411      42533100 
 6412              	.LASF52:
 6413 048a 43414E5F 		.ascii	"CAN_BS2\000"
 6413      42533200 
 6414              	.LASF64:
 6415 0492 43414E5F 		.ascii	"CAN_FilterFIFOAssignment\000"
 6415      46696C74 
 6415      65724649 
 6415      464F4173 
 6415      7369676E 
 6416              	.LASF47:
 6417 04ab 43414E5F 		.ascii	"CAN_TypeDef\000"
 6417      54797065 
 6417      44656600 
 6418              	.LASF68:
 6419 04b7 43414E5F 		.ascii	"CAN_FilterActivation\000"
 6419      46696C74 
 6419      65724163 
 6419      74697661 
 6419      74696F6E 
 6420              	.LASF101:
 6421 04cc 43414E5F 		.ascii	"CAN_OperatingMode\000"
 6421      4F706572 
 6421      6174696E 
 6421      674D6F64 
 6421      6500
 6422              	.LASF23:
 6423 04de 54445452 		.ascii	"TDTR\000"
 6423      00
 6424              	.LASF13:
 6425 04e3 75696E74 		.ascii	"uint16_t\000"
 6425      31365F74 
 6425      00
 6426              	.LASF61:
 6427 04ec 43414E5F 		.ascii	"CAN_FilterIdLow\000"
 6427      46696C74 
 6427      65724964 
 6427      4C6F7700 
 6428              	.LASF115:
ARM GAS  G:\Users\Jaxb\AppData\Local\Temp\cc1bUhhc.s 			page 144


 6429 04fc 43414E5F 		.ascii	"CAN_Transmit\000"
 6429      5472616E 
 6429      736D6974 
 6429      00
 6430              	.LASF73:
 6431 0509 43616E54 		.ascii	"CanTxMsg\000"
 6431      784D7367 
 6431      00
 6432              	.LASF29:
 6433 0512 52444852 		.ascii	"RDHR\000"
 6433      00
 6434              	.LASF84:
 6435 0517 666C6167 		.ascii	"flagtmp\000"
 6435      746D7000 
 6436              	.LASF48:
 6437 051f 43414E5F 		.ascii	"CAN_Prescaler\000"
 6437      50726573 
 6437      63616C65 
 6437      7200
 6438              	.LASF34:
 6439 052d 52455345 		.ascii	"RESERVED0\000"
 6439      52564544 
 6439      3000
 6440              	.LASF37:
 6441 0537 52455345 		.ascii	"RESERVED1\000"
 6441      52564544 
 6441      3100
 6442              	.LASF39:
 6443 0541 52455345 		.ascii	"RESERVED2\000"
 6443      52564544 
 6443      3200
 6444              	.LASF131:
 6445 054b 2E2E2F2E 		.ascii	"../../source/src/FWlib/src/stm32f10x_can.c\000"
 6445      2E2F736F 
 6445      75726365 
 6445      2F737263 
 6445      2F46576C 
 6446              	.LASF43:
 6447 0576 52455345 		.ascii	"RESERVED4\000"
 6447      52564544 
 6447      3400
 6448              	.LASF45:
 6449 0580 52455345 		.ascii	"RESERVED5\000"
 6449      52564544 
 6449      3500
 6450              	.LASF2:
 6451 058a 73686F72 		.ascii	"short int\000"
 6451      7420696E 
 6451      7400
 6452              	.LASF6:
 6453 0594 6C6F6E67 		.ascii	"long int\000"
 6453      20696E74 
 6453      00
 6454              	.LASF67:
 6455 059d 43414E5F 		.ascii	"CAN_FilterScale\000"
 6455      46696C74 
 6455      65725363 
ARM GAS  G:\Users\Jaxb\AppData\Local\Temp\cc1bUhhc.s 			page 145


 6455      616C6500 
 6456              	.LASF128:
 6457 05ad 496E6974 		.ascii	"InitStatus\000"
 6457      53746174 
 6457      757300
 6458              	.LASF15:
 6459 05b8 49544D5F 		.ascii	"ITM_RxBuffer\000"
 6459      52784275 
 6459      66666572 
 6459      00
 6460              	.LASF133:
 6461 05c5 43686563 		.ascii	"CheckITStatus\000"
 6461      6B495453 
 6461      74617475 
 6461      7300
 6462              	.LASF86:
 6463 05d3 43414E5F 		.ascii	"CAN_GetFlagStatus\000"
 6463      47657446 
 6463      6C616753 
 6463      74617475 
 6463      7300
 6464              	.LASF17:
 6465 05e5 52455345 		.ascii	"RESET\000"
 6465      5400
 6466              	.LASF96:
 6467 05eb 77616974 		.ascii	"wait_slak\000"
 6467      5F736C61 
 6467      6B00
 6468              	.LASF129:
 6469 05f5 77616974 		.ascii	"wait_ack\000"
 6469      5F61636B 
 6469      00
 6470              	.LASF120:
 6471 05fe 43414E5F 		.ascii	"CAN_SlaveStartBank\000"
 6471      536C6176 
 6471      65537461 
 6471      72744261 
 6471      6E6B00
 6472              	.LASF50:
 6473 0611 43414E5F 		.ascii	"CAN_SJW\000"
 6473      534A5700 
 6474              	.LASF108:
 6475 0619 43414E5F 		.ascii	"CAN_Receive\000"
 6475      52656365 
 6475      69766500 
 6476              	.LASF3:
 6477 0625 5F5F7569 		.ascii	"__uint8_t\000"
 6477      6E74385F 
 6477      7400
 6478              	.LASF125:
 6479 062f 43414E5F 		.ascii	"CAN_FilterInitStruct\000"
 6479      46696C74 
 6479      6572496E 
 6479      69745374 
 6479      72756374 
 6480              	.LASF21:
 6481 0644 454E4142 		.ascii	"ENABLE\000"
ARM GAS  G:\Users\Jaxb\AppData\Local\Temp\cc1bUhhc.s 			page 146


 6481      4C4500
 6482              	.LASF38:
 6483 064b 464D3152 		.ascii	"FM1R\000"
 6483      00
 6484              	.LASF8:
 6485 0650 6C6F6E67 		.ascii	"long unsigned int\000"
 6485      20756E73 
 6485      69676E65 
 6485      6420696E 
 6485      7400
 6486              	.LASF31:
 6487 0662 43414E5F 		.ascii	"CAN_FilterRegister_TypeDef\000"
 6487      46696C74 
 6487      65725265 
 6487      67697374 
 6487      65725F54 
 6488              	.LASF25:
 6489 067d 54444852 		.ascii	"TDHR\000"
 6489      00
 6490              	.LASF30:
 6491 0682 43414E5F 		.ascii	"CAN_FIFOMailBox_TypeDef\000"
 6491      4649464F 
 6491      4D61696C 
 6491      426F785F 
 6491      54797065 
 6492              	.LASF55:
 6493 069a 43414E5F 		.ascii	"CAN_AWUM\000"
 6493      4157554D 
 6493      00
 6494              	.LASF1:
 6495 06a3 756E7369 		.ascii	"unsigned char\000"
 6495      676E6564 
 6495      20636861 
 6495      7200
 6496              	.LASF109:
 6497 06b1 52784D65 		.ascii	"RxMessage\000"
 6497      73736167 
 6497      6500
 6498              	.LASF7:
 6499 06bb 5F5F7569 		.ascii	"__uint32_t\000"
 6499      6E743332 
 6499      5F7400
 6500              	.LASF65:
 6501 06c6 43414E5F 		.ascii	"CAN_FilterNumber\000"
 6501      46696C74 
 6501      65724E75 
 6501      6D626572 
 6501      00
 6502              	.LASF134:
 6503 06d7 43414E5F 		.ascii	"CAN_DeInit\000"
 6503      4465496E 
 6503      697400
 6504              	.LASF103:
 6505 06e2 74696D65 		.ascii	"timeout\000"
 6505      6F757400 
 6506              	.LASF82:
 6507 06ea 43414E5F 		.ascii	"CAN_ClearFlag\000"
ARM GAS  G:\Users\Jaxb\AppData\Local\Temp\cc1bUhhc.s 			page 147


 6507      436C6561 
 6507      72466C61 
 6507      6700
 6508              	.LASF32:
 6509 06f8 52463052 		.ascii	"RF0R\000"
 6509      00
 6510              	.LASF114:
 6511 06fd 73746174 		.ascii	"state\000"
 6511      6500
 6512              	.LASF0:
 6513 0703 7369676E 		.ascii	"signed char\000"
 6513      65642063 
 6513      68617200 
 6514              	.LASF28:
 6515 070f 52444C52 		.ascii	"RDLR\000"
 6515      00
 6516              	.LASF5:
 6517 0714 73686F72 		.ascii	"short unsigned int\000"
 6517      7420756E 
 6517      7369676E 
 6517      65642069 
 6517      6E7400
 6518              	.LASF127:
 6519 0727 43414E5F 		.ascii	"CAN_Init\000"
 6519      496E6974 
 6519      00
 6520              	.LASF33:
 6521 0730 52463152 		.ascii	"RF1R\000"
 6521      00
 6522              	.LASF87:
 6523 0735 62697473 		.ascii	"bitstatus\000"
 6523      74617475 
 6523      7300
 6524              	.LASF110:
 6525 073f 43414E5F 		.ascii	"CAN_CancelTransmit\000"
 6525      43616E63 
 6525      656C5472 
 6525      616E736D 
 6525      697400
 6526              	.LASF78:
 6527 0752 43414E5F 		.ascii	"CAN_IT\000"
 6527      495400
 6528              	.LASF72:
 6529 0759 44617461 		.ascii	"Data\000"
 6529      00
 6530              	.LASF124:
 6531 075e 43414E5F 		.ascii	"CAN_FilterInit\000"
 6531      46696C74 
 6531      6572496E 
 6531      697400
 6532              		.ident	"GCC: (GNU Tools for Arm Embedded Processors 7-2018-q2-update) 7.3.1 20180622 (release) [AR
ARM GAS  G:\Users\Jaxb\AppData\Local\Temp\cc1bUhhc.s 			page 148


DEFINED SYMBOLS
                            *ABS*:00000000 stm32f10x_can.c
G:\Users\Jaxb\AppData\Local\Temp\cc1bUhhc.s:15     .text:00000000 $t
G:\Users\Jaxb\AppData\Local\Temp\cc1bUhhc.s:22     .text:00000000 CAN_DeInit
G:\Users\Jaxb\AppData\Local\Temp\cc1bUhhc.s:79     .text:00000044 $d
G:\Users\Jaxb\AppData\Local\Temp\cc1bUhhc.s:83     .text:00000048 $t
G:\Users\Jaxb\AppData\Local\Temp\cc1bUhhc.s:90     .text:00000048 CAN_Init
G:\Users\Jaxb\AppData\Local\Temp\cc1bUhhc.s:379    .text:000001e8 CAN_FilterInit
G:\Users\Jaxb\AppData\Local\Temp\cc1bUhhc.s:612    .text:00000368 $d
G:\Users\Jaxb\AppData\Local\Temp\cc1bUhhc.s:616    .text:0000036c $t
G:\Users\Jaxb\AppData\Local\Temp\cc1bUhhc.s:623    .text:0000036c CAN_StructInit
G:\Users\Jaxb\AppData\Local\Temp\cc1bUhhc.s:709    .text:000003c0 CAN_SlaveStartBank
G:\Users\Jaxb\AppData\Local\Temp\cc1bUhhc.s:772    .text:0000041c $d
G:\Users\Jaxb\AppData\Local\Temp\cc1bUhhc.s:776    .text:00000420 $t
G:\Users\Jaxb\AppData\Local\Temp\cc1bUhhc.s:783    .text:00000420 CAN_DBGFreeze
G:\Users\Jaxb\AppData\Local\Temp\cc1bUhhc.s:847    .text:00000456 CAN_TTComModeCmd
G:\Users\Jaxb\AppData\Local\Temp\cc1bUhhc.s:947    .text:000004ec CAN_Transmit
G:\Users\Jaxb\AppData\Local\Temp\cc1bUhhc.s:1225   .text:0000068c CAN_TransmitStatus
G:\Users\Jaxb\AppData\Local\Temp\cc1bUhhc.s:1386   .text:00000748 $d
G:\Users\Jaxb\AppData\Local\Temp\cc1bUhhc.s:1395   .text:00000760 $t
G:\Users\Jaxb\AppData\Local\Temp\cc1bUhhc.s:1402   .text:00000760 CAN_CancelTransmit
G:\Users\Jaxb\AppData\Local\Temp\cc1bUhhc.s:1484   .text:000007b0 CAN_Receive
G:\Users\Jaxb\AppData\Local\Temp\cc1bUhhc.s:1714   .text:0000092a CAN_FIFORelease
G:\Users\Jaxb\AppData\Local\Temp\cc1bUhhc.s:1778   .text:00000960 CAN_MessagePending
G:\Users\Jaxb\AppData\Local\Temp\cc1bUhhc.s:1855   .text:000009a8 CAN_OperatingModeRequest
G:\Users\Jaxb\AppData\Local\Temp\cc1bUhhc.s:2048   .text:00000aa2 CAN_Sleep
G:\Users\Jaxb\AppData\Local\Temp\cc1bUhhc.s:2112   .text:00000ada CAN_WakeUp
G:\Users\Jaxb\AppData\Local\Temp\cc1bUhhc.s:2197   .text:00000b2e CAN_GetLastErrorCode
G:\Users\Jaxb\AppData\Local\Temp\cc1bUhhc.s:2250   .text:00000b52 CAN_GetReceiveErrorCounter
G:\Users\Jaxb\AppData\Local\Temp\cc1bUhhc.s:2302   .text:00000b72 CAN_GetLSBTransmitErrorCounter
G:\Users\Jaxb\AppData\Local\Temp\cc1bUhhc.s:2354   .text:00000b92 CAN_ITConfig
G:\Users\Jaxb\AppData\Local\Temp\cc1bUhhc.s:2422   .text:00000bcc CAN_GetFlagStatus
G:\Users\Jaxb\AppData\Local\Temp\cc1bUhhc.s:2579   .text:00000c98 CAN_ClearFlag
G:\Users\Jaxb\AppData\Local\Temp\cc1bUhhc.s:2675   .text:00000d04 $d
G:\Users\Jaxb\AppData\Local\Temp\cc1bUhhc.s:2679   .text:00000d08 $t
G:\Users\Jaxb\AppData\Local\Temp\cc1bUhhc.s:2686   .text:00000d08 CAN_GetITStatus
G:\Users\Jaxb\AppData\Local\Temp\cc1bUhhc.s:3135   .text:00000f78 CheckITStatus
G:\Users\Jaxb\AppData\Local\Temp\cc1bUhhc.s:2939   .text:00000e98 $d
G:\Users\Jaxb\AppData\Local\Temp\cc1bUhhc.s:2943   .text:00000e9c $t
G:\Users\Jaxb\AppData\Local\Temp\cc1bUhhc.s:2950   .text:00000e9c CAN_ClearITPendingBit
G:\Users\Jaxb\AppData\Local\Temp\cc1bUhhc.s:3125   .text:00000f74 $d
G:\Users\Jaxb\AppData\Local\Temp\cc1bUhhc.s:3129   .text:00000f78 $t

UNDEFINED SYMBOLS
RCC_APB1PeriphResetCmd
