ARM GAS  G:\Users\Jaxb\AppData\Local\Temp\cc6z0kxo.s 			page 1


   1              		.cpu cortex-m3
   2              		.eabi_attribute 20, 1
   3              		.eabi_attribute 21, 1
   4              		.eabi_attribute 23, 3
   5              		.eabi_attribute 24, 1
   6              		.eabi_attribute 25, 1
   7              		.eabi_attribute 26, 1
   8              		.eabi_attribute 30, 2
   9              		.eabi_attribute 34, 1
  10              		.eabi_attribute 18, 4
  11              		.file	"stm32f10x_fsmc.c"
  12              		.text
  13              	.Ltext0:
  14              		.cfi_sections	.debug_frame
  15              		.align	1
  16              		.p2align 2,,3
  17              		.global	FSMC_NORSRAMDeInit
  18              		.syntax unified
  19              		.thumb
  20              		.thumb_func
  21              		.fpu softvfp
  22              		.type	FSMC_NORSRAMDeInit, %function
  23              	FSMC_NORSRAMDeInit:
  24              	.LFB29:
  25              		.file 1 "../../source/src/FWlib/src/stm32f10x_fsmc.c"
   1:../../source/src/FWlib/src/stm32f10x_fsmc.c **** /**
   2:../../source/src/FWlib/src/stm32f10x_fsmc.c ****   ******************************************************************************
   3:../../source/src/FWlib/src/stm32f10x_fsmc.c ****   * @file    stm32f10x_fsmc.c
   4:../../source/src/FWlib/src/stm32f10x_fsmc.c ****   * @author  MCD Application Team
   5:../../source/src/FWlib/src/stm32f10x_fsmc.c ****   * @version V3.5.0
   6:../../source/src/FWlib/src/stm32f10x_fsmc.c ****   * @date    11-March-2011
   7:../../source/src/FWlib/src/stm32f10x_fsmc.c ****   * @brief   This file provides all the FSMC firmware functions.
   8:../../source/src/FWlib/src/stm32f10x_fsmc.c ****   ******************************************************************************
   9:../../source/src/FWlib/src/stm32f10x_fsmc.c ****   * @attention
  10:../../source/src/FWlib/src/stm32f10x_fsmc.c ****   *
  11:../../source/src/FWlib/src/stm32f10x_fsmc.c ****   * THE PRESENT FIRMWARE WHICH IS FOR GUIDANCE ONLY AIMS AT PROVIDING CUSTOMERS
  12:../../source/src/FWlib/src/stm32f10x_fsmc.c ****   * WITH CODING INFORMATION REGARDING THEIR PRODUCTS IN ORDER FOR THEM TO SAVE
  13:../../source/src/FWlib/src/stm32f10x_fsmc.c ****   * TIME. AS A RESULT, STMICROELECTRONICS SHALL NOT BE HELD LIABLE FOR ANY
  14:../../source/src/FWlib/src/stm32f10x_fsmc.c ****   * DIRECT, INDIRECT OR CONSEQUENTIAL DAMAGES WITH RESPECT TO ANY CLAIMS ARISING
  15:../../source/src/FWlib/src/stm32f10x_fsmc.c ****   * FROM THE CONTENT OF SUCH FIRMWARE AND/OR THE USE MADE BY CUSTOMERS OF THE
  16:../../source/src/FWlib/src/stm32f10x_fsmc.c ****   * CODING INFORMATION CONTAINED HEREIN IN CONNECTION WITH THEIR PRODUCTS.
  17:../../source/src/FWlib/src/stm32f10x_fsmc.c ****   *
  18:../../source/src/FWlib/src/stm32f10x_fsmc.c ****   * <h2><center>&copy; COPYRIGHT 2011 STMicroelectronics</center></h2>
  19:../../source/src/FWlib/src/stm32f10x_fsmc.c ****   ******************************************************************************
  20:../../source/src/FWlib/src/stm32f10x_fsmc.c ****   */
  21:../../source/src/FWlib/src/stm32f10x_fsmc.c **** 
  22:../../source/src/FWlib/src/stm32f10x_fsmc.c **** /* Includes ------------------------------------------------------------------*/
  23:../../source/src/FWlib/src/stm32f10x_fsmc.c **** #include "stm32f10x_fsmc.h"
  24:../../source/src/FWlib/src/stm32f10x_fsmc.c **** #include "stm32f10x_rcc.h"
  25:../../source/src/FWlib/src/stm32f10x_fsmc.c **** 
  26:../../source/src/FWlib/src/stm32f10x_fsmc.c **** /** @addtogroup STM32F10x_StdPeriph_Driver
  27:../../source/src/FWlib/src/stm32f10x_fsmc.c ****   * @{
  28:../../source/src/FWlib/src/stm32f10x_fsmc.c ****   */
  29:../../source/src/FWlib/src/stm32f10x_fsmc.c **** 
  30:../../source/src/FWlib/src/stm32f10x_fsmc.c **** /** @defgroup FSMC 
  31:../../source/src/FWlib/src/stm32f10x_fsmc.c ****   * @brief FSMC driver modules
  32:../../source/src/FWlib/src/stm32f10x_fsmc.c ****   * @{
ARM GAS  G:\Users\Jaxb\AppData\Local\Temp\cc6z0kxo.s 			page 2


  33:../../source/src/FWlib/src/stm32f10x_fsmc.c ****   */ 
  34:../../source/src/FWlib/src/stm32f10x_fsmc.c **** 
  35:../../source/src/FWlib/src/stm32f10x_fsmc.c **** /** @defgroup FSMC_Private_TypesDefinitions
  36:../../source/src/FWlib/src/stm32f10x_fsmc.c ****   * @{
  37:../../source/src/FWlib/src/stm32f10x_fsmc.c ****   */ 
  38:../../source/src/FWlib/src/stm32f10x_fsmc.c **** /**
  39:../../source/src/FWlib/src/stm32f10x_fsmc.c ****   * @}
  40:../../source/src/FWlib/src/stm32f10x_fsmc.c ****   */
  41:../../source/src/FWlib/src/stm32f10x_fsmc.c **** 
  42:../../source/src/FWlib/src/stm32f10x_fsmc.c **** /** @defgroup FSMC_Private_Defines
  43:../../source/src/FWlib/src/stm32f10x_fsmc.c ****   * @{
  44:../../source/src/FWlib/src/stm32f10x_fsmc.c ****   */
  45:../../source/src/FWlib/src/stm32f10x_fsmc.c **** 
  46:../../source/src/FWlib/src/stm32f10x_fsmc.c **** /* --------------------- FSMC registers bit mask ---------------------------- */
  47:../../source/src/FWlib/src/stm32f10x_fsmc.c **** 
  48:../../source/src/FWlib/src/stm32f10x_fsmc.c **** /* FSMC BCRx Mask */
  49:../../source/src/FWlib/src/stm32f10x_fsmc.c **** #define BCR_MBKEN_Set                       ((uint32_t)0x00000001)
  50:../../source/src/FWlib/src/stm32f10x_fsmc.c **** #define BCR_MBKEN_Reset                     ((uint32_t)0x000FFFFE)
  51:../../source/src/FWlib/src/stm32f10x_fsmc.c **** #define BCR_FACCEN_Set                      ((uint32_t)0x00000040)
  52:../../source/src/FWlib/src/stm32f10x_fsmc.c **** 
  53:../../source/src/FWlib/src/stm32f10x_fsmc.c **** /* FSMC PCRx Mask */
  54:../../source/src/FWlib/src/stm32f10x_fsmc.c **** #define PCR_PBKEN_Set                       ((uint32_t)0x00000004)
  55:../../source/src/FWlib/src/stm32f10x_fsmc.c **** #define PCR_PBKEN_Reset                     ((uint32_t)0x000FFFFB)
  56:../../source/src/FWlib/src/stm32f10x_fsmc.c **** #define PCR_ECCEN_Set                       ((uint32_t)0x00000040)
  57:../../source/src/FWlib/src/stm32f10x_fsmc.c **** #define PCR_ECCEN_Reset                     ((uint32_t)0x000FFFBF)
  58:../../source/src/FWlib/src/stm32f10x_fsmc.c **** #define PCR_MemoryType_NAND                 ((uint32_t)0x00000008)
  59:../../source/src/FWlib/src/stm32f10x_fsmc.c **** /**
  60:../../source/src/FWlib/src/stm32f10x_fsmc.c ****   * @}
  61:../../source/src/FWlib/src/stm32f10x_fsmc.c ****   */
  62:../../source/src/FWlib/src/stm32f10x_fsmc.c **** 
  63:../../source/src/FWlib/src/stm32f10x_fsmc.c **** /** @defgroup FSMC_Private_Macros
  64:../../source/src/FWlib/src/stm32f10x_fsmc.c ****   * @{
  65:../../source/src/FWlib/src/stm32f10x_fsmc.c ****   */
  66:../../source/src/FWlib/src/stm32f10x_fsmc.c **** 
  67:../../source/src/FWlib/src/stm32f10x_fsmc.c **** /**
  68:../../source/src/FWlib/src/stm32f10x_fsmc.c ****   * @}
  69:../../source/src/FWlib/src/stm32f10x_fsmc.c ****   */
  70:../../source/src/FWlib/src/stm32f10x_fsmc.c **** 
  71:../../source/src/FWlib/src/stm32f10x_fsmc.c **** /** @defgroup FSMC_Private_Variables
  72:../../source/src/FWlib/src/stm32f10x_fsmc.c ****   * @{
  73:../../source/src/FWlib/src/stm32f10x_fsmc.c ****   */
  74:../../source/src/FWlib/src/stm32f10x_fsmc.c **** 
  75:../../source/src/FWlib/src/stm32f10x_fsmc.c **** /**
  76:../../source/src/FWlib/src/stm32f10x_fsmc.c ****   * @}
  77:../../source/src/FWlib/src/stm32f10x_fsmc.c ****   */
  78:../../source/src/FWlib/src/stm32f10x_fsmc.c **** 
  79:../../source/src/FWlib/src/stm32f10x_fsmc.c **** /** @defgroup FSMC_Private_FunctionPrototypes
  80:../../source/src/FWlib/src/stm32f10x_fsmc.c ****   * @{
  81:../../source/src/FWlib/src/stm32f10x_fsmc.c ****   */
  82:../../source/src/FWlib/src/stm32f10x_fsmc.c **** 
  83:../../source/src/FWlib/src/stm32f10x_fsmc.c **** /**
  84:../../source/src/FWlib/src/stm32f10x_fsmc.c ****   * @}
  85:../../source/src/FWlib/src/stm32f10x_fsmc.c ****   */
  86:../../source/src/FWlib/src/stm32f10x_fsmc.c **** 
  87:../../source/src/FWlib/src/stm32f10x_fsmc.c **** /** @defgroup FSMC_Private_Functions
  88:../../source/src/FWlib/src/stm32f10x_fsmc.c ****   * @{
  89:../../source/src/FWlib/src/stm32f10x_fsmc.c ****   */
ARM GAS  G:\Users\Jaxb\AppData\Local\Temp\cc6z0kxo.s 			page 3


  90:../../source/src/FWlib/src/stm32f10x_fsmc.c **** 
  91:../../source/src/FWlib/src/stm32f10x_fsmc.c **** /**
  92:../../source/src/FWlib/src/stm32f10x_fsmc.c ****   * @brief  Deinitializes the FSMC NOR/SRAM Banks registers to their default 
  93:../../source/src/FWlib/src/stm32f10x_fsmc.c ****   *         reset values.
  94:../../source/src/FWlib/src/stm32f10x_fsmc.c ****   * @param  FSMC_Bank: specifies the FSMC Bank to be used
  95:../../source/src/FWlib/src/stm32f10x_fsmc.c ****   *   This parameter can be one of the following values:
  96:../../source/src/FWlib/src/stm32f10x_fsmc.c ****   *     @arg FSMC_Bank1_NORSRAM1: FSMC Bank1 NOR/SRAM1  
  97:../../source/src/FWlib/src/stm32f10x_fsmc.c ****   *     @arg FSMC_Bank1_NORSRAM2: FSMC Bank1 NOR/SRAM2 
  98:../../source/src/FWlib/src/stm32f10x_fsmc.c ****   *     @arg FSMC_Bank1_NORSRAM3: FSMC Bank1 NOR/SRAM3 
  99:../../source/src/FWlib/src/stm32f10x_fsmc.c ****   *     @arg FSMC_Bank1_NORSRAM4: FSMC Bank1 NOR/SRAM4 
 100:../../source/src/FWlib/src/stm32f10x_fsmc.c ****   * @retval None
 101:../../source/src/FWlib/src/stm32f10x_fsmc.c ****   */
 102:../../source/src/FWlib/src/stm32f10x_fsmc.c **** void FSMC_NORSRAMDeInit(uint32_t FSMC_Bank)
 103:../../source/src/FWlib/src/stm32f10x_fsmc.c **** {
  26              		.loc 1 103 0
  27              		.cfi_startproc
  28              		@ args = 0, pretend = 0, frame = 0
  29              		@ frame_needed = 0, uses_anonymous_args = 0
  30              		@ link register save eliminated.
  31              	.LVL0:
 104:../../source/src/FWlib/src/stm32f10x_fsmc.c ****   /* Check the parameter */
 105:../../source/src/FWlib/src/stm32f10x_fsmc.c ****   assert_param(IS_FSMC_NORSRAM_BANK(FSMC_Bank));
 106:../../source/src/FWlib/src/stm32f10x_fsmc.c ****   
 107:../../source/src/FWlib/src/stm32f10x_fsmc.c ****   /* FSMC_Bank1_NORSRAM1 */
 108:../../source/src/FWlib/src/stm32f10x_fsmc.c ****   if(FSMC_Bank == FSMC_Bank1_NORSRAM1)
 109:../../source/src/FWlib/src/stm32f10x_fsmc.c ****   {
 110:../../source/src/FWlib/src/stm32f10x_fsmc.c ****     FSMC_Bank1->BTCR[FSMC_Bank] = 0x000030DB;    
  32              		.loc 1 110 0
  33 0000 4FF02043 		mov	r3, #-1610612736
 108:../../source/src/FWlib/src/stm32f10x_fsmc.c ****   {
  34              		.loc 1 108 0
  35 0004 60B1     		cbz	r0, .L5
 111:../../source/src/FWlib/src/stm32f10x_fsmc.c ****   }
 112:../../source/src/FWlib/src/stm32f10x_fsmc.c ****   /* FSMC_Bank1_NORSRAM2,  FSMC_Bank1_NORSRAM3 or FSMC_Bank1_NORSRAM4 */
 113:../../source/src/FWlib/src/stm32f10x_fsmc.c ****   else
 114:../../source/src/FWlib/src/stm32f10x_fsmc.c ****   {   
 115:../../source/src/FWlib/src/stm32f10x_fsmc.c ****     FSMC_Bank1->BTCR[FSMC_Bank] = 0x000030D2; 
  36              		.loc 1 115 0
  37 0006 43F2D202 		movw	r2, #12498
  38 000a 43F82020 		str	r2, [r3, r0, lsl #2]
  39              	.L3:
 116:../../source/src/FWlib/src/stm32f10x_fsmc.c ****   }
 117:../../source/src/FWlib/src/stm32f10x_fsmc.c ****   FSMC_Bank1->BTCR[FSMC_Bank + 1] = 0x0FFFFFFF;
  40              		.loc 1 117 0
  41 000e 6FF07043 		mvn	r3, #-268435456
  42 0012 8000     		lsls	r0, r0, #2
  43              	.LVL1:
  44 0014 00F12040 		add	r0, r0, #-1610612736
  45 0018 4360     		str	r3, [r0, #4]
 118:../../source/src/FWlib/src/stm32f10x_fsmc.c ****   FSMC_Bank1E->BWTR[FSMC_Bank] = 0x0FFFFFFF;  
  46              		.loc 1 118 0
  47 001a C0F80431 		str	r3, [r0, #260]
 119:../../source/src/FWlib/src/stm32f10x_fsmc.c **** }
  48              		.loc 1 119 0
  49 001e 7047     		bx	lr
  50              	.LVL2:
  51              	.L5:
ARM GAS  G:\Users\Jaxb\AppData\Local\Temp\cc6z0kxo.s 			page 4


 110:../../source/src/FWlib/src/stm32f10x_fsmc.c ****   }
  52              		.loc 1 110 0
  53 0020 43F2DB02 		movw	r2, #12507
  54 0024 1A60     		str	r2, [r3]
  55 0026 F2E7     		b	.L3
  56              		.cfi_endproc
  57              	.LFE29:
  58              		.size	FSMC_NORSRAMDeInit, .-FSMC_NORSRAMDeInit
  59              		.align	1
  60              		.p2align 2,,3
  61              		.global	FSMC_NANDDeInit
  62              		.syntax unified
  63              		.thumb
  64              		.thumb_func
  65              		.fpu softvfp
  66              		.type	FSMC_NANDDeInit, %function
  67              	FSMC_NANDDeInit:
  68              	.LFB30:
 120:../../source/src/FWlib/src/stm32f10x_fsmc.c **** 
 121:../../source/src/FWlib/src/stm32f10x_fsmc.c **** /**
 122:../../source/src/FWlib/src/stm32f10x_fsmc.c ****   * @brief  Deinitializes the FSMC NAND Banks registers to their default reset values.
 123:../../source/src/FWlib/src/stm32f10x_fsmc.c ****   * @param  FSMC_Bank: specifies the FSMC Bank to be used
 124:../../source/src/FWlib/src/stm32f10x_fsmc.c ****   *   This parameter can be one of the following values:
 125:../../source/src/FWlib/src/stm32f10x_fsmc.c ****   *     @arg FSMC_Bank2_NAND: FSMC Bank2 NAND 
 126:../../source/src/FWlib/src/stm32f10x_fsmc.c ****   *     @arg FSMC_Bank3_NAND: FSMC Bank3 NAND 
 127:../../source/src/FWlib/src/stm32f10x_fsmc.c ****   * @retval None
 128:../../source/src/FWlib/src/stm32f10x_fsmc.c ****   */
 129:../../source/src/FWlib/src/stm32f10x_fsmc.c **** void FSMC_NANDDeInit(uint32_t FSMC_Bank)
 130:../../source/src/FWlib/src/stm32f10x_fsmc.c **** {
  69              		.loc 1 130 0
  70              		.cfi_startproc
  71              		@ args = 0, pretend = 0, frame = 0
  72              		@ frame_needed = 0, uses_anonymous_args = 0
  73              		@ link register save eliminated.
  74              	.LVL3:
 131:../../source/src/FWlib/src/stm32f10x_fsmc.c ****   /* Check the parameter */
 132:../../source/src/FWlib/src/stm32f10x_fsmc.c ****   assert_param(IS_FSMC_NAND_BANK(FSMC_Bank));
 133:../../source/src/FWlib/src/stm32f10x_fsmc.c ****   
 134:../../source/src/FWlib/src/stm32f10x_fsmc.c ****   if(FSMC_Bank == FSMC_Bank2_NAND)
  75              		.loc 1 134 0
  76 0028 1028     		cmp	r0, #16
 135:../../source/src/FWlib/src/stm32f10x_fsmc.c ****   {
 136:../../source/src/FWlib/src/stm32f10x_fsmc.c ****     /* Set the FSMC_Bank2 registers to their reset values */
 137:../../source/src/FWlib/src/stm32f10x_fsmc.c ****     FSMC_Bank2->PCR2 = 0x00000018;
 138:../../source/src/FWlib/src/stm32f10x_fsmc.c ****     FSMC_Bank2->SR2 = 0x00000040;
 139:../../source/src/FWlib/src/stm32f10x_fsmc.c ****     FSMC_Bank2->PMEM2 = 0xFCFCFCFC;
  77              		.loc 1 139 0
  78 002a 4FF0FC32 		mov	r2, #-50529028
 137:../../source/src/FWlib/src/stm32f10x_fsmc.c ****     FSMC_Bank2->SR2 = 0x00000040;
  79              		.loc 1 137 0
  80 002e 4FF01800 		mov	r0, #24
  81              	.LVL4:
 138:../../source/src/FWlib/src/stm32f10x_fsmc.c ****     FSMC_Bank2->PMEM2 = 0xFCFCFCFC;
  82              		.loc 1 138 0
  83 0032 4FF04001 		mov	r1, #64
 137:../../source/src/FWlib/src/stm32f10x_fsmc.c ****     FSMC_Bank2->SR2 = 0x00000040;
  84              		.loc 1 137 0
ARM GAS  G:\Users\Jaxb\AppData\Local\Temp\cc6z0kxo.s 			page 5


  85 0036 0CBF     		ite	eq
  86 0038 034B     		ldreq	r3, .L9
 140:../../source/src/FWlib/src/stm32f10x_fsmc.c ****     FSMC_Bank2->PATT2 = 0xFCFCFCFC;  
 141:../../source/src/FWlib/src/stm32f10x_fsmc.c ****   }
 142:../../source/src/FWlib/src/stm32f10x_fsmc.c ****   /* FSMC_Bank3_NAND */  
 143:../../source/src/FWlib/src/stm32f10x_fsmc.c ****   else
 144:../../source/src/FWlib/src/stm32f10x_fsmc.c ****   {
 145:../../source/src/FWlib/src/stm32f10x_fsmc.c ****     /* Set the FSMC_Bank3 registers to their reset values */
 146:../../source/src/FWlib/src/stm32f10x_fsmc.c ****     FSMC_Bank3->PCR3 = 0x00000018;
  87              		.loc 1 146 0
  88 003a 044B     		ldrne	r3, .L9+4
  89 003c 1860     		str	r0, [r3]
 147:../../source/src/FWlib/src/stm32f10x_fsmc.c ****     FSMC_Bank3->SR3 = 0x00000040;
  90              		.loc 1 147 0
  91 003e 5960     		str	r1, [r3, #4]
 148:../../source/src/FWlib/src/stm32f10x_fsmc.c ****     FSMC_Bank3->PMEM3 = 0xFCFCFCFC;
  92              		.loc 1 148 0
  93 0040 9A60     		str	r2, [r3, #8]
 149:../../source/src/FWlib/src/stm32f10x_fsmc.c ****     FSMC_Bank3->PATT3 = 0xFCFCFCFC; 
  94              		.loc 1 149 0
  95 0042 DA60     		str	r2, [r3, #12]
 150:../../source/src/FWlib/src/stm32f10x_fsmc.c ****   }  
 151:../../source/src/FWlib/src/stm32f10x_fsmc.c **** }
  96              		.loc 1 151 0
  97 0044 7047     		bx	lr
  98              	.L10:
  99 0046 00BF     		.align	2
 100              	.L9:
 101 0048 600000A0 		.word	-1610612640
 102 004c 800000A0 		.word	-1610612608
 103              		.cfi_endproc
 104              	.LFE30:
 105              		.size	FSMC_NANDDeInit, .-FSMC_NANDDeInit
 106              		.align	1
 107              		.p2align 2,,3
 108              		.global	FSMC_PCCARDDeInit
 109              		.syntax unified
 110              		.thumb
 111              		.thumb_func
 112              		.fpu softvfp
 113              		.type	FSMC_PCCARDDeInit, %function
 114              	FSMC_PCCARDDeInit:
 115              	.LFB31:
 152:../../source/src/FWlib/src/stm32f10x_fsmc.c **** 
 153:../../source/src/FWlib/src/stm32f10x_fsmc.c **** /**
 154:../../source/src/FWlib/src/stm32f10x_fsmc.c ****   * @brief  Deinitializes the FSMC PCCARD Bank registers to their default reset values.
 155:../../source/src/FWlib/src/stm32f10x_fsmc.c ****   * @param  None                       
 156:../../source/src/FWlib/src/stm32f10x_fsmc.c ****   * @retval None
 157:../../source/src/FWlib/src/stm32f10x_fsmc.c ****   */
 158:../../source/src/FWlib/src/stm32f10x_fsmc.c **** void FSMC_PCCARDDeInit(void)
 159:../../source/src/FWlib/src/stm32f10x_fsmc.c **** {
 116              		.loc 1 159 0
 117              		.cfi_startproc
 118              		@ args = 0, pretend = 0, frame = 0
 119              		@ frame_needed = 0, uses_anonymous_args = 0
 120              		@ link register save eliminated.
 160:../../source/src/FWlib/src/stm32f10x_fsmc.c ****   /* Set the FSMC_Bank4 registers to their reset values */
ARM GAS  G:\Users\Jaxb\AppData\Local\Temp\cc6z0kxo.s 			page 6


 161:../../source/src/FWlib/src/stm32f10x_fsmc.c ****   FSMC_Bank4->PCR4 = 0x00000018; 
 162:../../source/src/FWlib/src/stm32f10x_fsmc.c ****   FSMC_Bank4->SR4 = 0x00000000;	
 163:../../source/src/FWlib/src/stm32f10x_fsmc.c ****   FSMC_Bank4->PMEM4 = 0xFCFCFCFC;
 121              		.loc 1 163 0
 122 0050 4FF0FC32 		mov	r2, #-50529028
 161:../../source/src/FWlib/src/stm32f10x_fsmc.c ****   FSMC_Bank4->SR4 = 0x00000000;	
 123              		.loc 1 161 0
 124 0054 1820     		movs	r0, #24
 162:../../source/src/FWlib/src/stm32f10x_fsmc.c ****   FSMC_Bank4->PMEM4 = 0xFCFCFCFC;
 125              		.loc 1 162 0
 126 0056 0021     		movs	r1, #0
 161:../../source/src/FWlib/src/stm32f10x_fsmc.c ****   FSMC_Bank4->SR4 = 0x00000000;	
 127              		.loc 1 161 0
 128 0058 034B     		ldr	r3, .L12
 129 005a 1860     		str	r0, [r3]
 162:../../source/src/FWlib/src/stm32f10x_fsmc.c ****   FSMC_Bank4->PMEM4 = 0xFCFCFCFC;
 130              		.loc 1 162 0
 131 005c 5960     		str	r1, [r3, #4]
 132              		.loc 1 163 0
 133 005e 9A60     		str	r2, [r3, #8]
 164:../../source/src/FWlib/src/stm32f10x_fsmc.c ****   FSMC_Bank4->PATT4 = 0xFCFCFCFC;
 134              		.loc 1 164 0
 135 0060 DA60     		str	r2, [r3, #12]
 165:../../source/src/FWlib/src/stm32f10x_fsmc.c ****   FSMC_Bank4->PIO4 = 0xFCFCFCFC;
 136              		.loc 1 165 0
 137 0062 1A61     		str	r2, [r3, #16]
 166:../../source/src/FWlib/src/stm32f10x_fsmc.c **** }
 138              		.loc 1 166 0
 139 0064 7047     		bx	lr
 140              	.L13:
 141 0066 00BF     		.align	2
 142              	.L12:
 143 0068 A00000A0 		.word	-1610612576
 144              		.cfi_endproc
 145              	.LFE31:
 146              		.size	FSMC_PCCARDDeInit, .-FSMC_PCCARDDeInit
 147              		.align	1
 148              		.p2align 2,,3
 149              		.global	FSMC_NORSRAMInit
 150              		.syntax unified
 151              		.thumb
 152              		.thumb_func
 153              		.fpu softvfp
 154              		.type	FSMC_NORSRAMInit, %function
 155              	FSMC_NORSRAMInit:
 156              	.LFB32:
 167:../../source/src/FWlib/src/stm32f10x_fsmc.c **** 
 168:../../source/src/FWlib/src/stm32f10x_fsmc.c **** /**
 169:../../source/src/FWlib/src/stm32f10x_fsmc.c ****   * @brief  Initializes the FSMC NOR/SRAM Banks according to the specified
 170:../../source/src/FWlib/src/stm32f10x_fsmc.c ****   *         parameters in the FSMC_NORSRAMInitStruct.
 171:../../source/src/FWlib/src/stm32f10x_fsmc.c ****   * @param  FSMC_NORSRAMInitStruct : pointer to a FSMC_NORSRAMInitTypeDef
 172:../../source/src/FWlib/src/stm32f10x_fsmc.c ****   *         structure that contains the configuration information for 
 173:../../source/src/FWlib/src/stm32f10x_fsmc.c ****   *        the FSMC NOR/SRAM specified Banks.                       
 174:../../source/src/FWlib/src/stm32f10x_fsmc.c ****   * @retval None
 175:../../source/src/FWlib/src/stm32f10x_fsmc.c ****   */
 176:../../source/src/FWlib/src/stm32f10x_fsmc.c **** void FSMC_NORSRAMInit(FSMC_NORSRAMInitTypeDef* FSMC_NORSRAMInitStruct)
 177:../../source/src/FWlib/src/stm32f10x_fsmc.c **** { 
ARM GAS  G:\Users\Jaxb\AppData\Local\Temp\cc6z0kxo.s 			page 7


 157              		.loc 1 177 0
 158              		.cfi_startproc
 159              		@ args = 0, pretend = 0, frame = 0
 160              		@ frame_needed = 0, uses_anonymous_args = 0
 161              		@ link register save eliminated.
 162              	.LVL5:
 178:../../source/src/FWlib/src/stm32f10x_fsmc.c ****   /* Check the parameters */
 179:../../source/src/FWlib/src/stm32f10x_fsmc.c ****   assert_param(IS_FSMC_NORSRAM_BANK(FSMC_NORSRAMInitStruct->FSMC_Bank));
 180:../../source/src/FWlib/src/stm32f10x_fsmc.c ****   assert_param(IS_FSMC_MUX(FSMC_NORSRAMInitStruct->FSMC_DataAddressMux));
 181:../../source/src/FWlib/src/stm32f10x_fsmc.c ****   assert_param(IS_FSMC_MEMORY(FSMC_NORSRAMInitStruct->FSMC_MemoryType));
 182:../../source/src/FWlib/src/stm32f10x_fsmc.c ****   assert_param(IS_FSMC_MEMORY_WIDTH(FSMC_NORSRAMInitStruct->FSMC_MemoryDataWidth));
 183:../../source/src/FWlib/src/stm32f10x_fsmc.c ****   assert_param(IS_FSMC_BURSTMODE(FSMC_NORSRAMInitStruct->FSMC_BurstAccessMode));
 184:../../source/src/FWlib/src/stm32f10x_fsmc.c ****   assert_param(IS_FSMC_ASYNWAIT(FSMC_NORSRAMInitStruct->FSMC_AsynchronousWait));
 185:../../source/src/FWlib/src/stm32f10x_fsmc.c ****   assert_param(IS_FSMC_WAIT_POLARITY(FSMC_NORSRAMInitStruct->FSMC_WaitSignalPolarity));
 186:../../source/src/FWlib/src/stm32f10x_fsmc.c ****   assert_param(IS_FSMC_WRAP_MODE(FSMC_NORSRAMInitStruct->FSMC_WrapMode));
 187:../../source/src/FWlib/src/stm32f10x_fsmc.c ****   assert_param(IS_FSMC_WAIT_SIGNAL_ACTIVE(FSMC_NORSRAMInitStruct->FSMC_WaitSignalActive));
 188:../../source/src/FWlib/src/stm32f10x_fsmc.c ****   assert_param(IS_FSMC_WRITE_OPERATION(FSMC_NORSRAMInitStruct->FSMC_WriteOperation));
 189:../../source/src/FWlib/src/stm32f10x_fsmc.c ****   assert_param(IS_FSMC_WAITE_SIGNAL(FSMC_NORSRAMInitStruct->FSMC_WaitSignal));
 190:../../source/src/FWlib/src/stm32f10x_fsmc.c ****   assert_param(IS_FSMC_EXTENDED_MODE(FSMC_NORSRAMInitStruct->FSMC_ExtendedMode));
 191:../../source/src/FWlib/src/stm32f10x_fsmc.c ****   assert_param(IS_FSMC_WRITE_BURST(FSMC_NORSRAMInitStruct->FSMC_WriteBurst));  
 192:../../source/src/FWlib/src/stm32f10x_fsmc.c ****   assert_param(IS_FSMC_ADDRESS_SETUP_TIME(FSMC_NORSRAMInitStruct->FSMC_ReadWriteTimingStruct->FSMC_
 193:../../source/src/FWlib/src/stm32f10x_fsmc.c ****   assert_param(IS_FSMC_ADDRESS_HOLD_TIME(FSMC_NORSRAMInitStruct->FSMC_ReadWriteTimingStruct->FSMC_A
 194:../../source/src/FWlib/src/stm32f10x_fsmc.c ****   assert_param(IS_FSMC_DATASETUP_TIME(FSMC_NORSRAMInitStruct->FSMC_ReadWriteTimingStruct->FSMC_Data
 195:../../source/src/FWlib/src/stm32f10x_fsmc.c ****   assert_param(IS_FSMC_TURNAROUND_TIME(FSMC_NORSRAMInitStruct->FSMC_ReadWriteTimingStruct->FSMC_Bus
 196:../../source/src/FWlib/src/stm32f10x_fsmc.c ****   assert_param(IS_FSMC_CLK_DIV(FSMC_NORSRAMInitStruct->FSMC_ReadWriteTimingStruct->FSMC_CLKDivision
 197:../../source/src/FWlib/src/stm32f10x_fsmc.c ****   assert_param(IS_FSMC_DATA_LATENCY(FSMC_NORSRAMInitStruct->FSMC_ReadWriteTimingStruct->FSMC_DataLa
 198:../../source/src/FWlib/src/stm32f10x_fsmc.c ****   assert_param(IS_FSMC_ACCESS_MODE(FSMC_NORSRAMInitStruct->FSMC_ReadWriteTimingStruct->FSMC_AccessM
 199:../../source/src/FWlib/src/stm32f10x_fsmc.c ****   
 200:../../source/src/FWlib/src/stm32f10x_fsmc.c ****   /* Bank1 NOR/SRAM control register configuration */ 
 201:../../source/src/FWlib/src/stm32f10x_fsmc.c ****   FSMC_Bank1->BTCR[FSMC_NORSRAMInitStruct->FSMC_Bank] = 
 202:../../source/src/FWlib/src/stm32f10x_fsmc.c ****             (uint32_t)FSMC_NORSRAMInitStruct->FSMC_DataAddressMux |
 203:../../source/src/FWlib/src/stm32f10x_fsmc.c ****             FSMC_NORSRAMInitStruct->FSMC_MemoryType |
 163              		.loc 1 203 0
 164 006c C168     		ldr	r1, [r0, #12]
 177:../../source/src/FWlib/src/stm32f10x_fsmc.c ****   /* Check the parameters */
 165              		.loc 1 177 0
 166 006e 70B4     		push	{r4, r5, r6}
 167              	.LCFI0:
 168              		.cfi_def_cfa_offset 12
 169              		.cfi_offset 4, -12
 170              		.cfi_offset 5, -8
 171              		.cfi_offset 6, -4
 202:../../source/src/FWlib/src/stm32f10x_fsmc.c ****             FSMC_NORSRAMInitStruct->FSMC_MemoryType |
 172              		.loc 1 202 0
 173 0070 D0E90132 		ldrd	r3, r2, [r0, #4]
 204:../../source/src/FWlib/src/stm32f10x_fsmc.c ****             FSMC_NORSRAMInitStruct->FSMC_MemoryDataWidth |
 174              		.loc 1 204 0
 175 0074 0469     		ldr	r4, [r0, #16]
 202:../../source/src/FWlib/src/stm32f10x_fsmc.c ****             FSMC_NORSRAMInitStruct->FSMC_MemoryType |
 176              		.loc 1 202 0
 177 0076 1343     		orrs	r3, r3, r2
 203:../../source/src/FWlib/src/stm32f10x_fsmc.c ****             FSMC_NORSRAMInitStruct->FSMC_MemoryDataWidth |
 178              		.loc 1 203 0
 179 0078 0B43     		orrs	r3, r3, r1
 205:../../source/src/FWlib/src/stm32f10x_fsmc.c ****             FSMC_NORSRAMInitStruct->FSMC_BurstAccessMode |
 180              		.loc 1 205 0
 181 007a 4169     		ldr	r1, [r0, #20]
ARM GAS  G:\Users\Jaxb\AppData\Local\Temp\cc6z0kxo.s 			page 8


 204:../../source/src/FWlib/src/stm32f10x_fsmc.c ****             FSMC_NORSRAMInitStruct->FSMC_MemoryDataWidth |
 182              		.loc 1 204 0
 183 007c 2343     		orrs	r3, r3, r4
 206:../../source/src/FWlib/src/stm32f10x_fsmc.c ****             FSMC_NORSRAMInitStruct->FSMC_AsynchronousWait |
 184              		.loc 1 206 0
 185 007e 8469     		ldr	r4, [r0, #24]
 205:../../source/src/FWlib/src/stm32f10x_fsmc.c ****             FSMC_NORSRAMInitStruct->FSMC_BurstAccessMode |
 186              		.loc 1 205 0
 187 0080 0B43     		orrs	r3, r3, r1
 207:../../source/src/FWlib/src/stm32f10x_fsmc.c ****             FSMC_NORSRAMInitStruct->FSMC_WaitSignalPolarity |
 188              		.loc 1 207 0
 189 0082 C169     		ldr	r1, [r0, #28]
 206:../../source/src/FWlib/src/stm32f10x_fsmc.c ****             FSMC_NORSRAMInitStruct->FSMC_AsynchronousWait |
 190              		.loc 1 206 0
 191 0084 2343     		orrs	r3, r3, r4
 208:../../source/src/FWlib/src/stm32f10x_fsmc.c ****             FSMC_NORSRAMInitStruct->FSMC_WrapMode |
 192              		.loc 1 208 0
 193 0086 046A     		ldr	r4, [r0, #32]
 207:../../source/src/FWlib/src/stm32f10x_fsmc.c ****             FSMC_NORSRAMInitStruct->FSMC_WaitSignalPolarity |
 194              		.loc 1 207 0
 195 0088 0B43     		orrs	r3, r3, r1
 209:../../source/src/FWlib/src/stm32f10x_fsmc.c ****             FSMC_NORSRAMInitStruct->FSMC_WaitSignalActive |
 196              		.loc 1 209 0
 197 008a 416A     		ldr	r1, [r0, #36]
 210:../../source/src/FWlib/src/stm32f10x_fsmc.c ****             FSMC_NORSRAMInitStruct->FSMC_WriteOperation |
 198              		.loc 1 210 0
 199 008c 856A     		ldr	r5, [r0, #40]
 208:../../source/src/FWlib/src/stm32f10x_fsmc.c ****             FSMC_NORSRAMInitStruct->FSMC_WrapMode |
 200              		.loc 1 208 0
 201 008e 2343     		orrs	r3, r3, r4
 209:../../source/src/FWlib/src/stm32f10x_fsmc.c ****             FSMC_NORSRAMInitStruct->FSMC_WaitSignalActive |
 202              		.loc 1 209 0
 203 0090 0B43     		orrs	r3, r3, r1
 204 0092 0468     		ldr	r4, [r0]
 211:../../source/src/FWlib/src/stm32f10x_fsmc.c ****             FSMC_NORSRAMInitStruct->FSMC_WaitSignal |
 212:../../source/src/FWlib/src/stm32f10x_fsmc.c ****             FSMC_NORSRAMInitStruct->FSMC_ExtendedMode |
 205              		.loc 1 212 0
 206 0094 C16A     		ldr	r1, [r0, #44]
 210:../../source/src/FWlib/src/stm32f10x_fsmc.c ****             FSMC_NORSRAMInitStruct->FSMC_WriteOperation |
 207              		.loc 1 210 0
 208 0096 2B43     		orrs	r3, r3, r5
 209              		.loc 1 212 0
 210 0098 056B     		ldr	r5, [r0, #48]
 211:../../source/src/FWlib/src/stm32f10x_fsmc.c ****             FSMC_NORSRAMInitStruct->FSMC_WaitSignal |
 211              		.loc 1 211 0
 212 009a 0B43     		orrs	r3, r3, r1
 213 009c A400     		lsls	r4, r4, #2
 214              		.loc 1 212 0
 215 009e 2B43     		orrs	r3, r3, r5
 216 00a0 04F12044 		add	r4, r4, #-1610612736
 213:../../source/src/FWlib/src/stm32f10x_fsmc.c ****             FSMC_NORSRAMInitStruct->FSMC_WriteBurst;
 214:../../source/src/FWlib/src/stm32f10x_fsmc.c **** 
 215:../../source/src/FWlib/src/stm32f10x_fsmc.c ****   if(FSMC_NORSRAMInitStruct->FSMC_MemoryType == FSMC_MemoryType_NOR)
 217              		.loc 1 215 0
 218 00a4 082A     		cmp	r2, #8
 201:../../source/src/FWlib/src/stm32f10x_fsmc.c ****             (uint32_t)FSMC_NORSRAMInitStruct->FSMC_DataAddressMux |
 219              		.loc 1 201 0
ARM GAS  G:\Users\Jaxb\AppData\Local\Temp\cc6z0kxo.s 			page 9


 220 00a6 2360     		str	r3, [r4]
 221              		.loc 1 215 0
 222 00a8 03D1     		bne	.L15
 216:../../source/src/FWlib/src/stm32f10x_fsmc.c ****   {
 217:../../source/src/FWlib/src/stm32f10x_fsmc.c ****     FSMC_Bank1->BTCR[FSMC_NORSRAMInitStruct->FSMC_Bank] |= (uint32_t)BCR_FACCEN_Set;
 223              		.loc 1 217 0
 224 00aa 2368     		ldr	r3, [r4]
 225 00ac 43F04003 		orr	r3, r3, #64
 226 00b0 2360     		str	r3, [r4]
 227              	.L15:
 218:../../source/src/FWlib/src/stm32f10x_fsmc.c ****   }
 219:../../source/src/FWlib/src/stm32f10x_fsmc.c ****   
 220:../../source/src/FWlib/src/stm32f10x_fsmc.c ****   /* Bank1 NOR/SRAM timing register configuration */
 221:../../source/src/FWlib/src/stm32f10x_fsmc.c ****   FSMC_Bank1->BTCR[FSMC_NORSRAMInitStruct->FSMC_Bank+1] = 
 222:../../source/src/FWlib/src/stm32f10x_fsmc.c ****             (uint32_t)FSMC_NORSRAMInitStruct->FSMC_ReadWriteTimingStruct->FSMC_AddressSetupTime |
 228              		.loc 1 222 0
 229 00b2 426B     		ldr	r2, [r0, #52]
 223:../../source/src/FWlib/src/stm32f10x_fsmc.c ****             (FSMC_NORSRAMInitStruct->FSMC_ReadWriteTimingStruct->FSMC_AddressHoldTime << 4) |
 224:../../source/src/FWlib/src/stm32f10x_fsmc.c ****             (FSMC_NORSRAMInitStruct->FSMC_ReadWriteTimingStruct->FSMC_DataSetupTime << 8) |
 225:../../source/src/FWlib/src/stm32f10x_fsmc.c ****             (FSMC_NORSRAMInitStruct->FSMC_ReadWriteTimingStruct->FSMC_BusTurnAroundDuration << 16) 
 226:../../source/src/FWlib/src/stm32f10x_fsmc.c ****             (FSMC_NORSRAMInitStruct->FSMC_ReadWriteTimingStruct->FSMC_CLKDivision << 20) |
 227:../../source/src/FWlib/src/stm32f10x_fsmc.c ****             (FSMC_NORSRAMInitStruct->FSMC_ReadWriteTimingStruct->FSMC_DataLatency << 24) |
 228:../../source/src/FWlib/src/stm32f10x_fsmc.c ****              FSMC_NORSRAMInitStruct->FSMC_ReadWriteTimingStruct->FSMC_AccessMode;
 229:../../source/src/FWlib/src/stm32f10x_fsmc.c ****             
 230:../../source/src/FWlib/src/stm32f10x_fsmc.c ****     
 231:../../source/src/FWlib/src/stm32f10x_fsmc.c ****   /* Bank1 NOR/SRAM timing register for write configuration, if extended mode is used */
 232:../../source/src/FWlib/src/stm32f10x_fsmc.c ****   if(FSMC_NORSRAMInitStruct->FSMC_ExtendedMode == FSMC_ExtendedMode_Enable)
 230              		.loc 1 232 0
 231 00b4 B1F5804F 		cmp	r1, #16384
 227:../../source/src/FWlib/src/stm32f10x_fsmc.c ****              FSMC_NORSRAMInitStruct->FSMC_ReadWriteTimingStruct->FSMC_AccessMode;
 232              		.loc 1 227 0
 233 00b8 9569     		ldr	r5, [r2, #24]
 234 00ba 1368     		ldr	r3, [r2]
 223:../../source/src/FWlib/src/stm32f10x_fsmc.c ****             (FSMC_NORSRAMInitStruct->FSMC_ReadWriteTimingStruct->FSMC_AddressHoldTime << 4) |
 235              		.loc 1 223 0
 236 00bc 5668     		ldr	r6, [r2, #4]
 227:../../source/src/FWlib/src/stm32f10x_fsmc.c ****              FSMC_NORSRAMInitStruct->FSMC_ReadWriteTimingStruct->FSMC_AccessMode;
 237              		.loc 1 227 0
 238 00be 43EA0503 		orr	r3, r3, r5
 224:../../source/src/FWlib/src/stm32f10x_fsmc.c ****             (FSMC_NORSRAMInitStruct->FSMC_ReadWriteTimingStruct->FSMC_BusTurnAroundDuration << 16) 
 239              		.loc 1 224 0
 240 00c2 9568     		ldr	r5, [r2, #8]
 227:../../source/src/FWlib/src/stm32f10x_fsmc.c ****              FSMC_NORSRAMInitStruct->FSMC_ReadWriteTimingStruct->FSMC_AccessMode;
 241              		.loc 1 227 0
 242 00c4 43EA0613 		orr	r3, r3, r6, lsl #4
 225:../../source/src/FWlib/src/stm32f10x_fsmc.c ****             (FSMC_NORSRAMInitStruct->FSMC_ReadWriteTimingStruct->FSMC_CLKDivision << 20) |
 243              		.loc 1 225 0
 244 00c8 D668     		ldr	r6, [r2, #12]
 227:../../source/src/FWlib/src/stm32f10x_fsmc.c ****              FSMC_NORSRAMInitStruct->FSMC_ReadWriteTimingStruct->FSMC_AccessMode;
 245              		.loc 1 227 0
 246 00ca 43EA0523 		orr	r3, r3, r5, lsl #8
 226:../../source/src/FWlib/src/stm32f10x_fsmc.c ****             (FSMC_NORSRAMInitStruct->FSMC_ReadWriteTimingStruct->FSMC_DataLatency << 24) |
 247              		.loc 1 226 0
 248 00ce 1569     		ldr	r5, [r2, #16]
 227:../../source/src/FWlib/src/stm32f10x_fsmc.c ****              FSMC_NORSRAMInitStruct->FSMC_ReadWriteTimingStruct->FSMC_AccessMode;
 249              		.loc 1 227 0
 250 00d0 43EA0643 		orr	r3, r3, r6, lsl #16
ARM GAS  G:\Users\Jaxb\AppData\Local\Temp\cc6z0kxo.s 			page 10


 251 00d4 5269     		ldr	r2, [r2, #20]
 252 00d6 43EA0553 		orr	r3, r3, r5, lsl #20
 253 00da 43EA0263 		orr	r3, r3, r2, lsl #24
 221:../../source/src/FWlib/src/stm32f10x_fsmc.c ****             (uint32_t)FSMC_NORSRAMInitStruct->FSMC_ReadWriteTimingStruct->FSMC_AddressSetupTime |
 254              		.loc 1 221 0
 255 00de 6360     		str	r3, [r4, #4]
 256              		.loc 1 232 0
 257 00e0 05D0     		beq	.L18
 233:../../source/src/FWlib/src/stm32f10x_fsmc.c ****   {
 234:../../source/src/FWlib/src/stm32f10x_fsmc.c ****     assert_param(IS_FSMC_ADDRESS_SETUP_TIME(FSMC_NORSRAMInitStruct->FSMC_WriteTimingStruct->FSMC_Ad
 235:../../source/src/FWlib/src/stm32f10x_fsmc.c ****     assert_param(IS_FSMC_ADDRESS_HOLD_TIME(FSMC_NORSRAMInitStruct->FSMC_WriteTimingStruct->FSMC_Add
 236:../../source/src/FWlib/src/stm32f10x_fsmc.c ****     assert_param(IS_FSMC_DATASETUP_TIME(FSMC_NORSRAMInitStruct->FSMC_WriteTimingStruct->FSMC_DataSe
 237:../../source/src/FWlib/src/stm32f10x_fsmc.c ****     assert_param(IS_FSMC_CLK_DIV(FSMC_NORSRAMInitStruct->FSMC_WriteTimingStruct->FSMC_CLKDivision))
 238:../../source/src/FWlib/src/stm32f10x_fsmc.c ****     assert_param(IS_FSMC_DATA_LATENCY(FSMC_NORSRAMInitStruct->FSMC_WriteTimingStruct->FSMC_DataLate
 239:../../source/src/FWlib/src/stm32f10x_fsmc.c ****     assert_param(IS_FSMC_ACCESS_MODE(FSMC_NORSRAMInitStruct->FSMC_WriteTimingStruct->FSMC_AccessMod
 240:../../source/src/FWlib/src/stm32f10x_fsmc.c ****     FSMC_Bank1E->BWTR[FSMC_NORSRAMInitStruct->FSMC_Bank] = 
 241:../../source/src/FWlib/src/stm32f10x_fsmc.c ****               (uint32_t)FSMC_NORSRAMInitStruct->FSMC_WriteTimingStruct->FSMC_AddressSetupTime |
 242:../../source/src/FWlib/src/stm32f10x_fsmc.c ****               (FSMC_NORSRAMInitStruct->FSMC_WriteTimingStruct->FSMC_AddressHoldTime << 4 )|
 243:../../source/src/FWlib/src/stm32f10x_fsmc.c ****               (FSMC_NORSRAMInitStruct->FSMC_WriteTimingStruct->FSMC_DataSetupTime << 8) |
 244:../../source/src/FWlib/src/stm32f10x_fsmc.c ****               (FSMC_NORSRAMInitStruct->FSMC_WriteTimingStruct->FSMC_CLKDivision << 20) |
 245:../../source/src/FWlib/src/stm32f10x_fsmc.c ****               (FSMC_NORSRAMInitStruct->FSMC_WriteTimingStruct->FSMC_DataLatency << 24) |
 246:../../source/src/FWlib/src/stm32f10x_fsmc.c ****                FSMC_NORSRAMInitStruct->FSMC_WriteTimingStruct->FSMC_AccessMode;
 247:../../source/src/FWlib/src/stm32f10x_fsmc.c ****   }
 248:../../source/src/FWlib/src/stm32f10x_fsmc.c ****   else
 249:../../source/src/FWlib/src/stm32f10x_fsmc.c ****   {
 250:../../source/src/FWlib/src/stm32f10x_fsmc.c ****     FSMC_Bank1E->BWTR[FSMC_NORSRAMInitStruct->FSMC_Bank] = 0x0FFFFFFF;
 258              		.loc 1 250 0
 259 00e2 6FF07043 		mvn	r3, #-268435456
 260 00e6 C4F80431 		str	r3, [r4, #260]
 251:../../source/src/FWlib/src/stm32f10x_fsmc.c ****   }
 252:../../source/src/FWlib/src/stm32f10x_fsmc.c **** }
 261              		.loc 1 252 0
 262 00ea 70BC     		pop	{r4, r5, r6}
 263              	.LCFI1:
 264              		.cfi_remember_state
 265              		.cfi_restore 6
 266              		.cfi_restore 5
 267              		.cfi_restore 4
 268              		.cfi_def_cfa_offset 0
 269 00ec 7047     		bx	lr
 270              	.L18:
 271              	.LCFI2:
 272              		.cfi_restore_state
 241:../../source/src/FWlib/src/stm32f10x_fsmc.c ****               (FSMC_NORSRAMInitStruct->FSMC_WriteTimingStruct->FSMC_AddressHoldTime << 4 )|
 273              		.loc 1 241 0
 274 00ee 826B     		ldr	r2, [r0, #56]
 245:../../source/src/FWlib/src/stm32f10x_fsmc.c ****                FSMC_NORSRAMInitStruct->FSMC_WriteTimingStruct->FSMC_AccessMode;
 275              		.loc 1 245 0
 276 00f0 9069     		ldr	r0, [r2, #24]
 277              	.LVL6:
 278 00f2 1368     		ldr	r3, [r2]
 242:../../source/src/FWlib/src/stm32f10x_fsmc.c ****               (FSMC_NORSRAMInitStruct->FSMC_WriteTimingStruct->FSMC_DataSetupTime << 8) |
 279              		.loc 1 242 0
 280 00f4 5168     		ldr	r1, [r2, #4]
 245:../../source/src/FWlib/src/stm32f10x_fsmc.c ****                FSMC_NORSRAMInitStruct->FSMC_WriteTimingStruct->FSMC_AccessMode;
 281              		.loc 1 245 0
 282 00f6 0343     		orrs	r3, r3, r0
ARM GAS  G:\Users\Jaxb\AppData\Local\Temp\cc6z0kxo.s 			page 11


 243:../../source/src/FWlib/src/stm32f10x_fsmc.c ****               (FSMC_NORSRAMInitStruct->FSMC_WriteTimingStruct->FSMC_CLKDivision << 20) |
 283              		.loc 1 243 0
 284 00f8 9068     		ldr	r0, [r2, #8]
 245:../../source/src/FWlib/src/stm32f10x_fsmc.c ****                FSMC_NORSRAMInitStruct->FSMC_WriteTimingStruct->FSMC_AccessMode;
 285              		.loc 1 245 0
 286 00fa 43EA0113 		orr	r3, r3, r1, lsl #4
 244:../../source/src/FWlib/src/stm32f10x_fsmc.c ****               (FSMC_NORSRAMInitStruct->FSMC_WriteTimingStruct->FSMC_DataLatency << 24) |
 287              		.loc 1 244 0
 288 00fe 1169     		ldr	r1, [r2, #16]
 245:../../source/src/FWlib/src/stm32f10x_fsmc.c ****                FSMC_NORSRAMInitStruct->FSMC_WriteTimingStruct->FSMC_AccessMode;
 289              		.loc 1 245 0
 290 0100 43EA0023 		orr	r3, r3, r0, lsl #8
 291 0104 5269     		ldr	r2, [r2, #20]
 292 0106 43EA0153 		orr	r3, r3, r1, lsl #20
 293 010a 43EA0263 		orr	r3, r3, r2, lsl #24
 240:../../source/src/FWlib/src/stm32f10x_fsmc.c ****               (uint32_t)FSMC_NORSRAMInitStruct->FSMC_WriteTimingStruct->FSMC_AddressSetupTime |
 294              		.loc 1 240 0
 295 010e C4F80431 		str	r3, [r4, #260]
 296              		.loc 1 252 0
 297 0112 70BC     		pop	{r4, r5, r6}
 298              	.LCFI3:
 299              		.cfi_restore 6
 300              		.cfi_restore 5
 301              		.cfi_restore 4
 302              		.cfi_def_cfa_offset 0
 303 0114 7047     		bx	lr
 304              		.cfi_endproc
 305              	.LFE32:
 306              		.size	FSMC_NORSRAMInit, .-FSMC_NORSRAMInit
 307              		.align	1
 308 0116 00BF     		.p2align 2,,3
 309              		.global	FSMC_NANDInit
 310              		.syntax unified
 311              		.thumb
 312              		.thumb_func
 313              		.fpu softvfp
 314              		.type	FSMC_NANDInit, %function
 315              	FSMC_NANDInit:
 316              	.LFB33:
 253:../../source/src/FWlib/src/stm32f10x_fsmc.c **** 
 254:../../source/src/FWlib/src/stm32f10x_fsmc.c **** /**
 255:../../source/src/FWlib/src/stm32f10x_fsmc.c ****   * @brief  Initializes the FSMC NAND Banks according to the specified 
 256:../../source/src/FWlib/src/stm32f10x_fsmc.c ****   *         parameters in the FSMC_NANDInitStruct.
 257:../../source/src/FWlib/src/stm32f10x_fsmc.c ****   * @param  FSMC_NANDInitStruct : pointer to a FSMC_NANDInitTypeDef 
 258:../../source/src/FWlib/src/stm32f10x_fsmc.c ****   *         structure that contains the configuration information for the FSMC 
 259:../../source/src/FWlib/src/stm32f10x_fsmc.c ****   *         NAND specified Banks.                       
 260:../../source/src/FWlib/src/stm32f10x_fsmc.c ****   * @retval None
 261:../../source/src/FWlib/src/stm32f10x_fsmc.c ****   */
 262:../../source/src/FWlib/src/stm32f10x_fsmc.c **** void FSMC_NANDInit(FSMC_NANDInitTypeDef* FSMC_NANDInitStruct)
 263:../../source/src/FWlib/src/stm32f10x_fsmc.c **** {
 317              		.loc 1 263 0
 318              		.cfi_startproc
 319              		@ args = 0, pretend = 0, frame = 0
 320              		@ frame_needed = 0, uses_anonymous_args = 0
 321              		@ link register save eliminated.
 322              	.LVL7:
 323 0118 F0B4     		push	{r4, r5, r6, r7}
ARM GAS  G:\Users\Jaxb\AppData\Local\Temp\cc6z0kxo.s 			page 12


 324              	.LCFI4:
 325              		.cfi_def_cfa_offset 16
 326              		.cfi_offset 4, -16
 327              		.cfi_offset 5, -12
 328              		.cfi_offset 6, -8
 329              		.cfi_offset 7, -4
 264:../../source/src/FWlib/src/stm32f10x_fsmc.c ****   uint32_t tmppcr = 0x00000000, tmppmem = 0x00000000, tmppatt = 0x00000000; 
 265:../../source/src/FWlib/src/stm32f10x_fsmc.c ****     
 266:../../source/src/FWlib/src/stm32f10x_fsmc.c ****   /* Check the parameters */
 267:../../source/src/FWlib/src/stm32f10x_fsmc.c ****   assert_param( IS_FSMC_NAND_BANK(FSMC_NANDInitStruct->FSMC_Bank));
 268:../../source/src/FWlib/src/stm32f10x_fsmc.c ****   assert_param( IS_FSMC_WAIT_FEATURE(FSMC_NANDInitStruct->FSMC_Waitfeature));
 269:../../source/src/FWlib/src/stm32f10x_fsmc.c ****   assert_param( IS_FSMC_MEMORY_WIDTH(FSMC_NANDInitStruct->FSMC_MemoryDataWidth));
 270:../../source/src/FWlib/src/stm32f10x_fsmc.c ****   assert_param( IS_FSMC_ECC_STATE(FSMC_NANDInitStruct->FSMC_ECC));
 271:../../source/src/FWlib/src/stm32f10x_fsmc.c ****   assert_param( IS_FSMC_ECCPAGE_SIZE(FSMC_NANDInitStruct->FSMC_ECCPageSize));
 272:../../source/src/FWlib/src/stm32f10x_fsmc.c ****   assert_param( IS_FSMC_TCLR_TIME(FSMC_NANDInitStruct->FSMC_TCLRSetupTime));
 273:../../source/src/FWlib/src/stm32f10x_fsmc.c ****   assert_param( IS_FSMC_TAR_TIME(FSMC_NANDInitStruct->FSMC_TARSetupTime));
 274:../../source/src/FWlib/src/stm32f10x_fsmc.c ****   assert_param(IS_FSMC_SETUP_TIME(FSMC_NANDInitStruct->FSMC_CommonSpaceTimingStruct->FSMC_SetupTime
 275:../../source/src/FWlib/src/stm32f10x_fsmc.c ****   assert_param(IS_FSMC_WAIT_TIME(FSMC_NANDInitStruct->FSMC_CommonSpaceTimingStruct->FSMC_WaitSetupT
 276:../../source/src/FWlib/src/stm32f10x_fsmc.c ****   assert_param(IS_FSMC_HOLD_TIME(FSMC_NANDInitStruct->FSMC_CommonSpaceTimingStruct->FSMC_HoldSetupT
 277:../../source/src/FWlib/src/stm32f10x_fsmc.c ****   assert_param(IS_FSMC_HIZ_TIME(FSMC_NANDInitStruct->FSMC_CommonSpaceTimingStruct->FSMC_HiZSetupTim
 278:../../source/src/FWlib/src/stm32f10x_fsmc.c ****   assert_param(IS_FSMC_SETUP_TIME(FSMC_NANDInitStruct->FSMC_AttributeSpaceTimingStruct->FSMC_SetupT
 279:../../source/src/FWlib/src/stm32f10x_fsmc.c ****   assert_param(IS_FSMC_WAIT_TIME(FSMC_NANDInitStruct->FSMC_AttributeSpaceTimingStruct->FSMC_WaitSet
 280:../../source/src/FWlib/src/stm32f10x_fsmc.c ****   assert_param(IS_FSMC_HOLD_TIME(FSMC_NANDInitStruct->FSMC_AttributeSpaceTimingStruct->FSMC_HoldSet
 281:../../source/src/FWlib/src/stm32f10x_fsmc.c ****   assert_param(IS_FSMC_HIZ_TIME(FSMC_NANDInitStruct->FSMC_AttributeSpaceTimingStruct->FSMC_HiZSetup
 282:../../source/src/FWlib/src/stm32f10x_fsmc.c ****   
 283:../../source/src/FWlib/src/stm32f10x_fsmc.c ****   /* Set the tmppcr value according to FSMC_NANDInitStruct parameters */
 284:../../source/src/FWlib/src/stm32f10x_fsmc.c ****   tmppcr = (uint32_t)FSMC_NANDInitStruct->FSMC_Waitfeature |
 285:../../source/src/FWlib/src/stm32f10x_fsmc.c ****             PCR_MemoryType_NAND |
 330              		.loc 1 285 0
 331 011a D0E90132 		ldrd	r3, r2, [r0, #4]
 286:../../source/src/FWlib/src/stm32f10x_fsmc.c ****             FSMC_NANDInitStruct->FSMC_MemoryDataWidth |
 287:../../source/src/FWlib/src/stm32f10x_fsmc.c ****             FSMC_NANDInitStruct->FSMC_ECC |
 288:../../source/src/FWlib/src/stm32f10x_fsmc.c ****             FSMC_NANDInitStruct->FSMC_ECCPageSize |
 289:../../source/src/FWlib/src/stm32f10x_fsmc.c ****             (FSMC_NANDInitStruct->FSMC_TCLRSetupTime << 9 )|
 290:../../source/src/FWlib/src/stm32f10x_fsmc.c ****             (FSMC_NANDInitStruct->FSMC_TARSetupTime << 13);
 291:../../source/src/FWlib/src/stm32f10x_fsmc.c ****             
 292:../../source/src/FWlib/src/stm32f10x_fsmc.c ****   /* Set tmppmem value according to FSMC_CommonSpaceTimingStructure parameters */
 293:../../source/src/FWlib/src/stm32f10x_fsmc.c ****   tmppmem = (uint32_t)FSMC_NANDInitStruct->FSMC_CommonSpaceTimingStruct->FSMC_SetupTime |
 294:../../source/src/FWlib/src/stm32f10x_fsmc.c ****             (FSMC_NANDInitStruct->FSMC_CommonSpaceTimingStruct->FSMC_WaitSetupTime << 8) |
 295:../../source/src/FWlib/src/stm32f10x_fsmc.c ****             (FSMC_NANDInitStruct->FSMC_CommonSpaceTimingStruct->FSMC_HoldSetupTime << 16)|
 296:../../source/src/FWlib/src/stm32f10x_fsmc.c ****             (FSMC_NANDInitStruct->FSMC_CommonSpaceTimingStruct->FSMC_HiZSetupTime << 24); 
 297:../../source/src/FWlib/src/stm32f10x_fsmc.c ****             
 298:../../source/src/FWlib/src/stm32f10x_fsmc.c ****   /* Set tmppatt value according to FSMC_AttributeSpaceTimingStructure parameters */
 299:../../source/src/FWlib/src/stm32f10x_fsmc.c ****   tmppatt = (uint32_t)FSMC_NANDInitStruct->FSMC_AttributeSpaceTimingStruct->FSMC_SetupTime |
 332              		.loc 1 299 0
 333 011e D0E90754 		ldrd	r5, r4, [r0, #28]
 284:../../source/src/FWlib/src/stm32f10x_fsmc.c ****             PCR_MemoryType_NAND |
 334              		.loc 1 284 0
 335 0122 C668     		ldr	r6, [r0, #12]
 285:../../source/src/FWlib/src/stm32f10x_fsmc.c ****             FSMC_NANDInitStruct->FSMC_MemoryDataWidth |
 336              		.loc 1 285 0
 337 0124 1A43     		orrs	r2, r2, r3
 284:../../source/src/FWlib/src/stm32f10x_fsmc.c ****             PCR_MemoryType_NAND |
 338              		.loc 1 284 0
 339 0126 42F00802 		orr	r2, r2, #8
 340 012a 3243     		orrs	r2, r2, r6
 341 012c 0669     		ldr	r6, [r0, #16]
ARM GAS  G:\Users\Jaxb\AppData\Local\Temp\cc6z0kxo.s 			page 13


 295:../../source/src/FWlib/src/stm32f10x_fsmc.c ****             (FSMC_NANDInitStruct->FSMC_CommonSpaceTimingStruct->FSMC_HiZSetupTime << 24); 
 342              		.loc 1 295 0
 343 012e AB68     		ldr	r3, [r5, #8]
 284:../../source/src/FWlib/src/stm32f10x_fsmc.c ****             PCR_MemoryType_NAND |
 344              		.loc 1 284 0
 345 0130 3243     		orrs	r2, r2, r6
 294:../../source/src/FWlib/src/stm32f10x_fsmc.c ****             (FSMC_NANDInitStruct->FSMC_CommonSpaceTimingStruct->FSMC_HoldSetupTime << 16)|
 346              		.loc 1 294 0
 347 0132 6E68     		ldr	r6, [r5, #4]
 300:../../source/src/FWlib/src/stm32f10x_fsmc.c ****             (FSMC_NANDInitStruct->FSMC_AttributeSpaceTimingStruct->FSMC_WaitSetupTime << 8) |
 301:../../source/src/FWlib/src/stm32f10x_fsmc.c ****             (FSMC_NANDInitStruct->FSMC_AttributeSpaceTimingStruct->FSMC_HoldSetupTime << 16)|
 348              		.loc 1 301 0
 349 0134 A168     		ldr	r1, [r4, #8]
 295:../../source/src/FWlib/src/stm32f10x_fsmc.c ****             (FSMC_NANDInitStruct->FSMC_CommonSpaceTimingStruct->FSMC_HiZSetupTime << 24); 
 350              		.loc 1 295 0
 351 0136 1B04     		lsls	r3, r3, #16
 294:../../source/src/FWlib/src/stm32f10x_fsmc.c ****             (FSMC_NANDInitStruct->FSMC_CommonSpaceTimingStruct->FSMC_HoldSetupTime << 16)|
 352              		.loc 1 294 0
 353 0138 43EA0623 		orr	r3, r3, r6, lsl #8
 300:../../source/src/FWlib/src/stm32f10x_fsmc.c ****             (FSMC_NANDInitStruct->FSMC_AttributeSpaceTimingStruct->FSMC_WaitSetupTime << 8) |
 354              		.loc 1 300 0
 355 013c 6668     		ldr	r6, [r4, #4]
 289:../../source/src/FWlib/src/stm32f10x_fsmc.c ****             (FSMC_NANDInitStruct->FSMC_TARSetupTime << 13);
 356              		.loc 1 289 0
 357 013e 4769     		ldr	r7, [r0, #20]
 358              		.loc 1 301 0
 359 0140 0904     		lsls	r1, r1, #16
 300:../../source/src/FWlib/src/stm32f10x_fsmc.c ****             (FSMC_NANDInitStruct->FSMC_AttributeSpaceTimingStruct->FSMC_WaitSetupTime << 8) |
 360              		.loc 1 300 0
 361 0142 41EA0621 		orr	r1, r1, r6, lsl #8
 294:../../source/src/FWlib/src/stm32f10x_fsmc.c ****             (FSMC_NANDInitStruct->FSMC_CommonSpaceTimingStruct->FSMC_HoldSetupTime << 16)|
 362              		.loc 1 294 0
 363 0146 2E68     		ldr	r6, [r5]
 284:../../source/src/FWlib/src/stm32f10x_fsmc.c ****             PCR_MemoryType_NAND |
 364              		.loc 1 284 0
 365 0148 42EA4722 		orr	r2, r2, r7, lsl #9
 290:../../source/src/FWlib/src/stm32f10x_fsmc.c ****             
 366              		.loc 1 290 0
 367 014c 8769     		ldr	r7, [r0, #24]
 302:../../source/src/FWlib/src/stm32f10x_fsmc.c ****             (FSMC_NANDInitStruct->FSMC_AttributeSpaceTimingStruct->FSMC_HiZSetupTime << 24);
 303:../../source/src/FWlib/src/stm32f10x_fsmc.c ****   
 304:../../source/src/FWlib/src/stm32f10x_fsmc.c ****   if(FSMC_NANDInitStruct->FSMC_Bank == FSMC_Bank2_NAND)
 368              		.loc 1 304 0
 369 014e 0068     		ldr	r0, [r0]
 370              	.LVL8:
 294:../../source/src/FWlib/src/stm32f10x_fsmc.c ****             (FSMC_NANDInitStruct->FSMC_CommonSpaceTimingStruct->FSMC_HoldSetupTime << 16)|
 371              		.loc 1 294 0
 372 0150 3343     		orrs	r3, r3, r6
 300:../../source/src/FWlib/src/stm32f10x_fsmc.c ****             (FSMC_NANDInitStruct->FSMC_AttributeSpaceTimingStruct->FSMC_HoldSetupTime << 16)|
 373              		.loc 1 300 0
 374 0152 2668     		ldr	r6, [r4]
 296:../../source/src/FWlib/src/stm32f10x_fsmc.c ****             
 375              		.loc 1 296 0
 376 0154 ED68     		ldr	r5, [r5, #12]
 302:../../source/src/FWlib/src/stm32f10x_fsmc.c ****   
 377              		.loc 1 302 0
 378 0156 E468     		ldr	r4, [r4, #12]
ARM GAS  G:\Users\Jaxb\AppData\Local\Temp\cc6z0kxo.s 			page 14


 379              		.loc 1 304 0
 380 0158 1028     		cmp	r0, #16
 305:../../source/src/FWlib/src/stm32f10x_fsmc.c ****   {
 306:../../source/src/FWlib/src/stm32f10x_fsmc.c ****     /* FSMC_Bank2_NAND registers configuration */
 307:../../source/src/FWlib/src/stm32f10x_fsmc.c ****     FSMC_Bank2->PCR2 = tmppcr;
 381              		.loc 1 307 0
 382 015a 0CBF     		ite	eq
 383 015c 0648     		ldreq	r0, .L22
 308:../../source/src/FWlib/src/stm32f10x_fsmc.c ****     FSMC_Bank2->PMEM2 = tmppmem;
 309:../../source/src/FWlib/src/stm32f10x_fsmc.c ****     FSMC_Bank2->PATT2 = tmppatt;
 310:../../source/src/FWlib/src/stm32f10x_fsmc.c ****   }
 311:../../source/src/FWlib/src/stm32f10x_fsmc.c ****   else
 312:../../source/src/FWlib/src/stm32f10x_fsmc.c ****   {
 313:../../source/src/FWlib/src/stm32f10x_fsmc.c ****     /* FSMC_Bank3_NAND registers configuration */
 314:../../source/src/FWlib/src/stm32f10x_fsmc.c ****     FSMC_Bank3->PCR3 = tmppcr;
 384              		.loc 1 314 0
 385 015e 0748     		ldrne	r0, .L22+4
 300:../../source/src/FWlib/src/stm32f10x_fsmc.c ****             (FSMC_NANDInitStruct->FSMC_AttributeSpaceTimingStruct->FSMC_HoldSetupTime << 16)|
 386              		.loc 1 300 0
 387 0160 3143     		orrs	r1, r1, r6
 284:../../source/src/FWlib/src/stm32f10x_fsmc.c ****             PCR_MemoryType_NAND |
 388              		.loc 1 284 0
 389 0162 42EA4732 		orr	r2, r2, r7, lsl #13
 390              	.LVL9:
 293:../../source/src/FWlib/src/stm32f10x_fsmc.c ****             (FSMC_NANDInitStruct->FSMC_CommonSpaceTimingStruct->FSMC_WaitSetupTime << 8) |
 391              		.loc 1 293 0
 392 0166 43EA0563 		orr	r3, r3, r5, lsl #24
 393              	.LVL10:
 299:../../source/src/FWlib/src/stm32f10x_fsmc.c ****             (FSMC_NANDInitStruct->FSMC_AttributeSpaceTimingStruct->FSMC_WaitSetupTime << 8) |
 394              		.loc 1 299 0
 395 016a 41EA0461 		orr	r1, r1, r4, lsl #24
 396              	.LVL11:
 397              		.loc 1 314 0
 398 016e 0260     		str	r2, [r0]
 315:../../source/src/FWlib/src/stm32f10x_fsmc.c ****     FSMC_Bank3->PMEM3 = tmppmem;
 316:../../source/src/FWlib/src/stm32f10x_fsmc.c ****     FSMC_Bank3->PATT3 = tmppatt;
 317:../../source/src/FWlib/src/stm32f10x_fsmc.c ****   }
 318:../../source/src/FWlib/src/stm32f10x_fsmc.c **** }
 399              		.loc 1 318 0
 400 0170 F0BC     		pop	{r4, r5, r6, r7}
 401              	.LCFI5:
 402              		.cfi_restore 7
 403              		.cfi_restore 6
 404              		.cfi_restore 5
 405              		.cfi_restore 4
 406              		.cfi_def_cfa_offset 0
 315:../../source/src/FWlib/src/stm32f10x_fsmc.c ****     FSMC_Bank3->PMEM3 = tmppmem;
 407              		.loc 1 315 0
 408 0172 8360     		str	r3, [r0, #8]
 316:../../source/src/FWlib/src/stm32f10x_fsmc.c ****   }
 409              		.loc 1 316 0
 410 0174 C160     		str	r1, [r0, #12]
 411              		.loc 1 318 0
 412 0176 7047     		bx	lr
 413              	.L23:
 414              		.align	2
 415              	.L22:
ARM GAS  G:\Users\Jaxb\AppData\Local\Temp\cc6z0kxo.s 			page 15


 416 0178 600000A0 		.word	-1610612640
 417 017c 800000A0 		.word	-1610612608
 418              		.cfi_endproc
 419              	.LFE33:
 420              		.size	FSMC_NANDInit, .-FSMC_NANDInit
 421              		.align	1
 422              		.p2align 2,,3
 423              		.global	FSMC_PCCARDInit
 424              		.syntax unified
 425              		.thumb
 426              		.thumb_func
 427              		.fpu softvfp
 428              		.type	FSMC_PCCARDInit, %function
 429              	FSMC_PCCARDInit:
 430              	.LFB34:
 319:../../source/src/FWlib/src/stm32f10x_fsmc.c **** 
 320:../../source/src/FWlib/src/stm32f10x_fsmc.c **** /**
 321:../../source/src/FWlib/src/stm32f10x_fsmc.c ****   * @brief  Initializes the FSMC PCCARD Bank according to the specified 
 322:../../source/src/FWlib/src/stm32f10x_fsmc.c ****   *         parameters in the FSMC_PCCARDInitStruct.
 323:../../source/src/FWlib/src/stm32f10x_fsmc.c ****   * @param  FSMC_PCCARDInitStruct : pointer to a FSMC_PCCARDInitTypeDef
 324:../../source/src/FWlib/src/stm32f10x_fsmc.c ****   *         structure that contains the configuration information for the FSMC 
 325:../../source/src/FWlib/src/stm32f10x_fsmc.c ****   *         PCCARD Bank.                       
 326:../../source/src/FWlib/src/stm32f10x_fsmc.c ****   * @retval None
 327:../../source/src/FWlib/src/stm32f10x_fsmc.c ****   */
 328:../../source/src/FWlib/src/stm32f10x_fsmc.c **** void FSMC_PCCARDInit(FSMC_PCCARDInitTypeDef* FSMC_PCCARDInitStruct)
 329:../../source/src/FWlib/src/stm32f10x_fsmc.c **** {
 431              		.loc 1 329 0
 432              		.cfi_startproc
 433              		@ args = 0, pretend = 0, frame = 0
 434              		@ frame_needed = 0, uses_anonymous_args = 0
 435              		@ link register save eliminated.
 436              	.LVL12:
 330:../../source/src/FWlib/src/stm32f10x_fsmc.c ****   /* Check the parameters */
 331:../../source/src/FWlib/src/stm32f10x_fsmc.c ****   assert_param(IS_FSMC_WAIT_FEATURE(FSMC_PCCARDInitStruct->FSMC_Waitfeature));
 332:../../source/src/FWlib/src/stm32f10x_fsmc.c ****   assert_param(IS_FSMC_TCLR_TIME(FSMC_PCCARDInitStruct->FSMC_TCLRSetupTime));
 333:../../source/src/FWlib/src/stm32f10x_fsmc.c ****   assert_param(IS_FSMC_TAR_TIME(FSMC_PCCARDInitStruct->FSMC_TARSetupTime));
 334:../../source/src/FWlib/src/stm32f10x_fsmc.c ****  
 335:../../source/src/FWlib/src/stm32f10x_fsmc.c ****   assert_param(IS_FSMC_SETUP_TIME(FSMC_PCCARDInitStruct->FSMC_CommonSpaceTimingStruct->FSMC_SetupTi
 336:../../source/src/FWlib/src/stm32f10x_fsmc.c ****   assert_param(IS_FSMC_WAIT_TIME(FSMC_PCCARDInitStruct->FSMC_CommonSpaceTimingStruct->FSMC_WaitSetu
 337:../../source/src/FWlib/src/stm32f10x_fsmc.c ****   assert_param(IS_FSMC_HOLD_TIME(FSMC_PCCARDInitStruct->FSMC_CommonSpaceTimingStruct->FSMC_HoldSetu
 338:../../source/src/FWlib/src/stm32f10x_fsmc.c ****   assert_param(IS_FSMC_HIZ_TIME(FSMC_PCCARDInitStruct->FSMC_CommonSpaceTimingStruct->FSMC_HiZSetupT
 339:../../source/src/FWlib/src/stm32f10x_fsmc.c ****   
 340:../../source/src/FWlib/src/stm32f10x_fsmc.c ****   assert_param(IS_FSMC_SETUP_TIME(FSMC_PCCARDInitStruct->FSMC_AttributeSpaceTimingStruct->FSMC_Setu
 341:../../source/src/FWlib/src/stm32f10x_fsmc.c ****   assert_param(IS_FSMC_WAIT_TIME(FSMC_PCCARDInitStruct->FSMC_AttributeSpaceTimingStruct->FSMC_WaitS
 342:../../source/src/FWlib/src/stm32f10x_fsmc.c ****   assert_param(IS_FSMC_HOLD_TIME(FSMC_PCCARDInitStruct->FSMC_AttributeSpaceTimingStruct->FSMC_HoldS
 343:../../source/src/FWlib/src/stm32f10x_fsmc.c ****   assert_param(IS_FSMC_HIZ_TIME(FSMC_PCCARDInitStruct->FSMC_AttributeSpaceTimingStruct->FSMC_HiZSet
 344:../../source/src/FWlib/src/stm32f10x_fsmc.c ****   assert_param(IS_FSMC_SETUP_TIME(FSMC_PCCARDInitStruct->FSMC_IOSpaceTimingStruct->FSMC_SetupTime))
 345:../../source/src/FWlib/src/stm32f10x_fsmc.c ****   assert_param(IS_FSMC_WAIT_TIME(FSMC_PCCARDInitStruct->FSMC_IOSpaceTimingStruct->FSMC_WaitSetupTim
 346:../../source/src/FWlib/src/stm32f10x_fsmc.c ****   assert_param(IS_FSMC_HOLD_TIME(FSMC_PCCARDInitStruct->FSMC_IOSpaceTimingStruct->FSMC_HoldSetupTim
 347:../../source/src/FWlib/src/stm32f10x_fsmc.c ****   assert_param(IS_FSMC_HIZ_TIME(FSMC_PCCARDInitStruct->FSMC_IOSpaceTimingStruct->FSMC_HiZSetupTime)
 348:../../source/src/FWlib/src/stm32f10x_fsmc.c ****   
 349:../../source/src/FWlib/src/stm32f10x_fsmc.c ****   /* Set the PCR4 register value according to FSMC_PCCARDInitStruct parameters */
 350:../../source/src/FWlib/src/stm32f10x_fsmc.c ****   FSMC_Bank4->PCR4 = (uint32_t)FSMC_PCCARDInitStruct->FSMC_Waitfeature |
 351:../../source/src/FWlib/src/stm32f10x_fsmc.c ****                      FSMC_MemoryDataWidth_16b |  
 352:../../source/src/FWlib/src/stm32f10x_fsmc.c ****                      (FSMC_PCCARDInitStruct->FSMC_TCLRSetupTime << 9) |
 437              		.loc 1 352 0
 438 0180 D0E90032 		ldrd	r3, r2, [r0]
ARM GAS  G:\Users\Jaxb\AppData\Local\Temp\cc6z0kxo.s 			page 16


 353:../../source/src/FWlib/src/stm32f10x_fsmc.c ****                      (FSMC_PCCARDInitStruct->FSMC_TARSetupTime << 13);
 439              		.loc 1 353 0
 440 0184 8168     		ldr	r1, [r0, #8]
 352:../../source/src/FWlib/src/stm32f10x_fsmc.c ****                      (FSMC_PCCARDInitStruct->FSMC_TARSetupTime << 13);
 441              		.loc 1 352 0
 442 0186 43F01003 		orr	r3, r3, #16
 443 018a 43EA4223 		orr	r3, r3, r2, lsl #9
 350:../../source/src/FWlib/src/stm32f10x_fsmc.c ****                      FSMC_MemoryDataWidth_16b |  
 444              		.loc 1 350 0
 445 018e 154A     		ldr	r2, .L25
 352:../../source/src/FWlib/src/stm32f10x_fsmc.c ****                      (FSMC_PCCARDInitStruct->FSMC_TARSetupTime << 13);
 446              		.loc 1 352 0
 447 0190 43EA4133 		orr	r3, r3, r1, lsl #13
 354:../../source/src/FWlib/src/stm32f10x_fsmc.c ****             
 355:../../source/src/FWlib/src/stm32f10x_fsmc.c ****   /* Set PMEM4 register value according to FSMC_CommonSpaceTimingStructure parameters */
 356:../../source/src/FWlib/src/stm32f10x_fsmc.c ****   FSMC_Bank4->PMEM4 = (uint32_t)FSMC_PCCARDInitStruct->FSMC_CommonSpaceTimingStruct->FSMC_SetupTime
 448              		.loc 1 356 0
 449 0194 C168     		ldr	r1, [r0, #12]
 329:../../source/src/FWlib/src/stm32f10x_fsmc.c ****   /* Check the parameters */
 450              		.loc 1 329 0
 451 0196 30B4     		push	{r4, r5}
 452              	.LCFI6:
 453              		.cfi_def_cfa_offset 8
 454              		.cfi_offset 4, -8
 455              		.cfi_offset 5, -4
 350:../../source/src/FWlib/src/stm32f10x_fsmc.c ****                      FSMC_MemoryDataWidth_16b |  
 456              		.loc 1 350 0
 457 0198 1360     		str	r3, [r2]
 357:../../source/src/FWlib/src/stm32f10x_fsmc.c ****                       (FSMC_PCCARDInitStruct->FSMC_CommonSpaceTimingStruct->FSMC_WaitSetupTime << 8
 458              		.loc 1 357 0
 459 019a D1E90153 		ldrd	r5, r3, [r1, #4]
 460 019e 0C68     		ldr	r4, [r1]
 358:../../source/src/FWlib/src/stm32f10x_fsmc.c ****                       (FSMC_PCCARDInitStruct->FSMC_CommonSpaceTimingStruct->FSMC_HoldSetupTime << 1
 461              		.loc 1 358 0
 462 01a0 1B04     		lsls	r3, r3, #16
 359:../../source/src/FWlib/src/stm32f10x_fsmc.c ****                       (FSMC_PCCARDInitStruct->FSMC_CommonSpaceTimingStruct->FSMC_HiZSetupTime << 24
 463              		.loc 1 359 0
 464 01a2 C968     		ldr	r1, [r1, #12]
 357:../../source/src/FWlib/src/stm32f10x_fsmc.c ****                       (FSMC_PCCARDInitStruct->FSMC_CommonSpaceTimingStruct->FSMC_WaitSetupTime << 8
 465              		.loc 1 357 0
 466 01a4 43EA0523 		orr	r3, r3, r5, lsl #8
 467 01a8 2343     		orrs	r3, r3, r4
 358:../../source/src/FWlib/src/stm32f10x_fsmc.c ****                       (FSMC_PCCARDInitStruct->FSMC_CommonSpaceTimingStruct->FSMC_HoldSetupTime << 1
 468              		.loc 1 358 0
 469 01aa 43EA0163 		orr	r3, r3, r1, lsl #24
 360:../../source/src/FWlib/src/stm32f10x_fsmc.c ****             
 361:../../source/src/FWlib/src/stm32f10x_fsmc.c ****   /* Set PATT4 register value according to FSMC_AttributeSpaceTimingStructure parameters */
 362:../../source/src/FWlib/src/stm32f10x_fsmc.c ****   FSMC_Bank4->PATT4 = (uint32_t)FSMC_PCCARDInitStruct->FSMC_AttributeSpaceTimingStruct->FSMC_SetupT
 470              		.loc 1 362 0
 471 01ae 0169     		ldr	r1, [r0, #16]
 356:../../source/src/FWlib/src/stm32f10x_fsmc.c ****                       (FSMC_PCCARDInitStruct->FSMC_CommonSpaceTimingStruct->FSMC_WaitSetupTime << 8
 472              		.loc 1 356 0
 473 01b0 9360     		str	r3, [r2, #8]
 363:../../source/src/FWlib/src/stm32f10x_fsmc.c ****                       (FSMC_PCCARDInitStruct->FSMC_AttributeSpaceTimingStruct->FSMC_WaitSetupTime <
 474              		.loc 1 363 0
 475 01b2 D1E90143 		ldrd	r4, r3, [r1, #4]
 476 01b6 0D68     		ldr	r5, [r1]
ARM GAS  G:\Users\Jaxb\AppData\Local\Temp\cc6z0kxo.s 			page 17


 364:../../source/src/FWlib/src/stm32f10x_fsmc.c ****                       (FSMC_PCCARDInitStruct->FSMC_AttributeSpaceTimingStruct->FSMC_HoldSetupTime <
 477              		.loc 1 364 0
 478 01b8 1B04     		lsls	r3, r3, #16
 363:../../source/src/FWlib/src/stm32f10x_fsmc.c ****                       (FSMC_PCCARDInitStruct->FSMC_AttributeSpaceTimingStruct->FSMC_WaitSetupTime <
 479              		.loc 1 363 0
 480 01ba 43EA0423 		orr	r3, r3, r4, lsl #8
 365:../../source/src/FWlib/src/stm32f10x_fsmc.c ****                       (FSMC_PCCARDInitStruct->FSMC_AttributeSpaceTimingStruct->FSMC_HiZSetupTime <<
 481              		.loc 1 365 0
 482 01be CC68     		ldr	r4, [r1, #12]
 363:../../source/src/FWlib/src/stm32f10x_fsmc.c ****                       (FSMC_PCCARDInitStruct->FSMC_AttributeSpaceTimingStruct->FSMC_WaitSetupTime <
 483              		.loc 1 363 0
 484 01c0 2B43     		orrs	r3, r3, r5
 366:../../source/src/FWlib/src/stm32f10x_fsmc.c ****             
 367:../../source/src/FWlib/src/stm32f10x_fsmc.c ****   /* Set PIO4 register value according to FSMC_IOSpaceTimingStructure parameters */
 368:../../source/src/FWlib/src/stm32f10x_fsmc.c ****   FSMC_Bank4->PIO4 = (uint32_t)FSMC_PCCARDInitStruct->FSMC_IOSpaceTimingStruct->FSMC_SetupTime |
 485              		.loc 1 368 0
 486 01c2 4169     		ldr	r1, [r0, #20]
 364:../../source/src/FWlib/src/stm32f10x_fsmc.c ****                       (FSMC_PCCARDInitStruct->FSMC_AttributeSpaceTimingStruct->FSMC_HiZSetupTime <<
 487              		.loc 1 364 0
 488 01c4 43EA0463 		orr	r3, r3, r4, lsl #24
 362:../../source/src/FWlib/src/stm32f10x_fsmc.c ****                       (FSMC_PCCARDInitStruct->FSMC_AttributeSpaceTimingStruct->FSMC_WaitSetupTime <
 489              		.loc 1 362 0
 490 01c8 D360     		str	r3, [r2, #12]
 369:../../source/src/FWlib/src/stm32f10x_fsmc.c ****                      (FSMC_PCCARDInitStruct->FSMC_IOSpaceTimingStruct->FSMC_WaitSetupTime << 8) |
 491              		.loc 1 369 0
 492 01ca D1E90143 		ldrd	r4, r3, [r1, #4]
 493 01ce 0868     		ldr	r0, [r1]
 494              	.LVL13:
 370:../../source/src/FWlib/src/stm32f10x_fsmc.c ****                      (FSMC_PCCARDInitStruct->FSMC_IOSpaceTimingStruct->FSMC_HoldSetupTime << 16)|
 495              		.loc 1 370 0
 496 01d0 1B04     		lsls	r3, r3, #16
 369:../../source/src/FWlib/src/stm32f10x_fsmc.c ****                      (FSMC_PCCARDInitStruct->FSMC_IOSpaceTimingStruct->FSMC_WaitSetupTime << 8) |
 497              		.loc 1 369 0
 498 01d2 43EA0423 		orr	r3, r3, r4, lsl #8
 371:../../source/src/FWlib/src/stm32f10x_fsmc.c ****                      (FSMC_PCCARDInitStruct->FSMC_IOSpaceTimingStruct->FSMC_HiZSetupTime << 24);   
 499              		.loc 1 371 0
 500 01d6 C968     		ldr	r1, [r1, #12]
 369:../../source/src/FWlib/src/stm32f10x_fsmc.c ****                      (FSMC_PCCARDInitStruct->FSMC_IOSpaceTimingStruct->FSMC_WaitSetupTime << 8) |
 501              		.loc 1 369 0
 502 01d8 0343     		orrs	r3, r3, r0
 370:../../source/src/FWlib/src/stm32f10x_fsmc.c ****                      (FSMC_PCCARDInitStruct->FSMC_IOSpaceTimingStruct->FSMC_HoldSetupTime << 16)|
 503              		.loc 1 370 0
 504 01da 43EA0163 		orr	r3, r3, r1, lsl #24
 368:../../source/src/FWlib/src/stm32f10x_fsmc.c ****                      (FSMC_PCCARDInitStruct->FSMC_IOSpaceTimingStruct->FSMC_WaitSetupTime << 8) |
 505              		.loc 1 368 0
 506 01de 1361     		str	r3, [r2, #16]
 372:../../source/src/FWlib/src/stm32f10x_fsmc.c **** }
 507              		.loc 1 372 0
 508 01e0 30BC     		pop	{r4, r5}
 509              	.LCFI7:
 510              		.cfi_restore 5
 511              		.cfi_restore 4
 512              		.cfi_def_cfa_offset 0
 513 01e2 7047     		bx	lr
 514              	.L26:
 515              		.align	2
 516              	.L25:
ARM GAS  G:\Users\Jaxb\AppData\Local\Temp\cc6z0kxo.s 			page 18


 517 01e4 A00000A0 		.word	-1610612576
 518              		.cfi_endproc
 519              	.LFE34:
 520              		.size	FSMC_PCCARDInit, .-FSMC_PCCARDInit
 521              		.align	1
 522              		.p2align 2,,3
 523              		.global	FSMC_NORSRAMStructInit
 524              		.syntax unified
 525              		.thumb
 526              		.thumb_func
 527              		.fpu softvfp
 528              		.type	FSMC_NORSRAMStructInit, %function
 529              	FSMC_NORSRAMStructInit:
 530              	.LFB35:
 373:../../source/src/FWlib/src/stm32f10x_fsmc.c **** 
 374:../../source/src/FWlib/src/stm32f10x_fsmc.c **** /**
 375:../../source/src/FWlib/src/stm32f10x_fsmc.c ****   * @brief  Fills each FSMC_NORSRAMInitStruct member with its default value.
 376:../../source/src/FWlib/src/stm32f10x_fsmc.c ****   * @param  FSMC_NORSRAMInitStruct: pointer to a FSMC_NORSRAMInitTypeDef 
 377:../../source/src/FWlib/src/stm32f10x_fsmc.c ****   *         structure which will be initialized.
 378:../../source/src/FWlib/src/stm32f10x_fsmc.c ****   * @retval None
 379:../../source/src/FWlib/src/stm32f10x_fsmc.c ****   */
 380:../../source/src/FWlib/src/stm32f10x_fsmc.c **** void FSMC_NORSRAMStructInit(FSMC_NORSRAMInitTypeDef* FSMC_NORSRAMInitStruct)
 381:../../source/src/FWlib/src/stm32f10x_fsmc.c **** {  
 531              		.loc 1 381 0
 532              		.cfi_startproc
 533              		@ args = 0, pretend = 0, frame = 0
 534              		@ frame_needed = 0, uses_anonymous_args = 0
 535              		@ link register save eliminated.
 536              	.LVL14:
 537 01e8 70B4     		push	{r4, r5, r6}
 538              	.LCFI8:
 539              		.cfi_def_cfa_offset 12
 540              		.cfi_offset 4, -12
 541              		.cfi_offset 5, -8
 542              		.cfi_offset 6, -4
 382:../../source/src/FWlib/src/stm32f10x_fsmc.c ****   /* Reset NOR/SRAM Init structure parameters values */
 383:../../source/src/FWlib/src/stm32f10x_fsmc.c ****   FSMC_NORSRAMInitStruct->FSMC_Bank = FSMC_Bank1_NORSRAM1;
 384:../../source/src/FWlib/src/stm32f10x_fsmc.c ****   FSMC_NORSRAMInitStruct->FSMC_DataAddressMux = FSMC_DataAddressMux_Enable;
 385:../../source/src/FWlib/src/stm32f10x_fsmc.c ****   FSMC_NORSRAMInitStruct->FSMC_MemoryType = FSMC_MemoryType_SRAM;
 386:../../source/src/FWlib/src/stm32f10x_fsmc.c ****   FSMC_NORSRAMInitStruct->FSMC_MemoryDataWidth = FSMC_MemoryDataWidth_8b;
 387:../../source/src/FWlib/src/stm32f10x_fsmc.c ****   FSMC_NORSRAMInitStruct->FSMC_BurstAccessMode = FSMC_BurstAccessMode_Disable;
 388:../../source/src/FWlib/src/stm32f10x_fsmc.c ****   FSMC_NORSRAMInitStruct->FSMC_AsynchronousWait = FSMC_AsynchronousWait_Disable;
 389:../../source/src/FWlib/src/stm32f10x_fsmc.c ****   FSMC_NORSRAMInitStruct->FSMC_WaitSignalPolarity = FSMC_WaitSignalPolarity_Low;
 390:../../source/src/FWlib/src/stm32f10x_fsmc.c ****   FSMC_NORSRAMInitStruct->FSMC_WrapMode = FSMC_WrapMode_Disable;
 391:../../source/src/FWlib/src/stm32f10x_fsmc.c ****   FSMC_NORSRAMInitStruct->FSMC_WaitSignalActive = FSMC_WaitSignalActive_BeforeWaitState;
 392:../../source/src/FWlib/src/stm32f10x_fsmc.c ****   FSMC_NORSRAMInitStruct->FSMC_WriteOperation = FSMC_WriteOperation_Enable;
 393:../../source/src/FWlib/src/stm32f10x_fsmc.c ****   FSMC_NORSRAMInitStruct->FSMC_WaitSignal = FSMC_WaitSignal_Enable;
 543              		.loc 1 393 0
 544 01ea 4FF40051 		mov	r1, #8192
 392:../../source/src/FWlib/src/stm32f10x_fsmc.c ****   FSMC_NORSRAMInitStruct->FSMC_WaitSignal = FSMC_WaitSignal_Enable;
 545              		.loc 1 392 0
 546 01ee 4FF48054 		mov	r4, #4096
 383:../../source/src/FWlib/src/stm32f10x_fsmc.c ****   FSMC_NORSRAMInitStruct->FSMC_DataAddressMux = FSMC_DataAddressMux_Enable;
 547              		.loc 1 383 0
 548 01f2 0023     		movs	r3, #0
 394:../../source/src/FWlib/src/stm32f10x_fsmc.c ****   FSMC_NORSRAMInitStruct->FSMC_ExtendedMode = FSMC_ExtendedMode_Disable;
 395:../../source/src/FWlib/src/stm32f10x_fsmc.c ****   FSMC_NORSRAMInitStruct->FSMC_WriteBurst = FSMC_WriteBurst_Disable;
ARM GAS  G:\Users\Jaxb\AppData\Local\Temp\cc6z0kxo.s 			page 19


 396:../../source/src/FWlib/src/stm32f10x_fsmc.c ****   FSMC_NORSRAMInitStruct->FSMC_ReadWriteTimingStruct->FSMC_AddressSetupTime = 0xF;
 549              		.loc 1 396 0
 550 01f4 0F22     		movs	r2, #15
 397:../../source/src/FWlib/src/stm32f10x_fsmc.c ****   FSMC_NORSRAMInitStruct->FSMC_ReadWriteTimingStruct->FSMC_AddressHoldTime = 0xF;
 398:../../source/src/FWlib/src/stm32f10x_fsmc.c ****   FSMC_NORSRAMInitStruct->FSMC_ReadWriteTimingStruct->FSMC_DataSetupTime = 0xFF;
 551              		.loc 1 398 0
 552 01f6 FF25     		movs	r5, #255
 384:../../source/src/FWlib/src/stm32f10x_fsmc.c ****   FSMC_NORSRAMInitStruct->FSMC_MemoryType = FSMC_MemoryType_SRAM;
 553              		.loc 1 384 0
 554 01f8 0226     		movs	r6, #2
 392:../../source/src/FWlib/src/stm32f10x_fsmc.c ****   FSMC_NORSRAMInitStruct->FSMC_WaitSignal = FSMC_WaitSignal_Enable;
 555              		.loc 1 392 0
 556 01fa 4462     		str	r4, [r0, #36]
 393:../../source/src/FWlib/src/stm32f10x_fsmc.c ****   FSMC_NORSRAMInitStruct->FSMC_ExtendedMode = FSMC_ExtendedMode_Disable;
 557              		.loc 1 393 0
 558 01fc 8162     		str	r1, [r0, #40]
 396:../../source/src/FWlib/src/stm32f10x_fsmc.c ****   FSMC_NORSRAMInitStruct->FSMC_ReadWriteTimingStruct->FSMC_AddressHoldTime = 0xF;
 559              		.loc 1 396 0
 560 01fe 446B     		ldr	r4, [r0, #52]
 399:../../source/src/FWlib/src/stm32f10x_fsmc.c ****   FSMC_NORSRAMInitStruct->FSMC_ReadWriteTimingStruct->FSMC_BusTurnAroundDuration = 0xF;
 400:../../source/src/FWlib/src/stm32f10x_fsmc.c ****   FSMC_NORSRAMInitStruct->FSMC_ReadWriteTimingStruct->FSMC_CLKDivision = 0xF;
 401:../../source/src/FWlib/src/stm32f10x_fsmc.c ****   FSMC_NORSRAMInitStruct->FSMC_ReadWriteTimingStruct->FSMC_DataLatency = 0xF;
 402:../../source/src/FWlib/src/stm32f10x_fsmc.c ****   FSMC_NORSRAMInitStruct->FSMC_ReadWriteTimingStruct->FSMC_AccessMode = FSMC_AccessMode_A; 
 403:../../source/src/FWlib/src/stm32f10x_fsmc.c ****   FSMC_NORSRAMInitStruct->FSMC_WriteTimingStruct->FSMC_AddressSetupTime = 0xF;
 561              		.loc 1 403 0
 562 0200 816B     		ldr	r1, [r0, #56]
 384:../../source/src/FWlib/src/stm32f10x_fsmc.c ****   FSMC_NORSRAMInitStruct->FSMC_MemoryType = FSMC_MemoryType_SRAM;
 563              		.loc 1 384 0
 564 0202 4660     		str	r6, [r0, #4]
 383:../../source/src/FWlib/src/stm32f10x_fsmc.c ****   FSMC_NORSRAMInitStruct->FSMC_DataAddressMux = FSMC_DataAddressMux_Enable;
 565              		.loc 1 383 0
 566 0204 0360     		str	r3, [r0]
 386:../../source/src/FWlib/src/stm32f10x_fsmc.c ****   FSMC_NORSRAMInitStruct->FSMC_BurstAccessMode = FSMC_BurstAccessMode_Disable;
 567              		.loc 1 386 0
 568 0206 C0E90233 		strd	r3, r3, [r0, #8]
 388:../../source/src/FWlib/src/stm32f10x_fsmc.c ****   FSMC_NORSRAMInitStruct->FSMC_WaitSignalPolarity = FSMC_WaitSignalPolarity_Low;
 569              		.loc 1 388 0
 570 020a C0E90433 		strd	r3, r3, [r0, #16]
 390:../../source/src/FWlib/src/stm32f10x_fsmc.c ****   FSMC_NORSRAMInitStruct->FSMC_WaitSignalActive = FSMC_WaitSignalActive_BeforeWaitState;
 571              		.loc 1 390 0
 572 020e C0E90633 		strd	r3, r3, [r0, #24]
 391:../../source/src/FWlib/src/stm32f10x_fsmc.c ****   FSMC_NORSRAMInitStruct->FSMC_WriteOperation = FSMC_WriteOperation_Enable;
 573              		.loc 1 391 0
 574 0212 0362     		str	r3, [r0, #32]
 395:../../source/src/FWlib/src/stm32f10x_fsmc.c ****   FSMC_NORSRAMInitStruct->FSMC_ReadWriteTimingStruct->FSMC_AddressSetupTime = 0xF;
 575              		.loc 1 395 0
 576 0214 C0E90B33 		strd	r3, r3, [r0, #44]
 402:../../source/src/FWlib/src/stm32f10x_fsmc.c ****   FSMC_NORSRAMInitStruct->FSMC_WriteTimingStruct->FSMC_AddressSetupTime = 0xF;
 577              		.loc 1 402 0
 578 0218 A361     		str	r3, [r4, #24]
 397:../../source/src/FWlib/src/stm32f10x_fsmc.c ****   FSMC_NORSRAMInitStruct->FSMC_ReadWriteTimingStruct->FSMC_DataSetupTime = 0xFF;
 579              		.loc 1 397 0
 580 021a C4E90022 		strd	r2, r2, [r4]
 400:../../source/src/FWlib/src/stm32f10x_fsmc.c ****   FSMC_NORSRAMInitStruct->FSMC_ReadWriteTimingStruct->FSMC_DataLatency = 0xF;
 581              		.loc 1 400 0
 582 021e C4E90322 		strd	r2, r2, [r4, #12]
 401:../../source/src/FWlib/src/stm32f10x_fsmc.c ****   FSMC_NORSRAMInitStruct->FSMC_ReadWriteTimingStruct->FSMC_AccessMode = FSMC_AccessMode_A; 
ARM GAS  G:\Users\Jaxb\AppData\Local\Temp\cc6z0kxo.s 			page 20


 583              		.loc 1 401 0
 584 0222 6261     		str	r2, [r4, #20]
 398:../../source/src/FWlib/src/stm32f10x_fsmc.c ****   FSMC_NORSRAMInitStruct->FSMC_ReadWriteTimingStruct->FSMC_BusTurnAroundDuration = 0xF;
 585              		.loc 1 398 0
 586 0224 A560     		str	r5, [r4, #8]
 404:../../source/src/FWlib/src/stm32f10x_fsmc.c ****   FSMC_NORSRAMInitStruct->FSMC_WriteTimingStruct->FSMC_AddressHoldTime = 0xF;
 587              		.loc 1 404 0
 588 0226 C1E90022 		strd	r2, r2, [r1]
 405:../../source/src/FWlib/src/stm32f10x_fsmc.c ****   FSMC_NORSRAMInitStruct->FSMC_WriteTimingStruct->FSMC_DataSetupTime = 0xFF;
 406:../../source/src/FWlib/src/stm32f10x_fsmc.c ****   FSMC_NORSRAMInitStruct->FSMC_WriteTimingStruct->FSMC_BusTurnAroundDuration = 0xF;
 589              		.loc 1 406 0
 590 022a C1E90252 		strd	r5, r2, [r1, #8]
 407:../../source/src/FWlib/src/stm32f10x_fsmc.c ****   FSMC_NORSRAMInitStruct->FSMC_WriteTimingStruct->FSMC_CLKDivision = 0xF;
 408:../../source/src/FWlib/src/stm32f10x_fsmc.c ****   FSMC_NORSRAMInitStruct->FSMC_WriteTimingStruct->FSMC_DataLatency = 0xF;
 591              		.loc 1 408 0
 592 022e C1E90422 		strd	r2, r2, [r1, #16]
 409:../../source/src/FWlib/src/stm32f10x_fsmc.c ****   FSMC_NORSRAMInitStruct->FSMC_WriteTimingStruct->FSMC_AccessMode = FSMC_AccessMode_A;
 593              		.loc 1 409 0
 594 0232 8B61     		str	r3, [r1, #24]
 410:../../source/src/FWlib/src/stm32f10x_fsmc.c **** }
 595              		.loc 1 410 0
 596 0234 70BC     		pop	{r4, r5, r6}
 597              	.LCFI9:
 598              		.cfi_restore 6
 599              		.cfi_restore 5
 600              		.cfi_restore 4
 601              		.cfi_def_cfa_offset 0
 602 0236 7047     		bx	lr
 603              		.cfi_endproc
 604              	.LFE35:
 605              		.size	FSMC_NORSRAMStructInit, .-FSMC_NORSRAMStructInit
 606              		.align	1
 607              		.p2align 2,,3
 608              		.global	FSMC_NANDStructInit
 609              		.syntax unified
 610              		.thumb
 611              		.thumb_func
 612              		.fpu softvfp
 613              		.type	FSMC_NANDStructInit, %function
 614              	FSMC_NANDStructInit:
 615              	.LFB36:
 411:../../source/src/FWlib/src/stm32f10x_fsmc.c **** 
 412:../../source/src/FWlib/src/stm32f10x_fsmc.c **** /**
 413:../../source/src/FWlib/src/stm32f10x_fsmc.c ****   * @brief  Fills each FSMC_NANDInitStruct member with its default value.
 414:../../source/src/FWlib/src/stm32f10x_fsmc.c ****   * @param  FSMC_NANDInitStruct: pointer to a FSMC_NANDInitTypeDef 
 415:../../source/src/FWlib/src/stm32f10x_fsmc.c ****   *         structure which will be initialized.
 416:../../source/src/FWlib/src/stm32f10x_fsmc.c ****   * @retval None
 417:../../source/src/FWlib/src/stm32f10x_fsmc.c ****   */
 418:../../source/src/FWlib/src/stm32f10x_fsmc.c **** void FSMC_NANDStructInit(FSMC_NANDInitTypeDef* FSMC_NANDInitStruct)
 419:../../source/src/FWlib/src/stm32f10x_fsmc.c **** { 
 616              		.loc 1 419 0
 617              		.cfi_startproc
 618              		@ args = 0, pretend = 0, frame = 0
 619              		@ frame_needed = 0, uses_anonymous_args = 0
 620              		@ link register save eliminated.
 621              	.LVL15:
 622 0238 30B4     		push	{r4, r5}
ARM GAS  G:\Users\Jaxb\AppData\Local\Temp\cc6z0kxo.s 			page 21


 623              	.LCFI10:
 624              		.cfi_def_cfa_offset 8
 625              		.cfi_offset 4, -8
 626              		.cfi_offset 5, -4
 420:../../source/src/FWlib/src/stm32f10x_fsmc.c ****   /* Reset NAND Init structure parameters values */
 421:../../source/src/FWlib/src/stm32f10x_fsmc.c ****   FSMC_NANDInitStruct->FSMC_Bank = FSMC_Bank2_NAND;
 422:../../source/src/FWlib/src/stm32f10x_fsmc.c ****   FSMC_NANDInitStruct->FSMC_Waitfeature = FSMC_Waitfeature_Disable;
 423:../../source/src/FWlib/src/stm32f10x_fsmc.c ****   FSMC_NANDInitStruct->FSMC_MemoryDataWidth = FSMC_MemoryDataWidth_8b;
 424:../../source/src/FWlib/src/stm32f10x_fsmc.c ****   FSMC_NANDInitStruct->FSMC_ECC = FSMC_ECC_Disable;
 425:../../source/src/FWlib/src/stm32f10x_fsmc.c ****   FSMC_NANDInitStruct->FSMC_ECCPageSize = FSMC_ECCPageSize_256Bytes;
 426:../../source/src/FWlib/src/stm32f10x_fsmc.c ****   FSMC_NANDInitStruct->FSMC_TCLRSetupTime = 0x0;
 427:../../source/src/FWlib/src/stm32f10x_fsmc.c ****   FSMC_NANDInitStruct->FSMC_TARSetupTime = 0x0;
 428:../../source/src/FWlib/src/stm32f10x_fsmc.c ****   FSMC_NANDInitStruct->FSMC_CommonSpaceTimingStruct->FSMC_SetupTime = 0xFC;
 429:../../source/src/FWlib/src/stm32f10x_fsmc.c ****   FSMC_NANDInitStruct->FSMC_CommonSpaceTimingStruct->FSMC_WaitSetupTime = 0xFC;
 430:../../source/src/FWlib/src/stm32f10x_fsmc.c ****   FSMC_NANDInitStruct->FSMC_CommonSpaceTimingStruct->FSMC_HoldSetupTime = 0xFC;
 431:../../source/src/FWlib/src/stm32f10x_fsmc.c ****   FSMC_NANDInitStruct->FSMC_CommonSpaceTimingStruct->FSMC_HiZSetupTime = 0xFC;
 432:../../source/src/FWlib/src/stm32f10x_fsmc.c ****   FSMC_NANDInitStruct->FSMC_AttributeSpaceTimingStruct->FSMC_SetupTime = 0xFC;
 627              		.loc 1 432 0
 628 023a D0E90741 		ldrd	r4, r1, [r0, #28]
 422:../../source/src/FWlib/src/stm32f10x_fsmc.c ****   FSMC_NANDInitStruct->FSMC_MemoryDataWidth = FSMC_MemoryDataWidth_8b;
 629              		.loc 1 422 0
 630 023e 0022     		movs	r2, #0
 428:../../source/src/FWlib/src/stm32f10x_fsmc.c ****   FSMC_NANDInitStruct->FSMC_CommonSpaceTimingStruct->FSMC_WaitSetupTime = 0xFC;
 631              		.loc 1 428 0
 632 0240 FC23     		movs	r3, #252
 421:../../source/src/FWlib/src/stm32f10x_fsmc.c ****   FSMC_NANDInitStruct->FSMC_Waitfeature = FSMC_Waitfeature_Disable;
 633              		.loc 1 421 0
 634 0242 1025     		movs	r5, #16
 424:../../source/src/FWlib/src/stm32f10x_fsmc.c ****   FSMC_NANDInitStruct->FSMC_ECCPageSize = FSMC_ECCPageSize_256Bytes;
 635              		.loc 1 424 0
 636 0244 C0E90222 		strd	r2, r2, [r0, #8]
 422:../../source/src/FWlib/src/stm32f10x_fsmc.c ****   FSMC_NANDInitStruct->FSMC_MemoryDataWidth = FSMC_MemoryDataWidth_8b;
 637              		.loc 1 422 0
 638 0248 C0E90052 		strd	r5, r2, [r0]
 426:../../source/src/FWlib/src/stm32f10x_fsmc.c ****   FSMC_NANDInitStruct->FSMC_TARSetupTime = 0x0;
 639              		.loc 1 426 0
 640 024c C0E90422 		strd	r2, r2, [r0, #16]
 427:../../source/src/FWlib/src/stm32f10x_fsmc.c ****   FSMC_NANDInitStruct->FSMC_CommonSpaceTimingStruct->FSMC_SetupTime = 0xFC;
 641              		.loc 1 427 0
 642 0250 8261     		str	r2, [r0, #24]
 429:../../source/src/FWlib/src/stm32f10x_fsmc.c ****   FSMC_NANDInitStruct->FSMC_CommonSpaceTimingStruct->FSMC_HoldSetupTime = 0xFC;
 643              		.loc 1 429 0
 644 0252 C4E90033 		strd	r3, r3, [r4]
 431:../../source/src/FWlib/src/stm32f10x_fsmc.c ****   FSMC_NANDInitStruct->FSMC_AttributeSpaceTimingStruct->FSMC_SetupTime = 0xFC;
 645              		.loc 1 431 0
 646 0256 C4E90233 		strd	r3, r3, [r4, #8]
 433:../../source/src/FWlib/src/stm32f10x_fsmc.c ****   FSMC_NANDInitStruct->FSMC_AttributeSpaceTimingStruct->FSMC_WaitSetupTime = 0xFC;
 434:../../source/src/FWlib/src/stm32f10x_fsmc.c ****   FSMC_NANDInitStruct->FSMC_AttributeSpaceTimingStruct->FSMC_HoldSetupTime = 0xFC;
 435:../../source/src/FWlib/src/stm32f10x_fsmc.c ****   FSMC_NANDInitStruct->FSMC_AttributeSpaceTimingStruct->FSMC_HiZSetupTime = 0xFC;	  
 436:../../source/src/FWlib/src/stm32f10x_fsmc.c **** }
 647              		.loc 1 436 0
 648 025a 30BC     		pop	{r4, r5}
 649              	.LCFI11:
 650              		.cfi_restore 5
 651              		.cfi_restore 4
 652              		.cfi_def_cfa_offset 0
 433:../../source/src/FWlib/src/stm32f10x_fsmc.c ****   FSMC_NANDInitStruct->FSMC_AttributeSpaceTimingStruct->FSMC_WaitSetupTime = 0xFC;
ARM GAS  G:\Users\Jaxb\AppData\Local\Temp\cc6z0kxo.s 			page 22


 653              		.loc 1 433 0
 654 025c C1E90033 		strd	r3, r3, [r1]
 435:../../source/src/FWlib/src/stm32f10x_fsmc.c **** }
 655              		.loc 1 435 0
 656 0260 C1E90233 		strd	r3, r3, [r1, #8]
 657              		.loc 1 436 0
 658 0264 7047     		bx	lr
 659              		.cfi_endproc
 660              	.LFE36:
 661              		.size	FSMC_NANDStructInit, .-FSMC_NANDStructInit
 662              		.align	1
 663 0266 00BF     		.p2align 2,,3
 664              		.global	FSMC_PCCARDStructInit
 665              		.syntax unified
 666              		.thumb
 667              		.thumb_func
 668              		.fpu softvfp
 669              		.type	FSMC_PCCARDStructInit, %function
 670              	FSMC_PCCARDStructInit:
 671              	.LFB37:
 437:../../source/src/FWlib/src/stm32f10x_fsmc.c **** 
 438:../../source/src/FWlib/src/stm32f10x_fsmc.c **** /**
 439:../../source/src/FWlib/src/stm32f10x_fsmc.c ****   * @brief  Fills each FSMC_PCCARDInitStruct member with its default value.
 440:../../source/src/FWlib/src/stm32f10x_fsmc.c ****   * @param  FSMC_PCCARDInitStruct: pointer to a FSMC_PCCARDInitTypeDef 
 441:../../source/src/FWlib/src/stm32f10x_fsmc.c ****   *         structure which will be initialized.
 442:../../source/src/FWlib/src/stm32f10x_fsmc.c ****   * @retval None
 443:../../source/src/FWlib/src/stm32f10x_fsmc.c ****   */
 444:../../source/src/FWlib/src/stm32f10x_fsmc.c **** void FSMC_PCCARDStructInit(FSMC_PCCARDInitTypeDef* FSMC_PCCARDInitStruct)
 445:../../source/src/FWlib/src/stm32f10x_fsmc.c **** {
 672              		.loc 1 445 0
 673              		.cfi_startproc
 674              		@ args = 0, pretend = 0, frame = 0
 675              		@ frame_needed = 0, uses_anonymous_args = 0
 676              		@ link register save eliminated.
 677              	.LVL16:
 678 0268 30B4     		push	{r4, r5}
 679              	.LCFI12:
 680              		.cfi_def_cfa_offset 8
 681              		.cfi_offset 4, -8
 682              		.cfi_offset 5, -4
 446:../../source/src/FWlib/src/stm32f10x_fsmc.c ****   /* Reset PCCARD Init structure parameters values */
 447:../../source/src/FWlib/src/stm32f10x_fsmc.c ****   FSMC_PCCARDInitStruct->FSMC_Waitfeature = FSMC_Waitfeature_Disable;
 448:../../source/src/FWlib/src/stm32f10x_fsmc.c ****   FSMC_PCCARDInitStruct->FSMC_TCLRSetupTime = 0x0;
 449:../../source/src/FWlib/src/stm32f10x_fsmc.c ****   FSMC_PCCARDInitStruct->FSMC_TARSetupTime = 0x0;
 450:../../source/src/FWlib/src/stm32f10x_fsmc.c ****   FSMC_PCCARDInitStruct->FSMC_CommonSpaceTimingStruct->FSMC_SetupTime = 0xFC;
 451:../../source/src/FWlib/src/stm32f10x_fsmc.c ****   FSMC_PCCARDInitStruct->FSMC_CommonSpaceTimingStruct->FSMC_WaitSetupTime = 0xFC;
 452:../../source/src/FWlib/src/stm32f10x_fsmc.c ****   FSMC_PCCARDInitStruct->FSMC_CommonSpaceTimingStruct->FSMC_HoldSetupTime = 0xFC;
 453:../../source/src/FWlib/src/stm32f10x_fsmc.c ****   FSMC_PCCARDInitStruct->FSMC_CommonSpaceTimingStruct->FSMC_HiZSetupTime = 0xFC;
 454:../../source/src/FWlib/src/stm32f10x_fsmc.c ****   FSMC_PCCARDInitStruct->FSMC_AttributeSpaceTimingStruct->FSMC_SetupTime = 0xFC;
 683              		.loc 1 454 0
 684 026a D0E90341 		ldrd	r4, r1, [r0, #12]
 450:../../source/src/FWlib/src/stm32f10x_fsmc.c ****   FSMC_PCCARDInitStruct->FSMC_CommonSpaceTimingStruct->FSMC_WaitSetupTime = 0xFC;
 685              		.loc 1 450 0
 686 026e FC23     		movs	r3, #252
 447:../../source/src/FWlib/src/stm32f10x_fsmc.c ****   FSMC_PCCARDInitStruct->FSMC_TCLRSetupTime = 0x0;
 687              		.loc 1 447 0
 688 0270 0025     		movs	r5, #0
ARM GAS  G:\Users\Jaxb\AppData\Local\Temp\cc6z0kxo.s 			page 23


 455:../../source/src/FWlib/src/stm32f10x_fsmc.c ****   FSMC_PCCARDInitStruct->FSMC_AttributeSpaceTimingStruct->FSMC_WaitSetupTime = 0xFC;
 456:../../source/src/FWlib/src/stm32f10x_fsmc.c ****   FSMC_PCCARDInitStruct->FSMC_AttributeSpaceTimingStruct->FSMC_HoldSetupTime = 0xFC;
 457:../../source/src/FWlib/src/stm32f10x_fsmc.c ****   FSMC_PCCARDInitStruct->FSMC_AttributeSpaceTimingStruct->FSMC_HiZSetupTime = 0xFC;	
 458:../../source/src/FWlib/src/stm32f10x_fsmc.c ****   FSMC_PCCARDInitStruct->FSMC_IOSpaceTimingStruct->FSMC_SetupTime = 0xFC;
 689              		.loc 1 458 0
 690 0272 4269     		ldr	r2, [r0, #20]
 448:../../source/src/FWlib/src/stm32f10x_fsmc.c ****   FSMC_PCCARDInitStruct->FSMC_TARSetupTime = 0x0;
 691              		.loc 1 448 0
 692 0274 C0E90055 		strd	r5, r5, [r0]
 449:../../source/src/FWlib/src/stm32f10x_fsmc.c ****   FSMC_PCCARDInitStruct->FSMC_CommonSpaceTimingStruct->FSMC_SetupTime = 0xFC;
 693              		.loc 1 449 0
 694 0278 8560     		str	r5, [r0, #8]
 451:../../source/src/FWlib/src/stm32f10x_fsmc.c ****   FSMC_PCCARDInitStruct->FSMC_CommonSpaceTimingStruct->FSMC_HoldSetupTime = 0xFC;
 695              		.loc 1 451 0
 696 027a C4E90033 		strd	r3, r3, [r4]
 453:../../source/src/FWlib/src/stm32f10x_fsmc.c ****   FSMC_PCCARDInitStruct->FSMC_AttributeSpaceTimingStruct->FSMC_SetupTime = 0xFC;
 697              		.loc 1 453 0
 698 027e C4E90233 		strd	r3, r3, [r4, #8]
 459:../../source/src/FWlib/src/stm32f10x_fsmc.c ****   FSMC_PCCARDInitStruct->FSMC_IOSpaceTimingStruct->FSMC_WaitSetupTime = 0xFC;
 460:../../source/src/FWlib/src/stm32f10x_fsmc.c ****   FSMC_PCCARDInitStruct->FSMC_IOSpaceTimingStruct->FSMC_HoldSetupTime = 0xFC;
 461:../../source/src/FWlib/src/stm32f10x_fsmc.c ****   FSMC_PCCARDInitStruct->FSMC_IOSpaceTimingStruct->FSMC_HiZSetupTime = 0xFC;
 462:../../source/src/FWlib/src/stm32f10x_fsmc.c **** }
 699              		.loc 1 462 0
 700 0282 30BC     		pop	{r4, r5}
 701              	.LCFI13:
 702              		.cfi_restore 5
 703              		.cfi_restore 4
 704              		.cfi_def_cfa_offset 0
 455:../../source/src/FWlib/src/stm32f10x_fsmc.c ****   FSMC_PCCARDInitStruct->FSMC_AttributeSpaceTimingStruct->FSMC_HoldSetupTime = 0xFC;
 705              		.loc 1 455 0
 706 0284 C1E90033 		strd	r3, r3, [r1]
 457:../../source/src/FWlib/src/stm32f10x_fsmc.c ****   FSMC_PCCARDInitStruct->FSMC_IOSpaceTimingStruct->FSMC_SetupTime = 0xFC;
 707              		.loc 1 457 0
 708 0288 C1E90233 		strd	r3, r3, [r1, #8]
 459:../../source/src/FWlib/src/stm32f10x_fsmc.c ****   FSMC_PCCARDInitStruct->FSMC_IOSpaceTimingStruct->FSMC_WaitSetupTime = 0xFC;
 709              		.loc 1 459 0
 710 028c C2E90033 		strd	r3, r3, [r2]
 461:../../source/src/FWlib/src/stm32f10x_fsmc.c **** }
 711              		.loc 1 461 0
 712 0290 C2E90233 		strd	r3, r3, [r2, #8]
 713              		.loc 1 462 0
 714 0294 7047     		bx	lr
 715              		.cfi_endproc
 716              	.LFE37:
 717              		.size	FSMC_PCCARDStructInit, .-FSMC_PCCARDStructInit
 718              		.align	1
 719 0296 00BF     		.p2align 2,,3
 720              		.global	FSMC_NORSRAMCmd
 721              		.syntax unified
 722              		.thumb
 723              		.thumb_func
 724              		.fpu softvfp
 725              		.type	FSMC_NORSRAMCmd, %function
 726              	FSMC_NORSRAMCmd:
 727              	.LFB38:
 463:../../source/src/FWlib/src/stm32f10x_fsmc.c **** 
 464:../../source/src/FWlib/src/stm32f10x_fsmc.c **** /**
ARM GAS  G:\Users\Jaxb\AppData\Local\Temp\cc6z0kxo.s 			page 24


 465:../../source/src/FWlib/src/stm32f10x_fsmc.c ****   * @brief  Enables or disables the specified NOR/SRAM Memory Bank.
 466:../../source/src/FWlib/src/stm32f10x_fsmc.c ****   * @param  FSMC_Bank: specifies the FSMC Bank to be used
 467:../../source/src/FWlib/src/stm32f10x_fsmc.c ****   *   This parameter can be one of the following values:
 468:../../source/src/FWlib/src/stm32f10x_fsmc.c ****   *     @arg FSMC_Bank1_NORSRAM1: FSMC Bank1 NOR/SRAM1  
 469:../../source/src/FWlib/src/stm32f10x_fsmc.c ****   *     @arg FSMC_Bank1_NORSRAM2: FSMC Bank1 NOR/SRAM2 
 470:../../source/src/FWlib/src/stm32f10x_fsmc.c ****   *     @arg FSMC_Bank1_NORSRAM3: FSMC Bank1 NOR/SRAM3 
 471:../../source/src/FWlib/src/stm32f10x_fsmc.c ****   *     @arg FSMC_Bank1_NORSRAM4: FSMC Bank1 NOR/SRAM4 
 472:../../source/src/FWlib/src/stm32f10x_fsmc.c ****   * @param  NewState: new state of the FSMC_Bank. This parameter can be: ENABLE or DISABLE.
 473:../../source/src/FWlib/src/stm32f10x_fsmc.c ****   * @retval None
 474:../../source/src/FWlib/src/stm32f10x_fsmc.c ****   */
 475:../../source/src/FWlib/src/stm32f10x_fsmc.c **** void FSMC_NORSRAMCmd(uint32_t FSMC_Bank, FunctionalState NewState)
 476:../../source/src/FWlib/src/stm32f10x_fsmc.c **** {
 728              		.loc 1 476 0
 729              		.cfi_startproc
 730              		@ args = 0, pretend = 0, frame = 0
 731              		@ frame_needed = 0, uses_anonymous_args = 0
 732              		@ link register save eliminated.
 733              	.LVL17:
 734 0298 8000     		lsls	r0, r0, #2
 735              	.LVL18:
 736 029a 00F12040 		add	r0, r0, #-1610612736
 477:../../source/src/FWlib/src/stm32f10x_fsmc.c ****   assert_param(IS_FSMC_NORSRAM_BANK(FSMC_Bank));
 478:../../source/src/FWlib/src/stm32f10x_fsmc.c ****   assert_param(IS_FUNCTIONAL_STATE(NewState));
 479:../../source/src/FWlib/src/stm32f10x_fsmc.c ****   
 480:../../source/src/FWlib/src/stm32f10x_fsmc.c ****   if (NewState != DISABLE)
 737              		.loc 1 480 0
 738 029e 21B9     		cbnz	r1, .L33
 481:../../source/src/FWlib/src/stm32f10x_fsmc.c ****   {
 482:../../source/src/FWlib/src/stm32f10x_fsmc.c ****     /* Enable the selected NOR/SRAM Bank by setting the PBKEN bit in the BCRx register */
 483:../../source/src/FWlib/src/stm32f10x_fsmc.c ****     FSMC_Bank1->BTCR[FSMC_Bank] |= BCR_MBKEN_Set;
 484:../../source/src/FWlib/src/stm32f10x_fsmc.c ****   }
 485:../../source/src/FWlib/src/stm32f10x_fsmc.c ****   else
 486:../../source/src/FWlib/src/stm32f10x_fsmc.c ****   {
 487:../../source/src/FWlib/src/stm32f10x_fsmc.c ****     /* Disable the selected NOR/SRAM Bank by clearing the PBKEN bit in the BCRx register */
 488:../../source/src/FWlib/src/stm32f10x_fsmc.c ****     FSMC_Bank1->BTCR[FSMC_Bank] &= BCR_MBKEN_Reset;
 739              		.loc 1 488 0
 740 02a0 0268     		ldr	r2, [r0]
 741 02a2 044B     		ldr	r3, .L34
 742 02a4 1340     		ands	r3, r3, r2
 743 02a6 0360     		str	r3, [r0]
 489:../../source/src/FWlib/src/stm32f10x_fsmc.c ****   }
 490:../../source/src/FWlib/src/stm32f10x_fsmc.c **** }
 744              		.loc 1 490 0
 745 02a8 7047     		bx	lr
 746              	.L33:
 483:../../source/src/FWlib/src/stm32f10x_fsmc.c ****   }
 747              		.loc 1 483 0
 748 02aa 0368     		ldr	r3, [r0]
 749 02ac 43F00103 		orr	r3, r3, #1
 750 02b0 0360     		str	r3, [r0]
 751 02b2 7047     		bx	lr
 752              	.L35:
 753              		.align	2
 754              	.L34:
 755 02b4 FEFF0F00 		.word	1048574
 756              		.cfi_endproc
 757              	.LFE38:
ARM GAS  G:\Users\Jaxb\AppData\Local\Temp\cc6z0kxo.s 			page 25


 758              		.size	FSMC_NORSRAMCmd, .-FSMC_NORSRAMCmd
 759              		.align	1
 760              		.p2align 2,,3
 761              		.global	FSMC_NANDCmd
 762              		.syntax unified
 763              		.thumb
 764              		.thumb_func
 765              		.fpu softvfp
 766              		.type	FSMC_NANDCmd, %function
 767              	FSMC_NANDCmd:
 768              	.LFB39:
 491:../../source/src/FWlib/src/stm32f10x_fsmc.c **** 
 492:../../source/src/FWlib/src/stm32f10x_fsmc.c **** /**
 493:../../source/src/FWlib/src/stm32f10x_fsmc.c ****   * @brief  Enables or disables the specified NAND Memory Bank.
 494:../../source/src/FWlib/src/stm32f10x_fsmc.c ****   * @param  FSMC_Bank: specifies the FSMC Bank to be used
 495:../../source/src/FWlib/src/stm32f10x_fsmc.c ****   *   This parameter can be one of the following values:
 496:../../source/src/FWlib/src/stm32f10x_fsmc.c ****   *     @arg FSMC_Bank2_NAND: FSMC Bank2 NAND 
 497:../../source/src/FWlib/src/stm32f10x_fsmc.c ****   *     @arg FSMC_Bank3_NAND: FSMC Bank3 NAND
 498:../../source/src/FWlib/src/stm32f10x_fsmc.c ****   * @param  NewState: new state of the FSMC_Bank. This parameter can be: ENABLE or DISABLE.
 499:../../source/src/FWlib/src/stm32f10x_fsmc.c ****   * @retval None
 500:../../source/src/FWlib/src/stm32f10x_fsmc.c ****   */
 501:../../source/src/FWlib/src/stm32f10x_fsmc.c **** void FSMC_NANDCmd(uint32_t FSMC_Bank, FunctionalState NewState)
 502:../../source/src/FWlib/src/stm32f10x_fsmc.c **** {
 769              		.loc 1 502 0
 770              		.cfi_startproc
 771              		@ args = 0, pretend = 0, frame = 0
 772              		@ frame_needed = 0, uses_anonymous_args = 0
 773              		@ link register save eliminated.
 774              	.LVL19:
 503:../../source/src/FWlib/src/stm32f10x_fsmc.c ****   assert_param(IS_FSMC_NAND_BANK(FSMC_Bank));
 504:../../source/src/FWlib/src/stm32f10x_fsmc.c ****   assert_param(IS_FUNCTIONAL_STATE(NewState));
 505:../../source/src/FWlib/src/stm32f10x_fsmc.c ****   
 506:../../source/src/FWlib/src/stm32f10x_fsmc.c ****   if (NewState != DISABLE)
 775              		.loc 1 506 0
 776 02b8 41B1     		cbz	r1, .L37
 507:../../source/src/FWlib/src/stm32f10x_fsmc.c ****   {
 508:../../source/src/FWlib/src/stm32f10x_fsmc.c ****     /* Enable the selected NAND Bank by setting the PBKEN bit in the PCRx register */
 509:../../source/src/FWlib/src/stm32f10x_fsmc.c ****     if(FSMC_Bank == FSMC_Bank2_NAND)
 777              		.loc 1 509 0
 778 02ba 1028     		cmp	r0, #16
 510:../../source/src/FWlib/src/stm32f10x_fsmc.c ****     {
 511:../../source/src/FWlib/src/stm32f10x_fsmc.c ****       FSMC_Bank2->PCR2 |= PCR_PBKEN_Set;
 779              		.loc 1 511 0
 780 02bc 0CBF     		ite	eq
 781 02be 084A     		ldreq	r2, .L41
 512:../../source/src/FWlib/src/stm32f10x_fsmc.c ****     }
 513:../../source/src/FWlib/src/stm32f10x_fsmc.c ****     else
 514:../../source/src/FWlib/src/stm32f10x_fsmc.c ****     {
 515:../../source/src/FWlib/src/stm32f10x_fsmc.c ****       FSMC_Bank3->PCR3 |= PCR_PBKEN_Set;
 782              		.loc 1 515 0
 783 02c0 084A     		ldrne	r2, .L41+4
 784 02c2 1368     		ldr	r3, [r2]
 785 02c4 43F00403 		orr	r3, r3, #4
 786 02c8 1360     		str	r3, [r2]
 787 02ca 7047     		bx	lr
 788              	.L37:
 516:../../source/src/FWlib/src/stm32f10x_fsmc.c ****     }
ARM GAS  G:\Users\Jaxb\AppData\Local\Temp\cc6z0kxo.s 			page 26


 517:../../source/src/FWlib/src/stm32f10x_fsmc.c ****   }
 518:../../source/src/FWlib/src/stm32f10x_fsmc.c ****   else
 519:../../source/src/FWlib/src/stm32f10x_fsmc.c ****   {
 520:../../source/src/FWlib/src/stm32f10x_fsmc.c ****     /* Disable the selected NAND Bank by clearing the PBKEN bit in the PCRx register */
 521:../../source/src/FWlib/src/stm32f10x_fsmc.c ****     if(FSMC_Bank == FSMC_Bank2_NAND)
 789              		.loc 1 521 0
 790 02cc 1028     		cmp	r0, #16
 522:../../source/src/FWlib/src/stm32f10x_fsmc.c ****     {
 523:../../source/src/FWlib/src/stm32f10x_fsmc.c ****       FSMC_Bank2->PCR2 &= PCR_PBKEN_Reset;
 791              		.loc 1 523 0
 792 02ce 0CBF     		ite	eq
 793 02d0 034A     		ldreq	r2, .L41
 524:../../source/src/FWlib/src/stm32f10x_fsmc.c ****     }
 525:../../source/src/FWlib/src/stm32f10x_fsmc.c ****     else
 526:../../source/src/FWlib/src/stm32f10x_fsmc.c ****     {
 527:../../source/src/FWlib/src/stm32f10x_fsmc.c ****       FSMC_Bank3->PCR3 &= PCR_PBKEN_Reset;
 794              		.loc 1 527 0
 795 02d2 044A     		ldrne	r2, .L41+4
 796 02d4 044B     		ldr	r3, .L41+8
 797 02d6 1168     		ldr	r1, [r2]
 798              	.LVL20:
 799 02d8 0B40     		ands	r3, r3, r1
 800 02da 1360     		str	r3, [r2]
 528:../../source/src/FWlib/src/stm32f10x_fsmc.c ****     }
 529:../../source/src/FWlib/src/stm32f10x_fsmc.c ****   }
 530:../../source/src/FWlib/src/stm32f10x_fsmc.c **** }
 801              		.loc 1 530 0
 802 02dc 7047     		bx	lr
 803              	.L42:
 804 02de 00BF     		.align	2
 805              	.L41:
 806 02e0 600000A0 		.word	-1610612640
 807 02e4 800000A0 		.word	-1610612608
 808 02e8 FBFF0F00 		.word	1048571
 809              		.cfi_endproc
 810              	.LFE39:
 811              		.size	FSMC_NANDCmd, .-FSMC_NANDCmd
 812              		.align	1
 813              		.p2align 2,,3
 814              		.global	FSMC_PCCARDCmd
 815              		.syntax unified
 816              		.thumb
 817              		.thumb_func
 818              		.fpu softvfp
 819              		.type	FSMC_PCCARDCmd, %function
 820              	FSMC_PCCARDCmd:
 821              	.LFB40:
 531:../../source/src/FWlib/src/stm32f10x_fsmc.c **** 
 532:../../source/src/FWlib/src/stm32f10x_fsmc.c **** /**
 533:../../source/src/FWlib/src/stm32f10x_fsmc.c ****   * @brief  Enables or disables the PCCARD Memory Bank.
 534:../../source/src/FWlib/src/stm32f10x_fsmc.c ****   * @param  NewState: new state of the PCCARD Memory Bank.  
 535:../../source/src/FWlib/src/stm32f10x_fsmc.c ****   *   This parameter can be: ENABLE or DISABLE.
 536:../../source/src/FWlib/src/stm32f10x_fsmc.c ****   * @retval None
 537:../../source/src/FWlib/src/stm32f10x_fsmc.c ****   */
 538:../../source/src/FWlib/src/stm32f10x_fsmc.c **** void FSMC_PCCARDCmd(FunctionalState NewState)
 539:../../source/src/FWlib/src/stm32f10x_fsmc.c **** {
 822              		.loc 1 539 0
ARM GAS  G:\Users\Jaxb\AppData\Local\Temp\cc6z0kxo.s 			page 27


 823              		.cfi_startproc
 824              		@ args = 0, pretend = 0, frame = 0
 825              		@ frame_needed = 0, uses_anonymous_args = 0
 826              		@ link register save eliminated.
 827              	.LVL21:
 540:../../source/src/FWlib/src/stm32f10x_fsmc.c ****   assert_param(IS_FUNCTIONAL_STATE(NewState));
 541:../../source/src/FWlib/src/stm32f10x_fsmc.c ****   
 542:../../source/src/FWlib/src/stm32f10x_fsmc.c ****   if (NewState != DISABLE)
 543:../../source/src/FWlib/src/stm32f10x_fsmc.c ****   {
 544:../../source/src/FWlib/src/stm32f10x_fsmc.c ****     /* Enable the PCCARD Bank by setting the PBKEN bit in the PCR4 register */
 545:../../source/src/FWlib/src/stm32f10x_fsmc.c ****     FSMC_Bank4->PCR4 |= PCR_PBKEN_Set;
 828              		.loc 1 545 0
 829 02ec 054A     		ldr	r2, .L47
 542:../../source/src/FWlib/src/stm32f10x_fsmc.c ****   {
 830              		.loc 1 542 0
 831 02ee 20B9     		cbnz	r0, .L46
 546:../../source/src/FWlib/src/stm32f10x_fsmc.c ****   }
 547:../../source/src/FWlib/src/stm32f10x_fsmc.c ****   else
 548:../../source/src/FWlib/src/stm32f10x_fsmc.c ****   {
 549:../../source/src/FWlib/src/stm32f10x_fsmc.c ****     /* Disable the PCCARD Bank by clearing the PBKEN bit in the PCR4 register */
 550:../../source/src/FWlib/src/stm32f10x_fsmc.c ****     FSMC_Bank4->PCR4 &= PCR_PBKEN_Reset;
 832              		.loc 1 550 0
 833 02f0 1168     		ldr	r1, [r2]
 834 02f2 054B     		ldr	r3, .L47+4
 835 02f4 0B40     		ands	r3, r3, r1
 836 02f6 1360     		str	r3, [r2]
 551:../../source/src/FWlib/src/stm32f10x_fsmc.c ****   }
 552:../../source/src/FWlib/src/stm32f10x_fsmc.c **** }
 837              		.loc 1 552 0
 838 02f8 7047     		bx	lr
 839              	.L46:
 545:../../source/src/FWlib/src/stm32f10x_fsmc.c ****   }
 840              		.loc 1 545 0
 841 02fa 1368     		ldr	r3, [r2]
 842 02fc 43F00403 		orr	r3, r3, #4
 843 0300 1360     		str	r3, [r2]
 844 0302 7047     		bx	lr
 845              	.L48:
 846              		.align	2
 847              	.L47:
 848 0304 A00000A0 		.word	-1610612576
 849 0308 FBFF0F00 		.word	1048571
 850              		.cfi_endproc
 851              	.LFE40:
 852              		.size	FSMC_PCCARDCmd, .-FSMC_PCCARDCmd
 853              		.align	1
 854              		.p2align 2,,3
 855              		.global	FSMC_NANDECCCmd
 856              		.syntax unified
 857              		.thumb
 858              		.thumb_func
 859              		.fpu softvfp
 860              		.type	FSMC_NANDECCCmd, %function
 861              	FSMC_NANDECCCmd:
 862              	.LFB41:
 553:../../source/src/FWlib/src/stm32f10x_fsmc.c **** 
 554:../../source/src/FWlib/src/stm32f10x_fsmc.c **** /**
ARM GAS  G:\Users\Jaxb\AppData\Local\Temp\cc6z0kxo.s 			page 28


 555:../../source/src/FWlib/src/stm32f10x_fsmc.c ****   * @brief  Enables or disables the FSMC NAND ECC feature.
 556:../../source/src/FWlib/src/stm32f10x_fsmc.c ****   * @param  FSMC_Bank: specifies the FSMC Bank to be used
 557:../../source/src/FWlib/src/stm32f10x_fsmc.c ****   *   This parameter can be one of the following values:
 558:../../source/src/FWlib/src/stm32f10x_fsmc.c ****   *     @arg FSMC_Bank2_NAND: FSMC Bank2 NAND 
 559:../../source/src/FWlib/src/stm32f10x_fsmc.c ****   *     @arg FSMC_Bank3_NAND: FSMC Bank3 NAND
 560:../../source/src/FWlib/src/stm32f10x_fsmc.c ****   * @param  NewState: new state of the FSMC NAND ECC feature.  
 561:../../source/src/FWlib/src/stm32f10x_fsmc.c ****   *   This parameter can be: ENABLE or DISABLE.
 562:../../source/src/FWlib/src/stm32f10x_fsmc.c ****   * @retval None
 563:../../source/src/FWlib/src/stm32f10x_fsmc.c ****   */
 564:../../source/src/FWlib/src/stm32f10x_fsmc.c **** void FSMC_NANDECCCmd(uint32_t FSMC_Bank, FunctionalState NewState)
 565:../../source/src/FWlib/src/stm32f10x_fsmc.c **** {
 863              		.loc 1 565 0
 864              		.cfi_startproc
 865              		@ args = 0, pretend = 0, frame = 0
 866              		@ frame_needed = 0, uses_anonymous_args = 0
 867              		@ link register save eliminated.
 868              	.LVL22:
 566:../../source/src/FWlib/src/stm32f10x_fsmc.c ****   assert_param(IS_FSMC_NAND_BANK(FSMC_Bank));
 567:../../source/src/FWlib/src/stm32f10x_fsmc.c ****   assert_param(IS_FUNCTIONAL_STATE(NewState));
 568:../../source/src/FWlib/src/stm32f10x_fsmc.c ****   
 569:../../source/src/FWlib/src/stm32f10x_fsmc.c ****   if (NewState != DISABLE)
 869              		.loc 1 569 0
 870 030c 41B1     		cbz	r1, .L50
 570:../../source/src/FWlib/src/stm32f10x_fsmc.c ****   {
 571:../../source/src/FWlib/src/stm32f10x_fsmc.c ****     /* Enable the selected NAND Bank ECC function by setting the ECCEN bit in the PCRx register */
 572:../../source/src/FWlib/src/stm32f10x_fsmc.c ****     if(FSMC_Bank == FSMC_Bank2_NAND)
 871              		.loc 1 572 0
 872 030e 1028     		cmp	r0, #16
 573:../../source/src/FWlib/src/stm32f10x_fsmc.c ****     {
 574:../../source/src/FWlib/src/stm32f10x_fsmc.c ****       FSMC_Bank2->PCR2 |= PCR_ECCEN_Set;
 873              		.loc 1 574 0
 874 0310 0CBF     		ite	eq
 875 0312 084A     		ldreq	r2, .L54
 575:../../source/src/FWlib/src/stm32f10x_fsmc.c ****     }
 576:../../source/src/FWlib/src/stm32f10x_fsmc.c ****     else
 577:../../source/src/FWlib/src/stm32f10x_fsmc.c ****     {
 578:../../source/src/FWlib/src/stm32f10x_fsmc.c ****       FSMC_Bank3->PCR3 |= PCR_ECCEN_Set;
 876              		.loc 1 578 0
 877 0314 084A     		ldrne	r2, .L54+4
 878 0316 1368     		ldr	r3, [r2]
 879 0318 43F04003 		orr	r3, r3, #64
 880 031c 1360     		str	r3, [r2]
 881 031e 7047     		bx	lr
 882              	.L50:
 579:../../source/src/FWlib/src/stm32f10x_fsmc.c ****     }
 580:../../source/src/FWlib/src/stm32f10x_fsmc.c ****   }
 581:../../source/src/FWlib/src/stm32f10x_fsmc.c ****   else
 582:../../source/src/FWlib/src/stm32f10x_fsmc.c ****   {
 583:../../source/src/FWlib/src/stm32f10x_fsmc.c ****     /* Disable the selected NAND Bank ECC function by clearing the ECCEN bit in the PCRx register *
 584:../../source/src/FWlib/src/stm32f10x_fsmc.c ****     if(FSMC_Bank == FSMC_Bank2_NAND)
 883              		.loc 1 584 0
 884 0320 1028     		cmp	r0, #16
 585:../../source/src/FWlib/src/stm32f10x_fsmc.c ****     {
 586:../../source/src/FWlib/src/stm32f10x_fsmc.c ****       FSMC_Bank2->PCR2 &= PCR_ECCEN_Reset;
 885              		.loc 1 586 0
 886 0322 0CBF     		ite	eq
 887 0324 034A     		ldreq	r2, .L54
ARM GAS  G:\Users\Jaxb\AppData\Local\Temp\cc6z0kxo.s 			page 29


 587:../../source/src/FWlib/src/stm32f10x_fsmc.c ****     }
 588:../../source/src/FWlib/src/stm32f10x_fsmc.c ****     else
 589:../../source/src/FWlib/src/stm32f10x_fsmc.c ****     {
 590:../../source/src/FWlib/src/stm32f10x_fsmc.c ****       FSMC_Bank3->PCR3 &= PCR_ECCEN_Reset;
 888              		.loc 1 590 0
 889 0326 044A     		ldrne	r2, .L54+4
 890 0328 044B     		ldr	r3, .L54+8
 891 032a 1168     		ldr	r1, [r2]
 892              	.LVL23:
 893 032c 0B40     		ands	r3, r3, r1
 894 032e 1360     		str	r3, [r2]
 591:../../source/src/FWlib/src/stm32f10x_fsmc.c ****     }
 592:../../source/src/FWlib/src/stm32f10x_fsmc.c ****   }
 593:../../source/src/FWlib/src/stm32f10x_fsmc.c **** }
 895              		.loc 1 593 0
 896 0330 7047     		bx	lr
 897              	.L55:
 898 0332 00BF     		.align	2
 899              	.L54:
 900 0334 600000A0 		.word	-1610612640
 901 0338 800000A0 		.word	-1610612608
 902 033c BFFF0F00 		.word	1048511
 903              		.cfi_endproc
 904              	.LFE41:
 905              		.size	FSMC_NANDECCCmd, .-FSMC_NANDECCCmd
 906              		.align	1
 907              		.p2align 2,,3
 908              		.global	FSMC_GetECC
 909              		.syntax unified
 910              		.thumb
 911              		.thumb_func
 912              		.fpu softvfp
 913              		.type	FSMC_GetECC, %function
 914              	FSMC_GetECC:
 915              	.LFB42:
 594:../../source/src/FWlib/src/stm32f10x_fsmc.c **** 
 595:../../source/src/FWlib/src/stm32f10x_fsmc.c **** /**
 596:../../source/src/FWlib/src/stm32f10x_fsmc.c ****   * @brief  Returns the error correction code register value.
 597:../../source/src/FWlib/src/stm32f10x_fsmc.c ****   * @param  FSMC_Bank: specifies the FSMC Bank to be used
 598:../../source/src/FWlib/src/stm32f10x_fsmc.c ****   *   This parameter can be one of the following values:
 599:../../source/src/FWlib/src/stm32f10x_fsmc.c ****   *     @arg FSMC_Bank2_NAND: FSMC Bank2 NAND 
 600:../../source/src/FWlib/src/stm32f10x_fsmc.c ****   *     @arg FSMC_Bank3_NAND: FSMC Bank3 NAND
 601:../../source/src/FWlib/src/stm32f10x_fsmc.c ****   * @retval The Error Correction Code (ECC) value.
 602:../../source/src/FWlib/src/stm32f10x_fsmc.c ****   */
 603:../../source/src/FWlib/src/stm32f10x_fsmc.c **** uint32_t FSMC_GetECC(uint32_t FSMC_Bank)
 604:../../source/src/FWlib/src/stm32f10x_fsmc.c **** {
 916              		.loc 1 604 0
 917              		.cfi_startproc
 918              		@ args = 0, pretend = 0, frame = 0
 919              		@ frame_needed = 0, uses_anonymous_args = 0
 920              		@ link register save eliminated.
 921              	.LVL24:
 605:../../source/src/FWlib/src/stm32f10x_fsmc.c ****   uint32_t eccval = 0x00000000;
 606:../../source/src/FWlib/src/stm32f10x_fsmc.c ****   
 607:../../source/src/FWlib/src/stm32f10x_fsmc.c ****   if(FSMC_Bank == FSMC_Bank2_NAND)
 922              		.loc 1 607 0
 923 0340 1028     		cmp	r0, #16
ARM GAS  G:\Users\Jaxb\AppData\Local\Temp\cc6z0kxo.s 			page 30


 608:../../source/src/FWlib/src/stm32f10x_fsmc.c ****   {
 609:../../source/src/FWlib/src/stm32f10x_fsmc.c ****     /* Get the ECCR2 register value */
 610:../../source/src/FWlib/src/stm32f10x_fsmc.c ****     eccval = FSMC_Bank2->ECCR2;
 924              		.loc 1 610 0
 925 0342 0CBF     		ite	eq
 926 0344 014B     		ldreq	r3, .L59
 611:../../source/src/FWlib/src/stm32f10x_fsmc.c ****   }
 612:../../source/src/FWlib/src/stm32f10x_fsmc.c ****   else
 613:../../source/src/FWlib/src/stm32f10x_fsmc.c ****   {
 614:../../source/src/FWlib/src/stm32f10x_fsmc.c ****     /* Get the ECCR3 register value */
 615:../../source/src/FWlib/src/stm32f10x_fsmc.c ****     eccval = FSMC_Bank3->ECCR3;
 927              		.loc 1 615 0
 928 0346 024B     		ldrne	r3, .L59+4
 929 0348 5869     		ldr	r0, [r3, #20]
 930              	.LVL25:
 616:../../source/src/FWlib/src/stm32f10x_fsmc.c ****   }
 617:../../source/src/FWlib/src/stm32f10x_fsmc.c ****   /* Return the error correction code value */
 618:../../source/src/FWlib/src/stm32f10x_fsmc.c ****   return(eccval);
 619:../../source/src/FWlib/src/stm32f10x_fsmc.c **** }
 931              		.loc 1 619 0
 932 034a 7047     		bx	lr
 933              	.L60:
 934              		.align	2
 935              	.L59:
 936 034c 600000A0 		.word	-1610612640
 937 0350 800000A0 		.word	-1610612608
 938              		.cfi_endproc
 939              	.LFE42:
 940              		.size	FSMC_GetECC, .-FSMC_GetECC
 941              		.align	1
 942              		.p2align 2,,3
 943              		.global	FSMC_ITConfig
 944              		.syntax unified
 945              		.thumb
 946              		.thumb_func
 947              		.fpu softvfp
 948              		.type	FSMC_ITConfig, %function
 949              	FSMC_ITConfig:
 950              	.LFB43:
 620:../../source/src/FWlib/src/stm32f10x_fsmc.c **** 
 621:../../source/src/FWlib/src/stm32f10x_fsmc.c **** /**
 622:../../source/src/FWlib/src/stm32f10x_fsmc.c ****   * @brief  Enables or disables the specified FSMC interrupts.
 623:../../source/src/FWlib/src/stm32f10x_fsmc.c ****   * @param  FSMC_Bank: specifies the FSMC Bank to be used
 624:../../source/src/FWlib/src/stm32f10x_fsmc.c ****   *   This parameter can be one of the following values:
 625:../../source/src/FWlib/src/stm32f10x_fsmc.c ****   *     @arg FSMC_Bank2_NAND: FSMC Bank2 NAND 
 626:../../source/src/FWlib/src/stm32f10x_fsmc.c ****   *     @arg FSMC_Bank3_NAND: FSMC Bank3 NAND
 627:../../source/src/FWlib/src/stm32f10x_fsmc.c ****   *     @arg FSMC_Bank4_PCCARD: FSMC Bank4 PCCARD
 628:../../source/src/FWlib/src/stm32f10x_fsmc.c ****   * @param  FSMC_IT: specifies the FSMC interrupt sources to be enabled or disabled.
 629:../../source/src/FWlib/src/stm32f10x_fsmc.c ****   *   This parameter can be any combination of the following values:
 630:../../source/src/FWlib/src/stm32f10x_fsmc.c ****   *     @arg FSMC_IT_RisingEdge: Rising edge detection interrupt. 
 631:../../source/src/FWlib/src/stm32f10x_fsmc.c ****   *     @arg FSMC_IT_Level: Level edge detection interrupt.
 632:../../source/src/FWlib/src/stm32f10x_fsmc.c ****   *     @arg FSMC_IT_FallingEdge: Falling edge detection interrupt.
 633:../../source/src/FWlib/src/stm32f10x_fsmc.c ****   * @param  NewState: new state of the specified FSMC interrupts.
 634:../../source/src/FWlib/src/stm32f10x_fsmc.c ****   *   This parameter can be: ENABLE or DISABLE.
 635:../../source/src/FWlib/src/stm32f10x_fsmc.c ****   * @retval None
 636:../../source/src/FWlib/src/stm32f10x_fsmc.c ****   */
 637:../../source/src/FWlib/src/stm32f10x_fsmc.c **** void FSMC_ITConfig(uint32_t FSMC_Bank, uint32_t FSMC_IT, FunctionalState NewState)
ARM GAS  G:\Users\Jaxb\AppData\Local\Temp\cc6z0kxo.s 			page 31


 638:../../source/src/FWlib/src/stm32f10x_fsmc.c **** {
 951              		.loc 1 638 0
 952              		.cfi_startproc
 953              		@ args = 0, pretend = 0, frame = 0
 954              		@ frame_needed = 0, uses_anonymous_args = 0
 955              		@ link register save eliminated.
 956              	.LVL26:
 639:../../source/src/FWlib/src/stm32f10x_fsmc.c ****   assert_param(IS_FSMC_IT_BANK(FSMC_Bank));
 640:../../source/src/FWlib/src/stm32f10x_fsmc.c ****   assert_param(IS_FSMC_IT(FSMC_IT));	
 641:../../source/src/FWlib/src/stm32f10x_fsmc.c ****   assert_param(IS_FUNCTIONAL_STATE(NewState));
 642:../../source/src/FWlib/src/stm32f10x_fsmc.c ****   
 643:../../source/src/FWlib/src/stm32f10x_fsmc.c ****   if (NewState != DISABLE)
 957              		.loc 1 643 0
 958 0354 52B1     		cbz	r2, .L62
 644:../../source/src/FWlib/src/stm32f10x_fsmc.c ****   {
 645:../../source/src/FWlib/src/stm32f10x_fsmc.c ****     /* Enable the selected FSMC_Bank2 interrupts */
 646:../../source/src/FWlib/src/stm32f10x_fsmc.c ****     if(FSMC_Bank == FSMC_Bank2_NAND)
 959              		.loc 1 646 0
 960 0356 1028     		cmp	r0, #16
 961 0358 1AD0     		beq	.L68
 647:../../source/src/FWlib/src/stm32f10x_fsmc.c ****     {
 648:../../source/src/FWlib/src/stm32f10x_fsmc.c ****       FSMC_Bank2->SR2 |= FSMC_IT;
 649:../../source/src/FWlib/src/stm32f10x_fsmc.c ****     }
 650:../../source/src/FWlib/src/stm32f10x_fsmc.c ****     /* Enable the selected FSMC_Bank3 interrupts */
 651:../../source/src/FWlib/src/stm32f10x_fsmc.c ****     else if (FSMC_Bank == FSMC_Bank3_NAND)
 962              		.loc 1 651 0
 963 035a B0F5807F 		cmp	r0, #256
 652:../../source/src/FWlib/src/stm32f10x_fsmc.c ****     {
 653:../../source/src/FWlib/src/stm32f10x_fsmc.c ****       FSMC_Bank3->SR3 |= FSMC_IT;
 964              		.loc 1 653 0
 965 035e 0CBF     		ite	eq
 966 0360 0E4A     		ldreq	r2, .L70
 967              	.LVL27:
 654:../../source/src/FWlib/src/stm32f10x_fsmc.c ****     }
 655:../../source/src/FWlib/src/stm32f10x_fsmc.c ****     /* Enable the selected FSMC_Bank4 interrupts */
 656:../../source/src/FWlib/src/stm32f10x_fsmc.c ****     else
 657:../../source/src/FWlib/src/stm32f10x_fsmc.c ****     {
 658:../../source/src/FWlib/src/stm32f10x_fsmc.c ****       FSMC_Bank4->SR4 |= FSMC_IT;    
 968              		.loc 1 658 0
 969 0362 0F4A     		ldrne	r2, .L70+4
 970 0364 5368     		ldr	r3, [r2, #4]
 971 0366 1943     		orrs	r1, r1, r3
 972              	.LVL28:
 973 0368 5160     		str	r1, [r2, #4]
 974 036a 7047     		bx	lr
 975              	.LVL29:
 976              	.L62:
 659:../../source/src/FWlib/src/stm32f10x_fsmc.c ****     }
 660:../../source/src/FWlib/src/stm32f10x_fsmc.c ****   }
 661:../../source/src/FWlib/src/stm32f10x_fsmc.c ****   else
 662:../../source/src/FWlib/src/stm32f10x_fsmc.c ****   {
 663:../../source/src/FWlib/src/stm32f10x_fsmc.c ****     /* Disable the selected FSMC_Bank2 interrupts */
 664:../../source/src/FWlib/src/stm32f10x_fsmc.c ****     if(FSMC_Bank == FSMC_Bank2_NAND)
 977              		.loc 1 664 0
 978 036c 1028     		cmp	r0, #16
 979 036e 6FEA0101 		mvn	r1, r1
 980              	.LVL30:
ARM GAS  G:\Users\Jaxb\AppData\Local\Temp\cc6z0kxo.s 			page 32


 981 0372 08D0     		beq	.L69
 665:../../source/src/FWlib/src/stm32f10x_fsmc.c ****     {
 666:../../source/src/FWlib/src/stm32f10x_fsmc.c ****       
 667:../../source/src/FWlib/src/stm32f10x_fsmc.c ****       FSMC_Bank2->SR2 &= (uint32_t)~FSMC_IT;
 668:../../source/src/FWlib/src/stm32f10x_fsmc.c ****     }
 669:../../source/src/FWlib/src/stm32f10x_fsmc.c ****     /* Disable the selected FSMC_Bank3 interrupts */
 670:../../source/src/FWlib/src/stm32f10x_fsmc.c ****     else if (FSMC_Bank == FSMC_Bank3_NAND)
 982              		.loc 1 670 0
 983 0374 B0F5807F 		cmp	r0, #256
 671:../../source/src/FWlib/src/stm32f10x_fsmc.c ****     {
 672:../../source/src/FWlib/src/stm32f10x_fsmc.c ****       FSMC_Bank3->SR3 &= (uint32_t)~FSMC_IT;
 984              		.loc 1 672 0
 985 0378 0CBF     		ite	eq
 986 037a 084A     		ldreq	r2, .L70
 987              	.LVL31:
 673:../../source/src/FWlib/src/stm32f10x_fsmc.c ****     }
 674:../../source/src/FWlib/src/stm32f10x_fsmc.c ****     /* Disable the selected FSMC_Bank4 interrupts */
 675:../../source/src/FWlib/src/stm32f10x_fsmc.c ****     else
 676:../../source/src/FWlib/src/stm32f10x_fsmc.c ****     {
 677:../../source/src/FWlib/src/stm32f10x_fsmc.c ****       FSMC_Bank4->SR4 &= (uint32_t)~FSMC_IT;    
 988              		.loc 1 677 0
 989 037c 084A     		ldrne	r2, .L70+4
 990 037e 5368     		ldr	r3, [r2, #4]
 991 0380 1940     		ands	r1, r1, r3
 992              	.LVL32:
 993 0382 5160     		str	r1, [r2, #4]
 678:../../source/src/FWlib/src/stm32f10x_fsmc.c ****     }
 679:../../source/src/FWlib/src/stm32f10x_fsmc.c ****   }
 680:../../source/src/FWlib/src/stm32f10x_fsmc.c **** }
 994              		.loc 1 680 0
 995 0384 7047     		bx	lr
 996              	.LVL33:
 997              	.L69:
 667:../../source/src/FWlib/src/stm32f10x_fsmc.c ****     }
 998              		.loc 1 667 0
 999 0386 074A     		ldr	r2, .L70+8
 1000              	.LVL34:
 1001 0388 5368     		ldr	r3, [r2, #4]
 1002 038a 1940     		ands	r1, r1, r3
 1003 038c 5160     		str	r1, [r2, #4]
 1004 038e 7047     		bx	lr
 1005              	.LVL35:
 1006              	.L68:
 648:../../source/src/FWlib/src/stm32f10x_fsmc.c ****     }
 1007              		.loc 1 648 0
 1008 0390 044A     		ldr	r2, .L70+8
 1009              	.LVL36:
 1010 0392 5368     		ldr	r3, [r2, #4]
 1011 0394 1943     		orrs	r1, r1, r3
 1012              	.LVL37:
 1013 0396 5160     		str	r1, [r2, #4]
 1014 0398 7047     		bx	lr
 1015              	.L71:
 1016 039a 00BF     		.align	2
 1017              	.L70:
 1018 039c 800000A0 		.word	-1610612608
 1019 03a0 A00000A0 		.word	-1610612576
ARM GAS  G:\Users\Jaxb\AppData\Local\Temp\cc6z0kxo.s 			page 33


 1020 03a4 600000A0 		.word	-1610612640
 1021              		.cfi_endproc
 1022              	.LFE43:
 1023              		.size	FSMC_ITConfig, .-FSMC_ITConfig
 1024              		.align	1
 1025              		.p2align 2,,3
 1026              		.global	FSMC_GetFlagStatus
 1027              		.syntax unified
 1028              		.thumb
 1029              		.thumb_func
 1030              		.fpu softvfp
 1031              		.type	FSMC_GetFlagStatus, %function
 1032              	FSMC_GetFlagStatus:
 1033              	.LFB44:
 681:../../source/src/FWlib/src/stm32f10x_fsmc.c **** 
 682:../../source/src/FWlib/src/stm32f10x_fsmc.c **** /**
 683:../../source/src/FWlib/src/stm32f10x_fsmc.c ****   * @brief  Checks whether the specified FSMC flag is set or not.
 684:../../source/src/FWlib/src/stm32f10x_fsmc.c ****   * @param  FSMC_Bank: specifies the FSMC Bank to be used
 685:../../source/src/FWlib/src/stm32f10x_fsmc.c ****   *   This parameter can be one of the following values:
 686:../../source/src/FWlib/src/stm32f10x_fsmc.c ****   *     @arg FSMC_Bank2_NAND: FSMC Bank2 NAND 
 687:../../source/src/FWlib/src/stm32f10x_fsmc.c ****   *     @arg FSMC_Bank3_NAND: FSMC Bank3 NAND
 688:../../source/src/FWlib/src/stm32f10x_fsmc.c ****   *     @arg FSMC_Bank4_PCCARD: FSMC Bank4 PCCARD
 689:../../source/src/FWlib/src/stm32f10x_fsmc.c ****   * @param  FSMC_FLAG: specifies the flag to check.
 690:../../source/src/FWlib/src/stm32f10x_fsmc.c ****   *   This parameter can be one of the following values:
 691:../../source/src/FWlib/src/stm32f10x_fsmc.c ****   *     @arg FSMC_FLAG_RisingEdge: Rising egde detection Flag.
 692:../../source/src/FWlib/src/stm32f10x_fsmc.c ****   *     @arg FSMC_FLAG_Level: Level detection Flag.
 693:../../source/src/FWlib/src/stm32f10x_fsmc.c ****   *     @arg FSMC_FLAG_FallingEdge: Falling egde detection Flag.
 694:../../source/src/FWlib/src/stm32f10x_fsmc.c ****   *     @arg FSMC_FLAG_FEMPT: Fifo empty Flag. 
 695:../../source/src/FWlib/src/stm32f10x_fsmc.c ****   * @retval The new state of FSMC_FLAG (SET or RESET).
 696:../../source/src/FWlib/src/stm32f10x_fsmc.c ****   */
 697:../../source/src/FWlib/src/stm32f10x_fsmc.c **** FlagStatus FSMC_GetFlagStatus(uint32_t FSMC_Bank, uint32_t FSMC_FLAG)
 698:../../source/src/FWlib/src/stm32f10x_fsmc.c **** {
 1034              		.loc 1 698 0
 1035              		.cfi_startproc
 1036              		@ args = 0, pretend = 0, frame = 0
 1037              		@ frame_needed = 0, uses_anonymous_args = 0
 1038              		@ link register save eliminated.
 1039              	.LVL38:
 699:../../source/src/FWlib/src/stm32f10x_fsmc.c ****   FlagStatus bitstatus = RESET;
 700:../../source/src/FWlib/src/stm32f10x_fsmc.c ****   uint32_t tmpsr = 0x00000000;
 701:../../source/src/FWlib/src/stm32f10x_fsmc.c ****   
 702:../../source/src/FWlib/src/stm32f10x_fsmc.c ****   /* Check the parameters */
 703:../../source/src/FWlib/src/stm32f10x_fsmc.c ****   assert_param(IS_FSMC_GETFLAG_BANK(FSMC_Bank));
 704:../../source/src/FWlib/src/stm32f10x_fsmc.c ****   assert_param(IS_FSMC_GET_FLAG(FSMC_FLAG));
 705:../../source/src/FWlib/src/stm32f10x_fsmc.c ****   
 706:../../source/src/FWlib/src/stm32f10x_fsmc.c ****   if(FSMC_Bank == FSMC_Bank2_NAND)
 1040              		.loc 1 706 0
 1041 03a8 1028     		cmp	r0, #16
 1042 03aa 0AD0     		beq	.L76
 707:../../source/src/FWlib/src/stm32f10x_fsmc.c ****   {
 708:../../source/src/FWlib/src/stm32f10x_fsmc.c ****     tmpsr = FSMC_Bank2->SR2;
 709:../../source/src/FWlib/src/stm32f10x_fsmc.c ****   }  
 710:../../source/src/FWlib/src/stm32f10x_fsmc.c ****   else if(FSMC_Bank == FSMC_Bank3_NAND)
 1043              		.loc 1 710 0
 1044 03ac B0F5807F 		cmp	r0, #256
 711:../../source/src/FWlib/src/stm32f10x_fsmc.c ****   {
 712:../../source/src/FWlib/src/stm32f10x_fsmc.c ****     tmpsr = FSMC_Bank3->SR3;
ARM GAS  G:\Users\Jaxb\AppData\Local\Temp\cc6z0kxo.s 			page 34


 1045              		.loc 1 712 0
 1046 03b0 0CBF     		ite	eq
 1047 03b2 054B     		ldreq	r3, .L77
 713:../../source/src/FWlib/src/stm32f10x_fsmc.c ****   }
 714:../../source/src/FWlib/src/stm32f10x_fsmc.c ****   /* FSMC_Bank4_PCCARD*/
 715:../../source/src/FWlib/src/stm32f10x_fsmc.c ****   else
 716:../../source/src/FWlib/src/stm32f10x_fsmc.c ****   {
 717:../../source/src/FWlib/src/stm32f10x_fsmc.c ****     tmpsr = FSMC_Bank4->SR4;
 1048              		.loc 1 717 0
 1049 03b4 054B     		ldrne	r3, .L77+4
 1050 03b6 5B68     		ldr	r3, [r3, #4]
 1051              	.LVL39:
 1052              	.L74:
 718:../../source/src/FWlib/src/stm32f10x_fsmc.c ****   } 
 719:../../source/src/FWlib/src/stm32f10x_fsmc.c ****   
 720:../../source/src/FWlib/src/stm32f10x_fsmc.c ****   /* Get the flag status */
 721:../../source/src/FWlib/src/stm32f10x_fsmc.c ****   if ((tmpsr & FSMC_FLAG) != (uint16_t)RESET )
 1053              		.loc 1 721 0
 1054 03b8 0B42     		tst	r3, r1
 722:../../source/src/FWlib/src/stm32f10x_fsmc.c ****   {
 723:../../source/src/FWlib/src/stm32f10x_fsmc.c ****     bitstatus = SET;
 724:../../source/src/FWlib/src/stm32f10x_fsmc.c ****   }
 725:../../source/src/FWlib/src/stm32f10x_fsmc.c ****   else
 726:../../source/src/FWlib/src/stm32f10x_fsmc.c ****   {
 727:../../source/src/FWlib/src/stm32f10x_fsmc.c ****     bitstatus = RESET;
 728:../../source/src/FWlib/src/stm32f10x_fsmc.c ****   }
 729:../../source/src/FWlib/src/stm32f10x_fsmc.c ****   /* Return the flag status */
 730:../../source/src/FWlib/src/stm32f10x_fsmc.c ****   return bitstatus;
 731:../../source/src/FWlib/src/stm32f10x_fsmc.c **** }
 1055              		.loc 1 731 0
 1056 03ba 14BF     		ite	ne
 1057 03bc 0120     		movne	r0, #1
 1058              	.LVL40:
 1059 03be 0020     		moveq	r0, #0
 1060 03c0 7047     		bx	lr
 1061              	.LVL41:
 1062              	.L76:
 708:../../source/src/FWlib/src/stm32f10x_fsmc.c ****   }  
 1063              		.loc 1 708 0
 1064 03c2 034B     		ldr	r3, .L77+8
 1065 03c4 5B68     		ldr	r3, [r3, #4]
 1066              	.LVL42:
 1067 03c6 F7E7     		b	.L74
 1068              	.L78:
 1069              		.align	2
 1070              	.L77:
 1071 03c8 800000A0 		.word	-1610612608
 1072 03cc A00000A0 		.word	-1610612576
 1073 03d0 600000A0 		.word	-1610612640
 1074              		.cfi_endproc
 1075              	.LFE44:
 1076              		.size	FSMC_GetFlagStatus, .-FSMC_GetFlagStatus
 1077              		.align	1
 1078              		.p2align 2,,3
 1079              		.global	FSMC_ClearFlag
 1080              		.syntax unified
 1081              		.thumb
ARM GAS  G:\Users\Jaxb\AppData\Local\Temp\cc6z0kxo.s 			page 35


 1082              		.thumb_func
 1083              		.fpu softvfp
 1084              		.type	FSMC_ClearFlag, %function
 1085              	FSMC_ClearFlag:
 1086              	.LFB45:
 732:../../source/src/FWlib/src/stm32f10x_fsmc.c **** 
 733:../../source/src/FWlib/src/stm32f10x_fsmc.c **** /**
 734:../../source/src/FWlib/src/stm32f10x_fsmc.c ****   * @brief  Clears the FSMC's pending flags.
 735:../../source/src/FWlib/src/stm32f10x_fsmc.c ****   * @param  FSMC_Bank: specifies the FSMC Bank to be used
 736:../../source/src/FWlib/src/stm32f10x_fsmc.c ****   *   This parameter can be one of the following values:
 737:../../source/src/FWlib/src/stm32f10x_fsmc.c ****   *     @arg FSMC_Bank2_NAND: FSMC Bank2 NAND 
 738:../../source/src/FWlib/src/stm32f10x_fsmc.c ****   *     @arg FSMC_Bank3_NAND: FSMC Bank3 NAND
 739:../../source/src/FWlib/src/stm32f10x_fsmc.c ****   *     @arg FSMC_Bank4_PCCARD: FSMC Bank4 PCCARD
 740:../../source/src/FWlib/src/stm32f10x_fsmc.c ****   * @param  FSMC_FLAG: specifies the flag to clear.
 741:../../source/src/FWlib/src/stm32f10x_fsmc.c ****   *   This parameter can be any combination of the following values:
 742:../../source/src/FWlib/src/stm32f10x_fsmc.c ****   *     @arg FSMC_FLAG_RisingEdge: Rising egde detection Flag.
 743:../../source/src/FWlib/src/stm32f10x_fsmc.c ****   *     @arg FSMC_FLAG_Level: Level detection Flag.
 744:../../source/src/FWlib/src/stm32f10x_fsmc.c ****   *     @arg FSMC_FLAG_FallingEdge: Falling egde detection Flag.
 745:../../source/src/FWlib/src/stm32f10x_fsmc.c ****   * @retval None
 746:../../source/src/FWlib/src/stm32f10x_fsmc.c ****   */
 747:../../source/src/FWlib/src/stm32f10x_fsmc.c **** void FSMC_ClearFlag(uint32_t FSMC_Bank, uint32_t FSMC_FLAG)
 748:../../source/src/FWlib/src/stm32f10x_fsmc.c **** {
 1087              		.loc 1 748 0
 1088              		.cfi_startproc
 1089              		@ args = 0, pretend = 0, frame = 0
 1090              		@ frame_needed = 0, uses_anonymous_args = 0
 1091              		@ link register save eliminated.
 1092              	.LVL43:
 749:../../source/src/FWlib/src/stm32f10x_fsmc.c ****  /* Check the parameters */
 750:../../source/src/FWlib/src/stm32f10x_fsmc.c ****   assert_param(IS_FSMC_GETFLAG_BANK(FSMC_Bank));
 751:../../source/src/FWlib/src/stm32f10x_fsmc.c ****   assert_param(IS_FSMC_CLEAR_FLAG(FSMC_FLAG)) ;
 752:../../source/src/FWlib/src/stm32f10x_fsmc.c ****     
 753:../../source/src/FWlib/src/stm32f10x_fsmc.c ****   if(FSMC_Bank == FSMC_Bank2_NAND)
 1093              		.loc 1 753 0
 1094 03d4 1028     		cmp	r0, #16
 1095 03d6 6FEA0101 		mvn	r1, r1
 1096              	.LVL44:
 1097 03da 08D0     		beq	.L83
 754:../../source/src/FWlib/src/stm32f10x_fsmc.c ****   {
 755:../../source/src/FWlib/src/stm32f10x_fsmc.c ****     FSMC_Bank2->SR2 &= ~FSMC_FLAG; 
 756:../../source/src/FWlib/src/stm32f10x_fsmc.c ****   }  
 757:../../source/src/FWlib/src/stm32f10x_fsmc.c ****   else if(FSMC_Bank == FSMC_Bank3_NAND)
 1098              		.loc 1 757 0
 1099 03dc B0F5807F 		cmp	r0, #256
 758:../../source/src/FWlib/src/stm32f10x_fsmc.c ****   {
 759:../../source/src/FWlib/src/stm32f10x_fsmc.c ****     FSMC_Bank3->SR3 &= ~FSMC_FLAG;
 1100              		.loc 1 759 0
 1101 03e0 0CBF     		ite	eq
 1102 03e2 054A     		ldreq	r2, .L84
 760:../../source/src/FWlib/src/stm32f10x_fsmc.c ****   }
 761:../../source/src/FWlib/src/stm32f10x_fsmc.c ****   /* FSMC_Bank4_PCCARD*/
 762:../../source/src/FWlib/src/stm32f10x_fsmc.c ****   else
 763:../../source/src/FWlib/src/stm32f10x_fsmc.c ****   {
 764:../../source/src/FWlib/src/stm32f10x_fsmc.c ****     FSMC_Bank4->SR4 &= ~FSMC_FLAG;
 1103              		.loc 1 764 0
 1104 03e4 054A     		ldrne	r2, .L84+4
 1105 03e6 5368     		ldr	r3, [r2, #4]
ARM GAS  G:\Users\Jaxb\AppData\Local\Temp\cc6z0kxo.s 			page 36


 1106 03e8 1940     		ands	r1, r1, r3
 1107              	.LVL45:
 1108 03ea 5160     		str	r1, [r2, #4]
 765:../../source/src/FWlib/src/stm32f10x_fsmc.c ****   }
 766:../../source/src/FWlib/src/stm32f10x_fsmc.c **** }
 1109              		.loc 1 766 0
 1110 03ec 7047     		bx	lr
 1111              	.L83:
 755:../../source/src/FWlib/src/stm32f10x_fsmc.c ****   }  
 1112              		.loc 1 755 0
 1113 03ee 044A     		ldr	r2, .L84+8
 1114 03f0 5368     		ldr	r3, [r2, #4]
 1115 03f2 1940     		ands	r1, r1, r3
 1116 03f4 5160     		str	r1, [r2, #4]
 1117 03f6 7047     		bx	lr
 1118              	.L85:
 1119              		.align	2
 1120              	.L84:
 1121 03f8 800000A0 		.word	-1610612608
 1122 03fc A00000A0 		.word	-1610612576
 1123 0400 600000A0 		.word	-1610612640
 1124              		.cfi_endproc
 1125              	.LFE45:
 1126              		.size	FSMC_ClearFlag, .-FSMC_ClearFlag
 1127              		.align	1
 1128              		.p2align 2,,3
 1129              		.global	FSMC_GetITStatus
 1130              		.syntax unified
 1131              		.thumb
 1132              		.thumb_func
 1133              		.fpu softvfp
 1134              		.type	FSMC_GetITStatus, %function
 1135              	FSMC_GetITStatus:
 1136              	.LFB46:
 767:../../source/src/FWlib/src/stm32f10x_fsmc.c **** 
 768:../../source/src/FWlib/src/stm32f10x_fsmc.c **** /**
 769:../../source/src/FWlib/src/stm32f10x_fsmc.c ****   * @brief  Checks whether the specified FSMC interrupt has occurred or not.
 770:../../source/src/FWlib/src/stm32f10x_fsmc.c ****   * @param  FSMC_Bank: specifies the FSMC Bank to be used
 771:../../source/src/FWlib/src/stm32f10x_fsmc.c ****   *   This parameter can be one of the following values:
 772:../../source/src/FWlib/src/stm32f10x_fsmc.c ****   *     @arg FSMC_Bank2_NAND: FSMC Bank2 NAND 
 773:../../source/src/FWlib/src/stm32f10x_fsmc.c ****   *     @arg FSMC_Bank3_NAND: FSMC Bank3 NAND
 774:../../source/src/FWlib/src/stm32f10x_fsmc.c ****   *     @arg FSMC_Bank4_PCCARD: FSMC Bank4 PCCARD
 775:../../source/src/FWlib/src/stm32f10x_fsmc.c ****   * @param  FSMC_IT: specifies the FSMC interrupt source to check.
 776:../../source/src/FWlib/src/stm32f10x_fsmc.c ****   *   This parameter can be one of the following values:
 777:../../source/src/FWlib/src/stm32f10x_fsmc.c ****   *     @arg FSMC_IT_RisingEdge: Rising edge detection interrupt. 
 778:../../source/src/FWlib/src/stm32f10x_fsmc.c ****   *     @arg FSMC_IT_Level: Level edge detection interrupt.
 779:../../source/src/FWlib/src/stm32f10x_fsmc.c ****   *     @arg FSMC_IT_FallingEdge: Falling edge detection interrupt. 
 780:../../source/src/FWlib/src/stm32f10x_fsmc.c ****   * @retval The new state of FSMC_IT (SET or RESET).
 781:../../source/src/FWlib/src/stm32f10x_fsmc.c ****   */
 782:../../source/src/FWlib/src/stm32f10x_fsmc.c **** ITStatus FSMC_GetITStatus(uint32_t FSMC_Bank, uint32_t FSMC_IT)
 783:../../source/src/FWlib/src/stm32f10x_fsmc.c **** {
 1137              		.loc 1 783 0
 1138              		.cfi_startproc
 1139              		@ args = 0, pretend = 0, frame = 0
 1140              		@ frame_needed = 0, uses_anonymous_args = 0
 1141              		@ link register save eliminated.
 1142              	.LVL46:
ARM GAS  G:\Users\Jaxb\AppData\Local\Temp\cc6z0kxo.s 			page 37


 784:../../source/src/FWlib/src/stm32f10x_fsmc.c ****   ITStatus bitstatus = RESET;
 785:../../source/src/FWlib/src/stm32f10x_fsmc.c ****   uint32_t tmpsr = 0x0, itstatus = 0x0, itenable = 0x0; 
 786:../../source/src/FWlib/src/stm32f10x_fsmc.c ****   
 787:../../source/src/FWlib/src/stm32f10x_fsmc.c ****   /* Check the parameters */
 788:../../source/src/FWlib/src/stm32f10x_fsmc.c ****   assert_param(IS_FSMC_IT_BANK(FSMC_Bank));
 789:../../source/src/FWlib/src/stm32f10x_fsmc.c ****   assert_param(IS_FSMC_GET_IT(FSMC_IT));
 790:../../source/src/FWlib/src/stm32f10x_fsmc.c ****   
 791:../../source/src/FWlib/src/stm32f10x_fsmc.c ****   if(FSMC_Bank == FSMC_Bank2_NAND)
 1143              		.loc 1 791 0
 1144 0404 1028     		cmp	r0, #16
 1145 0406 0ED0     		beq	.L92
 792:../../source/src/FWlib/src/stm32f10x_fsmc.c ****   {
 793:../../source/src/FWlib/src/stm32f10x_fsmc.c ****     tmpsr = FSMC_Bank2->SR2;
 794:../../source/src/FWlib/src/stm32f10x_fsmc.c ****   }  
 795:../../source/src/FWlib/src/stm32f10x_fsmc.c ****   else if(FSMC_Bank == FSMC_Bank3_NAND)
 1146              		.loc 1 795 0
 1147 0408 B0F5807F 		cmp	r0, #256
 796:../../source/src/FWlib/src/stm32f10x_fsmc.c ****   {
 797:../../source/src/FWlib/src/stm32f10x_fsmc.c ****     tmpsr = FSMC_Bank3->SR3;
 1148              		.loc 1 797 0
 1149 040c 0CBF     		ite	eq
 1150 040e 074B     		ldreq	r3, .L93
 798:../../source/src/FWlib/src/stm32f10x_fsmc.c ****   }
 799:../../source/src/FWlib/src/stm32f10x_fsmc.c ****   /* FSMC_Bank4_PCCARD*/
 800:../../source/src/FWlib/src/stm32f10x_fsmc.c ****   else
 801:../../source/src/FWlib/src/stm32f10x_fsmc.c ****   {
 802:../../source/src/FWlib/src/stm32f10x_fsmc.c ****     tmpsr = FSMC_Bank4->SR4;
 1151              		.loc 1 802 0
 1152 0410 074B     		ldrne	r3, .L93+4
 1153 0412 5B68     		ldr	r3, [r3, #4]
 1154              	.LVL47:
 1155              	.L88:
 803:../../source/src/FWlib/src/stm32f10x_fsmc.c ****   } 
 804:../../source/src/FWlib/src/stm32f10x_fsmc.c ****   
 805:../../source/src/FWlib/src/stm32f10x_fsmc.c ****   itstatus = tmpsr & FSMC_IT;
 806:../../source/src/FWlib/src/stm32f10x_fsmc.c ****   
 807:../../source/src/FWlib/src/stm32f10x_fsmc.c ****   itenable = tmpsr & (FSMC_IT >> 3);
 808:../../source/src/FWlib/src/stm32f10x_fsmc.c ****   if ((itstatus != (uint32_t)RESET)  && (itenable != (uint32_t)RESET))
 1156              		.loc 1 808 0
 1157 0414 13EA0100 		ands	r0, r3, r1
 1158              	.LVL48:
 1159 0418 04D0     		beq	.L90
 1160              		.loc 1 808 0 is_stmt 0 discriminator 1
 1161 041a 13EAD103 		ands	r3, r3, r1, lsr #3
 1162              	.LVL49:
 809:../../source/src/FWlib/src/stm32f10x_fsmc.c ****   {
 810:../../source/src/FWlib/src/stm32f10x_fsmc.c ****     bitstatus = SET;
 1163              		.loc 1 810 0 is_stmt 1 discriminator 1
 1164 041e 14BF     		ite	ne
 1165 0420 0120     		movne	r0, #1
 1166              	.LVL50:
 1167 0422 0020     		moveq	r0, #0
 1168              	.L90:
 1169              	.LVL51:
 811:../../source/src/FWlib/src/stm32f10x_fsmc.c ****   }
 812:../../source/src/FWlib/src/stm32f10x_fsmc.c ****   else
 813:../../source/src/FWlib/src/stm32f10x_fsmc.c ****   {
ARM GAS  G:\Users\Jaxb\AppData\Local\Temp\cc6z0kxo.s 			page 38


 814:../../source/src/FWlib/src/stm32f10x_fsmc.c ****     bitstatus = RESET;
 815:../../source/src/FWlib/src/stm32f10x_fsmc.c ****   }
 816:../../source/src/FWlib/src/stm32f10x_fsmc.c ****   return bitstatus; 
 817:../../source/src/FWlib/src/stm32f10x_fsmc.c **** }
 1170              		.loc 1 817 0
 1171 0424 7047     		bx	lr
 1172              	.LVL52:
 1173              	.L92:
 793:../../source/src/FWlib/src/stm32f10x_fsmc.c ****   }  
 1174              		.loc 1 793 0
 1175 0426 034B     		ldr	r3, .L93+8
 1176 0428 5B68     		ldr	r3, [r3, #4]
 1177              	.LVL53:
 1178 042a F3E7     		b	.L88
 1179              	.L94:
 1180              		.align	2
 1181              	.L93:
 1182 042c 800000A0 		.word	-1610612608
 1183 0430 A00000A0 		.word	-1610612576
 1184 0434 600000A0 		.word	-1610612640
 1185              		.cfi_endproc
 1186              	.LFE46:
 1187              		.size	FSMC_GetITStatus, .-FSMC_GetITStatus
 1188              		.align	1
 1189              		.p2align 2,,3
 1190              		.global	FSMC_ClearITPendingBit
 1191              		.syntax unified
 1192              		.thumb
 1193              		.thumb_func
 1194              		.fpu softvfp
 1195              		.type	FSMC_ClearITPendingBit, %function
 1196              	FSMC_ClearITPendingBit:
 1197              	.LFB47:
 818:../../source/src/FWlib/src/stm32f10x_fsmc.c **** 
 819:../../source/src/FWlib/src/stm32f10x_fsmc.c **** /**
 820:../../source/src/FWlib/src/stm32f10x_fsmc.c ****   * @brief  Clears the FSMC's interrupt pending bits.
 821:../../source/src/FWlib/src/stm32f10x_fsmc.c ****   * @param  FSMC_Bank: specifies the FSMC Bank to be used
 822:../../source/src/FWlib/src/stm32f10x_fsmc.c ****   *   This parameter can be one of the following values:
 823:../../source/src/FWlib/src/stm32f10x_fsmc.c ****   *     @arg FSMC_Bank2_NAND: FSMC Bank2 NAND 
 824:../../source/src/FWlib/src/stm32f10x_fsmc.c ****   *     @arg FSMC_Bank3_NAND: FSMC Bank3 NAND
 825:../../source/src/FWlib/src/stm32f10x_fsmc.c ****   *     @arg FSMC_Bank4_PCCARD: FSMC Bank4 PCCARD
 826:../../source/src/FWlib/src/stm32f10x_fsmc.c ****   * @param  FSMC_IT: specifies the interrupt pending bit to clear.
 827:../../source/src/FWlib/src/stm32f10x_fsmc.c ****   *   This parameter can be any combination of the following values:
 828:../../source/src/FWlib/src/stm32f10x_fsmc.c ****   *     @arg FSMC_IT_RisingEdge: Rising edge detection interrupt. 
 829:../../source/src/FWlib/src/stm32f10x_fsmc.c ****   *     @arg FSMC_IT_Level: Level edge detection interrupt.
 830:../../source/src/FWlib/src/stm32f10x_fsmc.c ****   *     @arg FSMC_IT_FallingEdge: Falling edge detection interrupt.
 831:../../source/src/FWlib/src/stm32f10x_fsmc.c ****   * @retval None
 832:../../source/src/FWlib/src/stm32f10x_fsmc.c ****   */
 833:../../source/src/FWlib/src/stm32f10x_fsmc.c **** void FSMC_ClearITPendingBit(uint32_t FSMC_Bank, uint32_t FSMC_IT)
 834:../../source/src/FWlib/src/stm32f10x_fsmc.c **** {
 1198              		.loc 1 834 0
 1199              		.cfi_startproc
 1200              		@ args = 0, pretend = 0, frame = 0
 1201              		@ frame_needed = 0, uses_anonymous_args = 0
 1202              		@ link register save eliminated.
 1203              	.LVL54:
 835:../../source/src/FWlib/src/stm32f10x_fsmc.c ****   /* Check the parameters */
ARM GAS  G:\Users\Jaxb\AppData\Local\Temp\cc6z0kxo.s 			page 39


 836:../../source/src/FWlib/src/stm32f10x_fsmc.c ****   assert_param(IS_FSMC_IT_BANK(FSMC_Bank));
 837:../../source/src/FWlib/src/stm32f10x_fsmc.c ****   assert_param(IS_FSMC_IT(FSMC_IT));
 838:../../source/src/FWlib/src/stm32f10x_fsmc.c ****     
 839:../../source/src/FWlib/src/stm32f10x_fsmc.c ****   if(FSMC_Bank == FSMC_Bank2_NAND)
 1204              		.loc 1 839 0
 1205 0438 1028     		cmp	r0, #16
 1206 043a 6FEAD101 		mvn	r1, r1, lsr #3
 1207              	.LVL55:
 1208 043e 08D0     		beq	.L99
 840:../../source/src/FWlib/src/stm32f10x_fsmc.c ****   {
 841:../../source/src/FWlib/src/stm32f10x_fsmc.c ****     FSMC_Bank2->SR2 &= ~(FSMC_IT >> 3); 
 842:../../source/src/FWlib/src/stm32f10x_fsmc.c ****   }  
 843:../../source/src/FWlib/src/stm32f10x_fsmc.c ****   else if(FSMC_Bank == FSMC_Bank3_NAND)
 1209              		.loc 1 843 0
 1210 0440 B0F5807F 		cmp	r0, #256
 844:../../source/src/FWlib/src/stm32f10x_fsmc.c ****   {
 845:../../source/src/FWlib/src/stm32f10x_fsmc.c ****     FSMC_Bank3->SR3 &= ~(FSMC_IT >> 3);
 1211              		.loc 1 845 0
 1212 0444 0CBF     		ite	eq
 1213 0446 054A     		ldreq	r2, .L100
 846:../../source/src/FWlib/src/stm32f10x_fsmc.c ****   }
 847:../../source/src/FWlib/src/stm32f10x_fsmc.c ****   /* FSMC_Bank4_PCCARD*/
 848:../../source/src/FWlib/src/stm32f10x_fsmc.c ****   else
 849:../../source/src/FWlib/src/stm32f10x_fsmc.c ****   {
 850:../../source/src/FWlib/src/stm32f10x_fsmc.c ****     FSMC_Bank4->SR4 &= ~(FSMC_IT >> 3);
 1214              		.loc 1 850 0
 1215 0448 054A     		ldrne	r2, .L100+4
 1216 044a 5368     		ldr	r3, [r2, #4]
 1217 044c 1940     		ands	r1, r1, r3
 1218 044e 5160     		str	r1, [r2, #4]
 851:../../source/src/FWlib/src/stm32f10x_fsmc.c ****   }
 852:../../source/src/FWlib/src/stm32f10x_fsmc.c **** }
 1219              		.loc 1 852 0
 1220 0450 7047     		bx	lr
 1221              	.L99:
 841:../../source/src/FWlib/src/stm32f10x_fsmc.c ****   }  
 1222              		.loc 1 841 0
 1223 0452 044A     		ldr	r2, .L100+8
 1224 0454 5368     		ldr	r3, [r2, #4]
 1225 0456 1940     		ands	r1, r1, r3
 1226 0458 5160     		str	r1, [r2, #4]
 1227 045a 7047     		bx	lr
 1228              	.L101:
 1229              		.align	2
 1230              	.L100:
 1231 045c 800000A0 		.word	-1610612608
 1232 0460 A00000A0 		.word	-1610612576
 1233 0464 600000A0 		.word	-1610612640
 1234              		.cfi_endproc
 1235              	.LFE47:
 1236              		.size	FSMC_ClearITPendingBit, .-FSMC_ClearITPendingBit
 1237              	.Letext0:
 1238              		.file 2 "f:\\arm\\gcc2018\\arm-none-eabi\\include\\machine\\_default_types.h"
 1239              		.file 3 "f:\\arm\\gcc2018\\arm-none-eabi\\include\\sys\\_stdint.h"
 1240              		.file 4 "../../source/include/core_cm3.h"
 1241              		.file 5 "../../source/include/system_stm32f10x.h"
 1242              		.file 6 "../../source/include/stm32f10x.h"
ARM GAS  G:\Users\Jaxb\AppData\Local\Temp\cc6z0kxo.s 			page 40


 1243              		.file 7 "../../source/src/FWlib/inc/stm32f10x_fsmc.h"