ARM GAS  G:\Users\Jaxb\AppData\Local\Temp\ccznmST2.s 			page 1


   1              		.cpu cortex-m3
   2              		.eabi_attribute 20, 1
   3              		.eabi_attribute 21, 1
   4              		.eabi_attribute 23, 3
   5              		.eabi_attribute 24, 1
   6              		.eabi_attribute 25, 1
   7              		.eabi_attribute 26, 1
   8              		.eabi_attribute 30, 2
   9              		.eabi_attribute 34, 1
  10              		.eabi_attribute 18, 4
  11              		.file	"stm32f10x_dac.c"
  12              		.text
  13              	.Ltext0:
  14              		.cfi_sections	.debug_frame
  15              		.align	1
  16              		.p2align 2,,3
  17              		.global	DAC_DeInit
  18              		.syntax unified
  19              		.thumb
  20              		.thumb_func
  21              		.fpu softvfp
  22              		.type	DAC_DeInit, %function
  23              	DAC_DeInit:
  24              	.LFB29:
  25              		.file 1 "../../source/src/FWlib/src/stm32f10x_dac.c"
   1:../../source/src/FWlib/src/stm32f10x_dac.c **** /**
   2:../../source/src/FWlib/src/stm32f10x_dac.c ****   ******************************************************************************
   3:../../source/src/FWlib/src/stm32f10x_dac.c ****   * @file    stm32f10x_dac.c
   4:../../source/src/FWlib/src/stm32f10x_dac.c ****   * @author  MCD Application Team
   5:../../source/src/FWlib/src/stm32f10x_dac.c ****   * @version V3.5.0
   6:../../source/src/FWlib/src/stm32f10x_dac.c ****   * @date    11-March-2011
   7:../../source/src/FWlib/src/stm32f10x_dac.c ****   * @brief   This file provides all the DAC firmware functions.
   8:../../source/src/FWlib/src/stm32f10x_dac.c ****   ******************************************************************************
   9:../../source/src/FWlib/src/stm32f10x_dac.c ****   * @attention
  10:../../source/src/FWlib/src/stm32f10x_dac.c ****   *
  11:../../source/src/FWlib/src/stm32f10x_dac.c ****   * THE PRESENT FIRMWARE WHICH IS FOR GUIDANCE ONLY AIMS AT PROVIDING CUSTOMERS
  12:../../source/src/FWlib/src/stm32f10x_dac.c ****   * WITH CODING INFORMATION REGARDING THEIR PRODUCTS IN ORDER FOR THEM TO SAVE
  13:../../source/src/FWlib/src/stm32f10x_dac.c ****   * TIME. AS A RESULT, STMICROELECTRONICS SHALL NOT BE HELD LIABLE FOR ANY
  14:../../source/src/FWlib/src/stm32f10x_dac.c ****   * DIRECT, INDIRECT OR CONSEQUENTIAL DAMAGES WITH RESPECT TO ANY CLAIMS ARISING
  15:../../source/src/FWlib/src/stm32f10x_dac.c ****   * FROM THE CONTENT OF SUCH FIRMWARE AND/OR THE USE MADE BY CUSTOMERS OF THE
  16:../../source/src/FWlib/src/stm32f10x_dac.c ****   * CODING INFORMATION CONTAINED HEREIN IN CONNECTION WITH THEIR PRODUCTS.
  17:../../source/src/FWlib/src/stm32f10x_dac.c ****   *
  18:../../source/src/FWlib/src/stm32f10x_dac.c ****   * <h2><center>&copy; COPYRIGHT 2011 STMicroelectronics</center></h2>
  19:../../source/src/FWlib/src/stm32f10x_dac.c ****   ******************************************************************************
  20:../../source/src/FWlib/src/stm32f10x_dac.c ****   */
  21:../../source/src/FWlib/src/stm32f10x_dac.c **** 
  22:../../source/src/FWlib/src/stm32f10x_dac.c **** /* Includes ------------------------------------------------------------------*/
  23:../../source/src/FWlib/src/stm32f10x_dac.c **** #include "stm32f10x_dac.h"
  24:../../source/src/FWlib/src/stm32f10x_dac.c **** #include "stm32f10x_rcc.h"
  25:../../source/src/FWlib/src/stm32f10x_dac.c **** 
  26:../../source/src/FWlib/src/stm32f10x_dac.c **** /** @addtogroup STM32F10x_StdPeriph_Driver
  27:../../source/src/FWlib/src/stm32f10x_dac.c ****   * @{
  28:../../source/src/FWlib/src/stm32f10x_dac.c ****   */
  29:../../source/src/FWlib/src/stm32f10x_dac.c **** 
  30:../../source/src/FWlib/src/stm32f10x_dac.c **** /** @defgroup DAC 
  31:../../source/src/FWlib/src/stm32f10x_dac.c ****   * @brief DAC driver modules
  32:../../source/src/FWlib/src/stm32f10x_dac.c ****   * @{
ARM GAS  G:\Users\Jaxb\AppData\Local\Temp\ccznmST2.s 			page 2


  33:../../source/src/FWlib/src/stm32f10x_dac.c ****   */ 
  34:../../source/src/FWlib/src/stm32f10x_dac.c **** 
  35:../../source/src/FWlib/src/stm32f10x_dac.c **** /** @defgroup DAC_Private_TypesDefinitions
  36:../../source/src/FWlib/src/stm32f10x_dac.c ****   * @{
  37:../../source/src/FWlib/src/stm32f10x_dac.c ****   */
  38:../../source/src/FWlib/src/stm32f10x_dac.c **** 
  39:../../source/src/FWlib/src/stm32f10x_dac.c **** /**
  40:../../source/src/FWlib/src/stm32f10x_dac.c ****   * @}
  41:../../source/src/FWlib/src/stm32f10x_dac.c ****   */
  42:../../source/src/FWlib/src/stm32f10x_dac.c **** 
  43:../../source/src/FWlib/src/stm32f10x_dac.c **** /** @defgroup DAC_Private_Defines
  44:../../source/src/FWlib/src/stm32f10x_dac.c ****   * @{
  45:../../source/src/FWlib/src/stm32f10x_dac.c ****   */
  46:../../source/src/FWlib/src/stm32f10x_dac.c **** 
  47:../../source/src/FWlib/src/stm32f10x_dac.c **** /* CR register Mask */
  48:../../source/src/FWlib/src/stm32f10x_dac.c **** #define CR_CLEAR_MASK              ((uint32_t)0x00000FFE)
  49:../../source/src/FWlib/src/stm32f10x_dac.c **** 
  50:../../source/src/FWlib/src/stm32f10x_dac.c **** /* DAC Dual Channels SWTRIG masks */
  51:../../source/src/FWlib/src/stm32f10x_dac.c **** #define DUAL_SWTRIG_SET            ((uint32_t)0x00000003)
  52:../../source/src/FWlib/src/stm32f10x_dac.c **** #define DUAL_SWTRIG_RESET          ((uint32_t)0xFFFFFFFC)
  53:../../source/src/FWlib/src/stm32f10x_dac.c **** 
  54:../../source/src/FWlib/src/stm32f10x_dac.c **** /* DHR registers offsets */
  55:../../source/src/FWlib/src/stm32f10x_dac.c **** #define DHR12R1_OFFSET             ((uint32_t)0x00000008)
  56:../../source/src/FWlib/src/stm32f10x_dac.c **** #define DHR12R2_OFFSET             ((uint32_t)0x00000014)
  57:../../source/src/FWlib/src/stm32f10x_dac.c **** #define DHR12RD_OFFSET             ((uint32_t)0x00000020)
  58:../../source/src/FWlib/src/stm32f10x_dac.c **** 
  59:../../source/src/FWlib/src/stm32f10x_dac.c **** /* DOR register offset */
  60:../../source/src/FWlib/src/stm32f10x_dac.c **** #define DOR_OFFSET                 ((uint32_t)0x0000002C)
  61:../../source/src/FWlib/src/stm32f10x_dac.c **** /**
  62:../../source/src/FWlib/src/stm32f10x_dac.c ****   * @}
  63:../../source/src/FWlib/src/stm32f10x_dac.c ****   */
  64:../../source/src/FWlib/src/stm32f10x_dac.c **** 
  65:../../source/src/FWlib/src/stm32f10x_dac.c **** /** @defgroup DAC_Private_Macros
  66:../../source/src/FWlib/src/stm32f10x_dac.c ****   * @{
  67:../../source/src/FWlib/src/stm32f10x_dac.c ****   */
  68:../../source/src/FWlib/src/stm32f10x_dac.c **** 
  69:../../source/src/FWlib/src/stm32f10x_dac.c **** /**
  70:../../source/src/FWlib/src/stm32f10x_dac.c ****   * @}
  71:../../source/src/FWlib/src/stm32f10x_dac.c ****   */
  72:../../source/src/FWlib/src/stm32f10x_dac.c **** 
  73:../../source/src/FWlib/src/stm32f10x_dac.c **** /** @defgroup DAC_Private_Variables
  74:../../source/src/FWlib/src/stm32f10x_dac.c ****   * @{
  75:../../source/src/FWlib/src/stm32f10x_dac.c ****   */
  76:../../source/src/FWlib/src/stm32f10x_dac.c **** 
  77:../../source/src/FWlib/src/stm32f10x_dac.c **** /**
  78:../../source/src/FWlib/src/stm32f10x_dac.c ****   * @}
  79:../../source/src/FWlib/src/stm32f10x_dac.c ****   */
  80:../../source/src/FWlib/src/stm32f10x_dac.c **** 
  81:../../source/src/FWlib/src/stm32f10x_dac.c **** /** @defgroup DAC_Private_FunctionPrototypes
  82:../../source/src/FWlib/src/stm32f10x_dac.c ****   * @{
  83:../../source/src/FWlib/src/stm32f10x_dac.c ****   */
  84:../../source/src/FWlib/src/stm32f10x_dac.c **** 
  85:../../source/src/FWlib/src/stm32f10x_dac.c **** /**
  86:../../source/src/FWlib/src/stm32f10x_dac.c ****   * @}
  87:../../source/src/FWlib/src/stm32f10x_dac.c ****   */
  88:../../source/src/FWlib/src/stm32f10x_dac.c **** 
  89:../../source/src/FWlib/src/stm32f10x_dac.c **** /** @defgroup DAC_Private_Functions
ARM GAS  G:\Users\Jaxb\AppData\Local\Temp\ccznmST2.s 			page 3


  90:../../source/src/FWlib/src/stm32f10x_dac.c ****   * @{
  91:../../source/src/FWlib/src/stm32f10x_dac.c ****   */
  92:../../source/src/FWlib/src/stm32f10x_dac.c **** 
  93:../../source/src/FWlib/src/stm32f10x_dac.c **** /**
  94:../../source/src/FWlib/src/stm32f10x_dac.c ****   * @brief  Deinitializes the DAC peripheral registers to their default reset values.
  95:../../source/src/FWlib/src/stm32f10x_dac.c ****   * @param  None
  96:../../source/src/FWlib/src/stm32f10x_dac.c ****   * @retval None
  97:../../source/src/FWlib/src/stm32f10x_dac.c ****   */
  98:../../source/src/FWlib/src/stm32f10x_dac.c **** void DAC_DeInit(void)
  99:../../source/src/FWlib/src/stm32f10x_dac.c **** {
  26              		.loc 1 99 0
  27              		.cfi_startproc
  28              		@ args = 0, pretend = 0, frame = 0
  29              		@ frame_needed = 0, uses_anonymous_args = 0
  30 0000 08B5     		push	{r3, lr}
  31              	.LCFI0:
  32              		.cfi_def_cfa_offset 8
  33              		.cfi_offset 3, -8
  34              		.cfi_offset 14, -4
 100:../../source/src/FWlib/src/stm32f10x_dac.c ****   /* Enable DAC reset state */
 101:../../source/src/FWlib/src/stm32f10x_dac.c ****   RCC_APB1PeriphResetCmd(RCC_APB1Periph_DAC, ENABLE);
  35              		.loc 1 101 0
  36 0002 0121     		movs	r1, #1
  37 0004 4FF00050 		mov	r0, #536870912
  38 0008 FFF7FEFF 		bl	RCC_APB1PeriphResetCmd
  39              	.LVL0:
 102:../../source/src/FWlib/src/stm32f10x_dac.c ****   /* Release DAC from reset state */
 103:../../source/src/FWlib/src/stm32f10x_dac.c ****   RCC_APB1PeriphResetCmd(RCC_APB1Periph_DAC, DISABLE);
 104:../../source/src/FWlib/src/stm32f10x_dac.c **** }
  40              		.loc 1 104 0
  41 000c BDE80840 		pop	{r3, lr}
  42              	.LCFI1:
  43              		.cfi_restore 14
  44              		.cfi_restore 3
  45              		.cfi_def_cfa_offset 0
 103:../../source/src/FWlib/src/stm32f10x_dac.c **** }
  46              		.loc 1 103 0
  47 0010 0021     		movs	r1, #0
  48 0012 4FF00050 		mov	r0, #536870912
  49 0016 FFF7FEBF 		b	RCC_APB1PeriphResetCmd
  50              	.LVL1:
  51              		.cfi_endproc
  52              	.LFE29:
  53              		.size	DAC_DeInit, .-DAC_DeInit
  54              		.align	1
  55 001a 00BF     		.p2align 2,,3
  56              		.global	DAC_Init
  57              		.syntax unified
  58              		.thumb
  59              		.thumb_func
  60              		.fpu softvfp
  61              		.type	DAC_Init, %function
  62              	DAC_Init:
  63              	.LFB30:
 105:../../source/src/FWlib/src/stm32f10x_dac.c **** 
 106:../../source/src/FWlib/src/stm32f10x_dac.c **** /**
 107:../../source/src/FWlib/src/stm32f10x_dac.c ****   * @brief  Initializes the DAC peripheral according to the specified 
ARM GAS  G:\Users\Jaxb\AppData\Local\Temp\ccznmST2.s 			page 4


 108:../../source/src/FWlib/src/stm32f10x_dac.c ****   *         parameters in the DAC_InitStruct.
 109:../../source/src/FWlib/src/stm32f10x_dac.c ****   * @param  DAC_Channel: the selected DAC channel. 
 110:../../source/src/FWlib/src/stm32f10x_dac.c ****   *   This parameter can be one of the following values:
 111:../../source/src/FWlib/src/stm32f10x_dac.c ****   *     @arg DAC_Channel_1: DAC Channel1 selected
 112:../../source/src/FWlib/src/stm32f10x_dac.c ****   *     @arg DAC_Channel_2: DAC Channel2 selected
 113:../../source/src/FWlib/src/stm32f10x_dac.c ****   * @param  DAC_InitStruct: pointer to a DAC_InitTypeDef structure that
 114:../../source/src/FWlib/src/stm32f10x_dac.c ****   *        contains the configuration information for the specified DAC channel.
 115:../../source/src/FWlib/src/stm32f10x_dac.c ****   * @retval None
 116:../../source/src/FWlib/src/stm32f10x_dac.c ****   */
 117:../../source/src/FWlib/src/stm32f10x_dac.c **** void DAC_Init(uint32_t DAC_Channel, DAC_InitTypeDef* DAC_InitStruct)
 118:../../source/src/FWlib/src/stm32f10x_dac.c **** {
  64              		.loc 1 118 0
  65              		.cfi_startproc
  66              		@ args = 0, pretend = 0, frame = 0
  67              		@ frame_needed = 0, uses_anonymous_args = 0
  68              		@ link register save eliminated.
  69              	.LVL2:
  70 001c 30B4     		push	{r4, r5}
  71              	.LCFI2:
  72              		.cfi_def_cfa_offset 8
  73              		.cfi_offset 4, -8
  74              		.cfi_offset 5, -4
 119:../../source/src/FWlib/src/stm32f10x_dac.c ****   uint32_t tmpreg1 = 0, tmpreg2 = 0;
 120:../../source/src/FWlib/src/stm32f10x_dac.c ****   /* Check the DAC parameters */
 121:../../source/src/FWlib/src/stm32f10x_dac.c ****   assert_param(IS_DAC_TRIGGER(DAC_InitStruct->DAC_Trigger));
 122:../../source/src/FWlib/src/stm32f10x_dac.c ****   assert_param(IS_DAC_GENERATE_WAVE(DAC_InitStruct->DAC_WaveGeneration));
 123:../../source/src/FWlib/src/stm32f10x_dac.c ****   assert_param(IS_DAC_LFSR_UNMASK_TRIANGLE_AMPLITUDE(DAC_InitStruct->DAC_LFSRUnmask_TriangleAmplitu
 124:../../source/src/FWlib/src/stm32f10x_dac.c ****   assert_param(IS_DAC_OUTPUT_BUFFER_STATE(DAC_InitStruct->DAC_OutputBuffer));
 125:../../source/src/FWlib/src/stm32f10x_dac.c **** /*---------------------------- DAC CR Configuration --------------------------*/
 126:../../source/src/FWlib/src/stm32f10x_dac.c ****   /* Get the DAC CR value */
 127:../../source/src/FWlib/src/stm32f10x_dac.c ****   tmpreg1 = DAC->CR;
 128:../../source/src/FWlib/src/stm32f10x_dac.c ****   /* Clear BOFFx, TENx, TSELx, WAVEx and MAMPx bits */
 129:../../source/src/FWlib/src/stm32f10x_dac.c ****   tmpreg1 &= ~(CR_CLEAR_MASK << DAC_Channel);
 130:../../source/src/FWlib/src/stm32f10x_dac.c ****   /* Configure for the selected DAC channel: buffer output, trigger, wave generation,
 131:../../source/src/FWlib/src/stm32f10x_dac.c ****      mask/amplitude for wave generation */
 132:../../source/src/FWlib/src/stm32f10x_dac.c ****   /* Set TSELx and TENx bits according to DAC_Trigger value */
 133:../../source/src/FWlib/src/stm32f10x_dac.c ****   /* Set WAVEx bits according to DAC_WaveGeneration value */
 134:../../source/src/FWlib/src/stm32f10x_dac.c ****   /* Set MAMPx bits according to DAC_LFSRUnmask_TriangleAmplitude value */ 
 135:../../source/src/FWlib/src/stm32f10x_dac.c ****   /* Set BOFFx bit according to DAC_OutputBuffer value */   
 136:../../source/src/FWlib/src/stm32f10x_dac.c ****   tmpreg2 = (DAC_InitStruct->DAC_Trigger | DAC_InitStruct->DAC_WaveGeneration |
  75              		.loc 1 136 0
  76 001e D1E90035 		ldrd	r3, r5, [r1]
 129:../../source/src/FWlib/src/stm32f10x_dac.c ****   /* Configure for the selected DAC channel: buffer output, trigger, wave generation,
  77              		.loc 1 129 0
  78 0022 40F6FE74 		movw	r4, #4094
  79              		.loc 1 136 0
  80 0026 8A68     		ldr	r2, [r1, #8]
  81 0028 2B43     		orrs	r3, r3, r5
 127:../../source/src/FWlib/src/stm32f10x_dac.c ****   /* Clear BOFFx, TENx, TSELx, WAVEx and MAMPx bits */
  82              		.loc 1 127 0
  83 002a 074D     		ldr	r5, .L4
  84              		.loc 1 136 0
  85 002c C968     		ldr	r1, [r1, #12]
  86              	.LVL3:
  87 002e 1343     		orrs	r3, r3, r2
 127:../../source/src/FWlib/src/stm32f10x_dac.c ****   /* Clear BOFFx, TENx, TSELx, WAVEx and MAMPx bits */
  88              		.loc 1 127 0
ARM GAS  G:\Users\Jaxb\AppData\Local\Temp\ccznmST2.s 			page 5


  89 0030 2A68     		ldr	r2, [r5]
  90              	.LVL4:
  91              		.loc 1 136 0
  92 0032 0B43     		orrs	r3, r3, r1
 129:../../source/src/FWlib/src/stm32f10x_dac.c ****   /* Configure for the selected DAC channel: buffer output, trigger, wave generation,
  93              		.loc 1 129 0
  94 0034 04FA00F1 		lsl	r1, r4, r0
 137:../../source/src/FWlib/src/stm32f10x_dac.c ****              DAC_InitStruct->DAC_LFSRUnmask_TriangleAmplitude | DAC_InitStruct->DAC_OutputBuffer);
 138:../../source/src/FWlib/src/stm32f10x_dac.c ****   /* Calculate CR register value depending on DAC_Channel */
 139:../../source/src/FWlib/src/stm32f10x_dac.c ****   tmpreg1 |= tmpreg2 << DAC_Channel;
  95              		.loc 1 139 0
  96 0038 03FA00F0 		lsl	r0, r3, r0
  97              	.LVL5:
 129:../../source/src/FWlib/src/stm32f10x_dac.c ****   /* Configure for the selected DAC channel: buffer output, trigger, wave generation,
  98              		.loc 1 129 0
  99 003c 22EA0103 		bic	r3, r2, r1
 100              	.LVL6:
 101              		.loc 1 139 0
 102 0040 1843     		orrs	r0, r0, r3
 103              	.LVL7:
 140:../../source/src/FWlib/src/stm32f10x_dac.c ****   /* Write to DAC CR */
 141:../../source/src/FWlib/src/stm32f10x_dac.c ****   DAC->CR = tmpreg1;
 104              		.loc 1 141 0
 105 0042 2860     		str	r0, [r5]
 106              	.LVL8:
 142:../../source/src/FWlib/src/stm32f10x_dac.c **** }
 107              		.loc 1 142 0
 108 0044 30BC     		pop	{r4, r5}
 109              	.LCFI3:
 110              		.cfi_restore 5
 111              		.cfi_restore 4
 112              		.cfi_def_cfa_offset 0
 113 0046 7047     		bx	lr
 114              	.L5:
 115              		.align	2
 116              	.L4:
 117 0048 00740040 		.word	1073771520
 118              		.cfi_endproc
 119              	.LFE30:
 120              		.size	DAC_Init, .-DAC_Init
 121              		.align	1
 122              		.p2align 2,,3
 123              		.global	DAC_StructInit
 124              		.syntax unified
 125              		.thumb
 126              		.thumb_func
 127              		.fpu softvfp
 128              		.type	DAC_StructInit, %function
 129              	DAC_StructInit:
 130              	.LFB31:
 143:../../source/src/FWlib/src/stm32f10x_dac.c **** 
 144:../../source/src/FWlib/src/stm32f10x_dac.c **** /**
 145:../../source/src/FWlib/src/stm32f10x_dac.c ****   * @brief  Fills each DAC_InitStruct member with its default value.
 146:../../source/src/FWlib/src/stm32f10x_dac.c ****   * @param  DAC_InitStruct : pointer to a DAC_InitTypeDef structure which will
 147:../../source/src/FWlib/src/stm32f10x_dac.c ****   *         be initialized.
 148:../../source/src/FWlib/src/stm32f10x_dac.c ****   * @retval None
 149:../../source/src/FWlib/src/stm32f10x_dac.c ****   */
ARM GAS  G:\Users\Jaxb\AppData\Local\Temp\ccznmST2.s 			page 6


 150:../../source/src/FWlib/src/stm32f10x_dac.c **** void DAC_StructInit(DAC_InitTypeDef* DAC_InitStruct)
 151:../../source/src/FWlib/src/stm32f10x_dac.c **** {
 131              		.loc 1 151 0
 132              		.cfi_startproc
 133              		@ args = 0, pretend = 0, frame = 0
 134              		@ frame_needed = 0, uses_anonymous_args = 0
 135              		@ link register save eliminated.
 136              	.LVL9:
 152:../../source/src/FWlib/src/stm32f10x_dac.c **** /*--------------- Reset DAC init structure parameters values -----------------*/
 153:../../source/src/FWlib/src/stm32f10x_dac.c ****   /* Initialize the DAC_Trigger member */
 154:../../source/src/FWlib/src/stm32f10x_dac.c ****   DAC_InitStruct->DAC_Trigger = DAC_Trigger_None;
 137              		.loc 1 154 0
 138 004c 0023     		movs	r3, #0
 155:../../source/src/FWlib/src/stm32f10x_dac.c ****   /* Initialize the DAC_WaveGeneration member */
 156:../../source/src/FWlib/src/stm32f10x_dac.c ****   DAC_InitStruct->DAC_WaveGeneration = DAC_WaveGeneration_None;
 139              		.loc 1 156 0
 140 004e C0E90033 		strd	r3, r3, [r0]
 157:../../source/src/FWlib/src/stm32f10x_dac.c ****   /* Initialize the DAC_LFSRUnmask_TriangleAmplitude member */
 158:../../source/src/FWlib/src/stm32f10x_dac.c ****   DAC_InitStruct->DAC_LFSRUnmask_TriangleAmplitude = DAC_LFSRUnmask_Bit0;
 159:../../source/src/FWlib/src/stm32f10x_dac.c ****   /* Initialize the DAC_OutputBuffer member */
 160:../../source/src/FWlib/src/stm32f10x_dac.c ****   DAC_InitStruct->DAC_OutputBuffer = DAC_OutputBuffer_Enable;
 141              		.loc 1 160 0
 142 0052 C0E90233 		strd	r3, r3, [r0, #8]
 161:../../source/src/FWlib/src/stm32f10x_dac.c **** }
 143              		.loc 1 161 0
 144 0056 7047     		bx	lr
 145              		.cfi_endproc
 146              	.LFE31:
 147              		.size	DAC_StructInit, .-DAC_StructInit
 148              		.align	1
 149              		.p2align 2,,3
 150              		.global	DAC_Cmd
 151              		.syntax unified
 152              		.thumb
 153              		.thumb_func
 154              		.fpu softvfp
 155              		.type	DAC_Cmd, %function
 156              	DAC_Cmd:
 157              	.LFB32:
 162:../../source/src/FWlib/src/stm32f10x_dac.c **** 
 163:../../source/src/FWlib/src/stm32f10x_dac.c **** /**
 164:../../source/src/FWlib/src/stm32f10x_dac.c ****   * @brief  Enables or disables the specified DAC channel.
 165:../../source/src/FWlib/src/stm32f10x_dac.c ****   * @param  DAC_Channel: the selected DAC channel. 
 166:../../source/src/FWlib/src/stm32f10x_dac.c ****   *   This parameter can be one of the following values:
 167:../../source/src/FWlib/src/stm32f10x_dac.c ****   *     @arg DAC_Channel_1: DAC Channel1 selected
 168:../../source/src/FWlib/src/stm32f10x_dac.c ****   *     @arg DAC_Channel_2: DAC Channel2 selected
 169:../../source/src/FWlib/src/stm32f10x_dac.c ****   * @param  NewState: new state of the DAC channel. 
 170:../../source/src/FWlib/src/stm32f10x_dac.c ****   *   This parameter can be: ENABLE or DISABLE.
 171:../../source/src/FWlib/src/stm32f10x_dac.c ****   * @retval None
 172:../../source/src/FWlib/src/stm32f10x_dac.c ****   */
 173:../../source/src/FWlib/src/stm32f10x_dac.c **** void DAC_Cmd(uint32_t DAC_Channel, FunctionalState NewState)
 174:../../source/src/FWlib/src/stm32f10x_dac.c **** {
 158              		.loc 1 174 0
 159              		.cfi_startproc
 160              		@ args = 0, pretend = 0, frame = 0
 161              		@ frame_needed = 0, uses_anonymous_args = 0
 162              		@ link register save eliminated.
ARM GAS  G:\Users\Jaxb\AppData\Local\Temp\ccznmST2.s 			page 7


 163              	.LVL10:
 164 0058 0123     		movs	r3, #1
 175:../../source/src/FWlib/src/stm32f10x_dac.c ****   /* Check the parameters */
 176:../../source/src/FWlib/src/stm32f10x_dac.c ****   assert_param(IS_DAC_CHANNEL(DAC_Channel));
 177:../../source/src/FWlib/src/stm32f10x_dac.c ****   assert_param(IS_FUNCTIONAL_STATE(NewState));
 178:../../source/src/FWlib/src/stm32f10x_dac.c ****   if (NewState != DISABLE)
 179:../../source/src/FWlib/src/stm32f10x_dac.c ****   {
 180:../../source/src/FWlib/src/stm32f10x_dac.c ****     /* Enable the selected DAC channel */
 181:../../source/src/FWlib/src/stm32f10x_dac.c ****     DAC->CR |= (DAC_CR_EN1 << DAC_Channel);
 165              		.loc 1 181 0
 166 005a 064A     		ldr	r2, .L11
 167 005c 03FA00F0 		lsl	r0, r3, r0
 168              	.LVL11:
 169 0060 1368     		ldr	r3, [r2]
 178:../../source/src/FWlib/src/stm32f10x_dac.c ****   {
 170              		.loc 1 178 0
 171 0062 19B9     		cbnz	r1, .L10
 182:../../source/src/FWlib/src/stm32f10x_dac.c ****   }
 183:../../source/src/FWlib/src/stm32f10x_dac.c ****   else
 184:../../source/src/FWlib/src/stm32f10x_dac.c ****   {
 185:../../source/src/FWlib/src/stm32f10x_dac.c ****     /* Disable the selected DAC channel */
 186:../../source/src/FWlib/src/stm32f10x_dac.c ****     DAC->CR &= ~(DAC_CR_EN1 << DAC_Channel);
 172              		.loc 1 186 0
 173 0064 23EA0000 		bic	r0, r3, r0
 174 0068 1060     		str	r0, [r2]
 187:../../source/src/FWlib/src/stm32f10x_dac.c ****   }
 188:../../source/src/FWlib/src/stm32f10x_dac.c **** }
 175              		.loc 1 188 0
 176 006a 7047     		bx	lr
 177              	.L10:
 181:../../source/src/FWlib/src/stm32f10x_dac.c ****   }
 178              		.loc 1 181 0
 179 006c 1843     		orrs	r0, r0, r3
 180 006e 1060     		str	r0, [r2]
 181 0070 7047     		bx	lr
 182              	.L12:
 183 0072 00BF     		.align	2
 184              	.L11:
 185 0074 00740040 		.word	1073771520
 186              		.cfi_endproc
 187              	.LFE32:
 188              		.size	DAC_Cmd, .-DAC_Cmd
 189              		.align	1
 190              		.p2align 2,,3
 191              		.global	DAC_DMACmd
 192              		.syntax unified
 193              		.thumb
 194              		.thumb_func
 195              		.fpu softvfp
 196              		.type	DAC_DMACmd, %function
 197              	DAC_DMACmd:
 198              	.LFB33:
 189:../../source/src/FWlib/src/stm32f10x_dac.c **** #if defined (STM32F10X_LD_VL) || defined (STM32F10X_MD_VL) || defined (STM32F10X_HD_VL)
 190:../../source/src/FWlib/src/stm32f10x_dac.c **** /**
 191:../../source/src/FWlib/src/stm32f10x_dac.c ****   * @brief  Enables or disables the specified DAC interrupts.
 192:../../source/src/FWlib/src/stm32f10x_dac.c ****   * @param  DAC_Channel: the selected DAC channel. 
 193:../../source/src/FWlib/src/stm32f10x_dac.c ****   *   This parameter can be one of the following values:
ARM GAS  G:\Users\Jaxb\AppData\Local\Temp\ccznmST2.s 			page 8


 194:../../source/src/FWlib/src/stm32f10x_dac.c ****   *     @arg DAC_Channel_1: DAC Channel1 selected
 195:../../source/src/FWlib/src/stm32f10x_dac.c ****   *     @arg DAC_Channel_2: DAC Channel2 selected
 196:../../source/src/FWlib/src/stm32f10x_dac.c ****   * @param  DAC_IT: specifies the DAC interrupt sources to be enabled or disabled. 
 197:../../source/src/FWlib/src/stm32f10x_dac.c ****   *   This parameter can be the following values:
 198:../../source/src/FWlib/src/stm32f10x_dac.c ****   *     @arg DAC_IT_DMAUDR: DMA underrun interrupt mask                      
 199:../../source/src/FWlib/src/stm32f10x_dac.c ****   * @param  NewState: new state of the specified DAC interrupts.
 200:../../source/src/FWlib/src/stm32f10x_dac.c ****   *   This parameter can be: ENABLE or DISABLE.
 201:../../source/src/FWlib/src/stm32f10x_dac.c ****   * @retval None
 202:../../source/src/FWlib/src/stm32f10x_dac.c ****   */ 
 203:../../source/src/FWlib/src/stm32f10x_dac.c **** void DAC_ITConfig(uint32_t DAC_Channel, uint32_t DAC_IT, FunctionalState NewState)  
 204:../../source/src/FWlib/src/stm32f10x_dac.c **** {
 205:../../source/src/FWlib/src/stm32f10x_dac.c ****   /* Check the parameters */
 206:../../source/src/FWlib/src/stm32f10x_dac.c ****   assert_param(IS_DAC_CHANNEL(DAC_Channel));
 207:../../source/src/FWlib/src/stm32f10x_dac.c ****   assert_param(IS_FUNCTIONAL_STATE(NewState));
 208:../../source/src/FWlib/src/stm32f10x_dac.c ****   assert_param(IS_DAC_IT(DAC_IT)); 
 209:../../source/src/FWlib/src/stm32f10x_dac.c **** 
 210:../../source/src/FWlib/src/stm32f10x_dac.c ****   if (NewState != DISABLE)
 211:../../source/src/FWlib/src/stm32f10x_dac.c ****   {
 212:../../source/src/FWlib/src/stm32f10x_dac.c ****     /* Enable the selected DAC interrupts */
 213:../../source/src/FWlib/src/stm32f10x_dac.c ****     DAC->CR |=  (DAC_IT << DAC_Channel);
 214:../../source/src/FWlib/src/stm32f10x_dac.c ****   }
 215:../../source/src/FWlib/src/stm32f10x_dac.c ****   else
 216:../../source/src/FWlib/src/stm32f10x_dac.c ****   {
 217:../../source/src/FWlib/src/stm32f10x_dac.c ****     /* Disable the selected DAC interrupts */
 218:../../source/src/FWlib/src/stm32f10x_dac.c ****     DAC->CR &= (~(uint32_t)(DAC_IT << DAC_Channel));
 219:../../source/src/FWlib/src/stm32f10x_dac.c ****   }
 220:../../source/src/FWlib/src/stm32f10x_dac.c **** }
 221:../../source/src/FWlib/src/stm32f10x_dac.c **** #endif
 222:../../source/src/FWlib/src/stm32f10x_dac.c **** 
 223:../../source/src/FWlib/src/stm32f10x_dac.c **** /**
 224:../../source/src/FWlib/src/stm32f10x_dac.c ****   * @brief  Enables or disables the specified DAC channel DMA request.
 225:../../source/src/FWlib/src/stm32f10x_dac.c ****   * @param  DAC_Channel: the selected DAC channel. 
 226:../../source/src/FWlib/src/stm32f10x_dac.c ****   *   This parameter can be one of the following values:
 227:../../source/src/FWlib/src/stm32f10x_dac.c ****   *     @arg DAC_Channel_1: DAC Channel1 selected
 228:../../source/src/FWlib/src/stm32f10x_dac.c ****   *     @arg DAC_Channel_2: DAC Channel2 selected
 229:../../source/src/FWlib/src/stm32f10x_dac.c ****   * @param  NewState: new state of the selected DAC channel DMA request.
 230:../../source/src/FWlib/src/stm32f10x_dac.c ****   *   This parameter can be: ENABLE or DISABLE.
 231:../../source/src/FWlib/src/stm32f10x_dac.c ****   * @retval None
 232:../../source/src/FWlib/src/stm32f10x_dac.c ****   */
 233:../../source/src/FWlib/src/stm32f10x_dac.c **** void DAC_DMACmd(uint32_t DAC_Channel, FunctionalState NewState)
 234:../../source/src/FWlib/src/stm32f10x_dac.c **** {
 199              		.loc 1 234 0
 200              		.cfi_startproc
 201              		@ args = 0, pretend = 0, frame = 0
 202              		@ frame_needed = 0, uses_anonymous_args = 0
 203              		@ link register save eliminated.
 204              	.LVL12:
 205 0078 4FF48053 		mov	r3, #4096
 235:../../source/src/FWlib/src/stm32f10x_dac.c ****   /* Check the parameters */
 236:../../source/src/FWlib/src/stm32f10x_dac.c ****   assert_param(IS_DAC_CHANNEL(DAC_Channel));
 237:../../source/src/FWlib/src/stm32f10x_dac.c ****   assert_param(IS_FUNCTIONAL_STATE(NewState));
 238:../../source/src/FWlib/src/stm32f10x_dac.c ****   if (NewState != DISABLE)
 239:../../source/src/FWlib/src/stm32f10x_dac.c ****   {
 240:../../source/src/FWlib/src/stm32f10x_dac.c ****     /* Enable the selected DAC channel DMA request */
 241:../../source/src/FWlib/src/stm32f10x_dac.c ****     DAC->CR |= (DAC_CR_DMAEN1 << DAC_Channel);
 206              		.loc 1 241 0
 207 007c 054A     		ldr	r2, .L17
ARM GAS  G:\Users\Jaxb\AppData\Local\Temp\ccznmST2.s 			page 9


 208 007e 03FA00F0 		lsl	r0, r3, r0
 209              	.LVL13:
 210 0082 1368     		ldr	r3, [r2]
 238:../../source/src/FWlib/src/stm32f10x_dac.c ****   {
 211              		.loc 1 238 0
 212 0084 19B9     		cbnz	r1, .L16
 242:../../source/src/FWlib/src/stm32f10x_dac.c ****   }
 243:../../source/src/FWlib/src/stm32f10x_dac.c ****   else
 244:../../source/src/FWlib/src/stm32f10x_dac.c ****   {
 245:../../source/src/FWlib/src/stm32f10x_dac.c ****     /* Disable the selected DAC channel DMA request */
 246:../../source/src/FWlib/src/stm32f10x_dac.c ****     DAC->CR &= ~(DAC_CR_DMAEN1 << DAC_Channel);
 213              		.loc 1 246 0
 214 0086 23EA0000 		bic	r0, r3, r0
 215 008a 1060     		str	r0, [r2]
 247:../../source/src/FWlib/src/stm32f10x_dac.c ****   }
 248:../../source/src/FWlib/src/stm32f10x_dac.c **** }
 216              		.loc 1 248 0
 217 008c 7047     		bx	lr
 218              	.L16:
 241:../../source/src/FWlib/src/stm32f10x_dac.c ****   }
 219              		.loc 1 241 0
 220 008e 1843     		orrs	r0, r0, r3
 221 0090 1060     		str	r0, [r2]
 222 0092 7047     		bx	lr
 223              	.L18:
 224              		.align	2
 225              	.L17:
 226 0094 00740040 		.word	1073771520
 227              		.cfi_endproc
 228              	.LFE33:
 229              		.size	DAC_DMACmd, .-DAC_DMACmd
 230              		.align	1
 231              		.p2align 2,,3
 232              		.global	DAC_SoftwareTriggerCmd
 233              		.syntax unified
 234              		.thumb
 235              		.thumb_func
 236              		.fpu softvfp
 237              		.type	DAC_SoftwareTriggerCmd, %function
 238              	DAC_SoftwareTriggerCmd:
 239              	.LFB34:
 249:../../source/src/FWlib/src/stm32f10x_dac.c **** 
 250:../../source/src/FWlib/src/stm32f10x_dac.c **** /**
 251:../../source/src/FWlib/src/stm32f10x_dac.c ****   * @brief  Enables or disables the selected DAC channel software trigger.
 252:../../source/src/FWlib/src/stm32f10x_dac.c ****   * @param  DAC_Channel: the selected DAC channel. 
 253:../../source/src/FWlib/src/stm32f10x_dac.c ****   *   This parameter can be one of the following values:
 254:../../source/src/FWlib/src/stm32f10x_dac.c ****   *     @arg DAC_Channel_1: DAC Channel1 selected
 255:../../source/src/FWlib/src/stm32f10x_dac.c ****   *     @arg DAC_Channel_2: DAC Channel2 selected
 256:../../source/src/FWlib/src/stm32f10x_dac.c ****   * @param  NewState: new state of the selected DAC channel software trigger.
 257:../../source/src/FWlib/src/stm32f10x_dac.c ****   *   This parameter can be: ENABLE or DISABLE.
 258:../../source/src/FWlib/src/stm32f10x_dac.c ****   * @retval None
 259:../../source/src/FWlib/src/stm32f10x_dac.c ****   */
 260:../../source/src/FWlib/src/stm32f10x_dac.c **** void DAC_SoftwareTriggerCmd(uint32_t DAC_Channel, FunctionalState NewState)
 261:../../source/src/FWlib/src/stm32f10x_dac.c **** {
 240              		.loc 1 261 0
 241              		.cfi_startproc
 242              		@ args = 0, pretend = 0, frame = 0
ARM GAS  G:\Users\Jaxb\AppData\Local\Temp\ccznmST2.s 			page 10


 243              		@ frame_needed = 0, uses_anonymous_args = 0
 244              		@ link register save eliminated.
 245              	.LVL14:
 246 0098 0123     		movs	r3, #1
 262:../../source/src/FWlib/src/stm32f10x_dac.c ****   /* Check the parameters */
 263:../../source/src/FWlib/src/stm32f10x_dac.c ****   assert_param(IS_DAC_CHANNEL(DAC_Channel));
 264:../../source/src/FWlib/src/stm32f10x_dac.c ****   assert_param(IS_FUNCTIONAL_STATE(NewState));
 265:../../source/src/FWlib/src/stm32f10x_dac.c ****   if (NewState != DISABLE)
 266:../../source/src/FWlib/src/stm32f10x_dac.c ****   {
 267:../../source/src/FWlib/src/stm32f10x_dac.c ****     /* Enable software trigger for the selected DAC channel */
 268:../../source/src/FWlib/src/stm32f10x_dac.c ****     DAC->SWTRIGR |= (uint32_t)DAC_SWTRIGR_SWTRIG1 << (DAC_Channel >> 4);
 247              		.loc 1 268 0
 248 009a 064A     		ldr	r2, .L23
 249 009c 0009     		lsrs	r0, r0, #4
 250              	.LVL15:
 251 009e 8340     		lsls	r3, r3, r0
 252 00a0 5068     		ldr	r0, [r2, #4]
 265:../../source/src/FWlib/src/stm32f10x_dac.c ****   {
 253              		.loc 1 265 0
 254 00a2 19B9     		cbnz	r1, .L22
 269:../../source/src/FWlib/src/stm32f10x_dac.c ****   }
 270:../../source/src/FWlib/src/stm32f10x_dac.c ****   else
 271:../../source/src/FWlib/src/stm32f10x_dac.c ****   {
 272:../../source/src/FWlib/src/stm32f10x_dac.c ****     /* Disable software trigger for the selected DAC channel */
 273:../../source/src/FWlib/src/stm32f10x_dac.c ****     DAC->SWTRIGR &= ~((uint32_t)DAC_SWTRIGR_SWTRIG1 << (DAC_Channel >> 4));
 255              		.loc 1 273 0
 256 00a4 20EA0303 		bic	r3, r0, r3
 257 00a8 5360     		str	r3, [r2, #4]
 274:../../source/src/FWlib/src/stm32f10x_dac.c ****   }
 275:../../source/src/FWlib/src/stm32f10x_dac.c **** }
 258              		.loc 1 275 0
 259 00aa 7047     		bx	lr
 260              	.L22:
 268:../../source/src/FWlib/src/stm32f10x_dac.c ****   }
 261              		.loc 1 268 0
 262 00ac 0343     		orrs	r3, r3, r0
 263 00ae 5360     		str	r3, [r2, #4]
 264 00b0 7047     		bx	lr
 265              	.L24:
 266 00b2 00BF     		.align	2
 267              	.L23:
 268 00b4 00740040 		.word	1073771520
 269              		.cfi_endproc
 270              	.LFE34:
 271              		.size	DAC_SoftwareTriggerCmd, .-DAC_SoftwareTriggerCmd
 272              		.align	1
 273              		.p2align 2,,3
 274              		.global	DAC_DualSoftwareTriggerCmd
 275              		.syntax unified
 276              		.thumb
 277              		.thumb_func
 278              		.fpu softvfp
 279              		.type	DAC_DualSoftwareTriggerCmd, %function
 280              	DAC_DualSoftwareTriggerCmd:
 281              	.LFB35:
 276:../../source/src/FWlib/src/stm32f10x_dac.c **** 
 277:../../source/src/FWlib/src/stm32f10x_dac.c **** /**
ARM GAS  G:\Users\Jaxb\AppData\Local\Temp\ccznmST2.s 			page 11


 278:../../source/src/FWlib/src/stm32f10x_dac.c ****   * @brief  Enables or disables simultaneously the two DAC channels software
 279:../../source/src/FWlib/src/stm32f10x_dac.c ****   *   triggers.
 280:../../source/src/FWlib/src/stm32f10x_dac.c ****   * @param  NewState: new state of the DAC channels software triggers.
 281:../../source/src/FWlib/src/stm32f10x_dac.c ****   *   This parameter can be: ENABLE or DISABLE.
 282:../../source/src/FWlib/src/stm32f10x_dac.c ****   * @retval None
 283:../../source/src/FWlib/src/stm32f10x_dac.c ****   */
 284:../../source/src/FWlib/src/stm32f10x_dac.c **** void DAC_DualSoftwareTriggerCmd(FunctionalState NewState)
 285:../../source/src/FWlib/src/stm32f10x_dac.c **** {
 282              		.loc 1 285 0
 283              		.cfi_startproc
 284              		@ args = 0, pretend = 0, frame = 0
 285              		@ frame_needed = 0, uses_anonymous_args = 0
 286              		@ link register save eliminated.
 287              	.LVL16:
 286:../../source/src/FWlib/src/stm32f10x_dac.c ****   /* Check the parameters */
 287:../../source/src/FWlib/src/stm32f10x_dac.c ****   assert_param(IS_FUNCTIONAL_STATE(NewState));
 288:../../source/src/FWlib/src/stm32f10x_dac.c ****   if (NewState != DISABLE)
 289:../../source/src/FWlib/src/stm32f10x_dac.c ****   {
 290:../../source/src/FWlib/src/stm32f10x_dac.c ****     /* Enable software trigger for both DAC channels */
 291:../../source/src/FWlib/src/stm32f10x_dac.c ****     DAC->SWTRIGR |= DUAL_SWTRIG_SET ;
 288              		.loc 1 291 0
 289 00b8 054A     		ldr	r2, .L29
 290 00ba 5368     		ldr	r3, [r2, #4]
 288:../../source/src/FWlib/src/stm32f10x_dac.c ****   {
 291              		.loc 1 288 0
 292 00bc 18B9     		cbnz	r0, .L28
 292:../../source/src/FWlib/src/stm32f10x_dac.c ****   }
 293:../../source/src/FWlib/src/stm32f10x_dac.c ****   else
 294:../../source/src/FWlib/src/stm32f10x_dac.c ****   {
 295:../../source/src/FWlib/src/stm32f10x_dac.c ****     /* Disable software trigger for both DAC channels */
 296:../../source/src/FWlib/src/stm32f10x_dac.c ****     DAC->SWTRIGR &= DUAL_SWTRIG_RESET;
 293              		.loc 1 296 0
 294 00be 23F00303 		bic	r3, r3, #3
 295 00c2 5360     		str	r3, [r2, #4]
 297:../../source/src/FWlib/src/stm32f10x_dac.c ****   }
 298:../../source/src/FWlib/src/stm32f10x_dac.c **** }
 296              		.loc 1 298 0
 297 00c4 7047     		bx	lr
 298              	.L28:
 291:../../source/src/FWlib/src/stm32f10x_dac.c ****   }
 299              		.loc 1 291 0
 300 00c6 43F00303 		orr	r3, r3, #3
 301 00ca 5360     		str	r3, [r2, #4]
 302 00cc 7047     		bx	lr
 303              	.L30:
 304 00ce 00BF     		.align	2
 305              	.L29:
 306 00d0 00740040 		.word	1073771520
 307              		.cfi_endproc
 308              	.LFE35:
 309              		.size	DAC_DualSoftwareTriggerCmd, .-DAC_DualSoftwareTriggerCmd
 310              		.align	1
 311              		.p2align 2,,3
 312              		.global	DAC_WaveGenerationCmd
 313              		.syntax unified
 314              		.thumb
 315              		.thumb_func
ARM GAS  G:\Users\Jaxb\AppData\Local\Temp\ccznmST2.s 			page 12


 316              		.fpu softvfp
 317              		.type	DAC_WaveGenerationCmd, %function
 318              	DAC_WaveGenerationCmd:
 319              	.LFB36:
 299:../../source/src/FWlib/src/stm32f10x_dac.c **** 
 300:../../source/src/FWlib/src/stm32f10x_dac.c **** /**
 301:../../source/src/FWlib/src/stm32f10x_dac.c ****   * @brief  Enables or disables the selected DAC channel wave generation.
 302:../../source/src/FWlib/src/stm32f10x_dac.c ****   * @param  DAC_Channel: the selected DAC channel. 
 303:../../source/src/FWlib/src/stm32f10x_dac.c ****   *   This parameter can be one of the following values:
 304:../../source/src/FWlib/src/stm32f10x_dac.c ****   *     @arg DAC_Channel_1: DAC Channel1 selected
 305:../../source/src/FWlib/src/stm32f10x_dac.c ****   *     @arg DAC_Channel_2: DAC Channel2 selected
 306:../../source/src/FWlib/src/stm32f10x_dac.c ****   * @param  DAC_Wave: Specifies the wave type to enable or disable.
 307:../../source/src/FWlib/src/stm32f10x_dac.c ****   *   This parameter can be one of the following values:
 308:../../source/src/FWlib/src/stm32f10x_dac.c ****   *     @arg DAC_Wave_Noise: noise wave generation
 309:../../source/src/FWlib/src/stm32f10x_dac.c ****   *     @arg DAC_Wave_Triangle: triangle wave generation
 310:../../source/src/FWlib/src/stm32f10x_dac.c ****   * @param  NewState: new state of the selected DAC channel wave generation.
 311:../../source/src/FWlib/src/stm32f10x_dac.c ****   *   This parameter can be: ENABLE or DISABLE.
 312:../../source/src/FWlib/src/stm32f10x_dac.c ****   * @retval None
 313:../../source/src/FWlib/src/stm32f10x_dac.c ****   */
 314:../../source/src/FWlib/src/stm32f10x_dac.c **** void DAC_WaveGenerationCmd(uint32_t DAC_Channel, uint32_t DAC_Wave, FunctionalState NewState)
 315:../../source/src/FWlib/src/stm32f10x_dac.c **** {
 320              		.loc 1 315 0
 321              		.cfi_startproc
 322              		@ args = 0, pretend = 0, frame = 0
 323              		@ frame_needed = 0, uses_anonymous_args = 0
 324              		@ link register save eliminated.
 325              	.LVL17:
 326 00d4 8140     		lsls	r1, r1, r0
 327              	.LVL18:
 316:../../source/src/FWlib/src/stm32f10x_dac.c ****   /* Check the parameters */
 317:../../source/src/FWlib/src/stm32f10x_dac.c ****   assert_param(IS_DAC_CHANNEL(DAC_Channel));
 318:../../source/src/FWlib/src/stm32f10x_dac.c ****   assert_param(IS_DAC_WAVE(DAC_Wave)); 
 319:../../source/src/FWlib/src/stm32f10x_dac.c ****   assert_param(IS_FUNCTIONAL_STATE(NewState));
 320:../../source/src/FWlib/src/stm32f10x_dac.c ****   if (NewState != DISABLE)
 328              		.loc 1 320 0
 329 00d6 2AB9     		cbnz	r2, .L34
 321:../../source/src/FWlib/src/stm32f10x_dac.c ****   {
 322:../../source/src/FWlib/src/stm32f10x_dac.c ****     /* Enable the selected wave generation for the selected DAC channel */
 323:../../source/src/FWlib/src/stm32f10x_dac.c ****     DAC->CR |= DAC_Wave << DAC_Channel;
 324:../../source/src/FWlib/src/stm32f10x_dac.c ****   }
 325:../../source/src/FWlib/src/stm32f10x_dac.c ****   else
 326:../../source/src/FWlib/src/stm32f10x_dac.c ****   {
 327:../../source/src/FWlib/src/stm32f10x_dac.c ****     /* Disable the selected wave generation for the selected DAC channel */
 328:../../source/src/FWlib/src/stm32f10x_dac.c ****     DAC->CR &= ~(DAC_Wave << DAC_Channel);
 330              		.loc 1 328 0
 331 00d8 054A     		ldr	r2, .L35
 332              	.LVL19:
 333 00da 1368     		ldr	r3, [r2]
 334 00dc 23EA0101 		bic	r1, r3, r1
 335 00e0 1160     		str	r1, [r2]
 329:../../source/src/FWlib/src/stm32f10x_dac.c ****   }
 330:../../source/src/FWlib/src/stm32f10x_dac.c **** }
 336              		.loc 1 330 0
 337 00e2 7047     		bx	lr
 338              	.LVL20:
 339              	.L34:
 323:../../source/src/FWlib/src/stm32f10x_dac.c ****   }
ARM GAS  G:\Users\Jaxb\AppData\Local\Temp\ccznmST2.s 			page 13


 340              		.loc 1 323 0
 341 00e4 024B     		ldr	r3, .L35
 342 00e6 1868     		ldr	r0, [r3]
 343              	.LVL21:
 344 00e8 0143     		orrs	r1, r1, r0
 345 00ea 1960     		str	r1, [r3]
 346 00ec 7047     		bx	lr
 347              	.L36:
 348 00ee 00BF     		.align	2
 349              	.L35:
 350 00f0 00740040 		.word	1073771520
 351              		.cfi_endproc
 352              	.LFE36:
 353              		.size	DAC_WaveGenerationCmd, .-DAC_WaveGenerationCmd
 354              		.align	1
 355              		.p2align 2,,3
 356              		.global	DAC_SetChannel1Data
 357              		.syntax unified
 358              		.thumb
 359              		.thumb_func
 360              		.fpu softvfp
 361              		.type	DAC_SetChannel1Data, %function
 362              	DAC_SetChannel1Data:
 363              	.LFB37:
 331:../../source/src/FWlib/src/stm32f10x_dac.c **** 
 332:../../source/src/FWlib/src/stm32f10x_dac.c **** /**
 333:../../source/src/FWlib/src/stm32f10x_dac.c ****   * @brief  Set the specified data holding register value for DAC channel1.
 334:../../source/src/FWlib/src/stm32f10x_dac.c ****   * @param  DAC_Align: Specifies the data alignment for DAC channel1.
 335:../../source/src/FWlib/src/stm32f10x_dac.c ****   *   This parameter can be one of the following values:
 336:../../source/src/FWlib/src/stm32f10x_dac.c ****   *     @arg DAC_Align_8b_R: 8bit right data alignment selected
 337:../../source/src/FWlib/src/stm32f10x_dac.c ****   *     @arg DAC_Align_12b_L: 12bit left data alignment selected
 338:../../source/src/FWlib/src/stm32f10x_dac.c ****   *     @arg DAC_Align_12b_R: 12bit right data alignment selected
 339:../../source/src/FWlib/src/stm32f10x_dac.c ****   * @param  Data : Data to be loaded in the selected data holding register.
 340:../../source/src/FWlib/src/stm32f10x_dac.c ****   * @retval None
 341:../../source/src/FWlib/src/stm32f10x_dac.c ****   */
 342:../../source/src/FWlib/src/stm32f10x_dac.c **** void DAC_SetChannel1Data(uint32_t DAC_Align, uint16_t Data)
 343:../../source/src/FWlib/src/stm32f10x_dac.c **** {  
 364              		.loc 1 343 0
 365              		.cfi_startproc
 366              		@ args = 0, pretend = 0, frame = 8
 367              		@ frame_needed = 0, uses_anonymous_args = 0
 368              		@ link register save eliminated.
 369              	.LVL22:
 344:../../source/src/FWlib/src/stm32f10x_dac.c ****   __IO uint32_t tmp = 0;
 370              		.loc 1 344 0
 371 00f4 0022     		movs	r2, #0
 345:../../source/src/FWlib/src/stm32f10x_dac.c ****   
 346:../../source/src/FWlib/src/stm32f10x_dac.c ****   /* Check the parameters */
 347:../../source/src/FWlib/src/stm32f10x_dac.c ****   assert_param(IS_DAC_ALIGN(DAC_Align));
 348:../../source/src/FWlib/src/stm32f10x_dac.c ****   assert_param(IS_DAC_DATA(Data));
 349:../../source/src/FWlib/src/stm32f10x_dac.c ****   
 350:../../source/src/FWlib/src/stm32f10x_dac.c ****   tmp = (uint32_t)DAC_BASE; 
 372              		.loc 1 350 0
 373 00f6 064B     		ldr	r3, .L38
 343:../../source/src/FWlib/src/stm32f10x_dac.c ****   __IO uint32_t tmp = 0;
 374              		.loc 1 343 0
 375 00f8 82B0     		sub	sp, sp, #8
ARM GAS  G:\Users\Jaxb\AppData\Local\Temp\ccznmST2.s 			page 14


 376              	.LCFI4:
 377              		.cfi_def_cfa_offset 8
 344:../../source/src/FWlib/src/stm32f10x_dac.c ****   __IO uint32_t tmp = 0;
 378              		.loc 1 344 0
 379 00fa 0192     		str	r2, [sp, #4]
 380              		.loc 1 350 0
 381 00fc 0193     		str	r3, [sp, #4]
 351:../../source/src/FWlib/src/stm32f10x_dac.c ****   tmp += DHR12R1_OFFSET + DAC_Align;
 382              		.loc 1 351 0
 383 00fe 019B     		ldr	r3, [sp, #4]
 384 0100 0833     		adds	r3, r3, #8
 385 0102 1844     		add	r0, r0, r3
 386              	.LVL23:
 387 0104 0190     		str	r0, [sp, #4]
 352:../../source/src/FWlib/src/stm32f10x_dac.c **** 
 353:../../source/src/FWlib/src/stm32f10x_dac.c ****   /* Set the DAC channel1 selected data holding register */
 354:../../source/src/FWlib/src/stm32f10x_dac.c ****   *(__IO uint32_t *) tmp = Data;
 388              		.loc 1 354 0
 389 0106 019B     		ldr	r3, [sp, #4]
 390 0108 1960     		str	r1, [r3]
 355:../../source/src/FWlib/src/stm32f10x_dac.c **** }
 391              		.loc 1 355 0
 392 010a 02B0     		add	sp, sp, #8
 393              	.LCFI5:
 394              		.cfi_def_cfa_offset 0
 395              		@ sp needed
 396 010c 7047     		bx	lr
 397              	.L39:
 398 010e 00BF     		.align	2
 399              	.L38:
 400 0110 00740040 		.word	1073771520
 401              		.cfi_endproc
 402              	.LFE37:
 403              		.size	DAC_SetChannel1Data, .-DAC_SetChannel1Data
 404              		.align	1
 405              		.p2align 2,,3
 406              		.global	DAC_SetChannel2Data
 407              		.syntax unified
 408              		.thumb
 409              		.thumb_func
 410              		.fpu softvfp
 411              		.type	DAC_SetChannel2Data, %function
 412              	DAC_SetChannel2Data:
 413              	.LFB38:
 356:../../source/src/FWlib/src/stm32f10x_dac.c **** 
 357:../../source/src/FWlib/src/stm32f10x_dac.c **** /**
 358:../../source/src/FWlib/src/stm32f10x_dac.c ****   * @brief  Set the specified data holding register value for DAC channel2.
 359:../../source/src/FWlib/src/stm32f10x_dac.c ****   * @param  DAC_Align: Specifies the data alignment for DAC channel2.
 360:../../source/src/FWlib/src/stm32f10x_dac.c ****   *   This parameter can be one of the following values:
 361:../../source/src/FWlib/src/stm32f10x_dac.c ****   *     @arg DAC_Align_8b_R: 8bit right data alignment selected
 362:../../source/src/FWlib/src/stm32f10x_dac.c ****   *     @arg DAC_Align_12b_L: 12bit left data alignment selected
 363:../../source/src/FWlib/src/stm32f10x_dac.c ****   *     @arg DAC_Align_12b_R: 12bit right data alignment selected
 364:../../source/src/FWlib/src/stm32f10x_dac.c ****   * @param  Data : Data to be loaded in the selected data holding register.
 365:../../source/src/FWlib/src/stm32f10x_dac.c ****   * @retval None
 366:../../source/src/FWlib/src/stm32f10x_dac.c ****   */
 367:../../source/src/FWlib/src/stm32f10x_dac.c **** void DAC_SetChannel2Data(uint32_t DAC_Align, uint16_t Data)
 368:../../source/src/FWlib/src/stm32f10x_dac.c **** {
ARM GAS  G:\Users\Jaxb\AppData\Local\Temp\ccznmST2.s 			page 15


 414              		.loc 1 368 0
 415              		.cfi_startproc
 416              		@ args = 0, pretend = 0, frame = 8
 417              		@ frame_needed = 0, uses_anonymous_args = 0
 418              		@ link register save eliminated.
 419              	.LVL24:
 369:../../source/src/FWlib/src/stm32f10x_dac.c ****   __IO uint32_t tmp = 0;
 420              		.loc 1 369 0
 421 0114 0022     		movs	r2, #0
 370:../../source/src/FWlib/src/stm32f10x_dac.c **** 
 371:../../source/src/FWlib/src/stm32f10x_dac.c ****   /* Check the parameters */
 372:../../source/src/FWlib/src/stm32f10x_dac.c ****   assert_param(IS_DAC_ALIGN(DAC_Align));
 373:../../source/src/FWlib/src/stm32f10x_dac.c ****   assert_param(IS_DAC_DATA(Data));
 374:../../source/src/FWlib/src/stm32f10x_dac.c ****   
 375:../../source/src/FWlib/src/stm32f10x_dac.c ****   tmp = (uint32_t)DAC_BASE;
 422              		.loc 1 375 0
 423 0116 064B     		ldr	r3, .L41
 368:../../source/src/FWlib/src/stm32f10x_dac.c ****   __IO uint32_t tmp = 0;
 424              		.loc 1 368 0
 425 0118 82B0     		sub	sp, sp, #8
 426              	.LCFI6:
 427              		.cfi_def_cfa_offset 8
 369:../../source/src/FWlib/src/stm32f10x_dac.c ****   __IO uint32_t tmp = 0;
 428              		.loc 1 369 0
 429 011a 0192     		str	r2, [sp, #4]
 430              		.loc 1 375 0
 431 011c 0193     		str	r3, [sp, #4]
 376:../../source/src/FWlib/src/stm32f10x_dac.c ****   tmp += DHR12R2_OFFSET + DAC_Align;
 432              		.loc 1 376 0
 433 011e 019B     		ldr	r3, [sp, #4]
 434 0120 1433     		adds	r3, r3, #20
 435 0122 1844     		add	r0, r0, r3
 436              	.LVL25:
 437 0124 0190     		str	r0, [sp, #4]
 377:../../source/src/FWlib/src/stm32f10x_dac.c **** 
 378:../../source/src/FWlib/src/stm32f10x_dac.c ****   /* Set the DAC channel2 selected data holding register */
 379:../../source/src/FWlib/src/stm32f10x_dac.c ****   *(__IO uint32_t *)tmp = Data;
 438              		.loc 1 379 0
 439 0126 019B     		ldr	r3, [sp, #4]
 440 0128 1960     		str	r1, [r3]
 380:../../source/src/FWlib/src/stm32f10x_dac.c **** }
 441              		.loc 1 380 0
 442 012a 02B0     		add	sp, sp, #8
 443              	.LCFI7:
 444              		.cfi_def_cfa_offset 0
 445              		@ sp needed
 446 012c 7047     		bx	lr
 447              	.L42:
 448 012e 00BF     		.align	2
 449              	.L41:
 450 0130 00740040 		.word	1073771520
 451              		.cfi_endproc
 452              	.LFE38:
 453              		.size	DAC_SetChannel2Data, .-DAC_SetChannel2Data
 454              		.align	1
 455              		.p2align 2,,3
 456              		.global	DAC_SetDualChannelData
ARM GAS  G:\Users\Jaxb\AppData\Local\Temp\ccznmST2.s 			page 16


 457              		.syntax unified
 458              		.thumb
 459              		.thumb_func
 460              		.fpu softvfp
 461              		.type	DAC_SetDualChannelData, %function
 462              	DAC_SetDualChannelData:
 463              	.LFB39:
 381:../../source/src/FWlib/src/stm32f10x_dac.c **** 
 382:../../source/src/FWlib/src/stm32f10x_dac.c **** /**
 383:../../source/src/FWlib/src/stm32f10x_dac.c ****   * @brief  Set the specified data holding register value for dual channel
 384:../../source/src/FWlib/src/stm32f10x_dac.c ****   *   DAC.
 385:../../source/src/FWlib/src/stm32f10x_dac.c ****   * @param  DAC_Align: Specifies the data alignment for dual channel DAC.
 386:../../source/src/FWlib/src/stm32f10x_dac.c ****   *   This parameter can be one of the following values:
 387:../../source/src/FWlib/src/stm32f10x_dac.c ****   *     @arg DAC_Align_8b_R: 8bit right data alignment selected
 388:../../source/src/FWlib/src/stm32f10x_dac.c ****   *     @arg DAC_Align_12b_L: 12bit left data alignment selected
 389:../../source/src/FWlib/src/stm32f10x_dac.c ****   *     @arg DAC_Align_12b_R: 12bit right data alignment selected
 390:../../source/src/FWlib/src/stm32f10x_dac.c ****   * @param  Data2: Data for DAC Channel2 to be loaded in the selected data 
 391:../../source/src/FWlib/src/stm32f10x_dac.c ****   *   holding register.
 392:../../source/src/FWlib/src/stm32f10x_dac.c ****   * @param  Data1: Data for DAC Channel1 to be loaded in the selected data 
 393:../../source/src/FWlib/src/stm32f10x_dac.c ****   *   holding register.
 394:../../source/src/FWlib/src/stm32f10x_dac.c ****   * @retval None
 395:../../source/src/FWlib/src/stm32f10x_dac.c ****   */
 396:../../source/src/FWlib/src/stm32f10x_dac.c **** void DAC_SetDualChannelData(uint32_t DAC_Align, uint16_t Data2, uint16_t Data1)
 397:../../source/src/FWlib/src/stm32f10x_dac.c **** {
 464              		.loc 1 397 0
 465              		.cfi_startproc
 466              		@ args = 0, pretend = 0, frame = 0
 467              		@ frame_needed = 0, uses_anonymous_args = 0
 468              		@ link register save eliminated.
 469              	.LVL26:
 398:../../source/src/FWlib/src/stm32f10x_dac.c ****   uint32_t data = 0, tmp = 0;
 399:../../source/src/FWlib/src/stm32f10x_dac.c ****   
 400:../../source/src/FWlib/src/stm32f10x_dac.c ****   /* Check the parameters */
 401:../../source/src/FWlib/src/stm32f10x_dac.c ****   assert_param(IS_DAC_ALIGN(DAC_Align));
 402:../../source/src/FWlib/src/stm32f10x_dac.c ****   assert_param(IS_DAC_DATA(Data1));
 403:../../source/src/FWlib/src/stm32f10x_dac.c ****   assert_param(IS_DAC_DATA(Data2));
 404:../../source/src/FWlib/src/stm32f10x_dac.c ****   
 405:../../source/src/FWlib/src/stm32f10x_dac.c ****   /* Calculate and set dual DAC data holding register value */
 406:../../source/src/FWlib/src/stm32f10x_dac.c ****   if (DAC_Align == DAC_Align_8b_R)
 470              		.loc 1 406 0
 471 0134 0828     		cmp	r0, #8
 407:../../source/src/FWlib/src/stm32f10x_dac.c ****   {
 408:../../source/src/FWlib/src/stm32f10x_dac.c ****     data = ((uint32_t)Data2 << 8) | Data1; 
 409:../../source/src/FWlib/src/stm32f10x_dac.c ****   }
 410:../../source/src/FWlib/src/stm32f10x_dac.c ****   else
 411:../../source/src/FWlib/src/stm32f10x_dac.c ****   {
 412:../../source/src/FWlib/src/stm32f10x_dac.c ****     data = ((uint32_t)Data2 << 16) | Data1;
 413:../../source/src/FWlib/src/stm32f10x_dac.c ****   }
 414:../../source/src/FWlib/src/stm32f10x_dac.c ****   
 415:../../source/src/FWlib/src/stm32f10x_dac.c ****   tmp = (uint32_t)DAC_BASE;
 416:../../source/src/FWlib/src/stm32f10x_dac.c ****   tmp += DHR12RD_OFFSET + DAC_Align;
 472              		.loc 1 416 0
 473 0136 044B     		ldr	r3, .L46
 408:../../source/src/FWlib/src/stm32f10x_dac.c ****   }
 474              		.loc 1 408 0
 475 0138 0CBF     		ite	eq
 476 013a 42EA0122 		orreq	r2, r2, r1, lsl #8
ARM GAS  G:\Users\Jaxb\AppData\Local\Temp\ccznmST2.s 			page 17


 477              	.LVL27:
 412:../../source/src/FWlib/src/stm32f10x_dac.c ****   }
 478              		.loc 1 412 0
 479 013e 42EA0142 		orrne	r2, r2, r1, lsl #16
 480              	.LVL28:
 417:../../source/src/FWlib/src/stm32f10x_dac.c **** 
 418:../../source/src/FWlib/src/stm32f10x_dac.c ****   /* Set the dual DAC selected data holding register */
 419:../../source/src/FWlib/src/stm32f10x_dac.c ****   *(__IO uint32_t *)tmp = data;
 481              		.loc 1 419 0
 482 0142 C250     		str	r2, [r0, r3]
 420:../../source/src/FWlib/src/stm32f10x_dac.c **** }
 483              		.loc 1 420 0
 484 0144 7047     		bx	lr
 485              	.L47:
 486 0146 00BF     		.align	2
 487              	.L46:
 488 0148 20740040 		.word	1073771552
 489              		.cfi_endproc
 490              	.LFE39:
 491              		.size	DAC_SetDualChannelData, .-DAC_SetDualChannelData
 492              		.align	1
 493              		.p2align 2,,3
 494              		.global	DAC_GetDataOutputValue
 495              		.syntax unified
 496              		.thumb
 497              		.thumb_func
 498              		.fpu softvfp
 499              		.type	DAC_GetDataOutputValue, %function
 500              	DAC_GetDataOutputValue:
 501              	.LFB40:
 421:../../source/src/FWlib/src/stm32f10x_dac.c **** 
 422:../../source/src/FWlib/src/stm32f10x_dac.c **** /**
 423:../../source/src/FWlib/src/stm32f10x_dac.c ****   * @brief  Returns the last data output value of the selected DAC channel.
 424:../../source/src/FWlib/src/stm32f10x_dac.c ****   * @param  DAC_Channel: the selected DAC channel. 
 425:../../source/src/FWlib/src/stm32f10x_dac.c ****   *   This parameter can be one of the following values:
 426:../../source/src/FWlib/src/stm32f10x_dac.c ****   *     @arg DAC_Channel_1: DAC Channel1 selected
 427:../../source/src/FWlib/src/stm32f10x_dac.c ****   *     @arg DAC_Channel_2: DAC Channel2 selected
 428:../../source/src/FWlib/src/stm32f10x_dac.c ****   * @retval The selected DAC channel data output value.
 429:../../source/src/FWlib/src/stm32f10x_dac.c ****   */
 430:../../source/src/FWlib/src/stm32f10x_dac.c **** uint16_t DAC_GetDataOutputValue(uint32_t DAC_Channel)
 431:../../source/src/FWlib/src/stm32f10x_dac.c **** {
 502              		.loc 1 431 0
 503              		.cfi_startproc
 504              		@ args = 0, pretend = 0, frame = 8
 505              		@ frame_needed = 0, uses_anonymous_args = 0
 506              		@ link register save eliminated.
 507              	.LVL29:
 432:../../source/src/FWlib/src/stm32f10x_dac.c ****   __IO uint32_t tmp = 0;
 508              		.loc 1 432 0
 509 014c 0022     		movs	r2, #0
 433:../../source/src/FWlib/src/stm32f10x_dac.c ****   
 434:../../source/src/FWlib/src/stm32f10x_dac.c ****   /* Check the parameters */
 435:../../source/src/FWlib/src/stm32f10x_dac.c ****   assert_param(IS_DAC_CHANNEL(DAC_Channel));
 436:../../source/src/FWlib/src/stm32f10x_dac.c ****   
 437:../../source/src/FWlib/src/stm32f10x_dac.c ****   tmp = (uint32_t) DAC_BASE ;
 510              		.loc 1 437 0
 511 014e 074B     		ldr	r3, .L49
ARM GAS  G:\Users\Jaxb\AppData\Local\Temp\ccznmST2.s 			page 18


 431:../../source/src/FWlib/src/stm32f10x_dac.c ****   __IO uint32_t tmp = 0;
 512              		.loc 1 431 0
 513 0150 82B0     		sub	sp, sp, #8
 514              	.LCFI8:
 515              		.cfi_def_cfa_offset 8
 432:../../source/src/FWlib/src/stm32f10x_dac.c ****   __IO uint32_t tmp = 0;
 516              		.loc 1 432 0
 517 0152 0192     		str	r2, [sp, #4]
 518              		.loc 1 437 0
 519 0154 0193     		str	r3, [sp, #4]
 438:../../source/src/FWlib/src/stm32f10x_dac.c ****   tmp += DOR_OFFSET + ((uint32_t)DAC_Channel >> 2);
 520              		.loc 1 438 0
 521 0156 019B     		ldr	r3, [sp, #4]
 522 0158 2C33     		adds	r3, r3, #44
 523 015a 03EB9000 		add	r0, r3, r0, lsr #2
 524              	.LVL30:
 525 015e 0190     		str	r0, [sp, #4]
 439:../../source/src/FWlib/src/stm32f10x_dac.c ****   
 440:../../source/src/FWlib/src/stm32f10x_dac.c ****   /* Returns the DAC channel data output register value */
 441:../../source/src/FWlib/src/stm32f10x_dac.c ****   return (uint16_t) (*(__IO uint32_t*) tmp);
 526              		.loc 1 441 0
 527 0160 019B     		ldr	r3, [sp, #4]
 528 0162 1868     		ldr	r0, [r3]
 442:../../source/src/FWlib/src/stm32f10x_dac.c **** }
 529              		.loc 1 442 0
 530 0164 80B2     		uxth	r0, r0
 531 0166 02B0     		add	sp, sp, #8
 532              	.LCFI9:
 533              		.cfi_def_cfa_offset 0
 534              		@ sp needed
 535 0168 7047     		bx	lr
 536              	.L50:
 537 016a 00BF     		.align	2
 538              	.L49:
 539 016c 00740040 		.word	1073771520
 540              		.cfi_endproc
 541              	.LFE40:
 542              		.size	DAC_GetDataOutputValue, .-DAC_GetDataOutputValue
 543              	.Letext0:
 544              		.file 2 "f:\\arm\\gcc2018\\arm-none-eabi\\include\\machine\\_default_types.h"
 545              		.file 3 "f:\\arm\\gcc2018\\arm-none-eabi\\include\\sys\\_stdint.h"
 546              		.file 4 "../../source/include/core_cm3.h"
 547              		.file 5 "../../source/include/system_stm32f10x.h"
 548              		.file 6 "../../source/include/stm32f10x.h"
 549              		.file 7 "../../source/src/FWlib/inc/stm32f10x_dac.h"
 550              		.file 8 "../../source/src/FWlib/inc/stm32f10x_rcc.h"
 551              		.section	.debug_info,"",%progbits
 552              	.Ldebug_info0:
 553 0000 49050000 		.4byte	0x549
 554 0004 0200     		.2byte	0x2
 555 0006 00000000 		.4byte	.Ldebug_abbrev0
 556 000a 04       		.byte	0x4
 557 000b 01       		.uleb128 0x1
 558 000c 31030000 		.4byte	.LASF60
 559 0010 0C       		.byte	0xc
 560 0011 F3000000 		.4byte	.LASF61
 561 0015 AB020000 		.4byte	.LASF62
ARM GAS  G:\Users\Jaxb\AppData\Local\Temp\ccznmST2.s 			page 19


 562 0019 00000000 		.4byte	.Ltext0
 563 001d 70010000 		.4byte	.Letext0
 564 0021 00000000 		.4byte	.Ldebug_line0
 565 0025 02       		.uleb128 0x2
 566 0026 01       		.byte	0x1
 567 0027 06       		.byte	0x6
 568 0028 B7010000 		.4byte	.LASF0
 569 002c 03       		.uleb128 0x3
 570 002d 18040000 		.4byte	.LASF3
 571 0031 02       		.byte	0x2
 572 0032 2B       		.byte	0x2b
 573 0033 37000000 		.4byte	0x37
 574 0037 02       		.uleb128 0x2
 575 0038 01       		.byte	0x1
 576 0039 08       		.byte	0x8
 577 003a 83010000 		.4byte	.LASF1
 578 003e 02       		.uleb128 0x2
 579 003f 02       		.byte	0x2
 580 0040 05       		.byte	0x5
 581 0041 4D000000 		.4byte	.LASF2
 582 0045 03       		.uleb128 0x3
 583 0046 A1000000 		.4byte	.LASF4
 584 004a 02       		.byte	0x2
 585 004b 39       		.byte	0x39
 586 004c 50000000 		.4byte	0x50
 587 0050 02       		.uleb128 0x2
 588 0051 02       		.byte	0x2
 589 0052 07       		.byte	0x7
 590 0053 20020000 		.4byte	.LASF5
 591 0057 02       		.uleb128 0x2
 592 0058 04       		.byte	0x4
 593 0059 05       		.byte	0x5
 594 005a 35010000 		.4byte	.LASF6
 595 005e 03       		.uleb128 0x3
 596 005f 85000000 		.4byte	.LASF7
 597 0063 02       		.byte	0x2
 598 0064 4F       		.byte	0x4f
 599 0065 69000000 		.4byte	0x69
 600 0069 02       		.uleb128 0x2
 601 006a 04       		.byte	0x4
 602 006b 07       		.byte	0x7
 603 006c 99020000 		.4byte	.LASF8
 604 0070 02       		.uleb128 0x2
 605 0071 08       		.byte	0x8
 606 0072 05       		.byte	0x5
 607 0073 E5000000 		.4byte	.LASF9
 608 0077 02       		.uleb128 0x2
 609 0078 08       		.byte	0x8
 610 0079 07       		.byte	0x7
 611 007a C3010000 		.4byte	.LASF10
 612 007e 04       		.uleb128 0x4
 613 007f 04       		.byte	0x4
 614 0080 05       		.byte	0x5
 615 0081 696E7400 		.ascii	"int\000"
 616 0085 05       		.uleb128 0x5
 617 0086 7E000000 		.4byte	0x7e
 618 008a 02       		.uleb128 0x2
ARM GAS  G:\Users\Jaxb\AppData\Local\Temp\ccznmST2.s 			page 20


 619 008b 04       		.byte	0x4
 620 008c 07       		.byte	0x7
 621 008d E3010000 		.4byte	.LASF11
 622 0091 03       		.uleb128 0x3
 623 0092 AC000000 		.4byte	.LASF12
 624 0096 03       		.byte	0x3
 625 0097 18       		.byte	0x18
 626 0098 2C000000 		.4byte	0x2c
 627 009c 03       		.uleb128 0x3
 628 009d F0010000 		.4byte	.LASF13
 629 00a1 03       		.byte	0x3
 630 00a2 24       		.byte	0x24
 631 00a3 45000000 		.4byte	0x45
 632 00a7 03       		.uleb128 0x3
 633 00a8 DA010000 		.4byte	.LASF14
 634 00ac 03       		.byte	0x3
 635 00ad 30       		.byte	0x30
 636 00ae 5E000000 		.4byte	0x5e
 637 00b2 05       		.uleb128 0x5
 638 00b3 A7000000 		.4byte	0xa7
 639 00b7 06       		.uleb128 0x6
 640 00b8 D7030000 		.4byte	.LASF15
 641 00bc 04       		.byte	0x4
 642 00bd CE06     		.2byte	0x6ce
 643 00bf 85000000 		.4byte	0x85
 644 00c3 01       		.byte	0x1
 645 00c4 01       		.byte	0x1
 646 00c5 07       		.uleb128 0x7
 647 00c6 76020000 		.4byte	.LASF16
 648 00ca 05       		.byte	0x5
 649 00cb 35       		.byte	0x35
 650 00cc A7000000 		.4byte	0xa7
 651 00d0 01       		.byte	0x1
 652 00d1 01       		.byte	0x1
 653 00d2 08       		.uleb128 0x8
 654 00d3 07       		.byte	0x7
 655 00d4 01       		.byte	0x1
 656 00d5 37000000 		.4byte	0x37
 657 00d9 06       		.byte	0x6
 658 00da 0902     		.2byte	0x209
 659 00dc ED000000 		.4byte	0xed
 660 00e0 09       		.uleb128 0x9
 661 00e1 DD000000 		.4byte	.LASF17
 662 00e5 00       		.byte	0
 663 00e6 09       		.uleb128 0x9
 664 00e7 11040000 		.4byte	.LASF18
 665 00eb 01       		.byte	0x1
 666 00ec 00       		.byte	0
 667 00ed 0A       		.uleb128 0xa
 668 00ee F6020000 		.4byte	.LASF19
 669 00f2 06       		.byte	0x6
 670 00f3 0902     		.2byte	0x209
 671 00f5 D2000000 		.4byte	0xd2
 672 00f9 0B       		.uleb128 0xb
 673 00fa 34       		.byte	0x34
 674 00fb 06       		.byte	0x6
 675 00fc FC02     		.2byte	0x2fc
ARM GAS  G:\Users\Jaxb\AppData\Local\Temp\ccznmST2.s 			page 21


 676 00fe C5010000 		.4byte	0x1c5
 677 0102 0C       		.uleb128 0xc
 678 0103 435200   		.ascii	"CR\000"
 679 0106 06       		.byte	0x6
 680 0107 FE02     		.2byte	0x2fe
 681 0109 B2000000 		.4byte	0xb2
 682 010d 02       		.byte	0x2
 683 010e 23       		.byte	0x23
 684 010f 00       		.uleb128 0
 685 0110 0D       		.uleb128 0xd
 686 0111 A0010000 		.4byte	.LASF20
 687 0115 06       		.byte	0x6
 688 0116 FF02     		.2byte	0x2ff
 689 0118 B2000000 		.4byte	0xb2
 690 011c 02       		.byte	0x2
 691 011d 23       		.byte	0x23
 692 011e 04       		.uleb128 0x4
 693 011f 0D       		.uleb128 0xd
 694 0120 66020000 		.4byte	.LASF21
 695 0124 06       		.byte	0x6
 696 0125 0003     		.2byte	0x300
 697 0127 B2000000 		.4byte	0xb2
 698 012b 02       		.byte	0x2
 699 012c 23       		.byte	0x23
 700 012d 08       		.uleb128 0x8
 701 012e 0D       		.uleb128 0xd
 702 012f 3D000000 		.4byte	.LASF22
 703 0133 06       		.byte	0x6
 704 0134 0103     		.2byte	0x301
 705 0136 B2000000 		.4byte	0xb2
 706 013a 02       		.byte	0x2
 707 013b 23       		.byte	0x23
 708 013c 0C       		.uleb128 0xc
 709 013d 0D       		.uleb128 0xd
 710 013e F0030000 		.4byte	.LASF23
 711 0142 06       		.byte	0x6
 712 0143 0203     		.2byte	0x302
 713 0145 B2000000 		.4byte	0xb2
 714 0149 02       		.byte	0x2
 715 014a 23       		.byte	0x23
 716 014b 10       		.uleb128 0x10
 717 014c 0D       		.uleb128 0xd
 718 014d 6E020000 		.4byte	.LASF24
 719 0151 06       		.byte	0x6
 720 0152 0303     		.2byte	0x303
 721 0154 B2000000 		.4byte	0xb2
 722 0158 02       		.byte	0x2
 723 0159 23       		.byte	0x23
 724 015a 14       		.uleb128 0x14
 725 015b 0D       		.uleb128 0xd
 726 015c 45000000 		.4byte	.LASF25
 727 0160 06       		.byte	0x6
 728 0161 0403     		.2byte	0x304
 729 0163 B2000000 		.4byte	0xb2
 730 0167 02       		.byte	0x2
 731 0168 23       		.byte	0x23
 732 0169 18       		.uleb128 0x18
ARM GAS  G:\Users\Jaxb\AppData\Local\Temp\ccznmST2.s 			page 22


 733 016a 0D       		.uleb128 0xd
 734 016b F7030000 		.4byte	.LASF26
 735 016f 06       		.byte	0x6
 736 0170 0503     		.2byte	0x305
 737 0172 B2000000 		.4byte	0xb2
 738 0176 02       		.byte	0x2
 739 0177 23       		.byte	0x23
 740 0178 1C       		.uleb128 0x1c
 741 0179 0D       		.uleb128 0xd
 742 017a 91020000 		.4byte	.LASF27
 743 017e 06       		.byte	0x6
 744 017f 0603     		.2byte	0x306
 745 0181 B2000000 		.4byte	0xb2
 746 0185 02       		.byte	0x2
 747 0186 23       		.byte	0x23
 748 0187 20       		.uleb128 0x20
 749 0188 0D       		.uleb128 0xd
 750 0189 6D000000 		.4byte	.LASF28
 751 018d 06       		.byte	0x6
 752 018e 0703     		.2byte	0x307
 753 0190 B2000000 		.4byte	0xb2
 754 0194 02       		.byte	0x2
 755 0195 23       		.byte	0x23
 756 0196 24       		.uleb128 0x24
 757 0197 0D       		.uleb128 0xd
 758 0198 1F000000 		.4byte	.LASF29
 759 019c 06       		.byte	0x6
 760 019d 0803     		.2byte	0x308
 761 019f B2000000 		.4byte	0xb2
 762 01a3 02       		.byte	0x2
 763 01a4 23       		.byte	0x23
 764 01a5 28       		.uleb128 0x28
 765 01a6 0D       		.uleb128 0xd
 766 01a7 F9010000 		.4byte	.LASF30
 767 01ab 06       		.byte	0x6
 768 01ac 0903     		.2byte	0x309
 769 01ae B2000000 		.4byte	0xb2
 770 01b2 02       		.byte	0x2
 771 01b3 23       		.byte	0x23
 772 01b4 2C       		.uleb128 0x2c
 773 01b5 0D       		.uleb128 0xd
 774 01b6 CF000000 		.4byte	.LASF31
 775 01ba 06       		.byte	0x6
 776 01bb 0A03     		.2byte	0x30a
 777 01bd B2000000 		.4byte	0xb2
 778 01c1 02       		.byte	0x2
 779 01c2 23       		.byte	0x23
 780 01c3 30       		.uleb128 0x30
 781 01c4 00       		.byte	0
 782 01c5 0A       		.uleb128 0xa
 783 01c6 E4030000 		.4byte	.LASF32
 784 01ca 06       		.byte	0x6
 785 01cb 0E03     		.2byte	0x30e
 786 01cd F9000000 		.4byte	0xf9
 787 01d1 0E       		.uleb128 0xe
 788 01d2 10       		.byte	0x10
 789 01d3 07       		.byte	0x7
ARM GAS  G:\Users\Jaxb\AppData\Local\Temp\ccznmST2.s 			page 23


 790 01d4 32       		.byte	0x32
 791 01d5 12020000 		.4byte	0x212
 792 01d9 0F       		.uleb128 0xf
 793 01da 5E010000 		.4byte	.LASF33
 794 01de 07       		.byte	0x7
 795 01df 34       		.byte	0x34
 796 01e0 A7000000 		.4byte	0xa7
 797 01e4 02       		.byte	0x2
 798 01e5 23       		.byte	0x23
 799 01e6 00       		.uleb128 0
 800 01e7 0F       		.uleb128 0xf
 801 01e8 FE030000 		.4byte	.LASF34
 802 01ec 07       		.byte	0x7
 803 01ed 37       		.byte	0x37
 804 01ee A7000000 		.4byte	0xa7
 805 01f2 02       		.byte	0x2
 806 01f3 23       		.byte	0x23
 807 01f4 04       		.uleb128 0x4
 808 01f5 0F       		.uleb128 0xf
 809 01f6 3B020000 		.4byte	.LASF35
 810 01fa 07       		.byte	0x7
 811 01fb 3B       		.byte	0x3b
 812 01fc A7000000 		.4byte	0xa7
 813 0200 02       		.byte	0x2
 814 0201 23       		.byte	0x23
 815 0202 08       		.uleb128 0x8
 816 0203 0F       		.uleb128 0xf
 817 0204 90000000 		.4byte	.LASF36
 818 0208 07       		.byte	0x7
 819 0209 3F       		.byte	0x3f
 820 020a A7000000 		.4byte	0xa7
 821 020e 02       		.byte	0x2
 822 020f 23       		.byte	0x23
 823 0210 0C       		.uleb128 0xc
 824 0211 00       		.byte	0
 825 0212 03       		.uleb128 0x3
 826 0213 75000000 		.4byte	.LASF37
 827 0217 07       		.byte	0x7
 828 0218 41       		.byte	0x41
 829 0219 D1010000 		.4byte	0x1d1
 830 021d 10       		.uleb128 0x10
 831 021e 01       		.byte	0x1
 832 021f 08000000 		.4byte	.LASF63
 833 0223 01       		.byte	0x1
 834 0224 AE01     		.2byte	0x1ae
 835 0226 01       		.byte	0x1
 836 0227 9C000000 		.4byte	0x9c
 837 022b 4C010000 		.4byte	.LFB40
 838 022f 70010000 		.4byte	.LFE40
 839 0233 00000000 		.4byte	.LLST19
 840 0237 01       		.byte	0x1
 841 0238 5C020000 		.4byte	0x25c
 842 023c 11       		.uleb128 0x11
 843 023d 09020000 		.4byte	.LASF38
 844 0241 01       		.byte	0x1
 845 0242 AE01     		.2byte	0x1ae
 846 0244 A7000000 		.4byte	0xa7
ARM GAS  G:\Users\Jaxb\AppData\Local\Temp\ccznmST2.s 			page 24


 847 0248 2C000000 		.4byte	.LLST20
 848 024c 12       		.uleb128 0x12
 849 024d 746D7000 		.ascii	"tmp\000"
 850 0251 01       		.byte	0x1
 851 0252 B001     		.2byte	0x1b0
 852 0254 B2000000 		.4byte	0xb2
 853 0258 02       		.byte	0x2
 854 0259 91       		.byte	0x91
 855 025a 7C       		.sleb128 -4
 856 025b 00       		.byte	0
 857 025c 13       		.uleb128 0x13
 858 025d 01       		.byte	0x1
 859 025e 3E010000 		.4byte	.LASF43
 860 0262 01       		.byte	0x1
 861 0263 8C01     		.2byte	0x18c
 862 0265 01       		.byte	0x1
 863 0266 34010000 		.4byte	.LFB39
 864 026a 4C010000 		.4byte	.LFE39
 865 026e 02       		.byte	0x2
 866 026f 7D       		.byte	0x7d
 867 0270 00       		.sleb128 0
 868 0271 01       		.byte	0x1
 869 0272 C3020000 		.4byte	0x2c3
 870 0276 14       		.uleb128 0x14
 871 0277 5C020000 		.4byte	.LASF39
 872 027b 01       		.byte	0x1
 873 027c 8C01     		.2byte	0x18c
 874 027e A7000000 		.4byte	0xa7
 875 0282 01       		.byte	0x1
 876 0283 50       		.byte	0x50
 877 0284 14       		.uleb128 0x14
 878 0285 86020000 		.4byte	.LASF40
 879 0289 01       		.byte	0x1
 880 028a 8C01     		.2byte	0x18c
 881 028c 9C000000 		.4byte	0x9c
 882 0290 01       		.byte	0x1
 883 0291 51       		.byte	0x51
 884 0292 11       		.uleb128 0x11
 885 0293 2B030000 		.4byte	.LASF41
 886 0297 01       		.byte	0x1
 887 0298 8C01     		.2byte	0x18c
 888 029a 9C000000 		.4byte	0x9c
 889 029e 4D000000 		.4byte	.LLST16
 890 02a2 15       		.uleb128 0x15
 891 02a3 8C020000 		.4byte	.LASF42
 892 02a7 01       		.byte	0x1
 893 02a8 8E01     		.2byte	0x18e
 894 02aa A7000000 		.4byte	0xa7
 895 02ae 6E000000 		.4byte	.LLST17
 896 02b2 16       		.uleb128 0x16
 897 02b3 746D7000 		.ascii	"tmp\000"
 898 02b7 01       		.byte	0x1
 899 02b8 8E01     		.2byte	0x18e
 900 02ba A7000000 		.4byte	0xa7
 901 02be 8D000000 		.4byte	.LLST18
 902 02c2 00       		.byte	0
 903 02c3 17       		.uleb128 0x17
ARM GAS  G:\Users\Jaxb\AppData\Local\Temp\ccznmST2.s 			page 25


 904 02c4 01       		.byte	0x1
 905 02c5 06030000 		.4byte	.LASF44
 906 02c9 01       		.byte	0x1
 907 02ca 6F01     		.2byte	0x16f
 908 02cc 01       		.byte	0x1
 909 02cd 14010000 		.4byte	.LFB38
 910 02d1 34010000 		.4byte	.LFE38
 911 02d5 B2000000 		.4byte	.LLST14
 912 02d9 01       		.byte	0x1
 913 02da 0C030000 		.4byte	0x30c
 914 02de 11       		.uleb128 0x11
 915 02df 5C020000 		.4byte	.LASF39
 916 02e3 01       		.byte	0x1
 917 02e4 6F01     		.2byte	0x16f
 918 02e6 A7000000 		.4byte	0xa7
 919 02ea DE000000 		.4byte	.LLST15
 920 02ee 14       		.uleb128 0x14
 921 02ef 6A010000 		.4byte	.LASF45
 922 02f3 01       		.byte	0x1
 923 02f4 6F01     		.2byte	0x16f
 924 02f6 9C000000 		.4byte	0x9c
 925 02fa 01       		.byte	0x1
 926 02fb 51       		.byte	0x51
 927 02fc 12       		.uleb128 0x12
 928 02fd 746D7000 		.ascii	"tmp\000"
 929 0301 01       		.byte	0x1
 930 0302 7101     		.2byte	0x171
 931 0304 B2000000 		.4byte	0xb2
 932 0308 02       		.byte	0x2
 933 0309 91       		.byte	0x91
 934 030a 7C       		.sleb128 -4
 935 030b 00       		.byte	0
 936 030c 17       		.uleb128 0x17
 937 030d 01       		.byte	0x1
 938 030e 6F010000 		.4byte	.LASF46
 939 0312 01       		.byte	0x1
 940 0313 5601     		.2byte	0x156
 941 0315 01       		.byte	0x1
 942 0316 F4000000 		.4byte	.LFB37
 943 031a 14010000 		.4byte	.LFE37
 944 031e FF000000 		.4byte	.LLST12
 945 0322 01       		.byte	0x1
 946 0323 55030000 		.4byte	0x355
 947 0327 11       		.uleb128 0x11
 948 0328 5C020000 		.4byte	.LASF39
 949 032c 01       		.byte	0x1
 950 032d 5601     		.2byte	0x156
 951 032f A7000000 		.4byte	0xa7
 952 0333 2B010000 		.4byte	.LLST13
 953 0337 14       		.uleb128 0x14
 954 0338 6A010000 		.4byte	.LASF45
 955 033c 01       		.byte	0x1
 956 033d 5601     		.2byte	0x156
 957 033f 9C000000 		.4byte	0x9c
 958 0343 01       		.byte	0x1
 959 0344 51       		.byte	0x51
 960 0345 12       		.uleb128 0x12
ARM GAS  G:\Users\Jaxb\AppData\Local\Temp\ccznmST2.s 			page 26


 961 0346 746D7000 		.ascii	"tmp\000"
 962 034a 01       		.byte	0x1
 963 034b 5801     		.2byte	0x158
 964 034d B2000000 		.4byte	0xb2
 965 0351 02       		.byte	0x2
 966 0352 91       		.byte	0x91
 967 0353 7C       		.sleb128 -4
 968 0354 00       		.byte	0
 969 0355 13       		.uleb128 0x13
 970 0356 01       		.byte	0x1
 971 0357 57000000 		.4byte	.LASF47
 972 035b 01       		.byte	0x1
 973 035c 3A01     		.2byte	0x13a
 974 035e 01       		.byte	0x1
 975 035f D4000000 		.4byte	.LFB36
 976 0363 F4000000 		.4byte	.LFE36
 977 0367 02       		.byte	0x2
 978 0368 7D       		.byte	0x7d
 979 0369 00       		.sleb128 0
 980 036a 01       		.byte	0x1
 981 036b A0030000 		.4byte	0x3a0
 982 036f 11       		.uleb128 0x11
 983 0370 09020000 		.4byte	.LASF38
 984 0374 01       		.byte	0x1
 985 0375 3A01     		.2byte	0x13a
 986 0377 A7000000 		.4byte	0xa7
 987 037b 4C010000 		.4byte	.LLST9
 988 037f 11       		.uleb128 0x11
 989 0380 55010000 		.4byte	.LASF48
 990 0384 01       		.byte	0x1
 991 0385 3A01     		.2byte	0x13a
 992 0387 A7000000 		.4byte	0xa7
 993 038b 6D010000 		.4byte	.LLST10
 994 038f 11       		.uleb128 0x11
 995 0390 D4000000 		.4byte	.LASF49
 996 0394 01       		.byte	0x1
 997 0395 3A01     		.2byte	0x13a
 998 0397 ED000000 		.4byte	0xed
 999 039b 8E010000 		.4byte	.LLST11
 1000 039f 00       		.byte	0
 1001 03a0 13       		.uleb128 0x13
 1002 03a1 01       		.byte	0x1
 1003 03a2 B4000000 		.4byte	.LASF50
 1004 03a6 01       		.byte	0x1
 1005 03a7 1C01     		.2byte	0x11c
 1006 03a9 01       		.byte	0x1
 1007 03aa B8000000 		.4byte	.LFB35
 1008 03ae D4000000 		.4byte	.LFE35
 1009 03b2 02       		.byte	0x2
 1010 03b3 7D       		.byte	0x7d
 1011 03b4 00       		.sleb128 0
 1012 03b5 01       		.byte	0x1
 1013 03b6 C9030000 		.4byte	0x3c9
 1014 03ba 14       		.uleb128 0x14
 1015 03bb D4000000 		.4byte	.LASF49
 1016 03bf 01       		.byte	0x1
 1017 03c0 1C01     		.2byte	0x11c
ARM GAS  G:\Users\Jaxb\AppData\Local\Temp\ccznmST2.s 			page 27


 1018 03c2 ED000000 		.4byte	0xed
 1019 03c6 01       		.byte	0x1
 1020 03c7 50       		.byte	0x50
 1021 03c8 00       		.byte	0
 1022 03c9 13       		.uleb128 0x13
 1023 03ca 01       		.byte	0x1
 1024 03cb 26000000 		.4byte	.LASF51
 1025 03cf 01       		.byte	0x1
 1026 03d0 0401     		.2byte	0x104
 1027 03d2 01       		.byte	0x1
 1028 03d3 98000000 		.4byte	.LFB34
 1029 03d7 B8000000 		.4byte	.LFE34
 1030 03db 02       		.byte	0x2
 1031 03dc 7D       		.byte	0x7d
 1032 03dd 00       		.sleb128 0
 1033 03de 01       		.byte	0x1
 1034 03df 02040000 		.4byte	0x402
 1035 03e3 11       		.uleb128 0x11
 1036 03e4 09020000 		.4byte	.LASF38
 1037 03e8 01       		.byte	0x1
 1038 03e9 0401     		.2byte	0x104
 1039 03eb A7000000 		.4byte	0xa7
 1040 03ef BA010000 		.4byte	.LLST8
 1041 03f3 14       		.uleb128 0x14
 1042 03f4 D4000000 		.4byte	.LASF49
 1043 03f8 01       		.byte	0x1
 1044 03f9 0401     		.2byte	0x104
 1045 03fb ED000000 		.4byte	0xed
 1046 03ff 01       		.byte	0x1
 1047 0400 51       		.byte	0x51
 1048 0401 00       		.byte	0
 1049 0402 18       		.uleb128 0x18
 1050 0403 01       		.byte	0x1
 1051 0404 FE010000 		.4byte	.LASF52
 1052 0408 01       		.byte	0x1
 1053 0409 E9       		.byte	0xe9
 1054 040a 01       		.byte	0x1
 1055 040b 78000000 		.4byte	.LFB33
 1056 040f 98000000 		.4byte	.LFE33
 1057 0413 02       		.byte	0x2
 1058 0414 7D       		.byte	0x7d
 1059 0415 00       		.sleb128 0
 1060 0416 01       		.byte	0x1
 1061 0417 38040000 		.4byte	0x438
 1062 041b 19       		.uleb128 0x19
 1063 041c 09020000 		.4byte	.LASF38
 1064 0420 01       		.byte	0x1
 1065 0421 E9       		.byte	0xe9
 1066 0422 A7000000 		.4byte	0xa7
 1067 0426 DB010000 		.4byte	.LLST7
 1068 042a 1A       		.uleb128 0x1a
 1069 042b D4000000 		.4byte	.LASF49
 1070 042f 01       		.byte	0x1
 1071 0430 E9       		.byte	0xe9
 1072 0431 ED000000 		.4byte	0xed
 1073 0435 01       		.byte	0x1
 1074 0436 51       		.byte	0x51
ARM GAS  G:\Users\Jaxb\AppData\Local\Temp\ccznmST2.s 			page 28


 1075 0437 00       		.byte	0
 1076 0438 18       		.uleb128 0x18
 1077 0439 01       		.byte	0x1
 1078 043a 1A030000 		.4byte	.LASF53
 1079 043e 01       		.byte	0x1
 1080 043f AD       		.byte	0xad
 1081 0440 01       		.byte	0x1
 1082 0441 58000000 		.4byte	.LFB32
 1083 0445 78000000 		.4byte	.LFE32
 1084 0449 02       		.byte	0x2
 1085 044a 7D       		.byte	0x7d
 1086 044b 00       		.sleb128 0
 1087 044c 01       		.byte	0x1
 1088 044d 6E040000 		.4byte	0x46e
 1089 0451 19       		.uleb128 0x19
 1090 0452 09020000 		.4byte	.LASF38
 1091 0456 01       		.byte	0x1
 1092 0457 AD       		.byte	0xad
 1093 0458 A7000000 		.4byte	0xa7
 1094 045c FC010000 		.4byte	.LLST6
 1095 0460 1A       		.uleb128 0x1a
 1096 0461 D4000000 		.4byte	.LASF49
 1097 0465 01       		.byte	0x1
 1098 0466 AD       		.byte	0xad
 1099 0467 ED000000 		.4byte	0xed
 1100 046b 01       		.byte	0x1
 1101 046c 51       		.byte	0x51
 1102 046d 00       		.byte	0
 1103 046e 18       		.uleb128 0x18
 1104 046f 01       		.byte	0x1
 1105 0470 A8010000 		.4byte	.LASF54
 1106 0474 01       		.byte	0x1
 1107 0475 96       		.byte	0x96
 1108 0476 01       		.byte	0x1
 1109 0477 4C000000 		.4byte	.LFB31
 1110 047b 58000000 		.4byte	.LFE31
 1111 047f 02       		.byte	0x2
 1112 0480 7D       		.byte	0x7d
 1113 0481 00       		.sleb128 0
 1114 0482 01       		.byte	0x1
 1115 0483 95040000 		.4byte	0x495
 1116 0487 1A       		.uleb128 0x1a
 1117 0488 91010000 		.4byte	.LASF55
 1118 048c 01       		.byte	0x1
 1119 048d 96       		.byte	0x96
 1120 048e 95040000 		.4byte	0x495
 1121 0492 01       		.byte	0x1
 1122 0493 50       		.byte	0x50
 1123 0494 00       		.byte	0
 1124 0495 1B       		.uleb128 0x1b
 1125 0496 04       		.byte	0x4
 1126 0497 12020000 		.4byte	0x212
 1127 049b 1C       		.uleb128 0x1c
 1128 049c 01       		.byte	0x1
 1129 049d 22030000 		.4byte	.LASF56
 1130 04a1 01       		.byte	0x1
 1131 04a2 75       		.byte	0x75
ARM GAS  G:\Users\Jaxb\AppData\Local\Temp\ccznmST2.s 			page 29


 1132 04a3 01       		.byte	0x1
 1133 04a4 1C000000 		.4byte	.LFB30
 1134 04a8 4C000000 		.4byte	.LFE30
 1135 04ac 1D020000 		.4byte	.LLST1
 1136 04b0 01       		.byte	0x1
 1137 04b1 F2040000 		.4byte	0x4f2
 1138 04b5 19       		.uleb128 0x19
 1139 04b6 09020000 		.4byte	.LASF38
 1140 04ba 01       		.byte	0x1
 1141 04bb 75       		.byte	0x75
 1142 04bc A7000000 		.4byte	0xa7
 1143 04c0 49020000 		.4byte	.LLST2
 1144 04c4 19       		.uleb128 0x19
 1145 04c5 91010000 		.4byte	.LASF55
 1146 04c9 01       		.byte	0x1
 1147 04ca 75       		.byte	0x75
 1148 04cb 95040000 		.4byte	0x495
 1149 04cf 6A020000 		.4byte	.LLST3
 1150 04d3 1D       		.uleb128 0x1d
 1151 04d4 00000000 		.4byte	.LASF57
 1152 04d8 01       		.byte	0x1
 1153 04d9 77       		.byte	0x77
 1154 04da A7000000 		.4byte	0xa7
 1155 04de 8B020000 		.4byte	.LLST4
 1156 04e2 1D       		.uleb128 0x1d
 1157 04e3 33020000 		.4byte	.LASF58
 1158 04e7 01       		.byte	0x1
 1159 04e8 77       		.byte	0x77
 1160 04e9 A7000000 		.4byte	0xa7
 1161 04ed C0020000 		.4byte	.LLST5
 1162 04f1 00       		.byte	0
 1163 04f2 1C       		.uleb128 0x1c
 1164 04f3 01       		.byte	0x1
 1165 04f4 15020000 		.4byte	.LASF59
 1166 04f8 01       		.byte	0x1
 1167 04f9 62       		.byte	0x62
 1168 04fa 01       		.byte	0x1
 1169 04fb 00000000 		.4byte	.LFB29
 1170 04ff 1A000000 		.4byte	.LFE29
 1171 0503 F8020000 		.4byte	.LLST0
 1172 0507 01       		.byte	0x1
 1173 0508 3E050000 		.4byte	0x53e
 1174 050c 1E       		.uleb128 0x1e
 1175 050d 0C000000 		.4byte	.LVL0
 1176 0511 3E050000 		.4byte	0x53e
 1177 0515 26050000 		.4byte	0x526
 1178 0519 1F       		.uleb128 0x1f
 1179 051a 01       		.byte	0x1
 1180 051b 50       		.byte	0x50
 1181 051c 03       		.byte	0x3
 1182 051d 40       		.byte	0x40
 1183 051e 49       		.byte	0x49
 1184 051f 24       		.byte	0x24
 1185 0520 1F       		.uleb128 0x1f
 1186 0521 01       		.byte	0x1
 1187 0522 51       		.byte	0x51
 1188 0523 01       		.byte	0x1
ARM GAS  G:\Users\Jaxb\AppData\Local\Temp\ccznmST2.s 			page 30


 1189 0524 31       		.byte	0x31
 1190 0525 00       		.byte	0
 1191 0526 20       		.uleb128 0x20
 1192 0527 1A000000 		.4byte	.LVL1
 1193 052b 01       		.byte	0x1
 1194 052c 3E050000 		.4byte	0x53e
 1195 0530 1F       		.uleb128 0x1f
 1196 0531 01       		.byte	0x1
 1197 0532 50       		.byte	0x50
 1198 0533 03       		.byte	0x3
 1199 0534 40       		.byte	0x40
 1200 0535 49       		.byte	0x49
 1201 0536 24       		.byte	0x24
 1202 0537 1F       		.uleb128 0x1f
 1203 0538 01       		.byte	0x1
 1204 0539 51       		.byte	0x51
 1205 053a 01       		.byte	0x1
 1206 053b 30       		.byte	0x30
 1207 053c 00       		.byte	0
 1208 053d 00       		.byte	0
 1209 053e 21       		.uleb128 0x21
 1210 053f 01       		.byte	0x1
 1211 0540 01       		.byte	0x1
 1212 0541 1E010000 		.4byte	.LASF64
 1213 0545 1E010000 		.4byte	.LASF64
 1214 0549 08       		.byte	0x8
 1215 054a BD02     		.2byte	0x2bd
 1216 054c 00       		.byte	0
 1217              		.section	.debug_abbrev,"",%progbits
 1218              	.Ldebug_abbrev0:
 1219 0000 01       		.uleb128 0x1
 1220 0001 11       		.uleb128 0x11
 1221 0002 01       		.byte	0x1
 1222 0003 25       		.uleb128 0x25
 1223 0004 0E       		.uleb128 0xe
 1224 0005 13       		.uleb128 0x13
 1225 0006 0B       		.uleb128 0xb
 1226 0007 03       		.uleb128 0x3
 1227 0008 0E       		.uleb128 0xe
 1228 0009 1B       		.uleb128 0x1b
 1229 000a 0E       		.uleb128 0xe
 1230 000b 11       		.uleb128 0x11
 1231 000c 01       		.uleb128 0x1
 1232 000d 12       		.uleb128 0x12
 1233 000e 01       		.uleb128 0x1
 1234 000f 10       		.uleb128 0x10
 1235 0010 06       		.uleb128 0x6
 1236 0011 00       		.byte	0
 1237 0012 00       		.byte	0
 1238 0013 02       		.uleb128 0x2
 1239 0014 24       		.uleb128 0x24
 1240 0015 00       		.byte	0
 1241 0016 0B       		.uleb128 0xb
 1242 0017 0B       		.uleb128 0xb
 1243 0018 3E       		.uleb128 0x3e
 1244 0019 0B       		.uleb128 0xb
 1245 001a 03       		.uleb128 0x3
ARM GAS  G:\Users\Jaxb\AppData\Local\Temp\ccznmST2.s 			page 31


 1246 001b 0E       		.uleb128 0xe
 1247 001c 00       		.byte	0
 1248 001d 00       		.byte	0
 1249 001e 03       		.uleb128 0x3
 1250 001f 16       		.uleb128 0x16
 1251 0020 00       		.byte	0
 1252 0021 03       		.uleb128 0x3
 1253 0022 0E       		.uleb128 0xe
 1254 0023 3A       		.uleb128 0x3a
 1255 0024 0B       		.uleb128 0xb
 1256 0025 3B       		.uleb128 0x3b
 1257 0026 0B       		.uleb128 0xb
 1258 0027 49       		.uleb128 0x49
 1259 0028 13       		.uleb128 0x13
 1260 0029 00       		.byte	0
 1261 002a 00       		.byte	0
 1262 002b 04       		.uleb128 0x4
 1263 002c 24       		.uleb128 0x24
 1264 002d 00       		.byte	0
 1265 002e 0B       		.uleb128 0xb
 1266 002f 0B       		.uleb128 0xb
 1267 0030 3E       		.uleb128 0x3e
 1268 0031 0B       		.uleb128 0xb
 1269 0032 03       		.uleb128 0x3
 1270 0033 08       		.uleb128 0x8
 1271 0034 00       		.byte	0
 1272 0035 00       		.byte	0
 1273 0036 05       		.uleb128 0x5
 1274 0037 35       		.uleb128 0x35
 1275 0038 00       		.byte	0
 1276 0039 49       		.uleb128 0x49
 1277 003a 13       		.uleb128 0x13
 1278 003b 00       		.byte	0
 1279 003c 00       		.byte	0
 1280 003d 06       		.uleb128 0x6
 1281 003e 34       		.uleb128 0x34
 1282 003f 00       		.byte	0
 1283 0040 03       		.uleb128 0x3
 1284 0041 0E       		.uleb128 0xe
 1285 0042 3A       		.uleb128 0x3a
 1286 0043 0B       		.uleb128 0xb
 1287 0044 3B       		.uleb128 0x3b
 1288 0045 05       		.uleb128 0x5
 1289 0046 49       		.uleb128 0x49
 1290 0047 13       		.uleb128 0x13
 1291 0048 3F       		.uleb128 0x3f
 1292 0049 0C       		.uleb128 0xc
 1293 004a 3C       		.uleb128 0x3c
 1294 004b 0C       		.uleb128 0xc
 1295 004c 00       		.byte	0
 1296 004d 00       		.byte	0
 1297 004e 07       		.uleb128 0x7
 1298 004f 34       		.uleb128 0x34
 1299 0050 00       		.byte	0
 1300 0051 03       		.uleb128 0x3
 1301 0052 0E       		.uleb128 0xe
 1302 0053 3A       		.uleb128 0x3a
ARM GAS  G:\Users\Jaxb\AppData\Local\Temp\ccznmST2.s 			page 32


 1303 0054 0B       		.uleb128 0xb
 1304 0055 3B       		.uleb128 0x3b
 1305 0056 0B       		.uleb128 0xb
 1306 0057 49       		.uleb128 0x49
 1307 0058 13       		.uleb128 0x13
 1308 0059 3F       		.uleb128 0x3f
 1309 005a 0C       		.uleb128 0xc
 1310 005b 3C       		.uleb128 0x3c
 1311 005c 0C       		.uleb128 0xc
 1312 005d 00       		.byte	0
 1313 005e 00       		.byte	0
 1314 005f 08       		.uleb128 0x8
 1315 0060 04       		.uleb128 0x4
 1316 0061 01       		.byte	0x1
 1317 0062 3E       		.uleb128 0x3e
 1318 0063 0B       		.uleb128 0xb
 1319 0064 0B       		.uleb128 0xb
 1320 0065 0B       		.uleb128 0xb
 1321 0066 49       		.uleb128 0x49
 1322 0067 13       		.uleb128 0x13
 1323 0068 3A       		.uleb128 0x3a
 1324 0069 0B       		.uleb128 0xb
 1325 006a 3B       		.uleb128 0x3b
 1326 006b 05       		.uleb128 0x5
 1327 006c 01       		.uleb128 0x1
 1328 006d 13       		.uleb128 0x13
 1329 006e 00       		.byte	0
 1330 006f 00       		.byte	0
 1331 0070 09       		.uleb128 0x9
 1332 0071 28       		.uleb128 0x28
 1333 0072 00       		.byte	0
 1334 0073 03       		.uleb128 0x3
 1335 0074 0E       		.uleb128 0xe
 1336 0075 1C       		.uleb128 0x1c
 1337 0076 0B       		.uleb128 0xb
 1338 0077 00       		.byte	0
 1339 0078 00       		.byte	0
 1340 0079 0A       		.uleb128 0xa
 1341 007a 16       		.uleb128 0x16
 1342 007b 00       		.byte	0
 1343 007c 03       		.uleb128 0x3
 1344 007d 0E       		.uleb128 0xe
 1345 007e 3A       		.uleb128 0x3a
 1346 007f 0B       		.uleb128 0xb
 1347 0080 3B       		.uleb128 0x3b
 1348 0081 05       		.uleb128 0x5
 1349 0082 49       		.uleb128 0x49
 1350 0083 13       		.uleb128 0x13
 1351 0084 00       		.byte	0
 1352 0085 00       		.byte	0
 1353 0086 0B       		.uleb128 0xb
 1354 0087 13       		.uleb128 0x13
 1355 0088 01       		.byte	0x1
 1356 0089 0B       		.uleb128 0xb
 1357 008a 0B       		.uleb128 0xb
 1358 008b 3A       		.uleb128 0x3a
 1359 008c 0B       		.uleb128 0xb
ARM GAS  G:\Users\Jaxb\AppData\Local\Temp\ccznmST2.s 			page 33


 1360 008d 3B       		.uleb128 0x3b
 1361 008e 05       		.uleb128 0x5
 1362 008f 01       		.uleb128 0x1
 1363 0090 13       		.uleb128 0x13
 1364 0091 00       		.byte	0
 1365 0092 00       		.byte	0
 1366 0093 0C       		.uleb128 0xc
 1367 0094 0D       		.uleb128 0xd
 1368 0095 00       		.byte	0
 1369 0096 03       		.uleb128 0x3
 1370 0097 08       		.uleb128 0x8
 1371 0098 3A       		.uleb128 0x3a
 1372 0099 0B       		.uleb128 0xb
 1373 009a 3B       		.uleb128 0x3b
 1374 009b 05       		.uleb128 0x5
 1375 009c 49       		.uleb128 0x49
 1376 009d 13       		.uleb128 0x13
 1377 009e 38       		.uleb128 0x38
 1378 009f 0A       		.uleb128 0xa
 1379 00a0 00       		.byte	0
 1380 00a1 00       		.byte	0
 1381 00a2 0D       		.uleb128 0xd
 1382 00a3 0D       		.uleb128 0xd
 1383 00a4 00       		.byte	0
 1384 00a5 03       		.uleb128 0x3
 1385 00a6 0E       		.uleb128 0xe
 1386 00a7 3A       		.uleb128 0x3a
 1387 00a8 0B       		.uleb128 0xb
 1388 00a9 3B       		.uleb128 0x3b
 1389 00aa 05       		.uleb128 0x5
 1390 00ab 49       		.uleb128 0x49
 1391 00ac 13       		.uleb128 0x13
 1392 00ad 38       		.uleb128 0x38
 1393 00ae 0A       		.uleb128 0xa
 1394 00af 00       		.byte	0
 1395 00b0 00       		.byte	0
 1396 00b1 0E       		.uleb128 0xe
 1397 00b2 13       		.uleb128 0x13
 1398 00b3 01       		.byte	0x1
 1399 00b4 0B       		.uleb128 0xb
 1400 00b5 0B       		.uleb128 0xb
 1401 00b6 3A       		.uleb128 0x3a
 1402 00b7 0B       		.uleb128 0xb
 1403 00b8 3B       		.uleb128 0x3b
 1404 00b9 0B       		.uleb128 0xb
 1405 00ba 01       		.uleb128 0x1
 1406 00bb 13       		.uleb128 0x13
 1407 00bc 00       		.byte	0
 1408 00bd 00       		.byte	0
 1409 00be 0F       		.uleb128 0xf
 1410 00bf 0D       		.uleb128 0xd
 1411 00c0 00       		.byte	0
 1412 00c1 03       		.uleb128 0x3
 1413 00c2 0E       		.uleb128 0xe
 1414 00c3 3A       		.uleb128 0x3a
 1415 00c4 0B       		.uleb128 0xb
 1416 00c5 3B       		.uleb128 0x3b
ARM GAS  G:\Users\Jaxb\AppData\Local\Temp\ccznmST2.s 			page 34


 1417 00c6 0B       		.uleb128 0xb
 1418 00c7 49       		.uleb128 0x49
 1419 00c8 13       		.uleb128 0x13
 1420 00c9 38       		.uleb128 0x38
 1421 00ca 0A       		.uleb128 0xa
 1422 00cb 00       		.byte	0
 1423 00cc 00       		.byte	0
 1424 00cd 10       		.uleb128 0x10
 1425 00ce 2E       		.uleb128 0x2e
 1426 00cf 01       		.byte	0x1
 1427 00d0 3F       		.uleb128 0x3f
 1428 00d1 0C       		.uleb128 0xc
 1429 00d2 03       		.uleb128 0x3
 1430 00d3 0E       		.uleb128 0xe
 1431 00d4 3A       		.uleb128 0x3a
 1432 00d5 0B       		.uleb128 0xb
 1433 00d6 3B       		.uleb128 0x3b
 1434 00d7 05       		.uleb128 0x5
 1435 00d8 27       		.uleb128 0x27
 1436 00d9 0C       		.uleb128 0xc
 1437 00da 49       		.uleb128 0x49
 1438 00db 13       		.uleb128 0x13
 1439 00dc 11       		.uleb128 0x11
 1440 00dd 01       		.uleb128 0x1
 1441 00de 12       		.uleb128 0x12
 1442 00df 01       		.uleb128 0x1
 1443 00e0 40       		.uleb128 0x40
 1444 00e1 06       		.uleb128 0x6
 1445 00e2 9742     		.uleb128 0x2117
 1446 00e4 0C       		.uleb128 0xc
 1447 00e5 01       		.uleb128 0x1
 1448 00e6 13       		.uleb128 0x13
 1449 00e7 00       		.byte	0
 1450 00e8 00       		.byte	0
 1451 00e9 11       		.uleb128 0x11
 1452 00ea 05       		.uleb128 0x5
 1453 00eb 00       		.byte	0
 1454 00ec 03       		.uleb128 0x3
 1455 00ed 0E       		.uleb128 0xe
 1456 00ee 3A       		.uleb128 0x3a
 1457 00ef 0B       		.uleb128 0xb
 1458 00f0 3B       		.uleb128 0x3b
 1459 00f1 05       		.uleb128 0x5
 1460 00f2 49       		.uleb128 0x49
 1461 00f3 13       		.uleb128 0x13
 1462 00f4 02       		.uleb128 0x2
 1463 00f5 06       		.uleb128 0x6
 1464 00f6 00       		.byte	0
 1465 00f7 00       		.byte	0
 1466 00f8 12       		.uleb128 0x12
 1467 00f9 34       		.uleb128 0x34
 1468 00fa 00       		.byte	0
 1469 00fb 03       		.uleb128 0x3
 1470 00fc 08       		.uleb128 0x8
 1471 00fd 3A       		.uleb128 0x3a
 1472 00fe 0B       		.uleb128 0xb
 1473 00ff 3B       		.uleb128 0x3b
ARM GAS  G:\Users\Jaxb\AppData\Local\Temp\ccznmST2.s 			page 35


 1474 0100 05       		.uleb128 0x5
 1475 0101 49       		.uleb128 0x49
 1476 0102 13       		.uleb128 0x13
 1477 0103 02       		.uleb128 0x2
 1478 0104 0A       		.uleb128 0xa
 1479 0105 00       		.byte	0
 1480 0106 00       		.byte	0
 1481 0107 13       		.uleb128 0x13
 1482 0108 2E       		.uleb128 0x2e
 1483 0109 01       		.byte	0x1
 1484 010a 3F       		.uleb128 0x3f
 1485 010b 0C       		.uleb128 0xc
 1486 010c 03       		.uleb128 0x3
 1487 010d 0E       		.uleb128 0xe
 1488 010e 3A       		.uleb128 0x3a
 1489 010f 0B       		.uleb128 0xb
 1490 0110 3B       		.uleb128 0x3b
 1491 0111 05       		.uleb128 0x5
 1492 0112 27       		.uleb128 0x27
 1493 0113 0C       		.uleb128 0xc
 1494 0114 11       		.uleb128 0x11
 1495 0115 01       		.uleb128 0x1
 1496 0116 12       		.uleb128 0x12
 1497 0117 01       		.uleb128 0x1
 1498 0118 40       		.uleb128 0x40
 1499 0119 0A       		.uleb128 0xa
 1500 011a 9742     		.uleb128 0x2117
 1501 011c 0C       		.uleb128 0xc
 1502 011d 01       		.uleb128 0x1
 1503 011e 13       		.uleb128 0x13
 1504 011f 00       		.byte	0
 1505 0120 00       		.byte	0
 1506 0121 14       		.uleb128 0x14
 1507 0122 05       		.uleb128 0x5
 1508 0123 00       		.byte	0
 1509 0124 03       		.uleb128 0x3
 1510 0125 0E       		.uleb128 0xe
 1511 0126 3A       		.uleb128 0x3a
 1512 0127 0B       		.uleb128 0xb
 1513 0128 3B       		.uleb128 0x3b
 1514 0129 05       		.uleb128 0x5
 1515 012a 49       		.uleb128 0x49
 1516 012b 13       		.uleb128 0x13
 1517 012c 02       		.uleb128 0x2
 1518 012d 0A       		.uleb128 0xa
 1519 012e 00       		.byte	0
 1520 012f 00       		.byte	0
 1521 0130 15       		.uleb128 0x15
 1522 0131 34       		.uleb128 0x34
 1523 0132 00       		.byte	0
 1524 0133 03       		.uleb128 0x3
 1525 0134 0E       		.uleb128 0xe
 1526 0135 3A       		.uleb128 0x3a
 1527 0136 0B       		.uleb128 0xb
 1528 0137 3B       		.uleb128 0x3b
 1529 0138 05       		.uleb128 0x5
 1530 0139 49       		.uleb128 0x49
ARM GAS  G:\Users\Jaxb\AppData\Local\Temp\ccznmST2.s 			page 36


 1531 013a 13       		.uleb128 0x13
 1532 013b 02       		.uleb128 0x2
 1533 013c 06       		.uleb128 0x6
 1534 013d 00       		.byte	0
 1535 013e 00       		.byte	0
 1536 013f 16       		.uleb128 0x16
 1537 0140 34       		.uleb128 0x34
 1538 0141 00       		.byte	0
 1539 0142 03       		.uleb128 0x3
 1540 0143 08       		.uleb128 0x8
 1541 0144 3A       		.uleb128 0x3a
 1542 0145 0B       		.uleb128 0xb
 1543 0146 3B       		.uleb128 0x3b
 1544 0147 05       		.uleb128 0x5
 1545 0148 49       		.uleb128 0x49
 1546 0149 13       		.uleb128 0x13
 1547 014a 02       		.uleb128 0x2
 1548 014b 06       		.uleb128 0x6
 1549 014c 00       		.byte	0
 1550 014d 00       		.byte	0
 1551 014e 17       		.uleb128 0x17
 1552 014f 2E       		.uleb128 0x2e
 1553 0150 01       		.byte	0x1
 1554 0151 3F       		.uleb128 0x3f
 1555 0152 0C       		.uleb128 0xc
 1556 0153 03       		.uleb128 0x3
 1557 0154 0E       		.uleb128 0xe
 1558 0155 3A       		.uleb128 0x3a
 1559 0156 0B       		.uleb128 0xb
 1560 0157 3B       		.uleb128 0x3b
 1561 0158 05       		.uleb128 0x5
 1562 0159 27       		.uleb128 0x27
 1563 015a 0C       		.uleb128 0xc
 1564 015b 11       		.uleb128 0x11
 1565 015c 01       		.uleb128 0x1
 1566 015d 12       		.uleb128 0x12
 1567 015e 01       		.uleb128 0x1
 1568 015f 40       		.uleb128 0x40
 1569 0160 06       		.uleb128 0x6
 1570 0161 9742     		.uleb128 0x2117
 1571 0163 0C       		.uleb128 0xc
 1572 0164 01       		.uleb128 0x1
 1573 0165 13       		.uleb128 0x13
 1574 0166 00       		.byte	0
 1575 0167 00       		.byte	0
 1576 0168 18       		.uleb128 0x18
 1577 0169 2E       		.uleb128 0x2e
 1578 016a 01       		.byte	0x1
 1579 016b 3F       		.uleb128 0x3f
 1580 016c 0C       		.uleb128 0xc
 1581 016d 03       		.uleb128 0x3
 1582 016e 0E       		.uleb128 0xe
 1583 016f 3A       		.uleb128 0x3a
 1584 0170 0B       		.uleb128 0xb
 1585 0171 3B       		.uleb128 0x3b
 1586 0172 0B       		.uleb128 0xb
 1587 0173 27       		.uleb128 0x27
ARM GAS  G:\Users\Jaxb\AppData\Local\Temp\ccznmST2.s 			page 37


 1588 0174 0C       		.uleb128 0xc
 1589 0175 11       		.uleb128 0x11
 1590 0176 01       		.uleb128 0x1
 1591 0177 12       		.uleb128 0x12
 1592 0178 01       		.uleb128 0x1
 1593 0179 40       		.uleb128 0x40
 1594 017a 0A       		.uleb128 0xa
 1595 017b 9742     		.uleb128 0x2117
 1596 017d 0C       		.uleb128 0xc
 1597 017e 01       		.uleb128 0x1
 1598 017f 13       		.uleb128 0x13
 1599 0180 00       		.byte	0
 1600 0181 00       		.byte	0
 1601 0182 19       		.uleb128 0x19
 1602 0183 05       		.uleb128 0x5
 1603 0184 00       		.byte	0
 1604 0185 03       		.uleb128 0x3
 1605 0186 0E       		.uleb128 0xe
 1606 0187 3A       		.uleb128 0x3a
 1607 0188 0B       		.uleb128 0xb
 1608 0189 3B       		.uleb128 0x3b
 1609 018a 0B       		.uleb128 0xb
 1610 018b 49       		.uleb128 0x49
 1611 018c 13       		.uleb128 0x13
 1612 018d 02       		.uleb128 0x2
 1613 018e 06       		.uleb128 0x6
 1614 018f 00       		.byte	0
 1615 0190 00       		.byte	0
 1616 0191 1A       		.uleb128 0x1a
 1617 0192 05       		.uleb128 0x5
 1618 0193 00       		.byte	0
 1619 0194 03       		.uleb128 0x3
 1620 0195 0E       		.uleb128 0xe
 1621 0196 3A       		.uleb128 0x3a
 1622 0197 0B       		.uleb128 0xb
 1623 0198 3B       		.uleb128 0x3b
 1624 0199 0B       		.uleb128 0xb
 1625 019a 49       		.uleb128 0x49
 1626 019b 13       		.uleb128 0x13
 1627 019c 02       		.uleb128 0x2
 1628 019d 0A       		.uleb128 0xa
 1629 019e 00       		.byte	0
 1630 019f 00       		.byte	0
 1631 01a0 1B       		.uleb128 0x1b
 1632 01a1 0F       		.uleb128 0xf
 1633 01a2 00       		.byte	0
 1634 01a3 0B       		.uleb128 0xb
 1635 01a4 0B       		.uleb128 0xb
 1636 01a5 49       		.uleb128 0x49
 1637 01a6 13       		.uleb128 0x13
 1638 01a7 00       		.byte	0
 1639 01a8 00       		.byte	0
 1640 01a9 1C       		.uleb128 0x1c
 1641 01aa 2E       		.uleb128 0x2e
 1642 01ab 01       		.byte	0x1
 1643 01ac 3F       		.uleb128 0x3f
 1644 01ad 0C       		.uleb128 0xc
ARM GAS  G:\Users\Jaxb\AppData\Local\Temp\ccznmST2.s 			page 38


 1645 01ae 03       		.uleb128 0x3
 1646 01af 0E       		.uleb128 0xe
 1647 01b0 3A       		.uleb128 0x3a
 1648 01b1 0B       		.uleb128 0xb
 1649 01b2 3B       		.uleb128 0x3b
 1650 01b3 0B       		.uleb128 0xb
 1651 01b4 27       		.uleb128 0x27
 1652 01b5 0C       		.uleb128 0xc
 1653 01b6 11       		.uleb128 0x11
 1654 01b7 01       		.uleb128 0x1
 1655 01b8 12       		.uleb128 0x12
 1656 01b9 01       		.uleb128 0x1
 1657 01ba 40       		.uleb128 0x40
 1658 01bb 06       		.uleb128 0x6
 1659 01bc 9742     		.uleb128 0x2117
 1660 01be 0C       		.uleb128 0xc
 1661 01bf 01       		.uleb128 0x1
 1662 01c0 13       		.uleb128 0x13
 1663 01c1 00       		.byte	0
 1664 01c2 00       		.byte	0
 1665 01c3 1D       		.uleb128 0x1d
 1666 01c4 34       		.uleb128 0x34
 1667 01c5 00       		.byte	0
 1668 01c6 03       		.uleb128 0x3
 1669 01c7 0E       		.uleb128 0xe
 1670 01c8 3A       		.uleb128 0x3a
 1671 01c9 0B       		.uleb128 0xb
 1672 01ca 3B       		.uleb128 0x3b
 1673 01cb 0B       		.uleb128 0xb
 1674 01cc 49       		.uleb128 0x49
 1675 01cd 13       		.uleb128 0x13
 1676 01ce 02       		.uleb128 0x2
 1677 01cf 06       		.uleb128 0x6
 1678 01d0 00       		.byte	0
 1679 01d1 00       		.byte	0
 1680 01d2 1E       		.uleb128 0x1e
 1681 01d3 898201   		.uleb128 0x4109
 1682 01d6 01       		.byte	0x1
 1683 01d7 11       		.uleb128 0x11
 1684 01d8 01       		.uleb128 0x1
 1685 01d9 31       		.uleb128 0x31
 1686 01da 13       		.uleb128 0x13
 1687 01db 01       		.uleb128 0x1
 1688 01dc 13       		.uleb128 0x13
 1689 01dd 00       		.byte	0
 1690 01de 00       		.byte	0
 1691 01df 1F       		.uleb128 0x1f
 1692 01e0 8A8201   		.uleb128 0x410a
 1693 01e3 00       		.byte	0
 1694 01e4 02       		.uleb128 0x2
 1695 01e5 0A       		.uleb128 0xa
 1696 01e6 9142     		.uleb128 0x2111
 1697 01e8 0A       		.uleb128 0xa
 1698 01e9 00       		.byte	0
 1699 01ea 00       		.byte	0
 1700 01eb 20       		.uleb128 0x20
 1701 01ec 898201   		.uleb128 0x4109
ARM GAS  G:\Users\Jaxb\AppData\Local\Temp\ccznmST2.s 			page 39


 1702 01ef 01       		.byte	0x1
 1703 01f0 11       		.uleb128 0x11
 1704 01f1 01       		.uleb128 0x1
 1705 01f2 9542     		.uleb128 0x2115
 1706 01f4 0C       		.uleb128 0xc
 1707 01f5 31       		.uleb128 0x31
 1708 01f6 13       		.uleb128 0x13
 1709 01f7 00       		.byte	0
 1710 01f8 00       		.byte	0
 1711 01f9 21       		.uleb128 0x21
 1712 01fa 2E       		.uleb128 0x2e
 1713 01fb 00       		.byte	0
 1714 01fc 3F       		.uleb128 0x3f
 1715 01fd 0C       		.uleb128 0xc
 1716 01fe 3C       		.uleb128 0x3c
 1717 01ff 0C       		.uleb128 0xc
 1718 0200 8740     		.uleb128 0x2007
 1719 0202 0E       		.uleb128 0xe
 1720 0203 03       		.uleb128 0x3
 1721 0204 0E       		.uleb128 0xe
 1722 0205 3A       		.uleb128 0x3a
 1723 0206 0B       		.uleb128 0xb
 1724 0207 3B       		.uleb128 0x3b
 1725 0208 05       		.uleb128 0x5
 1726 0209 00       		.byte	0
 1727 020a 00       		.byte	0
 1728 020b 00       		.byte	0
 1729              		.section	.debug_loc,"",%progbits
 1730              	.Ldebug_loc0:
 1731              	.LLST19:
 1732 0000 4C010000 		.4byte	.LFB40-.Ltext0
 1733 0004 52010000 		.4byte	.LCFI8-.Ltext0
 1734 0008 0200     		.2byte	0x2
 1735 000a 7D       		.byte	0x7d
 1736 000b 00       		.sleb128 0
 1737 000c 52010000 		.4byte	.LCFI8-.Ltext0
 1738 0010 68010000 		.4byte	.LCFI9-.Ltext0
 1739 0014 0200     		.2byte	0x2
 1740 0016 7D       		.byte	0x7d
 1741 0017 08       		.sleb128 8
 1742 0018 68010000 		.4byte	.LCFI9-.Ltext0
 1743 001c 70010000 		.4byte	.LFE40-.Ltext0
 1744 0020 0200     		.2byte	0x2
 1745 0022 7D       		.byte	0x7d
 1746 0023 00       		.sleb128 0
 1747 0024 00000000 		.4byte	0
 1748 0028 00000000 		.4byte	0
 1749              	.LLST20:
 1750 002c 4C010000 		.4byte	.LVL29-.Ltext0
 1751 0030 5E010000 		.4byte	.LVL30-.Ltext0
 1752 0034 0100     		.2byte	0x1
 1753 0036 50       		.byte	0x50
 1754 0037 5E010000 		.4byte	.LVL30-.Ltext0
 1755 003b 70010000 		.4byte	.LFE40-.Ltext0
 1756 003f 0400     		.2byte	0x4
 1757 0041 F3       		.byte	0xf3
 1758 0042 01       		.uleb128 0x1
ARM GAS  G:\Users\Jaxb\AppData\Local\Temp\ccznmST2.s 			page 40


 1759 0043 50       		.byte	0x50
 1760 0044 9F       		.byte	0x9f
 1761 0045 00000000 		.4byte	0
 1762 0049 00000000 		.4byte	0
 1763              	.LLST16:
 1764 004d 34010000 		.4byte	.LVL26-.Ltext0
 1765 0051 3E010000 		.4byte	.LVL27-.Ltext0
 1766 0055 0100     		.2byte	0x1
 1767 0057 52       		.byte	0x52
 1768 0058 3E010000 		.4byte	.LVL27-.Ltext0
 1769 005c 4C010000 		.4byte	.LFE39-.Ltext0
 1770 0060 0400     		.2byte	0x4
 1771 0062 F3       		.byte	0xf3
 1772 0063 01       		.uleb128 0x1
 1773 0064 52       		.byte	0x52
 1774 0065 9F       		.byte	0x9f
 1775 0066 00000000 		.4byte	0
 1776 006a 00000000 		.4byte	0
 1777              	.LLST17:
 1778 006e 34010000 		.4byte	.LVL26-.Ltext0
 1779 0072 3E010000 		.4byte	.LVL27-.Ltext0
 1780 0076 0200     		.2byte	0x2
 1781 0078 30       		.byte	0x30
 1782 0079 9F       		.byte	0x9f
 1783 007a 3E010000 		.4byte	.LVL27-.Ltext0
 1784 007e 4C010000 		.4byte	.LFE39-.Ltext0
 1785 0082 0100     		.2byte	0x1
 1786 0084 52       		.byte	0x52
 1787 0085 00000000 		.4byte	0
 1788 0089 00000000 		.4byte	0
 1789              	.LLST18:
 1790 008d 34010000 		.4byte	.LVL26-.Ltext0
 1791 0091 42010000 		.4byte	.LVL28-.Ltext0
 1792 0095 0200     		.2byte	0x2
 1793 0097 30       		.byte	0x30
 1794 0098 9F       		.byte	0x9f
 1795 0099 42010000 		.4byte	.LVL28-.Ltext0
 1796 009d 4C010000 		.4byte	.LFE39-.Ltext0
 1797 00a1 0700     		.2byte	0x7
 1798 00a3 70       		.byte	0x70
 1799 00a4 A0E88180 		.sleb128 1073771552
 1799      04
 1800 00a9 9F       		.byte	0x9f
 1801 00aa 00000000 		.4byte	0
 1802 00ae 00000000 		.4byte	0
 1803              	.LLST14:
 1804 00b2 14010000 		.4byte	.LFB38-.Ltext0
 1805 00b6 1A010000 		.4byte	.LCFI6-.Ltext0
 1806 00ba 0200     		.2byte	0x2
 1807 00bc 7D       		.byte	0x7d
 1808 00bd 00       		.sleb128 0
 1809 00be 1A010000 		.4byte	.LCFI6-.Ltext0
 1810 00c2 2C010000 		.4byte	.LCFI7-.Ltext0
 1811 00c6 0200     		.2byte	0x2
 1812 00c8 7D       		.byte	0x7d
 1813 00c9 08       		.sleb128 8
 1814 00ca 2C010000 		.4byte	.LCFI7-.Ltext0
ARM GAS  G:\Users\Jaxb\AppData\Local\Temp\ccznmST2.s 			page 41


 1815 00ce 34010000 		.4byte	.LFE38-.Ltext0
 1816 00d2 0200     		.2byte	0x2
 1817 00d4 7D       		.byte	0x7d
 1818 00d5 00       		.sleb128 0
 1819 00d6 00000000 		.4byte	0
 1820 00da 00000000 		.4byte	0
 1821              	.LLST15:
 1822 00de 14010000 		.4byte	.LVL24-.Ltext0
 1823 00e2 24010000 		.4byte	.LVL25-.Ltext0
 1824 00e6 0100     		.2byte	0x1
 1825 00e8 50       		.byte	0x50
 1826 00e9 24010000 		.4byte	.LVL25-.Ltext0
 1827 00ed 34010000 		.4byte	.LFE38-.Ltext0
 1828 00f1 0400     		.2byte	0x4
 1829 00f3 F3       		.byte	0xf3
 1830 00f4 01       		.uleb128 0x1
 1831 00f5 50       		.byte	0x50
 1832 00f6 9F       		.byte	0x9f
 1833 00f7 00000000 		.4byte	0
 1834 00fb 00000000 		.4byte	0
 1835              	.LLST12:
 1836 00ff F4000000 		.4byte	.LFB37-.Ltext0
 1837 0103 FA000000 		.4byte	.LCFI4-.Ltext0
 1838 0107 0200     		.2byte	0x2
 1839 0109 7D       		.byte	0x7d
 1840 010a 00       		.sleb128 0
 1841 010b FA000000 		.4byte	.LCFI4-.Ltext0
 1842 010f 0C010000 		.4byte	.LCFI5-.Ltext0
 1843 0113 0200     		.2byte	0x2
 1844 0115 7D       		.byte	0x7d
 1845 0116 08       		.sleb128 8
 1846 0117 0C010000 		.4byte	.LCFI5-.Ltext0
 1847 011b 14010000 		.4byte	.LFE37-.Ltext0
 1848 011f 0200     		.2byte	0x2
 1849 0121 7D       		.byte	0x7d
 1850 0122 00       		.sleb128 0
 1851 0123 00000000 		.4byte	0
 1852 0127 00000000 		.4byte	0
 1853              	.LLST13:
 1854 012b F4000000 		.4byte	.LVL22-.Ltext0
 1855 012f 04010000 		.4byte	.LVL23-.Ltext0
 1856 0133 0100     		.2byte	0x1
 1857 0135 50       		.byte	0x50
 1858 0136 04010000 		.4byte	.LVL23-.Ltext0
 1859 013a 14010000 		.4byte	.LFE37-.Ltext0
 1860 013e 0400     		.2byte	0x4
 1861 0140 F3       		.byte	0xf3
 1862 0141 01       		.uleb128 0x1
 1863 0142 50       		.byte	0x50
 1864 0143 9F       		.byte	0x9f
 1865 0144 00000000 		.4byte	0
 1866 0148 00000000 		.4byte	0
 1867              	.LLST9:
 1868 014c D4000000 		.4byte	.LVL17-.Ltext0
 1869 0150 E8000000 		.4byte	.LVL21-.Ltext0
 1870 0154 0100     		.2byte	0x1
 1871 0156 50       		.byte	0x50
ARM GAS  G:\Users\Jaxb\AppData\Local\Temp\ccznmST2.s 			page 42


 1872 0157 E8000000 		.4byte	.LVL21-.Ltext0
 1873 015b F4000000 		.4byte	.LFE36-.Ltext0
 1874 015f 0400     		.2byte	0x4
 1875 0161 F3       		.byte	0xf3
 1876 0162 01       		.uleb128 0x1
 1877 0163 50       		.byte	0x50
 1878 0164 9F       		.byte	0x9f
 1879 0165 00000000 		.4byte	0
 1880 0169 00000000 		.4byte	0
 1881              	.LLST10:
 1882 016d D4000000 		.4byte	.LVL17-.Ltext0
 1883 0171 D6000000 		.4byte	.LVL18-.Ltext0
 1884 0175 0100     		.2byte	0x1
 1885 0177 51       		.byte	0x51
 1886 0178 D6000000 		.4byte	.LVL18-.Ltext0
 1887 017c F4000000 		.4byte	.LFE36-.Ltext0
 1888 0180 0400     		.2byte	0x4
 1889 0182 F3       		.byte	0xf3
 1890 0183 01       		.uleb128 0x1
 1891 0184 51       		.byte	0x51
 1892 0185 9F       		.byte	0x9f
 1893 0186 00000000 		.4byte	0
 1894 018a 00000000 		.4byte	0
 1895              	.LLST11:
 1896 018e D4000000 		.4byte	.LVL17-.Ltext0
 1897 0192 DA000000 		.4byte	.LVL19-.Ltext0
 1898 0196 0100     		.2byte	0x1
 1899 0198 52       		.byte	0x52
 1900 0199 DA000000 		.4byte	.LVL19-.Ltext0
 1901 019d E4000000 		.4byte	.LVL20-.Ltext0
 1902 01a1 0400     		.2byte	0x4
 1903 01a3 F3       		.byte	0xf3
 1904 01a4 01       		.uleb128 0x1
 1905 01a5 52       		.byte	0x52
 1906 01a6 9F       		.byte	0x9f
 1907 01a7 E4000000 		.4byte	.LVL20-.Ltext0
 1908 01ab F4000000 		.4byte	.LFE36-.Ltext0
 1909 01af 0100     		.2byte	0x1
 1910 01b1 52       		.byte	0x52
 1911 01b2 00000000 		.4byte	0
 1912 01b6 00000000 		.4byte	0
 1913              	.LLST8:
 1914 01ba 98000000 		.4byte	.LVL14-.Ltext0
 1915 01be 9E000000 		.4byte	.LVL15-.Ltext0
 1916 01c2 0100     		.2byte	0x1
 1917 01c4 50       		.byte	0x50
 1918 01c5 9E000000 		.4byte	.LVL15-.Ltext0
 1919 01c9 B8000000 		.4byte	.LFE34-.Ltext0
 1920 01cd 0400     		.2byte	0x4
 1921 01cf F3       		.byte	0xf3
 1922 01d0 01       		.uleb128 0x1
 1923 01d1 50       		.byte	0x50
 1924 01d2 9F       		.byte	0x9f
 1925 01d3 00000000 		.4byte	0
 1926 01d7 00000000 		.4byte	0
 1927              	.LLST7:
 1928 01db 78000000 		.4byte	.LVL12-.Ltext0
ARM GAS  G:\Users\Jaxb\AppData\Local\Temp\ccznmST2.s 			page 43


 1929 01df 82000000 		.4byte	.LVL13-.Ltext0
 1930 01e3 0100     		.2byte	0x1
 1931 01e5 50       		.byte	0x50
 1932 01e6 82000000 		.4byte	.LVL13-.Ltext0
 1933 01ea 98000000 		.4byte	.LFE33-.Ltext0
 1934 01ee 0400     		.2byte	0x4
 1935 01f0 F3       		.byte	0xf3
 1936 01f1 01       		.uleb128 0x1
 1937 01f2 50       		.byte	0x50
 1938 01f3 9F       		.byte	0x9f
 1939 01f4 00000000 		.4byte	0
 1940 01f8 00000000 		.4byte	0
 1941              	.LLST6:
 1942 01fc 58000000 		.4byte	.LVL10-.Ltext0
 1943 0200 60000000 		.4byte	.LVL11-.Ltext0
 1944 0204 0100     		.2byte	0x1
 1945 0206 50       		.byte	0x50
 1946 0207 60000000 		.4byte	.LVL11-.Ltext0
 1947 020b 78000000 		.4byte	.LFE32-.Ltext0
 1948 020f 0400     		.2byte	0x4
 1949 0211 F3       		.byte	0xf3
 1950 0212 01       		.uleb128 0x1
 1951 0213 50       		.byte	0x50
 1952 0214 9F       		.byte	0x9f
 1953 0215 00000000 		.4byte	0
 1954 0219 00000000 		.4byte	0
 1955              	.LLST1:
 1956 021d 1C000000 		.4byte	.LFB30-.Ltext0
 1957 0221 1E000000 		.4byte	.LCFI2-.Ltext0
 1958 0225 0200     		.2byte	0x2
 1959 0227 7D       		.byte	0x7d
 1960 0228 00       		.sleb128 0
 1961 0229 1E000000 		.4byte	.LCFI2-.Ltext0
 1962 022d 46000000 		.4byte	.LCFI3-.Ltext0
 1963 0231 0200     		.2byte	0x2
 1964 0233 7D       		.byte	0x7d
 1965 0234 08       		.sleb128 8
 1966 0235 46000000 		.4byte	.LCFI3-.Ltext0
 1967 0239 4C000000 		.4byte	.LFE30-.Ltext0
 1968 023d 0200     		.2byte	0x2
 1969 023f 7D       		.byte	0x7d
 1970 0240 00       		.sleb128 0
 1971 0241 00000000 		.4byte	0
 1972 0245 00000000 		.4byte	0
 1973              	.LLST2:
 1974 0249 1C000000 		.4byte	.LVL2-.Ltext0
 1975 024d 3C000000 		.4byte	.LVL5-.Ltext0
 1976 0251 0100     		.2byte	0x1
 1977 0253 50       		.byte	0x50
 1978 0254 3C000000 		.4byte	.LVL5-.Ltext0
 1979 0258 4C000000 		.4byte	.LFE30-.Ltext0
 1980 025c 0400     		.2byte	0x4
 1981 025e F3       		.byte	0xf3
 1982 025f 01       		.uleb128 0x1
 1983 0260 50       		.byte	0x50
 1984 0261 9F       		.byte	0x9f
 1985 0262 00000000 		.4byte	0
ARM GAS  G:\Users\Jaxb\AppData\Local\Temp\ccznmST2.s 			page 44


 1986 0266 00000000 		.4byte	0
 1987              	.LLST3:
 1988 026a 1C000000 		.4byte	.LVL2-.Ltext0
 1989 026e 2E000000 		.4byte	.LVL3-.Ltext0
 1990 0272 0100     		.2byte	0x1
 1991 0274 51       		.byte	0x51
 1992 0275 2E000000 		.4byte	.LVL3-.Ltext0
 1993 0279 4C000000 		.4byte	.LFE30-.Ltext0
 1994 027d 0400     		.2byte	0x4
 1995 027f F3       		.byte	0xf3
 1996 0280 01       		.uleb128 0x1
 1997 0281 51       		.byte	0x51
 1998 0282 9F       		.byte	0x9f
 1999 0283 00000000 		.4byte	0
 2000 0287 00000000 		.4byte	0
 2001              	.LLST4:
 2002 028b 1C000000 		.4byte	.LVL2-.Ltext0
 2003 028f 32000000 		.4byte	.LVL4-.Ltext0
 2004 0293 0200     		.2byte	0x2
 2005 0295 30       		.byte	0x30
 2006 0296 9F       		.byte	0x9f
 2007 0297 32000000 		.4byte	.LVL4-.Ltext0
 2008 029b 40000000 		.4byte	.LVL6-.Ltext0
 2009 029f 0100     		.2byte	0x1
 2010 02a1 52       		.byte	0x52
 2011 02a2 40000000 		.4byte	.LVL6-.Ltext0
 2012 02a6 42000000 		.4byte	.LVL7-.Ltext0
 2013 02aa 0100     		.2byte	0x1
 2014 02ac 53       		.byte	0x53
 2015 02ad 42000000 		.4byte	.LVL7-.Ltext0
 2016 02b1 4C000000 		.4byte	.LFE30-.Ltext0
 2017 02b5 0100     		.2byte	0x1
 2018 02b7 50       		.byte	0x50
 2019 02b8 00000000 		.4byte	0
 2020 02bc 00000000 		.4byte	0
 2021              	.LLST5:
 2022 02c0 1C000000 		.4byte	.LVL2-.Ltext0
 2023 02c4 40000000 		.4byte	.LVL6-.Ltext0
 2024 02c8 0200     		.2byte	0x2
 2025 02ca 30       		.byte	0x30
 2026 02cb 9F       		.byte	0x9f
 2027 02cc 40000000 		.4byte	.LVL6-.Ltext0
 2028 02d0 44000000 		.4byte	.LVL8-.Ltext0
 2029 02d4 1A00     		.2byte	0x1a
 2030 02d6 F3       		.byte	0xf3
 2031 02d7 01       		.uleb128 0x1
 2032 02d8 51       		.byte	0x51
 2033 02d9 06       		.byte	0x6
 2034 02da F3       		.byte	0xf3
 2035 02db 01       		.uleb128 0x1
 2036 02dc 51       		.byte	0x51
 2037 02dd 23       		.byte	0x23
 2038 02de 04       		.uleb128 0x4
 2039 02df 06       		.byte	0x6
 2040 02e0 21       		.byte	0x21
 2041 02e1 F3       		.byte	0xf3
 2042 02e2 01       		.uleb128 0x1
ARM GAS  G:\Users\Jaxb\AppData\Local\Temp\ccznmST2.s 			page 45


 2043 02e3 51       		.byte	0x51
 2044 02e4 23       		.byte	0x23
 2045 02e5 08       		.uleb128 0x8
 2046 02e6 06       		.byte	0x6
 2047 02e7 21       		.byte	0x21
 2048 02e8 F3       		.byte	0xf3
 2049 02e9 01       		.uleb128 0x1
 2050 02ea 51       		.byte	0x51
 2051 02eb 23       		.byte	0x23
 2052 02ec 0C       		.uleb128 0xc
 2053 02ed 06       		.byte	0x6
 2054 02ee 21       		.byte	0x21
 2055 02ef 9F       		.byte	0x9f
 2056 02f0 00000000 		.4byte	0
 2057 02f4 00000000 		.4byte	0
 2058              	.LLST0:
 2059 02f8 00000000 		.4byte	.LFB29-.Ltext0
 2060 02fc 02000000 		.4byte	.LCFI0-.Ltext0
 2061 0300 0200     		.2byte	0x2
 2062 0302 7D       		.byte	0x7d
 2063 0303 00       		.sleb128 0
 2064 0304 02000000 		.4byte	.LCFI0-.Ltext0
 2065 0308 10000000 		.4byte	.LCFI1-.Ltext0
 2066 030c 0200     		.2byte	0x2
 2067 030e 7D       		.byte	0x7d
 2068 030f 08       		.sleb128 8
 2069 0310 10000000 		.4byte	.LCFI1-.Ltext0
 2070 0314 1A000000 		.4byte	.LFE29-.Ltext0
 2071 0318 0200     		.2byte	0x2
 2072 031a 7D       		.byte	0x7d
 2073 031b 00       		.sleb128 0
 2074 031c 00000000 		.4byte	0
 2075 0320 00000000 		.4byte	0
 2076              		.section	.debug_aranges,"",%progbits
 2077 0000 1C000000 		.4byte	0x1c
 2078 0004 0200     		.2byte	0x2
 2079 0006 00000000 		.4byte	.Ldebug_info0
 2080 000a 04       		.byte	0x4
 2081 000b 00       		.byte	0
 2082 000c 0000     		.2byte	0
 2083 000e 0000     		.2byte	0
 2084 0010 00000000 		.4byte	.Ltext0
 2085 0014 70010000 		.4byte	.Letext0-.Ltext0
 2086 0018 00000000 		.4byte	0
 2087 001c 00000000 		.4byte	0
 2088              		.section	.debug_line,"",%progbits
 2089              	.Ldebug_line0:
 2090 0000 EC010000 		.section	.debug_str,"MS",%progbits,1
 2090      02004101 
 2090      00000201 
 2090      FB0E0D00 
 2090      01010101 
 2091              	.LASF57:
 2092 0000 746D7072 		.ascii	"tmpreg1\000"
 2092      65673100 
 2093              	.LASF63:
 2094 0008 4441435F 		.ascii	"DAC_GetDataOutputValue\000"
ARM GAS  G:\Users\Jaxb\AppData\Local\Temp\ccznmST2.s 			page 46


 2094      47657444 
 2094      6174614F 
 2094      75747075 
 2094      7456616C 
 2095              	.LASF29:
 2096 001f 44485238 		.ascii	"DHR8RD\000"
 2096      524400
 2097              	.LASF51:
 2098 0026 4441435F 		.ascii	"DAC_SoftwareTriggerCmd\000"
 2098      536F6674 
 2098      77617265 
 2098      54726967 
 2098      67657243 
 2099              	.LASF22:
 2100 003d 44485231 		.ascii	"DHR12L1\000"
 2100      324C3100 
 2101              	.LASF25:
 2102 0045 44485231 		.ascii	"DHR12L2\000"
 2102      324C3200 
 2103              	.LASF2:
 2104 004d 73686F72 		.ascii	"short int\000"
 2104      7420696E 
 2104      7400
 2105              	.LASF47:
 2106 0057 4441435F 		.ascii	"DAC_WaveGenerationCmd\000"
 2106      57617665 
 2106      47656E65 
 2106      72617469 
 2106      6F6E436D 
 2107              	.LASF28:
 2108 006d 44485231 		.ascii	"DHR12LD\000"
 2108      324C4400 
 2109              	.LASF37:
 2110 0075 4441435F 		.ascii	"DAC_InitTypeDef\000"
 2110      496E6974 
 2110      54797065 
 2110      44656600 
 2111              	.LASF7:
 2112 0085 5F5F7569 		.ascii	"__uint32_t\000"
 2112      6E743332 
 2112      5F7400
 2113              	.LASF36:
 2114 0090 4441435F 		.ascii	"DAC_OutputBuffer\000"
 2114      4F757470 
 2114      75744275 
 2114      66666572 
 2114      00
 2115              	.LASF4:
 2116 00a1 5F5F7569 		.ascii	"__uint16_t\000"
 2116      6E743136 
 2116      5F7400
 2117              	.LASF12:
 2118 00ac 75696E74 		.ascii	"uint8_t\000"
 2118      385F7400 
 2119              	.LASF50:
 2120 00b4 4441435F 		.ascii	"DAC_DualSoftwareTriggerCmd\000"
 2120      4475616C 
ARM GAS  G:\Users\Jaxb\AppData\Local\Temp\ccznmST2.s 			page 47


 2120      536F6674 
 2120      77617265 
 2120      54726967 
 2121              	.LASF31:
 2122 00cf 444F5232 		.ascii	"DOR2\000"
 2122      00
 2123              	.LASF49:
 2124 00d4 4E657753 		.ascii	"NewState\000"
 2124      74617465 
 2124      00
 2125              	.LASF17:
 2126 00dd 44495341 		.ascii	"DISABLE\000"
 2126      424C4500 
 2127              	.LASF9:
 2128 00e5 6C6F6E67 		.ascii	"long long int\000"
 2128      206C6F6E 
 2128      6720696E 
 2128      7400
 2129              	.LASF61:
 2130 00f3 2E2E2F2E 		.ascii	"../../source/src/FWlib/src/stm32f10x_dac.c\000"
 2130      2E2F736F 
 2130      75726365 
 2130      2F737263 
 2130      2F46576C 
 2131              	.LASF64:
 2132 011e 5243435F 		.ascii	"RCC_APB1PeriphResetCmd\000"
 2132      41504231 
 2132      50657269 
 2132      70685265 
 2132      73657443 
 2133              	.LASF6:
 2134 0135 6C6F6E67 		.ascii	"long int\000"
 2134      20696E74 
 2134      00
 2135              	.LASF43:
 2136 013e 4441435F 		.ascii	"DAC_SetDualChannelData\000"
 2136      53657444 
 2136      75616C43 
 2136      68616E6E 
 2136      656C4461 
 2137              	.LASF48:
 2138 0155 4441435F 		.ascii	"DAC_Wave\000"
 2138      57617665 
 2138      00
 2139              	.LASF33:
 2140 015e 4441435F 		.ascii	"DAC_Trigger\000"
 2140      54726967 
 2140      67657200 
 2141              	.LASF45:
 2142 016a 44617461 		.ascii	"Data\000"
 2142      00
 2143              	.LASF46:
 2144 016f 4441435F 		.ascii	"DAC_SetChannel1Data\000"
 2144      53657443 
 2144      68616E6E 
 2144      656C3144 
 2144      61746100 
ARM GAS  G:\Users\Jaxb\AppData\Local\Temp\ccznmST2.s 			page 48


 2145              	.LASF1:
 2146 0183 756E7369 		.ascii	"unsigned char\000"
 2146      676E6564 
 2146      20636861 
 2146      7200
 2147              	.LASF55:
 2148 0191 4441435F 		.ascii	"DAC_InitStruct\000"
 2148      496E6974 
 2148      53747275 
 2148      637400
 2149              	.LASF20:
 2150 01a0 53575452 		.ascii	"SWTRIGR\000"
 2150      49475200 
 2151              	.LASF54:
 2152 01a8 4441435F 		.ascii	"DAC_StructInit\000"
 2152      53747275 
 2152      6374496E 
 2152      697400
 2153              	.LASF0:
 2154 01b7 7369676E 		.ascii	"signed char\000"
 2154      65642063 
 2154      68617200 
 2155              	.LASF10:
 2156 01c3 6C6F6E67 		.ascii	"long long unsigned int\000"
 2156      206C6F6E 
 2156      6720756E 
 2156      7369676E 
 2156      65642069 
 2157              	.LASF14:
 2158 01da 75696E74 		.ascii	"uint32_t\000"
 2158      33325F74 
 2158      00
 2159              	.LASF11:
 2160 01e3 756E7369 		.ascii	"unsigned int\000"
 2160      676E6564 
 2160      20696E74 
 2160      00
 2161              	.LASF13:
 2162 01f0 75696E74 		.ascii	"uint16_t\000"
 2162      31365F74 
 2162      00
 2163              	.LASF30:
 2164 01f9 444F5231 		.ascii	"DOR1\000"
 2164      00
 2165              	.LASF52:
 2166 01fe 4441435F 		.ascii	"DAC_DMACmd\000"
 2166      444D4143 
 2166      6D6400
 2167              	.LASF38:
 2168 0209 4441435F 		.ascii	"DAC_Channel\000"
 2168      4368616E 
 2168      6E656C00 
 2169              	.LASF59:
 2170 0215 4441435F 		.ascii	"DAC_DeInit\000"
 2170      4465496E 
 2170      697400
 2171              	.LASF5:
ARM GAS  G:\Users\Jaxb\AppData\Local\Temp\ccznmST2.s 			page 49


 2172 0220 73686F72 		.ascii	"short unsigned int\000"
 2172      7420756E 
 2172      7369676E 
 2172      65642069 
 2172      6E7400
 2173              	.LASF58:
 2174 0233 746D7072 		.ascii	"tmpreg2\000"
 2174      65673200 
 2175              	.LASF35:
 2176 023b 4441435F 		.ascii	"DAC_LFSRUnmask_TriangleAmplitude\000"
 2176      4C465352 
 2176      556E6D61 
 2176      736B5F54 
 2176      7269616E 
 2177              	.LASF39:
 2178 025c 4441435F 		.ascii	"DAC_Align\000"
 2178      416C6967 
 2178      6E00
 2179              	.LASF21:
 2180 0266 44485231 		.ascii	"DHR12R1\000"
 2180      32523100 
 2181              	.LASF24:
 2182 026e 44485231 		.ascii	"DHR12R2\000"
 2182      32523200 
 2183              	.LASF16:
 2184 0276 53797374 		.ascii	"SystemCoreClock\000"
 2184      656D436F 
 2184      7265436C 
 2184      6F636B00 
 2185              	.LASF40:
 2186 0286 44617461 		.ascii	"Data2\000"
 2186      3200
 2187              	.LASF42:
 2188 028c 64617461 		.ascii	"data\000"
 2188      00
 2189              	.LASF27:
 2190 0291 44485231 		.ascii	"DHR12RD\000"
 2190      32524400 
 2191              	.LASF8:
 2192 0299 6C6F6E67 		.ascii	"long unsigned int\000"
 2192      20756E73 
 2192      69676E65 
 2192      6420696E 
 2192      7400
 2193              	.LASF62:
 2194 02ab 473A5C55 		.ascii	"G:\\Users\\Jaxb\\Desktop\\KAKAOS-0.07  2019.2.21  f"
 2194      73657273 
 2194      5C4A6178 
 2194      625C4465 
 2194      736B746F 
 2195 02da 6F722067 		.ascii	"or gcc\\Project\\RVMDK\243\250uv5\243\251\000"
 2195      63635C50 
 2195      726F6A65 
 2195      63745C52 
 2195      564D444B 
 2196              	.LASF19:
 2197 02f6 46756E63 		.ascii	"FunctionalState\000"
ARM GAS  G:\Users\Jaxb\AppData\Local\Temp\ccznmST2.s 			page 50


 2197      74696F6E 
 2197      616C5374 
 2197      61746500 
 2198              	.LASF44:
 2199 0306 4441435F 		.ascii	"DAC_SetChannel2Data\000"
 2199      53657443 
 2199      68616E6E 
 2199      656C3244 
 2199      61746100 
 2200              	.LASF53:
 2201 031a 4441435F 		.ascii	"DAC_Cmd\000"
 2201      436D6400 
 2202              	.LASF56:
 2203 0322 4441435F 		.ascii	"DAC_Init\000"
 2203      496E6974 
 2203      00
 2204              	.LASF41:
 2205 032b 44617461 		.ascii	"Data1\000"
 2205      3100
 2206              	.LASF60:
 2207 0331 474E5520 		.ascii	"GNU C11 7.3.1 20180622 (release) [ARM/embedded-7-br"
 2207      43313120 
 2207      372E332E 
 2207      31203230 
 2207      31383036 
 2208 0364 616E6368 		.ascii	"anch revision 261907] -mcpu=cortex-m3 -mthumb -mapc"
 2208      20726576 
 2208      6973696F 
 2208      6E203236 
 2208      31393037 
 2209 0397 732D6672 		.ascii	"s-frame -mthumb-interwork -mcpu=cortex-m3 -mthumb -"
 2209      616D6520 
 2209      2D6D7468 
 2209      756D622D 
 2209      696E7465 
 2210 03ca 67647761 		.ascii	"gdwarf-2 -O2\000"
 2210      72662D32 
 2210      202D4F32 
 2210      00
 2211              	.LASF15:
 2212 03d7 49544D5F 		.ascii	"ITM_RxBuffer\000"
 2212      52784275 
 2212      66666572 
 2212      00
 2213              	.LASF32:
 2214 03e4 4441435F 		.ascii	"DAC_TypeDef\000"
 2214      54797065 
 2214      44656600 
 2215              	.LASF23:
 2216 03f0 44485238 		.ascii	"DHR8R1\000"
 2216      523100
 2217              	.LASF26:
 2218 03f7 44485238 		.ascii	"DHR8R2\000"
 2218      523200
 2219              	.LASF34:
 2220 03fe 4441435F 		.ascii	"DAC_WaveGeneration\000"
 2220      57617665 
ARM GAS  G:\Users\Jaxb\AppData\Local\Temp\ccznmST2.s 			page 51


 2220      47656E65 
 2220      72617469 
 2220      6F6E00
 2221              	.LASF18:
 2222 0411 454E4142 		.ascii	"ENABLE\000"
 2222      4C4500
 2223              	.LASF3:
 2224 0418 5F5F7569 		.ascii	"__uint8_t\000"
 2224      6E74385F 
 2224      7400
 2225              		.ident	"GCC: (GNU Tools for Arm Embedded Processors 7-2018-q2-update) 7.3.1 20180622 (release) [AR
ARM GAS  G:\Users\Jaxb\AppData\Local\Temp\ccznmST2.s 			page 52


DEFINED SYMBOLS
                            *ABS*:00000000 stm32f10x_dac.c
G:\Users\Jaxb\AppData\Local\Temp\ccznmST2.s:15     .text:00000000 $t
G:\Users\Jaxb\AppData\Local\Temp\ccznmST2.s:23     .text:00000000 DAC_DeInit
G:\Users\Jaxb\AppData\Local\Temp\ccznmST2.s:62     .text:0000001c DAC_Init
G:\Users\Jaxb\AppData\Local\Temp\ccznmST2.s:117    .text:00000048 $d
G:\Users\Jaxb\AppData\Local\Temp\ccznmST2.s:121    .text:0000004c $t
G:\Users\Jaxb\AppData\Local\Temp\ccznmST2.s:129    .text:0000004c DAC_StructInit
G:\Users\Jaxb\AppData\Local\Temp\ccznmST2.s:156    .text:00000058 DAC_Cmd
G:\Users\Jaxb\AppData\Local\Temp\ccznmST2.s:185    .text:00000074 $d
G:\Users\Jaxb\AppData\Local\Temp\ccznmST2.s:189    .text:00000078 $t
G:\Users\Jaxb\AppData\Local\Temp\ccznmST2.s:197    .text:00000078 DAC_DMACmd
G:\Users\Jaxb\AppData\Local\Temp\ccznmST2.s:226    .text:00000094 $d
G:\Users\Jaxb\AppData\Local\Temp\ccznmST2.s:230    .text:00000098 $t
G:\Users\Jaxb\AppData\Local\Temp\ccznmST2.s:238    .text:00000098 DAC_SoftwareTriggerCmd
G:\Users\Jaxb\AppData\Local\Temp\ccznmST2.s:268    .text:000000b4 $d
G:\Users\Jaxb\AppData\Local\Temp\ccznmST2.s:272    .text:000000b8 $t
G:\Users\Jaxb\AppData\Local\Temp\ccznmST2.s:280    .text:000000b8 DAC_DualSoftwareTriggerCmd
G:\Users\Jaxb\AppData\Local\Temp\ccznmST2.s:306    .text:000000d0 $d
G:\Users\Jaxb\AppData\Local\Temp\ccznmST2.s:310    .text:000000d4 $t
G:\Users\Jaxb\AppData\Local\Temp\ccznmST2.s:318    .text:000000d4 DAC_WaveGenerationCmd
G:\Users\Jaxb\AppData\Local\Temp\ccznmST2.s:350    .text:000000f0 $d
G:\Users\Jaxb\AppData\Local\Temp\ccznmST2.s:354    .text:000000f4 $t
G:\Users\Jaxb\AppData\Local\Temp\ccznmST2.s:362    .text:000000f4 DAC_SetChannel1Data
G:\Users\Jaxb\AppData\Local\Temp\ccznmST2.s:400    .text:00000110 $d
G:\Users\Jaxb\AppData\Local\Temp\ccznmST2.s:404    .text:00000114 $t
G:\Users\Jaxb\AppData\Local\Temp\ccznmST2.s:412    .text:00000114 DAC_SetChannel2Data
G:\Users\Jaxb\AppData\Local\Temp\ccznmST2.s:450    .text:00000130 $d
G:\Users\Jaxb\AppData\Local\Temp\ccznmST2.s:454    .text:00000134 $t
G:\Users\Jaxb\AppData\Local\Temp\ccznmST2.s:462    .text:00000134 DAC_SetDualChannelData
G:\Users\Jaxb\AppData\Local\Temp\ccznmST2.s:488    .text:00000148 $d
G:\Users\Jaxb\AppData\Local\Temp\ccznmST2.s:492    .text:0000014c $t
G:\Users\Jaxb\AppData\Local\Temp\ccznmST2.s:500    .text:0000014c DAC_GetDataOutputValue
G:\Users\Jaxb\AppData\Local\Temp\ccznmST2.s:539    .text:0000016c $d

UNDEFINED SYMBOLS
RCC_APB1PeriphResetCmd
