ARM GAS  G:\Users\Jaxb\AppData\Local\Temp\cc5H68Wr.s 			page 1


   1              		.cpu cortex-m3
   2              		.eabi_attribute 20, 1
   3              		.eabi_attribute 21, 1
   4              		.eabi_attribute 23, 3
   5              		.eabi_attribute 24, 1
   6              		.eabi_attribute 25, 1
   7              		.eabi_attribute 26, 1
   8              		.eabi_attribute 30, 2
   9              		.eabi_attribute 34, 1
  10              		.eabi_attribute 18, 4
  11              		.file	"stm32f10x_dma.c"
  12              		.text
  13              	.Ltext0:
  14              		.cfi_sections	.debug_frame
  15              		.align	1
  16              		.p2align 2,,3
  17              		.global	DMA_DeInit
  18              		.syntax unified
  19              		.thumb
  20              		.thumb_func
  21              		.fpu softvfp
  22              		.type	DMA_DeInit, %function
  23              	DMA_DeInit:
  24              	.LFB29:
  25              		.file 1 "../../source/src/FWlib/src/stm32f10x_dma.c"
   1:../../source/src/FWlib/src/stm32f10x_dma.c **** /**
   2:../../source/src/FWlib/src/stm32f10x_dma.c ****   ******************************************************************************
   3:../../source/src/FWlib/src/stm32f10x_dma.c ****   * @file    stm32f10x_dma.c
   4:../../source/src/FWlib/src/stm32f10x_dma.c ****   * @author  MCD Application Team
   5:../../source/src/FWlib/src/stm32f10x_dma.c ****   * @version V3.5.0
   6:../../source/src/FWlib/src/stm32f10x_dma.c ****   * @date    11-March-2011
   7:../../source/src/FWlib/src/stm32f10x_dma.c ****   * @brief   This file provides all the DMA firmware functions.
   8:../../source/src/FWlib/src/stm32f10x_dma.c ****   ******************************************************************************
   9:../../source/src/FWlib/src/stm32f10x_dma.c ****   * @attention
  10:../../source/src/FWlib/src/stm32f10x_dma.c ****   *
  11:../../source/src/FWlib/src/stm32f10x_dma.c ****   * THE PRESENT FIRMWARE WHICH IS FOR GUIDANCE ONLY AIMS AT PROVIDING CUSTOMERS
  12:../../source/src/FWlib/src/stm32f10x_dma.c ****   * WITH CODING INFORMATION REGARDING THEIR PRODUCTS IN ORDER FOR THEM TO SAVE
  13:../../source/src/FWlib/src/stm32f10x_dma.c ****   * TIME. AS A RESULT, STMICROELECTRONICS SHALL NOT BE HELD LIABLE FOR ANY
  14:../../source/src/FWlib/src/stm32f10x_dma.c ****   * DIRECT, INDIRECT OR CONSEQUENTIAL DAMAGES WITH RESPECT TO ANY CLAIMS ARISING
  15:../../source/src/FWlib/src/stm32f10x_dma.c ****   * FROM THE CONTENT OF SUCH FIRMWARE AND/OR THE USE MADE BY CUSTOMERS OF THE
  16:../../source/src/FWlib/src/stm32f10x_dma.c ****   * CODING INFORMATION CONTAINED HEREIN IN CONNECTION WITH THEIR PRODUCTS.
  17:../../source/src/FWlib/src/stm32f10x_dma.c ****   *
  18:../../source/src/FWlib/src/stm32f10x_dma.c ****   * <h2><center>&copy; COPYRIGHT 2011 STMicroelectronics</center></h2>
  19:../../source/src/FWlib/src/stm32f10x_dma.c ****   ******************************************************************************
  20:../../source/src/FWlib/src/stm32f10x_dma.c ****   */
  21:../../source/src/FWlib/src/stm32f10x_dma.c **** 
  22:../../source/src/FWlib/src/stm32f10x_dma.c **** /* Includes ------------------------------------------------------------------*/
  23:../../source/src/FWlib/src/stm32f10x_dma.c **** #include "stm32f10x_dma.h"
  24:../../source/src/FWlib/src/stm32f10x_dma.c **** #include "stm32f10x_rcc.h"
  25:../../source/src/FWlib/src/stm32f10x_dma.c **** 
  26:../../source/src/FWlib/src/stm32f10x_dma.c **** /** @addtogroup STM32F10x_StdPeriph_Driver
  27:../../source/src/FWlib/src/stm32f10x_dma.c ****   * @{
  28:../../source/src/FWlib/src/stm32f10x_dma.c ****   */
  29:../../source/src/FWlib/src/stm32f10x_dma.c **** 
  30:../../source/src/FWlib/src/stm32f10x_dma.c **** /** @defgroup DMA 
  31:../../source/src/FWlib/src/stm32f10x_dma.c ****   * @brief DMA driver modules
  32:../../source/src/FWlib/src/stm32f10x_dma.c ****   * @{
ARM GAS  G:\Users\Jaxb\AppData\Local\Temp\cc5H68Wr.s 			page 2


  33:../../source/src/FWlib/src/stm32f10x_dma.c ****   */ 
  34:../../source/src/FWlib/src/stm32f10x_dma.c **** 
  35:../../source/src/FWlib/src/stm32f10x_dma.c **** /** @defgroup DMA_Private_TypesDefinitions
  36:../../source/src/FWlib/src/stm32f10x_dma.c ****   * @{
  37:../../source/src/FWlib/src/stm32f10x_dma.c ****   */ 
  38:../../source/src/FWlib/src/stm32f10x_dma.c **** /**
  39:../../source/src/FWlib/src/stm32f10x_dma.c ****   * @}
  40:../../source/src/FWlib/src/stm32f10x_dma.c ****   */
  41:../../source/src/FWlib/src/stm32f10x_dma.c **** 
  42:../../source/src/FWlib/src/stm32f10x_dma.c **** /** @defgroup DMA_Private_Defines
  43:../../source/src/FWlib/src/stm32f10x_dma.c ****   * @{
  44:../../source/src/FWlib/src/stm32f10x_dma.c ****   */
  45:../../source/src/FWlib/src/stm32f10x_dma.c **** 
  46:../../source/src/FWlib/src/stm32f10x_dma.c **** 
  47:../../source/src/FWlib/src/stm32f10x_dma.c **** /* DMA1 Channelx interrupt pending bit masks */
  48:../../source/src/FWlib/src/stm32f10x_dma.c **** #define DMA1_Channel1_IT_Mask    ((uint32_t)(DMA_ISR_GIF1 | DMA_ISR_TCIF1 | DMA_ISR_HTIF1 | DMA_ISR
  49:../../source/src/FWlib/src/stm32f10x_dma.c **** #define DMA1_Channel2_IT_Mask    ((uint32_t)(DMA_ISR_GIF2 | DMA_ISR_TCIF2 | DMA_ISR_HTIF2 | DMA_ISR
  50:../../source/src/FWlib/src/stm32f10x_dma.c **** #define DMA1_Channel3_IT_Mask    ((uint32_t)(DMA_ISR_GIF3 | DMA_ISR_TCIF3 | DMA_ISR_HTIF3 | DMA_ISR
  51:../../source/src/FWlib/src/stm32f10x_dma.c **** #define DMA1_Channel4_IT_Mask    ((uint32_t)(DMA_ISR_GIF4 | DMA_ISR_TCIF4 | DMA_ISR_HTIF4 | DMA_ISR
  52:../../source/src/FWlib/src/stm32f10x_dma.c **** #define DMA1_Channel5_IT_Mask    ((uint32_t)(DMA_ISR_GIF5 | DMA_ISR_TCIF5 | DMA_ISR_HTIF5 | DMA_ISR
  53:../../source/src/FWlib/src/stm32f10x_dma.c **** #define DMA1_Channel6_IT_Mask    ((uint32_t)(DMA_ISR_GIF6 | DMA_ISR_TCIF6 | DMA_ISR_HTIF6 | DMA_ISR
  54:../../source/src/FWlib/src/stm32f10x_dma.c **** #define DMA1_Channel7_IT_Mask    ((uint32_t)(DMA_ISR_GIF7 | DMA_ISR_TCIF7 | DMA_ISR_HTIF7 | DMA_ISR
  55:../../source/src/FWlib/src/stm32f10x_dma.c **** 
  56:../../source/src/FWlib/src/stm32f10x_dma.c **** /* DMA2 Channelx interrupt pending bit masks */
  57:../../source/src/FWlib/src/stm32f10x_dma.c **** #define DMA2_Channel1_IT_Mask    ((uint32_t)(DMA_ISR_GIF1 | DMA_ISR_TCIF1 | DMA_ISR_HTIF1 | DMA_ISR
  58:../../source/src/FWlib/src/stm32f10x_dma.c **** #define DMA2_Channel2_IT_Mask    ((uint32_t)(DMA_ISR_GIF2 | DMA_ISR_TCIF2 | DMA_ISR_HTIF2 | DMA_ISR
  59:../../source/src/FWlib/src/stm32f10x_dma.c **** #define DMA2_Channel3_IT_Mask    ((uint32_t)(DMA_ISR_GIF3 | DMA_ISR_TCIF3 | DMA_ISR_HTIF3 | DMA_ISR
  60:../../source/src/FWlib/src/stm32f10x_dma.c **** #define DMA2_Channel4_IT_Mask    ((uint32_t)(DMA_ISR_GIF4 | DMA_ISR_TCIF4 | DMA_ISR_HTIF4 | DMA_ISR
  61:../../source/src/FWlib/src/stm32f10x_dma.c **** #define DMA2_Channel5_IT_Mask    ((uint32_t)(DMA_ISR_GIF5 | DMA_ISR_TCIF5 | DMA_ISR_HTIF5 | DMA_ISR
  62:../../source/src/FWlib/src/stm32f10x_dma.c **** 
  63:../../source/src/FWlib/src/stm32f10x_dma.c **** /* DMA2 FLAG mask */
  64:../../source/src/FWlib/src/stm32f10x_dma.c **** #define FLAG_Mask                ((uint32_t)0x10000000)
  65:../../source/src/FWlib/src/stm32f10x_dma.c **** 
  66:../../source/src/FWlib/src/stm32f10x_dma.c **** /* DMA registers Masks */
  67:../../source/src/FWlib/src/stm32f10x_dma.c **** #define CCR_CLEAR_Mask           ((uint32_t)0xFFFF800F)
  68:../../source/src/FWlib/src/stm32f10x_dma.c **** 
  69:../../source/src/FWlib/src/stm32f10x_dma.c **** /**
  70:../../source/src/FWlib/src/stm32f10x_dma.c ****   * @}
  71:../../source/src/FWlib/src/stm32f10x_dma.c ****   */
  72:../../source/src/FWlib/src/stm32f10x_dma.c **** 
  73:../../source/src/FWlib/src/stm32f10x_dma.c **** /** @defgroup DMA_Private_Macros
  74:../../source/src/FWlib/src/stm32f10x_dma.c ****   * @{
  75:../../source/src/FWlib/src/stm32f10x_dma.c ****   */
  76:../../source/src/FWlib/src/stm32f10x_dma.c **** 
  77:../../source/src/FWlib/src/stm32f10x_dma.c **** /**
  78:../../source/src/FWlib/src/stm32f10x_dma.c ****   * @}
  79:../../source/src/FWlib/src/stm32f10x_dma.c ****   */
  80:../../source/src/FWlib/src/stm32f10x_dma.c **** 
  81:../../source/src/FWlib/src/stm32f10x_dma.c **** /** @defgroup DMA_Private_Variables
  82:../../source/src/FWlib/src/stm32f10x_dma.c ****   * @{
  83:../../source/src/FWlib/src/stm32f10x_dma.c ****   */
  84:../../source/src/FWlib/src/stm32f10x_dma.c **** 
  85:../../source/src/FWlib/src/stm32f10x_dma.c **** /**
  86:../../source/src/FWlib/src/stm32f10x_dma.c ****   * @}
  87:../../source/src/FWlib/src/stm32f10x_dma.c ****   */
  88:../../source/src/FWlib/src/stm32f10x_dma.c **** 
  89:../../source/src/FWlib/src/stm32f10x_dma.c **** /** @defgroup DMA_Private_FunctionPrototypes
ARM GAS  G:\Users\Jaxb\AppData\Local\Temp\cc5H68Wr.s 			page 3


  90:../../source/src/FWlib/src/stm32f10x_dma.c ****   * @{
  91:../../source/src/FWlib/src/stm32f10x_dma.c ****   */
  92:../../source/src/FWlib/src/stm32f10x_dma.c **** 
  93:../../source/src/FWlib/src/stm32f10x_dma.c **** /**
  94:../../source/src/FWlib/src/stm32f10x_dma.c ****   * @}
  95:../../source/src/FWlib/src/stm32f10x_dma.c ****   */
  96:../../source/src/FWlib/src/stm32f10x_dma.c **** 
  97:../../source/src/FWlib/src/stm32f10x_dma.c **** /** @defgroup DMA_Private_Functions
  98:../../source/src/FWlib/src/stm32f10x_dma.c ****   * @{
  99:../../source/src/FWlib/src/stm32f10x_dma.c ****   */
 100:../../source/src/FWlib/src/stm32f10x_dma.c **** 
 101:../../source/src/FWlib/src/stm32f10x_dma.c **** /**
 102:../../source/src/FWlib/src/stm32f10x_dma.c ****   * @brief  Deinitializes the DMAy Channelx registers to their default reset
 103:../../source/src/FWlib/src/stm32f10x_dma.c ****   *         values.
 104:../../source/src/FWlib/src/stm32f10x_dma.c ****   * @param  DMAy_Channelx: where y can be 1 or 2 to select the DMA and
 105:../../source/src/FWlib/src/stm32f10x_dma.c ****   *   x can be 1 to 7 for DMA1 and 1 to 5 for DMA2 to select the DMA Channel.
 106:../../source/src/FWlib/src/stm32f10x_dma.c ****   * @retval None
 107:../../source/src/FWlib/src/stm32f10x_dma.c ****   */
 108:../../source/src/FWlib/src/stm32f10x_dma.c **** void DMA_DeInit(DMA_Channel_TypeDef* DMAy_Channelx)
 109:../../source/src/FWlib/src/stm32f10x_dma.c **** {
  26              		.loc 1 109 0
  27              		.cfi_startproc
  28              		@ args = 0, pretend = 0, frame = 0
  29              		@ frame_needed = 0, uses_anonymous_args = 0
  30              		@ link register save eliminated.
  31              	.LVL0:
  32 0000 10B4     		push	{r4}
  33              	.LCFI0:
  34              		.cfi_def_cfa_offset 4
  35              		.cfi_offset 4, -4
 110:../../source/src/FWlib/src/stm32f10x_dma.c ****   /* Check the parameters */
 111:../../source/src/FWlib/src/stm32f10x_dma.c ****   assert_param(IS_DMA_ALL_PERIPH(DMAy_Channelx));
 112:../../source/src/FWlib/src/stm32f10x_dma.c ****   
 113:../../source/src/FWlib/src/stm32f10x_dma.c ****   /* Disable the selected DMAy Channelx */
 114:../../source/src/FWlib/src/stm32f10x_dma.c ****   DMAy_Channelx->CCR &= (uint16_t)(~DMA_CCR1_EN);
  36              		.loc 1 114 0
  37 0002 4FF6FE74 		movw	r4, #65534
 115:../../source/src/FWlib/src/stm32f10x_dma.c ****   
 116:../../source/src/FWlib/src/stm32f10x_dma.c ****   /* Reset DMAy Channelx control register */
 117:../../source/src/FWlib/src/stm32f10x_dma.c ****   DMAy_Channelx->CCR  = 0;
  38              		.loc 1 117 0
  39 0006 0023     		movs	r3, #0
 114:../../source/src/FWlib/src/stm32f10x_dma.c ****   
  40              		.loc 1 114 0
  41 0008 0268     		ldr	r2, [r0]
 118:../../source/src/FWlib/src/stm32f10x_dma.c ****   
 119:../../source/src/FWlib/src/stm32f10x_dma.c ****   /* Reset DMAy Channelx remaining bytes register */
 120:../../source/src/FWlib/src/stm32f10x_dma.c ****   DMAy_Channelx->CNDTR = 0;
 121:../../source/src/FWlib/src/stm32f10x_dma.c ****   
 122:../../source/src/FWlib/src/stm32f10x_dma.c ****   /* Reset DMAy Channelx peripheral address register */
 123:../../source/src/FWlib/src/stm32f10x_dma.c ****   DMAy_Channelx->CPAR  = 0;
 124:../../source/src/FWlib/src/stm32f10x_dma.c ****   
 125:../../source/src/FWlib/src/stm32f10x_dma.c ****   /* Reset DMAy Channelx memory address register */
 126:../../source/src/FWlib/src/stm32f10x_dma.c ****   DMAy_Channelx->CMAR = 0;
 127:../../source/src/FWlib/src/stm32f10x_dma.c ****   
 128:../../source/src/FWlib/src/stm32f10x_dma.c ****   if (DMAy_Channelx == DMA1_Channel1)
  42              		.loc 1 128 0
ARM GAS  G:\Users\Jaxb\AppData\Local\Temp\cc5H68Wr.s 			page 4


  43 000a 3B49     		ldr	r1, .L26
 114:../../source/src/FWlib/src/stm32f10x_dma.c ****   
  44              		.loc 1 114 0
  45 000c 2240     		ands	r2, r2, r4
  46              		.loc 1 128 0
  47 000e 8842     		cmp	r0, r1
 114:../../source/src/FWlib/src/stm32f10x_dma.c ****   
  48              		.loc 1 114 0
  49 0010 0260     		str	r2, [r0]
 117:../../source/src/FWlib/src/stm32f10x_dma.c ****   
  50              		.loc 1 117 0
  51 0012 0360     		str	r3, [r0]
 120:../../source/src/FWlib/src/stm32f10x_dma.c ****   
  52              		.loc 1 120 0
  53 0014 4360     		str	r3, [r0, #4]
 123:../../source/src/FWlib/src/stm32f10x_dma.c ****   
  54              		.loc 1 123 0
  55 0016 8360     		str	r3, [r0, #8]
 126:../../source/src/FWlib/src/stm32f10x_dma.c ****   
  56              		.loc 1 126 0
  57 0018 C360     		str	r3, [r0, #12]
  58              		.loc 1 128 0
  59 001a 26D0     		beq	.L15
 129:../../source/src/FWlib/src/stm32f10x_dma.c ****   {
 130:../../source/src/FWlib/src/stm32f10x_dma.c ****     /* Reset interrupt pending bits for DMA1 Channel1 */
 131:../../source/src/FWlib/src/stm32f10x_dma.c ****     DMA1->IFCR |= DMA1_Channel1_IT_Mask;
 132:../../source/src/FWlib/src/stm32f10x_dma.c ****   }
 133:../../source/src/FWlib/src/stm32f10x_dma.c ****   else if (DMAy_Channelx == DMA1_Channel2)
  60              		.loc 1 133 0
  61 001c 374B     		ldr	r3, .L26+4
  62 001e 9842     		cmp	r0, r3
  63 0020 37D0     		beq	.L16
 134:../../source/src/FWlib/src/stm32f10x_dma.c ****   {
 135:../../source/src/FWlib/src/stm32f10x_dma.c ****     /* Reset interrupt pending bits for DMA1 Channel2 */
 136:../../source/src/FWlib/src/stm32f10x_dma.c ****     DMA1->IFCR |= DMA1_Channel2_IT_Mask;
 137:../../source/src/FWlib/src/stm32f10x_dma.c ****   }
 138:../../source/src/FWlib/src/stm32f10x_dma.c ****   else if (DMAy_Channelx == DMA1_Channel3)
  64              		.loc 1 138 0
  65 0022 374B     		ldr	r3, .L26+8
  66 0024 9842     		cmp	r0, r3
  67 0026 27D0     		beq	.L17
 139:../../source/src/FWlib/src/stm32f10x_dma.c ****   {
 140:../../source/src/FWlib/src/stm32f10x_dma.c ****     /* Reset interrupt pending bits for DMA1 Channel3 */
 141:../../source/src/FWlib/src/stm32f10x_dma.c ****     DMA1->IFCR |= DMA1_Channel3_IT_Mask;
 142:../../source/src/FWlib/src/stm32f10x_dma.c ****   }
 143:../../source/src/FWlib/src/stm32f10x_dma.c ****   else if (DMAy_Channelx == DMA1_Channel4)
  68              		.loc 1 143 0
  69 0028 364B     		ldr	r3, .L26+12
  70 002a 9842     		cmp	r0, r3
  71 002c 38D0     		beq	.L18
 144:../../source/src/FWlib/src/stm32f10x_dma.c ****   {
 145:../../source/src/FWlib/src/stm32f10x_dma.c ****     /* Reset interrupt pending bits for DMA1 Channel4 */
 146:../../source/src/FWlib/src/stm32f10x_dma.c ****     DMA1->IFCR |= DMA1_Channel4_IT_Mask;
 147:../../source/src/FWlib/src/stm32f10x_dma.c ****   }
 148:../../source/src/FWlib/src/stm32f10x_dma.c ****   else if (DMAy_Channelx == DMA1_Channel5)
  72              		.loc 1 148 0
  73 002e 364B     		ldr	r3, .L26+16
ARM GAS  G:\Users\Jaxb\AppData\Local\Temp\cc5H68Wr.s 			page 5


  74 0030 9842     		cmp	r0, r3
  75 0032 3CD0     		beq	.L19
 149:../../source/src/FWlib/src/stm32f10x_dma.c ****   {
 150:../../source/src/FWlib/src/stm32f10x_dma.c ****     /* Reset interrupt pending bits for DMA1 Channel5 */
 151:../../source/src/FWlib/src/stm32f10x_dma.c ****     DMA1->IFCR |= DMA1_Channel5_IT_Mask;
 152:../../source/src/FWlib/src/stm32f10x_dma.c ****   }
 153:../../source/src/FWlib/src/stm32f10x_dma.c ****   else if (DMAy_Channelx == DMA1_Channel6)
  76              		.loc 1 153 0
  77 0034 354B     		ldr	r3, .L26+20
  78 0036 9842     		cmp	r0, r3
  79 0038 25D0     		beq	.L20
 154:../../source/src/FWlib/src/stm32f10x_dma.c ****   {
 155:../../source/src/FWlib/src/stm32f10x_dma.c ****     /* Reset interrupt pending bits for DMA1 Channel6 */
 156:../../source/src/FWlib/src/stm32f10x_dma.c ****     DMA1->IFCR |= DMA1_Channel6_IT_Mask;
 157:../../source/src/FWlib/src/stm32f10x_dma.c ****   }
 158:../../source/src/FWlib/src/stm32f10x_dma.c ****   else if (DMAy_Channelx == DMA1_Channel7)
  80              		.loc 1 158 0
  81 003a 354B     		ldr	r3, .L26+24
  82 003c 9842     		cmp	r0, r3
  83 003e 42D0     		beq	.L21
 159:../../source/src/FWlib/src/stm32f10x_dma.c ****   {
 160:../../source/src/FWlib/src/stm32f10x_dma.c ****     /* Reset interrupt pending bits for DMA1 Channel7 */
 161:../../source/src/FWlib/src/stm32f10x_dma.c ****     DMA1->IFCR |= DMA1_Channel7_IT_Mask;
 162:../../source/src/FWlib/src/stm32f10x_dma.c ****   }
 163:../../source/src/FWlib/src/stm32f10x_dma.c ****   else if (DMAy_Channelx == DMA2_Channel1)
  84              		.loc 1 163 0
  85 0040 344B     		ldr	r3, .L26+28
  86 0042 9842     		cmp	r0, r3
  87 0044 45D0     		beq	.L22
 164:../../source/src/FWlib/src/stm32f10x_dma.c ****   {
 165:../../source/src/FWlib/src/stm32f10x_dma.c ****     /* Reset interrupt pending bits for DMA2 Channel1 */
 166:../../source/src/FWlib/src/stm32f10x_dma.c ****     DMA2->IFCR |= DMA2_Channel1_IT_Mask;
 167:../../source/src/FWlib/src/stm32f10x_dma.c ****   }
 168:../../source/src/FWlib/src/stm32f10x_dma.c ****   else if (DMAy_Channelx == DMA2_Channel2)
  88              		.loc 1 168 0
  89 0046 344B     		ldr	r3, .L26+32
  90 0048 9842     		cmp	r0, r3
  91 004a 48D0     		beq	.L23
 169:../../source/src/FWlib/src/stm32f10x_dma.c ****   {
 170:../../source/src/FWlib/src/stm32f10x_dma.c ****     /* Reset interrupt pending bits for DMA2 Channel2 */
 171:../../source/src/FWlib/src/stm32f10x_dma.c ****     DMA2->IFCR |= DMA2_Channel2_IT_Mask;
 172:../../source/src/FWlib/src/stm32f10x_dma.c ****   }
 173:../../source/src/FWlib/src/stm32f10x_dma.c ****   else if (DMAy_Channelx == DMA2_Channel3)
  92              		.loc 1 173 0
  93 004c 334B     		ldr	r3, .L26+36
  94 004e 9842     		cmp	r0, r3
  95 0050 33D0     		beq	.L24
 174:../../source/src/FWlib/src/stm32f10x_dma.c ****   {
 175:../../source/src/FWlib/src/stm32f10x_dma.c ****     /* Reset interrupt pending bits for DMA2 Channel3 */
 176:../../source/src/FWlib/src/stm32f10x_dma.c ****     DMA2->IFCR |= DMA2_Channel3_IT_Mask;
 177:../../source/src/FWlib/src/stm32f10x_dma.c ****   }
 178:../../source/src/FWlib/src/stm32f10x_dma.c ****   else if (DMAy_Channelx == DMA2_Channel4)
  96              		.loc 1 178 0
  97 0052 334B     		ldr	r3, .L26+40
  98 0054 9842     		cmp	r0, r3
  99 0056 48D0     		beq	.L25
 179:../../source/src/FWlib/src/stm32f10x_dma.c ****   {
ARM GAS  G:\Users\Jaxb\AppData\Local\Temp\cc5H68Wr.s 			page 6


 180:../../source/src/FWlib/src/stm32f10x_dma.c ****     /* Reset interrupt pending bits for DMA2 Channel4 */
 181:../../source/src/FWlib/src/stm32f10x_dma.c ****     DMA2->IFCR |= DMA2_Channel4_IT_Mask;
 182:../../source/src/FWlib/src/stm32f10x_dma.c ****   }
 183:../../source/src/FWlib/src/stm32f10x_dma.c ****   else
 184:../../source/src/FWlib/src/stm32f10x_dma.c ****   { 
 185:../../source/src/FWlib/src/stm32f10x_dma.c ****     if (DMAy_Channelx == DMA2_Channel5)
 100              		.loc 1 185 0
 101 0058 324B     		ldr	r3, .L26+44
 102 005a 9842     		cmp	r0, r3
 103 005c 0AD1     		bne	.L1
 186:../../source/src/FWlib/src/stm32f10x_dma.c ****     {
 187:../../source/src/FWlib/src/stm32f10x_dma.c ****       /* Reset interrupt pending bits for DMA2 Channel5 */
 188:../../source/src/FWlib/src/stm32f10x_dma.c ****       DMA2->IFCR |= DMA2_Channel5_IT_Mask;
 104              		.loc 1 188 0
 105 005e 324A     		ldr	r2, .L26+48
 106 0060 5368     		ldr	r3, [r2, #4]
 107 0062 43F47023 		orr	r3, r3, #983040
 108 0066 5360     		str	r3, [r2, #4]
 189:../../source/src/FWlib/src/stm32f10x_dma.c ****     }
 190:../../source/src/FWlib/src/stm32f10x_dma.c ****   }
 191:../../source/src/FWlib/src/stm32f10x_dma.c **** }
 109              		.loc 1 191 0
 110 0068 04E0     		b	.L1
 111              	.L15:
 131:../../source/src/FWlib/src/stm32f10x_dma.c ****   }
 112              		.loc 1 131 0
 113 006a 304A     		ldr	r2, .L26+52
 114 006c 5368     		ldr	r3, [r2, #4]
 115 006e 43F00F03 		orr	r3, r3, #15
 116 0072 5360     		str	r3, [r2, #4]
 117              	.L1:
 118              		.loc 1 191 0
 119 0074 10BC     		pop	{r4}
 120              	.LCFI1:
 121              		.cfi_remember_state
 122              		.cfi_restore 4
 123              		.cfi_def_cfa_offset 0
 124 0076 7047     		bx	lr
 125              	.L17:
 126              	.LCFI2:
 127              		.cfi_restore_state
 141:../../source/src/FWlib/src/stm32f10x_dma.c ****   }
 128              		.loc 1 141 0
 129 0078 2C4A     		ldr	r2, .L26+52
 130              		.loc 1 191 0
 131 007a 10BC     		pop	{r4}
 132              	.LCFI3:
 133              		.cfi_remember_state
 134              		.cfi_restore 4
 135              		.cfi_def_cfa_offset 0
 141:../../source/src/FWlib/src/stm32f10x_dma.c ****   }
 136              		.loc 1 141 0
 137 007c 5368     		ldr	r3, [r2, #4]
 138 007e 43F47063 		orr	r3, r3, #3840
 139 0082 5360     		str	r3, [r2, #4]
 140              		.loc 1 191 0
 141 0084 7047     		bx	lr
ARM GAS  G:\Users\Jaxb\AppData\Local\Temp\cc5H68Wr.s 			page 7


 142              	.L20:
 143              	.LCFI4:
 144              		.cfi_restore_state
 156:../../source/src/FWlib/src/stm32f10x_dma.c ****   }
 145              		.loc 1 156 0
 146 0086 294A     		ldr	r2, .L26+52
 147 0088 5368     		ldr	r3, [r2, #4]
 148 008a 43F47003 		orr	r3, r3, #15728640
 149 008e 5360     		str	r3, [r2, #4]
 150 0090 F0E7     		b	.L1
 151              	.L16:
 136:../../source/src/FWlib/src/stm32f10x_dma.c ****   }
 152              		.loc 1 136 0
 153 0092 264A     		ldr	r2, .L26+52
 154              		.loc 1 191 0
 155 0094 10BC     		pop	{r4}
 156              	.LCFI5:
 157              		.cfi_remember_state
 158              		.cfi_restore 4
 159              		.cfi_def_cfa_offset 0
 136:../../source/src/FWlib/src/stm32f10x_dma.c ****   }
 160              		.loc 1 136 0
 161 0096 5368     		ldr	r3, [r2, #4]
 162 0098 43F0F003 		orr	r3, r3, #240
 163 009c 5360     		str	r3, [r2, #4]
 164              		.loc 1 191 0
 165 009e 7047     		bx	lr
 166              	.L18:
 167              	.LCFI6:
 168              		.cfi_restore_state
 146:../../source/src/FWlib/src/stm32f10x_dma.c ****   }
 169              		.loc 1 146 0
 170 00a0 224A     		ldr	r2, .L26+52
 171              		.loc 1 191 0
 172 00a2 10BC     		pop	{r4}
 173              	.LCFI7:
 174              		.cfi_remember_state
 175              		.cfi_restore 4
 176              		.cfi_def_cfa_offset 0
 146:../../source/src/FWlib/src/stm32f10x_dma.c ****   }
 177              		.loc 1 146 0
 178 00a4 5368     		ldr	r3, [r2, #4]
 179 00a6 43F47043 		orr	r3, r3, #61440
 180 00aa 5360     		str	r3, [r2, #4]
 181              		.loc 1 191 0
 182 00ac 7047     		bx	lr
 183              	.L19:
 184              	.LCFI8:
 185              		.cfi_restore_state
 151:../../source/src/FWlib/src/stm32f10x_dma.c ****   }
 186              		.loc 1 151 0
 187 00ae 1F4A     		ldr	r2, .L26+52
 188 00b0 5368     		ldr	r3, [r2, #4]
 189 00b2 43F47023 		orr	r3, r3, #983040
 190 00b6 5360     		str	r3, [r2, #4]
 191 00b8 DCE7     		b	.L1
 192              	.L24:
ARM GAS  G:\Users\Jaxb\AppData\Local\Temp\cc5H68Wr.s 			page 8


 176:../../source/src/FWlib/src/stm32f10x_dma.c ****   }
 193              		.loc 1 176 0
 194 00ba 1B4A     		ldr	r2, .L26+48
 195 00bc 5368     		ldr	r3, [r2, #4]
 196 00be 43F47063 		orr	r3, r3, #3840
 197 00c2 5360     		str	r3, [r2, #4]
 198 00c4 D6E7     		b	.L1
 199              	.L21:
 161:../../source/src/FWlib/src/stm32f10x_dma.c ****   }
 200              		.loc 1 161 0
 201 00c6 194A     		ldr	r2, .L26+52
 202 00c8 5368     		ldr	r3, [r2, #4]
 203 00ca 43F07063 		orr	r3, r3, #251658240
 204 00ce 5360     		str	r3, [r2, #4]
 205 00d0 D0E7     		b	.L1
 206              	.L22:
 166:../../source/src/FWlib/src/stm32f10x_dma.c ****   }
 207              		.loc 1 166 0
 208 00d2 154A     		ldr	r2, .L26+48
 209 00d4 5368     		ldr	r3, [r2, #4]
 210 00d6 43F00F03 		orr	r3, r3, #15
 211 00da 5360     		str	r3, [r2, #4]
 212 00dc CAE7     		b	.L1
 213              	.L23:
 171:../../source/src/FWlib/src/stm32f10x_dma.c ****   }
 214              		.loc 1 171 0
 215 00de 124A     		ldr	r2, .L26+48
 216 00e0 5368     		ldr	r3, [r2, #4]
 217 00e2 43F0F003 		orr	r3, r3, #240
 218 00e6 5360     		str	r3, [r2, #4]
 219 00e8 C4E7     		b	.L1
 220              	.L25:
 181:../../source/src/FWlib/src/stm32f10x_dma.c ****   }
 221              		.loc 1 181 0
 222 00ea 0F4A     		ldr	r2, .L26+48
 223 00ec 5368     		ldr	r3, [r2, #4]
 224 00ee 43F47043 		orr	r3, r3, #61440
 225 00f2 5360     		str	r3, [r2, #4]
 226 00f4 BEE7     		b	.L1
 227              	.L27:
 228 00f6 00BF     		.align	2
 229              	.L26:
 230 00f8 08000240 		.word	1073872904
 231 00fc 1C000240 		.word	1073872924
 232 0100 30000240 		.word	1073872944
 233 0104 44000240 		.word	1073872964
 234 0108 58000240 		.word	1073872984
 235 010c 6C000240 		.word	1073873004
 236 0110 80000240 		.word	1073873024
 237 0114 08040240 		.word	1073873928
 238 0118 1C040240 		.word	1073873948
 239 011c 30040240 		.word	1073873968
 240 0120 44040240 		.word	1073873988
 241 0124 58040240 		.word	1073874008
 242 0128 00040240 		.word	1073873920
 243 012c 00000240 		.word	1073872896
 244              		.cfi_endproc
ARM GAS  G:\Users\Jaxb\AppData\Local\Temp\cc5H68Wr.s 			page 9


 245              	.LFE29:
 246              		.size	DMA_DeInit, .-DMA_DeInit
 247              		.align	1
 248              		.p2align 2,,3
 249              		.global	DMA_Init
 250              		.syntax unified
 251              		.thumb
 252              		.thumb_func
 253              		.fpu softvfp
 254              		.type	DMA_Init, %function
 255              	DMA_Init:
 256              	.LFB30:
 192:../../source/src/FWlib/src/stm32f10x_dma.c **** 
 193:../../source/src/FWlib/src/stm32f10x_dma.c **** /**
 194:../../source/src/FWlib/src/stm32f10x_dma.c ****   * @brief  Initializes the DMAy Channelx according to the specified
 195:../../source/src/FWlib/src/stm32f10x_dma.c ****   *         parameters in the DMA_InitStruct.
 196:../../source/src/FWlib/src/stm32f10x_dma.c ****   * @param  DMAy_Channelx: where y can be 1 or 2 to select the DMA and 
 197:../../source/src/FWlib/src/stm32f10x_dma.c ****   *   x can be 1 to 7 for DMA1 and 1 to 5 for DMA2 to select the DMA Channel.
 198:../../source/src/FWlib/src/stm32f10x_dma.c ****   * @param  DMA_InitStruct: pointer to a DMA_InitTypeDef structure that
 199:../../source/src/FWlib/src/stm32f10x_dma.c ****   *         contains the configuration information for the specified DMA Channel.
 200:../../source/src/FWlib/src/stm32f10x_dma.c ****   * @retval None
 201:../../source/src/FWlib/src/stm32f10x_dma.c ****   */
 202:../../source/src/FWlib/src/stm32f10x_dma.c **** void DMA_Init(DMA_Channel_TypeDef* DMAy_Channelx, DMA_InitTypeDef* DMA_InitStruct)
 203:../../source/src/FWlib/src/stm32f10x_dma.c **** {
 257              		.loc 1 203 0
 258              		.cfi_startproc
 259              		@ args = 0, pretend = 0, frame = 0
 260              		@ frame_needed = 0, uses_anonymous_args = 0
 261              		@ link register save eliminated.
 262              	.LVL1:
 204:../../source/src/FWlib/src/stm32f10x_dma.c ****   uint32_t tmpreg = 0;
 205:../../source/src/FWlib/src/stm32f10x_dma.c **** 
 206:../../source/src/FWlib/src/stm32f10x_dma.c ****   /* Check the parameters */
 207:../../source/src/FWlib/src/stm32f10x_dma.c ****   assert_param(IS_DMA_ALL_PERIPH(DMAy_Channelx));
 208:../../source/src/FWlib/src/stm32f10x_dma.c ****   assert_param(IS_DMA_DIR(DMA_InitStruct->DMA_DIR));
 209:../../source/src/FWlib/src/stm32f10x_dma.c ****   assert_param(IS_DMA_BUFFER_SIZE(DMA_InitStruct->DMA_BufferSize));
 210:../../source/src/FWlib/src/stm32f10x_dma.c ****   assert_param(IS_DMA_PERIPHERAL_INC_STATE(DMA_InitStruct->DMA_PeripheralInc));
 211:../../source/src/FWlib/src/stm32f10x_dma.c ****   assert_param(IS_DMA_MEMORY_INC_STATE(DMA_InitStruct->DMA_MemoryInc));   
 212:../../source/src/FWlib/src/stm32f10x_dma.c ****   assert_param(IS_DMA_PERIPHERAL_DATA_SIZE(DMA_InitStruct->DMA_PeripheralDataSize));
 213:../../source/src/FWlib/src/stm32f10x_dma.c ****   assert_param(IS_DMA_MEMORY_DATA_SIZE(DMA_InitStruct->DMA_MemoryDataSize));
 214:../../source/src/FWlib/src/stm32f10x_dma.c ****   assert_param(IS_DMA_MODE(DMA_InitStruct->DMA_Mode));
 215:../../source/src/FWlib/src/stm32f10x_dma.c ****   assert_param(IS_DMA_PRIORITY(DMA_InitStruct->DMA_Priority));
 216:../../source/src/FWlib/src/stm32f10x_dma.c ****   assert_param(IS_DMA_M2M_STATE(DMA_InitStruct->DMA_M2M));
 217:../../source/src/FWlib/src/stm32f10x_dma.c **** 
 218:../../source/src/FWlib/src/stm32f10x_dma.c **** /*--------------------------- DMAy Channelx CCR Configuration -----------------*/
 219:../../source/src/FWlib/src/stm32f10x_dma.c ****   /* Get the DMAy_Channelx CCR value */
 220:../../source/src/FWlib/src/stm32f10x_dma.c ****   tmpreg = DMAy_Channelx->CCR;
 221:../../source/src/FWlib/src/stm32f10x_dma.c ****   /* Clear MEM2MEM, PL, MSIZE, PSIZE, MINC, PINC, CIRC and DIR bits */
 222:../../source/src/FWlib/src/stm32f10x_dma.c ****   tmpreg &= CCR_CLEAR_Mask;
 223:../../source/src/FWlib/src/stm32f10x_dma.c ****   /* Configure DMAy Channelx: data transfer, data size, priority level and mode */
 224:../../source/src/FWlib/src/stm32f10x_dma.c ****   /* Set DIR bit according to DMA_DIR value */
 225:../../source/src/FWlib/src/stm32f10x_dma.c ****   /* Set CIRC bit according to DMA_Mode value */
 226:../../source/src/FWlib/src/stm32f10x_dma.c ****   /* Set PINC bit according to DMA_PeripheralInc value */
 227:../../source/src/FWlib/src/stm32f10x_dma.c ****   /* Set MINC bit according to DMA_MemoryInc value */
 228:../../source/src/FWlib/src/stm32f10x_dma.c ****   /* Set PSIZE bits according to DMA_PeripheralDataSize value */
 229:../../source/src/FWlib/src/stm32f10x_dma.c ****   /* Set MSIZE bits according to DMA_MemoryDataSize value */
 230:../../source/src/FWlib/src/stm32f10x_dma.c ****   /* Set PL bits according to DMA_Priority value */
ARM GAS  G:\Users\Jaxb\AppData\Local\Temp\cc5H68Wr.s 			page 10


 231:../../source/src/FWlib/src/stm32f10x_dma.c ****   /* Set the MEM2MEM bit according to DMA_M2M value */
 232:../../source/src/FWlib/src/stm32f10x_dma.c ****   tmpreg |= DMA_InitStruct->DMA_DIR | DMA_InitStruct->DMA_Mode |
 263              		.loc 1 232 0
 264 0130 8B68     		ldr	r3, [r1, #8]
 203:../../source/src/FWlib/src/stm32f10x_dma.c ****   uint32_t tmpreg = 0;
 265              		.loc 1 203 0
 266 0132 30B4     		push	{r4, r5}
 267              	.LCFI9:
 268              		.cfi_def_cfa_offset 8
 269              		.cfi_offset 4, -8
 270              		.cfi_offset 5, -4
 271              		.loc 1 232 0
 272 0134 0C6A     		ldr	r4, [r1, #32]
 273 0136 0A69     		ldr	r2, [r1, #16]
 274 0138 2343     		orrs	r3, r3, r4
 233:../../source/src/FWlib/src/stm32f10x_dma.c ****             DMA_InitStruct->DMA_PeripheralInc | DMA_InitStruct->DMA_MemoryInc |
 275              		.loc 1 233 0
 276 013a 4C69     		ldr	r4, [r1, #20]
 232:../../source/src/FWlib/src/stm32f10x_dma.c ****             DMA_InitStruct->DMA_PeripheralInc | DMA_InitStruct->DMA_MemoryInc |
 277              		.loc 1 232 0
 278 013c 1343     		orrs	r3, r3, r2
 279              		.loc 1 233 0
 280 013e 8A69     		ldr	r2, [r1, #24]
 281 0140 2343     		orrs	r3, r3, r4
 234:../../source/src/FWlib/src/stm32f10x_dma.c ****             DMA_InitStruct->DMA_PeripheralDataSize | DMA_InitStruct->DMA_MemoryDataSize |
 282              		.loc 1 234 0
 283 0142 CC69     		ldr	r4, [r1, #28]
 284 0144 4D6A     		ldr	r5, [r1, #36]
 233:../../source/src/FWlib/src/stm32f10x_dma.c ****             DMA_InitStruct->DMA_PeripheralInc | DMA_InitStruct->DMA_MemoryInc |
 285              		.loc 1 233 0
 286 0146 1343     		orrs	r3, r3, r2
 220:../../source/src/FWlib/src/stm32f10x_dma.c ****   /* Clear MEM2MEM, PL, MSIZE, PSIZE, MINC, PINC, CIRC and DIR bits */
 287              		.loc 1 220 0
 288 0148 0268     		ldr	r2, [r0]
 289              	.LVL2:
 290              		.loc 1 234 0
 291 014a 2343     		orrs	r3, r3, r4
 235:../../source/src/FWlib/src/stm32f10x_dma.c ****             DMA_InitStruct->DMA_Priority | DMA_InitStruct->DMA_M2M;
 292              		.loc 1 235 0
 293 014c 8C6A     		ldr	r4, [r1, #40]
 234:../../source/src/FWlib/src/stm32f10x_dma.c ****             DMA_InitStruct->DMA_PeripheralDataSize | DMA_InitStruct->DMA_MemoryDataSize |
 294              		.loc 1 234 0
 295 014e 2B43     		orrs	r3, r3, r5
 222:../../source/src/FWlib/src/stm32f10x_dma.c ****   /* Configure DMAy Channelx: data transfer, data size, priority level and mode */
 296              		.loc 1 222 0
 297 0150 22F4FF42 		bic	r2, r2, #32640
 298              	.LVL3:
 236:../../source/src/FWlib/src/stm32f10x_dma.c **** 
 237:../../source/src/FWlib/src/stm32f10x_dma.c ****   /* Write to DMAy Channelx CCR */
 238:../../source/src/FWlib/src/stm32f10x_dma.c ****   DMAy_Channelx->CCR = tmpreg;
 239:../../source/src/FWlib/src/stm32f10x_dma.c **** 
 240:../../source/src/FWlib/src/stm32f10x_dma.c **** /*--------------------------- DMAy Channelx CNDTR Configuration ---------------*/
 241:../../source/src/FWlib/src/stm32f10x_dma.c ****   /* Write to DMAy Channelx CNDTR */
 242:../../source/src/FWlib/src/stm32f10x_dma.c ****   DMAy_Channelx->CNDTR = DMA_InitStruct->DMA_BufferSize;
 299              		.loc 1 242 0
 300 0154 CD68     		ldr	r5, [r1, #12]
 235:../../source/src/FWlib/src/stm32f10x_dma.c **** 
ARM GAS  G:\Users\Jaxb\AppData\Local\Temp\cc5H68Wr.s 			page 11


 301              		.loc 1 235 0
 302 0156 2343     		orrs	r3, r3, r4
 222:../../source/src/FWlib/src/stm32f10x_dma.c ****   /* Configure DMAy Channelx: data transfer, data size, priority level and mode */
 303              		.loc 1 222 0
 304 0158 22F07002 		bic	r2, r2, #112
 305              	.LVL4:
 232:../../source/src/FWlib/src/stm32f10x_dma.c ****             DMA_InitStruct->DMA_PeripheralInc | DMA_InitStruct->DMA_MemoryInc |
 306              		.loc 1 232 0
 307 015c 1343     		orrs	r3, r3, r2
 308              	.LVL5:
 243:../../source/src/FWlib/src/stm32f10x_dma.c **** 
 244:../../source/src/FWlib/src/stm32f10x_dma.c **** /*--------------------------- DMAy Channelx CPAR Configuration ----------------*/
 245:../../source/src/FWlib/src/stm32f10x_dma.c ****   /* Write to DMAy Channelx CPAR */
 246:../../source/src/FWlib/src/stm32f10x_dma.c ****   DMAy_Channelx->CPAR = DMA_InitStruct->DMA_PeripheralBaseAddr;
 247:../../source/src/FWlib/src/stm32f10x_dma.c **** 
 248:../../source/src/FWlib/src/stm32f10x_dma.c **** /*--------------------------- DMAy Channelx CMAR Configuration ----------------*/
 249:../../source/src/FWlib/src/stm32f10x_dma.c ****   /* Write to DMAy Channelx CMAR */
 250:../../source/src/FWlib/src/stm32f10x_dma.c ****   DMAy_Channelx->CMAR = DMA_InitStruct->DMA_MemoryBaseAddr;
 309              		.loc 1 250 0
 310 015e D1E90041 		ldrd	r4, r1, [r1]
 311              	.LVL6:
 238:../../source/src/FWlib/src/stm32f10x_dma.c **** 
 312              		.loc 1 238 0
 313 0162 0360     		str	r3, [r0]
 242:../../source/src/FWlib/src/stm32f10x_dma.c **** 
 314              		.loc 1 242 0
 315 0164 4560     		str	r5, [r0, #4]
 246:../../source/src/FWlib/src/stm32f10x_dma.c **** 
 316              		.loc 1 246 0
 317 0166 8460     		str	r4, [r0, #8]
 318              		.loc 1 250 0
 319 0168 C160     		str	r1, [r0, #12]
 251:../../source/src/FWlib/src/stm32f10x_dma.c **** }
 320              		.loc 1 251 0
 321 016a 30BC     		pop	{r4, r5}
 322              	.LCFI10:
 323              		.cfi_restore 5
 324              		.cfi_restore 4
 325              		.cfi_def_cfa_offset 0
 326 016c 7047     		bx	lr
 327              		.cfi_endproc
 328              	.LFE30:
 329              		.size	DMA_Init, .-DMA_Init
 330              		.align	1
 331 016e 00BF     		.p2align 2,,3
 332              		.global	DMA_StructInit
 333              		.syntax unified
 334              		.thumb
 335              		.thumb_func
 336              		.fpu softvfp
 337              		.type	DMA_StructInit, %function
 338              	DMA_StructInit:
 339              	.LFB31:
 252:../../source/src/FWlib/src/stm32f10x_dma.c **** 
 253:../../source/src/FWlib/src/stm32f10x_dma.c **** /**
 254:../../source/src/FWlib/src/stm32f10x_dma.c ****   * @brief  Fills each DMA_InitStruct member with its default value.
 255:../../source/src/FWlib/src/stm32f10x_dma.c ****   * @param  DMA_InitStruct : pointer to a DMA_InitTypeDef structure which will
ARM GAS  G:\Users\Jaxb\AppData\Local\Temp\cc5H68Wr.s 			page 12


 256:../../source/src/FWlib/src/stm32f10x_dma.c ****   *         be initialized.
 257:../../source/src/FWlib/src/stm32f10x_dma.c ****   * @retval None
 258:../../source/src/FWlib/src/stm32f10x_dma.c ****   */
 259:../../source/src/FWlib/src/stm32f10x_dma.c **** void DMA_StructInit(DMA_InitTypeDef* DMA_InitStruct)
 260:../../source/src/FWlib/src/stm32f10x_dma.c **** {
 340              		.loc 1 260 0
 341              		.cfi_startproc
 342              		@ args = 0, pretend = 0, frame = 0
 343              		@ frame_needed = 0, uses_anonymous_args = 0
 344              		@ link register save eliminated.
 345              	.LVL7:
 261:../../source/src/FWlib/src/stm32f10x_dma.c **** /*-------------- Reset DMA init structure parameters values ------------------*/
 262:../../source/src/FWlib/src/stm32f10x_dma.c ****   /* Initialize the DMA_PeripheralBaseAddr member */
 263:../../source/src/FWlib/src/stm32f10x_dma.c ****   DMA_InitStruct->DMA_PeripheralBaseAddr = 0;
 346              		.loc 1 263 0
 347 0170 0023     		movs	r3, #0
 264:../../source/src/FWlib/src/stm32f10x_dma.c ****   /* Initialize the DMA_MemoryBaseAddr member */
 265:../../source/src/FWlib/src/stm32f10x_dma.c ****   DMA_InitStruct->DMA_MemoryBaseAddr = 0;
 348              		.loc 1 265 0
 349 0172 C0E90033 		strd	r3, r3, [r0]
 266:../../source/src/FWlib/src/stm32f10x_dma.c ****   /* Initialize the DMA_DIR member */
 267:../../source/src/FWlib/src/stm32f10x_dma.c ****   DMA_InitStruct->DMA_DIR = DMA_DIR_PeripheralSRC;
 268:../../source/src/FWlib/src/stm32f10x_dma.c ****   /* Initialize the DMA_BufferSize member */
 269:../../source/src/FWlib/src/stm32f10x_dma.c ****   DMA_InitStruct->DMA_BufferSize = 0;
 350              		.loc 1 269 0
 351 0176 C0E90233 		strd	r3, r3, [r0, #8]
 270:../../source/src/FWlib/src/stm32f10x_dma.c ****   /* Initialize the DMA_PeripheralInc member */
 271:../../source/src/FWlib/src/stm32f10x_dma.c ****   DMA_InitStruct->DMA_PeripheralInc = DMA_PeripheralInc_Disable;
 272:../../source/src/FWlib/src/stm32f10x_dma.c ****   /* Initialize the DMA_MemoryInc member */
 273:../../source/src/FWlib/src/stm32f10x_dma.c ****   DMA_InitStruct->DMA_MemoryInc = DMA_MemoryInc_Disable;
 352              		.loc 1 273 0
 353 017a C0E90433 		strd	r3, r3, [r0, #16]
 274:../../source/src/FWlib/src/stm32f10x_dma.c ****   /* Initialize the DMA_PeripheralDataSize member */
 275:../../source/src/FWlib/src/stm32f10x_dma.c ****   DMA_InitStruct->DMA_PeripheralDataSize = DMA_PeripheralDataSize_Byte;
 276:../../source/src/FWlib/src/stm32f10x_dma.c ****   /* Initialize the DMA_MemoryDataSize member */
 277:../../source/src/FWlib/src/stm32f10x_dma.c ****   DMA_InitStruct->DMA_MemoryDataSize = DMA_MemoryDataSize_Byte;
 354              		.loc 1 277 0
 355 017e C0E90633 		strd	r3, r3, [r0, #24]
 278:../../source/src/FWlib/src/stm32f10x_dma.c ****   /* Initialize the DMA_Mode member */
 279:../../source/src/FWlib/src/stm32f10x_dma.c ****   DMA_InitStruct->DMA_Mode = DMA_Mode_Normal;
 280:../../source/src/FWlib/src/stm32f10x_dma.c ****   /* Initialize the DMA_Priority member */
 281:../../source/src/FWlib/src/stm32f10x_dma.c ****   DMA_InitStruct->DMA_Priority = DMA_Priority_Low;
 356              		.loc 1 281 0
 357 0182 C0E90833 		strd	r3, r3, [r0, #32]
 282:../../source/src/FWlib/src/stm32f10x_dma.c ****   /* Initialize the DMA_M2M member */
 283:../../source/src/FWlib/src/stm32f10x_dma.c ****   DMA_InitStruct->DMA_M2M = DMA_M2M_Disable;
 358              		.loc 1 283 0
 359 0186 8362     		str	r3, [r0, #40]
 284:../../source/src/FWlib/src/stm32f10x_dma.c **** }
 360              		.loc 1 284 0
 361 0188 7047     		bx	lr
 362              		.cfi_endproc
 363              	.LFE31:
 364              		.size	DMA_StructInit, .-DMA_StructInit
 365              		.align	1
 366 018a 00BF     		.p2align 2,,3
 367              		.global	DMA_Cmd
ARM GAS  G:\Users\Jaxb\AppData\Local\Temp\cc5H68Wr.s 			page 13


 368              		.syntax unified
 369              		.thumb
 370              		.thumb_func
 371              		.fpu softvfp
 372              		.type	DMA_Cmd, %function
 373              	DMA_Cmd:
 374              	.LFB32:
 285:../../source/src/FWlib/src/stm32f10x_dma.c **** 
 286:../../source/src/FWlib/src/stm32f10x_dma.c **** /**
 287:../../source/src/FWlib/src/stm32f10x_dma.c ****   * @brief  Enables or disables the specified DMAy Channelx.
 288:../../source/src/FWlib/src/stm32f10x_dma.c ****   * @param  DMAy_Channelx: where y can be 1 or 2 to select the DMA and 
 289:../../source/src/FWlib/src/stm32f10x_dma.c ****   *   x can be 1 to 7 for DMA1 and 1 to 5 for DMA2 to select the DMA Channel.
 290:../../source/src/FWlib/src/stm32f10x_dma.c ****   * @param  NewState: new state of the DMAy Channelx. 
 291:../../source/src/FWlib/src/stm32f10x_dma.c ****   *   This parameter can be: ENABLE or DISABLE.
 292:../../source/src/FWlib/src/stm32f10x_dma.c ****   * @retval None
 293:../../source/src/FWlib/src/stm32f10x_dma.c ****   */
 294:../../source/src/FWlib/src/stm32f10x_dma.c **** void DMA_Cmd(DMA_Channel_TypeDef* DMAy_Channelx, FunctionalState NewState)
 295:../../source/src/FWlib/src/stm32f10x_dma.c **** {
 375              		.loc 1 295 0
 376              		.cfi_startproc
 377              		@ args = 0, pretend = 0, frame = 0
 378              		@ frame_needed = 0, uses_anonymous_args = 0
 379              		@ link register save eliminated.
 380              	.LVL8:
 296:../../source/src/FWlib/src/stm32f10x_dma.c ****   /* Check the parameters */
 297:../../source/src/FWlib/src/stm32f10x_dma.c ****   assert_param(IS_DMA_ALL_PERIPH(DMAy_Channelx));
 298:../../source/src/FWlib/src/stm32f10x_dma.c ****   assert_param(IS_FUNCTIONAL_STATE(NewState));
 299:../../source/src/FWlib/src/stm32f10x_dma.c **** 
 300:../../source/src/FWlib/src/stm32f10x_dma.c ****   if (NewState != DISABLE)
 381              		.loc 1 300 0
 382 018c 29B9     		cbnz	r1, .L33
 301:../../source/src/FWlib/src/stm32f10x_dma.c ****   {
 302:../../source/src/FWlib/src/stm32f10x_dma.c ****     /* Enable the selected DMAy Channelx */
 303:../../source/src/FWlib/src/stm32f10x_dma.c ****     DMAy_Channelx->CCR |= DMA_CCR1_EN;
 304:../../source/src/FWlib/src/stm32f10x_dma.c ****   }
 305:../../source/src/FWlib/src/stm32f10x_dma.c ****   else
 306:../../source/src/FWlib/src/stm32f10x_dma.c ****   {
 307:../../source/src/FWlib/src/stm32f10x_dma.c ****     /* Disable the selected DMAy Channelx */
 308:../../source/src/FWlib/src/stm32f10x_dma.c ****     DMAy_Channelx->CCR &= (uint16_t)(~DMA_CCR1_EN);
 383              		.loc 1 308 0
 384 018e 4FF6FE72 		movw	r2, #65534
 385 0192 0368     		ldr	r3, [r0]
 386 0194 1340     		ands	r3, r3, r2
 387 0196 0360     		str	r3, [r0]
 309:../../source/src/FWlib/src/stm32f10x_dma.c ****   }
 310:../../source/src/FWlib/src/stm32f10x_dma.c **** }
 388              		.loc 1 310 0
 389 0198 7047     		bx	lr
 390              	.L33:
 303:../../source/src/FWlib/src/stm32f10x_dma.c ****   }
 391              		.loc 1 303 0
 392 019a 0368     		ldr	r3, [r0]
 393 019c 43F00103 		orr	r3, r3, #1
 394 01a0 0360     		str	r3, [r0]
 395 01a2 7047     		bx	lr
 396              		.cfi_endproc
 397              	.LFE32:
ARM GAS  G:\Users\Jaxb\AppData\Local\Temp\cc5H68Wr.s 			page 14


 398              		.size	DMA_Cmd, .-DMA_Cmd
 399              		.align	1
 400              		.p2align 2,,3
 401              		.global	DMA_ITConfig
 402              		.syntax unified
 403              		.thumb
 404              		.thumb_func
 405              		.fpu softvfp
 406              		.type	DMA_ITConfig, %function
 407              	DMA_ITConfig:
 408              	.LFB33:
 311:../../source/src/FWlib/src/stm32f10x_dma.c **** 
 312:../../source/src/FWlib/src/stm32f10x_dma.c **** /**
 313:../../source/src/FWlib/src/stm32f10x_dma.c ****   * @brief  Enables or disables the specified DMAy Channelx interrupts.
 314:../../source/src/FWlib/src/stm32f10x_dma.c ****   * @param  DMAy_Channelx: where y can be 1 or 2 to select the DMA and 
 315:../../source/src/FWlib/src/stm32f10x_dma.c ****   *   x can be 1 to 7 for DMA1 and 1 to 5 for DMA2 to select the DMA Channel.
 316:../../source/src/FWlib/src/stm32f10x_dma.c ****   * @param  DMA_IT: specifies the DMA interrupts sources to be enabled
 317:../../source/src/FWlib/src/stm32f10x_dma.c ****   *   or disabled. 
 318:../../source/src/FWlib/src/stm32f10x_dma.c ****   *   This parameter can be any combination of the following values:
 319:../../source/src/FWlib/src/stm32f10x_dma.c ****   *     @arg DMA_IT_TC:  Transfer complete interrupt mask
 320:../../source/src/FWlib/src/stm32f10x_dma.c ****   *     @arg DMA_IT_HT:  Half transfer interrupt mask
 321:../../source/src/FWlib/src/stm32f10x_dma.c ****   *     @arg DMA_IT_TE:  Transfer error interrupt mask
 322:../../source/src/FWlib/src/stm32f10x_dma.c ****   * @param  NewState: new state of the specified DMA interrupts.
 323:../../source/src/FWlib/src/stm32f10x_dma.c ****   *   This parameter can be: ENABLE or DISABLE.
 324:../../source/src/FWlib/src/stm32f10x_dma.c ****   * @retval None
 325:../../source/src/FWlib/src/stm32f10x_dma.c ****   */
 326:../../source/src/FWlib/src/stm32f10x_dma.c **** void DMA_ITConfig(DMA_Channel_TypeDef* DMAy_Channelx, uint32_t DMA_IT, FunctionalState NewState)
 327:../../source/src/FWlib/src/stm32f10x_dma.c **** {
 409              		.loc 1 327 0
 410              		.cfi_startproc
 411              		@ args = 0, pretend = 0, frame = 0
 412              		@ frame_needed = 0, uses_anonymous_args = 0
 413              		@ link register save eliminated.
 414              	.LVL9:
 328:../../source/src/FWlib/src/stm32f10x_dma.c ****   /* Check the parameters */
 329:../../source/src/FWlib/src/stm32f10x_dma.c ****   assert_param(IS_DMA_ALL_PERIPH(DMAy_Channelx));
 330:../../source/src/FWlib/src/stm32f10x_dma.c ****   assert_param(IS_DMA_CONFIG_IT(DMA_IT));
 331:../../source/src/FWlib/src/stm32f10x_dma.c ****   assert_param(IS_FUNCTIONAL_STATE(NewState));
 332:../../source/src/FWlib/src/stm32f10x_dma.c ****   if (NewState != DISABLE)
 333:../../source/src/FWlib/src/stm32f10x_dma.c ****   {
 334:../../source/src/FWlib/src/stm32f10x_dma.c ****     /* Enable the selected DMA interrupts */
 335:../../source/src/FWlib/src/stm32f10x_dma.c ****     DMAy_Channelx->CCR |= DMA_IT;
 415              		.loc 1 335 0
 416 01a4 0368     		ldr	r3, [r0]
 332:../../source/src/FWlib/src/stm32f10x_dma.c ****   {
 417              		.loc 1 332 0
 418 01a6 1AB9     		cbnz	r2, .L37
 336:../../source/src/FWlib/src/stm32f10x_dma.c ****   }
 337:../../source/src/FWlib/src/stm32f10x_dma.c ****   else
 338:../../source/src/FWlib/src/stm32f10x_dma.c ****   {
 339:../../source/src/FWlib/src/stm32f10x_dma.c ****     /* Disable the selected DMA interrupts */
 340:../../source/src/FWlib/src/stm32f10x_dma.c ****     DMAy_Channelx->CCR &= ~DMA_IT;
 419              		.loc 1 340 0
 420 01a8 23EA0101 		bic	r1, r3, r1
 421              	.LVL10:
 422 01ac 0160     		str	r1, [r0]
 341:../../source/src/FWlib/src/stm32f10x_dma.c ****   }
ARM GAS  G:\Users\Jaxb\AppData\Local\Temp\cc5H68Wr.s 			page 15


 342:../../source/src/FWlib/src/stm32f10x_dma.c **** }
 423              		.loc 1 342 0
 424 01ae 7047     		bx	lr
 425              	.LVL11:
 426              	.L37:
 335:../../source/src/FWlib/src/stm32f10x_dma.c ****   }
 427              		.loc 1 335 0
 428 01b0 1943     		orrs	r1, r1, r3
 429              	.LVL12:
 430 01b2 0160     		str	r1, [r0]
 431 01b4 7047     		bx	lr
 432              		.cfi_endproc
 433              	.LFE33:
 434              		.size	DMA_ITConfig, .-DMA_ITConfig
 435              		.align	1
 436 01b6 00BF     		.p2align 2,,3
 437              		.global	DMA_SetCurrDataCounter
 438              		.syntax unified
 439              		.thumb
 440              		.thumb_func
 441              		.fpu softvfp
 442              		.type	DMA_SetCurrDataCounter, %function
 443              	DMA_SetCurrDataCounter:
 444              	.LFB34:
 343:../../source/src/FWlib/src/stm32f10x_dma.c **** 
 344:../../source/src/FWlib/src/stm32f10x_dma.c **** /**
 345:../../source/src/FWlib/src/stm32f10x_dma.c ****   * @brief  Sets the number of data units in the current DMAy Channelx transfer.
 346:../../source/src/FWlib/src/stm32f10x_dma.c ****   * @param  DMAy_Channelx: where y can be 1 or 2 to select the DMA and 
 347:../../source/src/FWlib/src/stm32f10x_dma.c ****   *         x can be 1 to 7 for DMA1 and 1 to 5 for DMA2 to select the DMA Channel.
 348:../../source/src/FWlib/src/stm32f10x_dma.c ****   * @param  DataNumber: The number of data units in the current DMAy Channelx
 349:../../source/src/FWlib/src/stm32f10x_dma.c ****   *         transfer.   
 350:../../source/src/FWlib/src/stm32f10x_dma.c ****   * @note   This function can only be used when the DMAy_Channelx is disabled.                 
 351:../../source/src/FWlib/src/stm32f10x_dma.c ****   * @retval None.
 352:../../source/src/FWlib/src/stm32f10x_dma.c ****   */
 353:../../source/src/FWlib/src/stm32f10x_dma.c **** void DMA_SetCurrDataCounter(DMA_Channel_TypeDef* DMAy_Channelx, uint16_t DataNumber)
 354:../../source/src/FWlib/src/stm32f10x_dma.c **** {
 445              		.loc 1 354 0
 446              		.cfi_startproc
 447              		@ args = 0, pretend = 0, frame = 0
 448              		@ frame_needed = 0, uses_anonymous_args = 0
 449              		@ link register save eliminated.
 450              	.LVL13:
 355:../../source/src/FWlib/src/stm32f10x_dma.c ****   /* Check the parameters */
 356:../../source/src/FWlib/src/stm32f10x_dma.c ****   assert_param(IS_DMA_ALL_PERIPH(DMAy_Channelx));
 357:../../source/src/FWlib/src/stm32f10x_dma.c ****   
 358:../../source/src/FWlib/src/stm32f10x_dma.c **** /*--------------------------- DMAy Channelx CNDTR Configuration ---------------*/
 359:../../source/src/FWlib/src/stm32f10x_dma.c ****   /* Write to DMAy Channelx CNDTR */
 360:../../source/src/FWlib/src/stm32f10x_dma.c ****   DMAy_Channelx->CNDTR = DataNumber;  
 451              		.loc 1 360 0
 452 01b8 4160     		str	r1, [r0, #4]
 361:../../source/src/FWlib/src/stm32f10x_dma.c **** }
 453              		.loc 1 361 0
 454 01ba 7047     		bx	lr
 455              		.cfi_endproc
 456              	.LFE34:
 457              		.size	DMA_SetCurrDataCounter, .-DMA_SetCurrDataCounter
 458              		.align	1
ARM GAS  G:\Users\Jaxb\AppData\Local\Temp\cc5H68Wr.s 			page 16


 459              		.p2align 2,,3
 460              		.global	DMA_GetCurrDataCounter
 461              		.syntax unified
 462              		.thumb
 463              		.thumb_func
 464              		.fpu softvfp
 465              		.type	DMA_GetCurrDataCounter, %function
 466              	DMA_GetCurrDataCounter:
 467              	.LFB35:
 362:../../source/src/FWlib/src/stm32f10x_dma.c **** 
 363:../../source/src/FWlib/src/stm32f10x_dma.c **** /**
 364:../../source/src/FWlib/src/stm32f10x_dma.c ****   * @brief  Returns the number of remaining data units in the current
 365:../../source/src/FWlib/src/stm32f10x_dma.c ****   *         DMAy Channelx transfer.
 366:../../source/src/FWlib/src/stm32f10x_dma.c ****   * @param  DMAy_Channelx: where y can be 1 or 2 to select the DMA and 
 367:../../source/src/FWlib/src/stm32f10x_dma.c ****   *   x can be 1 to 7 for DMA1 and 1 to 5 for DMA2 to select the DMA Channel.
 368:../../source/src/FWlib/src/stm32f10x_dma.c ****   * @retval The number of remaining data units in the current DMAy Channelx
 369:../../source/src/FWlib/src/stm32f10x_dma.c ****   *         transfer.
 370:../../source/src/FWlib/src/stm32f10x_dma.c ****   */
 371:../../source/src/FWlib/src/stm32f10x_dma.c **** uint16_t DMA_GetCurrDataCounter(DMA_Channel_TypeDef* DMAy_Channelx)
 372:../../source/src/FWlib/src/stm32f10x_dma.c **** {
 468              		.loc 1 372 0
 469              		.cfi_startproc
 470              		@ args = 0, pretend = 0, frame = 0
 471              		@ frame_needed = 0, uses_anonymous_args = 0
 472              		@ link register save eliminated.
 473              	.LVL14:
 373:../../source/src/FWlib/src/stm32f10x_dma.c ****   /* Check the parameters */
 374:../../source/src/FWlib/src/stm32f10x_dma.c ****   assert_param(IS_DMA_ALL_PERIPH(DMAy_Channelx));
 375:../../source/src/FWlib/src/stm32f10x_dma.c ****   /* Return the number of remaining data units for DMAy Channelx */
 376:../../source/src/FWlib/src/stm32f10x_dma.c ****   return ((uint16_t)(DMAy_Channelx->CNDTR));
 474              		.loc 1 376 0
 475 01bc 4068     		ldr	r0, [r0, #4]
 476              	.LVL15:
 377:../../source/src/FWlib/src/stm32f10x_dma.c **** }
 477              		.loc 1 377 0
 478 01be 80B2     		uxth	r0, r0
 479 01c0 7047     		bx	lr
 480              		.cfi_endproc
 481              	.LFE35:
 482              		.size	DMA_GetCurrDataCounter, .-DMA_GetCurrDataCounter
 483              		.align	1
 484 01c2 00BF     		.p2align 2,,3
 485              		.global	DMA_GetFlagStatus
 486              		.syntax unified
 487              		.thumb
 488              		.thumb_func
 489              		.fpu softvfp
 490              		.type	DMA_GetFlagStatus, %function
 491              	DMA_GetFlagStatus:
 492              	.LFB36:
 378:../../source/src/FWlib/src/stm32f10x_dma.c **** 
 379:../../source/src/FWlib/src/stm32f10x_dma.c **** /**
 380:../../source/src/FWlib/src/stm32f10x_dma.c ****   * @brief  Checks whether the specified DMAy Channelx flag is set or not.
 381:../../source/src/FWlib/src/stm32f10x_dma.c ****   * @param  DMAy_FLAG: specifies the flag to check.
 382:../../source/src/FWlib/src/stm32f10x_dma.c ****   *   This parameter can be one of the following values:
 383:../../source/src/FWlib/src/stm32f10x_dma.c ****   *     @arg DMA1_FLAG_GL1: DMA1 Channel1 global flag.
 384:../../source/src/FWlib/src/stm32f10x_dma.c ****   *     @arg DMA1_FLAG_TC1: DMA1 Channel1 transfer complete flag.
ARM GAS  G:\Users\Jaxb\AppData\Local\Temp\cc5H68Wr.s 			page 17


 385:../../source/src/FWlib/src/stm32f10x_dma.c ****   *     @arg DMA1_FLAG_HT1: DMA1 Channel1 half transfer flag.
 386:../../source/src/FWlib/src/stm32f10x_dma.c ****   *     @arg DMA1_FLAG_TE1: DMA1 Channel1 transfer error flag.
 387:../../source/src/FWlib/src/stm32f10x_dma.c ****   *     @arg DMA1_FLAG_GL2: DMA1 Channel2 global flag.
 388:../../source/src/FWlib/src/stm32f10x_dma.c ****   *     @arg DMA1_FLAG_TC2: DMA1 Channel2 transfer complete flag.
 389:../../source/src/FWlib/src/stm32f10x_dma.c ****   *     @arg DMA1_FLAG_HT2: DMA1 Channel2 half transfer flag.
 390:../../source/src/FWlib/src/stm32f10x_dma.c ****   *     @arg DMA1_FLAG_TE2: DMA1 Channel2 transfer error flag.
 391:../../source/src/FWlib/src/stm32f10x_dma.c ****   *     @arg DMA1_FLAG_GL3: DMA1 Channel3 global flag.
 392:../../source/src/FWlib/src/stm32f10x_dma.c ****   *     @arg DMA1_FLAG_TC3: DMA1 Channel3 transfer complete flag.
 393:../../source/src/FWlib/src/stm32f10x_dma.c ****   *     @arg DMA1_FLAG_HT3: DMA1 Channel3 half transfer flag.
 394:../../source/src/FWlib/src/stm32f10x_dma.c ****   *     @arg DMA1_FLAG_TE3: DMA1 Channel3 transfer error flag.
 395:../../source/src/FWlib/src/stm32f10x_dma.c ****   *     @arg DMA1_FLAG_GL4: DMA1 Channel4 global flag.
 396:../../source/src/FWlib/src/stm32f10x_dma.c ****   *     @arg DMA1_FLAG_TC4: DMA1 Channel4 transfer complete flag.
 397:../../source/src/FWlib/src/stm32f10x_dma.c ****   *     @arg DMA1_FLAG_HT4: DMA1 Channel4 half transfer flag.
 398:../../source/src/FWlib/src/stm32f10x_dma.c ****   *     @arg DMA1_FLAG_TE4: DMA1 Channel4 transfer error flag.
 399:../../source/src/FWlib/src/stm32f10x_dma.c ****   *     @arg DMA1_FLAG_GL5: DMA1 Channel5 global flag.
 400:../../source/src/FWlib/src/stm32f10x_dma.c ****   *     @arg DMA1_FLAG_TC5: DMA1 Channel5 transfer complete flag.
 401:../../source/src/FWlib/src/stm32f10x_dma.c ****   *     @arg DMA1_FLAG_HT5: DMA1 Channel5 half transfer flag.
 402:../../source/src/FWlib/src/stm32f10x_dma.c ****   *     @arg DMA1_FLAG_TE5: DMA1 Channel5 transfer error flag.
 403:../../source/src/FWlib/src/stm32f10x_dma.c ****   *     @arg DMA1_FLAG_GL6: DMA1 Channel6 global flag.
 404:../../source/src/FWlib/src/stm32f10x_dma.c ****   *     @arg DMA1_FLAG_TC6: DMA1 Channel6 transfer complete flag.
 405:../../source/src/FWlib/src/stm32f10x_dma.c ****   *     @arg DMA1_FLAG_HT6: DMA1 Channel6 half transfer flag.
 406:../../source/src/FWlib/src/stm32f10x_dma.c ****   *     @arg DMA1_FLAG_TE6: DMA1 Channel6 transfer error flag.
 407:../../source/src/FWlib/src/stm32f10x_dma.c ****   *     @arg DMA1_FLAG_GL7: DMA1 Channel7 global flag.
 408:../../source/src/FWlib/src/stm32f10x_dma.c ****   *     @arg DMA1_FLAG_TC7: DMA1 Channel7 transfer complete flag.
 409:../../source/src/FWlib/src/stm32f10x_dma.c ****   *     @arg DMA1_FLAG_HT7: DMA1 Channel7 half transfer flag.
 410:../../source/src/FWlib/src/stm32f10x_dma.c ****   *     @arg DMA1_FLAG_TE7: DMA1 Channel7 transfer error flag.
 411:../../source/src/FWlib/src/stm32f10x_dma.c ****   *     @arg DMA2_FLAG_GL1: DMA2 Channel1 global flag.
 412:../../source/src/FWlib/src/stm32f10x_dma.c ****   *     @arg DMA2_FLAG_TC1: DMA2 Channel1 transfer complete flag.
 413:../../source/src/FWlib/src/stm32f10x_dma.c ****   *     @arg DMA2_FLAG_HT1: DMA2 Channel1 half transfer flag.
 414:../../source/src/FWlib/src/stm32f10x_dma.c ****   *     @arg DMA2_FLAG_TE1: DMA2 Channel1 transfer error flag.
 415:../../source/src/FWlib/src/stm32f10x_dma.c ****   *     @arg DMA2_FLAG_GL2: DMA2 Channel2 global flag.
 416:../../source/src/FWlib/src/stm32f10x_dma.c ****   *     @arg DMA2_FLAG_TC2: DMA2 Channel2 transfer complete flag.
 417:../../source/src/FWlib/src/stm32f10x_dma.c ****   *     @arg DMA2_FLAG_HT2: DMA2 Channel2 half transfer flag.
 418:../../source/src/FWlib/src/stm32f10x_dma.c ****   *     @arg DMA2_FLAG_TE2: DMA2 Channel2 transfer error flag.
 419:../../source/src/FWlib/src/stm32f10x_dma.c ****   *     @arg DMA2_FLAG_GL3: DMA2 Channel3 global flag.
 420:../../source/src/FWlib/src/stm32f10x_dma.c ****   *     @arg DMA2_FLAG_TC3: DMA2 Channel3 transfer complete flag.
 421:../../source/src/FWlib/src/stm32f10x_dma.c ****   *     @arg DMA2_FLAG_HT3: DMA2 Channel3 half transfer flag.
 422:../../source/src/FWlib/src/stm32f10x_dma.c ****   *     @arg DMA2_FLAG_TE3: DMA2 Channel3 transfer error flag.
 423:../../source/src/FWlib/src/stm32f10x_dma.c ****   *     @arg DMA2_FLAG_GL4: DMA2 Channel4 global flag.
 424:../../source/src/FWlib/src/stm32f10x_dma.c ****   *     @arg DMA2_FLAG_TC4: DMA2 Channel4 transfer complete flag.
 425:../../source/src/FWlib/src/stm32f10x_dma.c ****   *     @arg DMA2_FLAG_HT4: DMA2 Channel4 half transfer flag.
 426:../../source/src/FWlib/src/stm32f10x_dma.c ****   *     @arg DMA2_FLAG_TE4: DMA2 Channel4 transfer error flag.
 427:../../source/src/FWlib/src/stm32f10x_dma.c ****   *     @arg DMA2_FLAG_GL5: DMA2 Channel5 global flag.
 428:../../source/src/FWlib/src/stm32f10x_dma.c ****   *     @arg DMA2_FLAG_TC5: DMA2 Channel5 transfer complete flag.
 429:../../source/src/FWlib/src/stm32f10x_dma.c ****   *     @arg DMA2_FLAG_HT5: DMA2 Channel5 half transfer flag.
 430:../../source/src/FWlib/src/stm32f10x_dma.c ****   *     @arg DMA2_FLAG_TE5: DMA2 Channel5 transfer error flag.
 431:../../source/src/FWlib/src/stm32f10x_dma.c ****   * @retval The new state of DMAy_FLAG (SET or RESET).
 432:../../source/src/FWlib/src/stm32f10x_dma.c ****   */
 433:../../source/src/FWlib/src/stm32f10x_dma.c **** FlagStatus DMA_GetFlagStatus(uint32_t DMAy_FLAG)
 434:../../source/src/FWlib/src/stm32f10x_dma.c **** {
 493              		.loc 1 434 0
 494              		.cfi_startproc
 495              		@ args = 0, pretend = 0, frame = 0
 496              		@ frame_needed = 0, uses_anonymous_args = 0
 497              		@ link register save eliminated.
 498              	.LVL16:
 435:../../source/src/FWlib/src/stm32f10x_dma.c ****   FlagStatus bitstatus = RESET;
ARM GAS  G:\Users\Jaxb\AppData\Local\Temp\cc5H68Wr.s 			page 18


 436:../../source/src/FWlib/src/stm32f10x_dma.c ****   uint32_t tmpreg = 0;
 437:../../source/src/FWlib/src/stm32f10x_dma.c ****   
 438:../../source/src/FWlib/src/stm32f10x_dma.c ****   /* Check the parameters */
 439:../../source/src/FWlib/src/stm32f10x_dma.c ****   assert_param(IS_DMA_GET_FLAG(DMAy_FLAG));
 440:../../source/src/FWlib/src/stm32f10x_dma.c **** 
 441:../../source/src/FWlib/src/stm32f10x_dma.c ****   /* Calculate the used DMAy */
 442:../../source/src/FWlib/src/stm32f10x_dma.c ****   if ((DMAy_FLAG & FLAG_Mask) != (uint32_t)RESET)
 499              		.loc 1 442 0
 500 01c4 C300     		lsls	r3, r0, #3
 443:../../source/src/FWlib/src/stm32f10x_dma.c ****   {
 444:../../source/src/FWlib/src/stm32f10x_dma.c ****     /* Get DMA2 ISR register value */
 445:../../source/src/FWlib/src/stm32f10x_dma.c ****     tmpreg = DMA2->ISR ;
 501              		.loc 1 445 0
 502 01c6 4CBF     		ite	mi
 503 01c8 034B     		ldrmi	r3, .L43
 446:../../source/src/FWlib/src/stm32f10x_dma.c ****   }
 447:../../source/src/FWlib/src/stm32f10x_dma.c ****   else
 448:../../source/src/FWlib/src/stm32f10x_dma.c ****   {
 449:../../source/src/FWlib/src/stm32f10x_dma.c ****     /* Get DMA1 ISR register value */
 450:../../source/src/FWlib/src/stm32f10x_dma.c ****     tmpreg = DMA1->ISR ;
 504              		.loc 1 450 0
 505 01ca 044B     		ldrpl	r3, .L43+4
 506 01cc 1B68     		ldr	r3, [r3]
 507              	.LVL17:
 451:../../source/src/FWlib/src/stm32f10x_dma.c ****   }
 452:../../source/src/FWlib/src/stm32f10x_dma.c **** 
 453:../../source/src/FWlib/src/stm32f10x_dma.c ****   /* Check the status of the specified DMAy flag */
 454:../../source/src/FWlib/src/stm32f10x_dma.c ****   if ((tmpreg & DMAy_FLAG) != (uint32_t)RESET)
 508              		.loc 1 454 0
 509 01ce 0342     		tst	r3, r0
 455:../../source/src/FWlib/src/stm32f10x_dma.c ****   {
 456:../../source/src/FWlib/src/stm32f10x_dma.c ****     /* DMAy_FLAG is set */
 457:../../source/src/FWlib/src/stm32f10x_dma.c ****     bitstatus = SET;
 458:../../source/src/FWlib/src/stm32f10x_dma.c ****   }
 459:../../source/src/FWlib/src/stm32f10x_dma.c ****   else
 460:../../source/src/FWlib/src/stm32f10x_dma.c ****   {
 461:../../source/src/FWlib/src/stm32f10x_dma.c ****     /* DMAy_FLAG is reset */
 462:../../source/src/FWlib/src/stm32f10x_dma.c ****     bitstatus = RESET;
 463:../../source/src/FWlib/src/stm32f10x_dma.c ****   }
 464:../../source/src/FWlib/src/stm32f10x_dma.c ****   
 465:../../source/src/FWlib/src/stm32f10x_dma.c ****   /* Return the DMAy_FLAG status */
 466:../../source/src/FWlib/src/stm32f10x_dma.c ****   return  bitstatus;
 467:../../source/src/FWlib/src/stm32f10x_dma.c **** }
 510              		.loc 1 467 0
 511 01d0 14BF     		ite	ne
 512 01d2 0120     		movne	r0, #1
 513              	.LVL18:
 514 01d4 0020     		moveq	r0, #0
 515 01d6 7047     		bx	lr
 516              	.L44:
 517              		.align	2
 518              	.L43:
 519 01d8 00040240 		.word	1073873920
 520 01dc 00000240 		.word	1073872896
 521              		.cfi_endproc
 522              	.LFE36:
 523              		.size	DMA_GetFlagStatus, .-DMA_GetFlagStatus
ARM GAS  G:\Users\Jaxb\AppData\Local\Temp\cc5H68Wr.s 			page 19


 524              		.align	1
 525              		.p2align 2,,3
 526              		.global	DMA_ClearFlag
 527              		.syntax unified
 528              		.thumb
 529              		.thumb_func
 530              		.fpu softvfp
 531              		.type	DMA_ClearFlag, %function
 532              	DMA_ClearFlag:
 533              	.LFB37:
 468:../../source/src/FWlib/src/stm32f10x_dma.c **** 
 469:../../source/src/FWlib/src/stm32f10x_dma.c **** /**
 470:../../source/src/FWlib/src/stm32f10x_dma.c ****   * @brief  Clears the DMAy Channelx's pending flags.
 471:../../source/src/FWlib/src/stm32f10x_dma.c ****   * @param  DMAy_FLAG: specifies the flag to clear.
 472:../../source/src/FWlib/src/stm32f10x_dma.c ****   *   This parameter can be any combination (for the same DMA) of the following values:
 473:../../source/src/FWlib/src/stm32f10x_dma.c ****   *     @arg DMA1_FLAG_GL1: DMA1 Channel1 global flag.
 474:../../source/src/FWlib/src/stm32f10x_dma.c ****   *     @arg DMA1_FLAG_TC1: DMA1 Channel1 transfer complete flag.
 475:../../source/src/FWlib/src/stm32f10x_dma.c ****   *     @arg DMA1_FLAG_HT1: DMA1 Channel1 half transfer flag.
 476:../../source/src/FWlib/src/stm32f10x_dma.c ****   *     @arg DMA1_FLAG_TE1: DMA1 Channel1 transfer error flag.
 477:../../source/src/FWlib/src/stm32f10x_dma.c ****   *     @arg DMA1_FLAG_GL2: DMA1 Channel2 global flag.
 478:../../source/src/FWlib/src/stm32f10x_dma.c ****   *     @arg DMA1_FLAG_TC2: DMA1 Channel2 transfer complete flag.
 479:../../source/src/FWlib/src/stm32f10x_dma.c ****   *     @arg DMA1_FLAG_HT2: DMA1 Channel2 half transfer flag.
 480:../../source/src/FWlib/src/stm32f10x_dma.c ****   *     @arg DMA1_FLAG_TE2: DMA1 Channel2 transfer error flag.
 481:../../source/src/FWlib/src/stm32f10x_dma.c ****   *     @arg DMA1_FLAG_GL3: DMA1 Channel3 global flag.
 482:../../source/src/FWlib/src/stm32f10x_dma.c ****   *     @arg DMA1_FLAG_TC3: DMA1 Channel3 transfer complete flag.
 483:../../source/src/FWlib/src/stm32f10x_dma.c ****   *     @arg DMA1_FLAG_HT3: DMA1 Channel3 half transfer flag.
 484:../../source/src/FWlib/src/stm32f10x_dma.c ****   *     @arg DMA1_FLAG_TE3: DMA1 Channel3 transfer error flag.
 485:../../source/src/FWlib/src/stm32f10x_dma.c ****   *     @arg DMA1_FLAG_GL4: DMA1 Channel4 global flag.
 486:../../source/src/FWlib/src/stm32f10x_dma.c ****   *     @arg DMA1_FLAG_TC4: DMA1 Channel4 transfer complete flag.
 487:../../source/src/FWlib/src/stm32f10x_dma.c ****   *     @arg DMA1_FLAG_HT4: DMA1 Channel4 half transfer flag.
 488:../../source/src/FWlib/src/stm32f10x_dma.c ****   *     @arg DMA1_FLAG_TE4: DMA1 Channel4 transfer error flag.
 489:../../source/src/FWlib/src/stm32f10x_dma.c ****   *     @arg DMA1_FLAG_GL5: DMA1 Channel5 global flag.
 490:../../source/src/FWlib/src/stm32f10x_dma.c ****   *     @arg DMA1_FLAG_TC5: DMA1 Channel5 transfer complete flag.
 491:../../source/src/FWlib/src/stm32f10x_dma.c ****   *     @arg DMA1_FLAG_HT5: DMA1 Channel5 half transfer flag.
 492:../../source/src/FWlib/src/stm32f10x_dma.c ****   *     @arg DMA1_FLAG_TE5: DMA1 Channel5 transfer error flag.
 493:../../source/src/FWlib/src/stm32f10x_dma.c ****   *     @arg DMA1_FLAG_GL6: DMA1 Channel6 global flag.
 494:../../source/src/FWlib/src/stm32f10x_dma.c ****   *     @arg DMA1_FLAG_TC6: DMA1 Channel6 transfer complete flag.
 495:../../source/src/FWlib/src/stm32f10x_dma.c ****   *     @arg DMA1_FLAG_HT6: DMA1 Channel6 half transfer flag.
 496:../../source/src/FWlib/src/stm32f10x_dma.c ****   *     @arg DMA1_FLAG_TE6: DMA1 Channel6 transfer error flag.
 497:../../source/src/FWlib/src/stm32f10x_dma.c ****   *     @arg DMA1_FLAG_GL7: DMA1 Channel7 global flag.
 498:../../source/src/FWlib/src/stm32f10x_dma.c ****   *     @arg DMA1_FLAG_TC7: DMA1 Channel7 transfer complete flag.
 499:../../source/src/FWlib/src/stm32f10x_dma.c ****   *     @arg DMA1_FLAG_HT7: DMA1 Channel7 half transfer flag.
 500:../../source/src/FWlib/src/stm32f10x_dma.c ****   *     @arg DMA1_FLAG_TE7: DMA1 Channel7 transfer error flag.
 501:../../source/src/FWlib/src/stm32f10x_dma.c ****   *     @arg DMA2_FLAG_GL1: DMA2 Channel1 global flag.
 502:../../source/src/FWlib/src/stm32f10x_dma.c ****   *     @arg DMA2_FLAG_TC1: DMA2 Channel1 transfer complete flag.
 503:../../source/src/FWlib/src/stm32f10x_dma.c ****   *     @arg DMA2_FLAG_HT1: DMA2 Channel1 half transfer flag.
 504:../../source/src/FWlib/src/stm32f10x_dma.c ****   *     @arg DMA2_FLAG_TE1: DMA2 Channel1 transfer error flag.
 505:../../source/src/FWlib/src/stm32f10x_dma.c ****   *     @arg DMA2_FLAG_GL2: DMA2 Channel2 global flag.
 506:../../source/src/FWlib/src/stm32f10x_dma.c ****   *     @arg DMA2_FLAG_TC2: DMA2 Channel2 transfer complete flag.
 507:../../source/src/FWlib/src/stm32f10x_dma.c ****   *     @arg DMA2_FLAG_HT2: DMA2 Channel2 half transfer flag.
 508:../../source/src/FWlib/src/stm32f10x_dma.c ****   *     @arg DMA2_FLAG_TE2: DMA2 Channel2 transfer error flag.
 509:../../source/src/FWlib/src/stm32f10x_dma.c ****   *     @arg DMA2_FLAG_GL3: DMA2 Channel3 global flag.
 510:../../source/src/FWlib/src/stm32f10x_dma.c ****   *     @arg DMA2_FLAG_TC3: DMA2 Channel3 transfer complete flag.
 511:../../source/src/FWlib/src/stm32f10x_dma.c ****   *     @arg DMA2_FLAG_HT3: DMA2 Channel3 half transfer flag.
 512:../../source/src/FWlib/src/stm32f10x_dma.c ****   *     @arg DMA2_FLAG_TE3: DMA2 Channel3 transfer error flag.
 513:../../source/src/FWlib/src/stm32f10x_dma.c ****   *     @arg DMA2_FLAG_GL4: DMA2 Channel4 global flag.
 514:../../source/src/FWlib/src/stm32f10x_dma.c ****   *     @arg DMA2_FLAG_TC4: DMA2 Channel4 transfer complete flag.
ARM GAS  G:\Users\Jaxb\AppData\Local\Temp\cc5H68Wr.s 			page 20


 515:../../source/src/FWlib/src/stm32f10x_dma.c ****   *     @arg DMA2_FLAG_HT4: DMA2 Channel4 half transfer flag.
 516:../../source/src/FWlib/src/stm32f10x_dma.c ****   *     @arg DMA2_FLAG_TE4: DMA2 Channel4 transfer error flag.
 517:../../source/src/FWlib/src/stm32f10x_dma.c ****   *     @arg DMA2_FLAG_GL5: DMA2 Channel5 global flag.
 518:../../source/src/FWlib/src/stm32f10x_dma.c ****   *     @arg DMA2_FLAG_TC5: DMA2 Channel5 transfer complete flag.
 519:../../source/src/FWlib/src/stm32f10x_dma.c ****   *     @arg DMA2_FLAG_HT5: DMA2 Channel5 half transfer flag.
 520:../../source/src/FWlib/src/stm32f10x_dma.c ****   *     @arg DMA2_FLAG_TE5: DMA2 Channel5 transfer error flag.
 521:../../source/src/FWlib/src/stm32f10x_dma.c ****   * @retval None
 522:../../source/src/FWlib/src/stm32f10x_dma.c ****   */
 523:../../source/src/FWlib/src/stm32f10x_dma.c **** void DMA_ClearFlag(uint32_t DMAy_FLAG)
 524:../../source/src/FWlib/src/stm32f10x_dma.c **** {
 534              		.loc 1 524 0
 535              		.cfi_startproc
 536              		@ args = 0, pretend = 0, frame = 0
 537              		@ frame_needed = 0, uses_anonymous_args = 0
 538              		@ link register save eliminated.
 539              	.LVL19:
 525:../../source/src/FWlib/src/stm32f10x_dma.c ****   /* Check the parameters */
 526:../../source/src/FWlib/src/stm32f10x_dma.c ****   assert_param(IS_DMA_CLEAR_FLAG(DMAy_FLAG));
 527:../../source/src/FWlib/src/stm32f10x_dma.c **** 
 528:../../source/src/FWlib/src/stm32f10x_dma.c ****   /* Calculate the used DMAy */
 529:../../source/src/FWlib/src/stm32f10x_dma.c ****   if ((DMAy_FLAG & FLAG_Mask) != (uint32_t)RESET)
 540              		.loc 1 529 0
 541 01e0 C300     		lsls	r3, r0, #3
 530:../../source/src/FWlib/src/stm32f10x_dma.c ****   {
 531:../../source/src/FWlib/src/stm32f10x_dma.c ****     /* Clear the selected DMAy flags */
 532:../../source/src/FWlib/src/stm32f10x_dma.c ****     DMA2->IFCR = DMAy_FLAG;
 542              		.loc 1 532 0
 543 01e2 4CBF     		ite	mi
 544 01e4 014B     		ldrmi	r3, .L48
 533:../../source/src/FWlib/src/stm32f10x_dma.c ****   }
 534:../../source/src/FWlib/src/stm32f10x_dma.c ****   else
 535:../../source/src/FWlib/src/stm32f10x_dma.c ****   {
 536:../../source/src/FWlib/src/stm32f10x_dma.c ****     /* Clear the selected DMAy flags */
 537:../../source/src/FWlib/src/stm32f10x_dma.c ****     DMA1->IFCR = DMAy_FLAG;
 545              		.loc 1 537 0
 546 01e6 024B     		ldrpl	r3, .L48+4
 547 01e8 5860     		str	r0, [r3, #4]
 538:../../source/src/FWlib/src/stm32f10x_dma.c ****   }
 539:../../source/src/FWlib/src/stm32f10x_dma.c **** }
 548              		.loc 1 539 0
 549 01ea 7047     		bx	lr
 550              	.L49:
 551              		.align	2
 552              	.L48:
 553 01ec 00040240 		.word	1073873920
 554 01f0 00000240 		.word	1073872896
 555              		.cfi_endproc
 556              	.LFE37:
 557              		.size	DMA_ClearFlag, .-DMA_ClearFlag
 558              		.align	1
 559              		.p2align 2,,3
 560              		.global	DMA_GetITStatus
 561              		.syntax unified
 562              		.thumb
 563              		.thumb_func
 564              		.fpu softvfp
 565              		.type	DMA_GetITStatus, %function
ARM GAS  G:\Users\Jaxb\AppData\Local\Temp\cc5H68Wr.s 			page 21


 566              	DMA_GetITStatus:
 567              	.LFB41:
 568              		.cfi_startproc
 569              		@ args = 0, pretend = 0, frame = 0
 570              		@ frame_needed = 0, uses_anonymous_args = 0
 571              		@ link register save eliminated.
 572 01f4 FFF7FEBF 		b	DMA_GetFlagStatus
 573              		.cfi_endproc
 574              	.LFE41:
 575              		.size	DMA_GetITStatus, .-DMA_GetITStatus
 576              		.align	1
 577              		.p2align 2,,3
 578              		.global	DMA_ClearITPendingBit
 579              		.syntax unified
 580              		.thumb
 581              		.thumb_func
 582              		.fpu softvfp
 583              		.type	DMA_ClearITPendingBit, %function
 584              	DMA_ClearITPendingBit:
 585              	.LFB43:
 586              		.cfi_startproc
 587              		@ args = 0, pretend = 0, frame = 0
 588              		@ frame_needed = 0, uses_anonymous_args = 0
 589              		@ link register save eliminated.
 590 01f8 FFF7FEBF 		b	DMA_ClearFlag
 591              		.cfi_endproc
 592              	.LFE43:
 593              		.size	DMA_ClearITPendingBit, .-DMA_ClearITPendingBit
 594              	.Letext0:
 595              		.file 2 "f:\\arm\\gcc2018\\arm-none-eabi\\include\\machine\\_default_types.h"
 596              		.file 3 "f:\\arm\\gcc2018\\arm-none-eabi\\include\\sys\\_stdint.h"
 597              		.file 4 "../../source/include/core_cm3.h"
 598              		.file 5 "../../source/include/system_stm32f10x.h"
 599              		.file 6 "../../source/include/stm32f10x.h"
 600              		.file 7 "../../source/src/FWlib/inc/stm32f10x_dma.h"