ARM GAS  G:\Users\Jaxb\AppData\Local\Temp\ccVaMaab.s 			page 1


   1              		.cpu cortex-m3
   2              		.eabi_attribute 20, 1
   3              		.eabi_attribute 21, 1
   4              		.eabi_attribute 23, 3
   5              		.eabi_attribute 24, 1
   6              		.eabi_attribute 25, 1
   7              		.eabi_attribute 26, 1
   8              		.eabi_attribute 30, 2
   9              		.eabi_attribute 34, 1
  10              		.eabi_attribute 18, 4
  11              		.file	"stm32f10x_pwr.c"
  12              		.text
  13              	.Ltext0:
  14              		.cfi_sections	.debug_frame
  15              		.align	1
  16              		.p2align 2,,3
  17              		.global	PWR_DeInit
  18              		.syntax unified
  19              		.thumb
  20              		.thumb_func
  21              		.fpu softvfp
  22              		.type	PWR_DeInit, %function
  23              	PWR_DeInit:
  24              	.LFB29:
  25              		.file 1 "../../source/src/FWlib/src/stm32f10x_pwr.c"
   1:../../source/src/FWlib/src/stm32f10x_pwr.c **** /**
   2:../../source/src/FWlib/src/stm32f10x_pwr.c ****   ******************************************************************************
   3:../../source/src/FWlib/src/stm32f10x_pwr.c ****   * @file    stm32f10x_pwr.c
   4:../../source/src/FWlib/src/stm32f10x_pwr.c ****   * @author  MCD Application Team
   5:../../source/src/FWlib/src/stm32f10x_pwr.c ****   * @version V3.5.0
   6:../../source/src/FWlib/src/stm32f10x_pwr.c ****   * @date    11-March-2011
   7:../../source/src/FWlib/src/stm32f10x_pwr.c ****   * @brief   This file provides all the PWR firmware functions.
   8:../../source/src/FWlib/src/stm32f10x_pwr.c ****   ******************************************************************************
   9:../../source/src/FWlib/src/stm32f10x_pwr.c ****   * @attention
  10:../../source/src/FWlib/src/stm32f10x_pwr.c ****   *
  11:../../source/src/FWlib/src/stm32f10x_pwr.c ****   * THE PRESENT FIRMWARE WHICH IS FOR GUIDANCE ONLY AIMS AT PROVIDING CUSTOMERS
  12:../../source/src/FWlib/src/stm32f10x_pwr.c ****   * WITH CODING INFORMATION REGARDING THEIR PRODUCTS IN ORDER FOR THEM TO SAVE
  13:../../source/src/FWlib/src/stm32f10x_pwr.c ****   * TIME. AS A RESULT, STMICROELECTRONICS SHALL NOT BE HELD LIABLE FOR ANY
  14:../../source/src/FWlib/src/stm32f10x_pwr.c ****   * DIRECT, INDIRECT OR CONSEQUENTIAL DAMAGES WITH RESPECT TO ANY CLAIMS ARISING
  15:../../source/src/FWlib/src/stm32f10x_pwr.c ****   * FROM THE CONTENT OF SUCH FIRMWARE AND/OR THE USE MADE BY CUSTOMERS OF THE
  16:../../source/src/FWlib/src/stm32f10x_pwr.c ****   * CODING INFORMATION CONTAINED HEREIN IN CONNECTION WITH THEIR PRODUCTS.
  17:../../source/src/FWlib/src/stm32f10x_pwr.c ****   *
  18:../../source/src/FWlib/src/stm32f10x_pwr.c ****   * <h2><center>&copy; COPYRIGHT 2011 STMicroelectronics</center></h2>
  19:../../source/src/FWlib/src/stm32f10x_pwr.c ****   ******************************************************************************
  20:../../source/src/FWlib/src/stm32f10x_pwr.c ****   */
  21:../../source/src/FWlib/src/stm32f10x_pwr.c **** 
  22:../../source/src/FWlib/src/stm32f10x_pwr.c **** /* Includes ------------------------------------------------------------------*/
  23:../../source/src/FWlib/src/stm32f10x_pwr.c **** #include "stm32f10x_pwr.h"
  24:../../source/src/FWlib/src/stm32f10x_pwr.c **** #include "stm32f10x_rcc.h"
  25:../../source/src/FWlib/src/stm32f10x_pwr.c **** 
  26:../../source/src/FWlib/src/stm32f10x_pwr.c **** /** @addtogroup STM32F10x_StdPeriph_Driver
  27:../../source/src/FWlib/src/stm32f10x_pwr.c ****   * @{
  28:../../source/src/FWlib/src/stm32f10x_pwr.c ****   */
  29:../../source/src/FWlib/src/stm32f10x_pwr.c **** 
  30:../../source/src/FWlib/src/stm32f10x_pwr.c **** /** @defgroup PWR 
  31:../../source/src/FWlib/src/stm32f10x_pwr.c ****   * @brief PWR driver modules
  32:../../source/src/FWlib/src/stm32f10x_pwr.c ****   * @{
ARM GAS  G:\Users\Jaxb\AppData\Local\Temp\ccVaMaab.s 			page 2


  33:../../source/src/FWlib/src/stm32f10x_pwr.c ****   */ 
  34:../../source/src/FWlib/src/stm32f10x_pwr.c **** 
  35:../../source/src/FWlib/src/stm32f10x_pwr.c **** /** @defgroup PWR_Private_TypesDefinitions
  36:../../source/src/FWlib/src/stm32f10x_pwr.c ****   * @{
  37:../../source/src/FWlib/src/stm32f10x_pwr.c ****   */
  38:../../source/src/FWlib/src/stm32f10x_pwr.c **** 
  39:../../source/src/FWlib/src/stm32f10x_pwr.c **** /**
  40:../../source/src/FWlib/src/stm32f10x_pwr.c ****   * @}
  41:../../source/src/FWlib/src/stm32f10x_pwr.c ****   */
  42:../../source/src/FWlib/src/stm32f10x_pwr.c **** 
  43:../../source/src/FWlib/src/stm32f10x_pwr.c **** /** @defgroup PWR_Private_Defines
  44:../../source/src/FWlib/src/stm32f10x_pwr.c ****   * @{
  45:../../source/src/FWlib/src/stm32f10x_pwr.c ****   */
  46:../../source/src/FWlib/src/stm32f10x_pwr.c **** 
  47:../../source/src/FWlib/src/stm32f10x_pwr.c **** /* --------- PWR registers bit address in the alias region ---------- */
  48:../../source/src/FWlib/src/stm32f10x_pwr.c **** #define PWR_OFFSET               (PWR_BASE - PERIPH_BASE)
  49:../../source/src/FWlib/src/stm32f10x_pwr.c **** 
  50:../../source/src/FWlib/src/stm32f10x_pwr.c **** /* --- CR Register ---*/
  51:../../source/src/FWlib/src/stm32f10x_pwr.c **** 
  52:../../source/src/FWlib/src/stm32f10x_pwr.c **** /* Alias word address of DBP bit */
  53:../../source/src/FWlib/src/stm32f10x_pwr.c **** #define CR_OFFSET                (PWR_OFFSET + 0x00)
  54:../../source/src/FWlib/src/stm32f10x_pwr.c **** #define DBP_BitNumber            0x08
  55:../../source/src/FWlib/src/stm32f10x_pwr.c **** #define CR_DBP_BB                (PERIPH_BB_BASE + (CR_OFFSET * 32) + (DBP_BitNumber * 4))
  56:../../source/src/FWlib/src/stm32f10x_pwr.c **** 
  57:../../source/src/FWlib/src/stm32f10x_pwr.c **** /* Alias word address of PVDE bit */
  58:../../source/src/FWlib/src/stm32f10x_pwr.c **** #define PVDE_BitNumber           0x04
  59:../../source/src/FWlib/src/stm32f10x_pwr.c **** #define CR_PVDE_BB               (PERIPH_BB_BASE + (CR_OFFSET * 32) + (PVDE_BitNumber * 4))
  60:../../source/src/FWlib/src/stm32f10x_pwr.c **** 
  61:../../source/src/FWlib/src/stm32f10x_pwr.c **** /* --- CSR Register ---*/
  62:../../source/src/FWlib/src/stm32f10x_pwr.c **** 
  63:../../source/src/FWlib/src/stm32f10x_pwr.c **** /* Alias word address of EWUP bit */
  64:../../source/src/FWlib/src/stm32f10x_pwr.c **** #define CSR_OFFSET               (PWR_OFFSET + 0x04)
  65:../../source/src/FWlib/src/stm32f10x_pwr.c **** #define EWUP_BitNumber           0x08
  66:../../source/src/FWlib/src/stm32f10x_pwr.c **** #define CSR_EWUP_BB              (PERIPH_BB_BASE + (CSR_OFFSET * 32) + (EWUP_BitNumber * 4))
  67:../../source/src/FWlib/src/stm32f10x_pwr.c **** 
  68:../../source/src/FWlib/src/stm32f10x_pwr.c **** /* ------------------ PWR registers bit mask ------------------------ */
  69:../../source/src/FWlib/src/stm32f10x_pwr.c **** 
  70:../../source/src/FWlib/src/stm32f10x_pwr.c **** /* CR register bit mask */
  71:../../source/src/FWlib/src/stm32f10x_pwr.c **** #define CR_DS_MASK               ((uint32_t)0xFFFFFFFC)
  72:../../source/src/FWlib/src/stm32f10x_pwr.c **** #define CR_PLS_MASK              ((uint32_t)0xFFFFFF1F)
  73:../../source/src/FWlib/src/stm32f10x_pwr.c **** 
  74:../../source/src/FWlib/src/stm32f10x_pwr.c **** 
  75:../../source/src/FWlib/src/stm32f10x_pwr.c **** /**
  76:../../source/src/FWlib/src/stm32f10x_pwr.c ****   * @}
  77:../../source/src/FWlib/src/stm32f10x_pwr.c ****   */
  78:../../source/src/FWlib/src/stm32f10x_pwr.c **** 
  79:../../source/src/FWlib/src/stm32f10x_pwr.c **** /** @defgroup PWR_Private_Macros
  80:../../source/src/FWlib/src/stm32f10x_pwr.c ****   * @{
  81:../../source/src/FWlib/src/stm32f10x_pwr.c ****   */
  82:../../source/src/FWlib/src/stm32f10x_pwr.c **** 
  83:../../source/src/FWlib/src/stm32f10x_pwr.c **** /**
  84:../../source/src/FWlib/src/stm32f10x_pwr.c ****   * @}
  85:../../source/src/FWlib/src/stm32f10x_pwr.c ****   */
  86:../../source/src/FWlib/src/stm32f10x_pwr.c **** 
  87:../../source/src/FWlib/src/stm32f10x_pwr.c **** /** @defgroup PWR_Private_Variables
  88:../../source/src/FWlib/src/stm32f10x_pwr.c ****   * @{
  89:../../source/src/FWlib/src/stm32f10x_pwr.c ****   */
ARM GAS  G:\Users\Jaxb\AppData\Local\Temp\ccVaMaab.s 			page 3


  90:../../source/src/FWlib/src/stm32f10x_pwr.c **** 
  91:../../source/src/FWlib/src/stm32f10x_pwr.c **** /**
  92:../../source/src/FWlib/src/stm32f10x_pwr.c ****   * @}
  93:../../source/src/FWlib/src/stm32f10x_pwr.c ****   */
  94:../../source/src/FWlib/src/stm32f10x_pwr.c **** 
  95:../../source/src/FWlib/src/stm32f10x_pwr.c **** /** @defgroup PWR_Private_FunctionPrototypes
  96:../../source/src/FWlib/src/stm32f10x_pwr.c ****   * @{
  97:../../source/src/FWlib/src/stm32f10x_pwr.c ****   */
  98:../../source/src/FWlib/src/stm32f10x_pwr.c **** 
  99:../../source/src/FWlib/src/stm32f10x_pwr.c **** /**
 100:../../source/src/FWlib/src/stm32f10x_pwr.c ****   * @}
 101:../../source/src/FWlib/src/stm32f10x_pwr.c ****   */
 102:../../source/src/FWlib/src/stm32f10x_pwr.c **** 
 103:../../source/src/FWlib/src/stm32f10x_pwr.c **** /** @defgroup PWR_Private_Functions
 104:../../source/src/FWlib/src/stm32f10x_pwr.c ****   * @{
 105:../../source/src/FWlib/src/stm32f10x_pwr.c ****   */
 106:../../source/src/FWlib/src/stm32f10x_pwr.c **** 
 107:../../source/src/FWlib/src/stm32f10x_pwr.c **** /**
 108:../../source/src/FWlib/src/stm32f10x_pwr.c ****   * @brief  Deinitializes the PWR peripheral registers to their default reset values.
 109:../../source/src/FWlib/src/stm32f10x_pwr.c ****   * @param  None
 110:../../source/src/FWlib/src/stm32f10x_pwr.c ****   * @retval None
 111:../../source/src/FWlib/src/stm32f10x_pwr.c ****   */
 112:../../source/src/FWlib/src/stm32f10x_pwr.c **** void PWR_DeInit(void)
 113:../../source/src/FWlib/src/stm32f10x_pwr.c **** {
  26              		.loc 1 113 0
  27              		.cfi_startproc
  28              		@ args = 0, pretend = 0, frame = 0
  29              		@ frame_needed = 0, uses_anonymous_args = 0
  30 0000 08B5     		push	{r3, lr}
  31              	.LCFI0:
  32              		.cfi_def_cfa_offset 8
  33              		.cfi_offset 3, -8
  34              		.cfi_offset 14, -4
 114:../../source/src/FWlib/src/stm32f10x_pwr.c ****   RCC_APB1PeriphResetCmd(RCC_APB1Periph_PWR, ENABLE);
  35              		.loc 1 114 0
  36 0002 0121     		movs	r1, #1
  37 0004 4FF08050 		mov	r0, #268435456
  38 0008 FFF7FEFF 		bl	RCC_APB1PeriphResetCmd
  39              	.LVL0:
 115:../../source/src/FWlib/src/stm32f10x_pwr.c ****   RCC_APB1PeriphResetCmd(RCC_APB1Periph_PWR, DISABLE);
 116:../../source/src/FWlib/src/stm32f10x_pwr.c **** }
  40              		.loc 1 116 0
  41 000c BDE80840 		pop	{r3, lr}
  42              	.LCFI1:
  43              		.cfi_restore 14
  44              		.cfi_restore 3
  45              		.cfi_def_cfa_offset 0
 115:../../source/src/FWlib/src/stm32f10x_pwr.c ****   RCC_APB1PeriphResetCmd(RCC_APB1Periph_PWR, DISABLE);
  46              		.loc 1 115 0
  47 0010 0021     		movs	r1, #0
  48 0012 4FF08050 		mov	r0, #268435456
  49 0016 FFF7FEBF 		b	RCC_APB1PeriphResetCmd
  50              	.LVL1:
  51              		.cfi_endproc
  52              	.LFE29:
  53              		.size	PWR_DeInit, .-PWR_DeInit
  54              		.align	1
ARM GAS  G:\Users\Jaxb\AppData\Local\Temp\ccVaMaab.s 			page 4


  55 001a 00BF     		.p2align 2,,3
  56              		.global	PWR_BackupAccessCmd
  57              		.syntax unified
  58              		.thumb
  59              		.thumb_func
  60              		.fpu softvfp
  61              		.type	PWR_BackupAccessCmd, %function
  62              	PWR_BackupAccessCmd:
  63              	.LFB30:
 117:../../source/src/FWlib/src/stm32f10x_pwr.c **** 
 118:../../source/src/FWlib/src/stm32f10x_pwr.c **** /**
 119:../../source/src/FWlib/src/stm32f10x_pwr.c ****   * @brief  Enables or disables access to the RTC and backup registers.
 120:../../source/src/FWlib/src/stm32f10x_pwr.c ****   * @param  NewState: new state of the access to the RTC and backup registers.
 121:../../source/src/FWlib/src/stm32f10x_pwr.c ****   *   This parameter can be: ENABLE or DISABLE.
 122:../../source/src/FWlib/src/stm32f10x_pwr.c ****   * @retval None
 123:../../source/src/FWlib/src/stm32f10x_pwr.c ****   */
 124:../../source/src/FWlib/src/stm32f10x_pwr.c **** void PWR_BackupAccessCmd(FunctionalState NewState)
 125:../../source/src/FWlib/src/stm32f10x_pwr.c **** {
  64              		.loc 1 125 0
  65              		.cfi_startproc
  66              		@ args = 0, pretend = 0, frame = 0
  67              		@ frame_needed = 0, uses_anonymous_args = 0
  68              		@ link register save eliminated.
  69              	.LVL2:
 126:../../source/src/FWlib/src/stm32f10x_pwr.c ****   /* Check the parameters */
 127:../../source/src/FWlib/src/stm32f10x_pwr.c ****   assert_param(IS_FUNCTIONAL_STATE(NewState));
 128:../../source/src/FWlib/src/stm32f10x_pwr.c ****   *(__IO uint32_t *) CR_DBP_BB = (uint32_t)NewState;
  70              		.loc 1 128 0
  71 001c 014B     		ldr	r3, .L4
  72 001e 1860     		str	r0, [r3]
 129:../../source/src/FWlib/src/stm32f10x_pwr.c **** }
  73              		.loc 1 129 0
  74 0020 7047     		bx	lr
  75              	.L5:
  76 0022 00BF     		.align	2
  77              	.L4:
  78 0024 20000E42 		.word	1108213792
  79              		.cfi_endproc
  80              	.LFE30:
  81              		.size	PWR_BackupAccessCmd, .-PWR_BackupAccessCmd
  82              		.align	1
  83              		.p2align 2,,3
  84              		.global	PWR_PVDCmd
  85              		.syntax unified
  86              		.thumb
  87              		.thumb_func
  88              		.fpu softvfp
  89              		.type	PWR_PVDCmd, %function
  90              	PWR_PVDCmd:
  91              	.LFB31:
 130:../../source/src/FWlib/src/stm32f10x_pwr.c **** 
 131:../../source/src/FWlib/src/stm32f10x_pwr.c **** /**
 132:../../source/src/FWlib/src/stm32f10x_pwr.c ****   * @brief  Enables or disables the Power Voltage Detector(PVD).
 133:../../source/src/FWlib/src/stm32f10x_pwr.c ****   * @param  NewState: new state of the PVD.
 134:../../source/src/FWlib/src/stm32f10x_pwr.c ****   *   This parameter can be: ENABLE or DISABLE.
 135:../../source/src/FWlib/src/stm32f10x_pwr.c ****   * @retval None
 136:../../source/src/FWlib/src/stm32f10x_pwr.c ****   */
ARM GAS  G:\Users\Jaxb\AppData\Local\Temp\ccVaMaab.s 			page 5


 137:../../source/src/FWlib/src/stm32f10x_pwr.c **** void PWR_PVDCmd(FunctionalState NewState)
 138:../../source/src/FWlib/src/stm32f10x_pwr.c **** {
  92              		.loc 1 138 0
  93              		.cfi_startproc
  94              		@ args = 0, pretend = 0, frame = 0
  95              		@ frame_needed = 0, uses_anonymous_args = 0
  96              		@ link register save eliminated.
  97              	.LVL3:
 139:../../source/src/FWlib/src/stm32f10x_pwr.c ****   /* Check the parameters */
 140:../../source/src/FWlib/src/stm32f10x_pwr.c ****   assert_param(IS_FUNCTIONAL_STATE(NewState));
 141:../../source/src/FWlib/src/stm32f10x_pwr.c ****   *(__IO uint32_t *) CR_PVDE_BB = (uint32_t)NewState;
  98              		.loc 1 141 0
  99 0028 014B     		ldr	r3, .L7
 100 002a 1860     		str	r0, [r3]
 142:../../source/src/FWlib/src/stm32f10x_pwr.c **** }
 101              		.loc 1 142 0
 102 002c 7047     		bx	lr
 103              	.L8:
 104 002e 00BF     		.align	2
 105              	.L7:
 106 0030 10000E42 		.word	1108213776
 107              		.cfi_endproc
 108              	.LFE31:
 109              		.size	PWR_PVDCmd, .-PWR_PVDCmd
 110              		.align	1
 111              		.p2align 2,,3
 112              		.global	PWR_PVDLevelConfig
 113              		.syntax unified
 114              		.thumb
 115              		.thumb_func
 116              		.fpu softvfp
 117              		.type	PWR_PVDLevelConfig, %function
 118              	PWR_PVDLevelConfig:
 119              	.LFB32:
 143:../../source/src/FWlib/src/stm32f10x_pwr.c **** 
 144:../../source/src/FWlib/src/stm32f10x_pwr.c **** /**
 145:../../source/src/FWlib/src/stm32f10x_pwr.c ****   * @brief  Configures the voltage threshold detected by the Power Voltage Detector(PVD).
 146:../../source/src/FWlib/src/stm32f10x_pwr.c ****   * @param  PWR_PVDLevel: specifies the PVD detection level
 147:../../source/src/FWlib/src/stm32f10x_pwr.c ****   *   This parameter can be one of the following values:
 148:../../source/src/FWlib/src/stm32f10x_pwr.c ****   *     @arg PWR_PVDLevel_2V2: PVD detection level set to 2.2V
 149:../../source/src/FWlib/src/stm32f10x_pwr.c ****   *     @arg PWR_PVDLevel_2V3: PVD detection level set to 2.3V
 150:../../source/src/FWlib/src/stm32f10x_pwr.c ****   *     @arg PWR_PVDLevel_2V4: PVD detection level set to 2.4V
 151:../../source/src/FWlib/src/stm32f10x_pwr.c ****   *     @arg PWR_PVDLevel_2V5: PVD detection level set to 2.5V
 152:../../source/src/FWlib/src/stm32f10x_pwr.c ****   *     @arg PWR_PVDLevel_2V6: PVD detection level set to 2.6V
 153:../../source/src/FWlib/src/stm32f10x_pwr.c ****   *     @arg PWR_PVDLevel_2V7: PVD detection level set to 2.7V
 154:../../source/src/FWlib/src/stm32f10x_pwr.c ****   *     @arg PWR_PVDLevel_2V8: PVD detection level set to 2.8V
 155:../../source/src/FWlib/src/stm32f10x_pwr.c ****   *     @arg PWR_PVDLevel_2V9: PVD detection level set to 2.9V
 156:../../source/src/FWlib/src/stm32f10x_pwr.c ****   * @retval None
 157:../../source/src/FWlib/src/stm32f10x_pwr.c ****   */
 158:../../source/src/FWlib/src/stm32f10x_pwr.c **** void PWR_PVDLevelConfig(uint32_t PWR_PVDLevel)
 159:../../source/src/FWlib/src/stm32f10x_pwr.c **** {
 120              		.loc 1 159 0
 121              		.cfi_startproc
 122              		@ args = 0, pretend = 0, frame = 0
 123              		@ frame_needed = 0, uses_anonymous_args = 0
 124              		@ link register save eliminated.
 125              	.LVL4:
ARM GAS  G:\Users\Jaxb\AppData\Local\Temp\ccVaMaab.s 			page 6


 160:../../source/src/FWlib/src/stm32f10x_pwr.c ****   uint32_t tmpreg = 0;
 161:../../source/src/FWlib/src/stm32f10x_pwr.c ****   /* Check the parameters */
 162:../../source/src/FWlib/src/stm32f10x_pwr.c ****   assert_param(IS_PWR_PVD_LEVEL(PWR_PVDLevel));
 163:../../source/src/FWlib/src/stm32f10x_pwr.c ****   tmpreg = PWR->CR;
 126              		.loc 1 163 0
 127 0034 034A     		ldr	r2, .L10
 128 0036 1368     		ldr	r3, [r2]
 129              	.LVL5:
 164:../../source/src/FWlib/src/stm32f10x_pwr.c ****   /* Clear PLS[7:5] bits */
 165:../../source/src/FWlib/src/stm32f10x_pwr.c ****   tmpreg &= CR_PLS_MASK;
 130              		.loc 1 165 0
 131 0038 23F0E003 		bic	r3, r3, #224
 132              	.LVL6:
 166:../../source/src/FWlib/src/stm32f10x_pwr.c ****   /* Set PLS[7:5] bits according to PWR_PVDLevel value */
 167:../../source/src/FWlib/src/stm32f10x_pwr.c ****   tmpreg |= PWR_PVDLevel;
 133              		.loc 1 167 0
 134 003c 1843     		orrs	r0, r0, r3
 135              	.LVL7:
 168:../../source/src/FWlib/src/stm32f10x_pwr.c ****   /* Store the new value */
 169:../../source/src/FWlib/src/stm32f10x_pwr.c ****   PWR->CR = tmpreg;
 136              		.loc 1 169 0
 137 003e 1060     		str	r0, [r2]
 170:../../source/src/FWlib/src/stm32f10x_pwr.c **** }
 138              		.loc 1 170 0
 139 0040 7047     		bx	lr
 140              	.L11:
 141 0042 00BF     		.align	2
 142              	.L10:
 143 0044 00700040 		.word	1073770496
 144              		.cfi_endproc
 145              	.LFE32:
 146              		.size	PWR_PVDLevelConfig, .-PWR_PVDLevelConfig
 147              		.align	1
 148              		.p2align 2,,3
 149              		.global	PWR_WakeUpPinCmd
 150              		.syntax unified
 151              		.thumb
 152              		.thumb_func
 153              		.fpu softvfp
 154              		.type	PWR_WakeUpPinCmd, %function
 155              	PWR_WakeUpPinCmd:
 156              	.LFB33:
 171:../../source/src/FWlib/src/stm32f10x_pwr.c **** 
 172:../../source/src/FWlib/src/stm32f10x_pwr.c **** /**
 173:../../source/src/FWlib/src/stm32f10x_pwr.c ****   * @brief  Enables or disables the WakeUp Pin functionality.
 174:../../source/src/FWlib/src/stm32f10x_pwr.c ****   * @param  NewState: new state of the WakeUp Pin functionality.
 175:../../source/src/FWlib/src/stm32f10x_pwr.c ****   *   This parameter can be: ENABLE or DISABLE.
 176:../../source/src/FWlib/src/stm32f10x_pwr.c ****   * @retval None
 177:../../source/src/FWlib/src/stm32f10x_pwr.c ****   */
 178:../../source/src/FWlib/src/stm32f10x_pwr.c **** void PWR_WakeUpPinCmd(FunctionalState NewState)
 179:../../source/src/FWlib/src/stm32f10x_pwr.c **** {
 157              		.loc 1 179 0
 158              		.cfi_startproc
 159              		@ args = 0, pretend = 0, frame = 0
 160              		@ frame_needed = 0, uses_anonymous_args = 0
 161              		@ link register save eliminated.
 162              	.LVL8:
ARM GAS  G:\Users\Jaxb\AppData\Local\Temp\ccVaMaab.s 			page 7


 180:../../source/src/FWlib/src/stm32f10x_pwr.c ****   /* Check the parameters */
 181:../../source/src/FWlib/src/stm32f10x_pwr.c ****   assert_param(IS_FUNCTIONAL_STATE(NewState));
 182:../../source/src/FWlib/src/stm32f10x_pwr.c ****   *(__IO uint32_t *) CSR_EWUP_BB = (uint32_t)NewState;
 163              		.loc 1 182 0
 164 0048 014B     		ldr	r3, .L13
 165 004a 1860     		str	r0, [r3]
 183:../../source/src/FWlib/src/stm32f10x_pwr.c **** }
 166              		.loc 1 183 0
 167 004c 7047     		bx	lr
 168              	.L14:
 169 004e 00BF     		.align	2
 170              	.L13:
 171 0050 A0000E42 		.word	1108213920
 172              		.cfi_endproc
 173              	.LFE33:
 174              		.size	PWR_WakeUpPinCmd, .-PWR_WakeUpPinCmd
 175              		.align	1
 176              		.p2align 2,,3
 177              		.global	PWR_EnterSTOPMode
 178              		.syntax unified
 179              		.thumb
 180              		.thumb_func
 181              		.fpu softvfp
 182              		.type	PWR_EnterSTOPMode, %function
 183              	PWR_EnterSTOPMode:
 184              	.LFB34:
 184:../../source/src/FWlib/src/stm32f10x_pwr.c **** 
 185:../../source/src/FWlib/src/stm32f10x_pwr.c **** /**
 186:../../source/src/FWlib/src/stm32f10x_pwr.c ****   * @brief  Enters STOP mode.
 187:../../source/src/FWlib/src/stm32f10x_pwr.c ****   * @param  PWR_Regulator: specifies the regulator state in STOP mode.
 188:../../source/src/FWlib/src/stm32f10x_pwr.c ****   *   This parameter can be one of the following values:
 189:../../source/src/FWlib/src/stm32f10x_pwr.c ****   *     @arg PWR_Regulator_ON: STOP mode with regulator ON
 190:../../source/src/FWlib/src/stm32f10x_pwr.c ****   *     @arg PWR_Regulator_LowPower: STOP mode with regulator in low power mode
 191:../../source/src/FWlib/src/stm32f10x_pwr.c ****   * @param  PWR_STOPEntry: specifies if STOP mode in entered with WFI or WFE instruction.
 192:../../source/src/FWlib/src/stm32f10x_pwr.c ****   *   This parameter can be one of the following values:
 193:../../source/src/FWlib/src/stm32f10x_pwr.c ****   *     @arg PWR_STOPEntry_WFI: enter STOP mode with WFI instruction
 194:../../source/src/FWlib/src/stm32f10x_pwr.c ****   *     @arg PWR_STOPEntry_WFE: enter STOP mode with WFE instruction
 195:../../source/src/FWlib/src/stm32f10x_pwr.c ****   * @retval None
 196:../../source/src/FWlib/src/stm32f10x_pwr.c ****   */
 197:../../source/src/FWlib/src/stm32f10x_pwr.c **** void PWR_EnterSTOPMode(uint32_t PWR_Regulator, uint8_t PWR_STOPEntry)
 198:../../source/src/FWlib/src/stm32f10x_pwr.c **** {
 185              		.loc 1 198 0
 186              		.cfi_startproc
 187              		@ args = 0, pretend = 0, frame = 0
 188              		@ frame_needed = 0, uses_anonymous_args = 0
 189              		@ link register save eliminated.
 190              	.LVL9:
 191 0054 10B4     		push	{r4}
 192              	.LCFI2:
 193              		.cfi_def_cfa_offset 4
 194              		.cfi_offset 4, -4
 199:../../source/src/FWlib/src/stm32f10x_pwr.c ****   uint32_t tmpreg = 0;
 200:../../source/src/FWlib/src/stm32f10x_pwr.c ****   /* Check the parameters */
 201:../../source/src/FWlib/src/stm32f10x_pwr.c ****   assert_param(IS_PWR_REGULATOR(PWR_Regulator));
 202:../../source/src/FWlib/src/stm32f10x_pwr.c ****   assert_param(IS_PWR_STOP_ENTRY(PWR_STOPEntry));
 203:../../source/src/FWlib/src/stm32f10x_pwr.c ****   
 204:../../source/src/FWlib/src/stm32f10x_pwr.c ****   /* Select the regulator state in STOP mode ---------------------------------*/
ARM GAS  G:\Users\Jaxb\AppData\Local\Temp\ccVaMaab.s 			page 8


 205:../../source/src/FWlib/src/stm32f10x_pwr.c ****   tmpreg = PWR->CR;
 195              		.loc 1 205 0
 196 0056 0C4C     		ldr	r4, .L19
 206:../../source/src/FWlib/src/stm32f10x_pwr.c ****   /* Clear PDDS and LPDS bits */
 207:../../source/src/FWlib/src/stm32f10x_pwr.c ****   tmpreg &= CR_DS_MASK;
 208:../../source/src/FWlib/src/stm32f10x_pwr.c ****   /* Set LPDS bit according to PWR_Regulator value */
 209:../../source/src/FWlib/src/stm32f10x_pwr.c ****   tmpreg |= PWR_Regulator;
 210:../../source/src/FWlib/src/stm32f10x_pwr.c ****   /* Store the new value */
 211:../../source/src/FWlib/src/stm32f10x_pwr.c ****   PWR->CR = tmpreg;
 212:../../source/src/FWlib/src/stm32f10x_pwr.c ****   /* Set SLEEPDEEP bit of Cortex System Control Register */
 213:../../source/src/FWlib/src/stm32f10x_pwr.c ****   SCB->SCR |= SCB_SCR_SLEEPDEEP;
 197              		.loc 1 213 0
 198 0058 0C4A     		ldr	r2, .L19+4
 205:../../source/src/FWlib/src/stm32f10x_pwr.c ****   /* Clear PDDS and LPDS bits */
 199              		.loc 1 205 0
 200 005a 2368     		ldr	r3, [r4]
 201              	.LVL10:
 214:../../source/src/FWlib/src/stm32f10x_pwr.c ****   
 215:../../source/src/FWlib/src/stm32f10x_pwr.c ****   /* Select STOP mode entry --------------------------------------------------*/
 216:../../source/src/FWlib/src/stm32f10x_pwr.c ****   if(PWR_STOPEntry == PWR_STOPEntry_WFI)
 202              		.loc 1 216 0
 203 005c 0129     		cmp	r1, #1
 207:../../source/src/FWlib/src/stm32f10x_pwr.c ****   /* Set LPDS bit according to PWR_Regulator value */
 204              		.loc 1 207 0
 205 005e 23F00303 		bic	r3, r3, #3
 206              	.LVL11:
 209:../../source/src/FWlib/src/stm32f10x_pwr.c ****   /* Store the new value */
 207              		.loc 1 209 0
 208 0062 40EA0300 		orr	r0, r0, r3
 209              	.LVL12:
 211:../../source/src/FWlib/src/stm32f10x_pwr.c ****   /* Set SLEEPDEEP bit of Cortex System Control Register */
 210              		.loc 1 211 0
 211 0066 2060     		str	r0, [r4]
 213:../../source/src/FWlib/src/stm32f10x_pwr.c ****   
 212              		.loc 1 213 0
 213 0068 1369     		ldr	r3, [r2, #16]
 214 006a 43F00403 		orr	r3, r3, #4
 215 006e 1361     		str	r3, [r2, #16]
 216              		.loc 1 216 0
 217 0070 07D0     		beq	.L18
 218              	.LBB8:
 219              	.LBB9:
 220              		.file 2 "../../source/include/core_cm3.h"
   1:../../source/include/core_cm3.h **** /**************************************************************************//**
   2:../../source/include/core_cm3.h ****  * @file     core_cm3.h
   3:../../source/include/core_cm3.h ****  * @brief    CMSIS Cortex-M3 Core Peripheral Access Layer Header File
   4:../../source/include/core_cm3.h ****  * @version  V1.30
   5:../../source/include/core_cm3.h ****  * @date     30. October 2009
   6:../../source/include/core_cm3.h ****  *
   7:../../source/include/core_cm3.h ****  * @note
   8:../../source/include/core_cm3.h ****  * Copyright (C) 2009 ARM Limited. All rights reserved.
   9:../../source/include/core_cm3.h ****  *
  10:../../source/include/core_cm3.h ****  * @par
  11:../../source/include/core_cm3.h ****  * ARM Limited (ARM) is supplying this software for use with Cortex-M 
  12:../../source/include/core_cm3.h ****  * processor based microcontrollers.  This file can be freely distributed 
  13:../../source/include/core_cm3.h ****  * within development tools that are supporting such ARM based processors. 
  14:../../source/include/core_cm3.h ****  *
ARM GAS  G:\Users\Jaxb\AppData\Local\Temp\ccVaMaab.s 			page 9


  15:../../source/include/core_cm3.h ****  * @par
  16:../../source/include/core_cm3.h ****  * THIS SOFTWARE IS PROVIDED "AS IS".  NO WARRANTIES, WHETHER EXPRESS, IMPLIED
  17:../../source/include/core_cm3.h ****  * OR STATUTORY, INCLUDING, BUT NOT LIMITED TO, IMPLIED WARRANTIES OF
  18:../../source/include/core_cm3.h ****  * MERCHANTABILITY AND FITNESS FOR A PARTICULAR PURPOSE APPLY TO THIS SOFTWARE.
  19:../../source/include/core_cm3.h ****  * ARM SHALL NOT, IN ANY CIRCUMSTANCES, BE LIABLE FOR SPECIAL, INCIDENTAL, OR
  20:../../source/include/core_cm3.h ****  * CONSEQUENTIAL DAMAGES, FOR ANY REASON WHATSOEVER.
  21:../../source/include/core_cm3.h ****  *
  22:../../source/include/core_cm3.h ****  ******************************************************************************/
  23:../../source/include/core_cm3.h **** 
  24:../../source/include/core_cm3.h **** #ifndef __CM3_CORE_H__
  25:../../source/include/core_cm3.h **** #define __CM3_CORE_H__
  26:../../source/include/core_cm3.h **** 
  27:../../source/include/core_cm3.h **** /** @addtogroup CMSIS_CM3_core_LintCinfiguration CMSIS CM3 Core Lint Configuration
  28:../../source/include/core_cm3.h ****  *
  29:../../source/include/core_cm3.h ****  * List of Lint messages which will be suppressed and not shown:
  30:../../source/include/core_cm3.h ****  *   - Error 10: \n
  31:../../source/include/core_cm3.h ****  *     register uint32_t __regBasePri         __asm("basepri"); \n
  32:../../source/include/core_cm3.h ****  *     Error 10: Expecting ';'
  33:../../source/include/core_cm3.h ****  * .
  34:../../source/include/core_cm3.h ****  *   - Error 530: \n
  35:../../source/include/core_cm3.h ****  *     return(__regBasePri); \n
  36:../../source/include/core_cm3.h ****  *     Warning 530: Symbol '__regBasePri' (line 264) not initialized
  37:../../source/include/core_cm3.h ****  * . 
  38:../../source/include/core_cm3.h ****  *   - Error 550: \n
  39:../../source/include/core_cm3.h ****  *     __regBasePri = (basePri & 0x1ff); \n
  40:../../source/include/core_cm3.h ****  *     Warning 550: Symbol '__regBasePri' (line 271) not accessed
  41:../../source/include/core_cm3.h ****  * .
  42:../../source/include/core_cm3.h ****  *   - Error 754: \n
  43:../../source/include/core_cm3.h ****  *     uint32_t RESERVED0[24]; \n
  44:../../source/include/core_cm3.h ****  *     Info 754: local structure member '<some, not used in the HAL>' (line 109, file ./cm3_core.h)
  45:../../source/include/core_cm3.h ****  * .
  46:../../source/include/core_cm3.h ****  *   - Error 750: \n
  47:../../source/include/core_cm3.h ****  *     #define __CM3_CORE_H__ \n
  48:../../source/include/core_cm3.h ****  *     Info 750: local macro '__CM3_CORE_H__' (line 43, file./cm3_core.h) not referenced
  49:../../source/include/core_cm3.h ****  * .
  50:../../source/include/core_cm3.h ****  *   - Error 528: \n
  51:../../source/include/core_cm3.h ****  *     static __INLINE void NVIC_DisableIRQ(uint32_t IRQn) \n
  52:../../source/include/core_cm3.h ****  *     Warning 528: Symbol 'NVIC_DisableIRQ(unsigned int)' (line 419, file ./cm3_core.h) not refere
  53:../../source/include/core_cm3.h ****  * .
  54:../../source/include/core_cm3.h ****  *   - Error 751: \n
  55:../../source/include/core_cm3.h ****  *     } InterruptType_Type; \n
  56:../../source/include/core_cm3.h ****  *     Info 751: local typedef 'InterruptType_Type' (line 170, file ./cm3_core.h) not referenced
  57:../../source/include/core_cm3.h ****  * .
  58:../../source/include/core_cm3.h ****  * Note:  To re-enable a Message, insert a space before 'lint' *
  59:../../source/include/core_cm3.h ****  *
  60:../../source/include/core_cm3.h ****  */
  61:../../source/include/core_cm3.h **** 
  62:../../source/include/core_cm3.h **** /*lint -save */
  63:../../source/include/core_cm3.h **** /*lint -e10  */
  64:../../source/include/core_cm3.h **** /*lint -e530 */
  65:../../source/include/core_cm3.h **** /*lint -e550 */
  66:../../source/include/core_cm3.h **** /*lint -e754 */
  67:../../source/include/core_cm3.h **** /*lint -e750 */
  68:../../source/include/core_cm3.h **** /*lint -e528 */
  69:../../source/include/core_cm3.h **** /*lint -e751 */
  70:../../source/include/core_cm3.h **** 
  71:../../source/include/core_cm3.h **** 
ARM GAS  G:\Users\Jaxb\AppData\Local\Temp\ccVaMaab.s 			page 10


  72:../../source/include/core_cm3.h **** /** @addtogroup CMSIS_CM3_core_definitions CM3 Core Definitions
  73:../../source/include/core_cm3.h ****   This file defines all structures and symbols for CMSIS core:
  74:../../source/include/core_cm3.h ****     - CMSIS version number
  75:../../source/include/core_cm3.h ****     - Cortex-M core registers and bitfields
  76:../../source/include/core_cm3.h ****     - Cortex-M core peripheral base address
  77:../../source/include/core_cm3.h ****   @{
  78:../../source/include/core_cm3.h ****  */
  79:../../source/include/core_cm3.h **** 
  80:../../source/include/core_cm3.h **** #ifdef __cplusplus
  81:../../source/include/core_cm3.h ****  extern "C" {
  82:../../source/include/core_cm3.h **** #endif 
  83:../../source/include/core_cm3.h **** 
  84:../../source/include/core_cm3.h **** #define __CM3_CMSIS_VERSION_MAIN  (0x01)                                                       /*!<
  85:../../source/include/core_cm3.h **** #define __CM3_CMSIS_VERSION_SUB   (0x30)                                                       /*!<
  86:../../source/include/core_cm3.h **** #define __CM3_CMSIS_VERSION       ((__CM3_CMSIS_VERSION_MAIN << 16) | __CM3_CMSIS_VERSION_SUB) /*!<
  87:../../source/include/core_cm3.h **** 
  88:../../source/include/core_cm3.h **** #define __CORTEX_M                (0x03)                                                       /*!<
  89:../../source/include/core_cm3.h **** 
  90:../../source/include/core_cm3.h **** #include <stdint.h>                           /* Include standard types */
  91:../../source/include/core_cm3.h **** 
  92:../../source/include/core_cm3.h **** #if defined (__ICCARM__)
  93:../../source/include/core_cm3.h ****   #include <intrinsics.h>                     /* IAR Intrinsics   */
  94:../../source/include/core_cm3.h **** #endif
  95:../../source/include/core_cm3.h **** 
  96:../../source/include/core_cm3.h **** 
  97:../../source/include/core_cm3.h **** #ifndef __NVIC_PRIO_BITS
  98:../../source/include/core_cm3.h ****   #define __NVIC_PRIO_BITS    4               /*!< standard definition for NVIC Priority Bits */
  99:../../source/include/core_cm3.h **** #endif
 100:../../source/include/core_cm3.h **** 
 101:../../source/include/core_cm3.h **** 
 102:../../source/include/core_cm3.h **** 
 103:../../source/include/core_cm3.h **** 
 104:../../source/include/core_cm3.h **** /**
 105:../../source/include/core_cm3.h ****  * IO definitions
 106:../../source/include/core_cm3.h ****  *
 107:../../source/include/core_cm3.h ****  * define access restrictions to peripheral registers
 108:../../source/include/core_cm3.h ****  */
 109:../../source/include/core_cm3.h **** 
 110:../../source/include/core_cm3.h **** #ifdef __cplusplus
 111:../../source/include/core_cm3.h ****   #define     __I     volatile                /*!< defines 'read only' permissions      */
 112:../../source/include/core_cm3.h **** #else
 113:../../source/include/core_cm3.h ****   #define     __I     volatile const          /*!< defines 'read only' permissions      */
 114:../../source/include/core_cm3.h **** #endif
 115:../../source/include/core_cm3.h **** #define     __O     volatile                  /*!< defines 'write only' permissions     */
 116:../../source/include/core_cm3.h **** #define     __IO    volatile                  /*!< defines 'read / write' permissions   */
 117:../../source/include/core_cm3.h **** 
 118:../../source/include/core_cm3.h **** 
 119:../../source/include/core_cm3.h **** 
 120:../../source/include/core_cm3.h **** /*******************************************************************************
 121:../../source/include/core_cm3.h ****  *                 Register Abstraction
 122:../../source/include/core_cm3.h ****  ******************************************************************************/
 123:../../source/include/core_cm3.h **** /** @addtogroup CMSIS_CM3_core_register CMSIS CM3 Core Register
 124:../../source/include/core_cm3.h ****  @{
 125:../../source/include/core_cm3.h **** */
 126:../../source/include/core_cm3.h **** 
 127:../../source/include/core_cm3.h **** 
 128:../../source/include/core_cm3.h **** /** @addtogroup CMSIS_CM3_NVIC CMSIS CM3 NVIC
ARM GAS  G:\Users\Jaxb\AppData\Local\Temp\ccVaMaab.s 			page 11


 129:../../source/include/core_cm3.h ****   memory mapped structure for Nested Vectored Interrupt Controller (NVIC)
 130:../../source/include/core_cm3.h ****   @{
 131:../../source/include/core_cm3.h ****  */
 132:../../source/include/core_cm3.h **** typedef struct
 133:../../source/include/core_cm3.h **** {
 134:../../source/include/core_cm3.h ****   __IO uint32_t ISER[8];                      /*!< Offset: 0x000  Interrupt Set Enable Register    
 135:../../source/include/core_cm3.h ****        uint32_t RESERVED0[24];                                   
 136:../../source/include/core_cm3.h ****   __IO uint32_t ICER[8];                      /*!< Offset: 0x080  Interrupt Clear Enable Register  
 137:../../source/include/core_cm3.h ****        uint32_t RSERVED1[24];                                    
 138:../../source/include/core_cm3.h ****   __IO uint32_t ISPR[8];                      /*!< Offset: 0x100  Interrupt Set Pending Register   
 139:../../source/include/core_cm3.h ****        uint32_t RESERVED2[24];                                   
 140:../../source/include/core_cm3.h ****   __IO uint32_t ICPR[8];                      /*!< Offset: 0x180  Interrupt Clear Pending Register 
 141:../../source/include/core_cm3.h ****        uint32_t RESERVED3[24];                                   
 142:../../source/include/core_cm3.h ****   __IO uint32_t IABR[8];                      /*!< Offset: 0x200  Interrupt Active bit Register    
 143:../../source/include/core_cm3.h ****        uint32_t RESERVED4[56];                                   
 144:../../source/include/core_cm3.h ****   __IO uint8_t  IP[240];                      /*!< Offset: 0x300  Interrupt Priority Register (8Bit
 145:../../source/include/core_cm3.h ****        uint32_t RESERVED5[644];                                  
 146:../../source/include/core_cm3.h ****   __O  uint32_t STIR;                         /*!< Offset: 0xE00  Software Trigger Interrupt Regist
 147:../../source/include/core_cm3.h **** }  NVIC_Type;                                               
 148:../../source/include/core_cm3.h **** /*@}*/ /* end of group CMSIS_CM3_NVIC */
 149:../../source/include/core_cm3.h **** 
 150:../../source/include/core_cm3.h **** 
 151:../../source/include/core_cm3.h **** /** @addtogroup CMSIS_CM3_SCB CMSIS CM3 SCB
 152:../../source/include/core_cm3.h ****   memory mapped structure for System Control Block (SCB)
 153:../../source/include/core_cm3.h ****   @{
 154:../../source/include/core_cm3.h ****  */
 155:../../source/include/core_cm3.h **** typedef struct
 156:../../source/include/core_cm3.h **** {
 157:../../source/include/core_cm3.h ****   __I  uint32_t CPUID;                        /*!< Offset: 0x00  CPU ID Base Register              
 158:../../source/include/core_cm3.h ****   __IO uint32_t ICSR;                         /*!< Offset: 0x04  Interrupt Control State Register  
 159:../../source/include/core_cm3.h ****   __IO uint32_t VTOR;                         /*!< Offset: 0x08  Vector Table Offset Register      
 160:../../source/include/core_cm3.h ****   __IO uint32_t AIRCR;                        /*!< Offset: 0x0C  Application Interrupt / Reset Cont
 161:../../source/include/core_cm3.h ****   __IO uint32_t SCR;                          /*!< Offset: 0x10  System Control Register           
 162:../../source/include/core_cm3.h ****   __IO uint32_t CCR;                          /*!< Offset: 0x14  Configuration Control Register    
 163:../../source/include/core_cm3.h ****   __IO uint8_t  SHP[12];                      /*!< Offset: 0x18  System Handlers Priority Registers
 164:../../source/include/core_cm3.h ****   __IO uint32_t SHCSR;                        /*!< Offset: 0x24  System Handler Control and State R
 165:../../source/include/core_cm3.h ****   __IO uint32_t CFSR;                         /*!< Offset: 0x28  Configurable Fault Status Register
 166:../../source/include/core_cm3.h ****   __IO uint32_t HFSR;                         /*!< Offset: 0x2C  Hard Fault Status Register        
 167:../../source/include/core_cm3.h ****   __IO uint32_t DFSR;                         /*!< Offset: 0x30  Debug Fault Status Register       
 168:../../source/include/core_cm3.h ****   __IO uint32_t MMFAR;                        /*!< Offset: 0x34  Mem Manage Address Register       
 169:../../source/include/core_cm3.h ****   __IO uint32_t BFAR;                         /*!< Offset: 0x38  Bus Fault Address Register        
 170:../../source/include/core_cm3.h ****   __IO uint32_t AFSR;                         /*!< Offset: 0x3C  Auxiliary Fault Status Register   
 171:../../source/include/core_cm3.h ****   __I  uint32_t PFR[2];                       /*!< Offset: 0x40  Processor Feature Register        
 172:../../source/include/core_cm3.h ****   __I  uint32_t DFR;                          /*!< Offset: 0x48  Debug Feature Register            
 173:../../source/include/core_cm3.h ****   __I  uint32_t ADR;                          /*!< Offset: 0x4C  Auxiliary Feature Register        
 174:../../source/include/core_cm3.h ****   __I  uint32_t MMFR[4];                      /*!< Offset: 0x50  Memory Model Feature Register     
 175:../../source/include/core_cm3.h ****   __I  uint32_t ISAR[5];                      /*!< Offset: 0x60  ISA Feature Register              
 176:../../source/include/core_cm3.h **** } SCB_Type;                                                
 177:../../source/include/core_cm3.h **** 
 178:../../source/include/core_cm3.h **** /* SCB CPUID Register Definitions */
 179:../../source/include/core_cm3.h **** #define SCB_CPUID_IMPLEMENTER_Pos          24                                             /*!< SCB 
 180:../../source/include/core_cm3.h **** #define SCB_CPUID_IMPLEMENTER_Msk          (0xFFul << SCB_CPUID_IMPLEMENTER_Pos)          /*!< SCB 
 181:../../source/include/core_cm3.h **** 
 182:../../source/include/core_cm3.h **** #define SCB_CPUID_VARIANT_Pos              20                                             /*!< SCB 
 183:../../source/include/core_cm3.h **** #define SCB_CPUID_VARIANT_Msk              (0xFul << SCB_CPUID_VARIANT_Pos)               /*!< SCB 
 184:../../source/include/core_cm3.h **** 
 185:../../source/include/core_cm3.h **** #define SCB_CPUID_PARTNO_Pos                4                                             /*!< SCB 
ARM GAS  G:\Users\Jaxb\AppData\Local\Temp\ccVaMaab.s 			page 12


 186:../../source/include/core_cm3.h **** #define SCB_CPUID_PARTNO_Msk               (0xFFFul << SCB_CPUID_PARTNO_Pos)              /*!< SCB 
 187:../../source/include/core_cm3.h **** 
 188:../../source/include/core_cm3.h **** #define SCB_CPUID_REVISION_Pos              0                                             /*!< SCB 
 189:../../source/include/core_cm3.h **** #define SCB_CPUID_REVISION_Msk             (0xFul << SCB_CPUID_REVISION_Pos)              /*!< SCB 
 190:../../source/include/core_cm3.h **** 
 191:../../source/include/core_cm3.h **** /* SCB Interrupt Control State Register Definitions */
 192:../../source/include/core_cm3.h **** #define SCB_ICSR_NMIPENDSET_Pos            31                                             /*!< SCB 
 193:../../source/include/core_cm3.h **** #define SCB_ICSR_NMIPENDSET_Msk            (1ul << SCB_ICSR_NMIPENDSET_Pos)               /*!< SCB 
 194:../../source/include/core_cm3.h **** 
 195:../../source/include/core_cm3.h **** #define SCB_ICSR_PENDSVSET_Pos             28                                             /*!< SCB 
 196:../../source/include/core_cm3.h **** #define SCB_ICSR_PENDSVSET_Msk             (1ul << SCB_ICSR_PENDSVSET_Pos)                /*!< SCB 
 197:../../source/include/core_cm3.h **** 
 198:../../source/include/core_cm3.h **** #define SCB_ICSR_PENDSVCLR_Pos             27                                             /*!< SCB 
 199:../../source/include/core_cm3.h **** #define SCB_ICSR_PENDSVCLR_Msk             (1ul << SCB_ICSR_PENDSVCLR_Pos)                /*!< SCB 
 200:../../source/include/core_cm3.h **** 
 201:../../source/include/core_cm3.h **** #define SCB_ICSR_PENDSTSET_Pos             26                                             /*!< SCB 
 202:../../source/include/core_cm3.h **** #define SCB_ICSR_PENDSTSET_Msk             (1ul << SCB_ICSR_PENDSTSET_Pos)                /*!< SCB 
 203:../../source/include/core_cm3.h **** 
 204:../../source/include/core_cm3.h **** #define SCB_ICSR_PENDSTCLR_Pos             25                                             /*!< SCB 
 205:../../source/include/core_cm3.h **** #define SCB_ICSR_PENDSTCLR_Msk             (1ul << SCB_ICSR_PENDSTCLR_Pos)                /*!< SCB 
 206:../../source/include/core_cm3.h **** 
 207:../../source/include/core_cm3.h **** #define SCB_ICSR_ISRPREEMPT_Pos            23                                             /*!< SCB 
 208:../../source/include/core_cm3.h **** #define SCB_ICSR_ISRPREEMPT_Msk            (1ul << SCB_ICSR_ISRPREEMPT_Pos)               /*!< SCB 
 209:../../source/include/core_cm3.h **** 
 210:../../source/include/core_cm3.h **** #define SCB_ICSR_ISRPENDING_Pos            22                                             /*!< SCB 
 211:../../source/include/core_cm3.h **** #define SCB_ICSR_ISRPENDING_Msk            (1ul << SCB_ICSR_ISRPENDING_Pos)               /*!< SCB 
 212:../../source/include/core_cm3.h **** 
 213:../../source/include/core_cm3.h **** #define SCB_ICSR_VECTPENDING_Pos           12                                             /*!< SCB 
 214:../../source/include/core_cm3.h **** #define SCB_ICSR_VECTPENDING_Msk           (0x1FFul << SCB_ICSR_VECTPENDING_Pos)          /*!< SCB 
 215:../../source/include/core_cm3.h **** 
 216:../../source/include/core_cm3.h **** #define SCB_ICSR_RETTOBASE_Pos             11                                             /*!< SCB 
 217:../../source/include/core_cm3.h **** #define SCB_ICSR_RETTOBASE_Msk             (1ul << SCB_ICSR_RETTOBASE_Pos)                /*!< SCB 
 218:../../source/include/core_cm3.h **** 
 219:../../source/include/core_cm3.h **** #define SCB_ICSR_VECTACTIVE_Pos             0                                             /*!< SCB 
 220:../../source/include/core_cm3.h **** #define SCB_ICSR_VECTACTIVE_Msk            (0x1FFul << SCB_ICSR_VECTACTIVE_Pos)           /*!< SCB 
 221:../../source/include/core_cm3.h **** 
 222:../../source/include/core_cm3.h **** /* SCB Interrupt Control State Register Definitions */
 223:../../source/include/core_cm3.h **** #define SCB_VTOR_TBLBASE_Pos               29                                             /*!< SCB 
 224:../../source/include/core_cm3.h **** #define SCB_VTOR_TBLBASE_Msk               (0x1FFul << SCB_VTOR_TBLBASE_Pos)              /*!< SCB 
 225:../../source/include/core_cm3.h **** 
 226:../../source/include/core_cm3.h **** #define SCB_VTOR_TBLOFF_Pos                 7                                             /*!< SCB 
 227:../../source/include/core_cm3.h **** #define SCB_VTOR_TBLOFF_Msk                (0x3FFFFFul << SCB_VTOR_TBLOFF_Pos)            /*!< SCB 
 228:../../source/include/core_cm3.h **** 
 229:../../source/include/core_cm3.h **** /* SCB Application Interrupt and Reset Control Register Definitions */
 230:../../source/include/core_cm3.h **** #define SCB_AIRCR_VECTKEY_Pos              16                                             /*!< SCB 
 231:../../source/include/core_cm3.h **** #define SCB_AIRCR_VECTKEY_Msk              (0xFFFFul << SCB_AIRCR_VECTKEY_Pos)            /*!< SCB 
 232:../../source/include/core_cm3.h **** 
 233:../../source/include/core_cm3.h **** #define SCB_AIRCR_VECTKEYSTAT_Pos          16                                             /*!< SCB 
 234:../../source/include/core_cm3.h **** #define SCB_AIRCR_VECTKEYSTAT_Msk          (0xFFFFul << SCB_AIRCR_VECTKEYSTAT_Pos)        /*!< SCB 
 235:../../source/include/core_cm3.h **** 
 236:../../source/include/core_cm3.h **** #define SCB_AIRCR_ENDIANESS_Pos            15                                             /*!< SCB 
 237:../../source/include/core_cm3.h **** #define SCB_AIRCR_ENDIANESS_Msk            (1ul << SCB_AIRCR_ENDIANESS_Pos)               /*!< SCB 
 238:../../source/include/core_cm3.h **** 
 239:../../source/include/core_cm3.h **** #define SCB_AIRCR_PRIGROUP_Pos              8                                             /*!< SCB 
 240:../../source/include/core_cm3.h **** #define SCB_AIRCR_PRIGROUP_Msk             (7ul << SCB_AIRCR_PRIGROUP_Pos)                /*!< SCB 
 241:../../source/include/core_cm3.h **** 
 242:../../source/include/core_cm3.h **** #define SCB_AIRCR_SYSRESETREQ_Pos           2                                             /*!< SCB 
ARM GAS  G:\Users\Jaxb\AppData\Local\Temp\ccVaMaab.s 			page 13


 243:../../source/include/core_cm3.h **** #define SCB_AIRCR_SYSRESETREQ_Msk          (1ul << SCB_AIRCR_SYSRESETREQ_Pos)             /*!< SCB 
 244:../../source/include/core_cm3.h **** 
 245:../../source/include/core_cm3.h **** #define SCB_AIRCR_VECTCLRACTIVE_Pos         1                                             /*!< SCB 
 246:../../source/include/core_cm3.h **** #define SCB_AIRCR_VECTCLRACTIVE_Msk        (1ul << SCB_AIRCR_VECTCLRACTIVE_Pos)           /*!< SCB 
 247:../../source/include/core_cm3.h **** 
 248:../../source/include/core_cm3.h **** #define SCB_AIRCR_VECTRESET_Pos             0                                             /*!< SCB 
 249:../../source/include/core_cm3.h **** #define SCB_AIRCR_VECTRESET_Msk            (1ul << SCB_AIRCR_VECTRESET_Pos)               /*!< SCB 
 250:../../source/include/core_cm3.h **** 
 251:../../source/include/core_cm3.h **** /* SCB System Control Register Definitions */
 252:../../source/include/core_cm3.h **** #define SCB_SCR_SEVONPEND_Pos               4                                             /*!< SCB 
 253:../../source/include/core_cm3.h **** #define SCB_SCR_SEVONPEND_Msk              (1ul << SCB_SCR_SEVONPEND_Pos)                 /*!< SCB 
 254:../../source/include/core_cm3.h **** 
 255:../../source/include/core_cm3.h **** #define SCB_SCR_SLEEPDEEP_Pos               2                                             /*!< SCB 
 256:../../source/include/core_cm3.h **** #define SCB_SCR_SLEEPDEEP_Msk              (1ul << SCB_SCR_SLEEPDEEP_Pos)                 /*!< SCB 
 257:../../source/include/core_cm3.h **** 
 258:../../source/include/core_cm3.h **** #define SCB_SCR_SLEEPONEXIT_Pos             1                                             /*!< SCB 
 259:../../source/include/core_cm3.h **** #define SCB_SCR_SLEEPONEXIT_Msk            (1ul << SCB_SCR_SLEEPONEXIT_Pos)               /*!< SCB 
 260:../../source/include/core_cm3.h **** 
 261:../../source/include/core_cm3.h **** /* SCB Configuration Control Register Definitions */
 262:../../source/include/core_cm3.h **** #define SCB_CCR_STKALIGN_Pos                9                                             /*!< SCB 
 263:../../source/include/core_cm3.h **** #define SCB_CCR_STKALIGN_Msk               (1ul << SCB_CCR_STKALIGN_Pos)                  /*!< SCB 
 264:../../source/include/core_cm3.h **** 
 265:../../source/include/core_cm3.h **** #define SCB_CCR_BFHFNMIGN_Pos               8                                             /*!< SCB 
 266:../../source/include/core_cm3.h **** #define SCB_CCR_BFHFNMIGN_Msk              (1ul << SCB_CCR_BFHFNMIGN_Pos)                 /*!< SCB 
 267:../../source/include/core_cm3.h **** 
 268:../../source/include/core_cm3.h **** #define SCB_CCR_DIV_0_TRP_Pos               4                                             /*!< SCB 
 269:../../source/include/core_cm3.h **** #define SCB_CCR_DIV_0_TRP_Msk              (1ul << SCB_CCR_DIV_0_TRP_Pos)                 /*!< SCB 
 270:../../source/include/core_cm3.h **** 
 271:../../source/include/core_cm3.h **** #define SCB_CCR_UNALIGN_TRP_Pos             3                                             /*!< SCB 
 272:../../source/include/core_cm3.h **** #define SCB_CCR_UNALIGN_TRP_Msk            (1ul << SCB_CCR_UNALIGN_TRP_Pos)               /*!< SCB 
 273:../../source/include/core_cm3.h **** 
 274:../../source/include/core_cm3.h **** #define SCB_CCR_USERSETMPEND_Pos            1                                             /*!< SCB 
 275:../../source/include/core_cm3.h **** #define SCB_CCR_USERSETMPEND_Msk           (1ul << SCB_CCR_USERSETMPEND_Pos)              /*!< SCB 
 276:../../source/include/core_cm3.h **** 
 277:../../source/include/core_cm3.h **** #define SCB_CCR_NONBASETHRDENA_Pos          0                                             /*!< SCB 
 278:../../source/include/core_cm3.h **** #define SCB_CCR_NONBASETHRDENA_Msk         (1ul << SCB_CCR_NONBASETHRDENA_Pos)            /*!< SCB 
 279:../../source/include/core_cm3.h **** 
 280:../../source/include/core_cm3.h **** /* SCB System Handler Control and State Register Definitions */
 281:../../source/include/core_cm3.h **** #define SCB_SHCSR_USGFAULTENA_Pos          18                                             /*!< SCB 
 282:../../source/include/core_cm3.h **** #define SCB_SHCSR_USGFAULTENA_Msk          (1ul << SCB_SHCSR_USGFAULTENA_Pos)             /*!< SCB 
 283:../../source/include/core_cm3.h **** 
 284:../../source/include/core_cm3.h **** #define SCB_SHCSR_BUSFAULTENA_Pos          17                                             /*!< SCB 
 285:../../source/include/core_cm3.h **** #define SCB_SHCSR_BUSFAULTENA_Msk          (1ul << SCB_SHCSR_BUSFAULTENA_Pos)             /*!< SCB 
 286:../../source/include/core_cm3.h **** 
 287:../../source/include/core_cm3.h **** #define SCB_SHCSR_MEMFAULTENA_Pos          16                                             /*!< SCB 
 288:../../source/include/core_cm3.h **** #define SCB_SHCSR_MEMFAULTENA_Msk          (1ul << SCB_SHCSR_MEMFAULTENA_Pos)             /*!< SCB 
 289:../../source/include/core_cm3.h **** 
 290:../../source/include/core_cm3.h **** #define SCB_SHCSR_SVCALLPENDED_Pos         15                                             /*!< SCB 
 291:../../source/include/core_cm3.h **** #define SCB_SHCSR_SVCALLPENDED_Msk         (1ul << SCB_SHCSR_SVCALLPENDED_Pos)            /*!< SCB 
 292:../../source/include/core_cm3.h **** 
 293:../../source/include/core_cm3.h **** #define SCB_SHCSR_BUSFAULTPENDED_Pos       14                                             /*!< SCB 
 294:../../source/include/core_cm3.h **** #define SCB_SHCSR_BUSFAULTPENDED_Msk       (1ul << SCB_SHCSR_BUSFAULTPENDED_Pos)          /*!< SCB 
 295:../../source/include/core_cm3.h **** 
 296:../../source/include/core_cm3.h **** #define SCB_SHCSR_MEMFAULTPENDED_Pos       13                                             /*!< SCB 
 297:../../source/include/core_cm3.h **** #define SCB_SHCSR_MEMFAULTPENDED_Msk       (1ul << SCB_SHCSR_MEMFAULTPENDED_Pos)          /*!< SCB 
 298:../../source/include/core_cm3.h **** 
 299:../../source/include/core_cm3.h **** #define SCB_SHCSR_USGFAULTPENDED_Pos       12                                             /*!< SCB 
ARM GAS  G:\Users\Jaxb\AppData\Local\Temp\ccVaMaab.s 			page 14


 300:../../source/include/core_cm3.h **** #define SCB_SHCSR_USGFAULTPENDED_Msk       (1ul << SCB_SHCSR_USGFAULTPENDED_Pos)          /*!< SCB 
 301:../../source/include/core_cm3.h **** 
 302:../../source/include/core_cm3.h **** #define SCB_SHCSR_SYSTICKACT_Pos           11                                             /*!< SCB 
 303:../../source/include/core_cm3.h **** #define SCB_SHCSR_SYSTICKACT_Msk           (1ul << SCB_SHCSR_SYSTICKACT_Pos)              /*!< SCB 
 304:../../source/include/core_cm3.h **** 
 305:../../source/include/core_cm3.h **** #define SCB_SHCSR_PENDSVACT_Pos            10                                             /*!< SCB 
 306:../../source/include/core_cm3.h **** #define SCB_SHCSR_PENDSVACT_Msk            (1ul << SCB_SHCSR_PENDSVACT_Pos)               /*!< SCB 
 307:../../source/include/core_cm3.h **** 
 308:../../source/include/core_cm3.h **** #define SCB_SHCSR_MONITORACT_Pos            8                                             /*!< SCB 
 309:../../source/include/core_cm3.h **** #define SCB_SHCSR_MONITORACT_Msk           (1ul << SCB_SHCSR_MONITORACT_Pos)              /*!< SCB 
 310:../../source/include/core_cm3.h **** 
 311:../../source/include/core_cm3.h **** #define SCB_SHCSR_SVCALLACT_Pos             7                                             /*!< SCB 
 312:../../source/include/core_cm3.h **** #define SCB_SHCSR_SVCALLACT_Msk            (1ul << SCB_SHCSR_SVCALLACT_Pos)               /*!< SCB 
 313:../../source/include/core_cm3.h ****                                      
 314:../../source/include/core_cm3.h **** #define SCB_SHCSR_USGFAULTACT_Pos           3                                             /*!< SCB 
 315:../../source/include/core_cm3.h **** #define SCB_SHCSR_USGFAULTACT_Msk          (1ul << SCB_SHCSR_USGFAULTACT_Pos)             /*!< SCB 
 316:../../source/include/core_cm3.h **** 
 317:../../source/include/core_cm3.h **** #define SCB_SHCSR_BUSFAULTACT_Pos           1                                             /*!< SCB 
 318:../../source/include/core_cm3.h **** #define SCB_SHCSR_BUSFAULTACT_Msk          (1ul << SCB_SHCSR_BUSFAULTACT_Pos)             /*!< SCB 
 319:../../source/include/core_cm3.h **** 
 320:../../source/include/core_cm3.h **** #define SCB_SHCSR_MEMFAULTACT_Pos           0                                             /*!< SCB 
 321:../../source/include/core_cm3.h **** #define SCB_SHCSR_MEMFAULTACT_Msk          (1ul << SCB_SHCSR_MEMFAULTACT_Pos)             /*!< SCB 
 322:../../source/include/core_cm3.h **** 
 323:../../source/include/core_cm3.h **** /* SCB Configurable Fault Status Registers Definitions */
 324:../../source/include/core_cm3.h **** #define SCB_CFSR_USGFAULTSR_Pos            16                                             /*!< SCB 
 325:../../source/include/core_cm3.h **** #define SCB_CFSR_USGFAULTSR_Msk            (0xFFFFul << SCB_CFSR_USGFAULTSR_Pos)          /*!< SCB 
 326:../../source/include/core_cm3.h **** 
 327:../../source/include/core_cm3.h **** #define SCB_CFSR_BUSFAULTSR_Pos             8                                             /*!< SCB 
 328:../../source/include/core_cm3.h **** #define SCB_CFSR_BUSFAULTSR_Msk            (0xFFul << SCB_CFSR_BUSFAULTSR_Pos)            /*!< SCB 
 329:../../source/include/core_cm3.h **** 
 330:../../source/include/core_cm3.h **** #define SCB_CFSR_MEMFAULTSR_Pos             0                                             /*!< SCB 
 331:../../source/include/core_cm3.h **** #define SCB_CFSR_MEMFAULTSR_Msk            (0xFFul << SCB_CFSR_MEMFAULTSR_Pos)            /*!< SCB 
 332:../../source/include/core_cm3.h **** 
 333:../../source/include/core_cm3.h **** /* SCB Hard Fault Status Registers Definitions */
 334:../../source/include/core_cm3.h **** #define SCB_HFSR_DEBUGEVT_Pos              31                                             /*!< SCB 
 335:../../source/include/core_cm3.h **** #define SCB_HFSR_DEBUGEVT_Msk              (1ul << SCB_HFSR_DEBUGEVT_Pos)                 /*!< SCB 
 336:../../source/include/core_cm3.h **** 
 337:../../source/include/core_cm3.h **** #define SCB_HFSR_FORCED_Pos                30                                             /*!< SCB 
 338:../../source/include/core_cm3.h **** #define SCB_HFSR_FORCED_Msk                (1ul << SCB_HFSR_FORCED_Pos)                   /*!< SCB 
 339:../../source/include/core_cm3.h **** 
 340:../../source/include/core_cm3.h **** #define SCB_HFSR_VECTTBL_Pos                1                                             /*!< SCB 
 341:../../source/include/core_cm3.h **** #define SCB_HFSR_VECTTBL_Msk               (1ul << SCB_HFSR_VECTTBL_Pos)                  /*!< SCB 
 342:../../source/include/core_cm3.h **** 
 343:../../source/include/core_cm3.h **** /* SCB Debug Fault Status Register Definitions */
 344:../../source/include/core_cm3.h **** #define SCB_DFSR_EXTERNAL_Pos               4                                             /*!< SCB 
 345:../../source/include/core_cm3.h **** #define SCB_DFSR_EXTERNAL_Msk              (1ul << SCB_DFSR_EXTERNAL_Pos)                 /*!< SCB 
 346:../../source/include/core_cm3.h **** 
 347:../../source/include/core_cm3.h **** #define SCB_DFSR_VCATCH_Pos                 3                                             /*!< SCB 
 348:../../source/include/core_cm3.h **** #define SCB_DFSR_VCATCH_Msk                (1ul << SCB_DFSR_VCATCH_Pos)                   /*!< SCB 
 349:../../source/include/core_cm3.h **** 
 350:../../source/include/core_cm3.h **** #define SCB_DFSR_DWTTRAP_Pos                2                                             /*!< SCB 
 351:../../source/include/core_cm3.h **** #define SCB_DFSR_DWTTRAP_Msk               (1ul << SCB_DFSR_DWTTRAP_Pos)                  /*!< SCB 
 352:../../source/include/core_cm3.h **** 
 353:../../source/include/core_cm3.h **** #define SCB_DFSR_BKPT_Pos                   1                                             /*!< SCB 
 354:../../source/include/core_cm3.h **** #define SCB_DFSR_BKPT_Msk                  (1ul << SCB_DFSR_BKPT_Pos)                     /*!< SCB 
 355:../../source/include/core_cm3.h **** 
 356:../../source/include/core_cm3.h **** #define SCB_DFSR_HALTED_Pos                 0                                             /*!< SCB 
ARM GAS  G:\Users\Jaxb\AppData\Local\Temp\ccVaMaab.s 			page 15


 357:../../source/include/core_cm3.h **** #define SCB_DFSR_HALTED_Msk                (1ul << SCB_DFSR_HALTED_Pos)                   /*!< SCB 
 358:../../source/include/core_cm3.h **** /*@}*/ /* end of group CMSIS_CM3_SCB */
 359:../../source/include/core_cm3.h **** 
 360:../../source/include/core_cm3.h **** 
 361:../../source/include/core_cm3.h **** /** @addtogroup CMSIS_CM3_SysTick CMSIS CM3 SysTick
 362:../../source/include/core_cm3.h ****   memory mapped structure for SysTick
 363:../../source/include/core_cm3.h ****   @{
 364:../../source/include/core_cm3.h ****  */
 365:../../source/include/core_cm3.h **** typedef struct
 366:../../source/include/core_cm3.h **** {
 367:../../source/include/core_cm3.h ****   __IO uint32_t CTRL;                         /*!< Offset: 0x00  SysTick Control and Status Registe
 368:../../source/include/core_cm3.h ****   __IO uint32_t LOAD;                         /*!< Offset: 0x04  SysTick Reload Value Register     
 369:../../source/include/core_cm3.h ****   __IO uint32_t VAL;                          /*!< Offset: 0x08  SysTick Current Value Register    
 370:../../source/include/core_cm3.h ****   __I  uint32_t CALIB;                        /*!< Offset: 0x0C  SysTick Calibration Register      
 371:../../source/include/core_cm3.h **** } SysTick_Type;
 372:../../source/include/core_cm3.h **** 
 373:../../source/include/core_cm3.h **** /* SysTick Control / Status Register Definitions */
 374:../../source/include/core_cm3.h **** #define SysTick_CTRL_COUNTFLAG_Pos         16                                             /*!< SysT
 375:../../source/include/core_cm3.h **** #define SysTick_CTRL_COUNTFLAG_Msk         (1ul << SysTick_CTRL_COUNTFLAG_Pos)            /*!< SysT
 376:../../source/include/core_cm3.h **** 
 377:../../source/include/core_cm3.h **** #define SysTick_CTRL_CLKSOURCE_Pos          2                                             /*!< SysT
 378:../../source/include/core_cm3.h **** #define SysTick_CTRL_CLKSOURCE_Msk         (1ul << SysTick_CTRL_CLKSOURCE_Pos)            /*!< SysT
 379:../../source/include/core_cm3.h **** 
 380:../../source/include/core_cm3.h **** #define SysTick_CTRL_TICKINT_Pos            1                                             /*!< SysT
 381:../../source/include/core_cm3.h **** #define SysTick_CTRL_TICKINT_Msk           (1ul << SysTick_CTRL_TICKINT_Pos)              /*!< SysT
 382:../../source/include/core_cm3.h **** 
 383:../../source/include/core_cm3.h **** #define SysTick_CTRL_ENABLE_Pos             0                                             /*!< SysT
 384:../../source/include/core_cm3.h **** #define SysTick_CTRL_ENABLE_Msk            (1ul << SysTick_CTRL_ENABLE_Pos)               /*!< SysT
 385:../../source/include/core_cm3.h **** 
 386:../../source/include/core_cm3.h **** /* SysTick Reload Register Definitions */
 387:../../source/include/core_cm3.h **** #define SysTick_LOAD_RELOAD_Pos             0                                             /*!< SysT
 388:../../source/include/core_cm3.h **** #define SysTick_LOAD_RELOAD_Msk            (0xFFFFFFul << SysTick_LOAD_RELOAD_Pos)        /*!< SysT
 389:../../source/include/core_cm3.h **** 
 390:../../source/include/core_cm3.h **** /* SysTick Current Register Definitions */
 391:../../source/include/core_cm3.h **** #define SysTick_VAL_CURRENT_Pos             0                                             /*!< SysT
 392:../../source/include/core_cm3.h **** #define SysTick_VAL_CURRENT_Msk            (0xFFFFFFul << SysTick_VAL_CURRENT_Pos)        /*!< SysT
 393:../../source/include/core_cm3.h **** 
 394:../../source/include/core_cm3.h **** /* SysTick Calibration Register Definitions */
 395:../../source/include/core_cm3.h **** #define SysTick_CALIB_NOREF_Pos            31                                             /*!< SysT
 396:../../source/include/core_cm3.h **** #define SysTick_CALIB_NOREF_Msk            (1ul << SysTick_CALIB_NOREF_Pos)               /*!< SysT
 397:../../source/include/core_cm3.h **** 
 398:../../source/include/core_cm3.h **** #define SysTick_CALIB_SKEW_Pos             30                                             /*!< SysT
 399:../../source/include/core_cm3.h **** #define SysTick_CALIB_SKEW_Msk             (1ul << SysTick_CALIB_SKEW_Pos)                /*!< SysT
 400:../../source/include/core_cm3.h **** 
 401:../../source/include/core_cm3.h **** #define SysTick_CALIB_TENMS_Pos             0                                             /*!< SysT
 402:../../source/include/core_cm3.h **** #define SysTick_CALIB_TENMS_Msk            (0xFFFFFFul << SysTick_VAL_CURRENT_Pos)        /*!< SysT
 403:../../source/include/core_cm3.h **** /*@}*/ /* end of group CMSIS_CM3_SysTick */
 404:../../source/include/core_cm3.h **** 
 405:../../source/include/core_cm3.h **** 
 406:../../source/include/core_cm3.h **** /** @addtogroup CMSIS_CM3_ITM CMSIS CM3 ITM
 407:../../source/include/core_cm3.h ****   memory mapped structure for Instrumentation Trace Macrocell (ITM)
 408:../../source/include/core_cm3.h ****   @{
 409:../../source/include/core_cm3.h ****  */
 410:../../source/include/core_cm3.h **** typedef struct
 411:../../source/include/core_cm3.h **** {
 412:../../source/include/core_cm3.h ****   __O  union  
 413:../../source/include/core_cm3.h ****   {
ARM GAS  G:\Users\Jaxb\AppData\Local\Temp\ccVaMaab.s 			page 16


 414:../../source/include/core_cm3.h ****     __O  uint8_t    u8;                       /*!< Offset:       ITM Stimulus Port 8-bit           
 415:../../source/include/core_cm3.h ****     __O  uint16_t   u16;                      /*!< Offset:       ITM Stimulus Port 16-bit          
 416:../../source/include/core_cm3.h ****     __O  uint32_t   u32;                      /*!< Offset:       ITM Stimulus Port 32-bit          
 417:../../source/include/core_cm3.h ****   }  PORT [32];                               /*!< Offset: 0x00  ITM Stimulus Port Registers       
 418:../../source/include/core_cm3.h ****        uint32_t RESERVED0[864];                                 
 419:../../source/include/core_cm3.h ****   __IO uint32_t TER;                          /*!< Offset:       ITM Trace Enable Register         
 420:../../source/include/core_cm3.h ****        uint32_t RESERVED1[15];                                  
 421:../../source/include/core_cm3.h ****   __IO uint32_t TPR;                          /*!< Offset:       ITM Trace Privilege Register      
 422:../../source/include/core_cm3.h ****        uint32_t RESERVED2[15];                                  
 423:../../source/include/core_cm3.h ****   __IO uint32_t TCR;                          /*!< Offset:       ITM Trace Control Register        
 424:../../source/include/core_cm3.h ****        uint32_t RESERVED3[29];                                  
 425:../../source/include/core_cm3.h ****   __IO uint32_t IWR;                          /*!< Offset:       ITM Integration Write Register    
 426:../../source/include/core_cm3.h ****   __IO uint32_t IRR;                          /*!< Offset:       ITM Integration Read Register     
 427:../../source/include/core_cm3.h ****   __IO uint32_t IMCR;                         /*!< Offset:       ITM Integration Mode Control Regis
 428:../../source/include/core_cm3.h ****        uint32_t RESERVED4[43];                                  
 429:../../source/include/core_cm3.h ****   __IO uint32_t LAR;                          /*!< Offset:       ITM Lock Access Register          
 430:../../source/include/core_cm3.h ****   __IO uint32_t LSR;                          /*!< Offset:       ITM Lock Status Register          
 431:../../source/include/core_cm3.h ****        uint32_t RESERVED5[6];                                   
 432:../../source/include/core_cm3.h ****   __I  uint32_t PID4;                         /*!< Offset:       ITM Peripheral Identification Regi
 433:../../source/include/core_cm3.h ****   __I  uint32_t PID5;                         /*!< Offset:       ITM Peripheral Identification Regi
 434:../../source/include/core_cm3.h ****   __I  uint32_t PID6;                         /*!< Offset:       ITM Peripheral Identification Regi
 435:../../source/include/core_cm3.h ****   __I  uint32_t PID7;                         /*!< Offset:       ITM Peripheral Identification Regi
 436:../../source/include/core_cm3.h ****   __I  uint32_t PID0;                         /*!< Offset:       ITM Peripheral Identification Regi
 437:../../source/include/core_cm3.h ****   __I  uint32_t PID1;                         /*!< Offset:       ITM Peripheral Identification Regi
 438:../../source/include/core_cm3.h ****   __I  uint32_t PID2;                         /*!< Offset:       ITM Peripheral Identification Regi
 439:../../source/include/core_cm3.h ****   __I  uint32_t PID3;                         /*!< Offset:       ITM Peripheral Identification Regi
 440:../../source/include/core_cm3.h ****   __I  uint32_t CID0;                         /*!< Offset:       ITM Component  Identification Regi
 441:../../source/include/core_cm3.h ****   __I  uint32_t CID1;                         /*!< Offset:       ITM Component  Identification Regi
 442:../../source/include/core_cm3.h ****   __I  uint32_t CID2;                         /*!< Offset:       ITM Component  Identification Regi
 443:../../source/include/core_cm3.h ****   __I  uint32_t CID3;                         /*!< Offset:       ITM Component  Identification Regi
 444:../../source/include/core_cm3.h **** } ITM_Type;                                                
 445:../../source/include/core_cm3.h **** 
 446:../../source/include/core_cm3.h **** /* ITM Trace Privilege Register Definitions */
 447:../../source/include/core_cm3.h **** #define ITM_TPR_PRIVMASK_Pos                0                                             /*!< ITM 
 448:../../source/include/core_cm3.h **** #define ITM_TPR_PRIVMASK_Msk               (0xFul << ITM_TPR_PRIVMASK_Pos)                /*!< ITM 
 449:../../source/include/core_cm3.h **** 
 450:../../source/include/core_cm3.h **** /* ITM Trace Control Register Definitions */
 451:../../source/include/core_cm3.h **** #define ITM_TCR_BUSY_Pos                   23                                             /*!< ITM 
 452:../../source/include/core_cm3.h **** #define ITM_TCR_BUSY_Msk                   (1ul << ITM_TCR_BUSY_Pos)                      /*!< ITM 
 453:../../source/include/core_cm3.h **** 
 454:../../source/include/core_cm3.h **** #define ITM_TCR_ATBID_Pos                  16                                             /*!< ITM 
 455:../../source/include/core_cm3.h **** #define ITM_TCR_ATBID_Msk                  (0x7Ful << ITM_TCR_ATBID_Pos)                  /*!< ITM 
 456:../../source/include/core_cm3.h **** 
 457:../../source/include/core_cm3.h **** #define ITM_TCR_TSPrescale_Pos              8                                             /*!< ITM 
 458:../../source/include/core_cm3.h **** #define ITM_TCR_TSPrescale_Msk             (3ul << ITM_TCR_TSPrescale_Pos)                /*!< ITM 
 459:../../source/include/core_cm3.h **** 
 460:../../source/include/core_cm3.h **** #define ITM_TCR_SWOENA_Pos                  4                                             /*!< ITM 
 461:../../source/include/core_cm3.h **** #define ITM_TCR_SWOENA_Msk                 (1ul << ITM_TCR_SWOENA_Pos)                    /*!< ITM 
 462:../../source/include/core_cm3.h **** 
 463:../../source/include/core_cm3.h **** #define ITM_TCR_DWTENA_Pos                  3                                             /*!< ITM 
 464:../../source/include/core_cm3.h **** #define ITM_TCR_DWTENA_Msk                 (1ul << ITM_TCR_DWTENA_Pos)                    /*!< ITM 
 465:../../source/include/core_cm3.h **** 
 466:../../source/include/core_cm3.h **** #define ITM_TCR_SYNCENA_Pos                 2                                             /*!< ITM 
 467:../../source/include/core_cm3.h **** #define ITM_TCR_SYNCENA_Msk                (1ul << ITM_TCR_SYNCENA_Pos)                   /*!< ITM 
 468:../../source/include/core_cm3.h **** 
 469:../../source/include/core_cm3.h **** #define ITM_TCR_TSENA_Pos                   1                                             /*!< ITM 
 470:../../source/include/core_cm3.h **** #define ITM_TCR_TSENA_Msk                  (1ul << ITM_TCR_TSENA_Pos)                     /*!< ITM 
ARM GAS  G:\Users\Jaxb\AppData\Local\Temp\ccVaMaab.s 			page 17


 471:../../source/include/core_cm3.h **** 
 472:../../source/include/core_cm3.h **** #define ITM_TCR_ITMENA_Pos                  0                                             /*!< ITM 
 473:../../source/include/core_cm3.h **** #define ITM_TCR_ITMENA_Msk                 (1ul << ITM_TCR_ITMENA_Pos)                    /*!< ITM 
 474:../../source/include/core_cm3.h **** 
 475:../../source/include/core_cm3.h **** /* ITM Integration Write Register Definitions */
 476:../../source/include/core_cm3.h **** #define ITM_IWR_ATVALIDM_Pos                0                                             /*!< ITM 
 477:../../source/include/core_cm3.h **** #define ITM_IWR_ATVALIDM_Msk               (1ul << ITM_IWR_ATVALIDM_Pos)                  /*!< ITM 
 478:../../source/include/core_cm3.h **** 
 479:../../source/include/core_cm3.h **** /* ITM Integration Read Register Definitions */
 480:../../source/include/core_cm3.h **** #define ITM_IRR_ATREADYM_Pos                0                                             /*!< ITM 
 481:../../source/include/core_cm3.h **** #define ITM_IRR_ATREADYM_Msk               (1ul << ITM_IRR_ATREADYM_Pos)                  /*!< ITM 
 482:../../source/include/core_cm3.h **** 
 483:../../source/include/core_cm3.h **** /* ITM Integration Mode Control Register Definitions */
 484:../../source/include/core_cm3.h **** #define ITM_IMCR_INTEGRATION_Pos            0                                             /*!< ITM 
 485:../../source/include/core_cm3.h **** #define ITM_IMCR_INTEGRATION_Msk           (1ul << ITM_IMCR_INTEGRATION_Pos)              /*!< ITM 
 486:../../source/include/core_cm3.h **** 
 487:../../source/include/core_cm3.h **** /* ITM Lock Status Register Definitions */
 488:../../source/include/core_cm3.h **** #define ITM_LSR_ByteAcc_Pos                 2                                             /*!< ITM 
 489:../../source/include/core_cm3.h **** #define ITM_LSR_ByteAcc_Msk                (1ul << ITM_LSR_ByteAcc_Pos)                   /*!< ITM 
 490:../../source/include/core_cm3.h **** 
 491:../../source/include/core_cm3.h **** #define ITM_LSR_Access_Pos                  1                                             /*!< ITM 
 492:../../source/include/core_cm3.h **** #define ITM_LSR_Access_Msk                 (1ul << ITM_LSR_Access_Pos)                    /*!< ITM 
 493:../../source/include/core_cm3.h **** 
 494:../../source/include/core_cm3.h **** #define ITM_LSR_Present_Pos                 0                                             /*!< ITM 
 495:../../source/include/core_cm3.h **** #define ITM_LSR_Present_Msk                (1ul << ITM_LSR_Present_Pos)                   /*!< ITM 
 496:../../source/include/core_cm3.h **** /*@}*/ /* end of group CMSIS_CM3_ITM */
 497:../../source/include/core_cm3.h **** 
 498:../../source/include/core_cm3.h **** 
 499:../../source/include/core_cm3.h **** /** @addtogroup CMSIS_CM3_InterruptType CMSIS CM3 Interrupt Type
 500:../../source/include/core_cm3.h ****   memory mapped structure for Interrupt Type
 501:../../source/include/core_cm3.h ****   @{
 502:../../source/include/core_cm3.h ****  */
 503:../../source/include/core_cm3.h **** typedef struct
 504:../../source/include/core_cm3.h **** {
 505:../../source/include/core_cm3.h ****        uint32_t RESERVED0;
 506:../../source/include/core_cm3.h ****   __I  uint32_t ICTR;                         /*!< Offset: 0x04  Interrupt Control Type Register */
 507:../../source/include/core_cm3.h **** #if ((defined __CM3_REV) && (__CM3_REV >= 0x200))
 508:../../source/include/core_cm3.h ****   __IO uint32_t ACTLR;                        /*!< Offset: 0x08  Auxiliary Control Register      */
 509:../../source/include/core_cm3.h **** #else
 510:../../source/include/core_cm3.h ****        uint32_t RESERVED1;
 511:../../source/include/core_cm3.h **** #endif
 512:../../source/include/core_cm3.h **** } InterruptType_Type;
 513:../../source/include/core_cm3.h **** 
 514:../../source/include/core_cm3.h **** /* Interrupt Controller Type Register Definitions */
 515:../../source/include/core_cm3.h **** #define InterruptType_ICTR_INTLINESNUM_Pos  0                                             /*!< Inte
 516:../../source/include/core_cm3.h **** #define InterruptType_ICTR_INTLINESNUM_Msk (0x1Ful << InterruptType_ICTR_INTLINESNUM_Pos) /*!< Inte
 517:../../source/include/core_cm3.h **** 
 518:../../source/include/core_cm3.h **** /* Auxiliary Control Register Definitions */
 519:../../source/include/core_cm3.h **** #define InterruptType_ACTLR_DISFOLD_Pos     2                                             /*!< Inte
 520:../../source/include/core_cm3.h **** #define InterruptType_ACTLR_DISFOLD_Msk    (1ul << InterruptType_ACTLR_DISFOLD_Pos)       /*!< Inte
 521:../../source/include/core_cm3.h **** 
 522:../../source/include/core_cm3.h **** #define InterruptType_ACTLR_DISDEFWBUF_Pos  1                                             /*!< Inte
 523:../../source/include/core_cm3.h **** #define InterruptType_ACTLR_DISDEFWBUF_Msk (1ul << InterruptType_ACTLR_DISDEFWBUF_Pos)    /*!< Inte
 524:../../source/include/core_cm3.h **** 
 525:../../source/include/core_cm3.h **** #define InterruptType_ACTLR_DISMCYCINT_Pos  0                                             /*!< Inte
 526:../../source/include/core_cm3.h **** #define InterruptType_ACTLR_DISMCYCINT_Msk (1ul << InterruptType_ACTLR_DISMCYCINT_Pos)    /*!< Inte
 527:../../source/include/core_cm3.h **** /*@}*/ /* end of group CMSIS_CM3_InterruptType */
ARM GAS  G:\Users\Jaxb\AppData\Local\Temp\ccVaMaab.s 			page 18


 528:../../source/include/core_cm3.h **** 
 529:../../source/include/core_cm3.h **** 
 530:../../source/include/core_cm3.h **** #if defined (__MPU_PRESENT) && (__MPU_PRESENT == 1)
 531:../../source/include/core_cm3.h **** /** @addtogroup CMSIS_CM3_MPU CMSIS CM3 MPU
 532:../../source/include/core_cm3.h ****   memory mapped structure for Memory Protection Unit (MPU)
 533:../../source/include/core_cm3.h ****   @{
 534:../../source/include/core_cm3.h ****  */
 535:../../source/include/core_cm3.h **** typedef struct
 536:../../source/include/core_cm3.h **** {
 537:../../source/include/core_cm3.h ****   __I  uint32_t TYPE;                         /*!< Offset: 0x00  MPU Type Register                 
 538:../../source/include/core_cm3.h ****   __IO uint32_t CTRL;                         /*!< Offset: 0x04  MPU Control Register              
 539:../../source/include/core_cm3.h ****   __IO uint32_t RNR;                          /*!< Offset: 0x08  MPU Region RNRber Register        
 540:../../source/include/core_cm3.h ****   __IO uint32_t RBAR;                         /*!< Offset: 0x0C  MPU Region Base Address Register  
 541:../../source/include/core_cm3.h ****   __IO uint32_t RASR;                         /*!< Offset: 0x10  MPU Region Attribute and Size Regi
 542:../../source/include/core_cm3.h ****   __IO uint32_t RBAR_A1;                      /*!< Offset: 0x14  MPU Alias 1 Region Base Address Re
 543:../../source/include/core_cm3.h ****   __IO uint32_t RASR_A1;                      /*!< Offset: 0x18  MPU Alias 1 Region Attribute and S
 544:../../source/include/core_cm3.h ****   __IO uint32_t RBAR_A2;                      /*!< Offset: 0x1C  MPU Alias 2 Region Base Address Re
 545:../../source/include/core_cm3.h ****   __IO uint32_t RASR_A2;                      /*!< Offset: 0x20  MPU Alias 2 Region Attribute and S
 546:../../source/include/core_cm3.h ****   __IO uint32_t RBAR_A3;                      /*!< Offset: 0x24  MPU Alias 3 Region Base Address Re
 547:../../source/include/core_cm3.h ****   __IO uint32_t RASR_A3;                      /*!< Offset: 0x28  MPU Alias 3 Region Attribute and S
 548:../../source/include/core_cm3.h **** } MPU_Type;                                                
 549:../../source/include/core_cm3.h **** 
 550:../../source/include/core_cm3.h **** /* MPU Type Register */
 551:../../source/include/core_cm3.h **** #define MPU_TYPE_IREGION_Pos               16                                             /*!< MPU 
 552:../../source/include/core_cm3.h **** #define MPU_TYPE_IREGION_Msk               (0xFFul << MPU_TYPE_IREGION_Pos)               /*!< MPU 
 553:../../source/include/core_cm3.h **** 
 554:../../source/include/core_cm3.h **** #define MPU_TYPE_DREGION_Pos                8                                             /*!< MPU 
 555:../../source/include/core_cm3.h **** #define MPU_TYPE_DREGION_Msk               (0xFFul << MPU_TYPE_DREGION_Pos)               /*!< MPU 
 556:../../source/include/core_cm3.h **** 
 557:../../source/include/core_cm3.h **** #define MPU_TYPE_SEPARATE_Pos               0                                             /*!< MPU 
 558:../../source/include/core_cm3.h **** #define MPU_TYPE_SEPARATE_Msk              (1ul << MPU_TYPE_SEPARATE_Pos)                 /*!< MPU 
 559:../../source/include/core_cm3.h **** 
 560:../../source/include/core_cm3.h **** /* MPU Control Register */
 561:../../source/include/core_cm3.h **** #define MPU_CTRL_PRIVDEFENA_Pos             2                                             /*!< MPU 
 562:../../source/include/core_cm3.h **** #define MPU_CTRL_PRIVDEFENA_Msk            (1ul << MPU_CTRL_PRIVDEFENA_Pos)               /*!< MPU 
 563:../../source/include/core_cm3.h **** 
 564:../../source/include/core_cm3.h **** #define MPU_CTRL_HFNMIENA_Pos               1                                             /*!< MPU 
 565:../../source/include/core_cm3.h **** #define MPU_CTRL_HFNMIENA_Msk              (1ul << MPU_CTRL_HFNMIENA_Pos)                 /*!< MPU 
 566:../../source/include/core_cm3.h **** 
 567:../../source/include/core_cm3.h **** #define MPU_CTRL_ENABLE_Pos                 0                                             /*!< MPU 
 568:../../source/include/core_cm3.h **** #define MPU_CTRL_ENABLE_Msk                (1ul << MPU_CTRL_ENABLE_Pos)                   /*!< MPU 
 569:../../source/include/core_cm3.h **** 
 570:../../source/include/core_cm3.h **** /* MPU Region Number Register */
 571:../../source/include/core_cm3.h **** #define MPU_RNR_REGION_Pos                  0                                             /*!< MPU 
 572:../../source/include/core_cm3.h **** #define MPU_RNR_REGION_Msk                 (0xFFul << MPU_RNR_REGION_Pos)                 /*!< MPU 
 573:../../source/include/core_cm3.h **** 
 574:../../source/include/core_cm3.h **** /* MPU Region Base Address Register */
 575:../../source/include/core_cm3.h **** #define MPU_RBAR_ADDR_Pos                   5                                             /*!< MPU 
 576:../../source/include/core_cm3.h **** #define MPU_RBAR_ADDR_Msk                  (0x7FFFFFFul << MPU_RBAR_ADDR_Pos)             /*!< MPU 
 577:../../source/include/core_cm3.h **** 
 578:../../source/include/core_cm3.h **** #define MPU_RBAR_VALID_Pos                  4                                             /*!< MPU 
 579:../../source/include/core_cm3.h **** #define MPU_RBAR_VALID_Msk                 (1ul << MPU_RBAR_VALID_Pos)                    /*!< MPU 
 580:../../source/include/core_cm3.h **** 
 581:../../source/include/core_cm3.h **** #define MPU_RBAR_REGION_Pos                 0                                             /*!< MPU 
 582:../../source/include/core_cm3.h **** #define MPU_RBAR_REGION_Msk                (0xFul << MPU_RBAR_REGION_Pos)                 /*!< MPU 
 583:../../source/include/core_cm3.h **** 
 584:../../source/include/core_cm3.h **** /* MPU Region Attribute and Size Register */
ARM GAS  G:\Users\Jaxb\AppData\Local\Temp\ccVaMaab.s 			page 19


 585:../../source/include/core_cm3.h **** #define MPU_RASR_XN_Pos                    28                                             /*!< MPU 
 586:../../source/include/core_cm3.h **** #define MPU_RASR_XN_Msk                    (1ul << MPU_RASR_XN_Pos)                       /*!< MPU 
 587:../../source/include/core_cm3.h **** 
 588:../../source/include/core_cm3.h **** #define MPU_RASR_AP_Pos                    24                                             /*!< MPU 
 589:../../source/include/core_cm3.h **** #define MPU_RASR_AP_Msk                    (7ul << MPU_RASR_AP_Pos)                       /*!< MPU 
 590:../../source/include/core_cm3.h **** 
 591:../../source/include/core_cm3.h **** #define MPU_RASR_TEX_Pos                   19                                             /*!< MPU 
 592:../../source/include/core_cm3.h **** #define MPU_RASR_TEX_Msk                   (7ul << MPU_RASR_TEX_Pos)                      /*!< MPU 
 593:../../source/include/core_cm3.h **** 
 594:../../source/include/core_cm3.h **** #define MPU_RASR_S_Pos                     18                                             /*!< MPU 
 595:../../source/include/core_cm3.h **** #define MPU_RASR_S_Msk                     (1ul << MPU_RASR_S_Pos)                        /*!< MPU 
 596:../../source/include/core_cm3.h **** 
 597:../../source/include/core_cm3.h **** #define MPU_RASR_C_Pos                     17                                             /*!< MPU 
 598:../../source/include/core_cm3.h **** #define MPU_RASR_C_Msk                     (1ul << MPU_RASR_C_Pos)                        /*!< MPU 
 599:../../source/include/core_cm3.h **** 
 600:../../source/include/core_cm3.h **** #define MPU_RASR_B_Pos                     16                                             /*!< MPU 
 601:../../source/include/core_cm3.h **** #define MPU_RASR_B_Msk                     (1ul << MPU_RASR_B_Pos)                        /*!< MPU 
 602:../../source/include/core_cm3.h **** 
 603:../../source/include/core_cm3.h **** #define MPU_RASR_SRD_Pos                    8                                             /*!< MPU 
 604:../../source/include/core_cm3.h **** #define MPU_RASR_SRD_Msk                   (0xFFul << MPU_RASR_SRD_Pos)                   /*!< MPU 
 605:../../source/include/core_cm3.h **** 
 606:../../source/include/core_cm3.h **** #define MPU_RASR_SIZE_Pos                   1                                             /*!< MPU 
 607:../../source/include/core_cm3.h **** #define MPU_RASR_SIZE_Msk                  (0x1Ful << MPU_RASR_SIZE_Pos)                  /*!< MPU 
 608:../../source/include/core_cm3.h **** 
 609:../../source/include/core_cm3.h **** #define MPU_RASR_ENA_Pos                     0                                            /*!< MPU 
 610:../../source/include/core_cm3.h **** #define MPU_RASR_ENA_Msk                    (0x1Ful << MPU_RASR_ENA_Pos)                  /*!< MPU 
 611:../../source/include/core_cm3.h **** 
 612:../../source/include/core_cm3.h **** /*@}*/ /* end of group CMSIS_CM3_MPU */
 613:../../source/include/core_cm3.h **** #endif
 614:../../source/include/core_cm3.h **** 
 615:../../source/include/core_cm3.h **** 
 616:../../source/include/core_cm3.h **** /** @addtogroup CMSIS_CM3_CoreDebug CMSIS CM3 Core Debug
 617:../../source/include/core_cm3.h ****   memory mapped structure for Core Debug Register
 618:../../source/include/core_cm3.h ****   @{
 619:../../source/include/core_cm3.h ****  */
 620:../../source/include/core_cm3.h **** typedef struct
 621:../../source/include/core_cm3.h **** {
 622:../../source/include/core_cm3.h ****   __IO uint32_t DHCSR;                        /*!< Offset: 0x00  Debug Halting Control and Status R
 623:../../source/include/core_cm3.h ****   __O  uint32_t DCRSR;                        /*!< Offset: 0x04  Debug Core Register Selector Regis
 624:../../source/include/core_cm3.h ****   __IO uint32_t DCRDR;                        /*!< Offset: 0x08  Debug Core Register Data Register 
 625:../../source/include/core_cm3.h ****   __IO uint32_t DEMCR;                        /*!< Offset: 0x0C  Debug Exception and Monitor Contro
 626:../../source/include/core_cm3.h **** } CoreDebug_Type;
 627:../../source/include/core_cm3.h **** 
 628:../../source/include/core_cm3.h **** /* Debug Halting Control and Status Register */
 629:../../source/include/core_cm3.h **** #define CoreDebug_DHCSR_DBGKEY_Pos         16                                             /*!< Core
 630:../../source/include/core_cm3.h **** #define CoreDebug_DHCSR_DBGKEY_Msk         (0xFFFFul << CoreDebug_DHCSR_DBGKEY_Pos)       /*!< Core
 631:../../source/include/core_cm3.h **** 
 632:../../source/include/core_cm3.h **** #define CoreDebug_DHCSR_S_RESET_ST_Pos     25                                             /*!< Core
 633:../../source/include/core_cm3.h **** #define CoreDebug_DHCSR_S_RESET_ST_Msk     (1ul << CoreDebug_DHCSR_S_RESET_ST_Pos)        /*!< Core
 634:../../source/include/core_cm3.h **** 
 635:../../source/include/core_cm3.h **** #define CoreDebug_DHCSR_S_RETIRE_ST_Pos    24                                             /*!< Core
 636:../../source/include/core_cm3.h **** #define CoreDebug_DHCSR_S_RETIRE_ST_Msk    (1ul << CoreDebug_DHCSR_S_RETIRE_ST_Pos)       /*!< Core
 637:../../source/include/core_cm3.h **** 
 638:../../source/include/core_cm3.h **** #define CoreDebug_DHCSR_S_LOCKUP_Pos       19                                             /*!< Core
 639:../../source/include/core_cm3.h **** #define CoreDebug_DHCSR_S_LOCKUP_Msk       (1ul << CoreDebug_DHCSR_S_LOCKUP_Pos)          /*!< Core
 640:../../source/include/core_cm3.h **** 
 641:../../source/include/core_cm3.h **** #define CoreDebug_DHCSR_S_SLEEP_Pos        18                                             /*!< Core
ARM GAS  G:\Users\Jaxb\AppData\Local\Temp\ccVaMaab.s 			page 20


 642:../../source/include/core_cm3.h **** #define CoreDebug_DHCSR_S_SLEEP_Msk        (1ul << CoreDebug_DHCSR_S_SLEEP_Pos)           /*!< Core
 643:../../source/include/core_cm3.h **** 
 644:../../source/include/core_cm3.h **** #define CoreDebug_DHCSR_S_HALT_Pos         17                                             /*!< Core
 645:../../source/include/core_cm3.h **** #define CoreDebug_DHCSR_S_HALT_Msk         (1ul << CoreDebug_DHCSR_S_HALT_Pos)            /*!< Core
 646:../../source/include/core_cm3.h **** 
 647:../../source/include/core_cm3.h **** #define CoreDebug_DHCSR_S_REGRDY_Pos       16                                             /*!< Core
 648:../../source/include/core_cm3.h **** #define CoreDebug_DHCSR_S_REGRDY_Msk       (1ul << CoreDebug_DHCSR_S_REGRDY_Pos)          /*!< Core
 649:../../source/include/core_cm3.h **** 
 650:../../source/include/core_cm3.h **** #define CoreDebug_DHCSR_C_SNAPSTALL_Pos     5                                             /*!< Core
 651:../../source/include/core_cm3.h **** #define CoreDebug_DHCSR_C_SNAPSTALL_Msk    (1ul << CoreDebug_DHCSR_C_SNAPSTALL_Pos)       /*!< Core
 652:../../source/include/core_cm3.h **** 
 653:../../source/include/core_cm3.h **** #define CoreDebug_DHCSR_C_MASKINTS_Pos      3                                             /*!< Core
 654:../../source/include/core_cm3.h **** #define CoreDebug_DHCSR_C_MASKINTS_Msk     (1ul << CoreDebug_DHCSR_C_MASKINTS_Pos)        /*!< Core
 655:../../source/include/core_cm3.h **** 
 656:../../source/include/core_cm3.h **** #define CoreDebug_DHCSR_C_STEP_Pos          2                                             /*!< Core
 657:../../source/include/core_cm3.h **** #define CoreDebug_DHCSR_C_STEP_Msk         (1ul << CoreDebug_DHCSR_C_STEP_Pos)            /*!< Core
 658:../../source/include/core_cm3.h **** 
 659:../../source/include/core_cm3.h **** #define CoreDebug_DHCSR_C_HALT_Pos          1                                             /*!< Core
 660:../../source/include/core_cm3.h **** #define CoreDebug_DHCSR_C_HALT_Msk         (1ul << CoreDebug_DHCSR_C_HALT_Pos)            /*!< Core
 661:../../source/include/core_cm3.h **** 
 662:../../source/include/core_cm3.h **** #define CoreDebug_DHCSR_C_DEBUGEN_Pos       0                                             /*!< Core
 663:../../source/include/core_cm3.h **** #define CoreDebug_DHCSR_C_DEBUGEN_Msk      (1ul << CoreDebug_DHCSR_C_DEBUGEN_Pos)         /*!< Core
 664:../../source/include/core_cm3.h **** 
 665:../../source/include/core_cm3.h **** /* Debug Core Register Selector Register */
 666:../../source/include/core_cm3.h **** #define CoreDebug_DCRSR_REGWnR_Pos         16                                             /*!< Core
 667:../../source/include/core_cm3.h **** #define CoreDebug_DCRSR_REGWnR_Msk         (1ul << CoreDebug_DCRSR_REGWnR_Pos)            /*!< Core
 668:../../source/include/core_cm3.h **** 
 669:../../source/include/core_cm3.h **** #define CoreDebug_DCRSR_REGSEL_Pos          0                                             /*!< Core
 670:../../source/include/core_cm3.h **** #define CoreDebug_DCRSR_REGSEL_Msk         (0x1Ful << CoreDebug_DCRSR_REGSEL_Pos)         /*!< Core
 671:../../source/include/core_cm3.h **** 
 672:../../source/include/core_cm3.h **** /* Debug Exception and Monitor Control Register */
 673:../../source/include/core_cm3.h **** #define CoreDebug_DEMCR_TRCENA_Pos         24                                             /*!< Core
 674:../../source/include/core_cm3.h **** #define CoreDebug_DEMCR_TRCENA_Msk         (1ul << CoreDebug_DEMCR_TRCENA_Pos)            /*!< Core
 675:../../source/include/core_cm3.h **** 
 676:../../source/include/core_cm3.h **** #define CoreDebug_DEMCR_MON_REQ_Pos        19                                             /*!< Core
 677:../../source/include/core_cm3.h **** #define CoreDebug_DEMCR_MON_REQ_Msk        (1ul << CoreDebug_DEMCR_MON_REQ_Pos)           /*!< Core
 678:../../source/include/core_cm3.h **** 
 679:../../source/include/core_cm3.h **** #define CoreDebug_DEMCR_MON_STEP_Pos       18                                             /*!< Core
 680:../../source/include/core_cm3.h **** #define CoreDebug_DEMCR_MON_STEP_Msk       (1ul << CoreDebug_DEMCR_MON_STEP_Pos)          /*!< Core
 681:../../source/include/core_cm3.h **** 
 682:../../source/include/core_cm3.h **** #define CoreDebug_DEMCR_MON_PEND_Pos       17                                             /*!< Core
 683:../../source/include/core_cm3.h **** #define CoreDebug_DEMCR_MON_PEND_Msk       (1ul << CoreDebug_DEMCR_MON_PEND_Pos)          /*!< Core
 684:../../source/include/core_cm3.h **** 
 685:../../source/include/core_cm3.h **** #define CoreDebug_DEMCR_MON_EN_Pos         16                                             /*!< Core
 686:../../source/include/core_cm3.h **** #define CoreDebug_DEMCR_MON_EN_Msk         (1ul << CoreDebug_DEMCR_MON_EN_Pos)            /*!< Core
 687:../../source/include/core_cm3.h **** 
 688:../../source/include/core_cm3.h **** #define CoreDebug_DEMCR_VC_HARDERR_Pos     10                                             /*!< Core
 689:../../source/include/core_cm3.h **** #define CoreDebug_DEMCR_VC_HARDERR_Msk     (1ul << CoreDebug_DEMCR_VC_HARDERR_Pos)        /*!< Core
 690:../../source/include/core_cm3.h **** 
 691:../../source/include/core_cm3.h **** #define CoreDebug_DEMCR_VC_INTERR_Pos       9                                             /*!< Core
 692:../../source/include/core_cm3.h **** #define CoreDebug_DEMCR_VC_INTERR_Msk      (1ul << CoreDebug_DEMCR_VC_INTERR_Pos)         /*!< Core
 693:../../source/include/core_cm3.h **** 
 694:../../source/include/core_cm3.h **** #define CoreDebug_DEMCR_VC_BUSERR_Pos       8                                             /*!< Core
 695:../../source/include/core_cm3.h **** #define CoreDebug_DEMCR_VC_BUSERR_Msk      (1ul << CoreDebug_DEMCR_VC_BUSERR_Pos)         /*!< Core
 696:../../source/include/core_cm3.h **** 
 697:../../source/include/core_cm3.h **** #define CoreDebug_DEMCR_VC_STATERR_Pos      7                                             /*!< Core
 698:../../source/include/core_cm3.h **** #define CoreDebug_DEMCR_VC_STATERR_Msk     (1ul << CoreDebug_DEMCR_VC_STATERR_Pos)        /*!< Core
ARM GAS  G:\Users\Jaxb\AppData\Local\Temp\ccVaMaab.s 			page 21


 699:../../source/include/core_cm3.h **** 
 700:../../source/include/core_cm3.h **** #define CoreDebug_DEMCR_VC_CHKERR_Pos       6                                             /*!< Core
 701:../../source/include/core_cm3.h **** #define CoreDebug_DEMCR_VC_CHKERR_Msk      (1ul << CoreDebug_DEMCR_VC_CHKERR_Pos)         /*!< Core
 702:../../source/include/core_cm3.h **** 
 703:../../source/include/core_cm3.h **** #define CoreDebug_DEMCR_VC_NOCPERR_Pos      5                                             /*!< Core
 704:../../source/include/core_cm3.h **** #define CoreDebug_DEMCR_VC_NOCPERR_Msk     (1ul << CoreDebug_DEMCR_VC_NOCPERR_Pos)        /*!< Core
 705:../../source/include/core_cm3.h **** 
 706:../../source/include/core_cm3.h **** #define CoreDebug_DEMCR_VC_MMERR_Pos        4                                             /*!< Core
 707:../../source/include/core_cm3.h **** #define CoreDebug_DEMCR_VC_MMERR_Msk       (1ul << CoreDebug_DEMCR_VC_MMERR_Pos)          /*!< Core
 708:../../source/include/core_cm3.h **** 
 709:../../source/include/core_cm3.h **** #define CoreDebug_DEMCR_VC_CORERESET_Pos    0                                             /*!< Core
 710:../../source/include/core_cm3.h **** #define CoreDebug_DEMCR_VC_CORERESET_Msk   (1ul << CoreDebug_DEMCR_VC_CORERESET_Pos)      /*!< Core
 711:../../source/include/core_cm3.h **** /*@}*/ /* end of group CMSIS_CM3_CoreDebug */
 712:../../source/include/core_cm3.h **** 
 713:../../source/include/core_cm3.h **** 
 714:../../source/include/core_cm3.h **** /* Memory mapping of Cortex-M3 Hardware */
 715:../../source/include/core_cm3.h **** #define SCS_BASE            (0xE000E000)                              /*!< System Control Space Bas
 716:../../source/include/core_cm3.h **** #define ITM_BASE            (0xE0000000)                              /*!< ITM Base Address        
 717:../../source/include/core_cm3.h **** #define CoreDebug_BASE      (0xE000EDF0)                              /*!< Core Debug Base Address 
 718:../../source/include/core_cm3.h **** #define SysTick_BASE        (SCS_BASE +  0x0010)                      /*!< SysTick Base Address    
 719:../../source/include/core_cm3.h **** #define NVIC_BASE           (SCS_BASE +  0x0100)                      /*!< NVIC Base Address       
 720:../../source/include/core_cm3.h **** #define SCB_BASE            (SCS_BASE +  0x0D00)                      /*!< System Control Block Bas
 721:../../source/include/core_cm3.h **** 
 722:../../source/include/core_cm3.h **** #define InterruptType       ((InterruptType_Type *) SCS_BASE)         /*!< Interrupt Type Register 
 723:../../source/include/core_cm3.h **** #define SCB                 ((SCB_Type *)           SCB_BASE)         /*!< SCB configuration struct
 724:../../source/include/core_cm3.h **** #define SysTick             ((SysTick_Type *)       SysTick_BASE)     /*!< SysTick configuration st
 725:../../source/include/core_cm3.h **** #define NVIC                ((NVIC_Type *)          NVIC_BASE)        /*!< NVIC configuration struc
 726:../../source/include/core_cm3.h **** #define ITM                 ((ITM_Type *)           ITM_BASE)         /*!< ITM configuration struct
 727:../../source/include/core_cm3.h **** #define CoreDebug           ((CoreDebug_Type *)     CoreDebug_BASE)   /*!< Core Debug configuration
 728:../../source/include/core_cm3.h **** 
 729:../../source/include/core_cm3.h **** #if defined (__MPU_PRESENT) && (__MPU_PRESENT == 1)
 730:../../source/include/core_cm3.h ****   #define MPU_BASE          (SCS_BASE +  0x0D90)                      /*!< Memory Protection Unit  
 731:../../source/include/core_cm3.h ****   #define MPU               ((MPU_Type*)            MPU_BASE)         /*!< Memory Protection Unit  
 732:../../source/include/core_cm3.h **** #endif
 733:../../source/include/core_cm3.h **** 
 734:../../source/include/core_cm3.h **** /*@}*/ /* end of group CMSIS_CM3_core_register */
 735:../../source/include/core_cm3.h **** 
 736:../../source/include/core_cm3.h **** 
 737:../../source/include/core_cm3.h **** /*******************************************************************************
 738:../../source/include/core_cm3.h ****  *                Hardware Abstraction Layer
 739:../../source/include/core_cm3.h ****  ******************************************************************************/
 740:../../source/include/core_cm3.h **** 
 741:../../source/include/core_cm3.h **** #if defined ( __CC_ARM   )
 742:../../source/include/core_cm3.h ****   #define __ASM            __asm                                      /*!< asm keyword for ARM Comp
 743:../../source/include/core_cm3.h ****   #define __INLINE         __inline                                   /*!< inline keyword for ARM C
 744:../../source/include/core_cm3.h **** 
 745:../../source/include/core_cm3.h **** #elif defined ( __ICCARM__ )
 746:../../source/include/core_cm3.h ****   #define __ASM           __asm                                       /*!< asm keyword for IAR Comp
 747:../../source/include/core_cm3.h ****   #define __INLINE        inline                                      /*!< inline keyword for IAR C
 748:../../source/include/core_cm3.h **** 
 749:../../source/include/core_cm3.h **** #elif defined   (  __GNUC__  )
 750:../../source/include/core_cm3.h ****   #define __ASM            __asm                                      /*!< asm keyword for GNU Comp
 751:../../source/include/core_cm3.h ****   #define __INLINE         inline                                     /*!< inline keyword for GNU C
 752:../../source/include/core_cm3.h **** 
 753:../../source/include/core_cm3.h **** #elif defined   (  __TASKING__  )
 754:../../source/include/core_cm3.h ****   #define __ASM            __asm                                      /*!< asm keyword for TASKING 
 755:../../source/include/core_cm3.h ****   #define __INLINE         inline                                     /*!< inline keyword for TASKI
ARM GAS  G:\Users\Jaxb\AppData\Local\Temp\ccVaMaab.s 			page 22


 756:../../source/include/core_cm3.h **** 
 757:../../source/include/core_cm3.h **** #endif
 758:../../source/include/core_cm3.h **** 
 759:../../source/include/core_cm3.h **** 
 760:../../source/include/core_cm3.h **** /* ###################  Compiler specific Intrinsics  ########################### */
 761:../../source/include/core_cm3.h **** 
 762:../../source/include/core_cm3.h **** #if defined ( __CC_ARM   ) /*------------------RealView Compiler -----------------*/
 763:../../source/include/core_cm3.h **** /* ARM armcc specific functions */
 764:../../source/include/core_cm3.h **** 
 765:../../source/include/core_cm3.h **** #define __enable_fault_irq                __enable_fiq
 766:../../source/include/core_cm3.h **** #define __disable_fault_irq               __disable_fiq
 767:../../source/include/core_cm3.h **** 
 768:../../source/include/core_cm3.h **** #define __NOP                             __nop
 769:../../source/include/core_cm3.h **** #define __WFI                             __wfi
 770:../../source/include/core_cm3.h **** #define __WFE                             __wfe
 771:../../source/include/core_cm3.h **** #define __SEV                             __sev
 772:../../source/include/core_cm3.h **** #define __ISB()                           __isb(0)
 773:../../source/include/core_cm3.h **** #define __DSB()                           __dsb(0)
 774:../../source/include/core_cm3.h **** #define __DMB()                           __dmb(0)
 775:../../source/include/core_cm3.h **** #define __REV                             __rev
 776:../../source/include/core_cm3.h **** #define __RBIT                            __rbit
 777:../../source/include/core_cm3.h **** #define __LDREXB(ptr)                     ((unsigned char ) __ldrex(ptr))
 778:../../source/include/core_cm3.h **** #define __LDREXH(ptr)                     ((unsigned short) __ldrex(ptr))
 779:../../source/include/core_cm3.h **** #define __LDREXW(ptr)                     ((unsigned int  ) __ldrex(ptr))
 780:../../source/include/core_cm3.h **** #define __STREXB(value, ptr)              __strex(value, ptr)
 781:../../source/include/core_cm3.h **** #define __STREXH(value, ptr)              __strex(value, ptr)
 782:../../source/include/core_cm3.h **** #define __STREXW(value, ptr)              __strex(value, ptr)
 783:../../source/include/core_cm3.h **** 
 784:../../source/include/core_cm3.h **** 
 785:../../source/include/core_cm3.h **** /* intrinsic unsigned long long __ldrexd(volatile void *ptr) */
 786:../../source/include/core_cm3.h **** /* intrinsic int __strexd(unsigned long long val, volatile void *ptr) */
 787:../../source/include/core_cm3.h **** /* intrinsic void __enable_irq();     */
 788:../../source/include/core_cm3.h **** /* intrinsic void __disable_irq();    */
 789:../../source/include/core_cm3.h **** 
 790:../../source/include/core_cm3.h **** 
 791:../../source/include/core_cm3.h **** /**
 792:../../source/include/core_cm3.h ****  * @brief  Return the Process Stack Pointer
 793:../../source/include/core_cm3.h ****  *
 794:../../source/include/core_cm3.h ****  * @return ProcessStackPointer
 795:../../source/include/core_cm3.h ****  *
 796:../../source/include/core_cm3.h ****  * Return the actual process stack pointer
 797:../../source/include/core_cm3.h ****  */
 798:../../source/include/core_cm3.h **** extern uint32_t __get_PSP(void);
 799:../../source/include/core_cm3.h **** 
 800:../../source/include/core_cm3.h **** /**
 801:../../source/include/core_cm3.h ****  * @brief  Set the Process Stack Pointer
 802:../../source/include/core_cm3.h ****  *
 803:../../source/include/core_cm3.h ****  * @param  topOfProcStack  Process Stack Pointer
 804:../../source/include/core_cm3.h ****  *
 805:../../source/include/core_cm3.h ****  * Assign the value ProcessStackPointer to the MSP 
 806:../../source/include/core_cm3.h ****  * (process stack pointer) Cortex processor register
 807:../../source/include/core_cm3.h ****  */
 808:../../source/include/core_cm3.h **** extern void __set_PSP(uint32_t topOfProcStack);
 809:../../source/include/core_cm3.h **** 
 810:../../source/include/core_cm3.h **** /**
 811:../../source/include/core_cm3.h ****  * @brief  Return the Main Stack Pointer
 812:../../source/include/core_cm3.h ****  *
ARM GAS  G:\Users\Jaxb\AppData\Local\Temp\ccVaMaab.s 			page 23


 813:../../source/include/core_cm3.h ****  * @return Main Stack Pointer
 814:../../source/include/core_cm3.h ****  *
 815:../../source/include/core_cm3.h ****  * Return the current value of the MSP (main stack pointer)
 816:../../source/include/core_cm3.h ****  * Cortex processor register
 817:../../source/include/core_cm3.h ****  */
 818:../../source/include/core_cm3.h **** extern uint32_t __get_MSP(void);
 819:../../source/include/core_cm3.h **** 
 820:../../source/include/core_cm3.h **** /**
 821:../../source/include/core_cm3.h ****  * @brief  Set the Main Stack Pointer
 822:../../source/include/core_cm3.h ****  *
 823:../../source/include/core_cm3.h ****  * @param  topOfMainStack  Main Stack Pointer
 824:../../source/include/core_cm3.h ****  *
 825:../../source/include/core_cm3.h ****  * Assign the value mainStackPointer to the MSP 
 826:../../source/include/core_cm3.h ****  * (main stack pointer) Cortex processor register
 827:../../source/include/core_cm3.h ****  */
 828:../../source/include/core_cm3.h **** extern void __set_MSP(uint32_t topOfMainStack);
 829:../../source/include/core_cm3.h **** 
 830:../../source/include/core_cm3.h **** /**
 831:../../source/include/core_cm3.h ****  * @brief  Reverse byte order in unsigned short value
 832:../../source/include/core_cm3.h ****  *
 833:../../source/include/core_cm3.h ****  * @param   value  value to reverse
 834:../../source/include/core_cm3.h ****  * @return         reversed value
 835:../../source/include/core_cm3.h ****  *
 836:../../source/include/core_cm3.h ****  * Reverse byte order in unsigned short value
 837:../../source/include/core_cm3.h ****  */
 838:../../source/include/core_cm3.h **** extern uint32_t __REV16(uint16_t value);
 839:../../source/include/core_cm3.h **** 
 840:../../source/include/core_cm3.h **** /**
 841:../../source/include/core_cm3.h ****  * @brief  Reverse byte order in signed short value with sign extension to integer
 842:../../source/include/core_cm3.h ****  *
 843:../../source/include/core_cm3.h ****  * @param   value  value to reverse
 844:../../source/include/core_cm3.h ****  * @return         reversed value
 845:../../source/include/core_cm3.h ****  *
 846:../../source/include/core_cm3.h ****  * Reverse byte order in signed short value with sign extension to integer
 847:../../source/include/core_cm3.h ****  */
 848:../../source/include/core_cm3.h **** extern int32_t __REVSH(int16_t value);
 849:../../source/include/core_cm3.h **** 
 850:../../source/include/core_cm3.h **** 
 851:../../source/include/core_cm3.h **** #if (__ARMCC_VERSION < 400000)
 852:../../source/include/core_cm3.h **** 
 853:../../source/include/core_cm3.h **** /**
 854:../../source/include/core_cm3.h ****  * @brief  Remove the exclusive lock created by ldrex
 855:../../source/include/core_cm3.h ****  *
 856:../../source/include/core_cm3.h ****  * Removes the exclusive lock which is created by ldrex.
 857:../../source/include/core_cm3.h ****  */
 858:../../source/include/core_cm3.h **** extern void __CLREX(void);
 859:../../source/include/core_cm3.h **** 
 860:../../source/include/core_cm3.h **** /**
 861:../../source/include/core_cm3.h ****  * @brief  Return the Base Priority value
 862:../../source/include/core_cm3.h ****  *
 863:../../source/include/core_cm3.h ****  * @return BasePriority
 864:../../source/include/core_cm3.h ****  *
 865:../../source/include/core_cm3.h ****  * Return the content of the base priority register
 866:../../source/include/core_cm3.h ****  */
 867:../../source/include/core_cm3.h **** extern uint32_t __get_BASEPRI(void);
 868:../../source/include/core_cm3.h **** 
 869:../../source/include/core_cm3.h **** /**
ARM GAS  G:\Users\Jaxb\AppData\Local\Temp\ccVaMaab.s 			page 24


 870:../../source/include/core_cm3.h ****  * @brief  Set the Base Priority value
 871:../../source/include/core_cm3.h ****  *
 872:../../source/include/core_cm3.h ****  * @param  basePri  BasePriority
 873:../../source/include/core_cm3.h ****  *
 874:../../source/include/core_cm3.h ****  * Set the base priority register
 875:../../source/include/core_cm3.h ****  */
 876:../../source/include/core_cm3.h **** extern void __set_BASEPRI(uint32_t basePri);
 877:../../source/include/core_cm3.h **** 
 878:../../source/include/core_cm3.h **** /**
 879:../../source/include/core_cm3.h ****  * @brief  Return the Priority Mask value
 880:../../source/include/core_cm3.h ****  *
 881:../../source/include/core_cm3.h ****  * @return PriMask
 882:../../source/include/core_cm3.h ****  *
 883:../../source/include/core_cm3.h ****  * Return state of the priority mask bit from the priority mask register
 884:../../source/include/core_cm3.h ****  */
 885:../../source/include/core_cm3.h **** extern uint32_t __get_PRIMASK(void);
 886:../../source/include/core_cm3.h **** 
 887:../../source/include/core_cm3.h **** /**
 888:../../source/include/core_cm3.h ****  * @brief  Set the Priority Mask value
 889:../../source/include/core_cm3.h ****  *
 890:../../source/include/core_cm3.h ****  * @param   priMask  PriMask
 891:../../source/include/core_cm3.h ****  *
 892:../../source/include/core_cm3.h ****  * Set the priority mask bit in the priority mask register
 893:../../source/include/core_cm3.h ****  */
 894:../../source/include/core_cm3.h **** extern void __set_PRIMASK(uint32_t priMask);
 895:../../source/include/core_cm3.h **** 
 896:../../source/include/core_cm3.h **** /**
 897:../../source/include/core_cm3.h ****  * @brief  Return the Fault Mask value
 898:../../source/include/core_cm3.h ****  *
 899:../../source/include/core_cm3.h ****  * @return FaultMask
 900:../../source/include/core_cm3.h ****  *
 901:../../source/include/core_cm3.h ****  * Return the content of the fault mask register
 902:../../source/include/core_cm3.h ****  */
 903:../../source/include/core_cm3.h **** extern uint32_t __get_FAULTMASK(void);
 904:../../source/include/core_cm3.h **** 
 905:../../source/include/core_cm3.h **** /**
 906:../../source/include/core_cm3.h ****  * @brief  Set the Fault Mask value
 907:../../source/include/core_cm3.h ****  *
 908:../../source/include/core_cm3.h ****  * @param  faultMask faultMask value
 909:../../source/include/core_cm3.h ****  *
 910:../../source/include/core_cm3.h ****  * Set the fault mask register
 911:../../source/include/core_cm3.h ****  */
 912:../../source/include/core_cm3.h **** extern void __set_FAULTMASK(uint32_t faultMask);
 913:../../source/include/core_cm3.h **** 
 914:../../source/include/core_cm3.h **** /**
 915:../../source/include/core_cm3.h ****  * @brief  Return the Control Register value
 916:../../source/include/core_cm3.h ****  * 
 917:../../source/include/core_cm3.h ****  * @return Control value
 918:../../source/include/core_cm3.h ****  *
 919:../../source/include/core_cm3.h ****  * Return the content of the control register
 920:../../source/include/core_cm3.h ****  */
 921:../../source/include/core_cm3.h **** extern uint32_t __get_CONTROL(void);
 922:../../source/include/core_cm3.h **** 
 923:../../source/include/core_cm3.h **** /**
 924:../../source/include/core_cm3.h ****  * @brief  Set the Control Register value
 925:../../source/include/core_cm3.h ****  *
 926:../../source/include/core_cm3.h ****  * @param  control  Control value
ARM GAS  G:\Users\Jaxb\AppData\Local\Temp\ccVaMaab.s 			page 25


 927:../../source/include/core_cm3.h ****  *
 928:../../source/include/core_cm3.h ****  * Set the control register
 929:../../source/include/core_cm3.h ****  */
 930:../../source/include/core_cm3.h **** extern void __set_CONTROL(uint32_t control);
 931:../../source/include/core_cm3.h **** 
 932:../../source/include/core_cm3.h **** #else  /* (__ARMCC_VERSION >= 400000)  */
 933:../../source/include/core_cm3.h **** 
 934:../../source/include/core_cm3.h **** /**
 935:../../source/include/core_cm3.h ****  * @brief  Remove the exclusive lock created by ldrex
 936:../../source/include/core_cm3.h ****  *
 937:../../source/include/core_cm3.h ****  * Removes the exclusive lock which is created by ldrex.
 938:../../source/include/core_cm3.h ****  */
 939:../../source/include/core_cm3.h **** #define __CLREX                           __clrex
 940:../../source/include/core_cm3.h **** 
 941:../../source/include/core_cm3.h **** /**
 942:../../source/include/core_cm3.h ****  * @brief  Return the Base Priority value
 943:../../source/include/core_cm3.h ****  *
 944:../../source/include/core_cm3.h ****  * @return BasePriority
 945:../../source/include/core_cm3.h ****  *
 946:../../source/include/core_cm3.h ****  * Return the content of the base priority register
 947:../../source/include/core_cm3.h ****  */
 948:../../source/include/core_cm3.h **** static __INLINE uint32_t  __get_BASEPRI(void)
 949:../../source/include/core_cm3.h **** {
 950:../../source/include/core_cm3.h ****   register uint32_t __regBasePri         __ASM("basepri");
 951:../../source/include/core_cm3.h ****   return(__regBasePri);
 952:../../source/include/core_cm3.h **** }
 953:../../source/include/core_cm3.h **** 
 954:../../source/include/core_cm3.h **** /**
 955:../../source/include/core_cm3.h ****  * @brief  Set the Base Priority value
 956:../../source/include/core_cm3.h ****  *
 957:../../source/include/core_cm3.h ****  * @param  basePri  BasePriority
 958:../../source/include/core_cm3.h ****  *
 959:../../source/include/core_cm3.h ****  * Set the base priority register
 960:../../source/include/core_cm3.h ****  */
 961:../../source/include/core_cm3.h **** static __INLINE void __set_BASEPRI(uint32_t basePri)
 962:../../source/include/core_cm3.h **** {
 963:../../source/include/core_cm3.h ****   register uint32_t __regBasePri         __ASM("basepri");
 964:../../source/include/core_cm3.h ****   __regBasePri = (basePri & 0xff);
 965:../../source/include/core_cm3.h **** }
 966:../../source/include/core_cm3.h **** 
 967:../../source/include/core_cm3.h **** /**
 968:../../source/include/core_cm3.h ****  * @brief  Return the Priority Mask value
 969:../../source/include/core_cm3.h ****  *
 970:../../source/include/core_cm3.h ****  * @return PriMask
 971:../../source/include/core_cm3.h ****  *
 972:../../source/include/core_cm3.h ****  * Return state of the priority mask bit from the priority mask register
 973:../../source/include/core_cm3.h ****  */
 974:../../source/include/core_cm3.h **** static __INLINE uint32_t __get_PRIMASK(void)
 975:../../source/include/core_cm3.h **** {
 976:../../source/include/core_cm3.h ****   register uint32_t __regPriMask         __ASM("primask");
 977:../../source/include/core_cm3.h ****   return(__regPriMask);
 978:../../source/include/core_cm3.h **** }
 979:../../source/include/core_cm3.h **** 
 980:../../source/include/core_cm3.h **** /**
 981:../../source/include/core_cm3.h ****  * @brief  Set the Priority Mask value
 982:../../source/include/core_cm3.h ****  *
 983:../../source/include/core_cm3.h ****  * @param  priMask  PriMask
ARM GAS  G:\Users\Jaxb\AppData\Local\Temp\ccVaMaab.s 			page 26


 984:../../source/include/core_cm3.h ****  *
 985:../../source/include/core_cm3.h ****  * Set the priority mask bit in the priority mask register
 986:../../source/include/core_cm3.h ****  */
 987:../../source/include/core_cm3.h **** static __INLINE void __set_PRIMASK(uint32_t priMask)
 988:../../source/include/core_cm3.h **** {
 989:../../source/include/core_cm3.h ****   register uint32_t __regPriMask         __ASM("primask");
 990:../../source/include/core_cm3.h ****   __regPriMask = (priMask);
 991:../../source/include/core_cm3.h **** }
 992:../../source/include/core_cm3.h **** 
 993:../../source/include/core_cm3.h **** /**
 994:../../source/include/core_cm3.h ****  * @brief  Return the Fault Mask value
 995:../../source/include/core_cm3.h ****  *
 996:../../source/include/core_cm3.h ****  * @return FaultMask
 997:../../source/include/core_cm3.h ****  *
 998:../../source/include/core_cm3.h ****  * Return the content of the fault mask register
 999:../../source/include/core_cm3.h ****  */
1000:../../source/include/core_cm3.h **** static __INLINE uint32_t __get_FAULTMASK(void)
1001:../../source/include/core_cm3.h **** {
1002:../../source/include/core_cm3.h ****   register uint32_t __regFaultMask       __ASM("faultmask");
1003:../../source/include/core_cm3.h ****   return(__regFaultMask);
1004:../../source/include/core_cm3.h **** }
1005:../../source/include/core_cm3.h **** 
1006:../../source/include/core_cm3.h **** /**
1007:../../source/include/core_cm3.h ****  * @brief  Set the Fault Mask value
1008:../../source/include/core_cm3.h ****  *
1009:../../source/include/core_cm3.h ****  * @param  faultMask  faultMask value
1010:../../source/include/core_cm3.h ****  *
1011:../../source/include/core_cm3.h ****  * Set the fault mask register
1012:../../source/include/core_cm3.h ****  */
1013:../../source/include/core_cm3.h **** static __INLINE void __set_FAULTMASK(uint32_t faultMask)
1014:../../source/include/core_cm3.h **** {
1015:../../source/include/core_cm3.h ****   register uint32_t __regFaultMask       __ASM("faultmask");
1016:../../source/include/core_cm3.h ****   __regFaultMask = (faultMask & 1);
1017:../../source/include/core_cm3.h **** }
1018:../../source/include/core_cm3.h **** 
1019:../../source/include/core_cm3.h **** /**
1020:../../source/include/core_cm3.h ****  * @brief  Return the Control Register value
1021:../../source/include/core_cm3.h ****  * 
1022:../../source/include/core_cm3.h ****  * @return Control value
1023:../../source/include/core_cm3.h ****  *
1024:../../source/include/core_cm3.h ****  * Return the content of the control register
1025:../../source/include/core_cm3.h ****  */
1026:../../source/include/core_cm3.h **** static __INLINE uint32_t __get_CONTROL(void)
1027:../../source/include/core_cm3.h **** {
1028:../../source/include/core_cm3.h ****   register uint32_t __regControl         __ASM("control");
1029:../../source/include/core_cm3.h ****   return(__regControl);
1030:../../source/include/core_cm3.h **** }
1031:../../source/include/core_cm3.h **** 
1032:../../source/include/core_cm3.h **** /**
1033:../../source/include/core_cm3.h ****  * @brief  Set the Control Register value
1034:../../source/include/core_cm3.h ****  *
1035:../../source/include/core_cm3.h ****  * @param  control  Control value
1036:../../source/include/core_cm3.h ****  *
1037:../../source/include/core_cm3.h ****  * Set the control register
1038:../../source/include/core_cm3.h ****  */
1039:../../source/include/core_cm3.h **** static __INLINE void __set_CONTROL(uint32_t control)
1040:../../source/include/core_cm3.h **** {
ARM GAS  G:\Users\Jaxb\AppData\Local\Temp\ccVaMaab.s 			page 27


1041:../../source/include/core_cm3.h ****   register uint32_t __regControl         __ASM("control");
1042:../../source/include/core_cm3.h ****   __regControl = control;
1043:../../source/include/core_cm3.h **** }
1044:../../source/include/core_cm3.h **** 
1045:../../source/include/core_cm3.h **** #endif /* __ARMCC_VERSION  */ 
1046:../../source/include/core_cm3.h **** 
1047:../../source/include/core_cm3.h **** 
1048:../../source/include/core_cm3.h **** 
1049:../../source/include/core_cm3.h **** #elif (defined (__ICCARM__)) /*------------------ ICC Compiler -------------------*/
1050:../../source/include/core_cm3.h **** /* IAR iccarm specific functions */
1051:../../source/include/core_cm3.h **** 
1052:../../source/include/core_cm3.h **** #define __enable_irq                              __enable_interrupt        /*!< global Interrupt e
1053:../../source/include/core_cm3.h **** #define __disable_irq                             __disable_interrupt       /*!< global Interrupt d
1054:../../source/include/core_cm3.h **** 
1055:../../source/include/core_cm3.h **** static __INLINE void __enable_fault_irq()         { __ASM ("cpsie f"); }
1056:../../source/include/core_cm3.h **** static __INLINE void __disable_fault_irq()        { __ASM ("cpsid f"); }
1057:../../source/include/core_cm3.h **** 
1058:../../source/include/core_cm3.h **** #define __NOP                                     __no_operation            /*!< no operation intri
1059:../../source/include/core_cm3.h **** static __INLINE  void __WFI()                     { __ASM ("wfi"); }
1060:../../source/include/core_cm3.h **** static __INLINE  void __WFE()                     { __ASM ("wfe"); }
1061:../../source/include/core_cm3.h **** static __INLINE  void __SEV()                     { __ASM ("sev"); }
1062:../../source/include/core_cm3.h **** static __INLINE  void __CLREX()                   { __ASM ("clrex"); }
1063:../../source/include/core_cm3.h **** 
1064:../../source/include/core_cm3.h **** /* intrinsic void __ISB(void)                                     */
1065:../../source/include/core_cm3.h **** /* intrinsic void __DSB(void)                                     */
1066:../../source/include/core_cm3.h **** /* intrinsic void __DMB(void)                                     */
1067:../../source/include/core_cm3.h **** /* intrinsic void __set_PRIMASK();                                */
1068:../../source/include/core_cm3.h **** /* intrinsic void __get_PRIMASK();                                */
1069:../../source/include/core_cm3.h **** /* intrinsic void __set_FAULTMASK();                              */
1070:../../source/include/core_cm3.h **** /* intrinsic void __get_FAULTMASK();                              */
1071:../../source/include/core_cm3.h **** /* intrinsic uint32_t __REV(uint32_t value);                      */
1072:../../source/include/core_cm3.h **** /* intrinsic uint32_t __REVSH(uint32_t value);                    */
1073:../../source/include/core_cm3.h **** /* intrinsic unsigned long __STREX(unsigned long, unsigned long); */
1074:../../source/include/core_cm3.h **** /* intrinsic unsigned long __LDREX(unsigned long *);              */
1075:../../source/include/core_cm3.h **** 
1076:../../source/include/core_cm3.h **** 
1077:../../source/include/core_cm3.h **** /**
1078:../../source/include/core_cm3.h ****  * @brief  Return the Process Stack Pointer
1079:../../source/include/core_cm3.h ****  *
1080:../../source/include/core_cm3.h ****  * @return ProcessStackPointer
1081:../../source/include/core_cm3.h ****  *
1082:../../source/include/core_cm3.h ****  * Return the actual process stack pointer
1083:../../source/include/core_cm3.h ****  */
1084:../../source/include/core_cm3.h **** extern uint32_t __get_PSP(void);
1085:../../source/include/core_cm3.h **** 
1086:../../source/include/core_cm3.h **** /**
1087:../../source/include/core_cm3.h ****  * @brief  Set the Process Stack Pointer
1088:../../source/include/core_cm3.h ****  *
1089:../../source/include/core_cm3.h ****  * @param  topOfProcStack  Process Stack Pointer
1090:../../source/include/core_cm3.h ****  *
1091:../../source/include/core_cm3.h ****  * Assign the value ProcessStackPointer to the MSP 
1092:../../source/include/core_cm3.h ****  * (process stack pointer) Cortex processor register
1093:../../source/include/core_cm3.h ****  */
1094:../../source/include/core_cm3.h **** extern void __set_PSP(uint32_t topOfProcStack);
1095:../../source/include/core_cm3.h **** 
1096:../../source/include/core_cm3.h **** /**
1097:../../source/include/core_cm3.h ****  * @brief  Return the Main Stack Pointer
ARM GAS  G:\Users\Jaxb\AppData\Local\Temp\ccVaMaab.s 			page 28


1098:../../source/include/core_cm3.h ****  *
1099:../../source/include/core_cm3.h ****  * @return Main Stack Pointer
1100:../../source/include/core_cm3.h ****  *
1101:../../source/include/core_cm3.h ****  * Return the current value of the MSP (main stack pointer)
1102:../../source/include/core_cm3.h ****  * Cortex processor register
1103:../../source/include/core_cm3.h ****  */
1104:../../source/include/core_cm3.h **** extern uint32_t __get_MSP(void);
1105:../../source/include/core_cm3.h **** 
1106:../../source/include/core_cm3.h **** /**
1107:../../source/include/core_cm3.h ****  * @brief  Set the Main Stack Pointer
1108:../../source/include/core_cm3.h ****  *
1109:../../source/include/core_cm3.h ****  * @param  topOfMainStack  Main Stack Pointer
1110:../../source/include/core_cm3.h ****  *
1111:../../source/include/core_cm3.h ****  * Assign the value mainStackPointer to the MSP 
1112:../../source/include/core_cm3.h ****  * (main stack pointer) Cortex processor register
1113:../../source/include/core_cm3.h ****  */
1114:../../source/include/core_cm3.h **** extern void __set_MSP(uint32_t topOfMainStack);
1115:../../source/include/core_cm3.h **** 
1116:../../source/include/core_cm3.h **** /**
1117:../../source/include/core_cm3.h ****  * @brief  Reverse byte order in unsigned short value
1118:../../source/include/core_cm3.h ****  *
1119:../../source/include/core_cm3.h ****  * @param  value  value to reverse
1120:../../source/include/core_cm3.h ****  * @return        reversed value
1121:../../source/include/core_cm3.h ****  *
1122:../../source/include/core_cm3.h ****  * Reverse byte order in unsigned short value
1123:../../source/include/core_cm3.h ****  */
1124:../../source/include/core_cm3.h **** extern uint32_t __REV16(uint16_t value);
1125:../../source/include/core_cm3.h **** 
1126:../../source/include/core_cm3.h **** /**
1127:../../source/include/core_cm3.h ****  * @brief  Reverse bit order of value
1128:../../source/include/core_cm3.h ****  *
1129:../../source/include/core_cm3.h ****  * @param  value  value to reverse
1130:../../source/include/core_cm3.h ****  * @return        reversed value
1131:../../source/include/core_cm3.h ****  *
1132:../../source/include/core_cm3.h ****  * Reverse bit order of value
1133:../../source/include/core_cm3.h ****  */
1134:../../source/include/core_cm3.h **** extern uint32_t __RBIT(uint32_t value);
1135:../../source/include/core_cm3.h **** 
1136:../../source/include/core_cm3.h **** /**
1137:../../source/include/core_cm3.h ****  * @brief  LDR Exclusive (8 bit)
1138:../../source/include/core_cm3.h ****  *
1139:../../source/include/core_cm3.h ****  * @param  *addr  address pointer
1140:../../source/include/core_cm3.h ****  * @return        value of (*address)
1141:../../source/include/core_cm3.h ****  *
1142:../../source/include/core_cm3.h ****  * Exclusive LDR command for 8 bit values)
1143:../../source/include/core_cm3.h ****  */
1144:../../source/include/core_cm3.h **** extern uint8_t __LDREXB(uint8_t *addr);
1145:../../source/include/core_cm3.h **** 
1146:../../source/include/core_cm3.h **** /**
1147:../../source/include/core_cm3.h ****  * @brief  LDR Exclusive (16 bit)
1148:../../source/include/core_cm3.h ****  *
1149:../../source/include/core_cm3.h ****  * @param  *addr  address pointer
1150:../../source/include/core_cm3.h ****  * @return        value of (*address)
1151:../../source/include/core_cm3.h ****  *
1152:../../source/include/core_cm3.h ****  * Exclusive LDR command for 16 bit values
1153:../../source/include/core_cm3.h ****  */
1154:../../source/include/core_cm3.h **** extern uint16_t __LDREXH(uint16_t *addr);
ARM GAS  G:\Users\Jaxb\AppData\Local\Temp\ccVaMaab.s 			page 29


1155:../../source/include/core_cm3.h **** 
1156:../../source/include/core_cm3.h **** /**
1157:../../source/include/core_cm3.h ****  * @brief  LDR Exclusive (32 bit)
1158:../../source/include/core_cm3.h ****  *
1159:../../source/include/core_cm3.h ****  * @param  *addr  address pointer
1160:../../source/include/core_cm3.h ****  * @return        value of (*address)
1161:../../source/include/core_cm3.h ****  *
1162:../../source/include/core_cm3.h ****  * Exclusive LDR command for 32 bit values
1163:../../source/include/core_cm3.h ****  */
1164:../../source/include/core_cm3.h **** extern uint32_t __LDREXW(uint32_t *addr);
1165:../../source/include/core_cm3.h **** 
1166:../../source/include/core_cm3.h **** /**
1167:../../source/include/core_cm3.h ****  * @brief  STR Exclusive (8 bit)
1168:../../source/include/core_cm3.h ****  *
1169:../../source/include/core_cm3.h ****  * @param  value  value to store
1170:../../source/include/core_cm3.h ****  * @param  *addr  address pointer
1171:../../source/include/core_cm3.h ****  * @return        successful / failed
1172:../../source/include/core_cm3.h ****  *
1173:../../source/include/core_cm3.h ****  * Exclusive STR command for 8 bit values
1174:../../source/include/core_cm3.h ****  */
1175:../../source/include/core_cm3.h **** extern uint32_t __STREXB(uint8_t value, uint8_t *addr);
1176:../../source/include/core_cm3.h **** 
1177:../../source/include/core_cm3.h **** /**
1178:../../source/include/core_cm3.h ****  * @brief  STR Exclusive (16 bit)
1179:../../source/include/core_cm3.h ****  *
1180:../../source/include/core_cm3.h ****  * @param  value  value to store
1181:../../source/include/core_cm3.h ****  * @param  *addr  address pointer
1182:../../source/include/core_cm3.h ****  * @return        successful / failed
1183:../../source/include/core_cm3.h ****  *
1184:../../source/include/core_cm3.h ****  * Exclusive STR command for 16 bit values
1185:../../source/include/core_cm3.h ****  */
1186:../../source/include/core_cm3.h **** extern uint32_t __STREXH(uint16_t value, uint16_t *addr);
1187:../../source/include/core_cm3.h **** 
1188:../../source/include/core_cm3.h **** /**
1189:../../source/include/core_cm3.h ****  * @brief  STR Exclusive (32 bit)
1190:../../source/include/core_cm3.h ****  *
1191:../../source/include/core_cm3.h ****  * @param  value  value to store
1192:../../source/include/core_cm3.h ****  * @param  *addr  address pointer
1193:../../source/include/core_cm3.h ****  * @return        successful / failed
1194:../../source/include/core_cm3.h ****  *
1195:../../source/include/core_cm3.h ****  * Exclusive STR command for 32 bit values
1196:../../source/include/core_cm3.h ****  */
1197:../../source/include/core_cm3.h **** extern uint32_t __STREXW(uint32_t value, uint32_t *addr);
1198:../../source/include/core_cm3.h **** 
1199:../../source/include/core_cm3.h **** 
1200:../../source/include/core_cm3.h **** 
1201:../../source/include/core_cm3.h **** #elif (defined (__GNUC__)) /*------------------ GNU Compiler ---------------------*/
1202:../../source/include/core_cm3.h **** /* GNU gcc specific functions */
1203:../../source/include/core_cm3.h **** 
1204:../../source/include/core_cm3.h **** static __INLINE void __enable_irq()               { __ASM volatile ("cpsie i"); }
1205:../../source/include/core_cm3.h **** static __INLINE void __disable_irq()              { __ASM volatile ("cpsid i"); }
1206:../../source/include/core_cm3.h **** 
1207:../../source/include/core_cm3.h **** static __INLINE void __enable_fault_irq()         { __ASM volatile ("cpsie f"); }
1208:../../source/include/core_cm3.h **** static __INLINE void __disable_fault_irq()        { __ASM volatile ("cpsid f"); }
1209:../../source/include/core_cm3.h **** 
1210:../../source/include/core_cm3.h **** static __INLINE void __NOP()                      { __ASM volatile ("nop"); }
1211:../../source/include/core_cm3.h **** static __INLINE void __WFI()                      { __ASM volatile ("wfi"); }
ARM GAS  G:\Users\Jaxb\AppData\Local\Temp\ccVaMaab.s 			page 30


1212:../../source/include/core_cm3.h **** static __INLINE void __WFE()                      { __ASM volatile ("wfe"); }
 221              		.loc 2 1212 0
 222              		.syntax unified
 223              	@ 1212 "../../source/include/core_cm3.h" 1
 224 0072 20BF     		wfe
 225              	@ 0 "" 2
 226              		.thumb
 227              		.syntax unified
 228              	.L17:
 229              	.LBE9:
 230              	.LBE8:
 217:../../source/src/FWlib/src/stm32f10x_pwr.c ****   {   
 218:../../source/src/FWlib/src/stm32f10x_pwr.c ****     /* Request Wait For Interrupt */
 219:../../source/src/FWlib/src/stm32f10x_pwr.c ****     __WFI();
 220:../../source/src/FWlib/src/stm32f10x_pwr.c ****   }
 221:../../source/src/FWlib/src/stm32f10x_pwr.c ****   else
 222:../../source/src/FWlib/src/stm32f10x_pwr.c ****   {
 223:../../source/src/FWlib/src/stm32f10x_pwr.c ****     /* Request Wait For Event */
 224:../../source/src/FWlib/src/stm32f10x_pwr.c ****     __WFE();
 225:../../source/src/FWlib/src/stm32f10x_pwr.c ****   }
 226:../../source/src/FWlib/src/stm32f10x_pwr.c ****   
 227:../../source/src/FWlib/src/stm32f10x_pwr.c ****   /* Reset SLEEPDEEP bit of Cortex System Control Register */
 228:../../source/src/FWlib/src/stm32f10x_pwr.c ****   SCB->SCR &= (uint32_t)~((uint32_t)SCB_SCR_SLEEPDEEP);  
 231              		.loc 1 228 0
 232 0074 054A     		ldr	r2, .L19+4
 229:../../source/src/FWlib/src/stm32f10x_pwr.c **** }
 233              		.loc 1 229 0
 234 0076 10BC     		pop	{r4}
 235              	.LCFI3:
 236              		.cfi_remember_state
 237              		.cfi_restore 4
 238              		.cfi_def_cfa_offset 0
 228:../../source/src/FWlib/src/stm32f10x_pwr.c **** }
 239              		.loc 1 228 0
 240 0078 1369     		ldr	r3, [r2, #16]
 241 007a 23F00403 		bic	r3, r3, #4
 242 007e 1361     		str	r3, [r2, #16]
 243              		.loc 1 229 0
 244 0080 7047     		bx	lr
 245              	.L18:
 246              	.LCFI4:
 247              		.cfi_restore_state
 248              	.LBB10:
 249              	.LBB11:
1211:../../source/include/core_cm3.h **** static __INLINE void __WFE()                      { __ASM volatile ("wfe"); }
 250              		.loc 2 1211 0
 251              		.syntax unified
 252              	@ 1211 "../../source/include/core_cm3.h" 1
 253 0082 30BF     		wfi
 254              	@ 0 "" 2
 255              		.thumb
 256              		.syntax unified
 257 0084 F6E7     		b	.L17
 258              	.L20:
 259 0086 00BF     		.align	2
 260              	.L19:
 261 0088 00700040 		.word	1073770496
ARM GAS  G:\Users\Jaxb\AppData\Local\Temp\ccVaMaab.s 			page 31


 262 008c 00ED00E0 		.word	-536810240
 263              	.LBE11:
 264              	.LBE10:
 265              		.cfi_endproc
 266              	.LFE34:
 267              		.size	PWR_EnterSTOPMode, .-PWR_EnterSTOPMode
 268              		.align	1
 269              		.p2align 2,,3
 270              		.global	PWR_EnterSTANDBYMode
 271              		.syntax unified
 272              		.thumb
 273              		.thumb_func
 274              		.fpu softvfp
 275              		.type	PWR_EnterSTANDBYMode, %function
 276              	PWR_EnterSTANDBYMode:
 277              	.LFB35:
 230:../../source/src/FWlib/src/stm32f10x_pwr.c **** 
 231:../../source/src/FWlib/src/stm32f10x_pwr.c **** /**
 232:../../source/src/FWlib/src/stm32f10x_pwr.c ****   * @brief  Enters STANDBY mode.
 233:../../source/src/FWlib/src/stm32f10x_pwr.c ****   * @param  None
 234:../../source/src/FWlib/src/stm32f10x_pwr.c ****   * @retval None
 235:../../source/src/FWlib/src/stm32f10x_pwr.c ****   */
 236:../../source/src/FWlib/src/stm32f10x_pwr.c **** void PWR_EnterSTANDBYMode(void)
 237:../../source/src/FWlib/src/stm32f10x_pwr.c **** {
 278              		.loc 1 237 0
 279              		.cfi_startproc
 280              		@ args = 0, pretend = 0, frame = 0
 281              		@ frame_needed = 0, uses_anonymous_args = 0
 282              		@ link register save eliminated.
 238:../../source/src/FWlib/src/stm32f10x_pwr.c ****   /* Clear Wake-up flag */
 239:../../source/src/FWlib/src/stm32f10x_pwr.c ****   PWR->CR |= PWR_CR_CWUF;
 283              		.loc 1 239 0
 284 0090 074B     		ldr	r3, .L22
 240:../../source/src/FWlib/src/stm32f10x_pwr.c ****   /* Select STANDBY mode */
 241:../../source/src/FWlib/src/stm32f10x_pwr.c ****   PWR->CR |= PWR_CR_PDDS;
 242:../../source/src/FWlib/src/stm32f10x_pwr.c ****   /* Set SLEEPDEEP bit of Cortex System Control Register */
 243:../../source/src/FWlib/src/stm32f10x_pwr.c ****   SCB->SCR |= SCB_SCR_SLEEPDEEP;
 285              		.loc 1 243 0
 286 0092 0849     		ldr	r1, .L22+4
 239:../../source/src/FWlib/src/stm32f10x_pwr.c ****   /* Select STANDBY mode */
 287              		.loc 1 239 0
 288 0094 1A68     		ldr	r2, [r3]
 289 0096 42F00402 		orr	r2, r2, #4
 290 009a 1A60     		str	r2, [r3]
 241:../../source/src/FWlib/src/stm32f10x_pwr.c ****   /* Set SLEEPDEEP bit of Cortex System Control Register */
 291              		.loc 1 241 0
 292 009c 1A68     		ldr	r2, [r3]
 293 009e 42F00202 		orr	r2, r2, #2
 294 00a2 1A60     		str	r2, [r3]
 295              		.loc 1 243 0
 296 00a4 0B69     		ldr	r3, [r1, #16]
 297 00a6 43F00403 		orr	r3, r3, #4
 298 00aa 0B61     		str	r3, [r1, #16]
 299              	.LBB12:
 300              	.LBB13:
1211:../../source/include/core_cm3.h **** static __INLINE void __WFE()                      { __ASM volatile ("wfe"); }
 301              		.loc 2 1211 0
ARM GAS  G:\Users\Jaxb\AppData\Local\Temp\ccVaMaab.s 			page 32


 302              		.syntax unified
 303              	@ 1211 "../../source/include/core_cm3.h" 1
 304 00ac 30BF     		wfi
 305              	@ 0 "" 2
 306              		.thumb
 307              		.syntax unified
 308              	.LBE13:
 309              	.LBE12:
 244:../../source/src/FWlib/src/stm32f10x_pwr.c **** /* This option is used to ensure that store operations are completed */
 245:../../source/src/FWlib/src/stm32f10x_pwr.c **** #if defined ( __CC_ARM   )
 246:../../source/src/FWlib/src/stm32f10x_pwr.c ****   __force_stores();
 247:../../source/src/FWlib/src/stm32f10x_pwr.c **** #endif
 248:../../source/src/FWlib/src/stm32f10x_pwr.c ****   /* Request Wait For Interrupt */
 249:../../source/src/FWlib/src/stm32f10x_pwr.c ****   __WFI();
 250:../../source/src/FWlib/src/stm32f10x_pwr.c **** }
 310              		.loc 1 250 0
 311 00ae 7047     		bx	lr
 312              	.L23:
 313              		.align	2
 314              	.L22:
 315 00b0 00700040 		.word	1073770496
 316 00b4 00ED00E0 		.word	-536810240
 317              		.cfi_endproc
 318              	.LFE35:
 319              		.size	PWR_EnterSTANDBYMode, .-PWR_EnterSTANDBYMode
 320              		.align	1
 321              		.p2align 2,,3
 322              		.global	PWR_GetFlagStatus
 323              		.syntax unified
 324              		.thumb
 325              		.thumb_func
 326              		.fpu softvfp
 327              		.type	PWR_GetFlagStatus, %function
 328              	PWR_GetFlagStatus:
 329              	.LFB36:
 251:../../source/src/FWlib/src/stm32f10x_pwr.c **** 
 252:../../source/src/FWlib/src/stm32f10x_pwr.c **** /**
 253:../../source/src/FWlib/src/stm32f10x_pwr.c ****   * @brief  Checks whether the specified PWR flag is set or not.
 254:../../source/src/FWlib/src/stm32f10x_pwr.c ****   * @param  PWR_FLAG: specifies the flag to check.
 255:../../source/src/FWlib/src/stm32f10x_pwr.c ****   *   This parameter can be one of the following values:
 256:../../source/src/FWlib/src/stm32f10x_pwr.c ****   *     @arg PWR_FLAG_WU: Wake Up flag
 257:../../source/src/FWlib/src/stm32f10x_pwr.c ****   *     @arg PWR_FLAG_SB: StandBy flag
 258:../../source/src/FWlib/src/stm32f10x_pwr.c ****   *     @arg PWR_FLAG_PVDO: PVD Output
 259:../../source/src/FWlib/src/stm32f10x_pwr.c ****   * @retval The new state of PWR_FLAG (SET or RESET).
 260:../../source/src/FWlib/src/stm32f10x_pwr.c ****   */
 261:../../source/src/FWlib/src/stm32f10x_pwr.c **** FlagStatus PWR_GetFlagStatus(uint32_t PWR_FLAG)
 262:../../source/src/FWlib/src/stm32f10x_pwr.c **** {
 330              		.loc 1 262 0
 331              		.cfi_startproc
 332              		@ args = 0, pretend = 0, frame = 0
 333              		@ frame_needed = 0, uses_anonymous_args = 0
 334              		@ link register save eliminated.
 335              	.LVL13:
 263:../../source/src/FWlib/src/stm32f10x_pwr.c ****   FlagStatus bitstatus = RESET;
 264:../../source/src/FWlib/src/stm32f10x_pwr.c ****   /* Check the parameters */
 265:../../source/src/FWlib/src/stm32f10x_pwr.c ****   assert_param(IS_PWR_GET_FLAG(PWR_FLAG));
 266:../../source/src/FWlib/src/stm32f10x_pwr.c ****   
ARM GAS  G:\Users\Jaxb\AppData\Local\Temp\ccVaMaab.s 			page 33


 267:../../source/src/FWlib/src/stm32f10x_pwr.c ****   if ((PWR->CSR & PWR_FLAG) != (uint32_t)RESET)
 336              		.loc 1 267 0
 337 00b8 034B     		ldr	r3, .L25
 338 00ba 5B68     		ldr	r3, [r3, #4]
 339              	.LVL14:
 340 00bc 0342     		tst	r3, r0
 268:../../source/src/FWlib/src/stm32f10x_pwr.c ****   {
 269:../../source/src/FWlib/src/stm32f10x_pwr.c ****     bitstatus = SET;
 270:../../source/src/FWlib/src/stm32f10x_pwr.c ****   }
 271:../../source/src/FWlib/src/stm32f10x_pwr.c ****   else
 272:../../source/src/FWlib/src/stm32f10x_pwr.c ****   {
 273:../../source/src/FWlib/src/stm32f10x_pwr.c ****     bitstatus = RESET;
 274:../../source/src/FWlib/src/stm32f10x_pwr.c ****   }
 275:../../source/src/FWlib/src/stm32f10x_pwr.c ****   /* Return the flag status */
 276:../../source/src/FWlib/src/stm32f10x_pwr.c ****   return bitstatus;
 277:../../source/src/FWlib/src/stm32f10x_pwr.c **** }
 341              		.loc 1 277 0
 342 00be 14BF     		ite	ne
 343 00c0 0120     		movne	r0, #1
 344              	.LVL15:
 345 00c2 0020     		moveq	r0, #0
 346 00c4 7047     		bx	lr
 347              	.L26:
 348 00c6 00BF     		.align	2
 349              	.L25:
 350 00c8 00700040 		.word	1073770496
 351              		.cfi_endproc
 352              	.LFE36:
 353              		.size	PWR_GetFlagStatus, .-PWR_GetFlagStatus
 354              		.align	1
 355              		.p2align 2,,3
 356              		.global	PWR_ClearFlag
 357              		.syntax unified
 358              		.thumb
 359              		.thumb_func
 360              		.fpu softvfp
 361              		.type	PWR_ClearFlag, %function
 362              	PWR_ClearFlag:
 363              	.LFB37:
 278:../../source/src/FWlib/src/stm32f10x_pwr.c **** 
 279:../../source/src/FWlib/src/stm32f10x_pwr.c **** /**
 280:../../source/src/FWlib/src/stm32f10x_pwr.c ****   * @brief  Clears the PWR's pending flags.
 281:../../source/src/FWlib/src/stm32f10x_pwr.c ****   * @param  PWR_FLAG: specifies the flag to clear.
 282:../../source/src/FWlib/src/stm32f10x_pwr.c ****   *   This parameter can be one of the following values:
 283:../../source/src/FWlib/src/stm32f10x_pwr.c ****   *     @arg PWR_FLAG_WU: Wake Up flag
 284:../../source/src/FWlib/src/stm32f10x_pwr.c ****   *     @arg PWR_FLAG_SB: StandBy flag
 285:../../source/src/FWlib/src/stm32f10x_pwr.c ****   * @retval None
 286:../../source/src/FWlib/src/stm32f10x_pwr.c ****   */
 287:../../source/src/FWlib/src/stm32f10x_pwr.c **** void PWR_ClearFlag(uint32_t PWR_FLAG)
 288:../../source/src/FWlib/src/stm32f10x_pwr.c **** {
 364              		.loc 1 288 0
 365              		.cfi_startproc
 366              		@ args = 0, pretend = 0, frame = 0
 367              		@ frame_needed = 0, uses_anonymous_args = 0
 368              		@ link register save eliminated.
 369              	.LVL16:
 289:../../source/src/FWlib/src/stm32f10x_pwr.c ****   /* Check the parameters */
ARM GAS  G:\Users\Jaxb\AppData\Local\Temp\ccVaMaab.s 			page 34


 290:../../source/src/FWlib/src/stm32f10x_pwr.c ****   assert_param(IS_PWR_CLEAR_FLAG(PWR_FLAG));
 291:../../source/src/FWlib/src/stm32f10x_pwr.c ****          
 292:../../source/src/FWlib/src/stm32f10x_pwr.c ****   PWR->CR |=  PWR_FLAG << 2;
 370              		.loc 1 292 0
 371 00cc 024A     		ldr	r2, .L28
 372 00ce 1368     		ldr	r3, [r2]
 373 00d0 43EA8000 		orr	r0, r3, r0, lsl #2
 374              	.LVL17:
 375 00d4 1060     		str	r0, [r2]
 293:../../source/src/FWlib/src/stm32f10x_pwr.c **** }
 376              		.loc 1 293 0
 377 00d6 7047     		bx	lr
 378              	.L29:
 379              		.align	2
 380              	.L28:
 381 00d8 00700040 		.word	1073770496
 382              		.cfi_endproc
 383              	.LFE37:
 384              		.size	PWR_ClearFlag, .-PWR_ClearFlag
 385              	.Letext0:
 386              		.file 3 "f:\\arm\\gcc2018\\arm-none-eabi\\include\\machine\\_default_types.h"
 387              		.file 4 "f:\\arm\\gcc2018\\arm-none-eabi\\include\\sys\\_stdint.h"
 388              		.file 5 "../../source/include/system_stm32f10x.h"
 389              		.file 6 "../../source/include/stm32f10x.h"
 390              		.file 7 "../../source/src/FWlib/inc/stm32f10x_rcc.h"