ARM GAS  G:\Users\Jaxb\AppData\Local\Temp\cc02ucHi.s 			page 1


   1              		.cpu cortex-m3
   2              		.eabi_attribute 20, 1
   3              		.eabi_attribute 21, 1
   4              		.eabi_attribute 23, 3
   5              		.eabi_attribute 24, 1
   6              		.eabi_attribute 25, 1
   7              		.eabi_attribute 26, 1
   8              		.eabi_attribute 30, 6
   9              		.eabi_attribute 34, 1
  10              		.eabi_attribute 18, 4
  11              		.file	"stm32f10x_sdio.c"
  12              		.text
  13              	.Ltext0:
  14              		.cfi_sections	.debug_frame
  15              		.align	1
  16              		.global	SDIO_DeInit
  17              		.syntax unified
  18              		.thumb
  19              		.thumb_func
  20              		.fpu softvfp
  21              		.type	SDIO_DeInit, %function
  22              	SDIO_DeInit:
  23              	.LFB29:
  24              		.file 1 "../../source/src/FWlib/src/stm32f10x_sdio.c"
   1:../../source/src/FWlib/src/stm32f10x_sdio.c **** /**
   2:../../source/src/FWlib/src/stm32f10x_sdio.c ****   ******************************************************************************
   3:../../source/src/FWlib/src/stm32f10x_sdio.c ****   * @file    stm32f10x_sdio.c
   4:../../source/src/FWlib/src/stm32f10x_sdio.c ****   * @author  MCD Application Team
   5:../../source/src/FWlib/src/stm32f10x_sdio.c ****   * @version V3.5.0
   6:../../source/src/FWlib/src/stm32f10x_sdio.c ****   * @date    11-March-2011
   7:../../source/src/FWlib/src/stm32f10x_sdio.c ****   * @brief   This file provides all the SDIO firmware functions.
   8:../../source/src/FWlib/src/stm32f10x_sdio.c ****   ******************************************************************************
   9:../../source/src/FWlib/src/stm32f10x_sdio.c ****   * @attention
  10:../../source/src/FWlib/src/stm32f10x_sdio.c ****   *
  11:../../source/src/FWlib/src/stm32f10x_sdio.c ****   * THE PRESENT FIRMWARE WHICH IS FOR GUIDANCE ONLY AIMS AT PROVIDING CUSTOMERS
  12:../../source/src/FWlib/src/stm32f10x_sdio.c ****   * WITH CODING INFORMATION REGARDING THEIR PRODUCTS IN ORDER FOR THEM TO SAVE
  13:../../source/src/FWlib/src/stm32f10x_sdio.c ****   * TIME. AS A RESULT, STMICROELECTRONICS SHALL NOT BE HELD LIABLE FOR ANY
  14:../../source/src/FWlib/src/stm32f10x_sdio.c ****   * DIRECT, INDIRECT OR CONSEQUENTIAL DAMAGES WITH RESPECT TO ANY CLAIMS ARISING
  15:../../source/src/FWlib/src/stm32f10x_sdio.c ****   * FROM THE CONTENT OF SUCH FIRMWARE AND/OR THE USE MADE BY CUSTOMERS OF THE
  16:../../source/src/FWlib/src/stm32f10x_sdio.c ****   * CODING INFORMATION CONTAINED HEREIN IN CONNECTION WITH THEIR PRODUCTS.
  17:../../source/src/FWlib/src/stm32f10x_sdio.c ****   *
  18:../../source/src/FWlib/src/stm32f10x_sdio.c ****   * <h2><center>&copy; COPYRIGHT 2011 STMicroelectronics</center></h2>
  19:../../source/src/FWlib/src/stm32f10x_sdio.c ****   ******************************************************************************
  20:../../source/src/FWlib/src/stm32f10x_sdio.c ****   */
  21:../../source/src/FWlib/src/stm32f10x_sdio.c **** 
  22:../../source/src/FWlib/src/stm32f10x_sdio.c **** /* Includes ------------------------------------------------------------------*/
  23:../../source/src/FWlib/src/stm32f10x_sdio.c **** #include "stm32f10x_sdio.h"
  24:../../source/src/FWlib/src/stm32f10x_sdio.c **** #include "stm32f10x_rcc.h"
  25:../../source/src/FWlib/src/stm32f10x_sdio.c **** 
  26:../../source/src/FWlib/src/stm32f10x_sdio.c **** /** @addtogroup STM32F10x_StdPeriph_Driver
  27:../../source/src/FWlib/src/stm32f10x_sdio.c ****   * @{
  28:../../source/src/FWlib/src/stm32f10x_sdio.c ****   */
  29:../../source/src/FWlib/src/stm32f10x_sdio.c **** 
  30:../../source/src/FWlib/src/stm32f10x_sdio.c **** /** @defgroup SDIO 
  31:../../source/src/FWlib/src/stm32f10x_sdio.c ****   * @brief SDIO driver modules
  32:../../source/src/FWlib/src/stm32f10x_sdio.c ****   * @{
  33:../../source/src/FWlib/src/stm32f10x_sdio.c ****   */ 
ARM GAS  G:\Users\Jaxb\AppData\Local\Temp\cc02ucHi.s 			page 2


  34:../../source/src/FWlib/src/stm32f10x_sdio.c **** 
  35:../../source/src/FWlib/src/stm32f10x_sdio.c **** /** @defgroup SDIO_Private_TypesDefinitions
  36:../../source/src/FWlib/src/stm32f10x_sdio.c ****   * @{
  37:../../source/src/FWlib/src/stm32f10x_sdio.c ****   */ 
  38:../../source/src/FWlib/src/stm32f10x_sdio.c **** 
  39:../../source/src/FWlib/src/stm32f10x_sdio.c **** /* ------------ SDIO registers bit address in the alias region ----------- */
  40:../../source/src/FWlib/src/stm32f10x_sdio.c **** #define SDIO_OFFSET                (SDIO_BASE - PERIPH_BASE)
  41:../../source/src/FWlib/src/stm32f10x_sdio.c **** 
  42:../../source/src/FWlib/src/stm32f10x_sdio.c **** /* --- CLKCR Register ---*/
  43:../../source/src/FWlib/src/stm32f10x_sdio.c **** 
  44:../../source/src/FWlib/src/stm32f10x_sdio.c **** /* Alias word address of CLKEN bit */
  45:../../source/src/FWlib/src/stm32f10x_sdio.c **** #define CLKCR_OFFSET              (SDIO_OFFSET + 0x04)
  46:../../source/src/FWlib/src/stm32f10x_sdio.c **** #define CLKEN_BitNumber           0x08
  47:../../source/src/FWlib/src/stm32f10x_sdio.c **** #define CLKCR_CLKEN_BB            (PERIPH_BB_BASE + (CLKCR_OFFSET * 32) + (CLKEN_BitNumber * 4))
  48:../../source/src/FWlib/src/stm32f10x_sdio.c **** 
  49:../../source/src/FWlib/src/stm32f10x_sdio.c **** /* --- CMD Register ---*/
  50:../../source/src/FWlib/src/stm32f10x_sdio.c **** 
  51:../../source/src/FWlib/src/stm32f10x_sdio.c **** /* Alias word address of SDIOSUSPEND bit */
  52:../../source/src/FWlib/src/stm32f10x_sdio.c **** #define CMD_OFFSET                (SDIO_OFFSET + 0x0C)
  53:../../source/src/FWlib/src/stm32f10x_sdio.c **** #define SDIOSUSPEND_BitNumber     0x0B
  54:../../source/src/FWlib/src/stm32f10x_sdio.c **** #define CMD_SDIOSUSPEND_BB        (PERIPH_BB_BASE + (CMD_OFFSET * 32) + (SDIOSUSPEND_BitNumber * 4)
  55:../../source/src/FWlib/src/stm32f10x_sdio.c **** 
  56:../../source/src/FWlib/src/stm32f10x_sdio.c **** /* Alias word address of ENCMDCOMPL bit */
  57:../../source/src/FWlib/src/stm32f10x_sdio.c **** #define ENCMDCOMPL_BitNumber      0x0C
  58:../../source/src/FWlib/src/stm32f10x_sdio.c **** #define CMD_ENCMDCOMPL_BB         (PERIPH_BB_BASE + (CMD_OFFSET * 32) + (ENCMDCOMPL_BitNumber * 4))
  59:../../source/src/FWlib/src/stm32f10x_sdio.c **** 
  60:../../source/src/FWlib/src/stm32f10x_sdio.c **** /* Alias word address of NIEN bit */
  61:../../source/src/FWlib/src/stm32f10x_sdio.c **** #define NIEN_BitNumber            0x0D
  62:../../source/src/FWlib/src/stm32f10x_sdio.c **** #define CMD_NIEN_BB               (PERIPH_BB_BASE + (CMD_OFFSET * 32) + (NIEN_BitNumber * 4))
  63:../../source/src/FWlib/src/stm32f10x_sdio.c **** 
  64:../../source/src/FWlib/src/stm32f10x_sdio.c **** /* Alias word address of ATACMD bit */
  65:../../source/src/FWlib/src/stm32f10x_sdio.c **** #define ATACMD_BitNumber          0x0E
  66:../../source/src/FWlib/src/stm32f10x_sdio.c **** #define CMD_ATACMD_BB             (PERIPH_BB_BASE + (CMD_OFFSET * 32) + (ATACMD_BitNumber * 4))
  67:../../source/src/FWlib/src/stm32f10x_sdio.c **** 
  68:../../source/src/FWlib/src/stm32f10x_sdio.c **** /* --- DCTRL Register ---*/
  69:../../source/src/FWlib/src/stm32f10x_sdio.c **** 
  70:../../source/src/FWlib/src/stm32f10x_sdio.c **** /* Alias word address of DMAEN bit */
  71:../../source/src/FWlib/src/stm32f10x_sdio.c **** #define DCTRL_OFFSET              (SDIO_OFFSET + 0x2C)
  72:../../source/src/FWlib/src/stm32f10x_sdio.c **** #define DMAEN_BitNumber           0x03
  73:../../source/src/FWlib/src/stm32f10x_sdio.c **** #define DCTRL_DMAEN_BB            (PERIPH_BB_BASE + (DCTRL_OFFSET * 32) + (DMAEN_BitNumber * 4))
  74:../../source/src/FWlib/src/stm32f10x_sdio.c **** 
  75:../../source/src/FWlib/src/stm32f10x_sdio.c **** /* Alias word address of RWSTART bit */
  76:../../source/src/FWlib/src/stm32f10x_sdio.c **** #define RWSTART_BitNumber         0x08
  77:../../source/src/FWlib/src/stm32f10x_sdio.c **** #define DCTRL_RWSTART_BB          (PERIPH_BB_BASE + (DCTRL_OFFSET * 32) + (RWSTART_BitNumber * 4))
  78:../../source/src/FWlib/src/stm32f10x_sdio.c **** 
  79:../../source/src/FWlib/src/stm32f10x_sdio.c **** /* Alias word address of RWSTOP bit */
  80:../../source/src/FWlib/src/stm32f10x_sdio.c **** #define RWSTOP_BitNumber          0x09
  81:../../source/src/FWlib/src/stm32f10x_sdio.c **** #define DCTRL_RWSTOP_BB           (PERIPH_BB_BASE + (DCTRL_OFFSET * 32) + (RWSTOP_BitNumber * 4))
  82:../../source/src/FWlib/src/stm32f10x_sdio.c **** 
  83:../../source/src/FWlib/src/stm32f10x_sdio.c **** /* Alias word address of RWMOD bit */
  84:../../source/src/FWlib/src/stm32f10x_sdio.c **** #define RWMOD_BitNumber           0x0A
  85:../../source/src/FWlib/src/stm32f10x_sdio.c **** #define DCTRL_RWMOD_BB            (PERIPH_BB_BASE + (DCTRL_OFFSET * 32) + (RWMOD_BitNumber * 4))
  86:../../source/src/FWlib/src/stm32f10x_sdio.c **** 
  87:../../source/src/FWlib/src/stm32f10x_sdio.c **** /* Alias word address of SDIOEN bit */
  88:../../source/src/FWlib/src/stm32f10x_sdio.c **** #define SDIOEN_BitNumber          0x0B
  89:../../source/src/FWlib/src/stm32f10x_sdio.c **** #define DCTRL_SDIOEN_BB           (PERIPH_BB_BASE + (DCTRL_OFFSET * 32) + (SDIOEN_BitNumber * 4))
  90:../../source/src/FWlib/src/stm32f10x_sdio.c **** 
ARM GAS  G:\Users\Jaxb\AppData\Local\Temp\cc02ucHi.s 			page 3


  91:../../source/src/FWlib/src/stm32f10x_sdio.c **** /* ---------------------- SDIO registers bit mask ------------------------ */
  92:../../source/src/FWlib/src/stm32f10x_sdio.c **** 
  93:../../source/src/FWlib/src/stm32f10x_sdio.c **** /* --- CLKCR Register ---*/
  94:../../source/src/FWlib/src/stm32f10x_sdio.c **** 
  95:../../source/src/FWlib/src/stm32f10x_sdio.c **** /* CLKCR register clear mask */
  96:../../source/src/FWlib/src/stm32f10x_sdio.c **** #define CLKCR_CLEAR_MASK         ((uint32_t)0xFFFF8100) 
  97:../../source/src/FWlib/src/stm32f10x_sdio.c **** 
  98:../../source/src/FWlib/src/stm32f10x_sdio.c **** /* --- PWRCTRL Register ---*/
  99:../../source/src/FWlib/src/stm32f10x_sdio.c **** 
 100:../../source/src/FWlib/src/stm32f10x_sdio.c **** /* SDIO PWRCTRL Mask */
 101:../../source/src/FWlib/src/stm32f10x_sdio.c **** #define PWR_PWRCTRL_MASK         ((uint32_t)0xFFFFFFFC)
 102:../../source/src/FWlib/src/stm32f10x_sdio.c **** 
 103:../../source/src/FWlib/src/stm32f10x_sdio.c **** /* --- DCTRL Register ---*/
 104:../../source/src/FWlib/src/stm32f10x_sdio.c **** 
 105:../../source/src/FWlib/src/stm32f10x_sdio.c **** /* SDIO DCTRL Clear Mask */
 106:../../source/src/FWlib/src/stm32f10x_sdio.c **** #define DCTRL_CLEAR_MASK         ((uint32_t)0xFFFFFF08)
 107:../../source/src/FWlib/src/stm32f10x_sdio.c **** 
 108:../../source/src/FWlib/src/stm32f10x_sdio.c **** /* --- CMD Register ---*/
 109:../../source/src/FWlib/src/stm32f10x_sdio.c **** 
 110:../../source/src/FWlib/src/stm32f10x_sdio.c **** /* CMD Register clear mask */
 111:../../source/src/FWlib/src/stm32f10x_sdio.c **** #define CMD_CLEAR_MASK           ((uint32_t)0xFFFFF800)
 112:../../source/src/FWlib/src/stm32f10x_sdio.c **** 
 113:../../source/src/FWlib/src/stm32f10x_sdio.c **** /* SDIO RESP Registers Address */
 114:../../source/src/FWlib/src/stm32f10x_sdio.c **** #define SDIO_RESP_ADDR           ((uint32_t)(SDIO_BASE + 0x14))
 115:../../source/src/FWlib/src/stm32f10x_sdio.c **** 
 116:../../source/src/FWlib/src/stm32f10x_sdio.c **** /**
 117:../../source/src/FWlib/src/stm32f10x_sdio.c ****   * @}
 118:../../source/src/FWlib/src/stm32f10x_sdio.c ****   */
 119:../../source/src/FWlib/src/stm32f10x_sdio.c **** 
 120:../../source/src/FWlib/src/stm32f10x_sdio.c **** /** @defgroup SDIO_Private_Defines
 121:../../source/src/FWlib/src/stm32f10x_sdio.c ****   * @{
 122:../../source/src/FWlib/src/stm32f10x_sdio.c ****   */
 123:../../source/src/FWlib/src/stm32f10x_sdio.c **** 
 124:../../source/src/FWlib/src/stm32f10x_sdio.c **** /**
 125:../../source/src/FWlib/src/stm32f10x_sdio.c ****   * @}
 126:../../source/src/FWlib/src/stm32f10x_sdio.c ****   */
 127:../../source/src/FWlib/src/stm32f10x_sdio.c **** 
 128:../../source/src/FWlib/src/stm32f10x_sdio.c **** /** @defgroup SDIO_Private_Macros
 129:../../source/src/FWlib/src/stm32f10x_sdio.c ****   * @{
 130:../../source/src/FWlib/src/stm32f10x_sdio.c ****   */
 131:../../source/src/FWlib/src/stm32f10x_sdio.c **** 
 132:../../source/src/FWlib/src/stm32f10x_sdio.c **** /**
 133:../../source/src/FWlib/src/stm32f10x_sdio.c ****   * @}
 134:../../source/src/FWlib/src/stm32f10x_sdio.c ****   */
 135:../../source/src/FWlib/src/stm32f10x_sdio.c **** 
 136:../../source/src/FWlib/src/stm32f10x_sdio.c **** /** @defgroup SDIO_Private_Variables
 137:../../source/src/FWlib/src/stm32f10x_sdio.c ****   * @{
 138:../../source/src/FWlib/src/stm32f10x_sdio.c ****   */
 139:../../source/src/FWlib/src/stm32f10x_sdio.c **** 
 140:../../source/src/FWlib/src/stm32f10x_sdio.c **** /**
 141:../../source/src/FWlib/src/stm32f10x_sdio.c ****   * @}
 142:../../source/src/FWlib/src/stm32f10x_sdio.c ****   */
 143:../../source/src/FWlib/src/stm32f10x_sdio.c **** 
 144:../../source/src/FWlib/src/stm32f10x_sdio.c **** /** @defgroup SDIO_Private_FunctionPrototypes
 145:../../source/src/FWlib/src/stm32f10x_sdio.c ****   * @{
 146:../../source/src/FWlib/src/stm32f10x_sdio.c ****   */
 147:../../source/src/FWlib/src/stm32f10x_sdio.c **** 
ARM GAS  G:\Users\Jaxb\AppData\Local\Temp\cc02ucHi.s 			page 4


 148:../../source/src/FWlib/src/stm32f10x_sdio.c **** /**
 149:../../source/src/FWlib/src/stm32f10x_sdio.c ****   * @}
 150:../../source/src/FWlib/src/stm32f10x_sdio.c ****   */
 151:../../source/src/FWlib/src/stm32f10x_sdio.c **** 
 152:../../source/src/FWlib/src/stm32f10x_sdio.c **** /** @defgroup SDIO_Private_Functions
 153:../../source/src/FWlib/src/stm32f10x_sdio.c ****   * @{
 154:../../source/src/FWlib/src/stm32f10x_sdio.c ****   */
 155:../../source/src/FWlib/src/stm32f10x_sdio.c **** 
 156:../../source/src/FWlib/src/stm32f10x_sdio.c **** /**
 157:../../source/src/FWlib/src/stm32f10x_sdio.c ****   * @brief  Deinitializes the SDIO peripheral registers to their default reset values.
 158:../../source/src/FWlib/src/stm32f10x_sdio.c ****   * @param  None
 159:../../source/src/FWlib/src/stm32f10x_sdio.c ****   * @retval None
 160:../../source/src/FWlib/src/stm32f10x_sdio.c ****   */
 161:../../source/src/FWlib/src/stm32f10x_sdio.c **** void SDIO_DeInit(void)
 162:../../source/src/FWlib/src/stm32f10x_sdio.c **** {
  25              		.loc 1 162 0
  26              		.cfi_startproc
  27              		@ args = 0, pretend = 0, frame = 0
  28              		@ frame_needed = 1, uses_anonymous_args = 0
  29              		@ link register save eliminated.
  30 0000 80B4     		push	{r7}
  31              	.LCFI0:
  32              		.cfi_def_cfa_offset 4
  33              		.cfi_offset 7, -4
  34 0002 00AF     		add	r7, sp, #0
  35              	.LCFI1:
  36              		.cfi_def_cfa_register 7
 163:../../source/src/FWlib/src/stm32f10x_sdio.c ****   SDIO->POWER = 0x00000000;
  37              		.loc 1 163 0
  38 0004 0F4B     		ldr	r3, .L2
  39 0006 0022     		movs	r2, #0
  40 0008 1A60     		str	r2, [r3]
 164:../../source/src/FWlib/src/stm32f10x_sdio.c ****   SDIO->CLKCR = 0x00000000;
  41              		.loc 1 164 0
  42 000a 0E4B     		ldr	r3, .L2
  43 000c 0022     		movs	r2, #0
  44 000e 5A60     		str	r2, [r3, #4]
 165:../../source/src/FWlib/src/stm32f10x_sdio.c ****   SDIO->ARG = 0x00000000;
  45              		.loc 1 165 0
  46 0010 0C4B     		ldr	r3, .L2
  47 0012 0022     		movs	r2, #0
  48 0014 9A60     		str	r2, [r3, #8]
 166:../../source/src/FWlib/src/stm32f10x_sdio.c ****   SDIO->CMD = 0x00000000;
  49              		.loc 1 166 0
  50 0016 0B4B     		ldr	r3, .L2
  51 0018 0022     		movs	r2, #0
  52 001a DA60     		str	r2, [r3, #12]
 167:../../source/src/FWlib/src/stm32f10x_sdio.c ****   SDIO->DTIMER = 0x00000000;
  53              		.loc 1 167 0
  54 001c 094B     		ldr	r3, .L2
  55 001e 0022     		movs	r2, #0
  56 0020 5A62     		str	r2, [r3, #36]
 168:../../source/src/FWlib/src/stm32f10x_sdio.c ****   SDIO->DLEN = 0x00000000;
  57              		.loc 1 168 0
  58 0022 084B     		ldr	r3, .L2
  59 0024 0022     		movs	r2, #0
  60 0026 9A62     		str	r2, [r3, #40]
ARM GAS  G:\Users\Jaxb\AppData\Local\Temp\cc02ucHi.s 			page 5


 169:../../source/src/FWlib/src/stm32f10x_sdio.c ****   SDIO->DCTRL = 0x00000000;
  61              		.loc 1 169 0
  62 0028 064B     		ldr	r3, .L2
  63 002a 0022     		movs	r2, #0
  64 002c DA62     		str	r2, [r3, #44]
 170:../../source/src/FWlib/src/stm32f10x_sdio.c ****   SDIO->ICR = 0x00C007FF;
  65              		.loc 1 170 0
  66 002e 054B     		ldr	r3, .L2
  67 0030 054A     		ldr	r2, .L2+4
  68 0032 9A63     		str	r2, [r3, #56]
 171:../../source/src/FWlib/src/stm32f10x_sdio.c ****   SDIO->MASK = 0x00000000;
  69              		.loc 1 171 0
  70 0034 034B     		ldr	r3, .L2
  71 0036 0022     		movs	r2, #0
  72 0038 DA63     		str	r2, [r3, #60]
 172:../../source/src/FWlib/src/stm32f10x_sdio.c **** }
  73              		.loc 1 172 0
  74 003a 00BF     		nop
  75 003c BD46     		mov	sp, r7
  76              	.LCFI2:
  77              		.cfi_def_cfa_register 13
  78              		@ sp needed
  79 003e 80BC     		pop	{r7}
  80              	.LCFI3:
  81              		.cfi_restore 7
  82              		.cfi_def_cfa_offset 0
  83 0040 7047     		bx	lr
  84              	.L3:
  85 0042 00BF     		.align	2
  86              	.L2:
  87 0044 00800140 		.word	1073840128
  88 0048 FF07C000 		.word	12584959
  89              		.cfi_endproc
  90              	.LFE29:
  91              		.size	SDIO_DeInit, .-SDIO_DeInit
  92              		.align	1
  93              		.global	SDIO_Init
  94              		.syntax unified
  95              		.thumb
  96              		.thumb_func
  97              		.fpu softvfp
  98              		.type	SDIO_Init, %function
  99              	SDIO_Init:
 100              	.LFB30:
 173:../../source/src/FWlib/src/stm32f10x_sdio.c **** 
 174:../../source/src/FWlib/src/stm32f10x_sdio.c **** /**
 175:../../source/src/FWlib/src/stm32f10x_sdio.c ****   * @brief  Initializes the SDIO peripheral according to the specified 
 176:../../source/src/FWlib/src/stm32f10x_sdio.c ****   *         parameters in the SDIO_InitStruct.
 177:../../source/src/FWlib/src/stm32f10x_sdio.c ****   * @param  SDIO_InitStruct : pointer to a SDIO_InitTypeDef structure 
 178:../../source/src/FWlib/src/stm32f10x_sdio.c ****   *         that contains the configuration information for the SDIO peripheral.
 179:../../source/src/FWlib/src/stm32f10x_sdio.c ****   * @retval None
 180:../../source/src/FWlib/src/stm32f10x_sdio.c ****   */
 181:../../source/src/FWlib/src/stm32f10x_sdio.c **** void SDIO_Init(SDIO_InitTypeDef* SDIO_InitStruct)
 182:../../source/src/FWlib/src/stm32f10x_sdio.c **** {
 101              		.loc 1 182 0
 102              		.cfi_startproc
 103              		@ args = 0, pretend = 0, frame = 16
ARM GAS  G:\Users\Jaxb\AppData\Local\Temp\cc02ucHi.s 			page 6


 104              		@ frame_needed = 1, uses_anonymous_args = 0
 105              		@ link register save eliminated.
 106 004c 80B4     		push	{r7}
 107              	.LCFI4:
 108              		.cfi_def_cfa_offset 4
 109              		.cfi_offset 7, -4
 110 004e 85B0     		sub	sp, sp, #20
 111              	.LCFI5:
 112              		.cfi_def_cfa_offset 24
 113 0050 00AF     		add	r7, sp, #0
 114              	.LCFI6:
 115              		.cfi_def_cfa_register 7
 116 0052 7860     		str	r0, [r7, #4]
 183:../../source/src/FWlib/src/stm32f10x_sdio.c ****   uint32_t tmpreg = 0;
 117              		.loc 1 183 0
 118 0054 0023     		movs	r3, #0
 119 0056 FB60     		str	r3, [r7, #12]
 184:../../source/src/FWlib/src/stm32f10x_sdio.c ****     
 185:../../source/src/FWlib/src/stm32f10x_sdio.c ****   /* Check the parameters */
 186:../../source/src/FWlib/src/stm32f10x_sdio.c ****   assert_param(IS_SDIO_CLOCK_EDGE(SDIO_InitStruct->SDIO_ClockEdge));
 187:../../source/src/FWlib/src/stm32f10x_sdio.c ****   assert_param(IS_SDIO_CLOCK_BYPASS(SDIO_InitStruct->SDIO_ClockBypass));
 188:../../source/src/FWlib/src/stm32f10x_sdio.c ****   assert_param(IS_SDIO_CLOCK_POWER_SAVE(SDIO_InitStruct->SDIO_ClockPowerSave));
 189:../../source/src/FWlib/src/stm32f10x_sdio.c ****   assert_param(IS_SDIO_BUS_WIDE(SDIO_InitStruct->SDIO_BusWide));
 190:../../source/src/FWlib/src/stm32f10x_sdio.c ****   assert_param(IS_SDIO_HARDWARE_FLOW_CONTROL(SDIO_InitStruct->SDIO_HardwareFlowControl)); 
 191:../../source/src/FWlib/src/stm32f10x_sdio.c ****    
 192:../../source/src/FWlib/src/stm32f10x_sdio.c **** /*---------------------------- SDIO CLKCR Configuration ------------------------*/  
 193:../../source/src/FWlib/src/stm32f10x_sdio.c ****   /* Get the SDIO CLKCR value */
 194:../../source/src/FWlib/src/stm32f10x_sdio.c ****   tmpreg = SDIO->CLKCR;
 120              		.loc 1 194 0
 121 0058 124B     		ldr	r3, .L5
 122 005a 5B68     		ldr	r3, [r3, #4]
 123 005c FB60     		str	r3, [r7, #12]
 195:../../source/src/FWlib/src/stm32f10x_sdio.c ****   
 196:../../source/src/FWlib/src/stm32f10x_sdio.c ****   /* Clear CLKDIV, PWRSAV, BYPASS, WIDBUS, NEGEDGE, HWFC_EN bits */
 197:../../source/src/FWlib/src/stm32f10x_sdio.c ****   tmpreg &= CLKCR_CLEAR_MASK;
 124              		.loc 1 197 0
 125 005e FB68     		ldr	r3, [r7, #12]
 126 0060 23F4FD43 		bic	r3, r3, #32384
 127 0064 23F07F03 		bic	r3, r3, #127
 128 0068 FB60     		str	r3, [r7, #12]
 198:../../source/src/FWlib/src/stm32f10x_sdio.c ****   
 199:../../source/src/FWlib/src/stm32f10x_sdio.c ****   /* Set CLKDIV bits according to SDIO_ClockDiv value */
 200:../../source/src/FWlib/src/stm32f10x_sdio.c ****   /* Set PWRSAV bit according to SDIO_ClockPowerSave value */
 201:../../source/src/FWlib/src/stm32f10x_sdio.c ****   /* Set BYPASS bit according to SDIO_ClockBypass value */
 202:../../source/src/FWlib/src/stm32f10x_sdio.c ****   /* Set WIDBUS bits according to SDIO_BusWide value */
 203:../../source/src/FWlib/src/stm32f10x_sdio.c ****   /* Set NEGEDGE bits according to SDIO_ClockEdge value */
 204:../../source/src/FWlib/src/stm32f10x_sdio.c ****   /* Set HWFC_EN bits according to SDIO_HardwareFlowControl value */
 205:../../source/src/FWlib/src/stm32f10x_sdio.c ****   tmpreg |= (SDIO_InitStruct->SDIO_ClockDiv  | SDIO_InitStruct->SDIO_ClockPowerSave |
 129              		.loc 1 205 0
 130 006a 7B68     		ldr	r3, [r7, #4]
 131 006c 1B7D     		ldrb	r3, [r3, #20]	@ zero_extendqisi2
 132 006e 1A46     		mov	r2, r3
 133 0070 7B68     		ldr	r3, [r7, #4]
 134 0072 9B68     		ldr	r3, [r3, #8]
 135 0074 1A43     		orrs	r2, r2, r3
 206:../../source/src/FWlib/src/stm32f10x_sdio.c ****              SDIO_InitStruct->SDIO_ClockBypass | SDIO_InitStruct->SDIO_BusWide |
 136              		.loc 1 206 0
ARM GAS  G:\Users\Jaxb\AppData\Local\Temp\cc02ucHi.s 			page 7


 137 0076 7B68     		ldr	r3, [r7, #4]
 138 0078 5B68     		ldr	r3, [r3, #4]
 205:../../source/src/FWlib/src/stm32f10x_sdio.c ****              SDIO_InitStruct->SDIO_ClockBypass | SDIO_InitStruct->SDIO_BusWide |
 139              		.loc 1 205 0
 140 007a 1A43     		orrs	r2, r2, r3
 141              		.loc 1 206 0
 142 007c 7B68     		ldr	r3, [r7, #4]
 143 007e DB68     		ldr	r3, [r3, #12]
 144 0080 1A43     		orrs	r2, r2, r3
 207:../../source/src/FWlib/src/stm32f10x_sdio.c ****              SDIO_InitStruct->SDIO_ClockEdge | SDIO_InitStruct->SDIO_HardwareFlowControl); 
 145              		.loc 1 207 0
 146 0082 7B68     		ldr	r3, [r7, #4]
 147 0084 1B68     		ldr	r3, [r3]
 206:../../source/src/FWlib/src/stm32f10x_sdio.c ****              SDIO_InitStruct->SDIO_ClockBypass | SDIO_InitStruct->SDIO_BusWide |
 148              		.loc 1 206 0
 149 0086 1A43     		orrs	r2, r2, r3
 150              		.loc 1 207 0
 151 0088 7B68     		ldr	r3, [r7, #4]
 152 008a 1B69     		ldr	r3, [r3, #16]
 153 008c 1343     		orrs	r3, r3, r2
 205:../../source/src/FWlib/src/stm32f10x_sdio.c ****              SDIO_InitStruct->SDIO_ClockBypass | SDIO_InitStruct->SDIO_BusWide |
 154              		.loc 1 205 0
 155 008e FA68     		ldr	r2, [r7, #12]
 156 0090 1343     		orrs	r3, r3, r2
 157 0092 FB60     		str	r3, [r7, #12]
 208:../../source/src/FWlib/src/stm32f10x_sdio.c ****   
 209:../../source/src/FWlib/src/stm32f10x_sdio.c ****   /* Write to SDIO CLKCR */
 210:../../source/src/FWlib/src/stm32f10x_sdio.c ****   SDIO->CLKCR = tmpreg;
 158              		.loc 1 210 0
 159 0094 034A     		ldr	r2, .L5
 160 0096 FB68     		ldr	r3, [r7, #12]
 161 0098 5360     		str	r3, [r2, #4]
 211:../../source/src/FWlib/src/stm32f10x_sdio.c **** }
 162              		.loc 1 211 0
 163 009a 00BF     		nop
 164 009c 1437     		adds	r7, r7, #20
 165              	.LCFI7:
 166              		.cfi_def_cfa_offset 4
 167 009e BD46     		mov	sp, r7
 168              	.LCFI8:
 169              		.cfi_def_cfa_register 13
 170              		@ sp needed
 171 00a0 80BC     		pop	{r7}
 172              	.LCFI9:
 173              		.cfi_restore 7
 174              		.cfi_def_cfa_offset 0
 175 00a2 7047     		bx	lr
 176              	.L6:
 177              		.align	2
 178              	.L5:
 179 00a4 00800140 		.word	1073840128
 180              		.cfi_endproc
 181              	.LFE30:
 182              		.size	SDIO_Init, .-SDIO_Init
 183              		.align	1
 184              		.global	SDIO_StructInit
 185              		.syntax unified
ARM GAS  G:\Users\Jaxb\AppData\Local\Temp\cc02ucHi.s 			page 8


 186              		.thumb
 187              		.thumb_func
 188              		.fpu softvfp
 189              		.type	SDIO_StructInit, %function
 190              	SDIO_StructInit:
 191              	.LFB31:
 212:../../source/src/FWlib/src/stm32f10x_sdio.c **** 
 213:../../source/src/FWlib/src/stm32f10x_sdio.c **** /**
 214:../../source/src/FWlib/src/stm32f10x_sdio.c ****   * @brief  Fills each SDIO_InitStruct member with its default value.
 215:../../source/src/FWlib/src/stm32f10x_sdio.c ****   * @param  SDIO_InitStruct: pointer to an SDIO_InitTypeDef structure which 
 216:../../source/src/FWlib/src/stm32f10x_sdio.c ****   *   will be initialized.
 217:../../source/src/FWlib/src/stm32f10x_sdio.c ****   * @retval None
 218:../../source/src/FWlib/src/stm32f10x_sdio.c ****   */
 219:../../source/src/FWlib/src/stm32f10x_sdio.c **** void SDIO_StructInit(SDIO_InitTypeDef* SDIO_InitStruct)
 220:../../source/src/FWlib/src/stm32f10x_sdio.c **** {
 192              		.loc 1 220 0
 193              		.cfi_startproc
 194              		@ args = 0, pretend = 0, frame = 8
 195              		@ frame_needed = 1, uses_anonymous_args = 0
 196              		@ link register save eliminated.
 197 00a8 80B4     		push	{r7}
 198              	.LCFI10:
 199              		.cfi_def_cfa_offset 4
 200              		.cfi_offset 7, -4
 201 00aa 83B0     		sub	sp, sp, #12
 202              	.LCFI11:
 203              		.cfi_def_cfa_offset 16
 204 00ac 00AF     		add	r7, sp, #0
 205              	.LCFI12:
 206              		.cfi_def_cfa_register 7
 207 00ae 7860     		str	r0, [r7, #4]
 221:../../source/src/FWlib/src/stm32f10x_sdio.c ****   /* SDIO_InitStruct members default value */
 222:../../source/src/FWlib/src/stm32f10x_sdio.c ****   SDIO_InitStruct->SDIO_ClockDiv = 0x00;
 208              		.loc 1 222 0
 209 00b0 7B68     		ldr	r3, [r7, #4]
 210 00b2 0022     		movs	r2, #0
 211 00b4 1A75     		strb	r2, [r3, #20]
 223:../../source/src/FWlib/src/stm32f10x_sdio.c ****   SDIO_InitStruct->SDIO_ClockEdge = SDIO_ClockEdge_Rising;
 212              		.loc 1 223 0
 213 00b6 7B68     		ldr	r3, [r7, #4]
 214 00b8 0022     		movs	r2, #0
 215 00ba 1A60     		str	r2, [r3]
 224:../../source/src/FWlib/src/stm32f10x_sdio.c ****   SDIO_InitStruct->SDIO_ClockBypass = SDIO_ClockBypass_Disable;
 216              		.loc 1 224 0
 217 00bc 7B68     		ldr	r3, [r7, #4]
 218 00be 0022     		movs	r2, #0
 219 00c0 5A60     		str	r2, [r3, #4]
 225:../../source/src/FWlib/src/stm32f10x_sdio.c ****   SDIO_InitStruct->SDIO_ClockPowerSave = SDIO_ClockPowerSave_Disable;
 220              		.loc 1 225 0
 221 00c2 7B68     		ldr	r3, [r7, #4]
 222 00c4 0022     		movs	r2, #0
 223 00c6 9A60     		str	r2, [r3, #8]
 226:../../source/src/FWlib/src/stm32f10x_sdio.c ****   SDIO_InitStruct->SDIO_BusWide = SDIO_BusWide_1b;
 224              		.loc 1 226 0
 225 00c8 7B68     		ldr	r3, [r7, #4]
 226 00ca 0022     		movs	r2, #0
 227 00cc DA60     		str	r2, [r3, #12]
ARM GAS  G:\Users\Jaxb\AppData\Local\Temp\cc02ucHi.s 			page 9


 227:../../source/src/FWlib/src/stm32f10x_sdio.c ****   SDIO_InitStruct->SDIO_HardwareFlowControl = SDIO_HardwareFlowControl_Disable;
 228              		.loc 1 227 0
 229 00ce 7B68     		ldr	r3, [r7, #4]
 230 00d0 0022     		movs	r2, #0
 231 00d2 1A61     		str	r2, [r3, #16]
 228:../../source/src/FWlib/src/stm32f10x_sdio.c **** }
 232              		.loc 1 228 0
 233 00d4 00BF     		nop
 234 00d6 0C37     		adds	r7, r7, #12
 235              	.LCFI13:
 236              		.cfi_def_cfa_offset 4
 237 00d8 BD46     		mov	sp, r7
 238              	.LCFI14:
 239              		.cfi_def_cfa_register 13
 240              		@ sp needed
 241 00da 80BC     		pop	{r7}
 242              	.LCFI15:
 243              		.cfi_restore 7
 244              		.cfi_def_cfa_offset 0
 245 00dc 7047     		bx	lr
 246              		.cfi_endproc
 247              	.LFE31:
 248              		.size	SDIO_StructInit, .-SDIO_StructInit
 249              		.align	1
 250              		.global	SDIO_ClockCmd
 251              		.syntax unified
 252              		.thumb
 253              		.thumb_func
 254              		.fpu softvfp
 255              		.type	SDIO_ClockCmd, %function
 256              	SDIO_ClockCmd:
 257              	.LFB32:
 229:../../source/src/FWlib/src/stm32f10x_sdio.c **** 
 230:../../source/src/FWlib/src/stm32f10x_sdio.c **** /**
 231:../../source/src/FWlib/src/stm32f10x_sdio.c ****   * @brief  Enables or disables the SDIO Clock.
 232:../../source/src/FWlib/src/stm32f10x_sdio.c ****   * @param  NewState: new state of the SDIO Clock. This parameter can be: ENABLE or DISABLE.
 233:../../source/src/FWlib/src/stm32f10x_sdio.c ****   * @retval None
 234:../../source/src/FWlib/src/stm32f10x_sdio.c ****   */
 235:../../source/src/FWlib/src/stm32f10x_sdio.c **** void SDIO_ClockCmd(FunctionalState NewState)
 236:../../source/src/FWlib/src/stm32f10x_sdio.c **** {
 258              		.loc 1 236 0
 259              		.cfi_startproc
 260              		@ args = 0, pretend = 0, frame = 8
 261              		@ frame_needed = 1, uses_anonymous_args = 0
 262              		@ link register save eliminated.
 263 00de 80B4     		push	{r7}
 264              	.LCFI16:
 265              		.cfi_def_cfa_offset 4
 266              		.cfi_offset 7, -4
 267 00e0 83B0     		sub	sp, sp, #12
 268              	.LCFI17:
 269              		.cfi_def_cfa_offset 16
 270 00e2 00AF     		add	r7, sp, #0
 271              	.LCFI18:
 272              		.cfi_def_cfa_register 7
 273 00e4 0346     		mov	r3, r0
 274 00e6 FB71     		strb	r3, [r7, #7]
ARM GAS  G:\Users\Jaxb\AppData\Local\Temp\cc02ucHi.s 			page 10


 237:../../source/src/FWlib/src/stm32f10x_sdio.c ****   /* Check the parameters */
 238:../../source/src/FWlib/src/stm32f10x_sdio.c ****   assert_param(IS_FUNCTIONAL_STATE(NewState));
 239:../../source/src/FWlib/src/stm32f10x_sdio.c ****   
 240:../../source/src/FWlib/src/stm32f10x_sdio.c ****   *(__IO uint32_t *) CLKCR_CLKEN_BB = (uint32_t)NewState;
 275              		.loc 1 240 0
 276 00e8 034A     		ldr	r2, .L9
 277 00ea FB79     		ldrb	r3, [r7, #7]	@ zero_extendqisi2
 278 00ec 1360     		str	r3, [r2]
 241:../../source/src/FWlib/src/stm32f10x_sdio.c **** }
 279              		.loc 1 241 0
 280 00ee 00BF     		nop
 281 00f0 0C37     		adds	r7, r7, #12
 282              	.LCFI19:
 283              		.cfi_def_cfa_offset 4
 284 00f2 BD46     		mov	sp, r7
 285              	.LCFI20:
 286              		.cfi_def_cfa_register 13
 287              		@ sp needed
 288 00f4 80BC     		pop	{r7}
 289              	.LCFI21:
 290              		.cfi_restore 7
 291              		.cfi_def_cfa_offset 0
 292 00f6 7047     		bx	lr
 293              	.L10:
 294              		.align	2
 295              	.L9:
 296 00f8 A0003042 		.word	1110442144
 297              		.cfi_endproc
 298              	.LFE32:
 299              		.size	SDIO_ClockCmd, .-SDIO_ClockCmd
 300              		.align	1
 301              		.global	SDIO_SetPowerState
 302              		.syntax unified
 303              		.thumb
 304              		.thumb_func
 305              		.fpu softvfp
 306              		.type	SDIO_SetPowerState, %function
 307              	SDIO_SetPowerState:
 308              	.LFB33:
 242:../../source/src/FWlib/src/stm32f10x_sdio.c **** 
 243:../../source/src/FWlib/src/stm32f10x_sdio.c **** /**
 244:../../source/src/FWlib/src/stm32f10x_sdio.c ****   * @brief  Sets the power status of the controller.
 245:../../source/src/FWlib/src/stm32f10x_sdio.c ****   * @param  SDIO_PowerState: new state of the Power state. 
 246:../../source/src/FWlib/src/stm32f10x_sdio.c ****   *   This parameter can be one of the following values:
 247:../../source/src/FWlib/src/stm32f10x_sdio.c ****   *     @arg SDIO_PowerState_OFF
 248:../../source/src/FWlib/src/stm32f10x_sdio.c ****   *     @arg SDIO_PowerState_ON
 249:../../source/src/FWlib/src/stm32f10x_sdio.c ****   * @retval None
 250:../../source/src/FWlib/src/stm32f10x_sdio.c ****   */
 251:../../source/src/FWlib/src/stm32f10x_sdio.c **** void SDIO_SetPowerState(uint32_t SDIO_PowerState)
 252:../../source/src/FWlib/src/stm32f10x_sdio.c **** {
 309              		.loc 1 252 0
 310              		.cfi_startproc
 311              		@ args = 0, pretend = 0, frame = 8
 312              		@ frame_needed = 1, uses_anonymous_args = 0
 313              		@ link register save eliminated.
 314 00fc 80B4     		push	{r7}
 315              	.LCFI22:
ARM GAS  G:\Users\Jaxb\AppData\Local\Temp\cc02ucHi.s 			page 11


 316              		.cfi_def_cfa_offset 4
 317              		.cfi_offset 7, -4
 318 00fe 83B0     		sub	sp, sp, #12
 319              	.LCFI23:
 320              		.cfi_def_cfa_offset 16
 321 0100 00AF     		add	r7, sp, #0
 322              	.LCFI24:
 323              		.cfi_def_cfa_register 7
 324 0102 7860     		str	r0, [r7, #4]
 253:../../source/src/FWlib/src/stm32f10x_sdio.c ****   /* Check the parameters */
 254:../../source/src/FWlib/src/stm32f10x_sdio.c ****   assert_param(IS_SDIO_POWER_STATE(SDIO_PowerState));
 255:../../source/src/FWlib/src/stm32f10x_sdio.c ****   
 256:../../source/src/FWlib/src/stm32f10x_sdio.c ****   SDIO->POWER &= PWR_PWRCTRL_MASK;
 325              		.loc 1 256 0
 326 0104 084B     		ldr	r3, .L12
 327 0106 1B68     		ldr	r3, [r3]
 328 0108 074A     		ldr	r2, .L12
 329 010a 23F00303 		bic	r3, r3, #3
 330 010e 1360     		str	r3, [r2]
 257:../../source/src/FWlib/src/stm32f10x_sdio.c ****   SDIO->POWER |= SDIO_PowerState;
 331              		.loc 1 257 0
 332 0110 054B     		ldr	r3, .L12
 333 0112 1A68     		ldr	r2, [r3]
 334 0114 0449     		ldr	r1, .L12
 335 0116 7B68     		ldr	r3, [r7, #4]
 336 0118 1343     		orrs	r3, r3, r2
 337 011a 0B60     		str	r3, [r1]
 258:../../source/src/FWlib/src/stm32f10x_sdio.c **** }
 338              		.loc 1 258 0
 339 011c 00BF     		nop
 340 011e 0C37     		adds	r7, r7, #12
 341              	.LCFI25:
 342              		.cfi_def_cfa_offset 4
 343 0120 BD46     		mov	sp, r7
 344              	.LCFI26:
 345              		.cfi_def_cfa_register 13
 346              		@ sp needed
 347 0122 80BC     		pop	{r7}
 348              	.LCFI27:
 349              		.cfi_restore 7
 350              		.cfi_def_cfa_offset 0
 351 0124 7047     		bx	lr
 352              	.L13:
 353 0126 00BF     		.align	2
 354              	.L12:
 355 0128 00800140 		.word	1073840128
 356              		.cfi_endproc
 357              	.LFE33:
 358              		.size	SDIO_SetPowerState, .-SDIO_SetPowerState
 359              		.align	1
 360              		.global	SDIO_GetPowerState
 361              		.syntax unified
 362              		.thumb
 363              		.thumb_func
 364              		.fpu softvfp
 365              		.type	SDIO_GetPowerState, %function
 366              	SDIO_GetPowerState:
ARM GAS  G:\Users\Jaxb\AppData\Local\Temp\cc02ucHi.s 			page 12


 367              	.LFB34:
 259:../../source/src/FWlib/src/stm32f10x_sdio.c **** 
 260:../../source/src/FWlib/src/stm32f10x_sdio.c **** /**
 261:../../source/src/FWlib/src/stm32f10x_sdio.c ****   * @brief  Gets the power status of the controller.
 262:../../source/src/FWlib/src/stm32f10x_sdio.c ****   * @param  None
 263:../../source/src/FWlib/src/stm32f10x_sdio.c ****   * @retval Power status of the controller. The returned value can
 264:../../source/src/FWlib/src/stm32f10x_sdio.c ****   *   be one of the following:
 265:../../source/src/FWlib/src/stm32f10x_sdio.c ****   * - 0x00: Power OFF
 266:../../source/src/FWlib/src/stm32f10x_sdio.c ****   * - 0x02: Power UP
 267:../../source/src/FWlib/src/stm32f10x_sdio.c ****   * - 0x03: Power ON 
 268:../../source/src/FWlib/src/stm32f10x_sdio.c ****   */
 269:../../source/src/FWlib/src/stm32f10x_sdio.c **** uint32_t SDIO_GetPowerState(void)
 270:../../source/src/FWlib/src/stm32f10x_sdio.c **** {
 368              		.loc 1 270 0
 369              		.cfi_startproc
 370              		@ args = 0, pretend = 0, frame = 0
 371              		@ frame_needed = 1, uses_anonymous_args = 0
 372              		@ link register save eliminated.
 373 012c 80B4     		push	{r7}
 374              	.LCFI28:
 375              		.cfi_def_cfa_offset 4
 376              		.cfi_offset 7, -4
 377 012e 00AF     		add	r7, sp, #0
 378              	.LCFI29:
 379              		.cfi_def_cfa_register 7
 271:../../source/src/FWlib/src/stm32f10x_sdio.c ****   return (SDIO->POWER & (~PWR_PWRCTRL_MASK));
 380              		.loc 1 271 0
 381 0130 034B     		ldr	r3, .L16
 382 0132 1B68     		ldr	r3, [r3]
 383 0134 03F00303 		and	r3, r3, #3
 272:../../source/src/FWlib/src/stm32f10x_sdio.c **** }
 384              		.loc 1 272 0
 385 0138 1846     		mov	r0, r3
 386 013a BD46     		mov	sp, r7
 387              	.LCFI30:
 388              		.cfi_def_cfa_register 13
 389              		@ sp needed
 390 013c 80BC     		pop	{r7}
 391              	.LCFI31:
 392              		.cfi_restore 7
 393              		.cfi_def_cfa_offset 0
 394 013e 7047     		bx	lr
 395              	.L17:
 396              		.align	2
 397              	.L16:
 398 0140 00800140 		.word	1073840128
 399              		.cfi_endproc
 400              	.LFE34:
 401              		.size	SDIO_GetPowerState, .-SDIO_GetPowerState
 402              		.align	1
 403              		.global	SDIO_ITConfig
 404              		.syntax unified
 405              		.thumb
 406              		.thumb_func
 407              		.fpu softvfp
 408              		.type	SDIO_ITConfig, %function
 409              	SDIO_ITConfig:
ARM GAS  G:\Users\Jaxb\AppData\Local\Temp\cc02ucHi.s 			page 13


 410              	.LFB35:
 273:../../source/src/FWlib/src/stm32f10x_sdio.c **** 
 274:../../source/src/FWlib/src/stm32f10x_sdio.c **** /**
 275:../../source/src/FWlib/src/stm32f10x_sdio.c ****   * @brief  Enables or disables the SDIO interrupts.
 276:../../source/src/FWlib/src/stm32f10x_sdio.c ****   * @param  SDIO_IT: specifies the SDIO interrupt sources to be enabled or disabled.
 277:../../source/src/FWlib/src/stm32f10x_sdio.c ****   *   This parameter can be one or a combination of the following values:
 278:../../source/src/FWlib/src/stm32f10x_sdio.c ****   *     @arg SDIO_IT_CCRCFAIL: Command response received (CRC check failed) interrupt
 279:../../source/src/FWlib/src/stm32f10x_sdio.c ****   *     @arg SDIO_IT_DCRCFAIL: Data block sent/received (CRC check failed) interrupt
 280:../../source/src/FWlib/src/stm32f10x_sdio.c ****   *     @arg SDIO_IT_CTIMEOUT: Command response timeout interrupt
 281:../../source/src/FWlib/src/stm32f10x_sdio.c ****   *     @arg SDIO_IT_DTIMEOUT: Data timeout interrupt
 282:../../source/src/FWlib/src/stm32f10x_sdio.c ****   *     @arg SDIO_IT_TXUNDERR: Transmit FIFO underrun error interrupt
 283:../../source/src/FWlib/src/stm32f10x_sdio.c ****   *     @arg SDIO_IT_RXOVERR:  Received FIFO overrun error interrupt
 284:../../source/src/FWlib/src/stm32f10x_sdio.c ****   *     @arg SDIO_IT_CMDREND:  Command response received (CRC check passed) interrupt
 285:../../source/src/FWlib/src/stm32f10x_sdio.c ****   *     @arg SDIO_IT_CMDSENT:  Command sent (no response required) interrupt
 286:../../source/src/FWlib/src/stm32f10x_sdio.c ****   *     @arg SDIO_IT_DATAEND:  Data end (data counter, SDIDCOUNT, is zero) interrupt
 287:../../source/src/FWlib/src/stm32f10x_sdio.c ****   *     @arg SDIO_IT_STBITERR: Start bit not detected on all data signals in wide 
 288:../../source/src/FWlib/src/stm32f10x_sdio.c ****   *                            bus mode interrupt
 289:../../source/src/FWlib/src/stm32f10x_sdio.c ****   *     @arg SDIO_IT_DBCKEND:  Data block sent/received (CRC check passed) interrupt
 290:../../source/src/FWlib/src/stm32f10x_sdio.c ****   *     @arg SDIO_IT_CMDACT:   Command transfer in progress interrupt
 291:../../source/src/FWlib/src/stm32f10x_sdio.c ****   *     @arg SDIO_IT_TXACT:    Data transmit in progress interrupt
 292:../../source/src/FWlib/src/stm32f10x_sdio.c ****   *     @arg SDIO_IT_RXACT:    Data receive in progress interrupt
 293:../../source/src/FWlib/src/stm32f10x_sdio.c ****   *     @arg SDIO_IT_TXFIFOHE: Transmit FIFO Half Empty interrupt
 294:../../source/src/FWlib/src/stm32f10x_sdio.c ****   *     @arg SDIO_IT_RXFIFOHF: Receive FIFO Half Full interrupt
 295:../../source/src/FWlib/src/stm32f10x_sdio.c ****   *     @arg SDIO_IT_TXFIFOF:  Transmit FIFO full interrupt
 296:../../source/src/FWlib/src/stm32f10x_sdio.c ****   *     @arg SDIO_IT_RXFIFOF:  Receive FIFO full interrupt
 297:../../source/src/FWlib/src/stm32f10x_sdio.c ****   *     @arg SDIO_IT_TXFIFOE:  Transmit FIFO empty interrupt
 298:../../source/src/FWlib/src/stm32f10x_sdio.c ****   *     @arg SDIO_IT_RXFIFOE:  Receive FIFO empty interrupt
 299:../../source/src/FWlib/src/stm32f10x_sdio.c ****   *     @arg SDIO_IT_TXDAVL:   Data available in transmit FIFO interrupt
 300:../../source/src/FWlib/src/stm32f10x_sdio.c ****   *     @arg SDIO_IT_RXDAVL:   Data available in receive FIFO interrupt
 301:../../source/src/FWlib/src/stm32f10x_sdio.c ****   *     @arg SDIO_IT_SDIOIT:   SD I/O interrupt received interrupt
 302:../../source/src/FWlib/src/stm32f10x_sdio.c ****   *     @arg SDIO_IT_CEATAEND: CE-ATA command completion signal received for CMD61 interrupt
 303:../../source/src/FWlib/src/stm32f10x_sdio.c ****   * @param  NewState: new state of the specified SDIO interrupts.
 304:../../source/src/FWlib/src/stm32f10x_sdio.c ****   *   This parameter can be: ENABLE or DISABLE.
 305:../../source/src/FWlib/src/stm32f10x_sdio.c ****   * @retval None 
 306:../../source/src/FWlib/src/stm32f10x_sdio.c ****   */
 307:../../source/src/FWlib/src/stm32f10x_sdio.c **** void SDIO_ITConfig(uint32_t SDIO_IT, FunctionalState NewState)
 308:../../source/src/FWlib/src/stm32f10x_sdio.c **** {
 411              		.loc 1 308 0
 412              		.cfi_startproc
 413              		@ args = 0, pretend = 0, frame = 8
 414              		@ frame_needed = 1, uses_anonymous_args = 0
 415              		@ link register save eliminated.
 416 0144 80B4     		push	{r7}
 417              	.LCFI32:
 418              		.cfi_def_cfa_offset 4
 419              		.cfi_offset 7, -4
 420 0146 83B0     		sub	sp, sp, #12
 421              	.LCFI33:
 422              		.cfi_def_cfa_offset 16
 423 0148 00AF     		add	r7, sp, #0
 424              	.LCFI34:
 425              		.cfi_def_cfa_register 7
 426 014a 7860     		str	r0, [r7, #4]
 427 014c 0B46     		mov	r3, r1
 428 014e FB70     		strb	r3, [r7, #3]
 309:../../source/src/FWlib/src/stm32f10x_sdio.c ****   /* Check the parameters */
 310:../../source/src/FWlib/src/stm32f10x_sdio.c ****   assert_param(IS_SDIO_IT(SDIO_IT));
ARM GAS  G:\Users\Jaxb\AppData\Local\Temp\cc02ucHi.s 			page 14


 311:../../source/src/FWlib/src/stm32f10x_sdio.c ****   assert_param(IS_FUNCTIONAL_STATE(NewState));
 312:../../source/src/FWlib/src/stm32f10x_sdio.c ****   
 313:../../source/src/FWlib/src/stm32f10x_sdio.c ****   if (NewState != DISABLE)
 429              		.loc 1 313 0
 430 0150 FB78     		ldrb	r3, [r7, #3]	@ zero_extendqisi2
 431 0152 002B     		cmp	r3, #0
 432 0154 06D0     		beq	.L19
 314:../../source/src/FWlib/src/stm32f10x_sdio.c ****   {
 315:../../source/src/FWlib/src/stm32f10x_sdio.c ****     /* Enable the SDIO interrupts */
 316:../../source/src/FWlib/src/stm32f10x_sdio.c ****     SDIO->MASK |= SDIO_IT;
 433              		.loc 1 316 0
 434 0156 094B     		ldr	r3, .L22
 435 0158 DA6B     		ldr	r2, [r3, #60]
 436 015a 0849     		ldr	r1, .L22
 437 015c 7B68     		ldr	r3, [r7, #4]
 438 015e 1343     		orrs	r3, r3, r2
 439 0160 CB63     		str	r3, [r1, #60]
 317:../../source/src/FWlib/src/stm32f10x_sdio.c ****   }
 318:../../source/src/FWlib/src/stm32f10x_sdio.c ****   else
 319:../../source/src/FWlib/src/stm32f10x_sdio.c ****   {
 320:../../source/src/FWlib/src/stm32f10x_sdio.c ****     /* Disable the SDIO interrupts */
 321:../../source/src/FWlib/src/stm32f10x_sdio.c ****     SDIO->MASK &= ~SDIO_IT;
 322:../../source/src/FWlib/src/stm32f10x_sdio.c ****   } 
 323:../../source/src/FWlib/src/stm32f10x_sdio.c **** }
 440              		.loc 1 323 0
 441 0162 06E0     		b	.L21
 442              	.L19:
 321:../../source/src/FWlib/src/stm32f10x_sdio.c ****   } 
 443              		.loc 1 321 0
 444 0164 054B     		ldr	r3, .L22
 445 0166 DA6B     		ldr	r2, [r3, #60]
 446 0168 7B68     		ldr	r3, [r7, #4]
 447 016a DB43     		mvns	r3, r3
 448 016c 0349     		ldr	r1, .L22
 449 016e 1340     		ands	r3, r3, r2
 450 0170 CB63     		str	r3, [r1, #60]
 451              	.L21:
 452              		.loc 1 323 0
 453 0172 00BF     		nop
 454 0174 0C37     		adds	r7, r7, #12
 455              	.LCFI35:
 456              		.cfi_def_cfa_offset 4
 457 0176 BD46     		mov	sp, r7
 458              	.LCFI36:
 459              		.cfi_def_cfa_register 13
 460              		@ sp needed
 461 0178 80BC     		pop	{r7}
 462              	.LCFI37:
 463              		.cfi_restore 7
 464              		.cfi_def_cfa_offset 0
 465 017a 7047     		bx	lr
 466              	.L23:
 467              		.align	2
 468              	.L22:
 469 017c 00800140 		.word	1073840128
 470              		.cfi_endproc
 471              	.LFE35:
ARM GAS  G:\Users\Jaxb\AppData\Local\Temp\cc02ucHi.s 			page 15


 472              		.size	SDIO_ITConfig, .-SDIO_ITConfig
 473              		.align	1
 474              		.global	SDIO_DMACmd
 475              		.syntax unified
 476              		.thumb
 477              		.thumb_func
 478              		.fpu softvfp
 479              		.type	SDIO_DMACmd, %function
 480              	SDIO_DMACmd:
 481              	.LFB36:
 324:../../source/src/FWlib/src/stm32f10x_sdio.c **** 
 325:../../source/src/FWlib/src/stm32f10x_sdio.c **** /**
 326:../../source/src/FWlib/src/stm32f10x_sdio.c ****   * @brief  Enables or disables the SDIO DMA request.
 327:../../source/src/FWlib/src/stm32f10x_sdio.c ****   * @param  NewState: new state of the selected SDIO DMA request.
 328:../../source/src/FWlib/src/stm32f10x_sdio.c ****   *   This parameter can be: ENABLE or DISABLE.
 329:../../source/src/FWlib/src/stm32f10x_sdio.c ****   * @retval None
 330:../../source/src/FWlib/src/stm32f10x_sdio.c ****   */
 331:../../source/src/FWlib/src/stm32f10x_sdio.c **** void SDIO_DMACmd(FunctionalState NewState)
 332:../../source/src/FWlib/src/stm32f10x_sdio.c **** {
 482              		.loc 1 332 0
 483              		.cfi_startproc
 484              		@ args = 0, pretend = 0, frame = 8
 485              		@ frame_needed = 1, uses_anonymous_args = 0
 486              		@ link register save eliminated.
 487 0180 80B4     		push	{r7}
 488              	.LCFI38:
 489              		.cfi_def_cfa_offset 4
 490              		.cfi_offset 7, -4
 491 0182 83B0     		sub	sp, sp, #12
 492              	.LCFI39:
 493              		.cfi_def_cfa_offset 16
 494 0184 00AF     		add	r7, sp, #0
 495              	.LCFI40:
 496              		.cfi_def_cfa_register 7
 497 0186 0346     		mov	r3, r0
 498 0188 FB71     		strb	r3, [r7, #7]
 333:../../source/src/FWlib/src/stm32f10x_sdio.c ****   /* Check the parameters */
 334:../../source/src/FWlib/src/stm32f10x_sdio.c ****   assert_param(IS_FUNCTIONAL_STATE(NewState));
 335:../../source/src/FWlib/src/stm32f10x_sdio.c ****   
 336:../../source/src/FWlib/src/stm32f10x_sdio.c ****   *(__IO uint32_t *) DCTRL_DMAEN_BB = (uint32_t)NewState;
 499              		.loc 1 336 0
 500 018a 044A     		ldr	r2, .L25
 501 018c FB79     		ldrb	r3, [r7, #7]	@ zero_extendqisi2
 502 018e 1360     		str	r3, [r2]
 337:../../source/src/FWlib/src/stm32f10x_sdio.c **** }
 503              		.loc 1 337 0
 504 0190 00BF     		nop
 505 0192 0C37     		adds	r7, r7, #12
 506              	.LCFI41:
 507              		.cfi_def_cfa_offset 4
 508 0194 BD46     		mov	sp, r7
 509              	.LCFI42:
 510              		.cfi_def_cfa_register 13
 511              		@ sp needed
 512 0196 80BC     		pop	{r7}
 513              	.LCFI43:
 514              		.cfi_restore 7
ARM GAS  G:\Users\Jaxb\AppData\Local\Temp\cc02ucHi.s 			page 16


 515              		.cfi_def_cfa_offset 0
 516 0198 7047     		bx	lr
 517              	.L26:
 518 019a 00BF     		.align	2
 519              	.L25:
 520 019c 8C053042 		.word	1110443404
 521              		.cfi_endproc
 522              	.LFE36:
 523              		.size	SDIO_DMACmd, .-SDIO_DMACmd
 524              		.align	1
 525              		.global	SDIO_SendCommand
 526              		.syntax unified
 527              		.thumb
 528              		.thumb_func
 529              		.fpu softvfp
 530              		.type	SDIO_SendCommand, %function
 531              	SDIO_SendCommand:
 532              	.LFB37:
 338:../../source/src/FWlib/src/stm32f10x_sdio.c **** 
 339:../../source/src/FWlib/src/stm32f10x_sdio.c **** /**
 340:../../source/src/FWlib/src/stm32f10x_sdio.c ****   * @brief  Initializes the SDIO Command according to the specified 
 341:../../source/src/FWlib/src/stm32f10x_sdio.c ****   *         parameters in the SDIO_CmdInitStruct and send the command.
 342:../../source/src/FWlib/src/stm32f10x_sdio.c ****   * @param  SDIO_CmdInitStruct : pointer to a SDIO_CmdInitTypeDef 
 343:../../source/src/FWlib/src/stm32f10x_sdio.c ****   *         structure that contains the configuration information for the SDIO command.
 344:../../source/src/FWlib/src/stm32f10x_sdio.c ****   * @retval None
 345:../../source/src/FWlib/src/stm32f10x_sdio.c ****   */
 346:../../source/src/FWlib/src/stm32f10x_sdio.c **** void SDIO_SendCommand(SDIO_CmdInitTypeDef *SDIO_CmdInitStruct)
 347:../../source/src/FWlib/src/stm32f10x_sdio.c **** {
 533              		.loc 1 347 0
 534              		.cfi_startproc
 535              		@ args = 0, pretend = 0, frame = 16
 536              		@ frame_needed = 1, uses_anonymous_args = 0
 537              		@ link register save eliminated.
 538 01a0 80B4     		push	{r7}
 539              	.LCFI44:
 540              		.cfi_def_cfa_offset 4
 541              		.cfi_offset 7, -4
 542 01a2 85B0     		sub	sp, sp, #20
 543              	.LCFI45:
 544              		.cfi_def_cfa_offset 24
 545 01a4 00AF     		add	r7, sp, #0
 546              	.LCFI46:
 547              		.cfi_def_cfa_register 7
 548 01a6 7860     		str	r0, [r7, #4]
 348:../../source/src/FWlib/src/stm32f10x_sdio.c ****   uint32_t tmpreg = 0;
 549              		.loc 1 348 0
 550 01a8 0023     		movs	r3, #0
 551 01aa FB60     		str	r3, [r7, #12]
 349:../../source/src/FWlib/src/stm32f10x_sdio.c ****   
 350:../../source/src/FWlib/src/stm32f10x_sdio.c ****   /* Check the parameters */
 351:../../source/src/FWlib/src/stm32f10x_sdio.c ****   assert_param(IS_SDIO_CMD_INDEX(SDIO_CmdInitStruct->SDIO_CmdIndex));
 352:../../source/src/FWlib/src/stm32f10x_sdio.c ****   assert_param(IS_SDIO_RESPONSE(SDIO_CmdInitStruct->SDIO_Response));
 353:../../source/src/FWlib/src/stm32f10x_sdio.c ****   assert_param(IS_SDIO_WAIT(SDIO_CmdInitStruct->SDIO_Wait));
 354:../../source/src/FWlib/src/stm32f10x_sdio.c ****   assert_param(IS_SDIO_CPSM(SDIO_CmdInitStruct->SDIO_CPSM));
 355:../../source/src/FWlib/src/stm32f10x_sdio.c ****   
 356:../../source/src/FWlib/src/stm32f10x_sdio.c **** /*---------------------------- SDIO ARG Configuration ------------------------*/
 357:../../source/src/FWlib/src/stm32f10x_sdio.c ****   /* Set the SDIO Argument value */
ARM GAS  G:\Users\Jaxb\AppData\Local\Temp\cc02ucHi.s 			page 17


 358:../../source/src/FWlib/src/stm32f10x_sdio.c ****   SDIO->ARG = SDIO_CmdInitStruct->SDIO_Argument;
 552              		.loc 1 358 0
 553 01ac 114A     		ldr	r2, .L28
 554 01ae 7B68     		ldr	r3, [r7, #4]
 555 01b0 1B68     		ldr	r3, [r3]
 556 01b2 9360     		str	r3, [r2, #8]
 359:../../source/src/FWlib/src/stm32f10x_sdio.c ****   
 360:../../source/src/FWlib/src/stm32f10x_sdio.c **** /*---------------------------- SDIO CMD Configuration ------------------------*/  
 361:../../source/src/FWlib/src/stm32f10x_sdio.c ****   /* Get the SDIO CMD value */
 362:../../source/src/FWlib/src/stm32f10x_sdio.c ****   tmpreg = SDIO->CMD;
 557              		.loc 1 362 0
 558 01b4 0F4B     		ldr	r3, .L28
 559 01b6 DB68     		ldr	r3, [r3, #12]
 560 01b8 FB60     		str	r3, [r7, #12]
 363:../../source/src/FWlib/src/stm32f10x_sdio.c ****   /* Clear CMDINDEX, WAITRESP, WAITINT, WAITPEND, CPSMEN bits */
 364:../../source/src/FWlib/src/stm32f10x_sdio.c ****   tmpreg &= CMD_CLEAR_MASK;
 561              		.loc 1 364 0
 562 01ba FB68     		ldr	r3, [r7, #12]
 563 01bc 23F4FF63 		bic	r3, r3, #2040
 564 01c0 23F00703 		bic	r3, r3, #7
 565 01c4 FB60     		str	r3, [r7, #12]
 365:../../source/src/FWlib/src/stm32f10x_sdio.c ****   /* Set CMDINDEX bits according to SDIO_CmdIndex value */
 366:../../source/src/FWlib/src/stm32f10x_sdio.c ****   /* Set WAITRESP bits according to SDIO_Response value */
 367:../../source/src/FWlib/src/stm32f10x_sdio.c ****   /* Set WAITINT and WAITPEND bits according to SDIO_Wait value */
 368:../../source/src/FWlib/src/stm32f10x_sdio.c ****   /* Set CPSMEN bits according to SDIO_CPSM value */
 369:../../source/src/FWlib/src/stm32f10x_sdio.c ****   tmpreg |= (uint32_t)SDIO_CmdInitStruct->SDIO_CmdIndex | SDIO_CmdInitStruct->SDIO_Response
 566              		.loc 1 369 0
 567 01c6 7B68     		ldr	r3, [r7, #4]
 568 01c8 5A68     		ldr	r2, [r3, #4]
 569 01ca 7B68     		ldr	r3, [r7, #4]
 570 01cc 9B68     		ldr	r3, [r3, #8]
 571 01ce 1A43     		orrs	r2, r2, r3
 370:../../source/src/FWlib/src/stm32f10x_sdio.c ****            | SDIO_CmdInitStruct->SDIO_Wait | SDIO_CmdInitStruct->SDIO_CPSM;
 572              		.loc 1 370 0
 573 01d0 7B68     		ldr	r3, [r7, #4]
 574 01d2 DB68     		ldr	r3, [r3, #12]
 575 01d4 1A43     		orrs	r2, r2, r3
 576 01d6 7B68     		ldr	r3, [r7, #4]
 577 01d8 1B69     		ldr	r3, [r3, #16]
 578 01da 1343     		orrs	r3, r3, r2
 369:../../source/src/FWlib/src/stm32f10x_sdio.c ****            | SDIO_CmdInitStruct->SDIO_Wait | SDIO_CmdInitStruct->SDIO_CPSM;
 579              		.loc 1 369 0
 580 01dc FA68     		ldr	r2, [r7, #12]
 581 01de 1343     		orrs	r3, r3, r2
 582 01e0 FB60     		str	r3, [r7, #12]
 371:../../source/src/FWlib/src/stm32f10x_sdio.c ****   
 372:../../source/src/FWlib/src/stm32f10x_sdio.c ****   /* Write to SDIO CMD */
 373:../../source/src/FWlib/src/stm32f10x_sdio.c ****   SDIO->CMD = tmpreg;
 583              		.loc 1 373 0
 584 01e2 044A     		ldr	r2, .L28
 585 01e4 FB68     		ldr	r3, [r7, #12]
 586 01e6 D360     		str	r3, [r2, #12]
 374:../../source/src/FWlib/src/stm32f10x_sdio.c **** }
 587              		.loc 1 374 0
 588 01e8 00BF     		nop
 589 01ea 1437     		adds	r7, r7, #20
 590              	.LCFI47:
ARM GAS  G:\Users\Jaxb\AppData\Local\Temp\cc02ucHi.s 			page 18


 591              		.cfi_def_cfa_offset 4
 592 01ec BD46     		mov	sp, r7
 593              	.LCFI48:
 594              		.cfi_def_cfa_register 13
 595              		@ sp needed
 596 01ee 80BC     		pop	{r7}
 597              	.LCFI49:
 598              		.cfi_restore 7
 599              		.cfi_def_cfa_offset 0
 600 01f0 7047     		bx	lr
 601              	.L29:
 602 01f2 00BF     		.align	2
 603              	.L28:
 604 01f4 00800140 		.word	1073840128
 605              		.cfi_endproc
 606              	.LFE37:
 607              		.size	SDIO_SendCommand, .-SDIO_SendCommand
 608              		.align	1
 609              		.global	SDIO_CmdStructInit
 610              		.syntax unified
 611              		.thumb
 612              		.thumb_func
 613              		.fpu softvfp
 614              		.type	SDIO_CmdStructInit, %function
 615              	SDIO_CmdStructInit:
 616              	.LFB38:
 375:../../source/src/FWlib/src/stm32f10x_sdio.c **** 
 376:../../source/src/FWlib/src/stm32f10x_sdio.c **** /**
 377:../../source/src/FWlib/src/stm32f10x_sdio.c ****   * @brief  Fills each SDIO_CmdInitStruct member with its default value.
 378:../../source/src/FWlib/src/stm32f10x_sdio.c ****   * @param  SDIO_CmdInitStruct: pointer to an SDIO_CmdInitTypeDef 
 379:../../source/src/FWlib/src/stm32f10x_sdio.c ****   *         structure which will be initialized.
 380:../../source/src/FWlib/src/stm32f10x_sdio.c ****   * @retval None
 381:../../source/src/FWlib/src/stm32f10x_sdio.c ****   */
 382:../../source/src/FWlib/src/stm32f10x_sdio.c **** void SDIO_CmdStructInit(SDIO_CmdInitTypeDef* SDIO_CmdInitStruct)
 383:../../source/src/FWlib/src/stm32f10x_sdio.c **** {
 617              		.loc 1 383 0
 618              		.cfi_startproc
 619              		@ args = 0, pretend = 0, frame = 8
 620              		@ frame_needed = 1, uses_anonymous_args = 0
 621              		@ link register save eliminated.
 622 01f8 80B4     		push	{r7}
 623              	.LCFI50:
 624              		.cfi_def_cfa_offset 4
 625              		.cfi_offset 7, -4
 626 01fa 83B0     		sub	sp, sp, #12
 627              	.LCFI51:
 628              		.cfi_def_cfa_offset 16
 629 01fc 00AF     		add	r7, sp, #0
 630              	.LCFI52:
 631              		.cfi_def_cfa_register 7
 632 01fe 7860     		str	r0, [r7, #4]
 384:../../source/src/FWlib/src/stm32f10x_sdio.c ****   /* SDIO_CmdInitStruct members default value */
 385:../../source/src/FWlib/src/stm32f10x_sdio.c ****   SDIO_CmdInitStruct->SDIO_Argument = 0x00;
 633              		.loc 1 385 0
 634 0200 7B68     		ldr	r3, [r7, #4]
 635 0202 0022     		movs	r2, #0
 636 0204 1A60     		str	r2, [r3]
ARM GAS  G:\Users\Jaxb\AppData\Local\Temp\cc02ucHi.s 			page 19


 386:../../source/src/FWlib/src/stm32f10x_sdio.c ****   SDIO_CmdInitStruct->SDIO_CmdIndex = 0x00;
 637              		.loc 1 386 0
 638 0206 7B68     		ldr	r3, [r7, #4]
 639 0208 0022     		movs	r2, #0
 640 020a 5A60     		str	r2, [r3, #4]
 387:../../source/src/FWlib/src/stm32f10x_sdio.c ****   SDIO_CmdInitStruct->SDIO_Response = SDIO_Response_No;
 641              		.loc 1 387 0
 642 020c 7B68     		ldr	r3, [r7, #4]
 643 020e 0022     		movs	r2, #0
 644 0210 9A60     		str	r2, [r3, #8]
 388:../../source/src/FWlib/src/stm32f10x_sdio.c ****   SDIO_CmdInitStruct->SDIO_Wait = SDIO_Wait_No;
 645              		.loc 1 388 0
 646 0212 7B68     		ldr	r3, [r7, #4]
 647 0214 0022     		movs	r2, #0
 648 0216 DA60     		str	r2, [r3, #12]
 389:../../source/src/FWlib/src/stm32f10x_sdio.c ****   SDIO_CmdInitStruct->SDIO_CPSM = SDIO_CPSM_Disable;
 649              		.loc 1 389 0
 650 0218 7B68     		ldr	r3, [r7, #4]
 651 021a 0022     		movs	r2, #0
 652 021c 1A61     		str	r2, [r3, #16]
 390:../../source/src/FWlib/src/stm32f10x_sdio.c **** }
 653              		.loc 1 390 0
 654 021e 00BF     		nop
 655 0220 0C37     		adds	r7, r7, #12
 656              	.LCFI53:
 657              		.cfi_def_cfa_offset 4
 658 0222 BD46     		mov	sp, r7
 659              	.LCFI54:
 660              		.cfi_def_cfa_register 13
 661              		@ sp needed
 662 0224 80BC     		pop	{r7}
 663              	.LCFI55:
 664              		.cfi_restore 7
 665              		.cfi_def_cfa_offset 0
 666 0226 7047     		bx	lr
 667              		.cfi_endproc
 668              	.LFE38:
 669              		.size	SDIO_CmdStructInit, .-SDIO_CmdStructInit
 670              		.align	1
 671              		.global	SDIO_GetCommandResponse
 672              		.syntax unified
 673              		.thumb
 674              		.thumb_func
 675              		.fpu softvfp
 676              		.type	SDIO_GetCommandResponse, %function
 677              	SDIO_GetCommandResponse:
 678              	.LFB39:
 391:../../source/src/FWlib/src/stm32f10x_sdio.c **** 
 392:../../source/src/FWlib/src/stm32f10x_sdio.c **** /**
 393:../../source/src/FWlib/src/stm32f10x_sdio.c ****   * @brief  Returns command index of last command for which response received.
 394:../../source/src/FWlib/src/stm32f10x_sdio.c ****   * @param  None
 395:../../source/src/FWlib/src/stm32f10x_sdio.c ****   * @retval Returns the command index of the last command response received.
 396:../../source/src/FWlib/src/stm32f10x_sdio.c ****   */
 397:../../source/src/FWlib/src/stm32f10x_sdio.c **** uint8_t SDIO_GetCommandResponse(void)
 398:../../source/src/FWlib/src/stm32f10x_sdio.c **** {
 679              		.loc 1 398 0
 680              		.cfi_startproc
ARM GAS  G:\Users\Jaxb\AppData\Local\Temp\cc02ucHi.s 			page 20


 681              		@ args = 0, pretend = 0, frame = 0
 682              		@ frame_needed = 1, uses_anonymous_args = 0
 683              		@ link register save eliminated.
 684 0228 80B4     		push	{r7}
 685              	.LCFI56:
 686              		.cfi_def_cfa_offset 4
 687              		.cfi_offset 7, -4
 688 022a 00AF     		add	r7, sp, #0
 689              	.LCFI57:
 690              		.cfi_def_cfa_register 7
 399:../../source/src/FWlib/src/stm32f10x_sdio.c ****   return (uint8_t)(SDIO->RESPCMD);
 691              		.loc 1 399 0
 692 022c 034B     		ldr	r3, .L33
 693 022e 1B69     		ldr	r3, [r3, #16]
 694 0230 DBB2     		uxtb	r3, r3
 400:../../source/src/FWlib/src/stm32f10x_sdio.c **** }
 695              		.loc 1 400 0
 696 0232 1846     		mov	r0, r3
 697 0234 BD46     		mov	sp, r7
 698              	.LCFI58:
 699              		.cfi_def_cfa_register 13
 700              		@ sp needed
 701 0236 80BC     		pop	{r7}
 702              	.LCFI59:
 703              		.cfi_restore 7
 704              		.cfi_def_cfa_offset 0
 705 0238 7047     		bx	lr
 706              	.L34:
 707 023a 00BF     		.align	2
 708              	.L33:
 709 023c 00800140 		.word	1073840128
 710              		.cfi_endproc
 711              	.LFE39:
 712              		.size	SDIO_GetCommandResponse, .-SDIO_GetCommandResponse
 713              		.align	1
 714              		.global	SDIO_GetResponse
 715              		.syntax unified
 716              		.thumb
 717              		.thumb_func
 718              		.fpu softvfp
 719              		.type	SDIO_GetResponse, %function
 720              	SDIO_GetResponse:
 721              	.LFB40:
 401:../../source/src/FWlib/src/stm32f10x_sdio.c **** 
 402:../../source/src/FWlib/src/stm32f10x_sdio.c **** /**
 403:../../source/src/FWlib/src/stm32f10x_sdio.c ****   * @brief  Returns response received from the card for the last command.
 404:../../source/src/FWlib/src/stm32f10x_sdio.c ****   * @param  SDIO_RESP: Specifies the SDIO response register. 
 405:../../source/src/FWlib/src/stm32f10x_sdio.c ****   *   This parameter can be one of the following values:
 406:../../source/src/FWlib/src/stm32f10x_sdio.c ****   *     @arg SDIO_RESP1: Response Register 1
 407:../../source/src/FWlib/src/stm32f10x_sdio.c ****   *     @arg SDIO_RESP2: Response Register 2
 408:../../source/src/FWlib/src/stm32f10x_sdio.c ****   *     @arg SDIO_RESP3: Response Register 3
 409:../../source/src/FWlib/src/stm32f10x_sdio.c ****   *     @arg SDIO_RESP4: Response Register 4
 410:../../source/src/FWlib/src/stm32f10x_sdio.c ****   * @retval The Corresponding response register value.
 411:../../source/src/FWlib/src/stm32f10x_sdio.c ****   */
 412:../../source/src/FWlib/src/stm32f10x_sdio.c **** uint32_t SDIO_GetResponse(uint32_t SDIO_RESP)
 413:../../source/src/FWlib/src/stm32f10x_sdio.c **** {
 722              		.loc 1 413 0
ARM GAS  G:\Users\Jaxb\AppData\Local\Temp\cc02ucHi.s 			page 21


 723              		.cfi_startproc
 724              		@ args = 0, pretend = 0, frame = 16
 725              		@ frame_needed = 1, uses_anonymous_args = 0
 726              		@ link register save eliminated.
 727 0240 80B4     		push	{r7}
 728              	.LCFI60:
 729              		.cfi_def_cfa_offset 4
 730              		.cfi_offset 7, -4
 731 0242 85B0     		sub	sp, sp, #20
 732              	.LCFI61:
 733              		.cfi_def_cfa_offset 24
 734 0244 00AF     		add	r7, sp, #0
 735              	.LCFI62:
 736              		.cfi_def_cfa_register 7
 737 0246 7860     		str	r0, [r7, #4]
 414:../../source/src/FWlib/src/stm32f10x_sdio.c ****   __IO uint32_t tmp = 0;
 738              		.loc 1 414 0
 739 0248 0023     		movs	r3, #0
 740 024a FB60     		str	r3, [r7, #12]
 415:../../source/src/FWlib/src/stm32f10x_sdio.c **** 
 416:../../source/src/FWlib/src/stm32f10x_sdio.c ****   /* Check the parameters */
 417:../../source/src/FWlib/src/stm32f10x_sdio.c ****   assert_param(IS_SDIO_RESP(SDIO_RESP));
 418:../../source/src/FWlib/src/stm32f10x_sdio.c **** 
 419:../../source/src/FWlib/src/stm32f10x_sdio.c ****   tmp = SDIO_RESP_ADDR + SDIO_RESP;
 741              		.loc 1 419 0
 742 024c 7A68     		ldr	r2, [r7, #4]
 743 024e 054B     		ldr	r3, .L37
 744 0250 1344     		add	r3, r3, r2
 745 0252 FB60     		str	r3, [r7, #12]
 420:../../source/src/FWlib/src/stm32f10x_sdio.c ****   
 421:../../source/src/FWlib/src/stm32f10x_sdio.c ****   return (*(__IO uint32_t *) tmp); 
 746              		.loc 1 421 0
 747 0254 FB68     		ldr	r3, [r7, #12]
 748 0256 1B68     		ldr	r3, [r3]
 422:../../source/src/FWlib/src/stm32f10x_sdio.c **** }
 749              		.loc 1 422 0
 750 0258 1846     		mov	r0, r3
 751 025a 1437     		adds	r7, r7, #20
 752              	.LCFI63:
 753              		.cfi_def_cfa_offset 4
 754 025c BD46     		mov	sp, r7
 755              	.LCFI64:
 756              		.cfi_def_cfa_register 13
 757              		@ sp needed
 758 025e 80BC     		pop	{r7}
 759              	.LCFI65:
 760              		.cfi_restore 7
 761              		.cfi_def_cfa_offset 0
 762 0260 7047     		bx	lr
 763              	.L38:
 764 0262 00BF     		.align	2
 765              	.L37:
 766 0264 14800140 		.word	1073840148
 767              		.cfi_endproc
 768              	.LFE40:
 769              		.size	SDIO_GetResponse, .-SDIO_GetResponse
 770              		.align	1
ARM GAS  G:\Users\Jaxb\AppData\Local\Temp\cc02ucHi.s 			page 22


 771              		.global	SDIO_DataConfig
 772              		.syntax unified
 773              		.thumb
 774              		.thumb_func
 775              		.fpu softvfp
 776              		.type	SDIO_DataConfig, %function
 777              	SDIO_DataConfig:
 778              	.LFB41:
 423:../../source/src/FWlib/src/stm32f10x_sdio.c **** 
 424:../../source/src/FWlib/src/stm32f10x_sdio.c **** /**
 425:../../source/src/FWlib/src/stm32f10x_sdio.c ****   * @brief  Initializes the SDIO data path according to the specified 
 426:../../source/src/FWlib/src/stm32f10x_sdio.c ****   *   parameters in the SDIO_DataInitStruct.
 427:../../source/src/FWlib/src/stm32f10x_sdio.c ****   * @param  SDIO_DataInitStruct : pointer to a SDIO_DataInitTypeDef structure that
 428:../../source/src/FWlib/src/stm32f10x_sdio.c ****   *   contains the configuration information for the SDIO command.
 429:../../source/src/FWlib/src/stm32f10x_sdio.c ****   * @retval None
 430:../../source/src/FWlib/src/stm32f10x_sdio.c ****   */
 431:../../source/src/FWlib/src/stm32f10x_sdio.c **** void SDIO_DataConfig(SDIO_DataInitTypeDef* SDIO_DataInitStruct)
 432:../../source/src/FWlib/src/stm32f10x_sdio.c **** {
 779              		.loc 1 432 0
 780              		.cfi_startproc
 781              		@ args = 0, pretend = 0, frame = 16
 782              		@ frame_needed = 1, uses_anonymous_args = 0
 783              		@ link register save eliminated.
 784 0268 80B4     		push	{r7}
 785              	.LCFI66:
 786              		.cfi_def_cfa_offset 4
 787              		.cfi_offset 7, -4
 788 026a 85B0     		sub	sp, sp, #20
 789              	.LCFI67:
 790              		.cfi_def_cfa_offset 24
 791 026c 00AF     		add	r7, sp, #0
 792              	.LCFI68:
 793              		.cfi_def_cfa_register 7
 794 026e 7860     		str	r0, [r7, #4]
 433:../../source/src/FWlib/src/stm32f10x_sdio.c ****   uint32_t tmpreg = 0;
 795              		.loc 1 433 0
 796 0270 0023     		movs	r3, #0
 797 0272 FB60     		str	r3, [r7, #12]
 434:../../source/src/FWlib/src/stm32f10x_sdio.c ****   
 435:../../source/src/FWlib/src/stm32f10x_sdio.c ****   /* Check the parameters */
 436:../../source/src/FWlib/src/stm32f10x_sdio.c ****   assert_param(IS_SDIO_DATA_LENGTH(SDIO_DataInitStruct->SDIO_DataLength));
 437:../../source/src/FWlib/src/stm32f10x_sdio.c ****   assert_param(IS_SDIO_BLOCK_SIZE(SDIO_DataInitStruct->SDIO_DataBlockSize));
 438:../../source/src/FWlib/src/stm32f10x_sdio.c ****   assert_param(IS_SDIO_TRANSFER_DIR(SDIO_DataInitStruct->SDIO_TransferDir));
 439:../../source/src/FWlib/src/stm32f10x_sdio.c ****   assert_param(IS_SDIO_TRANSFER_MODE(SDIO_DataInitStruct->SDIO_TransferMode));
 440:../../source/src/FWlib/src/stm32f10x_sdio.c ****   assert_param(IS_SDIO_DPSM(SDIO_DataInitStruct->SDIO_DPSM));
 441:../../source/src/FWlib/src/stm32f10x_sdio.c **** 
 442:../../source/src/FWlib/src/stm32f10x_sdio.c **** /*---------------------------- SDIO DTIMER Configuration ---------------------*/
 443:../../source/src/FWlib/src/stm32f10x_sdio.c ****   /* Set the SDIO Data TimeOut value */
 444:../../source/src/FWlib/src/stm32f10x_sdio.c ****   SDIO->DTIMER = SDIO_DataInitStruct->SDIO_DataTimeOut;
 798              		.loc 1 444 0
 799 0274 124A     		ldr	r2, .L40
 800 0276 7B68     		ldr	r3, [r7, #4]
 801 0278 1B68     		ldr	r3, [r3]
 802 027a 5362     		str	r3, [r2, #36]
 445:../../source/src/FWlib/src/stm32f10x_sdio.c **** 
 446:../../source/src/FWlib/src/stm32f10x_sdio.c **** /*---------------------------- SDIO DLEN Configuration -----------------------*/
 447:../../source/src/FWlib/src/stm32f10x_sdio.c ****   /* Set the SDIO DataLength value */
ARM GAS  G:\Users\Jaxb\AppData\Local\Temp\cc02ucHi.s 			page 23


 448:../../source/src/FWlib/src/stm32f10x_sdio.c ****   SDIO->DLEN = SDIO_DataInitStruct->SDIO_DataLength;
 803              		.loc 1 448 0
 804 027c 104A     		ldr	r2, .L40
 805 027e 7B68     		ldr	r3, [r7, #4]
 806 0280 5B68     		ldr	r3, [r3, #4]
 807 0282 9362     		str	r3, [r2, #40]
 449:../../source/src/FWlib/src/stm32f10x_sdio.c **** 
 450:../../source/src/FWlib/src/stm32f10x_sdio.c **** /*---------------------------- SDIO DCTRL Configuration ----------------------*/  
 451:../../source/src/FWlib/src/stm32f10x_sdio.c ****   /* Get the SDIO DCTRL value */
 452:../../source/src/FWlib/src/stm32f10x_sdio.c ****   tmpreg = SDIO->DCTRL;
 808              		.loc 1 452 0
 809 0284 0E4B     		ldr	r3, .L40
 810 0286 DB6A     		ldr	r3, [r3, #44]
 811 0288 FB60     		str	r3, [r7, #12]
 453:../../source/src/FWlib/src/stm32f10x_sdio.c ****   /* Clear DEN, DTMODE, DTDIR and DBCKSIZE bits */
 454:../../source/src/FWlib/src/stm32f10x_sdio.c ****   tmpreg &= DCTRL_CLEAR_MASK;
 812              		.loc 1 454 0
 813 028a FB68     		ldr	r3, [r7, #12]
 814 028c 23F0F703 		bic	r3, r3, #247
 815 0290 FB60     		str	r3, [r7, #12]
 455:../../source/src/FWlib/src/stm32f10x_sdio.c ****   /* Set DEN bit according to SDIO_DPSM value */
 456:../../source/src/FWlib/src/stm32f10x_sdio.c ****   /* Set DTMODE bit according to SDIO_TransferMode value */
 457:../../source/src/FWlib/src/stm32f10x_sdio.c ****   /* Set DTDIR bit according to SDIO_TransferDir value */
 458:../../source/src/FWlib/src/stm32f10x_sdio.c ****   /* Set DBCKSIZE bits according to SDIO_DataBlockSize value */
 459:../../source/src/FWlib/src/stm32f10x_sdio.c ****   tmpreg |= (uint32_t)SDIO_DataInitStruct->SDIO_DataBlockSize | SDIO_DataInitStruct->SDIO_TransferD
 816              		.loc 1 459 0
 817 0292 7B68     		ldr	r3, [r7, #4]
 818 0294 9A68     		ldr	r2, [r3, #8]
 819 0296 7B68     		ldr	r3, [r7, #4]
 820 0298 DB68     		ldr	r3, [r3, #12]
 821 029a 1A43     		orrs	r2, r2, r3
 460:../../source/src/FWlib/src/stm32f10x_sdio.c ****            | SDIO_DataInitStruct->SDIO_TransferMode | SDIO_DataInitStruct->SDIO_DPSM;
 822              		.loc 1 460 0
 823 029c 7B68     		ldr	r3, [r7, #4]
 824 029e 1B69     		ldr	r3, [r3, #16]
 825 02a0 1A43     		orrs	r2, r2, r3
 826 02a2 7B68     		ldr	r3, [r7, #4]
 827 02a4 5B69     		ldr	r3, [r3, #20]
 828 02a6 1343     		orrs	r3, r3, r2
 459:../../source/src/FWlib/src/stm32f10x_sdio.c ****            | SDIO_DataInitStruct->SDIO_TransferMode | SDIO_DataInitStruct->SDIO_DPSM;
 829              		.loc 1 459 0
 830 02a8 FA68     		ldr	r2, [r7, #12]
 831 02aa 1343     		orrs	r3, r3, r2
 832 02ac FB60     		str	r3, [r7, #12]
 461:../../source/src/FWlib/src/stm32f10x_sdio.c **** 
 462:../../source/src/FWlib/src/stm32f10x_sdio.c ****   /* Write to SDIO DCTRL */
 463:../../source/src/FWlib/src/stm32f10x_sdio.c ****   SDIO->DCTRL = tmpreg;
 833              		.loc 1 463 0
 834 02ae 044A     		ldr	r2, .L40
 835 02b0 FB68     		ldr	r3, [r7, #12]
 836 02b2 D362     		str	r3, [r2, #44]
 464:../../source/src/FWlib/src/stm32f10x_sdio.c **** }
 837              		.loc 1 464 0
 838 02b4 00BF     		nop
 839 02b6 1437     		adds	r7, r7, #20
 840              	.LCFI69:
 841              		.cfi_def_cfa_offset 4
ARM GAS  G:\Users\Jaxb\AppData\Local\Temp\cc02ucHi.s 			page 24


 842 02b8 BD46     		mov	sp, r7
 843              	.LCFI70:
 844              		.cfi_def_cfa_register 13
 845              		@ sp needed
 846 02ba 80BC     		pop	{r7}
 847              	.LCFI71:
 848              		.cfi_restore 7
 849              		.cfi_def_cfa_offset 0
 850 02bc 7047     		bx	lr
 851              	.L41:
 852 02be 00BF     		.align	2
 853              	.L40:
 854 02c0 00800140 		.word	1073840128
 855              		.cfi_endproc
 856              	.LFE41:
 857              		.size	SDIO_DataConfig, .-SDIO_DataConfig
 858              		.align	1
 859              		.global	SDIO_DataStructInit
 860              		.syntax unified
 861              		.thumb
 862              		.thumb_func
 863              		.fpu softvfp
 864              		.type	SDIO_DataStructInit, %function
 865              	SDIO_DataStructInit:
 866              	.LFB42:
 465:../../source/src/FWlib/src/stm32f10x_sdio.c **** 
 466:../../source/src/FWlib/src/stm32f10x_sdio.c **** /**
 467:../../source/src/FWlib/src/stm32f10x_sdio.c ****   * @brief  Fills each SDIO_DataInitStruct member with its default value.
 468:../../source/src/FWlib/src/stm32f10x_sdio.c ****   * @param  SDIO_DataInitStruct: pointer to an SDIO_DataInitTypeDef structure which
 469:../../source/src/FWlib/src/stm32f10x_sdio.c ****   *         will be initialized.
 470:../../source/src/FWlib/src/stm32f10x_sdio.c ****   * @retval None
 471:../../source/src/FWlib/src/stm32f10x_sdio.c ****   */
 472:../../source/src/FWlib/src/stm32f10x_sdio.c **** void SDIO_DataStructInit(SDIO_DataInitTypeDef* SDIO_DataInitStruct)
 473:../../source/src/FWlib/src/stm32f10x_sdio.c **** {
 867              		.loc 1 473 0
 868              		.cfi_startproc
 869              		@ args = 0, pretend = 0, frame = 8
 870              		@ frame_needed = 1, uses_anonymous_args = 0
 871              		@ link register save eliminated.
 872 02c4 80B4     		push	{r7}
 873              	.LCFI72:
 874              		.cfi_def_cfa_offset 4
 875              		.cfi_offset 7, -4
 876 02c6 83B0     		sub	sp, sp, #12
 877              	.LCFI73:
 878              		.cfi_def_cfa_offset 16
 879 02c8 00AF     		add	r7, sp, #0
 880              	.LCFI74:
 881              		.cfi_def_cfa_register 7
 882 02ca 7860     		str	r0, [r7, #4]
 474:../../source/src/FWlib/src/stm32f10x_sdio.c ****   /* SDIO_DataInitStruct members default value */
 475:../../source/src/FWlib/src/stm32f10x_sdio.c ****   SDIO_DataInitStruct->SDIO_DataTimeOut = 0xFFFFFFFF;
 883              		.loc 1 475 0
 884 02cc 7B68     		ldr	r3, [r7, #4]
 885 02ce 4FF0FF32 		mov	r2, #-1
 886 02d2 1A60     		str	r2, [r3]
 476:../../source/src/FWlib/src/stm32f10x_sdio.c ****   SDIO_DataInitStruct->SDIO_DataLength = 0x00;
ARM GAS  G:\Users\Jaxb\AppData\Local\Temp\cc02ucHi.s 			page 25


 887              		.loc 1 476 0
 888 02d4 7B68     		ldr	r3, [r7, #4]
 889 02d6 0022     		movs	r2, #0
 890 02d8 5A60     		str	r2, [r3, #4]
 477:../../source/src/FWlib/src/stm32f10x_sdio.c ****   SDIO_DataInitStruct->SDIO_DataBlockSize = SDIO_DataBlockSize_1b;
 891              		.loc 1 477 0
 892 02da 7B68     		ldr	r3, [r7, #4]
 893 02dc 0022     		movs	r2, #0
 894 02de 9A60     		str	r2, [r3, #8]
 478:../../source/src/FWlib/src/stm32f10x_sdio.c ****   SDIO_DataInitStruct->SDIO_TransferDir = SDIO_TransferDir_ToCard;
 895              		.loc 1 478 0
 896 02e0 7B68     		ldr	r3, [r7, #4]
 897 02e2 0022     		movs	r2, #0
 898 02e4 DA60     		str	r2, [r3, #12]
 479:../../source/src/FWlib/src/stm32f10x_sdio.c ****   SDIO_DataInitStruct->SDIO_TransferMode = SDIO_TransferMode_Block;  
 899              		.loc 1 479 0
 900 02e6 7B68     		ldr	r3, [r7, #4]
 901 02e8 0022     		movs	r2, #0
 902 02ea 1A61     		str	r2, [r3, #16]
 480:../../source/src/FWlib/src/stm32f10x_sdio.c ****   SDIO_DataInitStruct->SDIO_DPSM = SDIO_DPSM_Disable;
 903              		.loc 1 480 0
 904 02ec 7B68     		ldr	r3, [r7, #4]
 905 02ee 0022     		movs	r2, #0
 906 02f0 5A61     		str	r2, [r3, #20]
 481:../../source/src/FWlib/src/stm32f10x_sdio.c **** }
 907              		.loc 1 481 0
 908 02f2 00BF     		nop
 909 02f4 0C37     		adds	r7, r7, #12
 910              	.LCFI75:
 911              		.cfi_def_cfa_offset 4
 912 02f6 BD46     		mov	sp, r7
 913              	.LCFI76:
 914              		.cfi_def_cfa_register 13
 915              		@ sp needed
 916 02f8 80BC     		pop	{r7}
 917              	.LCFI77:
 918              		.cfi_restore 7
 919              		.cfi_def_cfa_offset 0
 920 02fa 7047     		bx	lr
 921              		.cfi_endproc
 922              	.LFE42:
 923              		.size	SDIO_DataStructInit, .-SDIO_DataStructInit
 924              		.align	1
 925              		.global	SDIO_GetDataCounter
 926              		.syntax unified
 927              		.thumb
 928              		.thumb_func
 929              		.fpu softvfp
 930              		.type	SDIO_GetDataCounter, %function
 931              	SDIO_GetDataCounter:
 932              	.LFB43:
 482:../../source/src/FWlib/src/stm32f10x_sdio.c **** 
 483:../../source/src/FWlib/src/stm32f10x_sdio.c **** /**
 484:../../source/src/FWlib/src/stm32f10x_sdio.c ****   * @brief  Returns number of remaining data bytes to be transferred.
 485:../../source/src/FWlib/src/stm32f10x_sdio.c ****   * @param  None
 486:../../source/src/FWlib/src/stm32f10x_sdio.c ****   * @retval Number of remaining data bytes to be transferred
 487:../../source/src/FWlib/src/stm32f10x_sdio.c ****   */
ARM GAS  G:\Users\Jaxb\AppData\Local\Temp\cc02ucHi.s 			page 26


 488:../../source/src/FWlib/src/stm32f10x_sdio.c **** uint32_t SDIO_GetDataCounter(void)
 489:../../source/src/FWlib/src/stm32f10x_sdio.c **** { 
 933              		.loc 1 489 0
 934              		.cfi_startproc
 935              		@ args = 0, pretend = 0, frame = 0
 936              		@ frame_needed = 1, uses_anonymous_args = 0
 937              		@ link register save eliminated.
 938 02fc 80B4     		push	{r7}
 939              	.LCFI78:
 940              		.cfi_def_cfa_offset 4
 941              		.cfi_offset 7, -4
 942 02fe 00AF     		add	r7, sp, #0
 943              	.LCFI79:
 944              		.cfi_def_cfa_register 7
 490:../../source/src/FWlib/src/stm32f10x_sdio.c ****   return SDIO->DCOUNT;
 945              		.loc 1 490 0
 946 0300 024B     		ldr	r3, .L45
 947 0302 1B6B     		ldr	r3, [r3, #48]
 491:../../source/src/FWlib/src/stm32f10x_sdio.c **** }
 948              		.loc 1 491 0
 949 0304 1846     		mov	r0, r3
 950 0306 BD46     		mov	sp, r7
 951              	.LCFI80:
 952              		.cfi_def_cfa_register 13
 953              		@ sp needed
 954 0308 80BC     		pop	{r7}
 955              	.LCFI81:
 956              		.cfi_restore 7
 957              		.cfi_def_cfa_offset 0
 958 030a 7047     		bx	lr
 959              	.L46:
 960              		.align	2
 961              	.L45:
 962 030c 00800140 		.word	1073840128
 963              		.cfi_endproc
 964              	.LFE43:
 965              		.size	SDIO_GetDataCounter, .-SDIO_GetDataCounter
 966              		.align	1
 967              		.global	SDIO_ReadData
 968              		.syntax unified
 969              		.thumb
 970              		.thumb_func
 971              		.fpu softvfp
 972              		.type	SDIO_ReadData, %function
 973              	SDIO_ReadData:
 974              	.LFB44:
 492:../../source/src/FWlib/src/stm32f10x_sdio.c **** 
 493:../../source/src/FWlib/src/stm32f10x_sdio.c **** /**
 494:../../source/src/FWlib/src/stm32f10x_sdio.c ****   * @brief  Read one data word from Rx FIFO.
 495:../../source/src/FWlib/src/stm32f10x_sdio.c ****   * @param  None
 496:../../source/src/FWlib/src/stm32f10x_sdio.c ****   * @retval Data received
 497:../../source/src/FWlib/src/stm32f10x_sdio.c ****   */
 498:../../source/src/FWlib/src/stm32f10x_sdio.c **** uint32_t SDIO_ReadData(void)
 499:../../source/src/FWlib/src/stm32f10x_sdio.c **** { 
 975              		.loc 1 499 0
 976              		.cfi_startproc
 977              		@ args = 0, pretend = 0, frame = 0
ARM GAS  G:\Users\Jaxb\AppData\Local\Temp\cc02ucHi.s 			page 27


 978              		@ frame_needed = 1, uses_anonymous_args = 0
 979              		@ link register save eliminated.
 980 0310 80B4     		push	{r7}
 981              	.LCFI82:
 982              		.cfi_def_cfa_offset 4
 983              		.cfi_offset 7, -4
 984 0312 00AF     		add	r7, sp, #0
 985              	.LCFI83:
 986              		.cfi_def_cfa_register 7
 500:../../source/src/FWlib/src/stm32f10x_sdio.c ****   return SDIO->FIFO;
 987              		.loc 1 500 0
 988 0314 034B     		ldr	r3, .L49
 989 0316 D3F88030 		ldr	r3, [r3, #128]
 501:../../source/src/FWlib/src/stm32f10x_sdio.c **** }
 990              		.loc 1 501 0
 991 031a 1846     		mov	r0, r3
 992 031c BD46     		mov	sp, r7
 993              	.LCFI84:
 994              		.cfi_def_cfa_register 13
 995              		@ sp needed
 996 031e 80BC     		pop	{r7}
 997              	.LCFI85:
 998              		.cfi_restore 7
 999              		.cfi_def_cfa_offset 0
 1000 0320 7047     		bx	lr
 1001              	.L50:
 1002 0322 00BF     		.align	2
 1003              	.L49:
 1004 0324 00800140 		.word	1073840128
 1005              		.cfi_endproc
 1006              	.LFE44:
 1007              		.size	SDIO_ReadData, .-SDIO_ReadData
 1008              		.align	1
 1009              		.global	SDIO_WriteData
 1010              		.syntax unified
 1011              		.thumb
 1012              		.thumb_func
 1013              		.fpu softvfp
 1014              		.type	SDIO_WriteData, %function
 1015              	SDIO_WriteData:
 1016              	.LFB45:
 502:../../source/src/FWlib/src/stm32f10x_sdio.c **** 
 503:../../source/src/FWlib/src/stm32f10x_sdio.c **** /**
 504:../../source/src/FWlib/src/stm32f10x_sdio.c ****   * @brief  Write one data word to Tx FIFO.
 505:../../source/src/FWlib/src/stm32f10x_sdio.c ****   * @param  Data: 32-bit data word to write.
 506:../../source/src/FWlib/src/stm32f10x_sdio.c ****   * @retval None
 507:../../source/src/FWlib/src/stm32f10x_sdio.c ****   */
 508:../../source/src/FWlib/src/stm32f10x_sdio.c **** void SDIO_WriteData(uint32_t Data)
 509:../../source/src/FWlib/src/stm32f10x_sdio.c **** { 
 1017              		.loc 1 509 0
 1018              		.cfi_startproc
 1019              		@ args = 0, pretend = 0, frame = 8
 1020              		@ frame_needed = 1, uses_anonymous_args = 0
 1021              		@ link register save eliminated.
 1022 0328 80B4     		push	{r7}
 1023              	.LCFI86:
 1024              		.cfi_def_cfa_offset 4
ARM GAS  G:\Users\Jaxb\AppData\Local\Temp\cc02ucHi.s 			page 28


 1025              		.cfi_offset 7, -4
 1026 032a 83B0     		sub	sp, sp, #12
 1027              	.LCFI87:
 1028              		.cfi_def_cfa_offset 16
 1029 032c 00AF     		add	r7, sp, #0
 1030              	.LCFI88:
 1031              		.cfi_def_cfa_register 7
 1032 032e 7860     		str	r0, [r7, #4]
 510:../../source/src/FWlib/src/stm32f10x_sdio.c ****   SDIO->FIFO = Data;
 1033              		.loc 1 510 0
 1034 0330 044A     		ldr	r2, .L52
 1035 0332 7B68     		ldr	r3, [r7, #4]
 1036 0334 C2F88030 		str	r3, [r2, #128]
 511:../../source/src/FWlib/src/stm32f10x_sdio.c **** }
 1037              		.loc 1 511 0
 1038 0338 00BF     		nop
 1039 033a 0C37     		adds	r7, r7, #12
 1040              	.LCFI89:
 1041              		.cfi_def_cfa_offset 4
 1042 033c BD46     		mov	sp, r7
 1043              	.LCFI90:
 1044              		.cfi_def_cfa_register 13
 1045              		@ sp needed
 1046 033e 80BC     		pop	{r7}
 1047              	.LCFI91:
 1048              		.cfi_restore 7
 1049              		.cfi_def_cfa_offset 0
 1050 0340 7047     		bx	lr
 1051              	.L53:
 1052 0342 00BF     		.align	2
 1053              	.L52:
 1054 0344 00800140 		.word	1073840128
 1055              		.cfi_endproc
 1056              	.LFE45:
 1057              		.size	SDIO_WriteData, .-SDIO_WriteData
 1058              		.align	1
 1059              		.global	SDIO_GetFIFOCount
 1060              		.syntax unified
 1061              		.thumb
 1062              		.thumb_func
 1063              		.fpu softvfp
 1064              		.type	SDIO_GetFIFOCount, %function
 1065              	SDIO_GetFIFOCount:
 1066              	.LFB46:
 512:../../source/src/FWlib/src/stm32f10x_sdio.c **** 
 513:../../source/src/FWlib/src/stm32f10x_sdio.c **** /**
 514:../../source/src/FWlib/src/stm32f10x_sdio.c ****   * @brief  Returns the number of words left to be written to or read from FIFO.	
 515:../../source/src/FWlib/src/stm32f10x_sdio.c ****   * @param  None
 516:../../source/src/FWlib/src/stm32f10x_sdio.c ****   * @retval Remaining number of words.
 517:../../source/src/FWlib/src/stm32f10x_sdio.c ****   */
 518:../../source/src/FWlib/src/stm32f10x_sdio.c **** uint32_t SDIO_GetFIFOCount(void)
 519:../../source/src/FWlib/src/stm32f10x_sdio.c **** { 
 1067              		.loc 1 519 0
 1068              		.cfi_startproc
 1069              		@ args = 0, pretend = 0, frame = 0
 1070              		@ frame_needed = 1, uses_anonymous_args = 0
 1071              		@ link register save eliminated.
ARM GAS  G:\Users\Jaxb\AppData\Local\Temp\cc02ucHi.s 			page 29


 1072 0348 80B4     		push	{r7}
 1073              	.LCFI92:
 1074              		.cfi_def_cfa_offset 4
 1075              		.cfi_offset 7, -4
 1076 034a 00AF     		add	r7, sp, #0
 1077              	.LCFI93:
 1078              		.cfi_def_cfa_register 7
 520:../../source/src/FWlib/src/stm32f10x_sdio.c ****   return SDIO->FIFOCNT;
 1079              		.loc 1 520 0
 1080 034c 024B     		ldr	r3, .L56
 1081 034e 9B6C     		ldr	r3, [r3, #72]
 521:../../source/src/FWlib/src/stm32f10x_sdio.c **** }
 1082              		.loc 1 521 0
 1083 0350 1846     		mov	r0, r3
 1084 0352 BD46     		mov	sp, r7
 1085              	.LCFI94:
 1086              		.cfi_def_cfa_register 13
 1087              		@ sp needed
 1088 0354 80BC     		pop	{r7}
 1089              	.LCFI95:
 1090              		.cfi_restore 7
 1091              		.cfi_def_cfa_offset 0
 1092 0356 7047     		bx	lr
 1093              	.L57:
 1094              		.align	2
 1095              	.L56:
 1096 0358 00800140 		.word	1073840128
 1097              		.cfi_endproc
 1098              	.LFE46:
 1099              		.size	SDIO_GetFIFOCount, .-SDIO_GetFIFOCount
 1100              		.align	1
 1101              		.global	SDIO_StartSDIOReadWait
 1102              		.syntax unified
 1103              		.thumb
 1104              		.thumb_func
 1105              		.fpu softvfp
 1106              		.type	SDIO_StartSDIOReadWait, %function
 1107              	SDIO_StartSDIOReadWait:
 1108              	.LFB47:
 522:../../source/src/FWlib/src/stm32f10x_sdio.c **** 
 523:../../source/src/FWlib/src/stm32f10x_sdio.c **** /**
 524:../../source/src/FWlib/src/stm32f10x_sdio.c ****   * @brief  Starts the SD I/O Read Wait operation.	
 525:../../source/src/FWlib/src/stm32f10x_sdio.c ****   * @param  NewState: new state of the Start SDIO Read Wait operation. 
 526:../../source/src/FWlib/src/stm32f10x_sdio.c ****   *   This parameter can be: ENABLE or DISABLE.
 527:../../source/src/FWlib/src/stm32f10x_sdio.c ****   * @retval None
 528:../../source/src/FWlib/src/stm32f10x_sdio.c ****   */
 529:../../source/src/FWlib/src/stm32f10x_sdio.c **** void SDIO_StartSDIOReadWait(FunctionalState NewState)
 530:../../source/src/FWlib/src/stm32f10x_sdio.c **** { 
 1109              		.loc 1 530 0
 1110              		.cfi_startproc
 1111              		@ args = 0, pretend = 0, frame = 8
 1112              		@ frame_needed = 1, uses_anonymous_args = 0
 1113              		@ link register save eliminated.
 1114 035c 80B4     		push	{r7}
 1115              	.LCFI96:
 1116              		.cfi_def_cfa_offset 4
 1117              		.cfi_offset 7, -4
ARM GAS  G:\Users\Jaxb\AppData\Local\Temp\cc02ucHi.s 			page 30


 1118 035e 83B0     		sub	sp, sp, #12
 1119              	.LCFI97:
 1120              		.cfi_def_cfa_offset 16
 1121 0360 00AF     		add	r7, sp, #0
 1122              	.LCFI98:
 1123              		.cfi_def_cfa_register 7
 1124 0362 0346     		mov	r3, r0
 1125 0364 FB71     		strb	r3, [r7, #7]
 531:../../source/src/FWlib/src/stm32f10x_sdio.c ****   /* Check the parameters */
 532:../../source/src/FWlib/src/stm32f10x_sdio.c ****   assert_param(IS_FUNCTIONAL_STATE(NewState));
 533:../../source/src/FWlib/src/stm32f10x_sdio.c ****   
 534:../../source/src/FWlib/src/stm32f10x_sdio.c ****   *(__IO uint32_t *) DCTRL_RWSTART_BB = (uint32_t) NewState;
 1126              		.loc 1 534 0
 1127 0366 044A     		ldr	r2, .L59
 1128 0368 FB79     		ldrb	r3, [r7, #7]	@ zero_extendqisi2
 1129 036a 1360     		str	r3, [r2]
 535:../../source/src/FWlib/src/stm32f10x_sdio.c **** }
 1130              		.loc 1 535 0
 1131 036c 00BF     		nop
 1132 036e 0C37     		adds	r7, r7, #12
 1133              	.LCFI99:
 1134              		.cfi_def_cfa_offset 4
 1135 0370 BD46     		mov	sp, r7
 1136              	.LCFI100:
 1137              		.cfi_def_cfa_register 13
 1138              		@ sp needed
 1139 0372 80BC     		pop	{r7}
 1140              	.LCFI101:
 1141              		.cfi_restore 7
 1142              		.cfi_def_cfa_offset 0
 1143 0374 7047     		bx	lr
 1144              	.L60:
 1145 0376 00BF     		.align	2
 1146              	.L59:
 1147 0378 A0053042 		.word	1110443424
 1148              		.cfi_endproc
 1149              	.LFE47:
 1150              		.size	SDIO_StartSDIOReadWait, .-SDIO_StartSDIOReadWait
 1151              		.align	1
 1152              		.global	SDIO_StopSDIOReadWait
 1153              		.syntax unified
 1154              		.thumb
 1155              		.thumb_func
 1156              		.fpu softvfp
 1157              		.type	SDIO_StopSDIOReadWait, %function
 1158              	SDIO_StopSDIOReadWait:
 1159              	.LFB48:
 536:../../source/src/FWlib/src/stm32f10x_sdio.c **** 
 537:../../source/src/FWlib/src/stm32f10x_sdio.c **** /**
 538:../../source/src/FWlib/src/stm32f10x_sdio.c ****   * @brief  Stops the SD I/O Read Wait operation.	
 539:../../source/src/FWlib/src/stm32f10x_sdio.c ****   * @param  NewState: new state of the Stop SDIO Read Wait operation. 
 540:../../source/src/FWlib/src/stm32f10x_sdio.c ****   *   This parameter can be: ENABLE or DISABLE.
 541:../../source/src/FWlib/src/stm32f10x_sdio.c ****   * @retval None
 542:../../source/src/FWlib/src/stm32f10x_sdio.c ****   */
 543:../../source/src/FWlib/src/stm32f10x_sdio.c **** void SDIO_StopSDIOReadWait(FunctionalState NewState)
 544:../../source/src/FWlib/src/stm32f10x_sdio.c **** { 
 1160              		.loc 1 544 0
ARM GAS  G:\Users\Jaxb\AppData\Local\Temp\cc02ucHi.s 			page 31


 1161              		.cfi_startproc
 1162              		@ args = 0, pretend = 0, frame = 8
 1163              		@ frame_needed = 1, uses_anonymous_args = 0
 1164              		@ link register save eliminated.
 1165 037c 80B4     		push	{r7}
 1166              	.LCFI102:
 1167              		.cfi_def_cfa_offset 4
 1168              		.cfi_offset 7, -4
 1169 037e 83B0     		sub	sp, sp, #12
 1170              	.LCFI103:
 1171              		.cfi_def_cfa_offset 16
 1172 0380 00AF     		add	r7, sp, #0
 1173              	.LCFI104:
 1174              		.cfi_def_cfa_register 7
 1175 0382 0346     		mov	r3, r0
 1176 0384 FB71     		strb	r3, [r7, #7]
 545:../../source/src/FWlib/src/stm32f10x_sdio.c ****   /* Check the parameters */
 546:../../source/src/FWlib/src/stm32f10x_sdio.c ****   assert_param(IS_FUNCTIONAL_STATE(NewState));
 547:../../source/src/FWlib/src/stm32f10x_sdio.c ****   
 548:../../source/src/FWlib/src/stm32f10x_sdio.c ****   *(__IO uint32_t *) DCTRL_RWSTOP_BB = (uint32_t) NewState;
 1177              		.loc 1 548 0
 1178 0386 044A     		ldr	r2, .L62
 1179 0388 FB79     		ldrb	r3, [r7, #7]	@ zero_extendqisi2
 1180 038a 1360     		str	r3, [r2]
 549:../../source/src/FWlib/src/stm32f10x_sdio.c **** }
 1181              		.loc 1 549 0
 1182 038c 00BF     		nop
 1183 038e 0C37     		adds	r7, r7, #12
 1184              	.LCFI105:
 1185              		.cfi_def_cfa_offset 4
 1186 0390 BD46     		mov	sp, r7
 1187              	.LCFI106:
 1188              		.cfi_def_cfa_register 13
 1189              		@ sp needed
 1190 0392 80BC     		pop	{r7}
 1191              	.LCFI107:
 1192              		.cfi_restore 7
 1193              		.cfi_def_cfa_offset 0
 1194 0394 7047     		bx	lr
 1195              	.L63:
 1196 0396 00BF     		.align	2
 1197              	.L62:
 1198 0398 A4053042 		.word	1110443428
 1199              		.cfi_endproc
 1200              	.LFE48:
 1201              		.size	SDIO_StopSDIOReadWait, .-SDIO_StopSDIOReadWait
 1202              		.align	1
 1203              		.global	SDIO_SetSDIOReadWaitMode
 1204              		.syntax unified
 1205              		.thumb
 1206              		.thumb_func
 1207              		.fpu softvfp
 1208              		.type	SDIO_SetSDIOReadWaitMode, %function
 1209              	SDIO_SetSDIOReadWaitMode:
 1210              	.LFB49:
 550:../../source/src/FWlib/src/stm32f10x_sdio.c **** 
 551:../../source/src/FWlib/src/stm32f10x_sdio.c **** /**
ARM GAS  G:\Users\Jaxb\AppData\Local\Temp\cc02ucHi.s 			page 32


 552:../../source/src/FWlib/src/stm32f10x_sdio.c ****   * @brief  Sets one of the two options of inserting read wait interval.
 553:../../source/src/FWlib/src/stm32f10x_sdio.c ****   * @param  SDIO_ReadWaitMode: SD I/O Read Wait operation mode.
 554:../../source/src/FWlib/src/stm32f10x_sdio.c ****   *   This parameter can be:
 555:../../source/src/FWlib/src/stm32f10x_sdio.c ****   *     @arg SDIO_ReadWaitMode_CLK: Read Wait control by stopping SDIOCLK
 556:../../source/src/FWlib/src/stm32f10x_sdio.c ****   *     @arg SDIO_ReadWaitMode_DATA2: Read Wait control using SDIO_DATA2
 557:../../source/src/FWlib/src/stm32f10x_sdio.c ****   * @retval None
 558:../../source/src/FWlib/src/stm32f10x_sdio.c ****   */
 559:../../source/src/FWlib/src/stm32f10x_sdio.c **** void SDIO_SetSDIOReadWaitMode(uint32_t SDIO_ReadWaitMode)
 560:../../source/src/FWlib/src/stm32f10x_sdio.c **** {
 1211              		.loc 1 560 0
 1212              		.cfi_startproc
 1213              		@ args = 0, pretend = 0, frame = 8
 1214              		@ frame_needed = 1, uses_anonymous_args = 0
 1215              		@ link register save eliminated.
 1216 039c 80B4     		push	{r7}
 1217              	.LCFI108:
 1218              		.cfi_def_cfa_offset 4
 1219              		.cfi_offset 7, -4
 1220 039e 83B0     		sub	sp, sp, #12
 1221              	.LCFI109:
 1222              		.cfi_def_cfa_offset 16
 1223 03a0 00AF     		add	r7, sp, #0
 1224              	.LCFI110:
 1225              		.cfi_def_cfa_register 7
 1226 03a2 7860     		str	r0, [r7, #4]
 561:../../source/src/FWlib/src/stm32f10x_sdio.c ****   /* Check the parameters */
 562:../../source/src/FWlib/src/stm32f10x_sdio.c ****   assert_param(IS_SDIO_READWAIT_MODE(SDIO_ReadWaitMode));
 563:../../source/src/FWlib/src/stm32f10x_sdio.c ****   
 564:../../source/src/FWlib/src/stm32f10x_sdio.c ****   *(__IO uint32_t *) DCTRL_RWMOD_BB = SDIO_ReadWaitMode;
 1227              		.loc 1 564 0
 1228 03a4 034A     		ldr	r2, .L65
 1229 03a6 7B68     		ldr	r3, [r7, #4]
 1230 03a8 1360     		str	r3, [r2]
 565:../../source/src/FWlib/src/stm32f10x_sdio.c **** }
 1231              		.loc 1 565 0
 1232 03aa 00BF     		nop
 1233 03ac 0C37     		adds	r7, r7, #12
 1234              	.LCFI111:
 1235              		.cfi_def_cfa_offset 4
 1236 03ae BD46     		mov	sp, r7
 1237              	.LCFI112:
 1238              		.cfi_def_cfa_register 13
 1239              		@ sp needed
 1240 03b0 80BC     		pop	{r7}
 1241              	.LCFI113:
 1242              		.cfi_restore 7
 1243              		.cfi_def_cfa_offset 0
 1244 03b2 7047     		bx	lr
 1245              	.L66:
 1246              		.align	2
 1247              	.L65:
 1248 03b4 A8053042 		.word	1110443432
 1249              		.cfi_endproc
 1250              	.LFE49:
 1251              		.size	SDIO_SetSDIOReadWaitMode, .-SDIO_SetSDIOReadWaitMode
 1252              		.align	1
 1253              		.global	SDIO_SetSDIOOperation
ARM GAS  G:\Users\Jaxb\AppData\Local\Temp\cc02ucHi.s 			page 33


 1254              		.syntax unified
 1255              		.thumb
 1256              		.thumb_func
 1257              		.fpu softvfp
 1258              		.type	SDIO_SetSDIOOperation, %function
 1259              	SDIO_SetSDIOOperation:
 1260              	.LFB50:
 566:../../source/src/FWlib/src/stm32f10x_sdio.c **** 
 567:../../source/src/FWlib/src/stm32f10x_sdio.c **** /**
 568:../../source/src/FWlib/src/stm32f10x_sdio.c ****   * @brief  Enables or disables the SD I/O Mode Operation.
 569:../../source/src/FWlib/src/stm32f10x_sdio.c ****   * @param  NewState: new state of SDIO specific operation. 
 570:../../source/src/FWlib/src/stm32f10x_sdio.c ****   *   This parameter can be: ENABLE or DISABLE.
 571:../../source/src/FWlib/src/stm32f10x_sdio.c ****   * @retval None
 572:../../source/src/FWlib/src/stm32f10x_sdio.c ****   */
 573:../../source/src/FWlib/src/stm32f10x_sdio.c **** void SDIO_SetSDIOOperation(FunctionalState NewState)
 574:../../source/src/FWlib/src/stm32f10x_sdio.c **** { 
 1261              		.loc 1 574 0
 1262              		.cfi_startproc
 1263              		@ args = 0, pretend = 0, frame = 8
 1264              		@ frame_needed = 1, uses_anonymous_args = 0
 1265              		@ link register save eliminated.
 1266 03b8 80B4     		push	{r7}
 1267              	.LCFI114:
 1268              		.cfi_def_cfa_offset 4
 1269              		.cfi_offset 7, -4
 1270 03ba 83B0     		sub	sp, sp, #12
 1271              	.LCFI115:
 1272              		.cfi_def_cfa_offset 16
 1273 03bc 00AF     		add	r7, sp, #0
 1274              	.LCFI116:
 1275              		.cfi_def_cfa_register 7
 1276 03be 0346     		mov	r3, r0
 1277 03c0 FB71     		strb	r3, [r7, #7]
 575:../../source/src/FWlib/src/stm32f10x_sdio.c ****   /* Check the parameters */
 576:../../source/src/FWlib/src/stm32f10x_sdio.c ****   assert_param(IS_FUNCTIONAL_STATE(NewState));
 577:../../source/src/FWlib/src/stm32f10x_sdio.c ****   
 578:../../source/src/FWlib/src/stm32f10x_sdio.c ****   *(__IO uint32_t *) DCTRL_SDIOEN_BB = (uint32_t)NewState;
 1278              		.loc 1 578 0
 1279 03c2 044A     		ldr	r2, .L68
 1280 03c4 FB79     		ldrb	r3, [r7, #7]	@ zero_extendqisi2
 1281 03c6 1360     		str	r3, [r2]
 579:../../source/src/FWlib/src/stm32f10x_sdio.c **** }
 1282              		.loc 1 579 0
 1283 03c8 00BF     		nop
 1284 03ca 0C37     		adds	r7, r7, #12
 1285              	.LCFI117:
 1286              		.cfi_def_cfa_offset 4
 1287 03cc BD46     		mov	sp, r7
 1288              	.LCFI118:
 1289              		.cfi_def_cfa_register 13
 1290              		@ sp needed
 1291 03ce 80BC     		pop	{r7}
 1292              	.LCFI119:
 1293              		.cfi_restore 7
 1294              		.cfi_def_cfa_offset 0
 1295 03d0 7047     		bx	lr
 1296              	.L69:
ARM GAS  G:\Users\Jaxb\AppData\Local\Temp\cc02ucHi.s 			page 34


 1297 03d2 00BF     		.align	2
 1298              	.L68:
 1299 03d4 AC053042 		.word	1110443436
 1300              		.cfi_endproc
 1301              	.LFE50:
 1302              		.size	SDIO_SetSDIOOperation, .-SDIO_SetSDIOOperation
 1303              		.align	1
 1304              		.global	SDIO_SendSDIOSuspendCmd
 1305              		.syntax unified
 1306              		.thumb
 1307              		.thumb_func
 1308              		.fpu softvfp
 1309              		.type	SDIO_SendSDIOSuspendCmd, %function
 1310              	SDIO_SendSDIOSuspendCmd:
 1311              	.LFB51:
 580:../../source/src/FWlib/src/stm32f10x_sdio.c **** 
 581:../../source/src/FWlib/src/stm32f10x_sdio.c **** /**
 582:../../source/src/FWlib/src/stm32f10x_sdio.c ****   * @brief  Enables or disables the SD I/O Mode suspend command sending.
 583:../../source/src/FWlib/src/stm32f10x_sdio.c ****   * @param  NewState: new state of the SD I/O Mode suspend command.
 584:../../source/src/FWlib/src/stm32f10x_sdio.c ****   *   This parameter can be: ENABLE or DISABLE.
 585:../../source/src/FWlib/src/stm32f10x_sdio.c ****   * @retval None
 586:../../source/src/FWlib/src/stm32f10x_sdio.c ****   */
 587:../../source/src/FWlib/src/stm32f10x_sdio.c **** void SDIO_SendSDIOSuspendCmd(FunctionalState NewState)
 588:../../source/src/FWlib/src/stm32f10x_sdio.c **** { 
 1312              		.loc 1 588 0
 1313              		.cfi_startproc
 1314              		@ args = 0, pretend = 0, frame = 8
 1315              		@ frame_needed = 1, uses_anonymous_args = 0
 1316              		@ link register save eliminated.
 1317 03d8 80B4     		push	{r7}
 1318              	.LCFI120:
 1319              		.cfi_def_cfa_offset 4
 1320              		.cfi_offset 7, -4
 1321 03da 83B0     		sub	sp, sp, #12
 1322              	.LCFI121:
 1323              		.cfi_def_cfa_offset 16
 1324 03dc 00AF     		add	r7, sp, #0
 1325              	.LCFI122:
 1326              		.cfi_def_cfa_register 7
 1327 03de 0346     		mov	r3, r0
 1328 03e0 FB71     		strb	r3, [r7, #7]
 589:../../source/src/FWlib/src/stm32f10x_sdio.c ****   /* Check the parameters */
 590:../../source/src/FWlib/src/stm32f10x_sdio.c ****   assert_param(IS_FUNCTIONAL_STATE(NewState));
 591:../../source/src/FWlib/src/stm32f10x_sdio.c ****   
 592:../../source/src/FWlib/src/stm32f10x_sdio.c ****   *(__IO uint32_t *) CMD_SDIOSUSPEND_BB = (uint32_t)NewState;
 1329              		.loc 1 592 0
 1330 03e2 044A     		ldr	r2, .L71
 1331 03e4 FB79     		ldrb	r3, [r7, #7]	@ zero_extendqisi2
 1332 03e6 1360     		str	r3, [r2]
 593:../../source/src/FWlib/src/stm32f10x_sdio.c **** }
 1333              		.loc 1 593 0
 1334 03e8 00BF     		nop
 1335 03ea 0C37     		adds	r7, r7, #12
 1336              	.LCFI123:
 1337              		.cfi_def_cfa_offset 4
 1338 03ec BD46     		mov	sp, r7
 1339              	.LCFI124:
ARM GAS  G:\Users\Jaxb\AppData\Local\Temp\cc02ucHi.s 			page 35


 1340              		.cfi_def_cfa_register 13
 1341              		@ sp needed
 1342 03ee 80BC     		pop	{r7}
 1343              	.LCFI125:
 1344              		.cfi_restore 7
 1345              		.cfi_def_cfa_offset 0
 1346 03f0 7047     		bx	lr
 1347              	.L72:
 1348 03f2 00BF     		.align	2
 1349              	.L71:
 1350 03f4 AC013042 		.word	1110442412
 1351              		.cfi_endproc
 1352              	.LFE51:
 1353              		.size	SDIO_SendSDIOSuspendCmd, .-SDIO_SendSDIOSuspendCmd
 1354              		.align	1
 1355              		.global	SDIO_CommandCompletionCmd
 1356              		.syntax unified
 1357              		.thumb
 1358              		.thumb_func
 1359              		.fpu softvfp
 1360              		.type	SDIO_CommandCompletionCmd, %function
 1361              	SDIO_CommandCompletionCmd:
 1362              	.LFB52:
 594:../../source/src/FWlib/src/stm32f10x_sdio.c **** 
 595:../../source/src/FWlib/src/stm32f10x_sdio.c **** /**
 596:../../source/src/FWlib/src/stm32f10x_sdio.c ****   * @brief  Enables or disables the command completion signal.
 597:../../source/src/FWlib/src/stm32f10x_sdio.c ****   * @param  NewState: new state of command completion signal. 
 598:../../source/src/FWlib/src/stm32f10x_sdio.c ****   *   This parameter can be: ENABLE or DISABLE.
 599:../../source/src/FWlib/src/stm32f10x_sdio.c ****   * @retval None
 600:../../source/src/FWlib/src/stm32f10x_sdio.c ****   */
 601:../../source/src/FWlib/src/stm32f10x_sdio.c **** void SDIO_CommandCompletionCmd(FunctionalState NewState)
 602:../../source/src/FWlib/src/stm32f10x_sdio.c **** { 
 1363              		.loc 1 602 0
 1364              		.cfi_startproc
 1365              		@ args = 0, pretend = 0, frame = 8
 1366              		@ frame_needed = 1, uses_anonymous_args = 0
 1367              		@ link register save eliminated.
 1368 03f8 80B4     		push	{r7}
 1369              	.LCFI126:
 1370              		.cfi_def_cfa_offset 4
 1371              		.cfi_offset 7, -4
 1372 03fa 83B0     		sub	sp, sp, #12
 1373              	.LCFI127:
 1374              		.cfi_def_cfa_offset 16
 1375 03fc 00AF     		add	r7, sp, #0
 1376              	.LCFI128:
 1377              		.cfi_def_cfa_register 7
 1378 03fe 0346     		mov	r3, r0
 1379 0400 FB71     		strb	r3, [r7, #7]
 603:../../source/src/FWlib/src/stm32f10x_sdio.c ****   /* Check the parameters */
 604:../../source/src/FWlib/src/stm32f10x_sdio.c ****   assert_param(IS_FUNCTIONAL_STATE(NewState));
 605:../../source/src/FWlib/src/stm32f10x_sdio.c ****   
 606:../../source/src/FWlib/src/stm32f10x_sdio.c ****   *(__IO uint32_t *) CMD_ENCMDCOMPL_BB = (uint32_t)NewState;
 1380              		.loc 1 606 0
 1381 0402 044A     		ldr	r2, .L74
 1382 0404 FB79     		ldrb	r3, [r7, #7]	@ zero_extendqisi2
 1383 0406 1360     		str	r3, [r2]
ARM GAS  G:\Users\Jaxb\AppData\Local\Temp\cc02ucHi.s 			page 36


 607:../../source/src/FWlib/src/stm32f10x_sdio.c **** }
 1384              		.loc 1 607 0
 1385 0408 00BF     		nop
 1386 040a 0C37     		adds	r7, r7, #12
 1387              	.LCFI129:
 1388              		.cfi_def_cfa_offset 4
 1389 040c BD46     		mov	sp, r7
 1390              	.LCFI130:
 1391              		.cfi_def_cfa_register 13
 1392              		@ sp needed
 1393 040e 80BC     		pop	{r7}
 1394              	.LCFI131:
 1395              		.cfi_restore 7
 1396              		.cfi_def_cfa_offset 0
 1397 0410 7047     		bx	lr
 1398              	.L75:
 1399 0412 00BF     		.align	2
 1400              	.L74:
 1401 0414 B0013042 		.word	1110442416
 1402              		.cfi_endproc
 1403              	.LFE52:
 1404              		.size	SDIO_CommandCompletionCmd, .-SDIO_CommandCompletionCmd
 1405              		.align	1
 1406              		.global	SDIO_CEATAITCmd
 1407              		.syntax unified
 1408              		.thumb
 1409              		.thumb_func
 1410              		.fpu softvfp
 1411              		.type	SDIO_CEATAITCmd, %function
 1412              	SDIO_CEATAITCmd:
 1413              	.LFB53:
 608:../../source/src/FWlib/src/stm32f10x_sdio.c **** 
 609:../../source/src/FWlib/src/stm32f10x_sdio.c **** /**
 610:../../source/src/FWlib/src/stm32f10x_sdio.c ****   * @brief  Enables or disables the CE-ATA interrupt.
 611:../../source/src/FWlib/src/stm32f10x_sdio.c ****   * @param  NewState: new state of CE-ATA interrupt. This parameter can be: ENABLE or DISABLE.
 612:../../source/src/FWlib/src/stm32f10x_sdio.c ****   * @retval None
 613:../../source/src/FWlib/src/stm32f10x_sdio.c ****   */
 614:../../source/src/FWlib/src/stm32f10x_sdio.c **** void SDIO_CEATAITCmd(FunctionalState NewState)
 615:../../source/src/FWlib/src/stm32f10x_sdio.c **** { 
 1414              		.loc 1 615 0
 1415              		.cfi_startproc
 1416              		@ args = 0, pretend = 0, frame = 8
 1417              		@ frame_needed = 1, uses_anonymous_args = 0
 1418              		@ link register save eliminated.
 1419 0418 80B4     		push	{r7}
 1420              	.LCFI132:
 1421              		.cfi_def_cfa_offset 4
 1422              		.cfi_offset 7, -4
 1423 041a 83B0     		sub	sp, sp, #12
 1424              	.LCFI133:
 1425              		.cfi_def_cfa_offset 16
 1426 041c 00AF     		add	r7, sp, #0
 1427              	.LCFI134:
 1428              		.cfi_def_cfa_register 7
 1429 041e 0346     		mov	r3, r0
 1430 0420 FB71     		strb	r3, [r7, #7]
 616:../../source/src/FWlib/src/stm32f10x_sdio.c ****   /* Check the parameters */
ARM GAS  G:\Users\Jaxb\AppData\Local\Temp\cc02ucHi.s 			page 37


 617:../../source/src/FWlib/src/stm32f10x_sdio.c ****   assert_param(IS_FUNCTIONAL_STATE(NewState));
 618:../../source/src/FWlib/src/stm32f10x_sdio.c ****   
 619:../../source/src/FWlib/src/stm32f10x_sdio.c ****   *(__IO uint32_t *) CMD_NIEN_BB = (uint32_t)((~((uint32_t)NewState)) & ((uint32_t)0x1));
 1431              		.loc 1 619 0
 1432 0422 FB79     		ldrb	r3, [r7, #7]	@ zero_extendqisi2
 1433 0424 03F00103 		and	r3, r3, #1
 1434 0428 002B     		cmp	r3, #0
 1435 042a 0CBF     		ite	eq
 1436 042c 0123     		moveq	r3, #1
 1437 042e 0023     		movne	r3, #0
 1438 0430 DAB2     		uxtb	r2, r3
 1439 0432 034B     		ldr	r3, .L77
 1440 0434 1A60     		str	r2, [r3]
 620:../../source/src/FWlib/src/stm32f10x_sdio.c **** }
 1441              		.loc 1 620 0
 1442 0436 00BF     		nop
 1443 0438 0C37     		adds	r7, r7, #12
 1444              	.LCFI135:
 1445              		.cfi_def_cfa_offset 4
 1446 043a BD46     		mov	sp, r7
 1447              	.LCFI136:
 1448              		.cfi_def_cfa_register 13
 1449              		@ sp needed
 1450 043c 80BC     		pop	{r7}
 1451              	.LCFI137:
 1452              		.cfi_restore 7
 1453              		.cfi_def_cfa_offset 0
 1454 043e 7047     		bx	lr
 1455              	.L78:
 1456              		.align	2
 1457              	.L77:
 1458 0440 B4013042 		.word	1110442420
 1459              		.cfi_endproc
 1460              	.LFE53:
 1461              		.size	SDIO_CEATAITCmd, .-SDIO_CEATAITCmd
 1462              		.align	1
 1463              		.global	SDIO_SendCEATACmd
 1464              		.syntax unified
 1465              		.thumb
 1466              		.thumb_func
 1467              		.fpu softvfp
 1468              		.type	SDIO_SendCEATACmd, %function
 1469              	SDIO_SendCEATACmd:
 1470              	.LFB54:
 621:../../source/src/FWlib/src/stm32f10x_sdio.c **** 
 622:../../source/src/FWlib/src/stm32f10x_sdio.c **** /**
 623:../../source/src/FWlib/src/stm32f10x_sdio.c ****   * @brief  Sends CE-ATA command (CMD61).
 624:../../source/src/FWlib/src/stm32f10x_sdio.c ****   * @param  NewState: new state of CE-ATA command. This parameter can be: ENABLE or DISABLE.
 625:../../source/src/FWlib/src/stm32f10x_sdio.c ****   * @retval None
 626:../../source/src/FWlib/src/stm32f10x_sdio.c ****   */
 627:../../source/src/FWlib/src/stm32f10x_sdio.c **** void SDIO_SendCEATACmd(FunctionalState NewState)
 628:../../source/src/FWlib/src/stm32f10x_sdio.c **** { 
 1471              		.loc 1 628 0
 1472              		.cfi_startproc
 1473              		@ args = 0, pretend = 0, frame = 8
 1474              		@ frame_needed = 1, uses_anonymous_args = 0
 1475              		@ link register save eliminated.
ARM GAS  G:\Users\Jaxb\AppData\Local\Temp\cc02ucHi.s 			page 38


 1476 0444 80B4     		push	{r7}
 1477              	.LCFI138:
 1478              		.cfi_def_cfa_offset 4
 1479              		.cfi_offset 7, -4
 1480 0446 83B0     		sub	sp, sp, #12
 1481              	.LCFI139:
 1482              		.cfi_def_cfa_offset 16
 1483 0448 00AF     		add	r7, sp, #0
 1484              	.LCFI140:
 1485              		.cfi_def_cfa_register 7
 1486 044a 0346     		mov	r3, r0
 1487 044c FB71     		strb	r3, [r7, #7]
 629:../../source/src/FWlib/src/stm32f10x_sdio.c ****   /* Check the parameters */
 630:../../source/src/FWlib/src/stm32f10x_sdio.c ****   assert_param(IS_FUNCTIONAL_STATE(NewState));
 631:../../source/src/FWlib/src/stm32f10x_sdio.c ****   
 632:../../source/src/FWlib/src/stm32f10x_sdio.c ****   *(__IO uint32_t *) CMD_ATACMD_BB = (uint32_t)NewState;
 1488              		.loc 1 632 0
 1489 044e 044A     		ldr	r2, .L80
 1490 0450 FB79     		ldrb	r3, [r7, #7]	@ zero_extendqisi2
 1491 0452 1360     		str	r3, [r2]
 633:../../source/src/FWlib/src/stm32f10x_sdio.c **** }
 1492              		.loc 1 633 0
 1493 0454 00BF     		nop
 1494 0456 0C37     		adds	r7, r7, #12
 1495              	.LCFI141:
 1496              		.cfi_def_cfa_offset 4
 1497 0458 BD46     		mov	sp, r7
 1498              	.LCFI142:
 1499              		.cfi_def_cfa_register 13
 1500              		@ sp needed
 1501 045a 80BC     		pop	{r7}
 1502              	.LCFI143:
 1503              		.cfi_restore 7
 1504              		.cfi_def_cfa_offset 0
 1505 045c 7047     		bx	lr
 1506              	.L81:
 1507 045e 00BF     		.align	2
 1508              	.L80:
 1509 0460 B8013042 		.word	1110442424
 1510              		.cfi_endproc
 1511              	.LFE54:
 1512              		.size	SDIO_SendCEATACmd, .-SDIO_SendCEATACmd
 1513              		.align	1
 1514              		.global	SDIO_GetFlagStatus
 1515              		.syntax unified
 1516              		.thumb
 1517              		.thumb_func
 1518              		.fpu softvfp
 1519              		.type	SDIO_GetFlagStatus, %function
 1520              	SDIO_GetFlagStatus:
 1521              	.LFB55:
 634:../../source/src/FWlib/src/stm32f10x_sdio.c **** 
 635:../../source/src/FWlib/src/stm32f10x_sdio.c **** /**
 636:../../source/src/FWlib/src/stm32f10x_sdio.c ****   * @brief  Checks whether the specified SDIO flag is set or not.
 637:../../source/src/FWlib/src/stm32f10x_sdio.c ****   * @param  SDIO_FLAG: specifies the flag to check. 
 638:../../source/src/FWlib/src/stm32f10x_sdio.c ****   *   This parameter can be one of the following values:
 639:../../source/src/FWlib/src/stm32f10x_sdio.c ****   *     @arg SDIO_FLAG_CCRCFAIL: Command response received (CRC check failed)
ARM GAS  G:\Users\Jaxb\AppData\Local\Temp\cc02ucHi.s 			page 39


 640:../../source/src/FWlib/src/stm32f10x_sdio.c ****   *     @arg SDIO_FLAG_DCRCFAIL: Data block sent/received (CRC check failed)
 641:../../source/src/FWlib/src/stm32f10x_sdio.c ****   *     @arg SDIO_FLAG_CTIMEOUT: Command response timeout
 642:../../source/src/FWlib/src/stm32f10x_sdio.c ****   *     @arg SDIO_FLAG_DTIMEOUT: Data timeout
 643:../../source/src/FWlib/src/stm32f10x_sdio.c ****   *     @arg SDIO_FLAG_TXUNDERR: Transmit FIFO underrun error
 644:../../source/src/FWlib/src/stm32f10x_sdio.c ****   *     @arg SDIO_FLAG_RXOVERR:  Received FIFO overrun error
 645:../../source/src/FWlib/src/stm32f10x_sdio.c ****   *     @arg SDIO_FLAG_CMDREND:  Command response received (CRC check passed)
 646:../../source/src/FWlib/src/stm32f10x_sdio.c ****   *     @arg SDIO_FLAG_CMDSENT:  Command sent (no response required)
 647:../../source/src/FWlib/src/stm32f10x_sdio.c ****   *     @arg SDIO_FLAG_DATAEND:  Data end (data counter, SDIDCOUNT, is zero)
 648:../../source/src/FWlib/src/stm32f10x_sdio.c ****   *     @arg SDIO_FLAG_STBITERR: Start bit not detected on all data signals in wide 
 649:../../source/src/FWlib/src/stm32f10x_sdio.c ****   *                              bus mode.
 650:../../source/src/FWlib/src/stm32f10x_sdio.c ****   *     @arg SDIO_FLAG_DBCKEND:  Data block sent/received (CRC check passed)
 651:../../source/src/FWlib/src/stm32f10x_sdio.c ****   *     @arg SDIO_FLAG_CMDACT:   Command transfer in progress
 652:../../source/src/FWlib/src/stm32f10x_sdio.c ****   *     @arg SDIO_FLAG_TXACT:    Data transmit in progress
 653:../../source/src/FWlib/src/stm32f10x_sdio.c ****   *     @arg SDIO_FLAG_RXACT:    Data receive in progress
 654:../../source/src/FWlib/src/stm32f10x_sdio.c ****   *     @arg SDIO_FLAG_TXFIFOHE: Transmit FIFO Half Empty
 655:../../source/src/FWlib/src/stm32f10x_sdio.c ****   *     @arg SDIO_FLAG_RXFIFOHF: Receive FIFO Half Full
 656:../../source/src/FWlib/src/stm32f10x_sdio.c ****   *     @arg SDIO_FLAG_TXFIFOF:  Transmit FIFO full
 657:../../source/src/FWlib/src/stm32f10x_sdio.c ****   *     @arg SDIO_FLAG_RXFIFOF:  Receive FIFO full
 658:../../source/src/FWlib/src/stm32f10x_sdio.c ****   *     @arg SDIO_FLAG_TXFIFOE:  Transmit FIFO empty
 659:../../source/src/FWlib/src/stm32f10x_sdio.c ****   *     @arg SDIO_FLAG_RXFIFOE:  Receive FIFO empty
 660:../../source/src/FWlib/src/stm32f10x_sdio.c ****   *     @arg SDIO_FLAG_TXDAVL:   Data available in transmit FIFO
 661:../../source/src/FWlib/src/stm32f10x_sdio.c ****   *     @arg SDIO_FLAG_RXDAVL:   Data available in receive FIFO
 662:../../source/src/FWlib/src/stm32f10x_sdio.c ****   *     @arg SDIO_FLAG_SDIOIT:   SD I/O interrupt received
 663:../../source/src/FWlib/src/stm32f10x_sdio.c ****   *     @arg SDIO_FLAG_CEATAEND: CE-ATA command completion signal received for CMD61
 664:../../source/src/FWlib/src/stm32f10x_sdio.c ****   * @retval The new state of SDIO_FLAG (SET or RESET).
 665:../../source/src/FWlib/src/stm32f10x_sdio.c ****   */
 666:../../source/src/FWlib/src/stm32f10x_sdio.c **** FlagStatus SDIO_GetFlagStatus(uint32_t SDIO_FLAG)
 667:../../source/src/FWlib/src/stm32f10x_sdio.c **** { 
 1522              		.loc 1 667 0
 1523              		.cfi_startproc
 1524              		@ args = 0, pretend = 0, frame = 16
 1525              		@ frame_needed = 1, uses_anonymous_args = 0
 1526              		@ link register save eliminated.
 1527 0464 80B4     		push	{r7}
 1528              	.LCFI144:
 1529              		.cfi_def_cfa_offset 4
 1530              		.cfi_offset 7, -4
 1531 0466 85B0     		sub	sp, sp, #20
 1532              	.LCFI145:
 1533              		.cfi_def_cfa_offset 24
 1534 0468 00AF     		add	r7, sp, #0
 1535              	.LCFI146:
 1536              		.cfi_def_cfa_register 7
 1537 046a 7860     		str	r0, [r7, #4]
 668:../../source/src/FWlib/src/stm32f10x_sdio.c ****   FlagStatus bitstatus = RESET;
 1538              		.loc 1 668 0
 1539 046c 0023     		movs	r3, #0
 1540 046e FB73     		strb	r3, [r7, #15]
 669:../../source/src/FWlib/src/stm32f10x_sdio.c ****   
 670:../../source/src/FWlib/src/stm32f10x_sdio.c ****   /* Check the parameters */
 671:../../source/src/FWlib/src/stm32f10x_sdio.c ****   assert_param(IS_SDIO_FLAG(SDIO_FLAG));
 672:../../source/src/FWlib/src/stm32f10x_sdio.c ****   
 673:../../source/src/FWlib/src/stm32f10x_sdio.c ****   if ((SDIO->STA & SDIO_FLAG) != (uint32_t)RESET)
 1541              		.loc 1 673 0
 1542 0470 084B     		ldr	r3, .L86
 1543 0472 5A6B     		ldr	r2, [r3, #52]
 1544 0474 7B68     		ldr	r3, [r7, #4]
ARM GAS  G:\Users\Jaxb\AppData\Local\Temp\cc02ucHi.s 			page 40


 1545 0476 1340     		ands	r3, r3, r2
 1546 0478 002B     		cmp	r3, #0
 1547 047a 02D0     		beq	.L83
 674:../../source/src/FWlib/src/stm32f10x_sdio.c ****   {
 675:../../source/src/FWlib/src/stm32f10x_sdio.c ****     bitstatus = SET;
 1548              		.loc 1 675 0
 1549 047c 0123     		movs	r3, #1
 1550 047e FB73     		strb	r3, [r7, #15]
 1551 0480 01E0     		b	.L84
 1552              	.L83:
 676:../../source/src/FWlib/src/stm32f10x_sdio.c ****   }
 677:../../source/src/FWlib/src/stm32f10x_sdio.c ****   else
 678:../../source/src/FWlib/src/stm32f10x_sdio.c ****   {
 679:../../source/src/FWlib/src/stm32f10x_sdio.c ****     bitstatus = RESET;
 1553              		.loc 1 679 0
 1554 0482 0023     		movs	r3, #0
 1555 0484 FB73     		strb	r3, [r7, #15]
 1556              	.L84:
 680:../../source/src/FWlib/src/stm32f10x_sdio.c ****   }
 681:../../source/src/FWlib/src/stm32f10x_sdio.c ****   return bitstatus;
 1557              		.loc 1 681 0
 1558 0486 FB7B     		ldrb	r3, [r7, #15]	@ zero_extendqisi2
 682:../../source/src/FWlib/src/stm32f10x_sdio.c **** }
 1559              		.loc 1 682 0
 1560 0488 1846     		mov	r0, r3
 1561 048a 1437     		adds	r7, r7, #20
 1562              	.LCFI147:
 1563              		.cfi_def_cfa_offset 4
 1564 048c BD46     		mov	sp, r7
 1565              	.LCFI148:
 1566              		.cfi_def_cfa_register 13
 1567              		@ sp needed
 1568 048e 80BC     		pop	{r7}
 1569              	.LCFI149:
 1570              		.cfi_restore 7
 1571              		.cfi_def_cfa_offset 0
 1572 0490 7047     		bx	lr
 1573              	.L87:
 1574 0492 00BF     		.align	2
 1575              	.L86:
 1576 0494 00800140 		.word	1073840128
 1577              		.cfi_endproc
 1578              	.LFE55:
 1579              		.size	SDIO_GetFlagStatus, .-SDIO_GetFlagStatus
 1580              		.align	1
 1581              		.global	SDIO_ClearFlag
 1582              		.syntax unified
 1583              		.thumb
 1584              		.thumb_func
 1585              		.fpu softvfp
 1586              		.type	SDIO_ClearFlag, %function
 1587              	SDIO_ClearFlag:
 1588              	.LFB56:
 683:../../source/src/FWlib/src/stm32f10x_sdio.c **** 
 684:../../source/src/FWlib/src/stm32f10x_sdio.c **** /**
 685:../../source/src/FWlib/src/stm32f10x_sdio.c ****   * @brief  Clears the SDIO's pending flags.
 686:../../source/src/FWlib/src/stm32f10x_sdio.c ****   * @param  SDIO_FLAG: specifies the flag to clear.  
ARM GAS  G:\Users\Jaxb\AppData\Local\Temp\cc02ucHi.s 			page 41


 687:../../source/src/FWlib/src/stm32f10x_sdio.c ****   *   This parameter can be one or a combination of the following values:
 688:../../source/src/FWlib/src/stm32f10x_sdio.c ****   *     @arg SDIO_FLAG_CCRCFAIL: Command response received (CRC check failed)
 689:../../source/src/FWlib/src/stm32f10x_sdio.c ****   *     @arg SDIO_FLAG_DCRCFAIL: Data block sent/received (CRC check failed)
 690:../../source/src/FWlib/src/stm32f10x_sdio.c ****   *     @arg SDIO_FLAG_CTIMEOUT: Command response timeout
 691:../../source/src/FWlib/src/stm32f10x_sdio.c ****   *     @arg SDIO_FLAG_DTIMEOUT: Data timeout
 692:../../source/src/FWlib/src/stm32f10x_sdio.c ****   *     @arg SDIO_FLAG_TXUNDERR: Transmit FIFO underrun error
 693:../../source/src/FWlib/src/stm32f10x_sdio.c ****   *     @arg SDIO_FLAG_RXOVERR:  Received FIFO overrun error
 694:../../source/src/FWlib/src/stm32f10x_sdio.c ****   *     @arg SDIO_FLAG_CMDREND:  Command response received (CRC check passed)
 695:../../source/src/FWlib/src/stm32f10x_sdio.c ****   *     @arg SDIO_FLAG_CMDSENT:  Command sent (no response required)
 696:../../source/src/FWlib/src/stm32f10x_sdio.c ****   *     @arg SDIO_FLAG_DATAEND:  Data end (data counter, SDIDCOUNT, is zero)
 697:../../source/src/FWlib/src/stm32f10x_sdio.c ****   *     @arg SDIO_FLAG_STBITERR: Start bit not detected on all data signals in wide 
 698:../../source/src/FWlib/src/stm32f10x_sdio.c ****   *                              bus mode
 699:../../source/src/FWlib/src/stm32f10x_sdio.c ****   *     @arg SDIO_FLAG_DBCKEND:  Data block sent/received (CRC check passed)
 700:../../source/src/FWlib/src/stm32f10x_sdio.c ****   *     @arg SDIO_FLAG_SDIOIT:   SD I/O interrupt received
 701:../../source/src/FWlib/src/stm32f10x_sdio.c ****   *     @arg SDIO_FLAG_CEATAEND: CE-ATA command completion signal received for CMD61
 702:../../source/src/FWlib/src/stm32f10x_sdio.c ****   * @retval None
 703:../../source/src/FWlib/src/stm32f10x_sdio.c ****   */
 704:../../source/src/FWlib/src/stm32f10x_sdio.c **** void SDIO_ClearFlag(uint32_t SDIO_FLAG)
 705:../../source/src/FWlib/src/stm32f10x_sdio.c **** { 
 1589              		.loc 1 705 0
 1590              		.cfi_startproc
 1591              		@ args = 0, pretend = 0, frame = 8
 1592              		@ frame_needed = 1, uses_anonymous_args = 0
 1593              		@ link register save eliminated.
 1594 0498 80B4     		push	{r7}
 1595              	.LCFI150:
 1596              		.cfi_def_cfa_offset 4
 1597              		.cfi_offset 7, -4
 1598 049a 83B0     		sub	sp, sp, #12
 1599              	.LCFI151:
 1600              		.cfi_def_cfa_offset 16
 1601 049c 00AF     		add	r7, sp, #0
 1602              	.LCFI152:
 1603              		.cfi_def_cfa_register 7
 1604 049e 7860     		str	r0, [r7, #4]
 706:../../source/src/FWlib/src/stm32f10x_sdio.c ****   /* Check the parameters */
 707:../../source/src/FWlib/src/stm32f10x_sdio.c ****   assert_param(IS_SDIO_CLEAR_FLAG(SDIO_FLAG));
 708:../../source/src/FWlib/src/stm32f10x_sdio.c ****    
 709:../../source/src/FWlib/src/stm32f10x_sdio.c ****   SDIO->ICR = SDIO_FLAG;
 1605              		.loc 1 709 0
 1606 04a0 034A     		ldr	r2, .L89
 1607 04a2 7B68     		ldr	r3, [r7, #4]
 1608 04a4 9363     		str	r3, [r2, #56]
 710:../../source/src/FWlib/src/stm32f10x_sdio.c **** }
 1609              		.loc 1 710 0
 1610 04a6 00BF     		nop
 1611 04a8 0C37     		adds	r7, r7, #12
 1612              	.LCFI153:
 1613              		.cfi_def_cfa_offset 4
 1614 04aa BD46     		mov	sp, r7
 1615              	.LCFI154:
 1616              		.cfi_def_cfa_register 13
 1617              		@ sp needed
 1618 04ac 80BC     		pop	{r7}
 1619              	.LCFI155:
 1620              		.cfi_restore 7
 1621              		.cfi_def_cfa_offset 0
ARM GAS  G:\Users\Jaxb\AppData\Local\Temp\cc02ucHi.s 			page 42


 1622 04ae 7047     		bx	lr
 1623              	.L90:
 1624              		.align	2
 1625              	.L89:
 1626 04b0 00800140 		.word	1073840128
 1627              		.cfi_endproc
 1628              	.LFE56:
 1629              		.size	SDIO_ClearFlag, .-SDIO_ClearFlag
 1630              		.align	1
 1631              		.global	SDIO_GetITStatus
 1632              		.syntax unified
 1633              		.thumb
 1634              		.thumb_func
 1635              		.fpu softvfp
 1636              		.type	SDIO_GetITStatus, %function
 1637              	SDIO_GetITStatus:
 1638              	.LFB57:
 711:../../source/src/FWlib/src/stm32f10x_sdio.c **** 
 712:../../source/src/FWlib/src/stm32f10x_sdio.c **** /**
 713:../../source/src/FWlib/src/stm32f10x_sdio.c ****   * @brief  Checks whether the specified SDIO interrupt has occurred or not.
 714:../../source/src/FWlib/src/stm32f10x_sdio.c ****   * @param  SDIO_IT: specifies the SDIO interrupt source to check. 
 715:../../source/src/FWlib/src/stm32f10x_sdio.c ****   *   This parameter can be one of the following values:
 716:../../source/src/FWlib/src/stm32f10x_sdio.c ****   *     @arg SDIO_IT_CCRCFAIL: Command response received (CRC check failed) interrupt
 717:../../source/src/FWlib/src/stm32f10x_sdio.c ****   *     @arg SDIO_IT_DCRCFAIL: Data block sent/received (CRC check failed) interrupt
 718:../../source/src/FWlib/src/stm32f10x_sdio.c ****   *     @arg SDIO_IT_CTIMEOUT: Command response timeout interrupt
 719:../../source/src/FWlib/src/stm32f10x_sdio.c ****   *     @arg SDIO_IT_DTIMEOUT: Data timeout interrupt
 720:../../source/src/FWlib/src/stm32f10x_sdio.c ****   *     @arg SDIO_IT_TXUNDERR: Transmit FIFO underrun error interrupt
 721:../../source/src/FWlib/src/stm32f10x_sdio.c ****   *     @arg SDIO_IT_RXOVERR:  Received FIFO overrun error interrupt
 722:../../source/src/FWlib/src/stm32f10x_sdio.c ****   *     @arg SDIO_IT_CMDREND:  Command response received (CRC check passed) interrupt
 723:../../source/src/FWlib/src/stm32f10x_sdio.c ****   *     @arg SDIO_IT_CMDSENT:  Command sent (no response required) interrupt
 724:../../source/src/FWlib/src/stm32f10x_sdio.c ****   *     @arg SDIO_IT_DATAEND:  Data end (data counter, SDIDCOUNT, is zero) interrupt
 725:../../source/src/FWlib/src/stm32f10x_sdio.c ****   *     @arg SDIO_IT_STBITERR: Start bit not detected on all data signals in wide 
 726:../../source/src/FWlib/src/stm32f10x_sdio.c ****   *                            bus mode interrupt
 727:../../source/src/FWlib/src/stm32f10x_sdio.c ****   *     @arg SDIO_IT_DBCKEND:  Data block sent/received (CRC check passed) interrupt
 728:../../source/src/FWlib/src/stm32f10x_sdio.c ****   *     @arg SDIO_IT_CMDACT:   Command transfer in progress interrupt
 729:../../source/src/FWlib/src/stm32f10x_sdio.c ****   *     @arg SDIO_IT_TXACT:    Data transmit in progress interrupt
 730:../../source/src/FWlib/src/stm32f10x_sdio.c ****   *     @arg SDIO_IT_RXACT:    Data receive in progress interrupt
 731:../../source/src/FWlib/src/stm32f10x_sdio.c ****   *     @arg SDIO_IT_TXFIFOHE: Transmit FIFO Half Empty interrupt
 732:../../source/src/FWlib/src/stm32f10x_sdio.c ****   *     @arg SDIO_IT_RXFIFOHF: Receive FIFO Half Full interrupt
 733:../../source/src/FWlib/src/stm32f10x_sdio.c ****   *     @arg SDIO_IT_TXFIFOF:  Transmit FIFO full interrupt
 734:../../source/src/FWlib/src/stm32f10x_sdio.c ****   *     @arg SDIO_IT_RXFIFOF:  Receive FIFO full interrupt
 735:../../source/src/FWlib/src/stm32f10x_sdio.c ****   *     @arg SDIO_IT_TXFIFOE:  Transmit FIFO empty interrupt
 736:../../source/src/FWlib/src/stm32f10x_sdio.c ****   *     @arg SDIO_IT_RXFIFOE:  Receive FIFO empty interrupt
 737:../../source/src/FWlib/src/stm32f10x_sdio.c ****   *     @arg SDIO_IT_TXDAVL:   Data available in transmit FIFO interrupt
 738:../../source/src/FWlib/src/stm32f10x_sdio.c ****   *     @arg SDIO_IT_RXDAVL:   Data available in receive FIFO interrupt
 739:../../source/src/FWlib/src/stm32f10x_sdio.c ****   *     @arg SDIO_IT_SDIOIT:   SD I/O interrupt received interrupt
 740:../../source/src/FWlib/src/stm32f10x_sdio.c ****   *     @arg SDIO_IT_CEATAEND: CE-ATA command completion signal received for CMD61 interrupt
 741:../../source/src/FWlib/src/stm32f10x_sdio.c ****   * @retval The new state of SDIO_IT (SET or RESET).
 742:../../source/src/FWlib/src/stm32f10x_sdio.c ****   */
 743:../../source/src/FWlib/src/stm32f10x_sdio.c **** ITStatus SDIO_GetITStatus(uint32_t SDIO_IT)
 744:../../source/src/FWlib/src/stm32f10x_sdio.c **** { 
 1639              		.loc 1 744 0
 1640              		.cfi_startproc
 1641              		@ args = 0, pretend = 0, frame = 16
 1642              		@ frame_needed = 1, uses_anonymous_args = 0
 1643              		@ link register save eliminated.
 1644 04b4 80B4     		push	{r7}
ARM GAS  G:\Users\Jaxb\AppData\Local\Temp\cc02ucHi.s 			page 43


 1645              	.LCFI156:
 1646              		.cfi_def_cfa_offset 4
 1647              		.cfi_offset 7, -4
 1648 04b6 85B0     		sub	sp, sp, #20
 1649              	.LCFI157:
 1650              		.cfi_def_cfa_offset 24
 1651 04b8 00AF     		add	r7, sp, #0
 1652              	.LCFI158:
 1653              		.cfi_def_cfa_register 7
 1654 04ba 7860     		str	r0, [r7, #4]
 745:../../source/src/FWlib/src/stm32f10x_sdio.c ****   ITStatus bitstatus = RESET;
 1655              		.loc 1 745 0
 1656 04bc 0023     		movs	r3, #0
 1657 04be FB73     		strb	r3, [r7, #15]
 746:../../source/src/FWlib/src/stm32f10x_sdio.c ****   
 747:../../source/src/FWlib/src/stm32f10x_sdio.c ****   /* Check the parameters */
 748:../../source/src/FWlib/src/stm32f10x_sdio.c ****   assert_param(IS_SDIO_GET_IT(SDIO_IT));
 749:../../source/src/FWlib/src/stm32f10x_sdio.c ****   if ((SDIO->STA & SDIO_IT) != (uint32_t)RESET)  
 1658              		.loc 1 749 0
 1659 04c0 084B     		ldr	r3, .L95
 1660 04c2 5A6B     		ldr	r2, [r3, #52]
 1661 04c4 7B68     		ldr	r3, [r7, #4]
 1662 04c6 1340     		ands	r3, r3, r2
 1663 04c8 002B     		cmp	r3, #0
 1664 04ca 02D0     		beq	.L92
 750:../../source/src/FWlib/src/stm32f10x_sdio.c ****   {
 751:../../source/src/FWlib/src/stm32f10x_sdio.c ****     bitstatus = SET;
 1665              		.loc 1 751 0
 1666 04cc 0123     		movs	r3, #1
 1667 04ce FB73     		strb	r3, [r7, #15]
 1668 04d0 01E0     		b	.L93
 1669              	.L92:
 752:../../source/src/FWlib/src/stm32f10x_sdio.c ****   }
 753:../../source/src/FWlib/src/stm32f10x_sdio.c ****   else
 754:../../source/src/FWlib/src/stm32f10x_sdio.c ****   {
 755:../../source/src/FWlib/src/stm32f10x_sdio.c ****     bitstatus = RESET;
 1670              		.loc 1 755 0
 1671 04d2 0023     		movs	r3, #0
 1672 04d4 FB73     		strb	r3, [r7, #15]
 1673              	.L93:
 756:../../source/src/FWlib/src/stm32f10x_sdio.c ****   }
 757:../../source/src/FWlib/src/stm32f10x_sdio.c ****   return bitstatus;
 1674              		.loc 1 757 0
 1675 04d6 FB7B     		ldrb	r3, [r7, #15]	@ zero_extendqisi2
 758:../../source/src/FWlib/src/stm32f10x_sdio.c **** }
 1676              		.loc 1 758 0
 1677 04d8 1846     		mov	r0, r3
 1678 04da 1437     		adds	r7, r7, #20
 1679              	.LCFI159:
 1680              		.cfi_def_cfa_offset 4
 1681 04dc BD46     		mov	sp, r7
 1682              	.LCFI160:
 1683              		.cfi_def_cfa_register 13
 1684              		@ sp needed
 1685 04de 80BC     		pop	{r7}
 1686              	.LCFI161:
 1687              		.cfi_restore 7
ARM GAS  G:\Users\Jaxb\AppData\Local\Temp\cc02ucHi.s 			page 44


 1688              		.cfi_def_cfa_offset 0
 1689 04e0 7047     		bx	lr
 1690              	.L96:
 1691 04e2 00BF     		.align	2
 1692              	.L95:
 1693 04e4 00800140 		.word	1073840128
 1694              		.cfi_endproc
 1695              	.LFE57:
 1696              		.size	SDIO_GetITStatus, .-SDIO_GetITStatus
 1697              		.align	1
 1698              		.global	SDIO_ClearITPendingBit
 1699              		.syntax unified
 1700              		.thumb
 1701              		.thumb_func
 1702              		.fpu softvfp
 1703              		.type	SDIO_ClearITPendingBit, %function
 1704              	SDIO_ClearITPendingBit:
 1705              	.LFB58:
 759:../../source/src/FWlib/src/stm32f10x_sdio.c **** 
 760:../../source/src/FWlib/src/stm32f10x_sdio.c **** /**
 761:../../source/src/FWlib/src/stm32f10x_sdio.c ****   * @brief  Clears the SDIO's interrupt pending bits.
 762:../../source/src/FWlib/src/stm32f10x_sdio.c ****   * @param  SDIO_IT: specifies the interrupt pending bit to clear. 
 763:../../source/src/FWlib/src/stm32f10x_sdio.c ****   *   This parameter can be one or a combination of the following values:
 764:../../source/src/FWlib/src/stm32f10x_sdio.c ****   *     @arg SDIO_IT_CCRCFAIL: Command response received (CRC check failed) interrupt
 765:../../source/src/FWlib/src/stm32f10x_sdio.c ****   *     @arg SDIO_IT_DCRCFAIL: Data block sent/received (CRC check failed) interrupt
 766:../../source/src/FWlib/src/stm32f10x_sdio.c ****   *     @arg SDIO_IT_CTIMEOUT: Command response timeout interrupt
 767:../../source/src/FWlib/src/stm32f10x_sdio.c ****   *     @arg SDIO_IT_DTIMEOUT: Data timeout interrupt
 768:../../source/src/FWlib/src/stm32f10x_sdio.c ****   *     @arg SDIO_IT_TXUNDERR: Transmit FIFO underrun error interrupt
 769:../../source/src/FWlib/src/stm32f10x_sdio.c ****   *     @arg SDIO_IT_RXOVERR:  Received FIFO overrun error interrupt
 770:../../source/src/FWlib/src/stm32f10x_sdio.c ****   *     @arg SDIO_IT_CMDREND:  Command response received (CRC check passed) interrupt
 771:../../source/src/FWlib/src/stm32f10x_sdio.c ****   *     @arg SDIO_IT_CMDSENT:  Command sent (no response required) interrupt
 772:../../source/src/FWlib/src/stm32f10x_sdio.c ****   *     @arg SDIO_IT_DATAEND:  Data end (data counter, SDIDCOUNT, is zero) interrupt
 773:../../source/src/FWlib/src/stm32f10x_sdio.c ****   *     @arg SDIO_IT_STBITERR: Start bit not detected on all data signals in wide 
 774:../../source/src/FWlib/src/stm32f10x_sdio.c ****   *                            bus mode interrupt
 775:../../source/src/FWlib/src/stm32f10x_sdio.c ****   *     @arg SDIO_IT_SDIOIT:   SD I/O interrupt received interrupt
 776:../../source/src/FWlib/src/stm32f10x_sdio.c ****   *     @arg SDIO_IT_CEATAEND: CE-ATA command completion signal received for CMD61
 777:../../source/src/FWlib/src/stm32f10x_sdio.c ****   * @retval None
 778:../../source/src/FWlib/src/stm32f10x_sdio.c ****   */
 779:../../source/src/FWlib/src/stm32f10x_sdio.c **** void SDIO_ClearITPendingBit(uint32_t SDIO_IT)
 780:../../source/src/FWlib/src/stm32f10x_sdio.c **** { 
 1706              		.loc 1 780 0
 1707              		.cfi_startproc
 1708              		@ args = 0, pretend = 0, frame = 8
 1709              		@ frame_needed = 1, uses_anonymous_args = 0
 1710              		@ link register save eliminated.
 1711 04e8 80B4     		push	{r7}
 1712              	.LCFI162:
 1713              		.cfi_def_cfa_offset 4
 1714              		.cfi_offset 7, -4
 1715 04ea 83B0     		sub	sp, sp, #12
 1716              	.LCFI163:
 1717              		.cfi_def_cfa_offset 16
 1718 04ec 00AF     		add	r7, sp, #0
 1719              	.LCFI164:
 1720              		.cfi_def_cfa_register 7
 1721 04ee 7860     		str	r0, [r7, #4]
 781:../../source/src/FWlib/src/stm32f10x_sdio.c ****   /* Check the parameters */
ARM GAS  G:\Users\Jaxb\AppData\Local\Temp\cc02ucHi.s 			page 45


 782:../../source/src/FWlib/src/stm32f10x_sdio.c ****   assert_param(IS_SDIO_CLEAR_IT(SDIO_IT));
 783:../../source/src/FWlib/src/stm32f10x_sdio.c ****    
 784:../../source/src/FWlib/src/stm32f10x_sdio.c ****   SDIO->ICR = SDIO_IT;
 1722              		.loc 1 784 0
 1723 04f0 034A     		ldr	r2, .L98
 1724 04f2 7B68     		ldr	r3, [r7, #4]
 1725 04f4 9363     		str	r3, [r2, #56]
 785:../../source/src/FWlib/src/stm32f10x_sdio.c **** }
 1726              		.loc 1 785 0
 1727 04f6 00BF     		nop
 1728 04f8 0C37     		adds	r7, r7, #12
 1729              	.LCFI165:
 1730              		.cfi_def_cfa_offset 4
 1731 04fa BD46     		mov	sp, r7
 1732              	.LCFI166:
 1733              		.cfi_def_cfa_register 13
 1734              		@ sp needed
 1735 04fc 80BC     		pop	{r7}
 1736              	.LCFI167:
 1737              		.cfi_restore 7
 1738              		.cfi_def_cfa_offset 0
 1739 04fe 7047     		bx	lr
 1740              	.L99:
 1741              		.align	2
 1742              	.L98:
 1743 0500 00800140 		.word	1073840128
 1744              		.cfi_endproc
 1745              	.LFE58:
 1746              		.size	SDIO_ClearITPendingBit, .-SDIO_ClearITPendingBit
 1747              	.Letext0:
 1748              		.file 2 "f:\\arm\\gcc2018\\arm-none-eabi\\include\\machine\\_default_types.h"
 1749              		.file 3 "f:\\arm\\gcc2018\\arm-none-eabi\\include\\sys\\_stdint.h"
 1750              		.file 4 "../../source/include/core_cm3.h"
 1751              		.file 5 "../../source/include/system_stm32f10x.h"
 1752              		.file 6 "../../source/include/stm32f10x.h"
 1753              		.file 7 "../../source/src/FWlib/inc/stm32f10x_sdio.h"
 1754              		.section	.debug_info,"",%progbits
 1755              	.Ldebug_info0:
 1756 0000 C8080000 		.4byte	0x8c8
 1757 0004 0200     		.2byte	0x2
 1758 0006 00000000 		.4byte	.Ldebug_abbrev0
 1759 000a 04       		.byte	0x4
 1760 000b 01       		.uleb128 0x1
 1761 000c 61050000 		.4byte	.LASF99
 1762 0010 0C       		.byte	0xc
 1763 0011 11050000 		.4byte	.LASF100
 1764 0015 F8010000 		.4byte	.LASF101
 1765 0019 00000000 		.4byte	.Ltext0
 1766 001d 04050000 		.4byte	.Letext0
 1767 0021 00000000 		.4byte	.Ldebug_line0
 1768 0025 02       		.uleb128 0x2
 1769 0026 01       		.byte	0x1
 1770 0027 06       		.byte	0x6
 1771 0028 41030000 		.4byte	.LASF0
 1772 002c 03       		.uleb128 0x3
 1773 002d 53060000 		.4byte	.LASF5
 1774 0031 02       		.byte	0x2
ARM GAS  G:\Users\Jaxb\AppData\Local\Temp\cc02ucHi.s 			page 46


 1775 0032 2B       		.byte	0x2b
 1776 0033 37000000 		.4byte	0x37
 1777 0037 02       		.uleb128 0x2
 1778 0038 01       		.byte	0x1
 1779 0039 08       		.byte	0x8
 1780 003a 1F030000 		.4byte	.LASF1
 1781 003e 02       		.uleb128 0x2
 1782 003f 02       		.byte	0x2
 1783 0040 05       		.byte	0x5
 1784 0041 5B010000 		.4byte	.LASF2
 1785 0045 02       		.uleb128 0x2
 1786 0046 02       		.byte	0x2
 1787 0047 07       		.byte	0x7
 1788 0048 C9030000 		.4byte	.LASF3
 1789 004c 02       		.uleb128 0x2
 1790 004d 04       		.byte	0x4
 1791 004e 05       		.byte	0x5
 1792 004f 72020000 		.4byte	.LASF4
 1793 0053 03       		.uleb128 0x3
 1794 0054 A2040000 		.4byte	.LASF6
 1795 0058 02       		.byte	0x2
 1796 0059 4F       		.byte	0x4f
 1797 005a 5E000000 		.4byte	0x5e
 1798 005e 02       		.uleb128 0x2
 1799 005f 04       		.byte	0x4
 1800 0060 07       		.byte	0x7
 1801 0061 54040000 		.4byte	.LASF7
 1802 0065 02       		.uleb128 0x2
 1803 0066 08       		.byte	0x8
 1804 0067 05       		.byte	0x5
 1805 0068 DF000000 		.4byte	.LASF8
 1806 006c 02       		.uleb128 0x2
 1807 006d 08       		.byte	0x8
 1808 006e 07       		.byte	0x7
 1809 006f 4D030000 		.4byte	.LASF9
 1810 0073 04       		.uleb128 0x4
 1811 0074 04       		.byte	0x4
 1812 0075 05       		.byte	0x5
 1813 0076 696E7400 		.ascii	"int\000"
 1814 007a 05       		.uleb128 0x5
 1815 007b 73000000 		.4byte	0x73
 1816 007f 02       		.uleb128 0x2
 1817 0080 04       		.byte	0x4
 1818 0081 07       		.byte	0x7
 1819 0082 81030000 		.4byte	.LASF10
 1820 0086 03       		.uleb128 0x3
 1821 0087 89010000 		.4byte	.LASF11
 1822 008b 03       		.byte	0x3
 1823 008c 18       		.byte	0x18
 1824 008d 2C000000 		.4byte	0x2c
 1825 0091 03       		.uleb128 0x3
 1826 0092 64030000 		.4byte	.LASF12
 1827 0096 03       		.byte	0x3
 1828 0097 30       		.byte	0x30
 1829 0098 53000000 		.4byte	0x53
 1830 009c 05       		.uleb128 0x5
 1831 009d 91000000 		.4byte	0x91
ARM GAS  G:\Users\Jaxb\AppData\Local\Temp\cc02ucHi.s 			page 47


 1832 00a1 06       		.uleb128 0x6
 1833 00a2 9C000000 		.4byte	0x9c
 1834 00a6 07       		.uleb128 0x7
 1835 00a7 19060000 		.4byte	.LASF13
 1836 00ab 04       		.byte	0x4
 1837 00ac CE06     		.2byte	0x6ce
 1838 00ae 7A000000 		.4byte	0x7a
 1839 00b2 01       		.byte	0x1
 1840 00b3 01       		.byte	0x1
 1841 00b4 08       		.uleb128 0x8
 1842 00b5 0E040000 		.4byte	.LASF14
 1843 00b9 05       		.byte	0x5
 1844 00ba 35       		.byte	0x35
 1845 00bb 91000000 		.4byte	0x91
 1846 00bf 01       		.byte	0x1
 1847 00c0 01       		.byte	0x1
 1848 00c1 09       		.uleb128 0x9
 1849 00c2 07       		.byte	0x7
 1850 00c3 01       		.byte	0x1
 1851 00c4 37000000 		.4byte	0x37
 1852 00c8 06       		.byte	0x6
 1853 00c9 0702     		.2byte	0x207
 1854 00cb DC000000 		.4byte	0xdc
 1855 00cf 0A       		.uleb128 0xa
 1856 00d0 EE040000 		.4byte	.LASF15
 1857 00d4 00       		.byte	0
 1858 00d5 0B       		.uleb128 0xb
 1859 00d6 53455400 		.ascii	"SET\000"
 1860 00da 01       		.byte	0x1
 1861 00db 00       		.byte	0
 1862 00dc 0C       		.uleb128 0xc
 1863 00dd 41060000 		.4byte	.LASF16
 1864 00e1 06       		.byte	0x6
 1865 00e2 0702     		.2byte	0x207
 1866 00e4 C1000000 		.4byte	0xc1
 1867 00e8 0C       		.uleb128 0xc
 1868 00e9 20000000 		.4byte	.LASF17
 1869 00ed 06       		.byte	0x6
 1870 00ee 0702     		.2byte	0x207
 1871 00f0 C1000000 		.4byte	0xc1
 1872 00f4 09       		.uleb128 0x9
 1873 00f5 07       		.byte	0x7
 1874 00f6 01       		.byte	0x1
 1875 00f7 37000000 		.4byte	0x37
 1876 00fb 06       		.byte	0x6
 1877 00fc 0902     		.2byte	0x209
 1878 00fe 0F010000 		.4byte	0x10f
 1879 0102 0A       		.uleb128 0xa
 1880 0103 CC010000 		.4byte	.LASF18
 1881 0107 00       		.byte	0
 1882 0108 0A       		.uleb128 0xa
 1883 0109 4C060000 		.4byte	.LASF19
 1884 010d 01       		.byte	0x1
 1885 010e 00       		.byte	0
 1886 010f 0C       		.uleb128 0xc
 1887 0110 92040000 		.4byte	.LASF20
 1888 0114 06       		.byte	0x6
ARM GAS  G:\Users\Jaxb\AppData\Local\Temp\cc02ucHi.s 			page 48


 1889 0115 0902     		.2byte	0x209
 1890 0117 F4000000 		.4byte	0xf4
 1891 011b 0D       		.uleb128 0xd
 1892 011c 91000000 		.4byte	0x91
 1893 0120 2B010000 		.4byte	0x12b
 1894 0124 0E       		.uleb128 0xe
 1895 0125 7F000000 		.4byte	0x7f
 1896 0129 01       		.byte	0x1
 1897 012a 00       		.byte	0
 1898 012b 0F       		.uleb128 0xf
 1899 012c 84       		.byte	0x84
 1900 012d 06       		.byte	0x6
 1901 012e 6C04     		.2byte	0x46c
 1902 0130 62020000 		.4byte	0x262
 1903 0134 10       		.uleb128 0x10
 1904 0135 97010000 		.4byte	.LASF21
 1905 0139 06       		.byte	0x6
 1906 013a 6E04     		.2byte	0x46e
 1907 013c 9C000000 		.4byte	0x9c
 1908 0140 02       		.byte	0x2
 1909 0141 23       		.byte	0x23
 1910 0142 00       		.uleb128 0
 1911 0143 10       		.uleb128 0x10
 1912 0144 8C040000 		.4byte	.LASF22
 1913 0148 06       		.byte	0x6
 1914 0149 6F04     		.2byte	0x46f
 1915 014b 9C000000 		.4byte	0x9c
 1916 014f 02       		.byte	0x2
 1917 0150 23       		.byte	0x23
 1918 0151 04       		.uleb128 0x4
 1919 0152 11       		.uleb128 0x11
 1920 0153 41524700 		.ascii	"ARG\000"
 1921 0157 06       		.byte	0x6
 1922 0158 7004     		.2byte	0x470
 1923 015a 9C000000 		.4byte	0x9c
 1924 015e 02       		.byte	0x2
 1925 015f 23       		.byte	0x23
 1926 0160 08       		.uleb128 0x8
 1927 0161 11       		.uleb128 0x11
 1928 0162 434D4400 		.ascii	"CMD\000"
 1929 0166 06       		.byte	0x6
 1930 0167 7104     		.2byte	0x471
 1931 0169 9C000000 		.4byte	0x9c
 1932 016d 02       		.byte	0x2
 1933 016e 23       		.byte	0x23
 1934 016f 0C       		.uleb128 0xc
 1935 0170 10       		.uleb128 0x10
 1936 0171 26060000 		.4byte	.LASF23
 1937 0175 06       		.byte	0x6
 1938 0176 7204     		.2byte	0x472
 1939 0178 A1000000 		.4byte	0xa1
 1940 017c 02       		.byte	0x2
 1941 017d 23       		.byte	0x23
 1942 017e 10       		.uleb128 0x10
 1943 017f 10       		.uleb128 0x10
 1944 0180 DC030000 		.4byte	.LASF24
 1945 0184 06       		.byte	0x6
ARM GAS  G:\Users\Jaxb\AppData\Local\Temp\cc02ucHi.s 			page 49


 1946 0185 7304     		.2byte	0x473
 1947 0187 A1000000 		.4byte	0xa1
 1948 018b 02       		.byte	0x2
 1949 018c 23       		.byte	0x23
 1950 018d 14       		.uleb128 0x14
 1951 018e 10       		.uleb128 0x10
 1952 018f E2030000 		.4byte	.LASF25
 1953 0193 06       		.byte	0x6
 1954 0194 7404     		.2byte	0x474
 1955 0196 A1000000 		.4byte	0xa1
 1956 019a 02       		.byte	0x2
 1957 019b 23       		.byte	0x23
 1958 019c 18       		.uleb128 0x18
 1959 019d 10       		.uleb128 0x10
 1960 019e E8030000 		.4byte	.LASF26
 1961 01a2 06       		.byte	0x6
 1962 01a3 7504     		.2byte	0x475
 1963 01a5 A1000000 		.4byte	0xa1
 1964 01a9 02       		.byte	0x2
 1965 01aa 23       		.byte	0x23
 1966 01ab 1C       		.uleb128 0x1c
 1967 01ac 10       		.uleb128 0x10
 1968 01ad EE030000 		.4byte	.LASF27
 1969 01b1 06       		.byte	0x6
 1970 01b2 7604     		.2byte	0x476
 1971 01b4 A1000000 		.4byte	0xa1
 1972 01b8 02       		.byte	0x2
 1973 01b9 23       		.byte	0x23
 1974 01ba 20       		.uleb128 0x20
 1975 01bb 10       		.uleb128 0x10
 1976 01bc 29000000 		.4byte	.LASF28
 1977 01c0 06       		.byte	0x6
 1978 01c1 7704     		.2byte	0x477
 1979 01c3 9C000000 		.4byte	0x9c
 1980 01c7 02       		.byte	0x2
 1981 01c8 23       		.byte	0x23
 1982 01c9 24       		.uleb128 0x24
 1983 01ca 10       		.uleb128 0x10
 1984 01cb 84010000 		.4byte	.LASF29
 1985 01cf 06       		.byte	0x6
 1986 01d0 7804     		.2byte	0x478
 1987 01d2 9C000000 		.4byte	0x9c
 1988 01d6 02       		.byte	0x2
 1989 01d7 23       		.byte	0x23
 1990 01d8 28       		.uleb128 0x28
 1991 01d9 10       		.uleb128 0x10
 1992 01da 91010000 		.4byte	.LASF30
 1993 01de 06       		.byte	0x6
 1994 01df 7904     		.2byte	0x479
 1995 01e1 9C000000 		.4byte	0x9c
 1996 01e5 02       		.byte	0x2
 1997 01e6 23       		.byte	0x23
 1998 01e7 2C       		.uleb128 0x2c
 1999 01e8 10       		.uleb128 0x10
 2000 01e9 C7000000 		.4byte	.LASF31
 2001 01ed 06       		.byte	0x6
 2002 01ee 7A04     		.2byte	0x47a
ARM GAS  G:\Users\Jaxb\AppData\Local\Temp\cc02ucHi.s 			page 50


 2003 01f0 A1000000 		.4byte	0xa1
 2004 01f4 02       		.byte	0x2
 2005 01f5 23       		.byte	0x23
 2006 01f6 30       		.uleb128 0x30
 2007 01f7 11       		.uleb128 0x11
 2008 01f8 53544100 		.ascii	"STA\000"
 2009 01fc 06       		.byte	0x6
 2010 01fd 7B04     		.2byte	0x47b
 2011 01ff A1000000 		.4byte	0xa1
 2012 0203 02       		.byte	0x2
 2013 0204 23       		.byte	0x23
 2014 0205 34       		.uleb128 0x34
 2015 0206 11       		.uleb128 0x11
 2016 0207 49435200 		.ascii	"ICR\000"
 2017 020b 06       		.byte	0x6
 2018 020c 7C04     		.2byte	0x47c
 2019 020e 9C000000 		.4byte	0x9c
 2020 0212 02       		.byte	0x2
 2021 0213 23       		.byte	0x23
 2022 0214 38       		.uleb128 0x38
 2023 0215 10       		.uleb128 0x10
 2024 0216 8E030000 		.4byte	.LASF32
 2025 021a 06       		.byte	0x6
 2026 021b 7D04     		.2byte	0x47d
 2027 021d 9C000000 		.4byte	0x9c
 2028 0221 02       		.byte	0x2
 2029 0222 23       		.byte	0x23
 2030 0223 3C       		.uleb128 0x3c
 2031 0224 10       		.uleb128 0x10
 2032 0225 40040000 		.4byte	.LASF33
 2033 0229 06       		.byte	0x6
 2034 022a 7E04     		.2byte	0x47e
 2035 022c 1B010000 		.4byte	0x11b
 2036 0230 02       		.byte	0x2
 2037 0231 23       		.byte	0x23
 2038 0232 40       		.uleb128 0x40
 2039 0233 10       		.uleb128 0x10
 2040 0234 07060000 		.4byte	.LASF34
 2041 0238 06       		.byte	0x6
 2042 0239 7F04     		.2byte	0x47f
 2043 023b A1000000 		.4byte	0xa1
 2044 023f 02       		.byte	0x2
 2045 0240 23       		.byte	0x23
 2046 0241 48       		.uleb128 0x48
 2047 0242 10       		.uleb128 0x10
 2048 0243 4A040000 		.4byte	.LASF35
 2049 0247 06       		.byte	0x6
 2050 0248 8004     		.2byte	0x480
 2051 024a 62020000 		.4byte	0x262
 2052 024e 02       		.byte	0x2
 2053 024f 23       		.byte	0x23
 2054 0250 4C       		.uleb128 0x4c
 2055 0251 10       		.uleb128 0x10
 2056 0252 EF020000 		.4byte	.LASF36
 2057 0256 06       		.byte	0x6
 2058 0257 8104     		.2byte	0x481
 2059 0259 9C000000 		.4byte	0x9c
ARM GAS  G:\Users\Jaxb\AppData\Local\Temp\cc02ucHi.s 			page 51


 2060 025d 03       		.byte	0x3
 2061 025e 23       		.byte	0x23
 2062 025f 8001     		.uleb128 0x80
 2063 0261 00       		.byte	0
 2064 0262 0D       		.uleb128 0xd
 2065 0263 91000000 		.4byte	0x91
 2066 0267 72020000 		.4byte	0x272
 2067 026b 0E       		.uleb128 0xe
 2068 026c 7F000000 		.4byte	0x7f
 2069 0270 0C       		.byte	0xc
 2070 0271 00       		.byte	0
 2071 0272 0C       		.uleb128 0xc
 2072 0273 93030000 		.4byte	.LASF37
 2073 0277 06       		.byte	0x6
 2074 0278 8204     		.2byte	0x482
 2075 027a 2B010000 		.4byte	0x12b
 2076 027e 12       		.uleb128 0x12
 2077 027f 18       		.byte	0x18
 2078 0280 07       		.byte	0x7
 2079 0281 2E       		.byte	0x2e
 2080 0282 DB020000 		.4byte	0x2db
 2081 0286 13       		.uleb128 0x13
 2082 0287 00000000 		.4byte	.LASF38
 2083 028b 07       		.byte	0x7
 2084 028c 30       		.byte	0x30
 2085 028d 91000000 		.4byte	0x91
 2086 0291 02       		.byte	0x2
 2087 0292 23       		.byte	0x23
 2088 0293 00       		.uleb128 0
 2089 0294 13       		.uleb128 0x13
 2090 0295 0F000000 		.4byte	.LASF39
 2091 0299 07       		.byte	0x7
 2092 029a 33       		.byte	0x33
 2093 029b 91000000 		.4byte	0x91
 2094 029f 02       		.byte	0x2
 2095 02a0 23       		.byte	0x23
 2096 02a1 04       		.uleb128 0x4
 2097 02a2 13       		.uleb128 0x13
 2098 02a3 DB020000 		.4byte	.LASF40
 2099 02a7 07       		.byte	0x7
 2100 02a8 37       		.byte	0x37
 2101 02a9 91000000 		.4byte	0x91
 2102 02ad 02       		.byte	0x2
 2103 02ae 23       		.byte	0x23
 2104 02af 08       		.uleb128 0x8
 2105 02b0 13       		.uleb128 0x13
 2106 02b1 65010000 		.4byte	.LASF41
 2107 02b5 07       		.byte	0x7
 2108 02b6 3B       		.byte	0x3b
 2109 02b7 91000000 		.4byte	0x91
 2110 02bb 02       		.byte	0x2
 2111 02bc 23       		.byte	0x23
 2112 02bd 0C       		.uleb128 0xc
 2113 02be 13       		.uleb128 0x13
 2114 02bf 42010000 		.4byte	.LASF42
 2115 02c3 07       		.byte	0x7
 2116 02c4 3E       		.byte	0x3e
ARM GAS  G:\Users\Jaxb\AppData\Local\Temp\cc02ucHi.s 			page 52


 2117 02c5 91000000 		.4byte	0x91
 2118 02c9 02       		.byte	0x2
 2119 02ca 23       		.byte	0x23
 2120 02cb 10       		.uleb128 0x10
 2121 02cc 13       		.uleb128 0x13
 2122 02cd BE010000 		.4byte	.LASF43
 2123 02d1 07       		.byte	0x7
 2124 02d2 41       		.byte	0x41
 2125 02d3 86000000 		.4byte	0x86
 2126 02d7 02       		.byte	0x2
 2127 02d8 23       		.byte	0x23
 2128 02d9 14       		.uleb128 0x14
 2129 02da 00       		.byte	0
 2130 02db 03       		.uleb128 0x3
 2131 02dc 30000000 		.4byte	.LASF44
 2132 02e0 07       		.byte	0x7
 2133 02e1 44       		.byte	0x44
 2134 02e2 7E020000 		.4byte	0x27e
 2135 02e6 12       		.uleb128 0x12
 2136 02e7 14       		.byte	0x14
 2137 02e8 07       		.byte	0x7
 2138 02e9 46       		.byte	0x46
 2139 02ea 35030000 		.4byte	0x335
 2140 02ee 13       		.uleb128 0x13
 2141 02ef 90000000 		.4byte	.LASF45
 2142 02f3 07       		.byte	0x7
 2143 02f4 48       		.byte	0x48
 2144 02f5 91000000 		.4byte	0x91
 2145 02f9 02       		.byte	0x2
 2146 02fa 23       		.byte	0x23
 2147 02fb 00       		.uleb128 0
 2148 02fc 13       		.uleb128 0x13
 2149 02fd 41000000 		.4byte	.LASF46
 2150 0301 07       		.byte	0x7
 2151 0302 4D       		.byte	0x4d
 2152 0303 91000000 		.4byte	0x91
 2153 0307 02       		.byte	0x2
 2154 0308 23       		.byte	0x23
 2155 0309 04       		.uleb128 0x4
 2156 030a 13       		.uleb128 0x13
 2157 030b 92020000 		.4byte	.LASF47
 2158 030f 07       		.byte	0x7
 2159 0310 4F       		.byte	0x4f
 2160 0311 91000000 		.4byte	0x91
 2161 0315 02       		.byte	0x2
 2162 0316 23       		.byte	0x23
 2163 0317 08       		.uleb128 0x8
 2164 0318 13       		.uleb128 0x13
 2165 0319 FF000000 		.4byte	.LASF48
 2166 031d 07       		.byte	0x7
 2167 031e 52       		.byte	0x52
 2168 031f 91000000 		.4byte	0x91
 2169 0323 02       		.byte	0x2
 2170 0324 23       		.byte	0x23
 2171 0325 0C       		.uleb128 0xc
 2172 0326 13       		.uleb128 0x13
 2173 0327 0F060000 		.4byte	.LASF49
ARM GAS  G:\Users\Jaxb\AppData\Local\Temp\cc02ucHi.s 			page 53


 2174 032b 07       		.byte	0x7
 2175 032c 55       		.byte	0x55
 2176 032d 91000000 		.4byte	0x91
 2177 0331 02       		.byte	0x2
 2178 0332 23       		.byte	0x23
 2179 0333 10       		.uleb128 0x10
 2180 0334 00       		.byte	0
 2181 0335 03       		.uleb128 0x3
 2182 0336 DA040000 		.4byte	.LASF50
 2183 033a 07       		.byte	0x7
 2184 033b 58       		.byte	0x58
 2185 033c E6020000 		.4byte	0x2e6
 2186 0340 12       		.uleb128 0x12
 2187 0341 18       		.byte	0x18
 2188 0342 07       		.byte	0x7
 2189 0343 5A       		.byte	0x5a
 2190 0344 9D030000 		.4byte	0x39d
 2191 0348 13       		.uleb128 0x13
 2192 0349 E7010000 		.4byte	.LASF51
 2193 034d 07       		.byte	0x7
 2194 034e 5C       		.byte	0x5c
 2195 034f 91000000 		.4byte	0x91
 2196 0353 02       		.byte	0x2
 2197 0354 23       		.byte	0x23
 2198 0355 00       		.uleb128 0
 2199 0356 13       		.uleb128 0x13
 2200 0357 30040000 		.4byte	.LASF52
 2201 035b 07       		.byte	0x7
 2202 035c 5E       		.byte	0x5e
 2203 035d 91000000 		.4byte	0x91
 2204 0361 02       		.byte	0x2
 2205 0362 23       		.byte	0x23
 2206 0363 04       		.uleb128 0x4
 2207 0364 13       		.uleb128 0x13
 2208 0365 B4000000 		.4byte	.LASF53
 2209 0369 07       		.byte	0x7
 2210 036a 60       		.byte	0x60
 2211 036b 91000000 		.4byte	0x91
 2212 036f 02       		.byte	0x2
 2213 0370 23       		.byte	0x23
 2214 0371 08       		.uleb128 0x8
 2215 0372 13       		.uleb128 0x13
 2216 0373 26020000 		.4byte	.LASF54
 2217 0377 07       		.byte	0x7
 2218 0378 63       		.byte	0x63
 2219 0379 91000000 		.4byte	0x91
 2220 037d 02       		.byte	0x2
 2221 037e 23       		.byte	0x23
 2222 037f 0C       		.uleb128 0xc
 2223 0380 13       		.uleb128 0x13
 2224 0381 5D060000 		.4byte	.LASF55
 2225 0385 07       		.byte	0x7
 2226 0386 67       		.byte	0x67
 2227 0387 91000000 		.4byte	0x91
 2228 038b 02       		.byte	0x2
 2229 038c 23       		.byte	0x23
 2230 038d 10       		.uleb128 0x10
ARM GAS  G:\Users\Jaxb\AppData\Local\Temp\cc02ucHi.s 			page 54


 2231 038e 13       		.uleb128 0x13
 2232 038f 38010000 		.4byte	.LASF56
 2233 0393 07       		.byte	0x7
 2234 0394 6A       		.byte	0x6a
 2235 0395 91000000 		.4byte	0x91
 2236 0399 02       		.byte	0x2
 2237 039a 23       		.byte	0x23
 2238 039b 14       		.uleb128 0x14
 2239 039c 00       		.byte	0
 2240 039d 03       		.uleb128 0x3
 2241 039e 3D050000 		.4byte	.LASF57
 2242 03a2 07       		.byte	0x7
 2243 03a3 6D       		.byte	0x6d
 2244 03a4 40030000 		.4byte	0x340
 2245 03a8 14       		.uleb128 0x14
 2246 03a9 01       		.byte	0x1
 2247 03aa 7B020000 		.4byte	.LASF59
 2248 03ae 01       		.byte	0x1
 2249 03af 0B03     		.2byte	0x30b
 2250 03b1 01       		.byte	0x1
 2251 03b2 E8040000 		.4byte	.LFB58
 2252 03b6 04050000 		.4byte	.LFE58
 2253 03ba 00000000 		.4byte	.LLST29
 2254 03be 01       		.byte	0x1
 2255 03bf D3030000 		.4byte	0x3d3
 2256 03c3 15       		.uleb128 0x15
 2257 03c4 17030000 		.4byte	.LASF58
 2258 03c8 01       		.byte	0x1
 2259 03c9 0B03     		.2byte	0x30b
 2260 03cb 91000000 		.4byte	0x91
 2261 03cf 02       		.byte	0x2
 2262 03d0 91       		.byte	0x91
 2263 03d1 74       		.sleb128 -12
 2264 03d2 00       		.byte	0
 2265 03d3 16       		.uleb128 0x16
 2266 03d4 01       		.byte	0x1
 2267 03d5 CE000000 		.4byte	.LASF62
 2268 03d9 01       		.byte	0x1
 2269 03da E702     		.2byte	0x2e7
 2270 03dc 01       		.byte	0x1
 2271 03dd E8000000 		.4byte	0xe8
 2272 03e1 B4040000 		.4byte	.LFB57
 2273 03e5 E8040000 		.4byte	.LFE57
 2274 03e9 5C000000 		.4byte	.LLST28
 2275 03ed 01       		.byte	0x1
 2276 03ee 11040000 		.4byte	0x411
 2277 03f2 15       		.uleb128 0x15
 2278 03f3 17030000 		.4byte	.LASF58
 2279 03f7 01       		.byte	0x1
 2280 03f8 E702     		.2byte	0x2e7
 2281 03fa 91000000 		.4byte	0x91
 2282 03fe 02       		.byte	0x2
 2283 03ff 91       		.byte	0x91
 2284 0400 6C       		.sleb128 -20
 2285 0401 17       		.uleb128 0x17
 2286 0402 CC020000 		.4byte	.LASF64
 2287 0406 01       		.byte	0x1
ARM GAS  G:\Users\Jaxb\AppData\Local\Temp\cc02ucHi.s 			page 55


 2288 0407 E902     		.2byte	0x2e9
 2289 0409 E8000000 		.4byte	0xe8
 2290 040d 02       		.byte	0x2
 2291 040e 91       		.byte	0x91
 2292 040f 77       		.sleb128 -9
 2293 0410 00       		.byte	0
 2294 0411 14       		.uleb128 0x14
 2295 0412 01       		.byte	0x1
 2296 0413 52050000 		.4byte	.LASF60
 2297 0417 01       		.byte	0x1
 2298 0418 C002     		.2byte	0x2c0
 2299 041a 01       		.byte	0x1
 2300 041b 98040000 		.4byte	.LFB56
 2301 041f B4040000 		.4byte	.LFE56
 2302 0423 B8000000 		.4byte	.LLST27
 2303 0427 01       		.byte	0x1
 2304 0428 3C040000 		.4byte	0x43c
 2305 042c 15       		.uleb128 0x15
 2306 042d 04040000 		.4byte	.LASF61
 2307 0431 01       		.byte	0x1
 2308 0432 C002     		.2byte	0x2c0
 2309 0434 91000000 		.4byte	0x91
 2310 0438 02       		.byte	0x2
 2311 0439 91       		.byte	0x91
 2312 043a 74       		.sleb128 -12
 2313 043b 00       		.byte	0
 2314 043c 16       		.uleb128 0x16
 2315 043d 01       		.byte	0x1
 2316 043e 2E060000 		.4byte	.LASF63
 2317 0442 01       		.byte	0x1
 2318 0443 9A02     		.2byte	0x29a
 2319 0445 01       		.byte	0x1
 2320 0446 DC000000 		.4byte	0xdc
 2321 044a 64040000 		.4byte	.LFB55
 2322 044e 98040000 		.4byte	.LFE55
 2323 0452 14010000 		.4byte	.LLST26
 2324 0456 01       		.byte	0x1
 2325 0457 7A040000 		.4byte	0x47a
 2326 045b 15       		.uleb128 0x15
 2327 045c 04040000 		.4byte	.LASF61
 2328 0460 01       		.byte	0x1
 2329 0461 9A02     		.2byte	0x29a
 2330 0463 91000000 		.4byte	0x91
 2331 0467 02       		.byte	0x2
 2332 0468 91       		.byte	0x91
 2333 0469 6C       		.sleb128 -20
 2334 046a 17       		.uleb128 0x17
 2335 046b CC020000 		.4byte	.LASF64
 2336 046f 01       		.byte	0x1
 2337 0470 9C02     		.2byte	0x29c
 2338 0472 DC000000 		.4byte	0xdc
 2339 0476 02       		.byte	0x2
 2340 0477 91       		.byte	0x91
 2341 0478 77       		.sleb128 -9
 2342 0479 00       		.byte	0
 2343 047a 14       		.uleb128 0x14
 2344 047b 01       		.byte	0x1
ARM GAS  G:\Users\Jaxb\AppData\Local\Temp\cc02ucHi.s 			page 56


 2345 047c 1E040000 		.4byte	.LASF65
 2346 0480 01       		.byte	0x1
 2347 0481 7302     		.2byte	0x273
 2348 0483 01       		.byte	0x1
 2349 0484 44040000 		.4byte	.LFB54
 2350 0488 64040000 		.4byte	.LFE54
 2351 048c 70010000 		.4byte	.LLST25
 2352 0490 01       		.byte	0x1
 2353 0491 A5040000 		.4byte	0x4a5
 2354 0495 15       		.uleb128 0x15
 2355 0496 B5010000 		.4byte	.LASF66
 2356 049a 01       		.byte	0x1
 2357 049b 7302     		.2byte	0x273
 2358 049d 0F010000 		.4byte	0x10f
 2359 04a1 02       		.byte	0x2
 2360 04a2 91       		.byte	0x91
 2361 04a3 77       		.sleb128 -9
 2362 04a4 00       		.byte	0
 2363 04a5 14       		.uleb128 0x14
 2364 04a6 01       		.byte	0x1
 2365 04a7 F4030000 		.4byte	.LASF67
 2366 04ab 01       		.byte	0x1
 2367 04ac 6602     		.2byte	0x266
 2368 04ae 01       		.byte	0x1
 2369 04af 18040000 		.4byte	.LFB53
 2370 04b3 44040000 		.4byte	.LFE53
 2371 04b7 CC010000 		.4byte	.LLST24
 2372 04bb 01       		.byte	0x1
 2373 04bc D0040000 		.4byte	0x4d0
 2374 04c0 15       		.uleb128 0x15
 2375 04c1 B5010000 		.4byte	.LASF66
 2376 04c5 01       		.byte	0x1
 2377 04c6 6602     		.2byte	0x266
 2378 04c8 0F010000 		.4byte	0x10f
 2379 04cc 02       		.byte	0x2
 2380 04cd 91       		.byte	0x91
 2381 04ce 77       		.sleb128 -9
 2382 04cf 00       		.byte	0
 2383 04d0 14       		.uleb128 0x14
 2384 04d1 01       		.byte	0x1
 2385 04d2 C0040000 		.4byte	.LASF68
 2386 04d6 01       		.byte	0x1
 2387 04d7 5902     		.2byte	0x259
 2388 04d9 01       		.byte	0x1
 2389 04da F8030000 		.4byte	.LFB52
 2390 04de 18040000 		.4byte	.LFE52
 2391 04e2 28020000 		.4byte	.LLST23
 2392 04e6 01       		.byte	0x1
 2393 04e7 FB040000 		.4byte	0x4fb
 2394 04eb 15       		.uleb128 0x15
 2395 04ec B5010000 		.4byte	.LASF66
 2396 04f0 01       		.byte	0x1
 2397 04f1 5902     		.2byte	0x259
 2398 04f3 0F010000 		.4byte	0x10f
 2399 04f7 02       		.byte	0x2
 2400 04f8 91       		.byte	0x91
 2401 04f9 77       		.sleb128 -9
ARM GAS  G:\Users\Jaxb\AppData\Local\Temp\cc02ucHi.s 			page 57


 2402 04fa 00       		.byte	0
 2403 04fb 14       		.uleb128 0x14
 2404 04fc 01       		.byte	0x1
 2405 04fd 78000000 		.4byte	.LASF69
 2406 0501 01       		.byte	0x1
 2407 0502 4B02     		.2byte	0x24b
 2408 0504 01       		.byte	0x1
 2409 0505 D8030000 		.4byte	.LFB51
 2410 0509 F8030000 		.4byte	.LFE51
 2411 050d 84020000 		.4byte	.LLST22
 2412 0511 01       		.byte	0x1
 2413 0512 26050000 		.4byte	0x526
 2414 0516 15       		.uleb128 0x15
 2415 0517 B5010000 		.4byte	.LASF66
 2416 051b 01       		.byte	0x1
 2417 051c 4B02     		.2byte	0x24b
 2418 051e 0F010000 		.4byte	0x10f
 2419 0522 02       		.byte	0x2
 2420 0523 91       		.byte	0x91
 2421 0524 77       		.sleb128 -9
 2422 0525 00       		.byte	0
 2423 0526 14       		.uleb128 0x14
 2424 0527 01       		.byte	0x1
 2425 0528 9E000000 		.4byte	.LASF70
 2426 052c 01       		.byte	0x1
 2427 052d 3D02     		.2byte	0x23d
 2428 052f 01       		.byte	0x1
 2429 0530 B8030000 		.4byte	.LFB50
 2430 0534 D8030000 		.4byte	.LFE50
 2431 0538 E0020000 		.4byte	.LLST21
 2432 053c 01       		.byte	0x1
 2433 053d 51050000 		.4byte	0x551
 2434 0541 15       		.uleb128 0x15
 2435 0542 B5010000 		.4byte	.LASF66
 2436 0546 01       		.byte	0x1
 2437 0547 3D02     		.2byte	0x23d
 2438 0549 0F010000 		.4byte	0x10f
 2439 054d 02       		.byte	0x2
 2440 054e 91       		.byte	0x91
 2441 054f 77       		.sleb128 -9
 2442 0550 00       		.byte	0
 2443 0551 14       		.uleb128 0x14
 2444 0552 01       		.byte	0x1
 2445 0553 09010000 		.4byte	.LASF71
 2446 0557 01       		.byte	0x1
 2447 0558 2F02     		.2byte	0x22f
 2448 055a 01       		.byte	0x1
 2449 055b 9C030000 		.4byte	.LFB49
 2450 055f B8030000 		.4byte	.LFE49
 2451 0563 3C030000 		.4byte	.LLST20
 2452 0567 01       		.byte	0x1
 2453 0568 7C050000 		.4byte	0x57c
 2454 056c 15       		.uleb128 0x15
 2455 056d ED000000 		.4byte	.LASF72
 2456 0571 01       		.byte	0x1
 2457 0572 2F02     		.2byte	0x22f
 2458 0574 91000000 		.4byte	0x91
ARM GAS  G:\Users\Jaxb\AppData\Local\Temp\cc02ucHi.s 			page 58


 2459 0578 02       		.byte	0x2
 2460 0579 91       		.byte	0x91
 2461 057a 74       		.sleb128 -12
 2462 057b 00       		.byte	0
 2463 057c 14       		.uleb128 0x14
 2464 057d 01       		.byte	0x1
 2465 057e 22010000 		.4byte	.LASF73
 2466 0582 01       		.byte	0x1
 2467 0583 1F02     		.2byte	0x21f
 2468 0585 01       		.byte	0x1
 2469 0586 7C030000 		.4byte	.LFB48
 2470 058a 9C030000 		.4byte	.LFE48
 2471 058e 98030000 		.4byte	.LLST19
 2472 0592 01       		.byte	0x1
 2473 0593 A7050000 		.4byte	0x5a7
 2474 0597 15       		.uleb128 0x15
 2475 0598 B5010000 		.4byte	.LASF66
 2476 059c 01       		.byte	0x1
 2477 059d 1F02     		.2byte	0x21f
 2478 059f 0F010000 		.4byte	0x10f
 2479 05a3 02       		.byte	0x2
 2480 05a4 91       		.byte	0x91
 2481 05a5 77       		.sleb128 -9
 2482 05a6 00       		.byte	0
 2483 05a7 14       		.uleb128 0x14
 2484 05a8 01       		.byte	0x1
 2485 05a9 47020000 		.4byte	.LASF74
 2486 05ad 01       		.byte	0x1
 2487 05ae 1102     		.2byte	0x211
 2488 05b0 01       		.byte	0x1
 2489 05b1 5C030000 		.4byte	.LFB47
 2490 05b5 7C030000 		.4byte	.LFE47
 2491 05b9 F4030000 		.4byte	.LLST18
 2492 05bd 01       		.byte	0x1
 2493 05be D2050000 		.4byte	0x5d2
 2494 05c2 15       		.uleb128 0x15
 2495 05c3 B5010000 		.4byte	.LASF66
 2496 05c7 01       		.byte	0x1
 2497 05c8 1102     		.2byte	0x211
 2498 05ca 0F010000 		.4byte	0x10f
 2499 05ce 02       		.byte	0x2
 2500 05cf 91       		.byte	0x91
 2501 05d0 77       		.sleb128 -9
 2502 05d1 00       		.byte	0
 2503 05d2 18       		.uleb128 0x18
 2504 05d3 01       		.byte	0x1
 2505 05d4 72010000 		.4byte	.LASF77
 2506 05d8 01       		.byte	0x1
 2507 05d9 0602     		.2byte	0x206
 2508 05db 01       		.byte	0x1
 2509 05dc 91000000 		.4byte	0x91
 2510 05e0 48030000 		.4byte	.LFB46
 2511 05e4 5C030000 		.4byte	.LFE46
 2512 05e8 50040000 		.4byte	.LLST17
 2513 05ec 01       		.byte	0x1
 2514 05ed 14       		.uleb128 0x14
 2515 05ee 01       		.byte	0x1
ARM GAS  G:\Users\Jaxb\AppData\Local\Temp\cc02ucHi.s 			page 59


 2516 05ef F4040000 		.4byte	.LASF75
 2517 05f3 01       		.byte	0x1
 2518 05f4 FC01     		.2byte	0x1fc
 2519 05f6 01       		.byte	0x1
 2520 05f7 28030000 		.4byte	.LFB45
 2521 05fb 48030000 		.4byte	.LFE45
 2522 05ff 94040000 		.4byte	.LLST16
 2523 0603 01       		.byte	0x1
 2524 0604 18060000 		.4byte	0x618
 2525 0608 15       		.uleb128 0x15
 2526 0609 D6020000 		.4byte	.LASF76
 2527 060d 01       		.byte	0x1
 2528 060e FC01     		.2byte	0x1fc
 2529 0610 91000000 		.4byte	0x91
 2530 0614 02       		.byte	0x2
 2531 0615 91       		.byte	0x91
 2532 0616 74       		.sleb128 -12
 2533 0617 00       		.byte	0
 2534 0618 18       		.uleb128 0x18
 2535 0619 01       		.byte	0x1
 2536 061a 03050000 		.4byte	.LASF78
 2537 061e 01       		.byte	0x1
 2538 061f F201     		.2byte	0x1f2
 2539 0621 01       		.byte	0x1
 2540 0622 91000000 		.4byte	0x91
 2541 0626 10030000 		.4byte	.LFB44
 2542 062a 28030000 		.4byte	.LFE44
 2543 062e F0040000 		.4byte	.LLST15
 2544 0632 01       		.byte	0x1
 2545 0633 18       		.uleb128 0x18
 2546 0634 01       		.byte	0x1
 2547 0635 5E020000 		.4byte	.LASF79
 2548 0639 01       		.byte	0x1
 2549 063a E801     		.2byte	0x1e8
 2550 063c 01       		.byte	0x1
 2551 063d 91000000 		.4byte	0x91
 2552 0641 FC020000 		.4byte	.LFB43
 2553 0645 10030000 		.4byte	.LFE43
 2554 0649 34050000 		.4byte	.LLST14
 2555 064d 01       		.byte	0x1
 2556 064e 14       		.uleb128 0x14
 2557 064f 01       		.byte	0x1
 2558 0650 6D030000 		.4byte	.LASF80
 2559 0654 01       		.byte	0x1
 2560 0655 D801     		.2byte	0x1d8
 2561 0657 01       		.byte	0x1
 2562 0658 C4020000 		.4byte	.LFB42
 2563 065c FC020000 		.4byte	.LFE42
 2564 0660 78050000 		.4byte	.LLST13
 2565 0664 01       		.byte	0x1
 2566 0665 79060000 		.4byte	0x679
 2567 0669 15       		.uleb128 0x15
 2568 066a 2D030000 		.4byte	.LASF81
 2569 066e 01       		.byte	0x1
 2570 066f D801     		.2byte	0x1d8
 2571 0671 79060000 		.4byte	0x679
 2572 0675 02       		.byte	0x2
ARM GAS  G:\Users\Jaxb\AppData\Local\Temp\cc02ucHi.s 			page 60


 2573 0676 91       		.byte	0x91
 2574 0677 74       		.sleb128 -12
 2575 0678 00       		.byte	0
 2576 0679 19       		.uleb128 0x19
 2577 067a 04       		.byte	0x4
 2578 067b 9D030000 		.4byte	0x39d
 2579 067f 14       		.uleb128 0x14
 2580 0680 01       		.byte	0x1
 2581 0681 FB020000 		.4byte	.LASF82
 2582 0685 01       		.byte	0x1
 2583 0686 AF01     		.2byte	0x1af
 2584 0688 01       		.byte	0x1
 2585 0689 68020000 		.4byte	.LFB41
 2586 068d C4020000 		.4byte	.LFE41
 2587 0691 D4050000 		.4byte	.LLST12
 2588 0695 01       		.byte	0x1
 2589 0696 B9060000 		.4byte	0x6b9
 2590 069a 15       		.uleb128 0x15
 2591 069b 2D030000 		.4byte	.LASF81
 2592 069f 01       		.byte	0x1
 2593 06a0 AF01     		.2byte	0x1af
 2594 06a2 79060000 		.4byte	0x679
 2595 06a6 02       		.byte	0x2
 2596 06a7 91       		.byte	0x91
 2597 06a8 6C       		.sleb128 -20
 2598 06a9 17       		.uleb128 0x17
 2599 06aa F4020000 		.4byte	.LASF83
 2600 06ae 01       		.byte	0x1
 2601 06af B101     		.2byte	0x1b1
 2602 06b1 91000000 		.4byte	0x91
 2603 06b5 02       		.byte	0x2
 2604 06b6 91       		.byte	0x91
 2605 06b7 74       		.sleb128 -12
 2606 06b8 00       		.byte	0
 2607 06b9 16       		.uleb128 0x16
 2608 06ba 01       		.byte	0x1
 2609 06bb A0030000 		.4byte	.LASF84
 2610 06bf 01       		.byte	0x1
 2611 06c0 9C01     		.2byte	0x19c
 2612 06c2 01       		.byte	0x1
 2613 06c3 91000000 		.4byte	0x91
 2614 06c7 40020000 		.4byte	.LFB40
 2615 06cb 68020000 		.4byte	.LFE40
 2616 06cf 30060000 		.4byte	.LLST11
 2617 06d3 01       		.byte	0x1
 2618 06d4 F7060000 		.4byte	0x6f7
 2619 06d8 15       		.uleb128 0x15
 2620 06d9 6E000000 		.4byte	.LASF85
 2621 06dd 01       		.byte	0x1
 2622 06de 9C01     		.2byte	0x19c
 2623 06e0 91000000 		.4byte	0x91
 2624 06e4 02       		.byte	0x2
 2625 06e5 91       		.byte	0x91
 2626 06e6 6C       		.sleb128 -20
 2627 06e7 1A       		.uleb128 0x1a
 2628 06e8 746D7000 		.ascii	"tmp\000"
 2629 06ec 01       		.byte	0x1
ARM GAS  G:\Users\Jaxb\AppData\Local\Temp\cc02ucHi.s 			page 61


 2630 06ed 9E01     		.2byte	0x19e
 2631 06ef 9C000000 		.4byte	0x9c
 2632 06f3 02       		.byte	0x2
 2633 06f4 91       		.byte	0x91
 2634 06f5 74       		.sleb128 -12
 2635 06f6 00       		.byte	0
 2636 06f7 18       		.uleb128 0x18
 2637 06f8 01       		.byte	0x1
 2638 06f9 B1030000 		.4byte	.LASF86
 2639 06fd 01       		.byte	0x1
 2640 06fe 8D01     		.2byte	0x18d
 2641 0700 01       		.byte	0x1
 2642 0701 86000000 		.4byte	0x86
 2643 0705 28020000 		.4byte	.LFB39
 2644 0709 40020000 		.4byte	.LFE39
 2645 070d 8C060000 		.4byte	.LLST10
 2646 0711 01       		.byte	0x1
 2647 0712 14       		.uleb128 0x14
 2648 0713 01       		.byte	0x1
 2649 0714 AD040000 		.4byte	.LASF87
 2650 0718 01       		.byte	0x1
 2651 0719 7E01     		.2byte	0x17e
 2652 071b 01       		.byte	0x1
 2653 071c F8010000 		.4byte	.LFB38
 2654 0720 28020000 		.4byte	.LFE38
 2655 0724 D0060000 		.4byte	.LLST9
 2656 0728 01       		.byte	0x1
 2657 0729 3D070000 		.4byte	0x73d
 2658 072d 15       		.uleb128 0x15
 2659 072e 79040000 		.4byte	.LASF88
 2660 0732 01       		.byte	0x1
 2661 0733 7E01     		.2byte	0x17e
 2662 0735 3D070000 		.4byte	0x73d
 2663 0739 02       		.byte	0x2
 2664 073a 91       		.byte	0x91
 2665 073b 74       		.sleb128 -12
 2666 073c 00       		.byte	0
 2667 073d 19       		.uleb128 0x19
 2668 073e 04       		.byte	0x4
 2669 073f 35030000 		.4byte	0x335
 2670 0743 14       		.uleb128 0x14
 2671 0744 01       		.byte	0x1
 2672 0745 4F000000 		.4byte	.LASF89
 2673 0749 01       		.byte	0x1
 2674 074a 5A01     		.2byte	0x15a
 2675 074c 01       		.byte	0x1
 2676 074d A0010000 		.4byte	.LFB37
 2677 0751 F8010000 		.4byte	.LFE37
 2678 0755 2C070000 		.4byte	.LLST8
 2679 0759 01       		.byte	0x1
 2680 075a 7D070000 		.4byte	0x77d
 2681 075e 15       		.uleb128 0x15
 2682 075f 79040000 		.4byte	.LASF88
 2683 0763 01       		.byte	0x1
 2684 0764 5A01     		.2byte	0x15a
 2685 0766 3D070000 		.4byte	0x73d
 2686 076a 02       		.byte	0x2
ARM GAS  G:\Users\Jaxb\AppData\Local\Temp\cc02ucHi.s 			page 62


 2687 076b 91       		.byte	0x91
 2688 076c 6C       		.sleb128 -20
 2689 076d 17       		.uleb128 0x17
 2690 076e F4020000 		.4byte	.LASF83
 2691 0772 01       		.byte	0x1
 2692 0773 5C01     		.2byte	0x15c
 2693 0775 91000000 		.4byte	0x91
 2694 0779 02       		.byte	0x2
 2695 077a 91       		.byte	0x91
 2696 077b 74       		.sleb128 -12
 2697 077c 00       		.byte	0
 2698 077d 14       		.uleb128 0x14
 2699 077e 01       		.byte	0x1
 2700 077f A0020000 		.4byte	.LASF90
 2701 0783 01       		.byte	0x1
 2702 0784 4B01     		.2byte	0x14b
 2703 0786 01       		.byte	0x1
 2704 0787 80010000 		.4byte	.LFB36
 2705 078b A0010000 		.4byte	.LFE36
 2706 078f 88070000 		.4byte	.LLST7
 2707 0793 01       		.byte	0x1
 2708 0794 A8070000 		.4byte	0x7a8
 2709 0798 15       		.uleb128 0x15
 2710 0799 B5010000 		.4byte	.LASF66
 2711 079d 01       		.byte	0x1
 2712 079e 4B01     		.2byte	0x14b
 2713 07a0 0F010000 		.4byte	0x10f
 2714 07a4 02       		.byte	0x2
 2715 07a5 91       		.byte	0x91
 2716 07a6 77       		.sleb128 -9
 2717 07a7 00       		.byte	0
 2718 07a8 14       		.uleb128 0x14
 2719 07a9 01       		.byte	0x1
 2720 07aa 60000000 		.4byte	.LASF91
 2721 07ae 01       		.byte	0x1
 2722 07af 3301     		.2byte	0x133
 2723 07b1 01       		.byte	0x1
 2724 07b2 44010000 		.4byte	.LFB35
 2725 07b6 80010000 		.4byte	.LFE35
 2726 07ba E4070000 		.4byte	.LLST6
 2727 07be 01       		.byte	0x1
 2728 07bf E2070000 		.4byte	0x7e2
 2729 07c3 15       		.uleb128 0x15
 2730 07c4 17030000 		.4byte	.LASF58
 2731 07c8 01       		.byte	0x1
 2732 07c9 3301     		.2byte	0x133
 2733 07cb 91000000 		.4byte	0x91
 2734 07cf 02       		.byte	0x2
 2735 07d0 91       		.byte	0x91
 2736 07d1 74       		.sleb128 -12
 2737 07d2 15       		.uleb128 0x15
 2738 07d3 B5010000 		.4byte	.LASF66
 2739 07d7 01       		.byte	0x1
 2740 07d8 3301     		.2byte	0x133
 2741 07da 0F010000 		.4byte	0x10f
 2742 07de 02       		.byte	0x2
 2743 07df 91       		.byte	0x91
ARM GAS  G:\Users\Jaxb\AppData\Local\Temp\cc02ucHi.s 			page 63


 2744 07e0 73       		.sleb128 -13
 2745 07e1 00       		.byte	0
 2746 07e2 18       		.uleb128 0x18
 2747 07e3 01       		.byte	0x1
 2748 07e4 D4010000 		.4byte	.LASF92
 2749 07e8 01       		.byte	0x1
 2750 07e9 0D01     		.2byte	0x10d
 2751 07eb 01       		.byte	0x1
 2752 07ec 91000000 		.4byte	0x91
 2753 07f0 2C010000 		.4byte	.LFB34
 2754 07f4 44010000 		.4byte	.LFE34
 2755 07f8 40080000 		.4byte	.LLST5
 2756 07fc 01       		.byte	0x1
 2757 07fd 1B       		.uleb128 0x1b
 2758 07fe 01       		.byte	0x1
 2759 07ff 66040000 		.4byte	.LASF93
 2760 0803 01       		.byte	0x1
 2761 0804 FB       		.byte	0xfb
 2762 0805 01       		.byte	0x1
 2763 0806 FC000000 		.4byte	.LFB33
 2764 080a 2C010000 		.4byte	.LFE33
 2765 080e 84080000 		.4byte	.LLST4
 2766 0812 01       		.byte	0x1
 2767 0813 26080000 		.4byte	0x826
 2768 0817 1C       		.uleb128 0x1c
 2769 0818 AC020000 		.4byte	.LASF94
 2770 081c 01       		.byte	0x1
 2771 081d FB       		.byte	0xfb
 2772 081e 91000000 		.4byte	0x91
 2773 0822 02       		.byte	0x2
 2774 0823 91       		.byte	0x91
 2775 0824 74       		.sleb128 -12
 2776 0825 00       		.byte	0
 2777 0826 1B       		.uleb128 0x1b
 2778 0827 01       		.byte	0x1
 2779 0828 9D010000 		.4byte	.LASF95
 2780 082c 01       		.byte	0x1
 2781 082d EB       		.byte	0xeb
 2782 082e 01       		.byte	0x1
 2783 082f DE000000 		.4byte	.LFB32
 2784 0833 FC000000 		.4byte	.LFE32
 2785 0837 E0080000 		.4byte	.LLST3
 2786 083b 01       		.byte	0x1
 2787 083c 4F080000 		.4byte	0x84f
 2788 0840 1C       		.uleb128 0x1c
 2789 0841 B5010000 		.4byte	.LASF66
 2790 0845 01       		.byte	0x1
 2791 0846 EB       		.byte	0xeb
 2792 0847 0F010000 		.4byte	0x10f
 2793 084b 02       		.byte	0x2
 2794 084c 91       		.byte	0x91
 2795 084d 77       		.sleb128 -9
 2796 084e 00       		.byte	0
 2797 084f 1B       		.uleb128 0x1b
 2798 0850 01       		.byte	0x1
 2799 0851 BC020000 		.4byte	.LASF96
 2800 0855 01       		.byte	0x1
ARM GAS  G:\Users\Jaxb\AppData\Local\Temp\cc02ucHi.s 			page 64


 2801 0856 DB       		.byte	0xdb
 2802 0857 01       		.byte	0x1
 2803 0858 A8000000 		.4byte	.LFB31
 2804 085c DE000000 		.4byte	.LFE31
 2805 0860 3C090000 		.4byte	.LLST2
 2806 0864 01       		.byte	0x1
 2807 0865 78080000 		.4byte	0x878
 2808 0869 1C       		.uleb128 0x1c
 2809 086a 37020000 		.4byte	.LASF97
 2810 086e 01       		.byte	0x1
 2811 086f DB       		.byte	0xdb
 2812 0870 78080000 		.4byte	0x878
 2813 0874 02       		.byte	0x2
 2814 0875 91       		.byte	0x91
 2815 0876 74       		.sleb128 -12
 2816 0877 00       		.byte	0
 2817 0878 19       		.uleb128 0x19
 2818 0879 04       		.byte	0x4
 2819 087a DB020000 		.4byte	0x2db
 2820 087e 1B       		.uleb128 0x1b
 2821 087f 01       		.byte	0x1
 2822 0880 AB010000 		.4byte	.LASF98
 2823 0884 01       		.byte	0x1
 2824 0885 B5       		.byte	0xb5
 2825 0886 01       		.byte	0x1
 2826 0887 4C000000 		.4byte	.LFB30
 2827 088b A8000000 		.4byte	.LFE30
 2828 088f 98090000 		.4byte	.LLST1
 2829 0893 01       		.byte	0x1
 2830 0894 B5080000 		.4byte	0x8b5
 2831 0898 1C       		.uleb128 0x1c
 2832 0899 37020000 		.4byte	.LASF97
 2833 089d 01       		.byte	0x1
 2834 089e B5       		.byte	0xb5
 2835 089f 78080000 		.4byte	0x878
 2836 08a3 02       		.byte	0x2
 2837 08a4 91       		.byte	0x91
 2838 08a5 6C       		.sleb128 -20
 2839 08a6 1D       		.uleb128 0x1d
 2840 08a7 F4020000 		.4byte	.LASF83
 2841 08ab 01       		.byte	0x1
 2842 08ac B7       		.byte	0xb7
 2843 08ad 91000000 		.4byte	0x91
 2844 08b1 02       		.byte	0x2
 2845 08b2 91       		.byte	0x91
 2846 08b3 74       		.sleb128 -12
 2847 08b4 00       		.byte	0
 2848 08b5 1E       		.uleb128 0x1e
 2849 08b6 01       		.byte	0x1
 2850 08b7 0B030000 		.4byte	.LASF102
 2851 08bb 01       		.byte	0x1
 2852 08bc A1       		.byte	0xa1
 2853 08bd 01       		.byte	0x1
 2854 08be 00000000 		.4byte	.LFB29
 2855 08c2 4C000000 		.4byte	.LFE29
 2856 08c6 F4090000 		.4byte	.LLST0
 2857 08ca 01       		.byte	0x1
ARM GAS  G:\Users\Jaxb\AppData\Local\Temp\cc02ucHi.s 			page 65


 2858 08cb 00       		.byte	0
 2859              		.section	.debug_abbrev,"",%progbits
 2860              	.Ldebug_abbrev0:
 2861 0000 01       		.uleb128 0x1
 2862 0001 11       		.uleb128 0x11
 2863 0002 01       		.byte	0x1
 2864 0003 25       		.uleb128 0x25
 2865 0004 0E       		.uleb128 0xe
 2866 0005 13       		.uleb128 0x13
 2867 0006 0B       		.uleb128 0xb
 2868 0007 03       		.uleb128 0x3
 2869 0008 0E       		.uleb128 0xe
 2870 0009 1B       		.uleb128 0x1b
 2871 000a 0E       		.uleb128 0xe
 2872 000b 11       		.uleb128 0x11
 2873 000c 01       		.uleb128 0x1
 2874 000d 12       		.uleb128 0x12
 2875 000e 01       		.uleb128 0x1
 2876 000f 10       		.uleb128 0x10
 2877 0010 06       		.uleb128 0x6
 2878 0011 00       		.byte	0
 2879 0012 00       		.byte	0
 2880 0013 02       		.uleb128 0x2
 2881 0014 24       		.uleb128 0x24
 2882 0015 00       		.byte	0
 2883 0016 0B       		.uleb128 0xb
 2884 0017 0B       		.uleb128 0xb
 2885 0018 3E       		.uleb128 0x3e
 2886 0019 0B       		.uleb128 0xb
 2887 001a 03       		.uleb128 0x3
 2888 001b 0E       		.uleb128 0xe
 2889 001c 00       		.byte	0
 2890 001d 00       		.byte	0
 2891 001e 03       		.uleb128 0x3
 2892 001f 16       		.uleb128 0x16
 2893 0020 00       		.byte	0
 2894 0021 03       		.uleb128 0x3
 2895 0022 0E       		.uleb128 0xe
 2896 0023 3A       		.uleb128 0x3a
 2897 0024 0B       		.uleb128 0xb
 2898 0025 3B       		.uleb128 0x3b
 2899 0026 0B       		.uleb128 0xb
 2900 0027 49       		.uleb128 0x49
 2901 0028 13       		.uleb128 0x13
 2902 0029 00       		.byte	0
 2903 002a 00       		.byte	0
 2904 002b 04       		.uleb128 0x4
 2905 002c 24       		.uleb128 0x24
 2906 002d 00       		.byte	0
 2907 002e 0B       		.uleb128 0xb
 2908 002f 0B       		.uleb128 0xb
 2909 0030 3E       		.uleb128 0x3e
 2910 0031 0B       		.uleb128 0xb
 2911 0032 03       		.uleb128 0x3
 2912 0033 08       		.uleb128 0x8
 2913 0034 00       		.byte	0
 2914 0035 00       		.byte	0
ARM GAS  G:\Users\Jaxb\AppData\Local\Temp\cc02ucHi.s 			page 66


 2915 0036 05       		.uleb128 0x5
 2916 0037 35       		.uleb128 0x35
 2917 0038 00       		.byte	0
 2918 0039 49       		.uleb128 0x49
 2919 003a 13       		.uleb128 0x13
 2920 003b 00       		.byte	0
 2921 003c 00       		.byte	0
 2922 003d 06       		.uleb128 0x6
 2923 003e 26       		.uleb128 0x26
 2924 003f 00       		.byte	0
 2925 0040 49       		.uleb128 0x49
 2926 0041 13       		.uleb128 0x13
 2927 0042 00       		.byte	0
 2928 0043 00       		.byte	0
 2929 0044 07       		.uleb128 0x7
 2930 0045 34       		.uleb128 0x34
 2931 0046 00       		.byte	0
 2932 0047 03       		.uleb128 0x3
 2933 0048 0E       		.uleb128 0xe
 2934 0049 3A       		.uleb128 0x3a
 2935 004a 0B       		.uleb128 0xb
 2936 004b 3B       		.uleb128 0x3b
 2937 004c 05       		.uleb128 0x5
 2938 004d 49       		.uleb128 0x49
 2939 004e 13       		.uleb128 0x13
 2940 004f 3F       		.uleb128 0x3f
 2941 0050 0C       		.uleb128 0xc
 2942 0051 3C       		.uleb128 0x3c
 2943 0052 0C       		.uleb128 0xc
 2944 0053 00       		.byte	0
 2945 0054 00       		.byte	0
 2946 0055 08       		.uleb128 0x8
 2947 0056 34       		.uleb128 0x34
 2948 0057 00       		.byte	0
 2949 0058 03       		.uleb128 0x3
 2950 0059 0E       		.uleb128 0xe
 2951 005a 3A       		.uleb128 0x3a
 2952 005b 0B       		.uleb128 0xb
 2953 005c 3B       		.uleb128 0x3b
 2954 005d 0B       		.uleb128 0xb
 2955 005e 49       		.uleb128 0x49
 2956 005f 13       		.uleb128 0x13
 2957 0060 3F       		.uleb128 0x3f
 2958 0061 0C       		.uleb128 0xc
 2959 0062 3C       		.uleb128 0x3c
 2960 0063 0C       		.uleb128 0xc
 2961 0064 00       		.byte	0
 2962 0065 00       		.byte	0
 2963 0066 09       		.uleb128 0x9
 2964 0067 04       		.uleb128 0x4
 2965 0068 01       		.byte	0x1
 2966 0069 3E       		.uleb128 0x3e
 2967 006a 0B       		.uleb128 0xb
 2968 006b 0B       		.uleb128 0xb
 2969 006c 0B       		.uleb128 0xb
 2970 006d 49       		.uleb128 0x49
 2971 006e 13       		.uleb128 0x13
ARM GAS  G:\Users\Jaxb\AppData\Local\Temp\cc02ucHi.s 			page 67


 2972 006f 3A       		.uleb128 0x3a
 2973 0070 0B       		.uleb128 0xb
 2974 0071 3B       		.uleb128 0x3b
 2975 0072 05       		.uleb128 0x5
 2976 0073 01       		.uleb128 0x1
 2977 0074 13       		.uleb128 0x13
 2978 0075 00       		.byte	0
 2979 0076 00       		.byte	0
 2980 0077 0A       		.uleb128 0xa
 2981 0078 28       		.uleb128 0x28
 2982 0079 00       		.byte	0
 2983 007a 03       		.uleb128 0x3
 2984 007b 0E       		.uleb128 0xe
 2985 007c 1C       		.uleb128 0x1c
 2986 007d 0B       		.uleb128 0xb
 2987 007e 00       		.byte	0
 2988 007f 00       		.byte	0
 2989 0080 0B       		.uleb128 0xb
 2990 0081 28       		.uleb128 0x28
 2991 0082 00       		.byte	0
 2992 0083 03       		.uleb128 0x3
 2993 0084 08       		.uleb128 0x8
 2994 0085 1C       		.uleb128 0x1c
 2995 0086 0B       		.uleb128 0xb
 2996 0087 00       		.byte	0
 2997 0088 00       		.byte	0
 2998 0089 0C       		.uleb128 0xc
 2999 008a 16       		.uleb128 0x16
 3000 008b 00       		.byte	0
 3001 008c 03       		.uleb128 0x3
 3002 008d 0E       		.uleb128 0xe
 3003 008e 3A       		.uleb128 0x3a
 3004 008f 0B       		.uleb128 0xb
 3005 0090 3B       		.uleb128 0x3b
 3006 0091 05       		.uleb128 0x5
 3007 0092 49       		.uleb128 0x49
 3008 0093 13       		.uleb128 0x13
 3009 0094 00       		.byte	0
 3010 0095 00       		.byte	0
 3011 0096 0D       		.uleb128 0xd
 3012 0097 01       		.uleb128 0x1
 3013 0098 01       		.byte	0x1
 3014 0099 49       		.uleb128 0x49
 3015 009a 13       		.uleb128 0x13
 3016 009b 01       		.uleb128 0x1
 3017 009c 13       		.uleb128 0x13
 3018 009d 00       		.byte	0
 3019 009e 00       		.byte	0
 3020 009f 0E       		.uleb128 0xe
 3021 00a0 21       		.uleb128 0x21
 3022 00a1 00       		.byte	0
 3023 00a2 49       		.uleb128 0x49
 3024 00a3 13       		.uleb128 0x13
 3025 00a4 2F       		.uleb128 0x2f
 3026 00a5 0B       		.uleb128 0xb
 3027 00a6 00       		.byte	0
 3028 00a7 00       		.byte	0
ARM GAS  G:\Users\Jaxb\AppData\Local\Temp\cc02ucHi.s 			page 68


 3029 00a8 0F       		.uleb128 0xf
 3030 00a9 13       		.uleb128 0x13
 3031 00aa 01       		.byte	0x1
 3032 00ab 0B       		.uleb128 0xb
 3033 00ac 0B       		.uleb128 0xb
 3034 00ad 3A       		.uleb128 0x3a
 3035 00ae 0B       		.uleb128 0xb
 3036 00af 3B       		.uleb128 0x3b
 3037 00b0 05       		.uleb128 0x5
 3038 00b1 01       		.uleb128 0x1
 3039 00b2 13       		.uleb128 0x13
 3040 00b3 00       		.byte	0
 3041 00b4 00       		.byte	0
 3042 00b5 10       		.uleb128 0x10
 3043 00b6 0D       		.uleb128 0xd
 3044 00b7 00       		.byte	0
 3045 00b8 03       		.uleb128 0x3
 3046 00b9 0E       		.uleb128 0xe
 3047 00ba 3A       		.uleb128 0x3a
 3048 00bb 0B       		.uleb128 0xb
 3049 00bc 3B       		.uleb128 0x3b
 3050 00bd 05       		.uleb128 0x5
 3051 00be 49       		.uleb128 0x49
 3052 00bf 13       		.uleb128 0x13
 3053 00c0 38       		.uleb128 0x38
 3054 00c1 0A       		.uleb128 0xa
 3055 00c2 00       		.byte	0
 3056 00c3 00       		.byte	0
 3057 00c4 11       		.uleb128 0x11
 3058 00c5 0D       		.uleb128 0xd
 3059 00c6 00       		.byte	0
 3060 00c7 03       		.uleb128 0x3
 3061 00c8 08       		.uleb128 0x8
 3062 00c9 3A       		.uleb128 0x3a
 3063 00ca 0B       		.uleb128 0xb
 3064 00cb 3B       		.uleb128 0x3b
 3065 00cc 05       		.uleb128 0x5
 3066 00cd 49       		.uleb128 0x49
 3067 00ce 13       		.uleb128 0x13
 3068 00cf 38       		.uleb128 0x38
 3069 00d0 0A       		.uleb128 0xa
 3070 00d1 00       		.byte	0
 3071 00d2 00       		.byte	0
 3072 00d3 12       		.uleb128 0x12
 3073 00d4 13       		.uleb128 0x13
 3074 00d5 01       		.byte	0x1
 3075 00d6 0B       		.uleb128 0xb
 3076 00d7 0B       		.uleb128 0xb
 3077 00d8 3A       		.uleb128 0x3a
 3078 00d9 0B       		.uleb128 0xb
 3079 00da 3B       		.uleb128 0x3b
 3080 00db 0B       		.uleb128 0xb
 3081 00dc 01       		.uleb128 0x1
 3082 00dd 13       		.uleb128 0x13
 3083 00de 00       		.byte	0
 3084 00df 00       		.byte	0
 3085 00e0 13       		.uleb128 0x13
ARM GAS  G:\Users\Jaxb\AppData\Local\Temp\cc02ucHi.s 			page 69


 3086 00e1 0D       		.uleb128 0xd
 3087 00e2 00       		.byte	0
 3088 00e3 03       		.uleb128 0x3
 3089 00e4 0E       		.uleb128 0xe
 3090 00e5 3A       		.uleb128 0x3a
 3091 00e6 0B       		.uleb128 0xb
 3092 00e7 3B       		.uleb128 0x3b
 3093 00e8 0B       		.uleb128 0xb
 3094 00e9 49       		.uleb128 0x49
 3095 00ea 13       		.uleb128 0x13
 3096 00eb 38       		.uleb128 0x38
 3097 00ec 0A       		.uleb128 0xa
 3098 00ed 00       		.byte	0
 3099 00ee 00       		.byte	0
 3100 00ef 14       		.uleb128 0x14
 3101 00f0 2E       		.uleb128 0x2e
 3102 00f1 01       		.byte	0x1
 3103 00f2 3F       		.uleb128 0x3f
 3104 00f3 0C       		.uleb128 0xc
 3105 00f4 03       		.uleb128 0x3
 3106 00f5 0E       		.uleb128 0xe
 3107 00f6 3A       		.uleb128 0x3a
 3108 00f7 0B       		.uleb128 0xb
 3109 00f8 3B       		.uleb128 0x3b
 3110 00f9 05       		.uleb128 0x5
 3111 00fa 27       		.uleb128 0x27
 3112 00fb 0C       		.uleb128 0xc
 3113 00fc 11       		.uleb128 0x11
 3114 00fd 01       		.uleb128 0x1
 3115 00fe 12       		.uleb128 0x12
 3116 00ff 01       		.uleb128 0x1
 3117 0100 40       		.uleb128 0x40
 3118 0101 06       		.uleb128 0x6
 3119 0102 9742     		.uleb128 0x2117
 3120 0104 0C       		.uleb128 0xc
 3121 0105 01       		.uleb128 0x1
 3122 0106 13       		.uleb128 0x13
 3123 0107 00       		.byte	0
 3124 0108 00       		.byte	0
 3125 0109 15       		.uleb128 0x15
 3126 010a 05       		.uleb128 0x5
 3127 010b 00       		.byte	0
 3128 010c 03       		.uleb128 0x3
 3129 010d 0E       		.uleb128 0xe
 3130 010e 3A       		.uleb128 0x3a
 3131 010f 0B       		.uleb128 0xb
 3132 0110 3B       		.uleb128 0x3b
 3133 0111 05       		.uleb128 0x5
 3134 0112 49       		.uleb128 0x49
 3135 0113 13       		.uleb128 0x13
 3136 0114 02       		.uleb128 0x2
 3137 0115 0A       		.uleb128 0xa
 3138 0116 00       		.byte	0
 3139 0117 00       		.byte	0
 3140 0118 16       		.uleb128 0x16
 3141 0119 2E       		.uleb128 0x2e
 3142 011a 01       		.byte	0x1
ARM GAS  G:\Users\Jaxb\AppData\Local\Temp\cc02ucHi.s 			page 70


 3143 011b 3F       		.uleb128 0x3f
 3144 011c 0C       		.uleb128 0xc
 3145 011d 03       		.uleb128 0x3
 3146 011e 0E       		.uleb128 0xe
 3147 011f 3A       		.uleb128 0x3a
 3148 0120 0B       		.uleb128 0xb
 3149 0121 3B       		.uleb128 0x3b
 3150 0122 05       		.uleb128 0x5
 3151 0123 27       		.uleb128 0x27
 3152 0124 0C       		.uleb128 0xc
 3153 0125 49       		.uleb128 0x49
 3154 0126 13       		.uleb128 0x13
 3155 0127 11       		.uleb128 0x11
 3156 0128 01       		.uleb128 0x1
 3157 0129 12       		.uleb128 0x12
 3158 012a 01       		.uleb128 0x1
 3159 012b 40       		.uleb128 0x40
 3160 012c 06       		.uleb128 0x6
 3161 012d 9742     		.uleb128 0x2117
 3162 012f 0C       		.uleb128 0xc
 3163 0130 01       		.uleb128 0x1
 3164 0131 13       		.uleb128 0x13
 3165 0132 00       		.byte	0
 3166 0133 00       		.byte	0
 3167 0134 17       		.uleb128 0x17
 3168 0135 34       		.uleb128 0x34
 3169 0136 00       		.byte	0
 3170 0137 03       		.uleb128 0x3
 3171 0138 0E       		.uleb128 0xe
 3172 0139 3A       		.uleb128 0x3a
 3173 013a 0B       		.uleb128 0xb
 3174 013b 3B       		.uleb128 0x3b
 3175 013c 05       		.uleb128 0x5
 3176 013d 49       		.uleb128 0x49
 3177 013e 13       		.uleb128 0x13
 3178 013f 02       		.uleb128 0x2
 3179 0140 0A       		.uleb128 0xa
 3180 0141 00       		.byte	0
 3181 0142 00       		.byte	0
 3182 0143 18       		.uleb128 0x18
 3183 0144 2E       		.uleb128 0x2e
 3184 0145 00       		.byte	0
 3185 0146 3F       		.uleb128 0x3f
 3186 0147 0C       		.uleb128 0xc
 3187 0148 03       		.uleb128 0x3
 3188 0149 0E       		.uleb128 0xe
 3189 014a 3A       		.uleb128 0x3a
 3190 014b 0B       		.uleb128 0xb
 3191 014c 3B       		.uleb128 0x3b
 3192 014d 05       		.uleb128 0x5
 3193 014e 27       		.uleb128 0x27
 3194 014f 0C       		.uleb128 0xc
 3195 0150 49       		.uleb128 0x49
 3196 0151 13       		.uleb128 0x13
 3197 0152 11       		.uleb128 0x11
 3198 0153 01       		.uleb128 0x1
 3199 0154 12       		.uleb128 0x12
ARM GAS  G:\Users\Jaxb\AppData\Local\Temp\cc02ucHi.s 			page 71


 3200 0155 01       		.uleb128 0x1
 3201 0156 40       		.uleb128 0x40
 3202 0157 06       		.uleb128 0x6
 3203 0158 9742     		.uleb128 0x2117
 3204 015a 0C       		.uleb128 0xc
 3205 015b 00       		.byte	0
 3206 015c 00       		.byte	0
 3207 015d 19       		.uleb128 0x19
 3208 015e 0F       		.uleb128 0xf
 3209 015f 00       		.byte	0
 3210 0160 0B       		.uleb128 0xb
 3211 0161 0B       		.uleb128 0xb
 3212 0162 49       		.uleb128 0x49
 3213 0163 13       		.uleb128 0x13
 3214 0164 00       		.byte	0
 3215 0165 00       		.byte	0
 3216 0166 1A       		.uleb128 0x1a
 3217 0167 34       		.uleb128 0x34
 3218 0168 00       		.byte	0
 3219 0169 03       		.uleb128 0x3
 3220 016a 08       		.uleb128 0x8
 3221 016b 3A       		.uleb128 0x3a
 3222 016c 0B       		.uleb128 0xb
 3223 016d 3B       		.uleb128 0x3b
 3224 016e 05       		.uleb128 0x5
 3225 016f 49       		.uleb128 0x49
 3226 0170 13       		.uleb128 0x13
 3227 0171 02       		.uleb128 0x2
 3228 0172 0A       		.uleb128 0xa
 3229 0173 00       		.byte	0
 3230 0174 00       		.byte	0
 3231 0175 1B       		.uleb128 0x1b
 3232 0176 2E       		.uleb128 0x2e
 3233 0177 01       		.byte	0x1
 3234 0178 3F       		.uleb128 0x3f
 3235 0179 0C       		.uleb128 0xc
 3236 017a 03       		.uleb128 0x3
 3237 017b 0E       		.uleb128 0xe
 3238 017c 3A       		.uleb128 0x3a
 3239 017d 0B       		.uleb128 0xb
 3240 017e 3B       		.uleb128 0x3b
 3241 017f 0B       		.uleb128 0xb
 3242 0180 27       		.uleb128 0x27
 3243 0181 0C       		.uleb128 0xc
 3244 0182 11       		.uleb128 0x11
 3245 0183 01       		.uleb128 0x1
 3246 0184 12       		.uleb128 0x12
 3247 0185 01       		.uleb128 0x1
 3248 0186 40       		.uleb128 0x40
 3249 0187 06       		.uleb128 0x6
 3250 0188 9742     		.uleb128 0x2117
 3251 018a 0C       		.uleb128 0xc
 3252 018b 01       		.uleb128 0x1
 3253 018c 13       		.uleb128 0x13
 3254 018d 00       		.byte	0
 3255 018e 00       		.byte	0
 3256 018f 1C       		.uleb128 0x1c
ARM GAS  G:\Users\Jaxb\AppData\Local\Temp\cc02ucHi.s 			page 72


 3257 0190 05       		.uleb128 0x5
 3258 0191 00       		.byte	0
 3259 0192 03       		.uleb128 0x3
 3260 0193 0E       		.uleb128 0xe
 3261 0194 3A       		.uleb128 0x3a
 3262 0195 0B       		.uleb128 0xb
 3263 0196 3B       		.uleb128 0x3b
 3264 0197 0B       		.uleb128 0xb
 3265 0198 49       		.uleb128 0x49
 3266 0199 13       		.uleb128 0x13
 3267 019a 02       		.uleb128 0x2
 3268 019b 0A       		.uleb128 0xa
 3269 019c 00       		.byte	0
 3270 019d 00       		.byte	0
 3271 019e 1D       		.uleb128 0x1d
 3272 019f 34       		.uleb128 0x34
 3273 01a0 00       		.byte	0
 3274 01a1 03       		.uleb128 0x3
 3275 01a2 0E       		.uleb128 0xe
 3276 01a3 3A       		.uleb128 0x3a
 3277 01a4 0B       		.uleb128 0xb
 3278 01a5 3B       		.uleb128 0x3b
 3279 01a6 0B       		.uleb128 0xb
 3280 01a7 49       		.uleb128 0x49
 3281 01a8 13       		.uleb128 0x13
 3282 01a9 02       		.uleb128 0x2
 3283 01aa 0A       		.uleb128 0xa
 3284 01ab 00       		.byte	0
 3285 01ac 00       		.byte	0
 3286 01ad 1E       		.uleb128 0x1e
 3287 01ae 2E       		.uleb128 0x2e
 3288 01af 00       		.byte	0
 3289 01b0 3F       		.uleb128 0x3f
 3290 01b1 0C       		.uleb128 0xc
 3291 01b2 03       		.uleb128 0x3
 3292 01b3 0E       		.uleb128 0xe
 3293 01b4 3A       		.uleb128 0x3a
 3294 01b5 0B       		.uleb128 0xb
 3295 01b6 3B       		.uleb128 0x3b
 3296 01b7 0B       		.uleb128 0xb
 3297 01b8 27       		.uleb128 0x27
 3298 01b9 0C       		.uleb128 0xc
 3299 01ba 11       		.uleb128 0x11
 3300 01bb 01       		.uleb128 0x1
 3301 01bc 12       		.uleb128 0x12
 3302 01bd 01       		.uleb128 0x1
 3303 01be 40       		.uleb128 0x40
 3304 01bf 06       		.uleb128 0x6
 3305 01c0 9742     		.uleb128 0x2117
 3306 01c2 0C       		.uleb128 0xc
 3307 01c3 00       		.byte	0
 3308 01c4 00       		.byte	0
 3309 01c5 00       		.byte	0
 3310              		.section	.debug_loc,"",%progbits
 3311              	.Ldebug_loc0:
 3312              	.LLST29:
 3313 0000 E8040000 		.4byte	.LFB58-.Ltext0
ARM GAS  G:\Users\Jaxb\AppData\Local\Temp\cc02ucHi.s 			page 73


 3314 0004 EA040000 		.4byte	.LCFI162-.Ltext0
 3315 0008 0200     		.2byte	0x2
 3316 000a 7D       		.byte	0x7d
 3317 000b 00       		.sleb128 0
 3318 000c EA040000 		.4byte	.LCFI162-.Ltext0
 3319 0010 EC040000 		.4byte	.LCFI163-.Ltext0
 3320 0014 0200     		.2byte	0x2
 3321 0016 7D       		.byte	0x7d
 3322 0017 04       		.sleb128 4
 3323 0018 EC040000 		.4byte	.LCFI163-.Ltext0
 3324 001c EE040000 		.4byte	.LCFI164-.Ltext0
 3325 0020 0200     		.2byte	0x2
 3326 0022 7D       		.byte	0x7d
 3327 0023 10       		.sleb128 16
 3328 0024 EE040000 		.4byte	.LCFI164-.Ltext0
 3329 0028 FA040000 		.4byte	.LCFI165-.Ltext0
 3330 002c 0200     		.2byte	0x2
 3331 002e 77       		.byte	0x77
 3332 002f 10       		.sleb128 16
 3333 0030 FA040000 		.4byte	.LCFI165-.Ltext0
 3334 0034 FC040000 		.4byte	.LCFI166-.Ltext0
 3335 0038 0200     		.2byte	0x2
 3336 003a 77       		.byte	0x77
 3337 003b 04       		.sleb128 4
 3338 003c FC040000 		.4byte	.LCFI166-.Ltext0
 3339 0040 FE040000 		.4byte	.LCFI167-.Ltext0
 3340 0044 0200     		.2byte	0x2
 3341 0046 7D       		.byte	0x7d
 3342 0047 04       		.sleb128 4
 3343 0048 FE040000 		.4byte	.LCFI167-.Ltext0
 3344 004c 04050000 		.4byte	.LFE58-.Ltext0
 3345 0050 0200     		.2byte	0x2
 3346 0052 7D       		.byte	0x7d
 3347 0053 00       		.sleb128 0
 3348 0054 00000000 		.4byte	0
 3349 0058 00000000 		.4byte	0
 3350              	.LLST28:
 3351 005c B4040000 		.4byte	.LFB57-.Ltext0
 3352 0060 B6040000 		.4byte	.LCFI156-.Ltext0
 3353 0064 0200     		.2byte	0x2
 3354 0066 7D       		.byte	0x7d
 3355 0067 00       		.sleb128 0
 3356 0068 B6040000 		.4byte	.LCFI156-.Ltext0
 3357 006c B8040000 		.4byte	.LCFI157-.Ltext0
 3358 0070 0200     		.2byte	0x2
 3359 0072 7D       		.byte	0x7d
 3360 0073 04       		.sleb128 4
 3361 0074 B8040000 		.4byte	.LCFI157-.Ltext0
 3362 0078 BA040000 		.4byte	.LCFI158-.Ltext0
 3363 007c 0200     		.2byte	0x2
 3364 007e 7D       		.byte	0x7d
 3365 007f 18       		.sleb128 24
 3366 0080 BA040000 		.4byte	.LCFI158-.Ltext0
 3367 0084 DC040000 		.4byte	.LCFI159-.Ltext0
 3368 0088 0200     		.2byte	0x2
 3369 008a 77       		.byte	0x77
 3370 008b 18       		.sleb128 24
ARM GAS  G:\Users\Jaxb\AppData\Local\Temp\cc02ucHi.s 			page 74


 3371 008c DC040000 		.4byte	.LCFI159-.Ltext0
 3372 0090 DE040000 		.4byte	.LCFI160-.Ltext0
 3373 0094 0200     		.2byte	0x2
 3374 0096 77       		.byte	0x77
 3375 0097 04       		.sleb128 4
 3376 0098 DE040000 		.4byte	.LCFI160-.Ltext0
 3377 009c E0040000 		.4byte	.LCFI161-.Ltext0
 3378 00a0 0200     		.2byte	0x2
 3379 00a2 7D       		.byte	0x7d
 3380 00a3 04       		.sleb128 4
 3381 00a4 E0040000 		.4byte	.LCFI161-.Ltext0
 3382 00a8 E8040000 		.4byte	.LFE57-.Ltext0
 3383 00ac 0200     		.2byte	0x2
 3384 00ae 7D       		.byte	0x7d
 3385 00af 00       		.sleb128 0
 3386 00b0 00000000 		.4byte	0
 3387 00b4 00000000 		.4byte	0
 3388              	.LLST27:
 3389 00b8 98040000 		.4byte	.LFB56-.Ltext0
 3390 00bc 9A040000 		.4byte	.LCFI150-.Ltext0
 3391 00c0 0200     		.2byte	0x2
 3392 00c2 7D       		.byte	0x7d
 3393 00c3 00       		.sleb128 0
 3394 00c4 9A040000 		.4byte	.LCFI150-.Ltext0
 3395 00c8 9C040000 		.4byte	.LCFI151-.Ltext0
 3396 00cc 0200     		.2byte	0x2
 3397 00ce 7D       		.byte	0x7d
 3398 00cf 04       		.sleb128 4
 3399 00d0 9C040000 		.4byte	.LCFI151-.Ltext0
 3400 00d4 9E040000 		.4byte	.LCFI152-.Ltext0
 3401 00d8 0200     		.2byte	0x2
 3402 00da 7D       		.byte	0x7d
 3403 00db 10       		.sleb128 16
 3404 00dc 9E040000 		.4byte	.LCFI152-.Ltext0
 3405 00e0 AA040000 		.4byte	.LCFI153-.Ltext0
 3406 00e4 0200     		.2byte	0x2
 3407 00e6 77       		.byte	0x77
 3408 00e7 10       		.sleb128 16
 3409 00e8 AA040000 		.4byte	.LCFI153-.Ltext0
 3410 00ec AC040000 		.4byte	.LCFI154-.Ltext0
 3411 00f0 0200     		.2byte	0x2
 3412 00f2 77       		.byte	0x77
 3413 00f3 04       		.sleb128 4
 3414 00f4 AC040000 		.4byte	.LCFI154-.Ltext0
 3415 00f8 AE040000 		.4byte	.LCFI155-.Ltext0
 3416 00fc 0200     		.2byte	0x2
 3417 00fe 7D       		.byte	0x7d
 3418 00ff 04       		.sleb128 4
 3419 0100 AE040000 		.4byte	.LCFI155-.Ltext0
 3420 0104 B4040000 		.4byte	.LFE56-.Ltext0
 3421 0108 0200     		.2byte	0x2
 3422 010a 7D       		.byte	0x7d
 3423 010b 00       		.sleb128 0
 3424 010c 00000000 		.4byte	0
 3425 0110 00000000 		.4byte	0
 3426              	.LLST26:
 3427 0114 64040000 		.4byte	.LFB55-.Ltext0
ARM GAS  G:\Users\Jaxb\AppData\Local\Temp\cc02ucHi.s 			page 75


 3428 0118 66040000 		.4byte	.LCFI144-.Ltext0
 3429 011c 0200     		.2byte	0x2
 3430 011e 7D       		.byte	0x7d
 3431 011f 00       		.sleb128 0
 3432 0120 66040000 		.4byte	.LCFI144-.Ltext0
 3433 0124 68040000 		.4byte	.LCFI145-.Ltext0
 3434 0128 0200     		.2byte	0x2
 3435 012a 7D       		.byte	0x7d
 3436 012b 04       		.sleb128 4
 3437 012c 68040000 		.4byte	.LCFI145-.Ltext0
 3438 0130 6A040000 		.4byte	.LCFI146-.Ltext0
 3439 0134 0200     		.2byte	0x2
 3440 0136 7D       		.byte	0x7d
 3441 0137 18       		.sleb128 24
 3442 0138 6A040000 		.4byte	.LCFI146-.Ltext0
 3443 013c 8C040000 		.4byte	.LCFI147-.Ltext0
 3444 0140 0200     		.2byte	0x2
 3445 0142 77       		.byte	0x77
 3446 0143 18       		.sleb128 24
 3447 0144 8C040000 		.4byte	.LCFI147-.Ltext0
 3448 0148 8E040000 		.4byte	.LCFI148-.Ltext0
 3449 014c 0200     		.2byte	0x2
 3450 014e 77       		.byte	0x77
 3451 014f 04       		.sleb128 4
 3452 0150 8E040000 		.4byte	.LCFI148-.Ltext0
 3453 0154 90040000 		.4byte	.LCFI149-.Ltext0
 3454 0158 0200     		.2byte	0x2
 3455 015a 7D       		.byte	0x7d
 3456 015b 04       		.sleb128 4
 3457 015c 90040000 		.4byte	.LCFI149-.Ltext0
 3458 0160 98040000 		.4byte	.LFE55-.Ltext0
 3459 0164 0200     		.2byte	0x2
 3460 0166 7D       		.byte	0x7d
 3461 0167 00       		.sleb128 0
 3462 0168 00000000 		.4byte	0
 3463 016c 00000000 		.4byte	0
 3464              	.LLST25:
 3465 0170 44040000 		.4byte	.LFB54-.Ltext0
 3466 0174 46040000 		.4byte	.LCFI138-.Ltext0
 3467 0178 0200     		.2byte	0x2
 3468 017a 7D       		.byte	0x7d
 3469 017b 00       		.sleb128 0
 3470 017c 46040000 		.4byte	.LCFI138-.Ltext0
 3471 0180 48040000 		.4byte	.LCFI139-.Ltext0
 3472 0184 0200     		.2byte	0x2
 3473 0186 7D       		.byte	0x7d
 3474 0187 04       		.sleb128 4
 3475 0188 48040000 		.4byte	.LCFI139-.Ltext0
 3476 018c 4A040000 		.4byte	.LCFI140-.Ltext0
 3477 0190 0200     		.2byte	0x2
 3478 0192 7D       		.byte	0x7d
 3479 0193 10       		.sleb128 16
 3480 0194 4A040000 		.4byte	.LCFI140-.Ltext0
 3481 0198 58040000 		.4byte	.LCFI141-.Ltext0
 3482 019c 0200     		.2byte	0x2
 3483 019e 77       		.byte	0x77
 3484 019f 10       		.sleb128 16
ARM GAS  G:\Users\Jaxb\AppData\Local\Temp\cc02ucHi.s 			page 76


 3485 01a0 58040000 		.4byte	.LCFI141-.Ltext0
 3486 01a4 5A040000 		.4byte	.LCFI142-.Ltext0
 3487 01a8 0200     		.2byte	0x2
 3488 01aa 77       		.byte	0x77
 3489 01ab 04       		.sleb128 4
 3490 01ac 5A040000 		.4byte	.LCFI142-.Ltext0
 3491 01b0 5C040000 		.4byte	.LCFI143-.Ltext0
 3492 01b4 0200     		.2byte	0x2
 3493 01b6 7D       		.byte	0x7d
 3494 01b7 04       		.sleb128 4
 3495 01b8 5C040000 		.4byte	.LCFI143-.Ltext0
 3496 01bc 64040000 		.4byte	.LFE54-.Ltext0
 3497 01c0 0200     		.2byte	0x2
 3498 01c2 7D       		.byte	0x7d
 3499 01c3 00       		.sleb128 0
 3500 01c4 00000000 		.4byte	0
 3501 01c8 00000000 		.4byte	0
 3502              	.LLST24:
 3503 01cc 18040000 		.4byte	.LFB53-.Ltext0
 3504 01d0 1A040000 		.4byte	.LCFI132-.Ltext0
 3505 01d4 0200     		.2byte	0x2
 3506 01d6 7D       		.byte	0x7d
 3507 01d7 00       		.sleb128 0
 3508 01d8 1A040000 		.4byte	.LCFI132-.Ltext0
 3509 01dc 1C040000 		.4byte	.LCFI133-.Ltext0
 3510 01e0 0200     		.2byte	0x2
 3511 01e2 7D       		.byte	0x7d
 3512 01e3 04       		.sleb128 4
 3513 01e4 1C040000 		.4byte	.LCFI133-.Ltext0
 3514 01e8 1E040000 		.4byte	.LCFI134-.Ltext0
 3515 01ec 0200     		.2byte	0x2
 3516 01ee 7D       		.byte	0x7d
 3517 01ef 10       		.sleb128 16
 3518 01f0 1E040000 		.4byte	.LCFI134-.Ltext0
 3519 01f4 3A040000 		.4byte	.LCFI135-.Ltext0
 3520 01f8 0200     		.2byte	0x2
 3521 01fa 77       		.byte	0x77
 3522 01fb 10       		.sleb128 16
 3523 01fc 3A040000 		.4byte	.LCFI135-.Ltext0
 3524 0200 3C040000 		.4byte	.LCFI136-.Ltext0
 3525 0204 0200     		.2byte	0x2
 3526 0206 77       		.byte	0x77
 3527 0207 04       		.sleb128 4
 3528 0208 3C040000 		.4byte	.LCFI136-.Ltext0
 3529 020c 3E040000 		.4byte	.LCFI137-.Ltext0
 3530 0210 0200     		.2byte	0x2
 3531 0212 7D       		.byte	0x7d
 3532 0213 04       		.sleb128 4
 3533 0214 3E040000 		.4byte	.LCFI137-.Ltext0
 3534 0218 44040000 		.4byte	.LFE53-.Ltext0
 3535 021c 0200     		.2byte	0x2
 3536 021e 7D       		.byte	0x7d
 3537 021f 00       		.sleb128 0
 3538 0220 00000000 		.4byte	0
 3539 0224 00000000 		.4byte	0
 3540              	.LLST23:
 3541 0228 F8030000 		.4byte	.LFB52-.Ltext0
ARM GAS  G:\Users\Jaxb\AppData\Local\Temp\cc02ucHi.s 			page 77


 3542 022c FA030000 		.4byte	.LCFI126-.Ltext0
 3543 0230 0200     		.2byte	0x2
 3544 0232 7D       		.byte	0x7d
 3545 0233 00       		.sleb128 0
 3546 0234 FA030000 		.4byte	.LCFI126-.Ltext0
 3547 0238 FC030000 		.4byte	.LCFI127-.Ltext0
 3548 023c 0200     		.2byte	0x2
 3549 023e 7D       		.byte	0x7d
 3550 023f 04       		.sleb128 4
 3551 0240 FC030000 		.4byte	.LCFI127-.Ltext0
 3552 0244 FE030000 		.4byte	.LCFI128-.Ltext0
 3553 0248 0200     		.2byte	0x2
 3554 024a 7D       		.byte	0x7d
 3555 024b 10       		.sleb128 16
 3556 024c FE030000 		.4byte	.LCFI128-.Ltext0
 3557 0250 0C040000 		.4byte	.LCFI129-.Ltext0
 3558 0254 0200     		.2byte	0x2
 3559 0256 77       		.byte	0x77
 3560 0257 10       		.sleb128 16
 3561 0258 0C040000 		.4byte	.LCFI129-.Ltext0
 3562 025c 0E040000 		.4byte	.LCFI130-.Ltext0
 3563 0260 0200     		.2byte	0x2
 3564 0262 77       		.byte	0x77
 3565 0263 04       		.sleb128 4
 3566 0264 0E040000 		.4byte	.LCFI130-.Ltext0
 3567 0268 10040000 		.4byte	.LCFI131-.Ltext0
 3568 026c 0200     		.2byte	0x2
 3569 026e 7D       		.byte	0x7d
 3570 026f 04       		.sleb128 4
 3571 0270 10040000 		.4byte	.LCFI131-.Ltext0
 3572 0274 18040000 		.4byte	.LFE52-.Ltext0
 3573 0278 0200     		.2byte	0x2
 3574 027a 7D       		.byte	0x7d
 3575 027b 00       		.sleb128 0
 3576 027c 00000000 		.4byte	0
 3577 0280 00000000 		.4byte	0
 3578              	.LLST22:
 3579 0284 D8030000 		.4byte	.LFB51-.Ltext0
 3580 0288 DA030000 		.4byte	.LCFI120-.Ltext0
 3581 028c 0200     		.2byte	0x2
 3582 028e 7D       		.byte	0x7d
 3583 028f 00       		.sleb128 0
 3584 0290 DA030000 		.4byte	.LCFI120-.Ltext0
 3585 0294 DC030000 		.4byte	.LCFI121-.Ltext0
 3586 0298 0200     		.2byte	0x2
 3587 029a 7D       		.byte	0x7d
 3588 029b 04       		.sleb128 4
 3589 029c DC030000 		.4byte	.LCFI121-.Ltext0
 3590 02a0 DE030000 		.4byte	.LCFI122-.Ltext0
 3591 02a4 0200     		.2byte	0x2
 3592 02a6 7D       		.byte	0x7d
 3593 02a7 10       		.sleb128 16
 3594 02a8 DE030000 		.4byte	.LCFI122-.Ltext0
 3595 02ac EC030000 		.4byte	.LCFI123-.Ltext0
 3596 02b0 0200     		.2byte	0x2
 3597 02b2 77       		.byte	0x77
 3598 02b3 10       		.sleb128 16
ARM GAS  G:\Users\Jaxb\AppData\Local\Temp\cc02ucHi.s 			page 78


 3599 02b4 EC030000 		.4byte	.LCFI123-.Ltext0
 3600 02b8 EE030000 		.4byte	.LCFI124-.Ltext0
 3601 02bc 0200     		.2byte	0x2
 3602 02be 77       		.byte	0x77
 3603 02bf 04       		.sleb128 4
 3604 02c0 EE030000 		.4byte	.LCFI124-.Ltext0
 3605 02c4 F0030000 		.4byte	.LCFI125-.Ltext0
 3606 02c8 0200     		.2byte	0x2
 3607 02ca 7D       		.byte	0x7d
 3608 02cb 04       		.sleb128 4
 3609 02cc F0030000 		.4byte	.LCFI125-.Ltext0
 3610 02d0 F8030000 		.4byte	.LFE51-.Ltext0
 3611 02d4 0200     		.2byte	0x2
 3612 02d6 7D       		.byte	0x7d
 3613 02d7 00       		.sleb128 0
 3614 02d8 00000000 		.4byte	0
 3615 02dc 00000000 		.4byte	0
 3616              	.LLST21:
 3617 02e0 B8030000 		.4byte	.LFB50-.Ltext0
 3618 02e4 BA030000 		.4byte	.LCFI114-.Ltext0
 3619 02e8 0200     		.2byte	0x2
 3620 02ea 7D       		.byte	0x7d
 3621 02eb 00       		.sleb128 0
 3622 02ec BA030000 		.4byte	.LCFI114-.Ltext0
 3623 02f0 BC030000 		.4byte	.LCFI115-.Ltext0
 3624 02f4 0200     		.2byte	0x2
 3625 02f6 7D       		.byte	0x7d
 3626 02f7 04       		.sleb128 4
 3627 02f8 BC030000 		.4byte	.LCFI115-.Ltext0
 3628 02fc BE030000 		.4byte	.LCFI116-.Ltext0
 3629 0300 0200     		.2byte	0x2
 3630 0302 7D       		.byte	0x7d
 3631 0303 10       		.sleb128 16
 3632 0304 BE030000 		.4byte	.LCFI116-.Ltext0
 3633 0308 CC030000 		.4byte	.LCFI117-.Ltext0
 3634 030c 0200     		.2byte	0x2
 3635 030e 77       		.byte	0x77
 3636 030f 10       		.sleb128 16
 3637 0310 CC030000 		.4byte	.LCFI117-.Ltext0
 3638 0314 CE030000 		.4byte	.LCFI118-.Ltext0
 3639 0318 0200     		.2byte	0x2
 3640 031a 77       		.byte	0x77
 3641 031b 04       		.sleb128 4
 3642 031c CE030000 		.4byte	.LCFI118-.Ltext0
 3643 0320 D0030000 		.4byte	.LCFI119-.Ltext0
 3644 0324 0200     		.2byte	0x2
 3645 0326 7D       		.byte	0x7d
 3646 0327 04       		.sleb128 4
 3647 0328 D0030000 		.4byte	.LCFI119-.Ltext0
 3648 032c D8030000 		.4byte	.LFE50-.Ltext0
 3649 0330 0200     		.2byte	0x2
 3650 0332 7D       		.byte	0x7d
 3651 0333 00       		.sleb128 0
 3652 0334 00000000 		.4byte	0
 3653 0338 00000000 		.4byte	0
 3654              	.LLST20:
 3655 033c 9C030000 		.4byte	.LFB49-.Ltext0
ARM GAS  G:\Users\Jaxb\AppData\Local\Temp\cc02ucHi.s 			page 79


 3656 0340 9E030000 		.4byte	.LCFI108-.Ltext0
 3657 0344 0200     		.2byte	0x2
 3658 0346 7D       		.byte	0x7d
 3659 0347 00       		.sleb128 0
 3660 0348 9E030000 		.4byte	.LCFI108-.Ltext0
 3661 034c A0030000 		.4byte	.LCFI109-.Ltext0
 3662 0350 0200     		.2byte	0x2
 3663 0352 7D       		.byte	0x7d
 3664 0353 04       		.sleb128 4
 3665 0354 A0030000 		.4byte	.LCFI109-.Ltext0
 3666 0358 A2030000 		.4byte	.LCFI110-.Ltext0
 3667 035c 0200     		.2byte	0x2
 3668 035e 7D       		.byte	0x7d
 3669 035f 10       		.sleb128 16
 3670 0360 A2030000 		.4byte	.LCFI110-.Ltext0
 3671 0364 AE030000 		.4byte	.LCFI111-.Ltext0
 3672 0368 0200     		.2byte	0x2
 3673 036a 77       		.byte	0x77
 3674 036b 10       		.sleb128 16
 3675 036c AE030000 		.4byte	.LCFI111-.Ltext0
 3676 0370 B0030000 		.4byte	.LCFI112-.Ltext0
 3677 0374 0200     		.2byte	0x2
 3678 0376 77       		.byte	0x77
 3679 0377 04       		.sleb128 4
 3680 0378 B0030000 		.4byte	.LCFI112-.Ltext0
 3681 037c B2030000 		.4byte	.LCFI113-.Ltext0
 3682 0380 0200     		.2byte	0x2
 3683 0382 7D       		.byte	0x7d
 3684 0383 04       		.sleb128 4
 3685 0384 B2030000 		.4byte	.LCFI113-.Ltext0
 3686 0388 B8030000 		.4byte	.LFE49-.Ltext0
 3687 038c 0200     		.2byte	0x2
 3688 038e 7D       		.byte	0x7d
 3689 038f 00       		.sleb128 0
 3690 0390 00000000 		.4byte	0
 3691 0394 00000000 		.4byte	0
 3692              	.LLST19:
 3693 0398 7C030000 		.4byte	.LFB48-.Ltext0
 3694 039c 7E030000 		.4byte	.LCFI102-.Ltext0
 3695 03a0 0200     		.2byte	0x2
 3696 03a2 7D       		.byte	0x7d
 3697 03a3 00       		.sleb128 0
 3698 03a4 7E030000 		.4byte	.LCFI102-.Ltext0
 3699 03a8 80030000 		.4byte	.LCFI103-.Ltext0
 3700 03ac 0200     		.2byte	0x2
 3701 03ae 7D       		.byte	0x7d
 3702 03af 04       		.sleb128 4
 3703 03b0 80030000 		.4byte	.LCFI103-.Ltext0
 3704 03b4 82030000 		.4byte	.LCFI104-.Ltext0
 3705 03b8 0200     		.2byte	0x2
 3706 03ba 7D       		.byte	0x7d
 3707 03bb 10       		.sleb128 16
 3708 03bc 82030000 		.4byte	.LCFI104-.Ltext0
 3709 03c0 90030000 		.4byte	.LCFI105-.Ltext0
 3710 03c4 0200     		.2byte	0x2
 3711 03c6 77       		.byte	0x77
 3712 03c7 10       		.sleb128 16
ARM GAS  G:\Users\Jaxb\AppData\Local\Temp\cc02ucHi.s 			page 80


 3713 03c8 90030000 		.4byte	.LCFI105-.Ltext0
 3714 03cc 92030000 		.4byte	.LCFI106-.Ltext0
 3715 03d0 0200     		.2byte	0x2
 3716 03d2 77       		.byte	0x77
 3717 03d3 04       		.sleb128 4
 3718 03d4 92030000 		.4byte	.LCFI106-.Ltext0
 3719 03d8 94030000 		.4byte	.LCFI107-.Ltext0
 3720 03dc 0200     		.2byte	0x2
 3721 03de 7D       		.byte	0x7d
 3722 03df 04       		.sleb128 4
 3723 03e0 94030000 		.4byte	.LCFI107-.Ltext0
 3724 03e4 9C030000 		.4byte	.LFE48-.Ltext0
 3725 03e8 0200     		.2byte	0x2
 3726 03ea 7D       		.byte	0x7d
 3727 03eb 00       		.sleb128 0
 3728 03ec 00000000 		.4byte	0
 3729 03f0 00000000 		.4byte	0
 3730              	.LLST18:
 3731 03f4 5C030000 		.4byte	.LFB47-.Ltext0
 3732 03f8 5E030000 		.4byte	.LCFI96-.Ltext0
 3733 03fc 0200     		.2byte	0x2
 3734 03fe 7D       		.byte	0x7d
 3735 03ff 00       		.sleb128 0
 3736 0400 5E030000 		.4byte	.LCFI96-.Ltext0
 3737 0404 60030000 		.4byte	.LCFI97-.Ltext0
 3738 0408 0200     		.2byte	0x2
 3739 040a 7D       		.byte	0x7d
 3740 040b 04       		.sleb128 4
 3741 040c 60030000 		.4byte	.LCFI97-.Ltext0
 3742 0410 62030000 		.4byte	.LCFI98-.Ltext0
 3743 0414 0200     		.2byte	0x2
 3744 0416 7D       		.byte	0x7d
 3745 0417 10       		.sleb128 16
 3746 0418 62030000 		.4byte	.LCFI98-.Ltext0
 3747 041c 70030000 		.4byte	.LCFI99-.Ltext0
 3748 0420 0200     		.2byte	0x2
 3749 0422 77       		.byte	0x77
 3750 0423 10       		.sleb128 16
 3751 0424 70030000 		.4byte	.LCFI99-.Ltext0
 3752 0428 72030000 		.4byte	.LCFI100-.Ltext0
 3753 042c 0200     		.2byte	0x2
 3754 042e 77       		.byte	0x77
 3755 042f 04       		.sleb128 4
 3756 0430 72030000 		.4byte	.LCFI100-.Ltext0
 3757 0434 74030000 		.4byte	.LCFI101-.Ltext0
 3758 0438 0200     		.2byte	0x2
 3759 043a 7D       		.byte	0x7d
 3760 043b 04       		.sleb128 4
 3761 043c 74030000 		.4byte	.LCFI101-.Ltext0
 3762 0440 7C030000 		.4byte	.LFE47-.Ltext0
 3763 0444 0200     		.2byte	0x2
 3764 0446 7D       		.byte	0x7d
 3765 0447 00       		.sleb128 0
 3766 0448 00000000 		.4byte	0
 3767 044c 00000000 		.4byte	0
 3768              	.LLST17:
 3769 0450 48030000 		.4byte	.LFB46-.Ltext0
ARM GAS  G:\Users\Jaxb\AppData\Local\Temp\cc02ucHi.s 			page 81


 3770 0454 4A030000 		.4byte	.LCFI92-.Ltext0
 3771 0458 0200     		.2byte	0x2
 3772 045a 7D       		.byte	0x7d
 3773 045b 00       		.sleb128 0
 3774 045c 4A030000 		.4byte	.LCFI92-.Ltext0
 3775 0460 4C030000 		.4byte	.LCFI93-.Ltext0
 3776 0464 0200     		.2byte	0x2
 3777 0466 7D       		.byte	0x7d
 3778 0467 04       		.sleb128 4
 3779 0468 4C030000 		.4byte	.LCFI93-.Ltext0
 3780 046c 54030000 		.4byte	.LCFI94-.Ltext0
 3781 0470 0200     		.2byte	0x2
 3782 0472 77       		.byte	0x77
 3783 0473 04       		.sleb128 4
 3784 0474 54030000 		.4byte	.LCFI94-.Ltext0
 3785 0478 56030000 		.4byte	.LCFI95-.Ltext0
 3786 047c 0200     		.2byte	0x2
 3787 047e 7D       		.byte	0x7d
 3788 047f 04       		.sleb128 4
 3789 0480 56030000 		.4byte	.LCFI95-.Ltext0
 3790 0484 5C030000 		.4byte	.LFE46-.Ltext0
 3791 0488 0200     		.2byte	0x2
 3792 048a 7D       		.byte	0x7d
 3793 048b 00       		.sleb128 0
 3794 048c 00000000 		.4byte	0
 3795 0490 00000000 		.4byte	0
 3796              	.LLST16:
 3797 0494 28030000 		.4byte	.LFB45-.Ltext0
 3798 0498 2A030000 		.4byte	.LCFI86-.Ltext0
 3799 049c 0200     		.2byte	0x2
 3800 049e 7D       		.byte	0x7d
 3801 049f 00       		.sleb128 0
 3802 04a0 2A030000 		.4byte	.LCFI86-.Ltext0
 3803 04a4 2C030000 		.4byte	.LCFI87-.Ltext0
 3804 04a8 0200     		.2byte	0x2
 3805 04aa 7D       		.byte	0x7d
 3806 04ab 04       		.sleb128 4
 3807 04ac 2C030000 		.4byte	.LCFI87-.Ltext0
 3808 04b0 2E030000 		.4byte	.LCFI88-.Ltext0
 3809 04b4 0200     		.2byte	0x2
 3810 04b6 7D       		.byte	0x7d
 3811 04b7 10       		.sleb128 16
 3812 04b8 2E030000 		.4byte	.LCFI88-.Ltext0
 3813 04bc 3C030000 		.4byte	.LCFI89-.Ltext0
 3814 04c0 0200     		.2byte	0x2
 3815 04c2 77       		.byte	0x77
 3816 04c3 10       		.sleb128 16
 3817 04c4 3C030000 		.4byte	.LCFI89-.Ltext0
 3818 04c8 3E030000 		.4byte	.LCFI90-.Ltext0
 3819 04cc 0200     		.2byte	0x2
 3820 04ce 77       		.byte	0x77
 3821 04cf 04       		.sleb128 4
 3822 04d0 3E030000 		.4byte	.LCFI90-.Ltext0
 3823 04d4 40030000 		.4byte	.LCFI91-.Ltext0
 3824 04d8 0200     		.2byte	0x2
 3825 04da 7D       		.byte	0x7d
 3826 04db 04       		.sleb128 4
ARM GAS  G:\Users\Jaxb\AppData\Local\Temp\cc02ucHi.s 			page 82


 3827 04dc 40030000 		.4byte	.LCFI91-.Ltext0
 3828 04e0 48030000 		.4byte	.LFE45-.Ltext0
 3829 04e4 0200     		.2byte	0x2
 3830 04e6 7D       		.byte	0x7d
 3831 04e7 00       		.sleb128 0
 3832 04e8 00000000 		.4byte	0
 3833 04ec 00000000 		.4byte	0
 3834              	.LLST15:
 3835 04f0 10030000 		.4byte	.LFB44-.Ltext0
 3836 04f4 12030000 		.4byte	.LCFI82-.Ltext0
 3837 04f8 0200     		.2byte	0x2
 3838 04fa 7D       		.byte	0x7d
 3839 04fb 00       		.sleb128 0
 3840 04fc 12030000 		.4byte	.LCFI82-.Ltext0
 3841 0500 14030000 		.4byte	.LCFI83-.Ltext0
 3842 0504 0200     		.2byte	0x2
 3843 0506 7D       		.byte	0x7d
 3844 0507 04       		.sleb128 4
 3845 0508 14030000 		.4byte	.LCFI83-.Ltext0
 3846 050c 1E030000 		.4byte	.LCFI84-.Ltext0
 3847 0510 0200     		.2byte	0x2
 3848 0512 77       		.byte	0x77
 3849 0513 04       		.sleb128 4
 3850 0514 1E030000 		.4byte	.LCFI84-.Ltext0
 3851 0518 20030000 		.4byte	.LCFI85-.Ltext0
 3852 051c 0200     		.2byte	0x2
 3853 051e 7D       		.byte	0x7d
 3854 051f 04       		.sleb128 4
 3855 0520 20030000 		.4byte	.LCFI85-.Ltext0
 3856 0524 28030000 		.4byte	.LFE44-.Ltext0
 3857 0528 0200     		.2byte	0x2
 3858 052a 7D       		.byte	0x7d
 3859 052b 00       		.sleb128 0
 3860 052c 00000000 		.4byte	0
 3861 0530 00000000 		.4byte	0
 3862              	.LLST14:
 3863 0534 FC020000 		.4byte	.LFB43-.Ltext0
 3864 0538 FE020000 		.4byte	.LCFI78-.Ltext0
 3865 053c 0200     		.2byte	0x2
 3866 053e 7D       		.byte	0x7d
 3867 053f 00       		.sleb128 0
 3868 0540 FE020000 		.4byte	.LCFI78-.Ltext0
 3869 0544 00030000 		.4byte	.LCFI79-.Ltext0
 3870 0548 0200     		.2byte	0x2
 3871 054a 7D       		.byte	0x7d
 3872 054b 04       		.sleb128 4
 3873 054c 00030000 		.4byte	.LCFI79-.Ltext0
 3874 0550 08030000 		.4byte	.LCFI80-.Ltext0
 3875 0554 0200     		.2byte	0x2
 3876 0556 77       		.byte	0x77
 3877 0557 04       		.sleb128 4
 3878 0558 08030000 		.4byte	.LCFI80-.Ltext0
 3879 055c 0A030000 		.4byte	.LCFI81-.Ltext0
 3880 0560 0200     		.2byte	0x2
 3881 0562 7D       		.byte	0x7d
 3882 0563 04       		.sleb128 4
 3883 0564 0A030000 		.4byte	.LCFI81-.Ltext0
ARM GAS  G:\Users\Jaxb\AppData\Local\Temp\cc02ucHi.s 			page 83


 3884 0568 10030000 		.4byte	.LFE43-.Ltext0
 3885 056c 0200     		.2byte	0x2
 3886 056e 7D       		.byte	0x7d
 3887 056f 00       		.sleb128 0
 3888 0570 00000000 		.4byte	0
 3889 0574 00000000 		.4byte	0
 3890              	.LLST13:
 3891 0578 C4020000 		.4byte	.LFB42-.Ltext0
 3892 057c C6020000 		.4byte	.LCFI72-.Ltext0
 3893 0580 0200     		.2byte	0x2
 3894 0582 7D       		.byte	0x7d
 3895 0583 00       		.sleb128 0
 3896 0584 C6020000 		.4byte	.LCFI72-.Ltext0
 3897 0588 C8020000 		.4byte	.LCFI73-.Ltext0
 3898 058c 0200     		.2byte	0x2
 3899 058e 7D       		.byte	0x7d
 3900 058f 04       		.sleb128 4
 3901 0590 C8020000 		.4byte	.LCFI73-.Ltext0
 3902 0594 CA020000 		.4byte	.LCFI74-.Ltext0
 3903 0598 0200     		.2byte	0x2
 3904 059a 7D       		.byte	0x7d
 3905 059b 10       		.sleb128 16
 3906 059c CA020000 		.4byte	.LCFI74-.Ltext0
 3907 05a0 F6020000 		.4byte	.LCFI75-.Ltext0
 3908 05a4 0200     		.2byte	0x2
 3909 05a6 77       		.byte	0x77
 3910 05a7 10       		.sleb128 16
 3911 05a8 F6020000 		.4byte	.LCFI75-.Ltext0
 3912 05ac F8020000 		.4byte	.LCFI76-.Ltext0
 3913 05b0 0200     		.2byte	0x2
 3914 05b2 77       		.byte	0x77
 3915 05b3 04       		.sleb128 4
 3916 05b4 F8020000 		.4byte	.LCFI76-.Ltext0
 3917 05b8 FA020000 		.4byte	.LCFI77-.Ltext0
 3918 05bc 0200     		.2byte	0x2
 3919 05be 7D       		.byte	0x7d
 3920 05bf 04       		.sleb128 4
 3921 05c0 FA020000 		.4byte	.LCFI77-.Ltext0
 3922 05c4 FC020000 		.4byte	.LFE42-.Ltext0
 3923 05c8 0200     		.2byte	0x2
 3924 05ca 7D       		.byte	0x7d
 3925 05cb 00       		.sleb128 0
 3926 05cc 00000000 		.4byte	0
 3927 05d0 00000000 		.4byte	0
 3928              	.LLST12:
 3929 05d4 68020000 		.4byte	.LFB41-.Ltext0
 3930 05d8 6A020000 		.4byte	.LCFI66-.Ltext0
 3931 05dc 0200     		.2byte	0x2
 3932 05de 7D       		.byte	0x7d
 3933 05df 00       		.sleb128 0
 3934 05e0 6A020000 		.4byte	.LCFI66-.Ltext0
 3935 05e4 6C020000 		.4byte	.LCFI67-.Ltext0
 3936 05e8 0200     		.2byte	0x2
 3937 05ea 7D       		.byte	0x7d
 3938 05eb 04       		.sleb128 4
 3939 05ec 6C020000 		.4byte	.LCFI67-.Ltext0
 3940 05f0 6E020000 		.4byte	.LCFI68-.Ltext0
ARM GAS  G:\Users\Jaxb\AppData\Local\Temp\cc02ucHi.s 			page 84


 3941 05f4 0200     		.2byte	0x2
 3942 05f6 7D       		.byte	0x7d
 3943 05f7 18       		.sleb128 24
 3944 05f8 6E020000 		.4byte	.LCFI68-.Ltext0
 3945 05fc B8020000 		.4byte	.LCFI69-.Ltext0
 3946 0600 0200     		.2byte	0x2
 3947 0602 77       		.byte	0x77
 3948 0603 18       		.sleb128 24
 3949 0604 B8020000 		.4byte	.LCFI69-.Ltext0
 3950 0608 BA020000 		.4byte	.LCFI70-.Ltext0
 3951 060c 0200     		.2byte	0x2
 3952 060e 77       		.byte	0x77
 3953 060f 04       		.sleb128 4
 3954 0610 BA020000 		.4byte	.LCFI70-.Ltext0
 3955 0614 BC020000 		.4byte	.LCFI71-.Ltext0
 3956 0618 0200     		.2byte	0x2
 3957 061a 7D       		.byte	0x7d
 3958 061b 04       		.sleb128 4
 3959 061c BC020000 		.4byte	.LCFI71-.Ltext0
 3960 0620 C4020000 		.4byte	.LFE41-.Ltext0
 3961 0624 0200     		.2byte	0x2
 3962 0626 7D       		.byte	0x7d
 3963 0627 00       		.sleb128 0
 3964 0628 00000000 		.4byte	0
 3965 062c 00000000 		.4byte	0
 3966              	.LLST11:
 3967 0630 40020000 		.4byte	.LFB40-.Ltext0
 3968 0634 42020000 		.4byte	.LCFI60-.Ltext0
 3969 0638 0200     		.2byte	0x2
 3970 063a 7D       		.byte	0x7d
 3971 063b 00       		.sleb128 0
 3972 063c 42020000 		.4byte	.LCFI60-.Ltext0
 3973 0640 44020000 		.4byte	.LCFI61-.Ltext0
 3974 0644 0200     		.2byte	0x2
 3975 0646 7D       		.byte	0x7d
 3976 0647 04       		.sleb128 4
 3977 0648 44020000 		.4byte	.LCFI61-.Ltext0
 3978 064c 46020000 		.4byte	.LCFI62-.Ltext0
 3979 0650 0200     		.2byte	0x2
 3980 0652 7D       		.byte	0x7d
 3981 0653 18       		.sleb128 24
 3982 0654 46020000 		.4byte	.LCFI62-.Ltext0
 3983 0658 5C020000 		.4byte	.LCFI63-.Ltext0
 3984 065c 0200     		.2byte	0x2
 3985 065e 77       		.byte	0x77
 3986 065f 18       		.sleb128 24
 3987 0660 5C020000 		.4byte	.LCFI63-.Ltext0
 3988 0664 5E020000 		.4byte	.LCFI64-.Ltext0
 3989 0668 0200     		.2byte	0x2
 3990 066a 77       		.byte	0x77
 3991 066b 04       		.sleb128 4
 3992 066c 5E020000 		.4byte	.LCFI64-.Ltext0
 3993 0670 60020000 		.4byte	.LCFI65-.Ltext0
 3994 0674 0200     		.2byte	0x2
 3995 0676 7D       		.byte	0x7d
 3996 0677 04       		.sleb128 4
 3997 0678 60020000 		.4byte	.LCFI65-.Ltext0
ARM GAS  G:\Users\Jaxb\AppData\Local\Temp\cc02ucHi.s 			page 85


 3998 067c 68020000 		.4byte	.LFE40-.Ltext0
 3999 0680 0200     		.2byte	0x2
 4000 0682 7D       		.byte	0x7d
 4001 0683 00       		.sleb128 0
 4002 0684 00000000 		.4byte	0
 4003 0688 00000000 		.4byte	0
 4004              	.LLST10:
 4005 068c 28020000 		.4byte	.LFB39-.Ltext0
 4006 0690 2A020000 		.4byte	.LCFI56-.Ltext0
 4007 0694 0200     		.2byte	0x2
 4008 0696 7D       		.byte	0x7d
 4009 0697 00       		.sleb128 0
 4010 0698 2A020000 		.4byte	.LCFI56-.Ltext0
 4011 069c 2C020000 		.4byte	.LCFI57-.Ltext0
 4012 06a0 0200     		.2byte	0x2
 4013 06a2 7D       		.byte	0x7d
 4014 06a3 04       		.sleb128 4
 4015 06a4 2C020000 		.4byte	.LCFI57-.Ltext0
 4016 06a8 36020000 		.4byte	.LCFI58-.Ltext0
 4017 06ac 0200     		.2byte	0x2
 4018 06ae 77       		.byte	0x77
 4019 06af 04       		.sleb128 4
 4020 06b0 36020000 		.4byte	.LCFI58-.Ltext0
 4021 06b4 38020000 		.4byte	.LCFI59-.Ltext0
 4022 06b8 0200     		.2byte	0x2
 4023 06ba 7D       		.byte	0x7d
 4024 06bb 04       		.sleb128 4
 4025 06bc 38020000 		.4byte	.LCFI59-.Ltext0
 4026 06c0 40020000 		.4byte	.LFE39-.Ltext0
 4027 06c4 0200     		.2byte	0x2
 4028 06c6 7D       		.byte	0x7d
 4029 06c7 00       		.sleb128 0
 4030 06c8 00000000 		.4byte	0
 4031 06cc 00000000 		.4byte	0
 4032              	.LLST9:
 4033 06d0 F8010000 		.4byte	.LFB38-.Ltext0
 4034 06d4 FA010000 		.4byte	.LCFI50-.Ltext0
 4035 06d8 0200     		.2byte	0x2
 4036 06da 7D       		.byte	0x7d
 4037 06db 00       		.sleb128 0
 4038 06dc FA010000 		.4byte	.LCFI50-.Ltext0
 4039 06e0 FC010000 		.4byte	.LCFI51-.Ltext0
 4040 06e4 0200     		.2byte	0x2
 4041 06e6 7D       		.byte	0x7d
 4042 06e7 04       		.sleb128 4
 4043 06e8 FC010000 		.4byte	.LCFI51-.Ltext0
 4044 06ec FE010000 		.4byte	.LCFI52-.Ltext0
 4045 06f0 0200     		.2byte	0x2
 4046 06f2 7D       		.byte	0x7d
 4047 06f3 10       		.sleb128 16
 4048 06f4 FE010000 		.4byte	.LCFI52-.Ltext0
 4049 06f8 22020000 		.4byte	.LCFI53-.Ltext0
 4050 06fc 0200     		.2byte	0x2
 4051 06fe 77       		.byte	0x77
 4052 06ff 10       		.sleb128 16
 4053 0700 22020000 		.4byte	.LCFI53-.Ltext0
 4054 0704 24020000 		.4byte	.LCFI54-.Ltext0
ARM GAS  G:\Users\Jaxb\AppData\Local\Temp\cc02ucHi.s 			page 86


 4055 0708 0200     		.2byte	0x2
 4056 070a 77       		.byte	0x77
 4057 070b 04       		.sleb128 4
 4058 070c 24020000 		.4byte	.LCFI54-.Ltext0
 4059 0710 26020000 		.4byte	.LCFI55-.Ltext0
 4060 0714 0200     		.2byte	0x2
 4061 0716 7D       		.byte	0x7d
 4062 0717 04       		.sleb128 4
 4063 0718 26020000 		.4byte	.LCFI55-.Ltext0
 4064 071c 28020000 		.4byte	.LFE38-.Ltext0
 4065 0720 0200     		.2byte	0x2
 4066 0722 7D       		.byte	0x7d
 4067 0723 00       		.sleb128 0
 4068 0724 00000000 		.4byte	0
 4069 0728 00000000 		.4byte	0
 4070              	.LLST8:
 4071 072c A0010000 		.4byte	.LFB37-.Ltext0
 4072 0730 A2010000 		.4byte	.LCFI44-.Ltext0
 4073 0734 0200     		.2byte	0x2
 4074 0736 7D       		.byte	0x7d
 4075 0737 00       		.sleb128 0
 4076 0738 A2010000 		.4byte	.LCFI44-.Ltext0
 4077 073c A4010000 		.4byte	.LCFI45-.Ltext0
 4078 0740 0200     		.2byte	0x2
 4079 0742 7D       		.byte	0x7d
 4080 0743 04       		.sleb128 4
 4081 0744 A4010000 		.4byte	.LCFI45-.Ltext0
 4082 0748 A6010000 		.4byte	.LCFI46-.Ltext0
 4083 074c 0200     		.2byte	0x2
 4084 074e 7D       		.byte	0x7d
 4085 074f 18       		.sleb128 24
 4086 0750 A6010000 		.4byte	.LCFI46-.Ltext0
 4087 0754 EC010000 		.4byte	.LCFI47-.Ltext0
 4088 0758 0200     		.2byte	0x2
 4089 075a 77       		.byte	0x77
 4090 075b 18       		.sleb128 24
 4091 075c EC010000 		.4byte	.LCFI47-.Ltext0
 4092 0760 EE010000 		.4byte	.LCFI48-.Ltext0
 4093 0764 0200     		.2byte	0x2
 4094 0766 77       		.byte	0x77
 4095 0767 04       		.sleb128 4
 4096 0768 EE010000 		.4byte	.LCFI48-.Ltext0
 4097 076c F0010000 		.4byte	.LCFI49-.Ltext0
 4098 0770 0200     		.2byte	0x2
 4099 0772 7D       		.byte	0x7d
 4100 0773 04       		.sleb128 4
 4101 0774 F0010000 		.4byte	.LCFI49-.Ltext0
 4102 0778 F8010000 		.4byte	.LFE37-.Ltext0
 4103 077c 0200     		.2byte	0x2
 4104 077e 7D       		.byte	0x7d
 4105 077f 00       		.sleb128 0
 4106 0780 00000000 		.4byte	0
 4107 0784 00000000 		.4byte	0
 4108              	.LLST7:
 4109 0788 80010000 		.4byte	.LFB36-.Ltext0
 4110 078c 82010000 		.4byte	.LCFI38-.Ltext0
 4111 0790 0200     		.2byte	0x2
ARM GAS  G:\Users\Jaxb\AppData\Local\Temp\cc02ucHi.s 			page 87


 4112 0792 7D       		.byte	0x7d
 4113 0793 00       		.sleb128 0
 4114 0794 82010000 		.4byte	.LCFI38-.Ltext0
 4115 0798 84010000 		.4byte	.LCFI39-.Ltext0
 4116 079c 0200     		.2byte	0x2
 4117 079e 7D       		.byte	0x7d
 4118 079f 04       		.sleb128 4
 4119 07a0 84010000 		.4byte	.LCFI39-.Ltext0
 4120 07a4 86010000 		.4byte	.LCFI40-.Ltext0
 4121 07a8 0200     		.2byte	0x2
 4122 07aa 7D       		.byte	0x7d
 4123 07ab 10       		.sleb128 16
 4124 07ac 86010000 		.4byte	.LCFI40-.Ltext0
 4125 07b0 94010000 		.4byte	.LCFI41-.Ltext0
 4126 07b4 0200     		.2byte	0x2
 4127 07b6 77       		.byte	0x77
 4128 07b7 10       		.sleb128 16
 4129 07b8 94010000 		.4byte	.LCFI41-.Ltext0
 4130 07bc 96010000 		.4byte	.LCFI42-.Ltext0
 4131 07c0 0200     		.2byte	0x2
 4132 07c2 77       		.byte	0x77
 4133 07c3 04       		.sleb128 4
 4134 07c4 96010000 		.4byte	.LCFI42-.Ltext0
 4135 07c8 98010000 		.4byte	.LCFI43-.Ltext0
 4136 07cc 0200     		.2byte	0x2
 4137 07ce 7D       		.byte	0x7d
 4138 07cf 04       		.sleb128 4
 4139 07d0 98010000 		.4byte	.LCFI43-.Ltext0
 4140 07d4 A0010000 		.4byte	.LFE36-.Ltext0
 4141 07d8 0200     		.2byte	0x2
 4142 07da 7D       		.byte	0x7d
 4143 07db 00       		.sleb128 0
 4144 07dc 00000000 		.4byte	0
 4145 07e0 00000000 		.4byte	0
 4146              	.LLST6:
 4147 07e4 44010000 		.4byte	.LFB35-.Ltext0
 4148 07e8 46010000 		.4byte	.LCFI32-.Ltext0
 4149 07ec 0200     		.2byte	0x2
 4150 07ee 7D       		.byte	0x7d
 4151 07ef 00       		.sleb128 0
 4152 07f0 46010000 		.4byte	.LCFI32-.Ltext0
 4153 07f4 48010000 		.4byte	.LCFI33-.Ltext0
 4154 07f8 0200     		.2byte	0x2
 4155 07fa 7D       		.byte	0x7d
 4156 07fb 04       		.sleb128 4
 4157 07fc 48010000 		.4byte	.LCFI33-.Ltext0
 4158 0800 4A010000 		.4byte	.LCFI34-.Ltext0
 4159 0804 0200     		.2byte	0x2
 4160 0806 7D       		.byte	0x7d
 4161 0807 10       		.sleb128 16
 4162 0808 4A010000 		.4byte	.LCFI34-.Ltext0
 4163 080c 76010000 		.4byte	.LCFI35-.Ltext0
 4164 0810 0200     		.2byte	0x2
 4165 0812 77       		.byte	0x77
 4166 0813 10       		.sleb128 16
 4167 0814 76010000 		.4byte	.LCFI35-.Ltext0
 4168 0818 78010000 		.4byte	.LCFI36-.Ltext0
ARM GAS  G:\Users\Jaxb\AppData\Local\Temp\cc02ucHi.s 			page 88


 4169 081c 0200     		.2byte	0x2
 4170 081e 77       		.byte	0x77
 4171 081f 04       		.sleb128 4
 4172 0820 78010000 		.4byte	.LCFI36-.Ltext0
 4173 0824 7A010000 		.4byte	.LCFI37-.Ltext0
 4174 0828 0200     		.2byte	0x2
 4175 082a 7D       		.byte	0x7d
 4176 082b 04       		.sleb128 4
 4177 082c 7A010000 		.4byte	.LCFI37-.Ltext0
 4178 0830 80010000 		.4byte	.LFE35-.Ltext0
 4179 0834 0200     		.2byte	0x2
 4180 0836 7D       		.byte	0x7d
 4181 0837 00       		.sleb128 0
 4182 0838 00000000 		.4byte	0
 4183 083c 00000000 		.4byte	0
 4184              	.LLST5:
 4185 0840 2C010000 		.4byte	.LFB34-.Ltext0
 4186 0844 2E010000 		.4byte	.LCFI28-.Ltext0
 4187 0848 0200     		.2byte	0x2
 4188 084a 7D       		.byte	0x7d
 4189 084b 00       		.sleb128 0
 4190 084c 2E010000 		.4byte	.LCFI28-.Ltext0
 4191 0850 30010000 		.4byte	.LCFI29-.Ltext0
 4192 0854 0200     		.2byte	0x2
 4193 0856 7D       		.byte	0x7d
 4194 0857 04       		.sleb128 4
 4195 0858 30010000 		.4byte	.LCFI29-.Ltext0
 4196 085c 3C010000 		.4byte	.LCFI30-.Ltext0
 4197 0860 0200     		.2byte	0x2
 4198 0862 77       		.byte	0x77
 4199 0863 04       		.sleb128 4
 4200 0864 3C010000 		.4byte	.LCFI30-.Ltext0
 4201 0868 3E010000 		.4byte	.LCFI31-.Ltext0
 4202 086c 0200     		.2byte	0x2
 4203 086e 7D       		.byte	0x7d
 4204 086f 04       		.sleb128 4
 4205 0870 3E010000 		.4byte	.LCFI31-.Ltext0
 4206 0874 44010000 		.4byte	.LFE34-.Ltext0
 4207 0878 0200     		.2byte	0x2
 4208 087a 7D       		.byte	0x7d
 4209 087b 00       		.sleb128 0
 4210 087c 00000000 		.4byte	0
 4211 0880 00000000 		.4byte	0
 4212              	.LLST4:
 4213 0884 FC000000 		.4byte	.LFB33-.Ltext0
 4214 0888 FE000000 		.4byte	.LCFI22-.Ltext0
 4215 088c 0200     		.2byte	0x2
 4216 088e 7D       		.byte	0x7d
 4217 088f 00       		.sleb128 0
 4218 0890 FE000000 		.4byte	.LCFI22-.Ltext0
 4219 0894 00010000 		.4byte	.LCFI23-.Ltext0
 4220 0898 0200     		.2byte	0x2
 4221 089a 7D       		.byte	0x7d
 4222 089b 04       		.sleb128 4
 4223 089c 00010000 		.4byte	.LCFI23-.Ltext0
 4224 08a0 02010000 		.4byte	.LCFI24-.Ltext0
 4225 08a4 0200     		.2byte	0x2
ARM GAS  G:\Users\Jaxb\AppData\Local\Temp\cc02ucHi.s 			page 89


 4226 08a6 7D       		.byte	0x7d
 4227 08a7 10       		.sleb128 16
 4228 08a8 02010000 		.4byte	.LCFI24-.Ltext0
 4229 08ac 20010000 		.4byte	.LCFI25-.Ltext0
 4230 08b0 0200     		.2byte	0x2
 4231 08b2 77       		.byte	0x77
 4232 08b3 10       		.sleb128 16
 4233 08b4 20010000 		.4byte	.LCFI25-.Ltext0
 4234 08b8 22010000 		.4byte	.LCFI26-.Ltext0
 4235 08bc 0200     		.2byte	0x2
 4236 08be 77       		.byte	0x77
 4237 08bf 04       		.sleb128 4
 4238 08c0 22010000 		.4byte	.LCFI26-.Ltext0
 4239 08c4 24010000 		.4byte	.LCFI27-.Ltext0
 4240 08c8 0200     		.2byte	0x2
 4241 08ca 7D       		.byte	0x7d
 4242 08cb 04       		.sleb128 4
 4243 08cc 24010000 		.4byte	.LCFI27-.Ltext0
 4244 08d0 2C010000 		.4byte	.LFE33-.Ltext0
 4245 08d4 0200     		.2byte	0x2
 4246 08d6 7D       		.byte	0x7d
 4247 08d7 00       		.sleb128 0
 4248 08d8 00000000 		.4byte	0
 4249 08dc 00000000 		.4byte	0
 4250              	.LLST3:
 4251 08e0 DE000000 		.4byte	.LFB32-.Ltext0
 4252 08e4 E0000000 		.4byte	.LCFI16-.Ltext0
 4253 08e8 0200     		.2byte	0x2
 4254 08ea 7D       		.byte	0x7d
 4255 08eb 00       		.sleb128 0
 4256 08ec E0000000 		.4byte	.LCFI16-.Ltext0
 4257 08f0 E2000000 		.4byte	.LCFI17-.Ltext0
 4258 08f4 0200     		.2byte	0x2
 4259 08f6 7D       		.byte	0x7d
 4260 08f7 04       		.sleb128 4
 4261 08f8 E2000000 		.4byte	.LCFI17-.Ltext0
 4262 08fc E4000000 		.4byte	.LCFI18-.Ltext0
 4263 0900 0200     		.2byte	0x2
 4264 0902 7D       		.byte	0x7d
 4265 0903 10       		.sleb128 16
 4266 0904 E4000000 		.4byte	.LCFI18-.Ltext0
 4267 0908 F2000000 		.4byte	.LCFI19-.Ltext0
 4268 090c 0200     		.2byte	0x2
 4269 090e 77       		.byte	0x77
 4270 090f 10       		.sleb128 16
 4271 0910 F2000000 		.4byte	.LCFI19-.Ltext0
 4272 0914 F4000000 		.4byte	.LCFI20-.Ltext0
 4273 0918 0200     		.2byte	0x2
 4274 091a 77       		.byte	0x77
 4275 091b 04       		.sleb128 4
 4276 091c F4000000 		.4byte	.LCFI20-.Ltext0
 4277 0920 F6000000 		.4byte	.LCFI21-.Ltext0
 4278 0924 0200     		.2byte	0x2
 4279 0926 7D       		.byte	0x7d
 4280 0927 04       		.sleb128 4
 4281 0928 F6000000 		.4byte	.LCFI21-.Ltext0
 4282 092c FC000000 		.4byte	.LFE32-.Ltext0
ARM GAS  G:\Users\Jaxb\AppData\Local\Temp\cc02ucHi.s 			page 90


 4283 0930 0200     		.2byte	0x2
 4284 0932 7D       		.byte	0x7d
 4285 0933 00       		.sleb128 0
 4286 0934 00000000 		.4byte	0
 4287 0938 00000000 		.4byte	0
 4288              	.LLST2:
 4289 093c A8000000 		.4byte	.LFB31-.Ltext0
 4290 0940 AA000000 		.4byte	.LCFI10-.Ltext0
 4291 0944 0200     		.2byte	0x2
 4292 0946 7D       		.byte	0x7d
 4293 0947 00       		.sleb128 0
 4294 0948 AA000000 		.4byte	.LCFI10-.Ltext0
 4295 094c AC000000 		.4byte	.LCFI11-.Ltext0
 4296 0950 0200     		.2byte	0x2
 4297 0952 7D       		.byte	0x7d
 4298 0953 04       		.sleb128 4
 4299 0954 AC000000 		.4byte	.LCFI11-.Ltext0
 4300 0958 AE000000 		.4byte	.LCFI12-.Ltext0
 4301 095c 0200     		.2byte	0x2
 4302 095e 7D       		.byte	0x7d
 4303 095f 10       		.sleb128 16
 4304 0960 AE000000 		.4byte	.LCFI12-.Ltext0
 4305 0964 D8000000 		.4byte	.LCFI13-.Ltext0
 4306 0968 0200     		.2byte	0x2
 4307 096a 77       		.byte	0x77
 4308 096b 10       		.sleb128 16
 4309 096c D8000000 		.4byte	.LCFI13-.Ltext0
 4310 0970 DA000000 		.4byte	.LCFI14-.Ltext0
 4311 0974 0200     		.2byte	0x2
 4312 0976 77       		.byte	0x77
 4313 0977 04       		.sleb128 4
 4314 0978 DA000000 		.4byte	.LCFI14-.Ltext0
 4315 097c DC000000 		.4byte	.LCFI15-.Ltext0
 4316 0980 0200     		.2byte	0x2
 4317 0982 7D       		.byte	0x7d
 4318 0983 04       		.sleb128 4
 4319 0984 DC000000 		.4byte	.LCFI15-.Ltext0
 4320 0988 DE000000 		.4byte	.LFE31-.Ltext0
 4321 098c 0200     		.2byte	0x2
 4322 098e 7D       		.byte	0x7d
 4323 098f 00       		.sleb128 0
 4324 0990 00000000 		.4byte	0
 4325 0994 00000000 		.4byte	0
 4326              	.LLST1:
 4327 0998 4C000000 		.4byte	.LFB30-.Ltext0
 4328 099c 4E000000 		.4byte	.LCFI4-.Ltext0
 4329 09a0 0200     		.2byte	0x2
 4330 09a2 7D       		.byte	0x7d
 4331 09a3 00       		.sleb128 0
 4332 09a4 4E000000 		.4byte	.LCFI4-.Ltext0
 4333 09a8 50000000 		.4byte	.LCFI5-.Ltext0
 4334 09ac 0200     		.2byte	0x2
 4335 09ae 7D       		.byte	0x7d
 4336 09af 04       		.sleb128 4
 4337 09b0 50000000 		.4byte	.LCFI5-.Ltext0
 4338 09b4 52000000 		.4byte	.LCFI6-.Ltext0
 4339 09b8 0200     		.2byte	0x2
ARM GAS  G:\Users\Jaxb\AppData\Local\Temp\cc02ucHi.s 			page 91


 4340 09ba 7D       		.byte	0x7d
 4341 09bb 18       		.sleb128 24
 4342 09bc 52000000 		.4byte	.LCFI6-.Ltext0
 4343 09c0 9E000000 		.4byte	.LCFI7-.Ltext0
 4344 09c4 0200     		.2byte	0x2
 4345 09c6 77       		.byte	0x77
 4346 09c7 18       		.sleb128 24
 4347 09c8 9E000000 		.4byte	.LCFI7-.Ltext0
 4348 09cc A0000000 		.4byte	.LCFI8-.Ltext0
 4349 09d0 0200     		.2byte	0x2
 4350 09d2 77       		.byte	0x77
 4351 09d3 04       		.sleb128 4
 4352 09d4 A0000000 		.4byte	.LCFI8-.Ltext0
 4353 09d8 A2000000 		.4byte	.LCFI9-.Ltext0
 4354 09dc 0200     		.2byte	0x2
 4355 09de 7D       		.byte	0x7d
 4356 09df 04       		.sleb128 4
 4357 09e0 A2000000 		.4byte	.LCFI9-.Ltext0
 4358 09e4 A8000000 		.4byte	.LFE30-.Ltext0
 4359 09e8 0200     		.2byte	0x2
 4360 09ea 7D       		.byte	0x7d
 4361 09eb 00       		.sleb128 0
 4362 09ec 00000000 		.4byte	0
 4363 09f0 00000000 		.4byte	0
 4364              	.LLST0:
 4365 09f4 00000000 		.4byte	.LFB29-.Ltext0
 4366 09f8 02000000 		.4byte	.LCFI0-.Ltext0
 4367 09fc 0200     		.2byte	0x2
 4368 09fe 7D       		.byte	0x7d
 4369 09ff 00       		.sleb128 0
 4370 0a00 02000000 		.4byte	.LCFI0-.Ltext0
 4371 0a04 04000000 		.4byte	.LCFI1-.Ltext0
 4372 0a08 0200     		.2byte	0x2
 4373 0a0a 7D       		.byte	0x7d
 4374 0a0b 04       		.sleb128 4
 4375 0a0c 04000000 		.4byte	.LCFI1-.Ltext0
 4376 0a10 3E000000 		.4byte	.LCFI2-.Ltext0
 4377 0a14 0200     		.2byte	0x2
 4378 0a16 77       		.byte	0x77
 4379 0a17 04       		.sleb128 4
 4380 0a18 3E000000 		.4byte	.LCFI2-.Ltext0
 4381 0a1c 40000000 		.4byte	.LCFI3-.Ltext0
 4382 0a20 0200     		.2byte	0x2
 4383 0a22 7D       		.byte	0x7d
 4384 0a23 04       		.sleb128 4
 4385 0a24 40000000 		.4byte	.LCFI3-.Ltext0
 4386 0a28 4C000000 		.4byte	.LFE29-.Ltext0
 4387 0a2c 0200     		.2byte	0x2
 4388 0a2e 7D       		.byte	0x7d
 4389 0a2f 00       		.sleb128 0
 4390 0a30 00000000 		.4byte	0
 4391 0a34 00000000 		.4byte	0
 4392              		.section	.debug_aranges,"",%progbits
 4393 0000 1C000000 		.4byte	0x1c
 4394 0004 0200     		.2byte	0x2
 4395 0006 00000000 		.4byte	.Ldebug_info0
 4396 000a 04       		.byte	0x4
ARM GAS  G:\Users\Jaxb\AppData\Local\Temp\cc02ucHi.s 			page 92


 4397 000b 00       		.byte	0
 4398 000c 0000     		.2byte	0
 4399 000e 0000     		.2byte	0
 4400 0010 00000000 		.4byte	.Ltext0
 4401 0014 04050000 		.4byte	.Letext0-.Ltext0
 4402 0018 00000000 		.4byte	0
 4403 001c 00000000 		.4byte	0
 4404              		.section	.debug_line,"",%progbits
 4405              	.Ldebug_line0:
 4406 0000 0D020000 		.section	.debug_str,"MS",%progbits,1
 4406      02003001 
 4406      00000201 
 4406      FB0E0D00 
 4406      01010101 
 4407              	.LASF38:
 4408 0000 5344494F 		.ascii	"SDIO_ClockEdge\000"
 4408      5F436C6F 
 4408      636B4564 
 4408      676500
 4409              	.LASF39:
 4410 000f 5344494F 		.ascii	"SDIO_ClockBypass\000"
 4410      5F436C6F 
 4410      636B4279 
 4410      70617373 
 4410      00
 4411              	.LASF17:
 4412 0020 49545374 		.ascii	"ITStatus\000"
 4412      61747573 
 4412      00
 4413              	.LASF28:
 4414 0029 4454494D 		.ascii	"DTIMER\000"
 4414      455200
 4415              	.LASF44:
 4416 0030 5344494F 		.ascii	"SDIO_InitTypeDef\000"
 4416      5F496E69 
 4416      74547970 
 4416      65446566 
 4416      00
 4417              	.LASF46:
 4418 0041 5344494F 		.ascii	"SDIO_CmdIndex\000"
 4418      5F436D64 
 4418      496E6465 
 4418      7800
 4419              	.LASF89:
 4420 004f 5344494F 		.ascii	"SDIO_SendCommand\000"
 4420      5F53656E 
 4420      64436F6D 
 4420      6D616E64 
 4420      00
 4421              	.LASF91:
 4422 0060 5344494F 		.ascii	"SDIO_ITConfig\000"
 4422      5F495443 
 4422      6F6E6669 
 4422      6700
 4423              	.LASF85:
 4424 006e 5344494F 		.ascii	"SDIO_RESP\000"
 4424      5F524553 
ARM GAS  G:\Users\Jaxb\AppData\Local\Temp\cc02ucHi.s 			page 93


 4424      5000
 4425              	.LASF69:
 4426 0078 5344494F 		.ascii	"SDIO_SendSDIOSuspendCmd\000"
 4426      5F53656E 
 4426      64534449 
 4426      4F537573 
 4426      70656E64 
 4427              	.LASF45:
 4428 0090 5344494F 		.ascii	"SDIO_Argument\000"
 4428      5F417267 
 4428      756D656E 
 4428      7400
 4429              	.LASF70:
 4430 009e 5344494F 		.ascii	"SDIO_SetSDIOOperation\000"
 4430      5F536574 
 4430      5344494F 
 4430      4F706572 
 4430      6174696F 
 4431              	.LASF53:
 4432 00b4 5344494F 		.ascii	"SDIO_DataBlockSize\000"
 4432      5F446174 
 4432      61426C6F 
 4432      636B5369 
 4432      7A6500
 4433              	.LASF31:
 4434 00c7 44434F55 		.ascii	"DCOUNT\000"
 4434      4E5400
 4435              	.LASF62:
 4436 00ce 5344494F 		.ascii	"SDIO_GetITStatus\000"
 4436      5F476574 
 4436      49545374 
 4436      61747573 
 4436      00
 4437              	.LASF8:
 4438 00df 6C6F6E67 		.ascii	"long long int\000"
 4438      206C6F6E 
 4438      6720696E 
 4438      7400
 4439              	.LASF72:
 4440 00ed 5344494F 		.ascii	"SDIO_ReadWaitMode\000"
 4440      5F526561 
 4440      64576169 
 4440      744D6F64 
 4440      6500
 4441              	.LASF48:
 4442 00ff 5344494F 		.ascii	"SDIO_Wait\000"
 4442      5F576169 
 4442      7400
 4443              	.LASF71:
 4444 0109 5344494F 		.ascii	"SDIO_SetSDIOReadWaitMode\000"
 4444      5F536574 
 4444      5344494F 
 4444      52656164 
 4444      57616974 
 4445              	.LASF73:
 4446 0122 5344494F 		.ascii	"SDIO_StopSDIOReadWait\000"
 4446      5F53746F 
ARM GAS  G:\Users\Jaxb\AppData\Local\Temp\cc02ucHi.s 			page 94


 4446      70534449 
 4446      4F526561 
 4446      64576169 
 4447              	.LASF56:
 4448 0138 5344494F 		.ascii	"SDIO_DPSM\000"
 4448      5F445053 
 4448      4D00
 4449              	.LASF42:
 4450 0142 5344494F 		.ascii	"SDIO_HardwareFlowControl\000"
 4450      5F486172 
 4450      64776172 
 4450      65466C6F 
 4450      77436F6E 
 4451              	.LASF2:
 4452 015b 73686F72 		.ascii	"short int\000"
 4452      7420696E 
 4452      7400
 4453              	.LASF41:
 4454 0165 5344494F 		.ascii	"SDIO_BusWide\000"
 4454      5F427573 
 4454      57696465 
 4454      00
 4455              	.LASF77:
 4456 0172 5344494F 		.ascii	"SDIO_GetFIFOCount\000"
 4456      5F476574 
 4456      4649464F 
 4456      436F756E 
 4456      7400
 4457              	.LASF29:
 4458 0184 444C454E 		.ascii	"DLEN\000"
 4458      00
 4459              	.LASF11:
 4460 0189 75696E74 		.ascii	"uint8_t\000"
 4460      385F7400 
 4461              	.LASF30:
 4462 0191 44435452 		.ascii	"DCTRL\000"
 4462      4C00
 4463              	.LASF21:
 4464 0197 504F5745 		.ascii	"POWER\000"
 4464      5200
 4465              	.LASF95:
 4466 019d 5344494F 		.ascii	"SDIO_ClockCmd\000"
 4466      5F436C6F 
 4466      636B436D 
 4466      6400
 4467              	.LASF98:
 4468 01ab 5344494F 		.ascii	"SDIO_Init\000"
 4468      5F496E69 
 4468      7400
 4469              	.LASF66:
 4470 01b5 4E657753 		.ascii	"NewState\000"
 4470      74617465 
 4470      00
 4471              	.LASF43:
 4472 01be 5344494F 		.ascii	"SDIO_ClockDiv\000"
 4472      5F436C6F 
 4472      636B4469 
ARM GAS  G:\Users\Jaxb\AppData\Local\Temp\cc02ucHi.s 			page 95


 4472      7600
 4473              	.LASF18:
 4474 01cc 44495341 		.ascii	"DISABLE\000"
 4474      424C4500 
 4475              	.LASF92:
 4476 01d4 5344494F 		.ascii	"SDIO_GetPowerState\000"
 4476      5F476574 
 4476      506F7765 
 4476      72537461 
 4476      746500
 4477              	.LASF51:
 4478 01e7 5344494F 		.ascii	"SDIO_DataTimeOut\000"
 4478      5F446174 
 4478      6154696D 
 4478      654F7574 
 4478      00
 4479              	.LASF101:
 4480 01f8 463A5C6B 		.ascii	"F:\\kaka\\KAKAOS\\C\\windows\\Project\\RVMDK\243\250"
 4480      616B615C 
 4480      4B414B41 
 4480      4F535C43 
 4480      5C77696E 
 4481 0220 757635A3 		.ascii	"uv5\243\251\000"
 4481      A900
 4482              	.LASF54:
 4483 0226 5344494F 		.ascii	"SDIO_TransferDir\000"
 4483      5F547261 
 4483      6E736665 
 4483      72446972 
 4483      00
 4484              	.LASF97:
 4485 0237 5344494F 		.ascii	"SDIO_InitStruct\000"
 4485      5F496E69 
 4485      74537472 
 4485      75637400 
 4486              	.LASF74:
 4487 0247 5344494F 		.ascii	"SDIO_StartSDIOReadWait\000"
 4487      5F537461 
 4487      72745344 
 4487      494F5265 
 4487      61645761 
 4488              	.LASF79:
 4489 025e 5344494F 		.ascii	"SDIO_GetDataCounter\000"
 4489      5F476574 
 4489      44617461 
 4489      436F756E 
 4489      74657200 
 4490              	.LASF4:
 4491 0272 6C6F6E67 		.ascii	"long int\000"
 4491      20696E74 
 4491      00
 4492              	.LASF59:
 4493 027b 5344494F 		.ascii	"SDIO_ClearITPendingBit\000"
 4493      5F436C65 
 4493      61724954 
 4493      50656E64 
 4493      696E6742 
ARM GAS  G:\Users\Jaxb\AppData\Local\Temp\cc02ucHi.s 			page 96


 4494              	.LASF47:
 4495 0292 5344494F 		.ascii	"SDIO_Response\000"
 4495      5F526573 
 4495      706F6E73 
 4495      6500
 4496              	.LASF90:
 4497 02a0 5344494F 		.ascii	"SDIO_DMACmd\000"
 4497      5F444D41 
 4497      436D6400 
 4498              	.LASF94:
 4499 02ac 5344494F 		.ascii	"SDIO_PowerState\000"
 4499      5F506F77 
 4499      65725374 
 4499      61746500 
 4500              	.LASF96:
 4501 02bc 5344494F 		.ascii	"SDIO_StructInit\000"
 4501      5F537472 
 4501      75637449 
 4501      6E697400 
 4502              	.LASF64:
 4503 02cc 62697473 		.ascii	"bitstatus\000"
 4503      74617475 
 4503      7300
 4504              	.LASF76:
 4505 02d6 44617461 		.ascii	"Data\000"
 4505      00
 4506              	.LASF40:
 4507 02db 5344494F 		.ascii	"SDIO_ClockPowerSave\000"
 4507      5F436C6F 
 4507      636B506F 
 4507      77657253 
 4507      61766500 
 4508              	.LASF36:
 4509 02ef 4649464F 		.ascii	"FIFO\000"
 4509      00
 4510              	.LASF83:
 4511 02f4 746D7072 		.ascii	"tmpreg\000"
 4511      656700
 4512              	.LASF82:
 4513 02fb 5344494F 		.ascii	"SDIO_DataConfig\000"
 4513      5F446174 
 4513      61436F6E 
 4513      66696700 
 4514              	.LASF102:
 4515 030b 5344494F 		.ascii	"SDIO_DeInit\000"
 4515      5F446549 
 4515      6E697400 
 4516              	.LASF58:
 4517 0317 5344494F 		.ascii	"SDIO_IT\000"
 4517      5F495400 
 4518              	.LASF1:
 4519 031f 756E7369 		.ascii	"unsigned char\000"
 4519      676E6564 
 4519      20636861 
 4519      7200
 4520              	.LASF81:
 4521 032d 5344494F 		.ascii	"SDIO_DataInitStruct\000"
ARM GAS  G:\Users\Jaxb\AppData\Local\Temp\cc02ucHi.s 			page 97


 4521      5F446174 
 4521      61496E69 
 4521      74537472 
 4521      75637400 
 4522              	.LASF0:
 4523 0341 7369676E 		.ascii	"signed char\000"
 4523      65642063 
 4523      68617200 
 4524              	.LASF9:
 4525 034d 6C6F6E67 		.ascii	"long long unsigned int\000"
 4525      206C6F6E 
 4525      6720756E 
 4525      7369676E 
 4525      65642069 
 4526              	.LASF12:
 4527 0364 75696E74 		.ascii	"uint32_t\000"
 4527      33325F74 
 4527      00
 4528              	.LASF80:
 4529 036d 5344494F 		.ascii	"SDIO_DataStructInit\000"
 4529      5F446174 
 4529      61537472 
 4529      75637449 
 4529      6E697400 
 4530              	.LASF10:
 4531 0381 756E7369 		.ascii	"unsigned int\000"
 4531      676E6564 
 4531      20696E74 
 4531      00
 4532              	.LASF32:
 4533 038e 4D41534B 		.ascii	"MASK\000"
 4533      00
 4534              	.LASF37:
 4535 0393 5344494F 		.ascii	"SDIO_TypeDef\000"
 4535      5F547970 
 4535      65446566 
 4535      00
 4536              	.LASF84:
 4537 03a0 5344494F 		.ascii	"SDIO_GetResponse\000"
 4537      5F476574 
 4537      52657370 
 4537      6F6E7365 
 4537      00
 4538              	.LASF86:
 4539 03b1 5344494F 		.ascii	"SDIO_GetCommandResponse\000"
 4539      5F476574 
 4539      436F6D6D 
 4539      616E6452 
 4539      6573706F 
 4540              	.LASF3:
 4541 03c9 73686F72 		.ascii	"short unsigned int\000"
 4541      7420756E 
 4541      7369676E 
 4541      65642069 
 4541      6E7400
 4542              	.LASF24:
 4543 03dc 52455350 		.ascii	"RESP1\000"
ARM GAS  G:\Users\Jaxb\AppData\Local\Temp\cc02ucHi.s 			page 98


 4543      3100
 4544              	.LASF25:
 4545 03e2 52455350 		.ascii	"RESP2\000"
 4545      3200
 4546              	.LASF26:
 4547 03e8 52455350 		.ascii	"RESP3\000"
 4547      3300
 4548              	.LASF27:
 4549 03ee 52455350 		.ascii	"RESP4\000"
 4549      3400
 4550              	.LASF67:
 4551 03f4 5344494F 		.ascii	"SDIO_CEATAITCmd\000"
 4551      5F434541 
 4551      54414954 
 4551      436D6400 
 4552              	.LASF61:
 4553 0404 5344494F 		.ascii	"SDIO_FLAG\000"
 4553      5F464C41 
 4553      4700
 4554              	.LASF14:
 4555 040e 53797374 		.ascii	"SystemCoreClock\000"
 4555      656D436F 
 4555      7265436C 
 4555      6F636B00 
 4556              	.LASF65:
 4557 041e 5344494F 		.ascii	"SDIO_SendCEATACmd\000"
 4557      5F53656E 
 4557      64434541 
 4557      5441436D 
 4557      6400
 4558              	.LASF52:
 4559 0430 5344494F 		.ascii	"SDIO_DataLength\000"
 4559      5F446174 
 4559      614C656E 
 4559      67746800 
 4560              	.LASF33:
 4561 0440 52455345 		.ascii	"RESERVED0\000"
 4561      52564544 
 4561      3000
 4562              	.LASF35:
 4563 044a 52455345 		.ascii	"RESERVED1\000"
 4563      52564544 
 4563      3100
 4564              	.LASF7:
 4565 0454 6C6F6E67 		.ascii	"long unsigned int\000"
 4565      20756E73 
 4565      69676E65 
 4565      6420696E 
 4565      7400
 4566              	.LASF93:
 4567 0466 5344494F 		.ascii	"SDIO_SetPowerState\000"
 4567      5F536574 
 4567      506F7765 
 4567      72537461 
 4567      746500
 4568              	.LASF88:
 4569 0479 5344494F 		.ascii	"SDIO_CmdInitStruct\000"
ARM GAS  G:\Users\Jaxb\AppData\Local\Temp\cc02ucHi.s 			page 99


 4569      5F436D64 
 4569      496E6974 
 4569      53747275 
 4569      637400
 4570              	.LASF22:
 4571 048c 434C4B43 		.ascii	"CLKCR\000"
 4571      5200
 4572              	.LASF20:
 4573 0492 46756E63 		.ascii	"FunctionalState\000"
 4573      74696F6E 
 4573      616C5374 
 4573      61746500 
 4574              	.LASF6:
 4575 04a2 5F5F7569 		.ascii	"__uint32_t\000"
 4575      6E743332 
 4575      5F7400
 4576              	.LASF87:
 4577 04ad 5344494F 		.ascii	"SDIO_CmdStructInit\000"
 4577      5F436D64 
 4577      53747275 
 4577      6374496E 
 4577      697400
 4578              	.LASF68:
 4579 04c0 5344494F 		.ascii	"SDIO_CommandCompletionCmd\000"
 4579      5F436F6D 
 4579      6D616E64 
 4579      436F6D70 
 4579      6C657469 
 4580              	.LASF50:
 4581 04da 5344494F 		.ascii	"SDIO_CmdInitTypeDef\000"
 4581      5F436D64 
 4581      496E6974 
 4581      54797065 
 4581      44656600 
 4582              	.LASF15:
 4583 04ee 52455345 		.ascii	"RESET\000"
 4583      5400
 4584              	.LASF75:
 4585 04f4 5344494F 		.ascii	"SDIO_WriteData\000"
 4585      5F577269 
 4585      74654461 
 4585      746100
 4586              	.LASF78:
 4587 0503 5344494F 		.ascii	"SDIO_ReadData\000"
 4587      5F526561 
 4587      64446174 
 4587      6100
 4588              	.LASF100:
 4589 0511 2E2E2F2E 		.ascii	"../../source/src/FWlib/src/stm32f10x_sdio.c\000"
 4589      2E2F736F 
 4589      75726365 
 4589      2F737263 
 4589      2F46576C 
 4590              	.LASF57:
 4591 053d 5344494F 		.ascii	"SDIO_DataInitTypeDef\000"
 4591      5F446174 
 4591      61496E69 
ARM GAS  G:\Users\Jaxb\AppData\Local\Temp\cc02ucHi.s 			page 100


 4591      74547970 
 4591      65446566 
 4592              	.LASF60:
 4593 0552 5344494F 		.ascii	"SDIO_ClearFlag\000"
 4593      5F436C65 
 4593      6172466C 
 4593      616700
 4594              	.LASF99:
 4595 0561 474E5520 		.ascii	"GNU C11 7.3.1 20180622 (release) [ARM/embedded-7-br"
 4595      43313120 
 4595      372E332E 
 4595      31203230 
 4595      31383036 
 4596 0594 616E6368 		.ascii	"anch revision 261907] -mcpu=cortex-m3 -mthumb -mapc"
 4596      20726576 
 4596      6973696F 
 4596      6E203236 
 4596      31393037 
 4597 05c7 732D6672 		.ascii	"s-frame -mthumb-interwork -mcpu=cortex-m3 -mthumb -"
 4597      616D6520 
 4597      2D6D7468 
 4597      756D622D 
 4597      696E7465 
 4598 05fa 67647761 		.ascii	"gdwarf-2 -O0\000"
 4598      72662D32 
 4598      202D4F30 
 4598      00
 4599              	.LASF34:
 4600 0607 4649464F 		.ascii	"FIFOCNT\000"
 4600      434E5400 
 4601              	.LASF49:
 4602 060f 5344494F 		.ascii	"SDIO_CPSM\000"
 4602      5F435053 
 4602      4D00
 4603              	.LASF13:
 4604 0619 49544D5F 		.ascii	"ITM_RxBuffer\000"
 4604      52784275 
 4604      66666572 
 4604      00
 4605              	.LASF23:
 4606 0626 52455350 		.ascii	"RESPCMD\000"
 4606      434D4400 
 4607              	.LASF63:
 4608 062e 5344494F 		.ascii	"SDIO_GetFlagStatus\000"
 4608      5F476574 
 4608      466C6167 
 4608      53746174 
 4608      757300
 4609              	.LASF16:
 4610 0641 466C6167 		.ascii	"FlagStatus\000"
 4610      53746174 
 4610      757300
 4611              	.LASF19:
 4612 064c 454E4142 		.ascii	"ENABLE\000"
 4612      4C4500
 4613              	.LASF5:
 4614 0653 5F5F7569 		.ascii	"__uint8_t\000"
ARM GAS  G:\Users\Jaxb\AppData\Local\Temp\cc02ucHi.s 			page 101


 4614      6E74385F 
 4614      7400
 4615              	.LASF55:
 4616 065d 5344494F 		.ascii	"SDIO_TransferMode\000"
 4616      5F547261 
 4616      6E736665 
 4616      724D6F64 
 4616      6500
 4617              		.ident	"GCC: (GNU Tools for Arm Embedded Processors 7-2018-q2-update) 7.3.1 20180622 (release) [AR
ARM GAS  G:\Users\Jaxb\AppData\Local\Temp\cc02ucHi.s 			page 102


DEFINED SYMBOLS
                            *ABS*:00000000 stm32f10x_sdio.c
G:\Users\Jaxb\AppData\Local\Temp\cc02ucHi.s:15     .text:00000000 $t
G:\Users\Jaxb\AppData\Local\Temp\cc02ucHi.s:22     .text:00000000 SDIO_DeInit
G:\Users\Jaxb\AppData\Local\Temp\cc02ucHi.s:87     .text:00000044 $d
G:\Users\Jaxb\AppData\Local\Temp\cc02ucHi.s:92     .text:0000004c $t
G:\Users\Jaxb\AppData\Local\Temp\cc02ucHi.s:99     .text:0000004c SDIO_Init
G:\Users\Jaxb\AppData\Local\Temp\cc02ucHi.s:179    .text:000000a4 $d
G:\Users\Jaxb\AppData\Local\Temp\cc02ucHi.s:183    .text:000000a8 $t
G:\Users\Jaxb\AppData\Local\Temp\cc02ucHi.s:190    .text:000000a8 SDIO_StructInit
G:\Users\Jaxb\AppData\Local\Temp\cc02ucHi.s:256    .text:000000de SDIO_ClockCmd
G:\Users\Jaxb\AppData\Local\Temp\cc02ucHi.s:296    .text:000000f8 $d
G:\Users\Jaxb\AppData\Local\Temp\cc02ucHi.s:300    .text:000000fc $t
G:\Users\Jaxb\AppData\Local\Temp\cc02ucHi.s:307    .text:000000fc SDIO_SetPowerState
G:\Users\Jaxb\AppData\Local\Temp\cc02ucHi.s:355    .text:00000128 $d
G:\Users\Jaxb\AppData\Local\Temp\cc02ucHi.s:359    .text:0000012c $t
G:\Users\Jaxb\AppData\Local\Temp\cc02ucHi.s:366    .text:0000012c SDIO_GetPowerState
G:\Users\Jaxb\AppData\Local\Temp\cc02ucHi.s:398    .text:00000140 $d
G:\Users\Jaxb\AppData\Local\Temp\cc02ucHi.s:402    .text:00000144 $t
G:\Users\Jaxb\AppData\Local\Temp\cc02ucHi.s:409    .text:00000144 SDIO_ITConfig
G:\Users\Jaxb\AppData\Local\Temp\cc02ucHi.s:469    .text:0000017c $d
G:\Users\Jaxb\AppData\Local\Temp\cc02ucHi.s:473    .text:00000180 $t
G:\Users\Jaxb\AppData\Local\Temp\cc02ucHi.s:480    .text:00000180 SDIO_DMACmd
G:\Users\Jaxb\AppData\Local\Temp\cc02ucHi.s:520    .text:0000019c $d
G:\Users\Jaxb\AppData\Local\Temp\cc02ucHi.s:524    .text:000001a0 $t
G:\Users\Jaxb\AppData\Local\Temp\cc02ucHi.s:531    .text:000001a0 SDIO_SendCommand
G:\Users\Jaxb\AppData\Local\Temp\cc02ucHi.s:604    .text:000001f4 $d
G:\Users\Jaxb\AppData\Local\Temp\cc02ucHi.s:608    .text:000001f8 $t
G:\Users\Jaxb\AppData\Local\Temp\cc02ucHi.s:615    .text:000001f8 SDIO_CmdStructInit
G:\Users\Jaxb\AppData\Local\Temp\cc02ucHi.s:677    .text:00000228 SDIO_GetCommandResponse
G:\Users\Jaxb\AppData\Local\Temp\cc02ucHi.s:709    .text:0000023c $d
G:\Users\Jaxb\AppData\Local\Temp\cc02ucHi.s:713    .text:00000240 $t
G:\Users\Jaxb\AppData\Local\Temp\cc02ucHi.s:720    .text:00000240 SDIO_GetResponse
G:\Users\Jaxb\AppData\Local\Temp\cc02ucHi.s:766    .text:00000264 $d
G:\Users\Jaxb\AppData\Local\Temp\cc02ucHi.s:770    .text:00000268 $t
G:\Users\Jaxb\AppData\Local\Temp\cc02ucHi.s:777    .text:00000268 SDIO_DataConfig
G:\Users\Jaxb\AppData\Local\Temp\cc02ucHi.s:854    .text:000002c0 $d
G:\Users\Jaxb\AppData\Local\Temp\cc02ucHi.s:858    .text:000002c4 $t
G:\Users\Jaxb\AppData\Local\Temp\cc02ucHi.s:865    .text:000002c4 SDIO_DataStructInit
G:\Users\Jaxb\AppData\Local\Temp\cc02ucHi.s:931    .text:000002fc SDIO_GetDataCounter
G:\Users\Jaxb\AppData\Local\Temp\cc02ucHi.s:962    .text:0000030c $d
G:\Users\Jaxb\AppData\Local\Temp\cc02ucHi.s:966    .text:00000310 $t
G:\Users\Jaxb\AppData\Local\Temp\cc02ucHi.s:973    .text:00000310 SDIO_ReadData
G:\Users\Jaxb\AppData\Local\Temp\cc02ucHi.s:1004   .text:00000324 $d
G:\Users\Jaxb\AppData\Local\Temp\cc02ucHi.s:1008   .text:00000328 $t
G:\Users\Jaxb\AppData\Local\Temp\cc02ucHi.s:1015   .text:00000328 SDIO_WriteData
G:\Users\Jaxb\AppData\Local\Temp\cc02ucHi.s:1054   .text:00000344 $d
G:\Users\Jaxb\AppData\Local\Temp\cc02ucHi.s:1058   .text:00000348 $t
G:\Users\Jaxb\AppData\Local\Temp\cc02ucHi.s:1065   .text:00000348 SDIO_GetFIFOCount
G:\Users\Jaxb\AppData\Local\Temp\cc02ucHi.s:1096   .text:00000358 $d
G:\Users\Jaxb\AppData\Local\Temp\cc02ucHi.s:1100   .text:0000035c $t
G:\Users\Jaxb\AppData\Local\Temp\cc02ucHi.s:1107   .text:0000035c SDIO_StartSDIOReadWait
G:\Users\Jaxb\AppData\Local\Temp\cc02ucHi.s:1147   .text:00000378 $d
G:\Users\Jaxb\AppData\Local\Temp\cc02ucHi.s:1151   .text:0000037c $t
G:\Users\Jaxb\AppData\Local\Temp\cc02ucHi.s:1158   .text:0000037c SDIO_StopSDIOReadWait
G:\Users\Jaxb\AppData\Local\Temp\cc02ucHi.s:1198   .text:00000398 $d
G:\Users\Jaxb\AppData\Local\Temp\cc02ucHi.s:1202   .text:0000039c $t
ARM GAS  G:\Users\Jaxb\AppData\Local\Temp\cc02ucHi.s 			page 103


G:\Users\Jaxb\AppData\Local\Temp\cc02ucHi.s:1209   .text:0000039c SDIO_SetSDIOReadWaitMode
G:\Users\Jaxb\AppData\Local\Temp\cc02ucHi.s:1248   .text:000003b4 $d
G:\Users\Jaxb\AppData\Local\Temp\cc02ucHi.s:1252   .text:000003b8 $t
G:\Users\Jaxb\AppData\Local\Temp\cc02ucHi.s:1259   .text:000003b8 SDIO_SetSDIOOperation
G:\Users\Jaxb\AppData\Local\Temp\cc02ucHi.s:1299   .text:000003d4 $d
G:\Users\Jaxb\AppData\Local\Temp\cc02ucHi.s:1303   .text:000003d8 $t
G:\Users\Jaxb\AppData\Local\Temp\cc02ucHi.s:1310   .text:000003d8 SDIO_SendSDIOSuspendCmd
G:\Users\Jaxb\AppData\Local\Temp\cc02ucHi.s:1350   .text:000003f4 $d
G:\Users\Jaxb\AppData\Local\Temp\cc02ucHi.s:1354   .text:000003f8 $t
G:\Users\Jaxb\AppData\Local\Temp\cc02ucHi.s:1361   .text:000003f8 SDIO_CommandCompletionCmd
G:\Users\Jaxb\AppData\Local\Temp\cc02ucHi.s:1401   .text:00000414 $d
G:\Users\Jaxb\AppData\Local\Temp\cc02ucHi.s:1405   .text:00000418 $t
G:\Users\Jaxb\AppData\Local\Temp\cc02ucHi.s:1412   .text:00000418 SDIO_CEATAITCmd
G:\Users\Jaxb\AppData\Local\Temp\cc02ucHi.s:1458   .text:00000440 $d
G:\Users\Jaxb\AppData\Local\Temp\cc02ucHi.s:1462   .text:00000444 $t
G:\Users\Jaxb\AppData\Local\Temp\cc02ucHi.s:1469   .text:00000444 SDIO_SendCEATACmd
G:\Users\Jaxb\AppData\Local\Temp\cc02ucHi.s:1509   .text:00000460 $d
G:\Users\Jaxb\AppData\Local\Temp\cc02ucHi.s:1513   .text:00000464 $t
G:\Users\Jaxb\AppData\Local\Temp\cc02ucHi.s:1520   .text:00000464 SDIO_GetFlagStatus
G:\Users\Jaxb\AppData\Local\Temp\cc02ucHi.s:1576   .text:00000494 $d
G:\Users\Jaxb\AppData\Local\Temp\cc02ucHi.s:1580   .text:00000498 $t
G:\Users\Jaxb\AppData\Local\Temp\cc02ucHi.s:1587   .text:00000498 SDIO_ClearFlag
G:\Users\Jaxb\AppData\Local\Temp\cc02ucHi.s:1626   .text:000004b0 $d
G:\Users\Jaxb\AppData\Local\Temp\cc02ucHi.s:1630   .text:000004b4 $t
G:\Users\Jaxb\AppData\Local\Temp\cc02ucHi.s:1637   .text:000004b4 SDIO_GetITStatus
G:\Users\Jaxb\AppData\Local\Temp\cc02ucHi.s:1693   .text:000004e4 $d
G:\Users\Jaxb\AppData\Local\Temp\cc02ucHi.s:1697   .text:000004e8 $t
G:\Users\Jaxb\AppData\Local\Temp\cc02ucHi.s:1704   .text:000004e8 SDIO_ClearITPendingBit
G:\Users\Jaxb\AppData\Local\Temp\cc02ucHi.s:1743   .text:00000500 $d

NO UNDEFINED SYMBOLS
