ARM GAS  G:\Users\Jaxb\AppData\Local\Temp\cctfzRXv.s 			page 1


   1              		.cpu cortex-m3
   2              		.eabi_attribute 20, 1
   3              		.eabi_attribute 21, 1
   4              		.eabi_attribute 23, 3
   5              		.eabi_attribute 24, 1
   6              		.eabi_attribute 25, 1
   7              		.eabi_attribute 26, 1
   8              		.eabi_attribute 30, 2
   9              		.eabi_attribute 34, 1
  10              		.eabi_attribute 18, 4
  11              		.file	"stm32f10x_can.c"
  12              		.text
  13              	.Ltext0:
  14              		.cfi_sections	.debug_frame
  15              		.align	1
  16              		.p2align 2,,3
  17              		.global	CAN_DeInit
  18              		.syntax unified
  19              		.thumb
  20              		.thumb_func
  21              		.fpu softvfp
  22              		.type	CAN_DeInit, %function
  23              	CAN_DeInit:
  24              	.LFB29:
  25              		.file 1 "../../source/src/FWlib/src/stm32f10x_can.c"
   1:../../source/src/FWlib/src/stm32f10x_can.c **** /**
   2:../../source/src/FWlib/src/stm32f10x_can.c ****   ******************************************************************************
   3:../../source/src/FWlib/src/stm32f10x_can.c ****   * @file    stm32f10x_can.c
   4:../../source/src/FWlib/src/stm32f10x_can.c ****   * @author  MCD Application Team
   5:../../source/src/FWlib/src/stm32f10x_can.c ****   * @version V3.5.0
   6:../../source/src/FWlib/src/stm32f10x_can.c ****   * @date    11-March-2011
   7:../../source/src/FWlib/src/stm32f10x_can.c ****   * @brief   This file provides all the CAN firmware functions.
   8:../../source/src/FWlib/src/stm32f10x_can.c ****   ******************************************************************************
   9:../../source/src/FWlib/src/stm32f10x_can.c ****   * @attention
  10:../../source/src/FWlib/src/stm32f10x_can.c ****   *
  11:../../source/src/FWlib/src/stm32f10x_can.c ****   * THE PRESENT FIRMWARE WHICH IS FOR GUIDANCE ONLY AIMS AT PROVIDING CUSTOMERS
  12:../../source/src/FWlib/src/stm32f10x_can.c ****   * WITH CODING INFORMATION REGARDING THEIR PRODUCTS IN ORDER FOR THEM TO SAVE
  13:../../source/src/FWlib/src/stm32f10x_can.c ****   * TIME. AS A RESULT, STMICROELECTRONICS SHALL NOT BE HELD LIABLE FOR ANY
  14:../../source/src/FWlib/src/stm32f10x_can.c ****   * DIRECT, INDIRECT OR CONSEQUENTIAL DAMAGES WITH RESPECT TO ANY CLAIMS ARISING
  15:../../source/src/FWlib/src/stm32f10x_can.c ****   * FROM THE CONTENT OF SUCH FIRMWARE AND/OR THE USE MADE BY CUSTOMERS OF THE
  16:../../source/src/FWlib/src/stm32f10x_can.c ****   * CODING INFORMATION CONTAINED HEREIN IN CONNECTION WITH THEIR PRODUCTS.
  17:../../source/src/FWlib/src/stm32f10x_can.c ****   *
  18:../../source/src/FWlib/src/stm32f10x_can.c ****   * <h2><center>&copy; COPYRIGHT 2011 STMicroelectronics</center></h2>
  19:../../source/src/FWlib/src/stm32f10x_can.c ****   ******************************************************************************
  20:../../source/src/FWlib/src/stm32f10x_can.c ****   */
  21:../../source/src/FWlib/src/stm32f10x_can.c **** 
  22:../../source/src/FWlib/src/stm32f10x_can.c **** /* Includes ------------------------------------------------------------------*/
  23:../../source/src/FWlib/src/stm32f10x_can.c **** #include "stm32f10x_can.h"
  24:../../source/src/FWlib/src/stm32f10x_can.c **** #include "stm32f10x_rcc.h"
  25:../../source/src/FWlib/src/stm32f10x_can.c **** 
  26:../../source/src/FWlib/src/stm32f10x_can.c **** /** @addtogroup STM32F10x_StdPeriph_Driver
  27:../../source/src/FWlib/src/stm32f10x_can.c ****   * @{
  28:../../source/src/FWlib/src/stm32f10x_can.c ****   */
  29:../../source/src/FWlib/src/stm32f10x_can.c **** 
  30:../../source/src/FWlib/src/stm32f10x_can.c **** /** @defgroup CAN 
  31:../../source/src/FWlib/src/stm32f10x_can.c ****   * @brief CAN driver modules
  32:../../source/src/FWlib/src/stm32f10x_can.c ****   * @{
ARM GAS  G:\Users\Jaxb\AppData\Local\Temp\cctfzRXv.s 			page 2


  33:../../source/src/FWlib/src/stm32f10x_can.c ****   */ 
  34:../../source/src/FWlib/src/stm32f10x_can.c **** 
  35:../../source/src/FWlib/src/stm32f10x_can.c **** /** @defgroup CAN_Private_TypesDefinitions
  36:../../source/src/FWlib/src/stm32f10x_can.c ****   * @{
  37:../../source/src/FWlib/src/stm32f10x_can.c ****   */
  38:../../source/src/FWlib/src/stm32f10x_can.c **** 
  39:../../source/src/FWlib/src/stm32f10x_can.c **** /**
  40:../../source/src/FWlib/src/stm32f10x_can.c ****   * @}
  41:../../source/src/FWlib/src/stm32f10x_can.c ****   */
  42:../../source/src/FWlib/src/stm32f10x_can.c **** 
  43:../../source/src/FWlib/src/stm32f10x_can.c **** /** @defgroup CAN_Private_Defines
  44:../../source/src/FWlib/src/stm32f10x_can.c ****   * @{
  45:../../source/src/FWlib/src/stm32f10x_can.c ****   */
  46:../../source/src/FWlib/src/stm32f10x_can.c **** 
  47:../../source/src/FWlib/src/stm32f10x_can.c **** /* CAN Master Control Register bits */
  48:../../source/src/FWlib/src/stm32f10x_can.c **** 
  49:../../source/src/FWlib/src/stm32f10x_can.c **** #define MCR_DBF      ((uint32_t)0x00010000) /* software master reset */
  50:../../source/src/FWlib/src/stm32f10x_can.c **** 
  51:../../source/src/FWlib/src/stm32f10x_can.c **** /* CAN Mailbox Transmit Request */
  52:../../source/src/FWlib/src/stm32f10x_can.c **** #define TMIDxR_TXRQ  ((uint32_t)0x00000001) /* Transmit mailbox request */
  53:../../source/src/FWlib/src/stm32f10x_can.c **** 
  54:../../source/src/FWlib/src/stm32f10x_can.c **** /* CAN Filter Master Register bits */
  55:../../source/src/FWlib/src/stm32f10x_can.c **** #define FMR_FINIT    ((uint32_t)0x00000001) /* Filter init mode */
  56:../../source/src/FWlib/src/stm32f10x_can.c **** 
  57:../../source/src/FWlib/src/stm32f10x_can.c **** /* Time out for INAK bit */
  58:../../source/src/FWlib/src/stm32f10x_can.c **** #define INAK_TIMEOUT        ((uint32_t)0x0000FFFF)
  59:../../source/src/FWlib/src/stm32f10x_can.c **** /* Time out for SLAK bit */
  60:../../source/src/FWlib/src/stm32f10x_can.c **** #define SLAK_TIMEOUT        ((uint32_t)0x0000FFFF)
  61:../../source/src/FWlib/src/stm32f10x_can.c **** 
  62:../../source/src/FWlib/src/stm32f10x_can.c **** 
  63:../../source/src/FWlib/src/stm32f10x_can.c **** 
  64:../../source/src/FWlib/src/stm32f10x_can.c **** /* Flags in TSR register */
  65:../../source/src/FWlib/src/stm32f10x_can.c **** #define CAN_FLAGS_TSR              ((uint32_t)0x08000000) 
  66:../../source/src/FWlib/src/stm32f10x_can.c **** /* Flags in RF1R register */
  67:../../source/src/FWlib/src/stm32f10x_can.c **** #define CAN_FLAGS_RF1R             ((uint32_t)0x04000000) 
  68:../../source/src/FWlib/src/stm32f10x_can.c **** /* Flags in RF0R register */
  69:../../source/src/FWlib/src/stm32f10x_can.c **** #define CAN_FLAGS_RF0R             ((uint32_t)0x02000000) 
  70:../../source/src/FWlib/src/stm32f10x_can.c **** /* Flags in MSR register */
  71:../../source/src/FWlib/src/stm32f10x_can.c **** #define CAN_FLAGS_MSR              ((uint32_t)0x01000000) 
  72:../../source/src/FWlib/src/stm32f10x_can.c **** /* Flags in ESR register */
  73:../../source/src/FWlib/src/stm32f10x_can.c **** #define CAN_FLAGS_ESR              ((uint32_t)0x00F00000) 
  74:../../source/src/FWlib/src/stm32f10x_can.c **** 
  75:../../source/src/FWlib/src/stm32f10x_can.c **** /* Mailboxes definition */
  76:../../source/src/FWlib/src/stm32f10x_can.c **** #define CAN_TXMAILBOX_0                   ((uint8_t)0x00)
  77:../../source/src/FWlib/src/stm32f10x_can.c **** #define CAN_TXMAILBOX_1                   ((uint8_t)0x01)
  78:../../source/src/FWlib/src/stm32f10x_can.c **** #define CAN_TXMAILBOX_2                   ((uint8_t)0x02) 
  79:../../source/src/FWlib/src/stm32f10x_can.c **** 
  80:../../source/src/FWlib/src/stm32f10x_can.c **** 
  81:../../source/src/FWlib/src/stm32f10x_can.c **** 
  82:../../source/src/FWlib/src/stm32f10x_can.c **** #define CAN_MODE_MASK              ((uint32_t) 0x00000003)
  83:../../source/src/FWlib/src/stm32f10x_can.c **** /**
  84:../../source/src/FWlib/src/stm32f10x_can.c ****   * @}
  85:../../source/src/FWlib/src/stm32f10x_can.c ****   */
  86:../../source/src/FWlib/src/stm32f10x_can.c **** 
  87:../../source/src/FWlib/src/stm32f10x_can.c **** /** @defgroup CAN_Private_Macros
  88:../../source/src/FWlib/src/stm32f10x_can.c ****   * @{
  89:../../source/src/FWlib/src/stm32f10x_can.c ****   */
ARM GAS  G:\Users\Jaxb\AppData\Local\Temp\cctfzRXv.s 			page 3


  90:../../source/src/FWlib/src/stm32f10x_can.c **** 
  91:../../source/src/FWlib/src/stm32f10x_can.c **** /**
  92:../../source/src/FWlib/src/stm32f10x_can.c ****   * @}
  93:../../source/src/FWlib/src/stm32f10x_can.c ****   */
  94:../../source/src/FWlib/src/stm32f10x_can.c **** 
  95:../../source/src/FWlib/src/stm32f10x_can.c **** /** @defgroup CAN_Private_Variables
  96:../../source/src/FWlib/src/stm32f10x_can.c ****   * @{
  97:../../source/src/FWlib/src/stm32f10x_can.c ****   */
  98:../../source/src/FWlib/src/stm32f10x_can.c **** 
  99:../../source/src/FWlib/src/stm32f10x_can.c **** /**
 100:../../source/src/FWlib/src/stm32f10x_can.c ****   * @}
 101:../../source/src/FWlib/src/stm32f10x_can.c ****   */
 102:../../source/src/FWlib/src/stm32f10x_can.c **** 
 103:../../source/src/FWlib/src/stm32f10x_can.c **** /** @defgroup CAN_Private_FunctionPrototypes
 104:../../source/src/FWlib/src/stm32f10x_can.c ****   * @{
 105:../../source/src/FWlib/src/stm32f10x_can.c ****   */
 106:../../source/src/FWlib/src/stm32f10x_can.c **** 
 107:../../source/src/FWlib/src/stm32f10x_can.c **** static ITStatus CheckITStatus(uint32_t CAN_Reg, uint32_t It_Bit);
 108:../../source/src/FWlib/src/stm32f10x_can.c **** 
 109:../../source/src/FWlib/src/stm32f10x_can.c **** /**
 110:../../source/src/FWlib/src/stm32f10x_can.c ****   * @}
 111:../../source/src/FWlib/src/stm32f10x_can.c ****   */
 112:../../source/src/FWlib/src/stm32f10x_can.c **** 
 113:../../source/src/FWlib/src/stm32f10x_can.c **** /** @defgroup CAN_Private_Functions
 114:../../source/src/FWlib/src/stm32f10x_can.c ****   * @{
 115:../../source/src/FWlib/src/stm32f10x_can.c ****   */
 116:../../source/src/FWlib/src/stm32f10x_can.c **** 
 117:../../source/src/FWlib/src/stm32f10x_can.c **** /**
 118:../../source/src/FWlib/src/stm32f10x_can.c ****   * @brief  Deinitializes the CAN peripheral registers to their default reset values.
 119:../../source/src/FWlib/src/stm32f10x_can.c ****   * @param  CANx: where x can be 1 or 2 to select the CAN peripheral.
 120:../../source/src/FWlib/src/stm32f10x_can.c ****   * @retval None.
 121:../../source/src/FWlib/src/stm32f10x_can.c ****   */
 122:../../source/src/FWlib/src/stm32f10x_can.c **** void CAN_DeInit(CAN_TypeDef* CANx)
 123:../../source/src/FWlib/src/stm32f10x_can.c **** {
  26              		.loc 1 123 0
  27              		.cfi_startproc
  28              		@ args = 0, pretend = 0, frame = 0
  29              		@ frame_needed = 0, uses_anonymous_args = 0
  30              	.LVL0:
  31 0000 08B5     		push	{r3, lr}
  32              	.LCFI0:
  33              		.cfi_def_cfa_offset 8
  34              		.cfi_offset 3, -8
  35              		.cfi_offset 14, -4
 124:../../source/src/FWlib/src/stm32f10x_can.c ****   /* Check the parameters */
 125:../../source/src/FWlib/src/stm32f10x_can.c ****   assert_param(IS_CAN_ALL_PERIPH(CANx));
 126:../../source/src/FWlib/src/stm32f10x_can.c ****  
 127:../../source/src/FWlib/src/stm32f10x_can.c ****   if (CANx == CAN1)
  36              		.loc 1 127 0
  37 0002 0D4B     		ldr	r3, .L5
 128:../../source/src/FWlib/src/stm32f10x_can.c ****   {
 129:../../source/src/FWlib/src/stm32f10x_can.c ****     /* Enable CAN1 reset state */
 130:../../source/src/FWlib/src/stm32f10x_can.c ****     RCC_APB1PeriphResetCmd(RCC_APB1Periph_CAN1, ENABLE);
  38              		.loc 1 130 0
  39 0004 0121     		movs	r1, #1
 127:../../source/src/FWlib/src/stm32f10x_can.c ****   {
  40              		.loc 1 127 0
ARM GAS  G:\Users\Jaxb\AppData\Local\Temp\cctfzRXv.s 			page 4


  41 0006 9842     		cmp	r0, r3
  42 0008 0AD0     		beq	.L4
 131:../../source/src/FWlib/src/stm32f10x_can.c ****     /* Release CAN1 from reset state */
 132:../../source/src/FWlib/src/stm32f10x_can.c ****     RCC_APB1PeriphResetCmd(RCC_APB1Periph_CAN1, DISABLE);
 133:../../source/src/FWlib/src/stm32f10x_can.c ****   }
 134:../../source/src/FWlib/src/stm32f10x_can.c ****   else
 135:../../source/src/FWlib/src/stm32f10x_can.c ****   {  
 136:../../source/src/FWlib/src/stm32f10x_can.c ****     /* Enable CAN2 reset state */
 137:../../source/src/FWlib/src/stm32f10x_can.c ****     RCC_APB1PeriphResetCmd(RCC_APB1Periph_CAN2, ENABLE);
  43              		.loc 1 137 0
  44 000a 4FF08060 		mov	r0, #67108864
  45              	.LVL1:
  46 000e FFF7FEFF 		bl	RCC_APB1PeriphResetCmd
  47              	.LVL2:
 138:../../source/src/FWlib/src/stm32f10x_can.c ****     /* Release CAN2 from reset state */
 139:../../source/src/FWlib/src/stm32f10x_can.c ****     RCC_APB1PeriphResetCmd(RCC_APB1Periph_CAN2, DISABLE);
 140:../../source/src/FWlib/src/stm32f10x_can.c ****   }
 141:../../source/src/FWlib/src/stm32f10x_can.c **** }
  48              		.loc 1 141 0
  49 0012 BDE80840 		pop	{r3, lr}
  50              	.LCFI1:
  51              		.cfi_remember_state
  52              		.cfi_restore 14
  53              		.cfi_restore 3
  54              		.cfi_def_cfa_offset 0
 139:../../source/src/FWlib/src/stm32f10x_can.c ****   }
  55              		.loc 1 139 0
  56 0016 0021     		movs	r1, #0
  57 0018 4FF08060 		mov	r0, #67108864
  58 001c FFF7FEBF 		b	RCC_APB1PeriphResetCmd
  59              	.LVL3:
  60              	.L4:
  61              	.LCFI2:
  62              		.cfi_restore_state
 130:../../source/src/FWlib/src/stm32f10x_can.c ****     /* Release CAN1 from reset state */
  63              		.loc 1 130 0
  64 0020 4FF00070 		mov	r0, #33554432
  65              	.LVL4:
  66 0024 FFF7FEFF 		bl	RCC_APB1PeriphResetCmd
  67              	.LVL5:
  68              		.loc 1 141 0
  69 0028 BDE80840 		pop	{r3, lr}
  70              	.LCFI3:
  71              		.cfi_restore 14
  72              		.cfi_restore 3
  73              		.cfi_def_cfa_offset 0
 132:../../source/src/FWlib/src/stm32f10x_can.c ****   }
  74              		.loc 1 132 0
  75 002c 0021     		movs	r1, #0
  76 002e 4FF00070 		mov	r0, #33554432
  77 0032 FFF7FEBF 		b	RCC_APB1PeriphResetCmd
  78              	.LVL6:
  79              	.L6:
  80 0036 00BF     		.align	2
  81              	.L5:
  82 0038 00640040 		.word	1073767424
  83              		.cfi_endproc
ARM GAS  G:\Users\Jaxb\AppData\Local\Temp\cctfzRXv.s 			page 5


  84              	.LFE29:
  85              		.size	CAN_DeInit, .-CAN_DeInit
  86              		.align	1
  87              		.p2align 2,,3
  88              		.global	CAN_Init
  89              		.syntax unified
  90              		.thumb
  91              		.thumb_func
  92              		.fpu softvfp
  93              		.type	CAN_Init, %function
  94              	CAN_Init:
  95              	.LFB30:
 142:../../source/src/FWlib/src/stm32f10x_can.c **** 
 143:../../source/src/FWlib/src/stm32f10x_can.c **** /**
 144:../../source/src/FWlib/src/stm32f10x_can.c ****   * @brief  Initializes the CAN peripheral according to the specified
 145:../../source/src/FWlib/src/stm32f10x_can.c ****   *         parameters in the CAN_InitStruct.
 146:../../source/src/FWlib/src/stm32f10x_can.c ****   * @param  CANx:           where x can be 1 or 2 to to select the CAN 
 147:../../source/src/FWlib/src/stm32f10x_can.c ****   *                         peripheral.
 148:../../source/src/FWlib/src/stm32f10x_can.c ****   * @param  CAN_InitStruct: pointer to a CAN_InitTypeDef structure that
 149:../../source/src/FWlib/src/stm32f10x_can.c ****   *                         contains the configuration information for the 
 150:../../source/src/FWlib/src/stm32f10x_can.c ****   *                         CAN peripheral.
 151:../../source/src/FWlib/src/stm32f10x_can.c ****   * @retval Constant indicates initialization succeed which will be 
 152:../../source/src/FWlib/src/stm32f10x_can.c ****   *         CAN_InitStatus_Failed or CAN_InitStatus_Success.
 153:../../source/src/FWlib/src/stm32f10x_can.c ****   */
 154:../../source/src/FWlib/src/stm32f10x_can.c **** uint8_t CAN_Init(CAN_TypeDef* CANx, CAN_InitTypeDef* CAN_InitStruct)
 155:../../source/src/FWlib/src/stm32f10x_can.c **** {
  96              		.loc 1 155 0
  97              		.cfi_startproc
  98              		@ args = 0, pretend = 0, frame = 0
  99              		@ frame_needed = 0, uses_anonymous_args = 0
 100              		@ link register save eliminated.
 101              	.LVL7:
 156:../../source/src/FWlib/src/stm32f10x_can.c ****   uint8_t InitStatus = CAN_InitStatus_Failed;
 157:../../source/src/FWlib/src/stm32f10x_can.c ****   uint32_t wait_ack = 0x00000000;
 158:../../source/src/FWlib/src/stm32f10x_can.c ****   /* Check the parameters */
 159:../../source/src/FWlib/src/stm32f10x_can.c ****   assert_param(IS_CAN_ALL_PERIPH(CANx));
 160:../../source/src/FWlib/src/stm32f10x_can.c ****   assert_param(IS_FUNCTIONAL_STATE(CAN_InitStruct->CAN_TTCM));
 161:../../source/src/FWlib/src/stm32f10x_can.c ****   assert_param(IS_FUNCTIONAL_STATE(CAN_InitStruct->CAN_ABOM));
 162:../../source/src/FWlib/src/stm32f10x_can.c ****   assert_param(IS_FUNCTIONAL_STATE(CAN_InitStruct->CAN_AWUM));
 163:../../source/src/FWlib/src/stm32f10x_can.c ****   assert_param(IS_FUNCTIONAL_STATE(CAN_InitStruct->CAN_NART));
 164:../../source/src/FWlib/src/stm32f10x_can.c ****   assert_param(IS_FUNCTIONAL_STATE(CAN_InitStruct->CAN_RFLM));
 165:../../source/src/FWlib/src/stm32f10x_can.c ****   assert_param(IS_FUNCTIONAL_STATE(CAN_InitStruct->CAN_TXFP));
 166:../../source/src/FWlib/src/stm32f10x_can.c ****   assert_param(IS_CAN_MODE(CAN_InitStruct->CAN_Mode));
 167:../../source/src/FWlib/src/stm32f10x_can.c ****   assert_param(IS_CAN_SJW(CAN_InitStruct->CAN_SJW));
 168:../../source/src/FWlib/src/stm32f10x_can.c ****   assert_param(IS_CAN_BS1(CAN_InitStruct->CAN_BS1));
 169:../../source/src/FWlib/src/stm32f10x_can.c ****   assert_param(IS_CAN_BS2(CAN_InitStruct->CAN_BS2));
 170:../../source/src/FWlib/src/stm32f10x_can.c ****   assert_param(IS_CAN_PRESCALER(CAN_InitStruct->CAN_Prescaler));
 171:../../source/src/FWlib/src/stm32f10x_can.c **** 
 172:../../source/src/FWlib/src/stm32f10x_can.c ****   /* Exit from sleep mode */
 173:../../source/src/FWlib/src/stm32f10x_can.c ****   CANx->MCR &= (~(uint32_t)CAN_MCR_SLEEP);
 102              		.loc 1 173 0
 103 003c 0368     		ldr	r3, [r0]
 155:../../source/src/FWlib/src/stm32f10x_can.c ****   uint8_t InitStatus = CAN_InitStatus_Failed;
 104              		.loc 1 155 0
 105 003e 30B4     		push	{r4, r5}
 106              	.LCFI4:
 107              		.cfi_def_cfa_offset 8
ARM GAS  G:\Users\Jaxb\AppData\Local\Temp\cctfzRXv.s 			page 6


 108              		.cfi_offset 4, -8
 109              		.cfi_offset 5, -4
 110              		.loc 1 173 0
 111 0040 23F00203 		bic	r3, r3, #2
 112 0044 0360     		str	r3, [r0]
 174:../../source/src/FWlib/src/stm32f10x_can.c **** 
 175:../../source/src/FWlib/src/stm32f10x_can.c ****   /* Request initialisation */
 176:../../source/src/FWlib/src/stm32f10x_can.c ****   CANx->MCR |= CAN_MCR_INRQ ;
 113              		.loc 1 176 0
 114 0046 0368     		ldr	r3, [r0]
 115 0048 43F00103 		orr	r3, r3, #1
 116 004c 0360     		str	r3, [r0]
 177:../../source/src/FWlib/src/stm32f10x_can.c **** 
 178:../../source/src/FWlib/src/stm32f10x_can.c ****   /* Wait the acknowledge */
 179:../../source/src/FWlib/src/stm32f10x_can.c ****   while (((CANx->MSR & CAN_MSR_INAK) != CAN_MSR_INAK) && (wait_ack != INAK_TIMEOUT))
 117              		.loc 1 179 0
 118 004e 4368     		ldr	r3, [r0, #4]
 119 0050 DD07     		lsls	r5, r3, #31
 120 0052 07D4     		bmi	.L8
 121 0054 4FF6FF73 		movw	r3, #65535
 122 0058 01E0     		b	.L9
 123              	.LVL8:
 124              	.L34:
 125              		.loc 1 179 0 is_stmt 0 discriminator 1
 126 005a 013B     		subs	r3, r3, #1
 127              	.LVL9:
 128 005c 02D0     		beq	.L8
 129              	.LVL10:
 130              	.L9:
 131              		.loc 1 179 0
 132 005e 4268     		ldr	r2, [r0, #4]
 133 0060 D407     		lsls	r4, r2, #31
 134 0062 FAD5     		bpl	.L34
 135              	.LVL11:
 136              	.L8:
 180:../../source/src/FWlib/src/stm32f10x_can.c ****   {
 181:../../source/src/FWlib/src/stm32f10x_can.c ****     wait_ack++;
 182:../../source/src/FWlib/src/stm32f10x_can.c ****   }
 183:../../source/src/FWlib/src/stm32f10x_can.c **** 
 184:../../source/src/FWlib/src/stm32f10x_can.c ****   /* Check acknowledge */
 185:../../source/src/FWlib/src/stm32f10x_can.c ****   if ((CANx->MSR & CAN_MSR_INAK) != CAN_MSR_INAK)
 137              		.loc 1 185 0 is_stmt 1
 138 0064 4368     		ldr	r3, [r0, #4]
 139 0066 13F00103 		ands	r3, r3, #1
 140 006a 59D0     		beq	.L25
 186:../../source/src/FWlib/src/stm32f10x_can.c ****   {
 187:../../source/src/FWlib/src/stm32f10x_can.c ****     InitStatus = CAN_InitStatus_Failed;
 188:../../source/src/FWlib/src/stm32f10x_can.c ****   }
 189:../../source/src/FWlib/src/stm32f10x_can.c ****   else 
 190:../../source/src/FWlib/src/stm32f10x_can.c ****   {
 191:../../source/src/FWlib/src/stm32f10x_can.c ****     /* Set the time triggered communication mode */
 192:../../source/src/FWlib/src/stm32f10x_can.c ****     if (CAN_InitStruct->CAN_TTCM == ENABLE)
 141              		.loc 1 192 0
 142 006c 8B79     		ldrb	r3, [r1, #6]	@ zero_extendqisi2
 143 006e 012B     		cmp	r3, #1
 193:../../source/src/FWlib/src/stm32f10x_can.c ****     {
 194:../../source/src/FWlib/src/stm32f10x_can.c ****       CANx->MCR |= CAN_MCR_TTCM;
ARM GAS  G:\Users\Jaxb\AppData\Local\Temp\cctfzRXv.s 			page 7


 144              		.loc 1 194 0
 145 0070 0368     		ldr	r3, [r0]
 146 0072 0CBF     		ite	eq
 147 0074 43F08003 		orreq	r3, r3, #128
 195:../../source/src/FWlib/src/stm32f10x_can.c ****     }
 196:../../source/src/FWlib/src/stm32f10x_can.c ****     else
 197:../../source/src/FWlib/src/stm32f10x_can.c ****     {
 198:../../source/src/FWlib/src/stm32f10x_can.c ****       CANx->MCR &= ~(uint32_t)CAN_MCR_TTCM;
 148              		.loc 1 198 0
 149 0078 23F08003 		bicne	r3, r3, #128
 150 007c 0360     		str	r3, [r0]
 199:../../source/src/FWlib/src/stm32f10x_can.c ****     }
 200:../../source/src/FWlib/src/stm32f10x_can.c **** 
 201:../../source/src/FWlib/src/stm32f10x_can.c ****     /* Set the automatic bus-off management */
 202:../../source/src/FWlib/src/stm32f10x_can.c ****     if (CAN_InitStruct->CAN_ABOM == ENABLE)
 151              		.loc 1 202 0
 152 007e CB79     		ldrb	r3, [r1, #7]	@ zero_extendqisi2
 153 0080 012B     		cmp	r3, #1
 203:../../source/src/FWlib/src/stm32f10x_can.c ****     {
 204:../../source/src/FWlib/src/stm32f10x_can.c ****       CANx->MCR |= CAN_MCR_ABOM;
 154              		.loc 1 204 0
 155 0082 0368     		ldr	r3, [r0]
 156 0084 0CBF     		ite	eq
 157 0086 43F04003 		orreq	r3, r3, #64
 205:../../source/src/FWlib/src/stm32f10x_can.c ****     }
 206:../../source/src/FWlib/src/stm32f10x_can.c ****     else
 207:../../source/src/FWlib/src/stm32f10x_can.c ****     {
 208:../../source/src/FWlib/src/stm32f10x_can.c ****       CANx->MCR &= ~(uint32_t)CAN_MCR_ABOM;
 158              		.loc 1 208 0
 159 008a 23F04003 		bicne	r3, r3, #64
 160 008e 0360     		str	r3, [r0]
 209:../../source/src/FWlib/src/stm32f10x_can.c ****     }
 210:../../source/src/FWlib/src/stm32f10x_can.c **** 
 211:../../source/src/FWlib/src/stm32f10x_can.c ****     /* Set the automatic wake-up mode */
 212:../../source/src/FWlib/src/stm32f10x_can.c ****     if (CAN_InitStruct->CAN_AWUM == ENABLE)
 161              		.loc 1 212 0
 162 0090 0B7A     		ldrb	r3, [r1, #8]	@ zero_extendqisi2
 163 0092 012B     		cmp	r3, #1
 213:../../source/src/FWlib/src/stm32f10x_can.c ****     {
 214:../../source/src/FWlib/src/stm32f10x_can.c ****       CANx->MCR |= CAN_MCR_AWUM;
 164              		.loc 1 214 0
 165 0094 0368     		ldr	r3, [r0]
 166 0096 0CBF     		ite	eq
 167 0098 43F02003 		orreq	r3, r3, #32
 215:../../source/src/FWlib/src/stm32f10x_can.c ****     }
 216:../../source/src/FWlib/src/stm32f10x_can.c ****     else
 217:../../source/src/FWlib/src/stm32f10x_can.c ****     {
 218:../../source/src/FWlib/src/stm32f10x_can.c ****       CANx->MCR &= ~(uint32_t)CAN_MCR_AWUM;
 168              		.loc 1 218 0
 169 009c 23F02003 		bicne	r3, r3, #32
 170 00a0 0360     		str	r3, [r0]
 219:../../source/src/FWlib/src/stm32f10x_can.c ****     }
 220:../../source/src/FWlib/src/stm32f10x_can.c **** 
 221:../../source/src/FWlib/src/stm32f10x_can.c ****     /* Set the no automatic retransmission */
 222:../../source/src/FWlib/src/stm32f10x_can.c ****     if (CAN_InitStruct->CAN_NART == ENABLE)
 171              		.loc 1 222 0
 172 00a2 4B7A     		ldrb	r3, [r1, #9]	@ zero_extendqisi2
ARM GAS  G:\Users\Jaxb\AppData\Local\Temp\cctfzRXv.s 			page 8


 173 00a4 012B     		cmp	r3, #1
 223:../../source/src/FWlib/src/stm32f10x_can.c ****     {
 224:../../source/src/FWlib/src/stm32f10x_can.c ****       CANx->MCR |= CAN_MCR_NART;
 174              		.loc 1 224 0
 175 00a6 0368     		ldr	r3, [r0]
 176 00a8 0CBF     		ite	eq
 177 00aa 43F01003 		orreq	r3, r3, #16
 225:../../source/src/FWlib/src/stm32f10x_can.c ****     }
 226:../../source/src/FWlib/src/stm32f10x_can.c ****     else
 227:../../source/src/FWlib/src/stm32f10x_can.c ****     {
 228:../../source/src/FWlib/src/stm32f10x_can.c ****       CANx->MCR &= ~(uint32_t)CAN_MCR_NART;
 178              		.loc 1 228 0
 179 00ae 23F01003 		bicne	r3, r3, #16
 180 00b2 0360     		str	r3, [r0]
 229:../../source/src/FWlib/src/stm32f10x_can.c ****     }
 230:../../source/src/FWlib/src/stm32f10x_can.c **** 
 231:../../source/src/FWlib/src/stm32f10x_can.c ****     /* Set the receive FIFO locked mode */
 232:../../source/src/FWlib/src/stm32f10x_can.c ****     if (CAN_InitStruct->CAN_RFLM == ENABLE)
 181              		.loc 1 232 0
 182 00b4 8B7A     		ldrb	r3, [r1, #10]	@ zero_extendqisi2
 183 00b6 012B     		cmp	r3, #1
 233:../../source/src/FWlib/src/stm32f10x_can.c ****     {
 234:../../source/src/FWlib/src/stm32f10x_can.c ****       CANx->MCR |= CAN_MCR_RFLM;
 184              		.loc 1 234 0
 185 00b8 0368     		ldr	r3, [r0]
 186 00ba 0CBF     		ite	eq
 187 00bc 43F00803 		orreq	r3, r3, #8
 235:../../source/src/FWlib/src/stm32f10x_can.c ****     }
 236:../../source/src/FWlib/src/stm32f10x_can.c ****     else
 237:../../source/src/FWlib/src/stm32f10x_can.c ****     {
 238:../../source/src/FWlib/src/stm32f10x_can.c ****       CANx->MCR &= ~(uint32_t)CAN_MCR_RFLM;
 188              		.loc 1 238 0
 189 00c0 23F00803 		bicne	r3, r3, #8
 190 00c4 0360     		str	r3, [r0]
 239:../../source/src/FWlib/src/stm32f10x_can.c ****     }
 240:../../source/src/FWlib/src/stm32f10x_can.c **** 
 241:../../source/src/FWlib/src/stm32f10x_can.c ****     /* Set the transmit FIFO priority */
 242:../../source/src/FWlib/src/stm32f10x_can.c ****     if (CAN_InitStruct->CAN_TXFP == ENABLE)
 191              		.loc 1 242 0
 192 00c6 CB7A     		ldrb	r3, [r1, #11]	@ zero_extendqisi2
 193 00c8 012B     		cmp	r3, #1
 243:../../source/src/FWlib/src/stm32f10x_can.c ****     {
 244:../../source/src/FWlib/src/stm32f10x_can.c ****       CANx->MCR |= CAN_MCR_TXFP;
 194              		.loc 1 244 0
 195 00ca 0368     		ldr	r3, [r0]
 196 00cc 0CBF     		ite	eq
 197 00ce 43F00403 		orreq	r3, r3, #4
 245:../../source/src/FWlib/src/stm32f10x_can.c ****     }
 246:../../source/src/FWlib/src/stm32f10x_can.c ****     else
 247:../../source/src/FWlib/src/stm32f10x_can.c ****     {
 248:../../source/src/FWlib/src/stm32f10x_can.c ****       CANx->MCR &= ~(uint32_t)CAN_MCR_TXFP;
 198              		.loc 1 248 0
 199 00d2 23F00403 		bicne	r3, r3, #4
 200 00d6 0360     		str	r3, [r0]
 249:../../source/src/FWlib/src/stm32f10x_can.c ****     }
 250:../../source/src/FWlib/src/stm32f10x_can.c **** 
 251:../../source/src/FWlib/src/stm32f10x_can.c ****     /* Set the bit timing register */
ARM GAS  G:\Users\Jaxb\AppData\Local\Temp\cctfzRXv.s 			page 9


 252:../../source/src/FWlib/src/stm32f10x_can.c ****     CANx->BTR = (uint32_t)((uint32_t)CAN_InitStruct->CAN_Mode << 30) | \
 253:../../source/src/FWlib/src/stm32f10x_can.c ****                 ((uint32_t)CAN_InitStruct->CAN_SJW << 24) | \
 201              		.loc 1 253 0
 202 00d8 CB78     		ldrb	r3, [r1, #3]	@ zero_extendqisi2
 252:../../source/src/FWlib/src/stm32f10x_can.c ****                 ((uint32_t)CAN_InitStruct->CAN_SJW << 24) | \
 203              		.loc 1 252 0
 204 00da 8A78     		ldrb	r2, [r1, #2]	@ zero_extendqisi2
 254:../../source/src/FWlib/src/stm32f10x_can.c ****                 ((uint32_t)CAN_InitStruct->CAN_BS1 << 16) | \
 205              		.loc 1 254 0
 206 00dc 0D79     		ldrb	r5, [r1, #4]	@ zero_extendqisi2
 253:../../source/src/FWlib/src/stm32f10x_can.c ****                 ((uint32_t)CAN_InitStruct->CAN_BS1 << 16) | \
 207              		.loc 1 253 0
 208 00de 1B06     		lsls	r3, r3, #24
 255:../../source/src/FWlib/src/stm32f10x_can.c ****                 ((uint32_t)CAN_InitStruct->CAN_BS2 << 20) | \
 209              		.loc 1 255 0
 210 00e0 4C79     		ldrb	r4, [r1, #5]	@ zero_extendqisi2
 252:../../source/src/FWlib/src/stm32f10x_can.c ****                 ((uint32_t)CAN_InitStruct->CAN_SJW << 24) | \
 211              		.loc 1 252 0
 212 00e2 43EA8273 		orr	r3, r3, r2, lsl #30
 256:../../source/src/FWlib/src/stm32f10x_can.c ****                ((uint32_t)CAN_InitStruct->CAN_Prescaler - 1);
 213              		.loc 1 256 0
 214 00e6 0A88     		ldrh	r2, [r1]
 253:../../source/src/FWlib/src/stm32f10x_can.c ****                 ((uint32_t)CAN_InitStruct->CAN_BS1 << 16) | \
 215              		.loc 1 253 0
 216 00e8 43EA0543 		orr	r3, r3, r5, lsl #16
 254:../../source/src/FWlib/src/stm32f10x_can.c ****                 ((uint32_t)CAN_InitStruct->CAN_BS2 << 20) | \
 217              		.loc 1 254 0
 218 00ec 43EA0453 		orr	r3, r3, r4, lsl #20
 219              		.loc 1 256 0
 220 00f0 013A     		subs	r2, r2, #1
 255:../../source/src/FWlib/src/stm32f10x_can.c ****                ((uint32_t)CAN_InitStruct->CAN_Prescaler - 1);
 221              		.loc 1 255 0
 222 00f2 1343     		orrs	r3, r3, r2
 252:../../source/src/FWlib/src/stm32f10x_can.c ****                 ((uint32_t)CAN_InitStruct->CAN_SJW << 24) | \
 223              		.loc 1 252 0
 224 00f4 C361     		str	r3, [r0, #28]
 257:../../source/src/FWlib/src/stm32f10x_can.c **** 
 258:../../source/src/FWlib/src/stm32f10x_can.c ****     /* Request leave initialisation */
 259:../../source/src/FWlib/src/stm32f10x_can.c ****     CANx->MCR &= ~(uint32_t)CAN_MCR_INRQ;
 225              		.loc 1 259 0
 226 00f6 0368     		ldr	r3, [r0]
 227 00f8 23F00103 		bic	r3, r3, #1
 228 00fc 0360     		str	r3, [r0]
 229              	.LVL12:
 260:../../source/src/FWlib/src/stm32f10x_can.c **** 
 261:../../source/src/FWlib/src/stm32f10x_can.c ****    /* Wait the acknowledge */
 262:../../source/src/FWlib/src/stm32f10x_can.c ****    wait_ack = 0;
 263:../../source/src/FWlib/src/stm32f10x_can.c **** 
 264:../../source/src/FWlib/src/stm32f10x_can.c ****    while (((CANx->MSR & CAN_MSR_INAK) == CAN_MSR_INAK) && (wait_ack != INAK_TIMEOUT))
 230              		.loc 1 264 0
 231 00fe 4368     		ldr	r3, [r0, #4]
 232 0100 D907     		lsls	r1, r3, #31
 233              	.LVL13:
 234 0102 07D5     		bpl	.L23
 235 0104 4FF6FF73 		movw	r3, #65535
 236 0108 01E0     		b	.L24
 237              	.LVL14:
ARM GAS  G:\Users\Jaxb\AppData\Local\Temp\cctfzRXv.s 			page 10


 238              	.L35:
 239              		.loc 1 264 0 is_stmt 0 discriminator 1
 240 010a 013B     		subs	r3, r3, #1
 241              	.LVL15:
 242 010c 02D0     		beq	.L23
 243              	.LVL16:
 244              	.L24:
 245              		.loc 1 264 0
 246 010e 4268     		ldr	r2, [r0, #4]
 247 0110 D207     		lsls	r2, r2, #31
 248 0112 FAD4     		bmi	.L35
 249              	.LVL17:
 250              	.L23:
 265:../../source/src/FWlib/src/stm32f10x_can.c ****    {
 266:../../source/src/FWlib/src/stm32f10x_can.c ****      wait_ack++;
 267:../../source/src/FWlib/src/stm32f10x_can.c ****    }
 268:../../source/src/FWlib/src/stm32f10x_can.c **** 
 269:../../source/src/FWlib/src/stm32f10x_can.c ****     /* ...and check acknowledged */
 270:../../source/src/FWlib/src/stm32f10x_can.c ****     if ((CANx->MSR & CAN_MSR_INAK) == CAN_MSR_INAK)
 251              		.loc 1 270 0 is_stmt 1
 252 0114 4068     		ldr	r0, [r0, #4]
 253              	.LVL18:
 271:../../source/src/FWlib/src/stm32f10x_can.c ****     {
 272:../../source/src/FWlib/src/stm32f10x_can.c ****       InitStatus = CAN_InitStatus_Failed;
 273:../../source/src/FWlib/src/stm32f10x_can.c ****     }
 274:../../source/src/FWlib/src/stm32f10x_can.c ****     else
 275:../../source/src/FWlib/src/stm32f10x_can.c ****     {
 276:../../source/src/FWlib/src/stm32f10x_can.c ****       InitStatus = CAN_InitStatus_Success ;
 277:../../source/src/FWlib/src/stm32f10x_can.c ****     }
 278:../../source/src/FWlib/src/stm32f10x_can.c ****   }
 279:../../source/src/FWlib/src/stm32f10x_can.c **** 
 280:../../source/src/FWlib/src/stm32f10x_can.c ****   /* At this step, return the status of initialization */
 281:../../source/src/FWlib/src/stm32f10x_can.c ****   return InitStatus;
 282:../../source/src/FWlib/src/stm32f10x_can.c **** }
 254              		.loc 1 282 0
 255 0116 30BC     		pop	{r4, r5}
 256              	.LCFI5:
 257              		.cfi_remember_state
 258              		.cfi_restore 5
 259              		.cfi_restore 4
 260              		.cfi_def_cfa_offset 0
 187:../../source/src/FWlib/src/stm32f10x_can.c ****   }
 261              		.loc 1 187 0
 262 0118 C043     		mvns	r0, r0
 263 011a 00F00100 		and	r0, r0, #1
 264              	.LVL19:
 265              		.loc 1 282 0
 266 011e 7047     		bx	lr
 267              	.LVL20:
 268              	.L25:
 269              	.LCFI6:
 270              		.cfi_restore_state
 187:../../source/src/FWlib/src/stm32f10x_can.c ****   }
 271              		.loc 1 187 0
 272 0120 1846     		mov	r0, r3
 273              	.LVL21:
 274              		.loc 1 282 0
ARM GAS  G:\Users\Jaxb\AppData\Local\Temp\cctfzRXv.s 			page 11


 275 0122 30BC     		pop	{r4, r5}
 276              	.LCFI7:
 277              		.cfi_restore 5
 278              		.cfi_restore 4
 279              		.cfi_def_cfa_offset 0
 280 0124 7047     		bx	lr
 281              		.cfi_endproc
 282              	.LFE30:
 283              		.size	CAN_Init, .-CAN_Init
 284              		.align	1
 285 0126 00BF     		.p2align 2,,3
 286              		.global	CAN_FilterInit
 287              		.syntax unified
 288              		.thumb
 289              		.thumb_func
 290              		.fpu softvfp
 291              		.type	CAN_FilterInit, %function
 292              	CAN_FilterInit:
 293              	.LFB31:
 283:../../source/src/FWlib/src/stm32f10x_can.c **** 
 284:../../source/src/FWlib/src/stm32f10x_can.c **** /**
 285:../../source/src/FWlib/src/stm32f10x_can.c ****   * @brief  Initializes the CAN peripheral according to the specified
 286:../../source/src/FWlib/src/stm32f10x_can.c ****   *         parameters in the CAN_FilterInitStruct.
 287:../../source/src/FWlib/src/stm32f10x_can.c ****   * @param  CAN_FilterInitStruct: pointer to a CAN_FilterInitTypeDef
 288:../../source/src/FWlib/src/stm32f10x_can.c ****   *                               structure that contains the configuration 
 289:../../source/src/FWlib/src/stm32f10x_can.c ****   *                               information.
 290:../../source/src/FWlib/src/stm32f10x_can.c ****   * @retval None.
 291:../../source/src/FWlib/src/stm32f10x_can.c ****   */
 292:../../source/src/FWlib/src/stm32f10x_can.c **** void CAN_FilterInit(CAN_FilterInitTypeDef* CAN_FilterInitStruct)
 293:../../source/src/FWlib/src/stm32f10x_can.c **** {
 294              		.loc 1 293 0
 295              		.cfi_startproc
 296              		@ args = 0, pretend = 0, frame = 0
 297              		@ frame_needed = 0, uses_anonymous_args = 0
 298              		@ link register save eliminated.
 299              	.LVL22:
 294:../../source/src/FWlib/src/stm32f10x_can.c ****   uint32_t filter_number_bit_pos = 0;
 295:../../source/src/FWlib/src/stm32f10x_can.c ****   /* Check the parameters */
 296:../../source/src/FWlib/src/stm32f10x_can.c ****   assert_param(IS_CAN_FILTER_NUMBER(CAN_FilterInitStruct->CAN_FilterNumber));
 297:../../source/src/FWlib/src/stm32f10x_can.c ****   assert_param(IS_CAN_FILTER_MODE(CAN_FilterInitStruct->CAN_FilterMode));
 298:../../source/src/FWlib/src/stm32f10x_can.c ****   assert_param(IS_CAN_FILTER_SCALE(CAN_FilterInitStruct->CAN_FilterScale));
 299:../../source/src/FWlib/src/stm32f10x_can.c ****   assert_param(IS_CAN_FILTER_FIFO(CAN_FilterInitStruct->CAN_FilterFIFOAssignment));
 300:../../source/src/FWlib/src/stm32f10x_can.c ****   assert_param(IS_FUNCTIONAL_STATE(CAN_FilterInitStruct->CAN_FilterActivation));
 301:../../source/src/FWlib/src/stm32f10x_can.c **** 
 302:../../source/src/FWlib/src/stm32f10x_can.c ****   filter_number_bit_pos = ((uint32_t)1) << CAN_FilterInitStruct->CAN_FilterNumber;
 300              		.loc 1 302 0
 301 0128 0121     		movs	r1, #1
 302 012a 837A     		ldrb	r3, [r0, #10]	@ zero_extendqisi2
 293:../../source/src/FWlib/src/stm32f10x_can.c ****   uint32_t filter_number_bit_pos = 0;
 303              		.loc 1 293 0
 304 012c F0B4     		push	{r4, r5, r6, r7}
 305              	.LCFI8:
 306              		.cfi_def_cfa_offset 16
 307              		.cfi_offset 4, -16
 308              		.cfi_offset 5, -12
 309              		.cfi_offset 6, -8
 310              		.cfi_offset 7, -4
ARM GAS  G:\Users\Jaxb\AppData\Local\Temp\cctfzRXv.s 			page 12


 311              		.loc 1 302 0
 312 012e 9940     		lsls	r1, r1, r3
 313              	.LVL23:
 303:../../source/src/FWlib/src/stm32f10x_can.c **** 
 304:../../source/src/FWlib/src/stm32f10x_can.c ****   /* Initialisation mode for the filter */
 305:../../source/src/FWlib/src/stm32f10x_can.c ****   CAN1->FMR |= FMR_FINIT;
 306:../../source/src/FWlib/src/stm32f10x_can.c **** 
 307:../../source/src/FWlib/src/stm32f10x_can.c ****   /* Filter Deactivation */
 308:../../source/src/FWlib/src/stm32f10x_can.c ****   CAN1->FA1R &= ~(uint32_t)filter_number_bit_pos;
 314              		.loc 1 308 0
 315 0130 CC43     		mvns	r4, r1
 305:../../source/src/FWlib/src/stm32f10x_can.c **** 
 316              		.loc 1 305 0
 317 0132 374A     		ldr	r2, .L44
 318 0134 D2F80052 		ldr	r5, [r2, #512]
 319 0138 45F00105 		orr	r5, r5, #1
 320 013c C2F80052 		str	r5, [r2, #512]
 321              		.loc 1 308 0
 322 0140 D2F81C52 		ldr	r5, [r2, #540]
 323 0144 2540     		ands	r5, r5, r4
 324 0146 C2F81C52 		str	r5, [r2, #540]
 309:../../source/src/FWlib/src/stm32f10x_can.c **** 
 310:../../source/src/FWlib/src/stm32f10x_can.c ****   /* Filter Scale */
 311:../../source/src/FWlib/src/stm32f10x_can.c ****   if (CAN_FilterInitStruct->CAN_FilterScale == CAN_FilterScale_16bit)
 325              		.loc 1 311 0
 326 014a 057B     		ldrb	r5, [r0, #12]	@ zero_extendqisi2
 327 014c 002D     		cmp	r5, #0
 328 014e 46D1     		bne	.L37
 312:../../source/src/FWlib/src/stm32f10x_can.c ****   {
 313:../../source/src/FWlib/src/stm32f10x_can.c ****     /* 16-bit scale for the filter */
 314:../../source/src/FWlib/src/stm32f10x_can.c ****     CAN1->FS1R &= ~(uint32_t)filter_number_bit_pos;
 329              		.loc 1 314 0
 330 0150 D2F80C62 		ldr	r6, [r2, #524]
 315:../../source/src/FWlib/src/stm32f10x_can.c **** 
 316:../../source/src/FWlib/src/stm32f10x_can.c ****     /* First 16-bit identifier and First 16-bit mask */
 317:../../source/src/FWlib/src/stm32f10x_can.c ****     /* Or First 16-bit identifier and Second 16-bit identifier */
 318:../../source/src/FWlib/src/stm32f10x_can.c ****     CAN1->sFilterRegister[CAN_FilterInitStruct->CAN_FilterNumber].FR1 = 
 319:../../source/src/FWlib/src/stm32f10x_can.c ****     ((0x0000FFFF & (uint32_t)CAN_FilterInitStruct->CAN_FilterMaskIdLow) << 16) |
 331              		.loc 1 319 0
 332 0154 C788     		ldrh	r7, [r0, #6]
 320:../../source/src/FWlib/src/stm32f10x_can.c ****         (0x0000FFFF & (uint32_t)CAN_FilterInitStruct->CAN_FilterIdLow);
 333              		.loc 1 320 0
 334 0156 4588     		ldrh	r5, [r0, #2]
 314:../../source/src/FWlib/src/stm32f10x_can.c **** 
 335              		.loc 1 314 0
 336 0158 2640     		ands	r6, r6, r4
 319:../../source/src/FWlib/src/stm32f10x_can.c ****         (0x0000FFFF & (uint32_t)CAN_FilterInitStruct->CAN_FilterIdLow);
 337              		.loc 1 319 0
 338 015a 45EA0745 		orr	r5, r5, r7, lsl #16
 339 015e DB00     		lsls	r3, r3, #3
 321:../../source/src/FWlib/src/stm32f10x_can.c **** 
 322:../../source/src/FWlib/src/stm32f10x_can.c ****     /* Second 16-bit identifier and Second 16-bit mask */
 323:../../source/src/FWlib/src/stm32f10x_can.c ****     /* Or Third 16-bit identifier and Fourth 16-bit identifier */
 324:../../source/src/FWlib/src/stm32f10x_can.c ****     CAN1->sFilterRegister[CAN_FilterInitStruct->CAN_FilterNumber].FR2 = 
 325:../../source/src/FWlib/src/stm32f10x_can.c ****     ((0x0000FFFF & (uint32_t)CAN_FilterInitStruct->CAN_FilterMaskIdHigh) << 16) |
 340              		.loc 1 325 0
 341 0160 8788     		ldrh	r7, [r0, #4]
ARM GAS  G:\Users\Jaxb\AppData\Local\Temp\cctfzRXv.s 			page 13


 314:../../source/src/FWlib/src/stm32f10x_can.c **** 
 342              		.loc 1 314 0
 343 0162 C2F80C62 		str	r6, [r2, #524]
 326:../../source/src/FWlib/src/stm32f10x_can.c ****         (0x0000FFFF & (uint32_t)CAN_FilterInitStruct->CAN_FilterIdHigh);
 344              		.loc 1 326 0
 345 0166 0288     		ldrh	r2, [r0]
 346 0168 03F18043 		add	r3, r3, #1073741824
 347 016c 03F5C843 		add	r3, r3, #25600
 325:../../source/src/FWlib/src/stm32f10x_can.c ****         (0x0000FFFF & (uint32_t)CAN_FilterInitStruct->CAN_FilterIdHigh);
 348              		.loc 1 325 0
 349 0170 42EA0742 		orr	r2, r2, r7, lsl #16
 318:../../source/src/FWlib/src/stm32f10x_can.c ****     ((0x0000FFFF & (uint32_t)CAN_FilterInitStruct->CAN_FilterMaskIdLow) << 16) |
 350              		.loc 1 318 0
 351 0174 C3F84052 		str	r5, [r3, #576]
 324:../../source/src/FWlib/src/stm32f10x_can.c ****     ((0x0000FFFF & (uint32_t)CAN_FilterInitStruct->CAN_FilterMaskIdHigh) << 16) |
 352              		.loc 1 324 0
 353 0178 C3F84422 		str	r2, [r3, #580]
 354              	.L38:
 327:../../source/src/FWlib/src/stm32f10x_can.c ****   }
 328:../../source/src/FWlib/src/stm32f10x_can.c **** 
 329:../../source/src/FWlib/src/stm32f10x_can.c ****   if (CAN_FilterInitStruct->CAN_FilterScale == CAN_FilterScale_32bit)
 330:../../source/src/FWlib/src/stm32f10x_can.c ****   {
 331:../../source/src/FWlib/src/stm32f10x_can.c ****     /* 32-bit scale for the filter */
 332:../../source/src/FWlib/src/stm32f10x_can.c ****     CAN1->FS1R |= filter_number_bit_pos;
 333:../../source/src/FWlib/src/stm32f10x_can.c ****     /* 32-bit identifier or First 32-bit identifier */
 334:../../source/src/FWlib/src/stm32f10x_can.c ****     CAN1->sFilterRegister[CAN_FilterInitStruct->CAN_FilterNumber].FR1 = 
 335:../../source/src/FWlib/src/stm32f10x_can.c ****     ((0x0000FFFF & (uint32_t)CAN_FilterInitStruct->CAN_FilterIdHigh) << 16) |
 336:../../source/src/FWlib/src/stm32f10x_can.c ****         (0x0000FFFF & (uint32_t)CAN_FilterInitStruct->CAN_FilterIdLow);
 337:../../source/src/FWlib/src/stm32f10x_can.c ****     /* 32-bit mask or Second 32-bit identifier */
 338:../../source/src/FWlib/src/stm32f10x_can.c ****     CAN1->sFilterRegister[CAN_FilterInitStruct->CAN_FilterNumber].FR2 = 
 339:../../source/src/FWlib/src/stm32f10x_can.c ****     ((0x0000FFFF & (uint32_t)CAN_FilterInitStruct->CAN_FilterMaskIdHigh) << 16) |
 340:../../source/src/FWlib/src/stm32f10x_can.c ****         (0x0000FFFF & (uint32_t)CAN_FilterInitStruct->CAN_FilterMaskIdLow);
 341:../../source/src/FWlib/src/stm32f10x_can.c ****   }
 342:../../source/src/FWlib/src/stm32f10x_can.c **** 
 343:../../source/src/FWlib/src/stm32f10x_can.c ****   /* Filter Mode */
 344:../../source/src/FWlib/src/stm32f10x_can.c ****   if (CAN_FilterInitStruct->CAN_FilterMode == CAN_FilterMode_IdMask)
 355              		.loc 1 344 0
 356 017c C37A     		ldrb	r3, [r0, #11]	@ zero_extendqisi2
 345:../../source/src/FWlib/src/stm32f10x_can.c ****   {
 346:../../source/src/FWlib/src/stm32f10x_can.c ****     /*Id/Mask mode for the filter*/
 347:../../source/src/FWlib/src/stm32f10x_can.c ****     CAN1->FM1R &= ~(uint32_t)filter_number_bit_pos;
 357              		.loc 1 347 0
 358 017e 244A     		ldr	r2, .L44
 344:../../source/src/FWlib/src/stm32f10x_can.c ****   {
 359              		.loc 1 344 0
 360 0180 3BBB     		cbnz	r3, .L39
 361              		.loc 1 347 0
 362 0182 D2F80432 		ldr	r3, [r2, #516]
 363 0186 2340     		ands	r3, r3, r4
 364 0188 C2F80432 		str	r3, [r2, #516]
 365              	.L40:
 348:../../source/src/FWlib/src/stm32f10x_can.c ****   }
 349:../../source/src/FWlib/src/stm32f10x_can.c ****   else /* CAN_FilterInitStruct->CAN_FilterMode == CAN_FilterMode_IdList */
 350:../../source/src/FWlib/src/stm32f10x_can.c ****   {
 351:../../source/src/FWlib/src/stm32f10x_can.c ****     /*Identifier list mode for the filter*/
 352:../../source/src/FWlib/src/stm32f10x_can.c ****     CAN1->FM1R |= (uint32_t)filter_number_bit_pos;
 353:../../source/src/FWlib/src/stm32f10x_can.c ****   }
ARM GAS  G:\Users\Jaxb\AppData\Local\Temp\cctfzRXv.s 			page 14


 354:../../source/src/FWlib/src/stm32f10x_can.c **** 
 355:../../source/src/FWlib/src/stm32f10x_can.c ****   /* Filter FIFO assignment */
 356:../../source/src/FWlib/src/stm32f10x_can.c ****   if (CAN_FilterInitStruct->CAN_FilterFIFOAssignment == CAN_Filter_FIFO0)
 366              		.loc 1 356 0
 367 018c 0389     		ldrh	r3, [r0, #8]
 368 018e BBB9     		cbnz	r3, .L41
 357:../../source/src/FWlib/src/stm32f10x_can.c ****   {
 358:../../source/src/FWlib/src/stm32f10x_can.c ****     /* FIFO 0 assignation for the filter */
 359:../../source/src/FWlib/src/stm32f10x_can.c ****     CAN1->FFA1R &= ~(uint32_t)filter_number_bit_pos;
 369              		.loc 1 359 0
 370 0190 1F4B     		ldr	r3, .L44
 371 0192 D3F81422 		ldr	r2, [r3, #532]
 372 0196 1440     		ands	r4, r4, r2
 373 0198 C3F81442 		str	r4, [r3, #532]
 374              	.L42:
 360:../../source/src/FWlib/src/stm32f10x_can.c ****   }
 361:../../source/src/FWlib/src/stm32f10x_can.c **** 
 362:../../source/src/FWlib/src/stm32f10x_can.c ****   if (CAN_FilterInitStruct->CAN_FilterFIFOAssignment == CAN_Filter_FIFO1)
 363:../../source/src/FWlib/src/stm32f10x_can.c ****   {
 364:../../source/src/FWlib/src/stm32f10x_can.c ****     /* FIFO 1 assignation for the filter */
 365:../../source/src/FWlib/src/stm32f10x_can.c ****     CAN1->FFA1R |= (uint32_t)filter_number_bit_pos;
 366:../../source/src/FWlib/src/stm32f10x_can.c ****   }
 367:../../source/src/FWlib/src/stm32f10x_can.c ****   
 368:../../source/src/FWlib/src/stm32f10x_can.c ****   /* Filter activation */
 369:../../source/src/FWlib/src/stm32f10x_can.c ****   if (CAN_FilterInitStruct->CAN_FilterActivation == ENABLE)
 375              		.loc 1 369 0
 376 019c 437B     		ldrb	r3, [r0, #13]	@ zero_extendqisi2
 377 019e 012B     		cmp	r3, #1
 378 01a0 05D1     		bne	.L43
 370:../../source/src/FWlib/src/stm32f10x_can.c ****   {
 371:../../source/src/FWlib/src/stm32f10x_can.c ****     CAN1->FA1R |= filter_number_bit_pos;
 379              		.loc 1 371 0
 380 01a2 1B4A     		ldr	r2, .L44
 381 01a4 D2F81C32 		ldr	r3, [r2, #540]
 382 01a8 1943     		orrs	r1, r1, r3
 383              	.LVL24:
 384 01aa C2F81C12 		str	r1, [r2, #540]
 385              	.L43:
 372:../../source/src/FWlib/src/stm32f10x_can.c ****   }
 373:../../source/src/FWlib/src/stm32f10x_can.c **** 
 374:../../source/src/FWlib/src/stm32f10x_can.c ****   /* Leave the initialisation mode for the filter */
 375:../../source/src/FWlib/src/stm32f10x_can.c ****   CAN1->FMR &= ~FMR_FINIT;
 386              		.loc 1 375 0
 387 01ae 184A     		ldr	r2, .L44
 376:../../source/src/FWlib/src/stm32f10x_can.c **** }
 388              		.loc 1 376 0
 389 01b0 F0BC     		pop	{r4, r5, r6, r7}
 390              	.LCFI9:
 391              		.cfi_remember_state
 392              		.cfi_restore 7
 393              		.cfi_restore 6
 394              		.cfi_restore 5
 395              		.cfi_restore 4
 396              		.cfi_def_cfa_offset 0
 375:../../source/src/FWlib/src/stm32f10x_can.c **** }
 397              		.loc 1 375 0
 398 01b2 D2F80032 		ldr	r3, [r2, #512]
ARM GAS  G:\Users\Jaxb\AppData\Local\Temp\cctfzRXv.s 			page 15


 399 01b6 23F00103 		bic	r3, r3, #1
 400 01ba C2F80032 		str	r3, [r2, #512]
 401              		.loc 1 376 0
 402 01be 7047     		bx	lr
 403              	.LVL25:
 404              	.L41:
 405              	.LCFI10:
 406              		.cfi_restore_state
 362:../../source/src/FWlib/src/stm32f10x_can.c ****   {
 407              		.loc 1 362 0
 408 01c0 012B     		cmp	r3, #1
 409 01c2 EBD1     		bne	.L42
 365:../../source/src/FWlib/src/stm32f10x_can.c ****   }
 410              		.loc 1 365 0
 411 01c4 124A     		ldr	r2, .L44
 412 01c6 D2F81432 		ldr	r3, [r2, #532]
 413 01ca 0B43     		orrs	r3, r3, r1
 414 01cc C2F81432 		str	r3, [r2, #532]
 415 01d0 E4E7     		b	.L42
 416              	.L39:
 352:../../source/src/FWlib/src/stm32f10x_can.c ****   }
 417              		.loc 1 352 0
 418 01d2 D2F80432 		ldr	r3, [r2, #516]
 419 01d6 0B43     		orrs	r3, r3, r1
 420 01d8 C2F80432 		str	r3, [r2, #516]
 421 01dc D6E7     		b	.L40
 422              	.L37:
 329:../../source/src/FWlib/src/stm32f10x_can.c ****   {
 423              		.loc 1 329 0
 424 01de 012D     		cmp	r5, #1
 425 01e0 CCD1     		bne	.L38
 332:../../source/src/FWlib/src/stm32f10x_can.c ****     /* 32-bit identifier or First 32-bit identifier */
 426              		.loc 1 332 0
 427 01e2 D2F80C62 		ldr	r6, [r2, #524]
 335:../../source/src/FWlib/src/stm32f10x_can.c ****         (0x0000FFFF & (uint32_t)CAN_FilterInitStruct->CAN_FilterIdLow);
 428              		.loc 1 335 0
 429 01e6 0788     		ldrh	r7, [r0]
 336:../../source/src/FWlib/src/stm32f10x_can.c ****     /* 32-bit mask or Second 32-bit identifier */
 430              		.loc 1 336 0
 431 01e8 4588     		ldrh	r5, [r0, #2]
 332:../../source/src/FWlib/src/stm32f10x_can.c ****     /* 32-bit identifier or First 32-bit identifier */
 432              		.loc 1 332 0
 433 01ea 0E43     		orrs	r6, r6, r1
 335:../../source/src/FWlib/src/stm32f10x_can.c ****         (0x0000FFFF & (uint32_t)CAN_FilterInitStruct->CAN_FilterIdLow);
 434              		.loc 1 335 0
 435 01ec 45EA0745 		orr	r5, r5, r7, lsl #16
 436 01f0 DB00     		lsls	r3, r3, #3
 339:../../source/src/FWlib/src/stm32f10x_can.c ****         (0x0000FFFF & (uint32_t)CAN_FilterInitStruct->CAN_FilterMaskIdLow);
 437              		.loc 1 339 0
 438 01f2 8788     		ldrh	r7, [r0, #4]
 332:../../source/src/FWlib/src/stm32f10x_can.c ****     /* 32-bit identifier or First 32-bit identifier */
 439              		.loc 1 332 0
 440 01f4 C2F80C62 		str	r6, [r2, #524]
 340:../../source/src/FWlib/src/stm32f10x_can.c ****   }
 441              		.loc 1 340 0
 442 01f8 C288     		ldrh	r2, [r0, #6]
 443 01fa 03F18043 		add	r3, r3, #1073741824
ARM GAS  G:\Users\Jaxb\AppData\Local\Temp\cctfzRXv.s 			page 16


 444 01fe 03F5C843 		add	r3, r3, #25600
 339:../../source/src/FWlib/src/stm32f10x_can.c ****         (0x0000FFFF & (uint32_t)CAN_FilterInitStruct->CAN_FilterMaskIdLow);
 445              		.loc 1 339 0
 446 0202 42EA0742 		orr	r2, r2, r7, lsl #16
 334:../../source/src/FWlib/src/stm32f10x_can.c ****     ((0x0000FFFF & (uint32_t)CAN_FilterInitStruct->CAN_FilterIdHigh) << 16) |
 447              		.loc 1 334 0
 448 0206 C3F84052 		str	r5, [r3, #576]
 338:../../source/src/FWlib/src/stm32f10x_can.c ****     ((0x0000FFFF & (uint32_t)CAN_FilterInitStruct->CAN_FilterMaskIdHigh) << 16) |
 449              		.loc 1 338 0
 450 020a C3F84422 		str	r2, [r3, #580]
 451 020e B5E7     		b	.L38
 452              	.L45:
 453              		.align	2
 454              	.L44:
 455 0210 00640040 		.word	1073767424
 456              		.cfi_endproc
 457              	.LFE31:
 458              		.size	CAN_FilterInit, .-CAN_FilterInit
 459              		.align	1
 460              		.p2align 2,,3
 461              		.global	CAN_StructInit
 462              		.syntax unified
 463              		.thumb
 464              		.thumb_func
 465              		.fpu softvfp
 466              		.type	CAN_StructInit, %function
 467              	CAN_StructInit:
 468              	.LFB32:
 377:../../source/src/FWlib/src/stm32f10x_can.c **** 
 378:../../source/src/FWlib/src/stm32f10x_can.c **** /**
 379:../../source/src/FWlib/src/stm32f10x_can.c ****   * @brief  Fills each CAN_InitStruct member with its default value.
 380:../../source/src/FWlib/src/stm32f10x_can.c ****   * @param  CAN_InitStruct: pointer to a CAN_InitTypeDef structure which
 381:../../source/src/FWlib/src/stm32f10x_can.c ****   *                         will be initialized.
 382:../../source/src/FWlib/src/stm32f10x_can.c ****   * @retval None.
 383:../../source/src/FWlib/src/stm32f10x_can.c ****   */
 384:../../source/src/FWlib/src/stm32f10x_can.c **** void CAN_StructInit(CAN_InitTypeDef* CAN_InitStruct)
 385:../../source/src/FWlib/src/stm32f10x_can.c **** {
 469              		.loc 1 385 0
 470              		.cfi_startproc
 471              		@ args = 0, pretend = 0, frame = 0
 472              		@ frame_needed = 0, uses_anonymous_args = 0
 473              		@ link register save eliminated.
 474              	.LVL26:
 386:../../source/src/FWlib/src/stm32f10x_can.c ****   /* Reset CAN init structure parameters values */
 387:../../source/src/FWlib/src/stm32f10x_can.c ****   
 388:../../source/src/FWlib/src/stm32f10x_can.c ****   /* Initialize the time triggered communication mode */
 389:../../source/src/FWlib/src/stm32f10x_can.c ****   CAN_InitStruct->CAN_TTCM = DISABLE;
 475              		.loc 1 389 0
 476 0214 0023     		movs	r3, #0
 390:../../source/src/FWlib/src/stm32f10x_can.c ****   
 391:../../source/src/FWlib/src/stm32f10x_can.c ****   /* Initialize the automatic bus-off management */
 392:../../source/src/FWlib/src/stm32f10x_can.c ****   CAN_InitStruct->CAN_ABOM = DISABLE;
 393:../../source/src/FWlib/src/stm32f10x_can.c ****   
 394:../../source/src/FWlib/src/stm32f10x_can.c ****   /* Initialize the automatic wake-up mode */
 395:../../source/src/FWlib/src/stm32f10x_can.c ****   CAN_InitStruct->CAN_AWUM = DISABLE;
 396:../../source/src/FWlib/src/stm32f10x_can.c ****   
 397:../../source/src/FWlib/src/stm32f10x_can.c ****   /* Initialize the no automatic retransmission */
ARM GAS  G:\Users\Jaxb\AppData\Local\Temp\cctfzRXv.s 			page 17


 398:../../source/src/FWlib/src/stm32f10x_can.c ****   CAN_InitStruct->CAN_NART = DISABLE;
 399:../../source/src/FWlib/src/stm32f10x_can.c ****   
 400:../../source/src/FWlib/src/stm32f10x_can.c ****   /* Initialize the receive FIFO locked mode */
 401:../../source/src/FWlib/src/stm32f10x_can.c ****   CAN_InitStruct->CAN_RFLM = DISABLE;
 402:../../source/src/FWlib/src/stm32f10x_can.c ****   
 403:../../source/src/FWlib/src/stm32f10x_can.c ****   /* Initialize the transmit FIFO priority */
 404:../../source/src/FWlib/src/stm32f10x_can.c ****   CAN_InitStruct->CAN_TXFP = DISABLE;
 405:../../source/src/FWlib/src/stm32f10x_can.c ****   
 406:../../source/src/FWlib/src/stm32f10x_can.c ****   /* Initialize the CAN_Mode member */
 407:../../source/src/FWlib/src/stm32f10x_can.c ****   CAN_InitStruct->CAN_Mode = CAN_Mode_Normal;
 408:../../source/src/FWlib/src/stm32f10x_can.c ****   
 409:../../source/src/FWlib/src/stm32f10x_can.c ****   /* Initialize the CAN_SJW member */
 410:../../source/src/FWlib/src/stm32f10x_can.c ****   CAN_InitStruct->CAN_SJW = CAN_SJW_1tq;
 411:../../source/src/FWlib/src/stm32f10x_can.c ****   
 412:../../source/src/FWlib/src/stm32f10x_can.c ****   /* Initialize the CAN_BS1 member */
 413:../../source/src/FWlib/src/stm32f10x_can.c ****   CAN_InitStruct->CAN_BS1 = CAN_BS1_4tq;
 414:../../source/src/FWlib/src/stm32f10x_can.c ****   
 415:../../source/src/FWlib/src/stm32f10x_can.c ****   /* Initialize the CAN_BS2 member */
 416:../../source/src/FWlib/src/stm32f10x_can.c ****   CAN_InitStruct->CAN_BS2 = CAN_BS2_3tq;
 417:../../source/src/FWlib/src/stm32f10x_can.c ****   
 418:../../source/src/FWlib/src/stm32f10x_can.c ****   /* Initialize the CAN_Prescaler member */
 419:../../source/src/FWlib/src/stm32f10x_can.c ****   CAN_InitStruct->CAN_Prescaler = 1;
 477              		.loc 1 419 0
 478 0216 0121     		movs	r1, #1
 410:../../source/src/FWlib/src/stm32f10x_can.c ****   
 479              		.loc 1 410 0
 480 0218 40F20322 		movw	r2, #515
 481              		.loc 1 419 0
 482 021c 0180     		strh	r1, [r0]	@ movhi
 410:../../source/src/FWlib/src/stm32f10x_can.c ****   
 483              		.loc 1 410 0
 484 021e 8280     		strh	r2, [r0, #4]	@ movhi
 389:../../source/src/FWlib/src/stm32f10x_can.c ****   
 485              		.loc 1 389 0
 486 0220 8371     		strb	r3, [r0, #6]
 392:../../source/src/FWlib/src/stm32f10x_can.c ****   
 487              		.loc 1 392 0
 488 0222 C371     		strb	r3, [r0, #7]
 395:../../source/src/FWlib/src/stm32f10x_can.c ****   
 489              		.loc 1 395 0
 490 0224 0372     		strb	r3, [r0, #8]
 398:../../source/src/FWlib/src/stm32f10x_can.c ****   
 491              		.loc 1 398 0
 492 0226 4372     		strb	r3, [r0, #9]
 401:../../source/src/FWlib/src/stm32f10x_can.c ****   
 493              		.loc 1 401 0
 494 0228 8372     		strb	r3, [r0, #10]
 404:../../source/src/FWlib/src/stm32f10x_can.c ****   
 495              		.loc 1 404 0
 496 022a C372     		strb	r3, [r0, #11]
 497              		.loc 1 419 0
 498 022c 4380     		strh	r3, [r0, #2]	@ movhi
 420:../../source/src/FWlib/src/stm32f10x_can.c **** }
 499              		.loc 1 420 0
 500 022e 7047     		bx	lr
 501              		.cfi_endproc
 502              	.LFE32:
ARM GAS  G:\Users\Jaxb\AppData\Local\Temp\cctfzRXv.s 			page 18


 503              		.size	CAN_StructInit, .-CAN_StructInit
 504              		.align	1
 505              		.p2align 2,,3
 506              		.global	CAN_SlaveStartBank
 507              		.syntax unified
 508              		.thumb
 509              		.thumb_func
 510              		.fpu softvfp
 511              		.type	CAN_SlaveStartBank, %function
 512              	CAN_SlaveStartBank:
 513              	.LFB33:
 421:../../source/src/FWlib/src/stm32f10x_can.c **** 
 422:../../source/src/FWlib/src/stm32f10x_can.c **** /**
 423:../../source/src/FWlib/src/stm32f10x_can.c ****   * @brief  Select the start bank filter for slave CAN.
 424:../../source/src/FWlib/src/stm32f10x_can.c ****   * @note   This function applies only to STM32 Connectivity line devices.
 425:../../source/src/FWlib/src/stm32f10x_can.c ****   * @param  CAN_BankNumber: Select the start slave bank filter from 1..27.
 426:../../source/src/FWlib/src/stm32f10x_can.c ****   * @retval None.
 427:../../source/src/FWlib/src/stm32f10x_can.c ****   */
 428:../../source/src/FWlib/src/stm32f10x_can.c **** void CAN_SlaveStartBank(uint8_t CAN_BankNumber) 
 429:../../source/src/FWlib/src/stm32f10x_can.c **** {
 514              		.loc 1 429 0
 515              		.cfi_startproc
 516              		@ args = 0, pretend = 0, frame = 0
 517              		@ frame_needed = 0, uses_anonymous_args = 0
 518              		@ link register save eliminated.
 519              	.LVL27:
 430:../../source/src/FWlib/src/stm32f10x_can.c ****   /* Check the parameters */
 431:../../source/src/FWlib/src/stm32f10x_can.c ****   assert_param(IS_CAN_BANKNUMBER(CAN_BankNumber));
 432:../../source/src/FWlib/src/stm32f10x_can.c ****   
 433:../../source/src/FWlib/src/stm32f10x_can.c ****   /* Enter Initialisation mode for the filter */
 434:../../source/src/FWlib/src/stm32f10x_can.c ****   CAN1->FMR |= FMR_FINIT;
 520              		.loc 1 434 0
 521 0230 0D4B     		ldr	r3, .L48
 522 0232 D3F80022 		ldr	r2, [r3, #512]
 523 0236 42F00102 		orr	r2, r2, #1
 524 023a C3F80022 		str	r2, [r3, #512]
 435:../../source/src/FWlib/src/stm32f10x_can.c ****   
 436:../../source/src/FWlib/src/stm32f10x_can.c ****   /* Select the start slave bank */
 437:../../source/src/FWlib/src/stm32f10x_can.c ****   CAN1->FMR &= (uint32_t)0xFFFFC0F1 ;
 525              		.loc 1 437 0
 526 023e D3F80022 		ldr	r2, [r3, #512]
 527 0242 22F47C52 		bic	r2, r2, #16128
 528 0246 22F00E02 		bic	r2, r2, #14
 529 024a C3F80022 		str	r2, [r3, #512]
 438:../../source/src/FWlib/src/stm32f10x_can.c ****   CAN1->FMR |= (uint32_t)(CAN_BankNumber)<<8;
 530              		.loc 1 438 0
 531 024e D3F80022 		ldr	r2, [r3, #512]
 532 0252 42EA0020 		orr	r0, r2, r0, lsl #8
 533              	.LVL28:
 534 0256 C3F80002 		str	r0, [r3, #512]
 439:../../source/src/FWlib/src/stm32f10x_can.c ****   
 440:../../source/src/FWlib/src/stm32f10x_can.c ****   /* Leave Initialisation mode for the filter */
 441:../../source/src/FWlib/src/stm32f10x_can.c ****   CAN1->FMR &= ~FMR_FINIT;
 535              		.loc 1 441 0
 536 025a D3F80022 		ldr	r2, [r3, #512]
 537 025e 22F00102 		bic	r2, r2, #1
 538 0262 C3F80022 		str	r2, [r3, #512]
ARM GAS  G:\Users\Jaxb\AppData\Local\Temp\cctfzRXv.s 			page 19


 442:../../source/src/FWlib/src/stm32f10x_can.c **** }
 539              		.loc 1 442 0
 540 0266 7047     		bx	lr
 541              	.L49:
 542              		.align	2
 543              	.L48:
 544 0268 00640040 		.word	1073767424
 545              		.cfi_endproc
 546              	.LFE33:
 547              		.size	CAN_SlaveStartBank, .-CAN_SlaveStartBank
 548              		.align	1
 549              		.p2align 2,,3
 550              		.global	CAN_DBGFreeze
 551              		.syntax unified
 552              		.thumb
 553              		.thumb_func
 554              		.fpu softvfp
 555              		.type	CAN_DBGFreeze, %function
 556              	CAN_DBGFreeze:
 557              	.LFB34:
 443:../../source/src/FWlib/src/stm32f10x_can.c **** 
 444:../../source/src/FWlib/src/stm32f10x_can.c **** /**
 445:../../source/src/FWlib/src/stm32f10x_can.c ****   * @brief  Enables or disables the DBG Freeze for CAN.
 446:../../source/src/FWlib/src/stm32f10x_can.c ****   * @param  CANx:     where x can be 1 or 2 to to select the CAN peripheral.
 447:../../source/src/FWlib/src/stm32f10x_can.c ****   * @param  NewState: new state of the CAN peripheral. This parameter can 
 448:../../source/src/FWlib/src/stm32f10x_can.c ****   *                   be: ENABLE or DISABLE.
 449:../../source/src/FWlib/src/stm32f10x_can.c ****   * @retval None.
 450:../../source/src/FWlib/src/stm32f10x_can.c ****   */
 451:../../source/src/FWlib/src/stm32f10x_can.c **** void CAN_DBGFreeze(CAN_TypeDef* CANx, FunctionalState NewState)
 452:../../source/src/FWlib/src/stm32f10x_can.c **** {
 558              		.loc 1 452 0
 559              		.cfi_startproc
 560              		@ args = 0, pretend = 0, frame = 0
 561              		@ frame_needed = 0, uses_anonymous_args = 0
 562              		@ link register save eliminated.
 563              	.LVL29:
 453:../../source/src/FWlib/src/stm32f10x_can.c ****   /* Check the parameters */
 454:../../source/src/FWlib/src/stm32f10x_can.c ****   assert_param(IS_CAN_ALL_PERIPH(CANx));
 455:../../source/src/FWlib/src/stm32f10x_can.c ****   assert_param(IS_FUNCTIONAL_STATE(NewState));
 456:../../source/src/FWlib/src/stm32f10x_can.c ****   
 457:../../source/src/FWlib/src/stm32f10x_can.c ****   if (NewState != DISABLE)
 458:../../source/src/FWlib/src/stm32f10x_can.c ****   {
 459:../../source/src/FWlib/src/stm32f10x_can.c ****     /* Enable Debug Freeze  */
 460:../../source/src/FWlib/src/stm32f10x_can.c ****     CANx->MCR |= MCR_DBF;
 564              		.loc 1 460 0
 565 026c 0368     		ldr	r3, [r0]
 457:../../source/src/FWlib/src/stm32f10x_can.c ****   {
 566              		.loc 1 457 0
 567 026e 19B9     		cbnz	r1, .L53
 461:../../source/src/FWlib/src/stm32f10x_can.c ****   }
 462:../../source/src/FWlib/src/stm32f10x_can.c ****   else
 463:../../source/src/FWlib/src/stm32f10x_can.c ****   {
 464:../../source/src/FWlib/src/stm32f10x_can.c ****     /* Disable Debug Freeze */
 465:../../source/src/FWlib/src/stm32f10x_can.c ****     CANx->MCR &= ~MCR_DBF;
 568              		.loc 1 465 0
 569 0270 23F48033 		bic	r3, r3, #65536
 570 0274 0360     		str	r3, [r0]
ARM GAS  G:\Users\Jaxb\AppData\Local\Temp\cctfzRXv.s 			page 20


 466:../../source/src/FWlib/src/stm32f10x_can.c ****   }
 467:../../source/src/FWlib/src/stm32f10x_can.c **** }
 571              		.loc 1 467 0
 572 0276 7047     		bx	lr
 573              	.L53:
 460:../../source/src/FWlib/src/stm32f10x_can.c ****   }
 574              		.loc 1 460 0
 575 0278 43F48033 		orr	r3, r3, #65536
 576 027c 0360     		str	r3, [r0]
 577 027e 7047     		bx	lr
 578              		.cfi_endproc
 579              	.LFE34:
 580              		.size	CAN_DBGFreeze, .-CAN_DBGFreeze
 581              		.align	1
 582              		.p2align 2,,3
 583              		.global	CAN_TTComModeCmd
 584              		.syntax unified
 585              		.thumb
 586              		.thumb_func
 587              		.fpu softvfp
 588              		.type	CAN_TTComModeCmd, %function
 589              	CAN_TTComModeCmd:
 590              	.LFB35:
 468:../../source/src/FWlib/src/stm32f10x_can.c **** 
 469:../../source/src/FWlib/src/stm32f10x_can.c **** 
 470:../../source/src/FWlib/src/stm32f10x_can.c **** /**
 471:../../source/src/FWlib/src/stm32f10x_can.c ****   * @brief  Enables or disabes the CAN Time TriggerOperation communication mode.
 472:../../source/src/FWlib/src/stm32f10x_can.c ****   * @param  CANx:      where x can be 1 or 2 to to select the CAN peripheral.
 473:../../source/src/FWlib/src/stm32f10x_can.c ****   * @param  NewState : Mode new state , can be one of @ref FunctionalState.
 474:../../source/src/FWlib/src/stm32f10x_can.c ****   * @note   when enabled, Time stamp (TIME[15:0]) value is sent in the last 
 475:../../source/src/FWlib/src/stm32f10x_can.c ****   *         two data bytes of the 8-byte message: TIME[7:0] in data byte 6 
 476:../../source/src/FWlib/src/stm32f10x_can.c ****   *         and TIME[15:8] in data byte 7 
 477:../../source/src/FWlib/src/stm32f10x_can.c ****   * @note   DLC must be programmed as 8 in order Time Stamp (2 bytes) to be 
 478:../../source/src/FWlib/src/stm32f10x_can.c ****   *         sent over the CAN bus.  
 479:../../source/src/FWlib/src/stm32f10x_can.c ****   * @retval None
 480:../../source/src/FWlib/src/stm32f10x_can.c ****   */
 481:../../source/src/FWlib/src/stm32f10x_can.c **** void CAN_TTComModeCmd(CAN_TypeDef* CANx, FunctionalState NewState)
 482:../../source/src/FWlib/src/stm32f10x_can.c **** {
 591              		.loc 1 482 0
 592              		.cfi_startproc
 593              		@ args = 0, pretend = 0, frame = 0
 594              		@ frame_needed = 0, uses_anonymous_args = 0
 595              		@ link register save eliminated.
 596              	.LVL30:
 483:../../source/src/FWlib/src/stm32f10x_can.c ****   /* Check the parameters */
 484:../../source/src/FWlib/src/stm32f10x_can.c ****   assert_param(IS_CAN_ALL_PERIPH(CANx));
 485:../../source/src/FWlib/src/stm32f10x_can.c ****   assert_param(IS_FUNCTIONAL_STATE(NewState));
 486:../../source/src/FWlib/src/stm32f10x_can.c ****   if (NewState != DISABLE)
 487:../../source/src/FWlib/src/stm32f10x_can.c ****   {
 488:../../source/src/FWlib/src/stm32f10x_can.c ****     /* Enable the TTCM mode */
 489:../../source/src/FWlib/src/stm32f10x_can.c ****     CANx->MCR |= CAN_MCR_TTCM;
 597              		.loc 1 489 0
 598 0280 0368     		ldr	r3, [r0]
 486:../../source/src/FWlib/src/stm32f10x_can.c ****   {
 599              		.loc 1 486 0
 600 0282 A9B9     		cbnz	r1, .L57
 490:../../source/src/FWlib/src/stm32f10x_can.c **** 
ARM GAS  G:\Users\Jaxb\AppData\Local\Temp\cctfzRXv.s 			page 21


 491:../../source/src/FWlib/src/stm32f10x_can.c ****     /* Set TGT bits */
 492:../../source/src/FWlib/src/stm32f10x_can.c ****     CANx->sTxMailBox[0].TDTR |= ((uint32_t)CAN_TDT0R_TGT);
 493:../../source/src/FWlib/src/stm32f10x_can.c ****     CANx->sTxMailBox[1].TDTR |= ((uint32_t)CAN_TDT1R_TGT);
 494:../../source/src/FWlib/src/stm32f10x_can.c ****     CANx->sTxMailBox[2].TDTR |= ((uint32_t)CAN_TDT2R_TGT);
 495:../../source/src/FWlib/src/stm32f10x_can.c ****   }
 496:../../source/src/FWlib/src/stm32f10x_can.c ****   else
 497:../../source/src/FWlib/src/stm32f10x_can.c ****   {
 498:../../source/src/FWlib/src/stm32f10x_can.c ****     /* Disable the TTCM mode */
 499:../../source/src/FWlib/src/stm32f10x_can.c ****     CANx->MCR &= (uint32_t)(~(uint32_t)CAN_MCR_TTCM);
 601              		.loc 1 499 0
 602 0284 23F08003 		bic	r3, r3, #128
 603 0288 0360     		str	r3, [r0]
 500:../../source/src/FWlib/src/stm32f10x_can.c **** 
 501:../../source/src/FWlib/src/stm32f10x_can.c ****     /* Reset TGT bits */
 502:../../source/src/FWlib/src/stm32f10x_can.c ****     CANx->sTxMailBox[0].TDTR &= ((uint32_t)~CAN_TDT0R_TGT);
 604              		.loc 1 502 0
 605 028a D0F88431 		ldr	r3, [r0, #388]
 606 028e 23F48073 		bic	r3, r3, #256
 607 0292 C0F88431 		str	r3, [r0, #388]
 503:../../source/src/FWlib/src/stm32f10x_can.c ****     CANx->sTxMailBox[1].TDTR &= ((uint32_t)~CAN_TDT1R_TGT);
 608              		.loc 1 503 0
 609 0296 D0F89431 		ldr	r3, [r0, #404]
 610 029a 23F48073 		bic	r3, r3, #256
 611 029e C0F89431 		str	r3, [r0, #404]
 504:../../source/src/FWlib/src/stm32f10x_can.c ****     CANx->sTxMailBox[2].TDTR &= ((uint32_t)~CAN_TDT2R_TGT);
 612              		.loc 1 504 0
 613 02a2 D0F8A431 		ldr	r3, [r0, #420]
 614 02a6 23F48073 		bic	r3, r3, #256
 615 02aa C0F8A431 		str	r3, [r0, #420]
 505:../../source/src/FWlib/src/stm32f10x_can.c ****   }
 506:../../source/src/FWlib/src/stm32f10x_can.c **** }
 616              		.loc 1 506 0
 617 02ae 7047     		bx	lr
 618              	.L57:
 489:../../source/src/FWlib/src/stm32f10x_can.c **** 
 619              		.loc 1 489 0
 620 02b0 43F08003 		orr	r3, r3, #128
 621 02b4 0360     		str	r3, [r0]
 492:../../source/src/FWlib/src/stm32f10x_can.c ****     CANx->sTxMailBox[1].TDTR |= ((uint32_t)CAN_TDT1R_TGT);
 622              		.loc 1 492 0
 623 02b6 D0F88431 		ldr	r3, [r0, #388]
 624 02ba 43F48073 		orr	r3, r3, #256
 625 02be C0F88431 		str	r3, [r0, #388]
 493:../../source/src/FWlib/src/stm32f10x_can.c ****     CANx->sTxMailBox[2].TDTR |= ((uint32_t)CAN_TDT2R_TGT);
 626              		.loc 1 493 0
 627 02c2 D0F89431 		ldr	r3, [r0, #404]
 628 02c6 43F48073 		orr	r3, r3, #256
 629 02ca C0F89431 		str	r3, [r0, #404]
 494:../../source/src/FWlib/src/stm32f10x_can.c ****   }
 630              		.loc 1 494 0
 631 02ce D0F8A431 		ldr	r3, [r0, #420]
 632 02d2 43F48073 		orr	r3, r3, #256
 633 02d6 C0F8A431 		str	r3, [r0, #420]
 634 02da 7047     		bx	lr
 635              		.cfi_endproc
 636              	.LFE35:
 637              		.size	CAN_TTComModeCmd, .-CAN_TTComModeCmd
ARM GAS  G:\Users\Jaxb\AppData\Local\Temp\cctfzRXv.s 			page 22


 638              		.align	1
 639              		.p2align 2,,3
 640              		.global	CAN_Transmit
 641              		.syntax unified
 642              		.thumb
 643              		.thumb_func
 644              		.fpu softvfp
 645              		.type	CAN_Transmit, %function
 646              	CAN_Transmit:
 647              	.LFB36:
 507:../../source/src/FWlib/src/stm32f10x_can.c **** /**
 508:../../source/src/FWlib/src/stm32f10x_can.c ****   * @brief  Initiates the transmission of a message.
 509:../../source/src/FWlib/src/stm32f10x_can.c ****   * @param  CANx:      where x can be 1 or 2 to to select the CAN peripheral.
 510:../../source/src/FWlib/src/stm32f10x_can.c ****   * @param  TxMessage: pointer to a structure which contains CAN Id, CAN
 511:../../source/src/FWlib/src/stm32f10x_can.c ****   *                    DLC and CAN data.
 512:../../source/src/FWlib/src/stm32f10x_can.c ****   * @retval The number of the mailbox that is used for transmission
 513:../../source/src/FWlib/src/stm32f10x_can.c ****   *                    or CAN_TxStatus_NoMailBox if there is no empty mailbox.
 514:../../source/src/FWlib/src/stm32f10x_can.c ****   */
 515:../../source/src/FWlib/src/stm32f10x_can.c **** uint8_t CAN_Transmit(CAN_TypeDef* CANx, CanTxMsg* TxMessage)
 516:../../source/src/FWlib/src/stm32f10x_can.c **** {
 648              		.loc 1 516 0
 649              		.cfi_startproc
 650              		@ args = 0, pretend = 0, frame = 0
 651              		@ frame_needed = 0, uses_anonymous_args = 0
 652              		@ link register save eliminated.
 653              	.LVL31:
 517:../../source/src/FWlib/src/stm32f10x_can.c ****   uint8_t transmit_mailbox = 0;
 518:../../source/src/FWlib/src/stm32f10x_can.c ****   /* Check the parameters */
 519:../../source/src/FWlib/src/stm32f10x_can.c ****   assert_param(IS_CAN_ALL_PERIPH(CANx));
 520:../../source/src/FWlib/src/stm32f10x_can.c ****   assert_param(IS_CAN_IDTYPE(TxMessage->IDE));
 521:../../source/src/FWlib/src/stm32f10x_can.c ****   assert_param(IS_CAN_RTR(TxMessage->RTR));
 522:../../source/src/FWlib/src/stm32f10x_can.c ****   assert_param(IS_CAN_DLC(TxMessage->DLC));
 523:../../source/src/FWlib/src/stm32f10x_can.c **** 
 524:../../source/src/FWlib/src/stm32f10x_can.c ****   /* Select one empty transmit mailbox */
 525:../../source/src/FWlib/src/stm32f10x_can.c ****   if ((CANx->TSR&CAN_TSR_TME0) == CAN_TSR_TME0)
 654              		.loc 1 525 0
 655 02dc 8368     		ldr	r3, [r0, #8]
 516:../../source/src/FWlib/src/stm32f10x_can.c ****   uint8_t transmit_mailbox = 0;
 656              		.loc 1 516 0
 657 02de F0B4     		push	{r4, r5, r6, r7}
 658              	.LCFI11:
 659              		.cfi_def_cfa_offset 16
 660              		.cfi_offset 4, -16
 661              		.cfi_offset 5, -12
 662              		.cfi_offset 6, -8
 663              		.cfi_offset 7, -4
 664              		.loc 1 525 0
 665 02e0 5C01     		lsls	r4, r3, #5
 516:../../source/src/FWlib/src/stm32f10x_can.c ****   uint8_t transmit_mailbox = 0;
 666              		.loc 1 516 0
 667 02e2 0246     		mov	r2, r0
 668              		.loc 1 525 0
 669 02e4 05D4     		bmi	.L63
 526:../../source/src/FWlib/src/stm32f10x_can.c ****   {
 527:../../source/src/FWlib/src/stm32f10x_can.c ****     transmit_mailbox = 0;
 528:../../source/src/FWlib/src/stm32f10x_can.c ****   }
 529:../../source/src/FWlib/src/stm32f10x_can.c ****   else if ((CANx->TSR&CAN_TSR_TME1) == CAN_TSR_TME1)
ARM GAS  G:\Users\Jaxb\AppData\Local\Temp\cctfzRXv.s 			page 23


 670              		.loc 1 529 0
 671 02e6 8368     		ldr	r3, [r0, #8]
 672 02e8 1801     		lsls	r0, r3, #4
 673              	.LVL32:
 674 02ea 42D5     		bpl	.L66
 675 02ec 0125     		movs	r5, #1
 530:../../source/src/FWlib/src/stm32f10x_can.c ****   {
 531:../../source/src/FWlib/src/stm32f10x_can.c ****     transmit_mailbox = 1;
 676              		.loc 1 531 0
 677 02ee 2846     		mov	r0, r5
 678 02f0 01E0     		b	.L59
 679              	.LVL33:
 680              	.L63:
 681 02f2 0025     		movs	r5, #0
 527:../../source/src/FWlib/src/stm32f10x_can.c ****   }
 682              		.loc 1 527 0
 683 02f4 2846     		mov	r0, r5
 684              	.LVL34:
 685              	.L59:
 686 02f6 2D01     		lsls	r5, r5, #4
 687 02f8 5319     		adds	r3, r2, r5
 532:../../source/src/FWlib/src/stm32f10x_can.c ****   }
 533:../../source/src/FWlib/src/stm32f10x_can.c ****   else if ((CANx->TSR&CAN_TSR_TME2) == CAN_TSR_TME2)
 534:../../source/src/FWlib/src/stm32f10x_can.c ****   {
 535:../../source/src/FWlib/src/stm32f10x_can.c ****     transmit_mailbox = 2;
 536:../../source/src/FWlib/src/stm32f10x_can.c ****   }
 537:../../source/src/FWlib/src/stm32f10x_can.c ****   else
 538:../../source/src/FWlib/src/stm32f10x_can.c ****   {
 539:../../source/src/FWlib/src/stm32f10x_can.c ****     transmit_mailbox = CAN_TxStatus_NoMailBox;
 540:../../source/src/FWlib/src/stm32f10x_can.c ****   }
 541:../../source/src/FWlib/src/stm32f10x_can.c **** 
 542:../../source/src/FWlib/src/stm32f10x_can.c ****   if (transmit_mailbox != CAN_TxStatus_NoMailBox)
 543:../../source/src/FWlib/src/stm32f10x_can.c ****   {
 544:../../source/src/FWlib/src/stm32f10x_can.c ****     /* Set up the Id */
 545:../../source/src/FWlib/src/stm32f10x_can.c ****     CANx->sTxMailBox[transmit_mailbox].TIR &= TMIDxR_TXRQ;
 688              		.loc 1 545 0
 689 02fa D3F88041 		ldr	r4, [r3, #384]
 690 02fe 04F00104 		and	r4, r4, #1
 691 0302 C3F88041 		str	r4, [r3, #384]
 546:../../source/src/FWlib/src/stm32f10x_can.c ****     if (TxMessage->IDE == CAN_Id_Standard)
 692              		.loc 1 546 0
 693 0306 0E7A     		ldrb	r6, [r1, #8]	@ zero_extendqisi2
 694 0308 4C7A     		ldrb	r4, [r1, #9]	@ zero_extendqisi2
 695 030a 4EB3     		cbz	r6, .L67
 547:../../source/src/FWlib/src/stm32f10x_can.c ****     {
 548:../../source/src/FWlib/src/stm32f10x_can.c ****       assert_param(IS_CAN_STDID(TxMessage->StdId));  
 549:../../source/src/FWlib/src/stm32f10x_can.c ****       CANx->sTxMailBox[transmit_mailbox].TIR |= ((TxMessage->StdId << 21) | \
 550:../../source/src/FWlib/src/stm32f10x_can.c ****                                                   TxMessage->RTR);
 551:../../source/src/FWlib/src/stm32f10x_can.c ****     }
 552:../../source/src/FWlib/src/stm32f10x_can.c ****     else
 553:../../source/src/FWlib/src/stm32f10x_can.c ****     {
 554:../../source/src/FWlib/src/stm32f10x_can.c ****       assert_param(IS_CAN_EXTID(TxMessage->ExtId));
 555:../../source/src/FWlib/src/stm32f10x_can.c ****       CANx->sTxMailBox[transmit_mailbox].TIR |= ((TxMessage->ExtId << 3) | \
 556:../../source/src/FWlib/src/stm32f10x_can.c ****                                                   TxMessage->IDE | \
 696              		.loc 1 556 0
 697 030c 4F68     		ldr	r7, [r1, #4]
 555:../../source/src/FWlib/src/stm32f10x_can.c ****                                                   TxMessage->IDE | \
ARM GAS  G:\Users\Jaxb\AppData\Local\Temp\cctfzRXv.s 			page 24


 698              		.loc 1 555 0
 699 030e D3F880C1 		ldr	ip, [r3, #384]
 700              		.loc 1 556 0
 701 0312 44EAC704 		orr	r4, r4, r7, lsl #3
 702 0316 3443     		orrs	r4, r4, r6
 555:../../source/src/FWlib/src/stm32f10x_can.c ****                                                   TxMessage->IDE | \
 703              		.loc 1 555 0
 704 0318 44EA0C04 		orr	r4, r4, ip
 705 031c C3F88041 		str	r4, [r3, #384]
 706              	.L62:
 557:../../source/src/FWlib/src/stm32f10x_can.c ****                                                   TxMessage->RTR);
 558:../../source/src/FWlib/src/stm32f10x_can.c ****     }
 559:../../source/src/FWlib/src/stm32f10x_can.c ****     
 560:../../source/src/FWlib/src/stm32f10x_can.c ****     /* Set up the DLC */
 561:../../source/src/FWlib/src/stm32f10x_can.c ****     TxMessage->DLC &= (uint8_t)0x0000000F;
 707              		.loc 1 561 0
 708 0320 8C7A     		ldrb	r4, [r1, #10]	@ zero_extendqisi2
 562:../../source/src/FWlib/src/stm32f10x_can.c ****     CANx->sTxMailBox[transmit_mailbox].TDTR &= (uint32_t)0xFFFFFFF0;
 563:../../source/src/FWlib/src/stm32f10x_can.c ****     CANx->sTxMailBox[transmit_mailbox].TDTR |= TxMessage->DLC;
 564:../../source/src/FWlib/src/stm32f10x_can.c **** 
 565:../../source/src/FWlib/src/stm32f10x_can.c ****     /* Set up the data field */
 566:../../source/src/FWlib/src/stm32f10x_can.c ****     CANx->sTxMailBox[transmit_mailbox].TDLR = (((uint32_t)TxMessage->Data[3] << 24) | 
 709              		.loc 1 566 0
 710 0322 2A44     		add	r2, r2, r5
 711              	.LVL35:
 561:../../source/src/FWlib/src/stm32f10x_can.c ****     CANx->sTxMailBox[transmit_mailbox].TDTR &= (uint32_t)0xFFFFFFF0;
 712              		.loc 1 561 0
 713 0324 04F00F04 		and	r4, r4, #15
 714 0328 8C72     		strb	r4, [r1, #10]
 562:../../source/src/FWlib/src/stm32f10x_can.c ****     CANx->sTxMailBox[transmit_mailbox].TDTR &= (uint32_t)0xFFFFFFF0;
 715              		.loc 1 562 0
 716 032a D3F88451 		ldr	r5, [r3, #388]
 717 032e 25F00F05 		bic	r5, r5, #15
 718 0332 C3F88451 		str	r5, [r3, #388]
 563:../../source/src/FWlib/src/stm32f10x_can.c **** 
 719              		.loc 1 563 0
 720 0336 D3F88451 		ldr	r5, [r3, #388]
 721 033a 2C43     		orrs	r4, r4, r5
 722 033c C3F88441 		str	r4, [r3, #388]
 567:../../source/src/FWlib/src/stm32f10x_can.c ****                                              ((uint32_t)TxMessage->Data[2] << 16) |
 568:../../source/src/FWlib/src/stm32f10x_can.c ****                                              ((uint32_t)TxMessage->Data[1] << 8) | 
 723              		.loc 1 568 0
 724 0340 D1F80B40 		ldr	r4, [r1, #11]	@ unaligned
 566:../../source/src/FWlib/src/stm32f10x_can.c ****                                              ((uint32_t)TxMessage->Data[2] << 16) |
 725              		.loc 1 566 0
 726 0344 C2F88841 		str	r4, [r2, #392]
 569:../../source/src/FWlib/src/stm32f10x_can.c ****                                              ((uint32_t)TxMessage->Data[0]));
 570:../../source/src/FWlib/src/stm32f10x_can.c ****     CANx->sTxMailBox[transmit_mailbox].TDHR = (((uint32_t)TxMessage->Data[7] << 24) | 
 571:../../source/src/FWlib/src/stm32f10x_can.c ****                                              ((uint32_t)TxMessage->Data[6] << 16) |
 572:../../source/src/FWlib/src/stm32f10x_can.c ****                                              ((uint32_t)TxMessage->Data[5] << 8) |
 727              		.loc 1 572 0
 728 0348 D1F80F10 		ldr	r1, [r1, #15]	@ unaligned
 729              	.LVL36:
 570:../../source/src/FWlib/src/stm32f10x_can.c ****                                              ((uint32_t)TxMessage->Data[6] << 16) |
 730              		.loc 1 570 0
 731 034c C2F88C11 		str	r1, [r2, #396]
 573:../../source/src/FWlib/src/stm32f10x_can.c ****                                              ((uint32_t)TxMessage->Data[4]));
ARM GAS  G:\Users\Jaxb\AppData\Local\Temp\cctfzRXv.s 			page 25


 574:../../source/src/FWlib/src/stm32f10x_can.c ****     /* Request transmission */
 575:../../source/src/FWlib/src/stm32f10x_can.c ****     CANx->sTxMailBox[transmit_mailbox].TIR |= TMIDxR_TXRQ;
 732              		.loc 1 575 0
 733 0350 D3F88021 		ldr	r2, [r3, #384]
 734 0354 42F00102 		orr	r2, r2, #1
 735 0358 C3F88021 		str	r2, [r3, #384]
 736              	.L60:
 576:../../source/src/FWlib/src/stm32f10x_can.c ****   }
 577:../../source/src/FWlib/src/stm32f10x_can.c ****   return transmit_mailbox;
 578:../../source/src/FWlib/src/stm32f10x_can.c **** }
 737              		.loc 1 578 0
 738 035c F0BC     		pop	{r4, r5, r6, r7}
 739              	.LCFI12:
 740              		.cfi_remember_state
 741              		.cfi_restore 7
 742              		.cfi_restore 6
 743              		.cfi_restore 5
 744              		.cfi_restore 4
 745              		.cfi_def_cfa_offset 0
 746 035e 7047     		bx	lr
 747              	.LVL37:
 748              	.L67:
 749              	.LCFI13:
 750              		.cfi_restore_state
 549:../../source/src/FWlib/src/stm32f10x_can.c ****                                                   TxMessage->RTR);
 751              		.loc 1 549 0
 752 0360 0F68     		ldr	r7, [r1]
 753 0362 D3F88061 		ldr	r6, [r3, #384]
 754 0366 44EA4754 		orr	r4, r4, r7, lsl #21
 755 036a 3443     		orrs	r4, r4, r6
 756 036c C3F88041 		str	r4, [r3, #384]
 757 0370 D6E7     		b	.L62
 758              	.L66:
 533:../../source/src/FWlib/src/stm32f10x_can.c ****   {
 759              		.loc 1 533 0
 760 0372 9368     		ldr	r3, [r2, #8]
 761 0374 DB00     		lsls	r3, r3, #3
 762 0376 02D5     		bpl	.L65
 763 0378 0225     		movs	r5, #2
 535:../../source/src/FWlib/src/stm32f10x_can.c ****   }
 764              		.loc 1 535 0
 765 037a 2846     		mov	r0, r5
 766 037c BBE7     		b	.L59
 767              	.L65:
 539:../../source/src/FWlib/src/stm32f10x_can.c ****   }
 768              		.loc 1 539 0
 769 037e 0420     		movs	r0, #4
 770 0380 ECE7     		b	.L60
 771              		.cfi_endproc
 772              	.LFE36:
 773              		.size	CAN_Transmit, .-CAN_Transmit
 774              		.align	1
 775 0382 00BF     		.p2align 2,,3
 776              		.global	CAN_TransmitStatus
 777              		.syntax unified
 778              		.thumb
 779              		.thumb_func
ARM GAS  G:\Users\Jaxb\AppData\Local\Temp\cctfzRXv.s 			page 26


 780              		.fpu softvfp
 781              		.type	CAN_TransmitStatus, %function
 782              	CAN_TransmitStatus:
 783              	.LFB37:
 579:../../source/src/FWlib/src/stm32f10x_can.c **** 
 580:../../source/src/FWlib/src/stm32f10x_can.c **** /**
 581:../../source/src/FWlib/src/stm32f10x_can.c ****   * @brief  Checks the transmission of a message.
 582:../../source/src/FWlib/src/stm32f10x_can.c ****   * @param  CANx:            where x can be 1 or 2 to to select the 
 583:../../source/src/FWlib/src/stm32f10x_can.c ****   *                          CAN peripheral.
 584:../../source/src/FWlib/src/stm32f10x_can.c ****   * @param  TransmitMailbox: the number of the mailbox that is used for 
 585:../../source/src/FWlib/src/stm32f10x_can.c ****   *                          transmission.
 586:../../source/src/FWlib/src/stm32f10x_can.c ****   * @retval CAN_TxStatus_Ok if the CAN driver transmits the message, CAN_TxStatus_Failed 
 587:../../source/src/FWlib/src/stm32f10x_can.c ****   *         in an other case.
 588:../../source/src/FWlib/src/stm32f10x_can.c ****   */
 589:../../source/src/FWlib/src/stm32f10x_can.c **** uint8_t CAN_TransmitStatus(CAN_TypeDef* CANx, uint8_t TransmitMailbox)
 590:../../source/src/FWlib/src/stm32f10x_can.c **** {
 784              		.loc 1 590 0
 785              		.cfi_startproc
 786              		@ args = 0, pretend = 0, frame = 0
 787              		@ frame_needed = 0, uses_anonymous_args = 0
 788              		@ link register save eliminated.
 789              	.LVL38:
 591:../../source/src/FWlib/src/stm32f10x_can.c ****   uint32_t state = 0;
 592:../../source/src/FWlib/src/stm32f10x_can.c **** 
 593:../../source/src/FWlib/src/stm32f10x_can.c ****   /* Check the parameters */
 594:../../source/src/FWlib/src/stm32f10x_can.c ****   assert_param(IS_CAN_ALL_PERIPH(CANx));
 595:../../source/src/FWlib/src/stm32f10x_can.c ****   assert_param(IS_CAN_TRANSMITMAILBOX(TransmitMailbox));
 596:../../source/src/FWlib/src/stm32f10x_can.c ****  
 597:../../source/src/FWlib/src/stm32f10x_can.c ****   switch (TransmitMailbox)
 790              		.loc 1 597 0
 791 0384 0129     		cmp	r1, #1
 792 0386 1BD0     		beq	.L70
 793 0388 16D3     		bcc	.L71
 794 038a 0229     		cmp	r1, #2
 795 038c 10D1     		bne	.L79
 598:../../source/src/FWlib/src/stm32f10x_can.c ****   {
 599:../../source/src/FWlib/src/stm32f10x_can.c ****     case (CAN_TXMAILBOX_0): 
 600:../../source/src/FWlib/src/stm32f10x_can.c ****       state =   CANx->TSR &  (CAN_TSR_RQCP0 | CAN_TSR_TXOK0 | CAN_TSR_TME0);
 601:../../source/src/FWlib/src/stm32f10x_can.c ****       break;
 602:../../source/src/FWlib/src/stm32f10x_can.c ****     case (CAN_TXMAILBOX_1): 
 603:../../source/src/FWlib/src/stm32f10x_can.c ****       state =   CANx->TSR &  (CAN_TSR_RQCP1 | CAN_TSR_TXOK1 | CAN_TSR_TME1);
 604:../../source/src/FWlib/src/stm32f10x_can.c ****       break;
 605:../../source/src/FWlib/src/stm32f10x_can.c ****     case (CAN_TXMAILBOX_2): 
 606:../../source/src/FWlib/src/stm32f10x_can.c ****       state =   CANx->TSR &  (CAN_TSR_RQCP2 | CAN_TSR_TXOK2 | CAN_TSR_TME2);
 796              		.loc 1 606 0
 797 038e 8368     		ldr	r3, [r0, #8]
 798 0390 0D4A     		ldr	r2, .L81
 799 0392 1340     		ands	r3, r3, r2
 800              	.LVL39:
 801              	.L73:
 607:../../source/src/FWlib/src/stm32f10x_can.c ****       break;
 608:../../source/src/FWlib/src/stm32f10x_can.c ****     default:
 609:../../source/src/FWlib/src/stm32f10x_can.c ****       state = CAN_TxStatus_Failed;
 610:../../source/src/FWlib/src/stm32f10x_can.c ****       break;
 611:../../source/src/FWlib/src/stm32f10x_can.c ****   }
 612:../../source/src/FWlib/src/stm32f10x_can.c ****   switch (state)
 802              		.loc 1 612 0
ARM GAS  G:\Users\Jaxb\AppData\Local\Temp\cctfzRXv.s 			page 27


 803 0394 0D4A     		ldr	r2, .L81+4
 804 0396 9342     		cmp	r3, r2
 805 0398 0CD0     		beq	.L74
 806 039a 07D9     		bls	.L80
 807 039c 0C4A     		ldr	r2, .L81+8
 808 039e 9342     		cmp	r3, r2
 809 03a0 08D0     		beq	.L74
 810 03a2 094A     		ldr	r2, .L81
 811 03a4 9342     		cmp	r3, r2
 812 03a6 05D0     		beq	.L74
 813              	.L78:
 814 03a8 0020     		movs	r0, #0
 815              	.LVL40:
 613:../../source/src/FWlib/src/stm32f10x_can.c ****   {
 614:../../source/src/FWlib/src/stm32f10x_can.c ****       /* transmit pending  */
 615:../../source/src/FWlib/src/stm32f10x_can.c ****     case (0x0): state = CAN_TxStatus_Pending;
 616:../../source/src/FWlib/src/stm32f10x_can.c ****       break;
 617:../../source/src/FWlib/src/stm32f10x_can.c ****       /* transmit failed  */
 618:../../source/src/FWlib/src/stm32f10x_can.c ****      case (CAN_TSR_RQCP0 | CAN_TSR_TME0): state = CAN_TxStatus_Failed;
 619:../../source/src/FWlib/src/stm32f10x_can.c ****       break;
 620:../../source/src/FWlib/src/stm32f10x_can.c ****      case (CAN_TSR_RQCP1 | CAN_TSR_TME1): state = CAN_TxStatus_Failed;
 621:../../source/src/FWlib/src/stm32f10x_can.c ****       break;
 622:../../source/src/FWlib/src/stm32f10x_can.c ****      case (CAN_TSR_RQCP2 | CAN_TSR_TME2): state = CAN_TxStatus_Failed;
 623:../../source/src/FWlib/src/stm32f10x_can.c ****       break;
 624:../../source/src/FWlib/src/stm32f10x_can.c ****       /* transmit succeeded  */
 625:../../source/src/FWlib/src/stm32f10x_can.c ****     case (CAN_TSR_RQCP0 | CAN_TSR_TXOK0 | CAN_TSR_TME0):state = CAN_TxStatus_Ok;
 626:../../source/src/FWlib/src/stm32f10x_can.c ****       break;
 627:../../source/src/FWlib/src/stm32f10x_can.c ****     case (CAN_TSR_RQCP1 | CAN_TSR_TXOK1 | CAN_TSR_TME1):state = CAN_TxStatus_Ok;
 628:../../source/src/FWlib/src/stm32f10x_can.c ****       break;
 629:../../source/src/FWlib/src/stm32f10x_can.c ****     case (CAN_TSR_RQCP2 | CAN_TSR_TXOK2 | CAN_TSR_TME2):state = CAN_TxStatus_Ok;
 630:../../source/src/FWlib/src/stm32f10x_can.c ****       break;
 631:../../source/src/FWlib/src/stm32f10x_can.c ****     default: state = CAN_TxStatus_Failed;
 632:../../source/src/FWlib/src/stm32f10x_can.c ****       break;
 633:../../source/src/FWlib/src/stm32f10x_can.c ****   }
 634:../../source/src/FWlib/src/stm32f10x_can.c ****   return (uint8_t) state;
 635:../../source/src/FWlib/src/stm32f10x_can.c **** }
 816              		.loc 1 635 0
 817 03aa 7047     		bx	lr
 818              	.LVL41:
 819              	.L80:
 612:../../source/src/FWlib/src/stm32f10x_can.c ****   {
 820              		.loc 1 612 0
 821 03ac 002B     		cmp	r3, #0
 822 03ae FBD1     		bne	.L78
 823              	.LVL42:
 824              	.L79:
 597:../../source/src/FWlib/src/stm32f10x_can.c ****   {
 825              		.loc 1 597 0
 826 03b0 0220     		movs	r0, #2
 827              	.LVL43:
 828 03b2 7047     		bx	lr
 829              	.LVL44:
 830              	.L74:
 612:../../source/src/FWlib/src/stm32f10x_can.c ****   {
 831              		.loc 1 612 0
 832 03b4 0120     		movs	r0, #1
 833              	.LVL45:
ARM GAS  G:\Users\Jaxb\AppData\Local\Temp\cctfzRXv.s 			page 28


 834 03b6 7047     		bx	lr
 835              	.LVL46:
 836              	.L71:
 600:../../source/src/FWlib/src/stm32f10x_can.c ****       break;
 837              		.loc 1 600 0
 838 03b8 8368     		ldr	r3, [r0, #8]
 839 03ba 044A     		ldr	r2, .L81+4
 840 03bc 1340     		ands	r3, r3, r2
 841              	.LVL47:
 601:../../source/src/FWlib/src/stm32f10x_can.c ****     case (CAN_TXMAILBOX_1): 
 842              		.loc 1 601 0
 843 03be E9E7     		b	.L73
 844              	.LVL48:
 845              	.L70:
 603:../../source/src/FWlib/src/stm32f10x_can.c ****       break;
 846              		.loc 1 603 0
 847 03c0 8268     		ldr	r2, [r0, #8]
 848 03c2 034B     		ldr	r3, .L81+8
 849 03c4 1340     		ands	r3, r3, r2
 850              	.LVL49:
 604:../../source/src/FWlib/src/stm32f10x_can.c ****     case (CAN_TXMAILBOX_2): 
 851              		.loc 1 604 0
 852 03c6 E5E7     		b	.L73
 853              	.L82:
 854              		.align	2
 855              	.L81:
 856 03c8 00000310 		.word	268632064
 857 03cc 03000004 		.word	67108867
 858 03d0 00030008 		.word	134218496
 859              		.cfi_endproc
 860              	.LFE37:
 861              		.size	CAN_TransmitStatus, .-CAN_TransmitStatus
 862              		.align	1
 863              		.p2align 2,,3
 864              		.global	CAN_CancelTransmit
 865              		.syntax unified
 866              		.thumb
 867              		.thumb_func
 868              		.fpu softvfp
 869              		.type	CAN_CancelTransmit, %function
 870              	CAN_CancelTransmit:
 871              	.LFB38:
 636:../../source/src/FWlib/src/stm32f10x_can.c **** 
 637:../../source/src/FWlib/src/stm32f10x_can.c **** /**
 638:../../source/src/FWlib/src/stm32f10x_can.c ****   * @brief  Cancels a transmit request.
 639:../../source/src/FWlib/src/stm32f10x_can.c ****   * @param  CANx:     where x can be 1 or 2 to to select the CAN peripheral. 
 640:../../source/src/FWlib/src/stm32f10x_can.c ****   * @param  Mailbox:  Mailbox number.
 641:../../source/src/FWlib/src/stm32f10x_can.c ****   * @retval None.
 642:../../source/src/FWlib/src/stm32f10x_can.c ****   */
 643:../../source/src/FWlib/src/stm32f10x_can.c **** void CAN_CancelTransmit(CAN_TypeDef* CANx, uint8_t Mailbox)
 644:../../source/src/FWlib/src/stm32f10x_can.c **** {
 872              		.loc 1 644 0
 873              		.cfi_startproc
 874              		@ args = 0, pretend = 0, frame = 0
 875              		@ frame_needed = 0, uses_anonymous_args = 0
 876              		@ link register save eliminated.
 877              	.LVL50:
ARM GAS  G:\Users\Jaxb\AppData\Local\Temp\cctfzRXv.s 			page 29


 645:../../source/src/FWlib/src/stm32f10x_can.c ****   /* Check the parameters */
 646:../../source/src/FWlib/src/stm32f10x_can.c ****   assert_param(IS_CAN_ALL_PERIPH(CANx));
 647:../../source/src/FWlib/src/stm32f10x_can.c ****   assert_param(IS_CAN_TRANSMITMAILBOX(Mailbox));
 648:../../source/src/FWlib/src/stm32f10x_can.c ****   /* abort transmission */
 649:../../source/src/FWlib/src/stm32f10x_can.c ****   switch (Mailbox)
 878              		.loc 1 649 0
 879 03d4 0129     		cmp	r1, #1
 880 03d6 0DD0     		beq	.L85
 881 03d8 07D3     		bcc	.L86
 882 03da 0229     		cmp	r1, #2
 883 03dc 04D1     		bne	.L88
 650:../../source/src/FWlib/src/stm32f10x_can.c ****   {
 651:../../source/src/FWlib/src/stm32f10x_can.c ****     case (CAN_TXMAILBOX_0): CANx->TSR |= CAN_TSR_ABRQ0;
 652:../../source/src/FWlib/src/stm32f10x_can.c ****       break;
 653:../../source/src/FWlib/src/stm32f10x_can.c ****     case (CAN_TXMAILBOX_1): CANx->TSR |= CAN_TSR_ABRQ1;
 654:../../source/src/FWlib/src/stm32f10x_can.c ****       break;
 655:../../source/src/FWlib/src/stm32f10x_can.c ****     case (CAN_TXMAILBOX_2): CANx->TSR |= CAN_TSR_ABRQ2;
 884              		.loc 1 655 0
 885 03de 8368     		ldr	r3, [r0, #8]
 886 03e0 43F40003 		orr	r3, r3, #8388608
 887 03e4 8360     		str	r3, [r0, #8]
 656:../../source/src/FWlib/src/stm32f10x_can.c ****       break;
 657:../../source/src/FWlib/src/stm32f10x_can.c ****     default:
 658:../../source/src/FWlib/src/stm32f10x_can.c ****       break;
 659:../../source/src/FWlib/src/stm32f10x_can.c ****   }
 660:../../source/src/FWlib/src/stm32f10x_can.c **** }
 888              		.loc 1 660 0
 889 03e6 7047     		bx	lr
 890              	.L88:
 891 03e8 7047     		bx	lr
 892              	.L86:
 651:../../source/src/FWlib/src/stm32f10x_can.c ****       break;
 893              		.loc 1 651 0
 894 03ea 8368     		ldr	r3, [r0, #8]
 895 03ec 43F08003 		orr	r3, r3, #128
 896 03f0 8360     		str	r3, [r0, #8]
 652:../../source/src/FWlib/src/stm32f10x_can.c ****     case (CAN_TXMAILBOX_1): CANx->TSR |= CAN_TSR_ABRQ1;
 897              		.loc 1 652 0
 898 03f2 7047     		bx	lr
 899              	.L85:
 653:../../source/src/FWlib/src/stm32f10x_can.c ****       break;
 900              		.loc 1 653 0
 901 03f4 8368     		ldr	r3, [r0, #8]
 902 03f6 43F40043 		orr	r3, r3, #32768
 903 03fa 8360     		str	r3, [r0, #8]
 654:../../source/src/FWlib/src/stm32f10x_can.c ****     case (CAN_TXMAILBOX_2): CANx->TSR |= CAN_TSR_ABRQ2;
 904              		.loc 1 654 0
 905 03fc 7047     		bx	lr
 906              		.cfi_endproc
 907              	.LFE38:
 908              		.size	CAN_CancelTransmit, .-CAN_CancelTransmit
 909              		.align	1
 910 03fe 00BF     		.p2align 2,,3
 911              		.global	CAN_Receive
 912              		.syntax unified
 913              		.thumb
 914              		.thumb_func
ARM GAS  G:\Users\Jaxb\AppData\Local\Temp\cctfzRXv.s 			page 30


 915              		.fpu softvfp
 916              		.type	CAN_Receive, %function
 917              	CAN_Receive:
 918              	.LFB39:
 661:../../source/src/FWlib/src/stm32f10x_can.c **** 
 662:../../source/src/FWlib/src/stm32f10x_can.c **** 
 663:../../source/src/FWlib/src/stm32f10x_can.c **** /**
 664:../../source/src/FWlib/src/stm32f10x_can.c ****   * @brief  Receives a message.
 665:../../source/src/FWlib/src/stm32f10x_can.c ****   * @param  CANx:       where x can be 1 or 2 to to select the CAN peripheral.
 666:../../source/src/FWlib/src/stm32f10x_can.c ****   * @param  FIFONumber: Receive FIFO number, CAN_FIFO0 or CAN_FIFO1.
 667:../../source/src/FWlib/src/stm32f10x_can.c ****   * @param  RxMessage:  pointer to a structure receive message which contains 
 668:../../source/src/FWlib/src/stm32f10x_can.c ****   *                     CAN Id, CAN DLC, CAN datas and FMI number.
 669:../../source/src/FWlib/src/stm32f10x_can.c ****   * @retval None.
 670:../../source/src/FWlib/src/stm32f10x_can.c ****   */
 671:../../source/src/FWlib/src/stm32f10x_can.c **** void CAN_Receive(CAN_TypeDef* CANx, uint8_t FIFONumber, CanRxMsg* RxMessage)
 672:../../source/src/FWlib/src/stm32f10x_can.c **** {
 919              		.loc 1 672 0
 920              		.cfi_startproc
 921              		@ args = 0, pretend = 0, frame = 0
 922              		@ frame_needed = 0, uses_anonymous_args = 0
 923              		@ link register save eliminated.
 924              	.LVL51:
 925 0400 0B01     		lsls	r3, r1, #4
 926 0402 30B4     		push	{r4, r5}
 927              	.LCFI14:
 928              		.cfi_def_cfa_offset 8
 929              		.cfi_offset 4, -8
 930              		.cfi_offset 5, -4
 931 0404 C418     		adds	r4, r0, r3
 673:../../source/src/FWlib/src/stm32f10x_can.c ****   /* Check the parameters */
 674:../../source/src/FWlib/src/stm32f10x_can.c ****   assert_param(IS_CAN_ALL_PERIPH(CANx));
 675:../../source/src/FWlib/src/stm32f10x_can.c ****   assert_param(IS_CAN_FIFO(FIFONumber));
 676:../../source/src/FWlib/src/stm32f10x_can.c ****   /* Get the Id */
 677:../../source/src/FWlib/src/stm32f10x_can.c ****   RxMessage->IDE = (uint8_t)0x04 & CANx->sFIFOMailBox[FIFONumber].RIR;
 932              		.loc 1 677 0
 933 0406 D4F8B051 		ldr	r5, [r4, #432]
 934 040a 05F00405 		and	r5, r5, #4
 935 040e 1572     		strb	r5, [r2, #8]
 678:../../source/src/FWlib/src/stm32f10x_can.c ****   if (RxMessage->IDE == CAN_Id_Standard)
 936              		.loc 1 678 0
 937 0410 BDBB     		cbnz	r5, .L90
 679:../../source/src/FWlib/src/stm32f10x_can.c ****   {
 680:../../source/src/FWlib/src/stm32f10x_can.c ****     RxMessage->StdId = (uint32_t)0x000007FF & (CANx->sFIFOMailBox[FIFONumber].RIR >> 21);
 938              		.loc 1 680 0
 939 0412 D4F8B051 		ldr	r5, [r4, #432]
 940 0416 6D0D     		lsrs	r5, r5, #21
 941 0418 1560     		str	r5, [r2]
 942              	.L91:
 681:../../source/src/FWlib/src/stm32f10x_can.c ****   }
 682:../../source/src/FWlib/src/stm32f10x_can.c ****   else
 683:../../source/src/FWlib/src/stm32f10x_can.c ****   {
 684:../../source/src/FWlib/src/stm32f10x_can.c ****     RxMessage->ExtId = (uint32_t)0x1FFFFFFF & (CANx->sFIFOMailBox[FIFONumber].RIR >> 3);
 685:../../source/src/FWlib/src/stm32f10x_can.c ****   }
 686:../../source/src/FWlib/src/stm32f10x_can.c ****   
 687:../../source/src/FWlib/src/stm32f10x_can.c ****   RxMessage->RTR = (uint8_t)0x02 & CANx->sFIFOMailBox[FIFONumber].RIR;
 943              		.loc 1 687 0
 944 041a D4F8B051 		ldr	r5, [r4, #432]
ARM GAS  G:\Users\Jaxb\AppData\Local\Temp\cctfzRXv.s 			page 31


 688:../../source/src/FWlib/src/stm32f10x_can.c ****   /* Get the DLC */
 689:../../source/src/FWlib/src/stm32f10x_can.c ****   RxMessage->DLC = (uint8_t)0x0F & CANx->sFIFOMailBox[FIFONumber].RDTR;
 690:../../source/src/FWlib/src/stm32f10x_can.c ****   /* Get the FMI */
 691:../../source/src/FWlib/src/stm32f10x_can.c ****   RxMessage->FMI = (uint8_t)0xFF & (CANx->sFIFOMailBox[FIFONumber].RDTR >> 8);
 692:../../source/src/FWlib/src/stm32f10x_can.c ****   /* Get the data field */
 693:../../source/src/FWlib/src/stm32f10x_can.c ****   RxMessage->Data[0] = (uint8_t)0xFF & CANx->sFIFOMailBox[FIFONumber].RDLR;
 945              		.loc 1 693 0
 946 041e 0344     		add	r3, r3, r0
 687:../../source/src/FWlib/src/stm32f10x_can.c ****   /* Get the DLC */
 947              		.loc 1 687 0
 948 0420 05F00205 		and	r5, r5, #2
 949 0424 5572     		strb	r5, [r2, #9]
 689:../../source/src/FWlib/src/stm32f10x_can.c ****   /* Get the FMI */
 950              		.loc 1 689 0
 951 0426 D4F8B451 		ldr	r5, [r4, #436]
 952 042a 05F00F05 		and	r5, r5, #15
 953 042e 9572     		strb	r5, [r2, #10]
 691:../../source/src/FWlib/src/stm32f10x_can.c ****   /* Get the data field */
 954              		.loc 1 691 0
 955 0430 D4F8B441 		ldr	r4, [r4, #436]
 956 0434 240A     		lsrs	r4, r4, #8
 957 0436 D474     		strb	r4, [r2, #19]
 958              		.loc 1 693 0
 959 0438 D3F8B841 		ldr	r4, [r3, #440]
 960 043c D472     		strb	r4, [r2, #11]
 694:../../source/src/FWlib/src/stm32f10x_can.c ****   RxMessage->Data[1] = (uint8_t)0xFF & (CANx->sFIFOMailBox[FIFONumber].RDLR >> 8);
 961              		.loc 1 694 0
 962 043e D3F8B841 		ldr	r4, [r3, #440]
 963 0442 240A     		lsrs	r4, r4, #8
 964 0444 1473     		strb	r4, [r2, #12]
 695:../../source/src/FWlib/src/stm32f10x_can.c ****   RxMessage->Data[2] = (uint8_t)0xFF & (CANx->sFIFOMailBox[FIFONumber].RDLR >> 16);
 965              		.loc 1 695 0
 966 0446 D3F8B841 		ldr	r4, [r3, #440]
 967 044a 240C     		lsrs	r4, r4, #16
 968 044c 5473     		strb	r4, [r2, #13]
 696:../../source/src/FWlib/src/stm32f10x_can.c ****   RxMessage->Data[3] = (uint8_t)0xFF & (CANx->sFIFOMailBox[FIFONumber].RDLR >> 24);
 969              		.loc 1 696 0
 970 044e D3F8B841 		ldr	r4, [r3, #440]
 971 0452 240E     		lsrs	r4, r4, #24
 972 0454 9473     		strb	r4, [r2, #14]
 697:../../source/src/FWlib/src/stm32f10x_can.c ****   RxMessage->Data[4] = (uint8_t)0xFF & CANx->sFIFOMailBox[FIFONumber].RDHR;
 973              		.loc 1 697 0
 974 0456 D3F8BC41 		ldr	r4, [r3, #444]
 975 045a D473     		strb	r4, [r2, #15]
 698:../../source/src/FWlib/src/stm32f10x_can.c ****   RxMessage->Data[5] = (uint8_t)0xFF & (CANx->sFIFOMailBox[FIFONumber].RDHR >> 8);
 976              		.loc 1 698 0
 977 045c D3F8BC41 		ldr	r4, [r3, #444]
 978 0460 240A     		lsrs	r4, r4, #8
 979 0462 1474     		strb	r4, [r2, #16]
 699:../../source/src/FWlib/src/stm32f10x_can.c ****   RxMessage->Data[6] = (uint8_t)0xFF & (CANx->sFIFOMailBox[FIFONumber].RDHR >> 16);
 980              		.loc 1 699 0
 981 0464 D3F8BC41 		ldr	r4, [r3, #444]
 982 0468 240C     		lsrs	r4, r4, #16
 983 046a 5474     		strb	r4, [r2, #17]
 700:../../source/src/FWlib/src/stm32f10x_can.c ****   RxMessage->Data[7] = (uint8_t)0xFF & (CANx->sFIFOMailBox[FIFONumber].RDHR >> 24);
 984              		.loc 1 700 0
 985 046c D3F8BC31 		ldr	r3, [r3, #444]
ARM GAS  G:\Users\Jaxb\AppData\Local\Temp\cctfzRXv.s 			page 32


 986 0470 1B0E     		lsrs	r3, r3, #24
 987 0472 9374     		strb	r3, [r2, #18]
 701:../../source/src/FWlib/src/stm32f10x_can.c ****   /* Release the FIFO */
 702:../../source/src/FWlib/src/stm32f10x_can.c ****   /* Release FIFO0 */
 703:../../source/src/FWlib/src/stm32f10x_can.c ****   if (FIFONumber == CAN_FIFO0)
 988              		.loc 1 703 0
 989 0474 51B1     		cbz	r1, .L94
 704:../../source/src/FWlib/src/stm32f10x_can.c ****   {
 705:../../source/src/FWlib/src/stm32f10x_can.c ****     CANx->RF0R |= CAN_RF0R_RFOM0;
 706:../../source/src/FWlib/src/stm32f10x_can.c ****   }
 707:../../source/src/FWlib/src/stm32f10x_can.c ****   /* Release FIFO1 */
 708:../../source/src/FWlib/src/stm32f10x_can.c ****   else /* FIFONumber == CAN_FIFO1 */
 709:../../source/src/FWlib/src/stm32f10x_can.c ****   {
 710:../../source/src/FWlib/src/stm32f10x_can.c ****     CANx->RF1R |= CAN_RF1R_RFOM1;
 711:../../source/src/FWlib/src/stm32f10x_can.c ****   }
 712:../../source/src/FWlib/src/stm32f10x_can.c **** }
 990              		.loc 1 712 0
 991 0476 30BC     		pop	{r4, r5}
 992              	.LCFI15:
 993              		.cfi_remember_state
 994              		.cfi_restore 5
 995              		.cfi_restore 4
 996              		.cfi_def_cfa_offset 0
 710:../../source/src/FWlib/src/stm32f10x_can.c ****   }
 997              		.loc 1 710 0
 998 0478 0369     		ldr	r3, [r0, #16]
 999 047a 43F02003 		orr	r3, r3, #32
 1000 047e 0361     		str	r3, [r0, #16]
 1001              		.loc 1 712 0
 1002 0480 7047     		bx	lr
 1003              	.L90:
 1004              	.LCFI16:
 1005              		.cfi_restore_state
 684:../../source/src/FWlib/src/stm32f10x_can.c ****   }
 1006              		.loc 1 684 0
 1007 0482 D4F8B051 		ldr	r5, [r4, #432]
 1008 0486 ED08     		lsrs	r5, r5, #3
 1009 0488 5560     		str	r5, [r2, #4]
 1010 048a C6E7     		b	.L91
 1011              	.L94:
 705:../../source/src/FWlib/src/stm32f10x_can.c ****   }
 1012              		.loc 1 705 0
 1013 048c C368     		ldr	r3, [r0, #12]
 1014              		.loc 1 712 0
 1015 048e 30BC     		pop	{r4, r5}
 1016              	.LCFI17:
 1017              		.cfi_restore 5
 1018              		.cfi_restore 4
 1019              		.cfi_def_cfa_offset 0
 705:../../source/src/FWlib/src/stm32f10x_can.c ****   }
 1020              		.loc 1 705 0
 1021 0490 43F02003 		orr	r3, r3, #32
 1022 0494 C360     		str	r3, [r0, #12]
 1023              		.loc 1 712 0
 1024 0496 7047     		bx	lr
 1025              		.cfi_endproc
 1026              	.LFE39:
ARM GAS  G:\Users\Jaxb\AppData\Local\Temp\cctfzRXv.s 			page 33


 1027              		.size	CAN_Receive, .-CAN_Receive
 1028              		.align	1
 1029              		.p2align 2,,3
 1030              		.global	CAN_FIFORelease
 1031              		.syntax unified
 1032              		.thumb
 1033              		.thumb_func
 1034              		.fpu softvfp
 1035              		.type	CAN_FIFORelease, %function
 1036              	CAN_FIFORelease:
 1037              	.LFB40:
 713:../../source/src/FWlib/src/stm32f10x_can.c **** 
 714:../../source/src/FWlib/src/stm32f10x_can.c **** /**
 715:../../source/src/FWlib/src/stm32f10x_can.c ****   * @brief  Releases the specified FIFO.
 716:../../source/src/FWlib/src/stm32f10x_can.c ****   * @param  CANx:       where x can be 1 or 2 to to select the CAN peripheral. 
 717:../../source/src/FWlib/src/stm32f10x_can.c ****   * @param  FIFONumber: FIFO to release, CAN_FIFO0 or CAN_FIFO1.
 718:../../source/src/FWlib/src/stm32f10x_can.c ****   * @retval None.
 719:../../source/src/FWlib/src/stm32f10x_can.c ****   */
 720:../../source/src/FWlib/src/stm32f10x_can.c **** void CAN_FIFORelease(CAN_TypeDef* CANx, uint8_t FIFONumber)
 721:../../source/src/FWlib/src/stm32f10x_can.c **** {
 1038              		.loc 1 721 0
 1039              		.cfi_startproc
 1040              		@ args = 0, pretend = 0, frame = 0
 1041              		@ frame_needed = 0, uses_anonymous_args = 0
 1042              		@ link register save eliminated.
 1043              	.LVL52:
 722:../../source/src/FWlib/src/stm32f10x_can.c ****   /* Check the parameters */
 723:../../source/src/FWlib/src/stm32f10x_can.c ****   assert_param(IS_CAN_ALL_PERIPH(CANx));
 724:../../source/src/FWlib/src/stm32f10x_can.c ****   assert_param(IS_CAN_FIFO(FIFONumber));
 725:../../source/src/FWlib/src/stm32f10x_can.c ****   /* Release FIFO0 */
 726:../../source/src/FWlib/src/stm32f10x_can.c ****   if (FIFONumber == CAN_FIFO0)
 1044              		.loc 1 726 0
 1045 0498 21B1     		cbz	r1, .L98
 727:../../source/src/FWlib/src/stm32f10x_can.c ****   {
 728:../../source/src/FWlib/src/stm32f10x_can.c ****     CANx->RF0R |= CAN_RF0R_RFOM0;
 729:../../source/src/FWlib/src/stm32f10x_can.c ****   }
 730:../../source/src/FWlib/src/stm32f10x_can.c ****   /* Release FIFO1 */
 731:../../source/src/FWlib/src/stm32f10x_can.c ****   else /* FIFONumber == CAN_FIFO1 */
 732:../../source/src/FWlib/src/stm32f10x_can.c ****   {
 733:../../source/src/FWlib/src/stm32f10x_can.c ****     CANx->RF1R |= CAN_RF1R_RFOM1;
 1046              		.loc 1 733 0
 1047 049a 0369     		ldr	r3, [r0, #16]
 1048 049c 43F02003 		orr	r3, r3, #32
 1049 04a0 0361     		str	r3, [r0, #16]
 734:../../source/src/FWlib/src/stm32f10x_can.c ****   }
 735:../../source/src/FWlib/src/stm32f10x_can.c **** }
 1050              		.loc 1 735 0
 1051 04a2 7047     		bx	lr
 1052              	.L98:
 728:../../source/src/FWlib/src/stm32f10x_can.c ****   }
 1053              		.loc 1 728 0
 1054 04a4 C368     		ldr	r3, [r0, #12]
 1055 04a6 43F02003 		orr	r3, r3, #32
 1056 04aa C360     		str	r3, [r0, #12]
 1057 04ac 7047     		bx	lr
 1058              		.cfi_endproc
 1059              	.LFE40:
ARM GAS  G:\Users\Jaxb\AppData\Local\Temp\cctfzRXv.s 			page 34


 1060              		.size	CAN_FIFORelease, .-CAN_FIFORelease
 1061              		.align	1
 1062 04ae 00BF     		.p2align 2,,3
 1063              		.global	CAN_MessagePending
 1064              		.syntax unified
 1065              		.thumb
 1066              		.thumb_func
 1067              		.fpu softvfp
 1068              		.type	CAN_MessagePending, %function
 1069              	CAN_MessagePending:
 1070              	.LFB41:
 736:../../source/src/FWlib/src/stm32f10x_can.c **** 
 737:../../source/src/FWlib/src/stm32f10x_can.c **** /**
 738:../../source/src/FWlib/src/stm32f10x_can.c ****   * @brief  Returns the number of pending messages.
 739:../../source/src/FWlib/src/stm32f10x_can.c ****   * @param  CANx:       where x can be 1 or 2 to to select the CAN peripheral.
 740:../../source/src/FWlib/src/stm32f10x_can.c ****   * @param  FIFONumber: Receive FIFO number, CAN_FIFO0 or CAN_FIFO1.
 741:../../source/src/FWlib/src/stm32f10x_can.c ****   * @retval NbMessage : which is the number of pending message.
 742:../../source/src/FWlib/src/stm32f10x_can.c ****   */
 743:../../source/src/FWlib/src/stm32f10x_can.c **** uint8_t CAN_MessagePending(CAN_TypeDef* CANx, uint8_t FIFONumber)
 744:../../source/src/FWlib/src/stm32f10x_can.c **** {
 1071              		.loc 1 744 0
 1072              		.cfi_startproc
 1073              		@ args = 0, pretend = 0, frame = 0
 1074              		@ frame_needed = 0, uses_anonymous_args = 0
 1075              		@ link register save eliminated.
 1076              	.LVL53:
 745:../../source/src/FWlib/src/stm32f10x_can.c ****   uint8_t message_pending=0;
 746:../../source/src/FWlib/src/stm32f10x_can.c ****   /* Check the parameters */
 747:../../source/src/FWlib/src/stm32f10x_can.c ****   assert_param(IS_CAN_ALL_PERIPH(CANx));
 748:../../source/src/FWlib/src/stm32f10x_can.c ****   assert_param(IS_CAN_FIFO(FIFONumber));
 749:../../source/src/FWlib/src/stm32f10x_can.c ****   if (FIFONumber == CAN_FIFO0)
 1077              		.loc 1 749 0
 1078 04b0 31B1     		cbz	r1, .L103
 750:../../source/src/FWlib/src/stm32f10x_can.c ****   {
 751:../../source/src/FWlib/src/stm32f10x_can.c ****     message_pending = (uint8_t)(CANx->RF0R&(uint32_t)0x03);
 752:../../source/src/FWlib/src/stm32f10x_can.c ****   }
 753:../../source/src/FWlib/src/stm32f10x_can.c ****   else if (FIFONumber == CAN_FIFO1)
 1079              		.loc 1 753 0
 1080 04b2 0129     		cmp	r1, #1
 754:../../source/src/FWlib/src/stm32f10x_can.c ****   {
 755:../../source/src/FWlib/src/stm32f10x_can.c ****     message_pending = (uint8_t)(CANx->RF1R&(uint32_t)0x03);
 1081              		.loc 1 755 0
 1082 04b4 06BF     		itte	eq
 1083 04b6 0069     		ldreq	r0, [r0, #16]
 1084              	.LVL54:
 1085 04b8 00F00300 		andeq	r0, r0, #3
 1086              	.LVL55:
 756:../../source/src/FWlib/src/stm32f10x_can.c ****   }
 757:../../source/src/FWlib/src/stm32f10x_can.c ****   else
 758:../../source/src/FWlib/src/stm32f10x_can.c ****   {
 759:../../source/src/FWlib/src/stm32f10x_can.c ****     message_pending = 0;
 1087              		.loc 1 759 0
 1088 04bc 0020     		movne	r0, #0
 1089              	.LVL56:
 760:../../source/src/FWlib/src/stm32f10x_can.c ****   }
 761:../../source/src/FWlib/src/stm32f10x_can.c ****   return message_pending;
 762:../../source/src/FWlib/src/stm32f10x_can.c **** }
ARM GAS  G:\Users\Jaxb\AppData\Local\Temp\cctfzRXv.s 			page 35


 1090              		.loc 1 762 0
 1091 04be 7047     		bx	lr
 1092              	.LVL57:
 1093              	.L103:
 751:../../source/src/FWlib/src/stm32f10x_can.c ****   }
 1094              		.loc 1 751 0
 1095 04c0 C068     		ldr	r0, [r0, #12]
 1096              	.LVL58:
 1097 04c2 00F00300 		and	r0, r0, #3
 1098              	.LVL59:
 1099 04c6 7047     		bx	lr
 1100              		.cfi_endproc
 1101              	.LFE41:
 1102              		.size	CAN_MessagePending, .-CAN_MessagePending
 1103              		.align	1
 1104              		.p2align 2,,3
 1105              		.global	CAN_OperatingModeRequest
 1106              		.syntax unified
 1107              		.thumb
 1108              		.thumb_func
 1109              		.fpu softvfp
 1110              		.type	CAN_OperatingModeRequest, %function
 1111              	CAN_OperatingModeRequest:
 1112              	.LFB42:
 763:../../source/src/FWlib/src/stm32f10x_can.c **** 
 764:../../source/src/FWlib/src/stm32f10x_can.c **** 
 765:../../source/src/FWlib/src/stm32f10x_can.c **** /**
 766:../../source/src/FWlib/src/stm32f10x_can.c ****   * @brief   Select the CAN Operation mode.
 767:../../source/src/FWlib/src/stm32f10x_can.c ****   * @param CAN_OperatingMode : CAN Operating Mode. This parameter can be one 
 768:../../source/src/FWlib/src/stm32f10x_can.c ****   *                            of @ref CAN_OperatingMode_TypeDef enumeration.
 769:../../source/src/FWlib/src/stm32f10x_can.c ****   * @retval status of the requested mode which can be 
 770:../../source/src/FWlib/src/stm32f10x_can.c ****   *         - CAN_ModeStatus_Failed    CAN failed entering the specific mode 
 771:../../source/src/FWlib/src/stm32f10x_can.c ****   *         - CAN_ModeStatus_Success   CAN Succeed entering the specific mode 
 772:../../source/src/FWlib/src/stm32f10x_can.c **** 
 773:../../source/src/FWlib/src/stm32f10x_can.c ****   */
 774:../../source/src/FWlib/src/stm32f10x_can.c **** uint8_t CAN_OperatingModeRequest(CAN_TypeDef* CANx, uint8_t CAN_OperatingMode)
 775:../../source/src/FWlib/src/stm32f10x_can.c **** {
 1113              		.loc 1 775 0
 1114              		.cfi_startproc
 1115              		@ args = 0, pretend = 0, frame = 0
 1116              		@ frame_needed = 0, uses_anonymous_args = 0
 1117              		@ link register save eliminated.
 1118              	.LVL60:
 776:../../source/src/FWlib/src/stm32f10x_can.c ****   uint8_t status = CAN_ModeStatus_Failed;
 777:../../source/src/FWlib/src/stm32f10x_can.c ****   
 778:../../source/src/FWlib/src/stm32f10x_can.c ****   /* Timeout for INAK or also for SLAK bits*/
 779:../../source/src/FWlib/src/stm32f10x_can.c ****   uint32_t timeout = INAK_TIMEOUT; 
 780:../../source/src/FWlib/src/stm32f10x_can.c **** 
 781:../../source/src/FWlib/src/stm32f10x_can.c ****   /* Check the parameters */
 782:../../source/src/FWlib/src/stm32f10x_can.c ****   assert_param(IS_CAN_ALL_PERIPH(CANx));
 783:../../source/src/FWlib/src/stm32f10x_can.c ****   assert_param(IS_CAN_OPERATING_MODE(CAN_OperatingMode));
 784:../../source/src/FWlib/src/stm32f10x_can.c **** 
 785:../../source/src/FWlib/src/stm32f10x_can.c ****   if (CAN_OperatingMode == CAN_OperatingMode_Initialization)
 1119              		.loc 1 785 0
 1120 04c8 E9B9     		cbnz	r1, .L105
 786:../../source/src/FWlib/src/stm32f10x_can.c ****   {
 787:../../source/src/FWlib/src/stm32f10x_can.c ****     /* Request initialisation */
ARM GAS  G:\Users\Jaxb\AppData\Local\Temp\cctfzRXv.s 			page 36


 788:../../source/src/FWlib/src/stm32f10x_can.c ****     CANx->MCR = (uint32_t)((CANx->MCR & (uint32_t)(~(uint32_t)CAN_MCR_SLEEP)) | CAN_MCR_INRQ);
 1121              		.loc 1 788 0
 1122 04ca 0368     		ldr	r3, [r0]
 1123 04cc 23F00303 		bic	r3, r3, #3
 1124 04d0 43F00103 		orr	r3, r3, #1
 1125 04d4 0360     		str	r3, [r0]
 789:../../source/src/FWlib/src/stm32f10x_can.c **** 
 790:../../source/src/FWlib/src/stm32f10x_can.c ****     /* Wait the acknowledge */
 791:../../source/src/FWlib/src/stm32f10x_can.c ****     while (((CANx->MSR & CAN_MODE_MASK) != CAN_MSR_INAK) && (timeout != 0))
 1126              		.loc 1 791 0
 1127 04d6 4368     		ldr	r3, [r0, #4]
 1128 04d8 03F00303 		and	r3, r3, #3
 1129 04dc 012B     		cmp	r3, #1
 1130 04de 09D0     		beq	.L106
 1131 04e0 4FF6FF72 		movw	r2, #65535
 1132 04e4 01E0     		b	.L107
 1133              	.LVL61:
 1134              	.L136:
 1135              		.loc 1 791 0 is_stmt 0 discriminator 1
 1136 04e6 013A     		subs	r2, r2, #1
 1137              	.LVL62:
 1138 04e8 04D0     		beq	.L106
 1139              	.LVL63:
 1140              	.L107:
 1141              		.loc 1 791 0
 1142 04ea 4368     		ldr	r3, [r0, #4]
 1143 04ec 03F00303 		and	r3, r3, #3
 1144 04f0 012B     		cmp	r3, #1
 1145 04f2 F8D1     		bne	.L136
 1146              	.LVL64:
 1147              	.L106:
 792:../../source/src/FWlib/src/stm32f10x_can.c ****     {
 793:../../source/src/FWlib/src/stm32f10x_can.c ****       timeout--;
 794:../../source/src/FWlib/src/stm32f10x_can.c ****     }
 795:../../source/src/FWlib/src/stm32f10x_can.c ****     if ((CANx->MSR & CAN_MODE_MASK) != CAN_MSR_INAK)
 1148              		.loc 1 795 0 is_stmt 1
 1149 04f4 4068     		ldr	r0, [r0, #4]
 1150              	.LVL65:
 1151 04f6 00F00300 		and	r0, r0, #3
 796:../../source/src/FWlib/src/stm32f10x_can.c ****     {
 797:../../source/src/FWlib/src/stm32f10x_can.c ****       status = CAN_ModeStatus_Failed;
 798:../../source/src/FWlib/src/stm32f10x_can.c ****     }
 799:../../source/src/FWlib/src/stm32f10x_can.c ****     else
 800:../../source/src/FWlib/src/stm32f10x_can.c ****     {
 801:../../source/src/FWlib/src/stm32f10x_can.c ****       status = CAN_ModeStatus_Success;
 1152              		.loc 1 801 0
 1153 04fa A0F10100 		sub	r0, #1
 1154 04fe B0FA80F0 		clz	r0, r0
 1155 0502 4009     		lsrs	r0, r0, #5
 1156 0504 7047     		bx	lr
 1157              	.LVL66:
 1158              	.L105:
 802:../../source/src/FWlib/src/stm32f10x_can.c ****     }
 803:../../source/src/FWlib/src/stm32f10x_can.c ****   }
 804:../../source/src/FWlib/src/stm32f10x_can.c ****   else  if (CAN_OperatingMode == CAN_OperatingMode_Normal)
 1159              		.loc 1 804 0
 1160 0506 0129     		cmp	r1, #1
ARM GAS  G:\Users\Jaxb\AppData\Local\Temp\cctfzRXv.s 			page 37


 1161 0508 03D0     		beq	.L137
 805:../../source/src/FWlib/src/stm32f10x_can.c ****   {
 806:../../source/src/FWlib/src/stm32f10x_can.c ****     /* Request leave initialisation and sleep mode  and enter Normal mode */
 807:../../source/src/FWlib/src/stm32f10x_can.c ****     CANx->MCR &= (uint32_t)(~(CAN_MCR_SLEEP|CAN_MCR_INRQ));
 808:../../source/src/FWlib/src/stm32f10x_can.c **** 
 809:../../source/src/FWlib/src/stm32f10x_can.c ****     /* Wait the acknowledge */
 810:../../source/src/FWlib/src/stm32f10x_can.c ****     while (((CANx->MSR & CAN_MODE_MASK) != 0) && (timeout!=0))
 811:../../source/src/FWlib/src/stm32f10x_can.c ****     {
 812:../../source/src/FWlib/src/stm32f10x_can.c ****       timeout--;
 813:../../source/src/FWlib/src/stm32f10x_can.c ****     }
 814:../../source/src/FWlib/src/stm32f10x_can.c ****     if ((CANx->MSR & CAN_MODE_MASK) != 0)
 815:../../source/src/FWlib/src/stm32f10x_can.c ****     {
 816:../../source/src/FWlib/src/stm32f10x_can.c ****       status = CAN_ModeStatus_Failed;
 817:../../source/src/FWlib/src/stm32f10x_can.c ****     }
 818:../../source/src/FWlib/src/stm32f10x_can.c ****     else
 819:../../source/src/FWlib/src/stm32f10x_can.c ****     {
 820:../../source/src/FWlib/src/stm32f10x_can.c ****       status = CAN_ModeStatus_Success;
 821:../../source/src/FWlib/src/stm32f10x_can.c ****     }
 822:../../source/src/FWlib/src/stm32f10x_can.c ****   }
 823:../../source/src/FWlib/src/stm32f10x_can.c ****   else  if (CAN_OperatingMode == CAN_OperatingMode_Sleep)
 1162              		.loc 1 823 0
 1163 050a 0229     		cmp	r1, #2
 1164 050c 17D0     		beq	.L138
 824:../../source/src/FWlib/src/stm32f10x_can.c ****   {
 825:../../source/src/FWlib/src/stm32f10x_can.c ****     /* Request Sleep mode */
 826:../../source/src/FWlib/src/stm32f10x_can.c ****     CANx->MCR = (uint32_t)((CANx->MCR & (uint32_t)(~(uint32_t)CAN_MCR_INRQ)) | CAN_MCR_SLEEP);
 827:../../source/src/FWlib/src/stm32f10x_can.c **** 
 828:../../source/src/FWlib/src/stm32f10x_can.c ****     /* Wait the acknowledge */
 829:../../source/src/FWlib/src/stm32f10x_can.c ****     while (((CANx->MSR & CAN_MODE_MASK) != CAN_MSR_SLAK) && (timeout!=0))
 830:../../source/src/FWlib/src/stm32f10x_can.c ****     {
 831:../../source/src/FWlib/src/stm32f10x_can.c ****       timeout--;
 832:../../source/src/FWlib/src/stm32f10x_can.c ****     }
 833:../../source/src/FWlib/src/stm32f10x_can.c ****     if ((CANx->MSR & CAN_MODE_MASK) != CAN_MSR_SLAK)
 834:../../source/src/FWlib/src/stm32f10x_can.c ****     {
 835:../../source/src/FWlib/src/stm32f10x_can.c ****       status = CAN_ModeStatus_Failed;
 836:../../source/src/FWlib/src/stm32f10x_can.c ****     }
 837:../../source/src/FWlib/src/stm32f10x_can.c ****     else
 838:../../source/src/FWlib/src/stm32f10x_can.c ****     {
 839:../../source/src/FWlib/src/stm32f10x_can.c ****       status = CAN_ModeStatus_Success;
 840:../../source/src/FWlib/src/stm32f10x_can.c ****     }
 841:../../source/src/FWlib/src/stm32f10x_can.c ****   }
 842:../../source/src/FWlib/src/stm32f10x_can.c ****   else
 843:../../source/src/FWlib/src/stm32f10x_can.c ****   {
 844:../../source/src/FWlib/src/stm32f10x_can.c ****     status = CAN_ModeStatus_Failed;
 1165              		.loc 1 844 0
 1166 050e 0020     		movs	r0, #0
 1167              	.LVL67:
 845:../../source/src/FWlib/src/stm32f10x_can.c ****   }
 846:../../source/src/FWlib/src/stm32f10x_can.c **** 
 847:../../source/src/FWlib/src/stm32f10x_can.c ****   return  (uint8_t) status;
 848:../../source/src/FWlib/src/stm32f10x_can.c **** }
 1168              		.loc 1 848 0
 1169 0510 7047     		bx	lr
 1170              	.LVL68:
 1171              	.L137:
 807:../../source/src/FWlib/src/stm32f10x_can.c **** 
 1172              		.loc 1 807 0
ARM GAS  G:\Users\Jaxb\AppData\Local\Temp\cctfzRXv.s 			page 38


 1173 0512 0368     		ldr	r3, [r0]
 1174 0514 23F00303 		bic	r3, r3, #3
 1175 0518 0360     		str	r3, [r0]
 810:../../source/src/FWlib/src/stm32f10x_can.c ****     {
 1176              		.loc 1 810 0
 1177 051a 4368     		ldr	r3, [r0, #4]
 1178 051c 9907     		lsls	r1, r3, #30
 1179              	.LVL69:
 1180 051e 07D0     		beq	.L110
 1181 0520 4FF6FF73 		movw	r3, #65535
 1182 0524 01E0     		b	.L111
 1183              	.LVL70:
 1184              	.L139:
 810:../../source/src/FWlib/src/stm32f10x_can.c ****     {
 1185              		.loc 1 810 0 is_stmt 0 discriminator 1
 1186 0526 013B     		subs	r3, r3, #1
 1187              	.LVL71:
 1188 0528 02D0     		beq	.L110
 1189              	.LVL72:
 1190              	.L111:
 810:../../source/src/FWlib/src/stm32f10x_can.c ****     {
 1191              		.loc 1 810 0
 1192 052a 4268     		ldr	r2, [r0, #4]
 1193 052c 9207     		lsls	r2, r2, #30
 1194 052e FAD1     		bne	.L139
 1195              	.LVL73:
 1196              	.L110:
 814:../../source/src/FWlib/src/stm32f10x_can.c ****     {
 1197              		.loc 1 814 0 is_stmt 1
 1198 0530 4368     		ldr	r3, [r0, #4]
 1199 0532 13F0030F 		tst	r3, #3
 801:../../source/src/FWlib/src/stm32f10x_can.c ****     }
 1200              		.loc 1 801 0
 1201 0536 0CBF     		ite	eq
 1202 0538 0120     		moveq	r0, #1
 1203              	.LVL74:
 1204 053a 0020     		movne	r0, #0
 1205 053c 7047     		bx	lr
 1206              	.LVL75:
 1207              	.L138:
 826:../../source/src/FWlib/src/stm32f10x_can.c **** 
 1208              		.loc 1 826 0
 1209 053e 0368     		ldr	r3, [r0]
 1210 0540 23F00303 		bic	r3, r3, #3
 1211 0544 43F00203 		orr	r3, r3, #2
 1212 0548 0360     		str	r3, [r0]
 829:../../source/src/FWlib/src/stm32f10x_can.c ****     {
 1213              		.loc 1 829 0
 1214 054a 4368     		ldr	r3, [r0, #4]
 1215 054c 03F00303 		and	r3, r3, #3
 1216 0550 022B     		cmp	r3, #2
 1217 0552 09D0     		beq	.L112
 1218 0554 4FF6FF72 		movw	r2, #65535
 1219 0558 01E0     		b	.L113
 1220              	.LVL76:
 1221              	.L140:
 829:../../source/src/FWlib/src/stm32f10x_can.c ****     {
ARM GAS  G:\Users\Jaxb\AppData\Local\Temp\cctfzRXv.s 			page 39


 1222              		.loc 1 829 0 is_stmt 0 discriminator 1
 1223 055a 013A     		subs	r2, r2, #1
 1224              	.LVL77:
 1225 055c 04D0     		beq	.L112
 1226              	.LVL78:
 1227              	.L113:
 829:../../source/src/FWlib/src/stm32f10x_can.c ****     {
 1228              		.loc 1 829 0
 1229 055e 4368     		ldr	r3, [r0, #4]
 1230 0560 03F00303 		and	r3, r3, #3
 1231 0564 022B     		cmp	r3, #2
 1232 0566 F8D1     		bne	.L140
 1233              	.LVL79:
 1234              	.L112:
 833:../../source/src/FWlib/src/stm32f10x_can.c ****     {
 1235              		.loc 1 833 0 is_stmt 1
 1236 0568 4068     		ldr	r0, [r0, #4]
 1237              	.LVL80:
 1238 056a 00F00300 		and	r0, r0, #3
 801:../../source/src/FWlib/src/stm32f10x_can.c ****     }
 1239              		.loc 1 801 0
 1240 056e A0F10200 		sub	r0, #2
 1241 0572 B0FA80F0 		clz	r0, r0
 1242 0576 4009     		lsrs	r0, r0, #5
 1243 0578 7047     		bx	lr
 1244              		.cfi_endproc
 1245              	.LFE42:
 1246              		.size	CAN_OperatingModeRequest, .-CAN_OperatingModeRequest
 1247              		.align	1
 1248 057a 00BF     		.p2align 2,,3
 1249              		.global	CAN_Sleep
 1250              		.syntax unified
 1251              		.thumb
 1252              		.thumb_func
 1253              		.fpu softvfp
 1254              		.type	CAN_Sleep, %function
 1255              	CAN_Sleep:
 1256              	.LFB43:
 849:../../source/src/FWlib/src/stm32f10x_can.c **** 
 850:../../source/src/FWlib/src/stm32f10x_can.c **** /**
 851:../../source/src/FWlib/src/stm32f10x_can.c ****   * @brief  Enters the low power mode.
 852:../../source/src/FWlib/src/stm32f10x_can.c ****   * @param  CANx:   where x can be 1 or 2 to to select the CAN peripheral.
 853:../../source/src/FWlib/src/stm32f10x_can.c ****   * @retval status: CAN_Sleep_Ok if sleep entered, CAN_Sleep_Failed in an 
 854:../../source/src/FWlib/src/stm32f10x_can.c ****   *                 other case.
 855:../../source/src/FWlib/src/stm32f10x_can.c ****   */
 856:../../source/src/FWlib/src/stm32f10x_can.c **** uint8_t CAN_Sleep(CAN_TypeDef* CANx)
 857:../../source/src/FWlib/src/stm32f10x_can.c **** {
 1257              		.loc 1 857 0
 1258              		.cfi_startproc
 1259              		@ args = 0, pretend = 0, frame = 0
 1260              		@ frame_needed = 0, uses_anonymous_args = 0
 1261              		@ link register save eliminated.
 1262              	.LVL81:
 858:../../source/src/FWlib/src/stm32f10x_can.c ****   uint8_t sleepstatus = CAN_Sleep_Failed;
 859:../../source/src/FWlib/src/stm32f10x_can.c ****   
 860:../../source/src/FWlib/src/stm32f10x_can.c ****   /* Check the parameters */
 861:../../source/src/FWlib/src/stm32f10x_can.c ****   assert_param(IS_CAN_ALL_PERIPH(CANx));
ARM GAS  G:\Users\Jaxb\AppData\Local\Temp\cctfzRXv.s 			page 40


 862:../../source/src/FWlib/src/stm32f10x_can.c ****     
 863:../../source/src/FWlib/src/stm32f10x_can.c ****   /* Request Sleep mode */
 864:../../source/src/FWlib/src/stm32f10x_can.c ****    CANx->MCR = (((CANx->MCR) & (uint32_t)(~(uint32_t)CAN_MCR_INRQ)) | CAN_MCR_SLEEP);
 1263              		.loc 1 864 0
 1264 057c 0368     		ldr	r3, [r0]
 1265 057e 23F00303 		bic	r3, r3, #3
 1266 0582 43F00203 		orr	r3, r3, #2
 1267 0586 0360     		str	r3, [r0]
 865:../../source/src/FWlib/src/stm32f10x_can.c ****    
 866:../../source/src/FWlib/src/stm32f10x_can.c ****   /* Sleep mode status */
 867:../../source/src/FWlib/src/stm32f10x_can.c ****   if ((CANx->MSR & (CAN_MSR_SLAK|CAN_MSR_INAK)) == CAN_MSR_SLAK)
 1268              		.loc 1 867 0
 1269 0588 4068     		ldr	r0, [r0, #4]
 1270              	.LVL82:
 1271 058a 00F00300 		and	r0, r0, #3
 1272              	.LVL83:
 868:../../source/src/FWlib/src/stm32f10x_can.c ****   {
 869:../../source/src/FWlib/src/stm32f10x_can.c ****     /* Sleep mode not entered */
 870:../../source/src/FWlib/src/stm32f10x_can.c ****     sleepstatus =  CAN_Sleep_Ok;
 871:../../source/src/FWlib/src/stm32f10x_can.c ****   }
 872:../../source/src/FWlib/src/stm32f10x_can.c ****   /* return sleep mode status */
 873:../../source/src/FWlib/src/stm32f10x_can.c ****    return (uint8_t)sleepstatus;
 874:../../source/src/FWlib/src/stm32f10x_can.c **** }
 1273              		.loc 1 874 0
 1274 058e A0F10200 		sub	r0, #2
 1275 0592 B0FA80F0 		clz	r0, r0
 1276 0596 4009     		lsrs	r0, r0, #5
 1277 0598 7047     		bx	lr
 1278              		.cfi_endproc
 1279              	.LFE43:
 1280              		.size	CAN_Sleep, .-CAN_Sleep
 1281              		.align	1
 1282 059a 00BF     		.p2align 2,,3
 1283              		.global	CAN_WakeUp
 1284              		.syntax unified
 1285              		.thumb
 1286              		.thumb_func
 1287              		.fpu softvfp
 1288              		.type	CAN_WakeUp, %function
 1289              	CAN_WakeUp:
 1290              	.LFB44:
 875:../../source/src/FWlib/src/stm32f10x_can.c **** 
 876:../../source/src/FWlib/src/stm32f10x_can.c **** /**
 877:../../source/src/FWlib/src/stm32f10x_can.c ****   * @brief  Wakes the CAN up.
 878:../../source/src/FWlib/src/stm32f10x_can.c ****   * @param  CANx:    where x can be 1 or 2 to to select the CAN peripheral.
 879:../../source/src/FWlib/src/stm32f10x_can.c ****   * @retval status:  CAN_WakeUp_Ok if sleep mode left, CAN_WakeUp_Failed in an 
 880:../../source/src/FWlib/src/stm32f10x_can.c ****   *                  other case.
 881:../../source/src/FWlib/src/stm32f10x_can.c ****   */
 882:../../source/src/FWlib/src/stm32f10x_can.c **** uint8_t CAN_WakeUp(CAN_TypeDef* CANx)
 883:../../source/src/FWlib/src/stm32f10x_can.c **** {
 1291              		.loc 1 883 0
 1292              		.cfi_startproc
 1293              		@ args = 0, pretend = 0, frame = 0
 1294              		@ frame_needed = 0, uses_anonymous_args = 0
 1295              		@ link register save eliminated.
 1296              	.LVL84:
 884:../../source/src/FWlib/src/stm32f10x_can.c ****   uint32_t wait_slak = SLAK_TIMEOUT;
ARM GAS  G:\Users\Jaxb\AppData\Local\Temp\cctfzRXv.s 			page 41


 885:../../source/src/FWlib/src/stm32f10x_can.c ****   uint8_t wakeupstatus = CAN_WakeUp_Failed;
 886:../../source/src/FWlib/src/stm32f10x_can.c ****   
 887:../../source/src/FWlib/src/stm32f10x_can.c ****   /* Check the parameters */
 888:../../source/src/FWlib/src/stm32f10x_can.c ****   assert_param(IS_CAN_ALL_PERIPH(CANx));
 889:../../source/src/FWlib/src/stm32f10x_can.c ****     
 890:../../source/src/FWlib/src/stm32f10x_can.c ****   /* Wake up request */
 891:../../source/src/FWlib/src/stm32f10x_can.c ****   CANx->MCR &= ~(uint32_t)CAN_MCR_SLEEP;
 1297              		.loc 1 891 0
 1298 059c 0368     		ldr	r3, [r0]
 1299 059e 23F00203 		bic	r3, r3, #2
 1300 05a2 0360     		str	r3, [r0]
 892:../../source/src/FWlib/src/stm32f10x_can.c ****     
 893:../../source/src/FWlib/src/stm32f10x_can.c ****   /* Sleep mode status */
 894:../../source/src/FWlib/src/stm32f10x_can.c ****   while(((CANx->MSR & CAN_MSR_SLAK) == CAN_MSR_SLAK)&&(wait_slak!=0x00))
 1301              		.loc 1 894 0
 1302 05a4 4368     		ldr	r3, [r0, #4]
 1303 05a6 9907     		lsls	r1, r3, #30
 1304 05a8 07D5     		bpl	.L143
 1305 05aa 4FF6FF73 		movw	r3, #65535
 1306 05ae 01E0     		b	.L144
 1307              	.LVL85:
 1308              	.L152:
 1309              		.loc 1 894 0 is_stmt 0 discriminator 1
 1310 05b0 013B     		subs	r3, r3, #1
 1311              	.LVL86:
 1312 05b2 02D0     		beq	.L143
 1313              	.LVL87:
 1314              	.L144:
 1315              		.loc 1 894 0
 1316 05b4 4268     		ldr	r2, [r0, #4]
 1317 05b6 9207     		lsls	r2, r2, #30
 1318 05b8 FAD4     		bmi	.L152
 1319              	.LVL88:
 1320              	.L143:
 895:../../source/src/FWlib/src/stm32f10x_can.c ****   {
 896:../../source/src/FWlib/src/stm32f10x_can.c ****    wait_slak--;
 897:../../source/src/FWlib/src/stm32f10x_can.c ****   }
 898:../../source/src/FWlib/src/stm32f10x_can.c ****   if((CANx->MSR & CAN_MSR_SLAK) != CAN_MSR_SLAK)
 1321              		.loc 1 898 0 is_stmt 1
 1322 05ba 4068     		ldr	r0, [r0, #4]
 1323              	.LVL89:
 1324 05bc 80F00200 		eor	r0, r0, #2
 1325              	.LVL90:
 899:../../source/src/FWlib/src/stm32f10x_can.c ****   {
 900:../../source/src/FWlib/src/stm32f10x_can.c ****    /* wake up done : Sleep mode exited */
 901:../../source/src/FWlib/src/stm32f10x_can.c ****     wakeupstatus = CAN_WakeUp_Ok;
 902:../../source/src/FWlib/src/stm32f10x_can.c ****   }
 903:../../source/src/FWlib/src/stm32f10x_can.c ****   /* return wakeup status */
 904:../../source/src/FWlib/src/stm32f10x_can.c ****   return (uint8_t)wakeupstatus;
 905:../../source/src/FWlib/src/stm32f10x_can.c **** }
 1326              		.loc 1 905 0
 1327 05c0 C0F34000 		ubfx	r0, r0, #1, #1
 1328              	.LVL91:
 1329 05c4 7047     		bx	lr
 1330              		.cfi_endproc
 1331              	.LFE44:
 1332              		.size	CAN_WakeUp, .-CAN_WakeUp
ARM GAS  G:\Users\Jaxb\AppData\Local\Temp\cctfzRXv.s 			page 42


 1333              		.align	1
 1334 05c6 00BF     		.p2align 2,,3
 1335              		.global	CAN_GetLastErrorCode
 1336              		.syntax unified
 1337              		.thumb
 1338              		.thumb_func
 1339              		.fpu softvfp
 1340              		.type	CAN_GetLastErrorCode, %function
 1341              	CAN_GetLastErrorCode:
 1342              	.LFB45:
 906:../../source/src/FWlib/src/stm32f10x_can.c **** 
 907:../../source/src/FWlib/src/stm32f10x_can.c **** 
 908:../../source/src/FWlib/src/stm32f10x_can.c **** /**
 909:../../source/src/FWlib/src/stm32f10x_can.c ****   * @brief  Returns the CANx's last error code (LEC).
 910:../../source/src/FWlib/src/stm32f10x_can.c ****   * @param  CANx:          where x can be 1 or 2 to to select the CAN peripheral.  
 911:../../source/src/FWlib/src/stm32f10x_can.c ****   * @retval CAN_ErrorCode: specifies the Error code : 
 912:../../source/src/FWlib/src/stm32f10x_can.c ****   *                        - CAN_ERRORCODE_NoErr            No Error  
 913:../../source/src/FWlib/src/stm32f10x_can.c ****   *                        - CAN_ERRORCODE_StuffErr         Stuff Error
 914:../../source/src/FWlib/src/stm32f10x_can.c ****   *                        - CAN_ERRORCODE_FormErr          Form Error
 915:../../source/src/FWlib/src/stm32f10x_can.c ****   *                        - CAN_ERRORCODE_ACKErr           Acknowledgment Error
 916:../../source/src/FWlib/src/stm32f10x_can.c ****   *                        - CAN_ERRORCODE_BitRecessiveErr  Bit Recessive Error
 917:../../source/src/FWlib/src/stm32f10x_can.c ****   *                        - CAN_ERRORCODE_BitDominantErr   Bit Dominant Error
 918:../../source/src/FWlib/src/stm32f10x_can.c ****   *                        - CAN_ERRORCODE_CRCErr           CRC Error
 919:../../source/src/FWlib/src/stm32f10x_can.c ****   *                        - CAN_ERRORCODE_SoftwareSetErr   Software Set Error  
 920:../../source/src/FWlib/src/stm32f10x_can.c ****   */
 921:../../source/src/FWlib/src/stm32f10x_can.c ****  
 922:../../source/src/FWlib/src/stm32f10x_can.c **** uint8_t CAN_GetLastErrorCode(CAN_TypeDef* CANx)
 923:../../source/src/FWlib/src/stm32f10x_can.c **** {
 1343              		.loc 1 923 0
 1344              		.cfi_startproc
 1345              		@ args = 0, pretend = 0, frame = 0
 1346              		@ frame_needed = 0, uses_anonymous_args = 0
 1347              		@ link register save eliminated.
 1348              	.LVL92:
 924:../../source/src/FWlib/src/stm32f10x_can.c ****   uint8_t errorcode=0;
 925:../../source/src/FWlib/src/stm32f10x_can.c ****   
 926:../../source/src/FWlib/src/stm32f10x_can.c ****   /* Check the parameters */
 927:../../source/src/FWlib/src/stm32f10x_can.c ****   assert_param(IS_CAN_ALL_PERIPH(CANx));
 928:../../source/src/FWlib/src/stm32f10x_can.c ****   
 929:../../source/src/FWlib/src/stm32f10x_can.c ****   /* Get the error code*/
 930:../../source/src/FWlib/src/stm32f10x_can.c ****   errorcode = (((uint8_t)CANx->ESR) & (uint8_t)CAN_ESR_LEC);
 1349              		.loc 1 930 0
 1350 05c8 8069     		ldr	r0, [r0, #24]
 1351              	.LVL93:
 931:../../source/src/FWlib/src/stm32f10x_can.c ****   
 932:../../source/src/FWlib/src/stm32f10x_can.c ****   /* Return the error code*/
 933:../../source/src/FWlib/src/stm32f10x_can.c ****   return errorcode;
 934:../../source/src/FWlib/src/stm32f10x_can.c **** }
 1352              		.loc 1 934 0
 1353 05ca 00F07000 		and	r0, r0, #112
 1354              	.LVL94:
 1355 05ce 7047     		bx	lr
 1356              		.cfi_endproc
 1357              	.LFE45:
 1358              		.size	CAN_GetLastErrorCode, .-CAN_GetLastErrorCode
 1359              		.align	1
 1360              		.p2align 2,,3
ARM GAS  G:\Users\Jaxb\AppData\Local\Temp\cctfzRXv.s 			page 43


 1361              		.global	CAN_GetReceiveErrorCounter
 1362              		.syntax unified
 1363              		.thumb
 1364              		.thumb_func
 1365              		.fpu softvfp
 1366              		.type	CAN_GetReceiveErrorCounter, %function
 1367              	CAN_GetReceiveErrorCounter:
 1368              	.LFB46:
 935:../../source/src/FWlib/src/stm32f10x_can.c **** /**
 936:../../source/src/FWlib/src/stm32f10x_can.c ****   * @brief  Returns the CANx Receive Error Counter (REC).
 937:../../source/src/FWlib/src/stm32f10x_can.c ****   * @note   In case of an error during reception, this counter is incremented 
 938:../../source/src/FWlib/src/stm32f10x_can.c ****   *         by 1 or by 8 depending on the error condition as defined by the CAN 
 939:../../source/src/FWlib/src/stm32f10x_can.c ****   *         standard. After every successful reception, the counter is 
 940:../../source/src/FWlib/src/stm32f10x_can.c ****   *         decremented by 1 or reset to 120 if its value was higher than 128. 
 941:../../source/src/FWlib/src/stm32f10x_can.c ****   *         When the counter value exceeds 127, the CAN controller enters the 
 942:../../source/src/FWlib/src/stm32f10x_can.c ****   *         error passive state.  
 943:../../source/src/FWlib/src/stm32f10x_can.c ****   * @param  CANx: where x can be 1 or 2 to to select the CAN peripheral.  
 944:../../source/src/FWlib/src/stm32f10x_can.c ****   * @retval CAN Receive Error Counter. 
 945:../../source/src/FWlib/src/stm32f10x_can.c ****   */
 946:../../source/src/FWlib/src/stm32f10x_can.c **** uint8_t CAN_GetReceiveErrorCounter(CAN_TypeDef* CANx)
 947:../../source/src/FWlib/src/stm32f10x_can.c **** {
 1369              		.loc 1 947 0
 1370              		.cfi_startproc
 1371              		@ args = 0, pretend = 0, frame = 0
 1372              		@ frame_needed = 0, uses_anonymous_args = 0
 1373              		@ link register save eliminated.
 1374              	.LVL95:
 948:../../source/src/FWlib/src/stm32f10x_can.c ****   uint8_t counter=0;
 949:../../source/src/FWlib/src/stm32f10x_can.c ****   
 950:../../source/src/FWlib/src/stm32f10x_can.c ****   /* Check the parameters */
 951:../../source/src/FWlib/src/stm32f10x_can.c ****   assert_param(IS_CAN_ALL_PERIPH(CANx));
 952:../../source/src/FWlib/src/stm32f10x_can.c ****   
 953:../../source/src/FWlib/src/stm32f10x_can.c ****   /* Get the Receive Error Counter*/
 954:../../source/src/FWlib/src/stm32f10x_can.c ****   counter = (uint8_t)((CANx->ESR & CAN_ESR_REC)>> 24);
 1375              		.loc 1 954 0
 1376 05d0 8069     		ldr	r0, [r0, #24]
 1377              	.LVL96:
 955:../../source/src/FWlib/src/stm32f10x_can.c ****   
 956:../../source/src/FWlib/src/stm32f10x_can.c ****   /* Return the Receive Error Counter*/
 957:../../source/src/FWlib/src/stm32f10x_can.c ****   return counter;
 958:../../source/src/FWlib/src/stm32f10x_can.c **** }
 1378              		.loc 1 958 0
 1379 05d2 000E     		lsrs	r0, r0, #24
 1380              	.LVL97:
 1381 05d4 7047     		bx	lr
 1382              		.cfi_endproc
 1383              	.LFE46:
 1384              		.size	CAN_GetReceiveErrorCounter, .-CAN_GetReceiveErrorCounter
 1385              		.align	1
 1386 05d6 00BF     		.p2align 2,,3
 1387              		.global	CAN_GetLSBTransmitErrorCounter
 1388              		.syntax unified
 1389              		.thumb
 1390              		.thumb_func
 1391              		.fpu softvfp
 1392              		.type	CAN_GetLSBTransmitErrorCounter, %function
 1393              	CAN_GetLSBTransmitErrorCounter:
ARM GAS  G:\Users\Jaxb\AppData\Local\Temp\cctfzRXv.s 			page 44


 1394              	.LFB47:
 959:../../source/src/FWlib/src/stm32f10x_can.c **** 
 960:../../source/src/FWlib/src/stm32f10x_can.c **** 
 961:../../source/src/FWlib/src/stm32f10x_can.c **** /**
 962:../../source/src/FWlib/src/stm32f10x_can.c ****   * @brief  Returns the LSB of the 9-bit CANx Transmit Error Counter(TEC).
 963:../../source/src/FWlib/src/stm32f10x_can.c ****   * @param  CANx:   where x can be 1 or 2 to to select the CAN peripheral.  
 964:../../source/src/FWlib/src/stm32f10x_can.c ****   * @retval LSB of the 9-bit CAN Transmit Error Counter. 
 965:../../source/src/FWlib/src/stm32f10x_can.c ****   */
 966:../../source/src/FWlib/src/stm32f10x_can.c **** uint8_t CAN_GetLSBTransmitErrorCounter(CAN_TypeDef* CANx)
 967:../../source/src/FWlib/src/stm32f10x_can.c **** {
 1395              		.loc 1 967 0
 1396              		.cfi_startproc
 1397              		@ args = 0, pretend = 0, frame = 0
 1398              		@ frame_needed = 0, uses_anonymous_args = 0
 1399              		@ link register save eliminated.
 1400              	.LVL98:
 968:../../source/src/FWlib/src/stm32f10x_can.c ****   uint8_t counter=0;
 969:../../source/src/FWlib/src/stm32f10x_can.c ****   
 970:../../source/src/FWlib/src/stm32f10x_can.c ****   /* Check the parameters */
 971:../../source/src/FWlib/src/stm32f10x_can.c ****   assert_param(IS_CAN_ALL_PERIPH(CANx));
 972:../../source/src/FWlib/src/stm32f10x_can.c ****   
 973:../../source/src/FWlib/src/stm32f10x_can.c ****   /* Get the LSB of the 9-bit CANx Transmit Error Counter(TEC) */
 974:../../source/src/FWlib/src/stm32f10x_can.c ****   counter = (uint8_t)((CANx->ESR & CAN_ESR_TEC)>> 16);
 1401              		.loc 1 974 0
 1402 05d8 8069     		ldr	r0, [r0, #24]
 1403              	.LVL99:
 975:../../source/src/FWlib/src/stm32f10x_can.c ****   
 976:../../source/src/FWlib/src/stm32f10x_can.c ****   /* Return the LSB of the 9-bit CANx Transmit Error Counter(TEC) */
 977:../../source/src/FWlib/src/stm32f10x_can.c ****   return counter;
 978:../../source/src/FWlib/src/stm32f10x_can.c **** }
 1404              		.loc 1 978 0
 1405 05da C0F30740 		ubfx	r0, r0, #16, #8
 1406              	.LVL100:
 1407 05de 7047     		bx	lr
 1408              		.cfi_endproc
 1409              	.LFE47:
 1410              		.size	CAN_GetLSBTransmitErrorCounter, .-CAN_GetLSBTransmitErrorCounter
 1411              		.align	1
 1412              		.p2align 2,,3
 1413              		.global	CAN_ITConfig
 1414              		.syntax unified
 1415              		.thumb
 1416              		.thumb_func
 1417              		.fpu softvfp
 1418              		.type	CAN_ITConfig, %function
 1419              	CAN_ITConfig:
 1420              	.LFB48:
 979:../../source/src/FWlib/src/stm32f10x_can.c **** 
 980:../../source/src/FWlib/src/stm32f10x_can.c **** 
 981:../../source/src/FWlib/src/stm32f10x_can.c **** /**
 982:../../source/src/FWlib/src/stm32f10x_can.c ****   * @brief  Enables or disables the specified CANx interrupts.
 983:../../source/src/FWlib/src/stm32f10x_can.c ****   * @param  CANx:   where x can be 1 or 2 to to select the CAN peripheral.
 984:../../source/src/FWlib/src/stm32f10x_can.c ****   * @param  CAN_IT: specifies the CAN interrupt sources to be enabled or disabled.
 985:../../source/src/FWlib/src/stm32f10x_can.c ****   *                 This parameter can be: 
 986:../../source/src/FWlib/src/stm32f10x_can.c ****   *                 - CAN_IT_TME, 
 987:../../source/src/FWlib/src/stm32f10x_can.c ****   *                 - CAN_IT_FMP0, 
 988:../../source/src/FWlib/src/stm32f10x_can.c ****   *                 - CAN_IT_FF0,
ARM GAS  G:\Users\Jaxb\AppData\Local\Temp\cctfzRXv.s 			page 45


 989:../../source/src/FWlib/src/stm32f10x_can.c ****   *                 - CAN_IT_FOV0, 
 990:../../source/src/FWlib/src/stm32f10x_can.c ****   *                 - CAN_IT_FMP1, 
 991:../../source/src/FWlib/src/stm32f10x_can.c ****   *                 - CAN_IT_FF1,
 992:../../source/src/FWlib/src/stm32f10x_can.c ****   *                 - CAN_IT_FOV1, 
 993:../../source/src/FWlib/src/stm32f10x_can.c ****   *                 - CAN_IT_EWG, 
 994:../../source/src/FWlib/src/stm32f10x_can.c ****   *                 - CAN_IT_EPV,
 995:../../source/src/FWlib/src/stm32f10x_can.c ****   *                 - CAN_IT_LEC, 
 996:../../source/src/FWlib/src/stm32f10x_can.c ****   *                 - CAN_IT_ERR, 
 997:../../source/src/FWlib/src/stm32f10x_can.c ****   *                 - CAN_IT_WKU or 
 998:../../source/src/FWlib/src/stm32f10x_can.c ****   *                 - CAN_IT_SLK.
 999:../../source/src/FWlib/src/stm32f10x_can.c ****   * @param  NewState: new state of the CAN interrupts.
1000:../../source/src/FWlib/src/stm32f10x_can.c ****   *                   This parameter can be: ENABLE or DISABLE.
1001:../../source/src/FWlib/src/stm32f10x_can.c ****   * @retval None.
1002:../../source/src/FWlib/src/stm32f10x_can.c ****   */
1003:../../source/src/FWlib/src/stm32f10x_can.c **** void CAN_ITConfig(CAN_TypeDef* CANx, uint32_t CAN_IT, FunctionalState NewState)
1004:../../source/src/FWlib/src/stm32f10x_can.c **** {
 1421              		.loc 1 1004 0
 1422              		.cfi_startproc
 1423              		@ args = 0, pretend = 0, frame = 0
 1424              		@ frame_needed = 0, uses_anonymous_args = 0
 1425              		@ link register save eliminated.
 1426              	.LVL101:
1005:../../source/src/FWlib/src/stm32f10x_can.c ****   /* Check the parameters */
1006:../../source/src/FWlib/src/stm32f10x_can.c ****   assert_param(IS_CAN_ALL_PERIPH(CANx));
1007:../../source/src/FWlib/src/stm32f10x_can.c ****   assert_param(IS_CAN_IT(CAN_IT));
1008:../../source/src/FWlib/src/stm32f10x_can.c ****   assert_param(IS_FUNCTIONAL_STATE(NewState));
1009:../../source/src/FWlib/src/stm32f10x_can.c **** 
1010:../../source/src/FWlib/src/stm32f10x_can.c ****   if (NewState != DISABLE)
1011:../../source/src/FWlib/src/stm32f10x_can.c ****   {
1012:../../source/src/FWlib/src/stm32f10x_can.c ****     /* Enable the selected CANx interrupt */
1013:../../source/src/FWlib/src/stm32f10x_can.c ****     CANx->IER |= CAN_IT;
 1427              		.loc 1 1013 0
 1428 05e0 4369     		ldr	r3, [r0, #20]
1010:../../source/src/FWlib/src/stm32f10x_can.c ****   {
 1429              		.loc 1 1010 0
 1430 05e2 1AB9     		cbnz	r2, .L159
1014:../../source/src/FWlib/src/stm32f10x_can.c ****   }
1015:../../source/src/FWlib/src/stm32f10x_can.c ****   else
1016:../../source/src/FWlib/src/stm32f10x_can.c ****   {
1017:../../source/src/FWlib/src/stm32f10x_can.c ****     /* Disable the selected CANx interrupt */
1018:../../source/src/FWlib/src/stm32f10x_can.c ****     CANx->IER &= ~CAN_IT;
 1431              		.loc 1 1018 0
 1432 05e4 23EA0101 		bic	r1, r3, r1
 1433              	.LVL102:
 1434 05e8 4161     		str	r1, [r0, #20]
1019:../../source/src/FWlib/src/stm32f10x_can.c ****   }
1020:../../source/src/FWlib/src/stm32f10x_can.c **** }
 1435              		.loc 1 1020 0
 1436 05ea 7047     		bx	lr
 1437              	.LVL103:
 1438              	.L159:
1013:../../source/src/FWlib/src/stm32f10x_can.c ****   }
 1439              		.loc 1 1013 0
 1440 05ec 1943     		orrs	r1, r1, r3
 1441              	.LVL104:
 1442 05ee 4161     		str	r1, [r0, #20]
 1443 05f0 7047     		bx	lr
ARM GAS  G:\Users\Jaxb\AppData\Local\Temp\cctfzRXv.s 			page 46


 1444              		.cfi_endproc
 1445              	.LFE48:
 1446              		.size	CAN_ITConfig, .-CAN_ITConfig
 1447              		.align	1
 1448 05f2 00BF     		.p2align 2,,3
 1449              		.global	CAN_GetFlagStatus
 1450              		.syntax unified
 1451              		.thumb
 1452              		.thumb_func
 1453              		.fpu softvfp
 1454              		.type	CAN_GetFlagStatus, %function
 1455              	CAN_GetFlagStatus:
 1456              	.LFB49:
1021:../../source/src/FWlib/src/stm32f10x_can.c **** /**
1022:../../source/src/FWlib/src/stm32f10x_can.c ****   * @brief  Checks whether the specified CAN flag is set or not.
1023:../../source/src/FWlib/src/stm32f10x_can.c ****   * @param  CANx:     where x can be 1 or 2 to to select the CAN peripheral.
1024:../../source/src/FWlib/src/stm32f10x_can.c ****   * @param  CAN_FLAG: specifies the flag to check.
1025:../../source/src/FWlib/src/stm32f10x_can.c ****   *                   This parameter can be one of the following flags: 
1026:../../source/src/FWlib/src/stm32f10x_can.c ****   *                  - CAN_FLAG_EWG
1027:../../source/src/FWlib/src/stm32f10x_can.c ****   *                  - CAN_FLAG_EPV 
1028:../../source/src/FWlib/src/stm32f10x_can.c ****   *                  - CAN_FLAG_BOF
1029:../../source/src/FWlib/src/stm32f10x_can.c ****   *                  - CAN_FLAG_RQCP0
1030:../../source/src/FWlib/src/stm32f10x_can.c ****   *                  - CAN_FLAG_RQCP1
1031:../../source/src/FWlib/src/stm32f10x_can.c ****   *                  - CAN_FLAG_RQCP2
1032:../../source/src/FWlib/src/stm32f10x_can.c ****   *                  - CAN_FLAG_FMP1   
1033:../../source/src/FWlib/src/stm32f10x_can.c ****   *                  - CAN_FLAG_FF1       
1034:../../source/src/FWlib/src/stm32f10x_can.c ****   *                  - CAN_FLAG_FOV1   
1035:../../source/src/FWlib/src/stm32f10x_can.c ****   *                  - CAN_FLAG_FMP0   
1036:../../source/src/FWlib/src/stm32f10x_can.c ****   *                  - CAN_FLAG_FF0       
1037:../../source/src/FWlib/src/stm32f10x_can.c ****   *                  - CAN_FLAG_FOV0   
1038:../../source/src/FWlib/src/stm32f10x_can.c ****   *                  - CAN_FLAG_WKU 
1039:../../source/src/FWlib/src/stm32f10x_can.c ****   *                  - CAN_FLAG_SLAK  
1040:../../source/src/FWlib/src/stm32f10x_can.c ****   *                  - CAN_FLAG_LEC       
1041:../../source/src/FWlib/src/stm32f10x_can.c ****   * @retval The new state of CAN_FLAG (SET or RESET).
1042:../../source/src/FWlib/src/stm32f10x_can.c ****   */
1043:../../source/src/FWlib/src/stm32f10x_can.c **** FlagStatus CAN_GetFlagStatus(CAN_TypeDef* CANx, uint32_t CAN_FLAG)
1044:../../source/src/FWlib/src/stm32f10x_can.c **** {
 1457              		.loc 1 1044 0
 1458              		.cfi_startproc
 1459              		@ args = 0, pretend = 0, frame = 0
 1460              		@ frame_needed = 0, uses_anonymous_args = 0
 1461              		@ link register save eliminated.
 1462              	.LVL105:
1045:../../source/src/FWlib/src/stm32f10x_can.c ****   FlagStatus bitstatus = RESET;
1046:../../source/src/FWlib/src/stm32f10x_can.c ****   
1047:../../source/src/FWlib/src/stm32f10x_can.c ****   /* Check the parameters */
1048:../../source/src/FWlib/src/stm32f10x_can.c ****   assert_param(IS_CAN_ALL_PERIPH(CANx));
1049:../../source/src/FWlib/src/stm32f10x_can.c ****   assert_param(IS_CAN_GET_FLAG(CAN_FLAG));
1050:../../source/src/FWlib/src/stm32f10x_can.c ****   
1051:../../source/src/FWlib/src/stm32f10x_can.c **** 
1052:../../source/src/FWlib/src/stm32f10x_can.c ****   if((CAN_FLAG & CAN_FLAGS_ESR) != (uint32_t)RESET)
 1463              		.loc 1 1052 0
 1464 05f4 11F4700F 		tst	r1, #15728640
 1465 05f8 07D0     		beq	.L161
1053:../../source/src/FWlib/src/stm32f10x_can.c ****   { 
1054:../../source/src/FWlib/src/stm32f10x_can.c ****     /* Check the status of the specified CAN flag */
1055:../../source/src/FWlib/src/stm32f10x_can.c ****     if ((CANx->ESR & (CAN_FLAG & 0x000FFFFF)) != (uint32_t)RESET)
ARM GAS  G:\Users\Jaxb\AppData\Local\Temp\cctfzRXv.s 			page 47


 1466              		.loc 1 1055 0
 1467 05fa 8369     		ldr	r3, [r0, #24]
 1468 05fc C3F31303 		ubfx	r3, r3, #0, #20
 1469 0600 0B42     		tst	r3, r1
1056:../../source/src/FWlib/src/stm32f10x_can.c ****     { 
1057:../../source/src/FWlib/src/stm32f10x_can.c ****       /* CAN_FLAG is set */
1058:../../source/src/FWlib/src/stm32f10x_can.c ****       bitstatus = SET;
1059:../../source/src/FWlib/src/stm32f10x_can.c ****     }
1060:../../source/src/FWlib/src/stm32f10x_can.c ****     else
1061:../../source/src/FWlib/src/stm32f10x_can.c ****     { 
1062:../../source/src/FWlib/src/stm32f10x_can.c ****       /* CAN_FLAG is reset */
1063:../../source/src/FWlib/src/stm32f10x_can.c ****       bitstatus = RESET;
 1470              		.loc 1 1063 0
 1471 0602 14BF     		ite	ne
 1472 0604 0120     		movne	r0, #1
 1473              	.LVL106:
 1474 0606 0020     		moveq	r0, #0
 1475 0608 7047     		bx	lr
 1476              	.LVL107:
 1477              	.L161:
1064:../../source/src/FWlib/src/stm32f10x_can.c ****     }
1065:../../source/src/FWlib/src/stm32f10x_can.c ****   }
1066:../../source/src/FWlib/src/stm32f10x_can.c ****   else if((CAN_FLAG & CAN_FLAGS_MSR) != (uint32_t)RESET)
 1478              		.loc 1 1066 0
 1479 060a CB01     		lsls	r3, r1, #7
 1480 060c 07D5     		bpl	.L163
1067:../../source/src/FWlib/src/stm32f10x_can.c ****   { 
1068:../../source/src/FWlib/src/stm32f10x_can.c ****     /* Check the status of the specified CAN flag */
1069:../../source/src/FWlib/src/stm32f10x_can.c ****     if ((CANx->MSR & (CAN_FLAG & 0x000FFFFF)) != (uint32_t)RESET)
 1481              		.loc 1 1069 0
 1482 060e 4368     		ldr	r3, [r0, #4]
 1483 0610 C3F31303 		ubfx	r3, r3, #0, #20
 1484 0614 0B42     		tst	r3, r1
1063:../../source/src/FWlib/src/stm32f10x_can.c ****     }
 1485              		.loc 1 1063 0
 1486 0616 14BF     		ite	ne
 1487 0618 0120     		movne	r0, #1
 1488              	.LVL108:
 1489 061a 0020     		moveq	r0, #0
 1490 061c 7047     		bx	lr
 1491              	.LVL109:
 1492              	.L163:
1070:../../source/src/FWlib/src/stm32f10x_can.c ****     { 
1071:../../source/src/FWlib/src/stm32f10x_can.c ****       /* CAN_FLAG is set */
1072:../../source/src/FWlib/src/stm32f10x_can.c ****       bitstatus = SET;
1073:../../source/src/FWlib/src/stm32f10x_can.c ****     }
1074:../../source/src/FWlib/src/stm32f10x_can.c ****     else
1075:../../source/src/FWlib/src/stm32f10x_can.c ****     { 
1076:../../source/src/FWlib/src/stm32f10x_can.c ****       /* CAN_FLAG is reset */
1077:../../source/src/FWlib/src/stm32f10x_can.c ****       bitstatus = RESET;
1078:../../source/src/FWlib/src/stm32f10x_can.c ****     }
1079:../../source/src/FWlib/src/stm32f10x_can.c ****   }
1080:../../source/src/FWlib/src/stm32f10x_can.c ****   else if((CAN_FLAG & CAN_FLAGS_TSR) != (uint32_t)RESET)
 1493              		.loc 1 1080 0
 1494 061e 0A01     		lsls	r2, r1, #4
 1495 0620 07D5     		bpl	.L164
1081:../../source/src/FWlib/src/stm32f10x_can.c ****   { 
ARM GAS  G:\Users\Jaxb\AppData\Local\Temp\cctfzRXv.s 			page 48


1082:../../source/src/FWlib/src/stm32f10x_can.c ****     /* Check the status of the specified CAN flag */
1083:../../source/src/FWlib/src/stm32f10x_can.c ****     if ((CANx->TSR & (CAN_FLAG & 0x000FFFFF)) != (uint32_t)RESET)
 1496              		.loc 1 1083 0
 1497 0622 8368     		ldr	r3, [r0, #8]
 1498 0624 C3F31303 		ubfx	r3, r3, #0, #20
 1499 0628 0B42     		tst	r3, r1
1063:../../source/src/FWlib/src/stm32f10x_can.c ****     }
 1500              		.loc 1 1063 0
 1501 062a 14BF     		ite	ne
 1502 062c 0120     		movne	r0, #1
 1503              	.LVL110:
 1504 062e 0020     		moveq	r0, #0
 1505 0630 7047     		bx	lr
 1506              	.LVL111:
 1507              	.L164:
1084:../../source/src/FWlib/src/stm32f10x_can.c ****     { 
1085:../../source/src/FWlib/src/stm32f10x_can.c ****       /* CAN_FLAG is set */
1086:../../source/src/FWlib/src/stm32f10x_can.c ****       bitstatus = SET;
1087:../../source/src/FWlib/src/stm32f10x_can.c ****     }
1088:../../source/src/FWlib/src/stm32f10x_can.c ****     else
1089:../../source/src/FWlib/src/stm32f10x_can.c ****     { 
1090:../../source/src/FWlib/src/stm32f10x_can.c ****       /* CAN_FLAG is reset */
1091:../../source/src/FWlib/src/stm32f10x_can.c ****       bitstatus = RESET;
1092:../../source/src/FWlib/src/stm32f10x_can.c ****     }
1093:../../source/src/FWlib/src/stm32f10x_can.c ****   }
1094:../../source/src/FWlib/src/stm32f10x_can.c ****   else if((CAN_FLAG & CAN_FLAGS_RF0R) != (uint32_t)RESET)
 1508              		.loc 1 1094 0
 1509 0632 8B01     		lsls	r3, r1, #6
1095:../../source/src/FWlib/src/stm32f10x_can.c ****   { 
1096:../../source/src/FWlib/src/stm32f10x_can.c ****     /* Check the status of the specified CAN flag */
1097:../../source/src/FWlib/src/stm32f10x_can.c ****     if ((CANx->RF0R & (CAN_FLAG & 0x000FFFFF)) != (uint32_t)RESET)
 1510              		.loc 1 1097 0
 1511 0634 4CBF     		ite	mi
 1512 0636 C368     		ldrmi	r3, [r0, #12]
1098:../../source/src/FWlib/src/stm32f10x_can.c ****     { 
1099:../../source/src/FWlib/src/stm32f10x_can.c ****       /* CAN_FLAG is set */
1100:../../source/src/FWlib/src/stm32f10x_can.c ****       bitstatus = SET;
1101:../../source/src/FWlib/src/stm32f10x_can.c ****     }
1102:../../source/src/FWlib/src/stm32f10x_can.c ****     else
1103:../../source/src/FWlib/src/stm32f10x_can.c ****     { 
1104:../../source/src/FWlib/src/stm32f10x_can.c ****       /* CAN_FLAG is reset */
1105:../../source/src/FWlib/src/stm32f10x_can.c ****       bitstatus = RESET;
1106:../../source/src/FWlib/src/stm32f10x_can.c ****     }
1107:../../source/src/FWlib/src/stm32f10x_can.c ****   }
1108:../../source/src/FWlib/src/stm32f10x_can.c ****   else /* If(CAN_FLAG & CAN_FLAGS_RF1R != (uint32_t)RESET) */
1109:../../source/src/FWlib/src/stm32f10x_can.c ****   { 
1110:../../source/src/FWlib/src/stm32f10x_can.c ****     /* Check the status of the specified CAN flag */
1111:../../source/src/FWlib/src/stm32f10x_can.c ****     if ((uint32_t)(CANx->RF1R & (CAN_FLAG & 0x000FFFFF)) != (uint32_t)RESET)
 1513              		.loc 1 1111 0
 1514 0638 0369     		ldrpl	r3, [r0, #16]
 1515 063a C3F31303 		ubfx	r3, r3, #0, #20
 1516 063e 0B42     		tst	r3, r1
1063:../../source/src/FWlib/src/stm32f10x_can.c ****     }
 1517              		.loc 1 1063 0
 1518 0640 14BF     		ite	ne
 1519 0642 0120     		movne	r0, #1
 1520              	.LVL112:
ARM GAS  G:\Users\Jaxb\AppData\Local\Temp\cctfzRXv.s 			page 49


 1521 0644 0020     		moveq	r0, #0
 1522              	.LVL113:
1112:../../source/src/FWlib/src/stm32f10x_can.c ****     { 
1113:../../source/src/FWlib/src/stm32f10x_can.c ****       /* CAN_FLAG is set */
1114:../../source/src/FWlib/src/stm32f10x_can.c ****       bitstatus = SET;
1115:../../source/src/FWlib/src/stm32f10x_can.c ****     }
1116:../../source/src/FWlib/src/stm32f10x_can.c ****     else
1117:../../source/src/FWlib/src/stm32f10x_can.c ****     { 
1118:../../source/src/FWlib/src/stm32f10x_can.c ****       /* CAN_FLAG is reset */
1119:../../source/src/FWlib/src/stm32f10x_can.c ****       bitstatus = RESET;
1120:../../source/src/FWlib/src/stm32f10x_can.c ****     }
1121:../../source/src/FWlib/src/stm32f10x_can.c ****   }
1122:../../source/src/FWlib/src/stm32f10x_can.c ****   /* Return the CAN_FLAG status */
1123:../../source/src/FWlib/src/stm32f10x_can.c ****   return  bitstatus;
1124:../../source/src/FWlib/src/stm32f10x_can.c **** }
 1523              		.loc 1 1124 0
 1524 0646 7047     		bx	lr
 1525              		.cfi_endproc
 1526              	.LFE49:
 1527              		.size	CAN_GetFlagStatus, .-CAN_GetFlagStatus
 1528              		.align	1
 1529              		.p2align 2,,3
 1530              		.global	CAN_ClearFlag
 1531              		.syntax unified
 1532              		.thumb
 1533              		.thumb_func
 1534              		.fpu softvfp
 1535              		.type	CAN_ClearFlag, %function
 1536              	CAN_ClearFlag:
 1537              	.LFB50:
1125:../../source/src/FWlib/src/stm32f10x_can.c **** 
1126:../../source/src/FWlib/src/stm32f10x_can.c **** /**
1127:../../source/src/FWlib/src/stm32f10x_can.c ****   * @brief  Clears the CAN's pending flags.
1128:../../source/src/FWlib/src/stm32f10x_can.c ****   * @param  CANx:     where x can be 1 or 2 to to select the CAN peripheral.
1129:../../source/src/FWlib/src/stm32f10x_can.c ****   * @param  CAN_FLAG: specifies the flag to clear.
1130:../../source/src/FWlib/src/stm32f10x_can.c ****   *                   This parameter can be one of the following flags: 
1131:../../source/src/FWlib/src/stm32f10x_can.c ****   *                    - CAN_FLAG_RQCP0
1132:../../source/src/FWlib/src/stm32f10x_can.c ****   *                    - CAN_FLAG_RQCP1
1133:../../source/src/FWlib/src/stm32f10x_can.c ****   *                    - CAN_FLAG_RQCP2
1134:../../source/src/FWlib/src/stm32f10x_can.c ****   *                    - CAN_FLAG_FF1       
1135:../../source/src/FWlib/src/stm32f10x_can.c ****   *                    - CAN_FLAG_FOV1   
1136:../../source/src/FWlib/src/stm32f10x_can.c ****   *                    - CAN_FLAG_FF0       
1137:../../source/src/FWlib/src/stm32f10x_can.c ****   *                    - CAN_FLAG_FOV0   
1138:../../source/src/FWlib/src/stm32f10x_can.c ****   *                    - CAN_FLAG_WKU   
1139:../../source/src/FWlib/src/stm32f10x_can.c ****   *                    - CAN_FLAG_SLAK    
1140:../../source/src/FWlib/src/stm32f10x_can.c ****   *                    - CAN_FLAG_LEC       
1141:../../source/src/FWlib/src/stm32f10x_can.c ****   * @retval None.
1142:../../source/src/FWlib/src/stm32f10x_can.c ****   */
1143:../../source/src/FWlib/src/stm32f10x_can.c **** void CAN_ClearFlag(CAN_TypeDef* CANx, uint32_t CAN_FLAG)
1144:../../source/src/FWlib/src/stm32f10x_can.c **** {
 1538              		.loc 1 1144 0
 1539              		.cfi_startproc
 1540              		@ args = 0, pretend = 0, frame = 0
 1541              		@ frame_needed = 0, uses_anonymous_args = 0
 1542              		@ link register save eliminated.
 1543              	.LVL114:
1145:../../source/src/FWlib/src/stm32f10x_can.c ****   uint32_t flagtmp=0;
ARM GAS  G:\Users\Jaxb\AppData\Local\Temp\cctfzRXv.s 			page 50


1146:../../source/src/FWlib/src/stm32f10x_can.c ****   /* Check the parameters */
1147:../../source/src/FWlib/src/stm32f10x_can.c ****   assert_param(IS_CAN_ALL_PERIPH(CANx));
1148:../../source/src/FWlib/src/stm32f10x_can.c ****   assert_param(IS_CAN_CLEAR_FLAG(CAN_FLAG));
1149:../../source/src/FWlib/src/stm32f10x_can.c ****   
1150:../../source/src/FWlib/src/stm32f10x_can.c ****   if (CAN_FLAG == CAN_FLAG_LEC) /* ESR register */
 1544              		.loc 1 1150 0
 1545 0648 0A4B     		ldr	r3, .L175
 1546 064a 9942     		cmp	r1, r3
 1547 064c 0CD0     		beq	.L172
1151:../../source/src/FWlib/src/stm32f10x_can.c ****   {
1152:../../source/src/FWlib/src/stm32f10x_can.c ****     /* Clear the selected CAN flags */
1153:../../source/src/FWlib/src/stm32f10x_can.c ****     CANx->ESR = (uint32_t)RESET;
1154:../../source/src/FWlib/src/stm32f10x_can.c ****   }
1155:../../source/src/FWlib/src/stm32f10x_can.c ****   else /* MSR or TSR or RF0R or RF1R */
1156:../../source/src/FWlib/src/stm32f10x_can.c ****   {
1157:../../source/src/FWlib/src/stm32f10x_can.c ****     flagtmp = CAN_FLAG & 0x000FFFFF;
1158:../../source/src/FWlib/src/stm32f10x_can.c **** 
1159:../../source/src/FWlib/src/stm32f10x_can.c ****     if ((CAN_FLAG & CAN_FLAGS_RF0R)!=(uint32_t)RESET)
 1548              		.loc 1 1159 0
 1549 064e 8A01     		lsls	r2, r1, #6
1157:../../source/src/FWlib/src/stm32f10x_can.c **** 
 1550              		.loc 1 1157 0
 1551 0650 C1F31303 		ubfx	r3, r1, #0, #20
 1552              	.LVL115:
 1553              		.loc 1 1159 0
 1554 0654 06D4     		bmi	.L173
1160:../../source/src/FWlib/src/stm32f10x_can.c ****     {
1161:../../source/src/FWlib/src/stm32f10x_can.c ****       /* Receive Flags */
1162:../../source/src/FWlib/src/stm32f10x_can.c ****       CANx->RF0R = (uint32_t)(flagtmp);
1163:../../source/src/FWlib/src/stm32f10x_can.c ****     }
1164:../../source/src/FWlib/src/stm32f10x_can.c ****     else if ((CAN_FLAG & CAN_FLAGS_RF1R)!=(uint32_t)RESET)
 1555              		.loc 1 1164 0
 1556 0656 4A01     		lsls	r2, r1, #5
 1557 0658 09D4     		bmi	.L174
1165:../../source/src/FWlib/src/stm32f10x_can.c ****     {
1166:../../source/src/FWlib/src/stm32f10x_can.c ****       /* Receive Flags */
1167:../../source/src/FWlib/src/stm32f10x_can.c ****       CANx->RF1R = (uint32_t)(flagtmp);
1168:../../source/src/FWlib/src/stm32f10x_can.c ****     }
1169:../../source/src/FWlib/src/stm32f10x_can.c ****     else if ((CAN_FLAG & CAN_FLAGS_TSR)!=(uint32_t)RESET)
 1558              		.loc 1 1169 0
 1559 065a 0A01     		lsls	r2, r1, #4
1170:../../source/src/FWlib/src/stm32f10x_can.c ****     {
1171:../../source/src/FWlib/src/stm32f10x_can.c ****       /* Transmit Flags */
1172:../../source/src/FWlib/src/stm32f10x_can.c ****       CANx->TSR = (uint32_t)(flagtmp);
 1560              		.loc 1 1172 0
 1561 065c 4CBF     		ite	mi
 1562 065e 8360     		strmi	r3, [r0, #8]
1173:../../source/src/FWlib/src/stm32f10x_can.c ****     }
1174:../../source/src/FWlib/src/stm32f10x_can.c ****     else /* If((CAN_FLAG & CAN_FLAGS_MSR)!=(uint32_t)RESET) */
1175:../../source/src/FWlib/src/stm32f10x_can.c ****     {
1176:../../source/src/FWlib/src/stm32f10x_can.c ****       /* Operating mode Flags */
1177:../../source/src/FWlib/src/stm32f10x_can.c ****       CANx->MSR = (uint32_t)(flagtmp);
 1563              		.loc 1 1177 0
 1564 0660 4360     		strpl	r3, [r0, #4]
1178:../../source/src/FWlib/src/stm32f10x_can.c ****     }
1179:../../source/src/FWlib/src/stm32f10x_can.c ****   }
1180:../../source/src/FWlib/src/stm32f10x_can.c **** }
ARM GAS  G:\Users\Jaxb\AppData\Local\Temp\cctfzRXv.s 			page 51


 1565              		.loc 1 1180 0
 1566 0662 7047     		bx	lr
 1567              	.L173:
1162:../../source/src/FWlib/src/stm32f10x_can.c ****     }
 1568              		.loc 1 1162 0
 1569 0664 C360     		str	r3, [r0, #12]
 1570 0666 7047     		bx	lr
 1571              	.LVL116:
 1572              	.L172:
1153:../../source/src/FWlib/src/stm32f10x_can.c ****   }
 1573              		.loc 1 1153 0
 1574 0668 0023     		movs	r3, #0
 1575 066a 8361     		str	r3, [r0, #24]
 1576 066c 7047     		bx	lr
 1577              	.LVL117:
 1578              	.L174:
1167:../../source/src/FWlib/src/stm32f10x_can.c ****     }
 1579              		.loc 1 1167 0
 1580 066e 0361     		str	r3, [r0, #16]
 1581 0670 7047     		bx	lr
 1582              	.L176:
 1583 0672 00BF     		.align	2
 1584              	.L175:
 1585 0674 7000F030 		.word	821035120
 1586              		.cfi_endproc
 1587              	.LFE50:
 1588              		.size	CAN_ClearFlag, .-CAN_ClearFlag
 1589              		.align	1
 1590              		.p2align 2,,3
 1591              		.global	CAN_GetITStatus
 1592              		.syntax unified
 1593              		.thumb
 1594              		.thumb_func
 1595              		.fpu softvfp
 1596              		.type	CAN_GetITStatus, %function
 1597              	CAN_GetITStatus:
 1598              	.LFB51:
1181:../../source/src/FWlib/src/stm32f10x_can.c **** 
1182:../../source/src/FWlib/src/stm32f10x_can.c **** /**
1183:../../source/src/FWlib/src/stm32f10x_can.c ****   * @brief  Checks whether the specified CANx interrupt has occurred or not.
1184:../../source/src/FWlib/src/stm32f10x_can.c ****   * @param  CANx:    where x can be 1 or 2 to to select the CAN peripheral.
1185:../../source/src/FWlib/src/stm32f10x_can.c ****   * @param  CAN_IT:  specifies the CAN interrupt source to check.
1186:../../source/src/FWlib/src/stm32f10x_can.c ****   *                  This parameter can be one of the following flags: 
1187:../../source/src/FWlib/src/stm32f10x_can.c ****   *                 -  CAN_IT_TME               
1188:../../source/src/FWlib/src/stm32f10x_can.c ****   *                 -  CAN_IT_FMP0              
1189:../../source/src/FWlib/src/stm32f10x_can.c ****   *                 -  CAN_IT_FF0               
1190:../../source/src/FWlib/src/stm32f10x_can.c ****   *                 -  CAN_IT_FOV0              
1191:../../source/src/FWlib/src/stm32f10x_can.c ****   *                 -  CAN_IT_FMP1              
1192:../../source/src/FWlib/src/stm32f10x_can.c ****   *                 -  CAN_IT_FF1               
1193:../../source/src/FWlib/src/stm32f10x_can.c ****   *                 -  CAN_IT_FOV1              
1194:../../source/src/FWlib/src/stm32f10x_can.c ****   *                 -  CAN_IT_WKU  
1195:../../source/src/FWlib/src/stm32f10x_can.c ****   *                 -  CAN_IT_SLK  
1196:../../source/src/FWlib/src/stm32f10x_can.c ****   *                 -  CAN_IT_EWG    
1197:../../source/src/FWlib/src/stm32f10x_can.c ****   *                 -  CAN_IT_EPV    
1198:../../source/src/FWlib/src/stm32f10x_can.c ****   *                 -  CAN_IT_BOF    
1199:../../source/src/FWlib/src/stm32f10x_can.c ****   *                 -  CAN_IT_LEC    
1200:../../source/src/FWlib/src/stm32f10x_can.c ****   *                 -  CAN_IT_ERR 
ARM GAS  G:\Users\Jaxb\AppData\Local\Temp\cctfzRXv.s 			page 52


1201:../../source/src/FWlib/src/stm32f10x_can.c ****   * @retval The current state of CAN_IT (SET or RESET).
1202:../../source/src/FWlib/src/stm32f10x_can.c ****   */
1203:../../source/src/FWlib/src/stm32f10x_can.c **** ITStatus CAN_GetITStatus(CAN_TypeDef* CANx, uint32_t CAN_IT)
1204:../../source/src/FWlib/src/stm32f10x_can.c **** {
 1599              		.loc 1 1204 0
 1600              		.cfi_startproc
 1601              		@ args = 0, pretend = 0, frame = 0
 1602              		@ frame_needed = 0, uses_anonymous_args = 0
 1603              		@ link register save eliminated.
 1604              	.LVL118:
1205:../../source/src/FWlib/src/stm32f10x_can.c ****   ITStatus itstatus = RESET;
1206:../../source/src/FWlib/src/stm32f10x_can.c ****   /* Check the parameters */
1207:../../source/src/FWlib/src/stm32f10x_can.c ****   assert_param(IS_CAN_ALL_PERIPH(CANx));
1208:../../source/src/FWlib/src/stm32f10x_can.c ****   assert_param(IS_CAN_IT(CAN_IT));
1209:../../source/src/FWlib/src/stm32f10x_can.c ****   
1210:../../source/src/FWlib/src/stm32f10x_can.c ****   /* check the enable interrupt bit */
1211:../../source/src/FWlib/src/stm32f10x_can.c ****  if((CANx->IER & CAN_IT) != RESET)
 1605              		.loc 1 1211 0
 1606 0678 4369     		ldr	r3, [r0, #20]
 1607 067a 0B40     		ands	r3, r3, r1
 1608 067c 20D0     		beq	.L197
1212:../../source/src/FWlib/src/stm32f10x_can.c ****  {
1213:../../source/src/FWlib/src/stm32f10x_can.c ****    /* in case the Interrupt is enabled, .... */
1214:../../source/src/FWlib/src/stm32f10x_can.c ****     switch (CAN_IT)
 1609              		.loc 1 1214 0
 1610 067e 4029     		cmp	r1, #64
 1611 0680 5ED0     		beq	.L179
 1612 0682 10D9     		bls	.L198
 1613 0684 B1F5006F 		cmp	r1, #2048
 1614 0688 5ED0     		beq	.L188
 1615 068a 1BD8     		bhi	.L189
 1616 068c B1F5007F 		cmp	r1, #512
 1617 0690 4ED0     		beq	.L190
 1618 0692 B1F5806F 		cmp	r1, #1024
 1619 0696 35D0     		beq	.L191
 1620 0698 B1F5807F 		cmp	r1, #256
 1621 069c 10D1     		bne	.L197
1215:../../source/src/FWlib/src/stm32f10x_can.c ****     {
1216:../../source/src/FWlib/src/stm32f10x_can.c ****       case CAN_IT_TME:
1217:../../source/src/FWlib/src/stm32f10x_can.c ****                /* Check CAN_TSR_RQCPx bits */
1218:../../source/src/FWlib/src/stm32f10x_can.c **** 	             itstatus = CheckITStatus(CANx->TSR, CAN_TSR_RQCP0|CAN_TSR_RQCP1|CAN_TSR_RQCP2);  
1219:../../source/src/FWlib/src/stm32f10x_can.c **** 	      break;
1220:../../source/src/FWlib/src/stm32f10x_can.c ****       case CAN_IT_FMP0:
1221:../../source/src/FWlib/src/stm32f10x_can.c ****                /* Check CAN_RF0R_FMP0 bit */
1222:../../source/src/FWlib/src/stm32f10x_can.c **** 	             itstatus = CheckITStatus(CANx->RF0R, CAN_RF0R_FMP0);  
1223:../../source/src/FWlib/src/stm32f10x_can.c **** 	      break;
1224:../../source/src/FWlib/src/stm32f10x_can.c ****       case CAN_IT_FF0:
1225:../../source/src/FWlib/src/stm32f10x_can.c ****                /* Check CAN_RF0R_FULL0 bit */
1226:../../source/src/FWlib/src/stm32f10x_can.c ****                itstatus = CheckITStatus(CANx->RF0R, CAN_RF0R_FULL0);  
1227:../../source/src/FWlib/src/stm32f10x_can.c **** 	      break;
1228:../../source/src/FWlib/src/stm32f10x_can.c ****       case CAN_IT_FOV0:
1229:../../source/src/FWlib/src/stm32f10x_can.c ****                /* Check CAN_RF0R_FOVR0 bit */
1230:../../source/src/FWlib/src/stm32f10x_can.c ****                itstatus = CheckITStatus(CANx->RF0R, CAN_RF0R_FOVR0);  
1231:../../source/src/FWlib/src/stm32f10x_can.c **** 	      break;
1232:../../source/src/FWlib/src/stm32f10x_can.c ****       case CAN_IT_FMP1:
1233:../../source/src/FWlib/src/stm32f10x_can.c ****                /* Check CAN_RF1R_FMP1 bit */
1234:../../source/src/FWlib/src/stm32f10x_can.c ****                itstatus = CheckITStatus(CANx->RF1R, CAN_RF1R_FMP1);  
ARM GAS  G:\Users\Jaxb\AppData\Local\Temp\cctfzRXv.s 			page 53


1235:../../source/src/FWlib/src/stm32f10x_can.c **** 	      break;
1236:../../source/src/FWlib/src/stm32f10x_can.c ****       case CAN_IT_FF1:
1237:../../source/src/FWlib/src/stm32f10x_can.c ****                /* Check CAN_RF1R_FULL1 bit */
1238:../../source/src/FWlib/src/stm32f10x_can.c **** 	             itstatus = CheckITStatus(CANx->RF1R, CAN_RF1R_FULL1);  
1239:../../source/src/FWlib/src/stm32f10x_can.c **** 	      break;
1240:../../source/src/FWlib/src/stm32f10x_can.c ****       case CAN_IT_FOV1:
1241:../../source/src/FWlib/src/stm32f10x_can.c ****                /* Check CAN_RF1R_FOVR1 bit */
1242:../../source/src/FWlib/src/stm32f10x_can.c **** 	             itstatus = CheckITStatus(CANx->RF1R, CAN_RF1R_FOVR1);  
1243:../../source/src/FWlib/src/stm32f10x_can.c **** 	      break;
1244:../../source/src/FWlib/src/stm32f10x_can.c ****       case CAN_IT_WKU:
1245:../../source/src/FWlib/src/stm32f10x_can.c ****                /* Check CAN_MSR_WKUI bit */
1246:../../source/src/FWlib/src/stm32f10x_can.c ****                itstatus = CheckITStatus(CANx->MSR, CAN_MSR_WKUI);  
1247:../../source/src/FWlib/src/stm32f10x_can.c **** 	      break;
1248:../../source/src/FWlib/src/stm32f10x_can.c ****       case CAN_IT_SLK:
1249:../../source/src/FWlib/src/stm32f10x_can.c ****                /* Check CAN_MSR_SLAKI bit */
1250:../../source/src/FWlib/src/stm32f10x_can.c **** 	             itstatus = CheckITStatus(CANx->MSR, CAN_MSR_SLAKI);  
1251:../../source/src/FWlib/src/stm32f10x_can.c **** 	      break;
1252:../../source/src/FWlib/src/stm32f10x_can.c ****       case CAN_IT_EWG:
1253:../../source/src/FWlib/src/stm32f10x_can.c ****                /* Check CAN_ESR_EWGF bit */
1254:../../source/src/FWlib/src/stm32f10x_can.c **** 	             itstatus = CheckITStatus(CANx->ESR, CAN_ESR_EWGF);  
 1622              		.loc 1 1254 0
 1623 069e 8069     		ldr	r0, [r0, #24]
 1624              	.LVL119:
 1625              	.LBB30:
 1626              	.LBB31:
1255:../../source/src/FWlib/src/stm32f10x_can.c **** 	      break;
1256:../../source/src/FWlib/src/stm32f10x_can.c ****       case CAN_IT_EPV:
1257:../../source/src/FWlib/src/stm32f10x_can.c ****                /* Check CAN_ESR_EPVF bit */
1258:../../source/src/FWlib/src/stm32f10x_can.c **** 	             itstatus = CheckITStatus(CANx->ESR, CAN_ESR_EPVF);  
1259:../../source/src/FWlib/src/stm32f10x_can.c **** 	      break;
1260:../../source/src/FWlib/src/stm32f10x_can.c ****       case CAN_IT_BOF:
1261:../../source/src/FWlib/src/stm32f10x_can.c ****                /* Check CAN_ESR_BOFF bit */
1262:../../source/src/FWlib/src/stm32f10x_can.c **** 	             itstatus = CheckITStatus(CANx->ESR, CAN_ESR_BOFF);  
1263:../../source/src/FWlib/src/stm32f10x_can.c **** 	      break;
1264:../../source/src/FWlib/src/stm32f10x_can.c ****       case CAN_IT_LEC:
1265:../../source/src/FWlib/src/stm32f10x_can.c ****                /* Check CAN_ESR_LEC bit */
1266:../../source/src/FWlib/src/stm32f10x_can.c **** 	             itstatus = CheckITStatus(CANx->ESR, CAN_ESR_LEC);  
1267:../../source/src/FWlib/src/stm32f10x_can.c **** 	      break;
1268:../../source/src/FWlib/src/stm32f10x_can.c ****       case CAN_IT_ERR:
1269:../../source/src/FWlib/src/stm32f10x_can.c ****                /* Check CAN_MSR_ERRI bit */ 
1270:../../source/src/FWlib/src/stm32f10x_can.c ****                itstatus = CheckITStatus(CANx->MSR, CAN_MSR_ERRI); 
1271:../../source/src/FWlib/src/stm32f10x_can.c **** 	      break;
1272:../../source/src/FWlib/src/stm32f10x_can.c ****       default :
1273:../../source/src/FWlib/src/stm32f10x_can.c ****                /* in case of error, return RESET */
1274:../../source/src/FWlib/src/stm32f10x_can.c ****               itstatus = RESET;
1275:../../source/src/FWlib/src/stm32f10x_can.c ****               break;
1276:../../source/src/FWlib/src/stm32f10x_can.c ****     }
1277:../../source/src/FWlib/src/stm32f10x_can.c ****   }
1278:../../source/src/FWlib/src/stm32f10x_can.c ****   else
1279:../../source/src/FWlib/src/stm32f10x_can.c ****   {
1280:../../source/src/FWlib/src/stm32f10x_can.c ****    /* in case the Interrupt is not enabled, return RESET */
1281:../../source/src/FWlib/src/stm32f10x_can.c ****     itstatus  = RESET;
1282:../../source/src/FWlib/src/stm32f10x_can.c ****   }
1283:../../source/src/FWlib/src/stm32f10x_can.c ****   
1284:../../source/src/FWlib/src/stm32f10x_can.c ****   /* Return the CAN_IT status */
1285:../../source/src/FWlib/src/stm32f10x_can.c ****   return  itstatus;
1286:../../source/src/FWlib/src/stm32f10x_can.c **** }
ARM GAS  G:\Users\Jaxb\AppData\Local\Temp\cctfzRXv.s 			page 54


1287:../../source/src/FWlib/src/stm32f10x_can.c **** 
1288:../../source/src/FWlib/src/stm32f10x_can.c **** /**
1289:../../source/src/FWlib/src/stm32f10x_can.c ****   * @brief  Clears the CANx's interrupt pending bits.
1290:../../source/src/FWlib/src/stm32f10x_can.c ****   * @param  CANx:    where x can be 1 or 2 to to select the CAN peripheral.
1291:../../source/src/FWlib/src/stm32f10x_can.c ****   * @param  CAN_IT: specifies the interrupt pending bit to clear.
1292:../../source/src/FWlib/src/stm32f10x_can.c ****   *                  -  CAN_IT_TME                     
1293:../../source/src/FWlib/src/stm32f10x_can.c ****   *                  -  CAN_IT_FF0               
1294:../../source/src/FWlib/src/stm32f10x_can.c ****   *                  -  CAN_IT_FOV0                     
1295:../../source/src/FWlib/src/stm32f10x_can.c ****   *                  -  CAN_IT_FF1               
1296:../../source/src/FWlib/src/stm32f10x_can.c ****   *                  -  CAN_IT_FOV1              
1297:../../source/src/FWlib/src/stm32f10x_can.c ****   *                  -  CAN_IT_WKU  
1298:../../source/src/FWlib/src/stm32f10x_can.c ****   *                  -  CAN_IT_SLK  
1299:../../source/src/FWlib/src/stm32f10x_can.c ****   *                  -  CAN_IT_EWG    
1300:../../source/src/FWlib/src/stm32f10x_can.c ****   *                  -  CAN_IT_EPV    
1301:../../source/src/FWlib/src/stm32f10x_can.c ****   *                  -  CAN_IT_BOF    
1302:../../source/src/FWlib/src/stm32f10x_can.c ****   *                  -  CAN_IT_LEC    
1303:../../source/src/FWlib/src/stm32f10x_can.c ****   *                  -  CAN_IT_ERR 
1304:../../source/src/FWlib/src/stm32f10x_can.c ****   * @retval None.
1305:../../source/src/FWlib/src/stm32f10x_can.c ****   */
1306:../../source/src/FWlib/src/stm32f10x_can.c **** void CAN_ClearITPendingBit(CAN_TypeDef* CANx, uint32_t CAN_IT)
1307:../../source/src/FWlib/src/stm32f10x_can.c **** {
1308:../../source/src/FWlib/src/stm32f10x_can.c ****   /* Check the parameters */
1309:../../source/src/FWlib/src/stm32f10x_can.c ****   assert_param(IS_CAN_ALL_PERIPH(CANx));
1310:../../source/src/FWlib/src/stm32f10x_can.c ****   assert_param(IS_CAN_CLEAR_IT(CAN_IT));
1311:../../source/src/FWlib/src/stm32f10x_can.c **** 
1312:../../source/src/FWlib/src/stm32f10x_can.c ****   switch (CAN_IT)
1313:../../source/src/FWlib/src/stm32f10x_can.c ****   {
1314:../../source/src/FWlib/src/stm32f10x_can.c ****       case CAN_IT_TME:
1315:../../source/src/FWlib/src/stm32f10x_can.c ****               /* Clear CAN_TSR_RQCPx (rc_w1)*/
1316:../../source/src/FWlib/src/stm32f10x_can.c **** 	      CANx->TSR = CAN_TSR_RQCP0|CAN_TSR_RQCP1|CAN_TSR_RQCP2;  
1317:../../source/src/FWlib/src/stm32f10x_can.c **** 	      break;
1318:../../source/src/FWlib/src/stm32f10x_can.c ****       case CAN_IT_FF0:
1319:../../source/src/FWlib/src/stm32f10x_can.c ****               /* Clear CAN_RF0R_FULL0 (rc_w1)*/
1320:../../source/src/FWlib/src/stm32f10x_can.c **** 	      CANx->RF0R = CAN_RF0R_FULL0; 
1321:../../source/src/FWlib/src/stm32f10x_can.c **** 	      break;
1322:../../source/src/FWlib/src/stm32f10x_can.c ****       case CAN_IT_FOV0:
1323:../../source/src/FWlib/src/stm32f10x_can.c ****               /* Clear CAN_RF0R_FOVR0 (rc_w1)*/
1324:../../source/src/FWlib/src/stm32f10x_can.c **** 	      CANx->RF0R = CAN_RF0R_FOVR0; 
1325:../../source/src/FWlib/src/stm32f10x_can.c **** 	      break;
1326:../../source/src/FWlib/src/stm32f10x_can.c ****       case CAN_IT_FF1:
1327:../../source/src/FWlib/src/stm32f10x_can.c ****               /* Clear CAN_RF1R_FULL1 (rc_w1)*/
1328:../../source/src/FWlib/src/stm32f10x_can.c **** 	      CANx->RF1R = CAN_RF1R_FULL1;  
1329:../../source/src/FWlib/src/stm32f10x_can.c **** 	      break;
1330:../../source/src/FWlib/src/stm32f10x_can.c ****       case CAN_IT_FOV1:
1331:../../source/src/FWlib/src/stm32f10x_can.c ****               /* Clear CAN_RF1R_FOVR1 (rc_w1)*/
1332:../../source/src/FWlib/src/stm32f10x_can.c **** 	      CANx->RF1R = CAN_RF1R_FOVR1; 
1333:../../source/src/FWlib/src/stm32f10x_can.c **** 	      break;
1334:../../source/src/FWlib/src/stm32f10x_can.c ****       case CAN_IT_WKU:
1335:../../source/src/FWlib/src/stm32f10x_can.c ****               /* Clear CAN_MSR_WKUI (rc_w1)*/
1336:../../source/src/FWlib/src/stm32f10x_can.c **** 	      CANx->MSR = CAN_MSR_WKUI;  
1337:../../source/src/FWlib/src/stm32f10x_can.c **** 	      break;
1338:../../source/src/FWlib/src/stm32f10x_can.c ****       case CAN_IT_SLK:
1339:../../source/src/FWlib/src/stm32f10x_can.c ****               /* Clear CAN_MSR_SLAKI (rc_w1)*/ 
1340:../../source/src/FWlib/src/stm32f10x_can.c **** 	      CANx->MSR = CAN_MSR_SLAKI;   
1341:../../source/src/FWlib/src/stm32f10x_can.c **** 	      break;
1342:../../source/src/FWlib/src/stm32f10x_can.c ****       case CAN_IT_EWG:
1343:../../source/src/FWlib/src/stm32f10x_can.c ****               /* Clear CAN_MSR_ERRI (rc_w1) */
ARM GAS  G:\Users\Jaxb\AppData\Local\Temp\cctfzRXv.s 			page 55


1344:../../source/src/FWlib/src/stm32f10x_can.c **** 	      CANx->MSR = CAN_MSR_ERRI;
1345:../../source/src/FWlib/src/stm32f10x_can.c ****               /* Note : the corresponding Flag is cleared by hardware depending 
1346:../../source/src/FWlib/src/stm32f10x_can.c ****                         of the CAN Bus status*/ 
1347:../../source/src/FWlib/src/stm32f10x_can.c **** 	      break;
1348:../../source/src/FWlib/src/stm32f10x_can.c ****       case CAN_IT_EPV:
1349:../../source/src/FWlib/src/stm32f10x_can.c ****               /* Clear CAN_MSR_ERRI (rc_w1) */
1350:../../source/src/FWlib/src/stm32f10x_can.c **** 	      CANx->MSR = CAN_MSR_ERRI; 
1351:../../source/src/FWlib/src/stm32f10x_can.c ****               /* Note : the corresponding Flag is cleared by hardware depending 
1352:../../source/src/FWlib/src/stm32f10x_can.c ****                         of the CAN Bus status*/
1353:../../source/src/FWlib/src/stm32f10x_can.c **** 	      break;
1354:../../source/src/FWlib/src/stm32f10x_can.c ****       case CAN_IT_BOF:
1355:../../source/src/FWlib/src/stm32f10x_can.c ****               /* Clear CAN_MSR_ERRI (rc_w1) */ 
1356:../../source/src/FWlib/src/stm32f10x_can.c **** 	      CANx->MSR = CAN_MSR_ERRI; 
1357:../../source/src/FWlib/src/stm32f10x_can.c ****               /* Note : the corresponding Flag is cleared by hardware depending 
1358:../../source/src/FWlib/src/stm32f10x_can.c ****                         of the CAN Bus status*/
1359:../../source/src/FWlib/src/stm32f10x_can.c **** 	      break;
1360:../../source/src/FWlib/src/stm32f10x_can.c ****       case CAN_IT_LEC:
1361:../../source/src/FWlib/src/stm32f10x_can.c ****               /*  Clear LEC bits */
1362:../../source/src/FWlib/src/stm32f10x_can.c **** 	      CANx->ESR = RESET; 
1363:../../source/src/FWlib/src/stm32f10x_can.c ****               /* Clear CAN_MSR_ERRI (rc_w1) */
1364:../../source/src/FWlib/src/stm32f10x_can.c **** 	      CANx->MSR = CAN_MSR_ERRI; 
1365:../../source/src/FWlib/src/stm32f10x_can.c **** 	      break;
1366:../../source/src/FWlib/src/stm32f10x_can.c ****       case CAN_IT_ERR:
1367:../../source/src/FWlib/src/stm32f10x_can.c ****               /*Clear LEC bits */
1368:../../source/src/FWlib/src/stm32f10x_can.c **** 	      CANx->ESR = RESET; 
1369:../../source/src/FWlib/src/stm32f10x_can.c ****               /* Clear CAN_MSR_ERRI (rc_w1) */
1370:../../source/src/FWlib/src/stm32f10x_can.c **** 	      CANx->MSR = CAN_MSR_ERRI; 
1371:../../source/src/FWlib/src/stm32f10x_can.c **** 	      /* Note : BOFF, EPVF and EWGF Flags are cleared by hardware depending 
1372:../../source/src/FWlib/src/stm32f10x_can.c ****                   of the CAN Bus status*/
1373:../../source/src/FWlib/src/stm32f10x_can.c **** 	      break;
1374:../../source/src/FWlib/src/stm32f10x_can.c ****       default :
1375:../../source/src/FWlib/src/stm32f10x_can.c **** 	      break;
1376:../../source/src/FWlib/src/stm32f10x_can.c ****    }
1377:../../source/src/FWlib/src/stm32f10x_can.c **** }
1378:../../source/src/FWlib/src/stm32f10x_can.c **** 
1379:../../source/src/FWlib/src/stm32f10x_can.c **** /**
1380:../../source/src/FWlib/src/stm32f10x_can.c ****   * @brief  Checks whether the CAN interrupt has occurred or not.
1381:../../source/src/FWlib/src/stm32f10x_can.c ****   * @param  CAN_Reg: specifies the CAN interrupt register to check.
1382:../../source/src/FWlib/src/stm32f10x_can.c ****   * @param  It_Bit:  specifies the interrupt source bit to check.
1383:../../source/src/FWlib/src/stm32f10x_can.c ****   * @retval The new state of the CAN Interrupt (SET or RESET).
1384:../../source/src/FWlib/src/stm32f10x_can.c ****   */
1385:../../source/src/FWlib/src/stm32f10x_can.c **** static ITStatus CheckITStatus(uint32_t CAN_Reg, uint32_t It_Bit)
1386:../../source/src/FWlib/src/stm32f10x_can.c **** {
1387:../../source/src/FWlib/src/stm32f10x_can.c ****   ITStatus pendingbitstatus = RESET;
1388:../../source/src/FWlib/src/stm32f10x_can.c ****   
1389:../../source/src/FWlib/src/stm32f10x_can.c ****   if ((CAN_Reg & It_Bit) != (uint32_t)RESET)
1390:../../source/src/FWlib/src/stm32f10x_can.c ****   {
1391:../../source/src/FWlib/src/stm32f10x_can.c ****     /* CAN_IT is set */
1392:../../source/src/FWlib/src/stm32f10x_can.c ****     pendingbitstatus = SET;
1393:../../source/src/FWlib/src/stm32f10x_can.c ****   }
1394:../../source/src/FWlib/src/stm32f10x_can.c ****   else
1395:../../source/src/FWlib/src/stm32f10x_can.c ****   {
1396:../../source/src/FWlib/src/stm32f10x_can.c ****     /* CAN_IT is reset */
1397:../../source/src/FWlib/src/stm32f10x_can.c ****     pendingbitstatus = RESET;
 1627              		.loc 1 1397 0
 1628 06a0 00F00100 		and	r0, r0, #1
 1629              	.LVL120:
ARM GAS  G:\Users\Jaxb\AppData\Local\Temp\cctfzRXv.s 			page 56


 1630 06a4 7047     		bx	lr
 1631              	.LVL121:
 1632              	.L198:
 1633              	.LBE31:
 1634              	.LBE30:
1214:../../source/src/FWlib/src/stm32f10x_can.c ****     {
 1635              		.loc 1 1214 0
 1636 06a6 0429     		cmp	r1, #4
 1637 06a8 30D0     		beq	.L181
 1638 06aa 18D9     		bls	.L199
 1639 06ac 1029     		cmp	r1, #16
 1640 06ae 39D0     		beq	.L185
 1641 06b0 2029     		cmp	r1, #32
 1642 06b2 33D0     		beq	.L186
 1643 06b4 0829     		cmp	r1, #8
 1644 06b6 03D1     		bne	.L197
1230:../../source/src/FWlib/src/stm32f10x_can.c **** 	      break;
 1645              		.loc 1 1230 0
 1646 06b8 C068     		ldr	r0, [r0, #12]
 1647              	.LVL122:
 1648              	.LBB44:
 1649              	.LBB32:
 1650              		.loc 1 1397 0
 1651 06ba C0F30010 		ubfx	r0, r0, #4, #1
 1652              	.LVL123:
 1653 06be 7047     		bx	lr
 1654              	.LVL124:
 1655              	.L197:
 1656              	.LBE32:
 1657              	.LBE44:
1274:../../source/src/FWlib/src/stm32f10x_can.c ****               break;
 1658              		.loc 1 1274 0
 1659 06c0 0020     		movs	r0, #0
 1660              	.LVL125:
1286:../../source/src/FWlib/src/stm32f10x_can.c **** 
 1661              		.loc 1 1286 0
 1662 06c2 7047     		bx	lr
 1663              	.LVL126:
 1664              	.L189:
1214:../../source/src/FWlib/src/stm32f10x_can.c ****     {
 1665              		.loc 1 1214 0
 1666 06c4 B1F5803F 		cmp	r1, #65536
 1667 06c8 36D0     		beq	.L193
 1668 06ca B1F5003F 		cmp	r1, #131072
 1669 06ce 21D0     		beq	.L194
 1670 06d0 B1F5004F 		cmp	r1, #32768
 1671 06d4 F4D1     		bne	.L197
1270:../../source/src/FWlib/src/stm32f10x_can.c **** 	      break;
 1672              		.loc 1 1270 0
 1673 06d6 4068     		ldr	r0, [r0, #4]
 1674              	.LVL127:
 1675              	.LBB45:
 1676              	.LBB33:
 1677              		.loc 1 1397 0
 1678 06d8 C0F38000 		ubfx	r0, r0, #2, #1
 1679              	.LVL128:
 1680 06dc 7047     		bx	lr
ARM GAS  G:\Users\Jaxb\AppData\Local\Temp\cctfzRXv.s 			page 57


 1681              	.LVL129:
 1682              	.L199:
 1683              	.LBE33:
 1684              	.LBE45:
1214:../../source/src/FWlib/src/stm32f10x_can.c ****     {
 1685              		.loc 1 1214 0
 1686 06de 0129     		cmp	r1, #1
 1687 06e0 07D0     		beq	.L183
 1688 06e2 0229     		cmp	r1, #2
 1689 06e4 ECD1     		bne	.L197
1222:../../source/src/FWlib/src/stm32f10x_can.c **** 	      break;
 1690              		.loc 1 1222 0
 1691 06e6 C068     		ldr	r0, [r0, #12]
 1692              	.LVL130:
 1693              	.LBB46:
 1694              	.LBB34:
 1695              		.loc 1 1397 0
 1696 06e8 10F00300 		ands	r0, r0, #3
 1697              	.LVL131:
 1698 06ec 18BF     		it	ne
 1699 06ee 0120     		movne	r0, #1
 1700 06f0 7047     		bx	lr
 1701              	.LVL132:
 1702              	.L183:
 1703              	.LBE34:
 1704              	.LBE46:
1218:../../source/src/FWlib/src/stm32f10x_can.c **** 	      break;
 1705              		.loc 1 1218 0
 1706 06f2 8068     		ldr	r0, [r0, #8]
 1707              	.LVL133:
 1708              	.LBB47:
 1709              	.LBB48:
1389:../../source/src/FWlib/src/stm32f10x_can.c ****   {
 1710              		.loc 1 1389 0
 1711 06f4 00F00130 		and	r0, r0, #16843009
 1712              	.LVL134:
 1713 06f8 20F08070 		bic	r0, r0, #16777216
 1714              	.LBE48:
 1715              	.LBE47:
 1716              	.LBB49:
 1717              	.LBB50:
1392:../../source/src/FWlib/src/stm32f10x_can.c ****   }
 1718              		.loc 1 1392 0
 1719 06fc 0030     		adds	r0, r0, #0
 1720 06fe 18BF     		it	ne
 1721 0700 0120     		movne	r0, #1
 1722 0702 7047     		bx	lr
 1723              	.LVL135:
 1724              	.L191:
 1725              	.LBE50:
 1726              	.LBE49:
1262:../../source/src/FWlib/src/stm32f10x_can.c **** 	      break;
 1727              		.loc 1 1262 0
 1728 0704 8069     		ldr	r0, [r0, #24]
 1729              	.LVL136:
 1730              	.LBB52:
 1731              	.LBB35:
ARM GAS  G:\Users\Jaxb\AppData\Local\Temp\cctfzRXv.s 			page 58


 1732              		.loc 1 1397 0
 1733 0706 C0F38000 		ubfx	r0, r0, #2, #1
 1734              	.LVL137:
 1735 070a 7047     		bx	lr
 1736              	.LVL138:
 1737              	.L181:
 1738              	.LBE35:
 1739              	.LBE52:
1226:../../source/src/FWlib/src/stm32f10x_can.c **** 	      break;
 1740              		.loc 1 1226 0
 1741 070c C068     		ldr	r0, [r0, #12]
 1742              	.LVL139:
 1743              	.LBB53:
 1744              	.LBB36:
 1745              		.loc 1 1397 0
 1746 070e C0F3C000 		ubfx	r0, r0, #3, #1
 1747              	.LVL140:
 1748 0712 7047     		bx	lr
 1749              	.LVL141:
 1750              	.L194:
 1751              	.LBE36:
 1752              	.LBE53:
1250:../../source/src/FWlib/src/stm32f10x_can.c **** 	      break;
 1753              		.loc 1 1250 0
 1754 0714 4068     		ldr	r0, [r0, #4]
 1755              	.LVL142:
 1756              	.LBB54:
 1757              	.LBB37:
 1758              		.loc 1 1397 0
 1759 0716 C0F30010 		ubfx	r0, r0, #4, #1
 1760              	.LVL143:
 1761 071a 7047     		bx	lr
 1762              	.LVL144:
 1763              	.L186:
 1764              	.LBE37:
 1765              	.LBE54:
1238:../../source/src/FWlib/src/stm32f10x_can.c **** 	      break;
 1766              		.loc 1 1238 0
 1767 071c 0069     		ldr	r0, [r0, #16]
 1768              	.LVL145:
 1769              	.LBB55:
 1770              	.LBB38:
 1771              		.loc 1 1397 0
 1772 071e C0F3C000 		ubfx	r0, r0, #3, #1
 1773              	.LVL146:
 1774 0722 7047     		bx	lr
 1775              	.LVL147:
 1776              	.L185:
 1777              	.LBE38:
 1778              	.LBE55:
1234:../../source/src/FWlib/src/stm32f10x_can.c **** 	      break;
 1779              		.loc 1 1234 0
 1780 0724 0069     		ldr	r0, [r0, #16]
 1781              	.LVL148:
 1782              	.LBB56:
 1783              	.LBB39:
 1784              		.loc 1 1397 0
ARM GAS  G:\Users\Jaxb\AppData\Local\Temp\cctfzRXv.s 			page 59


 1785 0726 10F00300 		ands	r0, r0, #3
 1786              	.LVL149:
 1787 072a 18BF     		it	ne
 1788 072c 0120     		movne	r0, #1
 1789 072e 7047     		bx	lr
 1790              	.LVL150:
 1791              	.L190:
 1792              	.LBE39:
 1793              	.LBE56:
1258:../../source/src/FWlib/src/stm32f10x_can.c **** 	      break;
 1794              		.loc 1 1258 0
 1795 0730 8069     		ldr	r0, [r0, #24]
 1796              	.LVL151:
 1797              	.LBB57:
 1798              	.LBB40:
 1799              		.loc 1 1397 0
 1800 0732 C0F34000 		ubfx	r0, r0, #1, #1
 1801              	.LVL152:
 1802 0736 7047     		bx	lr
 1803              	.LVL153:
 1804              	.L193:
 1805              	.LBE40:
 1806              	.LBE57:
1246:../../source/src/FWlib/src/stm32f10x_can.c **** 	      break;
 1807              		.loc 1 1246 0
 1808 0738 4068     		ldr	r0, [r0, #4]
 1809              	.LVL154:
 1810              	.LBB58:
 1811              	.LBB41:
 1812              		.loc 1 1397 0
 1813 073a C0F3C000 		ubfx	r0, r0, #3, #1
 1814              	.LVL155:
 1815 073e 7047     		bx	lr
 1816              	.LVL156:
 1817              	.L179:
 1818              	.LBE41:
 1819              	.LBE58:
1242:../../source/src/FWlib/src/stm32f10x_can.c **** 	      break;
 1820              		.loc 1 1242 0
 1821 0740 0069     		ldr	r0, [r0, #16]
 1822              	.LVL157:
 1823              	.LBB59:
 1824              	.LBB42:
 1825              		.loc 1 1397 0
 1826 0742 C0F30010 		ubfx	r0, r0, #4, #1
 1827              	.LVL158:
 1828 0746 7047     		bx	lr
 1829              	.LVL159:
 1830              	.L188:
 1831              	.LBE42:
 1832              	.LBE59:
1266:../../source/src/FWlib/src/stm32f10x_can.c **** 	      break;
 1833              		.loc 1 1266 0
 1834 0748 8369     		ldr	r3, [r0, #24]
 1835              	.LVL160:
 1836              	.LBB60:
 1837              	.LBB51:
ARM GAS  G:\Users\Jaxb\AppData\Local\Temp\cctfzRXv.s 			page 60


1389:../../source/src/FWlib/src/stm32f10x_can.c ****   {
 1838              		.loc 1 1389 0
 1839 074a 13F0700F 		tst	r3, #112
 1840              	.LBE51:
 1841              	.LBE60:
 1842              	.LBB61:
 1843              	.LBB43:
 1844              		.loc 1 1397 0
 1845 074e 14BF     		ite	ne
 1846 0750 0120     		movne	r0, #1
 1847              	.LVL161:
 1848 0752 0020     		moveq	r0, #0
 1849 0754 7047     		bx	lr
 1850              	.LBE43:
 1851              	.LBE61:
 1852              		.cfi_endproc
 1853              	.LFE51:
 1854              		.size	CAN_GetITStatus, .-CAN_GetITStatus
 1855              		.align	1
 1856 0756 00BF     		.p2align 2,,3
 1857              		.global	CAN_ClearITPendingBit
 1858              		.syntax unified
 1859              		.thumb
 1860              		.thumb_func
 1861              		.fpu softvfp
 1862              		.type	CAN_ClearITPendingBit, %function
 1863              	CAN_ClearITPendingBit:
 1864              	.LFB52:
1307:../../source/src/FWlib/src/stm32f10x_can.c ****   /* Check the parameters */
 1865              		.loc 1 1307 0
 1866              		.cfi_startproc
 1867              		@ args = 0, pretend = 0, frame = 0
 1868              		@ frame_needed = 0, uses_anonymous_args = 0
 1869              		@ link register save eliminated.
 1870              	.LVL162:
1312:../../source/src/FWlib/src/stm32f10x_can.c ****   {
 1871              		.loc 1 1312 0
 1872 0758 B1F5807F 		cmp	r1, #256
 1873 075c 1ED0     		beq	.L213
 1874 075e 0DD9     		bls	.L217
 1875 0760 B1F5006F 		cmp	r1, #2048
 1876 0764 24D0     		beq	.L216
 1877 0766 13D9     		bls	.L218
 1878 0768 B1F5803F 		cmp	r1, #65536
 1879 076c 25D0     		beq	.L214
 1880 076e B1F5003F 		cmp	r1, #131072
 1881 0772 2ED0     		beq	.L215
 1882 0774 B1F5004F 		cmp	r1, #32768
 1883 0778 1AD0     		beq	.L216
1377:../../source/src/FWlib/src/stm32f10x_can.c **** 
 1884              		.loc 1 1377 0
 1885 077a 7047     		bx	lr
 1886              	.L217:
1312:../../source/src/FWlib/src/stm32f10x_can.c ****   {
 1887              		.loc 1 1312 0
 1888 077c 0829     		cmp	r1, #8
 1889 077e 1FD0     		beq	.L204
ARM GAS  G:\Users\Jaxb\AppData\Local\Temp\cctfzRXv.s 			page 61


 1890 0780 0FD9     		bls	.L219
 1891 0782 2029     		cmp	r1, #32
 1892 0784 22D0     		beq	.L208
 1893 0786 4029     		cmp	r1, #64
 1894 0788 27D1     		bne	.L220
1332:../../source/src/FWlib/src/stm32f10x_can.c **** 	      break;
 1895              		.loc 1 1332 0
 1896 078a 1023     		movs	r3, #16
 1897 078c 0361     		str	r3, [r0, #16]
1333:../../source/src/FWlib/src/stm32f10x_can.c ****       case CAN_IT_WKU:
 1898              		.loc 1 1333 0
 1899 078e 7047     		bx	lr
 1900              	.L218:
1312:../../source/src/FWlib/src/stm32f10x_can.c ****   {
 1901              		.loc 1 1312 0
 1902 0790 B1F5007F 		cmp	r1, #512
 1903 0794 02D0     		beq	.L213
 1904 0796 B1F5806F 		cmp	r1, #1024
 1905 079a 1DD1     		bne	.L221
 1906              	.L213:
1356:../../source/src/FWlib/src/stm32f10x_can.c ****               /* Note : the corresponding Flag is cleared by hardware depending 
 1907              		.loc 1 1356 0
 1908 079c 0423     		movs	r3, #4
 1909 079e 4360     		str	r3, [r0, #4]
1359:../../source/src/FWlib/src/stm32f10x_can.c ****       case CAN_IT_LEC:
 1910              		.loc 1 1359 0
 1911 07a0 7047     		bx	lr
 1912              	.L219:
1312:../../source/src/FWlib/src/stm32f10x_can.c ****   {
 1913              		.loc 1 1312 0
 1914 07a2 0129     		cmp	r1, #1
 1915 07a4 0FD0     		beq	.L206
 1916 07a6 0429     		cmp	r1, #4
 1917 07a8 18D1     		bne	.L222
1320:../../source/src/FWlib/src/stm32f10x_can.c **** 	      break;
 1918              		.loc 1 1320 0
 1919 07aa 0823     		movs	r3, #8
 1920 07ac C360     		str	r3, [r0, #12]
1321:../../source/src/FWlib/src/stm32f10x_can.c ****       case CAN_IT_FOV0:
 1921              		.loc 1 1321 0
 1922 07ae 7047     		bx	lr
 1923              	.L216:
1368:../../source/src/FWlib/src/stm32f10x_can.c ****               /* Clear CAN_MSR_ERRI (rc_w1) */
 1924              		.loc 1 1368 0
 1925 07b0 0022     		movs	r2, #0
1370:../../source/src/FWlib/src/stm32f10x_can.c **** 	      /* Note : BOFF, EPVF and EWGF Flags are cleared by hardware depending 
 1926              		.loc 1 1370 0
 1927 07b2 0423     		movs	r3, #4
1368:../../source/src/FWlib/src/stm32f10x_can.c ****               /* Clear CAN_MSR_ERRI (rc_w1) */
 1928              		.loc 1 1368 0
 1929 07b4 8261     		str	r2, [r0, #24]
1370:../../source/src/FWlib/src/stm32f10x_can.c **** 	      /* Note : BOFF, EPVF and EWGF Flags are cleared by hardware depending 
 1930              		.loc 1 1370 0
 1931 07b6 4360     		str	r3, [r0, #4]
1377:../../source/src/FWlib/src/stm32f10x_can.c **** 
 1932              		.loc 1 1377 0
 1933 07b8 7047     		bx	lr
ARM GAS  G:\Users\Jaxb\AppData\Local\Temp\cctfzRXv.s 			page 62


 1934              	.L214:
1336:../../source/src/FWlib/src/stm32f10x_can.c **** 	      break;
 1935              		.loc 1 1336 0
 1936 07ba 0823     		movs	r3, #8
 1937 07bc 4360     		str	r3, [r0, #4]
1337:../../source/src/FWlib/src/stm32f10x_can.c ****       case CAN_IT_SLK:
 1938              		.loc 1 1337 0
 1939 07be 7047     		bx	lr
 1940              	.L204:
1324:../../source/src/FWlib/src/stm32f10x_can.c **** 	      break;
 1941              		.loc 1 1324 0
 1942 07c0 1023     		movs	r3, #16
 1943 07c2 C360     		str	r3, [r0, #12]
1325:../../source/src/FWlib/src/stm32f10x_can.c ****       case CAN_IT_FF1:
 1944              		.loc 1 1325 0
 1945 07c4 7047     		bx	lr
 1946              	.L206:
1316:../../source/src/FWlib/src/stm32f10x_can.c **** 	      break;
 1947              		.loc 1 1316 0
 1948 07c6 064B     		ldr	r3, .L223
 1949 07c8 8360     		str	r3, [r0, #8]
1317:../../source/src/FWlib/src/stm32f10x_can.c ****       case CAN_IT_FF0:
 1950              		.loc 1 1317 0
 1951 07ca 7047     		bx	lr
 1952              	.L208:
1328:../../source/src/FWlib/src/stm32f10x_can.c **** 	      break;
 1953              		.loc 1 1328 0
 1954 07cc 0823     		movs	r3, #8
 1955 07ce 0361     		str	r3, [r0, #16]
1329:../../source/src/FWlib/src/stm32f10x_can.c ****       case CAN_IT_FOV1:
 1956              		.loc 1 1329 0
 1957 07d0 7047     		bx	lr
 1958              	.L215:
1340:../../source/src/FWlib/src/stm32f10x_can.c **** 	      break;
 1959              		.loc 1 1340 0
 1960 07d2 1023     		movs	r3, #16
 1961 07d4 4360     		str	r3, [r0, #4]
1341:../../source/src/FWlib/src/stm32f10x_can.c ****       case CAN_IT_EWG:
 1962              		.loc 1 1341 0
 1963 07d6 7047     		bx	lr
 1964              	.L221:
 1965 07d8 7047     		bx	lr
 1966              	.L220:
 1967 07da 7047     		bx	lr
 1968              	.L222:
 1969 07dc 7047     		bx	lr
 1970              	.L224:
 1971 07de 00BF     		.align	2
 1972              	.L223:
 1973 07e0 01010100 		.word	65793
 1974              		.cfi_endproc
 1975              	.LFE52:
 1976              		.size	CAN_ClearITPendingBit, .-CAN_ClearITPendingBit
 1977              	.Letext0:
 1978              		.file 2 "f:\\arm\\gcc2018\\arm-none-eabi\\include\\machine\\_default_types.h"
 1979              		.file 3 "f:\\arm\\gcc2018\\arm-none-eabi\\include\\sys\\_stdint.h"
 1980              		.file 4 "../../source/include/core_cm3.h"
ARM GAS  G:\Users\Jaxb\AppData\Local\Temp\cctfzRXv.s 			page 63


 1981              		.file 5 "../../source/include/system_stm32f10x.h"
 1982              		.file 6 "../../source/include/stm32f10x.h"
 1983              		.file 7 "../../source/src/FWlib/inc/stm32f10x_can.h"
 1984              		.file 8 "../../source/src/FWlib/inc/stm32f10x_rcc.h"