ARM GAS  G:\Users\Jaxb\AppData\Local\Temp\ccIu7BO8.s 			page 1


   1              		.cpu cortex-m3
   2              		.eabi_attribute 20, 1
   3              		.eabi_attribute 21, 1
   4              		.eabi_attribute 23, 3
   5              		.eabi_attribute 24, 1
   6              		.eabi_attribute 25, 1
   7              		.eabi_attribute 26, 1
   8              		.eabi_attribute 30, 2
   9              		.eabi_attribute 34, 1
  10              		.eabi_attribute 18, 4
  11              		.file	"stm32f10x_it.c"
  12              		.text
  13              	.Ltext0:
  14              		.cfi_sections	.debug_frame
  15              		.align	1
  16              		.p2align 2,,3
  17              		.global	NMI_Handler
  18              		.syntax unified
  19              		.thumb
  20              		.thumb_func
  21              		.fpu softvfp
  22              		.type	NMI_Handler, %function
  23              	NMI_Handler:
  24              	.LFB39:
  25              		.file 1 "../../source/src/user/OS_CPU/stm32f10x_it.c"
   1:../../source/src/user/OS_CPU/stm32f10x_it.c **** /**
   2:../../source/src/user/OS_CPU/stm32f10x_it.c ****   ******************************************************************************
   3:../../source/src/user/OS_CPU/stm32f10x_it.c ****   * @file    Project/STM32F10x_StdPeriph_Template/stm32f10x_it.c 
   4:../../source/src/user/OS_CPU/stm32f10x_it.c ****   * @author  MCD Application Team
   5:../../source/src/user/OS_CPU/stm32f10x_it.c ****   * @version V3.5.0
   6:../../source/src/user/OS_CPU/stm32f10x_it.c ****   * @date    08-April-2011
   7:../../source/src/user/OS_CPU/stm32f10x_it.c ****   * @brief   Main Interrupt Service Routines.
   8:../../source/src/user/OS_CPU/stm32f10x_it.c ****   *          This file provides template for all exceptions handler and 
   9:../../source/src/user/OS_CPU/stm32f10x_it.c ****   *          peripherals interrupt service routine.
  10:../../source/src/user/OS_CPU/stm32f10x_it.c ****   ******************************************************************************
  11:../../source/src/user/OS_CPU/stm32f10x_it.c ****   * @attention
  12:../../source/src/user/OS_CPU/stm32f10x_it.c ****   *
  13:../../source/src/user/OS_CPU/stm32f10x_it.c ****   * THE PRESENT FIRMWARE WHICH IS FOR GUIDANCE ONLY AIMS AT PROVIDING CUSTOMERS
  14:../../source/src/user/OS_CPU/stm32f10x_it.c ****   * WITH CODING INFORMATION REGARDING THEIR PRODUCTS IN ORDER FOR THEM TO SAVE
  15:../../source/src/user/OS_CPU/stm32f10x_it.c ****   * TIME. AS A RESULT, STMICROELECTRONICS SHALL NOT BE HELD LIABLE FOR ANY
  16:../../source/src/user/OS_CPU/stm32f10x_it.c ****   * DIRECT, INDIRECT OR CONSEQUENTI
  17:../../source/src/user/OS_CPU/stm32f10x_it.c ****   
  18:../../source/src/user/OS_CPU/stm32f10x_it.c ****   AL DAMAGES WITH RESPECT TO ANY CLAIMS ARISING
  19:../../source/src/user/OS_CPU/stm32f10x_it.c ****   * FROM THE CONTENT OF SUCH FIRMWARE AND/OR THE USE MADE BY CUSTOMERS OF THE
  20:../../source/src/user/OS_CPU/stm32f10x_it.c ****   * CODING INFORMATION CONTAINED HEREIN IN CONNECTION WITH THEIR PRODUCTS.
  21:../../source/src/user/OS_CPU/stm32f10x_it.c ****   *
  22:../../source/src/user/OS_CPU/stm32f10x_it.c ****   * <h2><center>&copy; COPYRIGHT 2011 STMicroelectronics</center></h2>
  23:../../source/src/user/OS_CPU/stm32f10x_it.c ****   ******************************************************************************
  24:../../source/src/user/OS_CPU/stm32f10x_it.c ****   */
  25:../../source/src/user/OS_CPU/stm32f10x_it.c **** 
  26:../../source/src/user/OS_CPU/stm32f10x_it.c **** /* Includes ------------------------------------------------------------------*/
  27:../../source/src/user/OS_CPU/stm32f10x_it.c **** #include "stm32f10x_it.h"
  28:../../source/src/user/OS_CPU/stm32f10x_it.c **** #include "bsp_usart.h"
  29:../../source/src/user/OS_CPU/stm32f10x_it.c **** #include "myMicroLIB.h"
  30:../../source/src/user/OS_CPU/stm32f10x_it.c **** #include "myassert.h"
  31:../../source/src/user/OS_CPU/stm32f10x_it.c **** #include "TCB.h"
  32:../../source/src/user/OS_CPU/stm32f10x_it.c **** /** @addtogroup STM32F10x_StdPeriph_Template
ARM GAS  G:\Users\Jaxb\AppData\Local\Temp\ccIu7BO8.s 			page 2


  33:../../source/src/user/OS_CPU/stm32f10x_it.c ****   * @{
  34:../../source/src/user/OS_CPU/stm32f10x_it.c ****   */
  35:../../source/src/user/OS_CPU/stm32f10x_it.c **** 
  36:../../source/src/user/OS_CPU/stm32f10x_it.c **** /* Private typedef -----------------------------------------------------------*/
  37:../../source/src/user/OS_CPU/stm32f10x_it.c **** /* Private define ------------------------------------------------------------*/
  38:../../source/src/user/OS_CPU/stm32f10x_it.c **** /* Private macro -------------------------------------------------------------*/
  39:../../source/src/user/OS_CPU/stm32f10x_it.c **** /* Private variables ---------------------------------------------------------*/
  40:../../source/src/user/OS_CPU/stm32f10x_it.c **** /* Private function prototypes -----------------------------------------------*/
  41:../../source/src/user/OS_CPU/stm32f10x_it.c **** /* Private functions ---------------------------------------------------------*/
  42:../../source/src/user/OS_CPU/stm32f10x_it.c **** 
  43:../../source/src/user/OS_CPU/stm32f10x_it.c **** /******************************************************************************/
  44:../../source/src/user/OS_CPU/stm32f10x_it.c **** /*            Cortex-M3 Processor Exceptions Handlers                         */
  45:../../source/src/user/OS_CPU/stm32f10x_it.c **** /******************************************************************************/
  46:../../source/src/user/OS_CPU/stm32f10x_it.c **** 
  47:../../source/src/user/OS_CPU/stm32f10x_it.c **** /**
  48:../../source/src/user/OS_CPU/stm32f10x_it.c ****   * @brief  This function handles NMI exception.
  49:../../source/src/user/OS_CPU/stm32f10x_it.c ****   * @param  None
  50:../../source/src/user/OS_CPU/stm32f10x_it.c ****   * @retval None
  51:../../source/src/user/OS_CPU/stm32f10x_it.c ****   */
  52:../../source/src/user/OS_CPU/stm32f10x_it.c **** void NMI_Handler(void)
  53:../../source/src/user/OS_CPU/stm32f10x_it.c **** {
  26              		.loc 1 53 0
  27              		.cfi_startproc
  28              		@ args = 0, pretend = 0, frame = 0
  29              		@ frame_needed = 0, uses_anonymous_args = 0
  30              		@ link register save eliminated.
  54:../../source/src/user/OS_CPU/stm32f10x_it.c **** }
  31              		.loc 1 54 0
  32 0000 7047     		bx	lr
  33              		.cfi_endproc
  34              	.LFE39:
  35              		.size	NMI_Handler, .-NMI_Handler
  36              		.align	1
  37 0002 00BF     		.p2align 2,,3
  38              		.global	hard_fault_handler_c
  39              		.syntax unified
  40              		.thumb
  41              		.thumb_func
  42              		.fpu softvfp
  43              		.type	hard_fault_handler_c, %function
  44              	hard_fault_handler_c:
  45              	.LFB40:
  55:../../source/src/user/OS_CPU/stm32f10x_it.c **** 
  56:../../source/src/user/OS_CPU/stm32f10x_it.c **** /**
  57:../../source/src/user/OS_CPU/stm32f10x_it.c ****   * @brief  This function handles Hard Fault exception.
  58:../../source/src/user/OS_CPU/stm32f10x_it.c ****   * @param  None
  59:../../source/src/user/OS_CPU/stm32f10x_it.c ****   * @retval None
  60:../../source/src/user/OS_CPU/stm32f10x_it.c ****   */
  61:../../source/src/user/OS_CPU/stm32f10x_it.c **** //void HardFault_Handler(void)
  62:../../source/src/user/OS_CPU/stm32f10x_it.c **** //{
  63:../../source/src/user/OS_CPU/stm32f10x_it.c **** //  /* Go to infinite loop when Hard Fault exception occurs */
  64:../../source/src/user/OS_CPU/stm32f10x_it.c **** //  while (1)
  65:../../source/src/user/OS_CPU/stm32f10x_it.c **** //  {
  66:../../source/src/user/OS_CPU/stm32f10x_it.c **** //  }
  67:../../source/src/user/OS_CPU/stm32f10x_it.c **** //}
  68:../../source/src/user/OS_CPU/stm32f10x_it.c **** 
  69:../../source/src/user/OS_CPU/stm32f10x_it.c **** void hard_fault_handler_c(unsigned int * hardfault_args)   
ARM GAS  G:\Users\Jaxb\AppData\Local\Temp\ccIu7BO8.s 			page 3


  70:../../source/src/user/OS_CPU/stm32f10x_it.c **** 
  71:../../source/src/user/OS_CPU/stm32f10x_it.c **** {   
  46              		.loc 1 71 0
  47              		.cfi_startproc
  48              		@ args = 0, pretend = 0, frame = 0
  49              		@ frame_needed = 0, uses_anonymous_args = 0
  50              	.LVL0:
  51 0004 2DE9F84F 		push	{r3, r4, r5, r6, r7, r8, r9, r10, fp, lr}
  52              	.LCFI0:
  53              		.cfi_def_cfa_offset 40
  54              		.cfi_offset 3, -40
  55              		.cfi_offset 4, -36
  56              		.cfi_offset 5, -32
  57              		.cfi_offset 6, -28
  58              		.cfi_offset 7, -24
  59              		.cfi_offset 8, -20
  60              		.cfi_offset 9, -16
  61              		.cfi_offset 10, -12
  62              		.cfi_offset 11, -8
  63              		.cfi_offset 14, -4
  64              		.loc 1 71 0
  65 0008 0346     		mov	r3, r0
  72:../../source/src/user/OS_CPU/stm32f10x_it.c **** 
  73:../../source/src/user/OS_CPU/stm32f10x_it.c **** unsigned int stacked_r0;   
  74:../../source/src/user/OS_CPU/stm32f10x_it.c **** 
  75:../../source/src/user/OS_CPU/stm32f10x_it.c **** unsigned int stacked_r1;   
  76:../../source/src/user/OS_CPU/stm32f10x_it.c **** 
  77:../../source/src/user/OS_CPU/stm32f10x_it.c **** unsigned int stacked_r2;   
  78:../../source/src/user/OS_CPU/stm32f10x_it.c **** 
  79:../../source/src/user/OS_CPU/stm32f10x_it.c **** unsigned int stacked_r3;   
  80:../../source/src/user/OS_CPU/stm32f10x_it.c **** 
  81:../../source/src/user/OS_CPU/stm32f10x_it.c **** unsigned int stacked_r12;   
  82:../../source/src/user/OS_CPU/stm32f10x_it.c **** 
  83:../../source/src/user/OS_CPU/stm32f10x_it.c **** unsigned int stacked_lr;   
  84:../../source/src/user/OS_CPU/stm32f10x_it.c **** 
  85:../../source/src/user/OS_CPU/stm32f10x_it.c **** unsigned int stacked_pc;   
  86:../../source/src/user/OS_CPU/stm32f10x_it.c **** 
  87:../../source/src/user/OS_CPU/stm32f10x_it.c **** unsigned int stacked_psr;   
  88:../../source/src/user/OS_CPU/stm32f10x_it.c **** 
  89:../../source/src/user/OS_CPU/stm32f10x_it.c ****   
  90:../../source/src/user/OS_CPU/stm32f10x_it.c **** 
  91:../../source/src/user/OS_CPU/stm32f10x_it.c **** stacked_r0 = ((unsigned long) hardfault_args[0]);   
  92:../../source/src/user/OS_CPU/stm32f10x_it.c **** 
  93:../../source/src/user/OS_CPU/stm32f10x_it.c **** stacked_r1 = ((unsigned long) hardfault_args[1]);   
  94:../../source/src/user/OS_CPU/stm32f10x_it.c **** 
  95:../../source/src/user/OS_CPU/stm32f10x_it.c **** stacked_r2 = ((unsigned long) hardfault_args[2]);   
  96:../../source/src/user/OS_CPU/stm32f10x_it.c **** 
  97:../../source/src/user/OS_CPU/stm32f10x_it.c **** stacked_r3 = ((unsigned long) hardfault_args[3]);   
  98:../../source/src/user/OS_CPU/stm32f10x_it.c **** 
  99:../../source/src/user/OS_CPU/stm32f10x_it.c ****   
 100:../../source/src/user/OS_CPU/stm32f10x_it.c **** 
 101:../../source/src/user/OS_CPU/stm32f10x_it.c **** stacked_r12 = ((unsigned long) hardfault_args[4]);   
 102:../../source/src/user/OS_CPU/stm32f10x_it.c **** 
 103:../../source/src/user/OS_CPU/stm32f10x_it.c **** stacked_lr = ((unsigned long) hardfault_args[5]);   
 104:../../source/src/user/OS_CPU/stm32f10x_it.c **** 
 105:../../source/src/user/OS_CPU/stm32f10x_it.c **** stacked_pc = ((unsigned long) hardfault_args[6]);   
 106:../../source/src/user/OS_CPU/stm32f10x_it.c **** 
ARM GAS  G:\Users\Jaxb\AppData\Local\Temp\ccIu7BO8.s 			page 4


 107:../../source/src/user/OS_CPU/stm32f10x_it.c **** stacked_psr = ((unsigned long) hardfault_args[7]);   
 108:../../source/src/user/OS_CPU/stm32f10x_it.c **** 
 109:../../source/src/user/OS_CPU/stm32f10x_it.c ****   
 110:../../source/src/user/OS_CPU/stm32f10x_it.c **** 
 111:../../source/src/user/OS_CPU/stm32f10x_it.c **** ka_printf ("[Hard fault handler]\n");   
  66              		.loc 1 111 0
  67 000a 2248     		ldr	r0, .L5
  68              	.LVL1:
  93:../../source/src/user/OS_CPU/stm32f10x_it.c **** 
  69              		.loc 1 93 0
  70 000c D3E900BA 		ldrd	fp, r10, [r3]
  71              	.LVL2:
  97:../../source/src/user/OS_CPU/stm32f10x_it.c **** 
  72              		.loc 1 97 0
  73 0010 D3E90298 		ldrd	r9, r8, [r3, #8]
  74              	.LVL3:
 103:../../source/src/user/OS_CPU/stm32f10x_it.c **** 
  75              		.loc 1 103 0
  76 0014 D3E90476 		ldrd	r7, r6, [r3, #16]
  77              	.LVL4:
 107:../../source/src/user/OS_CPU/stm32f10x_it.c **** 
  78              		.loc 1 107 0
  79 0018 D3E90654 		ldrd	r5, r4, [r3, #24]
  80              	.LVL5:
  81              		.loc 1 111 0
  82 001c FFF7FEFF 		bl	ka_printf
  83              	.LVL6:
 112:../../source/src/user/OS_CPU/stm32f10x_it.c **** 
 113:../../source/src/user/OS_CPU/stm32f10x_it.c **** ka_printf ("R0 = %x\r\n", stacked_r0);   
  84              		.loc 1 113 0
  85 0020 5946     		mov	r1, fp
  86 0022 1D48     		ldr	r0, .L5+4
  87 0024 FFF7FEFF 		bl	ka_printf
  88              	.LVL7:
 114:../../source/src/user/OS_CPU/stm32f10x_it.c **** 
 115:../../source/src/user/OS_CPU/stm32f10x_it.c **** ka_printf ("R1 = %x\r\n", stacked_r1);   
  89              		.loc 1 115 0
  90 0028 5146     		mov	r1, r10
  91 002a 1C48     		ldr	r0, .L5+8
  92 002c FFF7FEFF 		bl	ka_printf
  93              	.LVL8:
 116:../../source/src/user/OS_CPU/stm32f10x_it.c **** 
 117:../../source/src/user/OS_CPU/stm32f10x_it.c **** ka_printf ("R2 = %x\r\n", stacked_r2);   
  94              		.loc 1 117 0
  95 0030 4946     		mov	r1, r9
  96 0032 1B48     		ldr	r0, .L5+12
  97 0034 FFF7FEFF 		bl	ka_printf
  98              	.LVL9:
 118:../../source/src/user/OS_CPU/stm32f10x_it.c **** 
 119:../../source/src/user/OS_CPU/stm32f10x_it.c **** ka_printf ("R3 = %x\r\n", stacked_r3);   
  99              		.loc 1 119 0
 100 0038 4146     		mov	r1, r8
 101 003a 1A48     		ldr	r0, .L5+16
 102 003c FFF7FEFF 		bl	ka_printf
 103              	.LVL10:
 120:../../source/src/user/OS_CPU/stm32f10x_it.c **** 
 121:../../source/src/user/OS_CPU/stm32f10x_it.c **** ka_printf ("R12 = %x\r\n", stacked_r12);   
ARM GAS  G:\Users\Jaxb\AppData\Local\Temp\ccIu7BO8.s 			page 5


 104              		.loc 1 121 0
 105 0040 3946     		mov	r1, r7
 106 0042 1948     		ldr	r0, .L5+20
 107 0044 FFF7FEFF 		bl	ka_printf
 108              	.LVL11:
 122:../../source/src/user/OS_CPU/stm32f10x_it.c **** 
 123:../../source/src/user/OS_CPU/stm32f10x_it.c **** ka_printf ("LR = %x\r\n", stacked_lr);   
 109              		.loc 1 123 0
 110 0048 3146     		mov	r1, r6
 111 004a 1848     		ldr	r0, .L5+24
 112 004c FFF7FEFF 		bl	ka_printf
 113              	.LVL12:
 124:../../source/src/user/OS_CPU/stm32f10x_it.c **** 
 125:../../source/src/user/OS_CPU/stm32f10x_it.c **** ka_printf ("PC = %x\r\n", stacked_pc);   
 114              		.loc 1 125 0
 115 0050 2946     		mov	r1, r5
 116 0052 1748     		ldr	r0, .L5+28
 117 0054 FFF7FEFF 		bl	ka_printf
 118              	.LVL13:
 126:../../source/src/user/OS_CPU/stm32f10x_it.c **** 
 127:../../source/src/user/OS_CPU/stm32f10x_it.c **** ka_printf ("PSR = %x\r\n", stacked_psr);   
 119              		.loc 1 127 0
 120 0058 2146     		mov	r1, r4
 121 005a 1648     		ldr	r0, .L5+32
 122 005c FFF7FEFF 		bl	ka_printf
 123              	.LVL14:
 128:../../source/src/user/OS_CPU/stm32f10x_it.c **** 
 129:../../source/src/user/OS_CPU/stm32f10x_it.c **** ka_printf ("BFAR = %x\r\n", (*((volatile unsigned long *)(0xE000ED38))));   
 124              		.loc 1 129 0
 125 0060 154B     		ldr	r3, .L5+36
 126 0062 1648     		ldr	r0, .L5+40
 127 0064 1968     		ldr	r1, [r3]
 128 0066 FFF7FEFF 		bl	ka_printf
 129              	.LVL15:
 130:../../source/src/user/OS_CPU/stm32f10x_it.c **** 
 131:../../source/src/user/OS_CPU/stm32f10x_it.c **** ka_printf ("CFSR = %x\r\n", (*((volatile unsigned long *)(0xE000ED28))));   
 130              		.loc 1 131 0
 131 006a 154B     		ldr	r3, .L5+44
 132 006c 1548     		ldr	r0, .L5+48
 133 006e 1968     		ldr	r1, [r3]
 134 0070 FFF7FEFF 		bl	ka_printf
 135              	.LVL16:
 132:../../source/src/user/OS_CPU/stm32f10x_it.c **** 
 133:../../source/src/user/OS_CPU/stm32f10x_it.c **** ka_printf ("HFSR = %x\r\n", (*((volatile unsigned long *)(0xE000ED2C))));   
 136              		.loc 1 133 0
 137 0074 144B     		ldr	r3, .L5+52
 138 0076 1548     		ldr	r0, .L5+56
 139 0078 1968     		ldr	r1, [r3]
 140 007a FFF7FEFF 		bl	ka_printf
 141              	.LVL17:
 134:../../source/src/user/OS_CPU/stm32f10x_it.c **** 
 135:../../source/src/user/OS_CPU/stm32f10x_it.c **** ka_printf ("DFSR = %x\r\n", (*((volatile unsigned long *)(0xE000ED30))));   
 142              		.loc 1 135 0
 143 007e 144B     		ldr	r3, .L5+60
 144 0080 1448     		ldr	r0, .L5+64
 145 0082 1968     		ldr	r1, [r3]
 146 0084 FFF7FEFF 		bl	ka_printf
ARM GAS  G:\Users\Jaxb\AppData\Local\Temp\ccIu7BO8.s 			page 6


 147              	.LVL18:
 136:../../source/src/user/OS_CPU/stm32f10x_it.c **** 
 137:../../source/src/user/OS_CPU/stm32f10x_it.c **** ka_printf ("AFSR = %x\r\n", (*((volatile unsigned long *)(0xE000ED3C))));   
 148              		.loc 1 137 0
 149 0088 134B     		ldr	r3, .L5+68
 150 008a 1448     		ldr	r0, .L5+72
 151 008c 1968     		ldr	r1, [r3]
 152 008e FFF7FEFF 		bl	ka_printf
 153              	.LVL19:
 154              	.L4:
 155 0092 FEE7     		b	.L4
 156              	.L6:
 157              		.align	2
 158              	.L5:
 159 0094 00000000 		.word	.LC0
 160 0098 18000000 		.word	.LC1
 161 009c 24000000 		.word	.LC2
 162 00a0 30000000 		.word	.LC3
 163 00a4 3C000000 		.word	.LC4
 164 00a8 48000000 		.word	.LC5
 165 00ac 54000000 		.word	.LC6
 166 00b0 60000000 		.word	.LC7
 167 00b4 6C000000 		.word	.LC8
 168 00b8 38ED00E0 		.word	-536810184
 169 00bc 78000000 		.word	.LC9
 170 00c0 28ED00E0 		.word	-536810200
 171 00c4 84000000 		.word	.LC10
 172 00c8 2CED00E0 		.word	-536810196
 173 00cc 90000000 		.word	.LC11
 174 00d0 30ED00E0 		.word	-536810192
 175 00d4 9C000000 		.word	.LC12
 176 00d8 3CED00E0 		.word	-536810180
 177 00dc A8000000 		.word	.LC13
 178              		.cfi_endproc
 179              	.LFE40:
 180              		.size	hard_fault_handler_c, .-hard_fault_handler_c
 181              		.align	1
 182              		.p2align 2,,3
 183              		.global	MemManage_Handler
 184              		.syntax unified
 185              		.thumb
 186              		.thumb_func
 187              		.fpu softvfp
 188              		.type	MemManage_Handler, %function
 189              	MemManage_Handler:
 190              	.LFB41:
 138:../../source/src/user/OS_CPU/stm32f10x_it.c **** 
 139:../../source/src/user/OS_CPU/stm32f10x_it.c ****   
 140:../../source/src/user/OS_CPU/stm32f10x_it.c **** 
 141:../../source/src/user/OS_CPU/stm32f10x_it.c ****     
 142:../../source/src/user/OS_CPU/stm32f10x_it.c **** 
 143:../../source/src/user/OS_CPU/stm32f10x_it.c **** while(1) 
 144:../../source/src/user/OS_CPU/stm32f10x_it.c **** 
 145:../../source/src/user/OS_CPU/stm32f10x_it.c **** { 
 146:../../source/src/user/OS_CPU/stm32f10x_it.c **** 
 147:../../source/src/user/OS_CPU/stm32f10x_it.c ****         ;; 
 148:../../source/src/user/OS_CPU/stm32f10x_it.c **** 
ARM GAS  G:\Users\Jaxb\AppData\Local\Temp\ccIu7BO8.s 			page 7


 149:../../source/src/user/OS_CPU/stm32f10x_it.c **** } 
 150:../../source/src/user/OS_CPU/stm32f10x_it.c **** 
 151:../../source/src/user/OS_CPU/stm32f10x_it.c ****   
 152:../../source/src/user/OS_CPU/stm32f10x_it.c **** 
 153:../../source/src/user/OS_CPU/stm32f10x_it.c **** } 
 154:../../source/src/user/OS_CPU/stm32f10x_it.c **** 
 155:../../source/src/user/OS_CPU/stm32f10x_it.c **** /**
 156:../../source/src/user/OS_CPU/stm32f10x_it.c ****   * @brief  This function handles Memory Manage exception.
 157:../../source/src/user/OS_CPU/stm32f10x_it.c ****   * @param  None
 158:../../source/src/user/OS_CPU/stm32f10x_it.c ****   * @retval None
 159:../../source/src/user/OS_CPU/stm32f10x_it.c ****   */
 160:../../source/src/user/OS_CPU/stm32f10x_it.c **** void MemManage_Handler(void)
 161:../../source/src/user/OS_CPU/stm32f10x_it.c **** {
 191              		.loc 1 161 0
 192              		.cfi_startproc
 193              		@ Volatile: function does not return.
 194              		@ args = 0, pretend = 0, frame = 0
 195              		@ frame_needed = 0, uses_anonymous_args = 0
 196              		@ link register save eliminated.
 197              	.L8:
 198 00e0 FEE7     		b	.L8
 199              		.cfi_endproc
 200              	.LFE41:
 201              		.size	MemManage_Handler, .-MemManage_Handler
 202              		.align	1
 203 00e2 00BF     		.p2align 2,,3
 204              		.global	BusFault_Handler
 205              		.syntax unified
 206              		.thumb
 207              		.thumb_func
 208              		.fpu softvfp
 209              		.type	BusFault_Handler, %function
 210              	BusFault_Handler:
 211              	.LFB42:
 162:../../source/src/user/OS_CPU/stm32f10x_it.c ****   /* Go to infinite loop when Memory Manage exception occurs */
 163:../../source/src/user/OS_CPU/stm32f10x_it.c ****   while (1)
 164:../../source/src/user/OS_CPU/stm32f10x_it.c ****   {
 165:../../source/src/user/OS_CPU/stm32f10x_it.c ****   }
 166:../../source/src/user/OS_CPU/stm32f10x_it.c **** }
 167:../../source/src/user/OS_CPU/stm32f10x_it.c **** 
 168:../../source/src/user/OS_CPU/stm32f10x_it.c **** /**
 169:../../source/src/user/OS_CPU/stm32f10x_it.c ****   * @brief  This function handles Bus Fault exception.
 170:../../source/src/user/OS_CPU/stm32f10x_it.c ****   * @param  None
 171:../../source/src/user/OS_CPU/stm32f10x_it.c ****   * @retval None
 172:../../source/src/user/OS_CPU/stm32f10x_it.c ****   */
 173:../../source/src/user/OS_CPU/stm32f10x_it.c **** void BusFault_Handler(void)
 174:../../source/src/user/OS_CPU/stm32f10x_it.c **** {
 212              		.loc 1 174 0
 213              		.cfi_startproc
 214              		@ Volatile: function does not return.
 215              		@ args = 0, pretend = 0, frame = 0
 216              		@ frame_needed = 0, uses_anonymous_args = 0
 217              		@ link register save eliminated.
 218              	.L10:
 219 00e4 FEE7     		b	.L10
 220              		.cfi_endproc
 221              	.LFE42:
ARM GAS  G:\Users\Jaxb\AppData\Local\Temp\ccIu7BO8.s 			page 8


 222              		.size	BusFault_Handler, .-BusFault_Handler
 223              		.align	1
 224 00e6 00BF     		.p2align 2,,3
 225              		.global	UsageFault_Handler
 226              		.syntax unified
 227              		.thumb
 228              		.thumb_func
 229              		.fpu softvfp
 230              		.type	UsageFault_Handler, %function
 231              	UsageFault_Handler:
 232              	.LFB43:
 175:../../source/src/user/OS_CPU/stm32f10x_it.c ****   /* Go to infinite loop when Bus Fault exception occurs */
 176:../../source/src/user/OS_CPU/stm32f10x_it.c ****   while (1)
 177:../../source/src/user/OS_CPU/stm32f10x_it.c ****   {
 178:../../source/src/user/OS_CPU/stm32f10x_it.c ****   }
 179:../../source/src/user/OS_CPU/stm32f10x_it.c **** }
 180:../../source/src/user/OS_CPU/stm32f10x_it.c **** 
 181:../../source/src/user/OS_CPU/stm32f10x_it.c **** /**
 182:../../source/src/user/OS_CPU/stm32f10x_it.c ****   * @brief  This function handles Usage Fault exception.
 183:../../source/src/user/OS_CPU/stm32f10x_it.c ****   * @param  None
 184:../../source/src/user/OS_CPU/stm32f10x_it.c ****   * @retval None
 185:../../source/src/user/OS_CPU/stm32f10x_it.c ****   */
 186:../../source/src/user/OS_CPU/stm32f10x_it.c **** void UsageFault_Handler(void)
 187:../../source/src/user/OS_CPU/stm32f10x_it.c **** {
 233              		.loc 1 187 0
 234              		.cfi_startproc
 235              		@ Volatile: function does not return.
 236              		@ args = 0, pretend = 0, frame = 0
 237              		@ frame_needed = 0, uses_anonymous_args = 0
 238              		@ link register save eliminated.
 239              	.L12:
 240 00e8 FEE7     		b	.L12
 241              		.cfi_endproc
 242              	.LFE43:
 243              		.size	UsageFault_Handler, .-UsageFault_Handler
 244              		.align	1
 245 00ea 00BF     		.p2align 2,,3
 246              		.global	SVC_Handler
 247              		.syntax unified
 248              		.thumb
 249              		.thumb_func
 250              		.fpu softvfp
 251              		.type	SVC_Handler, %function
 252              	SVC_Handler:
 253              	.LFB50:
 254              		.cfi_startproc
 255              		@ args = 0, pretend = 0, frame = 0
 256              		@ frame_needed = 0, uses_anonymous_args = 0
 257              		@ link register save eliminated.
 258 00ec 7047     		bx	lr
 259              		.cfi_endproc
 260              	.LFE50:
 261              		.size	SVC_Handler, .-SVC_Handler
 262              		.align	1
 263 00ee 00BF     		.p2align 2,,3
 264              		.global	DebugMon_Handler
 265              		.syntax unified
ARM GAS  G:\Users\Jaxb\AppData\Local\Temp\ccIu7BO8.s 			page 9


 266              		.thumb
 267              		.thumb_func
 268              		.fpu softvfp
 269              		.type	DebugMon_Handler, %function
 270              	DebugMon_Handler:
 271              	.LFB52:
 272              		.cfi_startproc
 273              		@ args = 0, pretend = 0, frame = 0
 274              		@ frame_needed = 0, uses_anonymous_args = 0
 275              		@ link register save eliminated.
 276 00f0 7047     		bx	lr
 277              		.cfi_endproc
 278              	.LFE52:
 279              		.size	DebugMon_Handler, .-DebugMon_Handler
 280              		.align	1
 281 00f2 00BF     		.p2align 2,,3
 282              		.global	PendSV_Handler
 283              		.syntax unified
 284              		.thumb
 285              		.thumb_func
 286              		.fpu softvfp
 287              		.type	PendSV_Handler, %function
 288              	PendSV_Handler:
 289              	.LFB54:
 290              		.cfi_startproc
 291              		@ args = 0, pretend = 0, frame = 0
 292              		@ frame_needed = 0, uses_anonymous_args = 0
 293              		@ link register save eliminated.
 294 00f4 7047     		bx	lr
 295              		.cfi_endproc
 296              	.LFE54:
 297              		.size	PendSV_Handler, .-PendSV_Handler
 298              		.align	1
 299 00f6 00BF     		.p2align 2,,3
 300              		.global	SysTick_Handler
 301              		.syntax unified
 302              		.thumb
 303              		.thumb_func
 304              		.fpu softvfp
 305              		.type	SysTick_Handler, %function
 306              	SysTick_Handler:
 307              	.LFB56:
 308              		.cfi_startproc
 309              		@ args = 0, pretend = 0, frame = 0
 310              		@ frame_needed = 0, uses_anonymous_args = 0
 311              		@ link register save eliminated.
 312 00f8 7047     		bx	lr
 313              		.cfi_endproc
 314              	.LFE56:
 315              		.size	SysTick_Handler, .-SysTick_Handler
 316              		.align	1
 317 00fa 00BF     		.p2align 2,,3
 318              		.global	USART1_IRQHandler
 319              		.syntax unified
 320              		.thumb
 321              		.thumb_func
 322              		.fpu softvfp
ARM GAS  G:\Users\Jaxb\AppData\Local\Temp\ccIu7BO8.s 			page 10


 323              		.type	USART1_IRQHandler, %function
 324              	USART1_IRQHandler:
 325              	.LFB48:
 188:../../source/src/user/OS_CPU/stm32f10x_it.c ****   /* Go to infinite loop when Usage Fault exception occurs */
 189:../../source/src/user/OS_CPU/stm32f10x_it.c ****   while (1)
 190:../../source/src/user/OS_CPU/stm32f10x_it.c ****   {
 191:../../source/src/user/OS_CPU/stm32f10x_it.c ****   }
 192:../../source/src/user/OS_CPU/stm32f10x_it.c **** }
 193:../../source/src/user/OS_CPU/stm32f10x_it.c **** 
 194:../../source/src/user/OS_CPU/stm32f10x_it.c **** /**
 195:../../source/src/user/OS_CPU/stm32f10x_it.c ****   * @brief  This function handles SVCall exception.
 196:../../source/src/user/OS_CPU/stm32f10x_it.c ****   * @param  None
 197:../../source/src/user/OS_CPU/stm32f10x_it.c ****   * @retval None
 198:../../source/src/user/OS_CPU/stm32f10x_it.c ****   */
 199:../../source/src/user/OS_CPU/stm32f10x_it.c **** 
 200:../../source/src/user/OS_CPU/stm32f10x_it.c **** void SVC_Handler(void)
 201:../../source/src/user/OS_CPU/stm32f10x_it.c **** {
 202:../../source/src/user/OS_CPU/stm32f10x_it.c **** 
 203:../../source/src/user/OS_CPU/stm32f10x_it.c **** }
 204:../../source/src/user/OS_CPU/stm32f10x_it.c **** 
 205:../../source/src/user/OS_CPU/stm32f10x_it.c **** /**
 206:../../source/src/user/OS_CPU/stm32f10x_it.c ****   * @brief  This function handles Debug Monitor exception.
 207:../../source/src/user/OS_CPU/stm32f10x_it.c ****   * @param  None
 208:../../source/src/user/OS_CPU/stm32f10x_it.c ****   * @retval None
 209:../../source/src/user/OS_CPU/stm32f10x_it.c ****   */
 210:../../source/src/user/OS_CPU/stm32f10x_it.c **** void DebugMon_Handler(void)
 211:../../source/src/user/OS_CPU/stm32f10x_it.c **** {
 212:../../source/src/user/OS_CPU/stm32f10x_it.c **** }
 213:../../source/src/user/OS_CPU/stm32f10x_it.c **** 
 214:../../source/src/user/OS_CPU/stm32f10x_it.c **** /**
 215:../../source/src/user/OS_CPU/stm32f10x_it.c ****   * @brief  This function handles PendSVC exception.
 216:../../source/src/user/OS_CPU/stm32f10x_it.c ****   * @param  None
 217:../../source/src/user/OS_CPU/stm32f10x_it.c ****   * @retval None
 218:../../source/src/user/OS_CPU/stm32f10x_it.c ****   */
 219:../../source/src/user/OS_CPU/stm32f10x_it.c **** void PendSV_Handler(void)
 220:../../source/src/user/OS_CPU/stm32f10x_it.c **** {
 221:../../source/src/user/OS_CPU/stm32f10x_it.c **** }
 222:../../source/src/user/OS_CPU/stm32f10x_it.c **** 
 223:../../source/src/user/OS_CPU/stm32f10x_it.c **** /**
 224:../../source/src/user/OS_CPU/stm32f10x_it.c ****   * @brief  This function handles SysTick Handler.
 225:../../source/src/user/OS_CPU/stm32f10x_it.c ****   * @param  None
 226:../../source/src/user/OS_CPU/stm32f10x_it.c ****   * @retval None
 227:../../source/src/user/OS_CPU/stm32f10x_it.c ****   */
 228:../../source/src/user/OS_CPU/stm32f10x_it.c **** 
 229:../../source/src/user/OS_CPU/stm32f10x_it.c **** 
 230:../../source/src/user/OS_CPU/stm32f10x_it.c **** 
 231:../../source/src/user/OS_CPU/stm32f10x_it.c **** void SysTick_Handler(void)
 232:../../source/src/user/OS_CPU/stm32f10x_it.c **** {
 233:../../source/src/user/OS_CPU/stm32f10x_it.c **** }
 234:../../source/src/user/OS_CPU/stm32f10x_it.c **** 
 235:../../source/src/user/OS_CPU/stm32f10x_it.c **** #include "shell.h"
 236:../../source/src/user/OS_CPU/stm32f10x_it.c **** #include "os_cpu.h"
 237:../../source/src/user/OS_CPU/stm32f10x_it.c **** #include "myMicroLIB.h"
 238:../../source/src/user/OS_CPU/stm32f10x_it.c **** //extern MACB MACB_test;
 239:../../source/src/user/OS_CPU/stm32f10x_it.c **** // 串口中断服务函数
 240:../../source/src/user/OS_CPU/stm32f10x_it.c **** // 把接收到的数据存在一个数组缓冲区里面，当接收到的的值等于0XFF时，把值返回
 241:../../source/src/user/OS_CPU/stm32f10x_it.c **** void DEBUG_USART_IRQHandler(void)
ARM GAS  G:\Users\Jaxb\AppData\Local\Temp\ccIu7BO8.s 			page 11


 242:../../source/src/user/OS_CPU/stm32f10x_it.c **** {	
 326              		.loc 1 242 0
 327              		.cfi_startproc
 328              		@ args = 0, pretend = 0, frame = 0
 329              		@ frame_needed = 0, uses_anonymous_args = 0
 330              		.loc 1 242 0
 331 00fc 10B5     		push	{r4, lr}
 332              	.LCFI1:
 333              		.cfi_def_cfa_offset 8
 334              		.cfi_offset 4, -8
 335              		.cfi_offset 14, -4
 243:../../source/src/user/OS_CPU/stm32f10x_it.c **** #if CONFIG_SHELL_EN
 244:../../source/src/user/OS_CPU/stm32f10x_it.c **** 	SYS_ENTER_INTERRUPT();
 336              		.loc 1 244 0
 337 00fe 0A4C     		ldr	r4, .L22
 245:../../source/src/user/OS_CPU/stm32f10x_it.c **** 
 246:../../source/src/user/OS_CPU/stm32f10x_it.c **** 	if(USART_GetITStatus(DEBUG_USARTx,USART_IT_RXNE)!=RESET)
 338              		.loc 1 246 0
 339 0100 40F22551 		movw	r1, #1317
 244:../../source/src/user/OS_CPU/stm32f10x_it.c **** 
 340              		.loc 1 244 0
 341 0104 2368     		ldr	r3, [r4]
 342              		.loc 1 246 0
 343 0106 0948     		ldr	r0, .L22+4
 244:../../source/src/user/OS_CPU/stm32f10x_it.c **** 
 344              		.loc 1 244 0
 345 0108 0133     		adds	r3, r3, #1
 346 010a 2360     		str	r3, [r4]
 347              		.loc 1 246 0
 348 010c FFF7FEFF 		bl	USART_GetITStatus
 349              	.LVL20:
 350 0110 28B1     		cbz	r0, .L18
 247:../../source/src/user/OS_CPU/stm32f10x_it.c **** 	{
 248:../../source/src/user/OS_CPU/stm32f10x_it.c **** 		put_in_shell_buffer(USART_ReceiveData(DEBUG_USARTx));			
 351              		.loc 1 248 0
 352 0112 0648     		ldr	r0, .L22+4
 353 0114 FFF7FEFF 		bl	USART_ReceiveData
 354              	.LVL21:
 355 0118 C0B2     		uxtb	r0, r0
 356 011a FFF7FEFF 		bl	put_in_shell_buffer
 357              	.LVL22:
 358              	.L18:
 249:../../source/src/user/OS_CPU/stm32f10x_it.c **** 	}
 250:../../source/src/user/OS_CPU/stm32f10x_it.c **** 
 251:../../source/src/user/OS_CPU/stm32f10x_it.c **** 	SYS_EXIT_INTERRUPT();
 359              		.loc 1 251 0
 360 011e 2368     		ldr	r3, [r4]
 361 0120 013B     		subs	r3, r3, #1
 362 0122 2360     		str	r3, [r4]
 252:../../source/src/user/OS_CPU/stm32f10x_it.c **** #endif
 253:../../source/src/user/OS_CPU/stm32f10x_it.c **** }
 363              		.loc 1 253 0
 364 0124 10BD     		pop	{r4, pc}
 365              	.L23:
 366 0126 00BF     		.align	2
 367              	.L22:
 368 0128 00000000 		.word	g_interrupt_count
ARM GAS  G:\Users\Jaxb\AppData\Local\Temp\ccIu7BO8.s 			page 12


 369 012c 00380140 		.word	1073821696
 370              		.cfi_endproc
 371              	.LFE48:
 372              		.size	USART1_IRQHandler, .-USART1_IRQHandler
 373              		.section	.rodata.str1.4,"aMS",%progbits,1
 374              		.align	2
 375              	.LC0:
 376 0000 5B486172 		.ascii	"[Hard fault handler]\012\000"
 376      64206661 
 376      756C7420 
 376      68616E64 
 376      6C65725D 
 377 0016 0000     		.space	2
 378              	.LC1:
 379 0018 5230203D 		.ascii	"R0 = %x\015\012\000"
 379      2025780D 
 379      0A00
 380 0022 0000     		.space	2
 381              	.LC2:
 382 0024 5231203D 		.ascii	"R1 = %x\015\012\000"
 382      2025780D 
 382      0A00
 383 002e 0000     		.space	2
 384              	.LC3:
 385 0030 5232203D 		.ascii	"R2 = %x\015\012\000"
 385      2025780D 
 385      0A00
 386 003a 0000     		.space	2
 387              	.LC4:
 388 003c 5233203D 		.ascii	"R3 = %x\015\012\000"
 388      2025780D 
 388      0A00
 389 0046 0000     		.space	2
 390              	.LC5:
 391 0048 52313220 		.ascii	"R12 = %x\015\012\000"
 391      3D202578 
 391      0D0A00
 392 0053 00       		.space	1
 393              	.LC6:
 394 0054 4C52203D 		.ascii	"LR = %x\015\012\000"
 394      2025780D 
 394      0A00
 395 005e 0000     		.space	2
 396              	.LC7:
 397 0060 5043203D 		.ascii	"PC = %x\015\012\000"
 397      2025780D 
 397      0A00
 398 006a 0000     		.space	2
 399              	.LC8:
 400 006c 50535220 		.ascii	"PSR = %x\015\012\000"
 400      3D202578 
 400      0D0A00
 401 0077 00       		.space	1
 402              	.LC9:
 403 0078 42464152 		.ascii	"BFAR = %x\015\012\000"
 403      203D2025 
 403      780D0A00 
ARM GAS  G:\Users\Jaxb\AppData\Local\Temp\ccIu7BO8.s 			page 13


 404              	.LC10:
 405 0084 43465352 		.ascii	"CFSR = %x\015\012\000"
 405      203D2025 
 405      780D0A00 
 406              	.LC11:
 407 0090 48465352 		.ascii	"HFSR = %x\015\012\000"
 407      203D2025 
 407      780D0A00 
 408              	.LC12:
 409 009c 44465352 		.ascii	"DFSR = %x\015\012\000"
 409      203D2025 
 409      780D0A00 
 410              	.LC13:
 411 00a8 41465352 		.ascii	"AFSR = %x\015\012\000"
 411      203D2025 
 411      780D0A00 
 412              		.text
 413              	.Letext0:
 414              		.file 2 "f:\\arm\\gcc2018\\arm-none-eabi\\include\\machine\\_default_types.h"
 415              		.file 3 "f:\\arm\\gcc2018\\arm-none-eabi\\include\\sys\\_stdint.h"
 416              		.file 4 "../../source/include/core_cm3.h"
 417              		.file 5 "../../source/include/system_stm32f10x.h"
 418              		.file 6 "../../source/include/stm32f10x.h"
 419              		.file 7 "../../source/include/os_core/TCB.h"
 420              		.file 8 "../../source/src/FWlib/inc/stm32f10x_usart.h"
 421              		.file 9 "../../source/include/shell/shell.h"
 422              		.file 10 "../../source/include/os_lib/myMicroLIB.h"