ARM GAS  G:\Users\Jaxb\AppData\Local\Temp\cc731FpS.s 			page 1


   1              		.cpu cortex-m3
   2              		.eabi_attribute 20, 1
   3              		.eabi_attribute 21, 1
   4              		.eabi_attribute 23, 3
   5              		.eabi_attribute 24, 1
   6              		.eabi_attribute 25, 1
   7              		.eabi_attribute 26, 1
   8              		.eabi_attribute 30, 2
   9              		.eabi_attribute 34, 1
  10              		.eabi_attribute 18, 4
  11              		.file	"stm32f10x_it.c"
  12              		.text
  13              	.Ltext0:
  14              		.cfi_sections	.debug_frame
  15              		.align	1
  16              		.p2align 2,,3
  17              		.global	NMI_Handler
  18              		.syntax unified
  19              		.thumb
  20              		.thumb_func
  21              		.fpu softvfp
  22              		.type	NMI_Handler, %function
  23              	NMI_Handler:
  24              	.LFB39:
  25              		.file 1 "../../source/src/kernel/OS_CPU/stm32f10x_it.c"
   1:../../source/src/kernel/OS_CPU/stm32f10x_it.c **** /**
   2:../../source/src/kernel/OS_CPU/stm32f10x_it.c ****   ******************************************************************************
   3:../../source/src/kernel/OS_CPU/stm32f10x_it.c ****   * @file    Project/STM32F10x_StdPeriph_Template/stm32f10x_it.c 
   4:../../source/src/kernel/OS_CPU/stm32f10x_it.c ****   * @author  MCD Application Team
   5:../../source/src/kernel/OS_CPU/stm32f10x_it.c ****   * @version V3.5.0
   6:../../source/src/kernel/OS_CPU/stm32f10x_it.c ****   * @date    08-April-2011
   7:../../source/src/kernel/OS_CPU/stm32f10x_it.c ****   * @brief   Main Interrupt Service Routines.
   8:../../source/src/kernel/OS_CPU/stm32f10x_it.c ****   *          This file provides template for all exceptions handler and 
   9:../../source/src/kernel/OS_CPU/stm32f10x_it.c ****   *          peripherals interrupt service routine.
  10:../../source/src/kernel/OS_CPU/stm32f10x_it.c ****   ******************************************************************************
  11:../../source/src/kernel/OS_CPU/stm32f10x_it.c ****   * @attention
  12:../../source/src/kernel/OS_CPU/stm32f10x_it.c ****   *
  13:../../source/src/kernel/OS_CPU/stm32f10x_it.c ****   * THE PRESENT FIRMWARE WHICH IS FOR GUIDANCE ONLY AIMS AT PROVIDING CUSTOMERS
  14:../../source/src/kernel/OS_CPU/stm32f10x_it.c ****   * WITH CODING INFORMATION REGARDING THEIR PRODUCTS IN ORDER FOR THEM TO SAVE
  15:../../source/src/kernel/OS_CPU/stm32f10x_it.c ****   * TIME. AS A RESULT, STMICROELECTRONICS SHALL NOT BE HELD LIABLE FOR ANY
  16:../../source/src/kernel/OS_CPU/stm32f10x_it.c ****   * DIRECT, INDIRECT OR CONSEQUENTI
  17:../../source/src/kernel/OS_CPU/stm32f10x_it.c ****   
  18:../../source/src/kernel/OS_CPU/stm32f10x_it.c ****   AL DAMAGES WITH RESPECT TO ANY CLAIMS ARISING
  19:../../source/src/kernel/OS_CPU/stm32f10x_it.c ****   * FROM THE CONTENT OF SUCH FIRMWARE AND/OR THE USE MADE BY CUSTOMERS OF THE
  20:../../source/src/kernel/OS_CPU/stm32f10x_it.c ****   * CODING INFORMATION CONTAINED HEREIN IN CONNECTION WITH THEIR PRODUCTS.
  21:../../source/src/kernel/OS_CPU/stm32f10x_it.c ****   *
  22:../../source/src/kernel/OS_CPU/stm32f10x_it.c ****   * <h2><center>&copy; COPYRIGHT 2011 STMicroelectronics</center></h2>
  23:../../source/src/kernel/OS_CPU/stm32f10x_it.c ****   ******************************************************************************
  24:../../source/src/kernel/OS_CPU/stm32f10x_it.c ****   */
  25:../../source/src/kernel/OS_CPU/stm32f10x_it.c **** 
  26:../../source/src/kernel/OS_CPU/stm32f10x_it.c **** /* Includes ------------------------------------------------------------------*/
  27:../../source/src/kernel/OS_CPU/stm32f10x_it.c **** //#include "stm32f10x_it.h"
  28:../../source/src/kernel/OS_CPU/stm32f10x_it.c **** #include "bsp_usart.h"
  29:../../source/src/kernel/OS_CPU/stm32f10x_it.c **** #include <myMicroLIB.h>
  30:../../source/src/kernel/OS_CPU/stm32f10x_it.c **** #include <TCB.h>
  31:../../source/src/kernel/OS_CPU/stm32f10x_it.c **** /** @addtogroup STM32F10x_StdPeriph_Template
  32:../../source/src/kernel/OS_CPU/stm32f10x_it.c ****   * @{
ARM GAS  G:\Users\Jaxb\AppData\Local\Temp\cc731FpS.s 			page 2


  33:../../source/src/kernel/OS_CPU/stm32f10x_it.c ****   */
  34:../../source/src/kernel/OS_CPU/stm32f10x_it.c **** 
  35:../../source/src/kernel/OS_CPU/stm32f10x_it.c **** /* Private typedef -----------------------------------------------------------*/
  36:../../source/src/kernel/OS_CPU/stm32f10x_it.c **** /* Private define ------------------------------------------------------------*/
  37:../../source/src/kernel/OS_CPU/stm32f10x_it.c **** /* Private macro -------------------------------------------------------------*/
  38:../../source/src/kernel/OS_CPU/stm32f10x_it.c **** /* Private variables ---------------------------------------------------------*/
  39:../../source/src/kernel/OS_CPU/stm32f10x_it.c **** /* Private function prototypes -----------------------------------------------*/
  40:../../source/src/kernel/OS_CPU/stm32f10x_it.c **** /* Private functions ---------------------------------------------------------*/
  41:../../source/src/kernel/OS_CPU/stm32f10x_it.c **** 
  42:../../source/src/kernel/OS_CPU/stm32f10x_it.c **** /******************************************************************************/
  43:../../source/src/kernel/OS_CPU/stm32f10x_it.c **** /*            Cortex-M3 Processor Exceptions Handlers                         */
  44:../../source/src/kernel/OS_CPU/stm32f10x_it.c **** /******************************************************************************/
  45:../../source/src/kernel/OS_CPU/stm32f10x_it.c **** 
  46:../../source/src/kernel/OS_CPU/stm32f10x_it.c **** /**
  47:../../source/src/kernel/OS_CPU/stm32f10x_it.c ****   * @brief  This function handles NMI exception.
  48:../../source/src/kernel/OS_CPU/stm32f10x_it.c ****   * @param  None
  49:../../source/src/kernel/OS_CPU/stm32f10x_it.c ****   * @retval None
  50:../../source/src/kernel/OS_CPU/stm32f10x_it.c ****   */
  51:../../source/src/kernel/OS_CPU/stm32f10x_it.c **** void NMI_Handler(void)
  52:../../source/src/kernel/OS_CPU/stm32f10x_it.c **** {
  26              		.loc 1 52 0
  27              		.cfi_startproc
  28              		@ args = 0, pretend = 0, frame = 0
  29              		@ frame_needed = 0, uses_anonymous_args = 0
  30              		@ link register save eliminated.
  53:../../source/src/kernel/OS_CPU/stm32f10x_it.c **** }
  31              		.loc 1 53 0
  32 0000 7047     		bx	lr
  33              		.cfi_endproc
  34              	.LFE39:
  35              		.size	NMI_Handler, .-NMI_Handler
  36              		.align	1
  37 0002 00BF     		.p2align 2,,3
  38              		.global	hard_fault_handler_c
  39              		.syntax unified
  40              		.thumb
  41              		.thumb_func
  42              		.fpu softvfp
  43              		.type	hard_fault_handler_c, %function
  44              	hard_fault_handler_c:
  45              	.LFB40:
  54:../../source/src/kernel/OS_CPU/stm32f10x_it.c **** 
  55:../../source/src/kernel/OS_CPU/stm32f10x_it.c **** /**
  56:../../source/src/kernel/OS_CPU/stm32f10x_it.c ****   * @brief  This function handles Hard Fault exception.
  57:../../source/src/kernel/OS_CPU/stm32f10x_it.c ****   * @param  None
  58:../../source/src/kernel/OS_CPU/stm32f10x_it.c ****   * @retval None
  59:../../source/src/kernel/OS_CPU/stm32f10x_it.c ****   */
  60:../../source/src/kernel/OS_CPU/stm32f10x_it.c **** //void HardFault_Handler(void)
  61:../../source/src/kernel/OS_CPU/stm32f10x_it.c **** //{
  62:../../source/src/kernel/OS_CPU/stm32f10x_it.c **** //  /* Go to infinite loop when Hard Fault exception occurs */
  63:../../source/src/kernel/OS_CPU/stm32f10x_it.c **** //  while (1)
  64:../../source/src/kernel/OS_CPU/stm32f10x_it.c **** //  {
  65:../../source/src/kernel/OS_CPU/stm32f10x_it.c **** //  }
  66:../../source/src/kernel/OS_CPU/stm32f10x_it.c **** //}
  67:../../source/src/kernel/OS_CPU/stm32f10x_it.c **** 
  68:../../source/src/kernel/OS_CPU/stm32f10x_it.c **** void hard_fault_handler_c(unsigned int * hardfault_args)   
  69:../../source/src/kernel/OS_CPU/stm32f10x_it.c **** 
ARM GAS  G:\Users\Jaxb\AppData\Local\Temp\cc731FpS.s 			page 3


  70:../../source/src/kernel/OS_CPU/stm32f10x_it.c **** {   
  46              		.loc 1 70 0
  47              		.cfi_startproc
  48              		@ args = 0, pretend = 0, frame = 0
  49              		@ frame_needed = 0, uses_anonymous_args = 0
  50              	.LVL0:
  51 0004 2DE9F84F 		push	{r3, r4, r5, r6, r7, r8, r9, r10, fp, lr}
  52              	.LCFI0:
  53              		.cfi_def_cfa_offset 40
  54              		.cfi_offset 3, -40
  55              		.cfi_offset 4, -36
  56              		.cfi_offset 5, -32
  57              		.cfi_offset 6, -28
  58              		.cfi_offset 7, -24
  59              		.cfi_offset 8, -20
  60              		.cfi_offset 9, -16
  61              		.cfi_offset 10, -12
  62              		.cfi_offset 11, -8
  63              		.cfi_offset 14, -4
  64              		.loc 1 70 0
  65 0008 0346     		mov	r3, r0
  71:../../source/src/kernel/OS_CPU/stm32f10x_it.c **** 
  72:../../source/src/kernel/OS_CPU/stm32f10x_it.c **** unsigned int stacked_r0;   
  73:../../source/src/kernel/OS_CPU/stm32f10x_it.c **** 
  74:../../source/src/kernel/OS_CPU/stm32f10x_it.c **** unsigned int stacked_r1;   
  75:../../source/src/kernel/OS_CPU/stm32f10x_it.c **** 
  76:../../source/src/kernel/OS_CPU/stm32f10x_it.c **** unsigned int stacked_r2;   
  77:../../source/src/kernel/OS_CPU/stm32f10x_it.c **** 
  78:../../source/src/kernel/OS_CPU/stm32f10x_it.c **** unsigned int stacked_r3;   
  79:../../source/src/kernel/OS_CPU/stm32f10x_it.c **** 
  80:../../source/src/kernel/OS_CPU/stm32f10x_it.c **** unsigned int stacked_r12;   
  81:../../source/src/kernel/OS_CPU/stm32f10x_it.c **** 
  82:../../source/src/kernel/OS_CPU/stm32f10x_it.c **** unsigned int stacked_lr;   
  83:../../source/src/kernel/OS_CPU/stm32f10x_it.c **** 
  84:../../source/src/kernel/OS_CPU/stm32f10x_it.c **** unsigned int stacked_pc;   
  85:../../source/src/kernel/OS_CPU/stm32f10x_it.c **** 
  86:../../source/src/kernel/OS_CPU/stm32f10x_it.c **** unsigned int stacked_psr;   
  87:../../source/src/kernel/OS_CPU/stm32f10x_it.c **** 
  88:../../source/src/kernel/OS_CPU/stm32f10x_it.c ****   
  89:../../source/src/kernel/OS_CPU/stm32f10x_it.c **** 
  90:../../source/src/kernel/OS_CPU/stm32f10x_it.c **** stacked_r0 = ((unsigned long) hardfault_args[0]);   
  91:../../source/src/kernel/OS_CPU/stm32f10x_it.c **** 
  92:../../source/src/kernel/OS_CPU/stm32f10x_it.c **** stacked_r1 = ((unsigned long) hardfault_args[1]);   
  93:../../source/src/kernel/OS_CPU/stm32f10x_it.c **** 
  94:../../source/src/kernel/OS_CPU/stm32f10x_it.c **** stacked_r2 = ((unsigned long) hardfault_args[2]);   
  95:../../source/src/kernel/OS_CPU/stm32f10x_it.c **** 
  96:../../source/src/kernel/OS_CPU/stm32f10x_it.c **** stacked_r3 = ((unsigned long) hardfault_args[3]);   
  97:../../source/src/kernel/OS_CPU/stm32f10x_it.c **** 
  98:../../source/src/kernel/OS_CPU/stm32f10x_it.c ****   
  99:../../source/src/kernel/OS_CPU/stm32f10x_it.c **** 
 100:../../source/src/kernel/OS_CPU/stm32f10x_it.c **** stacked_r12 = ((unsigned long) hardfault_args[4]);   
 101:../../source/src/kernel/OS_CPU/stm32f10x_it.c **** 
 102:../../source/src/kernel/OS_CPU/stm32f10x_it.c **** stacked_lr = ((unsigned long) hardfault_args[5]);   
 103:../../source/src/kernel/OS_CPU/stm32f10x_it.c **** 
 104:../../source/src/kernel/OS_CPU/stm32f10x_it.c **** stacked_pc = ((unsigned long) hardfault_args[6]);   
 105:../../source/src/kernel/OS_CPU/stm32f10x_it.c **** 
 106:../../source/src/kernel/OS_CPU/stm32f10x_it.c **** stacked_psr = ((unsigned long) hardfault_args[7]);   
ARM GAS  G:\Users\Jaxb\AppData\Local\Temp\cc731FpS.s 			page 4


 107:../../source/src/kernel/OS_CPU/stm32f10x_it.c **** 
 108:../../source/src/kernel/OS_CPU/stm32f10x_it.c ****   
 109:../../source/src/kernel/OS_CPU/stm32f10x_it.c **** 
 110:../../source/src/kernel/OS_CPU/stm32f10x_it.c **** ka_printf ("[Hard fault handler]\n");   
  66              		.loc 1 110 0
  67 000a 2248     		ldr	r0, .L5
  68              	.LVL1:
  92:../../source/src/kernel/OS_CPU/stm32f10x_it.c **** 
  69              		.loc 1 92 0
  70 000c D3E900BA 		ldrd	fp, r10, [r3]
  71              	.LVL2:
  96:../../source/src/kernel/OS_CPU/stm32f10x_it.c **** 
  72              		.loc 1 96 0
  73 0010 D3E90298 		ldrd	r9, r8, [r3, #8]
  74              	.LVL3:
 102:../../source/src/kernel/OS_CPU/stm32f10x_it.c **** 
  75              		.loc 1 102 0
  76 0014 D3E90476 		ldrd	r7, r6, [r3, #16]
  77              	.LVL4:
 106:../../source/src/kernel/OS_CPU/stm32f10x_it.c **** 
  78              		.loc 1 106 0
  79 0018 D3E90654 		ldrd	r5, r4, [r3, #24]
  80              	.LVL5:
  81              		.loc 1 110 0
  82 001c FFF7FEFF 		bl	ka_printf
  83              	.LVL6:
 111:../../source/src/kernel/OS_CPU/stm32f10x_it.c **** 
 112:../../source/src/kernel/OS_CPU/stm32f10x_it.c **** ka_printf ("R0 = %x\r\n", stacked_r0);   
  84              		.loc 1 112 0
  85 0020 5946     		mov	r1, fp
  86 0022 1D48     		ldr	r0, .L5+4
  87 0024 FFF7FEFF 		bl	ka_printf
  88              	.LVL7:
 113:../../source/src/kernel/OS_CPU/stm32f10x_it.c **** 
 114:../../source/src/kernel/OS_CPU/stm32f10x_it.c **** ka_printf ("R1 = %x\r\n", stacked_r1);   
  89              		.loc 1 114 0
  90 0028 5146     		mov	r1, r10
  91 002a 1C48     		ldr	r0, .L5+8
  92 002c FFF7FEFF 		bl	ka_printf
  93              	.LVL8:
 115:../../source/src/kernel/OS_CPU/stm32f10x_it.c **** 
 116:../../source/src/kernel/OS_CPU/stm32f10x_it.c **** ka_printf ("R2 = %x\r\n", stacked_r2);   
  94              		.loc 1 116 0
  95 0030 4946     		mov	r1, r9
  96 0032 1B48     		ldr	r0, .L5+12
  97 0034 FFF7FEFF 		bl	ka_printf
  98              	.LVL9:
 117:../../source/src/kernel/OS_CPU/stm32f10x_it.c **** 
 118:../../source/src/kernel/OS_CPU/stm32f10x_it.c **** ka_printf ("R3 = %x\r\n", stacked_r3);   
  99              		.loc 1 118 0
 100 0038 4146     		mov	r1, r8
 101 003a 1A48     		ldr	r0, .L5+16
 102 003c FFF7FEFF 		bl	ka_printf
 103              	.LVL10:
 119:../../source/src/kernel/OS_CPU/stm32f10x_it.c **** 
 120:../../source/src/kernel/OS_CPU/stm32f10x_it.c **** ka_printf ("R12 = %x\r\n", stacked_r12);   
 104              		.loc 1 120 0
ARM GAS  G:\Users\Jaxb\AppData\Local\Temp\cc731FpS.s 			page 5


 105 0040 3946     		mov	r1, r7
 106 0042 1948     		ldr	r0, .L5+20
 107 0044 FFF7FEFF 		bl	ka_printf
 108              	.LVL11:
 121:../../source/src/kernel/OS_CPU/stm32f10x_it.c **** 
 122:../../source/src/kernel/OS_CPU/stm32f10x_it.c **** ka_printf ("LR = %x\r\n", stacked_lr);   
 109              		.loc 1 122 0
 110 0048 3146     		mov	r1, r6
 111 004a 1848     		ldr	r0, .L5+24
 112 004c FFF7FEFF 		bl	ka_printf
 113              	.LVL12:
 123:../../source/src/kernel/OS_CPU/stm32f10x_it.c **** 
 124:../../source/src/kernel/OS_CPU/stm32f10x_it.c **** ka_printf ("PC = %x\r\n", stacked_pc);   
 114              		.loc 1 124 0
 115 0050 2946     		mov	r1, r5
 116 0052 1748     		ldr	r0, .L5+28
 117 0054 FFF7FEFF 		bl	ka_printf
 118              	.LVL13:
 125:../../source/src/kernel/OS_CPU/stm32f10x_it.c **** 
 126:../../source/src/kernel/OS_CPU/stm32f10x_it.c **** ka_printf ("PSR = %x\r\n", stacked_psr);   
 119              		.loc 1 126 0
 120 0058 2146     		mov	r1, r4
 121 005a 1648     		ldr	r0, .L5+32
 122 005c FFF7FEFF 		bl	ka_printf
 123              	.LVL14:
 127:../../source/src/kernel/OS_CPU/stm32f10x_it.c **** 
 128:../../source/src/kernel/OS_CPU/stm32f10x_it.c **** ka_printf ("BFAR = %x\r\n", (*((volatile unsigned long *)(0xE000ED38))));   
 124              		.loc 1 128 0
 125 0060 154B     		ldr	r3, .L5+36
 126 0062 1648     		ldr	r0, .L5+40
 127 0064 1968     		ldr	r1, [r3]
 128 0066 FFF7FEFF 		bl	ka_printf
 129              	.LVL15:
 129:../../source/src/kernel/OS_CPU/stm32f10x_it.c **** 
 130:../../source/src/kernel/OS_CPU/stm32f10x_it.c **** ka_printf ("CFSR = %x\r\n", (*((volatile unsigned long *)(0xE000ED28))));   
 130              		.loc 1 130 0
 131 006a 154B     		ldr	r3, .L5+44
 132 006c 1548     		ldr	r0, .L5+48
 133 006e 1968     		ldr	r1, [r3]
 134 0070 FFF7FEFF 		bl	ka_printf
 135              	.LVL16:
 131:../../source/src/kernel/OS_CPU/stm32f10x_it.c **** 
 132:../../source/src/kernel/OS_CPU/stm32f10x_it.c **** ka_printf ("HFSR = %x\r\n", (*((volatile unsigned long *)(0xE000ED2C))));   
 136              		.loc 1 132 0
 137 0074 144B     		ldr	r3, .L5+52
 138 0076 1548     		ldr	r0, .L5+56
 139 0078 1968     		ldr	r1, [r3]
 140 007a FFF7FEFF 		bl	ka_printf
 141              	.LVL17:
 133:../../source/src/kernel/OS_CPU/stm32f10x_it.c **** 
 134:../../source/src/kernel/OS_CPU/stm32f10x_it.c **** ka_printf ("DFSR = %x\r\n", (*((volatile unsigned long *)(0xE000ED30))));   
 142              		.loc 1 134 0
 143 007e 144B     		ldr	r3, .L5+60
 144 0080 1448     		ldr	r0, .L5+64
 145 0082 1968     		ldr	r1, [r3]
 146 0084 FFF7FEFF 		bl	ka_printf
 147              	.LVL18:
ARM GAS  G:\Users\Jaxb\AppData\Local\Temp\cc731FpS.s 			page 6


 135:../../source/src/kernel/OS_CPU/stm32f10x_it.c **** 
 136:../../source/src/kernel/OS_CPU/stm32f10x_it.c **** ka_printf ("AFSR = %x\r\n", (*((volatile unsigned long *)(0xE000ED3C))));   
 148              		.loc 1 136 0
 149 0088 134B     		ldr	r3, .L5+68
 150 008a 1448     		ldr	r0, .L5+72
 151 008c 1968     		ldr	r1, [r3]
 152 008e FFF7FEFF 		bl	ka_printf
 153              	.LVL19:
 154              	.L4:
 155 0092 FEE7     		b	.L4
 156              	.L6:
 157              		.align	2
 158              	.L5:
 159 0094 00000000 		.word	.LC0
 160 0098 18000000 		.word	.LC1
 161 009c 24000000 		.word	.LC2
 162 00a0 30000000 		.word	.LC3
 163 00a4 3C000000 		.word	.LC4
 164 00a8 48000000 		.word	.LC5
 165 00ac 54000000 		.word	.LC6
 166 00b0 60000000 		.word	.LC7
 167 00b4 6C000000 		.word	.LC8
 168 00b8 38ED00E0 		.word	-536810184
 169 00bc 78000000 		.word	.LC9
 170 00c0 28ED00E0 		.word	-536810200
 171 00c4 84000000 		.word	.LC10
 172 00c8 2CED00E0 		.word	-536810196
 173 00cc 90000000 		.word	.LC11
 174 00d0 30ED00E0 		.word	-536810192
 175 00d4 9C000000 		.word	.LC12
 176 00d8 3CED00E0 		.word	-536810180
 177 00dc A8000000 		.word	.LC13
 178              		.cfi_endproc
 179              	.LFE40:
 180              		.size	hard_fault_handler_c, .-hard_fault_handler_c
 181              		.align	1
 182              		.p2align 2,,3
 183              		.global	MemManage_Handler
 184              		.syntax unified
 185              		.thumb
 186              		.thumb_func
 187              		.fpu softvfp
 188              		.type	MemManage_Handler, %function
 189              	MemManage_Handler:
 190              	.LFB41:
 137:../../source/src/kernel/OS_CPU/stm32f10x_it.c **** 
 138:../../source/src/kernel/OS_CPU/stm32f10x_it.c ****   
 139:../../source/src/kernel/OS_CPU/stm32f10x_it.c **** 
 140:../../source/src/kernel/OS_CPU/stm32f10x_it.c ****     
 141:../../source/src/kernel/OS_CPU/stm32f10x_it.c **** 
 142:../../source/src/kernel/OS_CPU/stm32f10x_it.c **** while(1) 
 143:../../source/src/kernel/OS_CPU/stm32f10x_it.c **** 
 144:../../source/src/kernel/OS_CPU/stm32f10x_it.c **** { 
 145:../../source/src/kernel/OS_CPU/stm32f10x_it.c **** 
 146:../../source/src/kernel/OS_CPU/stm32f10x_it.c ****         ;; 
 147:../../source/src/kernel/OS_CPU/stm32f10x_it.c **** 
 148:../../source/src/kernel/OS_CPU/stm32f10x_it.c **** } 
ARM GAS  G:\Users\Jaxb\AppData\Local\Temp\cc731FpS.s 			page 7


 149:../../source/src/kernel/OS_CPU/stm32f10x_it.c **** 
 150:../../source/src/kernel/OS_CPU/stm32f10x_it.c ****   
 151:../../source/src/kernel/OS_CPU/stm32f10x_it.c **** 
 152:../../source/src/kernel/OS_CPU/stm32f10x_it.c **** } 
 153:../../source/src/kernel/OS_CPU/stm32f10x_it.c **** 
 154:../../source/src/kernel/OS_CPU/stm32f10x_it.c **** /**
 155:../../source/src/kernel/OS_CPU/stm32f10x_it.c ****   * @brief  This function handles Memory Manage exception.
 156:../../source/src/kernel/OS_CPU/stm32f10x_it.c ****   * @param  None
 157:../../source/src/kernel/OS_CPU/stm32f10x_it.c ****   * @retval None
 158:../../source/src/kernel/OS_CPU/stm32f10x_it.c ****   */
 159:../../source/src/kernel/OS_CPU/stm32f10x_it.c **** void MemManage_Handler(void)
 160:../../source/src/kernel/OS_CPU/stm32f10x_it.c **** {
 191              		.loc 1 160 0
 192              		.cfi_startproc
 193              		@ Volatile: function does not return.
 194              		@ args = 0, pretend = 0, frame = 0
 195              		@ frame_needed = 0, uses_anonymous_args = 0
 196              		@ link register save eliminated.
 197              	.L8:
 198 00e0 FEE7     		b	.L8
 199              		.cfi_endproc
 200              	.LFE41:
 201              		.size	MemManage_Handler, .-MemManage_Handler
 202              		.align	1
 203 00e2 00BF     		.p2align 2,,3
 204              		.global	BusFault_Handler
 205              		.syntax unified
 206              		.thumb
 207              		.thumb_func
 208              		.fpu softvfp
 209              		.type	BusFault_Handler, %function
 210              	BusFault_Handler:
 211              	.LFB42:
 161:../../source/src/kernel/OS_CPU/stm32f10x_it.c ****   /* Go to infinite loop when Memory Manage exception occurs */
 162:../../source/src/kernel/OS_CPU/stm32f10x_it.c ****   while (1)
 163:../../source/src/kernel/OS_CPU/stm32f10x_it.c ****   {
 164:../../source/src/kernel/OS_CPU/stm32f10x_it.c ****   }
 165:../../source/src/kernel/OS_CPU/stm32f10x_it.c **** }
 166:../../source/src/kernel/OS_CPU/stm32f10x_it.c **** 
 167:../../source/src/kernel/OS_CPU/stm32f10x_it.c **** /**
 168:../../source/src/kernel/OS_CPU/stm32f10x_it.c ****   * @brief  This function handles Bus Fault exception.
 169:../../source/src/kernel/OS_CPU/stm32f10x_it.c ****   * @param  None
 170:../../source/src/kernel/OS_CPU/stm32f10x_it.c ****   * @retval None
 171:../../source/src/kernel/OS_CPU/stm32f10x_it.c ****   */
 172:../../source/src/kernel/OS_CPU/stm32f10x_it.c **** void BusFault_Handler(void)
 173:../../source/src/kernel/OS_CPU/stm32f10x_it.c **** {
 212              		.loc 1 173 0
 213              		.cfi_startproc
 214              		@ Volatile: function does not return.
 215              		@ args = 0, pretend = 0, frame = 0
 216              		@ frame_needed = 0, uses_anonymous_args = 0
 217              		@ link register save eliminated.
 218              	.L10:
 219 00e4 FEE7     		b	.L10
 220              		.cfi_endproc
 221              	.LFE42:
 222              		.size	BusFault_Handler, .-BusFault_Handler
ARM GAS  G:\Users\Jaxb\AppData\Local\Temp\cc731FpS.s 			page 8


 223              		.align	1
 224 00e6 00BF     		.p2align 2,,3
 225              		.global	UsageFault_Handler
 226              		.syntax unified
 227              		.thumb
 228              		.thumb_func
 229              		.fpu softvfp
 230              		.type	UsageFault_Handler, %function
 231              	UsageFault_Handler:
 232              	.LFB43:
 174:../../source/src/kernel/OS_CPU/stm32f10x_it.c ****   /* Go to infinite loop when Bus Fault exception occurs */
 175:../../source/src/kernel/OS_CPU/stm32f10x_it.c ****   while (1)
 176:../../source/src/kernel/OS_CPU/stm32f10x_it.c ****   {
 177:../../source/src/kernel/OS_CPU/stm32f10x_it.c ****   }
 178:../../source/src/kernel/OS_CPU/stm32f10x_it.c **** }
 179:../../source/src/kernel/OS_CPU/stm32f10x_it.c **** 
 180:../../source/src/kernel/OS_CPU/stm32f10x_it.c **** /**
 181:../../source/src/kernel/OS_CPU/stm32f10x_it.c ****   * @brief  This function handles Usage Fault exception.
 182:../../source/src/kernel/OS_CPU/stm32f10x_it.c ****   * @param  None
 183:../../source/src/kernel/OS_CPU/stm32f10x_it.c ****   * @retval None
 184:../../source/src/kernel/OS_CPU/stm32f10x_it.c ****   */
 185:../../source/src/kernel/OS_CPU/stm32f10x_it.c **** void UsageFault_Handler(void)
 186:../../source/src/kernel/OS_CPU/stm32f10x_it.c **** {
 233              		.loc 1 186 0
 234              		.cfi_startproc
 235              		@ Volatile: function does not return.
 236              		@ args = 0, pretend = 0, frame = 0
 237              		@ frame_needed = 0, uses_anonymous_args = 0
 238              		@ link register save eliminated.
 239              	.L12:
 240 00e8 FEE7     		b	.L12
 241              		.cfi_endproc
 242              	.LFE43:
 243              		.size	UsageFault_Handler, .-UsageFault_Handler
 244              		.align	1
 245 00ea 00BF     		.p2align 2,,3
 246              		.global	SVC_Handler
 247              		.syntax unified
 248              		.thumb
 249              		.thumb_func
 250              		.fpu softvfp
 251              		.type	SVC_Handler, %function
 252              	SVC_Handler:
 253              	.LFB51:
 254              		.cfi_startproc
 255              		@ args = 0, pretend = 0, frame = 0
 256              		@ frame_needed = 0, uses_anonymous_args = 0
 257              		@ link register save eliminated.
 258 00ec 7047     		bx	lr
 259              		.cfi_endproc
 260              	.LFE51:
 261              		.size	SVC_Handler, .-SVC_Handler
 262              		.align	1
 263 00ee 00BF     		.p2align 2,,3
 264              		.global	DebugMon_Handler
 265              		.syntax unified
 266              		.thumb
ARM GAS  G:\Users\Jaxb\AppData\Local\Temp\cc731FpS.s 			page 9


 267              		.thumb_func
 268              		.fpu softvfp
 269              		.type	DebugMon_Handler, %function
 270              	DebugMon_Handler:
 271              	.LFB53:
 272              		.cfi_startproc
 273              		@ args = 0, pretend = 0, frame = 0
 274              		@ frame_needed = 0, uses_anonymous_args = 0
 275              		@ link register save eliminated.
 276 00f0 7047     		bx	lr
 277              		.cfi_endproc
 278              	.LFE53:
 279              		.size	DebugMon_Handler, .-DebugMon_Handler
 280              		.align	1
 281 00f2 00BF     		.p2align 2,,3
 282              		.global	PendSV_Handler
 283              		.syntax unified
 284              		.thumb
 285              		.thumb_func
 286              		.fpu softvfp
 287              		.type	PendSV_Handler, %function
 288              	PendSV_Handler:
 289              	.LFB55:
 290              		.cfi_startproc
 291              		@ args = 0, pretend = 0, frame = 0
 292              		@ frame_needed = 0, uses_anonymous_args = 0
 293              		@ link register save eliminated.
 294 00f4 7047     		bx	lr
 295              		.cfi_endproc
 296              	.LFE55:
 297              		.size	PendSV_Handler, .-PendSV_Handler
 298              		.align	1
 299 00f6 00BF     		.p2align 2,,3
 300              		.global	SysTick_Handler
 301              		.syntax unified
 302              		.thumb
 303              		.thumb_func
 304              		.fpu softvfp
 305              		.type	SysTick_Handler, %function
 306              	SysTick_Handler:
 307              	.LFB57:
 308              		.cfi_startproc
 309              		@ args = 0, pretend = 0, frame = 0
 310              		@ frame_needed = 0, uses_anonymous_args = 0
 311              		@ link register save eliminated.
 312 00f8 7047     		bx	lr
 313              		.cfi_endproc
 314              	.LFE57:
 315              		.size	SysTick_Handler, .-SysTick_Handler
 316              		.align	1
 317 00fa 00BF     		.p2align 2,,3
 318              		.global	USART1_IRQHandler
 319              		.syntax unified
 320              		.thumb
 321              		.thumb_func
 322              		.fpu softvfp
 323              		.type	USART1_IRQHandler, %function
ARM GAS  G:\Users\Jaxb\AppData\Local\Temp\cc731FpS.s 			page 10


 324              	USART1_IRQHandler:
 325              	.LFB48:
 187:../../source/src/kernel/OS_CPU/stm32f10x_it.c ****   /* Go to infinite loop when Usage Fault exception occurs */
 188:../../source/src/kernel/OS_CPU/stm32f10x_it.c ****   while (1)
 189:../../source/src/kernel/OS_CPU/stm32f10x_it.c ****   {
 190:../../source/src/kernel/OS_CPU/stm32f10x_it.c ****   }
 191:../../source/src/kernel/OS_CPU/stm32f10x_it.c **** }
 192:../../source/src/kernel/OS_CPU/stm32f10x_it.c **** 
 193:../../source/src/kernel/OS_CPU/stm32f10x_it.c **** /**
 194:../../source/src/kernel/OS_CPU/stm32f10x_it.c ****   * @brief  This function handles SVCall exception.
 195:../../source/src/kernel/OS_CPU/stm32f10x_it.c ****   * @param  None
 196:../../source/src/kernel/OS_CPU/stm32f10x_it.c ****   * @retval None
 197:../../source/src/kernel/OS_CPU/stm32f10x_it.c ****   */
 198:../../source/src/kernel/OS_CPU/stm32f10x_it.c **** 
 199:../../source/src/kernel/OS_CPU/stm32f10x_it.c **** void SVC_Handler(void)
 200:../../source/src/kernel/OS_CPU/stm32f10x_it.c **** {
 201:../../source/src/kernel/OS_CPU/stm32f10x_it.c **** 
 202:../../source/src/kernel/OS_CPU/stm32f10x_it.c **** }
 203:../../source/src/kernel/OS_CPU/stm32f10x_it.c **** 
 204:../../source/src/kernel/OS_CPU/stm32f10x_it.c **** /**
 205:../../source/src/kernel/OS_CPU/stm32f10x_it.c ****   * @brief  This function handles Debug Monitor exception.
 206:../../source/src/kernel/OS_CPU/stm32f10x_it.c ****   * @param  None
 207:../../source/src/kernel/OS_CPU/stm32f10x_it.c ****   * @retval None
 208:../../source/src/kernel/OS_CPU/stm32f10x_it.c ****   */
 209:../../source/src/kernel/OS_CPU/stm32f10x_it.c **** void DebugMon_Handler(void)
 210:../../source/src/kernel/OS_CPU/stm32f10x_it.c **** {
 211:../../source/src/kernel/OS_CPU/stm32f10x_it.c **** }
 212:../../source/src/kernel/OS_CPU/stm32f10x_it.c **** 
 213:../../source/src/kernel/OS_CPU/stm32f10x_it.c **** /**
 214:../../source/src/kernel/OS_CPU/stm32f10x_it.c ****   * @brief  This function handles PendSVC exception.
 215:../../source/src/kernel/OS_CPU/stm32f10x_it.c ****   * @param  None
 216:../../source/src/kernel/OS_CPU/stm32f10x_it.c ****   * @retval None
 217:../../source/src/kernel/OS_CPU/stm32f10x_it.c ****   */
 218:../../source/src/kernel/OS_CPU/stm32f10x_it.c **** void PendSV_Handler(void)
 219:../../source/src/kernel/OS_CPU/stm32f10x_it.c **** {
 220:../../source/src/kernel/OS_CPU/stm32f10x_it.c **** }
 221:../../source/src/kernel/OS_CPU/stm32f10x_it.c **** 
 222:../../source/src/kernel/OS_CPU/stm32f10x_it.c **** /**
 223:../../source/src/kernel/OS_CPU/stm32f10x_it.c ****   * @brief  This function handles SysTick Handler.
 224:../../source/src/kernel/OS_CPU/stm32f10x_it.c ****   * @param  None
 225:../../source/src/kernel/OS_CPU/stm32f10x_it.c ****   * @retval None
 226:../../source/src/kernel/OS_CPU/stm32f10x_it.c ****   */
 227:../../source/src/kernel/OS_CPU/stm32f10x_it.c **** 
 228:../../source/src/kernel/OS_CPU/stm32f10x_it.c **** 
 229:../../source/src/kernel/OS_CPU/stm32f10x_it.c **** 
 230:../../source/src/kernel/OS_CPU/stm32f10x_it.c **** void SysTick_Handler(void)
 231:../../source/src/kernel/OS_CPU/stm32f10x_it.c **** {
 232:../../source/src/kernel/OS_CPU/stm32f10x_it.c **** }
 233:../../source/src/kernel/OS_CPU/stm32f10x_it.c **** 
 234:../../source/src/kernel/OS_CPU/stm32f10x_it.c **** #include <shell.h>
 235:../../source/src/kernel/OS_CPU/stm32f10x_it.c **** #include <os_cpu.h>
 236:../../source/src/kernel/OS_CPU/stm32f10x_it.c **** #include <myMicroLIB.h>
 237:../../source/src/kernel/OS_CPU/stm32f10x_it.c **** 
 238:../../source/src/kernel/OS_CPU/stm32f10x_it.c **** void DEBUG_USART_IRQHandler(void)
 239:../../source/src/kernel/OS_CPU/stm32f10x_it.c **** {	
 326              		.loc 1 239 0
 327              		.cfi_startproc
ARM GAS  G:\Users\Jaxb\AppData\Local\Temp\cc731FpS.s 			page 11


 328              		@ args = 0, pretend = 0, frame = 0
 329              		@ frame_needed = 0, uses_anonymous_args = 0
 330              		.loc 1 239 0
 331 00fc 10B5     		push	{r4, lr}
 332              	.LCFI1:
 333              		.cfi_def_cfa_offset 8
 334              		.cfi_offset 4, -8
 335              		.cfi_offset 14, -4
 240:../../source/src/kernel/OS_CPU/stm32f10x_it.c **** #if CONFIG_SHELL_EN
 241:../../source/src/kernel/OS_CPU/stm32f10x_it.c **** 	SYS_ENTER_INTERRUPT();
 336              		.loc 1 241 0
 337 00fe 0A4C     		ldr	r4, .L22
 242:../../source/src/kernel/OS_CPU/stm32f10x_it.c **** 
 243:../../source/src/kernel/OS_CPU/stm32f10x_it.c **** 	if(USART_GetITStatus(DEBUG_USARTx,USART_IT_RXNE)!=RESET)
 338              		.loc 1 243 0
 339 0100 40F22551 		movw	r1, #1317
 241:../../source/src/kernel/OS_CPU/stm32f10x_it.c **** 
 340              		.loc 1 241 0
 341 0104 2368     		ldr	r3, [r4]
 342              		.loc 1 243 0
 343 0106 0948     		ldr	r0, .L22+4
 241:../../source/src/kernel/OS_CPU/stm32f10x_it.c **** 
 344              		.loc 1 241 0
 345 0108 0133     		adds	r3, r3, #1
 346 010a 2360     		str	r3, [r4]
 347              		.loc 1 243 0
 348 010c FFF7FEFF 		bl	USART_GetITStatus
 349              	.LVL20:
 350 0110 28B1     		cbz	r0, .L18
 244:../../source/src/kernel/OS_CPU/stm32f10x_it.c **** 	{
 245:../../source/src/kernel/OS_CPU/stm32f10x_it.c **** 		put_in_shell_buffer(USART_ReceiveData(DEBUG_USARTx));			
 351              		.loc 1 245 0
 352 0112 0648     		ldr	r0, .L22+4
 353 0114 FFF7FEFF 		bl	USART_ReceiveData
 354              	.LVL21:
 355 0118 C0B2     		uxtb	r0, r0
 356 011a FFF7FEFF 		bl	put_in_shell_buffer
 357              	.LVL22:
 358              	.L18:
 246:../../source/src/kernel/OS_CPU/stm32f10x_it.c **** 	}
 247:../../source/src/kernel/OS_CPU/stm32f10x_it.c **** 
 248:../../source/src/kernel/OS_CPU/stm32f10x_it.c **** 	SYS_EXIT_INTERRUPT();
 359              		.loc 1 248 0
 360 011e 2368     		ldr	r3, [r4]
 361 0120 013B     		subs	r3, r3, #1
 362 0122 2360     		str	r3, [r4]
 249:../../source/src/kernel/OS_CPU/stm32f10x_it.c **** #endif
 250:../../source/src/kernel/OS_CPU/stm32f10x_it.c **** }
 363              		.loc 1 250 0
 364 0124 10BD     		pop	{r4, pc}
 365              	.L23:
 366 0126 00BF     		.align	2
 367              	.L22:
 368 0128 00000000 		.word	g_interrupt_count
 369 012c 00380140 		.word	1073821696
 370              		.cfi_endproc
 371              	.LFE48:
ARM GAS  G:\Users\Jaxb\AppData\Local\Temp\cc731FpS.s 			page 12


 372              		.size	USART1_IRQHandler, .-USART1_IRQHandler
 373              		.align	1
 374              		.p2align 2,,3
 375              		.global	USART2_IRQHandler
 376              		.syntax unified
 377              		.thumb
 378              		.thumb_func
 379              		.fpu softvfp
 380              		.type	USART2_IRQHandler, %function
 381              	USART2_IRQHandler:
 382              	.LFB49:
 251:../../source/src/kernel/OS_CPU/stm32f10x_it.c **** 
 252:../../source/src/kernel/OS_CPU/stm32f10x_it.c **** #include <module.h>
 253:../../source/src/kernel/OS_CPU/stm32f10x_it.c **** void USART2_IRQHandler(void)
 254:../../source/src/kernel/OS_CPU/stm32f10x_it.c **** {
 383              		.loc 1 254 0
 384              		.cfi_startproc
 385              		@ args = 0, pretend = 0, frame = 0
 386              		@ frame_needed = 0, uses_anonymous_args = 0
 387 0130 10B5     		push	{r4, lr}
 388              	.LCFI2:
 389              		.cfi_def_cfa_offset 8
 390              		.cfi_offset 4, -8
 391              		.cfi_offset 14, -4
 255:../../source/src/kernel/OS_CPU/stm32f10x_it.c ****   SYS_ENTER_INTERRUPT();
 392              		.loc 1 255 0
 393 0132 0A4C     		ldr	r4, .L29
 256:../../source/src/kernel/OS_CPU/stm32f10x_it.c ****   if(USART_GetITStatus(USART2,USART_IT_RXNE)!=RESET)
 394              		.loc 1 256 0
 395 0134 40F22551 		movw	r1, #1317
 255:../../source/src/kernel/OS_CPU/stm32f10x_it.c ****   SYS_ENTER_INTERRUPT();
 396              		.loc 1 255 0
 397 0138 2368     		ldr	r3, [r4]
 398              		.loc 1 256 0
 399 013a 0948     		ldr	r0, .L29+4
 255:../../source/src/kernel/OS_CPU/stm32f10x_it.c ****   SYS_ENTER_INTERRUPT();
 400              		.loc 1 255 0
 401 013c 0133     		adds	r3, r3, #1
 402 013e 2360     		str	r3, [r4]
 403              		.loc 1 256 0
 404 0140 FFF7FEFF 		bl	USART_GetITStatus
 405              	.LVL23:
 406 0144 28B1     		cbz	r0, .L25
 257:../../source/src/kernel/OS_CPU/stm32f10x_it.c ****   {
 258:../../source/src/kernel/OS_CPU/stm32f10x_it.c ****     put_in_module_buffer(USART_ReceiveData(USART2));      
 407              		.loc 1 258 0
 408 0146 0648     		ldr	r0, .L29+4
 409 0148 FFF7FEFF 		bl	USART_ReceiveData
 410              	.LVL24:
 411 014c C0B2     		uxtb	r0, r0
 412 014e FFF7FEFF 		bl	put_in_module_buffer
 413              	.LVL25:
 414              	.L25:
 259:../../source/src/kernel/OS_CPU/stm32f10x_it.c ****   }
 260:../../source/src/kernel/OS_CPU/stm32f10x_it.c ****   SYS_EXIT_INTERRUPT();
 415              		.loc 1 260 0
 416 0152 2368     		ldr	r3, [r4]
ARM GAS  G:\Users\Jaxb\AppData\Local\Temp\cc731FpS.s 			page 13


 417 0154 013B     		subs	r3, r3, #1
 418 0156 2360     		str	r3, [r4]
 261:../../source/src/kernel/OS_CPU/stm32f10x_it.c **** }
 419              		.loc 1 261 0
 420 0158 10BD     		pop	{r4, pc}
 421              	.L30:
 422 015a 00BF     		.align	2
 423              	.L29:
 424 015c 00000000 		.word	g_interrupt_count
 425 0160 00440040 		.word	1073759232
 426              		.cfi_endproc
 427              	.LFE49:
 428              		.size	USART2_IRQHandler, .-USART2_IRQHandler
 429              		.section	.rodata.str1.4,"aMS",%progbits,1
 430              		.align	2
 431              	.LC0:
 432 0000 5B486172 		.ascii	"[Hard fault handler]\012\000"
 432      64206661 
 432      756C7420 
 432      68616E64 
 432      6C65725D 
 433 0016 0000     		.space	2
 434              	.LC1:
 435 0018 5230203D 		.ascii	"R0 = %x\015\012\000"
 435      2025780D 
 435      0A00
 436 0022 0000     		.space	2
 437              	.LC2:
 438 0024 5231203D 		.ascii	"R1 = %x\015\012\000"
 438      2025780D 
 438      0A00
 439 002e 0000     		.space	2
 440              	.LC3:
 441 0030 5232203D 		.ascii	"R2 = %x\015\012\000"
 441      2025780D 
 441      0A00
 442 003a 0000     		.space	2
 443              	.LC4:
 444 003c 5233203D 		.ascii	"R3 = %x\015\012\000"
 444      2025780D 
 444      0A00
 445 0046 0000     		.space	2
 446              	.LC5:
 447 0048 52313220 		.ascii	"R12 = %x\015\012\000"
 447      3D202578 
 447      0D0A00
 448 0053 00       		.space	1
 449              	.LC6:
 450 0054 4C52203D 		.ascii	"LR = %x\015\012\000"
 450      2025780D 
 450      0A00
 451 005e 0000     		.space	2
 452              	.LC7:
 453 0060 5043203D 		.ascii	"PC = %x\015\012\000"
 453      2025780D 
 453      0A00
 454 006a 0000     		.space	2
ARM GAS  G:\Users\Jaxb\AppData\Local\Temp\cc731FpS.s 			page 14


 455              	.LC8:
 456 006c 50535220 		.ascii	"PSR = %x\015\012\000"
 456      3D202578 
 456      0D0A00
 457 0077 00       		.space	1
 458              	.LC9:
 459 0078 42464152 		.ascii	"BFAR = %x\015\012\000"
 459      203D2025 
 459      780D0A00 
 460              	.LC10:
 461 0084 43465352 		.ascii	"CFSR = %x\015\012\000"
 461      203D2025 
 461      780D0A00 
 462              	.LC11:
 463 0090 48465352 		.ascii	"HFSR = %x\015\012\000"
 463      203D2025 
 463      780D0A00 
 464              	.LC12:
 465 009c 44465352 		.ascii	"DFSR = %x\015\012\000"
 465      203D2025 
 465      780D0A00 
 466              	.LC13:
 467 00a8 41465352 		.ascii	"AFSR = %x\015\012\000"
 467      203D2025 
 467      780D0A00 
 468              		.text
 469              	.Letext0:
 470              		.file 2 "f:\\arm\\gcc2018\\arm-none-eabi\\include\\machine\\_default_types.h"
 471              		.file 3 "f:\\arm\\gcc2018\\arm-none-eabi\\include\\sys\\_stdint.h"
 472              		.file 4 "../../source/include/core_cm3.h"
 473              		.file 5 "../../source/include/system_stm32f10x.h"
 474              		.file 6 "../../source/include/stm32f10x.h"
 475              		.file 7 "../../source/include/os_core/TCB.h"
 476              		.file 8 "../../source/src/FWlib/inc/stm32f10x_usart.h"
 477              		.file 9 "../../source/include/os_core/module.h"
 478              		.file 10 "../../source/include/shell/shell.h"
 479              		.file 11 "../../source/include/os_lib/myMicroLIB.h"
 480              		.section	.debug_info,"",%progbits
 481              	.Ldebug_info0:
 482 0000 47050000 		.4byte	0x547
 483 0004 0200     		.2byte	0x2
 484 0006 00000000 		.4byte	.Ldebug_abbrev0
 485 000a 04       		.byte	0x4
 486 000b 01       		.uleb128 0x1
 487 000c 9A020000 		.4byte	.LASF50
 488 0010 0C       		.byte	0xc
 489 0011 11000000 		.4byte	.LASF51
 490 0015 7F030000 		.4byte	.LASF52
 491 0019 00000000 		.4byte	.Ltext0
 492 001d 64010000 		.4byte	.Letext0
 493 0021 00000000 		.4byte	.Ldebug_line0
 494 0025 02       		.uleb128 0x2
 495 0026 01       		.byte	0x1
 496 0027 06       		.byte	0x6
 497 0028 F4000000 		.4byte	.LASF0
 498 002c 02       		.uleb128 0x2
 499 002d 01       		.byte	0x1
ARM GAS  G:\Users\Jaxb\AppData\Local\Temp\cc731FpS.s 			page 15


 500 002e 08       		.byte	0x8
 501 002f 00010000 		.4byte	.LASF1
 502 0033 02       		.uleb128 0x2
 503 0034 02       		.byte	0x2
 504 0035 05       		.byte	0x5
 505 0036 4F020000 		.4byte	.LASF2
 506 003a 03       		.uleb128 0x3
 507 003b 5B010000 		.4byte	.LASF5
 508 003f 02       		.byte	0x2
 509 0040 39       		.byte	0x39
 510 0041 45000000 		.4byte	0x45
 511 0045 02       		.uleb128 0x2
 512 0046 02       		.byte	0x2
 513 0047 07       		.byte	0x7
 514 0048 87000000 		.4byte	.LASF3
 515 004c 02       		.uleb128 0x2
 516 004d 04       		.byte	0x4
 517 004e 05       		.byte	0x5
 518 004f 91020000 		.4byte	.LASF4
 519 0053 03       		.uleb128 0x3
 520 0054 5B000000 		.4byte	.LASF6
 521 0058 02       		.byte	0x2
 522 0059 4F       		.byte	0x4f
 523 005a 5E000000 		.4byte	0x5e
 524 005e 02       		.uleb128 0x2
 525 005f 04       		.byte	0x4
 526 0060 07       		.byte	0x7
 527 0061 0E010000 		.4byte	.LASF7
 528 0065 02       		.uleb128 0x2
 529 0066 08       		.byte	0x8
 530 0067 05       		.byte	0x5
 531 0068 13020000 		.4byte	.LASF8
 532 006c 02       		.uleb128 0x2
 533 006d 08       		.byte	0x8
 534 006e 07       		.byte	0x7
 535 006f 99010000 		.4byte	.LASF9
 536 0073 04       		.uleb128 0x4
 537 0074 04       		.byte	0x4
 538 0075 05       		.byte	0x5
 539 0076 696E7400 		.ascii	"int\000"
 540 007a 05       		.uleb128 0x5
 541 007b 73000000 		.4byte	0x73
 542 007f 02       		.uleb128 0x2
 543 0080 04       		.byte	0x4
 544 0081 07       		.byte	0x7
 545 0082 8C010000 		.4byte	.LASF10
 546 0086 03       		.uleb128 0x3
 547 0087 6D020000 		.4byte	.LASF11
 548 008b 03       		.byte	0x3
 549 008c 24       		.byte	0x24
 550 008d 3A000000 		.4byte	0x3a
 551 0091 05       		.uleb128 0x5
 552 0092 86000000 		.4byte	0x86
 553 0096 03       		.uleb128 0x3
 554 0097 88020000 		.4byte	.LASF12
 555 009b 03       		.byte	0x3
 556 009c 30       		.byte	0x30
ARM GAS  G:\Users\Jaxb\AppData\Local\Temp\cc731FpS.s 			page 16


 557 009d 53000000 		.4byte	0x53
 558 00a1 06       		.uleb128 0x6
 559 00a2 38010000 		.4byte	.LASF13
 560 00a6 04       		.byte	0x4
 561 00a7 CE06     		.2byte	0x6ce
 562 00a9 7A000000 		.4byte	0x7a
 563 00ad 01       		.byte	0x1
 564 00ae 01       		.byte	0x1
 565 00af 07       		.uleb128 0x7
 566 00b0 26020000 		.4byte	.LASF14
 567 00b4 05       		.byte	0x5
 568 00b5 35       		.byte	0x35
 569 00b6 96000000 		.4byte	0x96
 570 00ba 01       		.byte	0x1
 571 00bb 01       		.byte	0x1
 572 00bc 08       		.uleb128 0x8
 573 00bd 07       		.byte	0x7
 574 00be 01       		.byte	0x1
 575 00bf 2C000000 		.4byte	0x2c
 576 00c3 06       		.byte	0x6
 577 00c4 0702     		.2byte	0x207
 578 00c6 D7000000 		.4byte	0xd7
 579 00ca 09       		.uleb128 0x9
 580 00cb 20010000 		.4byte	.LASF15
 581 00cf 00       		.byte	0
 582 00d0 0A       		.uleb128 0xa
 583 00d1 53455400 		.ascii	"SET\000"
 584 00d5 01       		.byte	0x1
 585 00d6 00       		.byte	0
 586 00d7 0B       		.uleb128 0xb
 587 00d8 1C       		.byte	0x1c
 588 00d9 06       		.byte	0x6
 589 00da D204     		.2byte	0x4d2
 590 00dc B1010000 		.4byte	0x1b1
 591 00e0 0C       		.uleb128 0xc
 592 00e1 535200   		.ascii	"SR\000"
 593 00e4 06       		.byte	0x6
 594 00e5 D404     		.2byte	0x4d4
 595 00e7 91000000 		.4byte	0x91
 596 00eb 02       		.byte	0x2
 597 00ec 23       		.byte	0x23
 598 00ed 00       		.uleb128 0
 599 00ee 0D       		.uleb128 0xd
 600 00ef A8000000 		.4byte	.LASF16
 601 00f3 06       		.byte	0x6
 602 00f4 D504     		.2byte	0x4d5
 603 00f6 86000000 		.4byte	0x86
 604 00fa 02       		.byte	0x2
 605 00fb 23       		.byte	0x23
 606 00fc 02       		.uleb128 0x2
 607 00fd 0C       		.uleb128 0xc
 608 00fe 445200   		.ascii	"DR\000"
 609 0101 06       		.byte	0x6
 610 0102 D604     		.2byte	0x4d6
 611 0104 91000000 		.4byte	0x91
 612 0108 02       		.byte	0x2
 613 0109 23       		.byte	0x23
ARM GAS  G:\Users\Jaxb\AppData\Local\Temp\cc731FpS.s 			page 17


 614 010a 04       		.uleb128 0x4
 615 010b 0D       		.uleb128 0xd
 616 010c B2000000 		.4byte	.LASF17
 617 0110 06       		.byte	0x6
 618 0111 D704     		.2byte	0x4d7
 619 0113 86000000 		.4byte	0x86
 620 0117 02       		.byte	0x2
 621 0118 23       		.byte	0x23
 622 0119 06       		.uleb128 0x6
 623 011a 0C       		.uleb128 0xc
 624 011b 42525200 		.ascii	"BRR\000"
 625 011f 06       		.byte	0x6
 626 0120 D804     		.2byte	0x4d8
 627 0122 91000000 		.4byte	0x91
 628 0126 02       		.byte	0x2
 629 0127 23       		.byte	0x23
 630 0128 08       		.uleb128 0x8
 631 0129 0D       		.uleb128 0xd
 632 012a BC000000 		.4byte	.LASF18
 633 012e 06       		.byte	0x6
 634 012f D904     		.2byte	0x4d9
 635 0131 86000000 		.4byte	0x86
 636 0135 02       		.byte	0x2
 637 0136 23       		.byte	0x23
 638 0137 0A       		.uleb128 0xa
 639 0138 0C       		.uleb128 0xc
 640 0139 43523100 		.ascii	"CR1\000"
 641 013d 06       		.byte	0x6
 642 013e DA04     		.2byte	0x4da
 643 0140 91000000 		.4byte	0x91
 644 0144 02       		.byte	0x2
 645 0145 23       		.byte	0x23
 646 0146 0C       		.uleb128 0xc
 647 0147 0D       		.uleb128 0xd
 648 0148 C6000000 		.4byte	.LASF19
 649 014c 06       		.byte	0x6
 650 014d DB04     		.2byte	0x4db
 651 014f 86000000 		.4byte	0x86
 652 0153 02       		.byte	0x2
 653 0154 23       		.byte	0x23
 654 0155 0E       		.uleb128 0xe
 655 0156 0C       		.uleb128 0xc
 656 0157 43523200 		.ascii	"CR2\000"
 657 015b 06       		.byte	0x6
 658 015c DC04     		.2byte	0x4dc
 659 015e 91000000 		.4byte	0x91
 660 0162 02       		.byte	0x2
 661 0163 23       		.byte	0x23
 662 0164 10       		.uleb128 0x10
 663 0165 0D       		.uleb128 0xd
 664 0166 D0000000 		.4byte	.LASF20
 665 016a 06       		.byte	0x6
 666 016b DD04     		.2byte	0x4dd
 667 016d 86000000 		.4byte	0x86
 668 0171 02       		.byte	0x2
 669 0172 23       		.byte	0x23
 670 0173 12       		.uleb128 0x12
ARM GAS  G:\Users\Jaxb\AppData\Local\Temp\cc731FpS.s 			page 18


 671 0174 0C       		.uleb128 0xc
 672 0175 43523300 		.ascii	"CR3\000"
 673 0179 06       		.byte	0x6
 674 017a DE04     		.2byte	0x4de
 675 017c 91000000 		.4byte	0x91
 676 0180 02       		.byte	0x2
 677 0181 23       		.byte	0x23
 678 0182 14       		.uleb128 0x14
 679 0183 0D       		.uleb128 0xd
 680 0184 45020000 		.4byte	.LASF21
 681 0188 06       		.byte	0x6
 682 0189 DF04     		.2byte	0x4df
 683 018b 86000000 		.4byte	0x86
 684 018f 02       		.byte	0x2
 685 0190 23       		.byte	0x23
 686 0191 16       		.uleb128 0x16
 687 0192 0D       		.uleb128 0xd
 688 0193 87010000 		.4byte	.LASF22
 689 0197 06       		.byte	0x6
 690 0198 E004     		.2byte	0x4e0
 691 019a 91000000 		.4byte	0x91
 692 019e 02       		.byte	0x2
 693 019f 23       		.byte	0x23
 694 01a0 18       		.uleb128 0x18
 695 01a1 0D       		.uleb128 0xd
 696 01a2 3F000000 		.4byte	.LASF23
 697 01a6 06       		.byte	0x6
 698 01a7 E104     		.2byte	0x4e1
 699 01a9 86000000 		.4byte	0x86
 700 01ad 02       		.byte	0x2
 701 01ae 23       		.byte	0x23
 702 01af 1A       		.uleb128 0x1a
 703 01b0 00       		.byte	0
 704 01b1 0E       		.uleb128 0xe
 705 01b2 9A000000 		.4byte	.LASF24
 706 01b6 06       		.byte	0x6
 707 01b7 E204     		.2byte	0x4e2
 708 01b9 D7000000 		.4byte	0xd7
 709 01bd 07       		.uleb128 0x7
 710 01be 6D030000 		.4byte	.LASF25
 711 01c2 07       		.byte	0x7
 712 01c3 12       		.byte	0x12
 713 01c4 7A000000 		.4byte	0x7a
 714 01c8 01       		.byte	0x1
 715 01c9 01       		.byte	0x1
 716 01ca 02       		.uleb128 0x2
 717 01cb 01       		.byte	0x1
 718 01cc 08       		.byte	0x8
 719 01cd 21020000 		.4byte	.LASF26
 720 01d1 0F       		.uleb128 0xf
 721 01d2 01       		.byte	0x1
 722 01d3 49000000 		.4byte	.LASF27
 723 01d7 01       		.byte	0x1
 724 01d8 FD       		.byte	0xfd
 725 01d9 01       		.byte	0x1
 726 01da 30010000 		.4byte	.LFB49
 727 01de 64010000 		.4byte	.LFE49
ARM GAS  G:\Users\Jaxb\AppData\Local\Temp\cc731FpS.s 			page 19


 728 01e2 00000000 		.4byte	.LLST3
 729 01e6 01       		.byte	0x1
 730 01e7 2A020000 		.4byte	0x22a
 731 01eb 10       		.uleb128 0x10
 732 01ec 44010000 		.4byte	.LVL23
 733 01f0 07050000 		.4byte	0x507
 734 01f4 09020000 		.4byte	0x209
 735 01f8 11       		.uleb128 0x11
 736 01f9 01       		.byte	0x1
 737 01fa 50       		.byte	0x50
 738 01fb 05       		.byte	0x5
 739 01fc 0C       		.byte	0xc
 740 01fd 00440040 		.4byte	0x40004400
 741 0201 11       		.uleb128 0x11
 742 0202 01       		.byte	0x1
 743 0203 51       		.byte	0x51
 744 0204 03       		.byte	0x3
 745 0205 0A       		.byte	0xa
 746 0206 2505     		.2byte	0x525
 747 0208 00       		.byte	0
 748 0209 10       		.uleb128 0x10
 749 020a 4C010000 		.4byte	.LVL24
 750 020e 15050000 		.4byte	0x515
 751 0212 20020000 		.4byte	0x220
 752 0216 11       		.uleb128 0x11
 753 0217 01       		.byte	0x1
 754 0218 50       		.byte	0x50
 755 0219 05       		.byte	0x5
 756 021a 0C       		.byte	0xc
 757 021b 00440040 		.4byte	0x40004400
 758 021f 00       		.byte	0
 759 0220 12       		.uleb128 0x12
 760 0221 52010000 		.4byte	.LVL25
 761 0225 23050000 		.4byte	0x523
 762 0229 00       		.byte	0
 763 022a 0F       		.uleb128 0xf
 764 022b 01       		.byte	0x1
 765 022c D9010000 		.4byte	.LASF28
 766 0230 01       		.byte	0x1
 767 0231 EE       		.byte	0xee
 768 0232 01       		.byte	0x1
 769 0233 FC000000 		.4byte	.LFB48
 770 0237 30010000 		.4byte	.LFE48
 771 023b 20000000 		.4byte	.LLST2
 772 023f 01       		.byte	0x1
 773 0240 83020000 		.4byte	0x283
 774 0244 10       		.uleb128 0x10
 775 0245 10010000 		.4byte	.LVL20
 776 0249 07050000 		.4byte	0x507
 777 024d 62020000 		.4byte	0x262
 778 0251 11       		.uleb128 0x11
 779 0252 01       		.byte	0x1
 780 0253 50       		.byte	0x50
 781 0254 05       		.byte	0x5
 782 0255 0C       		.byte	0xc
 783 0256 00380140 		.4byte	0x40013800
 784 025a 11       		.uleb128 0x11
ARM GAS  G:\Users\Jaxb\AppData\Local\Temp\cc731FpS.s 			page 20


 785 025b 01       		.byte	0x1
 786 025c 51       		.byte	0x51
 787 025d 03       		.byte	0x3
 788 025e 0A       		.byte	0xa
 789 025f 2505     		.2byte	0x525
 790 0261 00       		.byte	0
 791 0262 10       		.uleb128 0x10
 792 0263 18010000 		.4byte	.LVL21
 793 0267 15050000 		.4byte	0x515
 794 026b 79020000 		.4byte	0x279
 795 026f 11       		.uleb128 0x11
 796 0270 01       		.byte	0x1
 797 0271 50       		.byte	0x50
 798 0272 05       		.byte	0x5
 799 0273 0C       		.byte	0xc
 800 0274 00380140 		.4byte	0x40013800
 801 0278 00       		.byte	0
 802 0279 12       		.uleb128 0x12
 803 027a 1E010000 		.4byte	.LVL22
 804 027e 30050000 		.4byte	0x530
 805 0282 00       		.byte	0
 806 0283 13       		.uleb128 0x13
 807 0284 01       		.byte	0x1
 808 0285 77000000 		.4byte	.LASF29
 809 0289 01       		.byte	0x1
 810 028a E6       		.byte	0xe6
 811 028b 01       		.byte	0x1
 812 028c 13       		.uleb128 0x13
 813 028d 01       		.byte	0x1
 814 028e 36020000 		.4byte	.LASF30
 815 0292 01       		.byte	0x1
 816 0293 DA       		.byte	0xda
 817 0294 01       		.byte	0x1
 818 0295 13       		.uleb128 0x13
 819 0296 01       		.byte	0x1
 820 0297 66000000 		.4byte	.LASF31
 821 029b 01       		.byte	0x1
 822 029c D1       		.byte	0xd1
 823 029d 01       		.byte	0x1
 824 029e 13       		.uleb128 0x13
 825 029f 01       		.byte	0x1
 826 02a0 7B010000 		.4byte	.LASF32
 827 02a4 01       		.byte	0x1
 828 02a5 C7       		.byte	0xc7
 829 02a6 01       		.byte	0x1
 830 02a7 14       		.uleb128 0x14
 831 02a8 01       		.byte	0x1
 832 02a9 EB010000 		.4byte	.LASF33
 833 02ad 01       		.byte	0x1
 834 02ae B9       		.byte	0xb9
 835 02af 01       		.byte	0x1
 836 02b0 E8000000 		.4byte	.LFB43
 837 02b4 EA000000 		.4byte	.LFE43
 838 02b8 02       		.byte	0x2
 839 02b9 7D       		.byte	0x7d
 840 02ba 00       		.sleb128 0
 841 02bb 01       		.byte	0x1
ARM GAS  G:\Users\Jaxb\AppData\Local\Temp\cc731FpS.s 			page 21


 842 02bc 14       		.uleb128 0x14
 843 02bd 01       		.byte	0x1
 844 02be 00000000 		.4byte	.LASF34
 845 02c2 01       		.byte	0x1
 846 02c3 AC       		.byte	0xac
 847 02c4 01       		.byte	0x1
 848 02c5 E4000000 		.4byte	.LFB42
 849 02c9 E6000000 		.4byte	.LFE42
 850 02cd 02       		.byte	0x2
 851 02ce 7D       		.byte	0x7d
 852 02cf 00       		.sleb128 0
 853 02d0 01       		.byte	0x1
 854 02d1 14       		.uleb128 0x14
 855 02d2 01       		.byte	0x1
 856 02d3 C7010000 		.4byte	.LASF35
 857 02d7 01       		.byte	0x1
 858 02d8 9F       		.byte	0x9f
 859 02d9 01       		.byte	0x1
 860 02da E0000000 		.4byte	.LFB41
 861 02de E2000000 		.4byte	.LFE41
 862 02e2 02       		.byte	0x2
 863 02e3 7D       		.byte	0x7d
 864 02e4 00       		.sleb128 0
 865 02e5 01       		.byte	0x1
 866 02e6 0F       		.uleb128 0xf
 867 02e7 01       		.byte	0x1
 868 02e8 FE010000 		.4byte	.LASF36
 869 02ec 01       		.byte	0x1
 870 02ed 44       		.byte	0x44
 871 02ee 01       		.byte	0x1
 872 02ef 04000000 		.4byte	.LFB40
 873 02f3 E0000000 		.4byte	.LFE40
 874 02f7 40000000 		.4byte	.LLST0
 875 02fb 01       		.byte	0x1
 876 02fc E6040000 		.4byte	0x4e6
 877 0300 15       		.uleb128 0x15
 878 0301 DA000000 		.4byte	.LASF53
 879 0305 01       		.byte	0x1
 880 0306 44       		.byte	0x44
 881 0307 E6040000 		.4byte	0x4e6
 882 030b 60000000 		.4byte	.LLST1
 883 030f 16       		.uleb128 0x16
 884 0310 40030000 		.4byte	.LASF37
 885 0314 01       		.byte	0x1
 886 0315 48       		.byte	0x48
 887 0316 7F000000 		.4byte	0x7f
 888 031a 01       		.byte	0x1
 889 031b 5B       		.byte	0x5b
 890 031c 16       		.uleb128 0x16
 891 031d 4B030000 		.4byte	.LASF38
 892 0321 01       		.byte	0x1
 893 0322 4A       		.byte	0x4a
 894 0323 7F000000 		.4byte	0x7f
 895 0327 01       		.byte	0x1
 896 0328 5A       		.byte	0x5a
 897 0329 16       		.uleb128 0x16
 898 032a 56030000 		.4byte	.LASF39
ARM GAS  G:\Users\Jaxb\AppData\Local\Temp\cc731FpS.s 			page 22


 899 032e 01       		.byte	0x1
 900 032f 4C       		.byte	0x4c
 901 0330 7F000000 		.4byte	0x7f
 902 0334 01       		.byte	0x1
 903 0335 59       		.byte	0x59
 904 0336 16       		.uleb128 0x16
 905 0337 AD030000 		.4byte	.LASF40
 906 033b 01       		.byte	0x1
 907 033c 4E       		.byte	0x4e
 908 033d 7F000000 		.4byte	0x7f
 909 0341 01       		.byte	0x1
 910 0342 58       		.byte	0x58
 911 0343 16       		.uleb128 0x16
 912 0344 4F010000 		.4byte	.LASF41
 913 0348 01       		.byte	0x1
 914 0349 50       		.byte	0x50
 915 034a 7F000000 		.4byte	0x7f
 916 034e 01       		.byte	0x1
 917 034f 57       		.byte	0x57
 918 0350 16       		.uleb128 0x16
 919 0351 E9000000 		.4byte	.LASF42
 920 0355 01       		.byte	0x1
 921 0356 52       		.byte	0x52
 922 0357 7F000000 		.4byte	0x7f
 923 035b 01       		.byte	0x1
 924 035c 56       		.byte	0x56
 925 035d 16       		.uleb128 0x16
 926 035e BC010000 		.4byte	.LASF43
 927 0362 01       		.byte	0x1
 928 0363 54       		.byte	0x54
 929 0364 7F000000 		.4byte	0x7f
 930 0368 01       		.byte	0x1
 931 0369 55       		.byte	0x55
 932 036a 16       		.uleb128 0x16
 933 036b 61030000 		.4byte	.LASF44
 934 036f 01       		.byte	0x1
 935 0370 56       		.byte	0x56
 936 0371 7F000000 		.4byte	0x7f
 937 0375 01       		.byte	0x1
 938 0376 54       		.byte	0x54
 939 0377 10       		.uleb128 0x10
 940 0378 20000000 		.4byte	.LVL6
 941 037c 3D050000 		.4byte	0x53d
 942 0380 8E030000 		.4byte	0x38e
 943 0384 11       		.uleb128 0x11
 944 0385 01       		.byte	0x1
 945 0386 50       		.byte	0x50
 946 0387 05       		.byte	0x5
 947 0388 03       		.byte	0x3
 948 0389 00000000 		.4byte	.LC0
 949 038d 00       		.byte	0
 950 038e 10       		.uleb128 0x10
 951 038f 28000000 		.4byte	.LVL7
 952 0393 3D050000 		.4byte	0x53d
 953 0397 AB030000 		.4byte	0x3ab
 954 039b 11       		.uleb128 0x11
 955 039c 01       		.byte	0x1
ARM GAS  G:\Users\Jaxb\AppData\Local\Temp\cc731FpS.s 			page 23


 956 039d 50       		.byte	0x50
 957 039e 05       		.byte	0x5
 958 039f 03       		.byte	0x3
 959 03a0 18000000 		.4byte	.LC1
 960 03a4 11       		.uleb128 0x11
 961 03a5 01       		.byte	0x1
 962 03a6 51       		.byte	0x51
 963 03a7 02       		.byte	0x2
 964 03a8 7B       		.byte	0x7b
 965 03a9 00       		.sleb128 0
 966 03aa 00       		.byte	0
 967 03ab 10       		.uleb128 0x10
 968 03ac 30000000 		.4byte	.LVL8
 969 03b0 3D050000 		.4byte	0x53d
 970 03b4 C8030000 		.4byte	0x3c8
 971 03b8 11       		.uleb128 0x11
 972 03b9 01       		.byte	0x1
 973 03ba 50       		.byte	0x50
 974 03bb 05       		.byte	0x5
 975 03bc 03       		.byte	0x3
 976 03bd 24000000 		.4byte	.LC2
 977 03c1 11       		.uleb128 0x11
 978 03c2 01       		.byte	0x1
 979 03c3 51       		.byte	0x51
 980 03c4 02       		.byte	0x2
 981 03c5 7A       		.byte	0x7a
 982 03c6 00       		.sleb128 0
 983 03c7 00       		.byte	0
 984 03c8 10       		.uleb128 0x10
 985 03c9 38000000 		.4byte	.LVL9
 986 03cd 3D050000 		.4byte	0x53d
 987 03d1 E5030000 		.4byte	0x3e5
 988 03d5 11       		.uleb128 0x11
 989 03d6 01       		.byte	0x1
 990 03d7 50       		.byte	0x50
 991 03d8 05       		.byte	0x5
 992 03d9 03       		.byte	0x3
 993 03da 30000000 		.4byte	.LC3
 994 03de 11       		.uleb128 0x11
 995 03df 01       		.byte	0x1
 996 03e0 51       		.byte	0x51
 997 03e1 02       		.byte	0x2
 998 03e2 79       		.byte	0x79
 999 03e3 00       		.sleb128 0
 1000 03e4 00       		.byte	0
 1001 03e5 10       		.uleb128 0x10
 1002 03e6 40000000 		.4byte	.LVL10
 1003 03ea 3D050000 		.4byte	0x53d
 1004 03ee 02040000 		.4byte	0x402
 1005 03f2 11       		.uleb128 0x11
 1006 03f3 01       		.byte	0x1
 1007 03f4 50       		.byte	0x50
 1008 03f5 05       		.byte	0x5
 1009 03f6 03       		.byte	0x3
 1010 03f7 3C000000 		.4byte	.LC4
 1011 03fb 11       		.uleb128 0x11
 1012 03fc 01       		.byte	0x1
ARM GAS  G:\Users\Jaxb\AppData\Local\Temp\cc731FpS.s 			page 24


 1013 03fd 51       		.byte	0x51
 1014 03fe 02       		.byte	0x2
 1015 03ff 78       		.byte	0x78
 1016 0400 00       		.sleb128 0
 1017 0401 00       		.byte	0
 1018 0402 10       		.uleb128 0x10
 1019 0403 48000000 		.4byte	.LVL11
 1020 0407 3D050000 		.4byte	0x53d
 1021 040b 1F040000 		.4byte	0x41f
 1022 040f 11       		.uleb128 0x11
 1023 0410 01       		.byte	0x1
 1024 0411 50       		.byte	0x50
 1025 0412 05       		.byte	0x5
 1026 0413 03       		.byte	0x3
 1027 0414 48000000 		.4byte	.LC5
 1028 0418 11       		.uleb128 0x11
 1029 0419 01       		.byte	0x1
 1030 041a 51       		.byte	0x51
 1031 041b 02       		.byte	0x2
 1032 041c 77       		.byte	0x77
 1033 041d 00       		.sleb128 0
 1034 041e 00       		.byte	0
 1035 041f 10       		.uleb128 0x10
 1036 0420 50000000 		.4byte	.LVL12
 1037 0424 3D050000 		.4byte	0x53d
 1038 0428 3C040000 		.4byte	0x43c
 1039 042c 11       		.uleb128 0x11
 1040 042d 01       		.byte	0x1
 1041 042e 50       		.byte	0x50
 1042 042f 05       		.byte	0x5
 1043 0430 03       		.byte	0x3
 1044 0431 54000000 		.4byte	.LC6
 1045 0435 11       		.uleb128 0x11
 1046 0436 01       		.byte	0x1
 1047 0437 51       		.byte	0x51
 1048 0438 02       		.byte	0x2
 1049 0439 76       		.byte	0x76
 1050 043a 00       		.sleb128 0
 1051 043b 00       		.byte	0
 1052 043c 10       		.uleb128 0x10
 1053 043d 58000000 		.4byte	.LVL13
 1054 0441 3D050000 		.4byte	0x53d
 1055 0445 59040000 		.4byte	0x459
 1056 0449 11       		.uleb128 0x11
 1057 044a 01       		.byte	0x1
 1058 044b 50       		.byte	0x50
 1059 044c 05       		.byte	0x5
 1060 044d 03       		.byte	0x3
 1061 044e 60000000 		.4byte	.LC7
 1062 0452 11       		.uleb128 0x11
 1063 0453 01       		.byte	0x1
 1064 0454 51       		.byte	0x51
 1065 0455 02       		.byte	0x2
 1066 0456 75       		.byte	0x75
 1067 0457 00       		.sleb128 0
 1068 0458 00       		.byte	0
 1069 0459 10       		.uleb128 0x10
ARM GAS  G:\Users\Jaxb\AppData\Local\Temp\cc731FpS.s 			page 25


 1070 045a 60000000 		.4byte	.LVL14
 1071 045e 3D050000 		.4byte	0x53d
 1072 0462 76040000 		.4byte	0x476
 1073 0466 11       		.uleb128 0x11
 1074 0467 01       		.byte	0x1
 1075 0468 50       		.byte	0x50
 1076 0469 05       		.byte	0x5
 1077 046a 03       		.byte	0x3
 1078 046b 6C000000 		.4byte	.LC8
 1079 046f 11       		.uleb128 0x11
 1080 0470 01       		.byte	0x1
 1081 0471 51       		.byte	0x51
 1082 0472 02       		.byte	0x2
 1083 0473 74       		.byte	0x74
 1084 0474 00       		.sleb128 0
 1085 0475 00       		.byte	0
 1086 0476 10       		.uleb128 0x10
 1087 0477 6A000000 		.4byte	.LVL15
 1088 047b 3D050000 		.4byte	0x53d
 1089 047f 8D040000 		.4byte	0x48d
 1090 0483 11       		.uleb128 0x11
 1091 0484 01       		.byte	0x1
 1092 0485 50       		.byte	0x50
 1093 0486 05       		.byte	0x5
 1094 0487 03       		.byte	0x3
 1095 0488 78000000 		.4byte	.LC9
 1096 048c 00       		.byte	0
 1097 048d 10       		.uleb128 0x10
 1098 048e 74000000 		.4byte	.LVL16
 1099 0492 3D050000 		.4byte	0x53d
 1100 0496 A4040000 		.4byte	0x4a4
 1101 049a 11       		.uleb128 0x11
 1102 049b 01       		.byte	0x1
 1103 049c 50       		.byte	0x50
 1104 049d 05       		.byte	0x5
 1105 049e 03       		.byte	0x3
 1106 049f 84000000 		.4byte	.LC10
 1107 04a3 00       		.byte	0
 1108 04a4 10       		.uleb128 0x10
 1109 04a5 7E000000 		.4byte	.LVL17
 1110 04a9 3D050000 		.4byte	0x53d
 1111 04ad BB040000 		.4byte	0x4bb
 1112 04b1 11       		.uleb128 0x11
 1113 04b2 01       		.byte	0x1
 1114 04b3 50       		.byte	0x50
 1115 04b4 05       		.byte	0x5
 1116 04b5 03       		.byte	0x3
 1117 04b6 90000000 		.4byte	.LC11
 1118 04ba 00       		.byte	0
 1119 04bb 10       		.uleb128 0x10
 1120 04bc 88000000 		.4byte	.LVL18
 1121 04c0 3D050000 		.4byte	0x53d
 1122 04c4 D2040000 		.4byte	0x4d2
 1123 04c8 11       		.uleb128 0x11
 1124 04c9 01       		.byte	0x1
 1125 04ca 50       		.byte	0x50
 1126 04cb 05       		.byte	0x5
ARM GAS  G:\Users\Jaxb\AppData\Local\Temp\cc731FpS.s 			page 26


 1127 04cc 03       		.byte	0x3
 1128 04cd 9C000000 		.4byte	.LC12
 1129 04d1 00       		.byte	0
 1130 04d2 17       		.uleb128 0x17
 1131 04d3 92000000 		.4byte	.LVL19
 1132 04d7 3D050000 		.4byte	0x53d
 1133 04db 11       		.uleb128 0x11
 1134 04dc 01       		.byte	0x1
 1135 04dd 50       		.byte	0x50
 1136 04de 05       		.byte	0x5
 1137 04df 03       		.byte	0x3
 1138 04e0 A8000000 		.4byte	.LC13
 1139 04e4 00       		.byte	0
 1140 04e5 00       		.byte	0
 1141 04e6 18       		.uleb128 0x18
 1142 04e7 04       		.byte	0x4
 1143 04e8 7F000000 		.4byte	0x7f
 1144 04ec 19       		.uleb128 0x19
 1145 04ed 01       		.byte	0x1
 1146 04ee B0010000 		.4byte	.LASF54
 1147 04f2 01       		.byte	0x1
 1148 04f3 33       		.byte	0x33
 1149 04f4 01       		.byte	0x1
 1150 04f5 01       		.byte	0x1
 1151 04f6 1A       		.uleb128 0x1a
 1152 04f7 EC040000 		.4byte	0x4ec
 1153 04fb 00000000 		.4byte	.LFB39
 1154 04ff 02000000 		.4byte	.LFE39
 1155 0503 02       		.byte	0x2
 1156 0504 7D       		.byte	0x7d
 1157 0505 00       		.sleb128 0
 1158 0506 01       		.byte	0x1
 1159 0507 1B       		.uleb128 0x1b
 1160 0508 01       		.byte	0x1
 1161 0509 01       		.byte	0x1
 1162 050a 76020000 		.4byte	.LASF45
 1163 050e 76020000 		.4byte	.LASF45
 1164 0512 08       		.byte	0x8
 1165 0513 8801     		.2byte	0x188
 1166 0515 1B       		.uleb128 0x1b
 1167 0516 01       		.byte	0x1
 1168 0517 01       		.byte	0x1
 1169 0518 26010000 		.4byte	.LASF46
 1170 051c 26010000 		.4byte	.LASF46
 1171 0520 08       		.byte	0x8
 1172 0521 7B01     		.2byte	0x17b
 1173 0523 1C       		.uleb128 0x1c
 1174 0524 01       		.byte	0x1
 1175 0525 01       		.byte	0x1
 1176 0526 66010000 		.4byte	.LASF47
 1177 052a 66010000 		.4byte	.LASF47
 1178 052e 09       		.byte	0x9
 1179 052f 4A       		.byte	0x4a
 1180 0530 1C       		.uleb128 0x1c
 1181 0531 01       		.byte	0x1
 1182 0532 01       		.byte	0x1
 1183 0533 59020000 		.4byte	.LASF48
ARM GAS  G:\Users\Jaxb\AppData\Local\Temp\cc731FpS.s 			page 27


 1184 0537 59020000 		.4byte	.LASF48
 1185 053b 0A       		.byte	0xa
 1186 053c 17       		.byte	0x17
 1187 053d 1C       		.uleb128 0x1c
 1188 053e 01       		.byte	0x1
 1189 053f 01       		.byte	0x1
 1190 0540 45010000 		.4byte	.LASF49
 1191 0544 45010000 		.4byte	.LASF49
 1192 0548 0B       		.byte	0xb
 1193 0549 0C       		.byte	0xc
 1194 054a 00       		.byte	0
 1195              		.section	.debug_abbrev,"",%progbits
 1196              	.Ldebug_abbrev0:
 1197 0000 01       		.uleb128 0x1
 1198 0001 11       		.uleb128 0x11
 1199 0002 01       		.byte	0x1
 1200 0003 25       		.uleb128 0x25
 1201 0004 0E       		.uleb128 0xe
 1202 0005 13       		.uleb128 0x13
 1203 0006 0B       		.uleb128 0xb
 1204 0007 03       		.uleb128 0x3
 1205 0008 0E       		.uleb128 0xe
 1206 0009 1B       		.uleb128 0x1b
 1207 000a 0E       		.uleb128 0xe
 1208 000b 11       		.uleb128 0x11
 1209 000c 01       		.uleb128 0x1
 1210 000d 12       		.uleb128 0x12
 1211 000e 01       		.uleb128 0x1
 1212 000f 10       		.uleb128 0x10
 1213 0010 06       		.uleb128 0x6
 1214 0011 00       		.byte	0
 1215 0012 00       		.byte	0
 1216 0013 02       		.uleb128 0x2
 1217 0014 24       		.uleb128 0x24
 1218 0015 00       		.byte	0
 1219 0016 0B       		.uleb128 0xb
 1220 0017 0B       		.uleb128 0xb
 1221 0018 3E       		.uleb128 0x3e
 1222 0019 0B       		.uleb128 0xb
 1223 001a 03       		.uleb128 0x3
 1224 001b 0E       		.uleb128 0xe
 1225 001c 00       		.byte	0
 1226 001d 00       		.byte	0
 1227 001e 03       		.uleb128 0x3
 1228 001f 16       		.uleb128 0x16
 1229 0020 00       		.byte	0
 1230 0021 03       		.uleb128 0x3
 1231 0022 0E       		.uleb128 0xe
 1232 0023 3A       		.uleb128 0x3a
 1233 0024 0B       		.uleb128 0xb
 1234 0025 3B       		.uleb128 0x3b
 1235 0026 0B       		.uleb128 0xb
 1236 0027 49       		.uleb128 0x49
 1237 0028 13       		.uleb128 0x13
 1238 0029 00       		.byte	0
 1239 002a 00       		.byte	0
 1240 002b 04       		.uleb128 0x4
ARM GAS  G:\Users\Jaxb\AppData\Local\Temp\cc731FpS.s 			page 28


 1241 002c 24       		.uleb128 0x24
 1242 002d 00       		.byte	0
 1243 002e 0B       		.uleb128 0xb
 1244 002f 0B       		.uleb128 0xb
 1245 0030 3E       		.uleb128 0x3e
 1246 0031 0B       		.uleb128 0xb
 1247 0032 03       		.uleb128 0x3
 1248 0033 08       		.uleb128 0x8
 1249 0034 00       		.byte	0
 1250 0035 00       		.byte	0
 1251 0036 05       		.uleb128 0x5
 1252 0037 35       		.uleb128 0x35
 1253 0038 00       		.byte	0
 1254 0039 49       		.uleb128 0x49
 1255 003a 13       		.uleb128 0x13
 1256 003b 00       		.byte	0
 1257 003c 00       		.byte	0
 1258 003d 06       		.uleb128 0x6
 1259 003e 34       		.uleb128 0x34
 1260 003f 00       		.byte	0
 1261 0040 03       		.uleb128 0x3
 1262 0041 0E       		.uleb128 0xe
 1263 0042 3A       		.uleb128 0x3a
 1264 0043 0B       		.uleb128 0xb
 1265 0044 3B       		.uleb128 0x3b
 1266 0045 05       		.uleb128 0x5
 1267 0046 49       		.uleb128 0x49
 1268 0047 13       		.uleb128 0x13
 1269 0048 3F       		.uleb128 0x3f
 1270 0049 0C       		.uleb128 0xc
 1271 004a 3C       		.uleb128 0x3c
 1272 004b 0C       		.uleb128 0xc
 1273 004c 00       		.byte	0
 1274 004d 00       		.byte	0
 1275 004e 07       		.uleb128 0x7
 1276 004f 34       		.uleb128 0x34
 1277 0050 00       		.byte	0
 1278 0051 03       		.uleb128 0x3
 1279 0052 0E       		.uleb128 0xe
 1280 0053 3A       		.uleb128 0x3a
 1281 0054 0B       		.uleb128 0xb
 1282 0055 3B       		.uleb128 0x3b
 1283 0056 0B       		.uleb128 0xb
 1284 0057 49       		.uleb128 0x49
 1285 0058 13       		.uleb128 0x13
 1286 0059 3F       		.uleb128 0x3f
 1287 005a 0C       		.uleb128 0xc
 1288 005b 3C       		.uleb128 0x3c
 1289 005c 0C       		.uleb128 0xc
 1290 005d 00       		.byte	0
 1291 005e 00       		.byte	0
 1292 005f 08       		.uleb128 0x8
 1293 0060 04       		.uleb128 0x4
 1294 0061 01       		.byte	0x1
 1295 0062 3E       		.uleb128 0x3e
 1296 0063 0B       		.uleb128 0xb
 1297 0064 0B       		.uleb128 0xb
ARM GAS  G:\Users\Jaxb\AppData\Local\Temp\cc731FpS.s 			page 29


 1298 0065 0B       		.uleb128 0xb
 1299 0066 49       		.uleb128 0x49
 1300 0067 13       		.uleb128 0x13
 1301 0068 3A       		.uleb128 0x3a
 1302 0069 0B       		.uleb128 0xb
 1303 006a 3B       		.uleb128 0x3b
 1304 006b 05       		.uleb128 0x5
 1305 006c 01       		.uleb128 0x1
 1306 006d 13       		.uleb128 0x13
 1307 006e 00       		.byte	0
 1308 006f 00       		.byte	0
 1309 0070 09       		.uleb128 0x9
 1310 0071 28       		.uleb128 0x28
 1311 0072 00       		.byte	0
 1312 0073 03       		.uleb128 0x3
 1313 0074 0E       		.uleb128 0xe
 1314 0075 1C       		.uleb128 0x1c
 1315 0076 0B       		.uleb128 0xb
 1316 0077 00       		.byte	0
 1317 0078 00       		.byte	0
 1318 0079 0A       		.uleb128 0xa
 1319 007a 28       		.uleb128 0x28
 1320 007b 00       		.byte	0
 1321 007c 03       		.uleb128 0x3
 1322 007d 08       		.uleb128 0x8
 1323 007e 1C       		.uleb128 0x1c
 1324 007f 0B       		.uleb128 0xb
 1325 0080 00       		.byte	0
 1326 0081 00       		.byte	0
 1327 0082 0B       		.uleb128 0xb
 1328 0083 13       		.uleb128 0x13
 1329 0084 01       		.byte	0x1
 1330 0085 0B       		.uleb128 0xb
 1331 0086 0B       		.uleb128 0xb
 1332 0087 3A       		.uleb128 0x3a
 1333 0088 0B       		.uleb128 0xb
 1334 0089 3B       		.uleb128 0x3b
 1335 008a 05       		.uleb128 0x5
 1336 008b 01       		.uleb128 0x1
 1337 008c 13       		.uleb128 0x13
 1338 008d 00       		.byte	0
 1339 008e 00       		.byte	0
 1340 008f 0C       		.uleb128 0xc
 1341 0090 0D       		.uleb128 0xd
 1342 0091 00       		.byte	0
 1343 0092 03       		.uleb128 0x3
 1344 0093 08       		.uleb128 0x8
 1345 0094 3A       		.uleb128 0x3a
 1346 0095 0B       		.uleb128 0xb
 1347 0096 3B       		.uleb128 0x3b
 1348 0097 05       		.uleb128 0x5
 1349 0098 49       		.uleb128 0x49
 1350 0099 13       		.uleb128 0x13
 1351 009a 38       		.uleb128 0x38
 1352 009b 0A       		.uleb128 0xa
 1353 009c 00       		.byte	0
 1354 009d 00       		.byte	0
ARM GAS  G:\Users\Jaxb\AppData\Local\Temp\cc731FpS.s 			page 30


 1355 009e 0D       		.uleb128 0xd
 1356 009f 0D       		.uleb128 0xd
 1357 00a0 00       		.byte	0
 1358 00a1 03       		.uleb128 0x3
 1359 00a2 0E       		.uleb128 0xe
 1360 00a3 3A       		.uleb128 0x3a
 1361 00a4 0B       		.uleb128 0xb
 1362 00a5 3B       		.uleb128 0x3b
 1363 00a6 05       		.uleb128 0x5
 1364 00a7 49       		.uleb128 0x49
 1365 00a8 13       		.uleb128 0x13
 1366 00a9 38       		.uleb128 0x38
 1367 00aa 0A       		.uleb128 0xa
 1368 00ab 00       		.byte	0
 1369 00ac 00       		.byte	0
 1370 00ad 0E       		.uleb128 0xe
 1371 00ae 16       		.uleb128 0x16
 1372 00af 00       		.byte	0
 1373 00b0 03       		.uleb128 0x3
 1374 00b1 0E       		.uleb128 0xe
 1375 00b2 3A       		.uleb128 0x3a
 1376 00b3 0B       		.uleb128 0xb
 1377 00b4 3B       		.uleb128 0x3b
 1378 00b5 05       		.uleb128 0x5
 1379 00b6 49       		.uleb128 0x49
 1380 00b7 13       		.uleb128 0x13
 1381 00b8 00       		.byte	0
 1382 00b9 00       		.byte	0
 1383 00ba 0F       		.uleb128 0xf
 1384 00bb 2E       		.uleb128 0x2e
 1385 00bc 01       		.byte	0x1
 1386 00bd 3F       		.uleb128 0x3f
 1387 00be 0C       		.uleb128 0xc
 1388 00bf 03       		.uleb128 0x3
 1389 00c0 0E       		.uleb128 0xe
 1390 00c1 3A       		.uleb128 0x3a
 1391 00c2 0B       		.uleb128 0xb
 1392 00c3 3B       		.uleb128 0x3b
 1393 00c4 0B       		.uleb128 0xb
 1394 00c5 27       		.uleb128 0x27
 1395 00c6 0C       		.uleb128 0xc
 1396 00c7 11       		.uleb128 0x11
 1397 00c8 01       		.uleb128 0x1
 1398 00c9 12       		.uleb128 0x12
 1399 00ca 01       		.uleb128 0x1
 1400 00cb 40       		.uleb128 0x40
 1401 00cc 06       		.uleb128 0x6
 1402 00cd 9742     		.uleb128 0x2117
 1403 00cf 0C       		.uleb128 0xc
 1404 00d0 01       		.uleb128 0x1
 1405 00d1 13       		.uleb128 0x13
 1406 00d2 00       		.byte	0
 1407 00d3 00       		.byte	0
 1408 00d4 10       		.uleb128 0x10
 1409 00d5 898201   		.uleb128 0x4109
 1410 00d8 01       		.byte	0x1
 1411 00d9 11       		.uleb128 0x11
ARM GAS  G:\Users\Jaxb\AppData\Local\Temp\cc731FpS.s 			page 31


 1412 00da 01       		.uleb128 0x1
 1413 00db 31       		.uleb128 0x31
 1414 00dc 13       		.uleb128 0x13
 1415 00dd 01       		.uleb128 0x1
 1416 00de 13       		.uleb128 0x13
 1417 00df 00       		.byte	0
 1418 00e0 00       		.byte	0
 1419 00e1 11       		.uleb128 0x11
 1420 00e2 8A8201   		.uleb128 0x410a
 1421 00e5 00       		.byte	0
 1422 00e6 02       		.uleb128 0x2
 1423 00e7 0A       		.uleb128 0xa
 1424 00e8 9142     		.uleb128 0x2111
 1425 00ea 0A       		.uleb128 0xa
 1426 00eb 00       		.byte	0
 1427 00ec 00       		.byte	0
 1428 00ed 12       		.uleb128 0x12
 1429 00ee 898201   		.uleb128 0x4109
 1430 00f1 00       		.byte	0
 1431 00f2 11       		.uleb128 0x11
 1432 00f3 01       		.uleb128 0x1
 1433 00f4 31       		.uleb128 0x31
 1434 00f5 13       		.uleb128 0x13
 1435 00f6 00       		.byte	0
 1436 00f7 00       		.byte	0
 1437 00f8 13       		.uleb128 0x13
 1438 00f9 2E       		.uleb128 0x2e
 1439 00fa 00       		.byte	0
 1440 00fb 3F       		.uleb128 0x3f
 1441 00fc 0C       		.uleb128 0xc
 1442 00fd 03       		.uleb128 0x3
 1443 00fe 0E       		.uleb128 0xe
 1444 00ff 3A       		.uleb128 0x3a
 1445 0100 0B       		.uleb128 0xb
 1446 0101 3B       		.uleb128 0x3b
 1447 0102 0B       		.uleb128 0xb
 1448 0103 27       		.uleb128 0x27
 1449 0104 0C       		.uleb128 0xc
 1450 0105 00       		.byte	0
 1451 0106 00       		.byte	0
 1452 0107 14       		.uleb128 0x14
 1453 0108 2E       		.uleb128 0x2e
 1454 0109 00       		.byte	0
 1455 010a 3F       		.uleb128 0x3f
 1456 010b 0C       		.uleb128 0xc
 1457 010c 03       		.uleb128 0x3
 1458 010d 0E       		.uleb128 0xe
 1459 010e 3A       		.uleb128 0x3a
 1460 010f 0B       		.uleb128 0xb
 1461 0110 3B       		.uleb128 0x3b
 1462 0111 0B       		.uleb128 0xb
 1463 0112 27       		.uleb128 0x27
 1464 0113 0C       		.uleb128 0xc
 1465 0114 11       		.uleb128 0x11
 1466 0115 01       		.uleb128 0x1
 1467 0116 12       		.uleb128 0x12
 1468 0117 01       		.uleb128 0x1
ARM GAS  G:\Users\Jaxb\AppData\Local\Temp\cc731FpS.s 			page 32


 1469 0118 40       		.uleb128 0x40
 1470 0119 0A       		.uleb128 0xa
 1471 011a 9742     		.uleb128 0x2117
 1472 011c 0C       		.uleb128 0xc
 1473 011d 00       		.byte	0
 1474 011e 00       		.byte	0
 1475 011f 15       		.uleb128 0x15
 1476 0120 05       		.uleb128 0x5
 1477 0121 00       		.byte	0
 1478 0122 03       		.uleb128 0x3
 1479 0123 0E       		.uleb128 0xe
 1480 0124 3A       		.uleb128 0x3a
 1481 0125 0B       		.uleb128 0xb
 1482 0126 3B       		.uleb128 0x3b
 1483 0127 0B       		.uleb128 0xb
 1484 0128 49       		.uleb128 0x49
 1485 0129 13       		.uleb128 0x13
 1486 012a 02       		.uleb128 0x2
 1487 012b 06       		.uleb128 0x6
 1488 012c 00       		.byte	0
 1489 012d 00       		.byte	0
 1490 012e 16       		.uleb128 0x16
 1491 012f 34       		.uleb128 0x34
 1492 0130 00       		.byte	0
 1493 0131 03       		.uleb128 0x3
 1494 0132 0E       		.uleb128 0xe
 1495 0133 3A       		.uleb128 0x3a
 1496 0134 0B       		.uleb128 0xb
 1497 0135 3B       		.uleb128 0x3b
 1498 0136 0B       		.uleb128 0xb
 1499 0137 49       		.uleb128 0x49
 1500 0138 13       		.uleb128 0x13
 1501 0139 02       		.uleb128 0x2
 1502 013a 0A       		.uleb128 0xa
 1503 013b 00       		.byte	0
 1504 013c 00       		.byte	0
 1505 013d 17       		.uleb128 0x17
 1506 013e 898201   		.uleb128 0x4109
 1507 0141 01       		.byte	0x1
 1508 0142 11       		.uleb128 0x11
 1509 0143 01       		.uleb128 0x1
 1510 0144 31       		.uleb128 0x31
 1511 0145 13       		.uleb128 0x13
 1512 0146 00       		.byte	0
 1513 0147 00       		.byte	0
 1514 0148 18       		.uleb128 0x18
 1515 0149 0F       		.uleb128 0xf
 1516 014a 00       		.byte	0
 1517 014b 0B       		.uleb128 0xb
 1518 014c 0B       		.uleb128 0xb
 1519 014d 49       		.uleb128 0x49
 1520 014e 13       		.uleb128 0x13
 1521 014f 00       		.byte	0
 1522 0150 00       		.byte	0
 1523 0151 19       		.uleb128 0x19
 1524 0152 2E       		.uleb128 0x2e
 1525 0153 00       		.byte	0
ARM GAS  G:\Users\Jaxb\AppData\Local\Temp\cc731FpS.s 			page 33


 1526 0154 3F       		.uleb128 0x3f
 1527 0155 0C       		.uleb128 0xc
 1528 0156 03       		.uleb128 0x3
 1529 0157 0E       		.uleb128 0xe
 1530 0158 3A       		.uleb128 0x3a
 1531 0159 0B       		.uleb128 0xb
 1532 015a 3B       		.uleb128 0x3b
 1533 015b 0B       		.uleb128 0xb
 1534 015c 27       		.uleb128 0x27
 1535 015d 0C       		.uleb128 0xc
 1536 015e 20       		.uleb128 0x20
 1537 015f 0B       		.uleb128 0xb
 1538 0160 00       		.byte	0
 1539 0161 00       		.byte	0
 1540 0162 1A       		.uleb128 0x1a
 1541 0163 2E       		.uleb128 0x2e
 1542 0164 00       		.byte	0
 1543 0165 31       		.uleb128 0x31
 1544 0166 13       		.uleb128 0x13
 1545 0167 11       		.uleb128 0x11
 1546 0168 01       		.uleb128 0x1
 1547 0169 12       		.uleb128 0x12
 1548 016a 01       		.uleb128 0x1
 1549 016b 40       		.uleb128 0x40
 1550 016c 0A       		.uleb128 0xa
 1551 016d 9742     		.uleb128 0x2117
 1552 016f 0C       		.uleb128 0xc
 1553 0170 00       		.byte	0
 1554 0171 00       		.byte	0
 1555 0172 1B       		.uleb128 0x1b
 1556 0173 2E       		.uleb128 0x2e
 1557 0174 00       		.byte	0
 1558 0175 3F       		.uleb128 0x3f
 1559 0176 0C       		.uleb128 0xc
 1560 0177 3C       		.uleb128 0x3c
 1561 0178 0C       		.uleb128 0xc
 1562 0179 8740     		.uleb128 0x2007
 1563 017b 0E       		.uleb128 0xe
 1564 017c 03       		.uleb128 0x3
 1565 017d 0E       		.uleb128 0xe
 1566 017e 3A       		.uleb128 0x3a
 1567 017f 0B       		.uleb128 0xb
 1568 0180 3B       		.uleb128 0x3b
 1569 0181 05       		.uleb128 0x5
 1570 0182 00       		.byte	0
 1571 0183 00       		.byte	0
 1572 0184 1C       		.uleb128 0x1c
 1573 0185 2E       		.uleb128 0x2e
 1574 0186 00       		.byte	0
 1575 0187 3F       		.uleb128 0x3f
 1576 0188 0C       		.uleb128 0xc
 1577 0189 3C       		.uleb128 0x3c
 1578 018a 0C       		.uleb128 0xc
 1579 018b 8740     		.uleb128 0x2007
 1580 018d 0E       		.uleb128 0xe
 1581 018e 03       		.uleb128 0x3
 1582 018f 0E       		.uleb128 0xe
ARM GAS  G:\Users\Jaxb\AppData\Local\Temp\cc731FpS.s 			page 34


 1583 0190 3A       		.uleb128 0x3a
 1584 0191 0B       		.uleb128 0xb
 1585 0192 3B       		.uleb128 0x3b
 1586 0193 0B       		.uleb128 0xb
 1587 0194 00       		.byte	0
 1588 0195 00       		.byte	0
 1589 0196 00       		.byte	0
 1590              		.section	.debug_loc,"",%progbits
 1591              	.Ldebug_loc0:
 1592              	.LLST3:
 1593 0000 30010000 		.4byte	.LFB49-.Ltext0
 1594 0004 32010000 		.4byte	.LCFI2-.Ltext0
 1595 0008 0200     		.2byte	0x2
 1596 000a 7D       		.byte	0x7d
 1597 000b 00       		.sleb128 0
 1598 000c 32010000 		.4byte	.LCFI2-.Ltext0
 1599 0010 64010000 		.4byte	.LFE49-.Ltext0
 1600 0014 0200     		.2byte	0x2
 1601 0016 7D       		.byte	0x7d
 1602 0017 08       		.sleb128 8
 1603 0018 00000000 		.4byte	0
 1604 001c 00000000 		.4byte	0
 1605              	.LLST2:
 1606 0020 FC000000 		.4byte	.LFB48-.Ltext0
 1607 0024 FE000000 		.4byte	.LCFI1-.Ltext0
 1608 0028 0200     		.2byte	0x2
 1609 002a 7D       		.byte	0x7d
 1610 002b 00       		.sleb128 0
 1611 002c FE000000 		.4byte	.LCFI1-.Ltext0
 1612 0030 30010000 		.4byte	.LFE48-.Ltext0
 1613 0034 0200     		.2byte	0x2
 1614 0036 7D       		.byte	0x7d
 1615 0037 08       		.sleb128 8
 1616 0038 00000000 		.4byte	0
 1617 003c 00000000 		.4byte	0
 1618              	.LLST0:
 1619 0040 04000000 		.4byte	.LFB40-.Ltext0
 1620 0044 08000000 		.4byte	.LCFI0-.Ltext0
 1621 0048 0200     		.2byte	0x2
 1622 004a 7D       		.byte	0x7d
 1623 004b 00       		.sleb128 0
 1624 004c 08000000 		.4byte	.LCFI0-.Ltext0
 1625 0050 E0000000 		.4byte	.LFE40-.Ltext0
 1626 0054 0200     		.2byte	0x2
 1627 0056 7D       		.byte	0x7d
 1628 0057 28       		.sleb128 40
 1629 0058 00000000 		.4byte	0
 1630 005c 00000000 		.4byte	0
 1631              	.LLST1:
 1632 0060 04000000 		.4byte	.LVL0-.Ltext0
 1633 0064 0C000000 		.4byte	.LVL1-.Ltext0
 1634 0068 0100     		.2byte	0x1
 1635 006a 50       		.byte	0x50
 1636 006b 0C000000 		.4byte	.LVL1-.Ltext0
 1637 006f 1F000000 		.4byte	.LVL6-1-.Ltext0
 1638 0073 0100     		.2byte	0x1
 1639 0075 53       		.byte	0x53
ARM GAS  G:\Users\Jaxb\AppData\Local\Temp\cc731FpS.s 			page 35


 1640 0076 1F000000 		.4byte	.LVL6-1-.Ltext0
 1641 007a E0000000 		.4byte	.LFE40-.Ltext0
 1642 007e 0400     		.2byte	0x4
 1643 0080 F3       		.byte	0xf3
 1644 0081 01       		.uleb128 0x1
 1645 0082 50       		.byte	0x50
 1646 0083 9F       		.byte	0x9f
 1647 0084 00000000 		.4byte	0
 1648 0088 00000000 		.4byte	0
 1649              		.section	.debug_aranges,"",%progbits
 1650 0000 1C000000 		.4byte	0x1c
 1651 0004 0200     		.2byte	0x2
 1652 0006 00000000 		.4byte	.Ldebug_info0
 1653 000a 04       		.byte	0x4
 1654 000b 00       		.byte	0
 1655 000c 0000     		.2byte	0
 1656 000e 0000     		.2byte	0
 1657 0010 00000000 		.4byte	.Ltext0
 1658 0014 64010000 		.4byte	.Letext0-.Ltext0
 1659 0018 00000000 		.4byte	0
 1660 001c 00000000 		.4byte	0
 1661              		.section	.debug_line,"",%progbits
 1662              	.Ldebug_line0:
 1663 0000 0A020000 		.section	.debug_str,"MS",%progbits,1
 1663      0200B701 
 1663      00000201 
 1663      FB0E0D00 
 1663      01010101 
 1664              	.LASF34:
 1665 0000 42757346 		.ascii	"BusFault_Handler\000"
 1665      61756C74 
 1665      5F48616E 
 1665      646C6572 
 1665      00
 1666              	.LASF51:
 1667 0011 2E2E2F2E 		.ascii	"../../source/src/kernel/OS_CPU/stm32f10x_it.c\000"
 1667      2E2F736F 
 1667      75726365 
 1667      2F737263 
 1667      2F6B6572 
 1668              	.LASF23:
 1669 003f 52455345 		.ascii	"RESERVED6\000"
 1669      52564544 
 1669      3600
 1670              	.LASF27:
 1671 0049 55534152 		.ascii	"USART2_IRQHandler\000"
 1671      54325F49 
 1671      52514861 
 1671      6E646C65 
 1671      7200
 1672              	.LASF6:
 1673 005b 5F5F7569 		.ascii	"__uint32_t\000"
 1673      6E743332 
 1673      5F7400
 1674              	.LASF31:
 1675 0066 44656275 		.ascii	"DebugMon_Handler\000"
 1675      674D6F6E 
ARM GAS  G:\Users\Jaxb\AppData\Local\Temp\cc731FpS.s 			page 36


 1675      5F48616E 
 1675      646C6572 
 1675      00
 1676              	.LASF29:
 1677 0077 53797354 		.ascii	"SysTick_Handler\000"
 1677      69636B5F 
 1677      48616E64 
 1677      6C657200 
 1678              	.LASF3:
 1679 0087 73686F72 		.ascii	"short unsigned int\000"
 1679      7420756E 
 1679      7369676E 
 1679      65642069 
 1679      6E7400
 1680              	.LASF24:
 1681 009a 55534152 		.ascii	"USART_TypeDef\000"
 1681      545F5479 
 1681      70654465 
 1681      6600
 1682              	.LASF16:
 1683 00a8 52455345 		.ascii	"RESERVED0\000"
 1683      52564544 
 1683      3000
 1684              	.LASF17:
 1685 00b2 52455345 		.ascii	"RESERVED1\000"
 1685      52564544 
 1685      3100
 1686              	.LASF18:
 1687 00bc 52455345 		.ascii	"RESERVED2\000"
 1687      52564544 
 1687      3200
 1688              	.LASF19:
 1689 00c6 52455345 		.ascii	"RESERVED3\000"
 1689      52564544 
 1689      3300
 1690              	.LASF20:
 1691 00d0 52455345 		.ascii	"RESERVED4\000"
 1691      52564544 
 1691      3400
 1692              	.LASF53:
 1693 00da 68617264 		.ascii	"hardfault_args\000"
 1693      6661756C 
 1693      745F6172 
 1693      677300
 1694              	.LASF42:
 1695 00e9 73746163 		.ascii	"stacked_lr\000"
 1695      6B65645F 
 1695      6C7200
 1696              	.LASF0:
 1697 00f4 7369676E 		.ascii	"signed char\000"
 1697      65642063 
 1697      68617200 
 1698              	.LASF1:
 1699 0100 756E7369 		.ascii	"unsigned char\000"
 1699      676E6564 
 1699      20636861 
 1699      7200
ARM GAS  G:\Users\Jaxb\AppData\Local\Temp\cc731FpS.s 			page 37


 1700              	.LASF7:
 1701 010e 6C6F6E67 		.ascii	"long unsigned int\000"
 1701      20756E73 
 1701      69676E65 
 1701      6420696E 
 1701      7400
 1702              	.LASF15:
 1703 0120 52455345 		.ascii	"RESET\000"
 1703      5400
 1704              	.LASF46:
 1705 0126 55534152 		.ascii	"USART_ReceiveData\000"
 1705      545F5265 
 1705      63656976 
 1705      65446174 
 1705      6100
 1706              	.LASF13:
 1707 0138 49544D5F 		.ascii	"ITM_RxBuffer\000"
 1707      52784275 
 1707      66666572 
 1707      00
 1708              	.LASF49:
 1709 0145 6B615F70 		.ascii	"ka_printf\000"
 1709      72696E74 
 1709      6600
 1710              	.LASF41:
 1711 014f 73746163 		.ascii	"stacked_r12\000"
 1711      6B65645F 
 1711      72313200 
 1712              	.LASF5:
 1713 015b 5F5F7569 		.ascii	"__uint16_t\000"
 1713      6E743136 
 1713      5F7400
 1714              	.LASF47:
 1715 0166 7075745F 		.ascii	"put_in_module_buffer\000"
 1715      696E5F6D 
 1715      6F64756C 
 1715      655F6275 
 1715      66666572 
 1716              	.LASF32:
 1717 017b 5356435F 		.ascii	"SVC_Handler\000"
 1717      48616E64 
 1717      6C657200 
 1718              	.LASF22:
 1719 0187 47545052 		.ascii	"GTPR\000"
 1719      00
 1720              	.LASF10:
 1721 018c 756E7369 		.ascii	"unsigned int\000"
 1721      676E6564 
 1721      20696E74 
 1721      00
 1722              	.LASF9:
 1723 0199 6C6F6E67 		.ascii	"long long unsigned int\000"
 1723      206C6F6E 
 1723      6720756E 
 1723      7369676E 
 1723      65642069 
 1724              	.LASF54:
ARM GAS  G:\Users\Jaxb\AppData\Local\Temp\cc731FpS.s 			page 38


 1725 01b0 4E4D495F 		.ascii	"NMI_Handler\000"
 1725      48616E64 
 1725      6C657200 
 1726              	.LASF43:
 1727 01bc 73746163 		.ascii	"stacked_pc\000"
 1727      6B65645F 
 1727      706300
 1728              	.LASF35:
 1729 01c7 4D656D4D 		.ascii	"MemManage_Handler\000"
 1729      616E6167 
 1729      655F4861 
 1729      6E646C65 
 1729      7200
 1730              	.LASF28:
 1731 01d9 55534152 		.ascii	"USART1_IRQHandler\000"
 1731      54315F49 
 1731      52514861 
 1731      6E646C65 
 1731      7200
 1732              	.LASF33:
 1733 01eb 55736167 		.ascii	"UsageFault_Handler\000"
 1733      65466175 
 1733      6C745F48 
 1733      616E646C 
 1733      657200
 1734              	.LASF36:
 1735 01fe 68617264 		.ascii	"hard_fault_handler_c\000"
 1735      5F666175 
 1735      6C745F68 
 1735      616E646C 
 1735      65725F63 
 1736              	.LASF8:
 1737 0213 6C6F6E67 		.ascii	"long long int\000"
 1737      206C6F6E 
 1737      6720696E 
 1737      7400
 1738              	.LASF26:
 1739 0221 63686172 		.ascii	"char\000"
 1739      00
 1740              	.LASF14:
 1741 0226 53797374 		.ascii	"SystemCoreClock\000"
 1741      656D436F 
 1741      7265436C 
 1741      6F636B00 
 1742              	.LASF30:
 1743 0236 50656E64 		.ascii	"PendSV_Handler\000"
 1743      53565F48 
 1743      616E646C 
 1743      657200
 1744              	.LASF21:
 1745 0245 52455345 		.ascii	"RESERVED5\000"
 1745      52564544 
 1745      3500
 1746              	.LASF2:
 1747 024f 73686F72 		.ascii	"short int\000"
 1747      7420696E 
 1747      7400
ARM GAS  G:\Users\Jaxb\AppData\Local\Temp\cc731FpS.s 			page 39


 1748              	.LASF48:
 1749 0259 7075745F 		.ascii	"put_in_shell_buffer\000"
 1749      696E5F73 
 1749      68656C6C 
 1749      5F627566 
 1749      66657200 
 1750              	.LASF11:
 1751 026d 75696E74 		.ascii	"uint16_t\000"
 1751      31365F74 
 1751      00
 1752              	.LASF45:
 1753 0276 55534152 		.ascii	"USART_GetITStatus\000"
 1753      545F4765 
 1753      74495453 
 1753      74617475 
 1753      7300
 1754              	.LASF12:
 1755 0288 75696E74 		.ascii	"uint32_t\000"
 1755      33325F74 
 1755      00
 1756              	.LASF4:
 1757 0291 6C6F6E67 		.ascii	"long int\000"
 1757      20696E74 
 1757      00
 1758              	.LASF50:
 1759 029a 474E5520 		.ascii	"GNU C11 7.3.1 20180622 (release) [ARM/embedded-7-br"
 1759      43313120 
 1759      372E332E 
 1759      31203230 
 1759      31383036 
 1760 02cd 616E6368 		.ascii	"anch revision 261907] -mcpu=cortex-m3 -mthumb -mapc"
 1760      20726576 
 1760      6973696F 
 1760      6E203236 
 1760      31393037 
 1761 0300 732D6672 		.ascii	"s-frame -mthumb-interwork -mcpu=cortex-m3 -mthumb -"
 1761      616D6520 
 1761      2D6D7468 
 1761      756D622D 
 1761      696E7465 
 1762 0333 67647761 		.ascii	"gdwarf-2 -O2\000"
 1762      72662D32 
 1762      202D4F32 
 1762      00
 1763              	.LASF37:
 1764 0340 73746163 		.ascii	"stacked_r0\000"
 1764      6B65645F 
 1764      723000
 1765              	.LASF38:
 1766 034b 73746163 		.ascii	"stacked_r1\000"
 1766      6B65645F 
 1766      723100
 1767              	.LASF39:
 1768 0356 73746163 		.ascii	"stacked_r2\000"
 1768      6B65645F 
 1768      723200
 1769              	.LASF44:
ARM GAS  G:\Users\Jaxb\AppData\Local\Temp\cc731FpS.s 			page 40


 1770 0361 73746163 		.ascii	"stacked_psr\000"
 1770      6B65645F 
 1770      70737200 
 1771              	.LASF25:
 1772 036d 675F696E 		.ascii	"g_interrupt_count\000"
 1772      74657272 
 1772      7570745F 
 1772      636F756E 
 1772      7400
 1773              	.LASF52:
 1774 037f 463A5C6B 		.ascii	"F:\\kaka\\KAKAOS\\C\\windows\\Project\\RVMDK\243\250"
 1774      616B615C 
 1774      4B414B41 
 1774      4F535C43 
 1774      5C77696E 
 1775 03a7 757635A3 		.ascii	"uv5\243\251\000"
 1775      A900
 1776              	.LASF40:
 1777 03ad 73746163 		.ascii	"stacked_r3\000"
 1777      6B65645F 
 1777      723300
 1778              		.ident	"GCC: (GNU Tools for Arm Embedded Processors 7-2018-q2-update) 7.3.1 20180622 (release) [AR
ARM GAS  G:\Users\Jaxb\AppData\Local\Temp\cc731FpS.s 			page 41


DEFINED SYMBOLS
                            *ABS*:00000000 stm32f10x_it.c
G:\Users\Jaxb\AppData\Local\Temp\cc731FpS.s:15     .text:00000000 $t
G:\Users\Jaxb\AppData\Local\Temp\cc731FpS.s:23     .text:00000000 NMI_Handler
G:\Users\Jaxb\AppData\Local\Temp\cc731FpS.s:44     .text:00000004 hard_fault_handler_c
G:\Users\Jaxb\AppData\Local\Temp\cc731FpS.s:159    .text:00000094 $d
G:\Users\Jaxb\AppData\Local\Temp\cc731FpS.s:181    .text:000000e0 $t
G:\Users\Jaxb\AppData\Local\Temp\cc731FpS.s:189    .text:000000e0 MemManage_Handler
G:\Users\Jaxb\AppData\Local\Temp\cc731FpS.s:210    .text:000000e4 BusFault_Handler
G:\Users\Jaxb\AppData\Local\Temp\cc731FpS.s:231    .text:000000e8 UsageFault_Handler
G:\Users\Jaxb\AppData\Local\Temp\cc731FpS.s:252    .text:000000ec SVC_Handler
G:\Users\Jaxb\AppData\Local\Temp\cc731FpS.s:270    .text:000000f0 DebugMon_Handler
G:\Users\Jaxb\AppData\Local\Temp\cc731FpS.s:288    .text:000000f4 PendSV_Handler
G:\Users\Jaxb\AppData\Local\Temp\cc731FpS.s:306    .text:000000f8 SysTick_Handler
G:\Users\Jaxb\AppData\Local\Temp\cc731FpS.s:324    .text:000000fc USART1_IRQHandler
G:\Users\Jaxb\AppData\Local\Temp\cc731FpS.s:368    .text:00000128 $d
G:\Users\Jaxb\AppData\Local\Temp\cc731FpS.s:373    .text:00000130 $t
G:\Users\Jaxb\AppData\Local\Temp\cc731FpS.s:381    .text:00000130 USART2_IRQHandler
G:\Users\Jaxb\AppData\Local\Temp\cc731FpS.s:424    .text:0000015c $d
G:\Users\Jaxb\AppData\Local\Temp\cc731FpS.s:430    .rodata.str1.4:00000000 $d

UNDEFINED SYMBOLS
ka_printf
USART_GetITStatus
USART_ReceiveData
put_in_shell_buffer
g_interrupt_count
put_in_module_buffer
