ARM GAS  G:\Users\Jaxb\AppData\Local\Temp\ccWNHqDV.s 			page 1


   1              		.cpu cortex-m3
   2              		.eabi_attribute 20, 1
   3              		.eabi_attribute 21, 1
   4              		.eabi_attribute 23, 3
   5              		.eabi_attribute 24, 1
   6              		.eabi_attribute 25, 1
   7              		.eabi_attribute 26, 1
   8              		.eabi_attribute 30, 6
   9              		.eabi_attribute 34, 1
  10              		.eabi_attribute 18, 4
  11              		.file	"stm32f10x_usart.c"
  12              		.text
  13              	.Ltext0:
  14              		.cfi_sections	.debug_frame
  15              		.align	1
  16              		.global	USART_DeInit
  17              		.syntax unified
  18              		.thumb
  19              		.thumb_func
  20              		.fpu softvfp
  21              		.type	USART_DeInit, %function
  22              	USART_DeInit:
  23              	.LFB29:
  24              		.file 1 "../../source/src/FWlib/src/stm32f10x_usart.c"
   1:../../source/src/FWlib/src/stm32f10x_usart.c **** /**
   2:../../source/src/FWlib/src/stm32f10x_usart.c ****   ******************************************************************************
   3:../../source/src/FWlib/src/stm32f10x_usart.c ****   * @file    stm32f10x_usart.c
   4:../../source/src/FWlib/src/stm32f10x_usart.c ****   * @author  MCD Application Team
   5:../../source/src/FWlib/src/stm32f10x_usart.c ****   * @version V3.5.0
   6:../../source/src/FWlib/src/stm32f10x_usart.c ****   * @date    11-March-2011
   7:../../source/src/FWlib/src/stm32f10x_usart.c ****   * @brief   This file provides all the USART firmware functions.
   8:../../source/src/FWlib/src/stm32f10x_usart.c ****   ******************************************************************************
   9:../../source/src/FWlib/src/stm32f10x_usart.c ****   * @attention
  10:../../source/src/FWlib/src/stm32f10x_usart.c ****   *
  11:../../source/src/FWlib/src/stm32f10x_usart.c ****   * THE PRESENT FIRMWARE WHICH IS FOR GUIDANCE ONLY AIMS AT PROVIDING CUSTOMERS
  12:../../source/src/FWlib/src/stm32f10x_usart.c ****   * WITH CODING INFORMATION REGARDING THEIR PRODUCTS IN ORDER FOR THEM TO SAVE
  13:../../source/src/FWlib/src/stm32f10x_usart.c ****   * TIME. AS A RESULT, STMICROELECTRONICS SHALL NOT BE HELD LIABLE FOR ANY
  14:../../source/src/FWlib/src/stm32f10x_usart.c ****   * DIRECT, INDIRECT OR CONSEQUENTIAL DAMAGES WITH RESPECT TO ANY CLAIMS ARISING
  15:../../source/src/FWlib/src/stm32f10x_usart.c ****   * FROM THE CONTENT OF SUCH FIRMWARE AND/OR THE USE MADE BY CUSTOMERS OF THE
  16:../../source/src/FWlib/src/stm32f10x_usart.c ****   * CODING INFORMATION CONTAINED HEREIN IN CONNECTION WITH THEIR PRODUCTS.
  17:../../source/src/FWlib/src/stm32f10x_usart.c ****   *
  18:../../source/src/FWlib/src/stm32f10x_usart.c ****   * <h2><center>&copy; COPYRIGHT 2011 STMicroelectronics</center></h2>
  19:../../source/src/FWlib/src/stm32f10x_usart.c ****   ******************************************************************************
  20:../../source/src/FWlib/src/stm32f10x_usart.c ****   */
  21:../../source/src/FWlib/src/stm32f10x_usart.c **** 
  22:../../source/src/FWlib/src/stm32f10x_usart.c **** /* Includes ------------------------------------------------------------------*/
  23:../../source/src/FWlib/src/stm32f10x_usart.c **** #include "stm32f10x_usart.h"
  24:../../source/src/FWlib/src/stm32f10x_usart.c **** #include "stm32f10x_rcc.h"
  25:../../source/src/FWlib/src/stm32f10x_usart.c **** 
  26:../../source/src/FWlib/src/stm32f10x_usart.c **** /** @addtogroup STM32F10x_StdPeriph_Driver
  27:../../source/src/FWlib/src/stm32f10x_usart.c ****   * @{
  28:../../source/src/FWlib/src/stm32f10x_usart.c ****   */
  29:../../source/src/FWlib/src/stm32f10x_usart.c **** 
  30:../../source/src/FWlib/src/stm32f10x_usart.c **** /** @defgroup USART 
  31:../../source/src/FWlib/src/stm32f10x_usart.c ****   * @brief USART driver modules
  32:../../source/src/FWlib/src/stm32f10x_usart.c ****   * @{
  33:../../source/src/FWlib/src/stm32f10x_usart.c ****   */
ARM GAS  G:\Users\Jaxb\AppData\Local\Temp\ccWNHqDV.s 			page 2


  34:../../source/src/FWlib/src/stm32f10x_usart.c **** 
  35:../../source/src/FWlib/src/stm32f10x_usart.c **** /** @defgroup USART_Private_TypesDefinitions
  36:../../source/src/FWlib/src/stm32f10x_usart.c ****   * @{
  37:../../source/src/FWlib/src/stm32f10x_usart.c ****   */
  38:../../source/src/FWlib/src/stm32f10x_usart.c **** 
  39:../../source/src/FWlib/src/stm32f10x_usart.c **** /**
  40:../../source/src/FWlib/src/stm32f10x_usart.c ****   * @}
  41:../../source/src/FWlib/src/stm32f10x_usart.c ****   */
  42:../../source/src/FWlib/src/stm32f10x_usart.c **** 
  43:../../source/src/FWlib/src/stm32f10x_usart.c **** /** @defgroup USART_Private_Defines
  44:../../source/src/FWlib/src/stm32f10x_usart.c ****   * @{
  45:../../source/src/FWlib/src/stm32f10x_usart.c ****   */
  46:../../source/src/FWlib/src/stm32f10x_usart.c **** 
  47:../../source/src/FWlib/src/stm32f10x_usart.c **** #define CR1_UE_Set                ((uint16_t)0x2000)  /*!< USART Enable Mask */
  48:../../source/src/FWlib/src/stm32f10x_usart.c **** #define CR1_UE_Reset              ((uint16_t)0xDFFF)  /*!< USART Disable Mask */
  49:../../source/src/FWlib/src/stm32f10x_usart.c **** 
  50:../../source/src/FWlib/src/stm32f10x_usart.c **** #define CR1_WAKE_Mask             ((uint16_t)0xF7FF)  /*!< USART WakeUp Method Mask */
  51:../../source/src/FWlib/src/stm32f10x_usart.c **** 
  52:../../source/src/FWlib/src/stm32f10x_usart.c **** #define CR1_RWU_Set               ((uint16_t)0x0002)  /*!< USART mute mode Enable Mask */
  53:../../source/src/FWlib/src/stm32f10x_usart.c **** #define CR1_RWU_Reset             ((uint16_t)0xFFFD)  /*!< USART mute mode Enable Mask */
  54:../../source/src/FWlib/src/stm32f10x_usart.c **** #define CR1_SBK_Set               ((uint16_t)0x0001)  /*!< USART Break Character send Mask */
  55:../../source/src/FWlib/src/stm32f10x_usart.c **** #define CR1_CLEAR_Mask            ((uint16_t)0xE9F3)  /*!< USART CR1 Mask */
  56:../../source/src/FWlib/src/stm32f10x_usart.c **** #define CR2_Address_Mask          ((uint16_t)0xFFF0)  /*!< USART address Mask */
  57:../../source/src/FWlib/src/stm32f10x_usart.c **** 
  58:../../source/src/FWlib/src/stm32f10x_usart.c **** #define CR2_LINEN_Set              ((uint16_t)0x4000)  /*!< USART LIN Enable Mask */
  59:../../source/src/FWlib/src/stm32f10x_usart.c **** #define CR2_LINEN_Reset            ((uint16_t)0xBFFF)  /*!< USART LIN Disable Mask */
  60:../../source/src/FWlib/src/stm32f10x_usart.c **** 
  61:../../source/src/FWlib/src/stm32f10x_usart.c **** #define CR2_LBDL_Mask             ((uint16_t)0xFFDF)  /*!< USART LIN Break detection Mask */
  62:../../source/src/FWlib/src/stm32f10x_usart.c **** #define CR2_STOP_CLEAR_Mask       ((uint16_t)0xCFFF)  /*!< USART CR2 STOP Bits Mask */
  63:../../source/src/FWlib/src/stm32f10x_usart.c **** #define CR2_CLOCK_CLEAR_Mask      ((uint16_t)0xF0FF)  /*!< USART CR2 Clock Mask */
  64:../../source/src/FWlib/src/stm32f10x_usart.c **** 
  65:../../source/src/FWlib/src/stm32f10x_usart.c **** #define CR3_SCEN_Set              ((uint16_t)0x0020)  /*!< USART SC Enable Mask */
  66:../../source/src/FWlib/src/stm32f10x_usart.c **** #define CR3_SCEN_Reset            ((uint16_t)0xFFDF)  /*!< USART SC Disable Mask */
  67:../../source/src/FWlib/src/stm32f10x_usart.c **** 
  68:../../source/src/FWlib/src/stm32f10x_usart.c **** #define CR3_NACK_Set              ((uint16_t)0x0010)  /*!< USART SC NACK Enable Mask */
  69:../../source/src/FWlib/src/stm32f10x_usart.c **** #define CR3_NACK_Reset            ((uint16_t)0xFFEF)  /*!< USART SC NACK Disable Mask */
  70:../../source/src/FWlib/src/stm32f10x_usart.c **** 
  71:../../source/src/FWlib/src/stm32f10x_usart.c **** #define CR3_HDSEL_Set             ((uint16_t)0x0008)  /*!< USART Half-Duplex Enable Mask */
  72:../../source/src/FWlib/src/stm32f10x_usart.c **** #define CR3_HDSEL_Reset           ((uint16_t)0xFFF7)  /*!< USART Half-Duplex Disable Mask */
  73:../../source/src/FWlib/src/stm32f10x_usart.c **** 
  74:../../source/src/FWlib/src/stm32f10x_usart.c **** #define CR3_IRLP_Mask             ((uint16_t)0xFFFB)  /*!< USART IrDA LowPower mode Mask */
  75:../../source/src/FWlib/src/stm32f10x_usart.c **** #define CR3_CLEAR_Mask            ((uint16_t)0xFCFF)  /*!< USART CR3 Mask */
  76:../../source/src/FWlib/src/stm32f10x_usart.c **** 
  77:../../source/src/FWlib/src/stm32f10x_usart.c **** #define CR3_IREN_Set              ((uint16_t)0x0002)  /*!< USART IrDA Enable Mask */
  78:../../source/src/FWlib/src/stm32f10x_usart.c **** #define CR3_IREN_Reset            ((uint16_t)0xFFFD)  /*!< USART IrDA Disable Mask */
  79:../../source/src/FWlib/src/stm32f10x_usart.c **** #define GTPR_LSB_Mask             ((uint16_t)0x00FF)  /*!< Guard Time Register LSB Mask */
  80:../../source/src/FWlib/src/stm32f10x_usart.c **** #define GTPR_MSB_Mask             ((uint16_t)0xFF00)  /*!< Guard Time Register MSB Mask */
  81:../../source/src/FWlib/src/stm32f10x_usart.c **** #define IT_Mask                   ((uint16_t)0x001F)  /*!< USART Interrupt Mask */
  82:../../source/src/FWlib/src/stm32f10x_usart.c **** 
  83:../../source/src/FWlib/src/stm32f10x_usart.c **** /* USART OverSampling-8 Mask */
  84:../../source/src/FWlib/src/stm32f10x_usart.c **** #define CR1_OVER8_Set             ((u16)0x8000)  /* USART OVER8 mode Enable Mask */
  85:../../source/src/FWlib/src/stm32f10x_usart.c **** #define CR1_OVER8_Reset           ((u16)0x7FFF)  /* USART OVER8 mode Disable Mask */
  86:../../source/src/FWlib/src/stm32f10x_usart.c **** 
  87:../../source/src/FWlib/src/stm32f10x_usart.c **** /* USART One Bit Sampling Mask */
  88:../../source/src/FWlib/src/stm32f10x_usart.c **** #define CR3_ONEBITE_Set           ((u16)0x0800)  /* USART ONEBITE mode Enable Mask */
  89:../../source/src/FWlib/src/stm32f10x_usart.c **** #define CR3_ONEBITE_Reset         ((u16)0xF7FF)  /* USART ONEBITE mode Disable Mask */
  90:../../source/src/FWlib/src/stm32f10x_usart.c **** 
ARM GAS  G:\Users\Jaxb\AppData\Local\Temp\ccWNHqDV.s 			page 3


  91:../../source/src/FWlib/src/stm32f10x_usart.c **** /**
  92:../../source/src/FWlib/src/stm32f10x_usart.c ****   * @}
  93:../../source/src/FWlib/src/stm32f10x_usart.c ****   */
  94:../../source/src/FWlib/src/stm32f10x_usart.c **** 
  95:../../source/src/FWlib/src/stm32f10x_usart.c **** /** @defgroup USART_Private_Macros
  96:../../source/src/FWlib/src/stm32f10x_usart.c ****   * @{
  97:../../source/src/FWlib/src/stm32f10x_usart.c ****   */
  98:../../source/src/FWlib/src/stm32f10x_usart.c **** 
  99:../../source/src/FWlib/src/stm32f10x_usart.c **** /**
 100:../../source/src/FWlib/src/stm32f10x_usart.c ****   * @}
 101:../../source/src/FWlib/src/stm32f10x_usart.c ****   */
 102:../../source/src/FWlib/src/stm32f10x_usart.c **** 
 103:../../source/src/FWlib/src/stm32f10x_usart.c **** /** @defgroup USART_Private_Variables
 104:../../source/src/FWlib/src/stm32f10x_usart.c ****   * @{
 105:../../source/src/FWlib/src/stm32f10x_usart.c ****   */
 106:../../source/src/FWlib/src/stm32f10x_usart.c **** 
 107:../../source/src/FWlib/src/stm32f10x_usart.c **** /**
 108:../../source/src/FWlib/src/stm32f10x_usart.c ****   * @}
 109:../../source/src/FWlib/src/stm32f10x_usart.c ****   */
 110:../../source/src/FWlib/src/stm32f10x_usart.c **** 
 111:../../source/src/FWlib/src/stm32f10x_usart.c **** /** @defgroup USART_Private_FunctionPrototypes
 112:../../source/src/FWlib/src/stm32f10x_usart.c ****   * @{
 113:../../source/src/FWlib/src/stm32f10x_usart.c ****   */
 114:../../source/src/FWlib/src/stm32f10x_usart.c **** 
 115:../../source/src/FWlib/src/stm32f10x_usart.c **** /**
 116:../../source/src/FWlib/src/stm32f10x_usart.c ****   * @}
 117:../../source/src/FWlib/src/stm32f10x_usart.c ****   */
 118:../../source/src/FWlib/src/stm32f10x_usart.c **** 
 119:../../source/src/FWlib/src/stm32f10x_usart.c **** /** @defgroup USART_Private_Functions
 120:../../source/src/FWlib/src/stm32f10x_usart.c ****   * @{
 121:../../source/src/FWlib/src/stm32f10x_usart.c ****   */
 122:../../source/src/FWlib/src/stm32f10x_usart.c **** 
 123:../../source/src/FWlib/src/stm32f10x_usart.c **** /**
 124:../../source/src/FWlib/src/stm32f10x_usart.c ****   * @brief  Deinitializes the USARTx peripheral registers to their default reset values.
 125:../../source/src/FWlib/src/stm32f10x_usart.c ****   * @param  USARTx: Select the USART or the UART peripheral. 
 126:../../source/src/FWlib/src/stm32f10x_usart.c ****   *   This parameter can be one of the following values: 
 127:../../source/src/FWlib/src/stm32f10x_usart.c ****   *      USART1, USART2, USART3, UART4 or UART5.
 128:../../source/src/FWlib/src/stm32f10x_usart.c ****   * @retval None
 129:../../source/src/FWlib/src/stm32f10x_usart.c ****   */
 130:../../source/src/FWlib/src/stm32f10x_usart.c **** void USART_DeInit(USART_TypeDef* USARTx)
 131:../../source/src/FWlib/src/stm32f10x_usart.c **** {
  25              		.loc 1 131 0
  26              		.cfi_startproc
  27              		@ args = 0, pretend = 0, frame = 8
  28              		@ frame_needed = 1, uses_anonymous_args = 0
  29 0000 80B5     		push	{r7, lr}
  30              	.LCFI0:
  31              		.cfi_def_cfa_offset 8
  32              		.cfi_offset 7, -8
  33              		.cfi_offset 14, -4
  34 0002 82B0     		sub	sp, sp, #8
  35              	.LCFI1:
  36              		.cfi_def_cfa_offset 16
  37 0004 00AF     		add	r7, sp, #0
  38              	.LCFI2:
  39              		.cfi_def_cfa_register 7
  40 0006 7860     		str	r0, [r7, #4]
ARM GAS  G:\Users\Jaxb\AppData\Local\Temp\ccWNHqDV.s 			page 4


 132:../../source/src/FWlib/src/stm32f10x_usart.c ****   /* Check the parameters */
 133:../../source/src/FWlib/src/stm32f10x_usart.c ****   assert_param(IS_USART_ALL_PERIPH(USARTx));
 134:../../source/src/FWlib/src/stm32f10x_usart.c **** 
 135:../../source/src/FWlib/src/stm32f10x_usart.c ****   if (USARTx == USART1)
  41              		.loc 1 135 0
  42 0008 7B68     		ldr	r3, [r7, #4]
  43 000a 264A     		ldr	r2, .L8
  44 000c 9342     		cmp	r3, r2
  45 000e 0AD1     		bne	.L2
 136:../../source/src/FWlib/src/stm32f10x_usart.c ****   {
 137:../../source/src/FWlib/src/stm32f10x_usart.c ****     RCC_APB2PeriphResetCmd(RCC_APB2Periph_USART1, ENABLE);
  46              		.loc 1 137 0
  47 0010 0121     		movs	r1, #1
  48 0012 4FF48040 		mov	r0, #16384
  49 0016 FFF7FEFF 		bl	RCC_APB2PeriphResetCmd
 138:../../source/src/FWlib/src/stm32f10x_usart.c ****     RCC_APB2PeriphResetCmd(RCC_APB2Periph_USART1, DISABLE);
  50              		.loc 1 138 0
  51 001a 0021     		movs	r1, #0
  52 001c 4FF48040 		mov	r0, #16384
  53 0020 FFF7FEFF 		bl	RCC_APB2PeriphResetCmd
 139:../../source/src/FWlib/src/stm32f10x_usart.c ****   }
 140:../../source/src/FWlib/src/stm32f10x_usart.c ****   else if (USARTx == USART2)
 141:../../source/src/FWlib/src/stm32f10x_usart.c ****   {
 142:../../source/src/FWlib/src/stm32f10x_usart.c ****     RCC_APB1PeriphResetCmd(RCC_APB1Periph_USART2, ENABLE);
 143:../../source/src/FWlib/src/stm32f10x_usart.c ****     RCC_APB1PeriphResetCmd(RCC_APB1Periph_USART2, DISABLE);
 144:../../source/src/FWlib/src/stm32f10x_usart.c ****   }
 145:../../source/src/FWlib/src/stm32f10x_usart.c ****   else if (USARTx == USART3)
 146:../../source/src/FWlib/src/stm32f10x_usart.c ****   {
 147:../../source/src/FWlib/src/stm32f10x_usart.c ****     RCC_APB1PeriphResetCmd(RCC_APB1Periph_USART3, ENABLE);
 148:../../source/src/FWlib/src/stm32f10x_usart.c ****     RCC_APB1PeriphResetCmd(RCC_APB1Periph_USART3, DISABLE);
 149:../../source/src/FWlib/src/stm32f10x_usart.c ****   }    
 150:../../source/src/FWlib/src/stm32f10x_usart.c ****   else if (USARTx == UART4)
 151:../../source/src/FWlib/src/stm32f10x_usart.c ****   {
 152:../../source/src/FWlib/src/stm32f10x_usart.c ****     RCC_APB1PeriphResetCmd(RCC_APB1Periph_UART4, ENABLE);
 153:../../source/src/FWlib/src/stm32f10x_usart.c ****     RCC_APB1PeriphResetCmd(RCC_APB1Periph_UART4, DISABLE);
 154:../../source/src/FWlib/src/stm32f10x_usart.c ****   }    
 155:../../source/src/FWlib/src/stm32f10x_usart.c ****   else
 156:../../source/src/FWlib/src/stm32f10x_usart.c ****   {
 157:../../source/src/FWlib/src/stm32f10x_usart.c ****     if (USARTx == UART5)
 158:../../source/src/FWlib/src/stm32f10x_usart.c ****     { 
 159:../../source/src/FWlib/src/stm32f10x_usart.c ****       RCC_APB1PeriphResetCmd(RCC_APB1Periph_UART5, ENABLE);
 160:../../source/src/FWlib/src/stm32f10x_usart.c ****       RCC_APB1PeriphResetCmd(RCC_APB1Periph_UART5, DISABLE);
 161:../../source/src/FWlib/src/stm32f10x_usart.c ****     }
 162:../../source/src/FWlib/src/stm32f10x_usart.c ****   }
 163:../../source/src/FWlib/src/stm32f10x_usart.c **** }
  54              		.loc 1 163 0
  55 0024 3AE0     		b	.L7
  56              	.L2:
 140:../../source/src/FWlib/src/stm32f10x_usart.c ****   {
  57              		.loc 1 140 0
  58 0026 7B68     		ldr	r3, [r7, #4]
  59 0028 1F4A     		ldr	r2, .L8+4
  60 002a 9342     		cmp	r3, r2
  61 002c 0AD1     		bne	.L4
 142:../../source/src/FWlib/src/stm32f10x_usart.c ****     RCC_APB1PeriphResetCmd(RCC_APB1Periph_USART2, DISABLE);
  62              		.loc 1 142 0
  63 002e 0121     		movs	r1, #1
ARM GAS  G:\Users\Jaxb\AppData\Local\Temp\ccWNHqDV.s 			page 5


  64 0030 4FF40030 		mov	r0, #131072
  65 0034 FFF7FEFF 		bl	RCC_APB1PeriphResetCmd
 143:../../source/src/FWlib/src/stm32f10x_usart.c ****   }
  66              		.loc 1 143 0
  67 0038 0021     		movs	r1, #0
  68 003a 4FF40030 		mov	r0, #131072
  69 003e FFF7FEFF 		bl	RCC_APB1PeriphResetCmd
  70              		.loc 1 163 0
  71 0042 2BE0     		b	.L7
  72              	.L4:
 145:../../source/src/FWlib/src/stm32f10x_usart.c ****   {
  73              		.loc 1 145 0
  74 0044 7B68     		ldr	r3, [r7, #4]
  75 0046 194A     		ldr	r2, .L8+8
  76 0048 9342     		cmp	r3, r2
  77 004a 0AD1     		bne	.L5
 147:../../source/src/FWlib/src/stm32f10x_usart.c ****     RCC_APB1PeriphResetCmd(RCC_APB1Periph_USART3, DISABLE);
  78              		.loc 1 147 0
  79 004c 0121     		movs	r1, #1
  80 004e 4FF48020 		mov	r0, #262144
  81 0052 FFF7FEFF 		bl	RCC_APB1PeriphResetCmd
 148:../../source/src/FWlib/src/stm32f10x_usart.c ****   }    
  82              		.loc 1 148 0
  83 0056 0021     		movs	r1, #0
  84 0058 4FF48020 		mov	r0, #262144
  85 005c FFF7FEFF 		bl	RCC_APB1PeriphResetCmd
  86              		.loc 1 163 0
  87 0060 1CE0     		b	.L7
  88              	.L5:
 150:../../source/src/FWlib/src/stm32f10x_usart.c ****   {
  89              		.loc 1 150 0
  90 0062 7B68     		ldr	r3, [r7, #4]
  91 0064 124A     		ldr	r2, .L8+12
  92 0066 9342     		cmp	r3, r2
  93 0068 0AD1     		bne	.L6
 152:../../source/src/FWlib/src/stm32f10x_usart.c ****     RCC_APB1PeriphResetCmd(RCC_APB1Periph_UART4, DISABLE);
  94              		.loc 1 152 0
  95 006a 0121     		movs	r1, #1
  96 006c 4FF40020 		mov	r0, #524288
  97 0070 FFF7FEFF 		bl	RCC_APB1PeriphResetCmd
 153:../../source/src/FWlib/src/stm32f10x_usart.c ****   }    
  98              		.loc 1 153 0
  99 0074 0021     		movs	r1, #0
 100 0076 4FF40020 		mov	r0, #524288
 101 007a FFF7FEFF 		bl	RCC_APB1PeriphResetCmd
 102              		.loc 1 163 0
 103 007e 0DE0     		b	.L7
 104              	.L6:
 157:../../source/src/FWlib/src/stm32f10x_usart.c ****     { 
 105              		.loc 1 157 0
 106 0080 7B68     		ldr	r3, [r7, #4]
 107 0082 0C4A     		ldr	r2, .L8+16
 108 0084 9342     		cmp	r3, r2
 109 0086 09D1     		bne	.L7
 159:../../source/src/FWlib/src/stm32f10x_usart.c ****       RCC_APB1PeriphResetCmd(RCC_APB1Periph_UART5, DISABLE);
 110              		.loc 1 159 0
 111 0088 0121     		movs	r1, #1
ARM GAS  G:\Users\Jaxb\AppData\Local\Temp\ccWNHqDV.s 			page 6


 112 008a 4FF48010 		mov	r0, #1048576
 113 008e FFF7FEFF 		bl	RCC_APB1PeriphResetCmd
 160:../../source/src/FWlib/src/stm32f10x_usart.c ****     }
 114              		.loc 1 160 0
 115 0092 0021     		movs	r1, #0
 116 0094 4FF48010 		mov	r0, #1048576
 117 0098 FFF7FEFF 		bl	RCC_APB1PeriphResetCmd
 118              	.L7:
 119              		.loc 1 163 0
 120 009c 00BF     		nop
 121 009e 0837     		adds	r7, r7, #8
 122              	.LCFI3:
 123              		.cfi_def_cfa_offset 8
 124 00a0 BD46     		mov	sp, r7
 125              	.LCFI4:
 126              		.cfi_def_cfa_register 13
 127              		@ sp needed
 128 00a2 80BD     		pop	{r7, pc}
 129              	.L9:
 130              		.align	2
 131              	.L8:
 132 00a4 00380140 		.word	1073821696
 133 00a8 00440040 		.word	1073759232
 134 00ac 00480040 		.word	1073760256
 135 00b0 004C0040 		.word	1073761280
 136 00b4 00500040 		.word	1073762304
 137              		.cfi_endproc
 138              	.LFE29:
 139              		.size	USART_DeInit, .-USART_DeInit
 140              		.align	1
 141              		.global	USART_Init
 142              		.syntax unified
 143              		.thumb
 144              		.thumb_func
 145              		.fpu softvfp
 146              		.type	USART_Init, %function
 147              	USART_Init:
 148              	.LFB30:
 164:../../source/src/FWlib/src/stm32f10x_usart.c **** 
 165:../../source/src/FWlib/src/stm32f10x_usart.c **** /**
 166:../../source/src/FWlib/src/stm32f10x_usart.c ****   * @brief  Initializes the USARTx peripheral according to the specified
 167:../../source/src/FWlib/src/stm32f10x_usart.c ****   *         parameters in the USART_InitStruct .
 168:../../source/src/FWlib/src/stm32f10x_usart.c ****   * @param  USARTx: Select the USART or the UART peripheral. 
 169:../../source/src/FWlib/src/stm32f10x_usart.c ****   *   This parameter can be one of the following values:
 170:../../source/src/FWlib/src/stm32f10x_usart.c ****   *   USART1, USART2, USART3, UART4 or UART5.
 171:../../source/src/FWlib/src/stm32f10x_usart.c ****   * @param  USART_InitStruct: pointer to a USART_InitTypeDef structure
 172:../../source/src/FWlib/src/stm32f10x_usart.c ****   *         that contains the configuration information for the specified USART 
 173:../../source/src/FWlib/src/stm32f10x_usart.c ****   *         peripheral.
 174:../../source/src/FWlib/src/stm32f10x_usart.c ****   * @retval None
 175:../../source/src/FWlib/src/stm32f10x_usart.c ****   */
 176:../../source/src/FWlib/src/stm32f10x_usart.c **** void USART_Init(USART_TypeDef* USARTx, USART_InitTypeDef* USART_InitStruct)
 177:../../source/src/FWlib/src/stm32f10x_usart.c **** {
 149              		.loc 1 177 0
 150              		.cfi_startproc
 151              		@ args = 0, pretend = 0, frame = 48
 152              		@ frame_needed = 1, uses_anonymous_args = 0
 153 00b8 80B5     		push	{r7, lr}
ARM GAS  G:\Users\Jaxb\AppData\Local\Temp\ccWNHqDV.s 			page 7


 154              	.LCFI5:
 155              		.cfi_def_cfa_offset 8
 156              		.cfi_offset 7, -8
 157              		.cfi_offset 14, -4
 158 00ba 8CB0     		sub	sp, sp, #48
 159              	.LCFI6:
 160              		.cfi_def_cfa_offset 56
 161 00bc 00AF     		add	r7, sp, #0
 162              	.LCFI7:
 163              		.cfi_def_cfa_register 7
 164 00be 7860     		str	r0, [r7, #4]
 165 00c0 3960     		str	r1, [r7]
 178:../../source/src/FWlib/src/stm32f10x_usart.c ****   uint32_t tmpreg = 0x00, apbclock = 0x00;
 166              		.loc 1 178 0
 167 00c2 0023     		movs	r3, #0
 168 00c4 FB62     		str	r3, [r7, #44]
 169 00c6 0023     		movs	r3, #0
 170 00c8 BB62     		str	r3, [r7, #40]
 179:../../source/src/FWlib/src/stm32f10x_usart.c ****   uint32_t integerdivider = 0x00;
 171              		.loc 1 179 0
 172 00ca 0023     		movs	r3, #0
 173 00cc 7B62     		str	r3, [r7, #36]
 180:../../source/src/FWlib/src/stm32f10x_usart.c ****   uint32_t fractionaldivider = 0x00;
 174              		.loc 1 180 0
 175 00ce 0023     		movs	r3, #0
 176 00d0 3B62     		str	r3, [r7, #32]
 181:../../source/src/FWlib/src/stm32f10x_usart.c ****   uint32_t usartxbase = 0;
 177              		.loc 1 181 0
 178 00d2 0023     		movs	r3, #0
 179 00d4 FB61     		str	r3, [r7, #28]
 182:../../source/src/FWlib/src/stm32f10x_usart.c ****   RCC_ClocksTypeDef RCC_ClocksStatus;
 183:../../source/src/FWlib/src/stm32f10x_usart.c ****   /* Check the parameters */
 184:../../source/src/FWlib/src/stm32f10x_usart.c ****   assert_param(IS_USART_ALL_PERIPH(USARTx));
 185:../../source/src/FWlib/src/stm32f10x_usart.c ****   assert_param(IS_USART_BAUDRATE(USART_InitStruct->USART_BaudRate));  
 186:../../source/src/FWlib/src/stm32f10x_usart.c ****   assert_param(IS_USART_WORD_LENGTH(USART_InitStruct->USART_WordLength));
 187:../../source/src/FWlib/src/stm32f10x_usart.c ****   assert_param(IS_USART_STOPBITS(USART_InitStruct->USART_StopBits));
 188:../../source/src/FWlib/src/stm32f10x_usart.c ****   assert_param(IS_USART_PARITY(USART_InitStruct->USART_Parity));
 189:../../source/src/FWlib/src/stm32f10x_usart.c ****   assert_param(IS_USART_MODE(USART_InitStruct->USART_Mode));
 190:../../source/src/FWlib/src/stm32f10x_usart.c ****   assert_param(IS_USART_HARDWARE_FLOW_CONTROL(USART_InitStruct->USART_HardwareFlowControl));
 191:../../source/src/FWlib/src/stm32f10x_usart.c ****   /* The hardware flow control is available only for USART1, USART2 and USART3 */
 192:../../source/src/FWlib/src/stm32f10x_usart.c ****   if (USART_InitStruct->USART_HardwareFlowControl != USART_HardwareFlowControl_None)
 193:../../source/src/FWlib/src/stm32f10x_usart.c ****   {
 194:../../source/src/FWlib/src/stm32f10x_usart.c ****     assert_param(IS_USART_123_PERIPH(USARTx));
 195:../../source/src/FWlib/src/stm32f10x_usart.c ****   }
 196:../../source/src/FWlib/src/stm32f10x_usart.c **** 
 197:../../source/src/FWlib/src/stm32f10x_usart.c ****   usartxbase = (uint32_t)USARTx;
 180              		.loc 1 197 0
 181 00d6 7B68     		ldr	r3, [r7, #4]
 182 00d8 FB61     		str	r3, [r7, #28]
 198:../../source/src/FWlib/src/stm32f10x_usart.c **** 
 199:../../source/src/FWlib/src/stm32f10x_usart.c **** /*---------------------------- USART CR2 Configuration -----------------------*/
 200:../../source/src/FWlib/src/stm32f10x_usart.c ****   tmpreg = USARTx->CR2;
 183              		.loc 1 200 0
 184 00da 7B68     		ldr	r3, [r7, #4]
 185 00dc 1B8A     		ldrh	r3, [r3, #16]	@ movhi
 186 00de 9BB2     		uxth	r3, r3
 187 00e0 FB62     		str	r3, [r7, #44]
ARM GAS  G:\Users\Jaxb\AppData\Local\Temp\ccWNHqDV.s 			page 8


 201:../../source/src/FWlib/src/stm32f10x_usart.c ****   /* Clear STOP[13:12] bits */
 202:../../source/src/FWlib/src/stm32f10x_usart.c ****   tmpreg &= CR2_STOP_CLEAR_Mask;
 188              		.loc 1 202 0
 189 00e2 FA6A     		ldr	r2, [r7, #44]
 190 00e4 4CF6FF73 		movw	r3, #53247
 191 00e8 1340     		ands	r3, r3, r2
 192 00ea FB62     		str	r3, [r7, #44]
 203:../../source/src/FWlib/src/stm32f10x_usart.c ****   /* Configure the USART Stop Bits, Clock, CPOL, CPHA and LastBit ------------*/
 204:../../source/src/FWlib/src/stm32f10x_usart.c ****   /* Set STOP[13:12] bits according to USART_StopBits value */
 205:../../source/src/FWlib/src/stm32f10x_usart.c ****   tmpreg |= (uint32_t)USART_InitStruct->USART_StopBits;
 193              		.loc 1 205 0
 194 00ec 3B68     		ldr	r3, [r7]
 195 00ee DB88     		ldrh	r3, [r3, #6]
 196 00f0 1A46     		mov	r2, r3
 197 00f2 FB6A     		ldr	r3, [r7, #44]
 198 00f4 1343     		orrs	r3, r3, r2
 199 00f6 FB62     		str	r3, [r7, #44]
 206:../../source/src/FWlib/src/stm32f10x_usart.c ****   
 207:../../source/src/FWlib/src/stm32f10x_usart.c ****   /* Write to USART CR2 */
 208:../../source/src/FWlib/src/stm32f10x_usart.c ****   USARTx->CR2 = (uint16_t)tmpreg;
 200              		.loc 1 208 0
 201 00f8 FB6A     		ldr	r3, [r7, #44]
 202 00fa 9AB2     		uxth	r2, r3
 203 00fc 7B68     		ldr	r3, [r7, #4]
 204 00fe 1A82     		strh	r2, [r3, #16]	@ movhi
 209:../../source/src/FWlib/src/stm32f10x_usart.c **** 
 210:../../source/src/FWlib/src/stm32f10x_usart.c **** /*---------------------------- USART CR1 Configuration -----------------------*/
 211:../../source/src/FWlib/src/stm32f10x_usart.c ****   tmpreg = USARTx->CR1;
 205              		.loc 1 211 0
 206 0100 7B68     		ldr	r3, [r7, #4]
 207 0102 9B89     		ldrh	r3, [r3, #12]	@ movhi
 208 0104 9BB2     		uxth	r3, r3
 209 0106 FB62     		str	r3, [r7, #44]
 212:../../source/src/FWlib/src/stm32f10x_usart.c ****   /* Clear M, PCE, PS, TE and RE bits */
 213:../../source/src/FWlib/src/stm32f10x_usart.c ****   tmpreg &= CR1_CLEAR_Mask;
 210              		.loc 1 213 0
 211 0108 FA6A     		ldr	r2, [r7, #44]
 212 010a 4EF6F313 		movw	r3, #59891
 213 010e 1340     		ands	r3, r3, r2
 214 0110 FB62     		str	r3, [r7, #44]
 214:../../source/src/FWlib/src/stm32f10x_usart.c ****   /* Configure the USART Word Length, Parity and mode ----------------------- */
 215:../../source/src/FWlib/src/stm32f10x_usart.c ****   /* Set the M bits according to USART_WordLength value */
 216:../../source/src/FWlib/src/stm32f10x_usart.c ****   /* Set PCE and PS bits according to USART_Parity value */
 217:../../source/src/FWlib/src/stm32f10x_usart.c ****   /* Set TE and RE bits according to USART_Mode value */
 218:../../source/src/FWlib/src/stm32f10x_usart.c ****   tmpreg |= (uint32_t)USART_InitStruct->USART_WordLength | USART_InitStruct->USART_Parity |
 215              		.loc 1 218 0
 216 0112 3B68     		ldr	r3, [r7]
 217 0114 9A88     		ldrh	r2, [r3, #4]
 218 0116 3B68     		ldr	r3, [r7]
 219 0118 1B89     		ldrh	r3, [r3, #8]
 220 011a 1343     		orrs	r3, r3, r2
 221 011c 9AB2     		uxth	r2, r3
 219:../../source/src/FWlib/src/stm32f10x_usart.c ****             USART_InitStruct->USART_Mode;
 222              		.loc 1 219 0
 223 011e 3B68     		ldr	r3, [r7]
 224 0120 5B89     		ldrh	r3, [r3, #10]
 218:../../source/src/FWlib/src/stm32f10x_usart.c ****             USART_InitStruct->USART_Mode;
ARM GAS  G:\Users\Jaxb\AppData\Local\Temp\ccWNHqDV.s 			page 9


 225              		.loc 1 218 0
 226 0122 1343     		orrs	r3, r3, r2
 227 0124 9BB2     		uxth	r3, r3
 228 0126 1A46     		mov	r2, r3
 229 0128 FB6A     		ldr	r3, [r7, #44]
 230 012a 1343     		orrs	r3, r3, r2
 231 012c FB62     		str	r3, [r7, #44]
 220:../../source/src/FWlib/src/stm32f10x_usart.c ****   /* Write to USART CR1 */
 221:../../source/src/FWlib/src/stm32f10x_usart.c ****   USARTx->CR1 = (uint16_t)tmpreg;
 232              		.loc 1 221 0
 233 012e FB6A     		ldr	r3, [r7, #44]
 234 0130 9AB2     		uxth	r2, r3
 235 0132 7B68     		ldr	r3, [r7, #4]
 236 0134 9A81     		strh	r2, [r3, #12]	@ movhi
 222:../../source/src/FWlib/src/stm32f10x_usart.c **** 
 223:../../source/src/FWlib/src/stm32f10x_usart.c **** /*---------------------------- USART CR3 Configuration -----------------------*/  
 224:../../source/src/FWlib/src/stm32f10x_usart.c ****   tmpreg = USARTx->CR3;
 237              		.loc 1 224 0
 238 0136 7B68     		ldr	r3, [r7, #4]
 239 0138 9B8A     		ldrh	r3, [r3, #20]	@ movhi
 240 013a 9BB2     		uxth	r3, r3
 241 013c FB62     		str	r3, [r7, #44]
 225:../../source/src/FWlib/src/stm32f10x_usart.c ****   /* Clear CTSE and RTSE bits */
 226:../../source/src/FWlib/src/stm32f10x_usart.c ****   tmpreg &= CR3_CLEAR_Mask;
 242              		.loc 1 226 0
 243 013e FA6A     		ldr	r2, [r7, #44]
 244 0140 4FF6FF43 		movw	r3, #64767
 245 0144 1340     		ands	r3, r3, r2
 246 0146 FB62     		str	r3, [r7, #44]
 227:../../source/src/FWlib/src/stm32f10x_usart.c ****   /* Configure the USART HFC -------------------------------------------------*/
 228:../../source/src/FWlib/src/stm32f10x_usart.c ****   /* Set CTSE and RTSE bits according to USART_HardwareFlowControl value */
 229:../../source/src/FWlib/src/stm32f10x_usart.c ****   tmpreg |= USART_InitStruct->USART_HardwareFlowControl;
 247              		.loc 1 229 0
 248 0148 3B68     		ldr	r3, [r7]
 249 014a 9B89     		ldrh	r3, [r3, #12]
 250 014c 1A46     		mov	r2, r3
 251 014e FB6A     		ldr	r3, [r7, #44]
 252 0150 1343     		orrs	r3, r3, r2
 253 0152 FB62     		str	r3, [r7, #44]
 230:../../source/src/FWlib/src/stm32f10x_usart.c ****   /* Write to USART CR3 */
 231:../../source/src/FWlib/src/stm32f10x_usart.c ****   USARTx->CR3 = (uint16_t)tmpreg;
 254              		.loc 1 231 0
 255 0154 FB6A     		ldr	r3, [r7, #44]
 256 0156 9AB2     		uxth	r2, r3
 257 0158 7B68     		ldr	r3, [r7, #4]
 258 015a 9A82     		strh	r2, [r3, #20]	@ movhi
 232:../../source/src/FWlib/src/stm32f10x_usart.c **** 
 233:../../source/src/FWlib/src/stm32f10x_usart.c **** /*---------------------------- USART BRR Configuration -----------------------*/
 234:../../source/src/FWlib/src/stm32f10x_usart.c ****   /* Configure the USART Baud Rate -------------------------------------------*/
 235:../../source/src/FWlib/src/stm32f10x_usart.c ****   RCC_GetClocksFreq(&RCC_ClocksStatus);
 259              		.loc 1 235 0
 260 015c 07F10803 		add	r3, r7, #8
 261 0160 1846     		mov	r0, r3
 262 0162 FFF7FEFF 		bl	RCC_GetClocksFreq
 236:../../source/src/FWlib/src/stm32f10x_usart.c ****   if (usartxbase == USART1_BASE)
 263              		.loc 1 236 0
 264 0166 FB69     		ldr	r3, [r7, #28]
ARM GAS  G:\Users\Jaxb\AppData\Local\Temp\ccWNHqDV.s 			page 10


 265 0168 2E4A     		ldr	r2, .L17
 266 016a 9342     		cmp	r3, r2
 267 016c 02D1     		bne	.L11
 237:../../source/src/FWlib/src/stm32f10x_usart.c ****   {
 238:../../source/src/FWlib/src/stm32f10x_usart.c ****     apbclock = RCC_ClocksStatus.PCLK2_Frequency;
 268              		.loc 1 238 0
 269 016e 7B69     		ldr	r3, [r7, #20]
 270 0170 BB62     		str	r3, [r7, #40]
 271 0172 01E0     		b	.L12
 272              	.L11:
 239:../../source/src/FWlib/src/stm32f10x_usart.c ****   }
 240:../../source/src/FWlib/src/stm32f10x_usart.c ****   else
 241:../../source/src/FWlib/src/stm32f10x_usart.c ****   {
 242:../../source/src/FWlib/src/stm32f10x_usart.c ****     apbclock = RCC_ClocksStatus.PCLK1_Frequency;
 273              		.loc 1 242 0
 274 0174 3B69     		ldr	r3, [r7, #16]
 275 0176 BB62     		str	r3, [r7, #40]
 276              	.L12:
 243:../../source/src/FWlib/src/stm32f10x_usart.c ****   }
 244:../../source/src/FWlib/src/stm32f10x_usart.c ****   
 245:../../source/src/FWlib/src/stm32f10x_usart.c ****   /* Determine the integer part */
 246:../../source/src/FWlib/src/stm32f10x_usart.c ****   if ((USARTx->CR1 & CR1_OVER8_Set) != 0)
 277              		.loc 1 246 0
 278 0178 7B68     		ldr	r3, [r7, #4]
 279 017a 9B89     		ldrh	r3, [r3, #12]	@ movhi
 280 017c 9BB2     		uxth	r3, r3
 281 017e 1BB2     		sxth	r3, r3
 282 0180 002B     		cmp	r3, #0
 283 0182 0CDA     		bge	.L13
 247:../../source/src/FWlib/src/stm32f10x_usart.c ****   {
 248:../../source/src/FWlib/src/stm32f10x_usart.c ****     /* Integer part computing in case Oversampling mode is 8 Samples */
 249:../../source/src/FWlib/src/stm32f10x_usart.c ****     integerdivider = ((25 * apbclock) / (2 * (USART_InitStruct->USART_BaudRate)));    
 284              		.loc 1 249 0
 285 0184 BA6A     		ldr	r2, [r7, #40]
 286 0186 1346     		mov	r3, r2
 287 0188 9B00     		lsls	r3, r3, #2
 288 018a 1344     		add	r3, r3, r2
 289 018c 9A00     		lsls	r2, r3, #2
 290 018e 1A44     		add	r2, r2, r3
 291 0190 3B68     		ldr	r3, [r7]
 292 0192 1B68     		ldr	r3, [r3]
 293 0194 5B00     		lsls	r3, r3, #1
 294 0196 B2FBF3F3 		udiv	r3, r2, r3
 295 019a 7B62     		str	r3, [r7, #36]
 296 019c 0BE0     		b	.L14
 297              	.L13:
 250:../../source/src/FWlib/src/stm32f10x_usart.c ****   }
 251:../../source/src/FWlib/src/stm32f10x_usart.c ****   else /* if ((USARTx->CR1 & CR1_OVER8_Set) == 0) */
 252:../../source/src/FWlib/src/stm32f10x_usart.c ****   {
 253:../../source/src/FWlib/src/stm32f10x_usart.c ****     /* Integer part computing in case Oversampling mode is 16 Samples */
 254:../../source/src/FWlib/src/stm32f10x_usart.c ****     integerdivider = ((25 * apbclock) / (4 * (USART_InitStruct->USART_BaudRate)));    
 298              		.loc 1 254 0
 299 019e BA6A     		ldr	r2, [r7, #40]
 300 01a0 1346     		mov	r3, r2
 301 01a2 9B00     		lsls	r3, r3, #2
 302 01a4 1344     		add	r3, r3, r2
 303 01a6 9A00     		lsls	r2, r3, #2
ARM GAS  G:\Users\Jaxb\AppData\Local\Temp\ccWNHqDV.s 			page 11


 304 01a8 1A44     		add	r2, r2, r3
 305 01aa 3B68     		ldr	r3, [r7]
 306 01ac 1B68     		ldr	r3, [r3]
 307 01ae 9B00     		lsls	r3, r3, #2
 308 01b0 B2FBF3F3 		udiv	r3, r2, r3
 309 01b4 7B62     		str	r3, [r7, #36]
 310              	.L14:
 255:../../source/src/FWlib/src/stm32f10x_usart.c ****   }
 256:../../source/src/FWlib/src/stm32f10x_usart.c ****   tmpreg = (integerdivider / 100) << 4;
 311              		.loc 1 256 0
 312 01b6 7B6A     		ldr	r3, [r7, #36]
 313 01b8 1B4A     		ldr	r2, .L17+4
 314 01ba A2FB0323 		umull	r2, r3, r2, r3
 315 01be 5B09     		lsrs	r3, r3, #5
 316 01c0 1B01     		lsls	r3, r3, #4
 317 01c2 FB62     		str	r3, [r7, #44]
 257:../../source/src/FWlib/src/stm32f10x_usart.c **** 
 258:../../source/src/FWlib/src/stm32f10x_usart.c ****   /* Determine the fractional part */
 259:../../source/src/FWlib/src/stm32f10x_usart.c ****   fractionaldivider = integerdivider - (100 * (tmpreg >> 4));
 318              		.loc 1 259 0
 319 01c4 FB6A     		ldr	r3, [r7, #44]
 320 01c6 1B09     		lsrs	r3, r3, #4
 321 01c8 6422     		movs	r2, #100
 322 01ca 02FB03F3 		mul	r3, r2, r3
 323 01ce 7A6A     		ldr	r2, [r7, #36]
 324 01d0 D31A     		subs	r3, r2, r3
 325 01d2 3B62     		str	r3, [r7, #32]
 260:../../source/src/FWlib/src/stm32f10x_usart.c **** 
 261:../../source/src/FWlib/src/stm32f10x_usart.c ****   /* Implement the fractional part in the register */
 262:../../source/src/FWlib/src/stm32f10x_usart.c ****   if ((USARTx->CR1 & CR1_OVER8_Set) != 0)
 326              		.loc 1 262 0
 327 01d4 7B68     		ldr	r3, [r7, #4]
 328 01d6 9B89     		ldrh	r3, [r3, #12]	@ movhi
 329 01d8 9BB2     		uxth	r3, r3
 330 01da 1BB2     		sxth	r3, r3
 331 01dc 002B     		cmp	r3, #0
 332 01de 0CDA     		bge	.L15
 263:../../source/src/FWlib/src/stm32f10x_usart.c ****   {
 264:../../source/src/FWlib/src/stm32f10x_usart.c ****     tmpreg |= ((((fractionaldivider * 8) + 50) / 100)) & ((uint8_t)0x07);
 333              		.loc 1 264 0
 334 01e0 3B6A     		ldr	r3, [r7, #32]
 335 01e2 DB00     		lsls	r3, r3, #3
 336 01e4 3233     		adds	r3, r3, #50
 337 01e6 104A     		ldr	r2, .L17+4
 338 01e8 A2FB0323 		umull	r2, r3, r2, r3
 339 01ec 5B09     		lsrs	r3, r3, #5
 340 01ee 03F00703 		and	r3, r3, #7
 341 01f2 FA6A     		ldr	r2, [r7, #44]
 342 01f4 1343     		orrs	r3, r3, r2
 343 01f6 FB62     		str	r3, [r7, #44]
 344 01f8 0BE0     		b	.L16
 345              	.L15:
 265:../../source/src/FWlib/src/stm32f10x_usart.c ****   }
 266:../../source/src/FWlib/src/stm32f10x_usart.c ****   else /* if ((USARTx->CR1 & CR1_OVER8_Set) == 0) */
 267:../../source/src/FWlib/src/stm32f10x_usart.c ****   {
 268:../../source/src/FWlib/src/stm32f10x_usart.c ****     tmpreg |= ((((fractionaldivider * 16) + 50) / 100)) & ((uint8_t)0x0F);
 346              		.loc 1 268 0
ARM GAS  G:\Users\Jaxb\AppData\Local\Temp\ccWNHqDV.s 			page 12


 347 01fa 3B6A     		ldr	r3, [r7, #32]
 348 01fc 1B01     		lsls	r3, r3, #4
 349 01fe 3233     		adds	r3, r3, #50
 350 0200 094A     		ldr	r2, .L17+4
 351 0202 A2FB0323 		umull	r2, r3, r2, r3
 352 0206 5B09     		lsrs	r3, r3, #5
 353 0208 03F00F03 		and	r3, r3, #15
 354 020c FA6A     		ldr	r2, [r7, #44]
 355 020e 1343     		orrs	r3, r3, r2
 356 0210 FB62     		str	r3, [r7, #44]
 357              	.L16:
 269:../../source/src/FWlib/src/stm32f10x_usart.c ****   }
 270:../../source/src/FWlib/src/stm32f10x_usart.c ****   
 271:../../source/src/FWlib/src/stm32f10x_usart.c ****   /* Write to USART BRR */
 272:../../source/src/FWlib/src/stm32f10x_usart.c ****   USARTx->BRR = (uint16_t)tmpreg;
 358              		.loc 1 272 0
 359 0212 FB6A     		ldr	r3, [r7, #44]
 360 0214 9AB2     		uxth	r2, r3
 361 0216 7B68     		ldr	r3, [r7, #4]
 362 0218 1A81     		strh	r2, [r3, #8]	@ movhi
 273:../../source/src/FWlib/src/stm32f10x_usart.c **** }
 363              		.loc 1 273 0
 364 021a 00BF     		nop
 365 021c 3037     		adds	r7, r7, #48
 366              	.LCFI8:
 367              		.cfi_def_cfa_offset 8
 368 021e BD46     		mov	sp, r7
 369              	.LCFI9:
 370              		.cfi_def_cfa_register 13
 371              		@ sp needed
 372 0220 80BD     		pop	{r7, pc}
 373              	.L18:
 374 0222 00BF     		.align	2
 375              	.L17:
 376 0224 00380140 		.word	1073821696
 377 0228 1F85EB51 		.word	1374389535
 378              		.cfi_endproc
 379              	.LFE30:
 380              		.size	USART_Init, .-USART_Init
 381              		.align	1
 382              		.global	USART_StructInit
 383              		.syntax unified
 384              		.thumb
 385              		.thumb_func
 386              		.fpu softvfp
 387              		.type	USART_StructInit, %function
 388              	USART_StructInit:
 389              	.LFB31:
 274:../../source/src/FWlib/src/stm32f10x_usart.c **** 
 275:../../source/src/FWlib/src/stm32f10x_usart.c **** /**
 276:../../source/src/FWlib/src/stm32f10x_usart.c ****   * @brief  Fills each USART_InitStruct member with its default value.
 277:../../source/src/FWlib/src/stm32f10x_usart.c ****   * @param  USART_InitStruct: pointer to a USART_InitTypeDef structure
 278:../../source/src/FWlib/src/stm32f10x_usart.c ****   *         which will be initialized.
 279:../../source/src/FWlib/src/stm32f10x_usart.c ****   * @retval None
 280:../../source/src/FWlib/src/stm32f10x_usart.c ****   */
 281:../../source/src/FWlib/src/stm32f10x_usart.c **** void USART_StructInit(USART_InitTypeDef* USART_InitStruct)
 282:../../source/src/FWlib/src/stm32f10x_usart.c **** {
ARM GAS  G:\Users\Jaxb\AppData\Local\Temp\ccWNHqDV.s 			page 13


 390              		.loc 1 282 0
 391              		.cfi_startproc
 392              		@ args = 0, pretend = 0, frame = 8
 393              		@ frame_needed = 1, uses_anonymous_args = 0
 394              		@ link register save eliminated.
 395 022c 80B4     		push	{r7}
 396              	.LCFI10:
 397              		.cfi_def_cfa_offset 4
 398              		.cfi_offset 7, -4
 399 022e 83B0     		sub	sp, sp, #12
 400              	.LCFI11:
 401              		.cfi_def_cfa_offset 16
 402 0230 00AF     		add	r7, sp, #0
 403              	.LCFI12:
 404              		.cfi_def_cfa_register 7
 405 0232 7860     		str	r0, [r7, #4]
 283:../../source/src/FWlib/src/stm32f10x_usart.c ****   /* USART_InitStruct members default value */
 284:../../source/src/FWlib/src/stm32f10x_usart.c ****   USART_InitStruct->USART_BaudRate = 9600;
 406              		.loc 1 284 0
 407 0234 7B68     		ldr	r3, [r7, #4]
 408 0236 4FF41652 		mov	r2, #9600
 409 023a 1A60     		str	r2, [r3]
 285:../../source/src/FWlib/src/stm32f10x_usart.c ****   USART_InitStruct->USART_WordLength = USART_WordLength_8b;
 410              		.loc 1 285 0
 411 023c 7B68     		ldr	r3, [r7, #4]
 412 023e 0022     		movs	r2, #0
 413 0240 9A80     		strh	r2, [r3, #4]	@ movhi
 286:../../source/src/FWlib/src/stm32f10x_usart.c ****   USART_InitStruct->USART_StopBits = USART_StopBits_1;
 414              		.loc 1 286 0
 415 0242 7B68     		ldr	r3, [r7, #4]
 416 0244 0022     		movs	r2, #0
 417 0246 DA80     		strh	r2, [r3, #6]	@ movhi
 287:../../source/src/FWlib/src/stm32f10x_usart.c ****   USART_InitStruct->USART_Parity = USART_Parity_No ;
 418              		.loc 1 287 0
 419 0248 7B68     		ldr	r3, [r7, #4]
 420 024a 0022     		movs	r2, #0
 421 024c 1A81     		strh	r2, [r3, #8]	@ movhi
 288:../../source/src/FWlib/src/stm32f10x_usart.c ****   USART_InitStruct->USART_Mode = USART_Mode_Rx | USART_Mode_Tx;
 422              		.loc 1 288 0
 423 024e 7B68     		ldr	r3, [r7, #4]
 424 0250 0C22     		movs	r2, #12
 425 0252 5A81     		strh	r2, [r3, #10]	@ movhi
 289:../../source/src/FWlib/src/stm32f10x_usart.c ****   USART_InitStruct->USART_HardwareFlowControl = USART_HardwareFlowControl_None;  
 426              		.loc 1 289 0
 427 0254 7B68     		ldr	r3, [r7, #4]
 428 0256 0022     		movs	r2, #0
 429 0258 9A81     		strh	r2, [r3, #12]	@ movhi
 290:../../source/src/FWlib/src/stm32f10x_usart.c **** }
 430              		.loc 1 290 0
 431 025a 00BF     		nop
 432 025c 0C37     		adds	r7, r7, #12
 433              	.LCFI13:
 434              		.cfi_def_cfa_offset 4
 435 025e BD46     		mov	sp, r7
 436              	.LCFI14:
 437              		.cfi_def_cfa_register 13
 438              		@ sp needed
ARM GAS  G:\Users\Jaxb\AppData\Local\Temp\ccWNHqDV.s 			page 14


 439 0260 80BC     		pop	{r7}
 440              	.LCFI15:
 441              		.cfi_restore 7
 442              		.cfi_def_cfa_offset 0
 443 0262 7047     		bx	lr
 444              		.cfi_endproc
 445              	.LFE31:
 446              		.size	USART_StructInit, .-USART_StructInit
 447              		.align	1
 448              		.global	USART_ClockInit
 449              		.syntax unified
 450              		.thumb
 451              		.thumb_func
 452              		.fpu softvfp
 453              		.type	USART_ClockInit, %function
 454              	USART_ClockInit:
 455              	.LFB32:
 291:../../source/src/FWlib/src/stm32f10x_usart.c **** 
 292:../../source/src/FWlib/src/stm32f10x_usart.c **** /**
 293:../../source/src/FWlib/src/stm32f10x_usart.c ****   * @brief  Initializes the USARTx peripheral Clock according to the 
 294:../../source/src/FWlib/src/stm32f10x_usart.c ****   *          specified parameters in the USART_ClockInitStruct .
 295:../../source/src/FWlib/src/stm32f10x_usart.c ****   * @param  USARTx: where x can be 1, 2, 3 to select the USART peripheral.
 296:../../source/src/FWlib/src/stm32f10x_usart.c ****   * @param  USART_ClockInitStruct: pointer to a USART_ClockInitTypeDef
 297:../../source/src/FWlib/src/stm32f10x_usart.c ****   *         structure that contains the configuration information for the specified 
 298:../../source/src/FWlib/src/stm32f10x_usart.c ****   *         USART peripheral.  
 299:../../source/src/FWlib/src/stm32f10x_usart.c ****   * @note The Smart Card and Synchronous modes are not available for UART4 and UART5.
 300:../../source/src/FWlib/src/stm32f10x_usart.c ****   * @retval None
 301:../../source/src/FWlib/src/stm32f10x_usart.c ****   */
 302:../../source/src/FWlib/src/stm32f10x_usart.c **** void USART_ClockInit(USART_TypeDef* USARTx, USART_ClockInitTypeDef* USART_ClockInitStruct)
 303:../../source/src/FWlib/src/stm32f10x_usart.c **** {
 456              		.loc 1 303 0
 457              		.cfi_startproc
 458              		@ args = 0, pretend = 0, frame = 16
 459              		@ frame_needed = 1, uses_anonymous_args = 0
 460              		@ link register save eliminated.
 461 0264 80B4     		push	{r7}
 462              	.LCFI16:
 463              		.cfi_def_cfa_offset 4
 464              		.cfi_offset 7, -4
 465 0266 85B0     		sub	sp, sp, #20
 466              	.LCFI17:
 467              		.cfi_def_cfa_offset 24
 468 0268 00AF     		add	r7, sp, #0
 469              	.LCFI18:
 470              		.cfi_def_cfa_register 7
 471 026a 7860     		str	r0, [r7, #4]
 472 026c 3960     		str	r1, [r7]
 304:../../source/src/FWlib/src/stm32f10x_usart.c ****   uint32_t tmpreg = 0x00;
 473              		.loc 1 304 0
 474 026e 0023     		movs	r3, #0
 475 0270 FB60     		str	r3, [r7, #12]
 305:../../source/src/FWlib/src/stm32f10x_usart.c ****   /* Check the parameters */
 306:../../source/src/FWlib/src/stm32f10x_usart.c ****   assert_param(IS_USART_123_PERIPH(USARTx));
 307:../../source/src/FWlib/src/stm32f10x_usart.c ****   assert_param(IS_USART_CLOCK(USART_ClockInitStruct->USART_Clock));
 308:../../source/src/FWlib/src/stm32f10x_usart.c ****   assert_param(IS_USART_CPOL(USART_ClockInitStruct->USART_CPOL));
 309:../../source/src/FWlib/src/stm32f10x_usart.c ****   assert_param(IS_USART_CPHA(USART_ClockInitStruct->USART_CPHA));
 310:../../source/src/FWlib/src/stm32f10x_usart.c ****   assert_param(IS_USART_LASTBIT(USART_ClockInitStruct->USART_LastBit));
ARM GAS  G:\Users\Jaxb\AppData\Local\Temp\ccWNHqDV.s 			page 15


 311:../../source/src/FWlib/src/stm32f10x_usart.c ****   
 312:../../source/src/FWlib/src/stm32f10x_usart.c **** /*---------------------------- USART CR2 Configuration -----------------------*/
 313:../../source/src/FWlib/src/stm32f10x_usart.c ****   tmpreg = USARTx->CR2;
 476              		.loc 1 313 0
 477 0272 7B68     		ldr	r3, [r7, #4]
 478 0274 1B8A     		ldrh	r3, [r3, #16]	@ movhi
 479 0276 9BB2     		uxth	r3, r3
 480 0278 FB60     		str	r3, [r7, #12]
 314:../../source/src/FWlib/src/stm32f10x_usart.c ****   /* Clear CLKEN, CPOL, CPHA and LBCL bits */
 315:../../source/src/FWlib/src/stm32f10x_usart.c ****   tmpreg &= CR2_CLOCK_CLEAR_Mask;
 481              		.loc 1 315 0
 482 027a FA68     		ldr	r2, [r7, #12]
 483 027c 4FF2FF03 		movw	r3, #61695
 484 0280 1340     		ands	r3, r3, r2
 485 0282 FB60     		str	r3, [r7, #12]
 316:../../source/src/FWlib/src/stm32f10x_usart.c ****   /* Configure the USART Clock, CPOL, CPHA and LastBit ------------*/
 317:../../source/src/FWlib/src/stm32f10x_usart.c ****   /* Set CLKEN bit according to USART_Clock value */
 318:../../source/src/FWlib/src/stm32f10x_usart.c ****   /* Set CPOL bit according to USART_CPOL value */
 319:../../source/src/FWlib/src/stm32f10x_usart.c ****   /* Set CPHA bit according to USART_CPHA value */
 320:../../source/src/FWlib/src/stm32f10x_usart.c ****   /* Set LBCL bit according to USART_LastBit value */
 321:../../source/src/FWlib/src/stm32f10x_usart.c ****   tmpreg |= (uint32_t)USART_ClockInitStruct->USART_Clock | USART_ClockInitStruct->USART_CPOL | 
 486              		.loc 1 321 0
 487 0284 3B68     		ldr	r3, [r7]
 488 0286 1A88     		ldrh	r2, [r3]
 489 0288 3B68     		ldr	r3, [r7]
 490 028a 5B88     		ldrh	r3, [r3, #2]
 322:../../source/src/FWlib/src/stm32f10x_usart.c ****                  USART_ClockInitStruct->USART_CPHA | USART_ClockInitStruct->USART_LastBit;
 491              		.loc 1 322 0
 492 028c 1343     		orrs	r3, r3, r2
 493 028e 9AB2     		uxth	r2, r3
 494 0290 3B68     		ldr	r3, [r7]
 495 0292 9B88     		ldrh	r3, [r3, #4]
 496 0294 1343     		orrs	r3, r3, r2
 497 0296 9AB2     		uxth	r2, r3
 498 0298 3B68     		ldr	r3, [r7]
 499 029a DB88     		ldrh	r3, [r3, #6]
 500 029c 1343     		orrs	r3, r3, r2
 501 029e 9BB2     		uxth	r3, r3
 502 02a0 1A46     		mov	r2, r3
 321:../../source/src/FWlib/src/stm32f10x_usart.c ****                  USART_ClockInitStruct->USART_CPHA | USART_ClockInitStruct->USART_LastBit;
 503              		.loc 1 321 0
 504 02a2 FB68     		ldr	r3, [r7, #12]
 505 02a4 1343     		orrs	r3, r3, r2
 506 02a6 FB60     		str	r3, [r7, #12]
 323:../../source/src/FWlib/src/stm32f10x_usart.c ****   /* Write to USART CR2 */
 324:../../source/src/FWlib/src/stm32f10x_usart.c ****   USARTx->CR2 = (uint16_t)tmpreg;
 507              		.loc 1 324 0
 508 02a8 FB68     		ldr	r3, [r7, #12]
 509 02aa 9AB2     		uxth	r2, r3
 510 02ac 7B68     		ldr	r3, [r7, #4]
 511 02ae 1A82     		strh	r2, [r3, #16]	@ movhi
 325:../../source/src/FWlib/src/stm32f10x_usart.c **** }
 512              		.loc 1 325 0
 513 02b0 00BF     		nop
 514 02b2 1437     		adds	r7, r7, #20
 515              	.LCFI19:
 516              		.cfi_def_cfa_offset 4
ARM GAS  G:\Users\Jaxb\AppData\Local\Temp\ccWNHqDV.s 			page 16


 517 02b4 BD46     		mov	sp, r7
 518              	.LCFI20:
 519              		.cfi_def_cfa_register 13
 520              		@ sp needed
 521 02b6 80BC     		pop	{r7}
 522              	.LCFI21:
 523              		.cfi_restore 7
 524              		.cfi_def_cfa_offset 0
 525 02b8 7047     		bx	lr
 526              		.cfi_endproc
 527              	.LFE32:
 528              		.size	USART_ClockInit, .-USART_ClockInit
 529              		.align	1
 530              		.global	USART_ClockStructInit
 531              		.syntax unified
 532              		.thumb
 533              		.thumb_func
 534              		.fpu softvfp
 535              		.type	USART_ClockStructInit, %function
 536              	USART_ClockStructInit:
 537              	.LFB33:
 326:../../source/src/FWlib/src/stm32f10x_usart.c **** 
 327:../../source/src/FWlib/src/stm32f10x_usart.c **** /**
 328:../../source/src/FWlib/src/stm32f10x_usart.c ****   * @brief  Fills each USART_ClockInitStruct member with its default value.
 329:../../source/src/FWlib/src/stm32f10x_usart.c ****   * @param  USART_ClockInitStruct: pointer to a USART_ClockInitTypeDef
 330:../../source/src/FWlib/src/stm32f10x_usart.c ****   *         structure which will be initialized.
 331:../../source/src/FWlib/src/stm32f10x_usart.c ****   * @retval None
 332:../../source/src/FWlib/src/stm32f10x_usart.c ****   */
 333:../../source/src/FWlib/src/stm32f10x_usart.c **** void USART_ClockStructInit(USART_ClockInitTypeDef* USART_ClockInitStruct)
 334:../../source/src/FWlib/src/stm32f10x_usart.c **** {
 538              		.loc 1 334 0
 539              		.cfi_startproc
 540              		@ args = 0, pretend = 0, frame = 8
 541              		@ frame_needed = 1, uses_anonymous_args = 0
 542              		@ link register save eliminated.
 543 02ba 80B4     		push	{r7}
 544              	.LCFI22:
 545              		.cfi_def_cfa_offset 4
 546              		.cfi_offset 7, -4
 547 02bc 83B0     		sub	sp, sp, #12
 548              	.LCFI23:
 549              		.cfi_def_cfa_offset 16
 550 02be 00AF     		add	r7, sp, #0
 551              	.LCFI24:
 552              		.cfi_def_cfa_register 7
 553 02c0 7860     		str	r0, [r7, #4]
 335:../../source/src/FWlib/src/stm32f10x_usart.c ****   /* USART_ClockInitStruct members default value */
 336:../../source/src/FWlib/src/stm32f10x_usart.c ****   USART_ClockInitStruct->USART_Clock = USART_Clock_Disable;
 554              		.loc 1 336 0
 555 02c2 7B68     		ldr	r3, [r7, #4]
 556 02c4 0022     		movs	r2, #0
 557 02c6 1A80     		strh	r2, [r3]	@ movhi
 337:../../source/src/FWlib/src/stm32f10x_usart.c ****   USART_ClockInitStruct->USART_CPOL = USART_CPOL_Low;
 558              		.loc 1 337 0
 559 02c8 7B68     		ldr	r3, [r7, #4]
 560 02ca 0022     		movs	r2, #0
 561 02cc 5A80     		strh	r2, [r3, #2]	@ movhi
ARM GAS  G:\Users\Jaxb\AppData\Local\Temp\ccWNHqDV.s 			page 17


 338:../../source/src/FWlib/src/stm32f10x_usart.c ****   USART_ClockInitStruct->USART_CPHA = USART_CPHA_1Edge;
 562              		.loc 1 338 0
 563 02ce 7B68     		ldr	r3, [r7, #4]
 564 02d0 0022     		movs	r2, #0
 565 02d2 9A80     		strh	r2, [r3, #4]	@ movhi
 339:../../source/src/FWlib/src/stm32f10x_usart.c ****   USART_ClockInitStruct->USART_LastBit = USART_LastBit_Disable;
 566              		.loc 1 339 0
 567 02d4 7B68     		ldr	r3, [r7, #4]
 568 02d6 0022     		movs	r2, #0
 569 02d8 DA80     		strh	r2, [r3, #6]	@ movhi
 340:../../source/src/FWlib/src/stm32f10x_usart.c **** }
 570              		.loc 1 340 0
 571 02da 00BF     		nop
 572 02dc 0C37     		adds	r7, r7, #12
 573              	.LCFI25:
 574              		.cfi_def_cfa_offset 4
 575 02de BD46     		mov	sp, r7
 576              	.LCFI26:
 577              		.cfi_def_cfa_register 13
 578              		@ sp needed
 579 02e0 80BC     		pop	{r7}
 580              	.LCFI27:
 581              		.cfi_restore 7
 582              		.cfi_def_cfa_offset 0
 583 02e2 7047     		bx	lr
 584              		.cfi_endproc
 585              	.LFE33:
 586              		.size	USART_ClockStructInit, .-USART_ClockStructInit
 587              		.align	1
 588              		.global	USART_Cmd
 589              		.syntax unified
 590              		.thumb
 591              		.thumb_func
 592              		.fpu softvfp
 593              		.type	USART_Cmd, %function
 594              	USART_Cmd:
 595              	.LFB34:
 341:../../source/src/FWlib/src/stm32f10x_usart.c **** 
 342:../../source/src/FWlib/src/stm32f10x_usart.c **** /**
 343:../../source/src/FWlib/src/stm32f10x_usart.c ****   * @brief  Enables or disables the specified USART peripheral.
 344:../../source/src/FWlib/src/stm32f10x_usart.c ****   * @param  USARTx: Select the USART or the UART peripheral. 
 345:../../source/src/FWlib/src/stm32f10x_usart.c ****   *         This parameter can be one of the following values:
 346:../../source/src/FWlib/src/stm32f10x_usart.c ****   *           USART1, USART2, USART3, UART4 or UART5.
 347:../../source/src/FWlib/src/stm32f10x_usart.c ****   * @param  NewState: new state of the USARTx peripheral.
 348:../../source/src/FWlib/src/stm32f10x_usart.c ****   *         This parameter can be: ENABLE or DISABLE.
 349:../../source/src/FWlib/src/stm32f10x_usart.c ****   * @retval None
 350:../../source/src/FWlib/src/stm32f10x_usart.c ****   */
 351:../../source/src/FWlib/src/stm32f10x_usart.c **** void USART_Cmd(USART_TypeDef* USARTx, FunctionalState NewState)
 352:../../source/src/FWlib/src/stm32f10x_usart.c **** {
 596              		.loc 1 352 0
 597              		.cfi_startproc
 598              		@ args = 0, pretend = 0, frame = 8
 599              		@ frame_needed = 1, uses_anonymous_args = 0
 600              		@ link register save eliminated.
 601 02e4 80B4     		push	{r7}
 602              	.LCFI28:
 603              		.cfi_def_cfa_offset 4
ARM GAS  G:\Users\Jaxb\AppData\Local\Temp\ccWNHqDV.s 			page 18


 604              		.cfi_offset 7, -4
 605 02e6 83B0     		sub	sp, sp, #12
 606              	.LCFI29:
 607              		.cfi_def_cfa_offset 16
 608 02e8 00AF     		add	r7, sp, #0
 609              	.LCFI30:
 610              		.cfi_def_cfa_register 7
 611 02ea 7860     		str	r0, [r7, #4]
 612 02ec 0B46     		mov	r3, r1
 613 02ee FB70     		strb	r3, [r7, #3]
 353:../../source/src/FWlib/src/stm32f10x_usart.c ****   /* Check the parameters */
 354:../../source/src/FWlib/src/stm32f10x_usart.c ****   assert_param(IS_USART_ALL_PERIPH(USARTx));
 355:../../source/src/FWlib/src/stm32f10x_usart.c ****   assert_param(IS_FUNCTIONAL_STATE(NewState));
 356:../../source/src/FWlib/src/stm32f10x_usart.c ****   
 357:../../source/src/FWlib/src/stm32f10x_usart.c ****   if (NewState != DISABLE)
 614              		.loc 1 357 0
 615 02f0 FB78     		ldrb	r3, [r7, #3]	@ zero_extendqisi2
 616 02f2 002B     		cmp	r3, #0
 617 02f4 08D0     		beq	.L23
 358:../../source/src/FWlib/src/stm32f10x_usart.c ****   {
 359:../../source/src/FWlib/src/stm32f10x_usart.c ****     /* Enable the selected USART by setting the UE bit in the CR1 register */
 360:../../source/src/FWlib/src/stm32f10x_usart.c ****     USARTx->CR1 |= CR1_UE_Set;
 618              		.loc 1 360 0
 619 02f6 7B68     		ldr	r3, [r7, #4]
 620 02f8 9B89     		ldrh	r3, [r3, #12]	@ movhi
 621 02fa 9BB2     		uxth	r3, r3
 622 02fc 43F40053 		orr	r3, r3, #8192
 623 0300 9AB2     		uxth	r2, r3
 624 0302 7B68     		ldr	r3, [r7, #4]
 625 0304 9A81     		strh	r2, [r3, #12]	@ movhi
 361:../../source/src/FWlib/src/stm32f10x_usart.c ****   }
 362:../../source/src/FWlib/src/stm32f10x_usart.c ****   else
 363:../../source/src/FWlib/src/stm32f10x_usart.c ****   {
 364:../../source/src/FWlib/src/stm32f10x_usart.c ****     /* Disable the selected USART by clearing the UE bit in the CR1 register */
 365:../../source/src/FWlib/src/stm32f10x_usart.c ****     USARTx->CR1 &= CR1_UE_Reset;
 366:../../source/src/FWlib/src/stm32f10x_usart.c ****   }
 367:../../source/src/FWlib/src/stm32f10x_usart.c **** }
 626              		.loc 1 367 0
 627 0306 07E0     		b	.L25
 628              	.L23:
 365:../../source/src/FWlib/src/stm32f10x_usart.c ****   }
 629              		.loc 1 365 0
 630 0308 7B68     		ldr	r3, [r7, #4]
 631 030a 9B89     		ldrh	r3, [r3, #12]	@ movhi
 632 030c 9BB2     		uxth	r3, r3
 633 030e 23F40053 		bic	r3, r3, #8192
 634 0312 9AB2     		uxth	r2, r3
 635 0314 7B68     		ldr	r3, [r7, #4]
 636 0316 9A81     		strh	r2, [r3, #12]	@ movhi
 637              	.L25:
 638              		.loc 1 367 0
 639 0318 00BF     		nop
 640 031a 0C37     		adds	r7, r7, #12
 641              	.LCFI31:
 642              		.cfi_def_cfa_offset 4
 643 031c BD46     		mov	sp, r7
 644              	.LCFI32:
ARM GAS  G:\Users\Jaxb\AppData\Local\Temp\ccWNHqDV.s 			page 19


 645              		.cfi_def_cfa_register 13
 646              		@ sp needed
 647 031e 80BC     		pop	{r7}
 648              	.LCFI33:
 649              		.cfi_restore 7
 650              		.cfi_def_cfa_offset 0
 651 0320 7047     		bx	lr
 652              		.cfi_endproc
 653              	.LFE34:
 654              		.size	USART_Cmd, .-USART_Cmd
 655              		.align	1
 656              		.global	USART_ITConfig
 657              		.syntax unified
 658              		.thumb
 659              		.thumb_func
 660              		.fpu softvfp
 661              		.type	USART_ITConfig, %function
 662              	USART_ITConfig:
 663              	.LFB35:
 368:../../source/src/FWlib/src/stm32f10x_usart.c **** 
 369:../../source/src/FWlib/src/stm32f10x_usart.c **** /**
 370:../../source/src/FWlib/src/stm32f10x_usart.c ****   * @brief  Enables or disables the specified USART interrupts.
 371:../../source/src/FWlib/src/stm32f10x_usart.c ****   * @param  USARTx: Select the USART or the UART peripheral. 
 372:../../source/src/FWlib/src/stm32f10x_usart.c ****   *   This parameter can be one of the following values:
 373:../../source/src/FWlib/src/stm32f10x_usart.c ****   *   USART1, USART2, USART3, UART4 or UART5.
 374:../../source/src/FWlib/src/stm32f10x_usart.c ****   * @param  USART_IT: specifies the USART interrupt sources to be enabled or disabled.
 375:../../source/src/FWlib/src/stm32f10x_usart.c ****   *   This parameter can be one of the following values:
 376:../../source/src/FWlib/src/stm32f10x_usart.c ****   *     @arg USART_IT_CTS:  CTS change interrupt (not available for UART4 and UART5)
 377:../../source/src/FWlib/src/stm32f10x_usart.c ****   *     @arg USART_IT_LBD:  LIN Break detection interrupt
 378:../../source/src/FWlib/src/stm32f10x_usart.c ****   *     @arg USART_IT_TXE:  Transmit Data Register empty interrupt
 379:../../source/src/FWlib/src/stm32f10x_usart.c ****   *     @arg USART_IT_TC:   Transmission complete interrupt
 380:../../source/src/FWlib/src/stm32f10x_usart.c ****   *     @arg USART_IT_RXNE: Receive Data register not empty interrupt
 381:../../source/src/FWlib/src/stm32f10x_usart.c ****   *     @arg USART_IT_IDLE: Idle line detection interrupt
 382:../../source/src/FWlib/src/stm32f10x_usart.c ****   *     @arg USART_IT_PE:   Parity Error interrupt
 383:../../source/src/FWlib/src/stm32f10x_usart.c ****   *     @arg USART_IT_ERR:  Error interrupt(Frame error, noise error, overrun error)
 384:../../source/src/FWlib/src/stm32f10x_usart.c ****   * @param  NewState: new state of the specified USARTx interrupts.
 385:../../source/src/FWlib/src/stm32f10x_usart.c ****   *   This parameter can be: ENABLE or DISABLE.
 386:../../source/src/FWlib/src/stm32f10x_usart.c ****   * @retval None
 387:../../source/src/FWlib/src/stm32f10x_usart.c ****   */
 388:../../source/src/FWlib/src/stm32f10x_usart.c **** void USART_ITConfig(USART_TypeDef* USARTx, uint16_t USART_IT, FunctionalState NewState)
 389:../../source/src/FWlib/src/stm32f10x_usart.c **** {
 664              		.loc 1 389 0
 665              		.cfi_startproc
 666              		@ args = 0, pretend = 0, frame = 24
 667              		@ frame_needed = 1, uses_anonymous_args = 0
 668              		@ link register save eliminated.
 669 0322 80B4     		push	{r7}
 670              	.LCFI34:
 671              		.cfi_def_cfa_offset 4
 672              		.cfi_offset 7, -4
 673 0324 87B0     		sub	sp, sp, #28
 674              	.LCFI35:
 675              		.cfi_def_cfa_offset 32
 676 0326 00AF     		add	r7, sp, #0
 677              	.LCFI36:
 678              		.cfi_def_cfa_register 7
 679 0328 7860     		str	r0, [r7, #4]
ARM GAS  G:\Users\Jaxb\AppData\Local\Temp\ccWNHqDV.s 			page 20


 680 032a 0B46     		mov	r3, r1
 681 032c 7B80     		strh	r3, [r7, #2]	@ movhi
 682 032e 1346     		mov	r3, r2
 683 0330 7B70     		strb	r3, [r7, #1]
 390:../../source/src/FWlib/src/stm32f10x_usart.c ****   uint32_t usartreg = 0x00, itpos = 0x00, itmask = 0x00;
 684              		.loc 1 390 0
 685 0332 0023     		movs	r3, #0
 686 0334 3B61     		str	r3, [r7, #16]
 687 0336 0023     		movs	r3, #0
 688 0338 FB60     		str	r3, [r7, #12]
 689 033a 0023     		movs	r3, #0
 690 033c BB60     		str	r3, [r7, #8]
 391:../../source/src/FWlib/src/stm32f10x_usart.c ****   uint32_t usartxbase = 0x00;
 691              		.loc 1 391 0
 692 033e 0023     		movs	r3, #0
 693 0340 7B61     		str	r3, [r7, #20]
 392:../../source/src/FWlib/src/stm32f10x_usart.c ****   /* Check the parameters */
 393:../../source/src/FWlib/src/stm32f10x_usart.c ****   assert_param(IS_USART_ALL_PERIPH(USARTx));
 394:../../source/src/FWlib/src/stm32f10x_usart.c ****   assert_param(IS_USART_CONFIG_IT(USART_IT));
 395:../../source/src/FWlib/src/stm32f10x_usart.c ****   assert_param(IS_FUNCTIONAL_STATE(NewState));
 396:../../source/src/FWlib/src/stm32f10x_usart.c ****   /* The CTS interrupt is not available for UART4 and UART5 */
 397:../../source/src/FWlib/src/stm32f10x_usart.c ****   if (USART_IT == USART_IT_CTS)
 398:../../source/src/FWlib/src/stm32f10x_usart.c ****   {
 399:../../source/src/FWlib/src/stm32f10x_usart.c ****     assert_param(IS_USART_123_PERIPH(USARTx));
 400:../../source/src/FWlib/src/stm32f10x_usart.c ****   }   
 401:../../source/src/FWlib/src/stm32f10x_usart.c ****   
 402:../../source/src/FWlib/src/stm32f10x_usart.c ****   usartxbase = (uint32_t)USARTx;
 694              		.loc 1 402 0
 695 0342 7B68     		ldr	r3, [r7, #4]
 696 0344 7B61     		str	r3, [r7, #20]
 403:../../source/src/FWlib/src/stm32f10x_usart.c **** 
 404:../../source/src/FWlib/src/stm32f10x_usart.c ****   /* Get the USART register index */
 405:../../source/src/FWlib/src/stm32f10x_usart.c ****   usartreg = (((uint8_t)USART_IT) >> 0x05);
 697              		.loc 1 405 0
 698 0346 7B88     		ldrh	r3, [r7, #2]	@ movhi
 699 0348 DBB2     		uxtb	r3, r3
 700 034a 5B09     		lsrs	r3, r3, #5
 701 034c DBB2     		uxtb	r3, r3
 702 034e 3B61     		str	r3, [r7, #16]
 406:../../source/src/FWlib/src/stm32f10x_usart.c **** 
 407:../../source/src/FWlib/src/stm32f10x_usart.c ****   /* Get the interrupt position */
 408:../../source/src/FWlib/src/stm32f10x_usart.c ****   itpos = USART_IT & IT_Mask;
 703              		.loc 1 408 0
 704 0350 7B88     		ldrh	r3, [r7, #2]
 705 0352 03F01F03 		and	r3, r3, #31
 706 0356 FB60     		str	r3, [r7, #12]
 409:../../source/src/FWlib/src/stm32f10x_usart.c ****   itmask = (((uint32_t)0x01) << itpos);
 707              		.loc 1 409 0
 708 0358 0122     		movs	r2, #1
 709 035a FB68     		ldr	r3, [r7, #12]
 710 035c 02FA03F3 		lsl	r3, r2, r3
 711 0360 BB60     		str	r3, [r7, #8]
 410:../../source/src/FWlib/src/stm32f10x_usart.c ****     
 411:../../source/src/FWlib/src/stm32f10x_usart.c ****   if (usartreg == 0x01) /* The IT is in CR1 register */
 712              		.loc 1 411 0
 713 0362 3B69     		ldr	r3, [r7, #16]
 714 0364 012B     		cmp	r3, #1
ARM GAS  G:\Users\Jaxb\AppData\Local\Temp\ccWNHqDV.s 			page 21


 715 0366 03D1     		bne	.L27
 412:../../source/src/FWlib/src/stm32f10x_usart.c ****   {
 413:../../source/src/FWlib/src/stm32f10x_usart.c ****     usartxbase += 0x0C;
 716              		.loc 1 413 0
 717 0368 7B69     		ldr	r3, [r7, #20]
 718 036a 0C33     		adds	r3, r3, #12
 719 036c 7B61     		str	r3, [r7, #20]
 720 036e 09E0     		b	.L28
 721              	.L27:
 414:../../source/src/FWlib/src/stm32f10x_usart.c ****   }
 415:../../source/src/FWlib/src/stm32f10x_usart.c ****   else if (usartreg == 0x02) /* The IT is in CR2 register */
 722              		.loc 1 415 0
 723 0370 3B69     		ldr	r3, [r7, #16]
 724 0372 022B     		cmp	r3, #2
 725 0374 03D1     		bne	.L29
 416:../../source/src/FWlib/src/stm32f10x_usart.c ****   {
 417:../../source/src/FWlib/src/stm32f10x_usart.c ****     usartxbase += 0x10;
 726              		.loc 1 417 0
 727 0376 7B69     		ldr	r3, [r7, #20]
 728 0378 1033     		adds	r3, r3, #16
 729 037a 7B61     		str	r3, [r7, #20]
 730 037c 02E0     		b	.L28
 731              	.L29:
 418:../../source/src/FWlib/src/stm32f10x_usart.c ****   }
 419:../../source/src/FWlib/src/stm32f10x_usart.c ****   else /* The IT is in CR3 register */
 420:../../source/src/FWlib/src/stm32f10x_usart.c ****   {
 421:../../source/src/FWlib/src/stm32f10x_usart.c ****     usartxbase += 0x14; 
 732              		.loc 1 421 0
 733 037e 7B69     		ldr	r3, [r7, #20]
 734 0380 1433     		adds	r3, r3, #20
 735 0382 7B61     		str	r3, [r7, #20]
 736              	.L28:
 422:../../source/src/FWlib/src/stm32f10x_usart.c ****   }
 423:../../source/src/FWlib/src/stm32f10x_usart.c ****   if (NewState != DISABLE)
 737              		.loc 1 423 0
 738 0384 7B78     		ldrb	r3, [r7, #1]	@ zero_extendqisi2
 739 0386 002B     		cmp	r3, #0
 740 0388 06D0     		beq	.L30
 424:../../source/src/FWlib/src/stm32f10x_usart.c ****   {
 425:../../source/src/FWlib/src/stm32f10x_usart.c ****     *(__IO uint32_t*)usartxbase  |= itmask;
 741              		.loc 1 425 0
 742 038a 7B69     		ldr	r3, [r7, #20]
 743 038c 1968     		ldr	r1, [r3]
 744 038e 7B69     		ldr	r3, [r7, #20]
 745 0390 BA68     		ldr	r2, [r7, #8]
 746 0392 0A43     		orrs	r2, r2, r1
 747 0394 1A60     		str	r2, [r3]
 426:../../source/src/FWlib/src/stm32f10x_usart.c ****   }
 427:../../source/src/FWlib/src/stm32f10x_usart.c ****   else
 428:../../source/src/FWlib/src/stm32f10x_usart.c ****   {
 429:../../source/src/FWlib/src/stm32f10x_usart.c ****     *(__IO uint32_t*)usartxbase &= ~itmask;
 430:../../source/src/FWlib/src/stm32f10x_usart.c ****   }
 431:../../source/src/FWlib/src/stm32f10x_usart.c **** }
 748              		.loc 1 431 0
 749 0396 06E0     		b	.L32
 750              	.L30:
 429:../../source/src/FWlib/src/stm32f10x_usart.c ****   }
ARM GAS  G:\Users\Jaxb\AppData\Local\Temp\ccWNHqDV.s 			page 22


 751              		.loc 1 429 0
 752 0398 7B69     		ldr	r3, [r7, #20]
 753 039a 1968     		ldr	r1, [r3]
 754 039c BB68     		ldr	r3, [r7, #8]
 755 039e DA43     		mvns	r2, r3
 756 03a0 7B69     		ldr	r3, [r7, #20]
 757 03a2 0A40     		ands	r2, r2, r1
 758 03a4 1A60     		str	r2, [r3]
 759              	.L32:
 760              		.loc 1 431 0
 761 03a6 00BF     		nop
 762 03a8 1C37     		adds	r7, r7, #28
 763              	.LCFI37:
 764              		.cfi_def_cfa_offset 4
 765 03aa BD46     		mov	sp, r7
 766              	.LCFI38:
 767              		.cfi_def_cfa_register 13
 768              		@ sp needed
 769 03ac 80BC     		pop	{r7}
 770              	.LCFI39:
 771              		.cfi_restore 7
 772              		.cfi_def_cfa_offset 0
 773 03ae 7047     		bx	lr
 774              		.cfi_endproc
 775              	.LFE35:
 776              		.size	USART_ITConfig, .-USART_ITConfig
 777              		.align	1
 778              		.global	USART_DMACmd
 779              		.syntax unified
 780              		.thumb
 781              		.thumb_func
 782              		.fpu softvfp
 783              		.type	USART_DMACmd, %function
 784              	USART_DMACmd:
 785              	.LFB36:
 432:../../source/src/FWlib/src/stm32f10x_usart.c **** 
 433:../../source/src/FWlib/src/stm32f10x_usart.c **** /**
 434:../../source/src/FWlib/src/stm32f10x_usart.c ****   * @brief  Enables or disables the USARTs DMA interface.
 435:../../source/src/FWlib/src/stm32f10x_usart.c ****   * @param  USARTx: Select the USART or the UART peripheral. 
 436:../../source/src/FWlib/src/stm32f10x_usart.c ****   *   This parameter can be one of the following values:
 437:../../source/src/FWlib/src/stm32f10x_usart.c ****   *   USART1, USART2, USART3, UART4 or UART5.
 438:../../source/src/FWlib/src/stm32f10x_usart.c ****   * @param  USART_DMAReq: specifies the DMA request.
 439:../../source/src/FWlib/src/stm32f10x_usart.c ****   *   This parameter can be any combination of the following values:
 440:../../source/src/FWlib/src/stm32f10x_usart.c ****   *     @arg USART_DMAReq_Tx: USART DMA transmit request
 441:../../source/src/FWlib/src/stm32f10x_usart.c ****   *     @arg USART_DMAReq_Rx: USART DMA receive request
 442:../../source/src/FWlib/src/stm32f10x_usart.c ****   * @param  NewState: new state of the DMA Request sources.
 443:../../source/src/FWlib/src/stm32f10x_usart.c ****   *   This parameter can be: ENABLE or DISABLE.
 444:../../source/src/FWlib/src/stm32f10x_usart.c ****   * @note The DMA mode is not available for UART5 except in the STM32
 445:../../source/src/FWlib/src/stm32f10x_usart.c ****   *       High density value line devices(STM32F10X_HD_VL).  
 446:../../source/src/FWlib/src/stm32f10x_usart.c ****   * @retval None
 447:../../source/src/FWlib/src/stm32f10x_usart.c ****   */
 448:../../source/src/FWlib/src/stm32f10x_usart.c **** void USART_DMACmd(USART_TypeDef* USARTx, uint16_t USART_DMAReq, FunctionalState NewState)
 449:../../source/src/FWlib/src/stm32f10x_usart.c **** {
 786              		.loc 1 449 0
 787              		.cfi_startproc
 788              		@ args = 0, pretend = 0, frame = 8
 789              		@ frame_needed = 1, uses_anonymous_args = 0
ARM GAS  G:\Users\Jaxb\AppData\Local\Temp\ccWNHqDV.s 			page 23


 790              		@ link register save eliminated.
 791 03b0 80B4     		push	{r7}
 792              	.LCFI40:
 793              		.cfi_def_cfa_offset 4
 794              		.cfi_offset 7, -4
 795 03b2 83B0     		sub	sp, sp, #12
 796              	.LCFI41:
 797              		.cfi_def_cfa_offset 16
 798 03b4 00AF     		add	r7, sp, #0
 799              	.LCFI42:
 800              		.cfi_def_cfa_register 7
 801 03b6 7860     		str	r0, [r7, #4]
 802 03b8 0B46     		mov	r3, r1
 803 03ba 7B80     		strh	r3, [r7, #2]	@ movhi
 804 03bc 1346     		mov	r3, r2
 805 03be 7B70     		strb	r3, [r7, #1]
 450:../../source/src/FWlib/src/stm32f10x_usart.c ****   /* Check the parameters */
 451:../../source/src/FWlib/src/stm32f10x_usart.c ****   assert_param(IS_USART_ALL_PERIPH(USARTx));
 452:../../source/src/FWlib/src/stm32f10x_usart.c ****   assert_param(IS_USART_DMAREQ(USART_DMAReq));  
 453:../../source/src/FWlib/src/stm32f10x_usart.c ****   assert_param(IS_FUNCTIONAL_STATE(NewState)); 
 454:../../source/src/FWlib/src/stm32f10x_usart.c ****   if (NewState != DISABLE)
 806              		.loc 1 454 0
 807 03c0 7B78     		ldrb	r3, [r7, #1]	@ zero_extendqisi2
 808 03c2 002B     		cmp	r3, #0
 809 03c4 08D0     		beq	.L34
 455:../../source/src/FWlib/src/stm32f10x_usart.c ****   {
 456:../../source/src/FWlib/src/stm32f10x_usart.c ****     /* Enable the DMA transfer for selected requests by setting the DMAT and/or
 457:../../source/src/FWlib/src/stm32f10x_usart.c ****        DMAR bits in the USART CR3 register */
 458:../../source/src/FWlib/src/stm32f10x_usart.c ****     USARTx->CR3 |= USART_DMAReq;
 810              		.loc 1 458 0
 811 03c6 7B68     		ldr	r3, [r7, #4]
 812 03c8 9B8A     		ldrh	r3, [r3, #20]	@ movhi
 813 03ca 9AB2     		uxth	r2, r3
 814 03cc 7B88     		ldrh	r3, [r7, #2]	@ movhi
 815 03ce 1343     		orrs	r3, r3, r2
 816 03d0 9AB2     		uxth	r2, r3
 817 03d2 7B68     		ldr	r3, [r7, #4]
 818 03d4 9A82     		strh	r2, [r3, #20]	@ movhi
 459:../../source/src/FWlib/src/stm32f10x_usart.c ****   }
 460:../../source/src/FWlib/src/stm32f10x_usart.c ****   else
 461:../../source/src/FWlib/src/stm32f10x_usart.c ****   {
 462:../../source/src/FWlib/src/stm32f10x_usart.c ****     /* Disable the DMA transfer for selected requests by clearing the DMAT and/or
 463:../../source/src/FWlib/src/stm32f10x_usart.c ****        DMAR bits in the USART CR3 register */
 464:../../source/src/FWlib/src/stm32f10x_usart.c ****     USARTx->CR3 &= (uint16_t)~USART_DMAReq;
 465:../../source/src/FWlib/src/stm32f10x_usart.c ****   }
 466:../../source/src/FWlib/src/stm32f10x_usart.c **** }
 819              		.loc 1 466 0
 820 03d6 09E0     		b	.L36
 821              	.L34:
 464:../../source/src/FWlib/src/stm32f10x_usart.c ****   }
 822              		.loc 1 464 0
 823 03d8 7B68     		ldr	r3, [r7, #4]
 824 03da 9B8A     		ldrh	r3, [r3, #20]	@ movhi
 825 03dc 9AB2     		uxth	r2, r3
 826 03de 7B88     		ldrh	r3, [r7, #2]	@ movhi
 827 03e0 DB43     		mvns	r3, r3
 828 03e2 9BB2     		uxth	r3, r3
ARM GAS  G:\Users\Jaxb\AppData\Local\Temp\ccWNHqDV.s 			page 24


 829 03e4 1340     		ands	r3, r3, r2
 830 03e6 9AB2     		uxth	r2, r3
 831 03e8 7B68     		ldr	r3, [r7, #4]
 832 03ea 9A82     		strh	r2, [r3, #20]	@ movhi
 833              	.L36:
 834              		.loc 1 466 0
 835 03ec 00BF     		nop
 836 03ee 0C37     		adds	r7, r7, #12
 837              	.LCFI43:
 838              		.cfi_def_cfa_offset 4
 839 03f0 BD46     		mov	sp, r7
 840              	.LCFI44:
 841              		.cfi_def_cfa_register 13
 842              		@ sp needed
 843 03f2 80BC     		pop	{r7}
 844              	.LCFI45:
 845              		.cfi_restore 7
 846              		.cfi_def_cfa_offset 0
 847 03f4 7047     		bx	lr
 848              		.cfi_endproc
 849              	.LFE36:
 850              		.size	USART_DMACmd, .-USART_DMACmd
 851              		.align	1
 852              		.global	USART_SetAddress
 853              		.syntax unified
 854              		.thumb
 855              		.thumb_func
 856              		.fpu softvfp
 857              		.type	USART_SetAddress, %function
 858              	USART_SetAddress:
 859              	.LFB37:
 467:../../source/src/FWlib/src/stm32f10x_usart.c **** 
 468:../../source/src/FWlib/src/stm32f10x_usart.c **** /**
 469:../../source/src/FWlib/src/stm32f10x_usart.c ****   * @brief  Sets the address of the USART node.
 470:../../source/src/FWlib/src/stm32f10x_usart.c ****   * @param  USARTx: Select the USART or the UART peripheral. 
 471:../../source/src/FWlib/src/stm32f10x_usart.c ****   *   This parameter can be one of the following values:
 472:../../source/src/FWlib/src/stm32f10x_usart.c ****   *   USART1, USART2, USART3, UART4 or UART5.
 473:../../source/src/FWlib/src/stm32f10x_usart.c ****   * @param  USART_Address: Indicates the address of the USART node.
 474:../../source/src/FWlib/src/stm32f10x_usart.c ****   * @retval None
 475:../../source/src/FWlib/src/stm32f10x_usart.c ****   */
 476:../../source/src/FWlib/src/stm32f10x_usart.c **** void USART_SetAddress(USART_TypeDef* USARTx, uint8_t USART_Address)
 477:../../source/src/FWlib/src/stm32f10x_usart.c **** {
 860              		.loc 1 477 0
 861              		.cfi_startproc
 862              		@ args = 0, pretend = 0, frame = 8
 863              		@ frame_needed = 1, uses_anonymous_args = 0
 864              		@ link register save eliminated.
 865 03f6 80B4     		push	{r7}
 866              	.LCFI46:
 867              		.cfi_def_cfa_offset 4
 868              		.cfi_offset 7, -4
 869 03f8 83B0     		sub	sp, sp, #12
 870              	.LCFI47:
 871              		.cfi_def_cfa_offset 16
 872 03fa 00AF     		add	r7, sp, #0
 873              	.LCFI48:
 874              		.cfi_def_cfa_register 7
ARM GAS  G:\Users\Jaxb\AppData\Local\Temp\ccWNHqDV.s 			page 25


 875 03fc 7860     		str	r0, [r7, #4]
 876 03fe 0B46     		mov	r3, r1
 877 0400 FB70     		strb	r3, [r7, #3]
 478:../../source/src/FWlib/src/stm32f10x_usart.c ****   /* Check the parameters */
 479:../../source/src/FWlib/src/stm32f10x_usart.c ****   assert_param(IS_USART_ALL_PERIPH(USARTx));
 480:../../source/src/FWlib/src/stm32f10x_usart.c ****   assert_param(IS_USART_ADDRESS(USART_Address)); 
 481:../../source/src/FWlib/src/stm32f10x_usart.c ****     
 482:../../source/src/FWlib/src/stm32f10x_usart.c ****   /* Clear the USART address */
 483:../../source/src/FWlib/src/stm32f10x_usart.c ****   USARTx->CR2 &= CR2_Address_Mask;
 878              		.loc 1 483 0
 879 0402 7B68     		ldr	r3, [r7, #4]
 880 0404 1B8A     		ldrh	r3, [r3, #16]	@ movhi
 881 0406 9BB2     		uxth	r3, r3
 882 0408 23F00F03 		bic	r3, r3, #15
 883 040c 9AB2     		uxth	r2, r3
 884 040e 7B68     		ldr	r3, [r7, #4]
 885 0410 1A82     		strh	r2, [r3, #16]	@ movhi
 484:../../source/src/FWlib/src/stm32f10x_usart.c ****   /* Set the USART address node */
 485:../../source/src/FWlib/src/stm32f10x_usart.c ****   USARTx->CR2 |= USART_Address;
 886              		.loc 1 485 0
 887 0412 7B68     		ldr	r3, [r7, #4]
 888 0414 1B8A     		ldrh	r3, [r3, #16]	@ movhi
 889 0416 9AB2     		uxth	r2, r3
 890 0418 FB78     		ldrb	r3, [r7, #3]	@ zero_extendqisi2
 891 041a 9BB2     		uxth	r3, r3
 892 041c 1343     		orrs	r3, r3, r2
 893 041e 9AB2     		uxth	r2, r3
 894 0420 7B68     		ldr	r3, [r7, #4]
 895 0422 1A82     		strh	r2, [r3, #16]	@ movhi
 486:../../source/src/FWlib/src/stm32f10x_usart.c **** }
 896              		.loc 1 486 0
 897 0424 00BF     		nop
 898 0426 0C37     		adds	r7, r7, #12
 899              	.LCFI49:
 900              		.cfi_def_cfa_offset 4
 901 0428 BD46     		mov	sp, r7
 902              	.LCFI50:
 903              		.cfi_def_cfa_register 13
 904              		@ sp needed
 905 042a 80BC     		pop	{r7}
 906              	.LCFI51:
 907              		.cfi_restore 7
 908              		.cfi_def_cfa_offset 0
 909 042c 7047     		bx	lr
 910              		.cfi_endproc
 911              	.LFE37:
 912              		.size	USART_SetAddress, .-USART_SetAddress
 913              		.align	1
 914              		.global	USART_WakeUpConfig
 915              		.syntax unified
 916              		.thumb
 917              		.thumb_func
 918              		.fpu softvfp
 919              		.type	USART_WakeUpConfig, %function
 920              	USART_WakeUpConfig:
 921              	.LFB38:
 487:../../source/src/FWlib/src/stm32f10x_usart.c **** 
ARM GAS  G:\Users\Jaxb\AppData\Local\Temp\ccWNHqDV.s 			page 26


 488:../../source/src/FWlib/src/stm32f10x_usart.c **** /**
 489:../../source/src/FWlib/src/stm32f10x_usart.c ****   * @brief  Selects the USART WakeUp method.
 490:../../source/src/FWlib/src/stm32f10x_usart.c ****   * @param  USARTx: Select the USART or the UART peripheral. 
 491:../../source/src/FWlib/src/stm32f10x_usart.c ****   *   This parameter can be one of the following values:
 492:../../source/src/FWlib/src/stm32f10x_usart.c ****   *   USART1, USART2, USART3, UART4 or UART5.
 493:../../source/src/FWlib/src/stm32f10x_usart.c ****   * @param  USART_WakeUp: specifies the USART wakeup method.
 494:../../source/src/FWlib/src/stm32f10x_usart.c ****   *   This parameter can be one of the following values:
 495:../../source/src/FWlib/src/stm32f10x_usart.c ****   *     @arg USART_WakeUp_IdleLine: WakeUp by an idle line detection
 496:../../source/src/FWlib/src/stm32f10x_usart.c ****   *     @arg USART_WakeUp_AddressMark: WakeUp by an address mark
 497:../../source/src/FWlib/src/stm32f10x_usart.c ****   * @retval None
 498:../../source/src/FWlib/src/stm32f10x_usart.c ****   */
 499:../../source/src/FWlib/src/stm32f10x_usart.c **** void USART_WakeUpConfig(USART_TypeDef* USARTx, uint16_t USART_WakeUp)
 500:../../source/src/FWlib/src/stm32f10x_usart.c **** {
 922              		.loc 1 500 0
 923              		.cfi_startproc
 924              		@ args = 0, pretend = 0, frame = 8
 925              		@ frame_needed = 1, uses_anonymous_args = 0
 926              		@ link register save eliminated.
 927 042e 80B4     		push	{r7}
 928              	.LCFI52:
 929              		.cfi_def_cfa_offset 4
 930              		.cfi_offset 7, -4
 931 0430 83B0     		sub	sp, sp, #12
 932              	.LCFI53:
 933              		.cfi_def_cfa_offset 16
 934 0432 00AF     		add	r7, sp, #0
 935              	.LCFI54:
 936              		.cfi_def_cfa_register 7
 937 0434 7860     		str	r0, [r7, #4]
 938 0436 0B46     		mov	r3, r1
 939 0438 7B80     		strh	r3, [r7, #2]	@ movhi
 501:../../source/src/FWlib/src/stm32f10x_usart.c ****   /* Check the parameters */
 502:../../source/src/FWlib/src/stm32f10x_usart.c ****   assert_param(IS_USART_ALL_PERIPH(USARTx));
 503:../../source/src/FWlib/src/stm32f10x_usart.c ****   assert_param(IS_USART_WAKEUP(USART_WakeUp));
 504:../../source/src/FWlib/src/stm32f10x_usart.c ****   
 505:../../source/src/FWlib/src/stm32f10x_usart.c ****   USARTx->CR1 &= CR1_WAKE_Mask;
 940              		.loc 1 505 0
 941 043a 7B68     		ldr	r3, [r7, #4]
 942 043c 9B89     		ldrh	r3, [r3, #12]	@ movhi
 943 043e 9BB2     		uxth	r3, r3
 944 0440 23F40063 		bic	r3, r3, #2048
 945 0444 9AB2     		uxth	r2, r3
 946 0446 7B68     		ldr	r3, [r7, #4]
 947 0448 9A81     		strh	r2, [r3, #12]	@ movhi
 506:../../source/src/FWlib/src/stm32f10x_usart.c ****   USARTx->CR1 |= USART_WakeUp;
 948              		.loc 1 506 0
 949 044a 7B68     		ldr	r3, [r7, #4]
 950 044c 9B89     		ldrh	r3, [r3, #12]	@ movhi
 951 044e 9AB2     		uxth	r2, r3
 952 0450 7B88     		ldrh	r3, [r7, #2]	@ movhi
 953 0452 1343     		orrs	r3, r3, r2
 954 0454 9AB2     		uxth	r2, r3
 955 0456 7B68     		ldr	r3, [r7, #4]
 956 0458 9A81     		strh	r2, [r3, #12]	@ movhi
 507:../../source/src/FWlib/src/stm32f10x_usart.c **** }
 957              		.loc 1 507 0
 958 045a 00BF     		nop
ARM GAS  G:\Users\Jaxb\AppData\Local\Temp\ccWNHqDV.s 			page 27


 959 045c 0C37     		adds	r7, r7, #12
 960              	.LCFI55:
 961              		.cfi_def_cfa_offset 4
 962 045e BD46     		mov	sp, r7
 963              	.LCFI56:
 964              		.cfi_def_cfa_register 13
 965              		@ sp needed
 966 0460 80BC     		pop	{r7}
 967              	.LCFI57:
 968              		.cfi_restore 7
 969              		.cfi_def_cfa_offset 0
 970 0462 7047     		bx	lr
 971              		.cfi_endproc
 972              	.LFE38:
 973              		.size	USART_WakeUpConfig, .-USART_WakeUpConfig
 974              		.align	1
 975              		.global	USART_ReceiverWakeUpCmd
 976              		.syntax unified
 977              		.thumb
 978              		.thumb_func
 979              		.fpu softvfp
 980              		.type	USART_ReceiverWakeUpCmd, %function
 981              	USART_ReceiverWakeUpCmd:
 982              	.LFB39:
 508:../../source/src/FWlib/src/stm32f10x_usart.c **** 
 509:../../source/src/FWlib/src/stm32f10x_usart.c **** /**
 510:../../source/src/FWlib/src/stm32f10x_usart.c ****   * @brief  Determines if the USART is in mute mode or not.
 511:../../source/src/FWlib/src/stm32f10x_usart.c ****   * @param  USARTx: Select the USART or the UART peripheral. 
 512:../../source/src/FWlib/src/stm32f10x_usart.c ****   *   This parameter can be one of the following values:
 513:../../source/src/FWlib/src/stm32f10x_usart.c ****   *   USART1, USART2, USART3, UART4 or UART5.
 514:../../source/src/FWlib/src/stm32f10x_usart.c ****   * @param  NewState: new state of the USART mute mode.
 515:../../source/src/FWlib/src/stm32f10x_usart.c ****   *   This parameter can be: ENABLE or DISABLE.
 516:../../source/src/FWlib/src/stm32f10x_usart.c ****   * @retval None
 517:../../source/src/FWlib/src/stm32f10x_usart.c ****   */
 518:../../source/src/FWlib/src/stm32f10x_usart.c **** void USART_ReceiverWakeUpCmd(USART_TypeDef* USARTx, FunctionalState NewState)
 519:../../source/src/FWlib/src/stm32f10x_usart.c **** {
 983              		.loc 1 519 0
 984              		.cfi_startproc
 985              		@ args = 0, pretend = 0, frame = 8
 986              		@ frame_needed = 1, uses_anonymous_args = 0
 987              		@ link register save eliminated.
 988 0464 80B4     		push	{r7}
 989              	.LCFI58:
 990              		.cfi_def_cfa_offset 4
 991              		.cfi_offset 7, -4
 992 0466 83B0     		sub	sp, sp, #12
 993              	.LCFI59:
 994              		.cfi_def_cfa_offset 16
 995 0468 00AF     		add	r7, sp, #0
 996              	.LCFI60:
 997              		.cfi_def_cfa_register 7
 998 046a 7860     		str	r0, [r7, #4]
 999 046c 0B46     		mov	r3, r1
 1000 046e FB70     		strb	r3, [r7, #3]
 520:../../source/src/FWlib/src/stm32f10x_usart.c ****   /* Check the parameters */
 521:../../source/src/FWlib/src/stm32f10x_usart.c ****   assert_param(IS_USART_ALL_PERIPH(USARTx));
 522:../../source/src/FWlib/src/stm32f10x_usart.c ****   assert_param(IS_FUNCTIONAL_STATE(NewState)); 
ARM GAS  G:\Users\Jaxb\AppData\Local\Temp\ccWNHqDV.s 			page 28


 523:../../source/src/FWlib/src/stm32f10x_usart.c ****   
 524:../../source/src/FWlib/src/stm32f10x_usart.c ****   if (NewState != DISABLE)
 1001              		.loc 1 524 0
 1002 0470 FB78     		ldrb	r3, [r7, #3]	@ zero_extendqisi2
 1003 0472 002B     		cmp	r3, #0
 1004 0474 08D0     		beq	.L40
 525:../../source/src/FWlib/src/stm32f10x_usart.c ****   {
 526:../../source/src/FWlib/src/stm32f10x_usart.c ****     /* Enable the USART mute mode  by setting the RWU bit in the CR1 register */
 527:../../source/src/FWlib/src/stm32f10x_usart.c ****     USARTx->CR1 |= CR1_RWU_Set;
 1005              		.loc 1 527 0
 1006 0476 7B68     		ldr	r3, [r7, #4]
 1007 0478 9B89     		ldrh	r3, [r3, #12]	@ movhi
 1008 047a 9BB2     		uxth	r3, r3
 1009 047c 43F00203 		orr	r3, r3, #2
 1010 0480 9AB2     		uxth	r2, r3
 1011 0482 7B68     		ldr	r3, [r7, #4]
 1012 0484 9A81     		strh	r2, [r3, #12]	@ movhi
 528:../../source/src/FWlib/src/stm32f10x_usart.c ****   }
 529:../../source/src/FWlib/src/stm32f10x_usart.c ****   else
 530:../../source/src/FWlib/src/stm32f10x_usart.c ****   {
 531:../../source/src/FWlib/src/stm32f10x_usart.c ****     /* Disable the USART mute mode by clearing the RWU bit in the CR1 register */
 532:../../source/src/FWlib/src/stm32f10x_usart.c ****     USARTx->CR1 &= CR1_RWU_Reset;
 533:../../source/src/FWlib/src/stm32f10x_usart.c ****   }
 534:../../source/src/FWlib/src/stm32f10x_usart.c **** }
 1013              		.loc 1 534 0
 1014 0486 07E0     		b	.L42
 1015              	.L40:
 532:../../source/src/FWlib/src/stm32f10x_usart.c ****   }
 1016              		.loc 1 532 0
 1017 0488 7B68     		ldr	r3, [r7, #4]
 1018 048a 9B89     		ldrh	r3, [r3, #12]	@ movhi
 1019 048c 9BB2     		uxth	r3, r3
 1020 048e 23F00203 		bic	r3, r3, #2
 1021 0492 9AB2     		uxth	r2, r3
 1022 0494 7B68     		ldr	r3, [r7, #4]
 1023 0496 9A81     		strh	r2, [r3, #12]	@ movhi
 1024              	.L42:
 1025              		.loc 1 534 0
 1026 0498 00BF     		nop
 1027 049a 0C37     		adds	r7, r7, #12
 1028              	.LCFI61:
 1029              		.cfi_def_cfa_offset 4
 1030 049c BD46     		mov	sp, r7
 1031              	.LCFI62:
 1032              		.cfi_def_cfa_register 13
 1033              		@ sp needed
 1034 049e 80BC     		pop	{r7}
 1035              	.LCFI63:
 1036              		.cfi_restore 7
 1037              		.cfi_def_cfa_offset 0
 1038 04a0 7047     		bx	lr
 1039              		.cfi_endproc
 1040              	.LFE39:
 1041              		.size	USART_ReceiverWakeUpCmd, .-USART_ReceiverWakeUpCmd
 1042              		.align	1
 1043              		.global	USART_LINBreakDetectLengthConfig
 1044              		.syntax unified
ARM GAS  G:\Users\Jaxb\AppData\Local\Temp\ccWNHqDV.s 			page 29


 1045              		.thumb
 1046              		.thumb_func
 1047              		.fpu softvfp
 1048              		.type	USART_LINBreakDetectLengthConfig, %function
 1049              	USART_LINBreakDetectLengthConfig:
 1050              	.LFB40:
 535:../../source/src/FWlib/src/stm32f10x_usart.c **** 
 536:../../source/src/FWlib/src/stm32f10x_usart.c **** /**
 537:../../source/src/FWlib/src/stm32f10x_usart.c ****   * @brief  Sets the USART LIN Break detection length.
 538:../../source/src/FWlib/src/stm32f10x_usart.c ****   * @param  USARTx: Select the USART or the UART peripheral. 
 539:../../source/src/FWlib/src/stm32f10x_usart.c ****   *   This parameter can be one of the following values:
 540:../../source/src/FWlib/src/stm32f10x_usart.c ****   *   USART1, USART2, USART3, UART4 or UART5.
 541:../../source/src/FWlib/src/stm32f10x_usart.c ****   * @param  USART_LINBreakDetectLength: specifies the LIN break detection length.
 542:../../source/src/FWlib/src/stm32f10x_usart.c ****   *   This parameter can be one of the following values:
 543:../../source/src/FWlib/src/stm32f10x_usart.c ****   *     @arg USART_LINBreakDetectLength_10b: 10-bit break detection
 544:../../source/src/FWlib/src/stm32f10x_usart.c ****   *     @arg USART_LINBreakDetectLength_11b: 11-bit break detection
 545:../../source/src/FWlib/src/stm32f10x_usart.c ****   * @retval None
 546:../../source/src/FWlib/src/stm32f10x_usart.c ****   */
 547:../../source/src/FWlib/src/stm32f10x_usart.c **** void USART_LINBreakDetectLengthConfig(USART_TypeDef* USARTx, uint16_t USART_LINBreakDetectLength)
 548:../../source/src/FWlib/src/stm32f10x_usart.c **** {
 1051              		.loc 1 548 0
 1052              		.cfi_startproc
 1053              		@ args = 0, pretend = 0, frame = 8
 1054              		@ frame_needed = 1, uses_anonymous_args = 0
 1055              		@ link register save eliminated.
 1056 04a2 80B4     		push	{r7}
 1057              	.LCFI64:
 1058              		.cfi_def_cfa_offset 4
 1059              		.cfi_offset 7, -4
 1060 04a4 83B0     		sub	sp, sp, #12
 1061              	.LCFI65:
 1062              		.cfi_def_cfa_offset 16
 1063 04a6 00AF     		add	r7, sp, #0
 1064              	.LCFI66:
 1065              		.cfi_def_cfa_register 7
 1066 04a8 7860     		str	r0, [r7, #4]
 1067 04aa 0B46     		mov	r3, r1
 1068 04ac 7B80     		strh	r3, [r7, #2]	@ movhi
 549:../../source/src/FWlib/src/stm32f10x_usart.c ****   /* Check the parameters */
 550:../../source/src/FWlib/src/stm32f10x_usart.c ****   assert_param(IS_USART_ALL_PERIPH(USARTx));
 551:../../source/src/FWlib/src/stm32f10x_usart.c ****   assert_param(IS_USART_LIN_BREAK_DETECT_LENGTH(USART_LINBreakDetectLength));
 552:../../source/src/FWlib/src/stm32f10x_usart.c ****   
 553:../../source/src/FWlib/src/stm32f10x_usart.c ****   USARTx->CR2 &= CR2_LBDL_Mask;
 1069              		.loc 1 553 0
 1070 04ae 7B68     		ldr	r3, [r7, #4]
 1071 04b0 1B8A     		ldrh	r3, [r3, #16]	@ movhi
 1072 04b2 9BB2     		uxth	r3, r3
 1073 04b4 23F02003 		bic	r3, r3, #32
 1074 04b8 9AB2     		uxth	r2, r3
 1075 04ba 7B68     		ldr	r3, [r7, #4]
 1076 04bc 1A82     		strh	r2, [r3, #16]	@ movhi
 554:../../source/src/FWlib/src/stm32f10x_usart.c ****   USARTx->CR2 |= USART_LINBreakDetectLength;  
 1077              		.loc 1 554 0
 1078 04be 7B68     		ldr	r3, [r7, #4]
 1079 04c0 1B8A     		ldrh	r3, [r3, #16]	@ movhi
 1080 04c2 9AB2     		uxth	r2, r3
 1081 04c4 7B88     		ldrh	r3, [r7, #2]	@ movhi
ARM GAS  G:\Users\Jaxb\AppData\Local\Temp\ccWNHqDV.s 			page 30


 1082 04c6 1343     		orrs	r3, r3, r2
 1083 04c8 9AB2     		uxth	r2, r3
 1084 04ca 7B68     		ldr	r3, [r7, #4]
 1085 04cc 1A82     		strh	r2, [r3, #16]	@ movhi
 555:../../source/src/FWlib/src/stm32f10x_usart.c **** }
 1086              		.loc 1 555 0
 1087 04ce 00BF     		nop
 1088 04d0 0C37     		adds	r7, r7, #12
 1089              	.LCFI67:
 1090              		.cfi_def_cfa_offset 4
 1091 04d2 BD46     		mov	sp, r7
 1092              	.LCFI68:
 1093              		.cfi_def_cfa_register 13
 1094              		@ sp needed
 1095 04d4 80BC     		pop	{r7}
 1096              	.LCFI69:
 1097              		.cfi_restore 7
 1098              		.cfi_def_cfa_offset 0
 1099 04d6 7047     		bx	lr
 1100              		.cfi_endproc
 1101              	.LFE40:
 1102              		.size	USART_LINBreakDetectLengthConfig, .-USART_LINBreakDetectLengthConfig
 1103              		.align	1
 1104              		.global	USART_LINCmd
 1105              		.syntax unified
 1106              		.thumb
 1107              		.thumb_func
 1108              		.fpu softvfp
 1109              		.type	USART_LINCmd, %function
 1110              	USART_LINCmd:
 1111              	.LFB41:
 556:../../source/src/FWlib/src/stm32f10x_usart.c **** 
 557:../../source/src/FWlib/src/stm32f10x_usart.c **** /**
 558:../../source/src/FWlib/src/stm32f10x_usart.c ****   * @brief  Enables or disables the USARTs LIN mode.
 559:../../source/src/FWlib/src/stm32f10x_usart.c ****   * @param  USARTx: Select the USART or the UART peripheral. 
 560:../../source/src/FWlib/src/stm32f10x_usart.c ****   *   This parameter can be one of the following values:
 561:../../source/src/FWlib/src/stm32f10x_usart.c ****   *   USART1, USART2, USART3, UART4 or UART5.
 562:../../source/src/FWlib/src/stm32f10x_usart.c ****   * @param  NewState: new state of the USART LIN mode.
 563:../../source/src/FWlib/src/stm32f10x_usart.c ****   *   This parameter can be: ENABLE or DISABLE.
 564:../../source/src/FWlib/src/stm32f10x_usart.c ****   * @retval None
 565:../../source/src/FWlib/src/stm32f10x_usart.c ****   */
 566:../../source/src/FWlib/src/stm32f10x_usart.c **** void USART_LINCmd(USART_TypeDef* USARTx, FunctionalState NewState)
 567:../../source/src/FWlib/src/stm32f10x_usart.c **** {
 1112              		.loc 1 567 0
 1113              		.cfi_startproc
 1114              		@ args = 0, pretend = 0, frame = 8
 1115              		@ frame_needed = 1, uses_anonymous_args = 0
 1116              		@ link register save eliminated.
 1117 04d8 80B4     		push	{r7}
 1118              	.LCFI70:
 1119              		.cfi_def_cfa_offset 4
 1120              		.cfi_offset 7, -4
 1121 04da 83B0     		sub	sp, sp, #12
 1122              	.LCFI71:
 1123              		.cfi_def_cfa_offset 16
 1124 04dc 00AF     		add	r7, sp, #0
 1125              	.LCFI72:
ARM GAS  G:\Users\Jaxb\AppData\Local\Temp\ccWNHqDV.s 			page 31


 1126              		.cfi_def_cfa_register 7
 1127 04de 7860     		str	r0, [r7, #4]
 1128 04e0 0B46     		mov	r3, r1
 1129 04e2 FB70     		strb	r3, [r7, #3]
 568:../../source/src/FWlib/src/stm32f10x_usart.c ****   /* Check the parameters */
 569:../../source/src/FWlib/src/stm32f10x_usart.c ****   assert_param(IS_USART_ALL_PERIPH(USARTx));
 570:../../source/src/FWlib/src/stm32f10x_usart.c ****   assert_param(IS_FUNCTIONAL_STATE(NewState));
 571:../../source/src/FWlib/src/stm32f10x_usart.c ****   
 572:../../source/src/FWlib/src/stm32f10x_usart.c ****   if (NewState != DISABLE)
 1130              		.loc 1 572 0
 1131 04e4 FB78     		ldrb	r3, [r7, #3]	@ zero_extendqisi2
 1132 04e6 002B     		cmp	r3, #0
 1133 04e8 08D0     		beq	.L45
 573:../../source/src/FWlib/src/stm32f10x_usart.c ****   {
 574:../../source/src/FWlib/src/stm32f10x_usart.c ****     /* Enable the LIN mode by setting the LINEN bit in the CR2 register */
 575:../../source/src/FWlib/src/stm32f10x_usart.c ****     USARTx->CR2 |= CR2_LINEN_Set;
 1134              		.loc 1 575 0
 1135 04ea 7B68     		ldr	r3, [r7, #4]
 1136 04ec 1B8A     		ldrh	r3, [r3, #16]	@ movhi
 1137 04ee 9BB2     		uxth	r3, r3
 1138 04f0 43F48043 		orr	r3, r3, #16384
 1139 04f4 9AB2     		uxth	r2, r3
 1140 04f6 7B68     		ldr	r3, [r7, #4]
 1141 04f8 1A82     		strh	r2, [r3, #16]	@ movhi
 576:../../source/src/FWlib/src/stm32f10x_usart.c ****   }
 577:../../source/src/FWlib/src/stm32f10x_usart.c ****   else
 578:../../source/src/FWlib/src/stm32f10x_usart.c ****   {
 579:../../source/src/FWlib/src/stm32f10x_usart.c ****     /* Disable the LIN mode by clearing the LINEN bit in the CR2 register */
 580:../../source/src/FWlib/src/stm32f10x_usart.c ****     USARTx->CR2 &= CR2_LINEN_Reset;
 581:../../source/src/FWlib/src/stm32f10x_usart.c ****   }
 582:../../source/src/FWlib/src/stm32f10x_usart.c **** }
 1142              		.loc 1 582 0
 1143 04fa 07E0     		b	.L47
 1144              	.L45:
 580:../../source/src/FWlib/src/stm32f10x_usart.c ****   }
 1145              		.loc 1 580 0
 1146 04fc 7B68     		ldr	r3, [r7, #4]
 1147 04fe 1B8A     		ldrh	r3, [r3, #16]	@ movhi
 1148 0500 9BB2     		uxth	r3, r3
 1149 0502 23F48043 		bic	r3, r3, #16384
 1150 0506 9AB2     		uxth	r2, r3
 1151 0508 7B68     		ldr	r3, [r7, #4]
 1152 050a 1A82     		strh	r2, [r3, #16]	@ movhi
 1153              	.L47:
 1154              		.loc 1 582 0
 1155 050c 00BF     		nop
 1156 050e 0C37     		adds	r7, r7, #12
 1157              	.LCFI73:
 1158              		.cfi_def_cfa_offset 4
 1159 0510 BD46     		mov	sp, r7
 1160              	.LCFI74:
 1161              		.cfi_def_cfa_register 13
 1162              		@ sp needed
 1163 0512 80BC     		pop	{r7}
 1164              	.LCFI75:
 1165              		.cfi_restore 7
 1166              		.cfi_def_cfa_offset 0
ARM GAS  G:\Users\Jaxb\AppData\Local\Temp\ccWNHqDV.s 			page 32


 1167 0514 7047     		bx	lr
 1168              		.cfi_endproc
 1169              	.LFE41:
 1170              		.size	USART_LINCmd, .-USART_LINCmd
 1171              		.align	1
 1172              		.global	USART_SendData
 1173              		.syntax unified
 1174              		.thumb
 1175              		.thumb_func
 1176              		.fpu softvfp
 1177              		.type	USART_SendData, %function
 1178              	USART_SendData:
 1179              	.LFB42:
 583:../../source/src/FWlib/src/stm32f10x_usart.c **** 
 584:../../source/src/FWlib/src/stm32f10x_usart.c **** /**
 585:../../source/src/FWlib/src/stm32f10x_usart.c ****   * @brief  Transmits single data through the USARTx peripheral.
 586:../../source/src/FWlib/src/stm32f10x_usart.c ****   * @param  USARTx: Select the USART or the UART peripheral. 
 587:../../source/src/FWlib/src/stm32f10x_usart.c ****   *   This parameter can be one of the following values:
 588:../../source/src/FWlib/src/stm32f10x_usart.c ****   *   USART1, USART2, USART3, UART4 or UART5.
 589:../../source/src/FWlib/src/stm32f10x_usart.c ****   * @param  Data: the data to transmit.
 590:../../source/src/FWlib/src/stm32f10x_usart.c ****   * @retval None
 591:../../source/src/FWlib/src/stm32f10x_usart.c ****   */
 592:../../source/src/FWlib/src/stm32f10x_usart.c **** void USART_SendData(USART_TypeDef* USARTx, uint16_t Data)
 593:../../source/src/FWlib/src/stm32f10x_usart.c **** {
 1180              		.loc 1 593 0
 1181              		.cfi_startproc
 1182              		@ args = 0, pretend = 0, frame = 8
 1183              		@ frame_needed = 1, uses_anonymous_args = 0
 1184              		@ link register save eliminated.
 1185 0516 80B4     		push	{r7}
 1186              	.LCFI76:
 1187              		.cfi_def_cfa_offset 4
 1188              		.cfi_offset 7, -4
 1189 0518 83B0     		sub	sp, sp, #12
 1190              	.LCFI77:
 1191              		.cfi_def_cfa_offset 16
 1192 051a 00AF     		add	r7, sp, #0
 1193              	.LCFI78:
 1194              		.cfi_def_cfa_register 7
 1195 051c 7860     		str	r0, [r7, #4]
 1196 051e 0B46     		mov	r3, r1
 1197 0520 7B80     		strh	r3, [r7, #2]	@ movhi
 594:../../source/src/FWlib/src/stm32f10x_usart.c ****   /* Check the parameters */
 595:../../source/src/FWlib/src/stm32f10x_usart.c ****   assert_param(IS_USART_ALL_PERIPH(USARTx));
 596:../../source/src/FWlib/src/stm32f10x_usart.c ****   assert_param(IS_USART_DATA(Data)); 
 597:../../source/src/FWlib/src/stm32f10x_usart.c ****     
 598:../../source/src/FWlib/src/stm32f10x_usart.c ****   /* Transmit Data */
 599:../../source/src/FWlib/src/stm32f10x_usart.c ****   USARTx->DR = (Data & (uint16_t)0x01FF);
 1198              		.loc 1 599 0
 1199 0522 7B88     		ldrh	r3, [r7, #2]	@ movhi
 1200 0524 C3F30803 		ubfx	r3, r3, #0, #9
 1201 0528 9AB2     		uxth	r2, r3
 1202 052a 7B68     		ldr	r3, [r7, #4]
 1203 052c 9A80     		strh	r2, [r3, #4]	@ movhi
 600:../../source/src/FWlib/src/stm32f10x_usart.c **** }
 1204              		.loc 1 600 0
 1205 052e 00BF     		nop
ARM GAS  G:\Users\Jaxb\AppData\Local\Temp\ccWNHqDV.s 			page 33


 1206 0530 0C37     		adds	r7, r7, #12
 1207              	.LCFI79:
 1208              		.cfi_def_cfa_offset 4
 1209 0532 BD46     		mov	sp, r7
 1210              	.LCFI80:
 1211              		.cfi_def_cfa_register 13
 1212              		@ sp needed
 1213 0534 80BC     		pop	{r7}
 1214              	.LCFI81:
 1215              		.cfi_restore 7
 1216              		.cfi_def_cfa_offset 0
 1217 0536 7047     		bx	lr
 1218              		.cfi_endproc
 1219              	.LFE42:
 1220              		.size	USART_SendData, .-USART_SendData
 1221              		.align	1
 1222              		.global	USART_ReceiveData
 1223              		.syntax unified
 1224              		.thumb
 1225              		.thumb_func
 1226              		.fpu softvfp
 1227              		.type	USART_ReceiveData, %function
 1228              	USART_ReceiveData:
 1229              	.LFB43:
 601:../../source/src/FWlib/src/stm32f10x_usart.c **** 
 602:../../source/src/FWlib/src/stm32f10x_usart.c **** /**
 603:../../source/src/FWlib/src/stm32f10x_usart.c ****   * @brief  Returns the most recent received data by the USARTx peripheral.
 604:../../source/src/FWlib/src/stm32f10x_usart.c ****   * @param  USARTx: Select the USART or the UART peripheral. 
 605:../../source/src/FWlib/src/stm32f10x_usart.c ****   *   This parameter can be one of the following values:
 606:../../source/src/FWlib/src/stm32f10x_usart.c ****   *   USART1, USART2, USART3, UART4 or UART5.
 607:../../source/src/FWlib/src/stm32f10x_usart.c ****   * @retval The received data.
 608:../../source/src/FWlib/src/stm32f10x_usart.c ****   */
 609:../../source/src/FWlib/src/stm32f10x_usart.c **** uint16_t USART_ReceiveData(USART_TypeDef* USARTx)
 610:../../source/src/FWlib/src/stm32f10x_usart.c **** {
 1230              		.loc 1 610 0
 1231              		.cfi_startproc
 1232              		@ args = 0, pretend = 0, frame = 8
 1233              		@ frame_needed = 1, uses_anonymous_args = 0
 1234              		@ link register save eliminated.
 1235 0538 80B4     		push	{r7}
 1236              	.LCFI82:
 1237              		.cfi_def_cfa_offset 4
 1238              		.cfi_offset 7, -4
 1239 053a 83B0     		sub	sp, sp, #12
 1240              	.LCFI83:
 1241              		.cfi_def_cfa_offset 16
 1242 053c 00AF     		add	r7, sp, #0
 1243              	.LCFI84:
 1244              		.cfi_def_cfa_register 7
 1245 053e 7860     		str	r0, [r7, #4]
 611:../../source/src/FWlib/src/stm32f10x_usart.c ****   /* Check the parameters */
 612:../../source/src/FWlib/src/stm32f10x_usart.c ****   assert_param(IS_USART_ALL_PERIPH(USARTx));
 613:../../source/src/FWlib/src/stm32f10x_usart.c ****   
 614:../../source/src/FWlib/src/stm32f10x_usart.c ****   /* Receive Data */
 615:../../source/src/FWlib/src/stm32f10x_usart.c ****   return (uint16_t)(USARTx->DR & (uint16_t)0x01FF);
 1246              		.loc 1 615 0
 1247 0540 7B68     		ldr	r3, [r7, #4]
ARM GAS  G:\Users\Jaxb\AppData\Local\Temp\ccWNHqDV.s 			page 34


 1248 0542 9B88     		ldrh	r3, [r3, #4]	@ movhi
 1249 0544 9BB2     		uxth	r3, r3
 1250 0546 C3F30803 		ubfx	r3, r3, #0, #9
 1251 054a 9BB2     		uxth	r3, r3
 616:../../source/src/FWlib/src/stm32f10x_usart.c **** }
 1252              		.loc 1 616 0
 1253 054c 1846     		mov	r0, r3
 1254 054e 0C37     		adds	r7, r7, #12
 1255              	.LCFI85:
 1256              		.cfi_def_cfa_offset 4
 1257 0550 BD46     		mov	sp, r7
 1258              	.LCFI86:
 1259              		.cfi_def_cfa_register 13
 1260              		@ sp needed
 1261 0552 80BC     		pop	{r7}
 1262              	.LCFI87:
 1263              		.cfi_restore 7
 1264              		.cfi_def_cfa_offset 0
 1265 0554 7047     		bx	lr
 1266              		.cfi_endproc
 1267              	.LFE43:
 1268              		.size	USART_ReceiveData, .-USART_ReceiveData
 1269              		.align	1
 1270              		.global	USART_SendBreak
 1271              		.syntax unified
 1272              		.thumb
 1273              		.thumb_func
 1274              		.fpu softvfp
 1275              		.type	USART_SendBreak, %function
 1276              	USART_SendBreak:
 1277              	.LFB44:
 617:../../source/src/FWlib/src/stm32f10x_usart.c **** 
 618:../../source/src/FWlib/src/stm32f10x_usart.c **** /**
 619:../../source/src/FWlib/src/stm32f10x_usart.c ****   * @brief  Transmits break characters.
 620:../../source/src/FWlib/src/stm32f10x_usart.c ****   * @param  USARTx: Select the USART or the UART peripheral. 
 621:../../source/src/FWlib/src/stm32f10x_usart.c ****   *   This parameter can be one of the following values:
 622:../../source/src/FWlib/src/stm32f10x_usart.c ****   *   USART1, USART2, USART3, UART4 or UART5.
 623:../../source/src/FWlib/src/stm32f10x_usart.c ****   * @retval None
 624:../../source/src/FWlib/src/stm32f10x_usart.c ****   */
 625:../../source/src/FWlib/src/stm32f10x_usart.c **** void USART_SendBreak(USART_TypeDef* USARTx)
 626:../../source/src/FWlib/src/stm32f10x_usart.c **** {
 1278              		.loc 1 626 0
 1279              		.cfi_startproc
 1280              		@ args = 0, pretend = 0, frame = 8
 1281              		@ frame_needed = 1, uses_anonymous_args = 0
 1282              		@ link register save eliminated.
 1283 0556 80B4     		push	{r7}
 1284              	.LCFI88:
 1285              		.cfi_def_cfa_offset 4
 1286              		.cfi_offset 7, -4
 1287 0558 83B0     		sub	sp, sp, #12
 1288              	.LCFI89:
 1289              		.cfi_def_cfa_offset 16
 1290 055a 00AF     		add	r7, sp, #0
 1291              	.LCFI90:
 1292              		.cfi_def_cfa_register 7
 1293 055c 7860     		str	r0, [r7, #4]
ARM GAS  G:\Users\Jaxb\AppData\Local\Temp\ccWNHqDV.s 			page 35


 627:../../source/src/FWlib/src/stm32f10x_usart.c ****   /* Check the parameters */
 628:../../source/src/FWlib/src/stm32f10x_usart.c ****   assert_param(IS_USART_ALL_PERIPH(USARTx));
 629:../../source/src/FWlib/src/stm32f10x_usart.c ****   
 630:../../source/src/FWlib/src/stm32f10x_usart.c ****   /* Send break characters */
 631:../../source/src/FWlib/src/stm32f10x_usart.c ****   USARTx->CR1 |= CR1_SBK_Set;
 1294              		.loc 1 631 0
 1295 055e 7B68     		ldr	r3, [r7, #4]
 1296 0560 9B89     		ldrh	r3, [r3, #12]	@ movhi
 1297 0562 9BB2     		uxth	r3, r3
 1298 0564 43F00103 		orr	r3, r3, #1
 1299 0568 9AB2     		uxth	r2, r3
 1300 056a 7B68     		ldr	r3, [r7, #4]
 1301 056c 9A81     		strh	r2, [r3, #12]	@ movhi
 632:../../source/src/FWlib/src/stm32f10x_usart.c **** }
 1302              		.loc 1 632 0
 1303 056e 00BF     		nop
 1304 0570 0C37     		adds	r7, r7, #12
 1305              	.LCFI91:
 1306              		.cfi_def_cfa_offset 4
 1307 0572 BD46     		mov	sp, r7
 1308              	.LCFI92:
 1309              		.cfi_def_cfa_register 13
 1310              		@ sp needed
 1311 0574 80BC     		pop	{r7}
 1312              	.LCFI93:
 1313              		.cfi_restore 7
 1314              		.cfi_def_cfa_offset 0
 1315 0576 7047     		bx	lr
 1316              		.cfi_endproc
 1317              	.LFE44:
 1318              		.size	USART_SendBreak, .-USART_SendBreak
 1319              		.align	1
 1320              		.global	USART_SetGuardTime
 1321              		.syntax unified
 1322              		.thumb
 1323              		.thumb_func
 1324              		.fpu softvfp
 1325              		.type	USART_SetGuardTime, %function
 1326              	USART_SetGuardTime:
 1327              	.LFB45:
 633:../../source/src/FWlib/src/stm32f10x_usart.c **** 
 634:../../source/src/FWlib/src/stm32f10x_usart.c **** /**
 635:../../source/src/FWlib/src/stm32f10x_usart.c ****   * @brief  Sets the specified USART guard time.
 636:../../source/src/FWlib/src/stm32f10x_usart.c ****   * @param  USARTx: where x can be 1, 2 or 3 to select the USART peripheral.
 637:../../source/src/FWlib/src/stm32f10x_usart.c ****   * @param  USART_GuardTime: specifies the guard time.
 638:../../source/src/FWlib/src/stm32f10x_usart.c ****   * @note The guard time bits are not available for UART4 and UART5.   
 639:../../source/src/FWlib/src/stm32f10x_usart.c ****   * @retval None
 640:../../source/src/FWlib/src/stm32f10x_usart.c ****   */
 641:../../source/src/FWlib/src/stm32f10x_usart.c **** void USART_SetGuardTime(USART_TypeDef* USARTx, uint8_t USART_GuardTime)
 642:../../source/src/FWlib/src/stm32f10x_usart.c **** {    
 1328              		.loc 1 642 0
 1329              		.cfi_startproc
 1330              		@ args = 0, pretend = 0, frame = 8
 1331              		@ frame_needed = 1, uses_anonymous_args = 0
 1332              		@ link register save eliminated.
 1333 0578 80B4     		push	{r7}
 1334              	.LCFI94:
ARM GAS  G:\Users\Jaxb\AppData\Local\Temp\ccWNHqDV.s 			page 36


 1335              		.cfi_def_cfa_offset 4
 1336              		.cfi_offset 7, -4
 1337 057a 83B0     		sub	sp, sp, #12
 1338              	.LCFI95:
 1339              		.cfi_def_cfa_offset 16
 1340 057c 00AF     		add	r7, sp, #0
 1341              	.LCFI96:
 1342              		.cfi_def_cfa_register 7
 1343 057e 7860     		str	r0, [r7, #4]
 1344 0580 0B46     		mov	r3, r1
 1345 0582 FB70     		strb	r3, [r7, #3]
 643:../../source/src/FWlib/src/stm32f10x_usart.c ****   /* Check the parameters */
 644:../../source/src/FWlib/src/stm32f10x_usart.c ****   assert_param(IS_USART_123_PERIPH(USARTx));
 645:../../source/src/FWlib/src/stm32f10x_usart.c ****   
 646:../../source/src/FWlib/src/stm32f10x_usart.c ****   /* Clear the USART Guard time */
 647:../../source/src/FWlib/src/stm32f10x_usart.c ****   USARTx->GTPR &= GTPR_LSB_Mask;
 1346              		.loc 1 647 0
 1347 0584 7B68     		ldr	r3, [r7, #4]
 1348 0586 1B8B     		ldrh	r3, [r3, #24]	@ movhi
 1349 0588 9BB2     		uxth	r3, r3
 1350 058a DBB2     		uxtb	r3, r3
 1351 058c 9AB2     		uxth	r2, r3
 1352 058e 7B68     		ldr	r3, [r7, #4]
 1353 0590 1A83     		strh	r2, [r3, #24]	@ movhi
 648:../../source/src/FWlib/src/stm32f10x_usart.c ****   /* Set the USART guard time */
 649:../../source/src/FWlib/src/stm32f10x_usart.c ****   USARTx->GTPR |= (uint16_t)((uint16_t)USART_GuardTime << 0x08);
 1354              		.loc 1 649 0
 1355 0592 7B68     		ldr	r3, [r7, #4]
 1356 0594 1B8B     		ldrh	r3, [r3, #24]	@ movhi
 1357 0596 9AB2     		uxth	r2, r3
 1358 0598 FB78     		ldrb	r3, [r7, #3]	@ zero_extendqisi2
 1359 059a 9BB2     		uxth	r3, r3
 1360 059c 1B02     		lsls	r3, r3, #8
 1361 059e 9BB2     		uxth	r3, r3
 1362 05a0 1343     		orrs	r3, r3, r2
 1363 05a2 9AB2     		uxth	r2, r3
 1364 05a4 7B68     		ldr	r3, [r7, #4]
 1365 05a6 1A83     		strh	r2, [r3, #24]	@ movhi
 650:../../source/src/FWlib/src/stm32f10x_usart.c **** }
 1366              		.loc 1 650 0
 1367 05a8 00BF     		nop
 1368 05aa 0C37     		adds	r7, r7, #12
 1369              	.LCFI97:
 1370              		.cfi_def_cfa_offset 4
 1371 05ac BD46     		mov	sp, r7
 1372              	.LCFI98:
 1373              		.cfi_def_cfa_register 13
 1374              		@ sp needed
 1375 05ae 80BC     		pop	{r7}
 1376              	.LCFI99:
 1377              		.cfi_restore 7
 1378              		.cfi_def_cfa_offset 0
 1379 05b0 7047     		bx	lr
 1380              		.cfi_endproc
 1381              	.LFE45:
 1382              		.size	USART_SetGuardTime, .-USART_SetGuardTime
 1383              		.align	1
ARM GAS  G:\Users\Jaxb\AppData\Local\Temp\ccWNHqDV.s 			page 37


 1384              		.global	USART_SetPrescaler
 1385              		.syntax unified
 1386              		.thumb
 1387              		.thumb_func
 1388              		.fpu softvfp
 1389              		.type	USART_SetPrescaler, %function
 1390              	USART_SetPrescaler:
 1391              	.LFB46:
 651:../../source/src/FWlib/src/stm32f10x_usart.c **** 
 652:../../source/src/FWlib/src/stm32f10x_usart.c **** /**
 653:../../source/src/FWlib/src/stm32f10x_usart.c ****   * @brief  Sets the system clock prescaler.
 654:../../source/src/FWlib/src/stm32f10x_usart.c ****   * @param  USARTx: Select the USART or the UART peripheral. 
 655:../../source/src/FWlib/src/stm32f10x_usart.c ****   *   This parameter can be one of the following values:
 656:../../source/src/FWlib/src/stm32f10x_usart.c ****   *   USART1, USART2, USART3, UART4 or UART5.
 657:../../source/src/FWlib/src/stm32f10x_usart.c ****   * @param  USART_Prescaler: specifies the prescaler clock.  
 658:../../source/src/FWlib/src/stm32f10x_usart.c ****   * @note   The function is used for IrDA mode with UART4 and UART5.
 659:../../source/src/FWlib/src/stm32f10x_usart.c ****   * @retval None
 660:../../source/src/FWlib/src/stm32f10x_usart.c ****   */
 661:../../source/src/FWlib/src/stm32f10x_usart.c **** void USART_SetPrescaler(USART_TypeDef* USARTx, uint8_t USART_Prescaler)
 662:../../source/src/FWlib/src/stm32f10x_usart.c **** { 
 1392              		.loc 1 662 0
 1393              		.cfi_startproc
 1394              		@ args = 0, pretend = 0, frame = 8
 1395              		@ frame_needed = 1, uses_anonymous_args = 0
 1396              		@ link register save eliminated.
 1397 05b2 80B4     		push	{r7}
 1398              	.LCFI100:
 1399              		.cfi_def_cfa_offset 4
 1400              		.cfi_offset 7, -4
 1401 05b4 83B0     		sub	sp, sp, #12
 1402              	.LCFI101:
 1403              		.cfi_def_cfa_offset 16
 1404 05b6 00AF     		add	r7, sp, #0
 1405              	.LCFI102:
 1406              		.cfi_def_cfa_register 7
 1407 05b8 7860     		str	r0, [r7, #4]
 1408 05ba 0B46     		mov	r3, r1
 1409 05bc FB70     		strb	r3, [r7, #3]
 663:../../source/src/FWlib/src/stm32f10x_usart.c ****   /* Check the parameters */
 664:../../source/src/FWlib/src/stm32f10x_usart.c ****   assert_param(IS_USART_ALL_PERIPH(USARTx));
 665:../../source/src/FWlib/src/stm32f10x_usart.c ****   
 666:../../source/src/FWlib/src/stm32f10x_usart.c ****   /* Clear the USART prescaler */
 667:../../source/src/FWlib/src/stm32f10x_usart.c ****   USARTx->GTPR &= GTPR_MSB_Mask;
 1410              		.loc 1 667 0
 1411 05be 7B68     		ldr	r3, [r7, #4]
 1412 05c0 1B8B     		ldrh	r3, [r3, #24]	@ movhi
 1413 05c2 9BB2     		uxth	r3, r3
 1414 05c4 23F0FF03 		bic	r3, r3, #255
 1415 05c8 9AB2     		uxth	r2, r3
 1416 05ca 7B68     		ldr	r3, [r7, #4]
 1417 05cc 1A83     		strh	r2, [r3, #24]	@ movhi
 668:../../source/src/FWlib/src/stm32f10x_usart.c ****   /* Set the USART prescaler */
 669:../../source/src/FWlib/src/stm32f10x_usart.c ****   USARTx->GTPR |= USART_Prescaler;
 1418              		.loc 1 669 0
 1419 05ce 7B68     		ldr	r3, [r7, #4]
 1420 05d0 1B8B     		ldrh	r3, [r3, #24]	@ movhi
 1421 05d2 9AB2     		uxth	r2, r3
ARM GAS  G:\Users\Jaxb\AppData\Local\Temp\ccWNHqDV.s 			page 38


 1422 05d4 FB78     		ldrb	r3, [r7, #3]	@ zero_extendqisi2
 1423 05d6 9BB2     		uxth	r3, r3
 1424 05d8 1343     		orrs	r3, r3, r2
 1425 05da 9AB2     		uxth	r2, r3
 1426 05dc 7B68     		ldr	r3, [r7, #4]
 1427 05de 1A83     		strh	r2, [r3, #24]	@ movhi
 670:../../source/src/FWlib/src/stm32f10x_usart.c **** }
 1428              		.loc 1 670 0
 1429 05e0 00BF     		nop
 1430 05e2 0C37     		adds	r7, r7, #12
 1431              	.LCFI103:
 1432              		.cfi_def_cfa_offset 4
 1433 05e4 BD46     		mov	sp, r7
 1434              	.LCFI104:
 1435              		.cfi_def_cfa_register 13
 1436              		@ sp needed
 1437 05e6 80BC     		pop	{r7}
 1438              	.LCFI105:
 1439              		.cfi_restore 7
 1440              		.cfi_def_cfa_offset 0
 1441 05e8 7047     		bx	lr
 1442              		.cfi_endproc
 1443              	.LFE46:
 1444              		.size	USART_SetPrescaler, .-USART_SetPrescaler
 1445              		.align	1
 1446              		.global	USART_SmartCardCmd
 1447              		.syntax unified
 1448              		.thumb
 1449              		.thumb_func
 1450              		.fpu softvfp
 1451              		.type	USART_SmartCardCmd, %function
 1452              	USART_SmartCardCmd:
 1453              	.LFB47:
 671:../../source/src/FWlib/src/stm32f10x_usart.c **** 
 672:../../source/src/FWlib/src/stm32f10x_usart.c **** /**
 673:../../source/src/FWlib/src/stm32f10x_usart.c ****   * @brief  Enables or disables the USARTs Smart Card mode.
 674:../../source/src/FWlib/src/stm32f10x_usart.c ****   * @param  USARTx: where x can be 1, 2 or 3 to select the USART peripheral.
 675:../../source/src/FWlib/src/stm32f10x_usart.c ****   * @param  NewState: new state of the Smart Card mode.
 676:../../source/src/FWlib/src/stm32f10x_usart.c ****   *   This parameter can be: ENABLE or DISABLE.     
 677:../../source/src/FWlib/src/stm32f10x_usart.c ****   * @note The Smart Card mode is not available for UART4 and UART5. 
 678:../../source/src/FWlib/src/stm32f10x_usart.c ****   * @retval None
 679:../../source/src/FWlib/src/stm32f10x_usart.c ****   */
 680:../../source/src/FWlib/src/stm32f10x_usart.c **** void USART_SmartCardCmd(USART_TypeDef* USARTx, FunctionalState NewState)
 681:../../source/src/FWlib/src/stm32f10x_usart.c **** {
 1454              		.loc 1 681 0
 1455              		.cfi_startproc
 1456              		@ args = 0, pretend = 0, frame = 8
 1457              		@ frame_needed = 1, uses_anonymous_args = 0
 1458              		@ link register save eliminated.
 1459 05ea 80B4     		push	{r7}
 1460              	.LCFI106:
 1461              		.cfi_def_cfa_offset 4
 1462              		.cfi_offset 7, -4
 1463 05ec 83B0     		sub	sp, sp, #12
 1464              	.LCFI107:
 1465              		.cfi_def_cfa_offset 16
 1466 05ee 00AF     		add	r7, sp, #0
ARM GAS  G:\Users\Jaxb\AppData\Local\Temp\ccWNHqDV.s 			page 39


 1467              	.LCFI108:
 1468              		.cfi_def_cfa_register 7
 1469 05f0 7860     		str	r0, [r7, #4]
 1470 05f2 0B46     		mov	r3, r1
 1471 05f4 FB70     		strb	r3, [r7, #3]
 682:../../source/src/FWlib/src/stm32f10x_usart.c ****   /* Check the parameters */
 683:../../source/src/FWlib/src/stm32f10x_usart.c ****   assert_param(IS_USART_123_PERIPH(USARTx));
 684:../../source/src/FWlib/src/stm32f10x_usart.c ****   assert_param(IS_FUNCTIONAL_STATE(NewState));
 685:../../source/src/FWlib/src/stm32f10x_usart.c ****   if (NewState != DISABLE)
 1472              		.loc 1 685 0
 1473 05f6 FB78     		ldrb	r3, [r7, #3]	@ zero_extendqisi2
 1474 05f8 002B     		cmp	r3, #0
 1475 05fa 08D0     		beq	.L55
 686:../../source/src/FWlib/src/stm32f10x_usart.c ****   {
 687:../../source/src/FWlib/src/stm32f10x_usart.c ****     /* Enable the SC mode by setting the SCEN bit in the CR3 register */
 688:../../source/src/FWlib/src/stm32f10x_usart.c ****     USARTx->CR3 |= CR3_SCEN_Set;
 1476              		.loc 1 688 0
 1477 05fc 7B68     		ldr	r3, [r7, #4]
 1478 05fe 9B8A     		ldrh	r3, [r3, #20]	@ movhi
 1479 0600 9BB2     		uxth	r3, r3
 1480 0602 43F02003 		orr	r3, r3, #32
 1481 0606 9AB2     		uxth	r2, r3
 1482 0608 7B68     		ldr	r3, [r7, #4]
 1483 060a 9A82     		strh	r2, [r3, #20]	@ movhi
 689:../../source/src/FWlib/src/stm32f10x_usart.c ****   }
 690:../../source/src/FWlib/src/stm32f10x_usart.c ****   else
 691:../../source/src/FWlib/src/stm32f10x_usart.c ****   {
 692:../../source/src/FWlib/src/stm32f10x_usart.c ****     /* Disable the SC mode by clearing the SCEN bit in the CR3 register */
 693:../../source/src/FWlib/src/stm32f10x_usart.c ****     USARTx->CR3 &= CR3_SCEN_Reset;
 694:../../source/src/FWlib/src/stm32f10x_usart.c ****   }
 695:../../source/src/FWlib/src/stm32f10x_usart.c **** }
 1484              		.loc 1 695 0
 1485 060c 07E0     		b	.L57
 1486              	.L55:
 693:../../source/src/FWlib/src/stm32f10x_usart.c ****   }
 1487              		.loc 1 693 0
 1488 060e 7B68     		ldr	r3, [r7, #4]
 1489 0610 9B8A     		ldrh	r3, [r3, #20]	@ movhi
 1490 0612 9BB2     		uxth	r3, r3
 1491 0614 23F02003 		bic	r3, r3, #32
 1492 0618 9AB2     		uxth	r2, r3
 1493 061a 7B68     		ldr	r3, [r7, #4]
 1494 061c 9A82     		strh	r2, [r3, #20]	@ movhi
 1495              	.L57:
 1496              		.loc 1 695 0
 1497 061e 00BF     		nop
 1498 0620 0C37     		adds	r7, r7, #12
 1499              	.LCFI109:
 1500              		.cfi_def_cfa_offset 4
 1501 0622 BD46     		mov	sp, r7
 1502              	.LCFI110:
 1503              		.cfi_def_cfa_register 13
 1504              		@ sp needed
 1505 0624 80BC     		pop	{r7}
 1506              	.LCFI111:
 1507              		.cfi_restore 7
 1508              		.cfi_def_cfa_offset 0
ARM GAS  G:\Users\Jaxb\AppData\Local\Temp\ccWNHqDV.s 			page 40


 1509 0626 7047     		bx	lr
 1510              		.cfi_endproc
 1511              	.LFE47:
 1512              		.size	USART_SmartCardCmd, .-USART_SmartCardCmd
 1513              		.align	1
 1514              		.global	USART_SmartCardNACKCmd
 1515              		.syntax unified
 1516              		.thumb
 1517              		.thumb_func
 1518              		.fpu softvfp
 1519              		.type	USART_SmartCardNACKCmd, %function
 1520              	USART_SmartCardNACKCmd:
 1521              	.LFB48:
 696:../../source/src/FWlib/src/stm32f10x_usart.c **** 
 697:../../source/src/FWlib/src/stm32f10x_usart.c **** /**
 698:../../source/src/FWlib/src/stm32f10x_usart.c ****   * @brief  Enables or disables NACK transmission.
 699:../../source/src/FWlib/src/stm32f10x_usart.c ****   * @param  USARTx: where x can be 1, 2 or 3 to select the USART peripheral. 
 700:../../source/src/FWlib/src/stm32f10x_usart.c ****   * @param  NewState: new state of the NACK transmission.
 701:../../source/src/FWlib/src/stm32f10x_usart.c ****   *   This parameter can be: ENABLE or DISABLE.  
 702:../../source/src/FWlib/src/stm32f10x_usart.c ****   * @note The Smart Card mode is not available for UART4 and UART5.
 703:../../source/src/FWlib/src/stm32f10x_usart.c ****   * @retval None
 704:../../source/src/FWlib/src/stm32f10x_usart.c ****   */
 705:../../source/src/FWlib/src/stm32f10x_usart.c **** void USART_SmartCardNACKCmd(USART_TypeDef* USARTx, FunctionalState NewState)
 706:../../source/src/FWlib/src/stm32f10x_usart.c **** {
 1522              		.loc 1 706 0
 1523              		.cfi_startproc
 1524              		@ args = 0, pretend = 0, frame = 8
 1525              		@ frame_needed = 1, uses_anonymous_args = 0
 1526              		@ link register save eliminated.
 1527 0628 80B4     		push	{r7}
 1528              	.LCFI112:
 1529              		.cfi_def_cfa_offset 4
 1530              		.cfi_offset 7, -4
 1531 062a 83B0     		sub	sp, sp, #12
 1532              	.LCFI113:
 1533              		.cfi_def_cfa_offset 16
 1534 062c 00AF     		add	r7, sp, #0
 1535              	.LCFI114:
 1536              		.cfi_def_cfa_register 7
 1537 062e 7860     		str	r0, [r7, #4]
 1538 0630 0B46     		mov	r3, r1
 1539 0632 FB70     		strb	r3, [r7, #3]
 707:../../source/src/FWlib/src/stm32f10x_usart.c ****   /* Check the parameters */
 708:../../source/src/FWlib/src/stm32f10x_usart.c ****   assert_param(IS_USART_123_PERIPH(USARTx));  
 709:../../source/src/FWlib/src/stm32f10x_usart.c ****   assert_param(IS_FUNCTIONAL_STATE(NewState));
 710:../../source/src/FWlib/src/stm32f10x_usart.c ****   if (NewState != DISABLE)
 1540              		.loc 1 710 0
 1541 0634 FB78     		ldrb	r3, [r7, #3]	@ zero_extendqisi2
 1542 0636 002B     		cmp	r3, #0
 1543 0638 08D0     		beq	.L59
 711:../../source/src/FWlib/src/stm32f10x_usart.c ****   {
 712:../../source/src/FWlib/src/stm32f10x_usart.c ****     /* Enable the NACK transmission by setting the NACK bit in the CR3 register */
 713:../../source/src/FWlib/src/stm32f10x_usart.c ****     USARTx->CR3 |= CR3_NACK_Set;
 1544              		.loc 1 713 0
 1545 063a 7B68     		ldr	r3, [r7, #4]
 1546 063c 9B8A     		ldrh	r3, [r3, #20]	@ movhi
 1547 063e 9BB2     		uxth	r3, r3
ARM GAS  G:\Users\Jaxb\AppData\Local\Temp\ccWNHqDV.s 			page 41


 1548 0640 43F01003 		orr	r3, r3, #16
 1549 0644 9AB2     		uxth	r2, r3
 1550 0646 7B68     		ldr	r3, [r7, #4]
 1551 0648 9A82     		strh	r2, [r3, #20]	@ movhi
 714:../../source/src/FWlib/src/stm32f10x_usart.c ****   }
 715:../../source/src/FWlib/src/stm32f10x_usart.c ****   else
 716:../../source/src/FWlib/src/stm32f10x_usart.c ****   {
 717:../../source/src/FWlib/src/stm32f10x_usart.c ****     /* Disable the NACK transmission by clearing the NACK bit in the CR3 register */
 718:../../source/src/FWlib/src/stm32f10x_usart.c ****     USARTx->CR3 &= CR3_NACK_Reset;
 719:../../source/src/FWlib/src/stm32f10x_usart.c ****   }
 720:../../source/src/FWlib/src/stm32f10x_usart.c **** }
 1552              		.loc 1 720 0
 1553 064a 07E0     		b	.L61
 1554              	.L59:
 718:../../source/src/FWlib/src/stm32f10x_usart.c ****   }
 1555              		.loc 1 718 0
 1556 064c 7B68     		ldr	r3, [r7, #4]
 1557 064e 9B8A     		ldrh	r3, [r3, #20]	@ movhi
 1558 0650 9BB2     		uxth	r3, r3
 1559 0652 23F01003 		bic	r3, r3, #16
 1560 0656 9AB2     		uxth	r2, r3
 1561 0658 7B68     		ldr	r3, [r7, #4]
 1562 065a 9A82     		strh	r2, [r3, #20]	@ movhi
 1563              	.L61:
 1564              		.loc 1 720 0
 1565 065c 00BF     		nop
 1566 065e 0C37     		adds	r7, r7, #12
 1567              	.LCFI115:
 1568              		.cfi_def_cfa_offset 4
 1569 0660 BD46     		mov	sp, r7
 1570              	.LCFI116:
 1571              		.cfi_def_cfa_register 13
 1572              		@ sp needed
 1573 0662 80BC     		pop	{r7}
 1574              	.LCFI117:
 1575              		.cfi_restore 7
 1576              		.cfi_def_cfa_offset 0
 1577 0664 7047     		bx	lr
 1578              		.cfi_endproc
 1579              	.LFE48:
 1580              		.size	USART_SmartCardNACKCmd, .-USART_SmartCardNACKCmd
 1581              		.align	1
 1582              		.global	USART_HalfDuplexCmd
 1583              		.syntax unified
 1584              		.thumb
 1585              		.thumb_func
 1586              		.fpu softvfp
 1587              		.type	USART_HalfDuplexCmd, %function
 1588              	USART_HalfDuplexCmd:
 1589              	.LFB49:
 721:../../source/src/FWlib/src/stm32f10x_usart.c **** 
 722:../../source/src/FWlib/src/stm32f10x_usart.c **** /**
 723:../../source/src/FWlib/src/stm32f10x_usart.c ****   * @brief  Enables or disables the USARTs Half Duplex communication.
 724:../../source/src/FWlib/src/stm32f10x_usart.c ****   * @param  USARTx: Select the USART or the UART peripheral. 
 725:../../source/src/FWlib/src/stm32f10x_usart.c ****   *   This parameter can be one of the following values:
 726:../../source/src/FWlib/src/stm32f10x_usart.c ****   *   USART1, USART2, USART3, UART4 or UART5.
 727:../../source/src/FWlib/src/stm32f10x_usart.c ****   * @param  NewState: new state of the USART Communication.
ARM GAS  G:\Users\Jaxb\AppData\Local\Temp\ccWNHqDV.s 			page 42


 728:../../source/src/FWlib/src/stm32f10x_usart.c ****   *   This parameter can be: ENABLE or DISABLE.
 729:../../source/src/FWlib/src/stm32f10x_usart.c ****   * @retval None
 730:../../source/src/FWlib/src/stm32f10x_usart.c ****   */
 731:../../source/src/FWlib/src/stm32f10x_usart.c **** void USART_HalfDuplexCmd(USART_TypeDef* USARTx, FunctionalState NewState)
 732:../../source/src/FWlib/src/stm32f10x_usart.c **** {
 1590              		.loc 1 732 0
 1591              		.cfi_startproc
 1592              		@ args = 0, pretend = 0, frame = 8
 1593              		@ frame_needed = 1, uses_anonymous_args = 0
 1594              		@ link register save eliminated.
 1595 0666 80B4     		push	{r7}
 1596              	.LCFI118:
 1597              		.cfi_def_cfa_offset 4
 1598              		.cfi_offset 7, -4
 1599 0668 83B0     		sub	sp, sp, #12
 1600              	.LCFI119:
 1601              		.cfi_def_cfa_offset 16
 1602 066a 00AF     		add	r7, sp, #0
 1603              	.LCFI120:
 1604              		.cfi_def_cfa_register 7
 1605 066c 7860     		str	r0, [r7, #4]
 1606 066e 0B46     		mov	r3, r1
 1607 0670 FB70     		strb	r3, [r7, #3]
 733:../../source/src/FWlib/src/stm32f10x_usart.c ****   /* Check the parameters */
 734:../../source/src/FWlib/src/stm32f10x_usart.c ****   assert_param(IS_USART_ALL_PERIPH(USARTx));
 735:../../source/src/FWlib/src/stm32f10x_usart.c ****   assert_param(IS_FUNCTIONAL_STATE(NewState));
 736:../../source/src/FWlib/src/stm32f10x_usart.c ****   
 737:../../source/src/FWlib/src/stm32f10x_usart.c ****   if (NewState != DISABLE)
 1608              		.loc 1 737 0
 1609 0672 FB78     		ldrb	r3, [r7, #3]	@ zero_extendqisi2
 1610 0674 002B     		cmp	r3, #0
 1611 0676 08D0     		beq	.L63
 738:../../source/src/FWlib/src/stm32f10x_usart.c ****   {
 739:../../source/src/FWlib/src/stm32f10x_usart.c ****     /* Enable the Half-Duplex mode by setting the HDSEL bit in the CR3 register */
 740:../../source/src/FWlib/src/stm32f10x_usart.c ****     USARTx->CR3 |= CR3_HDSEL_Set;
 1612              		.loc 1 740 0
 1613 0678 7B68     		ldr	r3, [r7, #4]
 1614 067a 9B8A     		ldrh	r3, [r3, #20]	@ movhi
 1615 067c 9BB2     		uxth	r3, r3
 1616 067e 43F00803 		orr	r3, r3, #8
 1617 0682 9AB2     		uxth	r2, r3
 1618 0684 7B68     		ldr	r3, [r7, #4]
 1619 0686 9A82     		strh	r2, [r3, #20]	@ movhi
 741:../../source/src/FWlib/src/stm32f10x_usart.c ****   }
 742:../../source/src/FWlib/src/stm32f10x_usart.c ****   else
 743:../../source/src/FWlib/src/stm32f10x_usart.c ****   {
 744:../../source/src/FWlib/src/stm32f10x_usart.c ****     /* Disable the Half-Duplex mode by clearing the HDSEL bit in the CR3 register */
 745:../../source/src/FWlib/src/stm32f10x_usart.c ****     USARTx->CR3 &= CR3_HDSEL_Reset;
 746:../../source/src/FWlib/src/stm32f10x_usart.c ****   }
 747:../../source/src/FWlib/src/stm32f10x_usart.c **** }
 1620              		.loc 1 747 0
 1621 0688 07E0     		b	.L65
 1622              	.L63:
 745:../../source/src/FWlib/src/stm32f10x_usart.c ****   }
 1623              		.loc 1 745 0
 1624 068a 7B68     		ldr	r3, [r7, #4]
 1625 068c 9B8A     		ldrh	r3, [r3, #20]	@ movhi
ARM GAS  G:\Users\Jaxb\AppData\Local\Temp\ccWNHqDV.s 			page 43


 1626 068e 9BB2     		uxth	r3, r3
 1627 0690 23F00803 		bic	r3, r3, #8
 1628 0694 9AB2     		uxth	r2, r3
 1629 0696 7B68     		ldr	r3, [r7, #4]
 1630 0698 9A82     		strh	r2, [r3, #20]	@ movhi
 1631              	.L65:
 1632              		.loc 1 747 0
 1633 069a 00BF     		nop
 1634 069c 0C37     		adds	r7, r7, #12
 1635              	.LCFI121:
 1636              		.cfi_def_cfa_offset 4
 1637 069e BD46     		mov	sp, r7
 1638              	.LCFI122:
 1639              		.cfi_def_cfa_register 13
 1640              		@ sp needed
 1641 06a0 80BC     		pop	{r7}
 1642              	.LCFI123:
 1643              		.cfi_restore 7
 1644              		.cfi_def_cfa_offset 0
 1645 06a2 7047     		bx	lr
 1646              		.cfi_endproc
 1647              	.LFE49:
 1648              		.size	USART_HalfDuplexCmd, .-USART_HalfDuplexCmd
 1649              		.align	1
 1650              		.global	USART_OverSampling8Cmd
 1651              		.syntax unified
 1652              		.thumb
 1653              		.thumb_func
 1654              		.fpu softvfp
 1655              		.type	USART_OverSampling8Cmd, %function
 1656              	USART_OverSampling8Cmd:
 1657              	.LFB50:
 748:../../source/src/FWlib/src/stm32f10x_usart.c **** 
 749:../../source/src/FWlib/src/stm32f10x_usart.c **** 
 750:../../source/src/FWlib/src/stm32f10x_usart.c **** /**
 751:../../source/src/FWlib/src/stm32f10x_usart.c ****   * @brief  Enables or disables the USART's 8x oversampling mode.
 752:../../source/src/FWlib/src/stm32f10x_usart.c ****   * @param  USARTx: Select the USART or the UART peripheral.
 753:../../source/src/FWlib/src/stm32f10x_usart.c ****   *   This parameter can be one of the following values:
 754:../../source/src/FWlib/src/stm32f10x_usart.c ****   *   USART1, USART2, USART3, UART4 or UART5.
 755:../../source/src/FWlib/src/stm32f10x_usart.c ****   * @param  NewState: new state of the USART one bit sampling method.
 756:../../source/src/FWlib/src/stm32f10x_usart.c ****   *   This parameter can be: ENABLE or DISABLE.
 757:../../source/src/FWlib/src/stm32f10x_usart.c ****   * @note
 758:../../source/src/FWlib/src/stm32f10x_usart.c ****   *     This function has to be called before calling USART_Init()
 759:../../source/src/FWlib/src/stm32f10x_usart.c ****   *     function in order to have correct baudrate Divider value.   
 760:../../source/src/FWlib/src/stm32f10x_usart.c ****   * @retval None
 761:../../source/src/FWlib/src/stm32f10x_usart.c ****   */
 762:../../source/src/FWlib/src/stm32f10x_usart.c **** void USART_OverSampling8Cmd(USART_TypeDef* USARTx, FunctionalState NewState)
 763:../../source/src/FWlib/src/stm32f10x_usart.c **** {
 1658              		.loc 1 763 0
 1659              		.cfi_startproc
 1660              		@ args = 0, pretend = 0, frame = 8
 1661              		@ frame_needed = 1, uses_anonymous_args = 0
 1662              		@ link register save eliminated.
 1663 06a4 80B4     		push	{r7}
 1664              	.LCFI124:
 1665              		.cfi_def_cfa_offset 4
 1666              		.cfi_offset 7, -4
ARM GAS  G:\Users\Jaxb\AppData\Local\Temp\ccWNHqDV.s 			page 44


 1667 06a6 83B0     		sub	sp, sp, #12
 1668              	.LCFI125:
 1669              		.cfi_def_cfa_offset 16
 1670 06a8 00AF     		add	r7, sp, #0
 1671              	.LCFI126:
 1672              		.cfi_def_cfa_register 7
 1673 06aa 7860     		str	r0, [r7, #4]
 1674 06ac 0B46     		mov	r3, r1
 1675 06ae FB70     		strb	r3, [r7, #3]
 764:../../source/src/FWlib/src/stm32f10x_usart.c ****   /* Check the parameters */
 765:../../source/src/FWlib/src/stm32f10x_usart.c ****   assert_param(IS_USART_ALL_PERIPH(USARTx));
 766:../../source/src/FWlib/src/stm32f10x_usart.c ****   assert_param(IS_FUNCTIONAL_STATE(NewState));
 767:../../source/src/FWlib/src/stm32f10x_usart.c ****   
 768:../../source/src/FWlib/src/stm32f10x_usart.c ****   if (NewState != DISABLE)
 1676              		.loc 1 768 0
 1677 06b0 FB78     		ldrb	r3, [r7, #3]	@ zero_extendqisi2
 1678 06b2 002B     		cmp	r3, #0
 1679 06b4 0AD0     		beq	.L67
 769:../../source/src/FWlib/src/stm32f10x_usart.c ****   {
 770:../../source/src/FWlib/src/stm32f10x_usart.c ****     /* Enable the 8x Oversampling mode by setting the OVER8 bit in the CR1 register */
 771:../../source/src/FWlib/src/stm32f10x_usart.c ****     USARTx->CR1 |= CR1_OVER8_Set;
 1680              		.loc 1 771 0
 1681 06b6 7B68     		ldr	r3, [r7, #4]
 1682 06b8 9B89     		ldrh	r3, [r3, #12]	@ movhi
 1683 06ba 9BB2     		uxth	r3, r3
 1684 06bc 6FEA4343 		mvn	r3, r3, lsl #17
 1685 06c0 6FEA5343 		mvn	r3, r3, lsr #17
 1686 06c4 9AB2     		uxth	r2, r3
 1687 06c6 7B68     		ldr	r3, [r7, #4]
 1688 06c8 9A81     		strh	r2, [r3, #12]	@ movhi
 772:../../source/src/FWlib/src/stm32f10x_usart.c ****   }
 773:../../source/src/FWlib/src/stm32f10x_usart.c ****   else
 774:../../source/src/FWlib/src/stm32f10x_usart.c ****   {
 775:../../source/src/FWlib/src/stm32f10x_usart.c ****     /* Disable the 8x Oversampling mode by clearing the OVER8 bit in the CR1 register */
 776:../../source/src/FWlib/src/stm32f10x_usart.c ****     USARTx->CR1 &= CR1_OVER8_Reset;
 777:../../source/src/FWlib/src/stm32f10x_usart.c ****   }
 778:../../source/src/FWlib/src/stm32f10x_usart.c **** }
 1689              		.loc 1 778 0
 1690 06ca 07E0     		b	.L69
 1691              	.L67:
 776:../../source/src/FWlib/src/stm32f10x_usart.c ****   }
 1692              		.loc 1 776 0
 1693 06cc 7B68     		ldr	r3, [r7, #4]
 1694 06ce 9B89     		ldrh	r3, [r3, #12]	@ movhi
 1695 06d0 9BB2     		uxth	r3, r3
 1696 06d2 C3F30E03 		ubfx	r3, r3, #0, #15
 1697 06d6 9AB2     		uxth	r2, r3
 1698 06d8 7B68     		ldr	r3, [r7, #4]
 1699 06da 9A81     		strh	r2, [r3, #12]	@ movhi
 1700              	.L69:
 1701              		.loc 1 778 0
 1702 06dc 00BF     		nop
 1703 06de 0C37     		adds	r7, r7, #12
 1704              	.LCFI127:
 1705              		.cfi_def_cfa_offset 4
 1706 06e0 BD46     		mov	sp, r7
 1707              	.LCFI128:
ARM GAS  G:\Users\Jaxb\AppData\Local\Temp\ccWNHqDV.s 			page 45


 1708              		.cfi_def_cfa_register 13
 1709              		@ sp needed
 1710 06e2 80BC     		pop	{r7}
 1711              	.LCFI129:
 1712              		.cfi_restore 7
 1713              		.cfi_def_cfa_offset 0
 1714 06e4 7047     		bx	lr
 1715              		.cfi_endproc
 1716              	.LFE50:
 1717              		.size	USART_OverSampling8Cmd, .-USART_OverSampling8Cmd
 1718              		.align	1
 1719              		.global	USART_OneBitMethodCmd
 1720              		.syntax unified
 1721              		.thumb
 1722              		.thumb_func
 1723              		.fpu softvfp
 1724              		.type	USART_OneBitMethodCmd, %function
 1725              	USART_OneBitMethodCmd:
 1726              	.LFB51:
 779:../../source/src/FWlib/src/stm32f10x_usart.c **** 
 780:../../source/src/FWlib/src/stm32f10x_usart.c **** /**
 781:../../source/src/FWlib/src/stm32f10x_usart.c ****   * @brief  Enables or disables the USART's one bit sampling method.
 782:../../source/src/FWlib/src/stm32f10x_usart.c ****   * @param  USARTx: Select the USART or the UART peripheral.
 783:../../source/src/FWlib/src/stm32f10x_usart.c ****   *   This parameter can be one of the following values:
 784:../../source/src/FWlib/src/stm32f10x_usart.c ****   *   USART1, USART2, USART3, UART4 or UART5.
 785:../../source/src/FWlib/src/stm32f10x_usart.c ****   * @param  NewState: new state of the USART one bit sampling method.
 786:../../source/src/FWlib/src/stm32f10x_usart.c ****   *   This parameter can be: ENABLE or DISABLE.
 787:../../source/src/FWlib/src/stm32f10x_usart.c ****   * @retval None
 788:../../source/src/FWlib/src/stm32f10x_usart.c ****   */
 789:../../source/src/FWlib/src/stm32f10x_usart.c **** void USART_OneBitMethodCmd(USART_TypeDef* USARTx, FunctionalState NewState)
 790:../../source/src/FWlib/src/stm32f10x_usart.c **** {
 1727              		.loc 1 790 0
 1728              		.cfi_startproc
 1729              		@ args = 0, pretend = 0, frame = 8
 1730              		@ frame_needed = 1, uses_anonymous_args = 0
 1731              		@ link register save eliminated.
 1732 06e6 80B4     		push	{r7}
 1733              	.LCFI130:
 1734              		.cfi_def_cfa_offset 4
 1735              		.cfi_offset 7, -4
 1736 06e8 83B0     		sub	sp, sp, #12
 1737              	.LCFI131:
 1738              		.cfi_def_cfa_offset 16
 1739 06ea 00AF     		add	r7, sp, #0
 1740              	.LCFI132:
 1741              		.cfi_def_cfa_register 7
 1742 06ec 7860     		str	r0, [r7, #4]
 1743 06ee 0B46     		mov	r3, r1
 1744 06f0 FB70     		strb	r3, [r7, #3]
 791:../../source/src/FWlib/src/stm32f10x_usart.c ****   /* Check the parameters */
 792:../../source/src/FWlib/src/stm32f10x_usart.c ****   assert_param(IS_USART_ALL_PERIPH(USARTx));
 793:../../source/src/FWlib/src/stm32f10x_usart.c ****   assert_param(IS_FUNCTIONAL_STATE(NewState));
 794:../../source/src/FWlib/src/stm32f10x_usart.c ****   
 795:../../source/src/FWlib/src/stm32f10x_usart.c ****   if (NewState != DISABLE)
 1745              		.loc 1 795 0
 1746 06f2 FB78     		ldrb	r3, [r7, #3]	@ zero_extendqisi2
 1747 06f4 002B     		cmp	r3, #0
ARM GAS  G:\Users\Jaxb\AppData\Local\Temp\ccWNHqDV.s 			page 46


 1748 06f6 08D0     		beq	.L71
 796:../../source/src/FWlib/src/stm32f10x_usart.c ****   {
 797:../../source/src/FWlib/src/stm32f10x_usart.c ****     /* Enable the one bit method by setting the ONEBITE bit in the CR3 register */
 798:../../source/src/FWlib/src/stm32f10x_usart.c ****     USARTx->CR3 |= CR3_ONEBITE_Set;
 1749              		.loc 1 798 0
 1750 06f8 7B68     		ldr	r3, [r7, #4]
 1751 06fa 9B8A     		ldrh	r3, [r3, #20]	@ movhi
 1752 06fc 9BB2     		uxth	r3, r3
 1753 06fe 43F40063 		orr	r3, r3, #2048
 1754 0702 9AB2     		uxth	r2, r3
 1755 0704 7B68     		ldr	r3, [r7, #4]
 1756 0706 9A82     		strh	r2, [r3, #20]	@ movhi
 799:../../source/src/FWlib/src/stm32f10x_usart.c ****   }
 800:../../source/src/FWlib/src/stm32f10x_usart.c ****   else
 801:../../source/src/FWlib/src/stm32f10x_usart.c ****   {
 802:../../source/src/FWlib/src/stm32f10x_usart.c ****     /* Disable tthe one bit method by clearing the ONEBITE bit in the CR3 register */
 803:../../source/src/FWlib/src/stm32f10x_usart.c ****     USARTx->CR3 &= CR3_ONEBITE_Reset;
 804:../../source/src/FWlib/src/stm32f10x_usart.c ****   }
 805:../../source/src/FWlib/src/stm32f10x_usart.c **** }
 1757              		.loc 1 805 0
 1758 0708 07E0     		b	.L73
 1759              	.L71:
 803:../../source/src/FWlib/src/stm32f10x_usart.c ****   }
 1760              		.loc 1 803 0
 1761 070a 7B68     		ldr	r3, [r7, #4]
 1762 070c 9B8A     		ldrh	r3, [r3, #20]	@ movhi
 1763 070e 9BB2     		uxth	r3, r3
 1764 0710 23F40063 		bic	r3, r3, #2048
 1765 0714 9AB2     		uxth	r2, r3
 1766 0716 7B68     		ldr	r3, [r7, #4]
 1767 0718 9A82     		strh	r2, [r3, #20]	@ movhi
 1768              	.L73:
 1769              		.loc 1 805 0
 1770 071a 00BF     		nop
 1771 071c 0C37     		adds	r7, r7, #12
 1772              	.LCFI133:
 1773              		.cfi_def_cfa_offset 4
 1774 071e BD46     		mov	sp, r7
 1775              	.LCFI134:
 1776              		.cfi_def_cfa_register 13
 1777              		@ sp needed
 1778 0720 80BC     		pop	{r7}
 1779              	.LCFI135:
 1780              		.cfi_restore 7
 1781              		.cfi_def_cfa_offset 0
 1782 0722 7047     		bx	lr
 1783              		.cfi_endproc
 1784              	.LFE51:
 1785              		.size	USART_OneBitMethodCmd, .-USART_OneBitMethodCmd
 1786              		.align	1
 1787              		.global	USART_IrDAConfig
 1788              		.syntax unified
 1789              		.thumb
 1790              		.thumb_func
 1791              		.fpu softvfp
 1792              		.type	USART_IrDAConfig, %function
 1793              	USART_IrDAConfig:
ARM GAS  G:\Users\Jaxb\AppData\Local\Temp\ccWNHqDV.s 			page 47


 1794              	.LFB52:
 806:../../source/src/FWlib/src/stm32f10x_usart.c **** 
 807:../../source/src/FWlib/src/stm32f10x_usart.c **** /**
 808:../../source/src/FWlib/src/stm32f10x_usart.c ****   * @brief  Configures the USART's IrDA interface.
 809:../../source/src/FWlib/src/stm32f10x_usart.c ****   * @param  USARTx: Select the USART or the UART peripheral. 
 810:../../source/src/FWlib/src/stm32f10x_usart.c ****   *   This parameter can be one of the following values:
 811:../../source/src/FWlib/src/stm32f10x_usart.c ****   *   USART1, USART2, USART3, UART4 or UART5.
 812:../../source/src/FWlib/src/stm32f10x_usart.c ****   * @param  USART_IrDAMode: specifies the IrDA mode.
 813:../../source/src/FWlib/src/stm32f10x_usart.c ****   *   This parameter can be one of the following values:
 814:../../source/src/FWlib/src/stm32f10x_usart.c ****   *     @arg USART_IrDAMode_LowPower
 815:../../source/src/FWlib/src/stm32f10x_usart.c ****   *     @arg USART_IrDAMode_Normal
 816:../../source/src/FWlib/src/stm32f10x_usart.c ****   * @retval None
 817:../../source/src/FWlib/src/stm32f10x_usart.c ****   */
 818:../../source/src/FWlib/src/stm32f10x_usart.c **** void USART_IrDAConfig(USART_TypeDef* USARTx, uint16_t USART_IrDAMode)
 819:../../source/src/FWlib/src/stm32f10x_usart.c **** {
 1795              		.loc 1 819 0
 1796              		.cfi_startproc
 1797              		@ args = 0, pretend = 0, frame = 8
 1798              		@ frame_needed = 1, uses_anonymous_args = 0
 1799              		@ link register save eliminated.
 1800 0724 80B4     		push	{r7}
 1801              	.LCFI136:
 1802              		.cfi_def_cfa_offset 4
 1803              		.cfi_offset 7, -4
 1804 0726 83B0     		sub	sp, sp, #12
 1805              	.LCFI137:
 1806              		.cfi_def_cfa_offset 16
 1807 0728 00AF     		add	r7, sp, #0
 1808              	.LCFI138:
 1809              		.cfi_def_cfa_register 7
 1810 072a 7860     		str	r0, [r7, #4]
 1811 072c 0B46     		mov	r3, r1
 1812 072e 7B80     		strh	r3, [r7, #2]	@ movhi
 820:../../source/src/FWlib/src/stm32f10x_usart.c ****   /* Check the parameters */
 821:../../source/src/FWlib/src/stm32f10x_usart.c ****   assert_param(IS_USART_ALL_PERIPH(USARTx));
 822:../../source/src/FWlib/src/stm32f10x_usart.c ****   assert_param(IS_USART_IRDA_MODE(USART_IrDAMode));
 823:../../source/src/FWlib/src/stm32f10x_usart.c ****     
 824:../../source/src/FWlib/src/stm32f10x_usart.c ****   USARTx->CR3 &= CR3_IRLP_Mask;
 1813              		.loc 1 824 0
 1814 0730 7B68     		ldr	r3, [r7, #4]
 1815 0732 9B8A     		ldrh	r3, [r3, #20]	@ movhi
 1816 0734 9BB2     		uxth	r3, r3
 1817 0736 23F00403 		bic	r3, r3, #4
 1818 073a 9AB2     		uxth	r2, r3
 1819 073c 7B68     		ldr	r3, [r7, #4]
 1820 073e 9A82     		strh	r2, [r3, #20]	@ movhi
 825:../../source/src/FWlib/src/stm32f10x_usart.c ****   USARTx->CR3 |= USART_IrDAMode;
 1821              		.loc 1 825 0
 1822 0740 7B68     		ldr	r3, [r7, #4]
 1823 0742 9B8A     		ldrh	r3, [r3, #20]	@ movhi
 1824 0744 9AB2     		uxth	r2, r3
 1825 0746 7B88     		ldrh	r3, [r7, #2]	@ movhi
 1826 0748 1343     		orrs	r3, r3, r2
 1827 074a 9AB2     		uxth	r2, r3
 1828 074c 7B68     		ldr	r3, [r7, #4]
 1829 074e 9A82     		strh	r2, [r3, #20]	@ movhi
 826:../../source/src/FWlib/src/stm32f10x_usart.c **** }
ARM GAS  G:\Users\Jaxb\AppData\Local\Temp\ccWNHqDV.s 			page 48


 1830              		.loc 1 826 0
 1831 0750 00BF     		nop
 1832 0752 0C37     		adds	r7, r7, #12
 1833              	.LCFI139:
 1834              		.cfi_def_cfa_offset 4
 1835 0754 BD46     		mov	sp, r7
 1836              	.LCFI140:
 1837              		.cfi_def_cfa_register 13
 1838              		@ sp needed
 1839 0756 80BC     		pop	{r7}
 1840              	.LCFI141:
 1841              		.cfi_restore 7
 1842              		.cfi_def_cfa_offset 0
 1843 0758 7047     		bx	lr
 1844              		.cfi_endproc
 1845              	.LFE52:
 1846              		.size	USART_IrDAConfig, .-USART_IrDAConfig
 1847              		.align	1
 1848              		.global	USART_IrDACmd
 1849              		.syntax unified
 1850              		.thumb
 1851              		.thumb_func
 1852              		.fpu softvfp
 1853              		.type	USART_IrDACmd, %function
 1854              	USART_IrDACmd:
 1855              	.LFB53:
 827:../../source/src/FWlib/src/stm32f10x_usart.c **** 
 828:../../source/src/FWlib/src/stm32f10x_usart.c **** /**
 829:../../source/src/FWlib/src/stm32f10x_usart.c ****   * @brief  Enables or disables the USART's IrDA interface.
 830:../../source/src/FWlib/src/stm32f10x_usart.c ****   * @param  USARTx: Select the USART or the UART peripheral. 
 831:../../source/src/FWlib/src/stm32f10x_usart.c ****   *   This parameter can be one of the following values:
 832:../../source/src/FWlib/src/stm32f10x_usart.c ****   *   USART1, USART2, USART3, UART4 or UART5.
 833:../../source/src/FWlib/src/stm32f10x_usart.c ****   * @param  NewState: new state of the IrDA mode.
 834:../../source/src/FWlib/src/stm32f10x_usart.c ****   *   This parameter can be: ENABLE or DISABLE.
 835:../../source/src/FWlib/src/stm32f10x_usart.c ****   * @retval None
 836:../../source/src/FWlib/src/stm32f10x_usart.c ****   */
 837:../../source/src/FWlib/src/stm32f10x_usart.c **** void USART_IrDACmd(USART_TypeDef* USARTx, FunctionalState NewState)
 838:../../source/src/FWlib/src/stm32f10x_usart.c **** {
 1856              		.loc 1 838 0
 1857              		.cfi_startproc
 1858              		@ args = 0, pretend = 0, frame = 8
 1859              		@ frame_needed = 1, uses_anonymous_args = 0
 1860              		@ link register save eliminated.
 1861 075a 80B4     		push	{r7}
 1862              	.LCFI142:
 1863              		.cfi_def_cfa_offset 4
 1864              		.cfi_offset 7, -4
 1865 075c 83B0     		sub	sp, sp, #12
 1866              	.LCFI143:
 1867              		.cfi_def_cfa_offset 16
 1868 075e 00AF     		add	r7, sp, #0
 1869              	.LCFI144:
 1870              		.cfi_def_cfa_register 7
 1871 0760 7860     		str	r0, [r7, #4]
 1872 0762 0B46     		mov	r3, r1
 1873 0764 FB70     		strb	r3, [r7, #3]
 839:../../source/src/FWlib/src/stm32f10x_usart.c ****   /* Check the parameters */
ARM GAS  G:\Users\Jaxb\AppData\Local\Temp\ccWNHqDV.s 			page 49


 840:../../source/src/FWlib/src/stm32f10x_usart.c ****   assert_param(IS_USART_ALL_PERIPH(USARTx));
 841:../../source/src/FWlib/src/stm32f10x_usart.c ****   assert_param(IS_FUNCTIONAL_STATE(NewState));
 842:../../source/src/FWlib/src/stm32f10x_usart.c ****     
 843:../../source/src/FWlib/src/stm32f10x_usart.c ****   if (NewState != DISABLE)
 1874              		.loc 1 843 0
 1875 0766 FB78     		ldrb	r3, [r7, #3]	@ zero_extendqisi2
 1876 0768 002B     		cmp	r3, #0
 1877 076a 08D0     		beq	.L76
 844:../../source/src/FWlib/src/stm32f10x_usart.c ****   {
 845:../../source/src/FWlib/src/stm32f10x_usart.c ****     /* Enable the IrDA mode by setting the IREN bit in the CR3 register */
 846:../../source/src/FWlib/src/stm32f10x_usart.c ****     USARTx->CR3 |= CR3_IREN_Set;
 1878              		.loc 1 846 0
 1879 076c 7B68     		ldr	r3, [r7, #4]
 1880 076e 9B8A     		ldrh	r3, [r3, #20]	@ movhi
 1881 0770 9BB2     		uxth	r3, r3
 1882 0772 43F00203 		orr	r3, r3, #2
 1883 0776 9AB2     		uxth	r2, r3
 1884 0778 7B68     		ldr	r3, [r7, #4]
 1885 077a 9A82     		strh	r2, [r3, #20]	@ movhi
 847:../../source/src/FWlib/src/stm32f10x_usart.c ****   }
 848:../../source/src/FWlib/src/stm32f10x_usart.c ****   else
 849:../../source/src/FWlib/src/stm32f10x_usart.c ****   {
 850:../../source/src/FWlib/src/stm32f10x_usart.c ****     /* Disable the IrDA mode by clearing the IREN bit in the CR3 register */
 851:../../source/src/FWlib/src/stm32f10x_usart.c ****     USARTx->CR3 &= CR3_IREN_Reset;
 852:../../source/src/FWlib/src/stm32f10x_usart.c ****   }
 853:../../source/src/FWlib/src/stm32f10x_usart.c **** }
 1886              		.loc 1 853 0
 1887 077c 07E0     		b	.L78
 1888              	.L76:
 851:../../source/src/FWlib/src/stm32f10x_usart.c ****   }
 1889              		.loc 1 851 0
 1890 077e 7B68     		ldr	r3, [r7, #4]
 1891 0780 9B8A     		ldrh	r3, [r3, #20]	@ movhi
 1892 0782 9BB2     		uxth	r3, r3
 1893 0784 23F00203 		bic	r3, r3, #2
 1894 0788 9AB2     		uxth	r2, r3
 1895 078a 7B68     		ldr	r3, [r7, #4]
 1896 078c 9A82     		strh	r2, [r3, #20]	@ movhi
 1897              	.L78:
 1898              		.loc 1 853 0
 1899 078e 00BF     		nop
 1900 0790 0C37     		adds	r7, r7, #12
 1901              	.LCFI145:
 1902              		.cfi_def_cfa_offset 4
 1903 0792 BD46     		mov	sp, r7
 1904              	.LCFI146:
 1905              		.cfi_def_cfa_register 13
 1906              		@ sp needed
 1907 0794 80BC     		pop	{r7}
 1908              	.LCFI147:
 1909              		.cfi_restore 7
 1910              		.cfi_def_cfa_offset 0
 1911 0796 7047     		bx	lr
 1912              		.cfi_endproc
 1913              	.LFE53:
 1914              		.size	USART_IrDACmd, .-USART_IrDACmd
 1915              		.align	1
ARM GAS  G:\Users\Jaxb\AppData\Local\Temp\ccWNHqDV.s 			page 50


 1916              		.global	USART_GetFlagStatus
 1917              		.syntax unified
 1918              		.thumb
 1919              		.thumb_func
 1920              		.fpu softvfp
 1921              		.type	USART_GetFlagStatus, %function
 1922              	USART_GetFlagStatus:
 1923              	.LFB54:
 854:../../source/src/FWlib/src/stm32f10x_usart.c **** 
 855:../../source/src/FWlib/src/stm32f10x_usart.c **** /**
 856:../../source/src/FWlib/src/stm32f10x_usart.c ****   * @brief  Checks whether the specified USART flag is set or not.
 857:../../source/src/FWlib/src/stm32f10x_usart.c ****   * @param  USARTx: Select the USART or the UART peripheral. 
 858:../../source/src/FWlib/src/stm32f10x_usart.c ****   *   This parameter can be one of the following values:
 859:../../source/src/FWlib/src/stm32f10x_usart.c ****   *   USART1, USART2, USART3, UART4 or UART5.
 860:../../source/src/FWlib/src/stm32f10x_usart.c ****   * @param  USART_FLAG: specifies the flag to check.
 861:../../source/src/FWlib/src/stm32f10x_usart.c ****   *   This parameter can be one of the following values:
 862:../../source/src/FWlib/src/stm32f10x_usart.c ****   *     @arg USART_FLAG_CTS:  CTS Change flag (not available for UART4 and UART5)
 863:../../source/src/FWlib/src/stm32f10x_usart.c ****   *     @arg USART_FLAG_LBD:  LIN Break detection flag
 864:../../source/src/FWlib/src/stm32f10x_usart.c ****   *     @arg USART_FLAG_TXE:  Transmit data register empty flag
 865:../../source/src/FWlib/src/stm32f10x_usart.c ****   *     @arg USART_FLAG_TC:   Transmission Complete flag
 866:../../source/src/FWlib/src/stm32f10x_usart.c ****   *     @arg USART_FLAG_RXNE: Receive data register not empty flag
 867:../../source/src/FWlib/src/stm32f10x_usart.c ****   *     @arg USART_FLAG_IDLE: Idle Line detection flag
 868:../../source/src/FWlib/src/stm32f10x_usart.c ****   *     @arg USART_FLAG_ORE:  OverRun Error flag
 869:../../source/src/FWlib/src/stm32f10x_usart.c ****   *     @arg USART_FLAG_NE:   Noise Error flag
 870:../../source/src/FWlib/src/stm32f10x_usart.c ****   *     @arg USART_FLAG_FE:   Framing Error flag
 871:../../source/src/FWlib/src/stm32f10x_usart.c ****   *     @arg USART_FLAG_PE:   Parity Error flag
 872:../../source/src/FWlib/src/stm32f10x_usart.c ****   * @retval The new state of USART_FLAG (SET or RESET).
 873:../../source/src/FWlib/src/stm32f10x_usart.c ****   */
 874:../../source/src/FWlib/src/stm32f10x_usart.c **** FlagStatus USART_GetFlagStatus(USART_TypeDef* USARTx, uint16_t USART_FLAG)
 875:../../source/src/FWlib/src/stm32f10x_usart.c **** {
 1924              		.loc 1 875 0
 1925              		.cfi_startproc
 1926              		@ args = 0, pretend = 0, frame = 16
 1927              		@ frame_needed = 1, uses_anonymous_args = 0
 1928              		@ link register save eliminated.
 1929 0798 80B4     		push	{r7}
 1930              	.LCFI148:
 1931              		.cfi_def_cfa_offset 4
 1932              		.cfi_offset 7, -4
 1933 079a 85B0     		sub	sp, sp, #20
 1934              	.LCFI149:
 1935              		.cfi_def_cfa_offset 24
 1936 079c 00AF     		add	r7, sp, #0
 1937              	.LCFI150:
 1938              		.cfi_def_cfa_register 7
 1939 079e 7860     		str	r0, [r7, #4]
 1940 07a0 0B46     		mov	r3, r1
 1941 07a2 7B80     		strh	r3, [r7, #2]	@ movhi
 876:../../source/src/FWlib/src/stm32f10x_usart.c ****   FlagStatus bitstatus = RESET;
 1942              		.loc 1 876 0
 1943 07a4 0023     		movs	r3, #0
 1944 07a6 FB73     		strb	r3, [r7, #15]
 877:../../source/src/FWlib/src/stm32f10x_usart.c ****   /* Check the parameters */
 878:../../source/src/FWlib/src/stm32f10x_usart.c ****   assert_param(IS_USART_ALL_PERIPH(USARTx));
 879:../../source/src/FWlib/src/stm32f10x_usart.c ****   assert_param(IS_USART_FLAG(USART_FLAG));
 880:../../source/src/FWlib/src/stm32f10x_usart.c ****   /* The CTS flag is not available for UART4 and UART5 */
 881:../../source/src/FWlib/src/stm32f10x_usart.c ****   if (USART_FLAG == USART_FLAG_CTS)
ARM GAS  G:\Users\Jaxb\AppData\Local\Temp\ccWNHqDV.s 			page 51


 882:../../source/src/FWlib/src/stm32f10x_usart.c ****   {
 883:../../source/src/FWlib/src/stm32f10x_usart.c ****     assert_param(IS_USART_123_PERIPH(USARTx));
 884:../../source/src/FWlib/src/stm32f10x_usart.c ****   }  
 885:../../source/src/FWlib/src/stm32f10x_usart.c ****   
 886:../../source/src/FWlib/src/stm32f10x_usart.c ****   if ((USARTx->SR & USART_FLAG) != (uint16_t)RESET)
 1945              		.loc 1 886 0
 1946 07a8 7B68     		ldr	r3, [r7, #4]
 1947 07aa 1B88     		ldrh	r3, [r3]	@ movhi
 1948 07ac 9AB2     		uxth	r2, r3
 1949 07ae 7B88     		ldrh	r3, [r7, #2]	@ movhi
 1950 07b0 1340     		ands	r3, r3, r2
 1951 07b2 9BB2     		uxth	r3, r3
 1952 07b4 002B     		cmp	r3, #0
 1953 07b6 02D0     		beq	.L80
 887:../../source/src/FWlib/src/stm32f10x_usart.c ****   {
 888:../../source/src/FWlib/src/stm32f10x_usart.c ****     bitstatus = SET;
 1954              		.loc 1 888 0
 1955 07b8 0123     		movs	r3, #1
 1956 07ba FB73     		strb	r3, [r7, #15]
 1957 07bc 01E0     		b	.L81
 1958              	.L80:
 889:../../source/src/FWlib/src/stm32f10x_usart.c ****   }
 890:../../source/src/FWlib/src/stm32f10x_usart.c ****   else
 891:../../source/src/FWlib/src/stm32f10x_usart.c ****   {
 892:../../source/src/FWlib/src/stm32f10x_usart.c ****     bitstatus = RESET;
 1959              		.loc 1 892 0
 1960 07be 0023     		movs	r3, #0
 1961 07c0 FB73     		strb	r3, [r7, #15]
 1962              	.L81:
 893:../../source/src/FWlib/src/stm32f10x_usart.c ****   }
 894:../../source/src/FWlib/src/stm32f10x_usart.c ****   return bitstatus;
 1963              		.loc 1 894 0
 1964 07c2 FB7B     		ldrb	r3, [r7, #15]	@ zero_extendqisi2
 895:../../source/src/FWlib/src/stm32f10x_usart.c **** }
 1965              		.loc 1 895 0
 1966 07c4 1846     		mov	r0, r3
 1967 07c6 1437     		adds	r7, r7, #20
 1968              	.LCFI151:
 1969              		.cfi_def_cfa_offset 4
 1970 07c8 BD46     		mov	sp, r7
 1971              	.LCFI152:
 1972              		.cfi_def_cfa_register 13
 1973              		@ sp needed
 1974 07ca 80BC     		pop	{r7}
 1975              	.LCFI153:
 1976              		.cfi_restore 7
 1977              		.cfi_def_cfa_offset 0
 1978 07cc 7047     		bx	lr
 1979              		.cfi_endproc
 1980              	.LFE54:
 1981              		.size	USART_GetFlagStatus, .-USART_GetFlagStatus
 1982              		.align	1
 1983              		.global	USART_ClearFlag
 1984              		.syntax unified
 1985              		.thumb
 1986              		.thumb_func
 1987              		.fpu softvfp
ARM GAS  G:\Users\Jaxb\AppData\Local\Temp\ccWNHqDV.s 			page 52


 1988              		.type	USART_ClearFlag, %function
 1989              	USART_ClearFlag:
 1990              	.LFB55:
 896:../../source/src/FWlib/src/stm32f10x_usart.c **** 
 897:../../source/src/FWlib/src/stm32f10x_usart.c **** /**
 898:../../source/src/FWlib/src/stm32f10x_usart.c ****   * @brief  Clears the USARTx's pending flags.
 899:../../source/src/FWlib/src/stm32f10x_usart.c ****   * @param  USARTx: Select the USART or the UART peripheral. 
 900:../../source/src/FWlib/src/stm32f10x_usart.c ****   *   This parameter can be one of the following values:
 901:../../source/src/FWlib/src/stm32f10x_usart.c ****   *   USART1, USART2, USART3, UART4 or UART5.
 902:../../source/src/FWlib/src/stm32f10x_usart.c ****   * @param  USART_FLAG: specifies the flag to clear.
 903:../../source/src/FWlib/src/stm32f10x_usart.c ****   *   This parameter can be any combination of the following values:
 904:../../source/src/FWlib/src/stm32f10x_usart.c ****   *     @arg USART_FLAG_CTS:  CTS Change flag (not available for UART4 and UART5).
 905:../../source/src/FWlib/src/stm32f10x_usart.c ****   *     @arg USART_FLAG_LBD:  LIN Break detection flag.
 906:../../source/src/FWlib/src/stm32f10x_usart.c ****   *     @arg USART_FLAG_TC:   Transmission Complete flag.
 907:../../source/src/FWlib/src/stm32f10x_usart.c ****   *     @arg USART_FLAG_RXNE: Receive data register not empty flag.
 908:../../source/src/FWlib/src/stm32f10x_usart.c ****   *   
 909:../../source/src/FWlib/src/stm32f10x_usart.c ****   * @note
 910:../../source/src/FWlib/src/stm32f10x_usart.c ****   *   - PE (Parity error), FE (Framing error), NE (Noise error), ORE (OverRun 
 911:../../source/src/FWlib/src/stm32f10x_usart.c ****   *     error) and IDLE (Idle line detected) flags are cleared by software 
 912:../../source/src/FWlib/src/stm32f10x_usart.c ****   *     sequence: a read operation to USART_SR register (USART_GetFlagStatus()) 
 913:../../source/src/FWlib/src/stm32f10x_usart.c ****   *     followed by a read operation to USART_DR register (USART_ReceiveData()).
 914:../../source/src/FWlib/src/stm32f10x_usart.c ****   *   - RXNE flag can be also cleared by a read to the USART_DR register 
 915:../../source/src/FWlib/src/stm32f10x_usart.c ****   *     (USART_ReceiveData()).
 916:../../source/src/FWlib/src/stm32f10x_usart.c ****   *   - TC flag can be also cleared by software sequence: a read operation to 
 917:../../source/src/FWlib/src/stm32f10x_usart.c ****   *     USART_SR register (USART_GetFlagStatus()) followed by a write operation
 918:../../source/src/FWlib/src/stm32f10x_usart.c ****   *     to USART_DR register (USART_SendData()).
 919:../../source/src/FWlib/src/stm32f10x_usart.c ****   *   - TXE flag is cleared only by a write to the USART_DR register 
 920:../../source/src/FWlib/src/stm32f10x_usart.c ****   *     (USART_SendData()).
 921:../../source/src/FWlib/src/stm32f10x_usart.c ****   * @retval None
 922:../../source/src/FWlib/src/stm32f10x_usart.c ****   */
 923:../../source/src/FWlib/src/stm32f10x_usart.c **** void USART_ClearFlag(USART_TypeDef* USARTx, uint16_t USART_FLAG)
 924:../../source/src/FWlib/src/stm32f10x_usart.c **** {
 1991              		.loc 1 924 0
 1992              		.cfi_startproc
 1993              		@ args = 0, pretend = 0, frame = 8
 1994              		@ frame_needed = 1, uses_anonymous_args = 0
 1995              		@ link register save eliminated.
 1996 07ce 80B4     		push	{r7}
 1997              	.LCFI154:
 1998              		.cfi_def_cfa_offset 4
 1999              		.cfi_offset 7, -4
 2000 07d0 83B0     		sub	sp, sp, #12
 2001              	.LCFI155:
 2002              		.cfi_def_cfa_offset 16
 2003 07d2 00AF     		add	r7, sp, #0
 2004              	.LCFI156:
 2005              		.cfi_def_cfa_register 7
 2006 07d4 7860     		str	r0, [r7, #4]
 2007 07d6 0B46     		mov	r3, r1
 2008 07d8 7B80     		strh	r3, [r7, #2]	@ movhi
 925:../../source/src/FWlib/src/stm32f10x_usart.c ****   /* Check the parameters */
 926:../../source/src/FWlib/src/stm32f10x_usart.c ****   assert_param(IS_USART_ALL_PERIPH(USARTx));
 927:../../source/src/FWlib/src/stm32f10x_usart.c ****   assert_param(IS_USART_CLEAR_FLAG(USART_FLAG));
 928:../../source/src/FWlib/src/stm32f10x_usart.c ****   /* The CTS flag is not available for UART4 and UART5 */
 929:../../source/src/FWlib/src/stm32f10x_usart.c ****   if ((USART_FLAG & USART_FLAG_CTS) == USART_FLAG_CTS)
 930:../../source/src/FWlib/src/stm32f10x_usart.c ****   {
 931:../../source/src/FWlib/src/stm32f10x_usart.c ****     assert_param(IS_USART_123_PERIPH(USARTx));
ARM GAS  G:\Users\Jaxb\AppData\Local\Temp\ccWNHqDV.s 			page 53


 932:../../source/src/FWlib/src/stm32f10x_usart.c ****   } 
 933:../../source/src/FWlib/src/stm32f10x_usart.c ****    
 934:../../source/src/FWlib/src/stm32f10x_usart.c ****   USARTx->SR = (uint16_t)~USART_FLAG;
 2009              		.loc 1 934 0
 2010 07da 7B88     		ldrh	r3, [r7, #2]	@ movhi
 2011 07dc DB43     		mvns	r3, r3
 2012 07de 9AB2     		uxth	r2, r3
 2013 07e0 7B68     		ldr	r3, [r7, #4]
 2014 07e2 1A80     		strh	r2, [r3]	@ movhi
 935:../../source/src/FWlib/src/stm32f10x_usart.c **** }
 2015              		.loc 1 935 0
 2016 07e4 00BF     		nop
 2017 07e6 0C37     		adds	r7, r7, #12
 2018              	.LCFI157:
 2019              		.cfi_def_cfa_offset 4
 2020 07e8 BD46     		mov	sp, r7
 2021              	.LCFI158:
 2022              		.cfi_def_cfa_register 13
 2023              		@ sp needed
 2024 07ea 80BC     		pop	{r7}
 2025              	.LCFI159:
 2026              		.cfi_restore 7
 2027              		.cfi_def_cfa_offset 0
 2028 07ec 7047     		bx	lr
 2029              		.cfi_endproc
 2030              	.LFE55:
 2031              		.size	USART_ClearFlag, .-USART_ClearFlag
 2032              		.align	1
 2033              		.global	USART_GetITStatus
 2034              		.syntax unified
 2035              		.thumb
 2036              		.thumb_func
 2037              		.fpu softvfp
 2038              		.type	USART_GetITStatus, %function
 2039              	USART_GetITStatus:
 2040              	.LFB56:
 936:../../source/src/FWlib/src/stm32f10x_usart.c **** 
 937:../../source/src/FWlib/src/stm32f10x_usart.c **** /**
 938:../../source/src/FWlib/src/stm32f10x_usart.c ****   * @brief  Checks whether the specified USART interrupt has occurred or not.
 939:../../source/src/FWlib/src/stm32f10x_usart.c ****   * @param  USARTx: Select the USART or the UART peripheral. 
 940:../../source/src/FWlib/src/stm32f10x_usart.c ****   *   This parameter can be one of the following values:
 941:../../source/src/FWlib/src/stm32f10x_usart.c ****   *   USART1, USART2, USART3, UART4 or UART5.
 942:../../source/src/FWlib/src/stm32f10x_usart.c ****   * @param  USART_IT: specifies the USART interrupt source to check.
 943:../../source/src/FWlib/src/stm32f10x_usart.c ****   *   This parameter can be one of the following values:
 944:../../source/src/FWlib/src/stm32f10x_usart.c ****   *     @arg USART_IT_CTS:  CTS change interrupt (not available for UART4 and UART5)
 945:../../source/src/FWlib/src/stm32f10x_usart.c ****   *     @arg USART_IT_LBD:  LIN Break detection interrupt
 946:../../source/src/FWlib/src/stm32f10x_usart.c ****   *     @arg USART_IT_TXE:  Tansmit Data Register empty interrupt
 947:../../source/src/FWlib/src/stm32f10x_usart.c ****   *     @arg USART_IT_TC:   Transmission complete interrupt
 948:../../source/src/FWlib/src/stm32f10x_usart.c ****   *     @arg USART_IT_RXNE: Receive Data register not empty interrupt
 949:../../source/src/FWlib/src/stm32f10x_usart.c ****   *     @arg USART_IT_IDLE: Idle line detection interrupt
 950:../../source/src/FWlib/src/stm32f10x_usart.c ****   *     @arg USART_IT_ORE:  OverRun Error interrupt
 951:../../source/src/FWlib/src/stm32f10x_usart.c ****   *     @arg USART_IT_NE:   Noise Error interrupt
 952:../../source/src/FWlib/src/stm32f10x_usart.c ****   *     @arg USART_IT_FE:   Framing Error interrupt
 953:../../source/src/FWlib/src/stm32f10x_usart.c ****   *     @arg USART_IT_PE:   Parity Error interrupt
 954:../../source/src/FWlib/src/stm32f10x_usart.c ****   * @retval The new state of USART_IT (SET or RESET).
 955:../../source/src/FWlib/src/stm32f10x_usart.c ****   */
 956:../../source/src/FWlib/src/stm32f10x_usart.c **** ITStatus USART_GetITStatus(USART_TypeDef* USARTx, uint16_t USART_IT)
ARM GAS  G:\Users\Jaxb\AppData\Local\Temp\ccWNHqDV.s 			page 54


 957:../../source/src/FWlib/src/stm32f10x_usart.c **** {
 2041              		.loc 1 957 0
 2042              		.cfi_startproc
 2043              		@ args = 0, pretend = 0, frame = 24
 2044              		@ frame_needed = 1, uses_anonymous_args = 0
 2045              		@ link register save eliminated.
 2046 07ee 80B4     		push	{r7}
 2047              	.LCFI160:
 2048              		.cfi_def_cfa_offset 4
 2049              		.cfi_offset 7, -4
 2050 07f0 87B0     		sub	sp, sp, #28
 2051              	.LCFI161:
 2052              		.cfi_def_cfa_offset 32
 2053 07f2 00AF     		add	r7, sp, #0
 2054              	.LCFI162:
 2055              		.cfi_def_cfa_register 7
 2056 07f4 7860     		str	r0, [r7, #4]
 2057 07f6 0B46     		mov	r3, r1
 2058 07f8 7B80     		strh	r3, [r7, #2]	@ movhi
 958:../../source/src/FWlib/src/stm32f10x_usart.c ****   uint32_t bitpos = 0x00, itmask = 0x00, usartreg = 0x00;
 2059              		.loc 1 958 0
 2060 07fa 0023     		movs	r3, #0
 2061 07fc FB60     		str	r3, [r7, #12]
 2062 07fe 0023     		movs	r3, #0
 2063 0800 7B61     		str	r3, [r7, #20]
 2064 0802 0023     		movs	r3, #0
 2065 0804 BB60     		str	r3, [r7, #8]
 959:../../source/src/FWlib/src/stm32f10x_usart.c ****   ITStatus bitstatus = RESET;
 2066              		.loc 1 959 0
 2067 0806 0023     		movs	r3, #0
 2068 0808 FB74     		strb	r3, [r7, #19]
 960:../../source/src/FWlib/src/stm32f10x_usart.c ****   /* Check the parameters */
 961:../../source/src/FWlib/src/stm32f10x_usart.c ****   assert_param(IS_USART_ALL_PERIPH(USARTx));
 962:../../source/src/FWlib/src/stm32f10x_usart.c ****   assert_param(IS_USART_GET_IT(USART_IT));
 963:../../source/src/FWlib/src/stm32f10x_usart.c ****   /* The CTS interrupt is not available for UART4 and UART5 */ 
 964:../../source/src/FWlib/src/stm32f10x_usart.c ****   if (USART_IT == USART_IT_CTS)
 965:../../source/src/FWlib/src/stm32f10x_usart.c ****   {
 966:../../source/src/FWlib/src/stm32f10x_usart.c ****     assert_param(IS_USART_123_PERIPH(USARTx));
 967:../../source/src/FWlib/src/stm32f10x_usart.c ****   }   
 968:../../source/src/FWlib/src/stm32f10x_usart.c ****   
 969:../../source/src/FWlib/src/stm32f10x_usart.c ****   /* Get the USART register index */
 970:../../source/src/FWlib/src/stm32f10x_usart.c ****   usartreg = (((uint8_t)USART_IT) >> 0x05);
 2069              		.loc 1 970 0
 2070 080a 7B88     		ldrh	r3, [r7, #2]	@ movhi
 2071 080c DBB2     		uxtb	r3, r3
 2072 080e 5B09     		lsrs	r3, r3, #5
 2073 0810 DBB2     		uxtb	r3, r3
 2074 0812 BB60     		str	r3, [r7, #8]
 971:../../source/src/FWlib/src/stm32f10x_usart.c ****   /* Get the interrupt position */
 972:../../source/src/FWlib/src/stm32f10x_usart.c ****   itmask = USART_IT & IT_Mask;
 2075              		.loc 1 972 0
 2076 0814 7B88     		ldrh	r3, [r7, #2]
 2077 0816 03F01F03 		and	r3, r3, #31
 2078 081a 7B61     		str	r3, [r7, #20]
 973:../../source/src/FWlib/src/stm32f10x_usart.c ****   itmask = (uint32_t)0x01 << itmask;
 2079              		.loc 1 973 0
 2080 081c 0122     		movs	r2, #1
ARM GAS  G:\Users\Jaxb\AppData\Local\Temp\ccWNHqDV.s 			page 55


 2081 081e 7B69     		ldr	r3, [r7, #20]
 2082 0820 02FA03F3 		lsl	r3, r2, r3
 2083 0824 7B61     		str	r3, [r7, #20]
 974:../../source/src/FWlib/src/stm32f10x_usart.c ****   
 975:../../source/src/FWlib/src/stm32f10x_usart.c ****   if (usartreg == 0x01) /* The IT  is in CR1 register */
 2084              		.loc 1 975 0
 2085 0826 BB68     		ldr	r3, [r7, #8]
 2086 0828 012B     		cmp	r3, #1
 2087 082a 07D1     		bne	.L85
 976:../../source/src/FWlib/src/stm32f10x_usart.c ****   {
 977:../../source/src/FWlib/src/stm32f10x_usart.c ****     itmask &= USARTx->CR1;
 2088              		.loc 1 977 0
 2089 082c 7B68     		ldr	r3, [r7, #4]
 2090 082e 9B89     		ldrh	r3, [r3, #12]	@ movhi
 2091 0830 9BB2     		uxth	r3, r3
 2092 0832 1A46     		mov	r2, r3
 2093 0834 7B69     		ldr	r3, [r7, #20]
 2094 0836 1340     		ands	r3, r3, r2
 2095 0838 7B61     		str	r3, [r7, #20]
 2096 083a 11E0     		b	.L86
 2097              	.L85:
 978:../../source/src/FWlib/src/stm32f10x_usart.c ****   }
 979:../../source/src/FWlib/src/stm32f10x_usart.c ****   else if (usartreg == 0x02) /* The IT  is in CR2 register */
 2098              		.loc 1 979 0
 2099 083c BB68     		ldr	r3, [r7, #8]
 2100 083e 022B     		cmp	r3, #2
 2101 0840 07D1     		bne	.L87
 980:../../source/src/FWlib/src/stm32f10x_usart.c ****   {
 981:../../source/src/FWlib/src/stm32f10x_usart.c ****     itmask &= USARTx->CR2;
 2102              		.loc 1 981 0
 2103 0842 7B68     		ldr	r3, [r7, #4]
 2104 0844 1B8A     		ldrh	r3, [r3, #16]	@ movhi
 2105 0846 9BB2     		uxth	r3, r3
 2106 0848 1A46     		mov	r2, r3
 2107 084a 7B69     		ldr	r3, [r7, #20]
 2108 084c 1340     		ands	r3, r3, r2
 2109 084e 7B61     		str	r3, [r7, #20]
 2110 0850 06E0     		b	.L86
 2111              	.L87:
 982:../../source/src/FWlib/src/stm32f10x_usart.c ****   }
 983:../../source/src/FWlib/src/stm32f10x_usart.c ****   else /* The IT  is in CR3 register */
 984:../../source/src/FWlib/src/stm32f10x_usart.c ****   {
 985:../../source/src/FWlib/src/stm32f10x_usart.c ****     itmask &= USARTx->CR3;
 2112              		.loc 1 985 0
 2113 0852 7B68     		ldr	r3, [r7, #4]
 2114 0854 9B8A     		ldrh	r3, [r3, #20]	@ movhi
 2115 0856 9BB2     		uxth	r3, r3
 2116 0858 1A46     		mov	r2, r3
 2117 085a 7B69     		ldr	r3, [r7, #20]
 2118 085c 1340     		ands	r3, r3, r2
 2119 085e 7B61     		str	r3, [r7, #20]
 2120              	.L86:
 986:../../source/src/FWlib/src/stm32f10x_usart.c ****   }
 987:../../source/src/FWlib/src/stm32f10x_usart.c ****   
 988:../../source/src/FWlib/src/stm32f10x_usart.c ****   bitpos = USART_IT >> 0x08;
 2121              		.loc 1 988 0
 2122 0860 7B88     		ldrh	r3, [r7, #2]
ARM GAS  G:\Users\Jaxb\AppData\Local\Temp\ccWNHqDV.s 			page 56


 2123 0862 1B0A     		lsrs	r3, r3, #8
 2124 0864 9BB2     		uxth	r3, r3
 2125 0866 FB60     		str	r3, [r7, #12]
 989:../../source/src/FWlib/src/stm32f10x_usart.c ****   bitpos = (uint32_t)0x01 << bitpos;
 2126              		.loc 1 989 0
 2127 0868 0122     		movs	r2, #1
 2128 086a FB68     		ldr	r3, [r7, #12]
 2129 086c 02FA03F3 		lsl	r3, r2, r3
 2130 0870 FB60     		str	r3, [r7, #12]
 990:../../source/src/FWlib/src/stm32f10x_usart.c ****   bitpos &= USARTx->SR;
 2131              		.loc 1 990 0
 2132 0872 7B68     		ldr	r3, [r7, #4]
 2133 0874 1B88     		ldrh	r3, [r3]	@ movhi
 2134 0876 9BB2     		uxth	r3, r3
 2135 0878 1A46     		mov	r2, r3
 2136 087a FB68     		ldr	r3, [r7, #12]
 2137 087c 1340     		ands	r3, r3, r2
 2138 087e FB60     		str	r3, [r7, #12]
 991:../../source/src/FWlib/src/stm32f10x_usart.c ****   if ((itmask != (uint16_t)RESET)&&(bitpos != (uint16_t)RESET))
 2139              		.loc 1 991 0
 2140 0880 7B69     		ldr	r3, [r7, #20]
 2141 0882 002B     		cmp	r3, #0
 2142 0884 05D0     		beq	.L88
 2143              		.loc 1 991 0 is_stmt 0 discriminator 1
 2144 0886 FB68     		ldr	r3, [r7, #12]
 2145 0888 002B     		cmp	r3, #0
 2146 088a 02D0     		beq	.L88
 992:../../source/src/FWlib/src/stm32f10x_usart.c ****   {
 993:../../source/src/FWlib/src/stm32f10x_usart.c ****     bitstatus = SET;
 2147              		.loc 1 993 0 is_stmt 1
 2148 088c 0123     		movs	r3, #1
 2149 088e FB74     		strb	r3, [r7, #19]
 2150 0890 01E0     		b	.L89
 2151              	.L88:
 994:../../source/src/FWlib/src/stm32f10x_usart.c ****   }
 995:../../source/src/FWlib/src/stm32f10x_usart.c ****   else
 996:../../source/src/FWlib/src/stm32f10x_usart.c ****   {
 997:../../source/src/FWlib/src/stm32f10x_usart.c ****     bitstatus = RESET;
 2152              		.loc 1 997 0
 2153 0892 0023     		movs	r3, #0
 2154 0894 FB74     		strb	r3, [r7, #19]
 2155              	.L89:
 998:../../source/src/FWlib/src/stm32f10x_usart.c ****   }
 999:../../source/src/FWlib/src/stm32f10x_usart.c ****   
1000:../../source/src/FWlib/src/stm32f10x_usart.c ****   return bitstatus;  
 2156              		.loc 1 1000 0
 2157 0896 FB7C     		ldrb	r3, [r7, #19]	@ zero_extendqisi2
1001:../../source/src/FWlib/src/stm32f10x_usart.c **** }
 2158              		.loc 1 1001 0
 2159 0898 1846     		mov	r0, r3
 2160 089a 1C37     		adds	r7, r7, #28
 2161              	.LCFI163:
 2162              		.cfi_def_cfa_offset 4
 2163 089c BD46     		mov	sp, r7
 2164              	.LCFI164:
 2165              		.cfi_def_cfa_register 13
 2166              		@ sp needed
ARM GAS  G:\Users\Jaxb\AppData\Local\Temp\ccWNHqDV.s 			page 57


 2167 089e 80BC     		pop	{r7}
 2168              	.LCFI165:
 2169              		.cfi_restore 7
 2170              		.cfi_def_cfa_offset 0
 2171 08a0 7047     		bx	lr
 2172              		.cfi_endproc
 2173              	.LFE56:
 2174              		.size	USART_GetITStatus, .-USART_GetITStatus
 2175              		.align	1
 2176              		.global	USART_ClearITPendingBit
 2177              		.syntax unified
 2178              		.thumb
 2179              		.thumb_func
 2180              		.fpu softvfp
 2181              		.type	USART_ClearITPendingBit, %function
 2182              	USART_ClearITPendingBit:
 2183              	.LFB57:
1002:../../source/src/FWlib/src/stm32f10x_usart.c **** 
1003:../../source/src/FWlib/src/stm32f10x_usart.c **** /**
1004:../../source/src/FWlib/src/stm32f10x_usart.c ****   * @brief  Clears the USARTx's interrupt pending bits.
1005:../../source/src/FWlib/src/stm32f10x_usart.c ****   * @param  USARTx: Select the USART or the UART peripheral. 
1006:../../source/src/FWlib/src/stm32f10x_usart.c ****   *   This parameter can be one of the following values:
1007:../../source/src/FWlib/src/stm32f10x_usart.c ****   *   USART1, USART2, USART3, UART4 or UART5.
1008:../../source/src/FWlib/src/stm32f10x_usart.c ****   * @param  USART_IT: specifies the interrupt pending bit to clear.
1009:../../source/src/FWlib/src/stm32f10x_usart.c ****   *   This parameter can be one of the following values:
1010:../../source/src/FWlib/src/stm32f10x_usart.c ****   *     @arg USART_IT_CTS:  CTS change interrupt (not available for UART4 and UART5)
1011:../../source/src/FWlib/src/stm32f10x_usart.c ****   *     @arg USART_IT_LBD:  LIN Break detection interrupt
1012:../../source/src/FWlib/src/stm32f10x_usart.c ****   *     @arg USART_IT_TC:   Transmission complete interrupt. 
1013:../../source/src/FWlib/src/stm32f10x_usart.c ****   *     @arg USART_IT_RXNE: Receive Data register not empty interrupt.
1014:../../source/src/FWlib/src/stm32f10x_usart.c ****   *   
1015:../../source/src/FWlib/src/stm32f10x_usart.c ****   * @note
1016:../../source/src/FWlib/src/stm32f10x_usart.c ****   *   - PE (Parity error), FE (Framing error), NE (Noise error), ORE (OverRun 
1017:../../source/src/FWlib/src/stm32f10x_usart.c ****   *     error) and IDLE (Idle line detected) pending bits are cleared by 
1018:../../source/src/FWlib/src/stm32f10x_usart.c ****   *     software sequence: a read operation to USART_SR register 
1019:../../source/src/FWlib/src/stm32f10x_usart.c ****   *     (USART_GetITStatus()) followed by a read operation to USART_DR register 
1020:../../source/src/FWlib/src/stm32f10x_usart.c ****   *     (USART_ReceiveData()).
1021:../../source/src/FWlib/src/stm32f10x_usart.c ****   *   - RXNE pending bit can be also cleared by a read to the USART_DR register 
1022:../../source/src/FWlib/src/stm32f10x_usart.c ****   *     (USART_ReceiveData()).
1023:../../source/src/FWlib/src/stm32f10x_usart.c ****   *   - TC pending bit can be also cleared by software sequence: a read 
1024:../../source/src/FWlib/src/stm32f10x_usart.c ****   *     operation to USART_SR register (USART_GetITStatus()) followed by a write 
1025:../../source/src/FWlib/src/stm32f10x_usart.c ****   *     operation to USART_DR register (USART_SendData()).
1026:../../source/src/FWlib/src/stm32f10x_usart.c ****   *   - TXE pending bit is cleared only by a write to the USART_DR register 
1027:../../source/src/FWlib/src/stm32f10x_usart.c ****   *     (USART_SendData()).
1028:../../source/src/FWlib/src/stm32f10x_usart.c ****   * @retval None
1029:../../source/src/FWlib/src/stm32f10x_usart.c ****   */
1030:../../source/src/FWlib/src/stm32f10x_usart.c **** void USART_ClearITPendingBit(USART_TypeDef* USARTx, uint16_t USART_IT)
1031:../../source/src/FWlib/src/stm32f10x_usart.c **** {
 2184              		.loc 1 1031 0
 2185              		.cfi_startproc
 2186              		@ args = 0, pretend = 0, frame = 16
 2187              		@ frame_needed = 1, uses_anonymous_args = 0
 2188              		@ link register save eliminated.
 2189 08a2 80B4     		push	{r7}
 2190              	.LCFI166:
 2191              		.cfi_def_cfa_offset 4
 2192              		.cfi_offset 7, -4
 2193 08a4 85B0     		sub	sp, sp, #20
ARM GAS  G:\Users\Jaxb\AppData\Local\Temp\ccWNHqDV.s 			page 58


 2194              	.LCFI167:
 2195              		.cfi_def_cfa_offset 24
 2196 08a6 00AF     		add	r7, sp, #0
 2197              	.LCFI168:
 2198              		.cfi_def_cfa_register 7
 2199 08a8 7860     		str	r0, [r7, #4]
 2200 08aa 0B46     		mov	r3, r1
 2201 08ac 7B80     		strh	r3, [r7, #2]	@ movhi
1032:../../source/src/FWlib/src/stm32f10x_usart.c ****   uint16_t bitpos = 0x00, itmask = 0x00;
 2202              		.loc 1 1032 0
 2203 08ae 0023     		movs	r3, #0
 2204 08b0 FB81     		strh	r3, [r7, #14]	@ movhi
 2205 08b2 0023     		movs	r3, #0
 2206 08b4 BB81     		strh	r3, [r7, #12]	@ movhi
1033:../../source/src/FWlib/src/stm32f10x_usart.c ****   /* Check the parameters */
1034:../../source/src/FWlib/src/stm32f10x_usart.c ****   assert_param(IS_USART_ALL_PERIPH(USARTx));
1035:../../source/src/FWlib/src/stm32f10x_usart.c ****   assert_param(IS_USART_CLEAR_IT(USART_IT));
1036:../../source/src/FWlib/src/stm32f10x_usart.c ****   /* The CTS interrupt is not available for UART4 and UART5 */
1037:../../source/src/FWlib/src/stm32f10x_usart.c ****   if (USART_IT == USART_IT_CTS)
1038:../../source/src/FWlib/src/stm32f10x_usart.c ****   {
1039:../../source/src/FWlib/src/stm32f10x_usart.c ****     assert_param(IS_USART_123_PERIPH(USARTx));
1040:../../source/src/FWlib/src/stm32f10x_usart.c ****   }   
1041:../../source/src/FWlib/src/stm32f10x_usart.c ****   
1042:../../source/src/FWlib/src/stm32f10x_usart.c ****   bitpos = USART_IT >> 0x08;
 2207              		.loc 1 1042 0
 2208 08b6 7B88     		ldrh	r3, [r7, #2]
 2209 08b8 1B0A     		lsrs	r3, r3, #8
 2210 08ba FB81     		strh	r3, [r7, #14]	@ movhi
1043:../../source/src/FWlib/src/stm32f10x_usart.c ****   itmask = ((uint16_t)0x01 << (uint16_t)bitpos);
 2211              		.loc 1 1043 0
 2212 08bc FB89     		ldrh	r3, [r7, #14]
 2213 08be 0122     		movs	r2, #1
 2214 08c0 02FA03F3 		lsl	r3, r2, r3
 2215 08c4 BB81     		strh	r3, [r7, #12]	@ movhi
1044:../../source/src/FWlib/src/stm32f10x_usart.c ****   USARTx->SR = (uint16_t)~itmask;
 2216              		.loc 1 1044 0
 2217 08c6 BB89     		ldrh	r3, [r7, #12]	@ movhi
 2218 08c8 DB43     		mvns	r3, r3
 2219 08ca 9AB2     		uxth	r2, r3
 2220 08cc 7B68     		ldr	r3, [r7, #4]
 2221 08ce 1A80     		strh	r2, [r3]	@ movhi
1045:../../source/src/FWlib/src/stm32f10x_usart.c **** }
 2222              		.loc 1 1045 0
 2223 08d0 00BF     		nop
 2224 08d2 1437     		adds	r7, r7, #20
 2225              	.LCFI169:
 2226              		.cfi_def_cfa_offset 4
 2227 08d4 BD46     		mov	sp, r7
 2228              	.LCFI170:
 2229              		.cfi_def_cfa_register 13
 2230              		@ sp needed
 2231 08d6 80BC     		pop	{r7}
 2232              	.LCFI171:
 2233              		.cfi_restore 7
 2234              		.cfi_def_cfa_offset 0
 2235 08d8 7047     		bx	lr
 2236              		.cfi_endproc
ARM GAS  G:\Users\Jaxb\AppData\Local\Temp\ccWNHqDV.s 			page 59


 2237              	.LFE57:
 2238              		.size	USART_ClearITPendingBit, .-USART_ClearITPendingBit
 2239              	.Letext0:
 2240              		.file 2 "f:\\arm\\gcc2018\\arm-none-eabi\\include\\machine\\_default_types.h"
 2241              		.file 3 "f:\\arm\\gcc2018\\arm-none-eabi\\include\\sys\\_stdint.h"
 2242              		.file 4 "../../source/include/core_cm3.h"
 2243              		.file 5 "../../source/include/system_stm32f10x.h"
 2244              		.file 6 "../../source/include/stm32f10x.h"
 2245              		.file 7 "../../source/src/FWlib/inc/stm32f10x_rcc.h"
 2246              		.file 8 "../../source/src/FWlib/inc/stm32f10x_usart.h"
 2247 08da 00BF     		.section	.debug_info,"",%progbits
 2248              	.Ldebug_info0:
 2249 0000 AB0A0000 		.4byte	0xaab
 2250 0004 0200     		.2byte	0x2
 2251 0006 00000000 		.4byte	.Ldebug_abbrev0
 2252 000a 04       		.byte	0x4
 2253 000b 01       		.uleb128 0x1
 2254 000c BA050000 		.4byte	.LASF103
 2255 0010 0C       		.byte	0xc
 2256 0011 FE000000 		.4byte	.LASF104
 2257 0015 C6010000 		.4byte	.LASF105
 2258 0019 00000000 		.4byte	.Ltext0
 2259 001d DA080000 		.4byte	.Letext0
 2260 0021 00000000 		.4byte	.Ldebug_line0
 2261 0025 02       		.uleb128 0x2
 2262 0026 01       		.byte	0x1
 2263 0027 06       		.byte	0x6
 2264 0028 85010000 		.4byte	.LASF0
 2265 002c 03       		.uleb128 0x3
 2266 002d B4060000 		.4byte	.LASF3
 2267 0031 02       		.byte	0x2
 2268 0032 2B       		.byte	0x2b
 2269 0033 37000000 		.4byte	0x37
 2270 0037 02       		.uleb128 0x2
 2271 0038 01       		.byte	0x1
 2272 0039 08       		.byte	0x8
 2273 003a B1020000 		.4byte	.LASF1
 2274 003e 02       		.uleb128 0x2
 2275 003f 02       		.byte	0x2
 2276 0040 05       		.byte	0x5
 2277 0041 C4000000 		.4byte	.LASF2
 2278 0045 03       		.uleb128 0x3
 2279 0046 8C000000 		.4byte	.LASF4
 2280 004a 02       		.byte	0x2
 2281 004b 39       		.byte	0x39
 2282 004c 50000000 		.4byte	0x50
 2283 0050 02       		.uleb128 0x2
 2284 0051 02       		.byte	0x2
 2285 0052 07       		.byte	0x7
 2286 0053 F1030000 		.4byte	.LASF5
 2287 0057 02       		.uleb128 0x2
 2288 0058 04       		.byte	0x4
 2289 0059 05       		.byte	0x5
 2290 005a 02020000 		.4byte	.LASF6
 2291 005e 03       		.uleb128 0x3
 2292 005f 0C050000 		.4byte	.LASF7
 2293 0063 02       		.byte	0x2
ARM GAS  G:\Users\Jaxb\AppData\Local\Temp\ccWNHqDV.s 			page 60


 2294 0064 4F       		.byte	0x4f
 2295 0065 69000000 		.4byte	0x69
 2296 0069 02       		.uleb128 0x2
 2297 006a 04       		.byte	0x4
 2298 006b 07       		.byte	0x7
 2299 006c 34030000 		.4byte	.LASF8
 2300 0070 02       		.uleb128 0x2
 2301 0071 08       		.byte	0x8
 2302 0072 05       		.byte	0x5
 2303 0073 F4010000 		.4byte	.LASF9
 2304 0077 02       		.uleb128 0x2
 2305 0078 08       		.byte	0x8
 2306 0079 07       		.byte	0x7
 2307 007a EB020000 		.4byte	.LASF10
 2308 007e 04       		.uleb128 0x4
 2309 007f 04       		.byte	0x4
 2310 0080 05       		.byte	0x5
 2311 0081 696E7400 		.ascii	"int\000"
 2312 0085 05       		.uleb128 0x5
 2313 0086 7E000000 		.4byte	0x7e
 2314 008a 02       		.uleb128 0x2
 2315 008b 04       		.byte	0x4
 2316 008c 07       		.byte	0x7
 2317 008d 1E030000 		.4byte	.LASF11
 2318 0091 03       		.uleb128 0x3
 2319 0092 6E050000 		.4byte	.LASF12
 2320 0096 03       		.byte	0x3
 2321 0097 18       		.byte	0x18
 2322 0098 2C000000 		.4byte	0x2c
 2323 009c 03       		.uleb128 0x3
 2324 009d 2B030000 		.4byte	.LASF13
 2325 00a1 03       		.byte	0x3
 2326 00a2 24       		.byte	0x24
 2327 00a3 45000000 		.4byte	0x45
 2328 00a7 05       		.uleb128 0x5
 2329 00a8 9C000000 		.4byte	0x9c
 2330 00ac 03       		.uleb128 0x3
 2331 00ad 02030000 		.4byte	.LASF14
 2332 00b1 03       		.byte	0x3
 2333 00b2 30       		.byte	0x30
 2334 00b3 5E000000 		.4byte	0x5e
 2335 00b7 06       		.uleb128 0x6
 2336 00b8 82060000 		.4byte	.LASF15
 2337 00bc 04       		.byte	0x4
 2338 00bd CE06     		.2byte	0x6ce
 2339 00bf 85000000 		.4byte	0x85
 2340 00c3 01       		.byte	0x1
 2341 00c4 01       		.byte	0x1
 2342 00c5 07       		.uleb128 0x7
 2343 00c6 38040000 		.4byte	.LASF16
 2344 00ca 05       		.byte	0x5
 2345 00cb 35       		.byte	0x35
 2346 00cc AC000000 		.4byte	0xac
 2347 00d0 01       		.byte	0x1
 2348 00d1 01       		.byte	0x1
 2349 00d2 08       		.uleb128 0x8
 2350 00d3 75313600 		.ascii	"u16\000"
ARM GAS  G:\Users\Jaxb\AppData\Local\Temp\ccWNHqDV.s 			page 61


 2351 00d7 06       		.byte	0x6
 2352 00d8 F801     		.2byte	0x1f8
 2353 00da 9C000000 		.4byte	0x9c
 2354 00de 09       		.uleb128 0x9
 2355 00df 07       		.byte	0x7
 2356 00e0 01       		.byte	0x1
 2357 00e1 37000000 		.4byte	0x37
 2358 00e5 06       		.byte	0x6
 2359 00e6 0702     		.2byte	0x207
 2360 00e8 F9000000 		.4byte	0xf9
 2361 00ec 0A       		.uleb128 0xa
 2362 00ed 57050000 		.4byte	.LASF17
 2363 00f1 00       		.byte	0
 2364 00f2 0B       		.uleb128 0xb
 2365 00f3 53455400 		.ascii	"SET\000"
 2366 00f7 01       		.byte	0x1
 2367 00f8 00       		.byte	0
 2368 00f9 0C       		.uleb128 0xc
 2369 00fa 99060000 		.4byte	.LASF18
 2370 00fe 06       		.byte	0x6
 2371 00ff 0702     		.2byte	0x207
 2372 0101 DE000000 		.4byte	0xde
 2373 0105 0C       		.uleb128 0xc
 2374 0106 1F000000 		.4byte	.LASF19
 2375 010a 06       		.byte	0x6
 2376 010b 0702     		.2byte	0x207
 2377 010d DE000000 		.4byte	0xde
 2378 0111 09       		.uleb128 0x9
 2379 0112 07       		.byte	0x7
 2380 0113 01       		.byte	0x1
 2381 0114 37000000 		.4byte	0x37
 2382 0118 06       		.byte	0x6
 2383 0119 0902     		.2byte	0x209
 2384 011b 2C010000 		.4byte	0x12c
 2385 011f 0A       		.uleb128 0xa
 2386 0120 7D010000 		.4byte	.LASF20
 2387 0124 00       		.byte	0
 2388 0125 0A       		.uleb128 0xa
 2389 0126 AD060000 		.4byte	.LASF21
 2390 012a 01       		.byte	0x1
 2391 012b 00       		.byte	0
 2392 012c 0C       		.uleb128 0xc
 2393 012d E5040000 		.4byte	.LASF22
 2394 0131 06       		.byte	0x6
 2395 0132 0902     		.2byte	0x209
 2396 0134 11010000 		.4byte	0x111
 2397 0138 0D       		.uleb128 0xd
 2398 0139 1C       		.byte	0x1c
 2399 013a 06       		.byte	0x6
 2400 013b D204     		.2byte	0x4d2
 2401 013d 12020000 		.4byte	0x212
 2402 0141 0E       		.uleb128 0xe
 2403 0142 535200   		.ascii	"SR\000"
 2404 0145 06       		.byte	0x6
 2405 0146 D404     		.2byte	0x4d4
 2406 0148 A7000000 		.4byte	0xa7
 2407 014c 02       		.byte	0x2
ARM GAS  G:\Users\Jaxb\AppData\Local\Temp\ccWNHqDV.s 			page 62


 2408 014d 23       		.byte	0x23
 2409 014e 00       		.uleb128 0
 2410 014f 0F       		.uleb128 0xf
 2411 0150 64040000 		.4byte	.LASF23
 2412 0154 06       		.byte	0x6
 2413 0155 D504     		.2byte	0x4d5
 2414 0157 9C000000 		.4byte	0x9c
 2415 015b 02       		.byte	0x2
 2416 015c 23       		.byte	0x23
 2417 015d 02       		.uleb128 0x2
 2418 015e 0E       		.uleb128 0xe
 2419 015f 445200   		.ascii	"DR\000"
 2420 0162 06       		.byte	0x6
 2421 0163 D604     		.2byte	0x4d6
 2422 0165 A7000000 		.4byte	0xa7
 2423 0169 02       		.byte	0x2
 2424 016a 23       		.byte	0x23
 2425 016b 04       		.uleb128 0x4
 2426 016c 0F       		.uleb128 0xf
 2427 016d 6E040000 		.4byte	.LASF24
 2428 0171 06       		.byte	0x6
 2429 0172 D704     		.2byte	0x4d7
 2430 0174 9C000000 		.4byte	0x9c
 2431 0178 02       		.byte	0x2
 2432 0179 23       		.byte	0x23
 2433 017a 06       		.uleb128 0x6
 2434 017b 0E       		.uleb128 0xe
 2435 017c 42525200 		.ascii	"BRR\000"
 2436 0180 06       		.byte	0x6
 2437 0181 D804     		.2byte	0x4d8
 2438 0183 A7000000 		.4byte	0xa7
 2439 0187 02       		.byte	0x2
 2440 0188 23       		.byte	0x23
 2441 0189 08       		.uleb128 0x8
 2442 018a 0F       		.uleb128 0xf
 2443 018b 78040000 		.4byte	.LASF25
 2444 018f 06       		.byte	0x6
 2445 0190 D904     		.2byte	0x4d9
 2446 0192 9C000000 		.4byte	0x9c
 2447 0196 02       		.byte	0x2
 2448 0197 23       		.byte	0x23
 2449 0198 0A       		.uleb128 0xa
 2450 0199 0E       		.uleb128 0xe
 2451 019a 43523100 		.ascii	"CR1\000"
 2452 019e 06       		.byte	0x6
 2453 019f DA04     		.2byte	0x4da
 2454 01a1 A7000000 		.4byte	0xa7
 2455 01a5 02       		.byte	0x2
 2456 01a6 23       		.byte	0x23
 2457 01a7 0C       		.uleb128 0xc
 2458 01a8 0F       		.uleb128 0xf
 2459 01a9 82040000 		.4byte	.LASF26
 2460 01ad 06       		.byte	0x6
 2461 01ae DB04     		.2byte	0x4db
 2462 01b0 9C000000 		.4byte	0x9c
 2463 01b4 02       		.byte	0x2
 2464 01b5 23       		.byte	0x23
ARM GAS  G:\Users\Jaxb\AppData\Local\Temp\ccWNHqDV.s 			page 63


 2465 01b6 0E       		.uleb128 0xe
 2466 01b7 0E       		.uleb128 0xe
 2467 01b8 43523200 		.ascii	"CR2\000"
 2468 01bc 06       		.byte	0x6
 2469 01bd DC04     		.2byte	0x4dc
 2470 01bf A7000000 		.4byte	0xa7
 2471 01c3 02       		.byte	0x2
 2472 01c4 23       		.byte	0x23
 2473 01c5 10       		.uleb128 0x10
 2474 01c6 0F       		.uleb128 0xf
 2475 01c7 8C040000 		.4byte	.LASF27
 2476 01cb 06       		.byte	0x6
 2477 01cc DD04     		.2byte	0x4dd
 2478 01ce 9C000000 		.4byte	0x9c
 2479 01d2 02       		.byte	0x2
 2480 01d3 23       		.byte	0x23
 2481 01d4 12       		.uleb128 0x12
 2482 01d5 0E       		.uleb128 0xe
 2483 01d6 43523300 		.ascii	"CR3\000"
 2484 01da 06       		.byte	0x6
 2485 01db DE04     		.2byte	0x4de
 2486 01dd A7000000 		.4byte	0xa7
 2487 01e1 02       		.byte	0x2
 2488 01e2 23       		.byte	0x23
 2489 01e3 14       		.uleb128 0x14
 2490 01e4 0F       		.uleb128 0xf
 2491 01e5 4C010000 		.4byte	.LASF28
 2492 01e9 06       		.byte	0x6
 2493 01ea DF04     		.2byte	0x4df
 2494 01ec 9C000000 		.4byte	0x9c
 2495 01f0 02       		.byte	0x2
 2496 01f1 23       		.byte	0x23
 2497 01f2 16       		.uleb128 0x16
 2498 01f3 0F       		.uleb128 0xf
 2499 01f4 1A000000 		.4byte	.LASF29
 2500 01f8 06       		.byte	0x6
 2501 01f9 E004     		.2byte	0x4e0
 2502 01fb A7000000 		.4byte	0xa7
 2503 01ff 02       		.byte	0x2
 2504 0200 23       		.byte	0x23
 2505 0201 18       		.uleb128 0x18
 2506 0202 0F       		.uleb128 0xf
 2507 0203 AE040000 		.4byte	.LASF30
 2508 0207 06       		.byte	0x6
 2509 0208 E104     		.2byte	0x4e1
 2510 020a 9C000000 		.4byte	0x9c
 2511 020e 02       		.byte	0x2
 2512 020f 23       		.byte	0x23
 2513 0210 1A       		.uleb128 0x1a
 2514 0211 00       		.byte	0
 2515 0212 0C       		.uleb128 0xc
 2516 0213 97000000 		.4byte	.LASF31
 2517 0217 06       		.byte	0x6
 2518 0218 E204     		.2byte	0x4e2
 2519 021a 38010000 		.4byte	0x138
 2520 021e 10       		.uleb128 0x10
 2521 021f 14       		.byte	0x14
ARM GAS  G:\Users\Jaxb\AppData\Local\Temp\ccWNHqDV.s 			page 64


 2522 0220 07       		.byte	0x7
 2523 0221 2E       		.byte	0x2e
 2524 0222 6D020000 		.4byte	0x26d
 2525 0226 11       		.uleb128 0x11
 2526 0227 16040000 		.4byte	.LASF32
 2527 022b 07       		.byte	0x7
 2528 022c 30       		.byte	0x30
 2529 022d AC000000 		.4byte	0xac
 2530 0231 02       		.byte	0x2
 2531 0232 23       		.byte	0x23
 2532 0233 00       		.uleb128 0
 2533 0234 11       		.uleb128 0x11
 2534 0235 4C000000 		.4byte	.LASF33
 2535 0239 07       		.byte	0x7
 2536 023a 31       		.byte	0x31
 2537 023b AC000000 		.4byte	0xac
 2538 023f 02       		.byte	0x2
 2539 0240 23       		.byte	0x23
 2540 0241 04       		.uleb128 0x4
 2541 0242 11       		.uleb128 0x11
 2542 0243 17050000 		.4byte	.LASF34
 2543 0247 07       		.byte	0x7
 2544 0248 32       		.byte	0x32
 2545 0249 AC000000 		.4byte	0xac
 2546 024d 02       		.byte	0x2
 2547 024e 23       		.byte	0x23
 2548 024f 08       		.uleb128 0x8
 2549 0250 11       		.uleb128 0x11
 2550 0251 48040000 		.4byte	.LASF35
 2551 0255 07       		.byte	0x7
 2552 0256 33       		.byte	0x33
 2553 0257 AC000000 		.4byte	0xac
 2554 025b 02       		.byte	0x2
 2555 025c 23       		.byte	0x23
 2556 025d 0C       		.uleb128 0xc
 2557 025e 11       		.uleb128 0x11
 2558 025f C9030000 		.4byte	.LASF36
 2559 0263 07       		.byte	0x7
 2560 0264 34       		.byte	0x34
 2561 0265 AC000000 		.4byte	0xac
 2562 0269 02       		.byte	0x2
 2563 026a 23       		.byte	0x23
 2564 026b 10       		.uleb128 0x10
 2565 026c 00       		.byte	0
 2566 026d 03       		.uleb128 0x3
 2567 026e A5000000 		.4byte	.LASF37
 2568 0272 07       		.byte	0x7
 2569 0273 35       		.byte	0x35
 2570 0274 1E020000 		.4byte	0x21e
 2571 0278 10       		.uleb128 0x10
 2572 0279 10       		.byte	0x10
 2573 027a 08       		.byte	0x8
 2574 027b 32       		.byte	0x32
 2575 027c D5020000 		.4byte	0x2d5
 2576 0280 11       		.uleb128 0x11
 2577 0281 9F010000 		.4byte	.LASF38
 2578 0285 08       		.byte	0x8
ARM GAS  G:\Users\Jaxb\AppData\Local\Temp\ccWNHqDV.s 			page 65


 2579 0286 34       		.byte	0x34
 2580 0287 AC000000 		.4byte	0xac
 2581 028b 02       		.byte	0x2
 2582 028c 23       		.byte	0x23
 2583 028d 00       		.uleb128 0
 2584 028e 11       		.uleb128 0x11
 2585 028f 56010000 		.4byte	.LASF39
 2586 0293 08       		.byte	0x8
 2587 0294 39       		.byte	0x39
 2588 0295 9C000000 		.4byte	0x9c
 2589 0299 02       		.byte	0x2
 2590 029a 23       		.byte	0x23
 2591 029b 04       		.uleb128 0x4
 2592 029c 11       		.uleb128 0x11
 2593 029d AB050000 		.4byte	.LASF40
 2594 02a1 08       		.byte	0x8
 2595 02a2 3C       		.byte	0x3c
 2596 02a3 9C000000 		.4byte	0x9c
 2597 02a7 02       		.byte	0x2
 2598 02a8 23       		.byte	0x23
 2599 02a9 06       		.uleb128 0x6
 2600 02aa 11       		.uleb128 0x11
 2601 02ab B7000000 		.4byte	.LASF41
 2602 02af 08       		.byte	0x8
 2603 02b0 3F       		.byte	0x3f
 2604 02b1 9C000000 		.4byte	0x9c
 2605 02b5 02       		.byte	0x2
 2606 02b6 23       		.byte	0x23
 2607 02b7 08       		.uleb128 0x8
 2608 02b8 11       		.uleb128 0x11
 2609 02b9 9F030000 		.4byte	.LASF42
 2610 02bd 08       		.byte	0x8
 2611 02be 46       		.byte	0x46
 2612 02bf 9C000000 		.4byte	0x9c
 2613 02c3 02       		.byte	0x2
 2614 02c4 23       		.byte	0x23
 2615 02c5 0A       		.uleb128 0xa
 2616 02c6 11       		.uleb128 0x11
 2617 02c7 85030000 		.4byte	.LASF43
 2618 02cb 08       		.byte	0x8
 2619 02cc 49       		.byte	0x49
 2620 02cd 9C000000 		.4byte	0x9c
 2621 02d1 02       		.byte	0x2
 2622 02d2 23       		.byte	0x23
 2623 02d3 0C       		.uleb128 0xc
 2624 02d4 00       		.byte	0
 2625 02d5 03       		.uleb128 0x3
 2626 02d6 56030000 		.4byte	.LASF44
 2627 02da 08       		.byte	0x8
 2628 02db 4C       		.byte	0x4c
 2629 02dc 78020000 		.4byte	0x278
 2630 02e0 10       		.uleb128 0x10
 2631 02e1 08       		.byte	0x8
 2632 02e2 08       		.byte	0x8
 2633 02e3 52       		.byte	0x52
 2634 02e4 21030000 		.4byte	0x321
 2635 02e8 11       		.uleb128 0x11
ARM GAS  G:\Users\Jaxb\AppData\Local\Temp\ccWNHqDV.s 			page 66


 2636 02e9 58040000 		.4byte	.LASF45
 2637 02ed 08       		.byte	0x8
 2638 02ee 55       		.byte	0x55
 2639 02ef 9C000000 		.4byte	0x9c
 2640 02f3 02       		.byte	0x2
 2641 02f4 23       		.byte	0x23
 2642 02f5 00       		.uleb128 0
 2643 02f6 11       		.uleb128 0x11
 2644 02f7 70060000 		.4byte	.LASF46
 2645 02fb 08       		.byte	0x8
 2646 02fc 58       		.byte	0x58
 2647 02fd 9C000000 		.4byte	0x9c
 2648 0301 02       		.byte	0x2
 2649 0302 23       		.byte	0x23
 2650 0303 02       		.uleb128 0x2
 2651 0304 11       		.uleb128 0x11
 2652 0305 0F000000 		.4byte	.LASF47
 2653 0309 08       		.byte	0x8
 2654 030a 5B       		.byte	0x5b
 2655 030b 9C000000 		.4byte	0x9c
 2656 030f 02       		.byte	0x2
 2657 0310 23       		.byte	0x23
 2658 0311 04       		.uleb128 0x4
 2659 0312 11       		.uleb128 0x11
 2660 0313 91010000 		.4byte	.LASF48
 2661 0317 08       		.byte	0x8
 2662 0318 5E       		.byte	0x5e
 2663 0319 9C000000 		.4byte	0x9c
 2664 031d 02       		.byte	0x2
 2665 031e 23       		.byte	0x23
 2666 031f 06       		.uleb128 0x6
 2667 0320 00       		.byte	0
 2668 0321 03       		.uleb128 0x3
 2669 0322 CE000000 		.4byte	.LASF49
 2670 0326 08       		.byte	0x8
 2671 0327 61       		.byte	0x61
 2672 0328 E0020000 		.4byte	0x2e0
 2673 032c 12       		.uleb128 0x12
 2674 032d 01       		.byte	0x1
 2675 032e 0B020000 		.4byte	.LASF56
 2676 0332 01       		.byte	0x1
 2677 0333 0604     		.2byte	0x406
 2678 0335 01       		.byte	0x1
 2679 0336 A2080000 		.4byte	.LFB57
 2680 033a DA080000 		.4byte	.LFE57
 2681 033e 00000000 		.4byte	.LLST28
 2682 0342 01       		.byte	0x1
 2683 0343 84030000 		.4byte	0x384
 2684 0347 13       		.uleb128 0x13
 2685 0348 77030000 		.4byte	.LASF50
 2686 034c 01       		.byte	0x1
 2687 034d 0604     		.2byte	0x406
 2688 034f 84030000 		.4byte	0x384
 2689 0353 02       		.byte	0x2
 2690 0354 91       		.byte	0x91
 2691 0355 6C       		.sleb128 -20
 2692 0356 13       		.uleb128 0x13
ARM GAS  G:\Users\Jaxb\AppData\Local\Temp\ccWNHqDV.s 			page 67


 2693 0357 4E050000 		.4byte	.LASF51
 2694 035b 01       		.byte	0x1
 2695 035c 0604     		.2byte	0x406
 2696 035e 9C000000 		.4byte	0x9c
 2697 0362 02       		.byte	0x2
 2698 0363 91       		.byte	0x91
 2699 0364 6A       		.sleb128 -22
 2700 0365 14       		.uleb128 0x14
 2701 0366 7E030000 		.4byte	.LASF52
 2702 036a 01       		.byte	0x1
 2703 036b 0804     		.2byte	0x408
 2704 036d 9C000000 		.4byte	0x9c
 2705 0371 02       		.byte	0x2
 2706 0372 91       		.byte	0x91
 2707 0373 76       		.sleb128 -10
 2708 0374 14       		.uleb128 0x14
 2709 0375 7B060000 		.4byte	.LASF53
 2710 0379 01       		.byte	0x1
 2711 037a 0804     		.2byte	0x408
 2712 037c 9C000000 		.4byte	0x9c
 2713 0380 02       		.byte	0x2
 2714 0381 91       		.byte	0x91
 2715 0382 74       		.sleb128 -12
 2716 0383 00       		.byte	0
 2717 0384 15       		.uleb128 0x15
 2718 0385 04       		.byte	0x4
 2719 0386 12020000 		.4byte	0x212
 2720 038a 16       		.uleb128 0x16
 2721 038b 01       		.byte	0x1
 2722 038c 04040000 		.4byte	.LASF59
 2723 0390 01       		.byte	0x1
 2724 0391 BC03     		.2byte	0x3bc
 2725 0393 01       		.byte	0x1
 2726 0394 05010000 		.4byte	0x105
 2727 0398 EE070000 		.4byte	.LFB56
 2728 039c A2080000 		.4byte	.LFE56
 2729 03a0 5C000000 		.4byte	.LLST27
 2730 03a4 01       		.byte	0x1
 2731 03a5 04040000 		.4byte	0x404
 2732 03a9 13       		.uleb128 0x13
 2733 03aa 77030000 		.4byte	.LASF50
 2734 03ae 01       		.byte	0x1
 2735 03af BC03     		.2byte	0x3bc
 2736 03b1 84030000 		.4byte	0x384
 2737 03b5 02       		.byte	0x2
 2738 03b6 91       		.byte	0x91
 2739 03b7 64       		.sleb128 -28
 2740 03b8 13       		.uleb128 0x13
 2741 03b9 4E050000 		.4byte	.LASF51
 2742 03bd 01       		.byte	0x1
 2743 03be BC03     		.2byte	0x3bc
 2744 03c0 9C000000 		.4byte	0x9c
 2745 03c4 02       		.byte	0x2
 2746 03c5 91       		.byte	0x91
 2747 03c6 62       		.sleb128 -30
 2748 03c7 14       		.uleb128 0x14
 2749 03c8 7E030000 		.4byte	.LASF52
ARM GAS  G:\Users\Jaxb\AppData\Local\Temp\ccWNHqDV.s 			page 68


 2750 03cc 01       		.byte	0x1
 2751 03cd BE03     		.2byte	0x3be
 2752 03cf AC000000 		.4byte	0xac
 2753 03d3 02       		.byte	0x2
 2754 03d4 91       		.byte	0x91
 2755 03d5 6C       		.sleb128 -20
 2756 03d6 14       		.uleb128 0x14
 2757 03d7 7B060000 		.4byte	.LASF53
 2758 03db 01       		.byte	0x1
 2759 03dc BE03     		.2byte	0x3be
 2760 03de AC000000 		.4byte	0xac
 2761 03e2 02       		.byte	0x2
 2762 03e3 91       		.byte	0x91
 2763 03e4 74       		.sleb128 -12
 2764 03e5 14       		.uleb128 0x14
 2765 03e6 A4060000 		.4byte	.LASF54
 2766 03ea 01       		.byte	0x1
 2767 03eb BE03     		.2byte	0x3be
 2768 03ed AC000000 		.4byte	0xac
 2769 03f1 02       		.byte	0x2
 2770 03f2 91       		.byte	0x91
 2771 03f3 68       		.sleb128 -24
 2772 03f4 14       		.uleb128 0x14
 2773 03f5 8F060000 		.4byte	.LASF55
 2774 03f9 01       		.byte	0x1
 2775 03fa BF03     		.2byte	0x3bf
 2776 03fc 05010000 		.4byte	0x105
 2777 0400 02       		.byte	0x2
 2778 0401 91       		.byte	0x91
 2779 0402 73       		.sleb128 -13
 2780 0403 00       		.byte	0
 2781 0404 12       		.uleb128 0x12
 2782 0405 01       		.byte	0x1
 2783 0406 CA020000 		.4byte	.LASF57
 2784 040a 01       		.byte	0x1
 2785 040b 9B03     		.2byte	0x39b
 2786 040d 01       		.byte	0x1
 2787 040e CE070000 		.4byte	.LFB55
 2788 0412 EE070000 		.4byte	.LFE55
 2789 0416 B8000000 		.4byte	.LLST26
 2790 041a 01       		.byte	0x1
 2791 041b 3E040000 		.4byte	0x43e
 2792 041f 13       		.uleb128 0x13
 2793 0420 77030000 		.4byte	.LASF50
 2794 0424 01       		.byte	0x1
 2795 0425 9B03     		.2byte	0x39b
 2796 0427 84030000 		.4byte	0x384
 2797 042b 02       		.byte	0x2
 2798 042c 91       		.byte	0x91
 2799 042d 74       		.sleb128 -12
 2800 042e 13       		.uleb128 0x13
 2801 042f 54020000 		.4byte	.LASF58
 2802 0433 01       		.byte	0x1
 2803 0434 9B03     		.2byte	0x39b
 2804 0436 9C000000 		.4byte	0x9c
 2805 043a 02       		.byte	0x2
 2806 043b 91       		.byte	0x91
ARM GAS  G:\Users\Jaxb\AppData\Local\Temp\ccWNHqDV.s 			page 69


 2807 043c 72       		.sleb128 -14
 2808 043d 00       		.byte	0
 2809 043e 16       		.uleb128 0x16
 2810 043f 01       		.byte	0x1
 2811 0440 27050000 		.4byte	.LASF60
 2812 0444 01       		.byte	0x1
 2813 0445 6A03     		.2byte	0x36a
 2814 0447 01       		.byte	0x1
 2815 0448 F9000000 		.4byte	0xf9
 2816 044c 98070000 		.4byte	.LFB54
 2817 0450 CE070000 		.4byte	.LFE54
 2818 0454 14010000 		.4byte	.LLST25
 2819 0458 01       		.byte	0x1
 2820 0459 8B040000 		.4byte	0x48b
 2821 045d 13       		.uleb128 0x13
 2822 045e 77030000 		.4byte	.LASF50
 2823 0462 01       		.byte	0x1
 2824 0463 6A03     		.2byte	0x36a
 2825 0465 84030000 		.4byte	0x384
 2826 0469 02       		.byte	0x2
 2827 046a 91       		.byte	0x91
 2828 046b 6C       		.sleb128 -20
 2829 046c 13       		.uleb128 0x13
 2830 046d 54020000 		.4byte	.LASF58
 2831 0471 01       		.byte	0x1
 2832 0472 6A03     		.2byte	0x36a
 2833 0474 9C000000 		.4byte	0x9c
 2834 0478 02       		.byte	0x2
 2835 0479 91       		.byte	0x91
 2836 047a 6A       		.sleb128 -22
 2837 047b 14       		.uleb128 0x14
 2838 047c 8F060000 		.4byte	.LASF55
 2839 0480 01       		.byte	0x1
 2840 0481 6C03     		.2byte	0x36c
 2841 0483 F9000000 		.4byte	0xf9
 2842 0487 02       		.byte	0x2
 2843 0488 91       		.byte	0x91
 2844 0489 77       		.sleb128 -9
 2845 048a 00       		.byte	0
 2846 048b 12       		.uleb128 0x12
 2847 048c 01       		.byte	0x1
 2848 048d B8040000 		.4byte	.LASF61
 2849 0491 01       		.byte	0x1
 2850 0492 4503     		.2byte	0x345
 2851 0494 01       		.byte	0x1
 2852 0495 5A070000 		.4byte	.LFB53
 2853 0499 98070000 		.4byte	.LFE53
 2854 049d 70010000 		.4byte	.LLST24
 2855 04a1 01       		.byte	0x1
 2856 04a2 C5040000 		.4byte	0x4c5
 2857 04a6 13       		.uleb128 0x13
 2858 04a7 77030000 		.4byte	.LASF50
 2859 04ab 01       		.byte	0x1
 2860 04ac 4503     		.2byte	0x345
 2861 04ae 84030000 		.4byte	0x384
 2862 04b2 02       		.byte	0x2
 2863 04b3 91       		.byte	0x91
ARM GAS  G:\Users\Jaxb\AppData\Local\Temp\ccWNHqDV.s 			page 70


 2864 04b4 74       		.sleb128 -12
 2865 04b5 13       		.uleb128 0x13
 2866 04b6 67010000 		.4byte	.LASF62
 2867 04ba 01       		.byte	0x1
 2868 04bb 4503     		.2byte	0x345
 2869 04bd 2C010000 		.4byte	0x12c
 2870 04c1 02       		.byte	0x2
 2871 04c2 91       		.byte	0x91
 2872 04c3 73       		.sleb128 -13
 2873 04c4 00       		.byte	0
 2874 04c5 12       		.uleb128 0x12
 2875 04c6 01       		.byte	0x1
 2876 04c7 27040000 		.4byte	.LASF63
 2877 04cb 01       		.byte	0x1
 2878 04cc 3203     		.2byte	0x332
 2879 04ce 01       		.byte	0x1
 2880 04cf 24070000 		.4byte	.LFB52
 2881 04d3 5A070000 		.4byte	.LFE52
 2882 04d7 CC010000 		.4byte	.LLST23
 2883 04db 01       		.byte	0x1
 2884 04dc FF040000 		.4byte	0x4ff
 2885 04e0 13       		.uleb128 0x13
 2886 04e1 77030000 		.4byte	.LASF50
 2887 04e5 01       		.byte	0x1
 2888 04e6 3203     		.2byte	0x332
 2889 04e8 84030000 		.4byte	0x384
 2890 04ec 02       		.byte	0x2
 2891 04ed 91       		.byte	0x91
 2892 04ee 74       		.sleb128 -12
 2893 04ef 13       		.uleb128 0x13
 2894 04f0 AE010000 		.4byte	.LASF64
 2895 04f4 01       		.byte	0x1
 2896 04f5 3203     		.2byte	0x332
 2897 04f7 9C000000 		.4byte	0x9c
 2898 04fb 02       		.byte	0x2
 2899 04fc 91       		.byte	0x91
 2900 04fd 72       		.sleb128 -14
 2901 04fe 00       		.byte	0
 2902 04ff 12       		.uleb128 0x12
 2903 0500 01       		.byte	0x1
 2904 0501 76000000 		.4byte	.LASF65
 2905 0505 01       		.byte	0x1
 2906 0506 1503     		.2byte	0x315
 2907 0508 01       		.byte	0x1
 2908 0509 E6060000 		.4byte	.LFB51
 2909 050d 24070000 		.4byte	.LFE51
 2910 0511 28020000 		.4byte	.LLST22
 2911 0515 01       		.byte	0x1
 2912 0516 39050000 		.4byte	0x539
 2913 051a 13       		.uleb128 0x13
 2914 051b 77030000 		.4byte	.LASF50
 2915 051f 01       		.byte	0x1
 2916 0520 1503     		.2byte	0x315
 2917 0522 84030000 		.4byte	0x384
 2918 0526 02       		.byte	0x2
 2919 0527 91       		.byte	0x91
 2920 0528 74       		.sleb128 -12
ARM GAS  G:\Users\Jaxb\AppData\Local\Temp\ccWNHqDV.s 			page 71


 2921 0529 13       		.uleb128 0x13
 2922 052a 67010000 		.4byte	.LASF62
 2923 052e 01       		.byte	0x1
 2924 052f 1503     		.2byte	0x315
 2925 0531 2C010000 		.4byte	0x12c
 2926 0535 02       		.byte	0x2
 2927 0536 91       		.byte	0x91
 2928 0537 73       		.sleb128 -13
 2929 0538 00       		.byte	0
 2930 0539 12       		.uleb128 0x12
 2931 053a 01       		.byte	0x1
 2932 053b DA030000 		.4byte	.LASF66
 2933 053f 01       		.byte	0x1
 2934 0540 FA02     		.2byte	0x2fa
 2935 0542 01       		.byte	0x1
 2936 0543 A4060000 		.4byte	.LFB50
 2937 0547 E6060000 		.4byte	.LFE50
 2938 054b 84020000 		.4byte	.LLST21
 2939 054f 01       		.byte	0x1
 2940 0550 73050000 		.4byte	0x573
 2941 0554 13       		.uleb128 0x13
 2942 0555 77030000 		.4byte	.LASF50
 2943 0559 01       		.byte	0x1
 2944 055a FA02     		.2byte	0x2fa
 2945 055c 84030000 		.4byte	0x384
 2946 0560 02       		.byte	0x2
 2947 0561 91       		.byte	0x91
 2948 0562 74       		.sleb128 -12
 2949 0563 13       		.uleb128 0x13
 2950 0564 67010000 		.4byte	.LASF62
 2951 0568 01       		.byte	0x1
 2952 0569 FA02     		.2byte	0x2fa
 2953 056b 2C010000 		.4byte	0x12c
 2954 056f 02       		.byte	0x2
 2955 0570 91       		.byte	0x91
 2956 0571 73       		.sleb128 -13
 2957 0572 00       		.byte	0
 2958 0573 12       		.uleb128 0x12
 2959 0574 01       		.byte	0x1
 2960 0575 2B010000 		.4byte	.LASF67
 2961 0579 01       		.byte	0x1
 2962 057a DB02     		.2byte	0x2db
 2963 057c 01       		.byte	0x1
 2964 057d 66060000 		.4byte	.LFB49
 2965 0581 A4060000 		.4byte	.LFE49
 2966 0585 E0020000 		.4byte	.LLST20
 2967 0589 01       		.byte	0x1
 2968 058a AD050000 		.4byte	0x5ad
 2969 058e 13       		.uleb128 0x13
 2970 058f 77030000 		.4byte	.LASF50
 2971 0593 01       		.byte	0x1
 2972 0594 DB02     		.2byte	0x2db
 2973 0596 84030000 		.4byte	0x384
 2974 059a 02       		.byte	0x2
 2975 059b 91       		.byte	0x91
 2976 059c 74       		.sleb128 -12
 2977 059d 13       		.uleb128 0x13
ARM GAS  G:\Users\Jaxb\AppData\Local\Temp\ccWNHqDV.s 			page 72


 2978 059e 67010000 		.4byte	.LASF62
 2979 05a2 01       		.byte	0x1
 2980 05a3 DB02     		.2byte	0x2db
 2981 05a5 2C010000 		.4byte	0x12c
 2982 05a9 02       		.byte	0x2
 2983 05aa 91       		.byte	0x91
 2984 05ab 73       		.sleb128 -13
 2985 05ac 00       		.byte	0
 2986 05ad 12       		.uleb128 0x12
 2987 05ae 01       		.byte	0x1
 2988 05af F5040000 		.4byte	.LASF68
 2989 05b3 01       		.byte	0x1
 2990 05b4 C102     		.2byte	0x2c1
 2991 05b6 01       		.byte	0x1
 2992 05b7 28060000 		.4byte	.LFB48
 2993 05bb 66060000 		.4byte	.LFE48
 2994 05bf 3C030000 		.4byte	.LLST19
 2995 05c3 01       		.byte	0x1
 2996 05c4 E7050000 		.4byte	0x5e7
 2997 05c8 13       		.uleb128 0x13
 2998 05c9 77030000 		.4byte	.LASF50
 2999 05cd 01       		.byte	0x1
 3000 05ce C102     		.2byte	0x2c1
 3001 05d0 84030000 		.4byte	0x384
 3002 05d4 02       		.byte	0x2
 3003 05d5 91       		.byte	0x91
 3004 05d6 74       		.sleb128 -12
 3005 05d7 13       		.uleb128 0x13
 3006 05d8 67010000 		.4byte	.LASF62
 3007 05dc 01       		.byte	0x1
 3008 05dd C102     		.2byte	0x2c1
 3009 05df 2C010000 		.4byte	0x12c
 3010 05e3 02       		.byte	0x2
 3011 05e4 91       		.byte	0x91
 3012 05e5 73       		.sleb128 -13
 3013 05e6 00       		.byte	0
 3014 05e7 12       		.uleb128 0x12
 3015 05e8 01       		.byte	0x1
 3016 05e9 3B050000 		.4byte	.LASF69
 3017 05ed 01       		.byte	0x1
 3018 05ee A802     		.2byte	0x2a8
 3019 05f0 01       		.byte	0x1
 3020 05f1 EA050000 		.4byte	.LFB47
 3021 05f5 28060000 		.4byte	.LFE47
 3022 05f9 98030000 		.4byte	.LLST18
 3023 05fd 01       		.byte	0x1
 3024 05fe 21060000 		.4byte	0x621
 3025 0602 13       		.uleb128 0x13
 3026 0603 77030000 		.4byte	.LASF50
 3027 0607 01       		.byte	0x1
 3028 0608 A802     		.2byte	0x2a8
 3029 060a 84030000 		.4byte	0x384
 3030 060e 02       		.byte	0x2
 3031 060f 91       		.byte	0x91
 3032 0610 74       		.sleb128 -12
 3033 0611 13       		.uleb128 0x13
 3034 0612 67010000 		.4byte	.LASF62
ARM GAS  G:\Users\Jaxb\AppData\Local\Temp\ccWNHqDV.s 			page 73


 3035 0616 01       		.byte	0x1
 3036 0617 A802     		.2byte	0x2a8
 3037 0619 2C010000 		.4byte	0x12c
 3038 061d 02       		.byte	0x2
 3039 061e 91       		.byte	0x91
 3040 061f 73       		.sleb128 -13
 3041 0620 00       		.byte	0
 3042 0621 12       		.uleb128 0x12
 3043 0622 01       		.byte	0x1
 3044 0623 2E000000 		.4byte	.LASF70
 3045 0627 01       		.byte	0x1
 3046 0628 9502     		.2byte	0x295
 3047 062a 01       		.byte	0x1
 3048 062b B2050000 		.4byte	.LFB46
 3049 062f EA050000 		.4byte	.LFE46
 3050 0633 F4030000 		.4byte	.LLST17
 3051 0637 01       		.byte	0x1
 3052 0638 5B060000 		.4byte	0x65b
 3053 063c 13       		.uleb128 0x13
 3054 063d 77030000 		.4byte	.LASF50
 3055 0641 01       		.byte	0x1
 3056 0642 9502     		.2byte	0x295
 3057 0644 84030000 		.4byte	0x384
 3058 0648 02       		.byte	0x2
 3059 0649 91       		.byte	0x91
 3060 064a 74       		.sleb128 -12
 3061 064b 13       		.uleb128 0x13
 3062 064c 60060000 		.4byte	.LASF71
 3063 0650 01       		.byte	0x1
 3064 0651 9502     		.2byte	0x295
 3065 0653 91000000 		.4byte	0x91
 3066 0657 02       		.byte	0x2
 3067 0658 91       		.byte	0x91
 3068 0659 73       		.sleb128 -13
 3069 065a 00       		.byte	0
 3070 065b 12       		.uleb128 0x12
 3071 065c 01       		.byte	0x1
 3072 065d 0B030000 		.4byte	.LASF72
 3073 0661 01       		.byte	0x1
 3074 0662 8102     		.2byte	0x281
 3075 0664 01       		.byte	0x1
 3076 0665 78050000 		.4byte	.LFB45
 3077 0669 B2050000 		.4byte	.LFE45
 3078 066d 50040000 		.4byte	.LLST16
 3079 0671 01       		.byte	0x1
 3080 0672 95060000 		.4byte	0x695
 3081 0676 13       		.uleb128 0x13
 3082 0677 77030000 		.4byte	.LASF50
 3083 067b 01       		.byte	0x1
 3084 067c 8102     		.2byte	0x281
 3085 067e 84030000 		.4byte	0x384
 3086 0682 02       		.byte	0x2
 3087 0683 91       		.byte	0x91
 3088 0684 74       		.sleb128 -12
 3089 0685 13       		.uleb128 0x13
 3090 0686 23020000 		.4byte	.LASF73
 3091 068a 01       		.byte	0x1
ARM GAS  G:\Users\Jaxb\AppData\Local\Temp\ccWNHqDV.s 			page 74


 3092 068b 8102     		.2byte	0x281
 3093 068d 91000000 		.4byte	0x91
 3094 0691 02       		.byte	0x2
 3095 0692 91       		.byte	0x91
 3096 0693 73       		.sleb128 -13
 3097 0694 00       		.byte	0
 3098 0695 12       		.uleb128 0x12
 3099 0696 01       		.byte	0x1
 3100 0697 46030000 		.4byte	.LASF74
 3101 069b 01       		.byte	0x1
 3102 069c 7102     		.2byte	0x271
 3103 069e 01       		.byte	0x1
 3104 069f 56050000 		.4byte	.LFB44
 3105 06a3 78050000 		.4byte	.LFE44
 3106 06a7 AC040000 		.4byte	.LLST15
 3107 06ab 01       		.byte	0x1
 3108 06ac C0060000 		.4byte	0x6c0
 3109 06b0 13       		.uleb128 0x13
 3110 06b1 77030000 		.4byte	.LASF50
 3111 06b5 01       		.byte	0x1
 3112 06b6 7102     		.2byte	0x271
 3113 06b8 84030000 		.4byte	0x384
 3114 06bc 02       		.byte	0x2
 3115 06bd 91       		.byte	0x91
 3116 06be 74       		.sleb128 -12
 3117 06bf 00       		.byte	0
 3118 06c0 16       		.uleb128 0x16
 3119 06c1 01       		.byte	0x1
 3120 06c2 99050000 		.4byte	.LASF75
 3121 06c6 01       		.byte	0x1
 3122 06c7 6102     		.2byte	0x261
 3123 06c9 01       		.byte	0x1
 3124 06ca 9C000000 		.4byte	0x9c
 3125 06ce 38050000 		.4byte	.LFB43
 3126 06d2 56050000 		.4byte	.LFE43
 3127 06d6 08050000 		.4byte	.LLST14
 3128 06da 01       		.byte	0x1
 3129 06db EF060000 		.4byte	0x6ef
 3130 06df 13       		.uleb128 0x13
 3131 06e0 77030000 		.4byte	.LASF50
 3132 06e4 01       		.byte	0x1
 3133 06e5 6102     		.2byte	0x261
 3134 06e7 84030000 		.4byte	0x384
 3135 06eb 02       		.byte	0x2
 3136 06ec 91       		.byte	0x91
 3137 06ed 74       		.sleb128 -12
 3138 06ee 00       		.byte	0
 3139 06ef 12       		.uleb128 0x12
 3140 06f0 01       		.byte	0x1
 3141 06f1 EF000000 		.4byte	.LASF76
 3142 06f5 01       		.byte	0x1
 3143 06f6 5002     		.2byte	0x250
 3144 06f8 01       		.byte	0x1
 3145 06f9 16050000 		.4byte	.LFB42
 3146 06fd 38050000 		.4byte	.LFE42
 3147 0701 64050000 		.4byte	.LLST13
 3148 0705 01       		.byte	0x1
ARM GAS  G:\Users\Jaxb\AppData\Local\Temp\ccWNHqDV.s 			page 75


 3149 0706 29070000 		.4byte	0x729
 3150 070a 13       		.uleb128 0x13
 3151 070b 77030000 		.4byte	.LASF50
 3152 070f 01       		.byte	0x1
 3153 0710 5002     		.2byte	0x250
 3154 0712 84030000 		.4byte	0x384
 3155 0716 02       		.byte	0x2
 3156 0717 91       		.byte	0x91
 3157 0718 74       		.sleb128 -12
 3158 0719 13       		.uleb128 0x13
 3159 071a 82020000 		.4byte	.LASF77
 3160 071e 01       		.byte	0x1
 3161 071f 5002     		.2byte	0x250
 3162 0721 9C000000 		.4byte	0x9c
 3163 0725 02       		.byte	0x2
 3164 0726 91       		.byte	0x91
 3165 0727 72       		.sleb128 -14
 3166 0728 00       		.byte	0
 3167 0729 12       		.uleb128 0x12
 3168 072a 01       		.byte	0x1
 3169 072b C6040000 		.4byte	.LASF78
 3170 072f 01       		.byte	0x1
 3171 0730 3602     		.2byte	0x236
 3172 0732 01       		.byte	0x1
 3173 0733 D8040000 		.4byte	.LFB41
 3174 0737 16050000 		.4byte	.LFE41
 3175 073b C0050000 		.4byte	.LLST12
 3176 073f 01       		.byte	0x1
 3177 0740 63070000 		.4byte	0x763
 3178 0744 13       		.uleb128 0x13
 3179 0745 77030000 		.4byte	.LASF50
 3180 0749 01       		.byte	0x1
 3181 074a 3602     		.2byte	0x236
 3182 074c 84030000 		.4byte	0x384
 3183 0750 02       		.byte	0x2
 3184 0751 91       		.byte	0x91
 3185 0752 74       		.sleb128 -12
 3186 0753 13       		.uleb128 0x13
 3187 0754 67010000 		.4byte	.LASF62
 3188 0758 01       		.byte	0x1
 3189 0759 3602     		.2byte	0x236
 3190 075b 2C010000 		.4byte	0x12c
 3191 075f 02       		.byte	0x2
 3192 0760 91       		.byte	0x91
 3193 0761 73       		.sleb128 -13
 3194 0762 00       		.byte	0
 3195 0763 12       		.uleb128 0x12
 3196 0764 01       		.byte	0x1
 3197 0765 33020000 		.4byte	.LASF79
 3198 0769 01       		.byte	0x1
 3199 076a 2302     		.2byte	0x223
 3200 076c 01       		.byte	0x1
 3201 076d A2040000 		.4byte	.LFB40
 3202 0771 D8040000 		.4byte	.LFE40
 3203 0775 1C060000 		.4byte	.LLST11
 3204 0779 01       		.byte	0x1
 3205 077a 9D070000 		.4byte	0x79d
ARM GAS  G:\Users\Jaxb\AppData\Local\Temp\ccWNHqDV.s 			page 76


 3206 077e 13       		.uleb128 0x13
 3207 077f 77030000 		.4byte	.LASF50
 3208 0783 01       		.byte	0x1
 3209 0784 2302     		.2byte	0x223
 3210 0786 84030000 		.4byte	0x384
 3211 078a 02       		.byte	0x2
 3212 078b 91       		.byte	0x91
 3213 078c 74       		.sleb128 -12
 3214 078d 13       		.uleb128 0x13
 3215 078e 5B000000 		.4byte	.LASF80
 3216 0792 01       		.byte	0x1
 3217 0793 2302     		.2byte	0x223
 3218 0795 9C000000 		.4byte	0x9c
 3219 0799 02       		.byte	0x2
 3220 079a 91       		.byte	0x91
 3221 079b 72       		.sleb128 -14
 3222 079c 00       		.byte	0
 3223 079d 12       		.uleb128 0x12
 3224 079e 01       		.byte	0x1
 3225 079f 96040000 		.4byte	.LASF81
 3226 07a3 01       		.byte	0x1
 3227 07a4 0602     		.2byte	0x206
 3228 07a6 01       		.byte	0x1
 3229 07a7 64040000 		.4byte	.LFB39
 3230 07ab A2040000 		.4byte	.LFE39
 3231 07af 78060000 		.4byte	.LLST10
 3232 07b3 01       		.byte	0x1
 3233 07b4 D7070000 		.4byte	0x7d7
 3234 07b8 13       		.uleb128 0x13
 3235 07b9 77030000 		.4byte	.LASF50
 3236 07bd 01       		.byte	0x1
 3237 07be 0602     		.2byte	0x206
 3238 07c0 84030000 		.4byte	0x384
 3239 07c4 02       		.byte	0x2
 3240 07c5 91       		.byte	0x91
 3241 07c6 74       		.sleb128 -12
 3242 07c7 13       		.uleb128 0x13
 3243 07c8 67010000 		.4byte	.LASF62
 3244 07cc 01       		.byte	0x1
 3245 07cd 0602     		.2byte	0x206
 3246 07cf 2C010000 		.4byte	0x12c
 3247 07d3 02       		.byte	0x2
 3248 07d4 91       		.byte	0x91
 3249 07d5 73       		.sleb128 -13
 3250 07d6 00       		.byte	0
 3251 07d7 12       		.uleb128 0x12
 3252 07d8 01       		.byte	0x1
 3253 07d9 86050000 		.4byte	.LASF82
 3254 07dd 01       		.byte	0x1
 3255 07de F301     		.2byte	0x1f3
 3256 07e0 01       		.byte	0x1
 3257 07e1 2E040000 		.4byte	.LFB38
 3258 07e5 64040000 		.4byte	.LFE38
 3259 07e9 D4060000 		.4byte	.LLST9
 3260 07ed 01       		.byte	0x1
 3261 07ee 11080000 		.4byte	0x811
 3262 07f2 13       		.uleb128 0x13
ARM GAS  G:\Users\Jaxb\AppData\Local\Temp\ccWNHqDV.s 			page 77


 3263 07f3 77030000 		.4byte	.LASF50
 3264 07f7 01       		.byte	0x1
 3265 07f8 F301     		.2byte	0x1f3
 3266 07fa 84030000 		.4byte	0x384
 3267 07fe 02       		.byte	0x2
 3268 07ff 91       		.byte	0x91
 3269 0800 74       		.sleb128 -12
 3270 0801 13       		.uleb128 0x13
 3271 0802 3F010000 		.4byte	.LASF83
 3272 0806 01       		.byte	0x1
 3273 0807 F301     		.2byte	0x1f3
 3274 0809 9C000000 		.4byte	0x9c
 3275 080d 02       		.byte	0x2
 3276 080e 91       		.byte	0x91
 3277 080f 72       		.sleb128 -14
 3278 0810 00       		.byte	0
 3279 0811 12       		.uleb128 0x12
 3280 0812 01       		.byte	0x1
 3281 0813 DA020000 		.4byte	.LASF84
 3282 0817 01       		.byte	0x1
 3283 0818 DC01     		.2byte	0x1dc
 3284 081a 01       		.byte	0x1
 3285 081b F6030000 		.4byte	.LFB37
 3286 081f 2E040000 		.4byte	.LFE37
 3287 0823 30070000 		.4byte	.LLST8
 3288 0827 01       		.byte	0x1
 3289 0828 4B080000 		.4byte	0x84b
 3290 082c 13       		.uleb128 0x13
 3291 082d 77030000 		.4byte	.LASF50
 3292 0831 01       		.byte	0x1
 3293 0832 DC01     		.2byte	0x1dc
 3294 0834 84030000 		.4byte	0x384
 3295 0838 02       		.byte	0x2
 3296 0839 91       		.byte	0x91
 3297 083a 74       		.sleb128 -12
 3298 083b 13       		.uleb128 0x13
 3299 083c BB030000 		.4byte	.LASF85
 3300 0840 01       		.byte	0x1
 3301 0841 DC01     		.2byte	0x1dc
 3302 0843 91000000 		.4byte	0x91
 3303 0847 02       		.byte	0x2
 3304 0848 91       		.byte	0x91
 3305 0849 73       		.sleb128 -13
 3306 084a 00       		.byte	0
 3307 084b 12       		.uleb128 0x12
 3308 084c 01       		.byte	0x1
 3309 084d 70010000 		.4byte	.LASF86
 3310 0851 01       		.byte	0x1
 3311 0852 C001     		.2byte	0x1c0
 3312 0854 01       		.byte	0x1
 3313 0855 B0030000 		.4byte	.LFB36
 3314 0859 F6030000 		.4byte	.LFE36
 3315 085d 8C070000 		.4byte	.LLST7
 3316 0861 01       		.byte	0x1
 3317 0862 94080000 		.4byte	0x894
 3318 0866 13       		.uleb128 0x13
 3319 0867 77030000 		.4byte	.LASF50
ARM GAS  G:\Users\Jaxb\AppData\Local\Temp\ccWNHqDV.s 			page 78


 3320 086b 01       		.byte	0x1
 3321 086c C001     		.2byte	0x1c0
 3322 086e 84030000 		.4byte	0x384
 3323 0872 02       		.byte	0x2
 3324 0873 91       		.byte	0x91
 3325 0874 74       		.sleb128 -12
 3326 0875 13       		.uleb128 0x13
 3327 0876 8E020000 		.4byte	.LASF87
 3328 087a 01       		.byte	0x1
 3329 087b C001     		.2byte	0x1c0
 3330 087d 9C000000 		.4byte	0x9c
 3331 0881 02       		.byte	0x2
 3332 0882 91       		.byte	0x91
 3333 0883 72       		.sleb128 -14
 3334 0884 13       		.uleb128 0x13
 3335 0885 67010000 		.4byte	.LASF62
 3336 0889 01       		.byte	0x1
 3337 088a C001     		.2byte	0x1c0
 3338 088c 2C010000 		.4byte	0x12c
 3339 0890 02       		.byte	0x2
 3340 0891 91       		.byte	0x91
 3341 0892 71       		.sleb128 -15
 3342 0893 00       		.byte	0
 3343 0894 12       		.uleb128 0x12
 3344 0895 01       		.byte	0x1
 3345 0896 68030000 		.4byte	.LASF88
 3346 089a 01       		.byte	0x1
 3347 089b 8401     		.2byte	0x184
 3348 089d 01       		.byte	0x1
 3349 089e 22030000 		.4byte	.LFB35
 3350 08a2 B0030000 		.4byte	.LFE35
 3351 08a6 E8070000 		.4byte	.LLST6
 3352 08aa 01       		.byte	0x1
 3353 08ab 19090000 		.4byte	0x919
 3354 08af 13       		.uleb128 0x13
 3355 08b0 77030000 		.4byte	.LASF50
 3356 08b4 01       		.byte	0x1
 3357 08b5 8401     		.2byte	0x184
 3358 08b7 84030000 		.4byte	0x384
 3359 08bb 02       		.byte	0x2
 3360 08bc 91       		.byte	0x91
 3361 08bd 64       		.sleb128 -28
 3362 08be 13       		.uleb128 0x13
 3363 08bf 4E050000 		.4byte	.LASF51
 3364 08c3 01       		.byte	0x1
 3365 08c4 8401     		.2byte	0x184
 3366 08c6 9C000000 		.4byte	0x9c
 3367 08ca 02       		.byte	0x2
 3368 08cb 91       		.byte	0x91
 3369 08cc 62       		.sleb128 -30
 3370 08cd 13       		.uleb128 0x13
 3371 08ce 67010000 		.4byte	.LASF62
 3372 08d2 01       		.byte	0x1
 3373 08d3 8401     		.2byte	0x184
 3374 08d5 2C010000 		.4byte	0x12c
 3375 08d9 02       		.byte	0x2
 3376 08da 91       		.byte	0x91
ARM GAS  G:\Users\Jaxb\AppData\Local\Temp\ccWNHqDV.s 			page 79


 3377 08db 61       		.sleb128 -31
 3378 08dc 14       		.uleb128 0x14
 3379 08dd A4060000 		.4byte	.LASF54
 3380 08e1 01       		.byte	0x1
 3381 08e2 8601     		.2byte	0x186
 3382 08e4 AC000000 		.4byte	0xac
 3383 08e8 02       		.byte	0x2
 3384 08e9 91       		.byte	0x91
 3385 08ea 70       		.sleb128 -16
 3386 08eb 14       		.uleb128 0x14
 3387 08ec 28000000 		.4byte	.LASF89
 3388 08f0 01       		.byte	0x1
 3389 08f1 8601     		.2byte	0x186
 3390 08f3 AC000000 		.4byte	0xac
 3391 08f7 02       		.byte	0x2
 3392 08f8 91       		.byte	0x91
 3393 08f9 6C       		.sleb128 -20
 3394 08fa 14       		.uleb128 0x14
 3395 08fb 7B060000 		.4byte	.LASF53
 3396 08ff 01       		.byte	0x1
 3397 0900 8601     		.2byte	0x186
 3398 0902 AC000000 		.4byte	0xac
 3399 0906 02       		.byte	0x2
 3400 0907 91       		.byte	0x91
 3401 0908 68       		.sleb128 -24
 3402 0909 14       		.uleb128 0x14
 3403 090a BF020000 		.4byte	.LASF90
 3404 090e 01       		.byte	0x1
 3405 090f 8701     		.2byte	0x187
 3406 0911 AC000000 		.4byte	0xac
 3407 0915 02       		.byte	0x2
 3408 0916 91       		.byte	0x91
 3409 0917 74       		.sleb128 -12
 3410 0918 00       		.byte	0
 3411 0919 12       		.uleb128 0x12
 3412 091a 01       		.byte	0x1
 3413 091b E5000000 		.4byte	.LASF91
 3414 091f 01       		.byte	0x1
 3415 0920 5F01     		.2byte	0x15f
 3416 0922 01       		.byte	0x1
 3417 0923 E4020000 		.4byte	.LFB34
 3418 0927 22030000 		.4byte	.LFE34
 3419 092b 44080000 		.4byte	.LLST5
 3420 092f 01       		.byte	0x1
 3421 0930 53090000 		.4byte	0x953
 3422 0934 13       		.uleb128 0x13
 3423 0935 77030000 		.4byte	.LASF50
 3424 0939 01       		.byte	0x1
 3425 093a 5F01     		.2byte	0x15f
 3426 093c 84030000 		.4byte	0x384
 3427 0940 02       		.byte	0x2
 3428 0941 91       		.byte	0x91
 3429 0942 74       		.sleb128 -12
 3430 0943 13       		.uleb128 0x13
 3431 0944 67010000 		.4byte	.LASF62
 3432 0948 01       		.byte	0x1
 3433 0949 5F01     		.2byte	0x15f
ARM GAS  G:\Users\Jaxb\AppData\Local\Temp\ccWNHqDV.s 			page 80


 3434 094b 2C010000 		.4byte	0x12c
 3435 094f 02       		.byte	0x2
 3436 0950 91       		.byte	0x91
 3437 0951 73       		.sleb128 -13
 3438 0952 00       		.byte	0
 3439 0953 12       		.uleb128 0x12
 3440 0954 01       		.byte	0x1
 3441 0955 9B020000 		.4byte	.LASF92
 3442 0959 01       		.byte	0x1
 3443 095a 4D01     		.2byte	0x14d
 3444 095c 01       		.byte	0x1
 3445 095d BA020000 		.4byte	.LFB33
 3446 0961 E4020000 		.4byte	.LFE33
 3447 0965 A0080000 		.4byte	.LLST4
 3448 0969 01       		.byte	0x1
 3449 096a 7E090000 		.4byte	0x97e
 3450 096e 13       		.uleb128 0x13
 3451 096f 6C020000 		.4byte	.LASF93
 3452 0973 01       		.byte	0x1
 3453 0974 4D01     		.2byte	0x14d
 3454 0976 7E090000 		.4byte	0x97e
 3455 097a 02       		.byte	0x2
 3456 097b 91       		.byte	0x91
 3457 097c 74       		.sleb128 -12
 3458 097d 00       		.byte	0
 3459 097e 15       		.uleb128 0x15
 3460 097f 04       		.byte	0x4
 3461 0980 21030000 		.4byte	0x321
 3462 0984 12       		.uleb128 0x12
 3463 0985 01       		.byte	0x1
 3464 0986 76050000 		.4byte	.LASF94
 3465 098a 01       		.byte	0x1
 3466 098b 2E01     		.2byte	0x12e
 3467 098d 01       		.byte	0x1
 3468 098e 64020000 		.4byte	.LFB32
 3469 0992 BA020000 		.4byte	.LFE32
 3470 0996 FC080000 		.4byte	.LLST3
 3471 099a 01       		.byte	0x1
 3472 099b CD090000 		.4byte	0x9cd
 3473 099f 13       		.uleb128 0x13
 3474 09a0 77030000 		.4byte	.LASF50
 3475 09a4 01       		.byte	0x1
 3476 09a5 2E01     		.2byte	0x12e
 3477 09a7 84030000 		.4byte	0x384
 3478 09ab 02       		.byte	0x2
 3479 09ac 91       		.byte	0x91
 3480 09ad 6C       		.sleb128 -20
 3481 09ae 13       		.uleb128 0x13
 3482 09af 6C020000 		.4byte	.LASF93
 3483 09b3 01       		.byte	0x1
 3484 09b4 2E01     		.2byte	0x12e
 3485 09b6 7E090000 		.4byte	0x97e
 3486 09ba 02       		.byte	0x2
 3487 09bb 91       		.byte	0x91
 3488 09bc 68       		.sleb128 -24
 3489 09bd 14       		.uleb128 0x14
 3490 09be 87020000 		.4byte	.LASF95
ARM GAS  G:\Users\Jaxb\AppData\Local\Temp\ccWNHqDV.s 			page 81


 3491 09c2 01       		.byte	0x1
 3492 09c3 3001     		.2byte	0x130
 3493 09c5 AC000000 		.4byte	0xac
 3494 09c9 02       		.byte	0x2
 3495 09ca 91       		.byte	0x91
 3496 09cb 74       		.sleb128 -12
 3497 09cc 00       		.byte	0
 3498 09cd 12       		.uleb128 0x12
 3499 09ce 01       		.byte	0x1
 3500 09cf BE060000 		.4byte	.LASF96
 3501 09d3 01       		.byte	0x1
 3502 09d4 1901     		.2byte	0x119
 3503 09d6 01       		.byte	0x1
 3504 09d7 2C020000 		.4byte	.LFB31
 3505 09db 64020000 		.4byte	.LFE31
 3506 09df 58090000 		.4byte	.LLST2
 3507 09e3 01       		.byte	0x1
 3508 09e4 F8090000 		.4byte	0x9f8
 3509 09e8 13       		.uleb128 0x13
 3510 09e9 AA030000 		.4byte	.LASF97
 3511 09ed 01       		.byte	0x1
 3512 09ee 1901     		.2byte	0x119
 3513 09f0 F8090000 		.4byte	0x9f8
 3514 09f4 02       		.byte	0x2
 3515 09f5 91       		.byte	0x91
 3516 09f6 74       		.sleb128 -12
 3517 09f7 00       		.byte	0
 3518 09f8 15       		.uleb128 0x15
 3519 09f9 04       		.byte	0x4
 3520 09fa D5020000 		.4byte	0x2d5
 3521 09fe 17       		.uleb128 0x17
 3522 09ff 01       		.byte	0x1
 3523 0a00 41000000 		.4byte	.LASF98
 3524 0a04 01       		.byte	0x1
 3525 0a05 B0       		.byte	0xb0
 3526 0a06 01       		.byte	0x1
 3527 0a07 B8000000 		.4byte	.LFB30
 3528 0a0b 2C020000 		.4byte	.LFE30
 3529 0a0f B4090000 		.4byte	.LLST1
 3530 0a13 01       		.byte	0x1
 3531 0a14 890A0000 		.4byte	0xa89
 3532 0a18 18       		.uleb128 0x18
 3533 0a19 77030000 		.4byte	.LASF50
 3534 0a1d 01       		.byte	0x1
 3535 0a1e B0       		.byte	0xb0
 3536 0a1f 84030000 		.4byte	0x384
 3537 0a23 02       		.byte	0x2
 3538 0a24 91       		.byte	0x91
 3539 0a25 4C       		.sleb128 -52
 3540 0a26 18       		.uleb128 0x18
 3541 0a27 AA030000 		.4byte	.LASF97
 3542 0a2b 01       		.byte	0x1
 3543 0a2c B0       		.byte	0xb0
 3544 0a2d F8090000 		.4byte	0x9f8
 3545 0a31 02       		.byte	0x2
 3546 0a32 91       		.byte	0x91
 3547 0a33 48       		.sleb128 -56
ARM GAS  G:\Users\Jaxb\AppData\Local\Temp\ccWNHqDV.s 			page 82


 3548 0a34 19       		.uleb128 0x19
 3549 0a35 87020000 		.4byte	.LASF95
 3550 0a39 01       		.byte	0x1
 3551 0a3a B2       		.byte	0xb2
 3552 0a3b AC000000 		.4byte	0xac
 3553 0a3f 02       		.byte	0x2
 3554 0a40 91       		.byte	0x91
 3555 0a41 74       		.sleb128 -12
 3556 0a42 19       		.uleb128 0x19
 3557 0a43 BD010000 		.4byte	.LASF99
 3558 0a47 01       		.byte	0x1
 3559 0a48 B2       		.byte	0xb2
 3560 0a49 AC000000 		.4byte	0xac
 3561 0a4d 02       		.byte	0x2
 3562 0a4e 91       		.byte	0x91
 3563 0a4f 70       		.sleb128 -16
 3564 0a50 19       		.uleb128 0x19
 3565 0a51 00000000 		.4byte	.LASF100
 3566 0a55 01       		.byte	0x1
 3567 0a56 B3       		.byte	0xb3
 3568 0a57 AC000000 		.4byte	0xac
 3569 0a5b 02       		.byte	0x2
 3570 0a5c 91       		.byte	0x91
 3571 0a5d 6C       		.sleb128 -20
 3572 0a5e 19       		.uleb128 0x19
 3573 0a5f D3040000 		.4byte	.LASF101
 3574 0a63 01       		.byte	0x1
 3575 0a64 B4       		.byte	0xb4
 3576 0a65 AC000000 		.4byte	0xac
 3577 0a69 02       		.byte	0x2
 3578 0a6a 91       		.byte	0x91
 3579 0a6b 68       		.sleb128 -24
 3580 0a6c 19       		.uleb128 0x19
 3581 0a6d BF020000 		.4byte	.LASF90
 3582 0a71 01       		.byte	0x1
 3583 0a72 B5       		.byte	0xb5
 3584 0a73 AC000000 		.4byte	0xac
 3585 0a77 02       		.byte	0x2
 3586 0a78 91       		.byte	0x91
 3587 0a79 64       		.sleb128 -28
 3588 0a7a 19       		.uleb128 0x19
 3589 0a7b 5D050000 		.4byte	.LASF102
 3590 0a7f 01       		.byte	0x1
 3591 0a80 B6       		.byte	0xb6
 3592 0a81 6D020000 		.4byte	0x26d
 3593 0a85 02       		.byte	0x2
 3594 0a86 91       		.byte	0x91
 3595 0a87 50       		.sleb128 -48
 3596 0a88 00       		.byte	0
 3597 0a89 1A       		.uleb128 0x1a
 3598 0a8a 01       		.byte	0x1
 3599 0a8b 5F020000 		.4byte	.LASF106
 3600 0a8f 01       		.byte	0x1
 3601 0a90 82       		.byte	0x82
 3602 0a91 01       		.byte	0x1
 3603 0a92 00000000 		.4byte	.LFB29
 3604 0a96 B8000000 		.4byte	.LFE29
ARM GAS  G:\Users\Jaxb\AppData\Local\Temp\ccWNHqDV.s 			page 83


 3605 0a9a 040A0000 		.4byte	.LLST0
 3606 0a9e 01       		.byte	0x1
 3607 0a9f 18       		.uleb128 0x18
 3608 0aa0 77030000 		.4byte	.LASF50
 3609 0aa4 01       		.byte	0x1
 3610 0aa5 82       		.byte	0x82
 3611 0aa6 84030000 		.4byte	0x384
 3612 0aaa 02       		.byte	0x2
 3613 0aab 91       		.byte	0x91
 3614 0aac 74       		.sleb128 -12
 3615 0aad 00       		.byte	0
 3616 0aae 00       		.byte	0
 3617              		.section	.debug_abbrev,"",%progbits
 3618              	.Ldebug_abbrev0:
 3619 0000 01       		.uleb128 0x1
 3620 0001 11       		.uleb128 0x11
 3621 0002 01       		.byte	0x1
 3622 0003 25       		.uleb128 0x25
 3623 0004 0E       		.uleb128 0xe
 3624 0005 13       		.uleb128 0x13
 3625 0006 0B       		.uleb128 0xb
 3626 0007 03       		.uleb128 0x3
 3627 0008 0E       		.uleb128 0xe
 3628 0009 1B       		.uleb128 0x1b
 3629 000a 0E       		.uleb128 0xe
 3630 000b 11       		.uleb128 0x11
 3631 000c 01       		.uleb128 0x1
 3632 000d 12       		.uleb128 0x12
 3633 000e 01       		.uleb128 0x1
 3634 000f 10       		.uleb128 0x10
 3635 0010 06       		.uleb128 0x6
 3636 0011 00       		.byte	0
 3637 0012 00       		.byte	0
 3638 0013 02       		.uleb128 0x2
 3639 0014 24       		.uleb128 0x24
 3640 0015 00       		.byte	0
 3641 0016 0B       		.uleb128 0xb
 3642 0017 0B       		.uleb128 0xb
 3643 0018 3E       		.uleb128 0x3e
 3644 0019 0B       		.uleb128 0xb
 3645 001a 03       		.uleb128 0x3
 3646 001b 0E       		.uleb128 0xe
 3647 001c 00       		.byte	0
 3648 001d 00       		.byte	0
 3649 001e 03       		.uleb128 0x3
 3650 001f 16       		.uleb128 0x16
 3651 0020 00       		.byte	0
 3652 0021 03       		.uleb128 0x3
 3653 0022 0E       		.uleb128 0xe
 3654 0023 3A       		.uleb128 0x3a
 3655 0024 0B       		.uleb128 0xb
 3656 0025 3B       		.uleb128 0x3b
 3657 0026 0B       		.uleb128 0xb
 3658 0027 49       		.uleb128 0x49
 3659 0028 13       		.uleb128 0x13
 3660 0029 00       		.byte	0
 3661 002a 00       		.byte	0
ARM GAS  G:\Users\Jaxb\AppData\Local\Temp\ccWNHqDV.s 			page 84


 3662 002b 04       		.uleb128 0x4
 3663 002c 24       		.uleb128 0x24
 3664 002d 00       		.byte	0
 3665 002e 0B       		.uleb128 0xb
 3666 002f 0B       		.uleb128 0xb
 3667 0030 3E       		.uleb128 0x3e
 3668 0031 0B       		.uleb128 0xb
 3669 0032 03       		.uleb128 0x3
 3670 0033 08       		.uleb128 0x8
 3671 0034 00       		.byte	0
 3672 0035 00       		.byte	0
 3673 0036 05       		.uleb128 0x5
 3674 0037 35       		.uleb128 0x35
 3675 0038 00       		.byte	0
 3676 0039 49       		.uleb128 0x49
 3677 003a 13       		.uleb128 0x13
 3678 003b 00       		.byte	0
 3679 003c 00       		.byte	0
 3680 003d 06       		.uleb128 0x6
 3681 003e 34       		.uleb128 0x34
 3682 003f 00       		.byte	0
 3683 0040 03       		.uleb128 0x3
 3684 0041 0E       		.uleb128 0xe
 3685 0042 3A       		.uleb128 0x3a
 3686 0043 0B       		.uleb128 0xb
 3687 0044 3B       		.uleb128 0x3b
 3688 0045 05       		.uleb128 0x5
 3689 0046 49       		.uleb128 0x49
 3690 0047 13       		.uleb128 0x13
 3691 0048 3F       		.uleb128 0x3f
 3692 0049 0C       		.uleb128 0xc
 3693 004a 3C       		.uleb128 0x3c
 3694 004b 0C       		.uleb128 0xc
 3695 004c 00       		.byte	0
 3696 004d 00       		.byte	0
 3697 004e 07       		.uleb128 0x7
 3698 004f 34       		.uleb128 0x34
 3699 0050 00       		.byte	0
 3700 0051 03       		.uleb128 0x3
 3701 0052 0E       		.uleb128 0xe
 3702 0053 3A       		.uleb128 0x3a
 3703 0054 0B       		.uleb128 0xb
 3704 0055 3B       		.uleb128 0x3b
 3705 0056 0B       		.uleb128 0xb
 3706 0057 49       		.uleb128 0x49
 3707 0058 13       		.uleb128 0x13
 3708 0059 3F       		.uleb128 0x3f
 3709 005a 0C       		.uleb128 0xc
 3710 005b 3C       		.uleb128 0x3c
 3711 005c 0C       		.uleb128 0xc
 3712 005d 00       		.byte	0
 3713 005e 00       		.byte	0
 3714 005f 08       		.uleb128 0x8
 3715 0060 16       		.uleb128 0x16
 3716 0061 00       		.byte	0
 3717 0062 03       		.uleb128 0x3
 3718 0063 08       		.uleb128 0x8
ARM GAS  G:\Users\Jaxb\AppData\Local\Temp\ccWNHqDV.s 			page 85


 3719 0064 3A       		.uleb128 0x3a
 3720 0065 0B       		.uleb128 0xb
 3721 0066 3B       		.uleb128 0x3b
 3722 0067 05       		.uleb128 0x5
 3723 0068 49       		.uleb128 0x49
 3724 0069 13       		.uleb128 0x13
 3725 006a 00       		.byte	0
 3726 006b 00       		.byte	0
 3727 006c 09       		.uleb128 0x9
 3728 006d 04       		.uleb128 0x4
 3729 006e 01       		.byte	0x1
 3730 006f 3E       		.uleb128 0x3e
 3731 0070 0B       		.uleb128 0xb
 3732 0071 0B       		.uleb128 0xb
 3733 0072 0B       		.uleb128 0xb
 3734 0073 49       		.uleb128 0x49
 3735 0074 13       		.uleb128 0x13
 3736 0075 3A       		.uleb128 0x3a
 3737 0076 0B       		.uleb128 0xb
 3738 0077 3B       		.uleb128 0x3b
 3739 0078 05       		.uleb128 0x5
 3740 0079 01       		.uleb128 0x1
 3741 007a 13       		.uleb128 0x13
 3742 007b 00       		.byte	0
 3743 007c 00       		.byte	0
 3744 007d 0A       		.uleb128 0xa
 3745 007e 28       		.uleb128 0x28
 3746 007f 00       		.byte	0
 3747 0080 03       		.uleb128 0x3
 3748 0081 0E       		.uleb128 0xe
 3749 0082 1C       		.uleb128 0x1c
 3750 0083 0B       		.uleb128 0xb
 3751 0084 00       		.byte	0
 3752 0085 00       		.byte	0
 3753 0086 0B       		.uleb128 0xb
 3754 0087 28       		.uleb128 0x28
 3755 0088 00       		.byte	0
 3756 0089 03       		.uleb128 0x3
 3757 008a 08       		.uleb128 0x8
 3758 008b 1C       		.uleb128 0x1c
 3759 008c 0B       		.uleb128 0xb
 3760 008d 00       		.byte	0
 3761 008e 00       		.byte	0
 3762 008f 0C       		.uleb128 0xc
 3763 0090 16       		.uleb128 0x16
 3764 0091 00       		.byte	0
 3765 0092 03       		.uleb128 0x3
 3766 0093 0E       		.uleb128 0xe
 3767 0094 3A       		.uleb128 0x3a
 3768 0095 0B       		.uleb128 0xb
 3769 0096 3B       		.uleb128 0x3b
 3770 0097 05       		.uleb128 0x5
 3771 0098 49       		.uleb128 0x49
 3772 0099 13       		.uleb128 0x13
 3773 009a 00       		.byte	0
 3774 009b 00       		.byte	0
 3775 009c 0D       		.uleb128 0xd
ARM GAS  G:\Users\Jaxb\AppData\Local\Temp\ccWNHqDV.s 			page 86


 3776 009d 13       		.uleb128 0x13
 3777 009e 01       		.byte	0x1
 3778 009f 0B       		.uleb128 0xb
 3779 00a0 0B       		.uleb128 0xb
 3780 00a1 3A       		.uleb128 0x3a
 3781 00a2 0B       		.uleb128 0xb
 3782 00a3 3B       		.uleb128 0x3b
 3783 00a4 05       		.uleb128 0x5
 3784 00a5 01       		.uleb128 0x1
 3785 00a6 13       		.uleb128 0x13
 3786 00a7 00       		.byte	0
 3787 00a8 00       		.byte	0
 3788 00a9 0E       		.uleb128 0xe
 3789 00aa 0D       		.uleb128 0xd
 3790 00ab 00       		.byte	0
 3791 00ac 03       		.uleb128 0x3
 3792 00ad 08       		.uleb128 0x8
 3793 00ae 3A       		.uleb128 0x3a
 3794 00af 0B       		.uleb128 0xb
 3795 00b0 3B       		.uleb128 0x3b
 3796 00b1 05       		.uleb128 0x5
 3797 00b2 49       		.uleb128 0x49
 3798 00b3 13       		.uleb128 0x13
 3799 00b4 38       		.uleb128 0x38
 3800 00b5 0A       		.uleb128 0xa
 3801 00b6 00       		.byte	0
 3802 00b7 00       		.byte	0
 3803 00b8 0F       		.uleb128 0xf
 3804 00b9 0D       		.uleb128 0xd
 3805 00ba 00       		.byte	0
 3806 00bb 03       		.uleb128 0x3
 3807 00bc 0E       		.uleb128 0xe
 3808 00bd 3A       		.uleb128 0x3a
 3809 00be 0B       		.uleb128 0xb
 3810 00bf 3B       		.uleb128 0x3b
 3811 00c0 05       		.uleb128 0x5
 3812 00c1 49       		.uleb128 0x49
 3813 00c2 13       		.uleb128 0x13
 3814 00c3 38       		.uleb128 0x38
 3815 00c4 0A       		.uleb128 0xa
 3816 00c5 00       		.byte	0
 3817 00c6 00       		.byte	0
 3818 00c7 10       		.uleb128 0x10
 3819 00c8 13       		.uleb128 0x13
 3820 00c9 01       		.byte	0x1
 3821 00ca 0B       		.uleb128 0xb
 3822 00cb 0B       		.uleb128 0xb
 3823 00cc 3A       		.uleb128 0x3a
 3824 00cd 0B       		.uleb128 0xb
 3825 00ce 3B       		.uleb128 0x3b
 3826 00cf 0B       		.uleb128 0xb
 3827 00d0 01       		.uleb128 0x1
 3828 00d1 13       		.uleb128 0x13
 3829 00d2 00       		.byte	0
 3830 00d3 00       		.byte	0
 3831 00d4 11       		.uleb128 0x11
 3832 00d5 0D       		.uleb128 0xd
ARM GAS  G:\Users\Jaxb\AppData\Local\Temp\ccWNHqDV.s 			page 87


 3833 00d6 00       		.byte	0
 3834 00d7 03       		.uleb128 0x3
 3835 00d8 0E       		.uleb128 0xe
 3836 00d9 3A       		.uleb128 0x3a
 3837 00da 0B       		.uleb128 0xb
 3838 00db 3B       		.uleb128 0x3b
 3839 00dc 0B       		.uleb128 0xb
 3840 00dd 49       		.uleb128 0x49
 3841 00de 13       		.uleb128 0x13
 3842 00df 38       		.uleb128 0x38
 3843 00e0 0A       		.uleb128 0xa
 3844 00e1 00       		.byte	0
 3845 00e2 00       		.byte	0
 3846 00e3 12       		.uleb128 0x12
 3847 00e4 2E       		.uleb128 0x2e
 3848 00e5 01       		.byte	0x1
 3849 00e6 3F       		.uleb128 0x3f
 3850 00e7 0C       		.uleb128 0xc
 3851 00e8 03       		.uleb128 0x3
 3852 00e9 0E       		.uleb128 0xe
 3853 00ea 3A       		.uleb128 0x3a
 3854 00eb 0B       		.uleb128 0xb
 3855 00ec 3B       		.uleb128 0x3b
 3856 00ed 05       		.uleb128 0x5
 3857 00ee 27       		.uleb128 0x27
 3858 00ef 0C       		.uleb128 0xc
 3859 00f0 11       		.uleb128 0x11
 3860 00f1 01       		.uleb128 0x1
 3861 00f2 12       		.uleb128 0x12
 3862 00f3 01       		.uleb128 0x1
 3863 00f4 40       		.uleb128 0x40
 3864 00f5 06       		.uleb128 0x6
 3865 00f6 9742     		.uleb128 0x2117
 3866 00f8 0C       		.uleb128 0xc
 3867 00f9 01       		.uleb128 0x1
 3868 00fa 13       		.uleb128 0x13
 3869 00fb 00       		.byte	0
 3870 00fc 00       		.byte	0
 3871 00fd 13       		.uleb128 0x13
 3872 00fe 05       		.uleb128 0x5
 3873 00ff 00       		.byte	0
 3874 0100 03       		.uleb128 0x3
 3875 0101 0E       		.uleb128 0xe
 3876 0102 3A       		.uleb128 0x3a
 3877 0103 0B       		.uleb128 0xb
 3878 0104 3B       		.uleb128 0x3b
 3879 0105 05       		.uleb128 0x5
 3880 0106 49       		.uleb128 0x49
 3881 0107 13       		.uleb128 0x13
 3882 0108 02       		.uleb128 0x2
 3883 0109 0A       		.uleb128 0xa
 3884 010a 00       		.byte	0
 3885 010b 00       		.byte	0
 3886 010c 14       		.uleb128 0x14
 3887 010d 34       		.uleb128 0x34
 3888 010e 00       		.byte	0
 3889 010f 03       		.uleb128 0x3
ARM GAS  G:\Users\Jaxb\AppData\Local\Temp\ccWNHqDV.s 			page 88


 3890 0110 0E       		.uleb128 0xe
 3891 0111 3A       		.uleb128 0x3a
 3892 0112 0B       		.uleb128 0xb
 3893 0113 3B       		.uleb128 0x3b
 3894 0114 05       		.uleb128 0x5
 3895 0115 49       		.uleb128 0x49
 3896 0116 13       		.uleb128 0x13
 3897 0117 02       		.uleb128 0x2
 3898 0118 0A       		.uleb128 0xa
 3899 0119 00       		.byte	0
 3900 011a 00       		.byte	0
 3901 011b 15       		.uleb128 0x15
 3902 011c 0F       		.uleb128 0xf
 3903 011d 00       		.byte	0
 3904 011e 0B       		.uleb128 0xb
 3905 011f 0B       		.uleb128 0xb
 3906 0120 49       		.uleb128 0x49
 3907 0121 13       		.uleb128 0x13
 3908 0122 00       		.byte	0
 3909 0123 00       		.byte	0
 3910 0124 16       		.uleb128 0x16
 3911 0125 2E       		.uleb128 0x2e
 3912 0126 01       		.byte	0x1
 3913 0127 3F       		.uleb128 0x3f
 3914 0128 0C       		.uleb128 0xc
 3915 0129 03       		.uleb128 0x3
 3916 012a 0E       		.uleb128 0xe
 3917 012b 3A       		.uleb128 0x3a
 3918 012c 0B       		.uleb128 0xb
 3919 012d 3B       		.uleb128 0x3b
 3920 012e 05       		.uleb128 0x5
 3921 012f 27       		.uleb128 0x27
 3922 0130 0C       		.uleb128 0xc
 3923 0131 49       		.uleb128 0x49
 3924 0132 13       		.uleb128 0x13
 3925 0133 11       		.uleb128 0x11
 3926 0134 01       		.uleb128 0x1
 3927 0135 12       		.uleb128 0x12
 3928 0136 01       		.uleb128 0x1
 3929 0137 40       		.uleb128 0x40
 3930 0138 06       		.uleb128 0x6
 3931 0139 9742     		.uleb128 0x2117
 3932 013b 0C       		.uleb128 0xc
 3933 013c 01       		.uleb128 0x1
 3934 013d 13       		.uleb128 0x13
 3935 013e 00       		.byte	0
 3936 013f 00       		.byte	0
 3937 0140 17       		.uleb128 0x17
 3938 0141 2E       		.uleb128 0x2e
 3939 0142 01       		.byte	0x1
 3940 0143 3F       		.uleb128 0x3f
 3941 0144 0C       		.uleb128 0xc
 3942 0145 03       		.uleb128 0x3
 3943 0146 0E       		.uleb128 0xe
 3944 0147 3A       		.uleb128 0x3a
 3945 0148 0B       		.uleb128 0xb
 3946 0149 3B       		.uleb128 0x3b
ARM GAS  G:\Users\Jaxb\AppData\Local\Temp\ccWNHqDV.s 			page 89


 3947 014a 0B       		.uleb128 0xb
 3948 014b 27       		.uleb128 0x27
 3949 014c 0C       		.uleb128 0xc
 3950 014d 11       		.uleb128 0x11
 3951 014e 01       		.uleb128 0x1
 3952 014f 12       		.uleb128 0x12
 3953 0150 01       		.uleb128 0x1
 3954 0151 40       		.uleb128 0x40
 3955 0152 06       		.uleb128 0x6
 3956 0153 9642     		.uleb128 0x2116
 3957 0155 0C       		.uleb128 0xc
 3958 0156 01       		.uleb128 0x1
 3959 0157 13       		.uleb128 0x13
 3960 0158 00       		.byte	0
 3961 0159 00       		.byte	0
 3962 015a 18       		.uleb128 0x18
 3963 015b 05       		.uleb128 0x5
 3964 015c 00       		.byte	0
 3965 015d 03       		.uleb128 0x3
 3966 015e 0E       		.uleb128 0xe
 3967 015f 3A       		.uleb128 0x3a
 3968 0160 0B       		.uleb128 0xb
 3969 0161 3B       		.uleb128 0x3b
 3970 0162 0B       		.uleb128 0xb
 3971 0163 49       		.uleb128 0x49
 3972 0164 13       		.uleb128 0x13
 3973 0165 02       		.uleb128 0x2
 3974 0166 0A       		.uleb128 0xa
 3975 0167 00       		.byte	0
 3976 0168 00       		.byte	0
 3977 0169 19       		.uleb128 0x19
 3978 016a 34       		.uleb128 0x34
 3979 016b 00       		.byte	0
 3980 016c 03       		.uleb128 0x3
 3981 016d 0E       		.uleb128 0xe
 3982 016e 3A       		.uleb128 0x3a
 3983 016f 0B       		.uleb128 0xb
 3984 0170 3B       		.uleb128 0x3b
 3985 0171 0B       		.uleb128 0xb
 3986 0172 49       		.uleb128 0x49
 3987 0173 13       		.uleb128 0x13
 3988 0174 02       		.uleb128 0x2
 3989 0175 0A       		.uleb128 0xa
 3990 0176 00       		.byte	0
 3991 0177 00       		.byte	0
 3992 0178 1A       		.uleb128 0x1a
 3993 0179 2E       		.uleb128 0x2e
 3994 017a 01       		.byte	0x1
 3995 017b 3F       		.uleb128 0x3f
 3996 017c 0C       		.uleb128 0xc
 3997 017d 03       		.uleb128 0x3
 3998 017e 0E       		.uleb128 0xe
 3999 017f 3A       		.uleb128 0x3a
 4000 0180 0B       		.uleb128 0xb
 4001 0181 3B       		.uleb128 0x3b
 4002 0182 0B       		.uleb128 0xb
 4003 0183 27       		.uleb128 0x27
ARM GAS  G:\Users\Jaxb\AppData\Local\Temp\ccWNHqDV.s 			page 90


 4004 0184 0C       		.uleb128 0xc
 4005 0185 11       		.uleb128 0x11
 4006 0186 01       		.uleb128 0x1
 4007 0187 12       		.uleb128 0x12
 4008 0188 01       		.uleb128 0x1
 4009 0189 40       		.uleb128 0x40
 4010 018a 06       		.uleb128 0x6
 4011 018b 9642     		.uleb128 0x2116
 4012 018d 0C       		.uleb128 0xc
 4013 018e 00       		.byte	0
 4014 018f 00       		.byte	0
 4015 0190 00       		.byte	0
 4016              		.section	.debug_loc,"",%progbits
 4017              	.Ldebug_loc0:
 4018              	.LLST28:
 4019 0000 A2080000 		.4byte	.LFB57-.Ltext0
 4020 0004 A4080000 		.4byte	.LCFI166-.Ltext0
 4021 0008 0200     		.2byte	0x2
 4022 000a 7D       		.byte	0x7d
 4023 000b 00       		.sleb128 0
 4024 000c A4080000 		.4byte	.LCFI166-.Ltext0
 4025 0010 A6080000 		.4byte	.LCFI167-.Ltext0
 4026 0014 0200     		.2byte	0x2
 4027 0016 7D       		.byte	0x7d
 4028 0017 04       		.sleb128 4
 4029 0018 A6080000 		.4byte	.LCFI167-.Ltext0
 4030 001c A8080000 		.4byte	.LCFI168-.Ltext0
 4031 0020 0200     		.2byte	0x2
 4032 0022 7D       		.byte	0x7d
 4033 0023 18       		.sleb128 24
 4034 0024 A8080000 		.4byte	.LCFI168-.Ltext0
 4035 0028 D4080000 		.4byte	.LCFI169-.Ltext0
 4036 002c 0200     		.2byte	0x2
 4037 002e 77       		.byte	0x77
 4038 002f 18       		.sleb128 24
 4039 0030 D4080000 		.4byte	.LCFI169-.Ltext0
 4040 0034 D6080000 		.4byte	.LCFI170-.Ltext0
 4041 0038 0200     		.2byte	0x2
 4042 003a 77       		.byte	0x77
 4043 003b 04       		.sleb128 4
 4044 003c D6080000 		.4byte	.LCFI170-.Ltext0
 4045 0040 D8080000 		.4byte	.LCFI171-.Ltext0
 4046 0044 0200     		.2byte	0x2
 4047 0046 7D       		.byte	0x7d
 4048 0047 04       		.sleb128 4
 4049 0048 D8080000 		.4byte	.LCFI171-.Ltext0
 4050 004c DA080000 		.4byte	.LFE57-.Ltext0
 4051 0050 0200     		.2byte	0x2
 4052 0052 7D       		.byte	0x7d
 4053 0053 00       		.sleb128 0
 4054 0054 00000000 		.4byte	0
 4055 0058 00000000 		.4byte	0
 4056              	.LLST27:
 4057 005c EE070000 		.4byte	.LFB56-.Ltext0
 4058 0060 F0070000 		.4byte	.LCFI160-.Ltext0
 4059 0064 0200     		.2byte	0x2
 4060 0066 7D       		.byte	0x7d
ARM GAS  G:\Users\Jaxb\AppData\Local\Temp\ccWNHqDV.s 			page 91


 4061 0067 00       		.sleb128 0
 4062 0068 F0070000 		.4byte	.LCFI160-.Ltext0
 4063 006c F2070000 		.4byte	.LCFI161-.Ltext0
 4064 0070 0200     		.2byte	0x2
 4065 0072 7D       		.byte	0x7d
 4066 0073 04       		.sleb128 4
 4067 0074 F2070000 		.4byte	.LCFI161-.Ltext0
 4068 0078 F4070000 		.4byte	.LCFI162-.Ltext0
 4069 007c 0200     		.2byte	0x2
 4070 007e 7D       		.byte	0x7d
 4071 007f 20       		.sleb128 32
 4072 0080 F4070000 		.4byte	.LCFI162-.Ltext0
 4073 0084 9C080000 		.4byte	.LCFI163-.Ltext0
 4074 0088 0200     		.2byte	0x2
 4075 008a 77       		.byte	0x77
 4076 008b 20       		.sleb128 32
 4077 008c 9C080000 		.4byte	.LCFI163-.Ltext0
 4078 0090 9E080000 		.4byte	.LCFI164-.Ltext0
 4079 0094 0200     		.2byte	0x2
 4080 0096 77       		.byte	0x77
 4081 0097 04       		.sleb128 4
 4082 0098 9E080000 		.4byte	.LCFI164-.Ltext0
 4083 009c A0080000 		.4byte	.LCFI165-.Ltext0
 4084 00a0 0200     		.2byte	0x2
 4085 00a2 7D       		.byte	0x7d
 4086 00a3 04       		.sleb128 4
 4087 00a4 A0080000 		.4byte	.LCFI165-.Ltext0
 4088 00a8 A2080000 		.4byte	.LFE56-.Ltext0
 4089 00ac 0200     		.2byte	0x2
 4090 00ae 7D       		.byte	0x7d
 4091 00af 00       		.sleb128 0
 4092 00b0 00000000 		.4byte	0
 4093 00b4 00000000 		.4byte	0
 4094              	.LLST26:
 4095 00b8 CE070000 		.4byte	.LFB55-.Ltext0
 4096 00bc D0070000 		.4byte	.LCFI154-.Ltext0
 4097 00c0 0200     		.2byte	0x2
 4098 00c2 7D       		.byte	0x7d
 4099 00c3 00       		.sleb128 0
 4100 00c4 D0070000 		.4byte	.LCFI154-.Ltext0
 4101 00c8 D2070000 		.4byte	.LCFI155-.Ltext0
 4102 00cc 0200     		.2byte	0x2
 4103 00ce 7D       		.byte	0x7d
 4104 00cf 04       		.sleb128 4
 4105 00d0 D2070000 		.4byte	.LCFI155-.Ltext0
 4106 00d4 D4070000 		.4byte	.LCFI156-.Ltext0
 4107 00d8 0200     		.2byte	0x2
 4108 00da 7D       		.byte	0x7d
 4109 00db 10       		.sleb128 16
 4110 00dc D4070000 		.4byte	.LCFI156-.Ltext0
 4111 00e0 E8070000 		.4byte	.LCFI157-.Ltext0
 4112 00e4 0200     		.2byte	0x2
 4113 00e6 77       		.byte	0x77
 4114 00e7 10       		.sleb128 16
 4115 00e8 E8070000 		.4byte	.LCFI157-.Ltext0
 4116 00ec EA070000 		.4byte	.LCFI158-.Ltext0
 4117 00f0 0200     		.2byte	0x2
ARM GAS  G:\Users\Jaxb\AppData\Local\Temp\ccWNHqDV.s 			page 92


 4118 00f2 77       		.byte	0x77
 4119 00f3 04       		.sleb128 4
 4120 00f4 EA070000 		.4byte	.LCFI158-.Ltext0
 4121 00f8 EC070000 		.4byte	.LCFI159-.Ltext0
 4122 00fc 0200     		.2byte	0x2
 4123 00fe 7D       		.byte	0x7d
 4124 00ff 04       		.sleb128 4
 4125 0100 EC070000 		.4byte	.LCFI159-.Ltext0
 4126 0104 EE070000 		.4byte	.LFE55-.Ltext0
 4127 0108 0200     		.2byte	0x2
 4128 010a 7D       		.byte	0x7d
 4129 010b 00       		.sleb128 0
 4130 010c 00000000 		.4byte	0
 4131 0110 00000000 		.4byte	0
 4132              	.LLST25:
 4133 0114 98070000 		.4byte	.LFB54-.Ltext0
 4134 0118 9A070000 		.4byte	.LCFI148-.Ltext0
 4135 011c 0200     		.2byte	0x2
 4136 011e 7D       		.byte	0x7d
 4137 011f 00       		.sleb128 0
 4138 0120 9A070000 		.4byte	.LCFI148-.Ltext0
 4139 0124 9C070000 		.4byte	.LCFI149-.Ltext0
 4140 0128 0200     		.2byte	0x2
 4141 012a 7D       		.byte	0x7d
 4142 012b 04       		.sleb128 4
 4143 012c 9C070000 		.4byte	.LCFI149-.Ltext0
 4144 0130 9E070000 		.4byte	.LCFI150-.Ltext0
 4145 0134 0200     		.2byte	0x2
 4146 0136 7D       		.byte	0x7d
 4147 0137 18       		.sleb128 24
 4148 0138 9E070000 		.4byte	.LCFI150-.Ltext0
 4149 013c C8070000 		.4byte	.LCFI151-.Ltext0
 4150 0140 0200     		.2byte	0x2
 4151 0142 77       		.byte	0x77
 4152 0143 18       		.sleb128 24
 4153 0144 C8070000 		.4byte	.LCFI151-.Ltext0
 4154 0148 CA070000 		.4byte	.LCFI152-.Ltext0
 4155 014c 0200     		.2byte	0x2
 4156 014e 77       		.byte	0x77
 4157 014f 04       		.sleb128 4
 4158 0150 CA070000 		.4byte	.LCFI152-.Ltext0
 4159 0154 CC070000 		.4byte	.LCFI153-.Ltext0
 4160 0158 0200     		.2byte	0x2
 4161 015a 7D       		.byte	0x7d
 4162 015b 04       		.sleb128 4
 4163 015c CC070000 		.4byte	.LCFI153-.Ltext0
 4164 0160 CE070000 		.4byte	.LFE54-.Ltext0
 4165 0164 0200     		.2byte	0x2
 4166 0166 7D       		.byte	0x7d
 4167 0167 00       		.sleb128 0
 4168 0168 00000000 		.4byte	0
 4169 016c 00000000 		.4byte	0
 4170              	.LLST24:
 4171 0170 5A070000 		.4byte	.LFB53-.Ltext0
 4172 0174 5C070000 		.4byte	.LCFI142-.Ltext0
 4173 0178 0200     		.2byte	0x2
 4174 017a 7D       		.byte	0x7d
ARM GAS  G:\Users\Jaxb\AppData\Local\Temp\ccWNHqDV.s 			page 93


 4175 017b 00       		.sleb128 0
 4176 017c 5C070000 		.4byte	.LCFI142-.Ltext0
 4177 0180 5E070000 		.4byte	.LCFI143-.Ltext0
 4178 0184 0200     		.2byte	0x2
 4179 0186 7D       		.byte	0x7d
 4180 0187 04       		.sleb128 4
 4181 0188 5E070000 		.4byte	.LCFI143-.Ltext0
 4182 018c 60070000 		.4byte	.LCFI144-.Ltext0
 4183 0190 0200     		.2byte	0x2
 4184 0192 7D       		.byte	0x7d
 4185 0193 10       		.sleb128 16
 4186 0194 60070000 		.4byte	.LCFI144-.Ltext0
 4187 0198 92070000 		.4byte	.LCFI145-.Ltext0
 4188 019c 0200     		.2byte	0x2
 4189 019e 77       		.byte	0x77
 4190 019f 10       		.sleb128 16
 4191 01a0 92070000 		.4byte	.LCFI145-.Ltext0
 4192 01a4 94070000 		.4byte	.LCFI146-.Ltext0
 4193 01a8 0200     		.2byte	0x2
 4194 01aa 77       		.byte	0x77
 4195 01ab 04       		.sleb128 4
 4196 01ac 94070000 		.4byte	.LCFI146-.Ltext0
 4197 01b0 96070000 		.4byte	.LCFI147-.Ltext0
 4198 01b4 0200     		.2byte	0x2
 4199 01b6 7D       		.byte	0x7d
 4200 01b7 04       		.sleb128 4
 4201 01b8 96070000 		.4byte	.LCFI147-.Ltext0
 4202 01bc 98070000 		.4byte	.LFE53-.Ltext0
 4203 01c0 0200     		.2byte	0x2
 4204 01c2 7D       		.byte	0x7d
 4205 01c3 00       		.sleb128 0
 4206 01c4 00000000 		.4byte	0
 4207 01c8 00000000 		.4byte	0
 4208              	.LLST23:
 4209 01cc 24070000 		.4byte	.LFB52-.Ltext0
 4210 01d0 26070000 		.4byte	.LCFI136-.Ltext0
 4211 01d4 0200     		.2byte	0x2
 4212 01d6 7D       		.byte	0x7d
 4213 01d7 00       		.sleb128 0
 4214 01d8 26070000 		.4byte	.LCFI136-.Ltext0
 4215 01dc 28070000 		.4byte	.LCFI137-.Ltext0
 4216 01e0 0200     		.2byte	0x2
 4217 01e2 7D       		.byte	0x7d
 4218 01e3 04       		.sleb128 4
 4219 01e4 28070000 		.4byte	.LCFI137-.Ltext0
 4220 01e8 2A070000 		.4byte	.LCFI138-.Ltext0
 4221 01ec 0200     		.2byte	0x2
 4222 01ee 7D       		.byte	0x7d
 4223 01ef 10       		.sleb128 16
 4224 01f0 2A070000 		.4byte	.LCFI138-.Ltext0
 4225 01f4 54070000 		.4byte	.LCFI139-.Ltext0
 4226 01f8 0200     		.2byte	0x2
 4227 01fa 77       		.byte	0x77
 4228 01fb 10       		.sleb128 16
 4229 01fc 54070000 		.4byte	.LCFI139-.Ltext0
 4230 0200 56070000 		.4byte	.LCFI140-.Ltext0
 4231 0204 0200     		.2byte	0x2
ARM GAS  G:\Users\Jaxb\AppData\Local\Temp\ccWNHqDV.s 			page 94


 4232 0206 77       		.byte	0x77
 4233 0207 04       		.sleb128 4
 4234 0208 56070000 		.4byte	.LCFI140-.Ltext0
 4235 020c 58070000 		.4byte	.LCFI141-.Ltext0
 4236 0210 0200     		.2byte	0x2
 4237 0212 7D       		.byte	0x7d
 4238 0213 04       		.sleb128 4
 4239 0214 58070000 		.4byte	.LCFI141-.Ltext0
 4240 0218 5A070000 		.4byte	.LFE52-.Ltext0
 4241 021c 0200     		.2byte	0x2
 4242 021e 7D       		.byte	0x7d
 4243 021f 00       		.sleb128 0
 4244 0220 00000000 		.4byte	0
 4245 0224 00000000 		.4byte	0
 4246              	.LLST22:
 4247 0228 E6060000 		.4byte	.LFB51-.Ltext0
 4248 022c E8060000 		.4byte	.LCFI130-.Ltext0
 4249 0230 0200     		.2byte	0x2
 4250 0232 7D       		.byte	0x7d
 4251 0233 00       		.sleb128 0
 4252 0234 E8060000 		.4byte	.LCFI130-.Ltext0
 4253 0238 EA060000 		.4byte	.LCFI131-.Ltext0
 4254 023c 0200     		.2byte	0x2
 4255 023e 7D       		.byte	0x7d
 4256 023f 04       		.sleb128 4
 4257 0240 EA060000 		.4byte	.LCFI131-.Ltext0
 4258 0244 EC060000 		.4byte	.LCFI132-.Ltext0
 4259 0248 0200     		.2byte	0x2
 4260 024a 7D       		.byte	0x7d
 4261 024b 10       		.sleb128 16
 4262 024c EC060000 		.4byte	.LCFI132-.Ltext0
 4263 0250 1E070000 		.4byte	.LCFI133-.Ltext0
 4264 0254 0200     		.2byte	0x2
 4265 0256 77       		.byte	0x77
 4266 0257 10       		.sleb128 16
 4267 0258 1E070000 		.4byte	.LCFI133-.Ltext0
 4268 025c 20070000 		.4byte	.LCFI134-.Ltext0
 4269 0260 0200     		.2byte	0x2
 4270 0262 77       		.byte	0x77
 4271 0263 04       		.sleb128 4
 4272 0264 20070000 		.4byte	.LCFI134-.Ltext0
 4273 0268 22070000 		.4byte	.LCFI135-.Ltext0
 4274 026c 0200     		.2byte	0x2
 4275 026e 7D       		.byte	0x7d
 4276 026f 04       		.sleb128 4
 4277 0270 22070000 		.4byte	.LCFI135-.Ltext0
 4278 0274 24070000 		.4byte	.LFE51-.Ltext0
 4279 0278 0200     		.2byte	0x2
 4280 027a 7D       		.byte	0x7d
 4281 027b 00       		.sleb128 0
 4282 027c 00000000 		.4byte	0
 4283 0280 00000000 		.4byte	0
 4284              	.LLST21:
 4285 0284 A4060000 		.4byte	.LFB50-.Ltext0
 4286 0288 A6060000 		.4byte	.LCFI124-.Ltext0
 4287 028c 0200     		.2byte	0x2
 4288 028e 7D       		.byte	0x7d
ARM GAS  G:\Users\Jaxb\AppData\Local\Temp\ccWNHqDV.s 			page 95


 4289 028f 00       		.sleb128 0
 4290 0290 A6060000 		.4byte	.LCFI124-.Ltext0
 4291 0294 A8060000 		.4byte	.LCFI125-.Ltext0
 4292 0298 0200     		.2byte	0x2
 4293 029a 7D       		.byte	0x7d
 4294 029b 04       		.sleb128 4
 4295 029c A8060000 		.4byte	.LCFI125-.Ltext0
 4296 02a0 AA060000 		.4byte	.LCFI126-.Ltext0
 4297 02a4 0200     		.2byte	0x2
 4298 02a6 7D       		.byte	0x7d
 4299 02a7 10       		.sleb128 16
 4300 02a8 AA060000 		.4byte	.LCFI126-.Ltext0
 4301 02ac E0060000 		.4byte	.LCFI127-.Ltext0
 4302 02b0 0200     		.2byte	0x2
 4303 02b2 77       		.byte	0x77
 4304 02b3 10       		.sleb128 16
 4305 02b4 E0060000 		.4byte	.LCFI127-.Ltext0
 4306 02b8 E2060000 		.4byte	.LCFI128-.Ltext0
 4307 02bc 0200     		.2byte	0x2
 4308 02be 77       		.byte	0x77
 4309 02bf 04       		.sleb128 4
 4310 02c0 E2060000 		.4byte	.LCFI128-.Ltext0
 4311 02c4 E4060000 		.4byte	.LCFI129-.Ltext0
 4312 02c8 0200     		.2byte	0x2
 4313 02ca 7D       		.byte	0x7d
 4314 02cb 04       		.sleb128 4
 4315 02cc E4060000 		.4byte	.LCFI129-.Ltext0
 4316 02d0 E6060000 		.4byte	.LFE50-.Ltext0
 4317 02d4 0200     		.2byte	0x2
 4318 02d6 7D       		.byte	0x7d
 4319 02d7 00       		.sleb128 0
 4320 02d8 00000000 		.4byte	0
 4321 02dc 00000000 		.4byte	0
 4322              	.LLST20:
 4323 02e0 66060000 		.4byte	.LFB49-.Ltext0
 4324 02e4 68060000 		.4byte	.LCFI118-.Ltext0
 4325 02e8 0200     		.2byte	0x2
 4326 02ea 7D       		.byte	0x7d
 4327 02eb 00       		.sleb128 0
 4328 02ec 68060000 		.4byte	.LCFI118-.Ltext0
 4329 02f0 6A060000 		.4byte	.LCFI119-.Ltext0
 4330 02f4 0200     		.2byte	0x2
 4331 02f6 7D       		.byte	0x7d
 4332 02f7 04       		.sleb128 4
 4333 02f8 6A060000 		.4byte	.LCFI119-.Ltext0
 4334 02fc 6C060000 		.4byte	.LCFI120-.Ltext0
 4335 0300 0200     		.2byte	0x2
 4336 0302 7D       		.byte	0x7d
 4337 0303 10       		.sleb128 16
 4338 0304 6C060000 		.4byte	.LCFI120-.Ltext0
 4339 0308 9E060000 		.4byte	.LCFI121-.Ltext0
 4340 030c 0200     		.2byte	0x2
 4341 030e 77       		.byte	0x77
 4342 030f 10       		.sleb128 16
 4343 0310 9E060000 		.4byte	.LCFI121-.Ltext0
 4344 0314 A0060000 		.4byte	.LCFI122-.Ltext0
 4345 0318 0200     		.2byte	0x2
ARM GAS  G:\Users\Jaxb\AppData\Local\Temp\ccWNHqDV.s 			page 96


 4346 031a 77       		.byte	0x77
 4347 031b 04       		.sleb128 4
 4348 031c A0060000 		.4byte	.LCFI122-.Ltext0
 4349 0320 A2060000 		.4byte	.LCFI123-.Ltext0
 4350 0324 0200     		.2byte	0x2
 4351 0326 7D       		.byte	0x7d
 4352 0327 04       		.sleb128 4
 4353 0328 A2060000 		.4byte	.LCFI123-.Ltext0
 4354 032c A4060000 		.4byte	.LFE49-.Ltext0
 4355 0330 0200     		.2byte	0x2
 4356 0332 7D       		.byte	0x7d
 4357 0333 00       		.sleb128 0
 4358 0334 00000000 		.4byte	0
 4359 0338 00000000 		.4byte	0
 4360              	.LLST19:
 4361 033c 28060000 		.4byte	.LFB48-.Ltext0
 4362 0340 2A060000 		.4byte	.LCFI112-.Ltext0
 4363 0344 0200     		.2byte	0x2
 4364 0346 7D       		.byte	0x7d
 4365 0347 00       		.sleb128 0
 4366 0348 2A060000 		.4byte	.LCFI112-.Ltext0
 4367 034c 2C060000 		.4byte	.LCFI113-.Ltext0
 4368 0350 0200     		.2byte	0x2
 4369 0352 7D       		.byte	0x7d
 4370 0353 04       		.sleb128 4
 4371 0354 2C060000 		.4byte	.LCFI113-.Ltext0
 4372 0358 2E060000 		.4byte	.LCFI114-.Ltext0
 4373 035c 0200     		.2byte	0x2
 4374 035e 7D       		.byte	0x7d
 4375 035f 10       		.sleb128 16
 4376 0360 2E060000 		.4byte	.LCFI114-.Ltext0
 4377 0364 60060000 		.4byte	.LCFI115-.Ltext0
 4378 0368 0200     		.2byte	0x2
 4379 036a 77       		.byte	0x77
 4380 036b 10       		.sleb128 16
 4381 036c 60060000 		.4byte	.LCFI115-.Ltext0
 4382 0370 62060000 		.4byte	.LCFI116-.Ltext0
 4383 0374 0200     		.2byte	0x2
 4384 0376 77       		.byte	0x77
 4385 0377 04       		.sleb128 4
 4386 0378 62060000 		.4byte	.LCFI116-.Ltext0
 4387 037c 64060000 		.4byte	.LCFI117-.Ltext0
 4388 0380 0200     		.2byte	0x2
 4389 0382 7D       		.byte	0x7d
 4390 0383 04       		.sleb128 4
 4391 0384 64060000 		.4byte	.LCFI117-.Ltext0
 4392 0388 66060000 		.4byte	.LFE48-.Ltext0
 4393 038c 0200     		.2byte	0x2
 4394 038e 7D       		.byte	0x7d
 4395 038f 00       		.sleb128 0
 4396 0390 00000000 		.4byte	0
 4397 0394 00000000 		.4byte	0
 4398              	.LLST18:
 4399 0398 EA050000 		.4byte	.LFB47-.Ltext0
 4400 039c EC050000 		.4byte	.LCFI106-.Ltext0
 4401 03a0 0200     		.2byte	0x2
 4402 03a2 7D       		.byte	0x7d
ARM GAS  G:\Users\Jaxb\AppData\Local\Temp\ccWNHqDV.s 			page 97


 4403 03a3 00       		.sleb128 0
 4404 03a4 EC050000 		.4byte	.LCFI106-.Ltext0
 4405 03a8 EE050000 		.4byte	.LCFI107-.Ltext0
 4406 03ac 0200     		.2byte	0x2
 4407 03ae 7D       		.byte	0x7d
 4408 03af 04       		.sleb128 4
 4409 03b0 EE050000 		.4byte	.LCFI107-.Ltext0
 4410 03b4 F0050000 		.4byte	.LCFI108-.Ltext0
 4411 03b8 0200     		.2byte	0x2
 4412 03ba 7D       		.byte	0x7d
 4413 03bb 10       		.sleb128 16
 4414 03bc F0050000 		.4byte	.LCFI108-.Ltext0
 4415 03c0 22060000 		.4byte	.LCFI109-.Ltext0
 4416 03c4 0200     		.2byte	0x2
 4417 03c6 77       		.byte	0x77
 4418 03c7 10       		.sleb128 16
 4419 03c8 22060000 		.4byte	.LCFI109-.Ltext0
 4420 03cc 24060000 		.4byte	.LCFI110-.Ltext0
 4421 03d0 0200     		.2byte	0x2
 4422 03d2 77       		.byte	0x77
 4423 03d3 04       		.sleb128 4
 4424 03d4 24060000 		.4byte	.LCFI110-.Ltext0
 4425 03d8 26060000 		.4byte	.LCFI111-.Ltext0
 4426 03dc 0200     		.2byte	0x2
 4427 03de 7D       		.byte	0x7d
 4428 03df 04       		.sleb128 4
 4429 03e0 26060000 		.4byte	.LCFI111-.Ltext0
 4430 03e4 28060000 		.4byte	.LFE47-.Ltext0
 4431 03e8 0200     		.2byte	0x2
 4432 03ea 7D       		.byte	0x7d
 4433 03eb 00       		.sleb128 0
 4434 03ec 00000000 		.4byte	0
 4435 03f0 00000000 		.4byte	0
 4436              	.LLST17:
 4437 03f4 B2050000 		.4byte	.LFB46-.Ltext0
 4438 03f8 B4050000 		.4byte	.LCFI100-.Ltext0
 4439 03fc 0200     		.2byte	0x2
 4440 03fe 7D       		.byte	0x7d
 4441 03ff 00       		.sleb128 0
 4442 0400 B4050000 		.4byte	.LCFI100-.Ltext0
 4443 0404 B6050000 		.4byte	.LCFI101-.Ltext0
 4444 0408 0200     		.2byte	0x2
 4445 040a 7D       		.byte	0x7d
 4446 040b 04       		.sleb128 4
 4447 040c B6050000 		.4byte	.LCFI101-.Ltext0
 4448 0410 B8050000 		.4byte	.LCFI102-.Ltext0
 4449 0414 0200     		.2byte	0x2
 4450 0416 7D       		.byte	0x7d
 4451 0417 10       		.sleb128 16
 4452 0418 B8050000 		.4byte	.LCFI102-.Ltext0
 4453 041c E4050000 		.4byte	.LCFI103-.Ltext0
 4454 0420 0200     		.2byte	0x2
 4455 0422 77       		.byte	0x77
 4456 0423 10       		.sleb128 16
 4457 0424 E4050000 		.4byte	.LCFI103-.Ltext0
 4458 0428 E6050000 		.4byte	.LCFI104-.Ltext0
 4459 042c 0200     		.2byte	0x2
ARM GAS  G:\Users\Jaxb\AppData\Local\Temp\ccWNHqDV.s 			page 98


 4460 042e 77       		.byte	0x77
 4461 042f 04       		.sleb128 4
 4462 0430 E6050000 		.4byte	.LCFI104-.Ltext0
 4463 0434 E8050000 		.4byte	.LCFI105-.Ltext0
 4464 0438 0200     		.2byte	0x2
 4465 043a 7D       		.byte	0x7d
 4466 043b 04       		.sleb128 4
 4467 043c E8050000 		.4byte	.LCFI105-.Ltext0
 4468 0440 EA050000 		.4byte	.LFE46-.Ltext0
 4469 0444 0200     		.2byte	0x2
 4470 0446 7D       		.byte	0x7d
 4471 0447 00       		.sleb128 0
 4472 0448 00000000 		.4byte	0
 4473 044c 00000000 		.4byte	0
 4474              	.LLST16:
 4475 0450 78050000 		.4byte	.LFB45-.Ltext0
 4476 0454 7A050000 		.4byte	.LCFI94-.Ltext0
 4477 0458 0200     		.2byte	0x2
 4478 045a 7D       		.byte	0x7d
 4479 045b 00       		.sleb128 0
 4480 045c 7A050000 		.4byte	.LCFI94-.Ltext0
 4481 0460 7C050000 		.4byte	.LCFI95-.Ltext0
 4482 0464 0200     		.2byte	0x2
 4483 0466 7D       		.byte	0x7d
 4484 0467 04       		.sleb128 4
 4485 0468 7C050000 		.4byte	.LCFI95-.Ltext0
 4486 046c 7E050000 		.4byte	.LCFI96-.Ltext0
 4487 0470 0200     		.2byte	0x2
 4488 0472 7D       		.byte	0x7d
 4489 0473 10       		.sleb128 16
 4490 0474 7E050000 		.4byte	.LCFI96-.Ltext0
 4491 0478 AC050000 		.4byte	.LCFI97-.Ltext0
 4492 047c 0200     		.2byte	0x2
 4493 047e 77       		.byte	0x77
 4494 047f 10       		.sleb128 16
 4495 0480 AC050000 		.4byte	.LCFI97-.Ltext0
 4496 0484 AE050000 		.4byte	.LCFI98-.Ltext0
 4497 0488 0200     		.2byte	0x2
 4498 048a 77       		.byte	0x77
 4499 048b 04       		.sleb128 4
 4500 048c AE050000 		.4byte	.LCFI98-.Ltext0
 4501 0490 B0050000 		.4byte	.LCFI99-.Ltext0
 4502 0494 0200     		.2byte	0x2
 4503 0496 7D       		.byte	0x7d
 4504 0497 04       		.sleb128 4
 4505 0498 B0050000 		.4byte	.LCFI99-.Ltext0
 4506 049c B2050000 		.4byte	.LFE45-.Ltext0
 4507 04a0 0200     		.2byte	0x2
 4508 04a2 7D       		.byte	0x7d
 4509 04a3 00       		.sleb128 0
 4510 04a4 00000000 		.4byte	0
 4511 04a8 00000000 		.4byte	0
 4512              	.LLST15:
 4513 04ac 56050000 		.4byte	.LFB44-.Ltext0
 4514 04b0 58050000 		.4byte	.LCFI88-.Ltext0
 4515 04b4 0200     		.2byte	0x2
 4516 04b6 7D       		.byte	0x7d
ARM GAS  G:\Users\Jaxb\AppData\Local\Temp\ccWNHqDV.s 			page 99


 4517 04b7 00       		.sleb128 0
 4518 04b8 58050000 		.4byte	.LCFI88-.Ltext0
 4519 04bc 5A050000 		.4byte	.LCFI89-.Ltext0
 4520 04c0 0200     		.2byte	0x2
 4521 04c2 7D       		.byte	0x7d
 4522 04c3 04       		.sleb128 4
 4523 04c4 5A050000 		.4byte	.LCFI89-.Ltext0
 4524 04c8 5C050000 		.4byte	.LCFI90-.Ltext0
 4525 04cc 0200     		.2byte	0x2
 4526 04ce 7D       		.byte	0x7d
 4527 04cf 10       		.sleb128 16
 4528 04d0 5C050000 		.4byte	.LCFI90-.Ltext0
 4529 04d4 72050000 		.4byte	.LCFI91-.Ltext0
 4530 04d8 0200     		.2byte	0x2
 4531 04da 77       		.byte	0x77
 4532 04db 10       		.sleb128 16
 4533 04dc 72050000 		.4byte	.LCFI91-.Ltext0
 4534 04e0 74050000 		.4byte	.LCFI92-.Ltext0
 4535 04e4 0200     		.2byte	0x2
 4536 04e6 77       		.byte	0x77
 4537 04e7 04       		.sleb128 4
 4538 04e8 74050000 		.4byte	.LCFI92-.Ltext0
 4539 04ec 76050000 		.4byte	.LCFI93-.Ltext0
 4540 04f0 0200     		.2byte	0x2
 4541 04f2 7D       		.byte	0x7d
 4542 04f3 04       		.sleb128 4
 4543 04f4 76050000 		.4byte	.LCFI93-.Ltext0
 4544 04f8 78050000 		.4byte	.LFE44-.Ltext0
 4545 04fc 0200     		.2byte	0x2
 4546 04fe 7D       		.byte	0x7d
 4547 04ff 00       		.sleb128 0
 4548 0500 00000000 		.4byte	0
 4549 0504 00000000 		.4byte	0
 4550              	.LLST14:
 4551 0508 38050000 		.4byte	.LFB43-.Ltext0
 4552 050c 3A050000 		.4byte	.LCFI82-.Ltext0
 4553 0510 0200     		.2byte	0x2
 4554 0512 7D       		.byte	0x7d
 4555 0513 00       		.sleb128 0
 4556 0514 3A050000 		.4byte	.LCFI82-.Ltext0
 4557 0518 3C050000 		.4byte	.LCFI83-.Ltext0
 4558 051c 0200     		.2byte	0x2
 4559 051e 7D       		.byte	0x7d
 4560 051f 04       		.sleb128 4
 4561 0520 3C050000 		.4byte	.LCFI83-.Ltext0
 4562 0524 3E050000 		.4byte	.LCFI84-.Ltext0
 4563 0528 0200     		.2byte	0x2
 4564 052a 7D       		.byte	0x7d
 4565 052b 10       		.sleb128 16
 4566 052c 3E050000 		.4byte	.LCFI84-.Ltext0
 4567 0530 50050000 		.4byte	.LCFI85-.Ltext0
 4568 0534 0200     		.2byte	0x2
 4569 0536 77       		.byte	0x77
 4570 0537 10       		.sleb128 16
 4571 0538 50050000 		.4byte	.LCFI85-.Ltext0
 4572 053c 52050000 		.4byte	.LCFI86-.Ltext0
 4573 0540 0200     		.2byte	0x2
ARM GAS  G:\Users\Jaxb\AppData\Local\Temp\ccWNHqDV.s 			page 100


 4574 0542 77       		.byte	0x77
 4575 0543 04       		.sleb128 4
 4576 0544 52050000 		.4byte	.LCFI86-.Ltext0
 4577 0548 54050000 		.4byte	.LCFI87-.Ltext0
 4578 054c 0200     		.2byte	0x2
 4579 054e 7D       		.byte	0x7d
 4580 054f 04       		.sleb128 4
 4581 0550 54050000 		.4byte	.LCFI87-.Ltext0
 4582 0554 56050000 		.4byte	.LFE43-.Ltext0
 4583 0558 0200     		.2byte	0x2
 4584 055a 7D       		.byte	0x7d
 4585 055b 00       		.sleb128 0
 4586 055c 00000000 		.4byte	0
 4587 0560 00000000 		.4byte	0
 4588              	.LLST13:
 4589 0564 16050000 		.4byte	.LFB42-.Ltext0
 4590 0568 18050000 		.4byte	.LCFI76-.Ltext0
 4591 056c 0200     		.2byte	0x2
 4592 056e 7D       		.byte	0x7d
 4593 056f 00       		.sleb128 0
 4594 0570 18050000 		.4byte	.LCFI76-.Ltext0
 4595 0574 1A050000 		.4byte	.LCFI77-.Ltext0
 4596 0578 0200     		.2byte	0x2
 4597 057a 7D       		.byte	0x7d
 4598 057b 04       		.sleb128 4
 4599 057c 1A050000 		.4byte	.LCFI77-.Ltext0
 4600 0580 1C050000 		.4byte	.LCFI78-.Ltext0
 4601 0584 0200     		.2byte	0x2
 4602 0586 7D       		.byte	0x7d
 4603 0587 10       		.sleb128 16
 4604 0588 1C050000 		.4byte	.LCFI78-.Ltext0
 4605 058c 32050000 		.4byte	.LCFI79-.Ltext0
 4606 0590 0200     		.2byte	0x2
 4607 0592 77       		.byte	0x77
 4608 0593 10       		.sleb128 16
 4609 0594 32050000 		.4byte	.LCFI79-.Ltext0
 4610 0598 34050000 		.4byte	.LCFI80-.Ltext0
 4611 059c 0200     		.2byte	0x2
 4612 059e 77       		.byte	0x77
 4613 059f 04       		.sleb128 4
 4614 05a0 34050000 		.4byte	.LCFI80-.Ltext0
 4615 05a4 36050000 		.4byte	.LCFI81-.Ltext0
 4616 05a8 0200     		.2byte	0x2
 4617 05aa 7D       		.byte	0x7d
 4618 05ab 04       		.sleb128 4
 4619 05ac 36050000 		.4byte	.LCFI81-.Ltext0
 4620 05b0 38050000 		.4byte	.LFE42-.Ltext0
 4621 05b4 0200     		.2byte	0x2
 4622 05b6 7D       		.byte	0x7d
 4623 05b7 00       		.sleb128 0
 4624 05b8 00000000 		.4byte	0
 4625 05bc 00000000 		.4byte	0
 4626              	.LLST12:
 4627 05c0 D8040000 		.4byte	.LFB41-.Ltext0
 4628 05c4 DA040000 		.4byte	.LCFI70-.Ltext0
 4629 05c8 0200     		.2byte	0x2
 4630 05ca 7D       		.byte	0x7d
ARM GAS  G:\Users\Jaxb\AppData\Local\Temp\ccWNHqDV.s 			page 101


 4631 05cb 00       		.sleb128 0
 4632 05cc DA040000 		.4byte	.LCFI70-.Ltext0
 4633 05d0 DC040000 		.4byte	.LCFI71-.Ltext0
 4634 05d4 0200     		.2byte	0x2
 4635 05d6 7D       		.byte	0x7d
 4636 05d7 04       		.sleb128 4
 4637 05d8 DC040000 		.4byte	.LCFI71-.Ltext0
 4638 05dc DE040000 		.4byte	.LCFI72-.Ltext0
 4639 05e0 0200     		.2byte	0x2
 4640 05e2 7D       		.byte	0x7d
 4641 05e3 10       		.sleb128 16
 4642 05e4 DE040000 		.4byte	.LCFI72-.Ltext0
 4643 05e8 10050000 		.4byte	.LCFI73-.Ltext0
 4644 05ec 0200     		.2byte	0x2
 4645 05ee 77       		.byte	0x77
 4646 05ef 10       		.sleb128 16
 4647 05f0 10050000 		.4byte	.LCFI73-.Ltext0
 4648 05f4 12050000 		.4byte	.LCFI74-.Ltext0
 4649 05f8 0200     		.2byte	0x2
 4650 05fa 77       		.byte	0x77
 4651 05fb 04       		.sleb128 4
 4652 05fc 12050000 		.4byte	.LCFI74-.Ltext0
 4653 0600 14050000 		.4byte	.LCFI75-.Ltext0
 4654 0604 0200     		.2byte	0x2
 4655 0606 7D       		.byte	0x7d
 4656 0607 04       		.sleb128 4
 4657 0608 14050000 		.4byte	.LCFI75-.Ltext0
 4658 060c 16050000 		.4byte	.LFE41-.Ltext0
 4659 0610 0200     		.2byte	0x2
 4660 0612 7D       		.byte	0x7d
 4661 0613 00       		.sleb128 0
 4662 0614 00000000 		.4byte	0
 4663 0618 00000000 		.4byte	0
 4664              	.LLST11:
 4665 061c A2040000 		.4byte	.LFB40-.Ltext0
 4666 0620 A4040000 		.4byte	.LCFI64-.Ltext0
 4667 0624 0200     		.2byte	0x2
 4668 0626 7D       		.byte	0x7d
 4669 0627 00       		.sleb128 0
 4670 0628 A4040000 		.4byte	.LCFI64-.Ltext0
 4671 062c A6040000 		.4byte	.LCFI65-.Ltext0
 4672 0630 0200     		.2byte	0x2
 4673 0632 7D       		.byte	0x7d
 4674 0633 04       		.sleb128 4
 4675 0634 A6040000 		.4byte	.LCFI65-.Ltext0
 4676 0638 A8040000 		.4byte	.LCFI66-.Ltext0
 4677 063c 0200     		.2byte	0x2
 4678 063e 7D       		.byte	0x7d
 4679 063f 10       		.sleb128 16
 4680 0640 A8040000 		.4byte	.LCFI66-.Ltext0
 4681 0644 D2040000 		.4byte	.LCFI67-.Ltext0
 4682 0648 0200     		.2byte	0x2
 4683 064a 77       		.byte	0x77
 4684 064b 10       		.sleb128 16
 4685 064c D2040000 		.4byte	.LCFI67-.Ltext0
 4686 0650 D4040000 		.4byte	.LCFI68-.Ltext0
 4687 0654 0200     		.2byte	0x2
ARM GAS  G:\Users\Jaxb\AppData\Local\Temp\ccWNHqDV.s 			page 102


 4688 0656 77       		.byte	0x77
 4689 0657 04       		.sleb128 4
 4690 0658 D4040000 		.4byte	.LCFI68-.Ltext0
 4691 065c D6040000 		.4byte	.LCFI69-.Ltext0
 4692 0660 0200     		.2byte	0x2
 4693 0662 7D       		.byte	0x7d
 4694 0663 04       		.sleb128 4
 4695 0664 D6040000 		.4byte	.LCFI69-.Ltext0
 4696 0668 D8040000 		.4byte	.LFE40-.Ltext0
 4697 066c 0200     		.2byte	0x2
 4698 066e 7D       		.byte	0x7d
 4699 066f 00       		.sleb128 0
 4700 0670 00000000 		.4byte	0
 4701 0674 00000000 		.4byte	0
 4702              	.LLST10:
 4703 0678 64040000 		.4byte	.LFB39-.Ltext0
 4704 067c 66040000 		.4byte	.LCFI58-.Ltext0
 4705 0680 0200     		.2byte	0x2
 4706 0682 7D       		.byte	0x7d
 4707 0683 00       		.sleb128 0
 4708 0684 66040000 		.4byte	.LCFI58-.Ltext0
 4709 0688 68040000 		.4byte	.LCFI59-.Ltext0
 4710 068c 0200     		.2byte	0x2
 4711 068e 7D       		.byte	0x7d
 4712 068f 04       		.sleb128 4
 4713 0690 68040000 		.4byte	.LCFI59-.Ltext0
 4714 0694 6A040000 		.4byte	.LCFI60-.Ltext0
 4715 0698 0200     		.2byte	0x2
 4716 069a 7D       		.byte	0x7d
 4717 069b 10       		.sleb128 16
 4718 069c 6A040000 		.4byte	.LCFI60-.Ltext0
 4719 06a0 9C040000 		.4byte	.LCFI61-.Ltext0
 4720 06a4 0200     		.2byte	0x2
 4721 06a6 77       		.byte	0x77
 4722 06a7 10       		.sleb128 16
 4723 06a8 9C040000 		.4byte	.LCFI61-.Ltext0
 4724 06ac 9E040000 		.4byte	.LCFI62-.Ltext0
 4725 06b0 0200     		.2byte	0x2
 4726 06b2 77       		.byte	0x77
 4727 06b3 04       		.sleb128 4
 4728 06b4 9E040000 		.4byte	.LCFI62-.Ltext0
 4729 06b8 A0040000 		.4byte	.LCFI63-.Ltext0
 4730 06bc 0200     		.2byte	0x2
 4731 06be 7D       		.byte	0x7d
 4732 06bf 04       		.sleb128 4
 4733 06c0 A0040000 		.4byte	.LCFI63-.Ltext0
 4734 06c4 A2040000 		.4byte	.LFE39-.Ltext0
 4735 06c8 0200     		.2byte	0x2
 4736 06ca 7D       		.byte	0x7d
 4737 06cb 00       		.sleb128 0
 4738 06cc 00000000 		.4byte	0
 4739 06d0 00000000 		.4byte	0
 4740              	.LLST9:
 4741 06d4 2E040000 		.4byte	.LFB38-.Ltext0
 4742 06d8 30040000 		.4byte	.LCFI52-.Ltext0
 4743 06dc 0200     		.2byte	0x2
 4744 06de 7D       		.byte	0x7d
ARM GAS  G:\Users\Jaxb\AppData\Local\Temp\ccWNHqDV.s 			page 103


 4745 06df 00       		.sleb128 0
 4746 06e0 30040000 		.4byte	.LCFI52-.Ltext0
 4747 06e4 32040000 		.4byte	.LCFI53-.Ltext0
 4748 06e8 0200     		.2byte	0x2
 4749 06ea 7D       		.byte	0x7d
 4750 06eb 04       		.sleb128 4
 4751 06ec 32040000 		.4byte	.LCFI53-.Ltext0
 4752 06f0 34040000 		.4byte	.LCFI54-.Ltext0
 4753 06f4 0200     		.2byte	0x2
 4754 06f6 7D       		.byte	0x7d
 4755 06f7 10       		.sleb128 16
 4756 06f8 34040000 		.4byte	.LCFI54-.Ltext0
 4757 06fc 5E040000 		.4byte	.LCFI55-.Ltext0
 4758 0700 0200     		.2byte	0x2
 4759 0702 77       		.byte	0x77
 4760 0703 10       		.sleb128 16
 4761 0704 5E040000 		.4byte	.LCFI55-.Ltext0
 4762 0708 60040000 		.4byte	.LCFI56-.Ltext0
 4763 070c 0200     		.2byte	0x2
 4764 070e 77       		.byte	0x77
 4765 070f 04       		.sleb128 4
 4766 0710 60040000 		.4byte	.LCFI56-.Ltext0
 4767 0714 62040000 		.4byte	.LCFI57-.Ltext0
 4768 0718 0200     		.2byte	0x2
 4769 071a 7D       		.byte	0x7d
 4770 071b 04       		.sleb128 4
 4771 071c 62040000 		.4byte	.LCFI57-.Ltext0
 4772 0720 64040000 		.4byte	.LFE38-.Ltext0
 4773 0724 0200     		.2byte	0x2
 4774 0726 7D       		.byte	0x7d
 4775 0727 00       		.sleb128 0
 4776 0728 00000000 		.4byte	0
 4777 072c 00000000 		.4byte	0
 4778              	.LLST8:
 4779 0730 F6030000 		.4byte	.LFB37-.Ltext0
 4780 0734 F8030000 		.4byte	.LCFI46-.Ltext0
 4781 0738 0200     		.2byte	0x2
 4782 073a 7D       		.byte	0x7d
 4783 073b 00       		.sleb128 0
 4784 073c F8030000 		.4byte	.LCFI46-.Ltext0
 4785 0740 FA030000 		.4byte	.LCFI47-.Ltext0
 4786 0744 0200     		.2byte	0x2
 4787 0746 7D       		.byte	0x7d
 4788 0747 04       		.sleb128 4
 4789 0748 FA030000 		.4byte	.LCFI47-.Ltext0
 4790 074c FC030000 		.4byte	.LCFI48-.Ltext0
 4791 0750 0200     		.2byte	0x2
 4792 0752 7D       		.byte	0x7d
 4793 0753 10       		.sleb128 16
 4794 0754 FC030000 		.4byte	.LCFI48-.Ltext0
 4795 0758 28040000 		.4byte	.LCFI49-.Ltext0
 4796 075c 0200     		.2byte	0x2
 4797 075e 77       		.byte	0x77
 4798 075f 10       		.sleb128 16
 4799 0760 28040000 		.4byte	.LCFI49-.Ltext0
 4800 0764 2A040000 		.4byte	.LCFI50-.Ltext0
 4801 0768 0200     		.2byte	0x2
ARM GAS  G:\Users\Jaxb\AppData\Local\Temp\ccWNHqDV.s 			page 104


 4802 076a 77       		.byte	0x77
 4803 076b 04       		.sleb128 4
 4804 076c 2A040000 		.4byte	.LCFI50-.Ltext0
 4805 0770 2C040000 		.4byte	.LCFI51-.Ltext0
 4806 0774 0200     		.2byte	0x2
 4807 0776 7D       		.byte	0x7d
 4808 0777 04       		.sleb128 4
 4809 0778 2C040000 		.4byte	.LCFI51-.Ltext0
 4810 077c 2E040000 		.4byte	.LFE37-.Ltext0
 4811 0780 0200     		.2byte	0x2
 4812 0782 7D       		.byte	0x7d
 4813 0783 00       		.sleb128 0
 4814 0784 00000000 		.4byte	0
 4815 0788 00000000 		.4byte	0
 4816              	.LLST7:
 4817 078c B0030000 		.4byte	.LFB36-.Ltext0
 4818 0790 B2030000 		.4byte	.LCFI40-.Ltext0
 4819 0794 0200     		.2byte	0x2
 4820 0796 7D       		.byte	0x7d
 4821 0797 00       		.sleb128 0
 4822 0798 B2030000 		.4byte	.LCFI40-.Ltext0
 4823 079c B4030000 		.4byte	.LCFI41-.Ltext0
 4824 07a0 0200     		.2byte	0x2
 4825 07a2 7D       		.byte	0x7d
 4826 07a3 04       		.sleb128 4
 4827 07a4 B4030000 		.4byte	.LCFI41-.Ltext0
 4828 07a8 B6030000 		.4byte	.LCFI42-.Ltext0
 4829 07ac 0200     		.2byte	0x2
 4830 07ae 7D       		.byte	0x7d
 4831 07af 10       		.sleb128 16
 4832 07b0 B6030000 		.4byte	.LCFI42-.Ltext0
 4833 07b4 F0030000 		.4byte	.LCFI43-.Ltext0
 4834 07b8 0200     		.2byte	0x2
 4835 07ba 77       		.byte	0x77
 4836 07bb 10       		.sleb128 16
 4837 07bc F0030000 		.4byte	.LCFI43-.Ltext0
 4838 07c0 F2030000 		.4byte	.LCFI44-.Ltext0
 4839 07c4 0200     		.2byte	0x2
 4840 07c6 77       		.byte	0x77
 4841 07c7 04       		.sleb128 4
 4842 07c8 F2030000 		.4byte	.LCFI44-.Ltext0
 4843 07cc F4030000 		.4byte	.LCFI45-.Ltext0
 4844 07d0 0200     		.2byte	0x2
 4845 07d2 7D       		.byte	0x7d
 4846 07d3 04       		.sleb128 4
 4847 07d4 F4030000 		.4byte	.LCFI45-.Ltext0
 4848 07d8 F6030000 		.4byte	.LFE36-.Ltext0
 4849 07dc 0200     		.2byte	0x2
 4850 07de 7D       		.byte	0x7d
 4851 07df 00       		.sleb128 0
 4852 07e0 00000000 		.4byte	0
 4853 07e4 00000000 		.4byte	0
 4854              	.LLST6:
 4855 07e8 22030000 		.4byte	.LFB35-.Ltext0
 4856 07ec 24030000 		.4byte	.LCFI34-.Ltext0
 4857 07f0 0200     		.2byte	0x2
 4858 07f2 7D       		.byte	0x7d
ARM GAS  G:\Users\Jaxb\AppData\Local\Temp\ccWNHqDV.s 			page 105


 4859 07f3 00       		.sleb128 0
 4860 07f4 24030000 		.4byte	.LCFI34-.Ltext0
 4861 07f8 26030000 		.4byte	.LCFI35-.Ltext0
 4862 07fc 0200     		.2byte	0x2
 4863 07fe 7D       		.byte	0x7d
 4864 07ff 04       		.sleb128 4
 4865 0800 26030000 		.4byte	.LCFI35-.Ltext0
 4866 0804 28030000 		.4byte	.LCFI36-.Ltext0
 4867 0808 0200     		.2byte	0x2
 4868 080a 7D       		.byte	0x7d
 4869 080b 20       		.sleb128 32
 4870 080c 28030000 		.4byte	.LCFI36-.Ltext0
 4871 0810 AA030000 		.4byte	.LCFI37-.Ltext0
 4872 0814 0200     		.2byte	0x2
 4873 0816 77       		.byte	0x77
 4874 0817 20       		.sleb128 32
 4875 0818 AA030000 		.4byte	.LCFI37-.Ltext0
 4876 081c AC030000 		.4byte	.LCFI38-.Ltext0
 4877 0820 0200     		.2byte	0x2
 4878 0822 77       		.byte	0x77
 4879 0823 04       		.sleb128 4
 4880 0824 AC030000 		.4byte	.LCFI38-.Ltext0
 4881 0828 AE030000 		.4byte	.LCFI39-.Ltext0
 4882 082c 0200     		.2byte	0x2
 4883 082e 7D       		.byte	0x7d
 4884 082f 04       		.sleb128 4
 4885 0830 AE030000 		.4byte	.LCFI39-.Ltext0
 4886 0834 B0030000 		.4byte	.LFE35-.Ltext0
 4887 0838 0200     		.2byte	0x2
 4888 083a 7D       		.byte	0x7d
 4889 083b 00       		.sleb128 0
 4890 083c 00000000 		.4byte	0
 4891 0840 00000000 		.4byte	0
 4892              	.LLST5:
 4893 0844 E4020000 		.4byte	.LFB34-.Ltext0
 4894 0848 E6020000 		.4byte	.LCFI28-.Ltext0
 4895 084c 0200     		.2byte	0x2
 4896 084e 7D       		.byte	0x7d
 4897 084f 00       		.sleb128 0
 4898 0850 E6020000 		.4byte	.LCFI28-.Ltext0
 4899 0854 E8020000 		.4byte	.LCFI29-.Ltext0
 4900 0858 0200     		.2byte	0x2
 4901 085a 7D       		.byte	0x7d
 4902 085b 04       		.sleb128 4
 4903 085c E8020000 		.4byte	.LCFI29-.Ltext0
 4904 0860 EA020000 		.4byte	.LCFI30-.Ltext0
 4905 0864 0200     		.2byte	0x2
 4906 0866 7D       		.byte	0x7d
 4907 0867 10       		.sleb128 16
 4908 0868 EA020000 		.4byte	.LCFI30-.Ltext0
 4909 086c 1C030000 		.4byte	.LCFI31-.Ltext0
 4910 0870 0200     		.2byte	0x2
 4911 0872 77       		.byte	0x77
 4912 0873 10       		.sleb128 16
 4913 0874 1C030000 		.4byte	.LCFI31-.Ltext0
 4914 0878 1E030000 		.4byte	.LCFI32-.Ltext0
 4915 087c 0200     		.2byte	0x2
ARM GAS  G:\Users\Jaxb\AppData\Local\Temp\ccWNHqDV.s 			page 106


 4916 087e 77       		.byte	0x77
 4917 087f 04       		.sleb128 4
 4918 0880 1E030000 		.4byte	.LCFI32-.Ltext0
 4919 0884 20030000 		.4byte	.LCFI33-.Ltext0
 4920 0888 0200     		.2byte	0x2
 4921 088a 7D       		.byte	0x7d
 4922 088b 04       		.sleb128 4
 4923 088c 20030000 		.4byte	.LCFI33-.Ltext0
 4924 0890 22030000 		.4byte	.LFE34-.Ltext0
 4925 0894 0200     		.2byte	0x2
 4926 0896 7D       		.byte	0x7d
 4927 0897 00       		.sleb128 0
 4928 0898 00000000 		.4byte	0
 4929 089c 00000000 		.4byte	0
 4930              	.LLST4:
 4931 08a0 BA020000 		.4byte	.LFB33-.Ltext0
 4932 08a4 BC020000 		.4byte	.LCFI22-.Ltext0
 4933 08a8 0200     		.2byte	0x2
 4934 08aa 7D       		.byte	0x7d
 4935 08ab 00       		.sleb128 0
 4936 08ac BC020000 		.4byte	.LCFI22-.Ltext0
 4937 08b0 BE020000 		.4byte	.LCFI23-.Ltext0
 4938 08b4 0200     		.2byte	0x2
 4939 08b6 7D       		.byte	0x7d
 4940 08b7 04       		.sleb128 4
 4941 08b8 BE020000 		.4byte	.LCFI23-.Ltext0
 4942 08bc C0020000 		.4byte	.LCFI24-.Ltext0
 4943 08c0 0200     		.2byte	0x2
 4944 08c2 7D       		.byte	0x7d
 4945 08c3 10       		.sleb128 16
 4946 08c4 C0020000 		.4byte	.LCFI24-.Ltext0
 4947 08c8 DE020000 		.4byte	.LCFI25-.Ltext0
 4948 08cc 0200     		.2byte	0x2
 4949 08ce 77       		.byte	0x77
 4950 08cf 10       		.sleb128 16
 4951 08d0 DE020000 		.4byte	.LCFI25-.Ltext0
 4952 08d4 E0020000 		.4byte	.LCFI26-.Ltext0
 4953 08d8 0200     		.2byte	0x2
 4954 08da 77       		.byte	0x77
 4955 08db 04       		.sleb128 4
 4956 08dc E0020000 		.4byte	.LCFI26-.Ltext0
 4957 08e0 E2020000 		.4byte	.LCFI27-.Ltext0
 4958 08e4 0200     		.2byte	0x2
 4959 08e6 7D       		.byte	0x7d
 4960 08e7 04       		.sleb128 4
 4961 08e8 E2020000 		.4byte	.LCFI27-.Ltext0
 4962 08ec E4020000 		.4byte	.LFE33-.Ltext0
 4963 08f0 0200     		.2byte	0x2
 4964 08f2 7D       		.byte	0x7d
 4965 08f3 00       		.sleb128 0
 4966 08f4 00000000 		.4byte	0
 4967 08f8 00000000 		.4byte	0
 4968              	.LLST3:
 4969 08fc 64020000 		.4byte	.LFB32-.Ltext0
 4970 0900 66020000 		.4byte	.LCFI16-.Ltext0
 4971 0904 0200     		.2byte	0x2
 4972 0906 7D       		.byte	0x7d
ARM GAS  G:\Users\Jaxb\AppData\Local\Temp\ccWNHqDV.s 			page 107


 4973 0907 00       		.sleb128 0
 4974 0908 66020000 		.4byte	.LCFI16-.Ltext0
 4975 090c 68020000 		.4byte	.LCFI17-.Ltext0
 4976 0910 0200     		.2byte	0x2
 4977 0912 7D       		.byte	0x7d
 4978 0913 04       		.sleb128 4
 4979 0914 68020000 		.4byte	.LCFI17-.Ltext0
 4980 0918 6A020000 		.4byte	.LCFI18-.Ltext0
 4981 091c 0200     		.2byte	0x2
 4982 091e 7D       		.byte	0x7d
 4983 091f 18       		.sleb128 24
 4984 0920 6A020000 		.4byte	.LCFI18-.Ltext0
 4985 0924 B4020000 		.4byte	.LCFI19-.Ltext0
 4986 0928 0200     		.2byte	0x2
 4987 092a 77       		.byte	0x77
 4988 092b 18       		.sleb128 24
 4989 092c B4020000 		.4byte	.LCFI19-.Ltext0
 4990 0930 B6020000 		.4byte	.LCFI20-.Ltext0
 4991 0934 0200     		.2byte	0x2
 4992 0936 77       		.byte	0x77
 4993 0937 04       		.sleb128 4
 4994 0938 B6020000 		.4byte	.LCFI20-.Ltext0
 4995 093c B8020000 		.4byte	.LCFI21-.Ltext0
 4996 0940 0200     		.2byte	0x2
 4997 0942 7D       		.byte	0x7d
 4998 0943 04       		.sleb128 4
 4999 0944 B8020000 		.4byte	.LCFI21-.Ltext0
 5000 0948 BA020000 		.4byte	.LFE32-.Ltext0
 5001 094c 0200     		.2byte	0x2
 5002 094e 7D       		.byte	0x7d
 5003 094f 00       		.sleb128 0
 5004 0950 00000000 		.4byte	0
 5005 0954 00000000 		.4byte	0
 5006              	.LLST2:
 5007 0958 2C020000 		.4byte	.LFB31-.Ltext0
 5008 095c 2E020000 		.4byte	.LCFI10-.Ltext0
 5009 0960 0200     		.2byte	0x2
 5010 0962 7D       		.byte	0x7d
 5011 0963 00       		.sleb128 0
 5012 0964 2E020000 		.4byte	.LCFI10-.Ltext0
 5013 0968 30020000 		.4byte	.LCFI11-.Ltext0
 5014 096c 0200     		.2byte	0x2
 5015 096e 7D       		.byte	0x7d
 5016 096f 04       		.sleb128 4
 5017 0970 30020000 		.4byte	.LCFI11-.Ltext0
 5018 0974 32020000 		.4byte	.LCFI12-.Ltext0
 5019 0978 0200     		.2byte	0x2
 5020 097a 7D       		.byte	0x7d
 5021 097b 10       		.sleb128 16
 5022 097c 32020000 		.4byte	.LCFI12-.Ltext0
 5023 0980 5E020000 		.4byte	.LCFI13-.Ltext0
 5024 0984 0200     		.2byte	0x2
 5025 0986 77       		.byte	0x77
 5026 0987 10       		.sleb128 16
 5027 0988 5E020000 		.4byte	.LCFI13-.Ltext0
 5028 098c 60020000 		.4byte	.LCFI14-.Ltext0
 5029 0990 0200     		.2byte	0x2
ARM GAS  G:\Users\Jaxb\AppData\Local\Temp\ccWNHqDV.s 			page 108


 5030 0992 77       		.byte	0x77
 5031 0993 04       		.sleb128 4
 5032 0994 60020000 		.4byte	.LCFI14-.Ltext0
 5033 0998 62020000 		.4byte	.LCFI15-.Ltext0
 5034 099c 0200     		.2byte	0x2
 5035 099e 7D       		.byte	0x7d
 5036 099f 04       		.sleb128 4
 5037 09a0 62020000 		.4byte	.LCFI15-.Ltext0
 5038 09a4 64020000 		.4byte	.LFE31-.Ltext0
 5039 09a8 0200     		.2byte	0x2
 5040 09aa 7D       		.byte	0x7d
 5041 09ab 00       		.sleb128 0
 5042 09ac 00000000 		.4byte	0
 5043 09b0 00000000 		.4byte	0
 5044              	.LLST1:
 5045 09b4 B8000000 		.4byte	.LFB30-.Ltext0
 5046 09b8 BA000000 		.4byte	.LCFI5-.Ltext0
 5047 09bc 0200     		.2byte	0x2
 5048 09be 7D       		.byte	0x7d
 5049 09bf 00       		.sleb128 0
 5050 09c0 BA000000 		.4byte	.LCFI5-.Ltext0
 5051 09c4 BC000000 		.4byte	.LCFI6-.Ltext0
 5052 09c8 0200     		.2byte	0x2
 5053 09ca 7D       		.byte	0x7d
 5054 09cb 08       		.sleb128 8
 5055 09cc BC000000 		.4byte	.LCFI6-.Ltext0
 5056 09d0 BE000000 		.4byte	.LCFI7-.Ltext0
 5057 09d4 0200     		.2byte	0x2
 5058 09d6 7D       		.byte	0x7d
 5059 09d7 38       		.sleb128 56
 5060 09d8 BE000000 		.4byte	.LCFI7-.Ltext0
 5061 09dc 1E020000 		.4byte	.LCFI8-.Ltext0
 5062 09e0 0200     		.2byte	0x2
 5063 09e2 77       		.byte	0x77
 5064 09e3 38       		.sleb128 56
 5065 09e4 1E020000 		.4byte	.LCFI8-.Ltext0
 5066 09e8 20020000 		.4byte	.LCFI9-.Ltext0
 5067 09ec 0200     		.2byte	0x2
 5068 09ee 77       		.byte	0x77
 5069 09ef 08       		.sleb128 8
 5070 09f0 20020000 		.4byte	.LCFI9-.Ltext0
 5071 09f4 2C020000 		.4byte	.LFE30-.Ltext0
 5072 09f8 0200     		.2byte	0x2
 5073 09fa 7D       		.byte	0x7d
 5074 09fb 08       		.sleb128 8
 5075 09fc 00000000 		.4byte	0
 5076 0a00 00000000 		.4byte	0
 5077              	.LLST0:
 5078 0a04 00000000 		.4byte	.LFB29-.Ltext0
 5079 0a08 02000000 		.4byte	.LCFI0-.Ltext0
 5080 0a0c 0200     		.2byte	0x2
 5081 0a0e 7D       		.byte	0x7d
 5082 0a0f 00       		.sleb128 0
 5083 0a10 02000000 		.4byte	.LCFI0-.Ltext0
 5084 0a14 04000000 		.4byte	.LCFI1-.Ltext0
 5085 0a18 0200     		.2byte	0x2
 5086 0a1a 7D       		.byte	0x7d
ARM GAS  G:\Users\Jaxb\AppData\Local\Temp\ccWNHqDV.s 			page 109


 5087 0a1b 08       		.sleb128 8
 5088 0a1c 04000000 		.4byte	.LCFI1-.Ltext0
 5089 0a20 06000000 		.4byte	.LCFI2-.Ltext0
 5090 0a24 0200     		.2byte	0x2
 5091 0a26 7D       		.byte	0x7d
 5092 0a27 10       		.sleb128 16
 5093 0a28 06000000 		.4byte	.LCFI2-.Ltext0
 5094 0a2c A0000000 		.4byte	.LCFI3-.Ltext0
 5095 0a30 0200     		.2byte	0x2
 5096 0a32 77       		.byte	0x77
 5097 0a33 10       		.sleb128 16
 5098 0a34 A0000000 		.4byte	.LCFI3-.Ltext0
 5099 0a38 A2000000 		.4byte	.LCFI4-.Ltext0
 5100 0a3c 0200     		.2byte	0x2
 5101 0a3e 77       		.byte	0x77
 5102 0a3f 08       		.sleb128 8
 5103 0a40 A2000000 		.4byte	.LCFI4-.Ltext0
 5104 0a44 B8000000 		.4byte	.LFE29-.Ltext0
 5105 0a48 0200     		.2byte	0x2
 5106 0a4a 7D       		.byte	0x7d
 5107 0a4b 08       		.sleb128 8
 5108 0a4c 00000000 		.4byte	0
 5109 0a50 00000000 		.4byte	0
 5110              		.section	.debug_aranges,"",%progbits
 5111 0000 1C000000 		.4byte	0x1c
 5112 0004 0200     		.2byte	0x2
 5113 0006 00000000 		.4byte	.Ldebug_info0
 5114 000a 04       		.byte	0x4
 5115 000b 00       		.byte	0
 5116 000c 0000     		.2byte	0
 5117 000e 0000     		.2byte	0
 5118 0010 00000000 		.4byte	.Ltext0
 5119 0014 DA080000 		.4byte	.Letext0-.Ltext0
 5120 0018 00000000 		.4byte	0
 5121 001c 00000000 		.4byte	0
 5122              		.section	.debug_line,"",%progbits
 5123              	.Ldebug_line0:
 5124 0000 96020000 		.section	.debug_str,"MS",%progbits,1
 5124      02004501 
 5124      00000201 
 5124      FB0E0D00 
 5124      01010101 
 5125              	.LASF100:
 5126 0000 696E7465 		.ascii	"integerdivider\000"
 5126      67657264 
 5126      69766964 
 5126      657200
 5127              	.LASF47:
 5128 000f 55534152 		.ascii	"USART_CPHA\000"
 5128      545F4350 
 5128      484100
 5129              	.LASF29:
 5130 001a 47545052 		.ascii	"GTPR\000"
 5130      00
 5131              	.LASF19:
 5132 001f 49545374 		.ascii	"ITStatus\000"
 5132      61747573 
ARM GAS  G:\Users\Jaxb\AppData\Local\Temp\ccWNHqDV.s 			page 110


 5132      00
 5133              	.LASF89:
 5134 0028 6974706F 		.ascii	"itpos\000"
 5134      7300
 5135              	.LASF70:
 5136 002e 55534152 		.ascii	"USART_SetPrescaler\000"
 5136      545F5365 
 5136      74507265 
 5136      7363616C 
 5136      657200
 5137              	.LASF98:
 5138 0041 55534152 		.ascii	"USART_Init\000"
 5138      545F496E 
 5138      697400
 5139              	.LASF33:
 5140 004c 48434C4B 		.ascii	"HCLK_Frequency\000"
 5140      5F467265 
 5140      7175656E 
 5140      637900
 5141              	.LASF80:
 5142 005b 55534152 		.ascii	"USART_LINBreakDetectLength\000"
 5142      545F4C49 
 5142      4E427265 
 5142      616B4465 
 5142      74656374 
 5143              	.LASF65:
 5144 0076 55534152 		.ascii	"USART_OneBitMethodCmd\000"
 5144      545F4F6E 
 5144      65426974 
 5144      4D657468 
 5144      6F64436D 
 5145              	.LASF4:
 5146 008c 5F5F7569 		.ascii	"__uint16_t\000"
 5146      6E743136 
 5146      5F7400
 5147              	.LASF31:
 5148 0097 55534152 		.ascii	"USART_TypeDef\000"
 5148      545F5479 
 5148      70654465 
 5148      6600
 5149              	.LASF37:
 5150 00a5 5243435F 		.ascii	"RCC_ClocksTypeDef\000"
 5150      436C6F63 
 5150      6B735479 
 5150      70654465 
 5150      6600
 5151              	.LASF41:
 5152 00b7 55534152 		.ascii	"USART_Parity\000"
 5152      545F5061 
 5152      72697479 
 5152      00
 5153              	.LASF2:
 5154 00c4 73686F72 		.ascii	"short int\000"
 5154      7420696E 
 5154      7400
 5155              	.LASF49:
 5156 00ce 55534152 		.ascii	"USART_ClockInitTypeDef\000"
ARM GAS  G:\Users\Jaxb\AppData\Local\Temp\ccWNHqDV.s 			page 111


 5156      545F436C 
 5156      6F636B49 
 5156      6E697454 
 5156      79706544 
 5157              	.LASF91:
 5158 00e5 55534152 		.ascii	"USART_Cmd\000"
 5158      545F436D 
 5158      6400
 5159              	.LASF76:
 5160 00ef 55534152 		.ascii	"USART_SendData\000"
 5160      545F5365 
 5160      6E644461 
 5160      746100
 5161              	.LASF104:
 5162 00fe 2E2E2F2E 		.ascii	"../../source/src/FWlib/src/stm32f10x_usart.c\000"
 5162      2E2F736F 
 5162      75726365 
 5162      2F737263 
 5162      2F46576C 
 5163              	.LASF67:
 5164 012b 55534152 		.ascii	"USART_HalfDuplexCmd\000"
 5164      545F4861 
 5164      6C664475 
 5164      706C6578 
 5164      436D6400 
 5165              	.LASF83:
 5166 013f 55534152 		.ascii	"USART_WakeUp\000"
 5166      545F5761 
 5166      6B655570 
 5166      00
 5167              	.LASF28:
 5168 014c 52455345 		.ascii	"RESERVED5\000"
 5168      52564544 
 5168      3500
 5169              	.LASF39:
 5170 0156 55534152 		.ascii	"USART_WordLength\000"
 5170      545F576F 
 5170      72644C65 
 5170      6E677468 
 5170      00
 5171              	.LASF62:
 5172 0167 4E657753 		.ascii	"NewState\000"
 5172      74617465 
 5172      00
 5173              	.LASF86:
 5174 0170 55534152 		.ascii	"USART_DMACmd\000"
 5174      545F444D 
 5174      41436D64 
 5174      00
 5175              	.LASF20:
 5176 017d 44495341 		.ascii	"DISABLE\000"
 5176      424C4500 
 5177              	.LASF0:
 5178 0185 7369676E 		.ascii	"signed char\000"
 5178      65642063 
 5178      68617200 
 5179              	.LASF48:
ARM GAS  G:\Users\Jaxb\AppData\Local\Temp\ccWNHqDV.s 			page 112


 5180 0191 55534152 		.ascii	"USART_LastBit\000"
 5180      545F4C61 
 5180      73744269 
 5180      7400
 5181              	.LASF38:
 5182 019f 55534152 		.ascii	"USART_BaudRate\000"
 5182      545F4261 
 5182      75645261 
 5182      746500
 5183              	.LASF64:
 5184 01ae 55534152 		.ascii	"USART_IrDAMode\000"
 5184      545F4972 
 5184      44414D6F 
 5184      646500
 5185              	.LASF99:
 5186 01bd 61706263 		.ascii	"apbclock\000"
 5186      6C6F636B 
 5186      00
 5187              	.LASF105:
 5188 01c6 463A5C6B 		.ascii	"F:\\kaka\\KAKAOS\\C\\windows\\Project\\RVMDK\243\250"
 5188      616B615C 
 5188      4B414B41 
 5188      4F535C43 
 5188      5C77696E 
 5189 01ee 757635A3 		.ascii	"uv5\243\251\000"
 5189      A900
 5190              	.LASF9:
 5191 01f4 6C6F6E67 		.ascii	"long long int\000"
 5191      206C6F6E 
 5191      6720696E 
 5191      7400
 5192              	.LASF6:
 5193 0202 6C6F6E67 		.ascii	"long int\000"
 5193      20696E74 
 5193      00
 5194              	.LASF56:
 5195 020b 55534152 		.ascii	"USART_ClearITPendingBit\000"
 5195      545F436C 
 5195      65617249 
 5195      5450656E 
 5195      64696E67 
 5196              	.LASF73:
 5197 0223 55534152 		.ascii	"USART_GuardTime\000"
 5197      545F4775 
 5197      61726454 
 5197      696D6500 
 5198              	.LASF79:
 5199 0233 55534152 		.ascii	"USART_LINBreakDetectLengthConfig\000"
 5199      545F4C49 
 5199      4E427265 
 5199      616B4465 
 5199      74656374 
 5200              	.LASF58:
 5201 0254 55534152 		.ascii	"USART_FLAG\000"
 5201      545F464C 
 5201      414700
 5202              	.LASF106:
ARM GAS  G:\Users\Jaxb\AppData\Local\Temp\ccWNHqDV.s 			page 113


 5203 025f 55534152 		.ascii	"USART_DeInit\000"
 5203      545F4465 
 5203      496E6974 
 5203      00
 5204              	.LASF93:
 5205 026c 55534152 		.ascii	"USART_ClockInitStruct\000"
 5205      545F436C 
 5205      6F636B49 
 5205      6E697453 
 5205      74727563 
 5206              	.LASF77:
 5207 0282 44617461 		.ascii	"Data\000"
 5207      00
 5208              	.LASF95:
 5209 0287 746D7072 		.ascii	"tmpreg\000"
 5209      656700
 5210              	.LASF87:
 5211 028e 55534152 		.ascii	"USART_DMAReq\000"
 5211      545F444D 
 5211      41526571 
 5211      00
 5212              	.LASF92:
 5213 029b 55534152 		.ascii	"USART_ClockStructInit\000"
 5213      545F436C 
 5213      6F636B53 
 5213      74727563 
 5213      74496E69 
 5214              	.LASF1:
 5215 02b1 756E7369 		.ascii	"unsigned char\000"
 5215      676E6564 
 5215      20636861 
 5215      7200
 5216              	.LASF90:
 5217 02bf 75736172 		.ascii	"usartxbase\000"
 5217      74786261 
 5217      736500
 5218              	.LASF57:
 5219 02ca 55534152 		.ascii	"USART_ClearFlag\000"
 5219      545F436C 
 5219      65617246 
 5219      6C616700 
 5220              	.LASF84:
 5221 02da 55534152 		.ascii	"USART_SetAddress\000"
 5221      545F5365 
 5221      74416464 
 5221      72657373 
 5221      00
 5222              	.LASF10:
 5223 02eb 6C6F6E67 		.ascii	"long long unsigned int\000"
 5223      206C6F6E 
 5223      6720756E 
 5223      7369676E 
 5223      65642069 
 5224              	.LASF14:
 5225 0302 75696E74 		.ascii	"uint32_t\000"
 5225      33325F74 
 5225      00
ARM GAS  G:\Users\Jaxb\AppData\Local\Temp\ccWNHqDV.s 			page 114


 5226              	.LASF72:
 5227 030b 55534152 		.ascii	"USART_SetGuardTime\000"
 5227      545F5365 
 5227      74477561 
 5227      72645469 
 5227      6D6500
 5228              	.LASF11:
 5229 031e 756E7369 		.ascii	"unsigned int\000"
 5229      676E6564 
 5229      20696E74 
 5229      00
 5230              	.LASF13:
 5231 032b 75696E74 		.ascii	"uint16_t\000"
 5231      31365F74 
 5231      00
 5232              	.LASF8:
 5233 0334 6C6F6E67 		.ascii	"long unsigned int\000"
 5233      20756E73 
 5233      69676E65 
 5233      6420696E 
 5233      7400
 5234              	.LASF74:
 5235 0346 55534152 		.ascii	"USART_SendBreak\000"
 5235      545F5365 
 5235      6E644272 
 5235      65616B00 
 5236              	.LASF44:
 5237 0356 55534152 		.ascii	"USART_InitTypeDef\000"
 5237      545F496E 
 5237      69745479 
 5237      70654465 
 5237      6600
 5238              	.LASF88:
 5239 0368 55534152 		.ascii	"USART_ITConfig\000"
 5239      545F4954 
 5239      436F6E66 
 5239      696700
 5240              	.LASF50:
 5241 0377 55534152 		.ascii	"USARTx\000"
 5241      547800
 5242              	.LASF52:
 5243 037e 62697470 		.ascii	"bitpos\000"
 5243      6F7300
 5244              	.LASF43:
 5245 0385 55534152 		.ascii	"USART_HardwareFlowControl\000"
 5245      545F4861 
 5245      72647761 
 5245      7265466C 
 5245      6F77436F 
 5246              	.LASF42:
 5247 039f 55534152 		.ascii	"USART_Mode\000"
 5247      545F4D6F 
 5247      646500
 5248              	.LASF97:
 5249 03aa 55534152 		.ascii	"USART_InitStruct\000"
 5249      545F496E 
 5249      69745374 
ARM GAS  G:\Users\Jaxb\AppData\Local\Temp\ccWNHqDV.s 			page 115


 5249      72756374 
 5249      00
 5250              	.LASF85:
 5251 03bb 55534152 		.ascii	"USART_Address\000"
 5251      545F4164 
 5251      64726573 
 5251      7300
 5252              	.LASF36:
 5253 03c9 41444343 		.ascii	"ADCCLK_Frequency\000"
 5253      4C4B5F46 
 5253      72657175 
 5253      656E6379 
 5253      00
 5254              	.LASF66:
 5255 03da 55534152 		.ascii	"USART_OverSampling8Cmd\000"
 5255      545F4F76 
 5255      65725361 
 5255      6D706C69 
 5255      6E673843 
 5256              	.LASF5:
 5257 03f1 73686F72 		.ascii	"short unsigned int\000"
 5257      7420756E 
 5257      7369676E 
 5257      65642069 
 5257      6E7400
 5258              	.LASF59:
 5259 0404 55534152 		.ascii	"USART_GetITStatus\000"
 5259      545F4765 
 5259      74495453 
 5259      74617475 
 5259      7300
 5260              	.LASF32:
 5261 0416 53595343 		.ascii	"SYSCLK_Frequency\000"
 5261      4C4B5F46 
 5261      72657175 
 5261      656E6379 
 5261      00
 5262              	.LASF63:
 5263 0427 55534152 		.ascii	"USART_IrDAConfig\000"
 5263      545F4972 
 5263      4441436F 
 5263      6E666967 
 5263      00
 5264              	.LASF16:
 5265 0438 53797374 		.ascii	"SystemCoreClock\000"
 5265      656D436F 
 5265      7265436C 
 5265      6F636B00 
 5266              	.LASF35:
 5267 0448 50434C4B 		.ascii	"PCLK2_Frequency\000"
 5267      325F4672 
 5267      65717565 
 5267      6E637900 
 5268              	.LASF45:
 5269 0458 55534152 		.ascii	"USART_Clock\000"
 5269      545F436C 
 5269      6F636B00 
ARM GAS  G:\Users\Jaxb\AppData\Local\Temp\ccWNHqDV.s 			page 116


 5270              	.LASF23:
 5271 0464 52455345 		.ascii	"RESERVED0\000"
 5271      52564544 
 5271      3000
 5272              	.LASF24:
 5273 046e 52455345 		.ascii	"RESERVED1\000"
 5273      52564544 
 5273      3100
 5274              	.LASF25:
 5275 0478 52455345 		.ascii	"RESERVED2\000"
 5275      52564544 
 5275      3200
 5276              	.LASF26:
 5277 0482 52455345 		.ascii	"RESERVED3\000"
 5277      52564544 
 5277      3300
 5278              	.LASF27:
 5279 048c 52455345 		.ascii	"RESERVED4\000"
 5279      52564544 
 5279      3400
 5280              	.LASF81:
 5281 0496 55534152 		.ascii	"USART_ReceiverWakeUpCmd\000"
 5281      545F5265 
 5281      63656976 
 5281      65725761 
 5281      6B655570 
 5282              	.LASF30:
 5283 04ae 52455345 		.ascii	"RESERVED6\000"
 5283      52564544 
 5283      3600
 5284              	.LASF61:
 5285 04b8 55534152 		.ascii	"USART_IrDACmd\000"
 5285      545F4972 
 5285      4441436D 
 5285      6400
 5286              	.LASF78:
 5287 04c6 55534152 		.ascii	"USART_LINCmd\000"
 5287      545F4C49 
 5287      4E436D64 
 5287      00
 5288              	.LASF101:
 5289 04d3 66726163 		.ascii	"fractionaldivider\000"
 5289      74696F6E 
 5289      616C6469 
 5289      76696465 
 5289      7200
 5290              	.LASF22:
 5291 04e5 46756E63 		.ascii	"FunctionalState\000"
 5291      74696F6E 
 5291      616C5374 
 5291      61746500 
 5292              	.LASF68:
 5293 04f5 55534152 		.ascii	"USART_SmartCardNACKCmd\000"
 5293      545F536D 
 5293      61727443 
 5293      6172644E 
 5293      41434B43 
ARM GAS  G:\Users\Jaxb\AppData\Local\Temp\ccWNHqDV.s 			page 117


 5294              	.LASF7:
 5295 050c 5F5F7569 		.ascii	"__uint32_t\000"
 5295      6E743332 
 5295      5F7400
 5296              	.LASF34:
 5297 0517 50434C4B 		.ascii	"PCLK1_Frequency\000"
 5297      315F4672 
 5297      65717565 
 5297      6E637900 
 5298              	.LASF60:
 5299 0527 55534152 		.ascii	"USART_GetFlagStatus\000"
 5299      545F4765 
 5299      74466C61 
 5299      67537461 
 5299      74757300 
 5300              	.LASF69:
 5301 053b 55534152 		.ascii	"USART_SmartCardCmd\000"
 5301      545F536D 
 5301      61727443 
 5301      61726443 
 5301      6D6400
 5302              	.LASF51:
 5303 054e 55534152 		.ascii	"USART_IT\000"
 5303      545F4954 
 5303      00
 5304              	.LASF17:
 5305 0557 52455345 		.ascii	"RESET\000"
 5305      5400
 5306              	.LASF102:
 5307 055d 5243435F 		.ascii	"RCC_ClocksStatus\000"
 5307      436C6F63 
 5307      6B735374 
 5307      61747573 
 5307      00
 5308              	.LASF12:
 5309 056e 75696E74 		.ascii	"uint8_t\000"
 5309      385F7400 
 5310              	.LASF94:
 5311 0576 55534152 		.ascii	"USART_ClockInit\000"
 5311      545F436C 
 5311      6F636B49 
 5311      6E697400 
 5312              	.LASF82:
 5313 0586 55534152 		.ascii	"USART_WakeUpConfig\000"
 5313      545F5761 
 5313      6B655570 
 5313      436F6E66 
 5313      696700
 5314              	.LASF75:
 5315 0599 55534152 		.ascii	"USART_ReceiveData\000"
 5315      545F5265 
 5315      63656976 
 5315      65446174 
 5315      6100
 5316              	.LASF40:
 5317 05ab 55534152 		.ascii	"USART_StopBits\000"
 5317      545F5374 
ARM GAS  G:\Users\Jaxb\AppData\Local\Temp\ccWNHqDV.s 			page 118


 5317      6F704269 
 5317      747300
 5318              	.LASF103:
 5319 05ba 474E5520 		.ascii	"GNU C11 7.3.1 20180622 (release) [ARM/embedded-7-br"
 5319      43313120 
 5319      372E332E 
 5319      31203230 
 5319      31383036 
 5320 05ed 616E6368 		.ascii	"anch revision 261907] -mcpu=cortex-m3 -mthumb -mapc"
 5320      20726576 
 5320      6973696F 
 5320      6E203236 
 5320      31393037 
 5321 0620 732D6672 		.ascii	"s-frame -mthumb-interwork -mcpu=cortex-m3 -mthumb -"
 5321      616D6520 
 5321      2D6D7468 
 5321      756D622D 
 5321      696E7465 
 5322 0653 67647761 		.ascii	"gdwarf-2 -O0\000"
 5322      72662D32 
 5322      202D4F30 
 5322      00
 5323              	.LASF71:
 5324 0660 55534152 		.ascii	"USART_Prescaler\000"
 5324      545F5072 
 5324      65736361 
 5324      6C657200 
 5325              	.LASF46:
 5326 0670 55534152 		.ascii	"USART_CPOL\000"
 5326      545F4350 
 5326      4F4C00
 5327              	.LASF53:
 5328 067b 69746D61 		.ascii	"itmask\000"
 5328      736B00
 5329              	.LASF15:
 5330 0682 49544D5F 		.ascii	"ITM_RxBuffer\000"
 5330      52784275 
 5330      66666572 
 5330      00
 5331              	.LASF55:
 5332 068f 62697473 		.ascii	"bitstatus\000"
 5332      74617475 
 5332      7300
 5333              	.LASF18:
 5334 0699 466C6167 		.ascii	"FlagStatus\000"
 5334      53746174 
 5334      757300
 5335              	.LASF54:
 5336 06a4 75736172 		.ascii	"usartreg\000"
 5336      74726567 
 5336      00
 5337              	.LASF21:
 5338 06ad 454E4142 		.ascii	"ENABLE\000"
 5338      4C4500
 5339              	.LASF3:
 5340 06b4 5F5F7569 		.ascii	"__uint8_t\000"
 5340      6E74385F 
ARM GAS  G:\Users\Jaxb\AppData\Local\Temp\ccWNHqDV.s 			page 119


 5340      7400
 5341              	.LASF96:
 5342 06be 55534152 		.ascii	"USART_StructInit\000"
 5342      545F5374 
 5342      72756374 
 5342      496E6974 
 5342      00
 5343              		.ident	"GCC: (GNU Tools for Arm Embedded Processors 7-2018-q2-update) 7.3.1 20180622 (release) [AR
ARM GAS  G:\Users\Jaxb\AppData\Local\Temp\ccWNHqDV.s 			page 120


DEFINED SYMBOLS
                            *ABS*:00000000 stm32f10x_usart.c
G:\Users\Jaxb\AppData\Local\Temp\ccWNHqDV.s:15     .text:00000000 $t
G:\Users\Jaxb\AppData\Local\Temp\ccWNHqDV.s:22     .text:00000000 USART_DeInit
G:\Users\Jaxb\AppData\Local\Temp\ccWNHqDV.s:132    .text:000000a4 $d
G:\Users\Jaxb\AppData\Local\Temp\ccWNHqDV.s:140    .text:000000b8 $t
G:\Users\Jaxb\AppData\Local\Temp\ccWNHqDV.s:147    .text:000000b8 USART_Init
G:\Users\Jaxb\AppData\Local\Temp\ccWNHqDV.s:376    .text:00000224 $d
G:\Users\Jaxb\AppData\Local\Temp\ccWNHqDV.s:381    .text:0000022c $t
G:\Users\Jaxb\AppData\Local\Temp\ccWNHqDV.s:388    .text:0000022c USART_StructInit
G:\Users\Jaxb\AppData\Local\Temp\ccWNHqDV.s:454    .text:00000264 USART_ClockInit
G:\Users\Jaxb\AppData\Local\Temp\ccWNHqDV.s:536    .text:000002ba USART_ClockStructInit
G:\Users\Jaxb\AppData\Local\Temp\ccWNHqDV.s:594    .text:000002e4 USART_Cmd
G:\Users\Jaxb\AppData\Local\Temp\ccWNHqDV.s:662    .text:00000322 USART_ITConfig
G:\Users\Jaxb\AppData\Local\Temp\ccWNHqDV.s:784    .text:000003b0 USART_DMACmd
G:\Users\Jaxb\AppData\Local\Temp\ccWNHqDV.s:858    .text:000003f6 USART_SetAddress
G:\Users\Jaxb\AppData\Local\Temp\ccWNHqDV.s:920    .text:0000042e USART_WakeUpConfig
G:\Users\Jaxb\AppData\Local\Temp\ccWNHqDV.s:981    .text:00000464 USART_ReceiverWakeUpCmd
G:\Users\Jaxb\AppData\Local\Temp\ccWNHqDV.s:1049   .text:000004a2 USART_LINBreakDetectLengthConfig
G:\Users\Jaxb\AppData\Local\Temp\ccWNHqDV.s:1110   .text:000004d8 USART_LINCmd
G:\Users\Jaxb\AppData\Local\Temp\ccWNHqDV.s:1178   .text:00000516 USART_SendData
G:\Users\Jaxb\AppData\Local\Temp\ccWNHqDV.s:1228   .text:00000538 USART_ReceiveData
G:\Users\Jaxb\AppData\Local\Temp\ccWNHqDV.s:1276   .text:00000556 USART_SendBreak
G:\Users\Jaxb\AppData\Local\Temp\ccWNHqDV.s:1326   .text:00000578 USART_SetGuardTime
G:\Users\Jaxb\AppData\Local\Temp\ccWNHqDV.s:1390   .text:000005b2 USART_SetPrescaler
G:\Users\Jaxb\AppData\Local\Temp\ccWNHqDV.s:1452   .text:000005ea USART_SmartCardCmd
G:\Users\Jaxb\AppData\Local\Temp\ccWNHqDV.s:1520   .text:00000628 USART_SmartCardNACKCmd
G:\Users\Jaxb\AppData\Local\Temp\ccWNHqDV.s:1588   .text:00000666 USART_HalfDuplexCmd
G:\Users\Jaxb\AppData\Local\Temp\ccWNHqDV.s:1656   .text:000006a4 USART_OverSampling8Cmd
G:\Users\Jaxb\AppData\Local\Temp\ccWNHqDV.s:1725   .text:000006e6 USART_OneBitMethodCmd
G:\Users\Jaxb\AppData\Local\Temp\ccWNHqDV.s:1793   .text:00000724 USART_IrDAConfig
G:\Users\Jaxb\AppData\Local\Temp\ccWNHqDV.s:1854   .text:0000075a USART_IrDACmd
G:\Users\Jaxb\AppData\Local\Temp\ccWNHqDV.s:1922   .text:00000798 USART_GetFlagStatus
G:\Users\Jaxb\AppData\Local\Temp\ccWNHqDV.s:1989   .text:000007ce USART_ClearFlag
G:\Users\Jaxb\AppData\Local\Temp\ccWNHqDV.s:2039   .text:000007ee USART_GetITStatus
G:\Users\Jaxb\AppData\Local\Temp\ccWNHqDV.s:2182   .text:000008a2 USART_ClearITPendingBit

UNDEFINED SYMBOLS
RCC_APB2PeriphResetCmd
RCC_APB1PeriphResetCmd
RCC_GetClocksFreq
