ARM GAS  G:\Users\Jaxb\AppData\Local\Temp\ccmT3S8V.s 			page 1


   1              		.cpu cortex-m3
   2              		.eabi_attribute 20, 1
   3              		.eabi_attribute 21, 1
   4              		.eabi_attribute 23, 3
   5              		.eabi_attribute 24, 1
   6              		.eabi_attribute 25, 1
   7              		.eabi_attribute 26, 1
   8              		.eabi_attribute 30, 2
   9              		.eabi_attribute 34, 1
  10              		.eabi_attribute 18, 4
  11              		.file	"stm32f10x_sdio.c"
  12              		.text
  13              	.Ltext0:
  14              		.cfi_sections	.debug_frame
  15              		.align	1
  16              		.p2align 2,,3
  17              		.global	SDIO_DeInit
  18              		.syntax unified
  19              		.thumb
  20              		.thumb_func
  21              		.fpu softvfp
  22              		.type	SDIO_DeInit, %function
  23              	SDIO_DeInit:
  24              	.LFB29:
  25              		.file 1 "../../source/src/FWlib/src/stm32f10x_sdio.c"
   1:../../source/src/FWlib/src/stm32f10x_sdio.c **** /**
   2:../../source/src/FWlib/src/stm32f10x_sdio.c ****   ******************************************************************************
   3:../../source/src/FWlib/src/stm32f10x_sdio.c ****   * @file    stm32f10x_sdio.c
   4:../../source/src/FWlib/src/stm32f10x_sdio.c ****   * @author  MCD Application Team
   5:../../source/src/FWlib/src/stm32f10x_sdio.c ****   * @version V3.5.0
   6:../../source/src/FWlib/src/stm32f10x_sdio.c ****   * @date    11-March-2011
   7:../../source/src/FWlib/src/stm32f10x_sdio.c ****   * @brief   This file provides all the SDIO firmware functions.
   8:../../source/src/FWlib/src/stm32f10x_sdio.c ****   ******************************************************************************
   9:../../source/src/FWlib/src/stm32f10x_sdio.c ****   * @attention
  10:../../source/src/FWlib/src/stm32f10x_sdio.c ****   *
  11:../../source/src/FWlib/src/stm32f10x_sdio.c ****   * THE PRESENT FIRMWARE WHICH IS FOR GUIDANCE ONLY AIMS AT PROVIDING CUSTOMERS
  12:../../source/src/FWlib/src/stm32f10x_sdio.c ****   * WITH CODING INFORMATION REGARDING THEIR PRODUCTS IN ORDER FOR THEM TO SAVE
  13:../../source/src/FWlib/src/stm32f10x_sdio.c ****   * TIME. AS A RESULT, STMICROELECTRONICS SHALL NOT BE HELD LIABLE FOR ANY
  14:../../source/src/FWlib/src/stm32f10x_sdio.c ****   * DIRECT, INDIRECT OR CONSEQUENTIAL DAMAGES WITH RESPECT TO ANY CLAIMS ARISING
  15:../../source/src/FWlib/src/stm32f10x_sdio.c ****   * FROM THE CONTENT OF SUCH FIRMWARE AND/OR THE USE MADE BY CUSTOMERS OF THE
  16:../../source/src/FWlib/src/stm32f10x_sdio.c ****   * CODING INFORMATION CONTAINED HEREIN IN CONNECTION WITH THEIR PRODUCTS.
  17:../../source/src/FWlib/src/stm32f10x_sdio.c ****   *
  18:../../source/src/FWlib/src/stm32f10x_sdio.c ****   * <h2><center>&copy; COPYRIGHT 2011 STMicroelectronics</center></h2>
  19:../../source/src/FWlib/src/stm32f10x_sdio.c ****   ******************************************************************************
  20:../../source/src/FWlib/src/stm32f10x_sdio.c ****   */
  21:../../source/src/FWlib/src/stm32f10x_sdio.c **** 
  22:../../source/src/FWlib/src/stm32f10x_sdio.c **** /* Includes ------------------------------------------------------------------*/
  23:../../source/src/FWlib/src/stm32f10x_sdio.c **** #include "stm32f10x_sdio.h"
  24:../../source/src/FWlib/src/stm32f10x_sdio.c **** #include "stm32f10x_rcc.h"
  25:../../source/src/FWlib/src/stm32f10x_sdio.c **** 
  26:../../source/src/FWlib/src/stm32f10x_sdio.c **** /** @addtogroup STM32F10x_StdPeriph_Driver
  27:../../source/src/FWlib/src/stm32f10x_sdio.c ****   * @{
  28:../../source/src/FWlib/src/stm32f10x_sdio.c ****   */
  29:../../source/src/FWlib/src/stm32f10x_sdio.c **** 
  30:../../source/src/FWlib/src/stm32f10x_sdio.c **** /** @defgroup SDIO 
  31:../../source/src/FWlib/src/stm32f10x_sdio.c ****   * @brief SDIO driver modules
  32:../../source/src/FWlib/src/stm32f10x_sdio.c ****   * @{
ARM GAS  G:\Users\Jaxb\AppData\Local\Temp\ccmT3S8V.s 			page 2


  33:../../source/src/FWlib/src/stm32f10x_sdio.c ****   */ 
  34:../../source/src/FWlib/src/stm32f10x_sdio.c **** 
  35:../../source/src/FWlib/src/stm32f10x_sdio.c **** /** @defgroup SDIO_Private_TypesDefinitions
  36:../../source/src/FWlib/src/stm32f10x_sdio.c ****   * @{
  37:../../source/src/FWlib/src/stm32f10x_sdio.c ****   */ 
  38:../../source/src/FWlib/src/stm32f10x_sdio.c **** 
  39:../../source/src/FWlib/src/stm32f10x_sdio.c **** /* ------------ SDIO registers bit address in the alias region ----------- */
  40:../../source/src/FWlib/src/stm32f10x_sdio.c **** #define SDIO_OFFSET                (SDIO_BASE - PERIPH_BASE)
  41:../../source/src/FWlib/src/stm32f10x_sdio.c **** 
  42:../../source/src/FWlib/src/stm32f10x_sdio.c **** /* --- CLKCR Register ---*/
  43:../../source/src/FWlib/src/stm32f10x_sdio.c **** 
  44:../../source/src/FWlib/src/stm32f10x_sdio.c **** /* Alias word address of CLKEN bit */
  45:../../source/src/FWlib/src/stm32f10x_sdio.c **** #define CLKCR_OFFSET              (SDIO_OFFSET + 0x04)
  46:../../source/src/FWlib/src/stm32f10x_sdio.c **** #define CLKEN_BitNumber           0x08
  47:../../source/src/FWlib/src/stm32f10x_sdio.c **** #define CLKCR_CLKEN_BB            (PERIPH_BB_BASE + (CLKCR_OFFSET * 32) + (CLKEN_BitNumber * 4))
  48:../../source/src/FWlib/src/stm32f10x_sdio.c **** 
  49:../../source/src/FWlib/src/stm32f10x_sdio.c **** /* --- CMD Register ---*/
  50:../../source/src/FWlib/src/stm32f10x_sdio.c **** 
  51:../../source/src/FWlib/src/stm32f10x_sdio.c **** /* Alias word address of SDIOSUSPEND bit */
  52:../../source/src/FWlib/src/stm32f10x_sdio.c **** #define CMD_OFFSET                (SDIO_OFFSET + 0x0C)
  53:../../source/src/FWlib/src/stm32f10x_sdio.c **** #define SDIOSUSPEND_BitNumber     0x0B
  54:../../source/src/FWlib/src/stm32f10x_sdio.c **** #define CMD_SDIOSUSPEND_BB        (PERIPH_BB_BASE + (CMD_OFFSET * 32) + (SDIOSUSPEND_BitNumber * 4)
  55:../../source/src/FWlib/src/stm32f10x_sdio.c **** 
  56:../../source/src/FWlib/src/stm32f10x_sdio.c **** /* Alias word address of ENCMDCOMPL bit */
  57:../../source/src/FWlib/src/stm32f10x_sdio.c **** #define ENCMDCOMPL_BitNumber      0x0C
  58:../../source/src/FWlib/src/stm32f10x_sdio.c **** #define CMD_ENCMDCOMPL_BB         (PERIPH_BB_BASE + (CMD_OFFSET * 32) + (ENCMDCOMPL_BitNumber * 4))
  59:../../source/src/FWlib/src/stm32f10x_sdio.c **** 
  60:../../source/src/FWlib/src/stm32f10x_sdio.c **** /* Alias word address of NIEN bit */
  61:../../source/src/FWlib/src/stm32f10x_sdio.c **** #define NIEN_BitNumber            0x0D
  62:../../source/src/FWlib/src/stm32f10x_sdio.c **** #define CMD_NIEN_BB               (PERIPH_BB_BASE + (CMD_OFFSET * 32) + (NIEN_BitNumber * 4))
  63:../../source/src/FWlib/src/stm32f10x_sdio.c **** 
  64:../../source/src/FWlib/src/stm32f10x_sdio.c **** /* Alias word address of ATACMD bit */
  65:../../source/src/FWlib/src/stm32f10x_sdio.c **** #define ATACMD_BitNumber          0x0E
  66:../../source/src/FWlib/src/stm32f10x_sdio.c **** #define CMD_ATACMD_BB             (PERIPH_BB_BASE + (CMD_OFFSET * 32) + (ATACMD_BitNumber * 4))
  67:../../source/src/FWlib/src/stm32f10x_sdio.c **** 
  68:../../source/src/FWlib/src/stm32f10x_sdio.c **** /* --- DCTRL Register ---*/
  69:../../source/src/FWlib/src/stm32f10x_sdio.c **** 
  70:../../source/src/FWlib/src/stm32f10x_sdio.c **** /* Alias word address of DMAEN bit */
  71:../../source/src/FWlib/src/stm32f10x_sdio.c **** #define DCTRL_OFFSET              (SDIO_OFFSET + 0x2C)
  72:../../source/src/FWlib/src/stm32f10x_sdio.c **** #define DMAEN_BitNumber           0x03
  73:../../source/src/FWlib/src/stm32f10x_sdio.c **** #define DCTRL_DMAEN_BB            (PERIPH_BB_BASE + (DCTRL_OFFSET * 32) + (DMAEN_BitNumber * 4))
  74:../../source/src/FWlib/src/stm32f10x_sdio.c **** 
  75:../../source/src/FWlib/src/stm32f10x_sdio.c **** /* Alias word address of RWSTART bit */
  76:../../source/src/FWlib/src/stm32f10x_sdio.c **** #define RWSTART_BitNumber         0x08
  77:../../source/src/FWlib/src/stm32f10x_sdio.c **** #define DCTRL_RWSTART_BB          (PERIPH_BB_BASE + (DCTRL_OFFSET * 32) + (RWSTART_BitNumber * 4))
  78:../../source/src/FWlib/src/stm32f10x_sdio.c **** 
  79:../../source/src/FWlib/src/stm32f10x_sdio.c **** /* Alias word address of RWSTOP bit */
  80:../../source/src/FWlib/src/stm32f10x_sdio.c **** #define RWSTOP_BitNumber          0x09
  81:../../source/src/FWlib/src/stm32f10x_sdio.c **** #define DCTRL_RWSTOP_BB           (PERIPH_BB_BASE + (DCTRL_OFFSET * 32) + (RWSTOP_BitNumber * 4))
  82:../../source/src/FWlib/src/stm32f10x_sdio.c **** 
  83:../../source/src/FWlib/src/stm32f10x_sdio.c **** /* Alias word address of RWMOD bit */
  84:../../source/src/FWlib/src/stm32f10x_sdio.c **** #define RWMOD_BitNumber           0x0A
  85:../../source/src/FWlib/src/stm32f10x_sdio.c **** #define DCTRL_RWMOD_BB            (PERIPH_BB_BASE + (DCTRL_OFFSET * 32) + (RWMOD_BitNumber * 4))
  86:../../source/src/FWlib/src/stm32f10x_sdio.c **** 
  87:../../source/src/FWlib/src/stm32f10x_sdio.c **** /* Alias word address of SDIOEN bit */
  88:../../source/src/FWlib/src/stm32f10x_sdio.c **** #define SDIOEN_BitNumber          0x0B
  89:../../source/src/FWlib/src/stm32f10x_sdio.c **** #define DCTRL_SDIOEN_BB           (PERIPH_BB_BASE + (DCTRL_OFFSET * 32) + (SDIOEN_BitNumber * 4))
ARM GAS  G:\Users\Jaxb\AppData\Local\Temp\ccmT3S8V.s 			page 3


  90:../../source/src/FWlib/src/stm32f10x_sdio.c **** 
  91:../../source/src/FWlib/src/stm32f10x_sdio.c **** /* ---------------------- SDIO registers bit mask ------------------------ */
  92:../../source/src/FWlib/src/stm32f10x_sdio.c **** 
  93:../../source/src/FWlib/src/stm32f10x_sdio.c **** /* --- CLKCR Register ---*/
  94:../../source/src/FWlib/src/stm32f10x_sdio.c **** 
  95:../../source/src/FWlib/src/stm32f10x_sdio.c **** /* CLKCR register clear mask */
  96:../../source/src/FWlib/src/stm32f10x_sdio.c **** #define CLKCR_CLEAR_MASK         ((uint32_t)0xFFFF8100) 
  97:../../source/src/FWlib/src/stm32f10x_sdio.c **** 
  98:../../source/src/FWlib/src/stm32f10x_sdio.c **** /* --- PWRCTRL Register ---*/
  99:../../source/src/FWlib/src/stm32f10x_sdio.c **** 
 100:../../source/src/FWlib/src/stm32f10x_sdio.c **** /* SDIO PWRCTRL Mask */
 101:../../source/src/FWlib/src/stm32f10x_sdio.c **** #define PWR_PWRCTRL_MASK         ((uint32_t)0xFFFFFFFC)
 102:../../source/src/FWlib/src/stm32f10x_sdio.c **** 
 103:../../source/src/FWlib/src/stm32f10x_sdio.c **** /* --- DCTRL Register ---*/
 104:../../source/src/FWlib/src/stm32f10x_sdio.c **** 
 105:../../source/src/FWlib/src/stm32f10x_sdio.c **** /* SDIO DCTRL Clear Mask */
 106:../../source/src/FWlib/src/stm32f10x_sdio.c **** #define DCTRL_CLEAR_MASK         ((uint32_t)0xFFFFFF08)
 107:../../source/src/FWlib/src/stm32f10x_sdio.c **** 
 108:../../source/src/FWlib/src/stm32f10x_sdio.c **** /* --- CMD Register ---*/
 109:../../source/src/FWlib/src/stm32f10x_sdio.c **** 
 110:../../source/src/FWlib/src/stm32f10x_sdio.c **** /* CMD Register clear mask */
 111:../../source/src/FWlib/src/stm32f10x_sdio.c **** #define CMD_CLEAR_MASK           ((uint32_t)0xFFFFF800)
 112:../../source/src/FWlib/src/stm32f10x_sdio.c **** 
 113:../../source/src/FWlib/src/stm32f10x_sdio.c **** /* SDIO RESP Registers Address */
 114:../../source/src/FWlib/src/stm32f10x_sdio.c **** #define SDIO_RESP_ADDR           ((uint32_t)(SDIO_BASE + 0x14))
 115:../../source/src/FWlib/src/stm32f10x_sdio.c **** 
 116:../../source/src/FWlib/src/stm32f10x_sdio.c **** /**
 117:../../source/src/FWlib/src/stm32f10x_sdio.c ****   * @}
 118:../../source/src/FWlib/src/stm32f10x_sdio.c ****   */
 119:../../source/src/FWlib/src/stm32f10x_sdio.c **** 
 120:../../source/src/FWlib/src/stm32f10x_sdio.c **** /** @defgroup SDIO_Private_Defines
 121:../../source/src/FWlib/src/stm32f10x_sdio.c ****   * @{
 122:../../source/src/FWlib/src/stm32f10x_sdio.c ****   */
 123:../../source/src/FWlib/src/stm32f10x_sdio.c **** 
 124:../../source/src/FWlib/src/stm32f10x_sdio.c **** /**
 125:../../source/src/FWlib/src/stm32f10x_sdio.c ****   * @}
 126:../../source/src/FWlib/src/stm32f10x_sdio.c ****   */
 127:../../source/src/FWlib/src/stm32f10x_sdio.c **** 
 128:../../source/src/FWlib/src/stm32f10x_sdio.c **** /** @defgroup SDIO_Private_Macros
 129:../../source/src/FWlib/src/stm32f10x_sdio.c ****   * @{
 130:../../source/src/FWlib/src/stm32f10x_sdio.c ****   */
 131:../../source/src/FWlib/src/stm32f10x_sdio.c **** 
 132:../../source/src/FWlib/src/stm32f10x_sdio.c **** /**
 133:../../source/src/FWlib/src/stm32f10x_sdio.c ****   * @}
 134:../../source/src/FWlib/src/stm32f10x_sdio.c ****   */
 135:../../source/src/FWlib/src/stm32f10x_sdio.c **** 
 136:../../source/src/FWlib/src/stm32f10x_sdio.c **** /** @defgroup SDIO_Private_Variables
 137:../../source/src/FWlib/src/stm32f10x_sdio.c ****   * @{
 138:../../source/src/FWlib/src/stm32f10x_sdio.c ****   */
 139:../../source/src/FWlib/src/stm32f10x_sdio.c **** 
 140:../../source/src/FWlib/src/stm32f10x_sdio.c **** /**
 141:../../source/src/FWlib/src/stm32f10x_sdio.c ****   * @}
 142:../../source/src/FWlib/src/stm32f10x_sdio.c ****   */
 143:../../source/src/FWlib/src/stm32f10x_sdio.c **** 
 144:../../source/src/FWlib/src/stm32f10x_sdio.c **** /** @defgroup SDIO_Private_FunctionPrototypes
 145:../../source/src/FWlib/src/stm32f10x_sdio.c ****   * @{
 146:../../source/src/FWlib/src/stm32f10x_sdio.c ****   */
ARM GAS  G:\Users\Jaxb\AppData\Local\Temp\ccmT3S8V.s 			page 4


 147:../../source/src/FWlib/src/stm32f10x_sdio.c **** 
 148:../../source/src/FWlib/src/stm32f10x_sdio.c **** /**
 149:../../source/src/FWlib/src/stm32f10x_sdio.c ****   * @}
 150:../../source/src/FWlib/src/stm32f10x_sdio.c ****   */
 151:../../source/src/FWlib/src/stm32f10x_sdio.c **** 
 152:../../source/src/FWlib/src/stm32f10x_sdio.c **** /** @defgroup SDIO_Private_Functions
 153:../../source/src/FWlib/src/stm32f10x_sdio.c ****   * @{
 154:../../source/src/FWlib/src/stm32f10x_sdio.c ****   */
 155:../../source/src/FWlib/src/stm32f10x_sdio.c **** 
 156:../../source/src/FWlib/src/stm32f10x_sdio.c **** /**
 157:../../source/src/FWlib/src/stm32f10x_sdio.c ****   * @brief  Deinitializes the SDIO peripheral registers to their default reset values.
 158:../../source/src/FWlib/src/stm32f10x_sdio.c ****   * @param  None
 159:../../source/src/FWlib/src/stm32f10x_sdio.c ****   * @retval None
 160:../../source/src/FWlib/src/stm32f10x_sdio.c ****   */
 161:../../source/src/FWlib/src/stm32f10x_sdio.c **** void SDIO_DeInit(void)
 162:../../source/src/FWlib/src/stm32f10x_sdio.c **** {
  26              		.loc 1 162 0
  27              		.cfi_startproc
  28              		@ args = 0, pretend = 0, frame = 0
  29              		@ frame_needed = 0, uses_anonymous_args = 0
  30              		@ link register save eliminated.
 163:../../source/src/FWlib/src/stm32f10x_sdio.c ****   SDIO->POWER = 0x00000000;
  31              		.loc 1 163 0
  32 0000 0022     		movs	r2, #0
  33 0002 064B     		ldr	r3, .L3
 164:../../source/src/FWlib/src/stm32f10x_sdio.c ****   SDIO->CLKCR = 0x00000000;
 165:../../source/src/FWlib/src/stm32f10x_sdio.c ****   SDIO->ARG = 0x00000000;
 166:../../source/src/FWlib/src/stm32f10x_sdio.c ****   SDIO->CMD = 0x00000000;
 167:../../source/src/FWlib/src/stm32f10x_sdio.c ****   SDIO->DTIMER = 0x00000000;
 168:../../source/src/FWlib/src/stm32f10x_sdio.c ****   SDIO->DLEN = 0x00000000;
 169:../../source/src/FWlib/src/stm32f10x_sdio.c ****   SDIO->DCTRL = 0x00000000;
 170:../../source/src/FWlib/src/stm32f10x_sdio.c ****   SDIO->ICR = 0x00C007FF;
  34              		.loc 1 170 0
  35 0004 0649     		ldr	r1, .L3+4
 163:../../source/src/FWlib/src/stm32f10x_sdio.c ****   SDIO->POWER = 0x00000000;
  36              		.loc 1 163 0
  37 0006 1A60     		str	r2, [r3]
 164:../../source/src/FWlib/src/stm32f10x_sdio.c ****   SDIO->CLKCR = 0x00000000;
  38              		.loc 1 164 0
  39 0008 5A60     		str	r2, [r3, #4]
 165:../../source/src/FWlib/src/stm32f10x_sdio.c ****   SDIO->CMD = 0x00000000;
  40              		.loc 1 165 0
  41 000a 9A60     		str	r2, [r3, #8]
 166:../../source/src/FWlib/src/stm32f10x_sdio.c ****   SDIO->DTIMER = 0x00000000;
  42              		.loc 1 166 0
  43 000c DA60     		str	r2, [r3, #12]
 167:../../source/src/FWlib/src/stm32f10x_sdio.c ****   SDIO->DLEN = 0x00000000;
  44              		.loc 1 167 0
  45 000e 5A62     		str	r2, [r3, #36]
 168:../../source/src/FWlib/src/stm32f10x_sdio.c ****   SDIO->DCTRL = 0x00000000;
  46              		.loc 1 168 0
  47 0010 9A62     		str	r2, [r3, #40]
 169:../../source/src/FWlib/src/stm32f10x_sdio.c ****   SDIO->ICR = 0x00C007FF;
  48              		.loc 1 169 0
  49 0012 DA62     		str	r2, [r3, #44]
  50              		.loc 1 170 0
  51 0014 9963     		str	r1, [r3, #56]
ARM GAS  G:\Users\Jaxb\AppData\Local\Temp\ccmT3S8V.s 			page 5


 171:../../source/src/FWlib/src/stm32f10x_sdio.c ****   SDIO->MASK = 0x00000000;
  52              		.loc 1 171 0
  53 0016 DA63     		str	r2, [r3, #60]
 172:../../source/src/FWlib/src/stm32f10x_sdio.c **** }
  54              		.loc 1 172 0
  55 0018 7047     		bx	lr
  56              	.L4:
  57 001a 00BF     		.align	2
  58              	.L3:
  59 001c 00800140 		.word	1073840128
  60 0020 FF07C000 		.word	12584959
  61              		.cfi_endproc
  62              	.LFE29:
  63              		.size	SDIO_DeInit, .-SDIO_DeInit
  64              		.align	1
  65              		.p2align 2,,3
  66              		.global	SDIO_Init
  67              		.syntax unified
  68              		.thumb
  69              		.thumb_func
  70              		.fpu softvfp
  71              		.type	SDIO_Init, %function
  72              	SDIO_Init:
  73              	.LFB30:
 173:../../source/src/FWlib/src/stm32f10x_sdio.c **** 
 174:../../source/src/FWlib/src/stm32f10x_sdio.c **** /**
 175:../../source/src/FWlib/src/stm32f10x_sdio.c ****   * @brief  Initializes the SDIO peripheral according to the specified 
 176:../../source/src/FWlib/src/stm32f10x_sdio.c ****   *         parameters in the SDIO_InitStruct.
 177:../../source/src/FWlib/src/stm32f10x_sdio.c ****   * @param  SDIO_InitStruct : pointer to a SDIO_InitTypeDef structure 
 178:../../source/src/FWlib/src/stm32f10x_sdio.c ****   *         that contains the configuration information for the SDIO peripheral.
 179:../../source/src/FWlib/src/stm32f10x_sdio.c ****   * @retval None
 180:../../source/src/FWlib/src/stm32f10x_sdio.c ****   */
 181:../../source/src/FWlib/src/stm32f10x_sdio.c **** void SDIO_Init(SDIO_InitTypeDef* SDIO_InitStruct)
 182:../../source/src/FWlib/src/stm32f10x_sdio.c **** {
  74              		.loc 1 182 0
  75              		.cfi_startproc
  76              		@ args = 0, pretend = 0, frame = 0
  77              		@ frame_needed = 0, uses_anonymous_args = 0
  78              		@ link register save eliminated.
  79              	.LVL0:
 183:../../source/src/FWlib/src/stm32f10x_sdio.c ****   uint32_t tmpreg = 0;
 184:../../source/src/FWlib/src/stm32f10x_sdio.c ****     
 185:../../source/src/FWlib/src/stm32f10x_sdio.c ****   /* Check the parameters */
 186:../../source/src/FWlib/src/stm32f10x_sdio.c ****   assert_param(IS_SDIO_CLOCK_EDGE(SDIO_InitStruct->SDIO_ClockEdge));
 187:../../source/src/FWlib/src/stm32f10x_sdio.c ****   assert_param(IS_SDIO_CLOCK_BYPASS(SDIO_InitStruct->SDIO_ClockBypass));
 188:../../source/src/FWlib/src/stm32f10x_sdio.c ****   assert_param(IS_SDIO_CLOCK_POWER_SAVE(SDIO_InitStruct->SDIO_ClockPowerSave));
 189:../../source/src/FWlib/src/stm32f10x_sdio.c ****   assert_param(IS_SDIO_BUS_WIDE(SDIO_InitStruct->SDIO_BusWide));
 190:../../source/src/FWlib/src/stm32f10x_sdio.c ****   assert_param(IS_SDIO_HARDWARE_FLOW_CONTROL(SDIO_InitStruct->SDIO_HardwareFlowControl)); 
 191:../../source/src/FWlib/src/stm32f10x_sdio.c ****    
 192:../../source/src/FWlib/src/stm32f10x_sdio.c **** /*---------------------------- SDIO CLKCR Configuration ------------------------*/  
 193:../../source/src/FWlib/src/stm32f10x_sdio.c ****   /* Get the SDIO CLKCR value */
 194:../../source/src/FWlib/src/stm32f10x_sdio.c ****   tmpreg = SDIO->CLKCR;
  80              		.loc 1 194 0
  81 0024 0A49     		ldr	r1, .L6
 182:../../source/src/FWlib/src/stm32f10x_sdio.c ****   uint32_t tmpreg = 0;
  82              		.loc 1 182 0
  83 0026 10B4     		push	{r4}
ARM GAS  G:\Users\Jaxb\AppData\Local\Temp\ccmT3S8V.s 			page 6


  84              	.LCFI0:
  85              		.cfi_def_cfa_offset 4
  86              		.cfi_offset 4, -4
  87              		.loc 1 194 0
  88 0028 4A68     		ldr	r2, [r1, #4]
  89              	.LVL1:
  90 002a 4468     		ldr	r4, [r0, #4]
  91 002c 8368     		ldr	r3, [r0, #8]
 195:../../source/src/FWlib/src/stm32f10x_sdio.c ****   
 196:../../source/src/FWlib/src/stm32f10x_sdio.c ****   /* Clear CLKDIV, PWRSAV, BYPASS, WIDBUS, NEGEDGE, HWFC_EN bits */
 197:../../source/src/FWlib/src/stm32f10x_sdio.c ****   tmpreg &= CLKCR_CLEAR_MASK;
  92              		.loc 1 197 0
  93 002e 22F4FD42 		bic	r2, r2, #32384
  94              	.LVL2:
  95 0032 22F07F02 		bic	r2, r2, #127
  96 0036 2343     		orrs	r3, r3, r4
  97 0038 C468     		ldr	r4, [r0, #12]
  98 003a 1343     		orrs	r3, r3, r2
  99 003c 0268     		ldr	r2, [r0]
 100 003e 2343     		orrs	r3, r3, r4
 101 0040 0469     		ldr	r4, [r0, #16]
 102 0042 1343     		orrs	r3, r3, r2
 198:../../source/src/FWlib/src/stm32f10x_sdio.c ****   
 199:../../source/src/FWlib/src/stm32f10x_sdio.c ****   /* Set CLKDIV bits according to SDIO_ClockDiv value */
 200:../../source/src/FWlib/src/stm32f10x_sdio.c ****   /* Set PWRSAV bit according to SDIO_ClockPowerSave value */
 201:../../source/src/FWlib/src/stm32f10x_sdio.c ****   /* Set BYPASS bit according to SDIO_ClockBypass value */
 202:../../source/src/FWlib/src/stm32f10x_sdio.c ****   /* Set WIDBUS bits according to SDIO_BusWide value */
 203:../../source/src/FWlib/src/stm32f10x_sdio.c ****   /* Set NEGEDGE bits according to SDIO_ClockEdge value */
 204:../../source/src/FWlib/src/stm32f10x_sdio.c ****   /* Set HWFC_EN bits according to SDIO_HardwareFlowControl value */
 205:../../source/src/FWlib/src/stm32f10x_sdio.c ****   tmpreg |= (SDIO_InitStruct->SDIO_ClockDiv  | SDIO_InitStruct->SDIO_ClockPowerSave |
 103              		.loc 1 205 0
 104 0044 027D     		ldrb	r2, [r0, #20]	@ zero_extendqisi2
 105 0046 2343     		orrs	r3, r3, r4
 106 0048 1343     		orrs	r3, r3, r2
 107              	.LVL3:
 206:../../source/src/FWlib/src/stm32f10x_sdio.c ****              SDIO_InitStruct->SDIO_ClockBypass | SDIO_InitStruct->SDIO_BusWide |
 207:../../source/src/FWlib/src/stm32f10x_sdio.c ****              SDIO_InitStruct->SDIO_ClockEdge | SDIO_InitStruct->SDIO_HardwareFlowControl); 
 208:../../source/src/FWlib/src/stm32f10x_sdio.c ****   
 209:../../source/src/FWlib/src/stm32f10x_sdio.c ****   /* Write to SDIO CLKCR */
 210:../../source/src/FWlib/src/stm32f10x_sdio.c ****   SDIO->CLKCR = tmpreg;
 108              		.loc 1 210 0
 109 004a 4B60     		str	r3, [r1, #4]
 211:../../source/src/FWlib/src/stm32f10x_sdio.c **** }
 110              		.loc 1 211 0
 111 004c 10BC     		pop	{r4}
 112              	.LCFI1:
 113              		.cfi_restore 4
 114              		.cfi_def_cfa_offset 0
 115 004e 7047     		bx	lr
 116              	.L7:
 117              		.align	2
 118              	.L6:
 119 0050 00800140 		.word	1073840128
 120              		.cfi_endproc
 121              	.LFE30:
 122              		.size	SDIO_Init, .-SDIO_Init
 123              		.align	1
ARM GAS  G:\Users\Jaxb\AppData\Local\Temp\ccmT3S8V.s 			page 7


 124              		.p2align 2,,3
 125              		.global	SDIO_StructInit
 126              		.syntax unified
 127              		.thumb
 128              		.thumb_func
 129              		.fpu softvfp
 130              		.type	SDIO_StructInit, %function
 131              	SDIO_StructInit:
 132              	.LFB31:
 212:../../source/src/FWlib/src/stm32f10x_sdio.c **** 
 213:../../source/src/FWlib/src/stm32f10x_sdio.c **** /**
 214:../../source/src/FWlib/src/stm32f10x_sdio.c ****   * @brief  Fills each SDIO_InitStruct member with its default value.
 215:../../source/src/FWlib/src/stm32f10x_sdio.c ****   * @param  SDIO_InitStruct: pointer to an SDIO_InitTypeDef structure which 
 216:../../source/src/FWlib/src/stm32f10x_sdio.c ****   *   will be initialized.
 217:../../source/src/FWlib/src/stm32f10x_sdio.c ****   * @retval None
 218:../../source/src/FWlib/src/stm32f10x_sdio.c ****   */
 219:../../source/src/FWlib/src/stm32f10x_sdio.c **** void SDIO_StructInit(SDIO_InitTypeDef* SDIO_InitStruct)
 220:../../source/src/FWlib/src/stm32f10x_sdio.c **** {
 133              		.loc 1 220 0
 134              		.cfi_startproc
 135              		@ args = 0, pretend = 0, frame = 0
 136              		@ frame_needed = 0, uses_anonymous_args = 0
 137              		@ link register save eliminated.
 138              	.LVL4:
 221:../../source/src/FWlib/src/stm32f10x_sdio.c ****   /* SDIO_InitStruct members default value */
 222:../../source/src/FWlib/src/stm32f10x_sdio.c ****   SDIO_InitStruct->SDIO_ClockDiv = 0x00;
 139              		.loc 1 222 0
 140 0054 0023     		movs	r3, #0
 141 0056 0375     		strb	r3, [r0, #20]
 223:../../source/src/FWlib/src/stm32f10x_sdio.c ****   SDIO_InitStruct->SDIO_ClockEdge = SDIO_ClockEdge_Rising;
 224:../../source/src/FWlib/src/stm32f10x_sdio.c ****   SDIO_InitStruct->SDIO_ClockBypass = SDIO_ClockBypass_Disable;
 142              		.loc 1 224 0
 143 0058 C0E90033 		strd	r3, r3, [r0]
 225:../../source/src/FWlib/src/stm32f10x_sdio.c ****   SDIO_InitStruct->SDIO_ClockPowerSave = SDIO_ClockPowerSave_Disable;
 226:../../source/src/FWlib/src/stm32f10x_sdio.c ****   SDIO_InitStruct->SDIO_BusWide = SDIO_BusWide_1b;
 144              		.loc 1 226 0
 145 005c C0E90233 		strd	r3, r3, [r0, #8]
 227:../../source/src/FWlib/src/stm32f10x_sdio.c ****   SDIO_InitStruct->SDIO_HardwareFlowControl = SDIO_HardwareFlowControl_Disable;
 146              		.loc 1 227 0
 147 0060 0361     		str	r3, [r0, #16]
 228:../../source/src/FWlib/src/stm32f10x_sdio.c **** }
 148              		.loc 1 228 0
 149 0062 7047     		bx	lr
 150              		.cfi_endproc
 151              	.LFE31:
 152              		.size	SDIO_StructInit, .-SDIO_StructInit
 153              		.align	1
 154              		.p2align 2,,3
 155              		.global	SDIO_ClockCmd
 156              		.syntax unified
 157              		.thumb
 158              		.thumb_func
 159              		.fpu softvfp
 160              		.type	SDIO_ClockCmd, %function
 161              	SDIO_ClockCmd:
 162              	.LFB32:
 229:../../source/src/FWlib/src/stm32f10x_sdio.c **** 
ARM GAS  G:\Users\Jaxb\AppData\Local\Temp\ccmT3S8V.s 			page 8


 230:../../source/src/FWlib/src/stm32f10x_sdio.c **** /**
 231:../../source/src/FWlib/src/stm32f10x_sdio.c ****   * @brief  Enables or disables the SDIO Clock.
 232:../../source/src/FWlib/src/stm32f10x_sdio.c ****   * @param  NewState: new state of the SDIO Clock. This parameter can be: ENABLE or DISABLE.
 233:../../source/src/FWlib/src/stm32f10x_sdio.c ****   * @retval None
 234:../../source/src/FWlib/src/stm32f10x_sdio.c ****   */
 235:../../source/src/FWlib/src/stm32f10x_sdio.c **** void SDIO_ClockCmd(FunctionalState NewState)
 236:../../source/src/FWlib/src/stm32f10x_sdio.c **** {
 163              		.loc 1 236 0
 164              		.cfi_startproc
 165              		@ args = 0, pretend = 0, frame = 0
 166              		@ frame_needed = 0, uses_anonymous_args = 0
 167              		@ link register save eliminated.
 168              	.LVL5:
 237:../../source/src/FWlib/src/stm32f10x_sdio.c ****   /* Check the parameters */
 238:../../source/src/FWlib/src/stm32f10x_sdio.c ****   assert_param(IS_FUNCTIONAL_STATE(NewState));
 239:../../source/src/FWlib/src/stm32f10x_sdio.c ****   
 240:../../source/src/FWlib/src/stm32f10x_sdio.c ****   *(__IO uint32_t *) CLKCR_CLKEN_BB = (uint32_t)NewState;
 169              		.loc 1 240 0
 170 0064 014B     		ldr	r3, .L10
 171 0066 1860     		str	r0, [r3]
 241:../../source/src/FWlib/src/stm32f10x_sdio.c **** }
 172              		.loc 1 241 0
 173 0068 7047     		bx	lr
 174              	.L11:
 175 006a 00BF     		.align	2
 176              	.L10:
 177 006c A0003042 		.word	1110442144
 178              		.cfi_endproc
 179              	.LFE32:
 180              		.size	SDIO_ClockCmd, .-SDIO_ClockCmd
 181              		.align	1
 182              		.p2align 2,,3
 183              		.global	SDIO_SetPowerState
 184              		.syntax unified
 185              		.thumb
 186              		.thumb_func
 187              		.fpu softvfp
 188              		.type	SDIO_SetPowerState, %function
 189              	SDIO_SetPowerState:
 190              	.LFB33:
 242:../../source/src/FWlib/src/stm32f10x_sdio.c **** 
 243:../../source/src/FWlib/src/stm32f10x_sdio.c **** /**
 244:../../source/src/FWlib/src/stm32f10x_sdio.c ****   * @brief  Sets the power status of the controller.
 245:../../source/src/FWlib/src/stm32f10x_sdio.c ****   * @param  SDIO_PowerState: new state of the Power state. 
 246:../../source/src/FWlib/src/stm32f10x_sdio.c ****   *   This parameter can be one of the following values:
 247:../../source/src/FWlib/src/stm32f10x_sdio.c ****   *     @arg SDIO_PowerState_OFF
 248:../../source/src/FWlib/src/stm32f10x_sdio.c ****   *     @arg SDIO_PowerState_ON
 249:../../source/src/FWlib/src/stm32f10x_sdio.c ****   * @retval None
 250:../../source/src/FWlib/src/stm32f10x_sdio.c ****   */
 251:../../source/src/FWlib/src/stm32f10x_sdio.c **** void SDIO_SetPowerState(uint32_t SDIO_PowerState)
 252:../../source/src/FWlib/src/stm32f10x_sdio.c **** {
 191              		.loc 1 252 0
 192              		.cfi_startproc
 193              		@ args = 0, pretend = 0, frame = 0
 194              		@ frame_needed = 0, uses_anonymous_args = 0
 195              		@ link register save eliminated.
 196              	.LVL6:
ARM GAS  G:\Users\Jaxb\AppData\Local\Temp\ccmT3S8V.s 			page 9


 253:../../source/src/FWlib/src/stm32f10x_sdio.c ****   /* Check the parameters */
 254:../../source/src/FWlib/src/stm32f10x_sdio.c ****   assert_param(IS_SDIO_POWER_STATE(SDIO_PowerState));
 255:../../source/src/FWlib/src/stm32f10x_sdio.c ****   
 256:../../source/src/FWlib/src/stm32f10x_sdio.c ****   SDIO->POWER &= PWR_PWRCTRL_MASK;
 197              		.loc 1 256 0
 198 0070 044B     		ldr	r3, .L13
 199 0072 1A68     		ldr	r2, [r3]
 200 0074 22F00302 		bic	r2, r2, #3
 201 0078 1A60     		str	r2, [r3]
 257:../../source/src/FWlib/src/stm32f10x_sdio.c ****   SDIO->POWER |= SDIO_PowerState;
 202              		.loc 1 257 0
 203 007a 1A68     		ldr	r2, [r3]
 204 007c 1043     		orrs	r0, r0, r2
 205              	.LVL7:
 206 007e 1860     		str	r0, [r3]
 258:../../source/src/FWlib/src/stm32f10x_sdio.c **** }
 207              		.loc 1 258 0
 208 0080 7047     		bx	lr
 209              	.L14:
 210 0082 00BF     		.align	2
 211              	.L13:
 212 0084 00800140 		.word	1073840128
 213              		.cfi_endproc
 214              	.LFE33:
 215              		.size	SDIO_SetPowerState, .-SDIO_SetPowerState
 216              		.align	1
 217              		.p2align 2,,3
 218              		.global	SDIO_GetPowerState
 219              		.syntax unified
 220              		.thumb
 221              		.thumb_func
 222              		.fpu softvfp
 223              		.type	SDIO_GetPowerState, %function
 224              	SDIO_GetPowerState:
 225              	.LFB34:
 259:../../source/src/FWlib/src/stm32f10x_sdio.c **** 
 260:../../source/src/FWlib/src/stm32f10x_sdio.c **** /**
 261:../../source/src/FWlib/src/stm32f10x_sdio.c ****   * @brief  Gets the power status of the controller.
 262:../../source/src/FWlib/src/stm32f10x_sdio.c ****   * @param  None
 263:../../source/src/FWlib/src/stm32f10x_sdio.c ****   * @retval Power status of the controller. The returned value can
 264:../../source/src/FWlib/src/stm32f10x_sdio.c ****   *   be one of the following:
 265:../../source/src/FWlib/src/stm32f10x_sdio.c ****   * - 0x00: Power OFF
 266:../../source/src/FWlib/src/stm32f10x_sdio.c ****   * - 0x02: Power UP
 267:../../source/src/FWlib/src/stm32f10x_sdio.c ****   * - 0x03: Power ON 
 268:../../source/src/FWlib/src/stm32f10x_sdio.c ****   */
 269:../../source/src/FWlib/src/stm32f10x_sdio.c **** uint32_t SDIO_GetPowerState(void)
 270:../../source/src/FWlib/src/stm32f10x_sdio.c **** {
 226              		.loc 1 270 0
 227              		.cfi_startproc
 228              		@ args = 0, pretend = 0, frame = 0
 229              		@ frame_needed = 0, uses_anonymous_args = 0
 230              		@ link register save eliminated.
 271:../../source/src/FWlib/src/stm32f10x_sdio.c ****   return (SDIO->POWER & (~PWR_PWRCTRL_MASK));
 231              		.loc 1 271 0
 232 0088 024B     		ldr	r3, .L16
 233 008a 1868     		ldr	r0, [r3]
 272:../../source/src/FWlib/src/stm32f10x_sdio.c **** }
ARM GAS  G:\Users\Jaxb\AppData\Local\Temp\ccmT3S8V.s 			page 10


 234              		.loc 1 272 0
 235 008c 00F00300 		and	r0, r0, #3
 236 0090 7047     		bx	lr
 237              	.L17:
 238 0092 00BF     		.align	2
 239              	.L16:
 240 0094 00800140 		.word	1073840128
 241              		.cfi_endproc
 242              	.LFE34:
 243              		.size	SDIO_GetPowerState, .-SDIO_GetPowerState
 244              		.align	1
 245              		.p2align 2,,3
 246              		.global	SDIO_ITConfig
 247              		.syntax unified
 248              		.thumb
 249              		.thumb_func
 250              		.fpu softvfp
 251              		.type	SDIO_ITConfig, %function
 252              	SDIO_ITConfig:
 253              	.LFB35:
 273:../../source/src/FWlib/src/stm32f10x_sdio.c **** 
 274:../../source/src/FWlib/src/stm32f10x_sdio.c **** /**
 275:../../source/src/FWlib/src/stm32f10x_sdio.c ****   * @brief  Enables or disables the SDIO interrupts.
 276:../../source/src/FWlib/src/stm32f10x_sdio.c ****   * @param  SDIO_IT: specifies the SDIO interrupt sources to be enabled or disabled.
 277:../../source/src/FWlib/src/stm32f10x_sdio.c ****   *   This parameter can be one or a combination of the following values:
 278:../../source/src/FWlib/src/stm32f10x_sdio.c ****   *     @arg SDIO_IT_CCRCFAIL: Command response received (CRC check failed) interrupt
 279:../../source/src/FWlib/src/stm32f10x_sdio.c ****   *     @arg SDIO_IT_DCRCFAIL: Data block sent/received (CRC check failed) interrupt
 280:../../source/src/FWlib/src/stm32f10x_sdio.c ****   *     @arg SDIO_IT_CTIMEOUT: Command response timeout interrupt
 281:../../source/src/FWlib/src/stm32f10x_sdio.c ****   *     @arg SDIO_IT_DTIMEOUT: Data timeout interrupt
 282:../../source/src/FWlib/src/stm32f10x_sdio.c ****   *     @arg SDIO_IT_TXUNDERR: Transmit FIFO underrun error interrupt
 283:../../source/src/FWlib/src/stm32f10x_sdio.c ****   *     @arg SDIO_IT_RXOVERR:  Received FIFO overrun error interrupt
 284:../../source/src/FWlib/src/stm32f10x_sdio.c ****   *     @arg SDIO_IT_CMDREND:  Command response received (CRC check passed) interrupt
 285:../../source/src/FWlib/src/stm32f10x_sdio.c ****   *     @arg SDIO_IT_CMDSENT:  Command sent (no response required) interrupt
 286:../../source/src/FWlib/src/stm32f10x_sdio.c ****   *     @arg SDIO_IT_DATAEND:  Data end (data counter, SDIDCOUNT, is zero) interrupt
 287:../../source/src/FWlib/src/stm32f10x_sdio.c ****   *     @arg SDIO_IT_STBITERR: Start bit not detected on all data signals in wide 
 288:../../source/src/FWlib/src/stm32f10x_sdio.c ****   *                            bus mode interrupt
 289:../../source/src/FWlib/src/stm32f10x_sdio.c ****   *     @arg SDIO_IT_DBCKEND:  Data block sent/received (CRC check passed) interrupt
 290:../../source/src/FWlib/src/stm32f10x_sdio.c ****   *     @arg SDIO_IT_CMDACT:   Command transfer in progress interrupt
 291:../../source/src/FWlib/src/stm32f10x_sdio.c ****   *     @arg SDIO_IT_TXACT:    Data transmit in progress interrupt
 292:../../source/src/FWlib/src/stm32f10x_sdio.c ****   *     @arg SDIO_IT_RXACT:    Data receive in progress interrupt
 293:../../source/src/FWlib/src/stm32f10x_sdio.c ****   *     @arg SDIO_IT_TXFIFOHE: Transmit FIFO Half Empty interrupt
 294:../../source/src/FWlib/src/stm32f10x_sdio.c ****   *     @arg SDIO_IT_RXFIFOHF: Receive FIFO Half Full interrupt
 295:../../source/src/FWlib/src/stm32f10x_sdio.c ****   *     @arg SDIO_IT_TXFIFOF:  Transmit FIFO full interrupt
 296:../../source/src/FWlib/src/stm32f10x_sdio.c ****   *     @arg SDIO_IT_RXFIFOF:  Receive FIFO full interrupt
 297:../../source/src/FWlib/src/stm32f10x_sdio.c ****   *     @arg SDIO_IT_TXFIFOE:  Transmit FIFO empty interrupt
 298:../../source/src/FWlib/src/stm32f10x_sdio.c ****   *     @arg SDIO_IT_RXFIFOE:  Receive FIFO empty interrupt
 299:../../source/src/FWlib/src/stm32f10x_sdio.c ****   *     @arg SDIO_IT_TXDAVL:   Data available in transmit FIFO interrupt
 300:../../source/src/FWlib/src/stm32f10x_sdio.c ****   *     @arg SDIO_IT_RXDAVL:   Data available in receive FIFO interrupt
 301:../../source/src/FWlib/src/stm32f10x_sdio.c ****   *     @arg SDIO_IT_SDIOIT:   SD I/O interrupt received interrupt
 302:../../source/src/FWlib/src/stm32f10x_sdio.c ****   *     @arg SDIO_IT_CEATAEND: CE-ATA command completion signal received for CMD61 interrupt
 303:../../source/src/FWlib/src/stm32f10x_sdio.c ****   * @param  NewState: new state of the specified SDIO interrupts.
 304:../../source/src/FWlib/src/stm32f10x_sdio.c ****   *   This parameter can be: ENABLE or DISABLE.
 305:../../source/src/FWlib/src/stm32f10x_sdio.c ****   * @retval None 
 306:../../source/src/FWlib/src/stm32f10x_sdio.c ****   */
 307:../../source/src/FWlib/src/stm32f10x_sdio.c **** void SDIO_ITConfig(uint32_t SDIO_IT, FunctionalState NewState)
 308:../../source/src/FWlib/src/stm32f10x_sdio.c **** {
 254              		.loc 1 308 0
ARM GAS  G:\Users\Jaxb\AppData\Local\Temp\ccmT3S8V.s 			page 11


 255              		.cfi_startproc
 256              		@ args = 0, pretend = 0, frame = 0
 257              		@ frame_needed = 0, uses_anonymous_args = 0
 258              		@ link register save eliminated.
 259              	.LVL8:
 309:../../source/src/FWlib/src/stm32f10x_sdio.c ****   /* Check the parameters */
 310:../../source/src/FWlib/src/stm32f10x_sdio.c ****   assert_param(IS_SDIO_IT(SDIO_IT));
 311:../../source/src/FWlib/src/stm32f10x_sdio.c ****   assert_param(IS_FUNCTIONAL_STATE(NewState));
 312:../../source/src/FWlib/src/stm32f10x_sdio.c ****   
 313:../../source/src/FWlib/src/stm32f10x_sdio.c ****   if (NewState != DISABLE)
 314:../../source/src/FWlib/src/stm32f10x_sdio.c ****   {
 315:../../source/src/FWlib/src/stm32f10x_sdio.c ****     /* Enable the SDIO interrupts */
 316:../../source/src/FWlib/src/stm32f10x_sdio.c ****     SDIO->MASK |= SDIO_IT;
 260              		.loc 1 316 0
 261 0098 044A     		ldr	r2, .L22
 262 009a D36B     		ldr	r3, [r2, #60]
 313:../../source/src/FWlib/src/stm32f10x_sdio.c ****   {
 263              		.loc 1 313 0
 264 009c 19B9     		cbnz	r1, .L21
 317:../../source/src/FWlib/src/stm32f10x_sdio.c ****   }
 318:../../source/src/FWlib/src/stm32f10x_sdio.c ****   else
 319:../../source/src/FWlib/src/stm32f10x_sdio.c ****   {
 320:../../source/src/FWlib/src/stm32f10x_sdio.c ****     /* Disable the SDIO interrupts */
 321:../../source/src/FWlib/src/stm32f10x_sdio.c ****     SDIO->MASK &= ~SDIO_IT;
 265              		.loc 1 321 0
 266 009e 23EA0000 		bic	r0, r3, r0
 267              	.LVL9:
 268 00a2 D063     		str	r0, [r2, #60]
 322:../../source/src/FWlib/src/stm32f10x_sdio.c ****   } 
 323:../../source/src/FWlib/src/stm32f10x_sdio.c **** }
 269              		.loc 1 323 0
 270 00a4 7047     		bx	lr
 271              	.LVL10:
 272              	.L21:
 316:../../source/src/FWlib/src/stm32f10x_sdio.c ****   }
 273              		.loc 1 316 0
 274 00a6 1843     		orrs	r0, r0, r3
 275              	.LVL11:
 276 00a8 D063     		str	r0, [r2, #60]
 277 00aa 7047     		bx	lr
 278              	.L23:
 279              		.align	2
 280              	.L22:
 281 00ac 00800140 		.word	1073840128
 282              		.cfi_endproc
 283              	.LFE35:
 284              		.size	SDIO_ITConfig, .-SDIO_ITConfig
 285              		.align	1
 286              		.p2align 2,,3
 287              		.global	SDIO_DMACmd
 288              		.syntax unified
 289              		.thumb
 290              		.thumb_func
 291              		.fpu softvfp
 292              		.type	SDIO_DMACmd, %function
 293              	SDIO_DMACmd:
 294              	.LFB36:
ARM GAS  G:\Users\Jaxb\AppData\Local\Temp\ccmT3S8V.s 			page 12


 324:../../source/src/FWlib/src/stm32f10x_sdio.c **** 
 325:../../source/src/FWlib/src/stm32f10x_sdio.c **** /**
 326:../../source/src/FWlib/src/stm32f10x_sdio.c ****   * @brief  Enables or disables the SDIO DMA request.
 327:../../source/src/FWlib/src/stm32f10x_sdio.c ****   * @param  NewState: new state of the selected SDIO DMA request.
 328:../../source/src/FWlib/src/stm32f10x_sdio.c ****   *   This parameter can be: ENABLE or DISABLE.
 329:../../source/src/FWlib/src/stm32f10x_sdio.c ****   * @retval None
 330:../../source/src/FWlib/src/stm32f10x_sdio.c ****   */
 331:../../source/src/FWlib/src/stm32f10x_sdio.c **** void SDIO_DMACmd(FunctionalState NewState)
 332:../../source/src/FWlib/src/stm32f10x_sdio.c **** {
 295              		.loc 1 332 0
 296              		.cfi_startproc
 297              		@ args = 0, pretend = 0, frame = 0
 298              		@ frame_needed = 0, uses_anonymous_args = 0
 299              		@ link register save eliminated.
 300              	.LVL12:
 333:../../source/src/FWlib/src/stm32f10x_sdio.c ****   /* Check the parameters */
 334:../../source/src/FWlib/src/stm32f10x_sdio.c ****   assert_param(IS_FUNCTIONAL_STATE(NewState));
 335:../../source/src/FWlib/src/stm32f10x_sdio.c ****   
 336:../../source/src/FWlib/src/stm32f10x_sdio.c ****   *(__IO uint32_t *) DCTRL_DMAEN_BB = (uint32_t)NewState;
 301              		.loc 1 336 0
 302 00b0 014B     		ldr	r3, .L25
 303 00b2 1860     		str	r0, [r3]
 337:../../source/src/FWlib/src/stm32f10x_sdio.c **** }
 304              		.loc 1 337 0
 305 00b4 7047     		bx	lr
 306              	.L26:
 307 00b6 00BF     		.align	2
 308              	.L25:
 309 00b8 8C053042 		.word	1110443404
 310              		.cfi_endproc
 311              	.LFE36:
 312              		.size	SDIO_DMACmd, .-SDIO_DMACmd
 313              		.align	1
 314              		.p2align 2,,3
 315              		.global	SDIO_SendCommand
 316              		.syntax unified
 317              		.thumb
 318              		.thumb_func
 319              		.fpu softvfp
 320              		.type	SDIO_SendCommand, %function
 321              	SDIO_SendCommand:
 322              	.LFB37:
 338:../../source/src/FWlib/src/stm32f10x_sdio.c **** 
 339:../../source/src/FWlib/src/stm32f10x_sdio.c **** /**
 340:../../source/src/FWlib/src/stm32f10x_sdio.c ****   * @brief  Initializes the SDIO Command according to the specified 
 341:../../source/src/FWlib/src/stm32f10x_sdio.c ****   *         parameters in the SDIO_CmdInitStruct and send the command.
 342:../../source/src/FWlib/src/stm32f10x_sdio.c ****   * @param  SDIO_CmdInitStruct : pointer to a SDIO_CmdInitTypeDef 
 343:../../source/src/FWlib/src/stm32f10x_sdio.c ****   *         structure that contains the configuration information for the SDIO command.
 344:../../source/src/FWlib/src/stm32f10x_sdio.c ****   * @retval None
 345:../../source/src/FWlib/src/stm32f10x_sdio.c ****   */
 346:../../source/src/FWlib/src/stm32f10x_sdio.c **** void SDIO_SendCommand(SDIO_CmdInitTypeDef *SDIO_CmdInitStruct)
 347:../../source/src/FWlib/src/stm32f10x_sdio.c **** {
 323              		.loc 1 347 0
 324              		.cfi_startproc
 325              		@ args = 0, pretend = 0, frame = 0
 326              		@ frame_needed = 0, uses_anonymous_args = 0
 327              		@ link register save eliminated.
ARM GAS  G:\Users\Jaxb\AppData\Local\Temp\ccmT3S8V.s 			page 13


 328              	.LVL13:
 348:../../source/src/FWlib/src/stm32f10x_sdio.c ****   uint32_t tmpreg = 0;
 349:../../source/src/FWlib/src/stm32f10x_sdio.c ****   
 350:../../source/src/FWlib/src/stm32f10x_sdio.c ****   /* Check the parameters */
 351:../../source/src/FWlib/src/stm32f10x_sdio.c ****   assert_param(IS_SDIO_CMD_INDEX(SDIO_CmdInitStruct->SDIO_CmdIndex));
 352:../../source/src/FWlib/src/stm32f10x_sdio.c ****   assert_param(IS_SDIO_RESPONSE(SDIO_CmdInitStruct->SDIO_Response));
 353:../../source/src/FWlib/src/stm32f10x_sdio.c ****   assert_param(IS_SDIO_WAIT(SDIO_CmdInitStruct->SDIO_Wait));
 354:../../source/src/FWlib/src/stm32f10x_sdio.c ****   assert_param(IS_SDIO_CPSM(SDIO_CmdInitStruct->SDIO_CPSM));
 355:../../source/src/FWlib/src/stm32f10x_sdio.c ****   
 356:../../source/src/FWlib/src/stm32f10x_sdio.c **** /*---------------------------- SDIO ARG Configuration ------------------------*/
 357:../../source/src/FWlib/src/stm32f10x_sdio.c ****   /* Set the SDIO Argument value */
 358:../../source/src/FWlib/src/stm32f10x_sdio.c ****   SDIO->ARG = SDIO_CmdInitStruct->SDIO_Argument;
 329              		.loc 1 358 0
 330 00bc 0949     		ldr	r1, .L28
 331 00be 0368     		ldr	r3, [r0]
 347:../../source/src/FWlib/src/stm32f10x_sdio.c ****   uint32_t tmpreg = 0;
 332              		.loc 1 347 0
 333 00c0 10B4     		push	{r4}
 334              	.LCFI2:
 335              		.cfi_def_cfa_offset 4
 336              		.cfi_offset 4, -4
 337              		.loc 1 358 0
 338 00c2 8B60     		str	r3, [r1, #8]
 359:../../source/src/FWlib/src/stm32f10x_sdio.c ****   
 360:../../source/src/FWlib/src/stm32f10x_sdio.c **** /*---------------------------- SDIO CMD Configuration ------------------------*/  
 361:../../source/src/FWlib/src/stm32f10x_sdio.c ****   /* Get the SDIO CMD value */
 362:../../source/src/FWlib/src/stm32f10x_sdio.c ****   tmpreg = SDIO->CMD;
 339              		.loc 1 362 0
 340 00c4 CA68     		ldr	r2, [r1, #12]
 341              	.LVL14:
 363:../../source/src/FWlib/src/stm32f10x_sdio.c ****   /* Clear CMDINDEX, WAITRESP, WAITINT, WAITPEND, CPSMEN bits */
 364:../../source/src/FWlib/src/stm32f10x_sdio.c ****   tmpreg &= CMD_CLEAR_MASK;
 365:../../source/src/FWlib/src/stm32f10x_sdio.c ****   /* Set CMDINDEX bits according to SDIO_CmdIndex value */
 366:../../source/src/FWlib/src/stm32f10x_sdio.c ****   /* Set WAITRESP bits according to SDIO_Response value */
 367:../../source/src/FWlib/src/stm32f10x_sdio.c ****   /* Set WAITINT and WAITPEND bits according to SDIO_Wait value */
 368:../../source/src/FWlib/src/stm32f10x_sdio.c ****   /* Set CPSMEN bits according to SDIO_CPSM value */
 369:../../source/src/FWlib/src/stm32f10x_sdio.c ****   tmpreg |= (uint32_t)SDIO_CmdInitStruct->SDIO_CmdIndex | SDIO_CmdInitStruct->SDIO_Response
 342              		.loc 1 369 0
 343 00c6 D0E90134 		ldrd	r3, r4, [r0, #4]
 364:../../source/src/FWlib/src/stm32f10x_sdio.c ****   /* Set CMDINDEX bits according to SDIO_CmdIndex value */
 344              		.loc 1 364 0
 345 00ca 22F4FF62 		bic	r2, r2, #2040
 346              	.LVL15:
 347 00ce 22F00702 		bic	r2, r2, #7
 348              		.loc 1 369 0
 349 00d2 2343     		orrs	r3, r3, r4
 350 00d4 C468     		ldr	r4, [r0, #12]
 351 00d6 1343     		orrs	r3, r3, r2
 352 00d8 0269     		ldr	r2, [r0, #16]
 353 00da 2343     		orrs	r3, r3, r4
 354 00dc 1343     		orrs	r3, r3, r2
 355              	.LVL16:
 370:../../source/src/FWlib/src/stm32f10x_sdio.c ****            | SDIO_CmdInitStruct->SDIO_Wait | SDIO_CmdInitStruct->SDIO_CPSM;
 371:../../source/src/FWlib/src/stm32f10x_sdio.c ****   
 372:../../source/src/FWlib/src/stm32f10x_sdio.c ****   /* Write to SDIO CMD */
 373:../../source/src/FWlib/src/stm32f10x_sdio.c ****   SDIO->CMD = tmpreg;
 356              		.loc 1 373 0
ARM GAS  G:\Users\Jaxb\AppData\Local\Temp\ccmT3S8V.s 			page 14


 357 00de CB60     		str	r3, [r1, #12]
 374:../../source/src/FWlib/src/stm32f10x_sdio.c **** }
 358              		.loc 1 374 0
 359 00e0 10BC     		pop	{r4}
 360              	.LCFI3:
 361              		.cfi_restore 4
 362              		.cfi_def_cfa_offset 0
 363 00e2 7047     		bx	lr
 364              	.L29:
 365              		.align	2
 366              	.L28:
 367 00e4 00800140 		.word	1073840128
 368              		.cfi_endproc
 369              	.LFE37:
 370              		.size	SDIO_SendCommand, .-SDIO_SendCommand
 371              		.align	1
 372              		.p2align 2,,3
 373              		.global	SDIO_CmdStructInit
 374              		.syntax unified
 375              		.thumb
 376              		.thumb_func
 377              		.fpu softvfp
 378              		.type	SDIO_CmdStructInit, %function
 379              	SDIO_CmdStructInit:
 380              	.LFB38:
 375:../../source/src/FWlib/src/stm32f10x_sdio.c **** 
 376:../../source/src/FWlib/src/stm32f10x_sdio.c **** /**
 377:../../source/src/FWlib/src/stm32f10x_sdio.c ****   * @brief  Fills each SDIO_CmdInitStruct member with its default value.
 378:../../source/src/FWlib/src/stm32f10x_sdio.c ****   * @param  SDIO_CmdInitStruct: pointer to an SDIO_CmdInitTypeDef 
 379:../../source/src/FWlib/src/stm32f10x_sdio.c ****   *         structure which will be initialized.
 380:../../source/src/FWlib/src/stm32f10x_sdio.c ****   * @retval None
 381:../../source/src/FWlib/src/stm32f10x_sdio.c ****   */
 382:../../source/src/FWlib/src/stm32f10x_sdio.c **** void SDIO_CmdStructInit(SDIO_CmdInitTypeDef* SDIO_CmdInitStruct)
 383:../../source/src/FWlib/src/stm32f10x_sdio.c **** {
 381              		.loc 1 383 0
 382              		.cfi_startproc
 383              		@ args = 0, pretend = 0, frame = 0
 384              		@ frame_needed = 0, uses_anonymous_args = 0
 385              		@ link register save eliminated.
 386              	.LVL17:
 384:../../source/src/FWlib/src/stm32f10x_sdio.c ****   /* SDIO_CmdInitStruct members default value */
 385:../../source/src/FWlib/src/stm32f10x_sdio.c ****   SDIO_CmdInitStruct->SDIO_Argument = 0x00;
 387              		.loc 1 385 0
 388 00e8 0023     		movs	r3, #0
 386:../../source/src/FWlib/src/stm32f10x_sdio.c ****   SDIO_CmdInitStruct->SDIO_CmdIndex = 0x00;
 389              		.loc 1 386 0
 390 00ea C0E90033 		strd	r3, r3, [r0]
 387:../../source/src/FWlib/src/stm32f10x_sdio.c ****   SDIO_CmdInitStruct->SDIO_Response = SDIO_Response_No;
 388:../../source/src/FWlib/src/stm32f10x_sdio.c ****   SDIO_CmdInitStruct->SDIO_Wait = SDIO_Wait_No;
 391              		.loc 1 388 0
 392 00ee C0E90233 		strd	r3, r3, [r0, #8]
 389:../../source/src/FWlib/src/stm32f10x_sdio.c ****   SDIO_CmdInitStruct->SDIO_CPSM = SDIO_CPSM_Disable;
 393              		.loc 1 389 0
 394 00f2 0361     		str	r3, [r0, #16]
 390:../../source/src/FWlib/src/stm32f10x_sdio.c **** }
 395              		.loc 1 390 0
 396 00f4 7047     		bx	lr
ARM GAS  G:\Users\Jaxb\AppData\Local\Temp\ccmT3S8V.s 			page 15


 397              		.cfi_endproc
 398              	.LFE38:
 399              		.size	SDIO_CmdStructInit, .-SDIO_CmdStructInit
 400              		.align	1
 401 00f6 00BF     		.p2align 2,,3
 402              		.global	SDIO_GetCommandResponse
 403              		.syntax unified
 404              		.thumb
 405              		.thumb_func
 406              		.fpu softvfp
 407              		.type	SDIO_GetCommandResponse, %function
 408              	SDIO_GetCommandResponse:
 409              	.LFB39:
 391:../../source/src/FWlib/src/stm32f10x_sdio.c **** 
 392:../../source/src/FWlib/src/stm32f10x_sdio.c **** /**
 393:../../source/src/FWlib/src/stm32f10x_sdio.c ****   * @brief  Returns command index of last command for which response received.
 394:../../source/src/FWlib/src/stm32f10x_sdio.c ****   * @param  None
 395:../../source/src/FWlib/src/stm32f10x_sdio.c ****   * @retval Returns the command index of the last command response received.
 396:../../source/src/FWlib/src/stm32f10x_sdio.c ****   */
 397:../../source/src/FWlib/src/stm32f10x_sdio.c **** uint8_t SDIO_GetCommandResponse(void)
 398:../../source/src/FWlib/src/stm32f10x_sdio.c **** {
 410              		.loc 1 398 0
 411              		.cfi_startproc
 412              		@ args = 0, pretend = 0, frame = 0
 413              		@ frame_needed = 0, uses_anonymous_args = 0
 414              		@ link register save eliminated.
 399:../../source/src/FWlib/src/stm32f10x_sdio.c ****   return (uint8_t)(SDIO->RESPCMD);
 415              		.loc 1 399 0
 416 00f8 014B     		ldr	r3, .L32
 417 00fa 1869     		ldr	r0, [r3, #16]
 400:../../source/src/FWlib/src/stm32f10x_sdio.c **** }
 418              		.loc 1 400 0
 419 00fc C0B2     		uxtb	r0, r0
 420 00fe 7047     		bx	lr
 421              	.L33:
 422              		.align	2
 423              	.L32:
 424 0100 00800140 		.word	1073840128
 425              		.cfi_endproc
 426              	.LFE39:
 427              		.size	SDIO_GetCommandResponse, .-SDIO_GetCommandResponse
 428              		.align	1
 429              		.p2align 2,,3
 430              		.global	SDIO_GetResponse
 431              		.syntax unified
 432              		.thumb
 433              		.thumb_func
 434              		.fpu softvfp
 435              		.type	SDIO_GetResponse, %function
 436              	SDIO_GetResponse:
 437              	.LFB40:
 401:../../source/src/FWlib/src/stm32f10x_sdio.c **** 
 402:../../source/src/FWlib/src/stm32f10x_sdio.c **** /**
 403:../../source/src/FWlib/src/stm32f10x_sdio.c ****   * @brief  Returns response received from the card for the last command.
 404:../../source/src/FWlib/src/stm32f10x_sdio.c ****   * @param  SDIO_RESP: Specifies the SDIO response register. 
 405:../../source/src/FWlib/src/stm32f10x_sdio.c ****   *   This parameter can be one of the following values:
 406:../../source/src/FWlib/src/stm32f10x_sdio.c ****   *     @arg SDIO_RESP1: Response Register 1
ARM GAS  G:\Users\Jaxb\AppData\Local\Temp\ccmT3S8V.s 			page 16


 407:../../source/src/FWlib/src/stm32f10x_sdio.c ****   *     @arg SDIO_RESP2: Response Register 2
 408:../../source/src/FWlib/src/stm32f10x_sdio.c ****   *     @arg SDIO_RESP3: Response Register 3
 409:../../source/src/FWlib/src/stm32f10x_sdio.c ****   *     @arg SDIO_RESP4: Response Register 4
 410:../../source/src/FWlib/src/stm32f10x_sdio.c ****   * @retval The Corresponding response register value.
 411:../../source/src/FWlib/src/stm32f10x_sdio.c ****   */
 412:../../source/src/FWlib/src/stm32f10x_sdio.c **** uint32_t SDIO_GetResponse(uint32_t SDIO_RESP)
 413:../../source/src/FWlib/src/stm32f10x_sdio.c **** {
 438              		.loc 1 413 0
 439              		.cfi_startproc
 440              		@ args = 0, pretend = 0, frame = 8
 441              		@ frame_needed = 0, uses_anonymous_args = 0
 442              		@ link register save eliminated.
 443              	.LVL18:
 414:../../source/src/FWlib/src/stm32f10x_sdio.c ****   __IO uint32_t tmp = 0;
 444              		.loc 1 414 0
 445 0104 0022     		movs	r2, #0
 415:../../source/src/FWlib/src/stm32f10x_sdio.c **** 
 416:../../source/src/FWlib/src/stm32f10x_sdio.c ****   /* Check the parameters */
 417:../../source/src/FWlib/src/stm32f10x_sdio.c ****   assert_param(IS_SDIO_RESP(SDIO_RESP));
 418:../../source/src/FWlib/src/stm32f10x_sdio.c **** 
 419:../../source/src/FWlib/src/stm32f10x_sdio.c ****   tmp = SDIO_RESP_ADDR + SDIO_RESP;
 446              		.loc 1 419 0
 447 0106 044B     		ldr	r3, .L35
 413:../../source/src/FWlib/src/stm32f10x_sdio.c ****   __IO uint32_t tmp = 0;
 448              		.loc 1 413 0
 449 0108 82B0     		sub	sp, sp, #8
 450              	.LCFI4:
 451              		.cfi_def_cfa_offset 8
 452              		.loc 1 419 0
 453 010a 0344     		add	r3, r3, r0
 414:../../source/src/FWlib/src/stm32f10x_sdio.c ****   __IO uint32_t tmp = 0;
 454              		.loc 1 414 0
 455 010c 0192     		str	r2, [sp, #4]
 456              		.loc 1 419 0
 457 010e 0193     		str	r3, [sp, #4]
 420:../../source/src/FWlib/src/stm32f10x_sdio.c ****   
 421:../../source/src/FWlib/src/stm32f10x_sdio.c ****   return (*(__IO uint32_t *) tmp); 
 458              		.loc 1 421 0
 459 0110 019B     		ldr	r3, [sp, #4]
 460 0112 1868     		ldr	r0, [r3]
 461              	.LVL19:
 422:../../source/src/FWlib/src/stm32f10x_sdio.c **** }
 462              		.loc 1 422 0
 463 0114 02B0     		add	sp, sp, #8
 464              	.LCFI5:
 465              		.cfi_def_cfa_offset 0
 466              		@ sp needed
 467 0116 7047     		bx	lr
 468              	.L36:
 469              		.align	2
 470              	.L35:
 471 0118 14800140 		.word	1073840148
 472              		.cfi_endproc
 473              	.LFE40:
 474              		.size	SDIO_GetResponse, .-SDIO_GetResponse
 475              		.align	1
 476              		.p2align 2,,3
ARM GAS  G:\Users\Jaxb\AppData\Local\Temp\ccmT3S8V.s 			page 17


 477              		.global	SDIO_DataConfig
 478              		.syntax unified
 479              		.thumb
 480              		.thumb_func
 481              		.fpu softvfp
 482              		.type	SDIO_DataConfig, %function
 483              	SDIO_DataConfig:
 484              	.LFB41:
 423:../../source/src/FWlib/src/stm32f10x_sdio.c **** 
 424:../../source/src/FWlib/src/stm32f10x_sdio.c **** /**
 425:../../source/src/FWlib/src/stm32f10x_sdio.c ****   * @brief  Initializes the SDIO data path according to the specified 
 426:../../source/src/FWlib/src/stm32f10x_sdio.c ****   *   parameters in the SDIO_DataInitStruct.
 427:../../source/src/FWlib/src/stm32f10x_sdio.c ****   * @param  SDIO_DataInitStruct : pointer to a SDIO_DataInitTypeDef structure that
 428:../../source/src/FWlib/src/stm32f10x_sdio.c ****   *   contains the configuration information for the SDIO command.
 429:../../source/src/FWlib/src/stm32f10x_sdio.c ****   * @retval None
 430:../../source/src/FWlib/src/stm32f10x_sdio.c ****   */
 431:../../source/src/FWlib/src/stm32f10x_sdio.c **** void SDIO_DataConfig(SDIO_DataInitTypeDef* SDIO_DataInitStruct)
 432:../../source/src/FWlib/src/stm32f10x_sdio.c **** {
 485              		.loc 1 432 0
 486              		.cfi_startproc
 487              		@ args = 0, pretend = 0, frame = 0
 488              		@ frame_needed = 0, uses_anonymous_args = 0
 489              		@ link register save eliminated.
 490              	.LVL20:
 433:../../source/src/FWlib/src/stm32f10x_sdio.c ****   uint32_t tmpreg = 0;
 434:../../source/src/FWlib/src/stm32f10x_sdio.c ****   
 435:../../source/src/FWlib/src/stm32f10x_sdio.c ****   /* Check the parameters */
 436:../../source/src/FWlib/src/stm32f10x_sdio.c ****   assert_param(IS_SDIO_DATA_LENGTH(SDIO_DataInitStruct->SDIO_DataLength));
 437:../../source/src/FWlib/src/stm32f10x_sdio.c ****   assert_param(IS_SDIO_BLOCK_SIZE(SDIO_DataInitStruct->SDIO_DataBlockSize));
 438:../../source/src/FWlib/src/stm32f10x_sdio.c ****   assert_param(IS_SDIO_TRANSFER_DIR(SDIO_DataInitStruct->SDIO_TransferDir));
 439:../../source/src/FWlib/src/stm32f10x_sdio.c ****   assert_param(IS_SDIO_TRANSFER_MODE(SDIO_DataInitStruct->SDIO_TransferMode));
 440:../../source/src/FWlib/src/stm32f10x_sdio.c ****   assert_param(IS_SDIO_DPSM(SDIO_DataInitStruct->SDIO_DPSM));
 441:../../source/src/FWlib/src/stm32f10x_sdio.c **** 
 442:../../source/src/FWlib/src/stm32f10x_sdio.c **** /*---------------------------- SDIO DTIMER Configuration ---------------------*/
 443:../../source/src/FWlib/src/stm32f10x_sdio.c ****   /* Set the SDIO Data TimeOut value */
 444:../../source/src/FWlib/src/stm32f10x_sdio.c ****   SDIO->DTIMER = SDIO_DataInitStruct->SDIO_DataTimeOut;
 491              		.loc 1 444 0
 492 011c 094A     		ldr	r2, .L38
 493 011e 0368     		ldr	r3, [r0]
 432:../../source/src/FWlib/src/stm32f10x_sdio.c ****   uint32_t tmpreg = 0;
 494              		.loc 1 432 0
 495 0120 10B4     		push	{r4}
 496              	.LCFI6:
 497              		.cfi_def_cfa_offset 4
 498              		.cfi_offset 4, -4
 499              		.loc 1 444 0
 500 0122 5362     		str	r3, [r2, #36]
 445:../../source/src/FWlib/src/stm32f10x_sdio.c **** 
 446:../../source/src/FWlib/src/stm32f10x_sdio.c **** /*---------------------------- SDIO DLEN Configuration -----------------------*/
 447:../../source/src/FWlib/src/stm32f10x_sdio.c ****   /* Set the SDIO DataLength value */
 448:../../source/src/FWlib/src/stm32f10x_sdio.c ****   SDIO->DLEN = SDIO_DataInitStruct->SDIO_DataLength;
 501              		.loc 1 448 0
 502 0124 4368     		ldr	r3, [r0, #4]
 503 0126 9362     		str	r3, [r2, #40]
 449:../../source/src/FWlib/src/stm32f10x_sdio.c **** 
 450:../../source/src/FWlib/src/stm32f10x_sdio.c **** /*---------------------------- SDIO DCTRL Configuration ----------------------*/  
 451:../../source/src/FWlib/src/stm32f10x_sdio.c ****   /* Get the SDIO DCTRL value */
ARM GAS  G:\Users\Jaxb\AppData\Local\Temp\ccmT3S8V.s 			page 18


 452:../../source/src/FWlib/src/stm32f10x_sdio.c ****   tmpreg = SDIO->DCTRL;
 504              		.loc 1 452 0
 505 0128 D16A     		ldr	r1, [r2, #44]
 506              	.LVL21:
 453:../../source/src/FWlib/src/stm32f10x_sdio.c ****   /* Clear DEN, DTMODE, DTDIR and DBCKSIZE bits */
 454:../../source/src/FWlib/src/stm32f10x_sdio.c ****   tmpreg &= DCTRL_CLEAR_MASK;
 455:../../source/src/FWlib/src/stm32f10x_sdio.c ****   /* Set DEN bit according to SDIO_DPSM value */
 456:../../source/src/FWlib/src/stm32f10x_sdio.c ****   /* Set DTMODE bit according to SDIO_TransferMode value */
 457:../../source/src/FWlib/src/stm32f10x_sdio.c ****   /* Set DTDIR bit according to SDIO_TransferDir value */
 458:../../source/src/FWlib/src/stm32f10x_sdio.c ****   /* Set DBCKSIZE bits according to SDIO_DataBlockSize value */
 459:../../source/src/FWlib/src/stm32f10x_sdio.c ****   tmpreg |= (uint32_t)SDIO_DataInitStruct->SDIO_DataBlockSize | SDIO_DataInitStruct->SDIO_TransferD
 507              		.loc 1 459 0
 508 012a D0E90234 		ldrd	r3, r4, [r0, #8]
 454:../../source/src/FWlib/src/stm32f10x_sdio.c ****   /* Set DEN bit according to SDIO_DPSM value */
 509              		.loc 1 454 0
 510 012e 21F0F701 		bic	r1, r1, #247
 511              	.LVL22:
 512              		.loc 1 459 0
 513 0132 2343     		orrs	r3, r3, r4
 514 0134 0469     		ldr	r4, [r0, #16]
 515 0136 0B43     		orrs	r3, r3, r1
 516 0138 4169     		ldr	r1, [r0, #20]
 517              	.LVL23:
 518 013a 2343     		orrs	r3, r3, r4
 519 013c 0B43     		orrs	r3, r3, r1
 520              	.LVL24:
 460:../../source/src/FWlib/src/stm32f10x_sdio.c ****            | SDIO_DataInitStruct->SDIO_TransferMode | SDIO_DataInitStruct->SDIO_DPSM;
 461:../../source/src/FWlib/src/stm32f10x_sdio.c **** 
 462:../../source/src/FWlib/src/stm32f10x_sdio.c ****   /* Write to SDIO DCTRL */
 463:../../source/src/FWlib/src/stm32f10x_sdio.c ****   SDIO->DCTRL = tmpreg;
 521              		.loc 1 463 0
 522 013e D362     		str	r3, [r2, #44]
 464:../../source/src/FWlib/src/stm32f10x_sdio.c **** }
 523              		.loc 1 464 0
 524 0140 10BC     		pop	{r4}
 525              	.LCFI7:
 526              		.cfi_restore 4
 527              		.cfi_def_cfa_offset 0
 528 0142 7047     		bx	lr
 529              	.L39:
 530              		.align	2
 531              	.L38:
 532 0144 00800140 		.word	1073840128
 533              		.cfi_endproc
 534              	.LFE41:
 535              		.size	SDIO_DataConfig, .-SDIO_DataConfig
 536              		.align	1
 537              		.p2align 2,,3
 538              		.global	SDIO_DataStructInit
 539              		.syntax unified
 540              		.thumb
 541              		.thumb_func
 542              		.fpu softvfp
 543              		.type	SDIO_DataStructInit, %function
 544              	SDIO_DataStructInit:
 545              	.LFB42:
 465:../../source/src/FWlib/src/stm32f10x_sdio.c **** 
ARM GAS  G:\Users\Jaxb\AppData\Local\Temp\ccmT3S8V.s 			page 19


 466:../../source/src/FWlib/src/stm32f10x_sdio.c **** /**
 467:../../source/src/FWlib/src/stm32f10x_sdio.c ****   * @brief  Fills each SDIO_DataInitStruct member with its default value.
 468:../../source/src/FWlib/src/stm32f10x_sdio.c ****   * @param  SDIO_DataInitStruct: pointer to an SDIO_DataInitTypeDef structure which
 469:../../source/src/FWlib/src/stm32f10x_sdio.c ****   *         will be initialized.
 470:../../source/src/FWlib/src/stm32f10x_sdio.c ****   * @retval None
 471:../../source/src/FWlib/src/stm32f10x_sdio.c ****   */
 472:../../source/src/FWlib/src/stm32f10x_sdio.c **** void SDIO_DataStructInit(SDIO_DataInitTypeDef* SDIO_DataInitStruct)
 473:../../source/src/FWlib/src/stm32f10x_sdio.c **** {
 546              		.loc 1 473 0
 547              		.cfi_startproc
 548              		@ args = 0, pretend = 0, frame = 0
 549              		@ frame_needed = 0, uses_anonymous_args = 0
 550              		@ link register save eliminated.
 551              	.LVL25:
 474:../../source/src/FWlib/src/stm32f10x_sdio.c ****   /* SDIO_DataInitStruct members default value */
 475:../../source/src/FWlib/src/stm32f10x_sdio.c ****   SDIO_DataInitStruct->SDIO_DataTimeOut = 0xFFFFFFFF;
 476:../../source/src/FWlib/src/stm32f10x_sdio.c ****   SDIO_DataInitStruct->SDIO_DataLength = 0x00;
 552              		.loc 1 476 0
 553 0148 0023     		movs	r3, #0
 554 014a 4FF0FF32 		mov	r2, #-1
 477:../../source/src/FWlib/src/stm32f10x_sdio.c ****   SDIO_DataInitStruct->SDIO_DataBlockSize = SDIO_DataBlockSize_1b;
 478:../../source/src/FWlib/src/stm32f10x_sdio.c ****   SDIO_DataInitStruct->SDIO_TransferDir = SDIO_TransferDir_ToCard;
 555              		.loc 1 478 0
 556 014e C0E90233 		strd	r3, r3, [r0, #8]
 476:../../source/src/FWlib/src/stm32f10x_sdio.c ****   SDIO_DataInitStruct->SDIO_DataBlockSize = SDIO_DataBlockSize_1b;
 557              		.loc 1 476 0
 558 0152 C0E90023 		strd	r2, r3, [r0]
 479:../../source/src/FWlib/src/stm32f10x_sdio.c ****   SDIO_DataInitStruct->SDIO_TransferMode = SDIO_TransferMode_Block;  
 480:../../source/src/FWlib/src/stm32f10x_sdio.c ****   SDIO_DataInitStruct->SDIO_DPSM = SDIO_DPSM_Disable;
 559              		.loc 1 480 0
 560 0156 C0E90433 		strd	r3, r3, [r0, #16]
 481:../../source/src/FWlib/src/stm32f10x_sdio.c **** }
 561              		.loc 1 481 0
 562 015a 7047     		bx	lr
 563              		.cfi_endproc
 564              	.LFE42:
 565              		.size	SDIO_DataStructInit, .-SDIO_DataStructInit
 566              		.align	1
 567              		.p2align 2,,3
 568              		.global	SDIO_GetDataCounter
 569              		.syntax unified
 570              		.thumb
 571              		.thumb_func
 572              		.fpu softvfp
 573              		.type	SDIO_GetDataCounter, %function
 574              	SDIO_GetDataCounter:
 575              	.LFB43:
 482:../../source/src/FWlib/src/stm32f10x_sdio.c **** 
 483:../../source/src/FWlib/src/stm32f10x_sdio.c **** /**
 484:../../source/src/FWlib/src/stm32f10x_sdio.c ****   * @brief  Returns number of remaining data bytes to be transferred.
 485:../../source/src/FWlib/src/stm32f10x_sdio.c ****   * @param  None
 486:../../source/src/FWlib/src/stm32f10x_sdio.c ****   * @retval Number of remaining data bytes to be transferred
 487:../../source/src/FWlib/src/stm32f10x_sdio.c ****   */
 488:../../source/src/FWlib/src/stm32f10x_sdio.c **** uint32_t SDIO_GetDataCounter(void)
 489:../../source/src/FWlib/src/stm32f10x_sdio.c **** { 
 576              		.loc 1 489 0
 577              		.cfi_startproc
ARM GAS  G:\Users\Jaxb\AppData\Local\Temp\ccmT3S8V.s 			page 20


 578              		@ args = 0, pretend = 0, frame = 0
 579              		@ frame_needed = 0, uses_anonymous_args = 0
 580              		@ link register save eliminated.
 490:../../source/src/FWlib/src/stm32f10x_sdio.c ****   return SDIO->DCOUNT;
 581              		.loc 1 490 0
 582 015c 014B     		ldr	r3, .L42
 583 015e 186B     		ldr	r0, [r3, #48]
 491:../../source/src/FWlib/src/stm32f10x_sdio.c **** }
 584              		.loc 1 491 0
 585 0160 7047     		bx	lr
 586              	.L43:
 587 0162 00BF     		.align	2
 588              	.L42:
 589 0164 00800140 		.word	1073840128
 590              		.cfi_endproc
 591              	.LFE43:
 592              		.size	SDIO_GetDataCounter, .-SDIO_GetDataCounter
 593              		.align	1
 594              		.p2align 2,,3
 595              		.global	SDIO_ReadData
 596              		.syntax unified
 597              		.thumb
 598              		.thumb_func
 599              		.fpu softvfp
 600              		.type	SDIO_ReadData, %function
 601              	SDIO_ReadData:
 602              	.LFB44:
 492:../../source/src/FWlib/src/stm32f10x_sdio.c **** 
 493:../../source/src/FWlib/src/stm32f10x_sdio.c **** /**
 494:../../source/src/FWlib/src/stm32f10x_sdio.c ****   * @brief  Read one data word from Rx FIFO.
 495:../../source/src/FWlib/src/stm32f10x_sdio.c ****   * @param  None
 496:../../source/src/FWlib/src/stm32f10x_sdio.c ****   * @retval Data received
 497:../../source/src/FWlib/src/stm32f10x_sdio.c ****   */
 498:../../source/src/FWlib/src/stm32f10x_sdio.c **** uint32_t SDIO_ReadData(void)
 499:../../source/src/FWlib/src/stm32f10x_sdio.c **** { 
 603              		.loc 1 499 0
 604              		.cfi_startproc
 605              		@ args = 0, pretend = 0, frame = 0
 606              		@ frame_needed = 0, uses_anonymous_args = 0
 607              		@ link register save eliminated.
 500:../../source/src/FWlib/src/stm32f10x_sdio.c ****   return SDIO->FIFO;
 608              		.loc 1 500 0
 609 0168 014B     		ldr	r3, .L45
 610 016a D3F88000 		ldr	r0, [r3, #128]
 501:../../source/src/FWlib/src/stm32f10x_sdio.c **** }
 611              		.loc 1 501 0
 612 016e 7047     		bx	lr
 613              	.L46:
 614              		.align	2
 615              	.L45:
 616 0170 00800140 		.word	1073840128
 617              		.cfi_endproc
 618              	.LFE44:
 619              		.size	SDIO_ReadData, .-SDIO_ReadData
 620              		.align	1
 621              		.p2align 2,,3
 622              		.global	SDIO_WriteData
ARM GAS  G:\Users\Jaxb\AppData\Local\Temp\ccmT3S8V.s 			page 21


 623              		.syntax unified
 624              		.thumb
 625              		.thumb_func
 626              		.fpu softvfp
 627              		.type	SDIO_WriteData, %function
 628              	SDIO_WriteData:
 629              	.LFB45:
 502:../../source/src/FWlib/src/stm32f10x_sdio.c **** 
 503:../../source/src/FWlib/src/stm32f10x_sdio.c **** /**
 504:../../source/src/FWlib/src/stm32f10x_sdio.c ****   * @brief  Write one data word to Tx FIFO.
 505:../../source/src/FWlib/src/stm32f10x_sdio.c ****   * @param  Data: 32-bit data word to write.
 506:../../source/src/FWlib/src/stm32f10x_sdio.c ****   * @retval None
 507:../../source/src/FWlib/src/stm32f10x_sdio.c ****   */
 508:../../source/src/FWlib/src/stm32f10x_sdio.c **** void SDIO_WriteData(uint32_t Data)
 509:../../source/src/FWlib/src/stm32f10x_sdio.c **** { 
 630              		.loc 1 509 0
 631              		.cfi_startproc
 632              		@ args = 0, pretend = 0, frame = 0
 633              		@ frame_needed = 0, uses_anonymous_args = 0
 634              		@ link register save eliminated.
 635              	.LVL26:
 510:../../source/src/FWlib/src/stm32f10x_sdio.c ****   SDIO->FIFO = Data;
 636              		.loc 1 510 0
 637 0174 014B     		ldr	r3, .L48
 638 0176 C3F88000 		str	r0, [r3, #128]
 511:../../source/src/FWlib/src/stm32f10x_sdio.c **** }
 639              		.loc 1 511 0
 640 017a 7047     		bx	lr
 641              	.L49:
 642              		.align	2
 643              	.L48:
 644 017c 00800140 		.word	1073840128
 645              		.cfi_endproc
 646              	.LFE45:
 647              		.size	SDIO_WriteData, .-SDIO_WriteData
 648              		.align	1
 649              		.p2align 2,,3
 650              		.global	SDIO_GetFIFOCount
 651              		.syntax unified
 652              		.thumb
 653              		.thumb_func
 654              		.fpu softvfp
 655              		.type	SDIO_GetFIFOCount, %function
 656              	SDIO_GetFIFOCount:
 657              	.LFB46:
 512:../../source/src/FWlib/src/stm32f10x_sdio.c **** 
 513:../../source/src/FWlib/src/stm32f10x_sdio.c **** /**
 514:../../source/src/FWlib/src/stm32f10x_sdio.c ****   * @brief  Returns the number of words left to be written to or read from FIFO.	
 515:../../source/src/FWlib/src/stm32f10x_sdio.c ****   * @param  None
 516:../../source/src/FWlib/src/stm32f10x_sdio.c ****   * @retval Remaining number of words.
 517:../../source/src/FWlib/src/stm32f10x_sdio.c ****   */
 518:../../source/src/FWlib/src/stm32f10x_sdio.c **** uint32_t SDIO_GetFIFOCount(void)
 519:../../source/src/FWlib/src/stm32f10x_sdio.c **** { 
 658              		.loc 1 519 0
 659              		.cfi_startproc
 660              		@ args = 0, pretend = 0, frame = 0
 661              		@ frame_needed = 0, uses_anonymous_args = 0
ARM GAS  G:\Users\Jaxb\AppData\Local\Temp\ccmT3S8V.s 			page 22


 662              		@ link register save eliminated.
 520:../../source/src/FWlib/src/stm32f10x_sdio.c ****   return SDIO->FIFOCNT;
 663              		.loc 1 520 0
 664 0180 014B     		ldr	r3, .L51
 665 0182 986C     		ldr	r0, [r3, #72]
 521:../../source/src/FWlib/src/stm32f10x_sdio.c **** }
 666              		.loc 1 521 0
 667 0184 7047     		bx	lr
 668              	.L52:
 669 0186 00BF     		.align	2
 670              	.L51:
 671 0188 00800140 		.word	1073840128
 672              		.cfi_endproc
 673              	.LFE46:
 674              		.size	SDIO_GetFIFOCount, .-SDIO_GetFIFOCount
 675              		.align	1
 676              		.p2align 2,,3
 677              		.global	SDIO_StartSDIOReadWait
 678              		.syntax unified
 679              		.thumb
 680              		.thumb_func
 681              		.fpu softvfp
 682              		.type	SDIO_StartSDIOReadWait, %function
 683              	SDIO_StartSDIOReadWait:
 684              	.LFB47:
 522:../../source/src/FWlib/src/stm32f10x_sdio.c **** 
 523:../../source/src/FWlib/src/stm32f10x_sdio.c **** /**
 524:../../source/src/FWlib/src/stm32f10x_sdio.c ****   * @brief  Starts the SD I/O Read Wait operation.	
 525:../../source/src/FWlib/src/stm32f10x_sdio.c ****   * @param  NewState: new state of the Start SDIO Read Wait operation. 
 526:../../source/src/FWlib/src/stm32f10x_sdio.c ****   *   This parameter can be: ENABLE or DISABLE.
 527:../../source/src/FWlib/src/stm32f10x_sdio.c ****   * @retval None
 528:../../source/src/FWlib/src/stm32f10x_sdio.c ****   */
 529:../../source/src/FWlib/src/stm32f10x_sdio.c **** void SDIO_StartSDIOReadWait(FunctionalState NewState)
 530:../../source/src/FWlib/src/stm32f10x_sdio.c **** { 
 685              		.loc 1 530 0
 686              		.cfi_startproc
 687              		@ args = 0, pretend = 0, frame = 0
 688              		@ frame_needed = 0, uses_anonymous_args = 0
 689              		@ link register save eliminated.
 690              	.LVL27:
 531:../../source/src/FWlib/src/stm32f10x_sdio.c ****   /* Check the parameters */
 532:../../source/src/FWlib/src/stm32f10x_sdio.c ****   assert_param(IS_FUNCTIONAL_STATE(NewState));
 533:../../source/src/FWlib/src/stm32f10x_sdio.c ****   
 534:../../source/src/FWlib/src/stm32f10x_sdio.c ****   *(__IO uint32_t *) DCTRL_RWSTART_BB = (uint32_t) NewState;
 691              		.loc 1 534 0
 692 018c 014B     		ldr	r3, .L54
 693 018e 1860     		str	r0, [r3]
 535:../../source/src/FWlib/src/stm32f10x_sdio.c **** }
 694              		.loc 1 535 0
 695 0190 7047     		bx	lr
 696              	.L55:
 697 0192 00BF     		.align	2
 698              	.L54:
 699 0194 A0053042 		.word	1110443424
 700              		.cfi_endproc
 701              	.LFE47:
 702              		.size	SDIO_StartSDIOReadWait, .-SDIO_StartSDIOReadWait
ARM GAS  G:\Users\Jaxb\AppData\Local\Temp\ccmT3S8V.s 			page 23


 703              		.align	1
 704              		.p2align 2,,3
 705              		.global	SDIO_StopSDIOReadWait
 706              		.syntax unified
 707              		.thumb
 708              		.thumb_func
 709              		.fpu softvfp
 710              		.type	SDIO_StopSDIOReadWait, %function
 711              	SDIO_StopSDIOReadWait:
 712              	.LFB48:
 536:../../source/src/FWlib/src/stm32f10x_sdio.c **** 
 537:../../source/src/FWlib/src/stm32f10x_sdio.c **** /**
 538:../../source/src/FWlib/src/stm32f10x_sdio.c ****   * @brief  Stops the SD I/O Read Wait operation.	
 539:../../source/src/FWlib/src/stm32f10x_sdio.c ****   * @param  NewState: new state of the Stop SDIO Read Wait operation. 
 540:../../source/src/FWlib/src/stm32f10x_sdio.c ****   *   This parameter can be: ENABLE or DISABLE.
 541:../../source/src/FWlib/src/stm32f10x_sdio.c ****   * @retval None
 542:../../source/src/FWlib/src/stm32f10x_sdio.c ****   */
 543:../../source/src/FWlib/src/stm32f10x_sdio.c **** void SDIO_StopSDIOReadWait(FunctionalState NewState)
 544:../../source/src/FWlib/src/stm32f10x_sdio.c **** { 
 713              		.loc 1 544 0
 714              		.cfi_startproc
 715              		@ args = 0, pretend = 0, frame = 0
 716              		@ frame_needed = 0, uses_anonymous_args = 0
 717              		@ link register save eliminated.
 718              	.LVL28:
 545:../../source/src/FWlib/src/stm32f10x_sdio.c ****   /* Check the parameters */
 546:../../source/src/FWlib/src/stm32f10x_sdio.c ****   assert_param(IS_FUNCTIONAL_STATE(NewState));
 547:../../source/src/FWlib/src/stm32f10x_sdio.c ****   
 548:../../source/src/FWlib/src/stm32f10x_sdio.c ****   *(__IO uint32_t *) DCTRL_RWSTOP_BB = (uint32_t) NewState;
 719              		.loc 1 548 0
 720 0198 014B     		ldr	r3, .L57
 721 019a 1860     		str	r0, [r3]
 549:../../source/src/FWlib/src/stm32f10x_sdio.c **** }
 722              		.loc 1 549 0
 723 019c 7047     		bx	lr
 724              	.L58:
 725 019e 00BF     		.align	2
 726              	.L57:
 727 01a0 A4053042 		.word	1110443428
 728              		.cfi_endproc
 729              	.LFE48:
 730              		.size	SDIO_StopSDIOReadWait, .-SDIO_StopSDIOReadWait
 731              		.align	1
 732              		.p2align 2,,3
 733              		.global	SDIO_SetSDIOReadWaitMode
 734              		.syntax unified
 735              		.thumb
 736              		.thumb_func
 737              		.fpu softvfp
 738              		.type	SDIO_SetSDIOReadWaitMode, %function
 739              	SDIO_SetSDIOReadWaitMode:
 740              	.LFB49:
 550:../../source/src/FWlib/src/stm32f10x_sdio.c **** 
 551:../../source/src/FWlib/src/stm32f10x_sdio.c **** /**
 552:../../source/src/FWlib/src/stm32f10x_sdio.c ****   * @brief  Sets one of the two options of inserting read wait interval.
 553:../../source/src/FWlib/src/stm32f10x_sdio.c ****   * @param  SDIO_ReadWaitMode: SD I/O Read Wait operation mode.
 554:../../source/src/FWlib/src/stm32f10x_sdio.c ****   *   This parameter can be:
ARM GAS  G:\Users\Jaxb\AppData\Local\Temp\ccmT3S8V.s 			page 24


 555:../../source/src/FWlib/src/stm32f10x_sdio.c ****   *     @arg SDIO_ReadWaitMode_CLK: Read Wait control by stopping SDIOCLK
 556:../../source/src/FWlib/src/stm32f10x_sdio.c ****   *     @arg SDIO_ReadWaitMode_DATA2: Read Wait control using SDIO_DATA2
 557:../../source/src/FWlib/src/stm32f10x_sdio.c ****   * @retval None
 558:../../source/src/FWlib/src/stm32f10x_sdio.c ****   */
 559:../../source/src/FWlib/src/stm32f10x_sdio.c **** void SDIO_SetSDIOReadWaitMode(uint32_t SDIO_ReadWaitMode)
 560:../../source/src/FWlib/src/stm32f10x_sdio.c **** {
 741              		.loc 1 560 0
 742              		.cfi_startproc
 743              		@ args = 0, pretend = 0, frame = 0
 744              		@ frame_needed = 0, uses_anonymous_args = 0
 745              		@ link register save eliminated.
 746              	.LVL29:
 561:../../source/src/FWlib/src/stm32f10x_sdio.c ****   /* Check the parameters */
 562:../../source/src/FWlib/src/stm32f10x_sdio.c ****   assert_param(IS_SDIO_READWAIT_MODE(SDIO_ReadWaitMode));
 563:../../source/src/FWlib/src/stm32f10x_sdio.c ****   
 564:../../source/src/FWlib/src/stm32f10x_sdio.c ****   *(__IO uint32_t *) DCTRL_RWMOD_BB = SDIO_ReadWaitMode;
 747              		.loc 1 564 0
 748 01a4 014B     		ldr	r3, .L60
 749 01a6 1860     		str	r0, [r3]
 565:../../source/src/FWlib/src/stm32f10x_sdio.c **** }
 750              		.loc 1 565 0
 751 01a8 7047     		bx	lr
 752              	.L61:
 753 01aa 00BF     		.align	2
 754              	.L60:
 755 01ac A8053042 		.word	1110443432
 756              		.cfi_endproc
 757              	.LFE49:
 758              		.size	SDIO_SetSDIOReadWaitMode, .-SDIO_SetSDIOReadWaitMode
 759              		.align	1
 760              		.p2align 2,,3
 761              		.global	SDIO_SetSDIOOperation
 762              		.syntax unified
 763              		.thumb
 764              		.thumb_func
 765              		.fpu softvfp
 766              		.type	SDIO_SetSDIOOperation, %function
 767              	SDIO_SetSDIOOperation:
 768              	.LFB50:
 566:../../source/src/FWlib/src/stm32f10x_sdio.c **** 
 567:../../source/src/FWlib/src/stm32f10x_sdio.c **** /**
 568:../../source/src/FWlib/src/stm32f10x_sdio.c ****   * @brief  Enables or disables the SD I/O Mode Operation.
 569:../../source/src/FWlib/src/stm32f10x_sdio.c ****   * @param  NewState: new state of SDIO specific operation. 
 570:../../source/src/FWlib/src/stm32f10x_sdio.c ****   *   This parameter can be: ENABLE or DISABLE.
 571:../../source/src/FWlib/src/stm32f10x_sdio.c ****   * @retval None
 572:../../source/src/FWlib/src/stm32f10x_sdio.c ****   */
 573:../../source/src/FWlib/src/stm32f10x_sdio.c **** void SDIO_SetSDIOOperation(FunctionalState NewState)
 574:../../source/src/FWlib/src/stm32f10x_sdio.c **** { 
 769              		.loc 1 574 0
 770              		.cfi_startproc
 771              		@ args = 0, pretend = 0, frame = 0
 772              		@ frame_needed = 0, uses_anonymous_args = 0
 773              		@ link register save eliminated.
 774              	.LVL30:
 575:../../source/src/FWlib/src/stm32f10x_sdio.c ****   /* Check the parameters */
 576:../../source/src/FWlib/src/stm32f10x_sdio.c ****   assert_param(IS_FUNCTIONAL_STATE(NewState));
 577:../../source/src/FWlib/src/stm32f10x_sdio.c ****   
ARM GAS  G:\Users\Jaxb\AppData\Local\Temp\ccmT3S8V.s 			page 25


 578:../../source/src/FWlib/src/stm32f10x_sdio.c ****   *(__IO uint32_t *) DCTRL_SDIOEN_BB = (uint32_t)NewState;
 775              		.loc 1 578 0
 776 01b0 014B     		ldr	r3, .L63
 777 01b2 1860     		str	r0, [r3]
 579:../../source/src/FWlib/src/stm32f10x_sdio.c **** }
 778              		.loc 1 579 0
 779 01b4 7047     		bx	lr
 780              	.L64:
 781 01b6 00BF     		.align	2
 782              	.L63:
 783 01b8 AC053042 		.word	1110443436
 784              		.cfi_endproc
 785              	.LFE50:
 786              		.size	SDIO_SetSDIOOperation, .-SDIO_SetSDIOOperation
 787              		.align	1
 788              		.p2align 2,,3
 789              		.global	SDIO_SendSDIOSuspendCmd
 790              		.syntax unified
 791              		.thumb
 792              		.thumb_func
 793              		.fpu softvfp
 794              		.type	SDIO_SendSDIOSuspendCmd, %function
 795              	SDIO_SendSDIOSuspendCmd:
 796              	.LFB51:
 580:../../source/src/FWlib/src/stm32f10x_sdio.c **** 
 581:../../source/src/FWlib/src/stm32f10x_sdio.c **** /**
 582:../../source/src/FWlib/src/stm32f10x_sdio.c ****   * @brief  Enables or disables the SD I/O Mode suspend command sending.
 583:../../source/src/FWlib/src/stm32f10x_sdio.c ****   * @param  NewState: new state of the SD I/O Mode suspend command.
 584:../../source/src/FWlib/src/stm32f10x_sdio.c ****   *   This parameter can be: ENABLE or DISABLE.
 585:../../source/src/FWlib/src/stm32f10x_sdio.c ****   * @retval None
 586:../../source/src/FWlib/src/stm32f10x_sdio.c ****   */
 587:../../source/src/FWlib/src/stm32f10x_sdio.c **** void SDIO_SendSDIOSuspendCmd(FunctionalState NewState)
 588:../../source/src/FWlib/src/stm32f10x_sdio.c **** { 
 797              		.loc 1 588 0
 798              		.cfi_startproc
 799              		@ args = 0, pretend = 0, frame = 0
 800              		@ frame_needed = 0, uses_anonymous_args = 0
 801              		@ link register save eliminated.
 802              	.LVL31:
 589:../../source/src/FWlib/src/stm32f10x_sdio.c ****   /* Check the parameters */
 590:../../source/src/FWlib/src/stm32f10x_sdio.c ****   assert_param(IS_FUNCTIONAL_STATE(NewState));
 591:../../source/src/FWlib/src/stm32f10x_sdio.c ****   
 592:../../source/src/FWlib/src/stm32f10x_sdio.c ****   *(__IO uint32_t *) CMD_SDIOSUSPEND_BB = (uint32_t)NewState;
 803              		.loc 1 592 0
 804 01bc 014B     		ldr	r3, .L66
 805 01be 1860     		str	r0, [r3]
 593:../../source/src/FWlib/src/stm32f10x_sdio.c **** }
 806              		.loc 1 593 0
 807 01c0 7047     		bx	lr
 808              	.L67:
 809 01c2 00BF     		.align	2
 810              	.L66:
 811 01c4 AC013042 		.word	1110442412
 812              		.cfi_endproc
 813              	.LFE51:
 814              		.size	SDIO_SendSDIOSuspendCmd, .-SDIO_SendSDIOSuspendCmd
 815              		.align	1
ARM GAS  G:\Users\Jaxb\AppData\Local\Temp\ccmT3S8V.s 			page 26


 816              		.p2align 2,,3
 817              		.global	SDIO_CommandCompletionCmd
 818              		.syntax unified
 819              		.thumb
 820              		.thumb_func
 821              		.fpu softvfp
 822              		.type	SDIO_CommandCompletionCmd, %function
 823              	SDIO_CommandCompletionCmd:
 824              	.LFB52:
 594:../../source/src/FWlib/src/stm32f10x_sdio.c **** 
 595:../../source/src/FWlib/src/stm32f10x_sdio.c **** /**
 596:../../source/src/FWlib/src/stm32f10x_sdio.c ****   * @brief  Enables or disables the command completion signal.
 597:../../source/src/FWlib/src/stm32f10x_sdio.c ****   * @param  NewState: new state of command completion signal. 
 598:../../source/src/FWlib/src/stm32f10x_sdio.c ****   *   This parameter can be: ENABLE or DISABLE.
 599:../../source/src/FWlib/src/stm32f10x_sdio.c ****   * @retval None
 600:../../source/src/FWlib/src/stm32f10x_sdio.c ****   */
 601:../../source/src/FWlib/src/stm32f10x_sdio.c **** void SDIO_CommandCompletionCmd(FunctionalState NewState)
 602:../../source/src/FWlib/src/stm32f10x_sdio.c **** { 
 825              		.loc 1 602 0
 826              		.cfi_startproc
 827              		@ args = 0, pretend = 0, frame = 0
 828              		@ frame_needed = 0, uses_anonymous_args = 0
 829              		@ link register save eliminated.
 830              	.LVL32:
 603:../../source/src/FWlib/src/stm32f10x_sdio.c ****   /* Check the parameters */
 604:../../source/src/FWlib/src/stm32f10x_sdio.c ****   assert_param(IS_FUNCTIONAL_STATE(NewState));
 605:../../source/src/FWlib/src/stm32f10x_sdio.c ****   
 606:../../source/src/FWlib/src/stm32f10x_sdio.c ****   *(__IO uint32_t *) CMD_ENCMDCOMPL_BB = (uint32_t)NewState;
 831              		.loc 1 606 0
 832 01c8 014B     		ldr	r3, .L69
 833 01ca 1860     		str	r0, [r3]
 607:../../source/src/FWlib/src/stm32f10x_sdio.c **** }
 834              		.loc 1 607 0
 835 01cc 7047     		bx	lr
 836              	.L70:
 837 01ce 00BF     		.align	2
 838              	.L69:
 839 01d0 B0013042 		.word	1110442416
 840              		.cfi_endproc
 841              	.LFE52:
 842              		.size	SDIO_CommandCompletionCmd, .-SDIO_CommandCompletionCmd
 843              		.align	1
 844              		.p2align 2,,3
 845              		.global	SDIO_CEATAITCmd
 846              		.syntax unified
 847              		.thumb
 848              		.thumb_func
 849              		.fpu softvfp
 850              		.type	SDIO_CEATAITCmd, %function
 851              	SDIO_CEATAITCmd:
 852              	.LFB53:
 608:../../source/src/FWlib/src/stm32f10x_sdio.c **** 
 609:../../source/src/FWlib/src/stm32f10x_sdio.c **** /**
 610:../../source/src/FWlib/src/stm32f10x_sdio.c ****   * @brief  Enables or disables the CE-ATA interrupt.
 611:../../source/src/FWlib/src/stm32f10x_sdio.c ****   * @param  NewState: new state of CE-ATA interrupt. This parameter can be: ENABLE or DISABLE.
 612:../../source/src/FWlib/src/stm32f10x_sdio.c ****   * @retval None
 613:../../source/src/FWlib/src/stm32f10x_sdio.c ****   */
ARM GAS  G:\Users\Jaxb\AppData\Local\Temp\ccmT3S8V.s 			page 27


 614:../../source/src/FWlib/src/stm32f10x_sdio.c **** void SDIO_CEATAITCmd(FunctionalState NewState)
 615:../../source/src/FWlib/src/stm32f10x_sdio.c **** { 
 853              		.loc 1 615 0
 854              		.cfi_startproc
 855              		@ args = 0, pretend = 0, frame = 0
 856              		@ frame_needed = 0, uses_anonymous_args = 0
 857              		@ link register save eliminated.
 858              	.LVL33:
 616:../../source/src/FWlib/src/stm32f10x_sdio.c ****   /* Check the parameters */
 617:../../source/src/FWlib/src/stm32f10x_sdio.c ****   assert_param(IS_FUNCTIONAL_STATE(NewState));
 618:../../source/src/FWlib/src/stm32f10x_sdio.c ****   
 619:../../source/src/FWlib/src/stm32f10x_sdio.c ****   *(__IO uint32_t *) CMD_NIEN_BB = (uint32_t)((~((uint32_t)NewState)) & ((uint32_t)0x1));
 859              		.loc 1 619 0
 860 01d4 C043     		mvns	r0, r0
 861              	.LVL34:
 862 01d6 024B     		ldr	r3, .L72
 863 01d8 00F00100 		and	r0, r0, #1
 864 01dc 1860     		str	r0, [r3]
 620:../../source/src/FWlib/src/stm32f10x_sdio.c **** }
 865              		.loc 1 620 0
 866 01de 7047     		bx	lr
 867              	.L73:
 868              		.align	2
 869              	.L72:
 870 01e0 B4013042 		.word	1110442420
 871              		.cfi_endproc
 872              	.LFE53:
 873              		.size	SDIO_CEATAITCmd, .-SDIO_CEATAITCmd
 874              		.align	1
 875              		.p2align 2,,3
 876              		.global	SDIO_SendCEATACmd
 877              		.syntax unified
 878              		.thumb
 879              		.thumb_func
 880              		.fpu softvfp
 881              		.type	SDIO_SendCEATACmd, %function
 882              	SDIO_SendCEATACmd:
 883              	.LFB54:
 621:../../source/src/FWlib/src/stm32f10x_sdio.c **** 
 622:../../source/src/FWlib/src/stm32f10x_sdio.c **** /**
 623:../../source/src/FWlib/src/stm32f10x_sdio.c ****   * @brief  Sends CE-ATA command (CMD61).
 624:../../source/src/FWlib/src/stm32f10x_sdio.c ****   * @param  NewState: new state of CE-ATA command. This parameter can be: ENABLE or DISABLE.
 625:../../source/src/FWlib/src/stm32f10x_sdio.c ****   * @retval None
 626:../../source/src/FWlib/src/stm32f10x_sdio.c ****   */
 627:../../source/src/FWlib/src/stm32f10x_sdio.c **** void SDIO_SendCEATACmd(FunctionalState NewState)
 628:../../source/src/FWlib/src/stm32f10x_sdio.c **** { 
 884              		.loc 1 628 0
 885              		.cfi_startproc
 886              		@ args = 0, pretend = 0, frame = 0
 887              		@ frame_needed = 0, uses_anonymous_args = 0
 888              		@ link register save eliminated.
 889              	.LVL35:
 629:../../source/src/FWlib/src/stm32f10x_sdio.c ****   /* Check the parameters */
 630:../../source/src/FWlib/src/stm32f10x_sdio.c ****   assert_param(IS_FUNCTIONAL_STATE(NewState));
 631:../../source/src/FWlib/src/stm32f10x_sdio.c ****   
 632:../../source/src/FWlib/src/stm32f10x_sdio.c ****   *(__IO uint32_t *) CMD_ATACMD_BB = (uint32_t)NewState;
 890              		.loc 1 632 0
ARM GAS  G:\Users\Jaxb\AppData\Local\Temp\ccmT3S8V.s 			page 28


 891 01e4 014B     		ldr	r3, .L75
 892 01e6 1860     		str	r0, [r3]
 633:../../source/src/FWlib/src/stm32f10x_sdio.c **** }
 893              		.loc 1 633 0
 894 01e8 7047     		bx	lr
 895              	.L76:
 896 01ea 00BF     		.align	2
 897              	.L75:
 898 01ec B8013042 		.word	1110442424
 899              		.cfi_endproc
 900              	.LFE54:
 901              		.size	SDIO_SendCEATACmd, .-SDIO_SendCEATACmd
 902              		.align	1
 903              		.p2align 2,,3
 904              		.global	SDIO_GetFlagStatus
 905              		.syntax unified
 906              		.thumb
 907              		.thumb_func
 908              		.fpu softvfp
 909              		.type	SDIO_GetFlagStatus, %function
 910              	SDIO_GetFlagStatus:
 911              	.LFB55:
 634:../../source/src/FWlib/src/stm32f10x_sdio.c **** 
 635:../../source/src/FWlib/src/stm32f10x_sdio.c **** /**
 636:../../source/src/FWlib/src/stm32f10x_sdio.c ****   * @brief  Checks whether the specified SDIO flag is set or not.
 637:../../source/src/FWlib/src/stm32f10x_sdio.c ****   * @param  SDIO_FLAG: specifies the flag to check. 
 638:../../source/src/FWlib/src/stm32f10x_sdio.c ****   *   This parameter can be one of the following values:
 639:../../source/src/FWlib/src/stm32f10x_sdio.c ****   *     @arg SDIO_FLAG_CCRCFAIL: Command response received (CRC check failed)
 640:../../source/src/FWlib/src/stm32f10x_sdio.c ****   *     @arg SDIO_FLAG_DCRCFAIL: Data block sent/received (CRC check failed)
 641:../../source/src/FWlib/src/stm32f10x_sdio.c ****   *     @arg SDIO_FLAG_CTIMEOUT: Command response timeout
 642:../../source/src/FWlib/src/stm32f10x_sdio.c ****   *     @arg SDIO_FLAG_DTIMEOUT: Data timeout
 643:../../source/src/FWlib/src/stm32f10x_sdio.c ****   *     @arg SDIO_FLAG_TXUNDERR: Transmit FIFO underrun error
 644:../../source/src/FWlib/src/stm32f10x_sdio.c ****   *     @arg SDIO_FLAG_RXOVERR:  Received FIFO overrun error
 645:../../source/src/FWlib/src/stm32f10x_sdio.c ****   *     @arg SDIO_FLAG_CMDREND:  Command response received (CRC check passed)
 646:../../source/src/FWlib/src/stm32f10x_sdio.c ****   *     @arg SDIO_FLAG_CMDSENT:  Command sent (no response required)
 647:../../source/src/FWlib/src/stm32f10x_sdio.c ****   *     @arg SDIO_FLAG_DATAEND:  Data end (data counter, SDIDCOUNT, is zero)
 648:../../source/src/FWlib/src/stm32f10x_sdio.c ****   *     @arg SDIO_FLAG_STBITERR: Start bit not detected on all data signals in wide 
 649:../../source/src/FWlib/src/stm32f10x_sdio.c ****   *                              bus mode.
 650:../../source/src/FWlib/src/stm32f10x_sdio.c ****   *     @arg SDIO_FLAG_DBCKEND:  Data block sent/received (CRC check passed)
 651:../../source/src/FWlib/src/stm32f10x_sdio.c ****   *     @arg SDIO_FLAG_CMDACT:   Command transfer in progress
 652:../../source/src/FWlib/src/stm32f10x_sdio.c ****   *     @arg SDIO_FLAG_TXACT:    Data transmit in progress
 653:../../source/src/FWlib/src/stm32f10x_sdio.c ****   *     @arg SDIO_FLAG_RXACT:    Data receive in progress
 654:../../source/src/FWlib/src/stm32f10x_sdio.c ****   *     @arg SDIO_FLAG_TXFIFOHE: Transmit FIFO Half Empty
 655:../../source/src/FWlib/src/stm32f10x_sdio.c ****   *     @arg SDIO_FLAG_RXFIFOHF: Receive FIFO Half Full
 656:../../source/src/FWlib/src/stm32f10x_sdio.c ****   *     @arg SDIO_FLAG_TXFIFOF:  Transmit FIFO full
 657:../../source/src/FWlib/src/stm32f10x_sdio.c ****   *     @arg SDIO_FLAG_RXFIFOF:  Receive FIFO full
 658:../../source/src/FWlib/src/stm32f10x_sdio.c ****   *     @arg SDIO_FLAG_TXFIFOE:  Transmit FIFO empty
 659:../../source/src/FWlib/src/stm32f10x_sdio.c ****   *     @arg SDIO_FLAG_RXFIFOE:  Receive FIFO empty
 660:../../source/src/FWlib/src/stm32f10x_sdio.c ****   *     @arg SDIO_FLAG_TXDAVL:   Data available in transmit FIFO
 661:../../source/src/FWlib/src/stm32f10x_sdio.c ****   *     @arg SDIO_FLAG_RXDAVL:   Data available in receive FIFO
 662:../../source/src/FWlib/src/stm32f10x_sdio.c ****   *     @arg SDIO_FLAG_SDIOIT:   SD I/O interrupt received
 663:../../source/src/FWlib/src/stm32f10x_sdio.c ****   *     @arg SDIO_FLAG_CEATAEND: CE-ATA command completion signal received for CMD61
 664:../../source/src/FWlib/src/stm32f10x_sdio.c ****   * @retval The new state of SDIO_FLAG (SET or RESET).
 665:../../source/src/FWlib/src/stm32f10x_sdio.c ****   */
 666:../../source/src/FWlib/src/stm32f10x_sdio.c **** FlagStatus SDIO_GetFlagStatus(uint32_t SDIO_FLAG)
 667:../../source/src/FWlib/src/stm32f10x_sdio.c **** { 
 912              		.loc 1 667 0
ARM GAS  G:\Users\Jaxb\AppData\Local\Temp\ccmT3S8V.s 			page 29


 913              		.cfi_startproc
 914              		@ args = 0, pretend = 0, frame = 0
 915              		@ frame_needed = 0, uses_anonymous_args = 0
 916              		@ link register save eliminated.
 917              	.LVL36:
 668:../../source/src/FWlib/src/stm32f10x_sdio.c ****   FlagStatus bitstatus = RESET;
 669:../../source/src/FWlib/src/stm32f10x_sdio.c ****   
 670:../../source/src/FWlib/src/stm32f10x_sdio.c ****   /* Check the parameters */
 671:../../source/src/FWlib/src/stm32f10x_sdio.c ****   assert_param(IS_SDIO_FLAG(SDIO_FLAG));
 672:../../source/src/FWlib/src/stm32f10x_sdio.c ****   
 673:../../source/src/FWlib/src/stm32f10x_sdio.c ****   if ((SDIO->STA & SDIO_FLAG) != (uint32_t)RESET)
 918              		.loc 1 673 0
 919 01f0 034B     		ldr	r3, .L78
 920 01f2 5B6B     		ldr	r3, [r3, #52]
 921              	.LVL37:
 922 01f4 0342     		tst	r3, r0
 674:../../source/src/FWlib/src/stm32f10x_sdio.c ****   {
 675:../../source/src/FWlib/src/stm32f10x_sdio.c ****     bitstatus = SET;
 676:../../source/src/FWlib/src/stm32f10x_sdio.c ****   }
 677:../../source/src/FWlib/src/stm32f10x_sdio.c ****   else
 678:../../source/src/FWlib/src/stm32f10x_sdio.c ****   {
 679:../../source/src/FWlib/src/stm32f10x_sdio.c ****     bitstatus = RESET;
 680:../../source/src/FWlib/src/stm32f10x_sdio.c ****   }
 681:../../source/src/FWlib/src/stm32f10x_sdio.c ****   return bitstatus;
 682:../../source/src/FWlib/src/stm32f10x_sdio.c **** }
 923              		.loc 1 682 0
 924 01f6 14BF     		ite	ne
 925 01f8 0120     		movne	r0, #1
 926              	.LVL38:
 927 01fa 0020     		moveq	r0, #0
 928 01fc 7047     		bx	lr
 929              	.L79:
 930 01fe 00BF     		.align	2
 931              	.L78:
 932 0200 00800140 		.word	1073840128
 933              		.cfi_endproc
 934              	.LFE55:
 935              		.size	SDIO_GetFlagStatus, .-SDIO_GetFlagStatus
 936              		.align	1
 937              		.p2align 2,,3
 938              		.global	SDIO_ClearFlag
 939              		.syntax unified
 940              		.thumb
 941              		.thumb_func
 942              		.fpu softvfp
 943              		.type	SDIO_ClearFlag, %function
 944              	SDIO_ClearFlag:
 945              	.LFB56:
 683:../../source/src/FWlib/src/stm32f10x_sdio.c **** 
 684:../../source/src/FWlib/src/stm32f10x_sdio.c **** /**
 685:../../source/src/FWlib/src/stm32f10x_sdio.c ****   * @brief  Clears the SDIO's pending flags.
 686:../../source/src/FWlib/src/stm32f10x_sdio.c ****   * @param  SDIO_FLAG: specifies the flag to clear.  
 687:../../source/src/FWlib/src/stm32f10x_sdio.c ****   *   This parameter can be one or a combination of the following values:
 688:../../source/src/FWlib/src/stm32f10x_sdio.c ****   *     @arg SDIO_FLAG_CCRCFAIL: Command response received (CRC check failed)
 689:../../source/src/FWlib/src/stm32f10x_sdio.c ****   *     @arg SDIO_FLAG_DCRCFAIL: Data block sent/received (CRC check failed)
 690:../../source/src/FWlib/src/stm32f10x_sdio.c ****   *     @arg SDIO_FLAG_CTIMEOUT: Command response timeout
 691:../../source/src/FWlib/src/stm32f10x_sdio.c ****   *     @arg SDIO_FLAG_DTIMEOUT: Data timeout
ARM GAS  G:\Users\Jaxb\AppData\Local\Temp\ccmT3S8V.s 			page 30


 692:../../source/src/FWlib/src/stm32f10x_sdio.c ****   *     @arg SDIO_FLAG_TXUNDERR: Transmit FIFO underrun error
 693:../../source/src/FWlib/src/stm32f10x_sdio.c ****   *     @arg SDIO_FLAG_RXOVERR:  Received FIFO overrun error
 694:../../source/src/FWlib/src/stm32f10x_sdio.c ****   *     @arg SDIO_FLAG_CMDREND:  Command response received (CRC check passed)
 695:../../source/src/FWlib/src/stm32f10x_sdio.c ****   *     @arg SDIO_FLAG_CMDSENT:  Command sent (no response required)
 696:../../source/src/FWlib/src/stm32f10x_sdio.c ****   *     @arg SDIO_FLAG_DATAEND:  Data end (data counter, SDIDCOUNT, is zero)
 697:../../source/src/FWlib/src/stm32f10x_sdio.c ****   *     @arg SDIO_FLAG_STBITERR: Start bit not detected on all data signals in wide 
 698:../../source/src/FWlib/src/stm32f10x_sdio.c ****   *                              bus mode
 699:../../source/src/FWlib/src/stm32f10x_sdio.c ****   *     @arg SDIO_FLAG_DBCKEND:  Data block sent/received (CRC check passed)
 700:../../source/src/FWlib/src/stm32f10x_sdio.c ****   *     @arg SDIO_FLAG_SDIOIT:   SD I/O interrupt received
 701:../../source/src/FWlib/src/stm32f10x_sdio.c ****   *     @arg SDIO_FLAG_CEATAEND: CE-ATA command completion signal received for CMD61
 702:../../source/src/FWlib/src/stm32f10x_sdio.c ****   * @retval None
 703:../../source/src/FWlib/src/stm32f10x_sdio.c ****   */
 704:../../source/src/FWlib/src/stm32f10x_sdio.c **** void SDIO_ClearFlag(uint32_t SDIO_FLAG)
 705:../../source/src/FWlib/src/stm32f10x_sdio.c **** { 
 946              		.loc 1 705 0
 947              		.cfi_startproc
 948              		@ args = 0, pretend = 0, frame = 0
 949              		@ frame_needed = 0, uses_anonymous_args = 0
 950              		@ link register save eliminated.
 951              	.LVL39:
 706:../../source/src/FWlib/src/stm32f10x_sdio.c ****   /* Check the parameters */
 707:../../source/src/FWlib/src/stm32f10x_sdio.c ****   assert_param(IS_SDIO_CLEAR_FLAG(SDIO_FLAG));
 708:../../source/src/FWlib/src/stm32f10x_sdio.c ****    
 709:../../source/src/FWlib/src/stm32f10x_sdio.c ****   SDIO->ICR = SDIO_FLAG;
 952              		.loc 1 709 0
 953 0204 014B     		ldr	r3, .L81
 954 0206 9863     		str	r0, [r3, #56]
 710:../../source/src/FWlib/src/stm32f10x_sdio.c **** }
 955              		.loc 1 710 0
 956 0208 7047     		bx	lr
 957              	.L82:
 958 020a 00BF     		.align	2
 959              	.L81:
 960 020c 00800140 		.word	1073840128
 961              		.cfi_endproc
 962              	.LFE56:
 963              		.size	SDIO_ClearFlag, .-SDIO_ClearFlag
 964              		.align	1
 965              		.p2align 2,,3
 966              		.global	SDIO_GetITStatus
 967              		.syntax unified
 968              		.thumb
 969              		.thumb_func
 970              		.fpu softvfp
 971              		.type	SDIO_GetITStatus, %function
 972              	SDIO_GetITStatus:
 973              	.LFB62:
 974              		.cfi_startproc
 975              		@ args = 0, pretend = 0, frame = 0
 976              		@ frame_needed = 0, uses_anonymous_args = 0
 977              		@ link register save eliminated.
 978 0210 FFF7FEBF 		b	SDIO_GetFlagStatus
 979              		.cfi_endproc
 980              	.LFE62:
 981              		.size	SDIO_GetITStatus, .-SDIO_GetITStatus
 982              		.align	1
 983              		.p2align 2,,3
ARM GAS  G:\Users\Jaxb\AppData\Local\Temp\ccmT3S8V.s 			page 31


 984              		.global	SDIO_ClearITPendingBit
 985              		.syntax unified
 986              		.thumb
 987              		.thumb_func
 988              		.fpu softvfp
 989              		.type	SDIO_ClearITPendingBit, %function
 990              	SDIO_ClearITPendingBit:
 991              	.LFB60:
 992              		.cfi_startproc
 993              		@ args = 0, pretend = 0, frame = 0
 994              		@ frame_needed = 0, uses_anonymous_args = 0
 995              		@ link register save eliminated.
 996 0214 014B     		ldr	r3, .L85
 997 0216 9863     		str	r0, [r3, #56]
 998 0218 7047     		bx	lr
 999              	.L86:
 1000 021a 00BF     		.align	2
 1001              	.L85:
 1002 021c 00800140 		.word	1073840128
 1003              		.cfi_endproc
 1004              	.LFE60:
 1005              		.size	SDIO_ClearITPendingBit, .-SDIO_ClearITPendingBit
 1006              	.Letext0:
 1007              		.file 2 "f:\\arm\\gcc2018\\arm-none-eabi\\include\\machine\\_default_types.h"
 1008              		.file 3 "f:\\arm\\gcc2018\\arm-none-eabi\\include\\sys\\_stdint.h"
 1009              		.file 4 "../../source/include/core_cm3.h"
 1010              		.file 5 "../../source/include/system_stm32f10x.h"
 1011              		.file 6 "../../source/include/stm32f10x.h"
 1012              		.file 7 "../../source/src/FWlib/inc/stm32f10x_sdio.h"
 1013              		.section	.debug_info,"",%progbits
 1014              	.Ldebug_info0:
 1015 0000 90080000 		.4byte	0x890
 1016 0004 0200     		.2byte	0x2
 1017 0006 00000000 		.4byte	.Ldebug_abbrev0
 1018 000a 04       		.byte	0x4
 1019 000b 01       		.uleb128 0x1
 1020 000c 7E050000 		.4byte	.LASF98
 1021 0010 0C       		.byte	0xc
 1022 0011 22050000 		.4byte	.LASF99
 1023 0015 58040000 		.4byte	.LASF100
 1024 0019 00000000 		.4byte	.Ltext0
 1025 001d 20020000 		.4byte	.Letext0
 1026 0021 00000000 		.4byte	.Ldebug_line0
 1027 0025 02       		.uleb128 0x2
 1028 0026 01       		.byte	0x1
 1029 0027 06       		.byte	0x6
 1030 0028 07030000 		.4byte	.LASF0
 1031 002c 03       		.uleb128 0x3
 1032 002d 70060000 		.4byte	.LASF5
 1033 0031 02       		.byte	0x2
 1034 0032 2B       		.byte	0x2b
 1035 0033 37000000 		.4byte	0x37
 1036 0037 02       		.uleb128 0x2
 1037 0038 01       		.byte	0x1
 1038 0039 08       		.byte	0x8
 1039 003a E5020000 		.4byte	.LASF1
 1040 003e 02       		.uleb128 0x2
ARM GAS  G:\Users\Jaxb\AppData\Local\Temp\ccmT3S8V.s 			page 32


 1041 003f 02       		.byte	0x2
 1042 0040 05       		.byte	0x5
 1043 0041 5B010000 		.4byte	.LASF2
 1044 0045 02       		.uleb128 0x2
 1045 0046 02       		.byte	0x2
 1046 0047 07       		.byte	0x7
 1047 0048 8F030000 		.4byte	.LASF3
 1048 004c 02       		.uleb128 0x2
 1049 004d 04       		.byte	0x4
 1050 004e 05       		.byte	0x5
 1051 004f 52020000 		.4byte	.LASF4
 1052 0053 03       		.uleb128 0x3
 1053 0054 B3040000 		.4byte	.LASF6
 1054 0058 02       		.byte	0x2
 1055 0059 4F       		.byte	0x4f
 1056 005a 5E000000 		.4byte	0x5e
 1057 005e 02       		.uleb128 0x2
 1058 005f 04       		.byte	0x4
 1059 0060 07       		.byte	0x7
 1060 0061 1A040000 		.4byte	.LASF7
 1061 0065 02       		.uleb128 0x2
 1062 0066 08       		.byte	0x8
 1063 0067 05       		.byte	0x5
 1064 0068 DF000000 		.4byte	.LASF8
 1065 006c 02       		.uleb128 0x2
 1066 006d 08       		.byte	0x8
 1067 006e 07       		.byte	0x7
 1068 006f 13030000 		.4byte	.LASF9
 1069 0073 04       		.uleb128 0x4
 1070 0074 04       		.byte	0x4
 1071 0075 05       		.byte	0x5
 1072 0076 696E7400 		.ascii	"int\000"
 1073 007a 05       		.uleb128 0x5
 1074 007b 73000000 		.4byte	0x73
 1075 007f 02       		.uleb128 0x2
 1076 0080 04       		.byte	0x4
 1077 0081 07       		.byte	0x7
 1078 0082 47030000 		.4byte	.LASF10
 1079 0086 03       		.uleb128 0x3
 1080 0087 89010000 		.4byte	.LASF11
 1081 008b 03       		.byte	0x3
 1082 008c 18       		.byte	0x18
 1083 008d 2C000000 		.4byte	0x2c
 1084 0091 03       		.uleb128 0x3
 1085 0092 2A030000 		.4byte	.LASF12
 1086 0096 03       		.byte	0x3
 1087 0097 30       		.byte	0x30
 1088 0098 53000000 		.4byte	0x53
 1089 009c 05       		.uleb128 0x5
 1090 009d 91000000 		.4byte	0x91
 1091 00a1 06       		.uleb128 0x6
 1092 00a2 9C000000 		.4byte	0x9c
 1093 00a6 07       		.uleb128 0x7
 1094 00a7 36060000 		.4byte	.LASF13
 1095 00ab 04       		.byte	0x4
 1096 00ac CE06     		.2byte	0x6ce
 1097 00ae 7A000000 		.4byte	0x7a
ARM GAS  G:\Users\Jaxb\AppData\Local\Temp\ccmT3S8V.s 			page 33


 1098 00b2 01       		.byte	0x1
 1099 00b3 01       		.byte	0x1
 1100 00b4 08       		.uleb128 0x8
 1101 00b5 D4030000 		.4byte	.LASF14
 1102 00b9 05       		.byte	0x5
 1103 00ba 35       		.byte	0x35
 1104 00bb 91000000 		.4byte	0x91
 1105 00bf 01       		.byte	0x1
 1106 00c0 01       		.byte	0x1
 1107 00c1 09       		.uleb128 0x9
 1108 00c2 07       		.byte	0x7
 1109 00c3 01       		.byte	0x1
 1110 00c4 37000000 		.4byte	0x37
 1111 00c8 06       		.byte	0x6
 1112 00c9 0702     		.2byte	0x207
 1113 00cb DC000000 		.4byte	0xdc
 1114 00cf 0A       		.uleb128 0xa
 1115 00d0 FF040000 		.4byte	.LASF15
 1116 00d4 00       		.byte	0
 1117 00d5 0B       		.uleb128 0xb
 1118 00d6 53455400 		.ascii	"SET\000"
 1119 00da 01       		.byte	0x1
 1120 00db 00       		.byte	0
 1121 00dc 0C       		.uleb128 0xc
 1122 00dd 5E060000 		.4byte	.LASF16
 1123 00e1 06       		.byte	0x6
 1124 00e2 0702     		.2byte	0x207
 1125 00e4 C1000000 		.4byte	0xc1
 1126 00e8 0C       		.uleb128 0xc
 1127 00e9 20000000 		.4byte	.LASF17
 1128 00ed 06       		.byte	0x6
 1129 00ee 0702     		.2byte	0x207
 1130 00f0 C1000000 		.4byte	0xc1
 1131 00f4 09       		.uleb128 0x9
 1132 00f5 07       		.byte	0x7
 1133 00f6 01       		.byte	0x1
 1134 00f7 37000000 		.4byte	0x37
 1135 00fb 06       		.byte	0x6
 1136 00fc 0902     		.2byte	0x209
 1137 00fe 0F010000 		.4byte	0x10f
 1138 0102 0A       		.uleb128 0xa
 1139 0103 CC010000 		.4byte	.LASF18
 1140 0107 00       		.byte	0
 1141 0108 0A       		.uleb128 0xa
 1142 0109 69060000 		.4byte	.LASF19
 1143 010d 01       		.byte	0x1
 1144 010e 00       		.byte	0
 1145 010f 0C       		.uleb128 0xc
 1146 0110 A3040000 		.4byte	.LASF20
 1147 0114 06       		.byte	0x6
 1148 0115 0902     		.2byte	0x209
 1149 0117 F4000000 		.4byte	0xf4
 1150 011b 0D       		.uleb128 0xd
 1151 011c 91000000 		.4byte	0x91
 1152 0120 2B010000 		.4byte	0x12b
 1153 0124 0E       		.uleb128 0xe
 1154 0125 7F000000 		.4byte	0x7f
ARM GAS  G:\Users\Jaxb\AppData\Local\Temp\ccmT3S8V.s 			page 34


 1155 0129 01       		.byte	0x1
 1156 012a 00       		.byte	0
 1157 012b 0F       		.uleb128 0xf
 1158 012c 84       		.byte	0x84
 1159 012d 06       		.byte	0x6
 1160 012e 6C04     		.2byte	0x46c
 1161 0130 62020000 		.4byte	0x262
 1162 0134 10       		.uleb128 0x10
 1163 0135 97010000 		.4byte	.LASF21
 1164 0139 06       		.byte	0x6
 1165 013a 6E04     		.2byte	0x46e
 1166 013c 9C000000 		.4byte	0x9c
 1167 0140 02       		.byte	0x2
 1168 0141 23       		.byte	0x23
 1169 0142 00       		.uleb128 0
 1170 0143 10       		.uleb128 0x10
 1171 0144 52040000 		.4byte	.LASF22
 1172 0148 06       		.byte	0x6
 1173 0149 6F04     		.2byte	0x46f
 1174 014b 9C000000 		.4byte	0x9c
 1175 014f 02       		.byte	0x2
 1176 0150 23       		.byte	0x23
 1177 0151 04       		.uleb128 0x4
 1178 0152 11       		.uleb128 0x11
 1179 0153 41524700 		.ascii	"ARG\000"
 1180 0157 06       		.byte	0x6
 1181 0158 7004     		.2byte	0x470
 1182 015a 9C000000 		.4byte	0x9c
 1183 015e 02       		.byte	0x2
 1184 015f 23       		.byte	0x23
 1185 0160 08       		.uleb128 0x8
 1186 0161 11       		.uleb128 0x11
 1187 0162 434D4400 		.ascii	"CMD\000"
 1188 0166 06       		.byte	0x6
 1189 0167 7104     		.2byte	0x471
 1190 0169 9C000000 		.4byte	0x9c
 1191 016d 02       		.byte	0x2
 1192 016e 23       		.byte	0x23
 1193 016f 0C       		.uleb128 0xc
 1194 0170 10       		.uleb128 0x10
 1195 0171 43060000 		.4byte	.LASF23
 1196 0175 06       		.byte	0x6
 1197 0176 7204     		.2byte	0x472
 1198 0178 A1000000 		.4byte	0xa1
 1199 017c 02       		.byte	0x2
 1200 017d 23       		.byte	0x23
 1201 017e 10       		.uleb128 0x10
 1202 017f 10       		.uleb128 0x10
 1203 0180 A2030000 		.4byte	.LASF24
 1204 0184 06       		.byte	0x6
 1205 0185 7304     		.2byte	0x473
 1206 0187 A1000000 		.4byte	0xa1
 1207 018b 02       		.byte	0x2
 1208 018c 23       		.byte	0x23
 1209 018d 14       		.uleb128 0x14
 1210 018e 10       		.uleb128 0x10
 1211 018f A8030000 		.4byte	.LASF25
ARM GAS  G:\Users\Jaxb\AppData\Local\Temp\ccmT3S8V.s 			page 35


 1212 0193 06       		.byte	0x6
 1213 0194 7404     		.2byte	0x474
 1214 0196 A1000000 		.4byte	0xa1
 1215 019a 02       		.byte	0x2
 1216 019b 23       		.byte	0x23
 1217 019c 18       		.uleb128 0x18
 1218 019d 10       		.uleb128 0x10
 1219 019e AE030000 		.4byte	.LASF26
 1220 01a2 06       		.byte	0x6
 1221 01a3 7504     		.2byte	0x475
 1222 01a5 A1000000 		.4byte	0xa1
 1223 01a9 02       		.byte	0x2
 1224 01aa 23       		.byte	0x23
 1225 01ab 1C       		.uleb128 0x1c
 1226 01ac 10       		.uleb128 0x10
 1227 01ad B4030000 		.4byte	.LASF27
 1228 01b1 06       		.byte	0x6
 1229 01b2 7604     		.2byte	0x476
 1230 01b4 A1000000 		.4byte	0xa1
 1231 01b8 02       		.byte	0x2
 1232 01b9 23       		.byte	0x23
 1233 01ba 20       		.uleb128 0x20
 1234 01bb 10       		.uleb128 0x10
 1235 01bc 29000000 		.4byte	.LASF28
 1236 01c0 06       		.byte	0x6
 1237 01c1 7704     		.2byte	0x477
 1238 01c3 9C000000 		.4byte	0x9c
 1239 01c7 02       		.byte	0x2
 1240 01c8 23       		.byte	0x23
 1241 01c9 24       		.uleb128 0x24
 1242 01ca 10       		.uleb128 0x10
 1243 01cb 84010000 		.4byte	.LASF29
 1244 01cf 06       		.byte	0x6
 1245 01d0 7804     		.2byte	0x478
 1246 01d2 9C000000 		.4byte	0x9c
 1247 01d6 02       		.byte	0x2
 1248 01d7 23       		.byte	0x23
 1249 01d8 28       		.uleb128 0x28
 1250 01d9 10       		.uleb128 0x10
 1251 01da 91010000 		.4byte	.LASF30
 1252 01de 06       		.byte	0x6
 1253 01df 7904     		.2byte	0x479
 1254 01e1 9C000000 		.4byte	0x9c
 1255 01e5 02       		.byte	0x2
 1256 01e6 23       		.byte	0x23
 1257 01e7 2C       		.uleb128 0x2c
 1258 01e8 10       		.uleb128 0x10
 1259 01e9 C7000000 		.4byte	.LASF31
 1260 01ed 06       		.byte	0x6
 1261 01ee 7A04     		.2byte	0x47a
 1262 01f0 A1000000 		.4byte	0xa1
 1263 01f4 02       		.byte	0x2
 1264 01f5 23       		.byte	0x23
 1265 01f6 30       		.uleb128 0x30
 1266 01f7 11       		.uleb128 0x11
 1267 01f8 53544100 		.ascii	"STA\000"
 1268 01fc 06       		.byte	0x6
ARM GAS  G:\Users\Jaxb\AppData\Local\Temp\ccmT3S8V.s 			page 36


 1269 01fd 7B04     		.2byte	0x47b
 1270 01ff A1000000 		.4byte	0xa1
 1271 0203 02       		.byte	0x2
 1272 0204 23       		.byte	0x23
 1273 0205 34       		.uleb128 0x34
 1274 0206 11       		.uleb128 0x11
 1275 0207 49435200 		.ascii	"ICR\000"
 1276 020b 06       		.byte	0x6
 1277 020c 7C04     		.2byte	0x47c
 1278 020e 9C000000 		.4byte	0x9c
 1279 0212 02       		.byte	0x2
 1280 0213 23       		.byte	0x23
 1281 0214 38       		.uleb128 0x38
 1282 0215 10       		.uleb128 0x10
 1283 0216 54030000 		.4byte	.LASF32
 1284 021a 06       		.byte	0x6
 1285 021b 7D04     		.2byte	0x47d
 1286 021d 9C000000 		.4byte	0x9c
 1287 0221 02       		.byte	0x2
 1288 0222 23       		.byte	0x23
 1289 0223 3C       		.uleb128 0x3c
 1290 0224 10       		.uleb128 0x10
 1291 0225 06040000 		.4byte	.LASF33
 1292 0229 06       		.byte	0x6
 1293 022a 7E04     		.2byte	0x47e
 1294 022c 1B010000 		.4byte	0x11b
 1295 0230 02       		.byte	0x2
 1296 0231 23       		.byte	0x23
 1297 0232 40       		.uleb128 0x40
 1298 0233 10       		.uleb128 0x10
 1299 0234 24060000 		.4byte	.LASF34
 1300 0238 06       		.byte	0x6
 1301 0239 7F04     		.2byte	0x47f
 1302 023b A1000000 		.4byte	0xa1
 1303 023f 02       		.byte	0x2
 1304 0240 23       		.byte	0x23
 1305 0241 48       		.uleb128 0x48
 1306 0242 10       		.uleb128 0x10
 1307 0243 10040000 		.4byte	.LASF35
 1308 0247 06       		.byte	0x6
 1309 0248 8004     		.2byte	0x480
 1310 024a 62020000 		.4byte	0x262
 1311 024e 02       		.byte	0x2
 1312 024f 23       		.byte	0x23
 1313 0250 4C       		.uleb128 0x4c
 1314 0251 10       		.uleb128 0x10
 1315 0252 C1020000 		.4byte	.LASF36
 1316 0256 06       		.byte	0x6
 1317 0257 8104     		.2byte	0x481
 1318 0259 9C000000 		.4byte	0x9c
 1319 025d 03       		.byte	0x3
 1320 025e 23       		.byte	0x23
 1321 025f 8001     		.uleb128 0x80
 1322 0261 00       		.byte	0
 1323 0262 0D       		.uleb128 0xd
 1324 0263 91000000 		.4byte	0x91
 1325 0267 72020000 		.4byte	0x272
ARM GAS  G:\Users\Jaxb\AppData\Local\Temp\ccmT3S8V.s 			page 37


 1326 026b 0E       		.uleb128 0xe
 1327 026c 7F000000 		.4byte	0x7f
 1328 0270 0C       		.byte	0xc
 1329 0271 00       		.byte	0
 1330 0272 0C       		.uleb128 0xc
 1331 0273 59030000 		.4byte	.LASF37
 1332 0277 06       		.byte	0x6
 1333 0278 8204     		.2byte	0x482
 1334 027a 2B010000 		.4byte	0x12b
 1335 027e 12       		.uleb128 0x12
 1336 027f 18       		.byte	0x18
 1337 0280 07       		.byte	0x7
 1338 0281 2E       		.byte	0x2e
 1339 0282 DB020000 		.4byte	0x2db
 1340 0286 13       		.uleb128 0x13
 1341 0287 00000000 		.4byte	.LASF38
 1342 028b 07       		.byte	0x7
 1343 028c 30       		.byte	0x30
 1344 028d 91000000 		.4byte	0x91
 1345 0291 02       		.byte	0x2
 1346 0292 23       		.byte	0x23
 1347 0293 00       		.uleb128 0
 1348 0294 13       		.uleb128 0x13
 1349 0295 0F000000 		.4byte	.LASF39
 1350 0299 07       		.byte	0x7
 1351 029a 33       		.byte	0x33
 1352 029b 91000000 		.4byte	0x91
 1353 029f 02       		.byte	0x2
 1354 02a0 23       		.byte	0x23
 1355 02a1 04       		.uleb128 0x4
 1356 02a2 13       		.uleb128 0x13
 1357 02a3 AD020000 		.4byte	.LASF40
 1358 02a7 07       		.byte	0x7
 1359 02a8 37       		.byte	0x37
 1360 02a9 91000000 		.4byte	0x91
 1361 02ad 02       		.byte	0x2
 1362 02ae 23       		.byte	0x23
 1363 02af 08       		.uleb128 0x8
 1364 02b0 13       		.uleb128 0x13
 1365 02b1 65010000 		.4byte	.LASF41
 1366 02b5 07       		.byte	0x7
 1367 02b6 3B       		.byte	0x3b
 1368 02b7 91000000 		.4byte	0x91
 1369 02bb 02       		.byte	0x2
 1370 02bc 23       		.byte	0x23
 1371 02bd 0C       		.uleb128 0xc
 1372 02be 13       		.uleb128 0x13
 1373 02bf 42010000 		.4byte	.LASF42
 1374 02c3 07       		.byte	0x7
 1375 02c4 3E       		.byte	0x3e
 1376 02c5 91000000 		.4byte	0x91
 1377 02c9 02       		.byte	0x2
 1378 02ca 23       		.byte	0x23
 1379 02cb 10       		.uleb128 0x10
 1380 02cc 13       		.uleb128 0x13
 1381 02cd BE010000 		.4byte	.LASF43
 1382 02d1 07       		.byte	0x7
ARM GAS  G:\Users\Jaxb\AppData\Local\Temp\ccmT3S8V.s 			page 38


 1383 02d2 41       		.byte	0x41
 1384 02d3 86000000 		.4byte	0x86
 1385 02d7 02       		.byte	0x2
 1386 02d8 23       		.byte	0x23
 1387 02d9 14       		.uleb128 0x14
 1388 02da 00       		.byte	0
 1389 02db 03       		.uleb128 0x3
 1390 02dc 30000000 		.4byte	.LASF44
 1391 02e0 07       		.byte	0x7
 1392 02e1 44       		.byte	0x44
 1393 02e2 7E020000 		.4byte	0x27e
 1394 02e6 12       		.uleb128 0x12
 1395 02e7 14       		.byte	0x14
 1396 02e8 07       		.byte	0x7
 1397 02e9 46       		.byte	0x46
 1398 02ea 35030000 		.4byte	0x335
 1399 02ee 13       		.uleb128 0x13
 1400 02ef 90000000 		.4byte	.LASF45
 1401 02f3 07       		.byte	0x7
 1402 02f4 48       		.byte	0x48
 1403 02f5 91000000 		.4byte	0x91
 1404 02f9 02       		.byte	0x2
 1405 02fa 23       		.byte	0x23
 1406 02fb 00       		.uleb128 0
 1407 02fc 13       		.uleb128 0x13
 1408 02fd 41000000 		.4byte	.LASF46
 1409 0301 07       		.byte	0x7
 1410 0302 4D       		.byte	0x4d
 1411 0303 91000000 		.4byte	0x91
 1412 0307 02       		.byte	0x2
 1413 0308 23       		.byte	0x23
 1414 0309 04       		.uleb128 0x4
 1415 030a 13       		.uleb128 0x13
 1416 030b F8010000 		.4byte	.LASF47
 1417 030f 07       		.byte	0x7
 1418 0310 4F       		.byte	0x4f
 1419 0311 91000000 		.4byte	0x91
 1420 0315 02       		.byte	0x2
 1421 0316 23       		.byte	0x23
 1422 0317 08       		.uleb128 0x8
 1423 0318 13       		.uleb128 0x13
 1424 0319 FF000000 		.4byte	.LASF48
 1425 031d 07       		.byte	0x7
 1426 031e 52       		.byte	0x52
 1427 031f 91000000 		.4byte	0x91
 1428 0323 02       		.byte	0x2
 1429 0324 23       		.byte	0x23
 1430 0325 0C       		.uleb128 0xc
 1431 0326 13       		.uleb128 0x13
 1432 0327 2C060000 		.4byte	.LASF49
 1433 032b 07       		.byte	0x7
 1434 032c 55       		.byte	0x55
 1435 032d 91000000 		.4byte	0x91
 1436 0331 02       		.byte	0x2
 1437 0332 23       		.byte	0x23
 1438 0333 10       		.uleb128 0x10
 1439 0334 00       		.byte	0
ARM GAS  G:\Users\Jaxb\AppData\Local\Temp\ccmT3S8V.s 			page 39


 1440 0335 03       		.uleb128 0x3
 1441 0336 EB040000 		.4byte	.LASF50
 1442 033a 07       		.byte	0x7
 1443 033b 58       		.byte	0x58
 1444 033c E6020000 		.4byte	0x2e6
 1445 0340 12       		.uleb128 0x12
 1446 0341 18       		.byte	0x18
 1447 0342 07       		.byte	0x7
 1448 0343 5A       		.byte	0x5a
 1449 0344 9D030000 		.4byte	0x39d
 1450 0348 13       		.uleb128 0x13
 1451 0349 E7010000 		.4byte	.LASF51
 1452 034d 07       		.byte	0x7
 1453 034e 5C       		.byte	0x5c
 1454 034f 91000000 		.4byte	0x91
 1455 0353 02       		.byte	0x2
 1456 0354 23       		.byte	0x23
 1457 0355 00       		.uleb128 0
 1458 0356 13       		.uleb128 0x13
 1459 0357 F6030000 		.4byte	.LASF52
 1460 035b 07       		.byte	0x7
 1461 035c 5E       		.byte	0x5e
 1462 035d 91000000 		.4byte	0x91
 1463 0361 02       		.byte	0x2
 1464 0362 23       		.byte	0x23
 1465 0363 04       		.uleb128 0x4
 1466 0364 13       		.uleb128 0x13
 1467 0365 B4000000 		.4byte	.LASF53
 1468 0369 07       		.byte	0x7
 1469 036a 60       		.byte	0x60
 1470 036b 91000000 		.4byte	0x91
 1471 036f 02       		.byte	0x2
 1472 0370 23       		.byte	0x23
 1473 0371 08       		.uleb128 0x8
 1474 0372 13       		.uleb128 0x13
 1475 0373 06020000 		.4byte	.LASF54
 1476 0377 07       		.byte	0x7
 1477 0378 63       		.byte	0x63
 1478 0379 91000000 		.4byte	0x91
 1479 037d 02       		.byte	0x2
 1480 037e 23       		.byte	0x23
 1481 037f 0C       		.uleb128 0xc
 1482 0380 13       		.uleb128 0x13
 1483 0381 7A060000 		.4byte	.LASF55
 1484 0385 07       		.byte	0x7
 1485 0386 67       		.byte	0x67
 1486 0387 91000000 		.4byte	0x91
 1487 038b 02       		.byte	0x2
 1488 038c 23       		.byte	0x23
 1489 038d 10       		.uleb128 0x10
 1490 038e 13       		.uleb128 0x13
 1491 038f 38010000 		.4byte	.LASF56
 1492 0393 07       		.byte	0x7
 1493 0394 6A       		.byte	0x6a
 1494 0395 91000000 		.4byte	0x91
 1495 0399 02       		.byte	0x2
 1496 039a 23       		.byte	0x23
ARM GAS  G:\Users\Jaxb\AppData\Local\Temp\ccmT3S8V.s 			page 40


 1497 039b 14       		.uleb128 0x14
 1498 039c 00       		.byte	0
 1499 039d 03       		.uleb128 0x3
 1500 039e 4E050000 		.4byte	.LASF57
 1501 03a2 07       		.byte	0x7
 1502 03a3 6D       		.byte	0x6d
 1503 03a4 40030000 		.4byte	0x340
 1504 03a8 14       		.uleb128 0x14
 1505 03a9 01       		.byte	0x1
 1506 03aa 5B020000 		.4byte	.LASF101
 1507 03ae 01       		.byte	0x1
 1508 03af 0B03     		.2byte	0x30b
 1509 03b1 01       		.byte	0x1
 1510 03b2 C3030000 		.4byte	0x3c3
 1511 03b6 15       		.uleb128 0x15
 1512 03b7 DD020000 		.4byte	.LASF58
 1513 03bb 01       		.byte	0x1
 1514 03bc 0B03     		.2byte	0x30b
 1515 03be 91000000 		.4byte	0x91
 1516 03c2 00       		.byte	0
 1517 03c3 16       		.uleb128 0x16
 1518 03c4 01       		.byte	0x1
 1519 03c5 CE000000 		.4byte	.LASF59
 1520 03c9 01       		.byte	0x1
 1521 03ca E702     		.2byte	0x2e7
 1522 03cc 01       		.byte	0x1
 1523 03cd E8000000 		.4byte	0xe8
 1524 03d1 EE030000 		.4byte	0x3ee
 1525 03d5 15       		.uleb128 0x15
 1526 03d6 DD020000 		.4byte	.LASF58
 1527 03da 01       		.byte	0x1
 1528 03db E702     		.2byte	0x2e7
 1529 03dd 91000000 		.4byte	0x91
 1530 03e1 17       		.uleb128 0x17
 1531 03e2 9E020000 		.4byte	.LASF80
 1532 03e6 01       		.byte	0x1
 1533 03e7 E902     		.2byte	0x2e9
 1534 03e9 E8000000 		.4byte	0xe8
 1535 03ed 00       		.byte	0
 1536 03ee 18       		.uleb128 0x18
 1537 03ef 01       		.byte	0x1
 1538 03f0 63050000 		.4byte	.LASF60
 1539 03f4 01       		.byte	0x1
 1540 03f5 C002     		.2byte	0x2c0
 1541 03f7 01       		.byte	0x1
 1542 03f8 01       		.byte	0x1
 1543 03f9 0A040000 		.4byte	0x40a
 1544 03fd 15       		.uleb128 0x15
 1545 03fe CA030000 		.4byte	.LASF61
 1546 0402 01       		.byte	0x1
 1547 0403 C002     		.2byte	0x2c0
 1548 0405 91000000 		.4byte	0x91
 1549 0409 00       		.byte	0
 1550 040a 19       		.uleb128 0x19
 1551 040b 01       		.byte	0x1
 1552 040c 4B060000 		.4byte	.LASF82
 1553 0410 01       		.byte	0x1
ARM GAS  G:\Users\Jaxb\AppData\Local\Temp\ccmT3S8V.s 			page 41


 1554 0411 9A02     		.2byte	0x29a
 1555 0413 01       		.byte	0x1
 1556 0414 DC000000 		.4byte	0xdc
 1557 0418 F0010000 		.4byte	.LFB55
 1558 041c 04020000 		.4byte	.LFE55
 1559 0420 02       		.byte	0x2
 1560 0421 7D       		.byte	0x7d
 1561 0422 00       		.sleb128 0
 1562 0423 01       		.byte	0x1
 1563 0424 49040000 		.4byte	0x449
 1564 0428 1A       		.uleb128 0x1a
 1565 0429 CA030000 		.4byte	.LASF61
 1566 042d 01       		.byte	0x1
 1567 042e 9A02     		.2byte	0x29a
 1568 0430 91000000 		.4byte	0x91
 1569 0434 00000000 		.4byte	.LLST11
 1570 0438 1B       		.uleb128 0x1b
 1571 0439 9E020000 		.4byte	.LASF80
 1572 043d 01       		.byte	0x1
 1573 043e 9C02     		.2byte	0x29c
 1574 0440 DC000000 		.4byte	0xdc
 1575 0444 21000000 		.4byte	.LLST12
 1576 0448 00       		.byte	0
 1577 0449 1C       		.uleb128 0x1c
 1578 044a 01       		.byte	0x1
 1579 044b E4030000 		.4byte	.LASF63
 1580 044f 01       		.byte	0x1
 1581 0450 7302     		.2byte	0x273
 1582 0452 01       		.byte	0x1
 1583 0453 E4010000 		.4byte	.LFB54
 1584 0457 F0010000 		.4byte	.LFE54
 1585 045b 02       		.byte	0x2
 1586 045c 7D       		.byte	0x7d
 1587 045d 00       		.sleb128 0
 1588 045e 01       		.byte	0x1
 1589 045f 72040000 		.4byte	0x472
 1590 0463 1D       		.uleb128 0x1d
 1591 0464 B5010000 		.4byte	.LASF62
 1592 0468 01       		.byte	0x1
 1593 0469 7302     		.2byte	0x273
 1594 046b 0F010000 		.4byte	0x10f
 1595 046f 01       		.byte	0x1
 1596 0470 50       		.byte	0x50
 1597 0471 00       		.byte	0
 1598 0472 1C       		.uleb128 0x1c
 1599 0473 01       		.byte	0x1
 1600 0474 BA030000 		.4byte	.LASF64
 1601 0478 01       		.byte	0x1
 1602 0479 6602     		.2byte	0x266
 1603 047b 01       		.byte	0x1
 1604 047c D4010000 		.4byte	.LFB53
 1605 0480 E4010000 		.4byte	.LFE53
 1606 0484 02       		.byte	0x2
 1607 0485 7D       		.byte	0x7d
 1608 0486 00       		.sleb128 0
 1609 0487 01       		.byte	0x1
 1610 0488 9D040000 		.4byte	0x49d
ARM GAS  G:\Users\Jaxb\AppData\Local\Temp\ccmT3S8V.s 			page 42


 1611 048c 1A       		.uleb128 0x1a
 1612 048d B5010000 		.4byte	.LASF62
 1613 0491 01       		.byte	0x1
 1614 0492 6602     		.2byte	0x266
 1615 0494 0F010000 		.4byte	0x10f
 1616 0498 5A000000 		.4byte	.LLST10
 1617 049c 00       		.byte	0
 1618 049d 1C       		.uleb128 0x1c
 1619 049e 01       		.byte	0x1
 1620 049f D1040000 		.4byte	.LASF65
 1621 04a3 01       		.byte	0x1
 1622 04a4 5902     		.2byte	0x259
 1623 04a6 01       		.byte	0x1
 1624 04a7 C8010000 		.4byte	.LFB52
 1625 04ab D4010000 		.4byte	.LFE52
 1626 04af 02       		.byte	0x2
 1627 04b0 7D       		.byte	0x7d
 1628 04b1 00       		.sleb128 0
 1629 04b2 01       		.byte	0x1
 1630 04b3 C6040000 		.4byte	0x4c6
 1631 04b7 1D       		.uleb128 0x1d
 1632 04b8 B5010000 		.4byte	.LASF62
 1633 04bc 01       		.byte	0x1
 1634 04bd 5902     		.2byte	0x259
 1635 04bf 0F010000 		.4byte	0x10f
 1636 04c3 01       		.byte	0x1
 1637 04c4 50       		.byte	0x50
 1638 04c5 00       		.byte	0
 1639 04c6 1C       		.uleb128 0x1c
 1640 04c7 01       		.byte	0x1
 1641 04c8 78000000 		.4byte	.LASF66
 1642 04cc 01       		.byte	0x1
 1643 04cd 4B02     		.2byte	0x24b
 1644 04cf 01       		.byte	0x1
 1645 04d0 BC010000 		.4byte	.LFB51
 1646 04d4 C8010000 		.4byte	.LFE51
 1647 04d8 02       		.byte	0x2
 1648 04d9 7D       		.byte	0x7d
 1649 04da 00       		.sleb128 0
 1650 04db 01       		.byte	0x1
 1651 04dc EF040000 		.4byte	0x4ef
 1652 04e0 1D       		.uleb128 0x1d
 1653 04e1 B5010000 		.4byte	.LASF62
 1654 04e5 01       		.byte	0x1
 1655 04e6 4B02     		.2byte	0x24b
 1656 04e8 0F010000 		.4byte	0x10f
 1657 04ec 01       		.byte	0x1
 1658 04ed 50       		.byte	0x50
 1659 04ee 00       		.byte	0
 1660 04ef 1C       		.uleb128 0x1c
 1661 04f0 01       		.byte	0x1
 1662 04f1 9E000000 		.4byte	.LASF67
 1663 04f5 01       		.byte	0x1
 1664 04f6 3D02     		.2byte	0x23d
 1665 04f8 01       		.byte	0x1
 1666 04f9 B0010000 		.4byte	.LFB50
 1667 04fd BC010000 		.4byte	.LFE50
ARM GAS  G:\Users\Jaxb\AppData\Local\Temp\ccmT3S8V.s 			page 43


 1668 0501 02       		.byte	0x2
 1669 0502 7D       		.byte	0x7d
 1670 0503 00       		.sleb128 0
 1671 0504 01       		.byte	0x1
 1672 0505 18050000 		.4byte	0x518
 1673 0509 1D       		.uleb128 0x1d
 1674 050a B5010000 		.4byte	.LASF62
 1675 050e 01       		.byte	0x1
 1676 050f 3D02     		.2byte	0x23d
 1677 0511 0F010000 		.4byte	0x10f
 1678 0515 01       		.byte	0x1
 1679 0516 50       		.byte	0x50
 1680 0517 00       		.byte	0
 1681 0518 1C       		.uleb128 0x1c
 1682 0519 01       		.byte	0x1
 1683 051a 09010000 		.4byte	.LASF68
 1684 051e 01       		.byte	0x1
 1685 051f 2F02     		.2byte	0x22f
 1686 0521 01       		.byte	0x1
 1687 0522 A4010000 		.4byte	.LFB49
 1688 0526 B0010000 		.4byte	.LFE49
 1689 052a 02       		.byte	0x2
 1690 052b 7D       		.byte	0x7d
 1691 052c 00       		.sleb128 0
 1692 052d 01       		.byte	0x1
 1693 052e 41050000 		.4byte	0x541
 1694 0532 1D       		.uleb128 0x1d
 1695 0533 ED000000 		.4byte	.LASF69
 1696 0537 01       		.byte	0x1
 1697 0538 2F02     		.2byte	0x22f
 1698 053a 91000000 		.4byte	0x91
 1699 053e 01       		.byte	0x1
 1700 053f 50       		.byte	0x50
 1701 0540 00       		.byte	0
 1702 0541 1C       		.uleb128 0x1c
 1703 0542 01       		.byte	0x1
 1704 0543 22010000 		.4byte	.LASF70
 1705 0547 01       		.byte	0x1
 1706 0548 1F02     		.2byte	0x21f
 1707 054a 01       		.byte	0x1
 1708 054b 98010000 		.4byte	.LFB48
 1709 054f A4010000 		.4byte	.LFE48
 1710 0553 02       		.byte	0x2
 1711 0554 7D       		.byte	0x7d
 1712 0555 00       		.sleb128 0
 1713 0556 01       		.byte	0x1
 1714 0557 6A050000 		.4byte	0x56a
 1715 055b 1D       		.uleb128 0x1d
 1716 055c B5010000 		.4byte	.LASF62
 1717 0560 01       		.byte	0x1
 1718 0561 1F02     		.2byte	0x21f
 1719 0563 0F010000 		.4byte	0x10f
 1720 0567 01       		.byte	0x1
 1721 0568 50       		.byte	0x50
 1722 0569 00       		.byte	0
 1723 056a 1C       		.uleb128 0x1c
 1724 056b 01       		.byte	0x1
ARM GAS  G:\Users\Jaxb\AppData\Local\Temp\ccmT3S8V.s 			page 44


 1725 056c 27020000 		.4byte	.LASF71
 1726 0570 01       		.byte	0x1
 1727 0571 1102     		.2byte	0x211
 1728 0573 01       		.byte	0x1
 1729 0574 8C010000 		.4byte	.LFB47
 1730 0578 98010000 		.4byte	.LFE47
 1731 057c 02       		.byte	0x2
 1732 057d 7D       		.byte	0x7d
 1733 057e 00       		.sleb128 0
 1734 057f 01       		.byte	0x1
 1735 0580 93050000 		.4byte	0x593
 1736 0584 1D       		.uleb128 0x1d
 1737 0585 B5010000 		.4byte	.LASF62
 1738 0589 01       		.byte	0x1
 1739 058a 1102     		.2byte	0x211
 1740 058c 0F010000 		.4byte	0x10f
 1741 0590 01       		.byte	0x1
 1742 0591 50       		.byte	0x50
 1743 0592 00       		.byte	0
 1744 0593 1E       		.uleb128 0x1e
 1745 0594 01       		.byte	0x1
 1746 0595 72010000 		.4byte	.LASF74
 1747 0599 01       		.byte	0x1
 1748 059a 0602     		.2byte	0x206
 1749 059c 01       		.byte	0x1
 1750 059d 91000000 		.4byte	0x91
 1751 05a1 80010000 		.4byte	.LFB46
 1752 05a5 8C010000 		.4byte	.LFE46
 1753 05a9 02       		.byte	0x2
 1754 05aa 7D       		.byte	0x7d
 1755 05ab 00       		.sleb128 0
 1756 05ac 01       		.byte	0x1
 1757 05ad 1C       		.uleb128 0x1c
 1758 05ae 01       		.byte	0x1
 1759 05af 05050000 		.4byte	.LASF72
 1760 05b3 01       		.byte	0x1
 1761 05b4 FC01     		.2byte	0x1fc
 1762 05b6 01       		.byte	0x1
 1763 05b7 74010000 		.4byte	.LFB45
 1764 05bb 80010000 		.4byte	.LFE45
 1765 05bf 02       		.byte	0x2
 1766 05c0 7D       		.byte	0x7d
 1767 05c1 00       		.sleb128 0
 1768 05c2 01       		.byte	0x1
 1769 05c3 D6050000 		.4byte	0x5d6
 1770 05c7 1D       		.uleb128 0x1d
 1771 05c8 A8020000 		.4byte	.LASF73
 1772 05cc 01       		.byte	0x1
 1773 05cd FC01     		.2byte	0x1fc
 1774 05cf 91000000 		.4byte	0x91
 1775 05d3 01       		.byte	0x1
 1776 05d4 50       		.byte	0x50
 1777 05d5 00       		.byte	0
 1778 05d6 1E       		.uleb128 0x1e
 1779 05d7 01       		.byte	0x1
 1780 05d8 14050000 		.4byte	.LASF75
 1781 05dc 01       		.byte	0x1
ARM GAS  G:\Users\Jaxb\AppData\Local\Temp\ccmT3S8V.s 			page 45


 1782 05dd F201     		.2byte	0x1f2
 1783 05df 01       		.byte	0x1
 1784 05e0 91000000 		.4byte	0x91
 1785 05e4 68010000 		.4byte	.LFB44
 1786 05e8 74010000 		.4byte	.LFE44
 1787 05ec 02       		.byte	0x2
 1788 05ed 7D       		.byte	0x7d
 1789 05ee 00       		.sleb128 0
 1790 05ef 01       		.byte	0x1
 1791 05f0 1E       		.uleb128 0x1e
 1792 05f1 01       		.byte	0x1
 1793 05f2 3E020000 		.4byte	.LASF76
 1794 05f6 01       		.byte	0x1
 1795 05f7 E801     		.2byte	0x1e8
 1796 05f9 01       		.byte	0x1
 1797 05fa 91000000 		.4byte	0x91
 1798 05fe 5C010000 		.4byte	.LFB43
 1799 0602 68010000 		.4byte	.LFE43
 1800 0606 02       		.byte	0x2
 1801 0607 7D       		.byte	0x7d
 1802 0608 00       		.sleb128 0
 1803 0609 01       		.byte	0x1
 1804 060a 1C       		.uleb128 0x1c
 1805 060b 01       		.byte	0x1
 1806 060c 33030000 		.4byte	.LASF77
 1807 0610 01       		.byte	0x1
 1808 0611 D801     		.2byte	0x1d8
 1809 0613 01       		.byte	0x1
 1810 0614 48010000 		.4byte	.LFB42
 1811 0618 5C010000 		.4byte	.LFE42
 1812 061c 02       		.byte	0x2
 1813 061d 7D       		.byte	0x7d
 1814 061e 00       		.sleb128 0
 1815 061f 01       		.byte	0x1
 1816 0620 33060000 		.4byte	0x633
 1817 0624 1D       		.uleb128 0x1d
 1818 0625 F3020000 		.4byte	.LASF78
 1819 0629 01       		.byte	0x1
 1820 062a D801     		.2byte	0x1d8
 1821 062c 33060000 		.4byte	0x633
 1822 0630 01       		.byte	0x1
 1823 0631 50       		.byte	0x50
 1824 0632 00       		.byte	0
 1825 0633 1F       		.uleb128 0x1f
 1826 0634 04       		.byte	0x4
 1827 0635 9D030000 		.4byte	0x39d
 1828 0639 20       		.uleb128 0x20
 1829 063a 01       		.byte	0x1
 1830 063b CD020000 		.4byte	.LASF79
 1831 063f 01       		.byte	0x1
 1832 0640 AF01     		.2byte	0x1af
 1833 0642 01       		.byte	0x1
 1834 0643 1C010000 		.4byte	.LFB41
 1835 0647 48010000 		.4byte	.LFE41
 1836 064b 7B000000 		.4byte	.LLST8
 1837 064f 01       		.byte	0x1
 1838 0650 73060000 		.4byte	0x673
ARM GAS  G:\Users\Jaxb\AppData\Local\Temp\ccmT3S8V.s 			page 46


 1839 0654 1D       		.uleb128 0x1d
 1840 0655 F3020000 		.4byte	.LASF78
 1841 0659 01       		.byte	0x1
 1842 065a AF01     		.2byte	0x1af
 1843 065c 33060000 		.4byte	0x633
 1844 0660 01       		.byte	0x1
 1845 0661 50       		.byte	0x50
 1846 0662 1B       		.uleb128 0x1b
 1847 0663 C6020000 		.4byte	.LASF81
 1848 0667 01       		.byte	0x1
 1849 0668 B101     		.2byte	0x1b1
 1850 066a 91000000 		.4byte	0x91
 1851 066e A7000000 		.4byte	.LLST9
 1852 0672 00       		.byte	0
 1853 0673 21       		.uleb128 0x21
 1854 0674 01       		.byte	0x1
 1855 0675 66030000 		.4byte	.LASF83
 1856 0679 01       		.byte	0x1
 1857 067a 9C01     		.2byte	0x19c
 1858 067c 01       		.byte	0x1
 1859 067d 91000000 		.4byte	0x91
 1860 0681 04010000 		.4byte	.LFB40
 1861 0685 1C010000 		.4byte	.LFE40
 1862 0689 E2000000 		.4byte	.LLST6
 1863 068d 01       		.byte	0x1
 1864 068e B2060000 		.4byte	0x6b2
 1865 0692 1A       		.uleb128 0x1a
 1866 0693 6E000000 		.4byte	.LASF84
 1867 0697 01       		.byte	0x1
 1868 0698 9C01     		.2byte	0x19c
 1869 069a 91000000 		.4byte	0x91
 1870 069e 0E010000 		.4byte	.LLST7
 1871 06a2 22       		.uleb128 0x22
 1872 06a3 746D7000 		.ascii	"tmp\000"
 1873 06a7 01       		.byte	0x1
 1874 06a8 9E01     		.2byte	0x19e
 1875 06aa 9C000000 		.4byte	0x9c
 1876 06ae 02       		.byte	0x2
 1877 06af 91       		.byte	0x91
 1878 06b0 7C       		.sleb128 -4
 1879 06b1 00       		.byte	0
 1880 06b2 1E       		.uleb128 0x1e
 1881 06b3 01       		.byte	0x1
 1882 06b4 77030000 		.4byte	.LASF85
 1883 06b8 01       		.byte	0x1
 1884 06b9 8D01     		.2byte	0x18d
 1885 06bb 01       		.byte	0x1
 1886 06bc 86000000 		.4byte	0x86
 1887 06c0 F8000000 		.4byte	.LFB39
 1888 06c4 04010000 		.4byte	.LFE39
 1889 06c8 02       		.byte	0x2
 1890 06c9 7D       		.byte	0x7d
 1891 06ca 00       		.sleb128 0
 1892 06cb 01       		.byte	0x1
 1893 06cc 1C       		.uleb128 0x1c
 1894 06cd 01       		.byte	0x1
 1895 06ce BE040000 		.4byte	.LASF86
ARM GAS  G:\Users\Jaxb\AppData\Local\Temp\ccmT3S8V.s 			page 47


 1896 06d2 01       		.byte	0x1
 1897 06d3 7E01     		.2byte	0x17e
 1898 06d5 01       		.byte	0x1
 1899 06d6 E8000000 		.4byte	.LFB38
 1900 06da F6000000 		.4byte	.LFE38
 1901 06de 02       		.byte	0x2
 1902 06df 7D       		.byte	0x7d
 1903 06e0 00       		.sleb128 0
 1904 06e1 01       		.byte	0x1
 1905 06e2 F5060000 		.4byte	0x6f5
 1906 06e6 1D       		.uleb128 0x1d
 1907 06e7 3F040000 		.4byte	.LASF87
 1908 06eb 01       		.byte	0x1
 1909 06ec 7E01     		.2byte	0x17e
 1910 06ee F5060000 		.4byte	0x6f5
 1911 06f2 01       		.byte	0x1
 1912 06f3 50       		.byte	0x50
 1913 06f4 00       		.byte	0
 1914 06f5 1F       		.uleb128 0x1f
 1915 06f6 04       		.byte	0x4
 1916 06f7 35030000 		.4byte	0x335
 1917 06fb 20       		.uleb128 0x20
 1918 06fc 01       		.byte	0x1
 1919 06fd 4F000000 		.4byte	.LASF88
 1920 0701 01       		.byte	0x1
 1921 0702 5A01     		.2byte	0x15a
 1922 0704 01       		.byte	0x1
 1923 0705 BC000000 		.4byte	.LFB37
 1924 0709 E8000000 		.4byte	.LFE37
 1925 070d 2F010000 		.4byte	.LLST4
 1926 0711 01       		.byte	0x1
 1927 0712 35070000 		.4byte	0x735
 1928 0716 1D       		.uleb128 0x1d
 1929 0717 3F040000 		.4byte	.LASF87
 1930 071b 01       		.byte	0x1
 1931 071c 5A01     		.2byte	0x15a
 1932 071e F5060000 		.4byte	0x6f5
 1933 0722 01       		.byte	0x1
 1934 0723 50       		.byte	0x50
 1935 0724 1B       		.uleb128 0x1b
 1936 0725 C6020000 		.4byte	.LASF81
 1937 0729 01       		.byte	0x1
 1938 072a 5C01     		.2byte	0x15c
 1939 072c 91000000 		.4byte	0x91
 1940 0730 5B010000 		.4byte	.LLST5
 1941 0734 00       		.byte	0
 1942 0735 1C       		.uleb128 0x1c
 1943 0736 01       		.byte	0x1
 1944 0737 72020000 		.4byte	.LASF89
 1945 073b 01       		.byte	0x1
 1946 073c 4B01     		.2byte	0x14b
 1947 073e 01       		.byte	0x1
 1948 073f B0000000 		.4byte	.LFB36
 1949 0743 BC000000 		.4byte	.LFE36
 1950 0747 02       		.byte	0x2
 1951 0748 7D       		.byte	0x7d
 1952 0749 00       		.sleb128 0
ARM GAS  G:\Users\Jaxb\AppData\Local\Temp\ccmT3S8V.s 			page 48


 1953 074a 01       		.byte	0x1
 1954 074b 5E070000 		.4byte	0x75e
 1955 074f 1D       		.uleb128 0x1d
 1956 0750 B5010000 		.4byte	.LASF62
 1957 0754 01       		.byte	0x1
 1958 0755 4B01     		.2byte	0x14b
 1959 0757 0F010000 		.4byte	0x10f
 1960 075b 01       		.byte	0x1
 1961 075c 50       		.byte	0x50
 1962 075d 00       		.byte	0
 1963 075e 1C       		.uleb128 0x1c
 1964 075f 01       		.byte	0x1
 1965 0760 60000000 		.4byte	.LASF90
 1966 0764 01       		.byte	0x1
 1967 0765 3301     		.2byte	0x133
 1968 0767 01       		.byte	0x1
 1969 0768 98000000 		.4byte	.LFB35
 1970 076c B0000000 		.4byte	.LFE35
 1971 0770 02       		.byte	0x2
 1972 0771 7D       		.byte	0x7d
 1973 0772 00       		.sleb128 0
 1974 0773 01       		.byte	0x1
 1975 0774 97070000 		.4byte	0x797
 1976 0778 1A       		.uleb128 0x1a
 1977 0779 DD020000 		.4byte	.LASF58
 1978 077d 01       		.byte	0x1
 1979 077e 3301     		.2byte	0x133
 1980 0780 91000000 		.4byte	0x91
 1981 0784 8B010000 		.4byte	.LLST3
 1982 0788 1D       		.uleb128 0x1d
 1983 0789 B5010000 		.4byte	.LASF62
 1984 078d 01       		.byte	0x1
 1985 078e 3301     		.2byte	0x133
 1986 0790 0F010000 		.4byte	0x10f
 1987 0794 01       		.byte	0x1
 1988 0795 51       		.byte	0x51
 1989 0796 00       		.byte	0
 1990 0797 1E       		.uleb128 0x1e
 1991 0798 01       		.byte	0x1
 1992 0799 D4010000 		.4byte	.LASF91
 1993 079d 01       		.byte	0x1
 1994 079e 0D01     		.2byte	0x10d
 1995 07a0 01       		.byte	0x1
 1996 07a1 91000000 		.4byte	0x91
 1997 07a5 88000000 		.4byte	.LFB34
 1998 07a9 98000000 		.4byte	.LFE34
 1999 07ad 02       		.byte	0x2
 2000 07ae 7D       		.byte	0x7d
 2001 07af 00       		.sleb128 0
 2002 07b0 01       		.byte	0x1
 2003 07b1 23       		.uleb128 0x23
 2004 07b2 01       		.byte	0x1
 2005 07b3 2C040000 		.4byte	.LASF92
 2006 07b7 01       		.byte	0x1
 2007 07b8 FB       		.byte	0xfb
 2008 07b9 01       		.byte	0x1
 2009 07ba 70000000 		.4byte	.LFB33
ARM GAS  G:\Users\Jaxb\AppData\Local\Temp\ccmT3S8V.s 			page 49


 2010 07be 88000000 		.4byte	.LFE33
 2011 07c2 02       		.byte	0x2
 2012 07c3 7D       		.byte	0x7d
 2013 07c4 00       		.sleb128 0
 2014 07c5 01       		.byte	0x1
 2015 07c6 DA070000 		.4byte	0x7da
 2016 07ca 24       		.uleb128 0x24
 2017 07cb 7E020000 		.4byte	.LASF93
 2018 07cf 01       		.byte	0x1
 2019 07d0 FB       		.byte	0xfb
 2020 07d1 91000000 		.4byte	0x91
 2021 07d5 C5010000 		.4byte	.LLST2
 2022 07d9 00       		.byte	0
 2023 07da 23       		.uleb128 0x23
 2024 07db 01       		.byte	0x1
 2025 07dc 9D010000 		.4byte	.LASF94
 2026 07e0 01       		.byte	0x1
 2027 07e1 EB       		.byte	0xeb
 2028 07e2 01       		.byte	0x1
 2029 07e3 64000000 		.4byte	.LFB32
 2030 07e7 70000000 		.4byte	.LFE32
 2031 07eb 02       		.byte	0x2
 2032 07ec 7D       		.byte	0x7d
 2033 07ed 00       		.sleb128 0
 2034 07ee 01       		.byte	0x1
 2035 07ef 01080000 		.4byte	0x801
 2036 07f3 25       		.uleb128 0x25
 2037 07f4 B5010000 		.4byte	.LASF62
 2038 07f8 01       		.byte	0x1
 2039 07f9 EB       		.byte	0xeb
 2040 07fa 0F010000 		.4byte	0x10f
 2041 07fe 01       		.byte	0x1
 2042 07ff 50       		.byte	0x50
 2043 0800 00       		.byte	0
 2044 0801 23       		.uleb128 0x23
 2045 0802 01       		.byte	0x1
 2046 0803 8E020000 		.4byte	.LASF95
 2047 0807 01       		.byte	0x1
 2048 0808 DB       		.byte	0xdb
 2049 0809 01       		.byte	0x1
 2050 080a 54000000 		.4byte	.LFB31
 2051 080e 64000000 		.4byte	.LFE31
 2052 0812 02       		.byte	0x2
 2053 0813 7D       		.byte	0x7d
 2054 0814 00       		.sleb128 0
 2055 0815 01       		.byte	0x1
 2056 0816 28080000 		.4byte	0x828
 2057 081a 25       		.uleb128 0x25
 2058 081b 17020000 		.4byte	.LASF96
 2059 081f 01       		.byte	0x1
 2060 0820 DB       		.byte	0xdb
 2061 0821 28080000 		.4byte	0x828
 2062 0825 01       		.byte	0x1
 2063 0826 50       		.byte	0x50
 2064 0827 00       		.byte	0
 2065 0828 1F       		.uleb128 0x1f
 2066 0829 04       		.byte	0x4
ARM GAS  G:\Users\Jaxb\AppData\Local\Temp\ccmT3S8V.s 			page 50


 2067 082a DB020000 		.4byte	0x2db
 2068 082e 26       		.uleb128 0x26
 2069 082f 01       		.byte	0x1
 2070 0830 AB010000 		.4byte	.LASF97
 2071 0834 01       		.byte	0x1
 2072 0835 B5       		.byte	0xb5
 2073 0836 01       		.byte	0x1
 2074 0837 24000000 		.4byte	.LFB30
 2075 083b 54000000 		.4byte	.LFE30
 2076 083f E6010000 		.4byte	.LLST0
 2077 0843 01       		.byte	0x1
 2078 0844 65080000 		.4byte	0x865
 2079 0848 25       		.uleb128 0x25
 2080 0849 17020000 		.4byte	.LASF96
 2081 084d 01       		.byte	0x1
 2082 084e B5       		.byte	0xb5
 2083 084f 28080000 		.4byte	0x828
 2084 0853 01       		.byte	0x1
 2085 0854 50       		.byte	0x50
 2086 0855 27       		.uleb128 0x27
 2087 0856 C6020000 		.4byte	.LASF81
 2088 085a 01       		.byte	0x1
 2089 085b B7       		.byte	0xb7
 2090 085c 91000000 		.4byte	0x91
 2091 0860 12020000 		.4byte	.LLST1
 2092 0864 00       		.byte	0
 2093 0865 28       		.uleb128 0x28
 2094 0866 01       		.byte	0x1
 2095 0867 72050000 		.4byte	.LASF102
 2096 086b 01       		.byte	0x1
 2097 086c A1       		.byte	0xa1
 2098 086d 01       		.byte	0x1
 2099 086e 00000000 		.4byte	.LFB29
 2100 0872 24000000 		.4byte	.LFE29
 2101 0876 02       		.byte	0x2
 2102 0877 7D       		.byte	0x7d
 2103 0878 00       		.sleb128 0
 2104 0879 01       		.byte	0x1
 2105 087a 29       		.uleb128 0x29
 2106 087b EE030000 		.4byte	0x3ee
 2107 087f 04020000 		.4byte	.LFB56
 2108 0883 10020000 		.4byte	.LFE56
 2109 0887 02       		.byte	0x2
 2110 0888 7D       		.byte	0x7d
 2111 0889 00       		.sleb128 0
 2112 088a 01       		.byte	0x1
 2113 088b 2A       		.uleb128 0x2a
 2114 088c FD030000 		.4byte	0x3fd
 2115 0890 01       		.byte	0x1
 2116 0891 50       		.byte	0x50
 2117 0892 00       		.byte	0
 2118 0893 00       		.byte	0
 2119              		.section	.debug_abbrev,"",%progbits
 2120              	.Ldebug_abbrev0:
 2121 0000 01       		.uleb128 0x1
 2122 0001 11       		.uleb128 0x11
 2123 0002 01       		.byte	0x1
ARM GAS  G:\Users\Jaxb\AppData\Local\Temp\ccmT3S8V.s 			page 51


 2124 0003 25       		.uleb128 0x25
 2125 0004 0E       		.uleb128 0xe
 2126 0005 13       		.uleb128 0x13
 2127 0006 0B       		.uleb128 0xb
 2128 0007 03       		.uleb128 0x3
 2129 0008 0E       		.uleb128 0xe
 2130 0009 1B       		.uleb128 0x1b
 2131 000a 0E       		.uleb128 0xe
 2132 000b 11       		.uleb128 0x11
 2133 000c 01       		.uleb128 0x1
 2134 000d 12       		.uleb128 0x12
 2135 000e 01       		.uleb128 0x1
 2136 000f 10       		.uleb128 0x10
 2137 0010 06       		.uleb128 0x6
 2138 0011 00       		.byte	0
 2139 0012 00       		.byte	0
 2140 0013 02       		.uleb128 0x2
 2141 0014 24       		.uleb128 0x24
 2142 0015 00       		.byte	0
 2143 0016 0B       		.uleb128 0xb
 2144 0017 0B       		.uleb128 0xb
 2145 0018 3E       		.uleb128 0x3e
 2146 0019 0B       		.uleb128 0xb
 2147 001a 03       		.uleb128 0x3
 2148 001b 0E       		.uleb128 0xe
 2149 001c 00       		.byte	0
 2150 001d 00       		.byte	0
 2151 001e 03       		.uleb128 0x3
 2152 001f 16       		.uleb128 0x16
 2153 0020 00       		.byte	0
 2154 0021 03       		.uleb128 0x3
 2155 0022 0E       		.uleb128 0xe
 2156 0023 3A       		.uleb128 0x3a
 2157 0024 0B       		.uleb128 0xb
 2158 0025 3B       		.uleb128 0x3b
 2159 0026 0B       		.uleb128 0xb
 2160 0027 49       		.uleb128 0x49
 2161 0028 13       		.uleb128 0x13
 2162 0029 00       		.byte	0
 2163 002a 00       		.byte	0
 2164 002b 04       		.uleb128 0x4
 2165 002c 24       		.uleb128 0x24
 2166 002d 00       		.byte	0
 2167 002e 0B       		.uleb128 0xb
 2168 002f 0B       		.uleb128 0xb
 2169 0030 3E       		.uleb128 0x3e
 2170 0031 0B       		.uleb128 0xb
 2171 0032 03       		.uleb128 0x3
 2172 0033 08       		.uleb128 0x8
 2173 0034 00       		.byte	0
 2174 0035 00       		.byte	0
 2175 0036 05       		.uleb128 0x5
 2176 0037 35       		.uleb128 0x35
 2177 0038 00       		.byte	0
 2178 0039 49       		.uleb128 0x49
 2179 003a 13       		.uleb128 0x13
 2180 003b 00       		.byte	0
ARM GAS  G:\Users\Jaxb\AppData\Local\Temp\ccmT3S8V.s 			page 52


 2181 003c 00       		.byte	0
 2182 003d 06       		.uleb128 0x6
 2183 003e 26       		.uleb128 0x26
 2184 003f 00       		.byte	0
 2185 0040 49       		.uleb128 0x49
 2186 0041 13       		.uleb128 0x13
 2187 0042 00       		.byte	0
 2188 0043 00       		.byte	0
 2189 0044 07       		.uleb128 0x7
 2190 0045 34       		.uleb128 0x34
 2191 0046 00       		.byte	0
 2192 0047 03       		.uleb128 0x3
 2193 0048 0E       		.uleb128 0xe
 2194 0049 3A       		.uleb128 0x3a
 2195 004a 0B       		.uleb128 0xb
 2196 004b 3B       		.uleb128 0x3b
 2197 004c 05       		.uleb128 0x5
 2198 004d 49       		.uleb128 0x49
 2199 004e 13       		.uleb128 0x13
 2200 004f 3F       		.uleb128 0x3f
 2201 0050 0C       		.uleb128 0xc
 2202 0051 3C       		.uleb128 0x3c
 2203 0052 0C       		.uleb128 0xc
 2204 0053 00       		.byte	0
 2205 0054 00       		.byte	0
 2206 0055 08       		.uleb128 0x8
 2207 0056 34       		.uleb128 0x34
 2208 0057 00       		.byte	0
 2209 0058 03       		.uleb128 0x3
 2210 0059 0E       		.uleb128 0xe
 2211 005a 3A       		.uleb128 0x3a
 2212 005b 0B       		.uleb128 0xb
 2213 005c 3B       		.uleb128 0x3b
 2214 005d 0B       		.uleb128 0xb
 2215 005e 49       		.uleb128 0x49
 2216 005f 13       		.uleb128 0x13
 2217 0060 3F       		.uleb128 0x3f
 2218 0061 0C       		.uleb128 0xc
 2219 0062 3C       		.uleb128 0x3c
 2220 0063 0C       		.uleb128 0xc
 2221 0064 00       		.byte	0
 2222 0065 00       		.byte	0
 2223 0066 09       		.uleb128 0x9
 2224 0067 04       		.uleb128 0x4
 2225 0068 01       		.byte	0x1
 2226 0069 3E       		.uleb128 0x3e
 2227 006a 0B       		.uleb128 0xb
 2228 006b 0B       		.uleb128 0xb
 2229 006c 0B       		.uleb128 0xb
 2230 006d 49       		.uleb128 0x49
 2231 006e 13       		.uleb128 0x13
 2232 006f 3A       		.uleb128 0x3a
 2233 0070 0B       		.uleb128 0xb
 2234 0071 3B       		.uleb128 0x3b
 2235 0072 05       		.uleb128 0x5
 2236 0073 01       		.uleb128 0x1
 2237 0074 13       		.uleb128 0x13
ARM GAS  G:\Users\Jaxb\AppData\Local\Temp\ccmT3S8V.s 			page 53


 2238 0075 00       		.byte	0
 2239 0076 00       		.byte	0
 2240 0077 0A       		.uleb128 0xa
 2241 0078 28       		.uleb128 0x28
 2242 0079 00       		.byte	0
 2243 007a 03       		.uleb128 0x3
 2244 007b 0E       		.uleb128 0xe
 2245 007c 1C       		.uleb128 0x1c
 2246 007d 0B       		.uleb128 0xb
 2247 007e 00       		.byte	0
 2248 007f 00       		.byte	0
 2249 0080 0B       		.uleb128 0xb
 2250 0081 28       		.uleb128 0x28
 2251 0082 00       		.byte	0
 2252 0083 03       		.uleb128 0x3
 2253 0084 08       		.uleb128 0x8
 2254 0085 1C       		.uleb128 0x1c
 2255 0086 0B       		.uleb128 0xb
 2256 0087 00       		.byte	0
 2257 0088 00       		.byte	0
 2258 0089 0C       		.uleb128 0xc
 2259 008a 16       		.uleb128 0x16
 2260 008b 00       		.byte	0
 2261 008c 03       		.uleb128 0x3
 2262 008d 0E       		.uleb128 0xe
 2263 008e 3A       		.uleb128 0x3a
 2264 008f 0B       		.uleb128 0xb
 2265 0090 3B       		.uleb128 0x3b
 2266 0091 05       		.uleb128 0x5
 2267 0092 49       		.uleb128 0x49
 2268 0093 13       		.uleb128 0x13
 2269 0094 00       		.byte	0
 2270 0095 00       		.byte	0
 2271 0096 0D       		.uleb128 0xd
 2272 0097 01       		.uleb128 0x1
 2273 0098 01       		.byte	0x1
 2274 0099 49       		.uleb128 0x49
 2275 009a 13       		.uleb128 0x13
 2276 009b 01       		.uleb128 0x1
 2277 009c 13       		.uleb128 0x13
 2278 009d 00       		.byte	0
 2279 009e 00       		.byte	0
 2280 009f 0E       		.uleb128 0xe
 2281 00a0 21       		.uleb128 0x21
 2282 00a1 00       		.byte	0
 2283 00a2 49       		.uleb128 0x49
 2284 00a3 13       		.uleb128 0x13
 2285 00a4 2F       		.uleb128 0x2f
 2286 00a5 0B       		.uleb128 0xb
 2287 00a6 00       		.byte	0
 2288 00a7 00       		.byte	0
 2289 00a8 0F       		.uleb128 0xf
 2290 00a9 13       		.uleb128 0x13
 2291 00aa 01       		.byte	0x1
 2292 00ab 0B       		.uleb128 0xb
 2293 00ac 0B       		.uleb128 0xb
 2294 00ad 3A       		.uleb128 0x3a
ARM GAS  G:\Users\Jaxb\AppData\Local\Temp\ccmT3S8V.s 			page 54


 2295 00ae 0B       		.uleb128 0xb
 2296 00af 3B       		.uleb128 0x3b
 2297 00b0 05       		.uleb128 0x5
 2298 00b1 01       		.uleb128 0x1
 2299 00b2 13       		.uleb128 0x13
 2300 00b3 00       		.byte	0
 2301 00b4 00       		.byte	0
 2302 00b5 10       		.uleb128 0x10
 2303 00b6 0D       		.uleb128 0xd
 2304 00b7 00       		.byte	0
 2305 00b8 03       		.uleb128 0x3
 2306 00b9 0E       		.uleb128 0xe
 2307 00ba 3A       		.uleb128 0x3a
 2308 00bb 0B       		.uleb128 0xb
 2309 00bc 3B       		.uleb128 0x3b
 2310 00bd 05       		.uleb128 0x5
 2311 00be 49       		.uleb128 0x49
 2312 00bf 13       		.uleb128 0x13
 2313 00c0 38       		.uleb128 0x38
 2314 00c1 0A       		.uleb128 0xa
 2315 00c2 00       		.byte	0
 2316 00c3 00       		.byte	0
 2317 00c4 11       		.uleb128 0x11
 2318 00c5 0D       		.uleb128 0xd
 2319 00c6 00       		.byte	0
 2320 00c7 03       		.uleb128 0x3
 2321 00c8 08       		.uleb128 0x8
 2322 00c9 3A       		.uleb128 0x3a
 2323 00ca 0B       		.uleb128 0xb
 2324 00cb 3B       		.uleb128 0x3b
 2325 00cc 05       		.uleb128 0x5
 2326 00cd 49       		.uleb128 0x49
 2327 00ce 13       		.uleb128 0x13
 2328 00cf 38       		.uleb128 0x38
 2329 00d0 0A       		.uleb128 0xa
 2330 00d1 00       		.byte	0
 2331 00d2 00       		.byte	0
 2332 00d3 12       		.uleb128 0x12
 2333 00d4 13       		.uleb128 0x13
 2334 00d5 01       		.byte	0x1
 2335 00d6 0B       		.uleb128 0xb
 2336 00d7 0B       		.uleb128 0xb
 2337 00d8 3A       		.uleb128 0x3a
 2338 00d9 0B       		.uleb128 0xb
 2339 00da 3B       		.uleb128 0x3b
 2340 00db 0B       		.uleb128 0xb
 2341 00dc 01       		.uleb128 0x1
 2342 00dd 13       		.uleb128 0x13
 2343 00de 00       		.byte	0
 2344 00df 00       		.byte	0
 2345 00e0 13       		.uleb128 0x13
 2346 00e1 0D       		.uleb128 0xd
 2347 00e2 00       		.byte	0
 2348 00e3 03       		.uleb128 0x3
 2349 00e4 0E       		.uleb128 0xe
 2350 00e5 3A       		.uleb128 0x3a
 2351 00e6 0B       		.uleb128 0xb
ARM GAS  G:\Users\Jaxb\AppData\Local\Temp\ccmT3S8V.s 			page 55


 2352 00e7 3B       		.uleb128 0x3b
 2353 00e8 0B       		.uleb128 0xb
 2354 00e9 49       		.uleb128 0x49
 2355 00ea 13       		.uleb128 0x13
 2356 00eb 38       		.uleb128 0x38
 2357 00ec 0A       		.uleb128 0xa
 2358 00ed 00       		.byte	0
 2359 00ee 00       		.byte	0
 2360 00ef 14       		.uleb128 0x14
 2361 00f0 2E       		.uleb128 0x2e
 2362 00f1 01       		.byte	0x1
 2363 00f2 3F       		.uleb128 0x3f
 2364 00f3 0C       		.uleb128 0xc
 2365 00f4 03       		.uleb128 0x3
 2366 00f5 0E       		.uleb128 0xe
 2367 00f6 3A       		.uleb128 0x3a
 2368 00f7 0B       		.uleb128 0xb
 2369 00f8 3B       		.uleb128 0x3b
 2370 00f9 05       		.uleb128 0x5
 2371 00fa 27       		.uleb128 0x27
 2372 00fb 0C       		.uleb128 0xc
 2373 00fc 01       		.uleb128 0x1
 2374 00fd 13       		.uleb128 0x13
 2375 00fe 00       		.byte	0
 2376 00ff 00       		.byte	0
 2377 0100 15       		.uleb128 0x15
 2378 0101 05       		.uleb128 0x5
 2379 0102 00       		.byte	0
 2380 0103 03       		.uleb128 0x3
 2381 0104 0E       		.uleb128 0xe
 2382 0105 3A       		.uleb128 0x3a
 2383 0106 0B       		.uleb128 0xb
 2384 0107 3B       		.uleb128 0x3b
 2385 0108 05       		.uleb128 0x5
 2386 0109 49       		.uleb128 0x49
 2387 010a 13       		.uleb128 0x13
 2388 010b 00       		.byte	0
 2389 010c 00       		.byte	0
 2390 010d 16       		.uleb128 0x16
 2391 010e 2E       		.uleb128 0x2e
 2392 010f 01       		.byte	0x1
 2393 0110 3F       		.uleb128 0x3f
 2394 0111 0C       		.uleb128 0xc
 2395 0112 03       		.uleb128 0x3
 2396 0113 0E       		.uleb128 0xe
 2397 0114 3A       		.uleb128 0x3a
 2398 0115 0B       		.uleb128 0xb
 2399 0116 3B       		.uleb128 0x3b
 2400 0117 05       		.uleb128 0x5
 2401 0118 27       		.uleb128 0x27
 2402 0119 0C       		.uleb128 0xc
 2403 011a 49       		.uleb128 0x49
 2404 011b 13       		.uleb128 0x13
 2405 011c 01       		.uleb128 0x1
 2406 011d 13       		.uleb128 0x13
 2407 011e 00       		.byte	0
 2408 011f 00       		.byte	0
ARM GAS  G:\Users\Jaxb\AppData\Local\Temp\ccmT3S8V.s 			page 56


 2409 0120 17       		.uleb128 0x17
 2410 0121 34       		.uleb128 0x34
 2411 0122 00       		.byte	0
 2412 0123 03       		.uleb128 0x3
 2413 0124 0E       		.uleb128 0xe
 2414 0125 3A       		.uleb128 0x3a
 2415 0126 0B       		.uleb128 0xb
 2416 0127 3B       		.uleb128 0x3b
 2417 0128 05       		.uleb128 0x5
 2418 0129 49       		.uleb128 0x49
 2419 012a 13       		.uleb128 0x13
 2420 012b 00       		.byte	0
 2421 012c 00       		.byte	0
 2422 012d 18       		.uleb128 0x18
 2423 012e 2E       		.uleb128 0x2e
 2424 012f 01       		.byte	0x1
 2425 0130 3F       		.uleb128 0x3f
 2426 0131 0C       		.uleb128 0xc
 2427 0132 03       		.uleb128 0x3
 2428 0133 0E       		.uleb128 0xe
 2429 0134 3A       		.uleb128 0x3a
 2430 0135 0B       		.uleb128 0xb
 2431 0136 3B       		.uleb128 0x3b
 2432 0137 05       		.uleb128 0x5
 2433 0138 27       		.uleb128 0x27
 2434 0139 0C       		.uleb128 0xc
 2435 013a 20       		.uleb128 0x20
 2436 013b 0B       		.uleb128 0xb
 2437 013c 01       		.uleb128 0x1
 2438 013d 13       		.uleb128 0x13
 2439 013e 00       		.byte	0
 2440 013f 00       		.byte	0
 2441 0140 19       		.uleb128 0x19
 2442 0141 2E       		.uleb128 0x2e
 2443 0142 01       		.byte	0x1
 2444 0143 3F       		.uleb128 0x3f
 2445 0144 0C       		.uleb128 0xc
 2446 0145 03       		.uleb128 0x3
 2447 0146 0E       		.uleb128 0xe
 2448 0147 3A       		.uleb128 0x3a
 2449 0148 0B       		.uleb128 0xb
 2450 0149 3B       		.uleb128 0x3b
 2451 014a 05       		.uleb128 0x5
 2452 014b 27       		.uleb128 0x27
 2453 014c 0C       		.uleb128 0xc
 2454 014d 49       		.uleb128 0x49
 2455 014e 13       		.uleb128 0x13
 2456 014f 11       		.uleb128 0x11
 2457 0150 01       		.uleb128 0x1
 2458 0151 12       		.uleb128 0x12
 2459 0152 01       		.uleb128 0x1
 2460 0153 40       		.uleb128 0x40
 2461 0154 0A       		.uleb128 0xa
 2462 0155 9742     		.uleb128 0x2117
 2463 0157 0C       		.uleb128 0xc
 2464 0158 01       		.uleb128 0x1
 2465 0159 13       		.uleb128 0x13
ARM GAS  G:\Users\Jaxb\AppData\Local\Temp\ccmT3S8V.s 			page 57


 2466 015a 00       		.byte	0
 2467 015b 00       		.byte	0
 2468 015c 1A       		.uleb128 0x1a
 2469 015d 05       		.uleb128 0x5
 2470 015e 00       		.byte	0
 2471 015f 03       		.uleb128 0x3
 2472 0160 0E       		.uleb128 0xe
 2473 0161 3A       		.uleb128 0x3a
 2474 0162 0B       		.uleb128 0xb
 2475 0163 3B       		.uleb128 0x3b
 2476 0164 05       		.uleb128 0x5
 2477 0165 49       		.uleb128 0x49
 2478 0166 13       		.uleb128 0x13
 2479 0167 02       		.uleb128 0x2
 2480 0168 06       		.uleb128 0x6
 2481 0169 00       		.byte	0
 2482 016a 00       		.byte	0
 2483 016b 1B       		.uleb128 0x1b
 2484 016c 34       		.uleb128 0x34
 2485 016d 00       		.byte	0
 2486 016e 03       		.uleb128 0x3
 2487 016f 0E       		.uleb128 0xe
 2488 0170 3A       		.uleb128 0x3a
 2489 0171 0B       		.uleb128 0xb
 2490 0172 3B       		.uleb128 0x3b
 2491 0173 05       		.uleb128 0x5
 2492 0174 49       		.uleb128 0x49
 2493 0175 13       		.uleb128 0x13
 2494 0176 02       		.uleb128 0x2
 2495 0177 06       		.uleb128 0x6
 2496 0178 00       		.byte	0
 2497 0179 00       		.byte	0
 2498 017a 1C       		.uleb128 0x1c
 2499 017b 2E       		.uleb128 0x2e
 2500 017c 01       		.byte	0x1
 2501 017d 3F       		.uleb128 0x3f
 2502 017e 0C       		.uleb128 0xc
 2503 017f 03       		.uleb128 0x3
 2504 0180 0E       		.uleb128 0xe
 2505 0181 3A       		.uleb128 0x3a
 2506 0182 0B       		.uleb128 0xb
 2507 0183 3B       		.uleb128 0x3b
 2508 0184 05       		.uleb128 0x5
 2509 0185 27       		.uleb128 0x27
 2510 0186 0C       		.uleb128 0xc
 2511 0187 11       		.uleb128 0x11
 2512 0188 01       		.uleb128 0x1
 2513 0189 12       		.uleb128 0x12
 2514 018a 01       		.uleb128 0x1
 2515 018b 40       		.uleb128 0x40
 2516 018c 0A       		.uleb128 0xa
 2517 018d 9742     		.uleb128 0x2117
 2518 018f 0C       		.uleb128 0xc
 2519 0190 01       		.uleb128 0x1
 2520 0191 13       		.uleb128 0x13
 2521 0192 00       		.byte	0
 2522 0193 00       		.byte	0
ARM GAS  G:\Users\Jaxb\AppData\Local\Temp\ccmT3S8V.s 			page 58


 2523 0194 1D       		.uleb128 0x1d
 2524 0195 05       		.uleb128 0x5
 2525 0196 00       		.byte	0
 2526 0197 03       		.uleb128 0x3
 2527 0198 0E       		.uleb128 0xe
 2528 0199 3A       		.uleb128 0x3a
 2529 019a 0B       		.uleb128 0xb
 2530 019b 3B       		.uleb128 0x3b
 2531 019c 05       		.uleb128 0x5
 2532 019d 49       		.uleb128 0x49
 2533 019e 13       		.uleb128 0x13
 2534 019f 02       		.uleb128 0x2
 2535 01a0 0A       		.uleb128 0xa
 2536 01a1 00       		.byte	0
 2537 01a2 00       		.byte	0
 2538 01a3 1E       		.uleb128 0x1e
 2539 01a4 2E       		.uleb128 0x2e
 2540 01a5 00       		.byte	0
 2541 01a6 3F       		.uleb128 0x3f
 2542 01a7 0C       		.uleb128 0xc
 2543 01a8 03       		.uleb128 0x3
 2544 01a9 0E       		.uleb128 0xe
 2545 01aa 3A       		.uleb128 0x3a
 2546 01ab 0B       		.uleb128 0xb
 2547 01ac 3B       		.uleb128 0x3b
 2548 01ad 05       		.uleb128 0x5
 2549 01ae 27       		.uleb128 0x27
 2550 01af 0C       		.uleb128 0xc
 2551 01b0 49       		.uleb128 0x49
 2552 01b1 13       		.uleb128 0x13
 2553 01b2 11       		.uleb128 0x11
 2554 01b3 01       		.uleb128 0x1
 2555 01b4 12       		.uleb128 0x12
 2556 01b5 01       		.uleb128 0x1
 2557 01b6 40       		.uleb128 0x40
 2558 01b7 0A       		.uleb128 0xa
 2559 01b8 9742     		.uleb128 0x2117
 2560 01ba 0C       		.uleb128 0xc
 2561 01bb 00       		.byte	0
 2562 01bc 00       		.byte	0
 2563 01bd 1F       		.uleb128 0x1f
 2564 01be 0F       		.uleb128 0xf
 2565 01bf 00       		.byte	0
 2566 01c0 0B       		.uleb128 0xb
 2567 01c1 0B       		.uleb128 0xb
 2568 01c2 49       		.uleb128 0x49
 2569 01c3 13       		.uleb128 0x13
 2570 01c4 00       		.byte	0
 2571 01c5 00       		.byte	0
 2572 01c6 20       		.uleb128 0x20
 2573 01c7 2E       		.uleb128 0x2e
 2574 01c8 01       		.byte	0x1
 2575 01c9 3F       		.uleb128 0x3f
 2576 01ca 0C       		.uleb128 0xc
 2577 01cb 03       		.uleb128 0x3
 2578 01cc 0E       		.uleb128 0xe
 2579 01cd 3A       		.uleb128 0x3a
ARM GAS  G:\Users\Jaxb\AppData\Local\Temp\ccmT3S8V.s 			page 59


 2580 01ce 0B       		.uleb128 0xb
 2581 01cf 3B       		.uleb128 0x3b
 2582 01d0 05       		.uleb128 0x5
 2583 01d1 27       		.uleb128 0x27
 2584 01d2 0C       		.uleb128 0xc
 2585 01d3 11       		.uleb128 0x11
 2586 01d4 01       		.uleb128 0x1
 2587 01d5 12       		.uleb128 0x12
 2588 01d6 01       		.uleb128 0x1
 2589 01d7 40       		.uleb128 0x40
 2590 01d8 06       		.uleb128 0x6
 2591 01d9 9742     		.uleb128 0x2117
 2592 01db 0C       		.uleb128 0xc
 2593 01dc 01       		.uleb128 0x1
 2594 01dd 13       		.uleb128 0x13
 2595 01de 00       		.byte	0
 2596 01df 00       		.byte	0
 2597 01e0 21       		.uleb128 0x21
 2598 01e1 2E       		.uleb128 0x2e
 2599 01e2 01       		.byte	0x1
 2600 01e3 3F       		.uleb128 0x3f
 2601 01e4 0C       		.uleb128 0xc
 2602 01e5 03       		.uleb128 0x3
 2603 01e6 0E       		.uleb128 0xe
 2604 01e7 3A       		.uleb128 0x3a
 2605 01e8 0B       		.uleb128 0xb
 2606 01e9 3B       		.uleb128 0x3b
 2607 01ea 05       		.uleb128 0x5
 2608 01eb 27       		.uleb128 0x27
 2609 01ec 0C       		.uleb128 0xc
 2610 01ed 49       		.uleb128 0x49
 2611 01ee 13       		.uleb128 0x13
 2612 01ef 11       		.uleb128 0x11
 2613 01f0 01       		.uleb128 0x1
 2614 01f1 12       		.uleb128 0x12
 2615 01f2 01       		.uleb128 0x1
 2616 01f3 40       		.uleb128 0x40
 2617 01f4 06       		.uleb128 0x6
 2618 01f5 9742     		.uleb128 0x2117
 2619 01f7 0C       		.uleb128 0xc
 2620 01f8 01       		.uleb128 0x1
 2621 01f9 13       		.uleb128 0x13
 2622 01fa 00       		.byte	0
 2623 01fb 00       		.byte	0
 2624 01fc 22       		.uleb128 0x22
 2625 01fd 34       		.uleb128 0x34
 2626 01fe 00       		.byte	0
 2627 01ff 03       		.uleb128 0x3
 2628 0200 08       		.uleb128 0x8
 2629 0201 3A       		.uleb128 0x3a
 2630 0202 0B       		.uleb128 0xb
 2631 0203 3B       		.uleb128 0x3b
 2632 0204 05       		.uleb128 0x5
 2633 0205 49       		.uleb128 0x49
 2634 0206 13       		.uleb128 0x13
 2635 0207 02       		.uleb128 0x2
 2636 0208 0A       		.uleb128 0xa
ARM GAS  G:\Users\Jaxb\AppData\Local\Temp\ccmT3S8V.s 			page 60


 2637 0209 00       		.byte	0
 2638 020a 00       		.byte	0
 2639 020b 23       		.uleb128 0x23
 2640 020c 2E       		.uleb128 0x2e
 2641 020d 01       		.byte	0x1
 2642 020e 3F       		.uleb128 0x3f
 2643 020f 0C       		.uleb128 0xc
 2644 0210 03       		.uleb128 0x3
 2645 0211 0E       		.uleb128 0xe
 2646 0212 3A       		.uleb128 0x3a
 2647 0213 0B       		.uleb128 0xb
 2648 0214 3B       		.uleb128 0x3b
 2649 0215 0B       		.uleb128 0xb
 2650 0216 27       		.uleb128 0x27
 2651 0217 0C       		.uleb128 0xc
 2652 0218 11       		.uleb128 0x11
 2653 0219 01       		.uleb128 0x1
 2654 021a 12       		.uleb128 0x12
 2655 021b 01       		.uleb128 0x1
 2656 021c 40       		.uleb128 0x40
 2657 021d 0A       		.uleb128 0xa
 2658 021e 9742     		.uleb128 0x2117
 2659 0220 0C       		.uleb128 0xc
 2660 0221 01       		.uleb128 0x1
 2661 0222 13       		.uleb128 0x13
 2662 0223 00       		.byte	0
 2663 0224 00       		.byte	0
 2664 0225 24       		.uleb128 0x24
 2665 0226 05       		.uleb128 0x5
 2666 0227 00       		.byte	0
 2667 0228 03       		.uleb128 0x3
 2668 0229 0E       		.uleb128 0xe
 2669 022a 3A       		.uleb128 0x3a
 2670 022b 0B       		.uleb128 0xb
 2671 022c 3B       		.uleb128 0x3b
 2672 022d 0B       		.uleb128 0xb
 2673 022e 49       		.uleb128 0x49
 2674 022f 13       		.uleb128 0x13
 2675 0230 02       		.uleb128 0x2
 2676 0231 06       		.uleb128 0x6
 2677 0232 00       		.byte	0
 2678 0233 00       		.byte	0
 2679 0234 25       		.uleb128 0x25
 2680 0235 05       		.uleb128 0x5
 2681 0236 00       		.byte	0
 2682 0237 03       		.uleb128 0x3
 2683 0238 0E       		.uleb128 0xe
 2684 0239 3A       		.uleb128 0x3a
 2685 023a 0B       		.uleb128 0xb
 2686 023b 3B       		.uleb128 0x3b
 2687 023c 0B       		.uleb128 0xb
 2688 023d 49       		.uleb128 0x49
 2689 023e 13       		.uleb128 0x13
 2690 023f 02       		.uleb128 0x2
 2691 0240 0A       		.uleb128 0xa
 2692 0241 00       		.byte	0
 2693 0242 00       		.byte	0
ARM GAS  G:\Users\Jaxb\AppData\Local\Temp\ccmT3S8V.s 			page 61


 2694 0243 26       		.uleb128 0x26
 2695 0244 2E       		.uleb128 0x2e
 2696 0245 01       		.byte	0x1
 2697 0246 3F       		.uleb128 0x3f
 2698 0247 0C       		.uleb128 0xc
 2699 0248 03       		.uleb128 0x3
 2700 0249 0E       		.uleb128 0xe
 2701 024a 3A       		.uleb128 0x3a
 2702 024b 0B       		.uleb128 0xb
 2703 024c 3B       		.uleb128 0x3b
 2704 024d 0B       		.uleb128 0xb
 2705 024e 27       		.uleb128 0x27
 2706 024f 0C       		.uleb128 0xc
 2707 0250 11       		.uleb128 0x11
 2708 0251 01       		.uleb128 0x1
 2709 0252 12       		.uleb128 0x12
 2710 0253 01       		.uleb128 0x1
 2711 0254 40       		.uleb128 0x40
 2712 0255 06       		.uleb128 0x6
 2713 0256 9742     		.uleb128 0x2117
 2714 0258 0C       		.uleb128 0xc
 2715 0259 01       		.uleb128 0x1
 2716 025a 13       		.uleb128 0x13
 2717 025b 00       		.byte	0
 2718 025c 00       		.byte	0
 2719 025d 27       		.uleb128 0x27
 2720 025e 34       		.uleb128 0x34
 2721 025f 00       		.byte	0
 2722 0260 03       		.uleb128 0x3
 2723 0261 0E       		.uleb128 0xe
 2724 0262 3A       		.uleb128 0x3a
 2725 0263 0B       		.uleb128 0xb
 2726 0264 3B       		.uleb128 0x3b
 2727 0265 0B       		.uleb128 0xb
 2728 0266 49       		.uleb128 0x49
 2729 0267 13       		.uleb128 0x13
 2730 0268 02       		.uleb128 0x2
 2731 0269 06       		.uleb128 0x6
 2732 026a 00       		.byte	0
 2733 026b 00       		.byte	0
 2734 026c 28       		.uleb128 0x28
 2735 026d 2E       		.uleb128 0x2e
 2736 026e 00       		.byte	0
 2737 026f 3F       		.uleb128 0x3f
 2738 0270 0C       		.uleb128 0xc
 2739 0271 03       		.uleb128 0x3
 2740 0272 0E       		.uleb128 0xe
 2741 0273 3A       		.uleb128 0x3a
 2742 0274 0B       		.uleb128 0xb
 2743 0275 3B       		.uleb128 0x3b
 2744 0276 0B       		.uleb128 0xb
 2745 0277 27       		.uleb128 0x27
 2746 0278 0C       		.uleb128 0xc
 2747 0279 11       		.uleb128 0x11
 2748 027a 01       		.uleb128 0x1
 2749 027b 12       		.uleb128 0x12
 2750 027c 01       		.uleb128 0x1
ARM GAS  G:\Users\Jaxb\AppData\Local\Temp\ccmT3S8V.s 			page 62


 2751 027d 40       		.uleb128 0x40
 2752 027e 0A       		.uleb128 0xa
 2753 027f 9742     		.uleb128 0x2117
 2754 0281 0C       		.uleb128 0xc
 2755 0282 00       		.byte	0
 2756 0283 00       		.byte	0
 2757 0284 29       		.uleb128 0x29
 2758 0285 2E       		.uleb128 0x2e
 2759 0286 01       		.byte	0x1
 2760 0287 31       		.uleb128 0x31
 2761 0288 13       		.uleb128 0x13
 2762 0289 11       		.uleb128 0x11
 2763 028a 01       		.uleb128 0x1
 2764 028b 12       		.uleb128 0x12
 2765 028c 01       		.uleb128 0x1
 2766 028d 40       		.uleb128 0x40
 2767 028e 0A       		.uleb128 0xa
 2768 028f 9742     		.uleb128 0x2117
 2769 0291 0C       		.uleb128 0xc
 2770 0292 00       		.byte	0
 2771 0293 00       		.byte	0
 2772 0294 2A       		.uleb128 0x2a
 2773 0295 05       		.uleb128 0x5
 2774 0296 00       		.byte	0
 2775 0297 31       		.uleb128 0x31
 2776 0298 13       		.uleb128 0x13
 2777 0299 02       		.uleb128 0x2
 2778 029a 0A       		.uleb128 0xa
 2779 029b 00       		.byte	0
 2780 029c 00       		.byte	0
 2781 029d 00       		.byte	0
 2782              		.section	.debug_loc,"",%progbits
 2783              	.Ldebug_loc0:
 2784              	.LLST11:
 2785 0000 F0010000 		.4byte	.LVL36-.Ltext0
 2786 0004 FA010000 		.4byte	.LVL38-.Ltext0
 2787 0008 0100     		.2byte	0x1
 2788 000a 50       		.byte	0x50
 2789 000b FA010000 		.4byte	.LVL38-.Ltext0
 2790 000f 04020000 		.4byte	.LFE55-.Ltext0
 2791 0013 0400     		.2byte	0x4
 2792 0015 F3       		.byte	0xf3
 2793 0016 01       		.uleb128 0x1
 2794 0017 50       		.byte	0x50
 2795 0018 9F       		.byte	0x9f
 2796 0019 00000000 		.4byte	0
 2797 001d 00000000 		.4byte	0
 2798              	.LLST12:
 2799 0021 F0010000 		.4byte	.LVL36-.Ltext0
 2800 0025 F4010000 		.4byte	.LVL37-.Ltext0
 2801 0029 0200     		.2byte	0x2
 2802 002b 30       		.byte	0x30
 2803 002c 9F       		.byte	0x9f
 2804 002d F4010000 		.4byte	.LVL37-.Ltext0
 2805 0031 FA010000 		.4byte	.LVL38-.Ltext0
 2806 0035 0800     		.2byte	0x8
 2807 0037 73       		.byte	0x73
ARM GAS  G:\Users\Jaxb\AppData\Local\Temp\ccmT3S8V.s 			page 63


 2808 0038 00       		.sleb128 0
 2809 0039 70       		.byte	0x70
 2810 003a 00       		.sleb128 0
 2811 003b 1A       		.byte	0x1a
 2812 003c 30       		.byte	0x30
 2813 003d 2E       		.byte	0x2e
 2814 003e 9F       		.byte	0x9f
 2815 003f FA010000 		.4byte	.LVL38-.Ltext0
 2816 0043 04020000 		.4byte	.LFE55-.Ltext0
 2817 0047 0900     		.2byte	0x9
 2818 0049 73       		.byte	0x73
 2819 004a 00       		.sleb128 0
 2820 004b F3       		.byte	0xf3
 2821 004c 01       		.uleb128 0x1
 2822 004d 50       		.byte	0x50
 2823 004e 1A       		.byte	0x1a
 2824 004f 30       		.byte	0x30
 2825 0050 2E       		.byte	0x2e
 2826 0051 9F       		.byte	0x9f
 2827 0052 00000000 		.4byte	0
 2828 0056 00000000 		.4byte	0
 2829              	.LLST10:
 2830 005a D4010000 		.4byte	.LVL33-.Ltext0
 2831 005e D6010000 		.4byte	.LVL34-.Ltext0
 2832 0062 0100     		.2byte	0x1
 2833 0064 50       		.byte	0x50
 2834 0065 D6010000 		.4byte	.LVL34-.Ltext0
 2835 0069 E4010000 		.4byte	.LFE53-.Ltext0
 2836 006d 0400     		.2byte	0x4
 2837 006f F3       		.byte	0xf3
 2838 0070 01       		.uleb128 0x1
 2839 0071 50       		.byte	0x50
 2840 0072 9F       		.byte	0x9f
 2841 0073 00000000 		.4byte	0
 2842 0077 00000000 		.4byte	0
 2843              	.LLST8:
 2844 007b 1C010000 		.4byte	.LFB41-.Ltext0
 2845 007f 22010000 		.4byte	.LCFI6-.Ltext0
 2846 0083 0200     		.2byte	0x2
 2847 0085 7D       		.byte	0x7d
 2848 0086 00       		.sleb128 0
 2849 0087 22010000 		.4byte	.LCFI6-.Ltext0
 2850 008b 42010000 		.4byte	.LCFI7-.Ltext0
 2851 008f 0200     		.2byte	0x2
 2852 0091 7D       		.byte	0x7d
 2853 0092 04       		.sleb128 4
 2854 0093 42010000 		.4byte	.LCFI7-.Ltext0
 2855 0097 48010000 		.4byte	.LFE41-.Ltext0
 2856 009b 0200     		.2byte	0x2
 2857 009d 7D       		.byte	0x7d
 2858 009e 00       		.sleb128 0
 2859 009f 00000000 		.4byte	0
 2860 00a3 00000000 		.4byte	0
 2861              	.LLST9:
 2862 00a7 1C010000 		.4byte	.LVL20-.Ltext0
 2863 00ab 2A010000 		.4byte	.LVL21-.Ltext0
 2864 00af 0200     		.2byte	0x2
ARM GAS  G:\Users\Jaxb\AppData\Local\Temp\ccmT3S8V.s 			page 64


 2865 00b1 30       		.byte	0x30
 2866 00b2 9F       		.byte	0x9f
 2867 00b3 2A010000 		.4byte	.LVL21-.Ltext0
 2868 00b7 32010000 		.4byte	.LVL22-.Ltext0
 2869 00bb 0700     		.2byte	0x7
 2870 00bd 71       		.byte	0x71
 2871 00be 00       		.sleb128 0
 2872 00bf 0B       		.byte	0xb
 2873 00c0 08FF     		.2byte	0xff08
 2874 00c2 1A       		.byte	0x1a
 2875 00c3 9F       		.byte	0x9f
 2876 00c4 32010000 		.4byte	.LVL22-.Ltext0
 2877 00c8 3A010000 		.4byte	.LVL23-.Ltext0
 2878 00cc 0100     		.2byte	0x1
 2879 00ce 51       		.byte	0x51
 2880 00cf 3E010000 		.4byte	.LVL24-.Ltext0
 2881 00d3 48010000 		.4byte	.LFE41-.Ltext0
 2882 00d7 0100     		.2byte	0x1
 2883 00d9 53       		.byte	0x53
 2884 00da 00000000 		.4byte	0
 2885 00de 00000000 		.4byte	0
 2886              	.LLST6:
 2887 00e2 04010000 		.4byte	.LFB40-.Ltext0
 2888 00e6 0A010000 		.4byte	.LCFI4-.Ltext0
 2889 00ea 0200     		.2byte	0x2
 2890 00ec 7D       		.byte	0x7d
 2891 00ed 00       		.sleb128 0
 2892 00ee 0A010000 		.4byte	.LCFI4-.Ltext0
 2893 00f2 16010000 		.4byte	.LCFI5-.Ltext0
 2894 00f6 0200     		.2byte	0x2
 2895 00f8 7D       		.byte	0x7d
 2896 00f9 08       		.sleb128 8
 2897 00fa 16010000 		.4byte	.LCFI5-.Ltext0
 2898 00fe 1C010000 		.4byte	.LFE40-.Ltext0
 2899 0102 0200     		.2byte	0x2
 2900 0104 7D       		.byte	0x7d
 2901 0105 00       		.sleb128 0
 2902 0106 00000000 		.4byte	0
 2903 010a 00000000 		.4byte	0
 2904              	.LLST7:
 2905 010e 04010000 		.4byte	.LVL18-.Ltext0
 2906 0112 14010000 		.4byte	.LVL19-.Ltext0
 2907 0116 0100     		.2byte	0x1
 2908 0118 50       		.byte	0x50
 2909 0119 14010000 		.4byte	.LVL19-.Ltext0
 2910 011d 1C010000 		.4byte	.LFE40-.Ltext0
 2911 0121 0400     		.2byte	0x4
 2912 0123 F3       		.byte	0xf3
 2913 0124 01       		.uleb128 0x1
 2914 0125 50       		.byte	0x50
 2915 0126 9F       		.byte	0x9f
 2916 0127 00000000 		.4byte	0
 2917 012b 00000000 		.4byte	0
 2918              	.LLST4:
 2919 012f BC000000 		.4byte	.LFB37-.Ltext0
 2920 0133 C2000000 		.4byte	.LCFI2-.Ltext0
 2921 0137 0200     		.2byte	0x2
ARM GAS  G:\Users\Jaxb\AppData\Local\Temp\ccmT3S8V.s 			page 65


 2922 0139 7D       		.byte	0x7d
 2923 013a 00       		.sleb128 0
 2924 013b C2000000 		.4byte	.LCFI2-.Ltext0
 2925 013f E2000000 		.4byte	.LCFI3-.Ltext0
 2926 0143 0200     		.2byte	0x2
 2927 0145 7D       		.byte	0x7d
 2928 0146 04       		.sleb128 4
 2929 0147 E2000000 		.4byte	.LCFI3-.Ltext0
 2930 014b E8000000 		.4byte	.LFE37-.Ltext0
 2931 014f 0200     		.2byte	0x2
 2932 0151 7D       		.byte	0x7d
 2933 0152 00       		.sleb128 0
 2934 0153 00000000 		.4byte	0
 2935 0157 00000000 		.4byte	0
 2936              	.LLST5:
 2937 015b BC000000 		.4byte	.LVL13-.Ltext0
 2938 015f C6000000 		.4byte	.LVL14-.Ltext0
 2939 0163 0200     		.2byte	0x2
 2940 0165 30       		.byte	0x30
 2941 0166 9F       		.byte	0x9f
 2942 0167 C6000000 		.4byte	.LVL14-.Ltext0
 2943 016b CE000000 		.4byte	.LVL15-.Ltext0
 2944 016f 0700     		.2byte	0x7
 2945 0171 72       		.byte	0x72
 2946 0172 00       		.sleb128 0
 2947 0173 0B       		.byte	0xb
 2948 0174 00F8     		.2byte	0xf800
 2949 0176 1A       		.byte	0x1a
 2950 0177 9F       		.byte	0x9f
 2951 0178 DE000000 		.4byte	.LVL16-.Ltext0
 2952 017c E8000000 		.4byte	.LFE37-.Ltext0
 2953 0180 0100     		.2byte	0x1
 2954 0182 53       		.byte	0x53
 2955 0183 00000000 		.4byte	0
 2956 0187 00000000 		.4byte	0
 2957              	.LLST3:
 2958 018b 98000000 		.4byte	.LVL8-.Ltext0
 2959 018f A2000000 		.4byte	.LVL9-.Ltext0
 2960 0193 0100     		.2byte	0x1
 2961 0195 50       		.byte	0x50
 2962 0196 A2000000 		.4byte	.LVL9-.Ltext0
 2963 019a A6000000 		.4byte	.LVL10-.Ltext0
 2964 019e 0400     		.2byte	0x4
 2965 01a0 F3       		.byte	0xf3
 2966 01a1 01       		.uleb128 0x1
 2967 01a2 50       		.byte	0x50
 2968 01a3 9F       		.byte	0x9f
 2969 01a4 A6000000 		.4byte	.LVL10-.Ltext0
 2970 01a8 A8000000 		.4byte	.LVL11-.Ltext0
 2971 01ac 0100     		.2byte	0x1
 2972 01ae 50       		.byte	0x50
 2973 01af A8000000 		.4byte	.LVL11-.Ltext0
 2974 01b3 B0000000 		.4byte	.LFE35-.Ltext0
 2975 01b7 0400     		.2byte	0x4
 2976 01b9 F3       		.byte	0xf3
 2977 01ba 01       		.uleb128 0x1
 2978 01bb 50       		.byte	0x50
ARM GAS  G:\Users\Jaxb\AppData\Local\Temp\ccmT3S8V.s 			page 66


 2979 01bc 9F       		.byte	0x9f
 2980 01bd 00000000 		.4byte	0
 2981 01c1 00000000 		.4byte	0
 2982              	.LLST2:
 2983 01c5 70000000 		.4byte	.LVL6-.Ltext0
 2984 01c9 7E000000 		.4byte	.LVL7-.Ltext0
 2985 01cd 0100     		.2byte	0x1
 2986 01cf 50       		.byte	0x50
 2987 01d0 7E000000 		.4byte	.LVL7-.Ltext0
 2988 01d4 88000000 		.4byte	.LFE33-.Ltext0
 2989 01d8 0400     		.2byte	0x4
 2990 01da F3       		.byte	0xf3
 2991 01db 01       		.uleb128 0x1
 2992 01dc 50       		.byte	0x50
 2993 01dd 9F       		.byte	0x9f
 2994 01de 00000000 		.4byte	0
 2995 01e2 00000000 		.4byte	0
 2996              	.LLST0:
 2997 01e6 24000000 		.4byte	.LFB30-.Ltext0
 2998 01ea 28000000 		.4byte	.LCFI0-.Ltext0
 2999 01ee 0200     		.2byte	0x2
 3000 01f0 7D       		.byte	0x7d
 3001 01f1 00       		.sleb128 0
 3002 01f2 28000000 		.4byte	.LCFI0-.Ltext0
 3003 01f6 4E000000 		.4byte	.LCFI1-.Ltext0
 3004 01fa 0200     		.2byte	0x2
 3005 01fc 7D       		.byte	0x7d
 3006 01fd 04       		.sleb128 4
 3007 01fe 4E000000 		.4byte	.LCFI1-.Ltext0
 3008 0202 54000000 		.4byte	.LFE30-.Ltext0
 3009 0206 0200     		.2byte	0x2
 3010 0208 7D       		.byte	0x7d
 3011 0209 00       		.sleb128 0
 3012 020a 00000000 		.4byte	0
 3013 020e 00000000 		.4byte	0
 3014              	.LLST1:
 3015 0212 24000000 		.4byte	.LVL0-.Ltext0
 3016 0216 2A000000 		.4byte	.LVL1-.Ltext0
 3017 021a 0200     		.2byte	0x2
 3018 021c 30       		.byte	0x30
 3019 021d 9F       		.byte	0x9f
 3020 021e 2A000000 		.4byte	.LVL1-.Ltext0
 3021 0222 32000000 		.4byte	.LVL2-.Ltext0
 3022 0226 0700     		.2byte	0x7
 3023 0228 72       		.byte	0x72
 3024 0229 00       		.sleb128 0
 3025 022a 0B       		.byte	0xb
 3026 022b 0081     		.2byte	0x8100
 3027 022d 1A       		.byte	0x1a
 3028 022e 9F       		.byte	0x9f
 3029 022f 4A000000 		.4byte	.LVL3-.Ltext0
 3030 0233 54000000 		.4byte	.LFE30-.Ltext0
 3031 0237 0100     		.2byte	0x1
 3032 0239 53       		.byte	0x53
 3033 023a 00000000 		.4byte	0
 3034 023e 00000000 		.4byte	0
 3035              		.section	.debug_aranges,"",%progbits
ARM GAS  G:\Users\Jaxb\AppData\Local\Temp\ccmT3S8V.s 			page 67


 3036 0000 1C000000 		.4byte	0x1c
 3037 0004 0200     		.2byte	0x2
 3038 0006 00000000 		.4byte	.Ldebug_info0
 3039 000a 04       		.byte	0x4
 3040 000b 00       		.byte	0
 3041 000c 0000     		.2byte	0
 3042 000e 0000     		.2byte	0
 3043 0010 00000000 		.4byte	.Ltext0
 3044 0014 20020000 		.4byte	.Letext0-.Ltext0
 3045 0018 00000000 		.4byte	0
 3046 001c 00000000 		.4byte	0
 3047              		.section	.debug_line,"",%progbits
 3048              	.Ldebug_line0:
 3049 0000 0A020000 		.section	.debug_str,"MS",%progbits,1
 3049      02003001 
 3049      00000201 
 3049      FB0E0D00 
 3049      01010101 
 3050              	.LASF38:
 3051 0000 5344494F 		.ascii	"SDIO_ClockEdge\000"
 3051      5F436C6F 
 3051      636B4564 
 3051      676500
 3052              	.LASF39:
 3053 000f 5344494F 		.ascii	"SDIO_ClockBypass\000"
 3053      5F436C6F 
 3053      636B4279 
 3053      70617373 
 3053      00
 3054              	.LASF17:
 3055 0020 49545374 		.ascii	"ITStatus\000"
 3055      61747573 
 3055      00
 3056              	.LASF28:
 3057 0029 4454494D 		.ascii	"DTIMER\000"
 3057      455200
 3058              	.LASF44:
 3059 0030 5344494F 		.ascii	"SDIO_InitTypeDef\000"
 3059      5F496E69 
 3059      74547970 
 3059      65446566 
 3059      00
 3060              	.LASF46:
 3061 0041 5344494F 		.ascii	"SDIO_CmdIndex\000"
 3061      5F436D64 
 3061      496E6465 
 3061      7800
 3062              	.LASF88:
 3063 004f 5344494F 		.ascii	"SDIO_SendCommand\000"
 3063      5F53656E 
 3063      64436F6D 
 3063      6D616E64 
 3063      00
 3064              	.LASF90:
 3065 0060 5344494F 		.ascii	"SDIO_ITConfig\000"
 3065      5F495443 
 3065      6F6E6669 
ARM GAS  G:\Users\Jaxb\AppData\Local\Temp\ccmT3S8V.s 			page 68


 3065      6700
 3066              	.LASF84:
 3067 006e 5344494F 		.ascii	"SDIO_RESP\000"
 3067      5F524553 
 3067      5000
 3068              	.LASF66:
 3069 0078 5344494F 		.ascii	"SDIO_SendSDIOSuspendCmd\000"
 3069      5F53656E 
 3069      64534449 
 3069      4F537573 
 3069      70656E64 
 3070              	.LASF45:
 3071 0090 5344494F 		.ascii	"SDIO_Argument\000"
 3071      5F417267 
 3071      756D656E 
 3071      7400
 3072              	.LASF67:
 3073 009e 5344494F 		.ascii	"SDIO_SetSDIOOperation\000"
 3073      5F536574 
 3073      5344494F 
 3073      4F706572 
 3073      6174696F 
 3074              	.LASF53:
 3075 00b4 5344494F 		.ascii	"SDIO_DataBlockSize\000"
 3075      5F446174 
 3075      61426C6F 
 3075      636B5369 
 3075      7A6500
 3076              	.LASF31:
 3077 00c7 44434F55 		.ascii	"DCOUNT\000"
 3077      4E5400
 3078              	.LASF59:
 3079 00ce 5344494F 		.ascii	"SDIO_GetITStatus\000"
 3079      5F476574 
 3079      49545374 
 3079      61747573 
 3079      00
 3080              	.LASF8:
 3081 00df 6C6F6E67 		.ascii	"long long int\000"
 3081      206C6F6E 
 3081      6720696E 
 3081      7400
 3082              	.LASF69:
 3083 00ed 5344494F 		.ascii	"SDIO_ReadWaitMode\000"
 3083      5F526561 
 3083      64576169 
 3083      744D6F64 
 3083      6500
 3084              	.LASF48:
 3085 00ff 5344494F 		.ascii	"SDIO_Wait\000"
 3085      5F576169 
 3085      7400
 3086              	.LASF68:
 3087 0109 5344494F 		.ascii	"SDIO_SetSDIOReadWaitMode\000"
 3087      5F536574 
 3087      5344494F 
 3087      52656164 
ARM GAS  G:\Users\Jaxb\AppData\Local\Temp\ccmT3S8V.s 			page 69


 3087      57616974 
 3088              	.LASF70:
 3089 0122 5344494F 		.ascii	"SDIO_StopSDIOReadWait\000"
 3089      5F53746F 
 3089      70534449 
 3089      4F526561 
 3089      64576169 
 3090              	.LASF56:
 3091 0138 5344494F 		.ascii	"SDIO_DPSM\000"
 3091      5F445053 
 3091      4D00
 3092              	.LASF42:
 3093 0142 5344494F 		.ascii	"SDIO_HardwareFlowControl\000"
 3093      5F486172 
 3093      64776172 
 3093      65466C6F 
 3093      77436F6E 
 3094              	.LASF2:
 3095 015b 73686F72 		.ascii	"short int\000"
 3095      7420696E 
 3095      7400
 3096              	.LASF41:
 3097 0165 5344494F 		.ascii	"SDIO_BusWide\000"
 3097      5F427573 
 3097      57696465 
 3097      00
 3098              	.LASF74:
 3099 0172 5344494F 		.ascii	"SDIO_GetFIFOCount\000"
 3099      5F476574 
 3099      4649464F 
 3099      436F756E 
 3099      7400
 3100              	.LASF29:
 3101 0184 444C454E 		.ascii	"DLEN\000"
 3101      00
 3102              	.LASF11:
 3103 0189 75696E74 		.ascii	"uint8_t\000"
 3103      385F7400 
 3104              	.LASF30:
 3105 0191 44435452 		.ascii	"DCTRL\000"
 3105      4C00
 3106              	.LASF21:
 3107 0197 504F5745 		.ascii	"POWER\000"
 3107      5200
 3108              	.LASF94:
 3109 019d 5344494F 		.ascii	"SDIO_ClockCmd\000"
 3109      5F436C6F 
 3109      636B436D 
 3109      6400
 3110              	.LASF97:
 3111 01ab 5344494F 		.ascii	"SDIO_Init\000"
 3111      5F496E69 
 3111      7400
 3112              	.LASF62:
 3113 01b5 4E657753 		.ascii	"NewState\000"
 3113      74617465 
 3113      00
ARM GAS  G:\Users\Jaxb\AppData\Local\Temp\ccmT3S8V.s 			page 70


 3114              	.LASF43:
 3115 01be 5344494F 		.ascii	"SDIO_ClockDiv\000"
 3115      5F436C6F 
 3115      636B4469 
 3115      7600
 3116              	.LASF18:
 3117 01cc 44495341 		.ascii	"DISABLE\000"
 3117      424C4500 
 3118              	.LASF91:
 3119 01d4 5344494F 		.ascii	"SDIO_GetPowerState\000"
 3119      5F476574 
 3119      506F7765 
 3119      72537461 
 3119      746500
 3120              	.LASF51:
 3121 01e7 5344494F 		.ascii	"SDIO_DataTimeOut\000"
 3121      5F446174 
 3121      6154696D 
 3121      654F7574 
 3121      00
 3122              	.LASF47:
 3123 01f8 5344494F 		.ascii	"SDIO_Response\000"
 3123      5F526573 
 3123      706F6E73 
 3123      6500
 3124              	.LASF54:
 3125 0206 5344494F 		.ascii	"SDIO_TransferDir\000"
 3125      5F547261 
 3125      6E736665 
 3125      72446972 
 3125      00
 3126              	.LASF96:
 3127 0217 5344494F 		.ascii	"SDIO_InitStruct\000"
 3127      5F496E69 
 3127      74537472 
 3127      75637400 
 3128              	.LASF71:
 3129 0227 5344494F 		.ascii	"SDIO_StartSDIOReadWait\000"
 3129      5F537461 
 3129      72745344 
 3129      494F5265 
 3129      61645761 
 3130              	.LASF76:
 3131 023e 5344494F 		.ascii	"SDIO_GetDataCounter\000"
 3131      5F476574 
 3131      44617461 
 3131      436F756E 
 3131      74657200 
 3132              	.LASF4:
 3133 0252 6C6F6E67 		.ascii	"long int\000"
 3133      20696E74 
 3133      00
 3134              	.LASF101:
 3135 025b 5344494F 		.ascii	"SDIO_ClearITPendingBit\000"
 3135      5F436C65 
 3135      61724954 
 3135      50656E64 
ARM GAS  G:\Users\Jaxb\AppData\Local\Temp\ccmT3S8V.s 			page 71


 3135      696E6742 
 3136              	.LASF89:
 3137 0272 5344494F 		.ascii	"SDIO_DMACmd\000"
 3137      5F444D41 
 3137      436D6400 
 3138              	.LASF93:
 3139 027e 5344494F 		.ascii	"SDIO_PowerState\000"
 3139      5F506F77 
 3139      65725374 
 3139      61746500 
 3140              	.LASF95:
 3141 028e 5344494F 		.ascii	"SDIO_StructInit\000"
 3141      5F537472 
 3141      75637449 
 3141      6E697400 
 3142              	.LASF80:
 3143 029e 62697473 		.ascii	"bitstatus\000"
 3143      74617475 
 3143      7300
 3144              	.LASF73:
 3145 02a8 44617461 		.ascii	"Data\000"
 3145      00
 3146              	.LASF40:
 3147 02ad 5344494F 		.ascii	"SDIO_ClockPowerSave\000"
 3147      5F436C6F 
 3147      636B506F 
 3147      77657253 
 3147      61766500 
 3148              	.LASF36:
 3149 02c1 4649464F 		.ascii	"FIFO\000"
 3149      00
 3150              	.LASF81:
 3151 02c6 746D7072 		.ascii	"tmpreg\000"
 3151      656700
 3152              	.LASF79:
 3153 02cd 5344494F 		.ascii	"SDIO_DataConfig\000"
 3153      5F446174 
 3153      61436F6E 
 3153      66696700 
 3154              	.LASF58:
 3155 02dd 5344494F 		.ascii	"SDIO_IT\000"
 3155      5F495400 
 3156              	.LASF1:
 3157 02e5 756E7369 		.ascii	"unsigned char\000"
 3157      676E6564 
 3157      20636861 
 3157      7200
 3158              	.LASF78:
 3159 02f3 5344494F 		.ascii	"SDIO_DataInitStruct\000"
 3159      5F446174 
 3159      61496E69 
 3159      74537472 
 3159      75637400 
 3160              	.LASF0:
 3161 0307 7369676E 		.ascii	"signed char\000"
 3161      65642063 
 3161      68617200 
ARM GAS  G:\Users\Jaxb\AppData\Local\Temp\ccmT3S8V.s 			page 72


 3162              	.LASF9:
 3163 0313 6C6F6E67 		.ascii	"long long unsigned int\000"
 3163      206C6F6E 
 3163      6720756E 
 3163      7369676E 
 3163      65642069 
 3164              	.LASF12:
 3165 032a 75696E74 		.ascii	"uint32_t\000"
 3165      33325F74 
 3165      00
 3166              	.LASF77:
 3167 0333 5344494F 		.ascii	"SDIO_DataStructInit\000"
 3167      5F446174 
 3167      61537472 
 3167      75637449 
 3167      6E697400 
 3168              	.LASF10:
 3169 0347 756E7369 		.ascii	"unsigned int\000"
 3169      676E6564 
 3169      20696E74 
 3169      00
 3170              	.LASF32:
 3171 0354 4D41534B 		.ascii	"MASK\000"
 3171      00
 3172              	.LASF37:
 3173 0359 5344494F 		.ascii	"SDIO_TypeDef\000"
 3173      5F547970 
 3173      65446566 
 3173      00
 3174              	.LASF83:
 3175 0366 5344494F 		.ascii	"SDIO_GetResponse\000"
 3175      5F476574 
 3175      52657370 
 3175      6F6E7365 
 3175      00
 3176              	.LASF85:
 3177 0377 5344494F 		.ascii	"SDIO_GetCommandResponse\000"
 3177      5F476574 
 3177      436F6D6D 
 3177      616E6452 
 3177      6573706F 
 3178              	.LASF3:
 3179 038f 73686F72 		.ascii	"short unsigned int\000"
 3179      7420756E 
 3179      7369676E 
 3179      65642069 
 3179      6E7400
 3180              	.LASF24:
 3181 03a2 52455350 		.ascii	"RESP1\000"
 3181      3100
 3182              	.LASF25:
 3183 03a8 52455350 		.ascii	"RESP2\000"
 3183      3200
 3184              	.LASF26:
 3185 03ae 52455350 		.ascii	"RESP3\000"
 3185      3300
 3186              	.LASF27:
ARM GAS  G:\Users\Jaxb\AppData\Local\Temp\ccmT3S8V.s 			page 73


 3187 03b4 52455350 		.ascii	"RESP4\000"
 3187      3400
 3188              	.LASF64:
 3189 03ba 5344494F 		.ascii	"SDIO_CEATAITCmd\000"
 3189      5F434541 
 3189      54414954 
 3189      436D6400 
 3190              	.LASF61:
 3191 03ca 5344494F 		.ascii	"SDIO_FLAG\000"
 3191      5F464C41 
 3191      4700
 3192              	.LASF14:
 3193 03d4 53797374 		.ascii	"SystemCoreClock\000"
 3193      656D436F 
 3193      7265436C 
 3193      6F636B00 
 3194              	.LASF63:
 3195 03e4 5344494F 		.ascii	"SDIO_SendCEATACmd\000"
 3195      5F53656E 
 3195      64434541 
 3195      5441436D 
 3195      6400
 3196              	.LASF52:
 3197 03f6 5344494F 		.ascii	"SDIO_DataLength\000"
 3197      5F446174 
 3197      614C656E 
 3197      67746800 
 3198              	.LASF33:
 3199 0406 52455345 		.ascii	"RESERVED0\000"
 3199      52564544 
 3199      3000
 3200              	.LASF35:
 3201 0410 52455345 		.ascii	"RESERVED1\000"
 3201      52564544 
 3201      3100
 3202              	.LASF7:
 3203 041a 6C6F6E67 		.ascii	"long unsigned int\000"
 3203      20756E73 
 3203      69676E65 
 3203      6420696E 
 3203      7400
 3204              	.LASF92:
 3205 042c 5344494F 		.ascii	"SDIO_SetPowerState\000"
 3205      5F536574 
 3205      506F7765 
 3205      72537461 
 3205      746500
 3206              	.LASF87:
 3207 043f 5344494F 		.ascii	"SDIO_CmdInitStruct\000"
 3207      5F436D64 
 3207      496E6974 
 3207      53747275 
 3207      637400
 3208              	.LASF22:
 3209 0452 434C4B43 		.ascii	"CLKCR\000"
 3209      5200
 3210              	.LASF100:
ARM GAS  G:\Users\Jaxb\AppData\Local\Temp\ccmT3S8V.s 			page 74


 3211 0458 473A5C55 		.ascii	"G:\\Users\\Jaxb\\Desktop\\KAKAOS-0.07  2019.2.21  f"
 3211      73657273 
 3211      5C4A6178 
 3211      625C4465 
 3211      736B746F 
 3212 0487 6F722067 		.ascii	"or gcc\\Project\\RVMDK\243\250uv5\243\251\000"
 3212      63635C50 
 3212      726F6A65 
 3212      63745C52 
 3212      564D444B 
 3213              	.LASF20:
 3214 04a3 46756E63 		.ascii	"FunctionalState\000"
 3214      74696F6E 
 3214      616C5374 
 3214      61746500 
 3215              	.LASF6:
 3216 04b3 5F5F7569 		.ascii	"__uint32_t\000"
 3216      6E743332 
 3216      5F7400
 3217              	.LASF86:
 3218 04be 5344494F 		.ascii	"SDIO_CmdStructInit\000"
 3218      5F436D64 
 3218      53747275 
 3218      6374496E 
 3218      697400
 3219              	.LASF65:
 3220 04d1 5344494F 		.ascii	"SDIO_CommandCompletionCmd\000"
 3220      5F436F6D 
 3220      6D616E64 
 3220      436F6D70 
 3220      6C657469 
 3221              	.LASF50:
 3222 04eb 5344494F 		.ascii	"SDIO_CmdInitTypeDef\000"
 3222      5F436D64 
 3222      496E6974 
 3222      54797065 
 3222      44656600 
 3223              	.LASF15:
 3224 04ff 52455345 		.ascii	"RESET\000"
 3224      5400
 3225              	.LASF72:
 3226 0505 5344494F 		.ascii	"SDIO_WriteData\000"
 3226      5F577269 
 3226      74654461 
 3226      746100
 3227              	.LASF75:
 3228 0514 5344494F 		.ascii	"SDIO_ReadData\000"
 3228      5F526561 
 3228      64446174 
 3228      6100
 3229              	.LASF99:
 3230 0522 2E2E2F2E 		.ascii	"../../source/src/FWlib/src/stm32f10x_sdio.c\000"
 3230      2E2F736F 
 3230      75726365 
 3230      2F737263 
 3230      2F46576C 
 3231              	.LASF57:
ARM GAS  G:\Users\Jaxb\AppData\Local\Temp\ccmT3S8V.s 			page 75


 3232 054e 5344494F 		.ascii	"SDIO_DataInitTypeDef\000"
 3232      5F446174 
 3232      61496E69 
 3232      74547970 
 3232      65446566 
 3233              	.LASF60:
 3234 0563 5344494F 		.ascii	"SDIO_ClearFlag\000"
 3234      5F436C65 
 3234      6172466C 
 3234      616700
 3235              	.LASF102:
 3236 0572 5344494F 		.ascii	"SDIO_DeInit\000"
 3236      5F446549 
 3236      6E697400 
 3237              	.LASF98:
 3238 057e 474E5520 		.ascii	"GNU C11 7.3.1 20180622 (release) [ARM/embedded-7-br"
 3238      43313120 
 3238      372E332E 
 3238      31203230 
 3238      31383036 
 3239 05b1 616E6368 		.ascii	"anch revision 261907] -mcpu=cortex-m3 -mthumb -mapc"
 3239      20726576 
 3239      6973696F 
 3239      6E203236 
 3239      31393037 
 3240 05e4 732D6672 		.ascii	"s-frame -mthumb-interwork -mcpu=cortex-m3 -mthumb -"
 3240      616D6520 
 3240      2D6D7468 
 3240      756D622D 
 3240      696E7465 
 3241 0617 67647761 		.ascii	"gdwarf-2 -O2\000"
 3241      72662D32 
 3241      202D4F32 
 3241      00
 3242              	.LASF34:
 3243 0624 4649464F 		.ascii	"FIFOCNT\000"
 3243      434E5400 
 3244              	.LASF49:
 3245 062c 5344494F 		.ascii	"SDIO_CPSM\000"
 3245      5F435053 
 3245      4D00
 3246              	.LASF13:
 3247 0636 49544D5F 		.ascii	"ITM_RxBuffer\000"
 3247      52784275 
 3247      66666572 
 3247      00
 3248              	.LASF23:
 3249 0643 52455350 		.ascii	"RESPCMD\000"
 3249      434D4400 
 3250              	.LASF82:
 3251 064b 5344494F 		.ascii	"SDIO_GetFlagStatus\000"
 3251      5F476574 
 3251      466C6167 
 3251      53746174 
 3251      757300
 3252              	.LASF16:
 3253 065e 466C6167 		.ascii	"FlagStatus\000"
ARM GAS  G:\Users\Jaxb\AppData\Local\Temp\ccmT3S8V.s 			page 76


 3253      53746174 
 3253      757300
 3254              	.LASF19:
 3255 0669 454E4142 		.ascii	"ENABLE\000"
 3255      4C4500
 3256              	.LASF5:
 3257 0670 5F5F7569 		.ascii	"__uint8_t\000"
 3257      6E74385F 
 3257      7400
 3258              	.LASF55:
 3259 067a 5344494F 		.ascii	"SDIO_TransferMode\000"
 3259      5F547261 
 3259      6E736665 
 3259      724D6F64 
 3259      6500
 3260              		.ident	"GCC: (GNU Tools for Arm Embedded Processors 7-2018-q2-update) 7.3.1 20180622 (release) [AR
ARM GAS  G:\Users\Jaxb\AppData\Local\Temp\ccmT3S8V.s 			page 77


DEFINED SYMBOLS
                            *ABS*:00000000 stm32f10x_sdio.c
G:\Users\Jaxb\AppData\Local\Temp\ccmT3S8V.s:15     .text:00000000 $t
G:\Users\Jaxb\AppData\Local\Temp\ccmT3S8V.s:23     .text:00000000 SDIO_DeInit
G:\Users\Jaxb\AppData\Local\Temp\ccmT3S8V.s:59     .text:0000001c $d
G:\Users\Jaxb\AppData\Local\Temp\ccmT3S8V.s:64     .text:00000024 $t
G:\Users\Jaxb\AppData\Local\Temp\ccmT3S8V.s:72     .text:00000024 SDIO_Init
G:\Users\Jaxb\AppData\Local\Temp\ccmT3S8V.s:119    .text:00000050 $d
G:\Users\Jaxb\AppData\Local\Temp\ccmT3S8V.s:123    .text:00000054 $t
G:\Users\Jaxb\AppData\Local\Temp\ccmT3S8V.s:131    .text:00000054 SDIO_StructInit
G:\Users\Jaxb\AppData\Local\Temp\ccmT3S8V.s:161    .text:00000064 SDIO_ClockCmd
G:\Users\Jaxb\AppData\Local\Temp\ccmT3S8V.s:177    .text:0000006c $d
G:\Users\Jaxb\AppData\Local\Temp\ccmT3S8V.s:181    .text:00000070 $t
G:\Users\Jaxb\AppData\Local\Temp\ccmT3S8V.s:189    .text:00000070 SDIO_SetPowerState
G:\Users\Jaxb\AppData\Local\Temp\ccmT3S8V.s:212    .text:00000084 $d
G:\Users\Jaxb\AppData\Local\Temp\ccmT3S8V.s:216    .text:00000088 $t
G:\Users\Jaxb\AppData\Local\Temp\ccmT3S8V.s:224    .text:00000088 SDIO_GetPowerState
G:\Users\Jaxb\AppData\Local\Temp\ccmT3S8V.s:240    .text:00000094 $d
G:\Users\Jaxb\AppData\Local\Temp\ccmT3S8V.s:244    .text:00000098 $t
G:\Users\Jaxb\AppData\Local\Temp\ccmT3S8V.s:252    .text:00000098 SDIO_ITConfig
G:\Users\Jaxb\AppData\Local\Temp\ccmT3S8V.s:281    .text:000000ac $d
G:\Users\Jaxb\AppData\Local\Temp\ccmT3S8V.s:285    .text:000000b0 $t
G:\Users\Jaxb\AppData\Local\Temp\ccmT3S8V.s:293    .text:000000b0 SDIO_DMACmd
G:\Users\Jaxb\AppData\Local\Temp\ccmT3S8V.s:309    .text:000000b8 $d
G:\Users\Jaxb\AppData\Local\Temp\ccmT3S8V.s:313    .text:000000bc $t
G:\Users\Jaxb\AppData\Local\Temp\ccmT3S8V.s:321    .text:000000bc SDIO_SendCommand
G:\Users\Jaxb\AppData\Local\Temp\ccmT3S8V.s:367    .text:000000e4 $d
G:\Users\Jaxb\AppData\Local\Temp\ccmT3S8V.s:371    .text:000000e8 $t
G:\Users\Jaxb\AppData\Local\Temp\ccmT3S8V.s:379    .text:000000e8 SDIO_CmdStructInit
G:\Users\Jaxb\AppData\Local\Temp\ccmT3S8V.s:408    .text:000000f8 SDIO_GetCommandResponse
G:\Users\Jaxb\AppData\Local\Temp\ccmT3S8V.s:424    .text:00000100 $d
G:\Users\Jaxb\AppData\Local\Temp\ccmT3S8V.s:428    .text:00000104 $t
G:\Users\Jaxb\AppData\Local\Temp\ccmT3S8V.s:436    .text:00000104 SDIO_GetResponse
G:\Users\Jaxb\AppData\Local\Temp\ccmT3S8V.s:471    .text:00000118 $d
G:\Users\Jaxb\AppData\Local\Temp\ccmT3S8V.s:475    .text:0000011c $t
G:\Users\Jaxb\AppData\Local\Temp\ccmT3S8V.s:483    .text:0000011c SDIO_DataConfig
G:\Users\Jaxb\AppData\Local\Temp\ccmT3S8V.s:532    .text:00000144 $d
G:\Users\Jaxb\AppData\Local\Temp\ccmT3S8V.s:536    .text:00000148 $t
G:\Users\Jaxb\AppData\Local\Temp\ccmT3S8V.s:544    .text:00000148 SDIO_DataStructInit
G:\Users\Jaxb\AppData\Local\Temp\ccmT3S8V.s:574    .text:0000015c SDIO_GetDataCounter
G:\Users\Jaxb\AppData\Local\Temp\ccmT3S8V.s:589    .text:00000164 $d
G:\Users\Jaxb\AppData\Local\Temp\ccmT3S8V.s:593    .text:00000168 $t
G:\Users\Jaxb\AppData\Local\Temp\ccmT3S8V.s:601    .text:00000168 SDIO_ReadData
G:\Users\Jaxb\AppData\Local\Temp\ccmT3S8V.s:616    .text:00000170 $d
G:\Users\Jaxb\AppData\Local\Temp\ccmT3S8V.s:620    .text:00000174 $t
G:\Users\Jaxb\AppData\Local\Temp\ccmT3S8V.s:628    .text:00000174 SDIO_WriteData
G:\Users\Jaxb\AppData\Local\Temp\ccmT3S8V.s:644    .text:0000017c $d
G:\Users\Jaxb\AppData\Local\Temp\ccmT3S8V.s:648    .text:00000180 $t
G:\Users\Jaxb\AppData\Local\Temp\ccmT3S8V.s:656    .text:00000180 SDIO_GetFIFOCount
G:\Users\Jaxb\AppData\Local\Temp\ccmT3S8V.s:671    .text:00000188 $d
G:\Users\Jaxb\AppData\Local\Temp\ccmT3S8V.s:675    .text:0000018c $t
G:\Users\Jaxb\AppData\Local\Temp\ccmT3S8V.s:683    .text:0000018c SDIO_StartSDIOReadWait
G:\Users\Jaxb\AppData\Local\Temp\ccmT3S8V.s:699    .text:00000194 $d
G:\Users\Jaxb\AppData\Local\Temp\ccmT3S8V.s:703    .text:00000198 $t
G:\Users\Jaxb\AppData\Local\Temp\ccmT3S8V.s:711    .text:00000198 SDIO_StopSDIOReadWait
G:\Users\Jaxb\AppData\Local\Temp\ccmT3S8V.s:727    .text:000001a0 $d
G:\Users\Jaxb\AppData\Local\Temp\ccmT3S8V.s:731    .text:000001a4 $t
ARM GAS  G:\Users\Jaxb\AppData\Local\Temp\ccmT3S8V.s 			page 78


G:\Users\Jaxb\AppData\Local\Temp\ccmT3S8V.s:739    .text:000001a4 SDIO_SetSDIOReadWaitMode
G:\Users\Jaxb\AppData\Local\Temp\ccmT3S8V.s:755    .text:000001ac $d
G:\Users\Jaxb\AppData\Local\Temp\ccmT3S8V.s:759    .text:000001b0 $t
G:\Users\Jaxb\AppData\Local\Temp\ccmT3S8V.s:767    .text:000001b0 SDIO_SetSDIOOperation
G:\Users\Jaxb\AppData\Local\Temp\ccmT3S8V.s:783    .text:000001b8 $d
G:\Users\Jaxb\AppData\Local\Temp\ccmT3S8V.s:787    .text:000001bc $t
G:\Users\Jaxb\AppData\Local\Temp\ccmT3S8V.s:795    .text:000001bc SDIO_SendSDIOSuspendCmd
G:\Users\Jaxb\AppData\Local\Temp\ccmT3S8V.s:811    .text:000001c4 $d
G:\Users\Jaxb\AppData\Local\Temp\ccmT3S8V.s:815    .text:000001c8 $t
G:\Users\Jaxb\AppData\Local\Temp\ccmT3S8V.s:823    .text:000001c8 SDIO_CommandCompletionCmd
G:\Users\Jaxb\AppData\Local\Temp\ccmT3S8V.s:839    .text:000001d0 $d
G:\Users\Jaxb\AppData\Local\Temp\ccmT3S8V.s:843    .text:000001d4 $t
G:\Users\Jaxb\AppData\Local\Temp\ccmT3S8V.s:851    .text:000001d4 SDIO_CEATAITCmd
G:\Users\Jaxb\AppData\Local\Temp\ccmT3S8V.s:870    .text:000001e0 $d
G:\Users\Jaxb\AppData\Local\Temp\ccmT3S8V.s:874    .text:000001e4 $t
G:\Users\Jaxb\AppData\Local\Temp\ccmT3S8V.s:882    .text:000001e4 SDIO_SendCEATACmd
G:\Users\Jaxb\AppData\Local\Temp\ccmT3S8V.s:898    .text:000001ec $d
G:\Users\Jaxb\AppData\Local\Temp\ccmT3S8V.s:902    .text:000001f0 $t
G:\Users\Jaxb\AppData\Local\Temp\ccmT3S8V.s:910    .text:000001f0 SDIO_GetFlagStatus
G:\Users\Jaxb\AppData\Local\Temp\ccmT3S8V.s:932    .text:00000200 $d
G:\Users\Jaxb\AppData\Local\Temp\ccmT3S8V.s:936    .text:00000204 $t
G:\Users\Jaxb\AppData\Local\Temp\ccmT3S8V.s:944    .text:00000204 SDIO_ClearFlag
G:\Users\Jaxb\AppData\Local\Temp\ccmT3S8V.s:960    .text:0000020c $d
G:\Users\Jaxb\AppData\Local\Temp\ccmT3S8V.s:964    .text:00000210 $t
G:\Users\Jaxb\AppData\Local\Temp\ccmT3S8V.s:972    .text:00000210 SDIO_GetITStatus
G:\Users\Jaxb\AppData\Local\Temp\ccmT3S8V.s:990    .text:00000214 SDIO_ClearITPendingBit
G:\Users\Jaxb\AppData\Local\Temp\ccmT3S8V.s:1002   .text:0000021c $d

NO UNDEFINED SYMBOLS
