ARM GAS  G:\Users\Jaxb\AppData\Local\Temp\ccDtLbmi.s 			page 1


   1              		.cpu cortex-m3
   2              		.eabi_attribute 20, 1
   3              		.eabi_attribute 21, 1
   4              		.eabi_attribute 23, 3
   5              		.eabi_attribute 24, 1
   6              		.eabi_attribute 25, 1
   7              		.eabi_attribute 26, 1
   8              		.eabi_attribute 30, 2
   9              		.eabi_attribute 34, 1
  10              		.eabi_attribute 18, 4
  11              		.file	"stm32f10x_gpio.c"
  12              		.text
  13              	.Ltext0:
  14              		.cfi_sections	.debug_frame
  15              		.align	1
  16              		.p2align 2,,3
  17              		.global	GPIO_DeInit
  18              		.syntax unified
  19              		.thumb
  20              		.thumb_func
  21              		.fpu softvfp
  22              		.type	GPIO_DeInit, %function
  23              	GPIO_DeInit:
  24              	.LFB29:
  25              		.file 1 "../../source/src/FWlib/src/stm32f10x_gpio.c"
   1:../../source/src/FWlib/src/stm32f10x_gpio.c **** /**
   2:../../source/src/FWlib/src/stm32f10x_gpio.c ****   ******************************************************************************
   3:../../source/src/FWlib/src/stm32f10x_gpio.c ****   * @file    stm32f10x_gpio.c
   4:../../source/src/FWlib/src/stm32f10x_gpio.c ****   * @author  MCD Application Team
   5:../../source/src/FWlib/src/stm32f10x_gpio.c ****   * @version V3.5.0
   6:../../source/src/FWlib/src/stm32f10x_gpio.c ****   * @date    11-March-2011
   7:../../source/src/FWlib/src/stm32f10x_gpio.c ****   * @brief   This file provides all the GPIO firmware functions.
   8:../../source/src/FWlib/src/stm32f10x_gpio.c ****   ******************************************************************************
   9:../../source/src/FWlib/src/stm32f10x_gpio.c ****   * @attention
  10:../../source/src/FWlib/src/stm32f10x_gpio.c ****   *
  11:../../source/src/FWlib/src/stm32f10x_gpio.c ****   * THE PRESENT FIRMWARE WHICH IS FOR GUIDANCE ONLY AIMS AT PROVIDING CUSTOMERS
  12:../../source/src/FWlib/src/stm32f10x_gpio.c ****   * WITH CODING INFORMATION REGARDING THEIR PRODUCTS IN ORDER FOR THEM TO SAVE
  13:../../source/src/FWlib/src/stm32f10x_gpio.c ****   * TIME. AS A RESULT, STMICROELECTRONICS SHALL NOT BE HELD LIABLE FOR ANY
  14:../../source/src/FWlib/src/stm32f10x_gpio.c ****   * DIRECT, INDIRECT OR CONSEQUENTIAL DAMAGES WITH RESPECT TO ANY CLAIMS ARISING
  15:../../source/src/FWlib/src/stm32f10x_gpio.c ****   * FROM THE CONTENT OF SUCH FIRMWARE AND/OR THE USE MADE BY CUSTOMERS OF THE
  16:../../source/src/FWlib/src/stm32f10x_gpio.c ****   * CODING INFORMATION CONTAINED HEREIN IN CONNECTION WITH THEIR PRODUCTS.
  17:../../source/src/FWlib/src/stm32f10x_gpio.c ****   *
  18:../../source/src/FWlib/src/stm32f10x_gpio.c ****   * <h2><center>&copy; COPYRIGHT 2011 STMicroelectronics</center></h2>
  19:../../source/src/FWlib/src/stm32f10x_gpio.c ****   ******************************************************************************
  20:../../source/src/FWlib/src/stm32f10x_gpio.c ****   */
  21:../../source/src/FWlib/src/stm32f10x_gpio.c **** 
  22:../../source/src/FWlib/src/stm32f10x_gpio.c **** /* Includes ------------------------------------------------------------------*/
  23:../../source/src/FWlib/src/stm32f10x_gpio.c **** #include "stm32f10x_gpio.h"
  24:../../source/src/FWlib/src/stm32f10x_gpio.c **** #include "stm32f10x_rcc.h"
  25:../../source/src/FWlib/src/stm32f10x_gpio.c **** 
  26:../../source/src/FWlib/src/stm32f10x_gpio.c **** /** @addtogroup STM32F10x_StdPeriph_Driver
  27:../../source/src/FWlib/src/stm32f10x_gpio.c ****   * @{
  28:../../source/src/FWlib/src/stm32f10x_gpio.c ****   */
  29:../../source/src/FWlib/src/stm32f10x_gpio.c **** 
  30:../../source/src/FWlib/src/stm32f10x_gpio.c **** /** @defgroup GPIO 
  31:../../source/src/FWlib/src/stm32f10x_gpio.c ****   * @brief GPIO driver modules
  32:../../source/src/FWlib/src/stm32f10x_gpio.c ****   * @{
ARM GAS  G:\Users\Jaxb\AppData\Local\Temp\ccDtLbmi.s 			page 2


  33:../../source/src/FWlib/src/stm32f10x_gpio.c ****   */ 
  34:../../source/src/FWlib/src/stm32f10x_gpio.c **** 
  35:../../source/src/FWlib/src/stm32f10x_gpio.c **** /** @defgroup GPIO_Private_TypesDefinitions
  36:../../source/src/FWlib/src/stm32f10x_gpio.c ****   * @{
  37:../../source/src/FWlib/src/stm32f10x_gpio.c ****   */
  38:../../source/src/FWlib/src/stm32f10x_gpio.c **** 
  39:../../source/src/FWlib/src/stm32f10x_gpio.c **** /**
  40:../../source/src/FWlib/src/stm32f10x_gpio.c ****   * @}
  41:../../source/src/FWlib/src/stm32f10x_gpio.c ****   */
  42:../../source/src/FWlib/src/stm32f10x_gpio.c **** 
  43:../../source/src/FWlib/src/stm32f10x_gpio.c **** /** @defgroup GPIO_Private_Defines
  44:../../source/src/FWlib/src/stm32f10x_gpio.c ****   * @{
  45:../../source/src/FWlib/src/stm32f10x_gpio.c ****   */
  46:../../source/src/FWlib/src/stm32f10x_gpio.c **** 
  47:../../source/src/FWlib/src/stm32f10x_gpio.c **** /* ------------ RCC registers bit address in the alias region ----------------*/
  48:../../source/src/FWlib/src/stm32f10x_gpio.c **** #define AFIO_OFFSET                 (AFIO_BASE - PERIPH_BASE)
  49:../../source/src/FWlib/src/stm32f10x_gpio.c **** 
  50:../../source/src/FWlib/src/stm32f10x_gpio.c **** /* --- EVENTCR Register -----*/
  51:../../source/src/FWlib/src/stm32f10x_gpio.c **** 
  52:../../source/src/FWlib/src/stm32f10x_gpio.c **** /* Alias word address of EVOE bit */
  53:../../source/src/FWlib/src/stm32f10x_gpio.c **** #define EVCR_OFFSET                 (AFIO_OFFSET + 0x00)
  54:../../source/src/FWlib/src/stm32f10x_gpio.c **** #define EVOE_BitNumber              ((uint8_t)0x07)
  55:../../source/src/FWlib/src/stm32f10x_gpio.c **** #define EVCR_EVOE_BB                (PERIPH_BB_BASE + (EVCR_OFFSET * 32) + (EVOE_BitNumber * 4))
  56:../../source/src/FWlib/src/stm32f10x_gpio.c **** 
  57:../../source/src/FWlib/src/stm32f10x_gpio.c **** 
  58:../../source/src/FWlib/src/stm32f10x_gpio.c **** /* ---  MAPR Register ---*/ 
  59:../../source/src/FWlib/src/stm32f10x_gpio.c **** /* Alias word address of MII_RMII_SEL bit */ 
  60:../../source/src/FWlib/src/stm32f10x_gpio.c **** #define MAPR_OFFSET                 (AFIO_OFFSET + 0x04) 
  61:../../source/src/FWlib/src/stm32f10x_gpio.c **** #define MII_RMII_SEL_BitNumber      ((u8)0x17) 
  62:../../source/src/FWlib/src/stm32f10x_gpio.c **** #define MAPR_MII_RMII_SEL_BB        (PERIPH_BB_BASE + (MAPR_OFFSET * 32) + (MII_RMII_SEL_BitNumber 
  63:../../source/src/FWlib/src/stm32f10x_gpio.c **** 
  64:../../source/src/FWlib/src/stm32f10x_gpio.c **** 
  65:../../source/src/FWlib/src/stm32f10x_gpio.c **** #define EVCR_PORTPINCONFIG_MASK     ((uint16_t)0xFF80)
  66:../../source/src/FWlib/src/stm32f10x_gpio.c **** #define LSB_MASK                    ((uint16_t)0xFFFF)
  67:../../source/src/FWlib/src/stm32f10x_gpio.c **** #define DBGAFR_POSITION_MASK        ((uint32_t)0x000F0000)
  68:../../source/src/FWlib/src/stm32f10x_gpio.c **** #define DBGAFR_SWJCFG_MASK          ((uint32_t)0xF0FFFFFF)
  69:../../source/src/FWlib/src/stm32f10x_gpio.c **** #define DBGAFR_LOCATION_MASK        ((uint32_t)0x00200000)
  70:../../source/src/FWlib/src/stm32f10x_gpio.c **** #define DBGAFR_NUMBITS_MASK         ((uint32_t)0x00100000)
  71:../../source/src/FWlib/src/stm32f10x_gpio.c **** /**
  72:../../source/src/FWlib/src/stm32f10x_gpio.c ****   * @}
  73:../../source/src/FWlib/src/stm32f10x_gpio.c ****   */
  74:../../source/src/FWlib/src/stm32f10x_gpio.c **** 
  75:../../source/src/FWlib/src/stm32f10x_gpio.c **** /** @defgroup GPIO_Private_Macros
  76:../../source/src/FWlib/src/stm32f10x_gpio.c ****   * @{
  77:../../source/src/FWlib/src/stm32f10x_gpio.c ****   */
  78:../../source/src/FWlib/src/stm32f10x_gpio.c **** 
  79:../../source/src/FWlib/src/stm32f10x_gpio.c **** /**
  80:../../source/src/FWlib/src/stm32f10x_gpio.c ****   * @}
  81:../../source/src/FWlib/src/stm32f10x_gpio.c ****   */
  82:../../source/src/FWlib/src/stm32f10x_gpio.c **** 
  83:../../source/src/FWlib/src/stm32f10x_gpio.c **** /** @defgroup GPIO_Private_Variables
  84:../../source/src/FWlib/src/stm32f10x_gpio.c ****   * @{
  85:../../source/src/FWlib/src/stm32f10x_gpio.c ****   */
  86:../../source/src/FWlib/src/stm32f10x_gpio.c **** 
  87:../../source/src/FWlib/src/stm32f10x_gpio.c **** /**
  88:../../source/src/FWlib/src/stm32f10x_gpio.c ****   * @}
  89:../../source/src/FWlib/src/stm32f10x_gpio.c ****   */
ARM GAS  G:\Users\Jaxb\AppData\Local\Temp\ccDtLbmi.s 			page 3


  90:../../source/src/FWlib/src/stm32f10x_gpio.c **** 
  91:../../source/src/FWlib/src/stm32f10x_gpio.c **** /** @defgroup GPIO_Private_FunctionPrototypes
  92:../../source/src/FWlib/src/stm32f10x_gpio.c ****   * @{
  93:../../source/src/FWlib/src/stm32f10x_gpio.c ****   */
  94:../../source/src/FWlib/src/stm32f10x_gpio.c **** 
  95:../../source/src/FWlib/src/stm32f10x_gpio.c **** /**
  96:../../source/src/FWlib/src/stm32f10x_gpio.c ****   * @}
  97:../../source/src/FWlib/src/stm32f10x_gpio.c ****   */
  98:../../source/src/FWlib/src/stm32f10x_gpio.c **** 
  99:../../source/src/FWlib/src/stm32f10x_gpio.c **** /** @defgroup GPIO_Private_Functions
 100:../../source/src/FWlib/src/stm32f10x_gpio.c ****   * @{
 101:../../source/src/FWlib/src/stm32f10x_gpio.c ****   */
 102:../../source/src/FWlib/src/stm32f10x_gpio.c **** 
 103:../../source/src/FWlib/src/stm32f10x_gpio.c **** /**
 104:../../source/src/FWlib/src/stm32f10x_gpio.c ****   * @brief  Deinitializes the GPIOx peripheral registers to their default reset values.
 105:../../source/src/FWlib/src/stm32f10x_gpio.c ****   * @param  GPIOx: where x can be (A..G) to select the GPIO peripheral.
 106:../../source/src/FWlib/src/stm32f10x_gpio.c ****   * @retval None
 107:../../source/src/FWlib/src/stm32f10x_gpio.c ****   */
 108:../../source/src/FWlib/src/stm32f10x_gpio.c **** void GPIO_DeInit(GPIO_TypeDef* GPIOx)
 109:../../source/src/FWlib/src/stm32f10x_gpio.c **** {
  26              		.loc 1 109 0
  27              		.cfi_startproc
  28              		@ args = 0, pretend = 0, frame = 0
  29              		@ frame_needed = 0, uses_anonymous_args = 0
  30              	.LVL0:
  31 0000 08B5     		push	{r3, lr}
  32              	.LCFI0:
  33              		.cfi_def_cfa_offset 8
  34              		.cfi_offset 3, -8
  35              		.cfi_offset 14, -4
 110:../../source/src/FWlib/src/stm32f10x_gpio.c ****   /* Check the parameters */
 111:../../source/src/FWlib/src/stm32f10x_gpio.c ****   assert_param(IS_GPIO_ALL_PERIPH(GPIOx));
 112:../../source/src/FWlib/src/stm32f10x_gpio.c ****   
 113:../../source/src/FWlib/src/stm32f10x_gpio.c ****   if (GPIOx == GPIOA)
  36              		.loc 1 113 0
  37 0002 2F4B     		ldr	r3, .L17
  38 0004 9842     		cmp	r0, r3
  39 0006 1CD0     		beq	.L10
 114:../../source/src/FWlib/src/stm32f10x_gpio.c ****   {
 115:../../source/src/FWlib/src/stm32f10x_gpio.c ****     RCC_APB2PeriphResetCmd(RCC_APB2Periph_GPIOA, ENABLE);
 116:../../source/src/FWlib/src/stm32f10x_gpio.c ****     RCC_APB2PeriphResetCmd(RCC_APB2Periph_GPIOA, DISABLE);
 117:../../source/src/FWlib/src/stm32f10x_gpio.c ****   }
 118:../../source/src/FWlib/src/stm32f10x_gpio.c ****   else if (GPIOx == GPIOB)
  40              		.loc 1 118 0
  41 0008 2E4B     		ldr	r3, .L17+4
  42 000a 9842     		cmp	r0, r3
  43 000c 23D0     		beq	.L11
 119:../../source/src/FWlib/src/stm32f10x_gpio.c ****   {
 120:../../source/src/FWlib/src/stm32f10x_gpio.c ****     RCC_APB2PeriphResetCmd(RCC_APB2Periph_GPIOB, ENABLE);
 121:../../source/src/FWlib/src/stm32f10x_gpio.c ****     RCC_APB2PeriphResetCmd(RCC_APB2Periph_GPIOB, DISABLE);
 122:../../source/src/FWlib/src/stm32f10x_gpio.c ****   }
 123:../../source/src/FWlib/src/stm32f10x_gpio.c ****   else if (GPIOx == GPIOC)
  44              		.loc 1 123 0
  45 000e 2E4B     		ldr	r3, .L17+8
  46 0010 9842     		cmp	r0, r3
  47 0012 2AD0     		beq	.L12
 124:../../source/src/FWlib/src/stm32f10x_gpio.c ****   {
ARM GAS  G:\Users\Jaxb\AppData\Local\Temp\ccDtLbmi.s 			page 4


 125:../../source/src/FWlib/src/stm32f10x_gpio.c ****     RCC_APB2PeriphResetCmd(RCC_APB2Periph_GPIOC, ENABLE);
 126:../../source/src/FWlib/src/stm32f10x_gpio.c ****     RCC_APB2PeriphResetCmd(RCC_APB2Periph_GPIOC, DISABLE);
 127:../../source/src/FWlib/src/stm32f10x_gpio.c ****   }
 128:../../source/src/FWlib/src/stm32f10x_gpio.c ****   else if (GPIOx == GPIOD)
  48              		.loc 1 128 0
  49 0014 2D4B     		ldr	r3, .L17+12
  50 0016 9842     		cmp	r0, r3
  51 0018 31D0     		beq	.L13
 129:../../source/src/FWlib/src/stm32f10x_gpio.c ****   {
 130:../../source/src/FWlib/src/stm32f10x_gpio.c ****     RCC_APB2PeriphResetCmd(RCC_APB2Periph_GPIOD, ENABLE);
 131:../../source/src/FWlib/src/stm32f10x_gpio.c ****     RCC_APB2PeriphResetCmd(RCC_APB2Periph_GPIOD, DISABLE);
 132:../../source/src/FWlib/src/stm32f10x_gpio.c ****   }    
 133:../../source/src/FWlib/src/stm32f10x_gpio.c ****   else if (GPIOx == GPIOE)
  52              		.loc 1 133 0
  53 001a 2D4B     		ldr	r3, .L17+16
  54 001c 9842     		cmp	r0, r3
  55 001e 06D0     		beq	.L14
 134:../../source/src/FWlib/src/stm32f10x_gpio.c ****   {
 135:../../source/src/FWlib/src/stm32f10x_gpio.c ****     RCC_APB2PeriphResetCmd(RCC_APB2Periph_GPIOE, ENABLE);
 136:../../source/src/FWlib/src/stm32f10x_gpio.c ****     RCC_APB2PeriphResetCmd(RCC_APB2Periph_GPIOE, DISABLE);
 137:../../source/src/FWlib/src/stm32f10x_gpio.c ****   } 
 138:../../source/src/FWlib/src/stm32f10x_gpio.c ****   else if (GPIOx == GPIOF)
  56              		.loc 1 138 0
  57 0020 2C4B     		ldr	r3, .L17+20
  58 0022 9842     		cmp	r0, r3
  59 0024 41D0     		beq	.L15
 139:../../source/src/FWlib/src/stm32f10x_gpio.c ****   {
 140:../../source/src/FWlib/src/stm32f10x_gpio.c ****     RCC_APB2PeriphResetCmd(RCC_APB2Periph_GPIOF, ENABLE);
 141:../../source/src/FWlib/src/stm32f10x_gpio.c ****     RCC_APB2PeriphResetCmd(RCC_APB2Periph_GPIOF, DISABLE);
 142:../../source/src/FWlib/src/stm32f10x_gpio.c ****   }
 143:../../source/src/FWlib/src/stm32f10x_gpio.c ****   else
 144:../../source/src/FWlib/src/stm32f10x_gpio.c ****   {
 145:../../source/src/FWlib/src/stm32f10x_gpio.c ****     if (GPIOx == GPIOG)
  60              		.loc 1 145 0
  61 0026 2C4B     		ldr	r3, .L17+24
  62 0028 9842     		cmp	r0, r3
  63 002a 32D0     		beq	.L16
 146:../../source/src/FWlib/src/stm32f10x_gpio.c ****     {
 147:../../source/src/FWlib/src/stm32f10x_gpio.c ****       RCC_APB2PeriphResetCmd(RCC_APB2Periph_GPIOG, ENABLE);
 148:../../source/src/FWlib/src/stm32f10x_gpio.c ****       RCC_APB2PeriphResetCmd(RCC_APB2Periph_GPIOG, DISABLE);
 149:../../source/src/FWlib/src/stm32f10x_gpio.c ****     }
 150:../../source/src/FWlib/src/stm32f10x_gpio.c ****   }
 151:../../source/src/FWlib/src/stm32f10x_gpio.c **** }
  64              		.loc 1 151 0
  65 002c 08BD     		pop	{r3, pc}
  66              	.L14:
 135:../../source/src/FWlib/src/stm32f10x_gpio.c ****     RCC_APB2PeriphResetCmd(RCC_APB2Periph_GPIOE, DISABLE);
  67              		.loc 1 135 0
  68 002e 0121     		movs	r1, #1
  69 0030 4020     		movs	r0, #64
  70              	.LVL1:
  71 0032 FFF7FEFF 		bl	RCC_APB2PeriphResetCmd
  72              	.LVL2:
  73              		.loc 1 151 0
  74 0036 BDE80840 		pop	{r3, lr}
  75              	.LCFI1:
  76              		.cfi_remember_state
ARM GAS  G:\Users\Jaxb\AppData\Local\Temp\ccDtLbmi.s 			page 5


  77              		.cfi_restore 14
  78              		.cfi_restore 3
  79              		.cfi_def_cfa_offset 0
 136:../../source/src/FWlib/src/stm32f10x_gpio.c ****   } 
  80              		.loc 1 136 0
  81 003a 0021     		movs	r1, #0
  82 003c 4020     		movs	r0, #64
  83 003e FFF7FEBF 		b	RCC_APB2PeriphResetCmd
  84              	.LVL3:
  85              	.L10:
  86              	.LCFI2:
  87              		.cfi_restore_state
 115:../../source/src/FWlib/src/stm32f10x_gpio.c ****     RCC_APB2PeriphResetCmd(RCC_APB2Periph_GPIOA, DISABLE);
  88              		.loc 1 115 0
  89 0042 0121     		movs	r1, #1
  90 0044 0420     		movs	r0, #4
  91              	.LVL4:
  92 0046 FFF7FEFF 		bl	RCC_APB2PeriphResetCmd
  93              	.LVL5:
  94              		.loc 1 151 0
  95 004a BDE80840 		pop	{r3, lr}
  96              	.LCFI3:
  97              		.cfi_remember_state
  98              		.cfi_restore 14
  99              		.cfi_restore 3
 100              		.cfi_def_cfa_offset 0
 116:../../source/src/FWlib/src/stm32f10x_gpio.c ****   }
 101              		.loc 1 116 0
 102 004e 0021     		movs	r1, #0
 103 0050 0420     		movs	r0, #4
 104 0052 FFF7FEBF 		b	RCC_APB2PeriphResetCmd
 105              	.LVL6:
 106              	.L11:
 107              	.LCFI4:
 108              		.cfi_restore_state
 120:../../source/src/FWlib/src/stm32f10x_gpio.c ****     RCC_APB2PeriphResetCmd(RCC_APB2Periph_GPIOB, DISABLE);
 109              		.loc 1 120 0
 110 0056 0121     		movs	r1, #1
 111 0058 0820     		movs	r0, #8
 112              	.LVL7:
 113 005a FFF7FEFF 		bl	RCC_APB2PeriphResetCmd
 114              	.LVL8:
 115              		.loc 1 151 0
 116 005e BDE80840 		pop	{r3, lr}
 117              	.LCFI5:
 118              		.cfi_remember_state
 119              		.cfi_restore 14
 120              		.cfi_restore 3
 121              		.cfi_def_cfa_offset 0
 121:../../source/src/FWlib/src/stm32f10x_gpio.c ****   }
 122              		.loc 1 121 0
 123 0062 0021     		movs	r1, #0
 124 0064 0820     		movs	r0, #8
 125 0066 FFF7FEBF 		b	RCC_APB2PeriphResetCmd
 126              	.LVL9:
 127              	.L12:
 128              	.LCFI6:
ARM GAS  G:\Users\Jaxb\AppData\Local\Temp\ccDtLbmi.s 			page 6


 129              		.cfi_restore_state
 125:../../source/src/FWlib/src/stm32f10x_gpio.c ****     RCC_APB2PeriphResetCmd(RCC_APB2Periph_GPIOC, DISABLE);
 130              		.loc 1 125 0
 131 006a 0121     		movs	r1, #1
 132 006c 1020     		movs	r0, #16
 133              	.LVL10:
 134 006e FFF7FEFF 		bl	RCC_APB2PeriphResetCmd
 135              	.LVL11:
 136              		.loc 1 151 0
 137 0072 BDE80840 		pop	{r3, lr}
 138              	.LCFI7:
 139              		.cfi_remember_state
 140              		.cfi_restore 14
 141              		.cfi_restore 3
 142              		.cfi_def_cfa_offset 0
 126:../../source/src/FWlib/src/stm32f10x_gpio.c ****   }
 143              		.loc 1 126 0
 144 0076 0021     		movs	r1, #0
 145 0078 1020     		movs	r0, #16
 146 007a FFF7FEBF 		b	RCC_APB2PeriphResetCmd
 147              	.LVL12:
 148              	.L13:
 149              	.LCFI8:
 150              		.cfi_restore_state
 130:../../source/src/FWlib/src/stm32f10x_gpio.c ****     RCC_APB2PeriphResetCmd(RCC_APB2Periph_GPIOD, DISABLE);
 151              		.loc 1 130 0
 152 007e 0121     		movs	r1, #1
 153 0080 2020     		movs	r0, #32
 154              	.LVL13:
 155 0082 FFF7FEFF 		bl	RCC_APB2PeriphResetCmd
 156              	.LVL14:
 157              		.loc 1 151 0
 158 0086 BDE80840 		pop	{r3, lr}
 159              	.LCFI9:
 160              		.cfi_remember_state
 161              		.cfi_restore 14
 162              		.cfi_restore 3
 163              		.cfi_def_cfa_offset 0
 131:../../source/src/FWlib/src/stm32f10x_gpio.c ****   }    
 164              		.loc 1 131 0
 165 008a 0021     		movs	r1, #0
 166 008c 2020     		movs	r0, #32
 167 008e FFF7FEBF 		b	RCC_APB2PeriphResetCmd
 168              	.LVL15:
 169              	.L16:
 170              	.LCFI10:
 171              		.cfi_restore_state
 147:../../source/src/FWlib/src/stm32f10x_gpio.c ****       RCC_APB2PeriphResetCmd(RCC_APB2Periph_GPIOG, DISABLE);
 172              		.loc 1 147 0
 173 0092 0121     		movs	r1, #1
 174 0094 4FF48070 		mov	r0, #256
 175              	.LVL16:
 176 0098 FFF7FEFF 		bl	RCC_APB2PeriphResetCmd
 177              	.LVL17:
 178              		.loc 1 151 0
 179 009c BDE80840 		pop	{r3, lr}
 180              	.LCFI11:
ARM GAS  G:\Users\Jaxb\AppData\Local\Temp\ccDtLbmi.s 			page 7


 181              		.cfi_remember_state
 182              		.cfi_restore 14
 183              		.cfi_restore 3
 184              		.cfi_def_cfa_offset 0
 148:../../source/src/FWlib/src/stm32f10x_gpio.c ****     }
 185              		.loc 1 148 0
 186 00a0 0021     		movs	r1, #0
 187 00a2 4FF48070 		mov	r0, #256
 188 00a6 FFF7FEBF 		b	RCC_APB2PeriphResetCmd
 189              	.LVL18:
 190              	.L15:
 191              	.LCFI12:
 192              		.cfi_restore_state
 140:../../source/src/FWlib/src/stm32f10x_gpio.c ****     RCC_APB2PeriphResetCmd(RCC_APB2Periph_GPIOF, DISABLE);
 193              		.loc 1 140 0
 194 00aa 0121     		movs	r1, #1
 195 00ac 8020     		movs	r0, #128
 196              	.LVL19:
 197 00ae FFF7FEFF 		bl	RCC_APB2PeriphResetCmd
 198              	.LVL20:
 199              		.loc 1 151 0
 200 00b2 BDE80840 		pop	{r3, lr}
 201              	.LCFI13:
 202              		.cfi_restore 14
 203              		.cfi_restore 3
 204              		.cfi_def_cfa_offset 0
 141:../../source/src/FWlib/src/stm32f10x_gpio.c ****   }
 205              		.loc 1 141 0
 206 00b6 0021     		movs	r1, #0
 207 00b8 8020     		movs	r0, #128
 208 00ba FFF7FEBF 		b	RCC_APB2PeriphResetCmd
 209              	.LVL21:
 210              	.L18:
 211 00be 00BF     		.align	2
 212              	.L17:
 213 00c0 00080140 		.word	1073809408
 214 00c4 000C0140 		.word	1073810432
 215 00c8 00100140 		.word	1073811456
 216 00cc 00140140 		.word	1073812480
 217 00d0 00180140 		.word	1073813504
 218 00d4 001C0140 		.word	1073814528
 219 00d8 00200140 		.word	1073815552
 220              		.cfi_endproc
 221              	.LFE29:
 222              		.size	GPIO_DeInit, .-GPIO_DeInit
 223              		.align	1
 224              		.p2align 2,,3
 225              		.global	GPIO_AFIODeInit
 226              		.syntax unified
 227              		.thumb
 228              		.thumb_func
 229              		.fpu softvfp
 230              		.type	GPIO_AFIODeInit, %function
 231              	GPIO_AFIODeInit:
 232              	.LFB30:
 152:../../source/src/FWlib/src/stm32f10x_gpio.c **** 
 153:../../source/src/FWlib/src/stm32f10x_gpio.c **** /**
ARM GAS  G:\Users\Jaxb\AppData\Local\Temp\ccDtLbmi.s 			page 8


 154:../../source/src/FWlib/src/stm32f10x_gpio.c ****   * @brief  Deinitializes the Alternate Functions (remap, event control
 155:../../source/src/FWlib/src/stm32f10x_gpio.c ****   *   and EXTI configuration) registers to their default reset values.
 156:../../source/src/FWlib/src/stm32f10x_gpio.c ****   * @param  None
 157:../../source/src/FWlib/src/stm32f10x_gpio.c ****   * @retval None
 158:../../source/src/FWlib/src/stm32f10x_gpio.c ****   */
 159:../../source/src/FWlib/src/stm32f10x_gpio.c **** void GPIO_AFIODeInit(void)
 160:../../source/src/FWlib/src/stm32f10x_gpio.c **** {
 233              		.loc 1 160 0
 234              		.cfi_startproc
 235              		@ args = 0, pretend = 0, frame = 0
 236              		@ frame_needed = 0, uses_anonymous_args = 0
 161:../../source/src/FWlib/src/stm32f10x_gpio.c ****   RCC_APB2PeriphResetCmd(RCC_APB2Periph_AFIO, ENABLE);
 237              		.loc 1 161 0
 238 00dc 0121     		movs	r1, #1
 160:../../source/src/FWlib/src/stm32f10x_gpio.c ****   RCC_APB2PeriphResetCmd(RCC_APB2Periph_AFIO, ENABLE);
 239              		.loc 1 160 0
 240 00de 08B5     		push	{r3, lr}
 241              	.LCFI14:
 242              		.cfi_def_cfa_offset 8
 243              		.cfi_offset 3, -8
 244              		.cfi_offset 14, -4
 245              		.loc 1 161 0
 246 00e0 0846     		mov	r0, r1
 247 00e2 FFF7FEFF 		bl	RCC_APB2PeriphResetCmd
 248              	.LVL22:
 162:../../source/src/FWlib/src/stm32f10x_gpio.c ****   RCC_APB2PeriphResetCmd(RCC_APB2Periph_AFIO, DISABLE);
 163:../../source/src/FWlib/src/stm32f10x_gpio.c **** }
 249              		.loc 1 163 0
 250 00e6 BDE80840 		pop	{r3, lr}
 251              	.LCFI15:
 252              		.cfi_restore 14
 253              		.cfi_restore 3
 254              		.cfi_def_cfa_offset 0
 162:../../source/src/FWlib/src/stm32f10x_gpio.c ****   RCC_APB2PeriphResetCmd(RCC_APB2Periph_AFIO, DISABLE);
 255              		.loc 1 162 0
 256 00ea 0021     		movs	r1, #0
 257 00ec 0120     		movs	r0, #1
 258 00ee FFF7FEBF 		b	RCC_APB2PeriphResetCmd
 259              	.LVL23:
 260              		.cfi_endproc
 261              	.LFE30:
 262              		.size	GPIO_AFIODeInit, .-GPIO_AFIODeInit
 263              		.align	1
 264 00f2 00BF     		.p2align 2,,3
 265              		.global	GPIO_Init
 266              		.syntax unified
 267              		.thumb
 268              		.thumb_func
 269              		.fpu softvfp
 270              		.type	GPIO_Init, %function
 271              	GPIO_Init:
 272              	.LFB31:
 164:../../source/src/FWlib/src/stm32f10x_gpio.c **** 
 165:../../source/src/FWlib/src/stm32f10x_gpio.c **** /**
 166:../../source/src/FWlib/src/stm32f10x_gpio.c ****   * @brief  Initializes the GPIOx peripheral according to the specified
 167:../../source/src/FWlib/src/stm32f10x_gpio.c ****   *         parameters in the GPIO_InitStruct.
 168:../../source/src/FWlib/src/stm32f10x_gpio.c ****   * @param  GPIOx: where x can be (A..G) to select the GPIO peripheral.
ARM GAS  G:\Users\Jaxb\AppData\Local\Temp\ccDtLbmi.s 			page 9


 169:../../source/src/FWlib/src/stm32f10x_gpio.c ****   * @param  GPIO_InitStruct: pointer to a GPIO_InitTypeDef structure that
 170:../../source/src/FWlib/src/stm32f10x_gpio.c ****   *         contains the configuration information for the specified GPIO peripheral.
 171:../../source/src/FWlib/src/stm32f10x_gpio.c ****   * @retval None
 172:../../source/src/FWlib/src/stm32f10x_gpio.c ****   */
 173:../../source/src/FWlib/src/stm32f10x_gpio.c **** void GPIO_Init(GPIO_TypeDef* GPIOx, GPIO_InitTypeDef* GPIO_InitStruct)
 174:../../source/src/FWlib/src/stm32f10x_gpio.c **** {
 273              		.loc 1 174 0
 274              		.cfi_startproc
 275              		@ args = 0, pretend = 0, frame = 0
 276              		@ frame_needed = 0, uses_anonymous_args = 0
 277              	.LVL24:
 278 00f4 2DE9F041 		push	{r4, r5, r6, r7, r8, lr}
 279              	.LCFI16:
 280              		.cfi_def_cfa_offset 24
 281              		.cfi_offset 4, -24
 282              		.cfi_offset 5, -20
 283              		.cfi_offset 6, -16
 284              		.cfi_offset 7, -12
 285              		.cfi_offset 8, -8
 286              		.cfi_offset 14, -4
 175:../../source/src/FWlib/src/stm32f10x_gpio.c ****   uint32_t currentmode = 0x00, currentpin = 0x00, pinpos = 0x00, pos = 0x00;
 176:../../source/src/FWlib/src/stm32f10x_gpio.c ****   uint32_t tmpreg = 0x00, pinmask = 0x00;
 177:../../source/src/FWlib/src/stm32f10x_gpio.c ****   /* Check the parameters */
 178:../../source/src/FWlib/src/stm32f10x_gpio.c ****   assert_param(IS_GPIO_ALL_PERIPH(GPIOx));
 179:../../source/src/FWlib/src/stm32f10x_gpio.c ****   assert_param(IS_GPIO_MODE(GPIO_InitStruct->GPIO_Mode));
 180:../../source/src/FWlib/src/stm32f10x_gpio.c ****   assert_param(IS_GPIO_PIN(GPIO_InitStruct->GPIO_Pin));  
 181:../../source/src/FWlib/src/stm32f10x_gpio.c ****   
 182:../../source/src/FWlib/src/stm32f10x_gpio.c **** /*---------------------------- GPIO Mode Configuration -----------------------*/
 183:../../source/src/FWlib/src/stm32f10x_gpio.c ****   currentmode = ((uint32_t)GPIO_InitStruct->GPIO_Mode) & ((uint32_t)0x0F);
 287              		.loc 1 183 0
 288 00f8 CD78     		ldrb	r5, [r1, #3]	@ zero_extendqisi2
 184:../../source/src/FWlib/src/stm32f10x_gpio.c ****   if ((((uint32_t)GPIO_InitStruct->GPIO_Mode) & ((uint32_t)0x10)) != 0x00)
 289              		.loc 1 184 0
 290 00fa EB06     		lsls	r3, r5, #27
 291 00fc 48BF     		it	mi
 292 00fe 8B78     		ldrbmi	r3, [r1, #2]	@ zero_extendqisi2
 185:../../source/src/FWlib/src/stm32f10x_gpio.c ****   { 
 186:../../source/src/FWlib/src/stm32f10x_gpio.c ****     /* Check the parameters */
 187:../../source/src/FWlib/src/stm32f10x_gpio.c ****     assert_param(IS_GPIO_SPEED(GPIO_InitStruct->GPIO_Speed));
 188:../../source/src/FWlib/src/stm32f10x_gpio.c ****     /* Output mode */
 189:../../source/src/FWlib/src/stm32f10x_gpio.c ****     currentmode |= (uint32_t)GPIO_InitStruct->GPIO_Speed;
 190:../../source/src/FWlib/src/stm32f10x_gpio.c ****   }
 191:../../source/src/FWlib/src/stm32f10x_gpio.c **** /*---------------------------- GPIO CRL Configuration ------------------------*/
 192:../../source/src/FWlib/src/stm32f10x_gpio.c ****   /* Configure the eight low port pins */
 193:../../source/src/FWlib/src/stm32f10x_gpio.c ****   if (((uint32_t)GPIO_InitStruct->GPIO_Pin & ((uint32_t)0x00FF)) != 0x00)
 293              		.loc 1 193 0
 294 0100 0988     		ldrh	r1, [r1]
 295              	.LVL25:
 296 0102 05F00F07 		and	r7, r5, #15
 297              	.LVL26:
 298 0106 48BF     		it	mi
 299 0108 1F43     		orrmi	r7, r7, r3
 300              	.LVL27:
 301 010a 11F0FF0F 		tst	r1, #255
 302 010e 21D0     		beq	.L22
 194:../../source/src/FWlib/src/stm32f10x_gpio.c ****   {
 195:../../source/src/FWlib/src/stm32f10x_gpio.c ****     tmpreg = GPIOx->CRL;
ARM GAS  G:\Users\Jaxb\AppData\Local\Temp\ccDtLbmi.s 			page 10


 196:../../source/src/FWlib/src/stm32f10x_gpio.c ****     for (pinpos = 0x00; pinpos < 0x08; pinpos++)
 303              		.loc 1 196 0
 304 0110 0023     		movs	r3, #0
 305              	.LVL28:
 197:../../source/src/FWlib/src/stm32f10x_gpio.c ****     {
 198:../../source/src/FWlib/src/stm32f10x_gpio.c ****       pos = ((uint32_t)0x01) << pinpos;
 306              		.loc 1 198 0
 307 0112 4FF0010C 		mov	ip, #1
 199:../../source/src/FWlib/src/stm32f10x_gpio.c ****       /* Get the port pins position */
 200:../../source/src/FWlib/src/stm32f10x_gpio.c ****       currentpin = (GPIO_InitStruct->GPIO_Pin) & pos;
 201:../../source/src/FWlib/src/stm32f10x_gpio.c ****       if (currentpin == pos)
 202:../../source/src/FWlib/src/stm32f10x_gpio.c ****       {
 203:../../source/src/FWlib/src/stm32f10x_gpio.c ****         pos = pinpos << 2;
 204:../../source/src/FWlib/src/stm32f10x_gpio.c ****         /* Clear the corresponding low control register bits */
 205:../../source/src/FWlib/src/stm32f10x_gpio.c ****         pinmask = ((uint32_t)0x0F) << pos;
 308              		.loc 1 205 0
 309 0116 4FF00F08 		mov	r8, #15
 195:../../source/src/FWlib/src/stm32f10x_gpio.c ****     for (pinpos = 0x00; pinpos < 0x08; pinpos++)
 310              		.loc 1 195 0
 311 011a 0668     		ldr	r6, [r0]
 312              	.LVL29:
 313 011c 02E0     		b	.L25
 314              	.LVL30:
 315              	.L23:
 196:../../source/src/FWlib/src/stm32f10x_gpio.c ****     {
 316              		.loc 1 196 0 discriminator 2
 317 011e 0133     		adds	r3, r3, #1
 318              	.LVL31:
 319 0120 082B     		cmp	r3, #8
 320 0122 16D0     		beq	.L38
 321              	.LVL32:
 322              	.L25:
 198:../../source/src/FWlib/src/stm32f10x_gpio.c ****       /* Get the port pins position */
 323              		.loc 1 198 0
 324 0124 0CFA03F2 		lsl	r2, ip, r3
 325              	.LVL33:
 201:../../source/src/FWlib/src/stm32f10x_gpio.c ****       {
 326              		.loc 1 201 0
 327 0128 32EA0104 		bics	r4, r2, r1
 328 012c F7D1     		bne	.L23
 203:../../source/src/FWlib/src/stm32f10x_gpio.c ****         /* Clear the corresponding low control register bits */
 329              		.loc 1 203 0
 330 012e 9C00     		lsls	r4, r3, #2
 331              	.LVL34:
 332              		.loc 1 205 0
 333 0130 08FA04FE 		lsl	lr, r8, r4
 206:../../source/src/FWlib/src/stm32f10x_gpio.c ****         tmpreg &= ~pinmask;
 334              		.loc 1 206 0
 335 0134 26EA0E06 		bic	r6, r6, lr
 336              	.LVL35:
 207:../../source/src/FWlib/src/stm32f10x_gpio.c ****         /* Write the mode configuration in the corresponding bits */
 208:../../source/src/FWlib/src/stm32f10x_gpio.c ****         tmpreg |= (currentmode << pos);
 337              		.loc 1 208 0
 338 0138 07FA04F4 		lsl	r4, r7, r4
 339              	.LVL36:
 209:../../source/src/FWlib/src/stm32f10x_gpio.c ****         /* Reset the corresponding ODR bit */
 210:../../source/src/FWlib/src/stm32f10x_gpio.c ****         if (GPIO_InitStruct->GPIO_Mode == GPIO_Mode_IPD)
ARM GAS  G:\Users\Jaxb\AppData\Local\Temp\ccDtLbmi.s 			page 11


 340              		.loc 1 210 0
 341 013c 282D     		cmp	r5, #40
 208:../../source/src/FWlib/src/stm32f10x_gpio.c ****         /* Reset the corresponding ODR bit */
 342              		.loc 1 208 0
 343 013e 46EA0406 		orr	r6, r6, r4
 344              	.LVL37:
 345              		.loc 1 210 0
 346 0142 32D0     		beq	.L39
 211:../../source/src/FWlib/src/stm32f10x_gpio.c ****         {
 212:../../source/src/FWlib/src/stm32f10x_gpio.c ****           GPIOx->BRR = (((uint32_t)0x01) << pinpos);
 213:../../source/src/FWlib/src/stm32f10x_gpio.c ****         }
 214:../../source/src/FWlib/src/stm32f10x_gpio.c ****         else
 215:../../source/src/FWlib/src/stm32f10x_gpio.c ****         {
 216:../../source/src/FWlib/src/stm32f10x_gpio.c ****           /* Set the corresponding ODR bit */
 217:../../source/src/FWlib/src/stm32f10x_gpio.c ****           if (GPIO_InitStruct->GPIO_Mode == GPIO_Mode_IPU)
 347              		.loc 1 217 0
 348 0144 482D     		cmp	r5, #72
 196:../../source/src/FWlib/src/stm32f10x_gpio.c ****     {
 349              		.loc 1 196 0
 350 0146 03F10103 		add	r3, r3, #1
 351              	.LVL38:
 218:../../source/src/FWlib/src/stm32f10x_gpio.c ****           {
 219:../../source/src/FWlib/src/stm32f10x_gpio.c ****             GPIOx->BSRR = (((uint32_t)0x01) << pinpos);
 352              		.loc 1 219 0
 353 014a 08BF     		it	eq
 354 014c 0261     		streq	r2, [r0, #16]
 355              	.LVL39:
 196:../../source/src/FWlib/src/stm32f10x_gpio.c ****     {
 356              		.loc 1 196 0
 357 014e 082B     		cmp	r3, #8
 358 0150 E8D1     		bne	.L25
 359              	.LVL40:
 360              	.L38:
 220:../../source/src/FWlib/src/stm32f10x_gpio.c ****           }
 221:../../source/src/FWlib/src/stm32f10x_gpio.c ****         }
 222:../../source/src/FWlib/src/stm32f10x_gpio.c ****       }
 223:../../source/src/FWlib/src/stm32f10x_gpio.c ****     }
 224:../../source/src/FWlib/src/stm32f10x_gpio.c ****     GPIOx->CRL = tmpreg;
 361              		.loc 1 224 0
 362 0152 0660     		str	r6, [r0]
 363              	.LVL41:
 364              	.L22:
 225:../../source/src/FWlib/src/stm32f10x_gpio.c ****   }
 226:../../source/src/FWlib/src/stm32f10x_gpio.c **** /*---------------------------- GPIO CRH Configuration ------------------------*/
 227:../../source/src/FWlib/src/stm32f10x_gpio.c ****   /* Configure the eight high port pins */
 228:../../source/src/FWlib/src/stm32f10x_gpio.c ****   if (GPIO_InitStruct->GPIO_Pin > 0x00FF)
 365              		.loc 1 228 0
 366 0154 FF29     		cmp	r1, #255
 367 0156 24D9     		bls	.L20
 229:../../source/src/FWlib/src/stm32f10x_gpio.c ****   {
 230:../../source/src/FWlib/src/stm32f10x_gpio.c ****     tmpreg = GPIOx->CRH;
 368              		.loc 1 230 0
 369 0158 0823     		movs	r3, #8
 231:../../source/src/FWlib/src/stm32f10x_gpio.c ****     for (pinpos = 0x00; pinpos < 0x08; pinpos++)
 232:../../source/src/FWlib/src/stm32f10x_gpio.c ****     {
 233:../../source/src/FWlib/src/stm32f10x_gpio.c ****       pos = (((uint32_t)0x01) << (pinpos + 0x08));
 370              		.loc 1 233 0
ARM GAS  G:\Users\Jaxb\AppData\Local\Temp\ccDtLbmi.s 			page 12


 371 015a 4FF0010C 		mov	ip, #1
 234:../../source/src/FWlib/src/stm32f10x_gpio.c ****       /* Get the port pins position */
 235:../../source/src/FWlib/src/stm32f10x_gpio.c ****       currentpin = ((GPIO_InitStruct->GPIO_Pin) & pos);
 236:../../source/src/FWlib/src/stm32f10x_gpio.c ****       if (currentpin == pos)
 237:../../source/src/FWlib/src/stm32f10x_gpio.c ****       {
 238:../../source/src/FWlib/src/stm32f10x_gpio.c ****         pos = pinpos << 2;
 239:../../source/src/FWlib/src/stm32f10x_gpio.c ****         /* Clear the corresponding high control register bits */
 240:../../source/src/FWlib/src/stm32f10x_gpio.c ****         pinmask = ((uint32_t)0x0F) << pos;
 372              		.loc 1 240 0
 373 015e 4FF00F08 		mov	r8, #15
 230:../../source/src/FWlib/src/stm32f10x_gpio.c ****     for (pinpos = 0x00; pinpos < 0x08; pinpos++)
 374              		.loc 1 230 0
 375 0162 4668     		ldr	r6, [r0, #4]
 376              	.LVL42:
 377 0164 02E0     		b	.L29
 378              	.LVL43:
 379              	.L27:
 380 0166 0133     		adds	r3, r3, #1
 381              	.LVL44:
 231:../../source/src/FWlib/src/stm32f10x_gpio.c ****     for (pinpos = 0x00; pinpos < 0x08; pinpos++)
 382              		.loc 1 231 0 discriminator 2
 383 0168 102B     		cmp	r3, #16
 384 016a 19D0     		beq	.L40
 385              	.LVL45:
 386              	.L29:
 233:../../source/src/FWlib/src/stm32f10x_gpio.c ****       /* Get the port pins position */
 387              		.loc 1 233 0
 388 016c 0CFA03F4 		lsl	r4, ip, r3
 389              	.LVL46:
 236:../../source/src/FWlib/src/stm32f10x_gpio.c ****       {
 390              		.loc 1 236 0
 391 0170 34EA0102 		bics	r2, r4, r1
 392 0174 F7D1     		bne	.L27
 393 0176 03F18042 		add	r2, r3, #1073741824
 394 017a 083A     		subs	r2, r2, #8
 395 017c 9200     		lsls	r2, r2, #2
 396              	.LVL47:
 397              		.loc 1 240 0
 398 017e 08FA02FE 		lsl	lr, r8, r2
 241:../../source/src/FWlib/src/stm32f10x_gpio.c ****         tmpreg &= ~pinmask;
 399              		.loc 1 241 0
 400 0182 26EA0E06 		bic	r6, r6, lr
 401              	.LVL48:
 242:../../source/src/FWlib/src/stm32f10x_gpio.c ****         /* Write the mode configuration in the corresponding bits */
 243:../../source/src/FWlib/src/stm32f10x_gpio.c ****         tmpreg |= (currentmode << pos);
 402              		.loc 1 243 0
 403 0186 07FA02F2 		lsl	r2, r7, r2
 404              	.LVL49:
 244:../../source/src/FWlib/src/stm32f10x_gpio.c ****         /* Reset the corresponding ODR bit */
 245:../../source/src/FWlib/src/stm32f10x_gpio.c ****         if (GPIO_InitStruct->GPIO_Mode == GPIO_Mode_IPD)
 405              		.loc 1 245 0
 406 018a 282D     		cmp	r5, #40
 243:../../source/src/FWlib/src/stm32f10x_gpio.c ****         /* Reset the corresponding ODR bit */
 407              		.loc 1 243 0
 408 018c 46EA0206 		orr	r6, r6, r2
 409              	.LVL50:
 410              		.loc 1 245 0
ARM GAS  G:\Users\Jaxb\AppData\Local\Temp\ccDtLbmi.s 			page 13


 411 0190 09D0     		beq	.L41
 246:../../source/src/FWlib/src/stm32f10x_gpio.c ****         {
 247:../../source/src/FWlib/src/stm32f10x_gpio.c ****           GPIOx->BRR = (((uint32_t)0x01) << (pinpos + 0x08));
 248:../../source/src/FWlib/src/stm32f10x_gpio.c ****         }
 249:../../source/src/FWlib/src/stm32f10x_gpio.c ****         /* Set the corresponding ODR bit */
 250:../../source/src/FWlib/src/stm32f10x_gpio.c ****         if (GPIO_InitStruct->GPIO_Mode == GPIO_Mode_IPU)
 412              		.loc 1 250 0
 413 0192 482D     		cmp	r5, #72
 414 0194 03F10103 		add	r3, r3, #1
 415              	.LVL51:
 251:../../source/src/FWlib/src/stm32f10x_gpio.c ****         {
 252:../../source/src/FWlib/src/stm32f10x_gpio.c ****           GPIOx->BSRR = (((uint32_t)0x01) << (pinpos + 0x08));
 416              		.loc 1 252 0
 417 0198 08BF     		it	eq
 418 019a 0461     		streq	r4, [r0, #16]
 419              	.LVL52:
 231:../../source/src/FWlib/src/stm32f10x_gpio.c ****     {
 420              		.loc 1 231 0
 421 019c 102B     		cmp	r3, #16
 422 019e E5D1     		bne	.L29
 423              	.LVL53:
 424              	.L40:
 253:../../source/src/FWlib/src/stm32f10x_gpio.c ****         }
 254:../../source/src/FWlib/src/stm32f10x_gpio.c ****       }
 255:../../source/src/FWlib/src/stm32f10x_gpio.c ****     }
 256:../../source/src/FWlib/src/stm32f10x_gpio.c ****     GPIOx->CRH = tmpreg;
 425              		.loc 1 256 0
 426 01a0 4660     		str	r6, [r0, #4]
 427              	.LVL54:
 428              	.L20:
 257:../../source/src/FWlib/src/stm32f10x_gpio.c ****   }
 258:../../source/src/FWlib/src/stm32f10x_gpio.c **** }
 429              		.loc 1 258 0
 430 01a2 BDE8F081 		pop	{r4, r5, r6, r7, r8, pc}
 431              	.LVL55:
 432              	.L41:
 247:../../source/src/FWlib/src/stm32f10x_gpio.c ****         }
 433              		.loc 1 247 0
 434 01a6 4461     		str	r4, [r0, #20]
 435 01a8 DDE7     		b	.L27
 436              	.LVL56:
 437              	.L39:
 212:../../source/src/FWlib/src/stm32f10x_gpio.c ****         }
 438              		.loc 1 212 0
 439 01aa 4261     		str	r2, [r0, #20]
 440 01ac B7E7     		b	.L23
 441              		.cfi_endproc
 442              	.LFE31:
 443              		.size	GPIO_Init, .-GPIO_Init
 444              		.align	1
 445 01ae 00BF     		.p2align 2,,3
 446              		.global	GPIO_StructInit
 447              		.syntax unified
 448              		.thumb
 449              		.thumb_func
 450              		.fpu softvfp
 451              		.type	GPIO_StructInit, %function
ARM GAS  G:\Users\Jaxb\AppData\Local\Temp\ccDtLbmi.s 			page 14


 452              	GPIO_StructInit:
 453              	.LFB32:
 259:../../source/src/FWlib/src/stm32f10x_gpio.c **** 
 260:../../source/src/FWlib/src/stm32f10x_gpio.c **** /**
 261:../../source/src/FWlib/src/stm32f10x_gpio.c ****   * @brief  Fills each GPIO_InitStruct member with its default value.
 262:../../source/src/FWlib/src/stm32f10x_gpio.c ****   * @param  GPIO_InitStruct : pointer to a GPIO_InitTypeDef structure which will
 263:../../source/src/FWlib/src/stm32f10x_gpio.c ****   *         be initialized.
 264:../../source/src/FWlib/src/stm32f10x_gpio.c ****   * @retval None
 265:../../source/src/FWlib/src/stm32f10x_gpio.c ****   */
 266:../../source/src/FWlib/src/stm32f10x_gpio.c **** void GPIO_StructInit(GPIO_InitTypeDef* GPIO_InitStruct)
 267:../../source/src/FWlib/src/stm32f10x_gpio.c **** {
 454              		.loc 1 267 0
 455              		.cfi_startproc
 456              		@ args = 0, pretend = 0, frame = 0
 457              		@ frame_needed = 0, uses_anonymous_args = 0
 458              		@ link register save eliminated.
 459              	.LVL57:
 268:../../source/src/FWlib/src/stm32f10x_gpio.c ****   /* Reset GPIO init structure parameters values */
 269:../../source/src/FWlib/src/stm32f10x_gpio.c ****   GPIO_InitStruct->GPIO_Pin  = GPIO_Pin_All;
 460              		.loc 1 269 0
 461 01b0 4FF6FF71 		movw	r1, #65535
 270:../../source/src/FWlib/src/stm32f10x_gpio.c ****   GPIO_InitStruct->GPIO_Speed = GPIO_Speed_2MHz;
 462              		.loc 1 270 0
 463 01b4 0222     		movs	r2, #2
 271:../../source/src/FWlib/src/stm32f10x_gpio.c ****   GPIO_InitStruct->GPIO_Mode = GPIO_Mode_IN_FLOATING;
 464              		.loc 1 271 0
 465 01b6 0423     		movs	r3, #4
 269:../../source/src/FWlib/src/stm32f10x_gpio.c ****   GPIO_InitStruct->GPIO_Speed = GPIO_Speed_2MHz;
 466              		.loc 1 269 0
 467 01b8 0180     		strh	r1, [r0]	@ movhi
 270:../../source/src/FWlib/src/stm32f10x_gpio.c ****   GPIO_InitStruct->GPIO_Speed = GPIO_Speed_2MHz;
 468              		.loc 1 270 0
 469 01ba 8270     		strb	r2, [r0, #2]
 470              		.loc 1 271 0
 471 01bc C370     		strb	r3, [r0, #3]
 272:../../source/src/FWlib/src/stm32f10x_gpio.c **** }
 472              		.loc 1 272 0
 473 01be 7047     		bx	lr
 474              		.cfi_endproc
 475              	.LFE32:
 476              		.size	GPIO_StructInit, .-GPIO_StructInit
 477              		.align	1
 478              		.p2align 2,,3
 479              		.global	GPIO_ReadInputDataBit
 480              		.syntax unified
 481              		.thumb
 482              		.thumb_func
 483              		.fpu softvfp
 484              		.type	GPIO_ReadInputDataBit, %function
 485              	GPIO_ReadInputDataBit:
 486              	.LFB33:
 273:../../source/src/FWlib/src/stm32f10x_gpio.c **** 
 274:../../source/src/FWlib/src/stm32f10x_gpio.c **** /**
 275:../../source/src/FWlib/src/stm32f10x_gpio.c ****   * @brief  Reads the specified input port pin.
 276:../../source/src/FWlib/src/stm32f10x_gpio.c ****   * @param  GPIOx: where x can be (A..G) to select the GPIO peripheral.
 277:../../source/src/FWlib/src/stm32f10x_gpio.c ****   * @param  GPIO_Pin:  specifies the port bit to read.
 278:../../source/src/FWlib/src/stm32f10x_gpio.c ****   *   This parameter can be GPIO_Pin_x where x can be (0..15).
ARM GAS  G:\Users\Jaxb\AppData\Local\Temp\ccDtLbmi.s 			page 15


 279:../../source/src/FWlib/src/stm32f10x_gpio.c ****   * @retval The input port pin value.
 280:../../source/src/FWlib/src/stm32f10x_gpio.c ****   */
 281:../../source/src/FWlib/src/stm32f10x_gpio.c **** uint8_t GPIO_ReadInputDataBit(GPIO_TypeDef* GPIOx, uint16_t GPIO_Pin)
 282:../../source/src/FWlib/src/stm32f10x_gpio.c **** {
 487              		.loc 1 282 0
 488              		.cfi_startproc
 489              		@ args = 0, pretend = 0, frame = 0
 490              		@ frame_needed = 0, uses_anonymous_args = 0
 491              		@ link register save eliminated.
 492              	.LVL58:
 283:../../source/src/FWlib/src/stm32f10x_gpio.c ****   uint8_t bitstatus = 0x00;
 284:../../source/src/FWlib/src/stm32f10x_gpio.c ****   
 285:../../source/src/FWlib/src/stm32f10x_gpio.c ****   /* Check the parameters */
 286:../../source/src/FWlib/src/stm32f10x_gpio.c ****   assert_param(IS_GPIO_ALL_PERIPH(GPIOx));
 287:../../source/src/FWlib/src/stm32f10x_gpio.c ****   assert_param(IS_GET_GPIO_PIN(GPIO_Pin)); 
 288:../../source/src/FWlib/src/stm32f10x_gpio.c ****   
 289:../../source/src/FWlib/src/stm32f10x_gpio.c ****   if ((GPIOx->IDR & GPIO_Pin) != (uint32_t)Bit_RESET)
 493              		.loc 1 289 0
 494 01c0 8368     		ldr	r3, [r0, #8]
 495              	.LVL59:
 496 01c2 1942     		tst	r1, r3
 290:../../source/src/FWlib/src/stm32f10x_gpio.c ****   {
 291:../../source/src/FWlib/src/stm32f10x_gpio.c ****     bitstatus = (uint8_t)Bit_SET;
 292:../../source/src/FWlib/src/stm32f10x_gpio.c ****   }
 293:../../source/src/FWlib/src/stm32f10x_gpio.c ****   else
 294:../../source/src/FWlib/src/stm32f10x_gpio.c ****   {
 295:../../source/src/FWlib/src/stm32f10x_gpio.c ****     bitstatus = (uint8_t)Bit_RESET;
 296:../../source/src/FWlib/src/stm32f10x_gpio.c ****   }
 297:../../source/src/FWlib/src/stm32f10x_gpio.c ****   return bitstatus;
 298:../../source/src/FWlib/src/stm32f10x_gpio.c **** }
 497              		.loc 1 298 0
 498 01c4 14BF     		ite	ne
 499 01c6 0120     		movne	r0, #1
 500              	.LVL60:
 501 01c8 0020     		moveq	r0, #0
 502 01ca 7047     		bx	lr
 503              		.cfi_endproc
 504              	.LFE33:
 505              		.size	GPIO_ReadInputDataBit, .-GPIO_ReadInputDataBit
 506              		.align	1
 507              		.p2align 2,,3
 508              		.global	GPIO_ReadInputData
 509              		.syntax unified
 510              		.thumb
 511              		.thumb_func
 512              		.fpu softvfp
 513              		.type	GPIO_ReadInputData, %function
 514              	GPIO_ReadInputData:
 515              	.LFB34:
 299:../../source/src/FWlib/src/stm32f10x_gpio.c **** 
 300:../../source/src/FWlib/src/stm32f10x_gpio.c **** /**
 301:../../source/src/FWlib/src/stm32f10x_gpio.c ****   * @brief  Reads the specified GPIO input data port.
 302:../../source/src/FWlib/src/stm32f10x_gpio.c ****   * @param  GPIOx: where x can be (A..G) to select the GPIO peripheral.
 303:../../source/src/FWlib/src/stm32f10x_gpio.c ****   * @retval GPIO input data port value.
 304:../../source/src/FWlib/src/stm32f10x_gpio.c ****   */
 305:../../source/src/FWlib/src/stm32f10x_gpio.c **** uint16_t GPIO_ReadInputData(GPIO_TypeDef* GPIOx)
 306:../../source/src/FWlib/src/stm32f10x_gpio.c **** {
ARM GAS  G:\Users\Jaxb\AppData\Local\Temp\ccDtLbmi.s 			page 16


 516              		.loc 1 306 0
 517              		.cfi_startproc
 518              		@ args = 0, pretend = 0, frame = 0
 519              		@ frame_needed = 0, uses_anonymous_args = 0
 520              		@ link register save eliminated.
 521              	.LVL61:
 307:../../source/src/FWlib/src/stm32f10x_gpio.c ****   /* Check the parameters */
 308:../../source/src/FWlib/src/stm32f10x_gpio.c ****   assert_param(IS_GPIO_ALL_PERIPH(GPIOx));
 309:../../source/src/FWlib/src/stm32f10x_gpio.c ****   
 310:../../source/src/FWlib/src/stm32f10x_gpio.c ****   return ((uint16_t)GPIOx->IDR);
 522              		.loc 1 310 0
 523 01cc 8068     		ldr	r0, [r0, #8]
 524              	.LVL62:
 311:../../source/src/FWlib/src/stm32f10x_gpio.c **** }
 525              		.loc 1 311 0
 526 01ce 80B2     		uxth	r0, r0
 527 01d0 7047     		bx	lr
 528              		.cfi_endproc
 529              	.LFE34:
 530              		.size	GPIO_ReadInputData, .-GPIO_ReadInputData
 531              		.align	1
 532 01d2 00BF     		.p2align 2,,3
 533              		.global	GPIO_ReadOutputDataBit
 534              		.syntax unified
 535              		.thumb
 536              		.thumb_func
 537              		.fpu softvfp
 538              		.type	GPIO_ReadOutputDataBit, %function
 539              	GPIO_ReadOutputDataBit:
 540              	.LFB35:
 312:../../source/src/FWlib/src/stm32f10x_gpio.c **** 
 313:../../source/src/FWlib/src/stm32f10x_gpio.c **** /**
 314:../../source/src/FWlib/src/stm32f10x_gpio.c ****   * @brief  Reads the specified output data port bit.
 315:../../source/src/FWlib/src/stm32f10x_gpio.c ****   * @param  GPIOx: where x can be (A..G) to select the GPIO peripheral.
 316:../../source/src/FWlib/src/stm32f10x_gpio.c ****   * @param  GPIO_Pin:  specifies the port bit to read.
 317:../../source/src/FWlib/src/stm32f10x_gpio.c ****   *   This parameter can be GPIO_Pin_x where x can be (0..15).
 318:../../source/src/FWlib/src/stm32f10x_gpio.c ****   * @retval The output port pin value.
 319:../../source/src/FWlib/src/stm32f10x_gpio.c ****   */
 320:../../source/src/FWlib/src/stm32f10x_gpio.c **** uint8_t GPIO_ReadOutputDataBit(GPIO_TypeDef* GPIOx, uint16_t GPIO_Pin)
 321:../../source/src/FWlib/src/stm32f10x_gpio.c **** {
 541              		.loc 1 321 0
 542              		.cfi_startproc
 543              		@ args = 0, pretend = 0, frame = 0
 544              		@ frame_needed = 0, uses_anonymous_args = 0
 545              		@ link register save eliminated.
 546              	.LVL63:
 322:../../source/src/FWlib/src/stm32f10x_gpio.c ****   uint8_t bitstatus = 0x00;
 323:../../source/src/FWlib/src/stm32f10x_gpio.c ****   /* Check the parameters */
 324:../../source/src/FWlib/src/stm32f10x_gpio.c ****   assert_param(IS_GPIO_ALL_PERIPH(GPIOx));
 325:../../source/src/FWlib/src/stm32f10x_gpio.c ****   assert_param(IS_GET_GPIO_PIN(GPIO_Pin)); 
 326:../../source/src/FWlib/src/stm32f10x_gpio.c ****   
 327:../../source/src/FWlib/src/stm32f10x_gpio.c ****   if ((GPIOx->ODR & GPIO_Pin) != (uint32_t)Bit_RESET)
 547              		.loc 1 327 0
 548 01d4 C368     		ldr	r3, [r0, #12]
 549              	.LVL64:
 550 01d6 1942     		tst	r1, r3
 328:../../source/src/FWlib/src/stm32f10x_gpio.c ****   {
ARM GAS  G:\Users\Jaxb\AppData\Local\Temp\ccDtLbmi.s 			page 17


 329:../../source/src/FWlib/src/stm32f10x_gpio.c ****     bitstatus = (uint8_t)Bit_SET;
 330:../../source/src/FWlib/src/stm32f10x_gpio.c ****   }
 331:../../source/src/FWlib/src/stm32f10x_gpio.c ****   else
 332:../../source/src/FWlib/src/stm32f10x_gpio.c ****   {
 333:../../source/src/FWlib/src/stm32f10x_gpio.c ****     bitstatus = (uint8_t)Bit_RESET;
 334:../../source/src/FWlib/src/stm32f10x_gpio.c ****   }
 335:../../source/src/FWlib/src/stm32f10x_gpio.c ****   return bitstatus;
 336:../../source/src/FWlib/src/stm32f10x_gpio.c **** }
 551              		.loc 1 336 0
 552 01d8 14BF     		ite	ne
 553 01da 0120     		movne	r0, #1
 554              	.LVL65:
 555 01dc 0020     		moveq	r0, #0
 556 01de 7047     		bx	lr
 557              		.cfi_endproc
 558              	.LFE35:
 559              		.size	GPIO_ReadOutputDataBit, .-GPIO_ReadOutputDataBit
 560              		.align	1
 561              		.p2align 2,,3
 562              		.global	GPIO_ReadOutputData
 563              		.syntax unified
 564              		.thumb
 565              		.thumb_func
 566              		.fpu softvfp
 567              		.type	GPIO_ReadOutputData, %function
 568              	GPIO_ReadOutputData:
 569              	.LFB36:
 337:../../source/src/FWlib/src/stm32f10x_gpio.c **** 
 338:../../source/src/FWlib/src/stm32f10x_gpio.c **** /**
 339:../../source/src/FWlib/src/stm32f10x_gpio.c ****   * @brief  Reads the specified GPIO output data port.
 340:../../source/src/FWlib/src/stm32f10x_gpio.c ****   * @param  GPIOx: where x can be (A..G) to select the GPIO peripheral.
 341:../../source/src/FWlib/src/stm32f10x_gpio.c ****   * @retval GPIO output data port value.
 342:../../source/src/FWlib/src/stm32f10x_gpio.c ****   */
 343:../../source/src/FWlib/src/stm32f10x_gpio.c **** uint16_t GPIO_ReadOutputData(GPIO_TypeDef* GPIOx)
 344:../../source/src/FWlib/src/stm32f10x_gpio.c **** {
 570              		.loc 1 344 0
 571              		.cfi_startproc
 572              		@ args = 0, pretend = 0, frame = 0
 573              		@ frame_needed = 0, uses_anonymous_args = 0
 574              		@ link register save eliminated.
 575              	.LVL66:
 345:../../source/src/FWlib/src/stm32f10x_gpio.c ****   /* Check the parameters */
 346:../../source/src/FWlib/src/stm32f10x_gpio.c ****   assert_param(IS_GPIO_ALL_PERIPH(GPIOx));
 347:../../source/src/FWlib/src/stm32f10x_gpio.c ****     
 348:../../source/src/FWlib/src/stm32f10x_gpio.c ****   return ((uint16_t)GPIOx->ODR);
 576              		.loc 1 348 0
 577 01e0 C068     		ldr	r0, [r0, #12]
 578              	.LVL67:
 349:../../source/src/FWlib/src/stm32f10x_gpio.c **** }
 579              		.loc 1 349 0
 580 01e2 80B2     		uxth	r0, r0
 581 01e4 7047     		bx	lr
 582              		.cfi_endproc
 583              	.LFE36:
 584              		.size	GPIO_ReadOutputData, .-GPIO_ReadOutputData
 585              		.align	1
 586 01e6 00BF     		.p2align 2,,3
ARM GAS  G:\Users\Jaxb\AppData\Local\Temp\ccDtLbmi.s 			page 18


 587              		.global	GPIO_SetBits
 588              		.syntax unified
 589              		.thumb
 590              		.thumb_func
 591              		.fpu softvfp
 592              		.type	GPIO_SetBits, %function
 593              	GPIO_SetBits:
 594              	.LFB37:
 350:../../source/src/FWlib/src/stm32f10x_gpio.c **** 
 351:../../source/src/FWlib/src/stm32f10x_gpio.c **** /**
 352:../../source/src/FWlib/src/stm32f10x_gpio.c ****   * @brief  Sets the selected data port bits.
 353:../../source/src/FWlib/src/stm32f10x_gpio.c ****   * @param  GPIOx: where x can be (A..G) to select the GPIO peripheral.
 354:../../source/src/FWlib/src/stm32f10x_gpio.c ****   * @param  GPIO_Pin: specifies the port bits to be written.
 355:../../source/src/FWlib/src/stm32f10x_gpio.c ****   *   This parameter can be any combination of GPIO_Pin_x where x can be (0..15).
 356:../../source/src/FWlib/src/stm32f10x_gpio.c ****   * @retval None
 357:../../source/src/FWlib/src/stm32f10x_gpio.c ****   */
 358:../../source/src/FWlib/src/stm32f10x_gpio.c **** void GPIO_SetBits(GPIO_TypeDef* GPIOx, uint16_t GPIO_Pin)
 359:../../source/src/FWlib/src/stm32f10x_gpio.c **** {
 595              		.loc 1 359 0
 596              		.cfi_startproc
 597              		@ args = 0, pretend = 0, frame = 0
 598              		@ frame_needed = 0, uses_anonymous_args = 0
 599              		@ link register save eliminated.
 600              	.LVL68:
 360:../../source/src/FWlib/src/stm32f10x_gpio.c ****   /* Check the parameters */
 361:../../source/src/FWlib/src/stm32f10x_gpio.c ****   assert_param(IS_GPIO_ALL_PERIPH(GPIOx));
 362:../../source/src/FWlib/src/stm32f10x_gpio.c ****   assert_param(IS_GPIO_PIN(GPIO_Pin));
 363:../../source/src/FWlib/src/stm32f10x_gpio.c ****   
 364:../../source/src/FWlib/src/stm32f10x_gpio.c ****   GPIOx->BSRR = GPIO_Pin;
 601              		.loc 1 364 0
 602 01e8 0161     		str	r1, [r0, #16]
 365:../../source/src/FWlib/src/stm32f10x_gpio.c **** }
 603              		.loc 1 365 0
 604 01ea 7047     		bx	lr
 605              		.cfi_endproc
 606              	.LFE37:
 607              		.size	GPIO_SetBits, .-GPIO_SetBits
 608              		.align	1
 609              		.p2align 2,,3
 610              		.global	GPIO_ResetBits
 611              		.syntax unified
 612              		.thumb
 613              		.thumb_func
 614              		.fpu softvfp
 615              		.type	GPIO_ResetBits, %function
 616              	GPIO_ResetBits:
 617              	.LFB38:
 366:../../source/src/FWlib/src/stm32f10x_gpio.c **** 
 367:../../source/src/FWlib/src/stm32f10x_gpio.c **** /**
 368:../../source/src/FWlib/src/stm32f10x_gpio.c ****   * @brief  Clears the selected data port bits.
 369:../../source/src/FWlib/src/stm32f10x_gpio.c ****   * @param  GPIOx: where x can be (A..G) to select the GPIO peripheral.
 370:../../source/src/FWlib/src/stm32f10x_gpio.c ****   * @param  GPIO_Pin: specifies the port bits to be written.
 371:../../source/src/FWlib/src/stm32f10x_gpio.c ****   *   This parameter can be any combination of GPIO_Pin_x where x can be (0..15).
 372:../../source/src/FWlib/src/stm32f10x_gpio.c ****   * @retval None
 373:../../source/src/FWlib/src/stm32f10x_gpio.c ****   */
 374:../../source/src/FWlib/src/stm32f10x_gpio.c **** void GPIO_ResetBits(GPIO_TypeDef* GPIOx, uint16_t GPIO_Pin)
 375:../../source/src/FWlib/src/stm32f10x_gpio.c **** {
ARM GAS  G:\Users\Jaxb\AppData\Local\Temp\ccDtLbmi.s 			page 19


 618              		.loc 1 375 0
 619              		.cfi_startproc
 620              		@ args = 0, pretend = 0, frame = 0
 621              		@ frame_needed = 0, uses_anonymous_args = 0
 622              		@ link register save eliminated.
 623              	.LVL69:
 376:../../source/src/FWlib/src/stm32f10x_gpio.c ****   /* Check the parameters */
 377:../../source/src/FWlib/src/stm32f10x_gpio.c ****   assert_param(IS_GPIO_ALL_PERIPH(GPIOx));
 378:../../source/src/FWlib/src/stm32f10x_gpio.c ****   assert_param(IS_GPIO_PIN(GPIO_Pin));
 379:../../source/src/FWlib/src/stm32f10x_gpio.c ****   
 380:../../source/src/FWlib/src/stm32f10x_gpio.c ****   GPIOx->BRR = GPIO_Pin;
 624              		.loc 1 380 0
 625 01ec 4161     		str	r1, [r0, #20]
 381:../../source/src/FWlib/src/stm32f10x_gpio.c **** }
 626              		.loc 1 381 0
 627 01ee 7047     		bx	lr
 628              		.cfi_endproc
 629              	.LFE38:
 630              		.size	GPIO_ResetBits, .-GPIO_ResetBits
 631              		.align	1
 632              		.p2align 2,,3
 633              		.global	GPIO_WriteBit
 634              		.syntax unified
 635              		.thumb
 636              		.thumb_func
 637              		.fpu softvfp
 638              		.type	GPIO_WriteBit, %function
 639              	GPIO_WriteBit:
 640              	.LFB39:
 382:../../source/src/FWlib/src/stm32f10x_gpio.c **** 
 383:../../source/src/FWlib/src/stm32f10x_gpio.c **** /**
 384:../../source/src/FWlib/src/stm32f10x_gpio.c ****   * @brief  Sets or clears the selected data port bit.
 385:../../source/src/FWlib/src/stm32f10x_gpio.c ****   * @param  GPIOx: where x can be (A..G) to select the GPIO peripheral.
 386:../../source/src/FWlib/src/stm32f10x_gpio.c ****   * @param  GPIO_Pin: specifies the port bit to be written.
 387:../../source/src/FWlib/src/stm32f10x_gpio.c ****   *   This parameter can be one of GPIO_Pin_x where x can be (0..15).
 388:../../source/src/FWlib/src/stm32f10x_gpio.c ****   * @param  BitVal: specifies the value to be written to the selected bit.
 389:../../source/src/FWlib/src/stm32f10x_gpio.c ****   *   This parameter can be one of the BitAction enum values:
 390:../../source/src/FWlib/src/stm32f10x_gpio.c ****   *     @arg Bit_RESET: to clear the port pin
 391:../../source/src/FWlib/src/stm32f10x_gpio.c ****   *     @arg Bit_SET: to set the port pin
 392:../../source/src/FWlib/src/stm32f10x_gpio.c ****   * @retval None
 393:../../source/src/FWlib/src/stm32f10x_gpio.c ****   */
 394:../../source/src/FWlib/src/stm32f10x_gpio.c **** void GPIO_WriteBit(GPIO_TypeDef* GPIOx, uint16_t GPIO_Pin, BitAction BitVal)
 395:../../source/src/FWlib/src/stm32f10x_gpio.c **** {
 641              		.loc 1 395 0
 642              		.cfi_startproc
 643              		@ args = 0, pretend = 0, frame = 0
 644              		@ frame_needed = 0, uses_anonymous_args = 0
 645              		@ link register save eliminated.
 646              	.LVL70:
 396:../../source/src/FWlib/src/stm32f10x_gpio.c ****   /* Check the parameters */
 397:../../source/src/FWlib/src/stm32f10x_gpio.c ****   assert_param(IS_GPIO_ALL_PERIPH(GPIOx));
 398:../../source/src/FWlib/src/stm32f10x_gpio.c ****   assert_param(IS_GET_GPIO_PIN(GPIO_Pin));
 399:../../source/src/FWlib/src/stm32f10x_gpio.c ****   assert_param(IS_GPIO_BIT_ACTION(BitVal)); 
 400:../../source/src/FWlib/src/stm32f10x_gpio.c ****   
 401:../../source/src/FWlib/src/stm32f10x_gpio.c ****   if (BitVal != Bit_RESET)
 647              		.loc 1 401 0
 648 01f0 0AB9     		cbnz	r2, .L52
ARM GAS  G:\Users\Jaxb\AppData\Local\Temp\ccDtLbmi.s 			page 20


 402:../../source/src/FWlib/src/stm32f10x_gpio.c ****   {
 403:../../source/src/FWlib/src/stm32f10x_gpio.c ****     GPIOx->BSRR = GPIO_Pin;
 404:../../source/src/FWlib/src/stm32f10x_gpio.c ****   }
 405:../../source/src/FWlib/src/stm32f10x_gpio.c ****   else
 406:../../source/src/FWlib/src/stm32f10x_gpio.c ****   {
 407:../../source/src/FWlib/src/stm32f10x_gpio.c ****     GPIOx->BRR = GPIO_Pin;
 649              		.loc 1 407 0
 650 01f2 4161     		str	r1, [r0, #20]
 408:../../source/src/FWlib/src/stm32f10x_gpio.c ****   }
 409:../../source/src/FWlib/src/stm32f10x_gpio.c **** }
 651              		.loc 1 409 0
 652 01f4 7047     		bx	lr
 653              	.L52:
 403:../../source/src/FWlib/src/stm32f10x_gpio.c ****   }
 654              		.loc 1 403 0
 655 01f6 0161     		str	r1, [r0, #16]
 656 01f8 7047     		bx	lr
 657              		.cfi_endproc
 658              	.LFE39:
 659              		.size	GPIO_WriteBit, .-GPIO_WriteBit
 660              		.align	1
 661 01fa 00BF     		.p2align 2,,3
 662              		.global	GPIO_Write
 663              		.syntax unified
 664              		.thumb
 665              		.thumb_func
 666              		.fpu softvfp
 667              		.type	GPIO_Write, %function
 668              	GPIO_Write:
 669              	.LFB40:
 410:../../source/src/FWlib/src/stm32f10x_gpio.c **** 
 411:../../source/src/FWlib/src/stm32f10x_gpio.c **** /**
 412:../../source/src/FWlib/src/stm32f10x_gpio.c ****   * @brief  Writes data to the specified GPIO data port.
 413:../../source/src/FWlib/src/stm32f10x_gpio.c ****   * @param  GPIOx: where x can be (A..G) to select the GPIO peripheral.
 414:../../source/src/FWlib/src/stm32f10x_gpio.c ****   * @param  PortVal: specifies the value to be written to the port output data register.
 415:../../source/src/FWlib/src/stm32f10x_gpio.c ****   * @retval None
 416:../../source/src/FWlib/src/stm32f10x_gpio.c ****   */
 417:../../source/src/FWlib/src/stm32f10x_gpio.c **** void GPIO_Write(GPIO_TypeDef* GPIOx, uint16_t PortVal)
 418:../../source/src/FWlib/src/stm32f10x_gpio.c **** {
 670              		.loc 1 418 0
 671              		.cfi_startproc
 672              		@ args = 0, pretend = 0, frame = 0
 673              		@ frame_needed = 0, uses_anonymous_args = 0
 674              		@ link register save eliminated.
 675              	.LVL71:
 419:../../source/src/FWlib/src/stm32f10x_gpio.c ****   /* Check the parameters */
 420:../../source/src/FWlib/src/stm32f10x_gpio.c ****   assert_param(IS_GPIO_ALL_PERIPH(GPIOx));
 421:../../source/src/FWlib/src/stm32f10x_gpio.c ****   
 422:../../source/src/FWlib/src/stm32f10x_gpio.c ****   GPIOx->ODR = PortVal;
 676              		.loc 1 422 0
 677 01fc C160     		str	r1, [r0, #12]
 423:../../source/src/FWlib/src/stm32f10x_gpio.c **** }
 678              		.loc 1 423 0
 679 01fe 7047     		bx	lr
 680              		.cfi_endproc
 681              	.LFE40:
 682              		.size	GPIO_Write, .-GPIO_Write
ARM GAS  G:\Users\Jaxb\AppData\Local\Temp\ccDtLbmi.s 			page 21


 683              		.align	1
 684              		.p2align 2,,3
 685              		.global	GPIO_PinLockConfig
 686              		.syntax unified
 687              		.thumb
 688              		.thumb_func
 689              		.fpu softvfp
 690              		.type	GPIO_PinLockConfig, %function
 691              	GPIO_PinLockConfig:
 692              	.LFB41:
 424:../../source/src/FWlib/src/stm32f10x_gpio.c **** 
 425:../../source/src/FWlib/src/stm32f10x_gpio.c **** /**
 426:../../source/src/FWlib/src/stm32f10x_gpio.c ****   * @brief  Locks GPIO Pins configuration registers.
 427:../../source/src/FWlib/src/stm32f10x_gpio.c ****   * @param  GPIOx: where x can be (A..G) to select the GPIO peripheral.
 428:../../source/src/FWlib/src/stm32f10x_gpio.c ****   * @param  GPIO_Pin: specifies the port bit to be written.
 429:../../source/src/FWlib/src/stm32f10x_gpio.c ****   *   This parameter can be any combination of GPIO_Pin_x where x can be (0..15).
 430:../../source/src/FWlib/src/stm32f10x_gpio.c ****   * @retval None
 431:../../source/src/FWlib/src/stm32f10x_gpio.c ****   */
 432:../../source/src/FWlib/src/stm32f10x_gpio.c **** void GPIO_PinLockConfig(GPIO_TypeDef* GPIOx, uint16_t GPIO_Pin)
 433:../../source/src/FWlib/src/stm32f10x_gpio.c **** {
 693              		.loc 1 433 0
 694              		.cfi_startproc
 695              		@ args = 0, pretend = 0, frame = 0
 696              		@ frame_needed = 0, uses_anonymous_args = 0
 697              		@ link register save eliminated.
 698              	.LVL72:
 434:../../source/src/FWlib/src/stm32f10x_gpio.c ****   uint32_t tmp = 0x00010000;
 435:../../source/src/FWlib/src/stm32f10x_gpio.c ****   
 436:../../source/src/FWlib/src/stm32f10x_gpio.c ****   /* Check the parameters */
 437:../../source/src/FWlib/src/stm32f10x_gpio.c ****   assert_param(IS_GPIO_ALL_PERIPH(GPIOx));
 438:../../source/src/FWlib/src/stm32f10x_gpio.c ****   assert_param(IS_GPIO_PIN(GPIO_Pin));
 439:../../source/src/FWlib/src/stm32f10x_gpio.c ****   
 440:../../source/src/FWlib/src/stm32f10x_gpio.c ****   tmp |= GPIO_Pin;
 699              		.loc 1 440 0
 700 0200 41F48033 		orr	r3, r1, #65536
 701              	.LVL73:
 441:../../source/src/FWlib/src/stm32f10x_gpio.c ****   /* Set LCKK bit */
 442:../../source/src/FWlib/src/stm32f10x_gpio.c ****   GPIOx->LCKR = tmp;
 702              		.loc 1 442 0
 703 0204 8361     		str	r3, [r0, #24]
 443:../../source/src/FWlib/src/stm32f10x_gpio.c ****   /* Reset LCKK bit */
 444:../../source/src/FWlib/src/stm32f10x_gpio.c ****   GPIOx->LCKR =  GPIO_Pin;
 704              		.loc 1 444 0
 705 0206 8161     		str	r1, [r0, #24]
 445:../../source/src/FWlib/src/stm32f10x_gpio.c ****   /* Set LCKK bit */
 446:../../source/src/FWlib/src/stm32f10x_gpio.c ****   GPIOx->LCKR = tmp;
 706              		.loc 1 446 0
 707 0208 8361     		str	r3, [r0, #24]
 447:../../source/src/FWlib/src/stm32f10x_gpio.c ****   /* Read LCKK bit*/
 448:../../source/src/FWlib/src/stm32f10x_gpio.c ****   tmp = GPIOx->LCKR;
 708              		.loc 1 448 0
 709 020a 8369     		ldr	r3, [r0, #24]
 710              	.LVL74:
 449:../../source/src/FWlib/src/stm32f10x_gpio.c ****   /* Read LCKK bit*/
 450:../../source/src/FWlib/src/stm32f10x_gpio.c ****   tmp = GPIOx->LCKR;
 711              		.loc 1 450 0
 712 020c 8369     		ldr	r3, [r0, #24]
ARM GAS  G:\Users\Jaxb\AppData\Local\Temp\ccDtLbmi.s 			page 22


 451:../../source/src/FWlib/src/stm32f10x_gpio.c **** }
 713              		.loc 1 451 0
 714 020e 7047     		bx	lr
 715              		.cfi_endproc
 716              	.LFE41:
 717              		.size	GPIO_PinLockConfig, .-GPIO_PinLockConfig
 718              		.align	1
 719              		.p2align 2,,3
 720              		.global	GPIO_EventOutputConfig
 721              		.syntax unified
 722              		.thumb
 723              		.thumb_func
 724              		.fpu softvfp
 725              		.type	GPIO_EventOutputConfig, %function
 726              	GPIO_EventOutputConfig:
 727              	.LFB42:
 452:../../source/src/FWlib/src/stm32f10x_gpio.c **** 
 453:../../source/src/FWlib/src/stm32f10x_gpio.c **** /**
 454:../../source/src/FWlib/src/stm32f10x_gpio.c ****   * @brief  Selects the GPIO pin used as Event output.
 455:../../source/src/FWlib/src/stm32f10x_gpio.c ****   * @param  GPIO_PortSource: selects the GPIO port to be used as source
 456:../../source/src/FWlib/src/stm32f10x_gpio.c ****   *   for Event output.
 457:../../source/src/FWlib/src/stm32f10x_gpio.c ****   *   This parameter can be GPIO_PortSourceGPIOx where x can be (A..E).
 458:../../source/src/FWlib/src/stm32f10x_gpio.c ****   * @param  GPIO_PinSource: specifies the pin for the Event output.
 459:../../source/src/FWlib/src/stm32f10x_gpio.c ****   *   This parameter can be GPIO_PinSourcex where x can be (0..15).
 460:../../source/src/FWlib/src/stm32f10x_gpio.c ****   * @retval None
 461:../../source/src/FWlib/src/stm32f10x_gpio.c ****   */
 462:../../source/src/FWlib/src/stm32f10x_gpio.c **** void GPIO_EventOutputConfig(uint8_t GPIO_PortSource, uint8_t GPIO_PinSource)
 463:../../source/src/FWlib/src/stm32f10x_gpio.c **** {
 728              		.loc 1 463 0
 729              		.cfi_startproc
 730              		@ args = 0, pretend = 0, frame = 0
 731              		@ frame_needed = 0, uses_anonymous_args = 0
 732              		@ link register save eliminated.
 733              	.LVL75:
 734 0210 10B4     		push	{r4}
 735              	.LCFI17:
 736              		.cfi_def_cfa_offset 4
 737              		.cfi_offset 4, -4
 464:../../source/src/FWlib/src/stm32f10x_gpio.c ****   uint32_t tmpreg = 0x00;
 465:../../source/src/FWlib/src/stm32f10x_gpio.c ****   /* Check the parameters */
 466:../../source/src/FWlib/src/stm32f10x_gpio.c ****   assert_param(IS_GPIO_EVENTOUT_PORT_SOURCE(GPIO_PortSource));
 467:../../source/src/FWlib/src/stm32f10x_gpio.c ****   assert_param(IS_GPIO_PIN_SOURCE(GPIO_PinSource));
 468:../../source/src/FWlib/src/stm32f10x_gpio.c ****     
 469:../../source/src/FWlib/src/stm32f10x_gpio.c ****   tmpreg = AFIO->EVCR;
 470:../../source/src/FWlib/src/stm32f10x_gpio.c ****   /* Clear the PORT[6:4] and PIN[3:0] bits */
 471:../../source/src/FWlib/src/stm32f10x_gpio.c ****   tmpreg &= EVCR_PORTPINCONFIG_MASK;
 738              		.loc 1 471 0
 739 0212 4FF68074 		movw	r4, #65408
 469:../../source/src/FWlib/src/stm32f10x_gpio.c ****   /* Clear the PORT[6:4] and PIN[3:0] bits */
 740              		.loc 1 469 0
 741 0216 044A     		ldr	r2, .L56
 742 0218 1368     		ldr	r3, [r2]
 743              	.LVL76:
 744              		.loc 1 471 0
 745 021a 2340     		ands	r3, r3, r4
 746              	.LVL77:
 747 021c 1943     		orrs	r1, r1, r3
ARM GAS  G:\Users\Jaxb\AppData\Local\Temp\ccDtLbmi.s 			page 23


 748              	.LVL78:
 472:../../source/src/FWlib/src/stm32f10x_gpio.c ****   tmpreg |= (uint32_t)GPIO_PortSource << 0x04;
 473:../../source/src/FWlib/src/stm32f10x_gpio.c ****   tmpreg |= GPIO_PinSource;
 749              		.loc 1 473 0
 750 021e 41EA0011 		orr	r1, r1, r0, lsl #4
 751              	.LVL79:
 474:../../source/src/FWlib/src/stm32f10x_gpio.c ****   AFIO->EVCR = tmpreg;
 752              		.loc 1 474 0
 753 0222 1160     		str	r1, [r2]
 475:../../source/src/FWlib/src/stm32f10x_gpio.c **** }
 754              		.loc 1 475 0
 755 0224 10BC     		pop	{r4}
 756              	.LCFI18:
 757              		.cfi_restore 4
 758              		.cfi_def_cfa_offset 0
 759 0226 7047     		bx	lr
 760              	.L57:
 761              		.align	2
 762              	.L56:
 763 0228 00000140 		.word	1073807360
 764              		.cfi_endproc
 765              	.LFE42:
 766              		.size	GPIO_EventOutputConfig, .-GPIO_EventOutputConfig
 767              		.align	1
 768              		.p2align 2,,3
 769              		.global	GPIO_EventOutputCmd
 770              		.syntax unified
 771              		.thumb
 772              		.thumb_func
 773              		.fpu softvfp
 774              		.type	GPIO_EventOutputCmd, %function
 775              	GPIO_EventOutputCmd:
 776              	.LFB43:
 476:../../source/src/FWlib/src/stm32f10x_gpio.c **** 
 477:../../source/src/FWlib/src/stm32f10x_gpio.c **** /**
 478:../../source/src/FWlib/src/stm32f10x_gpio.c ****   * @brief  Enables or disables the Event Output.
 479:../../source/src/FWlib/src/stm32f10x_gpio.c ****   * @param  NewState: new state of the Event output.
 480:../../source/src/FWlib/src/stm32f10x_gpio.c ****   *   This parameter can be: ENABLE or DISABLE.
 481:../../source/src/FWlib/src/stm32f10x_gpio.c ****   * @retval None
 482:../../source/src/FWlib/src/stm32f10x_gpio.c ****   */
 483:../../source/src/FWlib/src/stm32f10x_gpio.c **** void GPIO_EventOutputCmd(FunctionalState NewState)
 484:../../source/src/FWlib/src/stm32f10x_gpio.c **** {
 777              		.loc 1 484 0
 778              		.cfi_startproc
 779              		@ args = 0, pretend = 0, frame = 0
 780              		@ frame_needed = 0, uses_anonymous_args = 0
 781              		@ link register save eliminated.
 782              	.LVL80:
 485:../../source/src/FWlib/src/stm32f10x_gpio.c ****   /* Check the parameters */
 486:../../source/src/FWlib/src/stm32f10x_gpio.c ****   assert_param(IS_FUNCTIONAL_STATE(NewState));
 487:../../source/src/FWlib/src/stm32f10x_gpio.c ****   
 488:../../source/src/FWlib/src/stm32f10x_gpio.c ****   *(__IO uint32_t *) EVCR_EVOE_BB = (uint32_t)NewState;
 783              		.loc 1 488 0
 784 022c 014B     		ldr	r3, .L59
 785 022e 1860     		str	r0, [r3]
 489:../../source/src/FWlib/src/stm32f10x_gpio.c **** }
 786              		.loc 1 489 0
ARM GAS  G:\Users\Jaxb\AppData\Local\Temp\ccDtLbmi.s 			page 24


 787 0230 7047     		bx	lr
 788              	.L60:
 789 0232 00BF     		.align	2
 790              	.L59:
 791 0234 1C002042 		.word	1109393436
 792              		.cfi_endproc
 793              	.LFE43:
 794              		.size	GPIO_EventOutputCmd, .-GPIO_EventOutputCmd
 795              		.align	1
 796              		.p2align 2,,3
 797              		.global	GPIO_PinRemapConfig
 798              		.syntax unified
 799              		.thumb
 800              		.thumb_func
 801              		.fpu softvfp
 802              		.type	GPIO_PinRemapConfig, %function
 803              	GPIO_PinRemapConfig:
 804              	.LFB44:
 490:../../source/src/FWlib/src/stm32f10x_gpio.c **** 
 491:../../source/src/FWlib/src/stm32f10x_gpio.c **** /**
 492:../../source/src/FWlib/src/stm32f10x_gpio.c ****   * @brief  Changes the mapping of the specified pin.
 493:../../source/src/FWlib/src/stm32f10x_gpio.c ****   * @param  GPIO_Remap: selects the pin to remap.
 494:../../source/src/FWlib/src/stm32f10x_gpio.c ****   *   This parameter can be one of the following values:
 495:../../source/src/FWlib/src/stm32f10x_gpio.c ****   *     @arg GPIO_Remap_SPI1             : SPI1 Alternate Function mapping
 496:../../source/src/FWlib/src/stm32f10x_gpio.c ****   *     @arg GPIO_Remap_I2C1             : I2C1 Alternate Function mapping
 497:../../source/src/FWlib/src/stm32f10x_gpio.c ****   *     @arg GPIO_Remap_USART1           : USART1 Alternate Function mapping
 498:../../source/src/FWlib/src/stm32f10x_gpio.c ****   *     @arg GPIO_Remap_USART2           : USART2 Alternate Function mapping
 499:../../source/src/FWlib/src/stm32f10x_gpio.c ****   *     @arg GPIO_PartialRemap_USART3    : USART3 Partial Alternate Function mapping
 500:../../source/src/FWlib/src/stm32f10x_gpio.c ****   *     @arg GPIO_FullRemap_USART3       : USART3 Full Alternate Function mapping
 501:../../source/src/FWlib/src/stm32f10x_gpio.c ****   *     @arg GPIO_PartialRemap_TIM1      : TIM1 Partial Alternate Function mapping
 502:../../source/src/FWlib/src/stm32f10x_gpio.c ****   *     @arg GPIO_FullRemap_TIM1         : TIM1 Full Alternate Function mapping
 503:../../source/src/FWlib/src/stm32f10x_gpio.c ****   *     @arg GPIO_PartialRemap1_TIM2     : TIM2 Partial1 Alternate Function mapping
 504:../../source/src/FWlib/src/stm32f10x_gpio.c ****   *     @arg GPIO_PartialRemap2_TIM2     : TIM2 Partial2 Alternate Function mapping
 505:../../source/src/FWlib/src/stm32f10x_gpio.c ****   *     @arg GPIO_FullRemap_TIM2         : TIM2 Full Alternate Function mapping
 506:../../source/src/FWlib/src/stm32f10x_gpio.c ****   *     @arg GPIO_PartialRemap_TIM3      : TIM3 Partial Alternate Function mapping
 507:../../source/src/FWlib/src/stm32f10x_gpio.c ****   *     @arg GPIO_FullRemap_TIM3         : TIM3 Full Alternate Function mapping
 508:../../source/src/FWlib/src/stm32f10x_gpio.c ****   *     @arg GPIO_Remap_TIM4             : TIM4 Alternate Function mapping
 509:../../source/src/FWlib/src/stm32f10x_gpio.c ****   *     @arg GPIO_Remap1_CAN1            : CAN1 Alternate Function mapping
 510:../../source/src/FWlib/src/stm32f10x_gpio.c ****   *     @arg GPIO_Remap2_CAN1            : CAN1 Alternate Function mapping
 511:../../source/src/FWlib/src/stm32f10x_gpio.c ****   *     @arg GPIO_Remap_PD01             : PD01 Alternate Function mapping
 512:../../source/src/FWlib/src/stm32f10x_gpio.c ****   *     @arg GPIO_Remap_TIM5CH4_LSI      : LSI connected to TIM5 Channel4 input capture for calibra
 513:../../source/src/FWlib/src/stm32f10x_gpio.c ****   *     @arg GPIO_Remap_ADC1_ETRGINJ     : ADC1 External Trigger Injected Conversion remapping
 514:../../source/src/FWlib/src/stm32f10x_gpio.c ****   *     @arg GPIO_Remap_ADC1_ETRGREG     : ADC1 External Trigger Regular Conversion remapping
 515:../../source/src/FWlib/src/stm32f10x_gpio.c ****   *     @arg GPIO_Remap_ADC2_ETRGINJ     : ADC2 External Trigger Injected Conversion remapping
 516:../../source/src/FWlib/src/stm32f10x_gpio.c ****   *     @arg GPIO_Remap_ADC2_ETRGREG     : ADC2 External Trigger Regular Conversion remapping
 517:../../source/src/FWlib/src/stm32f10x_gpio.c ****   *     @arg GPIO_Remap_ETH              : Ethernet remapping (only for Connectivity line devices)
 518:../../source/src/FWlib/src/stm32f10x_gpio.c ****   *     @arg GPIO_Remap_CAN2             : CAN2 remapping (only for Connectivity line devices)
 519:../../source/src/FWlib/src/stm32f10x_gpio.c ****   *     @arg GPIO_Remap_SWJ_NoJTRST      : Full SWJ Enabled (JTAG-DP + SW-DP) but without JTRST
 520:../../source/src/FWlib/src/stm32f10x_gpio.c ****   *     @arg GPIO_Remap_SWJ_JTAGDisable  : JTAG-DP Disabled and SW-DP Enabled
 521:../../source/src/FWlib/src/stm32f10x_gpio.c ****   *     @arg GPIO_Remap_SWJ_Disable      : Full SWJ Disabled (JTAG-DP + SW-DP)
 522:../../source/src/FWlib/src/stm32f10x_gpio.c ****   *     @arg GPIO_Remap_SPI3             : SPI3/I2S3 Alternate Function mapping (only for Connectiv
 523:../../source/src/FWlib/src/stm32f10x_gpio.c ****   *                                        When the SPI3/I2S3 is remapped using this function, the 
 524:../../source/src/FWlib/src/stm32f10x_gpio.c ****   *                                        to Full SWJ Enabled (JTAG-DP + SW-DP) but without JTRST.
 525:../../source/src/FWlib/src/stm32f10x_gpio.c ****   *     @arg GPIO_Remap_TIM2ITR1_PTP_SOF : Ethernet PTP output or USB OTG SOF (Start of Frame) conn
 526:../../source/src/FWlib/src/stm32f10x_gpio.c ****   *                                        to TIM2 Internal Trigger 1 for calibration (only for Con
 527:../../source/src/FWlib/src/stm32f10x_gpio.c ****   *                                        If the GPIO_Remap_TIM2ITR1_PTP_SOF is enabled the TIM2 I
 528:../../source/src/FWlib/src/stm32f10x_gpio.c ****   *                                        Ethernet PTP output. When Reset TIM2 ITR1 is connected t
ARM GAS  G:\Users\Jaxb\AppData\Local\Temp\ccDtLbmi.s 			page 25


 529:../../source/src/FWlib/src/stm32f10x_gpio.c ****   *     @arg GPIO_Remap_PTP_PPS          : Ethernet MAC PPS_PTS output on PB05 (only for Connectivi
 530:../../source/src/FWlib/src/stm32f10x_gpio.c ****   *     @arg GPIO_Remap_TIM15            : TIM15 Alternate Function mapping (only for Value line de
 531:../../source/src/FWlib/src/stm32f10x_gpio.c ****   *     @arg GPIO_Remap_TIM16            : TIM16 Alternate Function mapping (only for Value line de
 532:../../source/src/FWlib/src/stm32f10x_gpio.c ****   *     @arg GPIO_Remap_TIM17            : TIM17 Alternate Function mapping (only for Value line de
 533:../../source/src/FWlib/src/stm32f10x_gpio.c ****   *     @arg GPIO_Remap_CEC              : CEC Alternate Function mapping (only for Value line devi
 534:../../source/src/FWlib/src/stm32f10x_gpio.c ****   *     @arg GPIO_Remap_TIM1_DMA         : TIM1 DMA requests mapping (only for Value line devices)
 535:../../source/src/FWlib/src/stm32f10x_gpio.c ****   *     @arg GPIO_Remap_TIM9             : TIM9 Alternate Function mapping (only for XL-density dev
 536:../../source/src/FWlib/src/stm32f10x_gpio.c ****   *     @arg GPIO_Remap_TIM10            : TIM10 Alternate Function mapping (only for XL-density de
 537:../../source/src/FWlib/src/stm32f10x_gpio.c ****   *     @arg GPIO_Remap_TIM11            : TIM11 Alternate Function mapping (only for XL-density de
 538:../../source/src/FWlib/src/stm32f10x_gpio.c ****   *     @arg GPIO_Remap_TIM13            : TIM13 Alternate Function mapping (only for High density 
 539:../../source/src/FWlib/src/stm32f10x_gpio.c ****   *     @arg GPIO_Remap_TIM14            : TIM14 Alternate Function mapping (only for High density 
 540:../../source/src/FWlib/src/stm32f10x_gpio.c ****   *     @arg GPIO_Remap_FSMC_NADV        : FSMC_NADV Alternate Function mapping (only for High dens
 541:../../source/src/FWlib/src/stm32f10x_gpio.c ****   *     @arg GPIO_Remap_TIM67_DAC_DMA    : TIM6/TIM7 and DAC DMA requests remapping (only for High 
 542:../../source/src/FWlib/src/stm32f10x_gpio.c ****   *     @arg GPIO_Remap_TIM12            : TIM12 Alternate Function mapping (only for High density 
 543:../../source/src/FWlib/src/stm32f10x_gpio.c ****   *     @arg GPIO_Remap_MISC             : Miscellaneous Remap (DMA2 Channel5 Position and DAC Trig
 544:../../source/src/FWlib/src/stm32f10x_gpio.c ****   *                                        only for High density Value line devices)     
 545:../../source/src/FWlib/src/stm32f10x_gpio.c ****   * @param  NewState: new state of the port pin remapping.
 546:../../source/src/FWlib/src/stm32f10x_gpio.c ****   *   This parameter can be: ENABLE or DISABLE.
 547:../../source/src/FWlib/src/stm32f10x_gpio.c ****   * @retval None
 548:../../source/src/FWlib/src/stm32f10x_gpio.c ****   */
 549:../../source/src/FWlib/src/stm32f10x_gpio.c **** void GPIO_PinRemapConfig(uint32_t GPIO_Remap, FunctionalState NewState)
 550:../../source/src/FWlib/src/stm32f10x_gpio.c **** {
 805              		.loc 1 550 0
 806              		.cfi_startproc
 807              		@ args = 0, pretend = 0, frame = 0
 808              		@ frame_needed = 0, uses_anonymous_args = 0
 809              		@ link register save eliminated.
 810              	.LVL81:
 551:../../source/src/FWlib/src/stm32f10x_gpio.c ****   uint32_t tmp = 0x00, tmp1 = 0x00, tmpreg = 0x00, tmpmask = 0x00;
 552:../../source/src/FWlib/src/stm32f10x_gpio.c **** 
 553:../../source/src/FWlib/src/stm32f10x_gpio.c ****   /* Check the parameters */
 554:../../source/src/FWlib/src/stm32f10x_gpio.c ****   assert_param(IS_GPIO_REMAP(GPIO_Remap));
 555:../../source/src/FWlib/src/stm32f10x_gpio.c ****   assert_param(IS_FUNCTIONAL_STATE(NewState));  
 556:../../source/src/FWlib/src/stm32f10x_gpio.c ****   
 557:../../source/src/FWlib/src/stm32f10x_gpio.c ****   if((GPIO_Remap & 0x80000000) == 0x80000000)
 811              		.loc 1 557 0
 812 0238 0028     		cmp	r0, #0
 558:../../source/src/FWlib/src/stm32f10x_gpio.c ****   {
 559:../../source/src/FWlib/src/stm32f10x_gpio.c ****     tmpreg = AFIO->MAPR2;
 813              		.loc 1 559 0
 814 023a 194B     		ldr	r3, .L74
 560:../../source/src/FWlib/src/stm32f10x_gpio.c ****   }
 561:../../source/src/FWlib/src/stm32f10x_gpio.c ****   else
 562:../../source/src/FWlib/src/stm32f10x_gpio.c ****   {
 563:../../source/src/FWlib/src/stm32f10x_gpio.c ****     tmpreg = AFIO->MAPR;
 564:../../source/src/FWlib/src/stm32f10x_gpio.c ****   }
 565:../../source/src/FWlib/src/stm32f10x_gpio.c **** 
 566:../../source/src/FWlib/src/stm32f10x_gpio.c ****   tmpmask = (GPIO_Remap & DBGAFR_POSITION_MASK) >> 0x10;
 567:../../source/src/FWlib/src/stm32f10x_gpio.c ****   tmp = GPIO_Remap & LSB_MASK;
 568:../../source/src/FWlib/src/stm32f10x_gpio.c **** 
 569:../../source/src/FWlib/src/stm32f10x_gpio.c ****   if ((GPIO_Remap & (DBGAFR_LOCATION_MASK | DBGAFR_NUMBITS_MASK)) == (DBGAFR_LOCATION_MASK | DBGAFR
 815              		.loc 1 569 0
 816 023c 00F44012 		and	r2, r0, #3145728
 559:../../source/src/FWlib/src/stm32f10x_gpio.c ****   }
 817              		.loc 1 559 0
 818 0240 B4BF     		ite	lt
 819 0242 DB69     		ldrlt	r3, [r3, #28]
ARM GAS  G:\Users\Jaxb\AppData\Local\Temp\ccDtLbmi.s 			page 26


 820              	.LVL82:
 563:../../source/src/FWlib/src/stm32f10x_gpio.c ****   }
 821              		.loc 1 563 0
 822 0244 5B68     		ldrge	r3, [r3, #4]
 823              	.LVL83:
 824              		.loc 1 569 0
 825 0246 B2F5401F 		cmp	r2, #3145728
 550:../../source/src/FWlib/src/stm32f10x_gpio.c ****   uint32_t tmp = 0x00, tmp1 = 0x00, tmpreg = 0x00, tmpmask = 0x00;
 826              		.loc 1 550 0
 827 024a 30B4     		push	{r4, r5}
 828              	.LCFI19:
 829              		.cfi_def_cfa_offset 8
 830              		.cfi_offset 4, -8
 831              		.cfi_offset 5, -4
 567:../../source/src/FWlib/src/stm32f10x_gpio.c **** 
 832              		.loc 1 567 0
 833 024c 84B2     		uxth	r4, r0
 834              	.LVL84:
 835              		.loc 1 569 0
 836 024e 1ED0     		beq	.L73
 570:../../source/src/FWlib/src/stm32f10x_gpio.c ****   {
 571:../../source/src/FWlib/src/stm32f10x_gpio.c ****     tmpreg &= DBGAFR_SWJCFG_MASK;
 572:../../source/src/FWlib/src/stm32f10x_gpio.c ****     AFIO->MAPR &= DBGAFR_SWJCFG_MASK;
 573:../../source/src/FWlib/src/stm32f10x_gpio.c ****   }
 574:../../source/src/FWlib/src/stm32f10x_gpio.c ****   else if ((GPIO_Remap & DBGAFR_NUMBITS_MASK) == DBGAFR_NUMBITS_MASK)
 837              		.loc 1 574 0
 838 0250 C202     		lsls	r2, r0, #11
 839 0252 13D5     		bpl	.L66
 840              	.LVL85:
 575:../../source/src/FWlib/src/stm32f10x_gpio.c ****   {
 576:../../source/src/FWlib/src/stm32f10x_gpio.c ****     tmp1 = ((uint32_t)0x03) << tmpmask;
 841              		.loc 1 576 0
 842 0254 0322     		movs	r2, #3
 566:../../source/src/FWlib/src/stm32f10x_gpio.c ****   tmp = GPIO_Remap & LSB_MASK;
 843              		.loc 1 566 0
 844 0256 C0F30345 		ubfx	r5, r0, #16, #4
 845              		.loc 1 576 0
 846 025a AA40     		lsls	r2, r2, r5
 577:../../source/src/FWlib/src/stm32f10x_gpio.c ****     tmpreg &= ~tmp1;
 847              		.loc 1 577 0
 848 025c 23EA0203 		bic	r3, r3, r2
 849              	.LVL86:
 578:../../source/src/FWlib/src/stm32f10x_gpio.c ****     tmpreg |= ~DBGAFR_SWJCFG_MASK;
 850              		.loc 1 578 0
 851 0260 43F07063 		orr	r3, r3, #251658240
 852              	.LVL87:
 853              	.L65:
 579:../../source/src/FWlib/src/stm32f10x_gpio.c ****   }
 580:../../source/src/FWlib/src/stm32f10x_gpio.c ****   else
 581:../../source/src/FWlib/src/stm32f10x_gpio.c ****   {
 582:../../source/src/FWlib/src/stm32f10x_gpio.c ****     tmpreg &= ~(tmp << ((GPIO_Remap >> 0x15)*0x10));
 583:../../source/src/FWlib/src/stm32f10x_gpio.c ****     tmpreg |= ~DBGAFR_SWJCFG_MASK;
 584:../../source/src/FWlib/src/stm32f10x_gpio.c ****   }
 585:../../source/src/FWlib/src/stm32f10x_gpio.c **** 
 586:../../source/src/FWlib/src/stm32f10x_gpio.c ****   if (NewState != DISABLE)
 854              		.loc 1 586 0
 855 0264 19B1     		cbz	r1, .L67
ARM GAS  G:\Users\Jaxb\AppData\Local\Temp\ccDtLbmi.s 			page 27


 587:../../source/src/FWlib/src/stm32f10x_gpio.c ****   {
 588:../../source/src/FWlib/src/stm32f10x_gpio.c ****     tmpreg |= (tmp << ((GPIO_Remap >> 0x15)*0x10));
 856              		.loc 1 588 0
 857 0266 420D     		lsrs	r2, r0, #21
 858 0268 1201     		lsls	r2, r2, #4
 859 026a 9440     		lsls	r4, r4, r2
 860              	.LVL88:
 861 026c 2343     		orrs	r3, r3, r4
 862              	.LVL89:
 863              	.L67:
 589:../../source/src/FWlib/src/stm32f10x_gpio.c ****   }
 590:../../source/src/FWlib/src/stm32f10x_gpio.c **** 
 591:../../source/src/FWlib/src/stm32f10x_gpio.c ****   if((GPIO_Remap & 0x80000000) == 0x80000000)
 592:../../source/src/FWlib/src/stm32f10x_gpio.c ****   {
 593:../../source/src/FWlib/src/stm32f10x_gpio.c ****     AFIO->MAPR2 = tmpreg;
 864              		.loc 1 593 0
 865 026e 0C4A     		ldr	r2, .L74
 591:../../source/src/FWlib/src/stm32f10x_gpio.c ****   {
 866              		.loc 1 591 0
 867 0270 0028     		cmp	r0, #0
 868              		.loc 1 593 0
 869 0272 B4BF     		ite	lt
 870 0274 D361     		strlt	r3, [r2, #28]
 594:../../source/src/FWlib/src/stm32f10x_gpio.c ****   }
 595:../../source/src/FWlib/src/stm32f10x_gpio.c ****   else
 596:../../source/src/FWlib/src/stm32f10x_gpio.c ****   {
 597:../../source/src/FWlib/src/stm32f10x_gpio.c ****     AFIO->MAPR = tmpreg;
 871              		.loc 1 597 0
 872 0276 5360     		strge	r3, [r2, #4]
 598:../../source/src/FWlib/src/stm32f10x_gpio.c ****   }  
 599:../../source/src/FWlib/src/stm32f10x_gpio.c **** }
 873              		.loc 1 599 0
 874 0278 30BC     		pop	{r4, r5}
 875              	.LCFI20:
 876              		.cfi_remember_state
 877              		.cfi_restore 5
 878              		.cfi_restore 4
 879              		.cfi_def_cfa_offset 0
 880 027a 7047     		bx	lr
 881              	.LVL90:
 882              	.L66:
 883              	.LCFI21:
 884              		.cfi_restore_state
 582:../../source/src/FWlib/src/stm32f10x_gpio.c ****     tmpreg |= ~DBGAFR_SWJCFG_MASK;
 885              		.loc 1 582 0
 886 027c 420D     		lsrs	r2, r0, #21
 887 027e 1201     		lsls	r2, r2, #4
 888 0280 04FA02F2 		lsl	r2, r4, r2
 889 0284 23EA0203 		bic	r3, r3, r2
 890              	.LVL91:
 583:../../source/src/FWlib/src/stm32f10x_gpio.c ****   }
 891              		.loc 1 583 0
 892 0288 43F07063 		orr	r3, r3, #251658240
 893              	.LVL92:
 894 028c EAE7     		b	.L65
 895              	.L73:
 572:../../source/src/FWlib/src/stm32f10x_gpio.c ****   }
ARM GAS  G:\Users\Jaxb\AppData\Local\Temp\ccDtLbmi.s 			page 28


 896              		.loc 1 572 0
 897 028e 044D     		ldr	r5, .L74
 571:../../source/src/FWlib/src/stm32f10x_gpio.c ****     AFIO->MAPR &= DBGAFR_SWJCFG_MASK;
 898              		.loc 1 571 0
 899 0290 23F07063 		bic	r3, r3, #251658240
 900              	.LVL93:
 572:../../source/src/FWlib/src/stm32f10x_gpio.c ****   }
 901              		.loc 1 572 0
 902 0294 6A68     		ldr	r2, [r5, #4]
 903 0296 22F07062 		bic	r2, r2, #251658240
 904 029a 6A60     		str	r2, [r5, #4]
 905 029c E2E7     		b	.L65
 906              	.L75:
 907 029e 00BF     		.align	2
 908              	.L74:
 909 02a0 00000140 		.word	1073807360
 910              		.cfi_endproc
 911              	.LFE44:
 912              		.size	GPIO_PinRemapConfig, .-GPIO_PinRemapConfig
 913              		.align	1
 914              		.p2align 2,,3
 915              		.global	GPIO_EXTILineConfig
 916              		.syntax unified
 917              		.thumb
 918              		.thumb_func
 919              		.fpu softvfp
 920              		.type	GPIO_EXTILineConfig, %function
 921              	GPIO_EXTILineConfig:
 922              	.LFB45:
 600:../../source/src/FWlib/src/stm32f10x_gpio.c **** 
 601:../../source/src/FWlib/src/stm32f10x_gpio.c **** /**
 602:../../source/src/FWlib/src/stm32f10x_gpio.c ****   * @brief  Selects the GPIO pin used as EXTI Line.
 603:../../source/src/FWlib/src/stm32f10x_gpio.c ****   * @param  GPIO_PortSource: selects the GPIO port to be used as source for EXTI lines.
 604:../../source/src/FWlib/src/stm32f10x_gpio.c ****   *   This parameter can be GPIO_PortSourceGPIOx where x can be (A..G).
 605:../../source/src/FWlib/src/stm32f10x_gpio.c ****   * @param  GPIO_PinSource: specifies the EXTI line to be configured.
 606:../../source/src/FWlib/src/stm32f10x_gpio.c ****   *   This parameter can be GPIO_PinSourcex where x can be (0..15).
 607:../../source/src/FWlib/src/stm32f10x_gpio.c ****   * @retval None
 608:../../source/src/FWlib/src/stm32f10x_gpio.c ****   */
 609:../../source/src/FWlib/src/stm32f10x_gpio.c **** void GPIO_EXTILineConfig(uint8_t GPIO_PortSource, uint8_t GPIO_PinSource)
 610:../../source/src/FWlib/src/stm32f10x_gpio.c **** {
 923              		.loc 1 610 0
 924              		.cfi_startproc
 925              		@ args = 0, pretend = 0, frame = 0
 926              		@ frame_needed = 0, uses_anonymous_args = 0
 927              		@ link register save eliminated.
 928              	.LVL94:
 929 02a4 10B4     		push	{r4}
 930              	.LCFI22:
 931              		.cfi_def_cfa_offset 4
 932              		.cfi_offset 4, -4
 611:../../source/src/FWlib/src/stm32f10x_gpio.c ****   uint32_t tmp = 0x00;
 612:../../source/src/FWlib/src/stm32f10x_gpio.c ****   /* Check the parameters */
 613:../../source/src/FWlib/src/stm32f10x_gpio.c ****   assert_param(IS_GPIO_EXTI_PORT_SOURCE(GPIO_PortSource));
 614:../../source/src/FWlib/src/stm32f10x_gpio.c ****   assert_param(IS_GPIO_PIN_SOURCE(GPIO_PinSource));
 615:../../source/src/FWlib/src/stm32f10x_gpio.c ****   
 616:../../source/src/FWlib/src/stm32f10x_gpio.c ****   tmp = ((uint32_t)0x0F) << (0x04 * (GPIO_PinSource & (uint8_t)0x03));
 933              		.loc 1 616 0
ARM GAS  G:\Users\Jaxb\AppData\Local\Temp\ccDtLbmi.s 			page 29


 934 02a6 0F24     		movs	r4, #15
 935 02a8 01F0FC03 		and	r3, r1, #252
 936 02ac 03F18043 		add	r3, r3, #1073741824
 937 02b0 03F58033 		add	r3, r3, #65536
 938 02b4 01F00301 		and	r1, r1, #3
 939              	.LVL95:
 617:../../source/src/FWlib/src/stm32f10x_gpio.c ****   AFIO->EXTICR[GPIO_PinSource >> 0x02] &= ~tmp;
 940              		.loc 1 617 0
 941 02b8 9A68     		ldr	r2, [r3, #8]
 616:../../source/src/FWlib/src/stm32f10x_gpio.c ****   AFIO->EXTICR[GPIO_PinSource >> 0x02] &= ~tmp;
 942              		.loc 1 616 0
 943 02ba 8900     		lsls	r1, r1, #2
 944              	.LVL96:
 945 02bc 8C40     		lsls	r4, r4, r1
 946              	.LVL97:
 947              		.loc 1 617 0
 948 02be 22EA0402 		bic	r2, r2, r4
 949 02c2 9A60     		str	r2, [r3, #8]
 618:../../source/src/FWlib/src/stm32f10x_gpio.c ****   AFIO->EXTICR[GPIO_PinSource >> 0x02] |= (((uint32_t)GPIO_PortSource) << (0x04 * (GPIO_PinSource &
 950              		.loc 1 618 0
 951 02c4 9A68     		ldr	r2, [r3, #8]
 952 02c6 00FA01F1 		lsl	r1, r0, r1
 953 02ca 1143     		orrs	r1, r1, r2
 954 02cc 9960     		str	r1, [r3, #8]
 619:../../source/src/FWlib/src/stm32f10x_gpio.c **** }
 955              		.loc 1 619 0
 956 02ce 10BC     		pop	{r4}
 957              	.LCFI23:
 958              		.cfi_restore 4
 959              		.cfi_def_cfa_offset 0
 960              	.LVL98:
 961 02d0 7047     		bx	lr
 962              		.cfi_endproc
 963              	.LFE45:
 964              		.size	GPIO_EXTILineConfig, .-GPIO_EXTILineConfig
 965              		.align	1
 966 02d2 00BF     		.p2align 2,,3
 967              		.global	GPIO_ETH_MediaInterfaceConfig
 968              		.syntax unified
 969              		.thumb
 970              		.thumb_func
 971              		.fpu softvfp
 972              		.type	GPIO_ETH_MediaInterfaceConfig, %function
 973              	GPIO_ETH_MediaInterfaceConfig:
 974              	.LFB46:
 620:../../source/src/FWlib/src/stm32f10x_gpio.c **** 
 621:../../source/src/FWlib/src/stm32f10x_gpio.c **** /**
 622:../../source/src/FWlib/src/stm32f10x_gpio.c ****   * @brief  Selects the Ethernet media interface.
 623:../../source/src/FWlib/src/stm32f10x_gpio.c ****   * @note   This function applies only to STM32 Connectivity line devices.  
 624:../../source/src/FWlib/src/stm32f10x_gpio.c ****   * @param  GPIO_ETH_MediaInterface: specifies the Media Interface mode.
 625:../../source/src/FWlib/src/stm32f10x_gpio.c ****   *   This parameter can be one of the following values:
 626:../../source/src/FWlib/src/stm32f10x_gpio.c ****   *     @arg GPIO_ETH_MediaInterface_MII: MII mode
 627:../../source/src/FWlib/src/stm32f10x_gpio.c ****   *     @arg GPIO_ETH_MediaInterface_RMII: RMII mode    
 628:../../source/src/FWlib/src/stm32f10x_gpio.c ****   * @retval None
 629:../../source/src/FWlib/src/stm32f10x_gpio.c ****   */
 630:../../source/src/FWlib/src/stm32f10x_gpio.c **** void GPIO_ETH_MediaInterfaceConfig(uint32_t GPIO_ETH_MediaInterface) 
 631:../../source/src/FWlib/src/stm32f10x_gpio.c **** { 
ARM GAS  G:\Users\Jaxb\AppData\Local\Temp\ccDtLbmi.s 			page 30


 975              		.loc 1 631 0
 976              		.cfi_startproc
 977              		@ args = 0, pretend = 0, frame = 0
 978              		@ frame_needed = 0, uses_anonymous_args = 0
 979              		@ link register save eliminated.
 980              	.LVL99:
 632:../../source/src/FWlib/src/stm32f10x_gpio.c ****   assert_param(IS_GPIO_ETH_MEDIA_INTERFACE(GPIO_ETH_MediaInterface)); 
 633:../../source/src/FWlib/src/stm32f10x_gpio.c **** 
 634:../../source/src/FWlib/src/stm32f10x_gpio.c ****   /* Configure MII_RMII selection bit */ 
 635:../../source/src/FWlib/src/stm32f10x_gpio.c ****   *(__IO uint32_t *) MAPR_MII_RMII_SEL_BB = GPIO_ETH_MediaInterface; 
 981              		.loc 1 635 0
 982 02d4 014B     		ldr	r3, .L78
 983 02d6 1860     		str	r0, [r3]
 636:../../source/src/FWlib/src/stm32f10x_gpio.c **** }
 984              		.loc 1 636 0
 985 02d8 7047     		bx	lr
 986              	.L79:
 987 02da 00BF     		.align	2
 988              	.L78:
 989 02dc DC002042 		.word	1109393628
 990              		.cfi_endproc
 991              	.LFE46:
 992              		.size	GPIO_ETH_MediaInterfaceConfig, .-GPIO_ETH_MediaInterfaceConfig
 993              	.Letext0:
 994              		.file 2 "f:\\arm\\gcc2018\\arm-none-eabi\\include\\machine\\_default_types.h"
 995              		.file 3 "f:\\arm\\gcc2018\\arm-none-eabi\\include\\sys\\_stdint.h"
 996              		.file 4 "../../source/include/core_cm3.h"
 997              		.file 5 "../../source/include/system_stm32f10x.h"
 998              		.file 6 "../../source/include/stm32f10x.h"
 999              		.file 7 "../../source/src/FWlib/inc/stm32f10x_gpio.h"
 1000              		.file 8 "../../source/src/FWlib/inc/stm32f10x_rcc.h"