ARM GAS  G:\Users\Jaxb\AppData\Local\Temp\ccFgkJ8n.s 			page 1


   1              		.cpu cortex-m3
   2              		.eabi_attribute 20, 1
   3              		.eabi_attribute 21, 1
   4              		.eabi_attribute 23, 3
   5              		.eabi_attribute 24, 1
   6              		.eabi_attribute 25, 1
   7              		.eabi_attribute 26, 1
   8              		.eabi_attribute 30, 2
   9              		.eabi_attribute 34, 1
  10              		.eabi_attribute 18, 4
  11              		.file	"stm32f10x_spi.c"
  12              		.text
  13              	.Ltext0:
  14              		.cfi_sections	.debug_frame
  15              		.align	1
  16              		.p2align 2,,3
  17              		.global	SPI_I2S_DeInit
  18              		.syntax unified
  19              		.thumb
  20              		.thumb_func
  21              		.fpu softvfp
  22              		.type	SPI_I2S_DeInit, %function
  23              	SPI_I2S_DeInit:
  24              	.LFB29:
  25              		.file 1 "../../source/src/FWlib/src/stm32f10x_spi.c"
   1:../../source/src/FWlib/src/stm32f10x_spi.c **** /**
   2:../../source/src/FWlib/src/stm32f10x_spi.c ****   ******************************************************************************
   3:../../source/src/FWlib/src/stm32f10x_spi.c ****   * @file    stm32f10x_spi.c
   4:../../source/src/FWlib/src/stm32f10x_spi.c ****   * @author  MCD Application Team
   5:../../source/src/FWlib/src/stm32f10x_spi.c ****   * @version V3.5.0
   6:../../source/src/FWlib/src/stm32f10x_spi.c ****   * @date    11-March-2011
   7:../../source/src/FWlib/src/stm32f10x_spi.c ****   * @brief   This file provides all the SPI firmware functions.
   8:../../source/src/FWlib/src/stm32f10x_spi.c ****   ******************************************************************************
   9:../../source/src/FWlib/src/stm32f10x_spi.c ****   * @attention
  10:../../source/src/FWlib/src/stm32f10x_spi.c ****   *
  11:../../source/src/FWlib/src/stm32f10x_spi.c ****   * THE PRESENT FIRMWARE WHICH IS FOR GUIDANCE ONLY AIMS AT PROVIDING CUSTOMERS
  12:../../source/src/FWlib/src/stm32f10x_spi.c ****   * WITH CODING INFORMATION REGARDING THEIR PRODUCTS IN ORDER FOR THEM TO SAVE
  13:../../source/src/FWlib/src/stm32f10x_spi.c ****   * TIME. AS A RESULT, STMICROELECTRONICS SHALL NOT BE HELD LIABLE FOR ANY
  14:../../source/src/FWlib/src/stm32f10x_spi.c ****   * DIRECT, INDIRECT OR CONSEQUENTIAL DAMAGES WITH RESPECT TO ANY CLAIMS ARISING
  15:../../source/src/FWlib/src/stm32f10x_spi.c ****   * FROM THE CONTENT OF SUCH FIRMWARE AND/OR THE USE MADE BY CUSTOMERS OF THE
  16:../../source/src/FWlib/src/stm32f10x_spi.c ****   * CODING INFORMATION CONTAINED HEREIN IN CONNECTION WITH THEIR PRODUCTS.
  17:../../source/src/FWlib/src/stm32f10x_spi.c ****   *
  18:../../source/src/FWlib/src/stm32f10x_spi.c ****   * <h2><center>&copy; COPYRIGHT 2011 STMicroelectronics</center></h2>
  19:../../source/src/FWlib/src/stm32f10x_spi.c ****   ******************************************************************************
  20:../../source/src/FWlib/src/stm32f10x_spi.c ****   */
  21:../../source/src/FWlib/src/stm32f10x_spi.c **** 
  22:../../source/src/FWlib/src/stm32f10x_spi.c **** /* Includes ------------------------------------------------------------------*/
  23:../../source/src/FWlib/src/stm32f10x_spi.c **** #include "stm32f10x_spi.h"
  24:../../source/src/FWlib/src/stm32f10x_spi.c **** #include "stm32f10x_rcc.h"
  25:../../source/src/FWlib/src/stm32f10x_spi.c **** 
  26:../../source/src/FWlib/src/stm32f10x_spi.c **** /** @addtogroup STM32F10x_StdPeriph_Driver
  27:../../source/src/FWlib/src/stm32f10x_spi.c ****   * @{
  28:../../source/src/FWlib/src/stm32f10x_spi.c ****   */
  29:../../source/src/FWlib/src/stm32f10x_spi.c **** 
  30:../../source/src/FWlib/src/stm32f10x_spi.c **** /** @defgroup SPI 
  31:../../source/src/FWlib/src/stm32f10x_spi.c ****   * @brief SPI driver modules
  32:../../source/src/FWlib/src/stm32f10x_spi.c ****   * @{
ARM GAS  G:\Users\Jaxb\AppData\Local\Temp\ccFgkJ8n.s 			page 2


  33:../../source/src/FWlib/src/stm32f10x_spi.c ****   */ 
  34:../../source/src/FWlib/src/stm32f10x_spi.c **** 
  35:../../source/src/FWlib/src/stm32f10x_spi.c **** /** @defgroup SPI_Private_TypesDefinitions
  36:../../source/src/FWlib/src/stm32f10x_spi.c ****   * @{
  37:../../source/src/FWlib/src/stm32f10x_spi.c ****   */
  38:../../source/src/FWlib/src/stm32f10x_spi.c **** 
  39:../../source/src/FWlib/src/stm32f10x_spi.c **** /**
  40:../../source/src/FWlib/src/stm32f10x_spi.c ****   * @}
  41:../../source/src/FWlib/src/stm32f10x_spi.c ****   */ 
  42:../../source/src/FWlib/src/stm32f10x_spi.c **** 
  43:../../source/src/FWlib/src/stm32f10x_spi.c **** 
  44:../../source/src/FWlib/src/stm32f10x_spi.c **** /** @defgroup SPI_Private_Defines
  45:../../source/src/FWlib/src/stm32f10x_spi.c ****   * @{
  46:../../source/src/FWlib/src/stm32f10x_spi.c ****   */
  47:../../source/src/FWlib/src/stm32f10x_spi.c **** 
  48:../../source/src/FWlib/src/stm32f10x_spi.c **** /* SPI SPE mask */
  49:../../source/src/FWlib/src/stm32f10x_spi.c **** #define CR1_SPE_Set          ((uint16_t)0x0040)
  50:../../source/src/FWlib/src/stm32f10x_spi.c **** #define CR1_SPE_Reset        ((uint16_t)0xFFBF)
  51:../../source/src/FWlib/src/stm32f10x_spi.c **** 
  52:../../source/src/FWlib/src/stm32f10x_spi.c **** /* I2S I2SE mask */
  53:../../source/src/FWlib/src/stm32f10x_spi.c **** #define I2SCFGR_I2SE_Set     ((uint16_t)0x0400)
  54:../../source/src/FWlib/src/stm32f10x_spi.c **** #define I2SCFGR_I2SE_Reset   ((uint16_t)0xFBFF)
  55:../../source/src/FWlib/src/stm32f10x_spi.c **** 
  56:../../source/src/FWlib/src/stm32f10x_spi.c **** /* SPI CRCNext mask */
  57:../../source/src/FWlib/src/stm32f10x_spi.c **** #define CR1_CRCNext_Set      ((uint16_t)0x1000)
  58:../../source/src/FWlib/src/stm32f10x_spi.c **** 
  59:../../source/src/FWlib/src/stm32f10x_spi.c **** /* SPI CRCEN mask */
  60:../../source/src/FWlib/src/stm32f10x_spi.c **** #define CR1_CRCEN_Set        ((uint16_t)0x2000)
  61:../../source/src/FWlib/src/stm32f10x_spi.c **** #define CR1_CRCEN_Reset      ((uint16_t)0xDFFF)
  62:../../source/src/FWlib/src/stm32f10x_spi.c **** 
  63:../../source/src/FWlib/src/stm32f10x_spi.c **** /* SPI SSOE mask */
  64:../../source/src/FWlib/src/stm32f10x_spi.c **** #define CR2_SSOE_Set         ((uint16_t)0x0004)
  65:../../source/src/FWlib/src/stm32f10x_spi.c **** #define CR2_SSOE_Reset       ((uint16_t)0xFFFB)
  66:../../source/src/FWlib/src/stm32f10x_spi.c **** 
  67:../../source/src/FWlib/src/stm32f10x_spi.c **** /* SPI registers Masks */
  68:../../source/src/FWlib/src/stm32f10x_spi.c **** #define CR1_CLEAR_Mask       ((uint16_t)0x3040)
  69:../../source/src/FWlib/src/stm32f10x_spi.c **** #define I2SCFGR_CLEAR_Mask   ((uint16_t)0xF040)
  70:../../source/src/FWlib/src/stm32f10x_spi.c **** 
  71:../../source/src/FWlib/src/stm32f10x_spi.c **** /* SPI or I2S mode selection masks */
  72:../../source/src/FWlib/src/stm32f10x_spi.c **** #define SPI_Mode_Select      ((uint16_t)0xF7FF)
  73:../../source/src/FWlib/src/stm32f10x_spi.c **** #define I2S_Mode_Select      ((uint16_t)0x0800) 
  74:../../source/src/FWlib/src/stm32f10x_spi.c **** 
  75:../../source/src/FWlib/src/stm32f10x_spi.c **** /* I2S clock source selection masks */
  76:../../source/src/FWlib/src/stm32f10x_spi.c **** #define I2S2_CLOCK_SRC       ((uint32_t)(0x00020000))
  77:../../source/src/FWlib/src/stm32f10x_spi.c **** #define I2S3_CLOCK_SRC       ((uint32_t)(0x00040000))
  78:../../source/src/FWlib/src/stm32f10x_spi.c **** #define I2S_MUL_MASK         ((uint32_t)(0x0000F000))
  79:../../source/src/FWlib/src/stm32f10x_spi.c **** #define I2S_DIV_MASK         ((uint32_t)(0x000000F0))
  80:../../source/src/FWlib/src/stm32f10x_spi.c **** 
  81:../../source/src/FWlib/src/stm32f10x_spi.c **** /**
  82:../../source/src/FWlib/src/stm32f10x_spi.c ****   * @}
  83:../../source/src/FWlib/src/stm32f10x_spi.c ****   */
  84:../../source/src/FWlib/src/stm32f10x_spi.c **** 
  85:../../source/src/FWlib/src/stm32f10x_spi.c **** /** @defgroup SPI_Private_Macros
  86:../../source/src/FWlib/src/stm32f10x_spi.c ****   * @{
  87:../../source/src/FWlib/src/stm32f10x_spi.c ****   */
  88:../../source/src/FWlib/src/stm32f10x_spi.c **** 
  89:../../source/src/FWlib/src/stm32f10x_spi.c **** /**
ARM GAS  G:\Users\Jaxb\AppData\Local\Temp\ccFgkJ8n.s 			page 3


  90:../../source/src/FWlib/src/stm32f10x_spi.c ****   * @}
  91:../../source/src/FWlib/src/stm32f10x_spi.c ****   */
  92:../../source/src/FWlib/src/stm32f10x_spi.c **** 
  93:../../source/src/FWlib/src/stm32f10x_spi.c **** /** @defgroup SPI_Private_Variables
  94:../../source/src/FWlib/src/stm32f10x_spi.c ****   * @{
  95:../../source/src/FWlib/src/stm32f10x_spi.c ****   */
  96:../../source/src/FWlib/src/stm32f10x_spi.c **** 
  97:../../source/src/FWlib/src/stm32f10x_spi.c **** /**
  98:../../source/src/FWlib/src/stm32f10x_spi.c ****   * @}
  99:../../source/src/FWlib/src/stm32f10x_spi.c ****   */
 100:../../source/src/FWlib/src/stm32f10x_spi.c **** 
 101:../../source/src/FWlib/src/stm32f10x_spi.c **** /** @defgroup SPI_Private_FunctionPrototypes
 102:../../source/src/FWlib/src/stm32f10x_spi.c ****   * @{
 103:../../source/src/FWlib/src/stm32f10x_spi.c ****   */
 104:../../source/src/FWlib/src/stm32f10x_spi.c **** 
 105:../../source/src/FWlib/src/stm32f10x_spi.c **** /**
 106:../../source/src/FWlib/src/stm32f10x_spi.c ****   * @}
 107:../../source/src/FWlib/src/stm32f10x_spi.c ****   */
 108:../../source/src/FWlib/src/stm32f10x_spi.c **** 
 109:../../source/src/FWlib/src/stm32f10x_spi.c **** /** @defgroup SPI_Private_Functions
 110:../../source/src/FWlib/src/stm32f10x_spi.c ****   * @{
 111:../../source/src/FWlib/src/stm32f10x_spi.c ****   */
 112:../../source/src/FWlib/src/stm32f10x_spi.c **** 
 113:../../source/src/FWlib/src/stm32f10x_spi.c **** /**
 114:../../source/src/FWlib/src/stm32f10x_spi.c ****   * @brief  Deinitializes the SPIx peripheral registers to their default
 115:../../source/src/FWlib/src/stm32f10x_spi.c ****   *         reset values (Affects also the I2Ss).
 116:../../source/src/FWlib/src/stm32f10x_spi.c ****   * @param  SPIx: where x can be 1, 2 or 3 to select the SPI peripheral.
 117:../../source/src/FWlib/src/stm32f10x_spi.c ****   * @retval None
 118:../../source/src/FWlib/src/stm32f10x_spi.c ****   */
 119:../../source/src/FWlib/src/stm32f10x_spi.c **** void SPI_I2S_DeInit(SPI_TypeDef* SPIx)
 120:../../source/src/FWlib/src/stm32f10x_spi.c **** {
  26              		.loc 1 120 0
  27              		.cfi_startproc
  28              		@ args = 0, pretend = 0, frame = 0
  29              		@ frame_needed = 0, uses_anonymous_args = 0
  30              	.LVL0:
  31 0000 08B5     		push	{r3, lr}
  32              	.LCFI0:
  33              		.cfi_def_cfa_offset 8
  34              		.cfi_offset 3, -8
  35              		.cfi_offset 14, -4
 121:../../source/src/FWlib/src/stm32f10x_spi.c ****   /* Check the parameters */
 122:../../source/src/FWlib/src/stm32f10x_spi.c ****   assert_param(IS_SPI_ALL_PERIPH(SPIx));
 123:../../source/src/FWlib/src/stm32f10x_spi.c **** 
 124:../../source/src/FWlib/src/stm32f10x_spi.c ****   if (SPIx == SPI1)
  36              		.loc 1 124 0
  37 0002 174B     		ldr	r3, .L9
  38 0004 9842     		cmp	r0, r3
  39 0006 06D0     		beq	.L6
 125:../../source/src/FWlib/src/stm32f10x_spi.c ****   {
 126:../../source/src/FWlib/src/stm32f10x_spi.c ****     /* Enable SPI1 reset state */
 127:../../source/src/FWlib/src/stm32f10x_spi.c ****     RCC_APB2PeriphResetCmd(RCC_APB2Periph_SPI1, ENABLE);
 128:../../source/src/FWlib/src/stm32f10x_spi.c ****     /* Release SPI1 from reset state */
 129:../../source/src/FWlib/src/stm32f10x_spi.c ****     RCC_APB2PeriphResetCmd(RCC_APB2Periph_SPI1, DISABLE);
 130:../../source/src/FWlib/src/stm32f10x_spi.c ****   }
 131:../../source/src/FWlib/src/stm32f10x_spi.c ****   else if (SPIx == SPI2)
  40              		.loc 1 131 0
ARM GAS  G:\Users\Jaxb\AppData\Local\Temp\ccFgkJ8n.s 			page 4


  41 0008 164B     		ldr	r3, .L9+4
  42 000a 9842     		cmp	r0, r3
  43 000c 1BD0     		beq	.L7
 132:../../source/src/FWlib/src/stm32f10x_spi.c ****   {
 133:../../source/src/FWlib/src/stm32f10x_spi.c ****     /* Enable SPI2 reset state */
 134:../../source/src/FWlib/src/stm32f10x_spi.c ****     RCC_APB1PeriphResetCmd(RCC_APB1Periph_SPI2, ENABLE);
 135:../../source/src/FWlib/src/stm32f10x_spi.c ****     /* Release SPI2 from reset state */
 136:../../source/src/FWlib/src/stm32f10x_spi.c ****     RCC_APB1PeriphResetCmd(RCC_APB1Periph_SPI2, DISABLE);
 137:../../source/src/FWlib/src/stm32f10x_spi.c ****   }
 138:../../source/src/FWlib/src/stm32f10x_spi.c ****   else
 139:../../source/src/FWlib/src/stm32f10x_spi.c ****   {
 140:../../source/src/FWlib/src/stm32f10x_spi.c ****     if (SPIx == SPI3)
  44              		.loc 1 140 0
  45 000e 164B     		ldr	r3, .L9+8
  46 0010 9842     		cmp	r0, r3
  47 0012 0CD0     		beq	.L8
 141:../../source/src/FWlib/src/stm32f10x_spi.c ****     {
 142:../../source/src/FWlib/src/stm32f10x_spi.c ****       /* Enable SPI3 reset state */
 143:../../source/src/FWlib/src/stm32f10x_spi.c ****       RCC_APB1PeriphResetCmd(RCC_APB1Periph_SPI3, ENABLE);
 144:../../source/src/FWlib/src/stm32f10x_spi.c ****       /* Release SPI3 from reset state */
 145:../../source/src/FWlib/src/stm32f10x_spi.c ****       RCC_APB1PeriphResetCmd(RCC_APB1Periph_SPI3, DISABLE);
 146:../../source/src/FWlib/src/stm32f10x_spi.c ****     }
 147:../../source/src/FWlib/src/stm32f10x_spi.c ****   }
 148:../../source/src/FWlib/src/stm32f10x_spi.c **** }
  48              		.loc 1 148 0
  49 0014 08BD     		pop	{r3, pc}
  50              	.L6:
 127:../../source/src/FWlib/src/stm32f10x_spi.c ****     /* Release SPI1 from reset state */
  51              		.loc 1 127 0
  52 0016 0121     		movs	r1, #1
  53 0018 4FF48050 		mov	r0, #4096
  54              	.LVL1:
  55 001c FFF7FEFF 		bl	RCC_APB2PeriphResetCmd
  56              	.LVL2:
  57              		.loc 1 148 0
  58 0020 BDE80840 		pop	{r3, lr}
  59              	.LCFI1:
  60              		.cfi_remember_state
  61              		.cfi_restore 14
  62              		.cfi_restore 3
  63              		.cfi_def_cfa_offset 0
 129:../../source/src/FWlib/src/stm32f10x_spi.c ****   }
  64              		.loc 1 129 0
  65 0024 0021     		movs	r1, #0
  66 0026 4FF48050 		mov	r0, #4096
  67 002a FFF7FEBF 		b	RCC_APB2PeriphResetCmd
  68              	.LVL3:
  69              	.L8:
  70              	.LCFI2:
  71              		.cfi_restore_state
 143:../../source/src/FWlib/src/stm32f10x_spi.c ****       /* Release SPI3 from reset state */
  72              		.loc 1 143 0
  73 002e 0121     		movs	r1, #1
  74 0030 4FF40040 		mov	r0, #32768
  75              	.LVL4:
  76 0034 FFF7FEFF 		bl	RCC_APB1PeriphResetCmd
  77              	.LVL5:
ARM GAS  G:\Users\Jaxb\AppData\Local\Temp\ccFgkJ8n.s 			page 5


  78              		.loc 1 148 0
  79 0038 BDE80840 		pop	{r3, lr}
  80              	.LCFI3:
  81              		.cfi_remember_state
  82              		.cfi_restore 14
  83              		.cfi_restore 3
  84              		.cfi_def_cfa_offset 0
 145:../../source/src/FWlib/src/stm32f10x_spi.c ****     }
  85              		.loc 1 145 0
  86 003c 0021     		movs	r1, #0
  87 003e 4FF40040 		mov	r0, #32768
  88 0042 FFF7FEBF 		b	RCC_APB1PeriphResetCmd
  89              	.LVL6:
  90              	.L7:
  91              	.LCFI4:
  92              		.cfi_restore_state
 134:../../source/src/FWlib/src/stm32f10x_spi.c ****     /* Release SPI2 from reset state */
  93              		.loc 1 134 0
  94 0046 0121     		movs	r1, #1
  95 0048 4FF48040 		mov	r0, #16384
  96              	.LVL7:
  97 004c FFF7FEFF 		bl	RCC_APB1PeriphResetCmd
  98              	.LVL8:
  99              		.loc 1 148 0
 100 0050 BDE80840 		pop	{r3, lr}
 101              	.LCFI5:
 102              		.cfi_restore 14
 103              		.cfi_restore 3
 104              		.cfi_def_cfa_offset 0
 136:../../source/src/FWlib/src/stm32f10x_spi.c ****   }
 105              		.loc 1 136 0
 106 0054 0021     		movs	r1, #0
 107 0056 4FF48040 		mov	r0, #16384
 108 005a FFF7FEBF 		b	RCC_APB1PeriphResetCmd
 109              	.LVL9:
 110              	.L10:
 111 005e 00BF     		.align	2
 112              	.L9:
 113 0060 00300140 		.word	1073819648
 114 0064 00380040 		.word	1073756160
 115 0068 003C0040 		.word	1073757184
 116              		.cfi_endproc
 117              	.LFE29:
 118              		.size	SPI_I2S_DeInit, .-SPI_I2S_DeInit
 119              		.align	1
 120              		.p2align 2,,3
 121              		.global	SPI_Init
 122              		.syntax unified
 123              		.thumb
 124              		.thumb_func
 125              		.fpu softvfp
 126              		.type	SPI_Init, %function
 127              	SPI_Init:
 128              	.LFB30:
 149:../../source/src/FWlib/src/stm32f10x_spi.c **** 
 150:../../source/src/FWlib/src/stm32f10x_spi.c **** /**
 151:../../source/src/FWlib/src/stm32f10x_spi.c ****   * @brief  Initializes the SPIx peripheral according to the specified 
ARM GAS  G:\Users\Jaxb\AppData\Local\Temp\ccFgkJ8n.s 			page 6


 152:../../source/src/FWlib/src/stm32f10x_spi.c ****   *         parameters in the SPI_InitStruct.
 153:../../source/src/FWlib/src/stm32f10x_spi.c ****   * @param  SPIx: where x can be 1, 2 or 3 to select the SPI peripheral.
 154:../../source/src/FWlib/src/stm32f10x_spi.c ****   * @param  SPI_InitStruct: pointer to a SPI_InitTypeDef structure that
 155:../../source/src/FWlib/src/stm32f10x_spi.c ****   *         contains the configuration information for the specified SPI peripheral.
 156:../../source/src/FWlib/src/stm32f10x_spi.c ****   * @retval None
 157:../../source/src/FWlib/src/stm32f10x_spi.c ****   */
 158:../../source/src/FWlib/src/stm32f10x_spi.c **** void SPI_Init(SPI_TypeDef* SPIx, SPI_InitTypeDef* SPI_InitStruct)
 159:../../source/src/FWlib/src/stm32f10x_spi.c **** {
 129              		.loc 1 159 0
 130              		.cfi_startproc
 131              		@ args = 0, pretend = 0, frame = 0
 132              		@ frame_needed = 0, uses_anonymous_args = 0
 133              		@ link register save eliminated.
 134              	.LVL10:
 160:../../source/src/FWlib/src/stm32f10x_spi.c ****   uint16_t tmpreg = 0;
 161:../../source/src/FWlib/src/stm32f10x_spi.c ****   
 162:../../source/src/FWlib/src/stm32f10x_spi.c ****   /* check the parameters */
 163:../../source/src/FWlib/src/stm32f10x_spi.c ****   assert_param(IS_SPI_ALL_PERIPH(SPIx));   
 164:../../source/src/FWlib/src/stm32f10x_spi.c ****   
 165:../../source/src/FWlib/src/stm32f10x_spi.c ****   /* Check the SPI parameters */
 166:../../source/src/FWlib/src/stm32f10x_spi.c ****   assert_param(IS_SPI_DIRECTION_MODE(SPI_InitStruct->SPI_Direction));
 167:../../source/src/FWlib/src/stm32f10x_spi.c ****   assert_param(IS_SPI_MODE(SPI_InitStruct->SPI_Mode));
 168:../../source/src/FWlib/src/stm32f10x_spi.c ****   assert_param(IS_SPI_DATASIZE(SPI_InitStruct->SPI_DataSize));
 169:../../source/src/FWlib/src/stm32f10x_spi.c ****   assert_param(IS_SPI_CPOL(SPI_InitStruct->SPI_CPOL));
 170:../../source/src/FWlib/src/stm32f10x_spi.c ****   assert_param(IS_SPI_CPHA(SPI_InitStruct->SPI_CPHA));
 171:../../source/src/FWlib/src/stm32f10x_spi.c ****   assert_param(IS_SPI_NSS(SPI_InitStruct->SPI_NSS));
 172:../../source/src/FWlib/src/stm32f10x_spi.c ****   assert_param(IS_SPI_BAUDRATE_PRESCALER(SPI_InitStruct->SPI_BaudRatePrescaler));
 173:../../source/src/FWlib/src/stm32f10x_spi.c ****   assert_param(IS_SPI_FIRST_BIT(SPI_InitStruct->SPI_FirstBit));
 174:../../source/src/FWlib/src/stm32f10x_spi.c ****   assert_param(IS_SPI_CRC_POLYNOMIAL(SPI_InitStruct->SPI_CRCPolynomial));
 175:../../source/src/FWlib/src/stm32f10x_spi.c **** 
 176:../../source/src/FWlib/src/stm32f10x_spi.c **** /*---------------------------- SPIx CR1 Configuration ------------------------*/
 177:../../source/src/FWlib/src/stm32f10x_spi.c ****   /* Get the SPIx CR1 value */
 178:../../source/src/FWlib/src/stm32f10x_spi.c ****   tmpreg = SPIx->CR1;
 179:../../source/src/FWlib/src/stm32f10x_spi.c ****   /* Clear BIDIMode, BIDIOE, RxONLY, SSM, SSI, LSBFirst, BR, MSTR, CPOL and CPHA bits */
 180:../../source/src/FWlib/src/stm32f10x_spi.c ****   tmpreg &= CR1_CLEAR_Mask;
 181:../../source/src/FWlib/src/stm32f10x_spi.c ****   /* Configure SPIx: direction, NSS management, first transmitted bit, BaudRate prescaler
 182:../../source/src/FWlib/src/stm32f10x_spi.c ****      master/salve mode, CPOL and CPHA */
 183:../../source/src/FWlib/src/stm32f10x_spi.c ****   /* Set BIDImode, BIDIOE and RxONLY bits according to SPI_Direction value */
 184:../../source/src/FWlib/src/stm32f10x_spi.c ****   /* Set SSM, SSI and MSTR bits according to SPI_Mode and SPI_NSS values */
 185:../../source/src/FWlib/src/stm32f10x_spi.c ****   /* Set LSBFirst bit according to SPI_FirstBit value */
 186:../../source/src/FWlib/src/stm32f10x_spi.c ****   /* Set BR bits according to SPI_BaudRatePrescaler value */
 187:../../source/src/FWlib/src/stm32f10x_spi.c ****   /* Set CPOL bit according to SPI_CPOL value */
 188:../../source/src/FWlib/src/stm32f10x_spi.c ****   /* Set CPHA bit according to SPI_CPHA value */
 189:../../source/src/FWlib/src/stm32f10x_spi.c ****   tmpreg |= (uint16_t)((uint32_t)SPI_InitStruct->SPI_Direction | SPI_InitStruct->SPI_Mode |
 135              		.loc 1 189 0
 136 006c 4A88     		ldrh	r2, [r1, #2]
 137 006e 0B88     		ldrh	r3, [r1]
 159:../../source/src/FWlib/src/stm32f10x_spi.c ****   uint16_t tmpreg = 0;
 138              		.loc 1 159 0
 139 0070 30B4     		push	{r4, r5}
 140              	.LCFI6:
 141              		.cfi_def_cfa_offset 8
 142              		.cfi_offset 4, -8
 143              		.cfi_offset 5, -4
 144              		.loc 1 189 0
 145 0072 8C88     		ldrh	r4, [r1, #4]
 146 0074 1343     		orrs	r3, r3, r2
ARM GAS  G:\Users\Jaxb\AppData\Local\Temp\ccFgkJ8n.s 			page 7


 147 0076 CA88     		ldrh	r2, [r1, #6]
 148 0078 2343     		orrs	r3, r3, r4
 149 007a 0C89     		ldrh	r4, [r1, #8]
 150 007c 1343     		orrs	r3, r3, r2
 151 007e 4A89     		ldrh	r2, [r1, #10]
 152 0080 8D89     		ldrh	r5, [r1, #12]
 153 0082 2343     		orrs	r3, r3, r4
 154 0084 1343     		orrs	r3, r3, r2
 155 0086 CC89     		ldrh	r4, [r1, #14]
 178:../../source/src/FWlib/src/stm32f10x_spi.c ****   /* Clear BIDIMode, BIDIOE, RxONLY, SSM, SSI, LSBFirst, BR, MSTR, CPOL and CPHA bits */
 156              		.loc 1 178 0
 157 0088 0288     		ldrh	r2, [r0]
 158              	.LVL11:
 159              		.loc 1 189 0
 160 008a 2B43     		orrs	r3, r3, r5
 161 008c 2343     		orrs	r3, r3, r4
 180:../../source/src/FWlib/src/stm32f10x_spi.c ****   /* Configure SPIx: direction, NSS management, first transmitted bit, BaudRate prescaler
 162              		.loc 1 180 0
 163 008e 02F44152 		and	r2, r2, #12352
 164              	.LVL12:
 165              		.loc 1 189 0
 166 0092 1343     		orrs	r3, r3, r2
 167              	.LVL13:
 190:../../source/src/FWlib/src/stm32f10x_spi.c ****                   SPI_InitStruct->SPI_DataSize | SPI_InitStruct->SPI_CPOL |  
 191:../../source/src/FWlib/src/stm32f10x_spi.c ****                   SPI_InitStruct->SPI_CPHA | SPI_InitStruct->SPI_NSS |  
 192:../../source/src/FWlib/src/stm32f10x_spi.c ****                   SPI_InitStruct->SPI_BaudRatePrescaler | SPI_InitStruct->SPI_FirstBit);
 193:../../source/src/FWlib/src/stm32f10x_spi.c ****   /* Write to SPIx CR1 */
 194:../../source/src/FWlib/src/stm32f10x_spi.c ****   SPIx->CR1 = tmpreg;
 168              		.loc 1 194 0
 169 0094 0380     		strh	r3, [r0]	@ movhi
 195:../../source/src/FWlib/src/stm32f10x_spi.c ****   
 196:../../source/src/FWlib/src/stm32f10x_spi.c ****   /* Activate the SPI mode (Reset I2SMOD bit in I2SCFGR register) */
 197:../../source/src/FWlib/src/stm32f10x_spi.c ****   SPIx->I2SCFGR &= SPI_Mode_Select;		
 170              		.loc 1 197 0
 171 0096 838B     		ldrh	r3, [r0, #28]
 172              	.LVL14:
 198:../../source/src/FWlib/src/stm32f10x_spi.c **** 
 199:../../source/src/FWlib/src/stm32f10x_spi.c **** /*---------------------------- SPIx CRCPOLY Configuration --------------------*/
 200:../../source/src/FWlib/src/stm32f10x_spi.c ****   /* Write to SPIx CRCPOLY */
 201:../../source/src/FWlib/src/stm32f10x_spi.c ****   SPIx->CRCPR = SPI_InitStruct->SPI_CRCPolynomial;
 173              		.loc 1 201 0
 174 0098 0A8A     		ldrh	r2, [r1, #16]
 197:../../source/src/FWlib/src/stm32f10x_spi.c **** 
 175              		.loc 1 197 0
 176 009a 23F40063 		bic	r3, r3, #2048
 177 009e 1B04     		lsls	r3, r3, #16
 178 00a0 1B0C     		lsrs	r3, r3, #16
 179 00a2 8383     		strh	r3, [r0, #28]	@ movhi
 180              	.LVL15:
 202:../../source/src/FWlib/src/stm32f10x_spi.c **** }
 181              		.loc 1 202 0
 182 00a4 30BC     		pop	{r4, r5}
 183              	.LCFI7:
 184              		.cfi_restore 5
 185              		.cfi_restore 4
 186              		.cfi_def_cfa_offset 0
 201:../../source/src/FWlib/src/stm32f10x_spi.c **** }
ARM GAS  G:\Users\Jaxb\AppData\Local\Temp\ccFgkJ8n.s 			page 8


 187              		.loc 1 201 0
 188 00a6 0282     		strh	r2, [r0, #16]	@ movhi
 189              		.loc 1 202 0
 190 00a8 7047     		bx	lr
 191              		.cfi_endproc
 192              	.LFE30:
 193              		.size	SPI_Init, .-SPI_Init
 194              		.align	1
 195 00aa 00BF     		.p2align 2,,3
 196              		.global	I2S_Init
 197              		.syntax unified
 198              		.thumb
 199              		.thumb_func
 200              		.fpu softvfp
 201              		.type	I2S_Init, %function
 202              	I2S_Init:
 203              	.LFB31:
 203:../../source/src/FWlib/src/stm32f10x_spi.c **** 
 204:../../source/src/FWlib/src/stm32f10x_spi.c **** /**
 205:../../source/src/FWlib/src/stm32f10x_spi.c ****   * @brief  Initializes the SPIx peripheral according to the specified 
 206:../../source/src/FWlib/src/stm32f10x_spi.c ****   *         parameters in the I2S_InitStruct.
 207:../../source/src/FWlib/src/stm32f10x_spi.c ****   * @param  SPIx: where x can be  2 or 3 to select the SPI peripheral
 208:../../source/src/FWlib/src/stm32f10x_spi.c ****   *         (configured in I2S mode).
 209:../../source/src/FWlib/src/stm32f10x_spi.c ****   * @param  I2S_InitStruct: pointer to an I2S_InitTypeDef structure that
 210:../../source/src/FWlib/src/stm32f10x_spi.c ****   *         contains the configuration information for the specified SPI peripheral
 211:../../source/src/FWlib/src/stm32f10x_spi.c ****   *         configured in I2S mode.
 212:../../source/src/FWlib/src/stm32f10x_spi.c ****   * @note
 213:../../source/src/FWlib/src/stm32f10x_spi.c ****   *  The function calculates the optimal prescaler needed to obtain the most 
 214:../../source/src/FWlib/src/stm32f10x_spi.c ****   *  accurate audio frequency (depending on the I2S clock source, the PLL values 
 215:../../source/src/FWlib/src/stm32f10x_spi.c ****   *  and the product configuration). But in case the prescaler value is greater 
 216:../../source/src/FWlib/src/stm32f10x_spi.c ****   *  than 511, the default value (0x02) will be configured instead.  *   
 217:../../source/src/FWlib/src/stm32f10x_spi.c ****   * @retval None
 218:../../source/src/FWlib/src/stm32f10x_spi.c ****   */
 219:../../source/src/FWlib/src/stm32f10x_spi.c **** void I2S_Init(SPI_TypeDef* SPIx, I2S_InitTypeDef* I2S_InitStruct)
 220:../../source/src/FWlib/src/stm32f10x_spi.c **** {
 204              		.loc 1 220 0
 205              		.cfi_startproc
 206              		@ args = 0, pretend = 0, frame = 24
 207              		@ frame_needed = 0, uses_anonymous_args = 0
 208              	.LVL16:
 209 00ac F0B5     		push	{r4, r5, r6, r7, lr}
 210              	.LCFI8:
 211              		.cfi_def_cfa_offset 20
 212              		.cfi_offset 4, -20
 213              		.cfi_offset 5, -16
 214              		.cfi_offset 6, -12
 215              		.cfi_offset 7, -8
 216              		.cfi_offset 14, -4
 217 00ae 0546     		mov	r5, r0
 218 00b0 0C46     		mov	r4, r1
 221:../../source/src/FWlib/src/stm32f10x_spi.c ****   uint16_t tmpreg = 0, i2sdiv = 2, i2sodd = 0, packetlength = 1;
 222:../../source/src/FWlib/src/stm32f10x_spi.c ****   uint32_t tmp = 0;
 223:../../source/src/FWlib/src/stm32f10x_spi.c ****   RCC_ClocksTypeDef RCC_Clocks;
 224:../../source/src/FWlib/src/stm32f10x_spi.c ****   uint32_t sourceclock = 0;
 225:../../source/src/FWlib/src/stm32f10x_spi.c ****   
 226:../../source/src/FWlib/src/stm32f10x_spi.c ****   /* Check the I2S parameters */
 227:../../source/src/FWlib/src/stm32f10x_spi.c ****   assert_param(IS_SPI_23_PERIPH(SPIx));
ARM GAS  G:\Users\Jaxb\AppData\Local\Temp\ccFgkJ8n.s 			page 9


 228:../../source/src/FWlib/src/stm32f10x_spi.c ****   assert_param(IS_I2S_MODE(I2S_InitStruct->I2S_Mode));
 229:../../source/src/FWlib/src/stm32f10x_spi.c ****   assert_param(IS_I2S_STANDARD(I2S_InitStruct->I2S_Standard));
 230:../../source/src/FWlib/src/stm32f10x_spi.c ****   assert_param(IS_I2S_DATA_FORMAT(I2S_InitStruct->I2S_DataFormat));
 231:../../source/src/FWlib/src/stm32f10x_spi.c ****   assert_param(IS_I2S_MCLK_OUTPUT(I2S_InitStruct->I2S_MCLKOutput));
 232:../../source/src/FWlib/src/stm32f10x_spi.c ****   assert_param(IS_I2S_AUDIO_FREQ(I2S_InitStruct->I2S_AudioFreq));
 233:../../source/src/FWlib/src/stm32f10x_spi.c ****   assert_param(IS_I2S_CPOL(I2S_InitStruct->I2S_CPOL));  
 234:../../source/src/FWlib/src/stm32f10x_spi.c **** 
 235:../../source/src/FWlib/src/stm32f10x_spi.c **** /*----------------------- SPIx I2SCFGR & I2SPR Configuration -----------------*/
 236:../../source/src/FWlib/src/stm32f10x_spi.c ****   /* Clear I2SMOD, I2SE, I2SCFG, PCMSYNC, I2SSTD, CKPOL, DATLEN and CHLEN bits */
 237:../../source/src/FWlib/src/stm32f10x_spi.c ****   SPIx->I2SCFGR &= I2SCFGR_CLEAR_Mask; 
 238:../../source/src/FWlib/src/stm32f10x_spi.c ****   SPIx->I2SPR = 0x0002;
 219              		.loc 1 238 0
 220 00b2 0220     		movs	r0, #2
 221              	.LVL17:
 237:../../source/src/FWlib/src/stm32f10x_spi.c ****   SPIx->I2SPR = 0x0002;
 222              		.loc 1 237 0
 223 00b4 A98B     		ldrh	r1, [r5, #28]
 224              	.LVL18:
 225 00b6 254A     		ldr	r2, .L22
 239:../../source/src/FWlib/src/stm32f10x_spi.c ****   
 240:../../source/src/FWlib/src/stm32f10x_spi.c ****   /* Get the I2SCFGR register value */
 241:../../source/src/FWlib/src/stm32f10x_spi.c ****   tmpreg = SPIx->I2SCFGR;
 242:../../source/src/FWlib/src/stm32f10x_spi.c ****   
 243:../../source/src/FWlib/src/stm32f10x_spi.c ****   /* If the default value has to be written, reinitialize i2sdiv and i2sodd*/
 244:../../source/src/FWlib/src/stm32f10x_spi.c ****   if(I2S_InitStruct->I2S_AudioFreq == I2S_AudioFreq_Default)
 226              		.loc 1 244 0
 227 00b8 A368     		ldr	r3, [r4, #8]
 237:../../source/src/FWlib/src/stm32f10x_spi.c ****   SPIx->I2SPR = 0x0002;
 228              		.loc 1 237 0
 229 00ba 0A40     		ands	r2, r2, r1
 230 00bc AA83     		strh	r2, [r5, #28]	@ movhi
 238:../../source/src/FWlib/src/stm32f10x_spi.c ****   
 231              		.loc 1 238 0
 232 00be 2884     		strh	r0, [r5, #32]	@ movhi
 241:../../source/src/FWlib/src/stm32f10x_spi.c ****   
 233              		.loc 1 241 0
 234 00c0 AE8B     		ldrh	r6, [r5, #28]
 235              		.loc 1 244 0
 236 00c2 022B     		cmp	r3, #2
 220:../../source/src/FWlib/src/stm32f10x_spi.c ****   uint16_t tmpreg = 0, i2sdiv = 2, i2sodd = 0, packetlength = 1;
 237              		.loc 1 220 0
 238 00c4 87B0     		sub	sp, sp, #28
 239              	.LCFI9:
 240              		.cfi_def_cfa_offset 48
 241 00c6 A088     		ldrh	r0, [r4, #4]
 241:../../source/src/FWlib/src/stm32f10x_spi.c ****   
 242              		.loc 1 241 0
 243 00c8 B6B2     		uxth	r6, r6
 244              	.LVL19:
 245              		.loc 1 244 0
 246 00ca 3CD0     		beq	.L20
 245:../../source/src/FWlib/src/stm32f10x_spi.c ****   {
 246:../../source/src/FWlib/src/stm32f10x_spi.c ****     i2sodd = (uint16_t)0;
 247:../../source/src/FWlib/src/stm32f10x_spi.c ****     i2sdiv = (uint16_t)2;   
 248:../../source/src/FWlib/src/stm32f10x_spi.c ****   }
 249:../../source/src/FWlib/src/stm32f10x_spi.c ****   /* If the requested audio frequency is not the default, compute the prescaler */
 250:../../source/src/FWlib/src/stm32f10x_spi.c ****   else
ARM GAS  G:\Users\Jaxb\AppData\Local\Temp\ccFgkJ8n.s 			page 10


 251:../../source/src/FWlib/src/stm32f10x_spi.c ****   {
 252:../../source/src/FWlib/src/stm32f10x_spi.c ****     /* Check the frame length (For the Prescaler computing) */
 253:../../source/src/FWlib/src/stm32f10x_spi.c ****     if(I2S_InitStruct->I2S_DataFormat == I2S_DataFormat_16b)
 247              		.loc 1 253 0
 248 00cc 0028     		cmp	r0, #0
 254:../../source/src/FWlib/src/stm32f10x_spi.c ****     {
 255:../../source/src/FWlib/src/stm32f10x_spi.c ****       /* Packet length is 16 bits */
 256:../../source/src/FWlib/src/stm32f10x_spi.c ****       packetlength = 1;
 257:../../source/src/FWlib/src/stm32f10x_spi.c ****     }
 258:../../source/src/FWlib/src/stm32f10x_spi.c ****     else
 259:../../source/src/FWlib/src/stm32f10x_spi.c ****     {
 260:../../source/src/FWlib/src/stm32f10x_spi.c ****       /* Packet length is 32 bits */
 261:../../source/src/FWlib/src/stm32f10x_spi.c ****       packetlength = 2;
 262:../../source/src/FWlib/src/stm32f10x_spi.c ****     }
 263:../../source/src/FWlib/src/stm32f10x_spi.c **** 
 264:../../source/src/FWlib/src/stm32f10x_spi.c ****     /* Get the I2S clock source mask depending on the peripheral number */
 265:../../source/src/FWlib/src/stm32f10x_spi.c ****     if(((uint32_t)SPIx) == SPI2_BASE)
 266:../../source/src/FWlib/src/stm32f10x_spi.c ****     {
 267:../../source/src/FWlib/src/stm32f10x_spi.c ****       /* The mask is relative to I2S2 */
 268:../../source/src/FWlib/src/stm32f10x_spi.c ****       tmp = I2S2_CLOCK_SRC;
 269:../../source/src/FWlib/src/stm32f10x_spi.c ****     }
 270:../../source/src/FWlib/src/stm32f10x_spi.c ****     else 
 271:../../source/src/FWlib/src/stm32f10x_spi.c ****     {
 272:../../source/src/FWlib/src/stm32f10x_spi.c ****       /* The mask is relative to I2S3 */      
 273:../../source/src/FWlib/src/stm32f10x_spi.c ****       tmp = I2S3_CLOCK_SRC;
 274:../../source/src/FWlib/src/stm32f10x_spi.c ****     }
 275:../../source/src/FWlib/src/stm32f10x_spi.c **** 
 276:../../source/src/FWlib/src/stm32f10x_spi.c ****     /* Check the I2S clock source configuration depending on the Device:
 277:../../source/src/FWlib/src/stm32f10x_spi.c ****        Only Connectivity line devices have the PLL3 VCO clock */
 278:../../source/src/FWlib/src/stm32f10x_spi.c **** #ifdef STM32F10X_CL
 279:../../source/src/FWlib/src/stm32f10x_spi.c ****     if((RCC->CFGR2 & tmp) != 0)
 280:../../source/src/FWlib/src/stm32f10x_spi.c ****     {
 281:../../source/src/FWlib/src/stm32f10x_spi.c ****       /* Get the configuration bits of RCC PLL3 multiplier */
 282:../../source/src/FWlib/src/stm32f10x_spi.c ****       tmp = (uint32_t)((RCC->CFGR2 & I2S_MUL_MASK) >> 12);
 283:../../source/src/FWlib/src/stm32f10x_spi.c **** 
 284:../../source/src/FWlib/src/stm32f10x_spi.c ****       /* Get the value of the PLL3 multiplier */      
 285:../../source/src/FWlib/src/stm32f10x_spi.c ****       if((tmp > 5) && (tmp < 15))
 286:../../source/src/FWlib/src/stm32f10x_spi.c ****       {
 287:../../source/src/FWlib/src/stm32f10x_spi.c ****         /* Multiplier is between 8 and 14 (value 15 is forbidden) */
 288:../../source/src/FWlib/src/stm32f10x_spi.c ****         tmp += 2;
 289:../../source/src/FWlib/src/stm32f10x_spi.c ****       }
 290:../../source/src/FWlib/src/stm32f10x_spi.c ****       else
 291:../../source/src/FWlib/src/stm32f10x_spi.c ****       {
 292:../../source/src/FWlib/src/stm32f10x_spi.c ****         if (tmp == 15)
 293:../../source/src/FWlib/src/stm32f10x_spi.c ****         {
 294:../../source/src/FWlib/src/stm32f10x_spi.c ****           /* Multiplier is 20 */
 295:../../source/src/FWlib/src/stm32f10x_spi.c ****           tmp = 20;
 296:../../source/src/FWlib/src/stm32f10x_spi.c ****         }
 297:../../source/src/FWlib/src/stm32f10x_spi.c ****       }      
 298:../../source/src/FWlib/src/stm32f10x_spi.c ****       /* Get the PREDIV2 value */
 299:../../source/src/FWlib/src/stm32f10x_spi.c ****       sourceclock = (uint32_t)(((RCC->CFGR2 & I2S_DIV_MASK) >> 4) + 1);
 300:../../source/src/FWlib/src/stm32f10x_spi.c ****       
 301:../../source/src/FWlib/src/stm32f10x_spi.c ****       /* Calculate the Source Clock frequency based on PLL3 and PREDIV2 values */
 302:../../source/src/FWlib/src/stm32f10x_spi.c ****       sourceclock = (uint32_t) ((HSE_Value / sourceclock) * tmp * 2); 
 303:../../source/src/FWlib/src/stm32f10x_spi.c ****     }
 304:../../source/src/FWlib/src/stm32f10x_spi.c ****     else
 305:../../source/src/FWlib/src/stm32f10x_spi.c ****     {
ARM GAS  G:\Users\Jaxb\AppData\Local\Temp\ccFgkJ8n.s 			page 11


 306:../../source/src/FWlib/src/stm32f10x_spi.c ****       /* I2S Clock source is System clock: Get System Clock frequency */
 307:../../source/src/FWlib/src/stm32f10x_spi.c ****       RCC_GetClocksFreq(&RCC_Clocks);      
 308:../../source/src/FWlib/src/stm32f10x_spi.c ****       
 309:../../source/src/FWlib/src/stm32f10x_spi.c ****       /* Get the source clock value: based on System Clock value */
 310:../../source/src/FWlib/src/stm32f10x_spi.c ****       sourceclock = RCC_Clocks.SYSCLK_Frequency;
 311:../../source/src/FWlib/src/stm32f10x_spi.c ****     }        
 312:../../source/src/FWlib/src/stm32f10x_spi.c **** #else /* STM32F10X_HD */
 313:../../source/src/FWlib/src/stm32f10x_spi.c ****     /* I2S Clock source is System clock: Get System Clock frequency */
 314:../../source/src/FWlib/src/stm32f10x_spi.c ****     RCC_GetClocksFreq(&RCC_Clocks);      
 249              		.loc 1 314 0
 250 00ce 01A8     		add	r0, sp, #4
 261:../../source/src/FWlib/src/stm32f10x_spi.c ****     }
 251              		.loc 1 261 0
 252 00d0 0CBF     		ite	eq
 253 00d2 0127     		moveq	r7, #1
 254 00d4 0227     		movne	r7, #2
 255              	.LVL20:
 256              		.loc 1 314 0
 257 00d6 FFF7FEFF 		bl	RCC_GetClocksFreq
 258              	.LVL21:
 315:../../source/src/FWlib/src/stm32f10x_spi.c ****       
 316:../../source/src/FWlib/src/stm32f10x_spi.c ****     /* Get the source clock value: based on System Clock value */
 317:../../source/src/FWlib/src/stm32f10x_spi.c ****     sourceclock = RCC_Clocks.SYSCLK_Frequency;    
 318:../../source/src/FWlib/src/stm32f10x_spi.c **** #endif /* STM32F10X_CL */    
 319:../../source/src/FWlib/src/stm32f10x_spi.c **** 
 320:../../source/src/FWlib/src/stm32f10x_spi.c ****     /* Compute the Real divider depending on the MCLK output state with a floating point */
 321:../../source/src/FWlib/src/stm32f10x_spi.c ****     if(I2S_InitStruct->I2S_MCLKOutput == I2S_MCLKOutput_Enable)
 259              		.loc 1 321 0
 260 00da E188     		ldrh	r1, [r4, #6]
 317:../../source/src/FWlib/src/stm32f10x_spi.c **** #endif /* STM32F10X_CL */    
 261              		.loc 1 317 0
 262 00dc 019A     		ldr	r2, [sp, #4]
 263              	.LVL22:
 264              		.loc 1 321 0
 265 00de B1F5007F 		cmp	r1, #512
 266 00e2 26D0     		beq	.L21
 322:../../source/src/FWlib/src/stm32f10x_spi.c ****     {
 323:../../source/src/FWlib/src/stm32f10x_spi.c ****       /* MCLK output is enabled */
 324:../../source/src/FWlib/src/stm32f10x_spi.c ****       tmp = (uint16_t)(((((sourceclock / 256) * 10) / I2S_InitStruct->I2S_AudioFreq)) + 5);
 325:../../source/src/FWlib/src/stm32f10x_spi.c ****     }
 326:../../source/src/FWlib/src/stm32f10x_spi.c ****     else
 327:../../source/src/FWlib/src/stm32f10x_spi.c ****     {
 328:../../source/src/FWlib/src/stm32f10x_spi.c ****       /* MCLK output is disabled */
 329:../../source/src/FWlib/src/stm32f10x_spi.c ****       tmp = (uint16_t)(((((sourceclock / (32 * packetlength)) *10 ) / I2S_InitStruct->I2S_AudioFreq
 267              		.loc 1 329 0
 268 00e4 7F01     		lsls	r7, r7, #5
 269              	.LVL23:
 270 00e6 B2FBF7F2 		udiv	r2, r2, r7
 271              	.LVL24:
 272 00ea A068     		ldr	r0, [r4, #8]
 273 00ec 02EB8202 		add	r2, r2, r2, lsl #2
 274 00f0 5300     		lsls	r3, r2, #1
 275 00f2 B3FBF0F3 		udiv	r3, r3, r0
 276 00f6 0533     		adds	r3, r3, #5
 277 00f8 9BB2     		uxth	r3, r3
 278              	.LVL25:
 279              	.L17:
ARM GAS  G:\Users\Jaxb\AppData\Local\Temp\ccFgkJ8n.s 			page 12


 330:../../source/src/FWlib/src/stm32f10x_spi.c ****     }
 331:../../source/src/FWlib/src/stm32f10x_spi.c ****     
 332:../../source/src/FWlib/src/stm32f10x_spi.c ****     /* Remove the floating point */
 333:../../source/src/FWlib/src/stm32f10x_spi.c ****     tmp = tmp / 10;  
 280              		.loc 1 333 0
 281 00fa 154A     		ldr	r2, .L22+4
 282 00fc A088     		ldrh	r0, [r4, #4]
 283 00fe A2FB0323 		umull	r2, r3, r2, r3
 284              	.LVL26:
 285 0102 DB08     		lsrs	r3, r3, #3
 286              	.LVL27:
 334:../../source/src/FWlib/src/stm32f10x_spi.c ****       
 335:../../source/src/FWlib/src/stm32f10x_spi.c ****     /* Check the parity of the divider */
 336:../../source/src/FWlib/src/stm32f10x_spi.c ****     i2sodd = (uint16_t)(tmp & (uint16_t)0x0001);
 337:../../source/src/FWlib/src/stm32f10x_spi.c ****    
 338:../../source/src/FWlib/src/stm32f10x_spi.c ****     /* Compute the i2sdiv prescaler */
 339:../../source/src/FWlib/src/stm32f10x_spi.c ****     i2sdiv = (uint16_t)((tmp - i2sodd) / 2);
 287              		.loc 1 339 0
 288 0104 5A08     		lsrs	r2, r3, #1
 340:../../source/src/FWlib/src/stm32f10x_spi.c ****    
 341:../../source/src/FWlib/src/stm32f10x_spi.c ****     /* Get the Mask for the Odd bit (SPI_I2SPR[8]) register */
 342:../../source/src/FWlib/src/stm32f10x_spi.c ****     i2sodd = (uint16_t) (i2sodd << 8);
 343:../../source/src/FWlib/src/stm32f10x_spi.c ****   }
 344:../../source/src/FWlib/src/stm32f10x_spi.c ****   
 345:../../source/src/FWlib/src/stm32f10x_spi.c ****   /* Test if the divider is 1 or 0 or greater than 0xFF */
 346:../../source/src/FWlib/src/stm32f10x_spi.c ****   if ((i2sdiv < 2) || (i2sdiv > 0xFF))
 289              		.loc 1 346 0
 290 0106 971E     		subs	r7, r2, #2
 291 0108 FD2F     		cmp	r7, #253
 339:../../source/src/FWlib/src/stm32f10x_spi.c ****    
 292              		.loc 1 339 0
 293 010a 03F00103 		and	r3, r3, #1
 294              	.LVL28:
 295 010e 8CBF     		ite	hi
 296 0110 0223     		movhi	r3, #2
 297              	.LVL29:
 298 0112 42EA0323 		orrls	r3, r2, r3, lsl #8
 299              	.LVL30:
 300              	.L14:
 301 0116 2288     		ldrh	r2, [r4]
 302 0118 6788     		ldrh	r7, [r4, #2]
 303 011a A489     		ldrh	r4, [r4, #12]
 304              	.LVL31:
 305 011c 3A43     		orrs	r2, r2, r7
 306 011e 42F40062 		orr	r2, r2, #2048
 307 0122 2243     		orrs	r2, r2, r4
 308 0124 1643     		orrs	r6, r6, r2
 309              	.LVL32:
 347:../../source/src/FWlib/src/stm32f10x_spi.c ****   {
 348:../../source/src/FWlib/src/stm32f10x_spi.c ****     /* Set the default values */
 349:../../source/src/FWlib/src/stm32f10x_spi.c ****     i2sdiv = 2;
 350:../../source/src/FWlib/src/stm32f10x_spi.c ****     i2sodd = 0;
 351:../../source/src/FWlib/src/stm32f10x_spi.c ****   }
 352:../../source/src/FWlib/src/stm32f10x_spi.c **** 
 353:../../source/src/FWlib/src/stm32f10x_spi.c ****   /* Write to SPIx I2SPR register the computed value */
 354:../../source/src/FWlib/src/stm32f10x_spi.c ****   SPIx->I2SPR = (uint16_t)(i2sdiv | (uint16_t)(i2sodd | (uint16_t)I2S_InitStruct->I2S_MCLKOutput));
 310              		.loc 1 354 0
ARM GAS  G:\Users\Jaxb\AppData\Local\Temp\ccFgkJ8n.s 			page 13


 311 0126 0B43     		orrs	r3, r3, r1
 355:../../source/src/FWlib/src/stm32f10x_spi.c ****  
 356:../../source/src/FWlib/src/stm32f10x_spi.c ****   /* Configure the I2S with the SPI_InitStruct values */
 357:../../source/src/FWlib/src/stm32f10x_spi.c ****   tmpreg |= (uint16_t)(I2S_Mode_Select | (uint16_t)(I2S_InitStruct->I2S_Mode | \
 312              		.loc 1 357 0
 313 0128 0643     		orrs	r6, r6, r0
 314              	.LVL33:
 354:../../source/src/FWlib/src/stm32f10x_spi.c ****  
 315              		.loc 1 354 0
 316 012a 2B84     		strh	r3, [r5, #32]	@ movhi
 358:../../source/src/FWlib/src/stm32f10x_spi.c ****                   (uint16_t)(I2S_InitStruct->I2S_Standard | (uint16_t)(I2S_InitStruct->I2S_DataForm
 359:../../source/src/FWlib/src/stm32f10x_spi.c ****                   (uint16_t)I2S_InitStruct->I2S_CPOL))));
 360:../../source/src/FWlib/src/stm32f10x_spi.c ****  
 361:../../source/src/FWlib/src/stm32f10x_spi.c ****   /* Write to SPIx I2SCFGR */  
 362:../../source/src/FWlib/src/stm32f10x_spi.c ****   SPIx->I2SCFGR = tmpreg;   
 317              		.loc 1 362 0
 318 012c AE83     		strh	r6, [r5, #28]	@ movhi
 363:../../source/src/FWlib/src/stm32f10x_spi.c **** }
 319              		.loc 1 363 0
 320 012e 07B0     		add	sp, sp, #28
 321              	.LCFI10:
 322              		.cfi_remember_state
 323              		.cfi_def_cfa_offset 20
 324              		@ sp needed
 325 0130 F0BD     		pop	{r4, r5, r6, r7, pc}
 326              	.LVL34:
 327              	.L21:
 328              	.LCFI11:
 329              		.cfi_restore_state
 324:../../source/src/FWlib/src/stm32f10x_spi.c ****     }
 330              		.loc 1 324 0
 331 0132 120A     		lsrs	r2, r2, #8
 332              	.LVL35:
 333 0134 02EB8202 		add	r2, r2, r2, lsl #2
 334 0138 A068     		ldr	r0, [r4, #8]
 335 013a 5300     		lsls	r3, r2, #1
 336 013c B3FBF0F3 		udiv	r3, r3, r0
 337 0140 0533     		adds	r3, r3, #5
 338 0142 9BB2     		uxth	r3, r3
 339              	.LVL36:
 340 0144 D9E7     		b	.L17
 341              	.LVL37:
 342              	.L20:
 343 0146 E188     		ldrh	r1, [r4, #6]
 344 0148 E5E7     		b	.L14
 345              	.L23:
 346 014a 00BF     		.align	2
 347              	.L22:
 348 014c 40F0FFFF 		.word	-4032
 349 0150 CDCCCCCC 		.word	-858993459
 350              		.cfi_endproc
 351              	.LFE31:
 352              		.size	I2S_Init, .-I2S_Init
 353              		.align	1
 354              		.p2align 2,,3
 355              		.global	SPI_StructInit
 356              		.syntax unified
ARM GAS  G:\Users\Jaxb\AppData\Local\Temp\ccFgkJ8n.s 			page 14


 357              		.thumb
 358              		.thumb_func
 359              		.fpu softvfp
 360              		.type	SPI_StructInit, %function
 361              	SPI_StructInit:
 362              	.LFB32:
 364:../../source/src/FWlib/src/stm32f10x_spi.c **** 
 365:../../source/src/FWlib/src/stm32f10x_spi.c **** /**
 366:../../source/src/FWlib/src/stm32f10x_spi.c ****   * @brief  Fills each SPI_InitStruct member with its default value.
 367:../../source/src/FWlib/src/stm32f10x_spi.c ****   * @param  SPI_InitStruct : pointer to a SPI_InitTypeDef structure which will be initialized.
 368:../../source/src/FWlib/src/stm32f10x_spi.c ****   * @retval None
 369:../../source/src/FWlib/src/stm32f10x_spi.c ****   */
 370:../../source/src/FWlib/src/stm32f10x_spi.c **** void SPI_StructInit(SPI_InitTypeDef* SPI_InitStruct)
 371:../../source/src/FWlib/src/stm32f10x_spi.c **** {
 363              		.loc 1 371 0
 364              		.cfi_startproc
 365              		@ args = 0, pretend = 0, frame = 0
 366              		@ frame_needed = 0, uses_anonymous_args = 0
 367              		@ link register save eliminated.
 368              	.LVL38:
 372:../../source/src/FWlib/src/stm32f10x_spi.c **** /*--------------- Reset SPI init structure parameters values -----------------*/
 373:../../source/src/FWlib/src/stm32f10x_spi.c ****   /* Initialize the SPI_Direction member */
 374:../../source/src/FWlib/src/stm32f10x_spi.c ****   SPI_InitStruct->SPI_Direction = SPI_Direction_2Lines_FullDuplex;
 369              		.loc 1 374 0
 370 0154 0023     		movs	r3, #0
 375:../../source/src/FWlib/src/stm32f10x_spi.c ****   /* initialize the SPI_Mode member */
 376:../../source/src/FWlib/src/stm32f10x_spi.c ****   SPI_InitStruct->SPI_Mode = SPI_Mode_Slave;
 377:../../source/src/FWlib/src/stm32f10x_spi.c ****   /* initialize the SPI_DataSize member */
 378:../../source/src/FWlib/src/stm32f10x_spi.c ****   SPI_InitStruct->SPI_DataSize = SPI_DataSize_8b;
 379:../../source/src/FWlib/src/stm32f10x_spi.c ****   /* Initialize the SPI_CPOL member */
 380:../../source/src/FWlib/src/stm32f10x_spi.c ****   SPI_InitStruct->SPI_CPOL = SPI_CPOL_Low;
 381:../../source/src/FWlib/src/stm32f10x_spi.c ****   /* Initialize the SPI_CPHA member */
 382:../../source/src/FWlib/src/stm32f10x_spi.c ****   SPI_InitStruct->SPI_CPHA = SPI_CPHA_1Edge;
 383:../../source/src/FWlib/src/stm32f10x_spi.c ****   /* Initialize the SPI_NSS member */
 384:../../source/src/FWlib/src/stm32f10x_spi.c ****   SPI_InitStruct->SPI_NSS = SPI_NSS_Hard;
 385:../../source/src/FWlib/src/stm32f10x_spi.c ****   /* Initialize the SPI_BaudRatePrescaler member */
 386:../../source/src/FWlib/src/stm32f10x_spi.c ****   SPI_InitStruct->SPI_BaudRatePrescaler = SPI_BaudRatePrescaler_2;
 387:../../source/src/FWlib/src/stm32f10x_spi.c ****   /* Initialize the SPI_FirstBit member */
 388:../../source/src/FWlib/src/stm32f10x_spi.c ****   SPI_InitStruct->SPI_FirstBit = SPI_FirstBit_MSB;
 389:../../source/src/FWlib/src/stm32f10x_spi.c ****   /* Initialize the SPI_CRCPolynomial member */
 390:../../source/src/FWlib/src/stm32f10x_spi.c ****   SPI_InitStruct->SPI_CRCPolynomial = 7;
 371              		.loc 1 390 0
 372 0156 0722     		movs	r2, #7
 374:../../source/src/FWlib/src/stm32f10x_spi.c ****   /* initialize the SPI_Mode member */
 373              		.loc 1 374 0
 374 0158 0380     		strh	r3, [r0]	@ movhi
 375              		.loc 1 390 0
 376 015a 0282     		strh	r2, [r0, #16]	@ movhi
 376:../../source/src/FWlib/src/stm32f10x_spi.c ****   /* initialize the SPI_DataSize member */
 377              		.loc 1 376 0
 378 015c 4380     		strh	r3, [r0, #2]	@ movhi
 378:../../source/src/FWlib/src/stm32f10x_spi.c ****   /* Initialize the SPI_CPOL member */
 379              		.loc 1 378 0
 380 015e 8380     		strh	r3, [r0, #4]	@ movhi
 380:../../source/src/FWlib/src/stm32f10x_spi.c ****   /* Initialize the SPI_CPHA member */
 381              		.loc 1 380 0
 382 0160 C380     		strh	r3, [r0, #6]	@ movhi
ARM GAS  G:\Users\Jaxb\AppData\Local\Temp\ccFgkJ8n.s 			page 15


 382:../../source/src/FWlib/src/stm32f10x_spi.c ****   /* Initialize the SPI_NSS member */
 383              		.loc 1 382 0
 384 0162 0381     		strh	r3, [r0, #8]	@ movhi
 384:../../source/src/FWlib/src/stm32f10x_spi.c ****   /* Initialize the SPI_BaudRatePrescaler member */
 385              		.loc 1 384 0
 386 0164 4381     		strh	r3, [r0, #10]	@ movhi
 386:../../source/src/FWlib/src/stm32f10x_spi.c ****   /* Initialize the SPI_FirstBit member */
 387              		.loc 1 386 0
 388 0166 8381     		strh	r3, [r0, #12]	@ movhi
 388:../../source/src/FWlib/src/stm32f10x_spi.c ****   /* Initialize the SPI_CRCPolynomial member */
 389              		.loc 1 388 0
 390 0168 C381     		strh	r3, [r0, #14]	@ movhi
 391:../../source/src/FWlib/src/stm32f10x_spi.c **** }
 391              		.loc 1 391 0
 392 016a 7047     		bx	lr
 393              		.cfi_endproc
 394              	.LFE32:
 395              		.size	SPI_StructInit, .-SPI_StructInit
 396              		.align	1
 397              		.p2align 2,,3
 398              		.global	I2S_StructInit
 399              		.syntax unified
 400              		.thumb
 401              		.thumb_func
 402              		.fpu softvfp
 403              		.type	I2S_StructInit, %function
 404              	I2S_StructInit:
 405              	.LFB33:
 392:../../source/src/FWlib/src/stm32f10x_spi.c **** 
 393:../../source/src/FWlib/src/stm32f10x_spi.c **** /**
 394:../../source/src/FWlib/src/stm32f10x_spi.c ****   * @brief  Fills each I2S_InitStruct member with its default value.
 395:../../source/src/FWlib/src/stm32f10x_spi.c ****   * @param  I2S_InitStruct : pointer to a I2S_InitTypeDef structure which will be initialized.
 396:../../source/src/FWlib/src/stm32f10x_spi.c ****   * @retval None
 397:../../source/src/FWlib/src/stm32f10x_spi.c ****   */
 398:../../source/src/FWlib/src/stm32f10x_spi.c **** void I2S_StructInit(I2S_InitTypeDef* I2S_InitStruct)
 399:../../source/src/FWlib/src/stm32f10x_spi.c **** {
 406              		.loc 1 399 0
 407              		.cfi_startproc
 408              		@ args = 0, pretend = 0, frame = 0
 409              		@ frame_needed = 0, uses_anonymous_args = 0
 410              		@ link register save eliminated.
 411              	.LVL39:
 400:../../source/src/FWlib/src/stm32f10x_spi.c **** /*--------------- Reset I2S init structure parameters values -----------------*/
 401:../../source/src/FWlib/src/stm32f10x_spi.c ****   /* Initialize the I2S_Mode member */
 402:../../source/src/FWlib/src/stm32f10x_spi.c ****   I2S_InitStruct->I2S_Mode = I2S_Mode_SlaveTx;
 412              		.loc 1 402 0
 413 016c 0023     		movs	r3, #0
 403:../../source/src/FWlib/src/stm32f10x_spi.c ****   
 404:../../source/src/FWlib/src/stm32f10x_spi.c ****   /* Initialize the I2S_Standard member */
 405:../../source/src/FWlib/src/stm32f10x_spi.c ****   I2S_InitStruct->I2S_Standard = I2S_Standard_Phillips;
 406:../../source/src/FWlib/src/stm32f10x_spi.c ****   
 407:../../source/src/FWlib/src/stm32f10x_spi.c ****   /* Initialize the I2S_DataFormat member */
 408:../../source/src/FWlib/src/stm32f10x_spi.c ****   I2S_InitStruct->I2S_DataFormat = I2S_DataFormat_16b;
 409:../../source/src/FWlib/src/stm32f10x_spi.c ****   
 410:../../source/src/FWlib/src/stm32f10x_spi.c ****   /* Initialize the I2S_MCLKOutput member */
 411:../../source/src/FWlib/src/stm32f10x_spi.c ****   I2S_InitStruct->I2S_MCLKOutput = I2S_MCLKOutput_Disable;
 414              		.loc 1 411 0
ARM GAS  G:\Users\Jaxb\AppData\Local\Temp\ccFgkJ8n.s 			page 16


 415 016e 0222     		movs	r2, #2
 405:../../source/src/FWlib/src/stm32f10x_spi.c ****   
 416              		.loc 1 405 0
 417 0170 C0E90033 		strd	r3, r3, [r0]
 418              		.loc 1 411 0
 419 0174 8260     		str	r2, [r0, #8]
 412:../../source/src/FWlib/src/stm32f10x_spi.c ****   
 413:../../source/src/FWlib/src/stm32f10x_spi.c ****   /* Initialize the I2S_AudioFreq member */
 414:../../source/src/FWlib/src/stm32f10x_spi.c ****   I2S_InitStruct->I2S_AudioFreq = I2S_AudioFreq_Default;
 420              		.loc 1 414 0
 421 0176 8381     		strh	r3, [r0, #12]	@ movhi
 415:../../source/src/FWlib/src/stm32f10x_spi.c ****   
 416:../../source/src/FWlib/src/stm32f10x_spi.c ****   /* Initialize the I2S_CPOL member */
 417:../../source/src/FWlib/src/stm32f10x_spi.c ****   I2S_InitStruct->I2S_CPOL = I2S_CPOL_Low;
 418:../../source/src/FWlib/src/stm32f10x_spi.c **** }
 422              		.loc 1 418 0
 423 0178 7047     		bx	lr
 424              		.cfi_endproc
 425              	.LFE33:
 426              		.size	I2S_StructInit, .-I2S_StructInit
 427              		.align	1
 428 017a 00BF     		.p2align 2,,3
 429              		.global	SPI_Cmd
 430              		.syntax unified
 431              		.thumb
 432              		.thumb_func
 433              		.fpu softvfp
 434              		.type	SPI_Cmd, %function
 435              	SPI_Cmd:
 436              	.LFB34:
 419:../../source/src/FWlib/src/stm32f10x_spi.c **** 
 420:../../source/src/FWlib/src/stm32f10x_spi.c **** /**
 421:../../source/src/FWlib/src/stm32f10x_spi.c ****   * @brief  Enables or disables the specified SPI peripheral.
 422:../../source/src/FWlib/src/stm32f10x_spi.c ****   * @param  SPIx: where x can be 1, 2 or 3 to select the SPI peripheral.
 423:../../source/src/FWlib/src/stm32f10x_spi.c ****   * @param  NewState: new state of the SPIx peripheral. 
 424:../../source/src/FWlib/src/stm32f10x_spi.c ****   *   This parameter can be: ENABLE or DISABLE.
 425:../../source/src/FWlib/src/stm32f10x_spi.c ****   * @retval None
 426:../../source/src/FWlib/src/stm32f10x_spi.c ****   */
 427:../../source/src/FWlib/src/stm32f10x_spi.c **** void SPI_Cmd(SPI_TypeDef* SPIx, FunctionalState NewState)
 428:../../source/src/FWlib/src/stm32f10x_spi.c **** {
 437              		.loc 1 428 0
 438              		.cfi_startproc
 439              		@ args = 0, pretend = 0, frame = 0
 440              		@ frame_needed = 0, uses_anonymous_args = 0
 441              		@ link register save eliminated.
 442              	.LVL40:
 429:../../source/src/FWlib/src/stm32f10x_spi.c ****   /* Check the parameters */
 430:../../source/src/FWlib/src/stm32f10x_spi.c ****   assert_param(IS_SPI_ALL_PERIPH(SPIx));
 431:../../source/src/FWlib/src/stm32f10x_spi.c ****   assert_param(IS_FUNCTIONAL_STATE(NewState));
 432:../../source/src/FWlib/src/stm32f10x_spi.c ****   if (NewState != DISABLE)
 433:../../source/src/FWlib/src/stm32f10x_spi.c ****   {
 434:../../source/src/FWlib/src/stm32f10x_spi.c ****     /* Enable the selected SPI peripheral */
 435:../../source/src/FWlib/src/stm32f10x_spi.c ****     SPIx->CR1 |= CR1_SPE_Set;
 443              		.loc 1 435 0
 444 017c 0388     		ldrh	r3, [r0]
 432:../../source/src/FWlib/src/stm32f10x_spi.c ****   {
 445              		.loc 1 432 0
ARM GAS  G:\Users\Jaxb\AppData\Local\Temp\ccFgkJ8n.s 			page 17


 446 017e 29B9     		cbnz	r1, .L29
 436:../../source/src/FWlib/src/stm32f10x_spi.c ****   }
 437:../../source/src/FWlib/src/stm32f10x_spi.c ****   else
 438:../../source/src/FWlib/src/stm32f10x_spi.c ****   {
 439:../../source/src/FWlib/src/stm32f10x_spi.c ****     /* Disable the selected SPI peripheral */
 440:../../source/src/FWlib/src/stm32f10x_spi.c ****     SPIx->CR1 &= CR1_SPE_Reset;
 447              		.loc 1 440 0
 448 0180 23F04003 		bic	r3, r3, #64
 449 0184 1B04     		lsls	r3, r3, #16
 450 0186 1B0C     		lsrs	r3, r3, #16
 451 0188 0380     		strh	r3, [r0]	@ movhi
 441:../../source/src/FWlib/src/stm32f10x_spi.c ****   }
 442:../../source/src/FWlib/src/stm32f10x_spi.c **** }
 452              		.loc 1 442 0
 453 018a 7047     		bx	lr
 454              	.L29:
 435:../../source/src/FWlib/src/stm32f10x_spi.c ****   }
 455              		.loc 1 435 0
 456 018c 43F04003 		orr	r3, r3, #64
 457 0190 0380     		strh	r3, [r0]	@ movhi
 458 0192 7047     		bx	lr
 459              		.cfi_endproc
 460              	.LFE34:
 461              		.size	SPI_Cmd, .-SPI_Cmd
 462              		.align	1
 463              		.p2align 2,,3
 464              		.global	I2S_Cmd
 465              		.syntax unified
 466              		.thumb
 467              		.thumb_func
 468              		.fpu softvfp
 469              		.type	I2S_Cmd, %function
 470              	I2S_Cmd:
 471              	.LFB35:
 443:../../source/src/FWlib/src/stm32f10x_spi.c **** 
 444:../../source/src/FWlib/src/stm32f10x_spi.c **** /**
 445:../../source/src/FWlib/src/stm32f10x_spi.c ****   * @brief  Enables or disables the specified SPI peripheral (in I2S mode).
 446:../../source/src/FWlib/src/stm32f10x_spi.c ****   * @param  SPIx: where x can be 2 or 3 to select the SPI peripheral.
 447:../../source/src/FWlib/src/stm32f10x_spi.c ****   * @param  NewState: new state of the SPIx peripheral. 
 448:../../source/src/FWlib/src/stm32f10x_spi.c ****   *   This parameter can be: ENABLE or DISABLE.
 449:../../source/src/FWlib/src/stm32f10x_spi.c ****   * @retval None
 450:../../source/src/FWlib/src/stm32f10x_spi.c ****   */
 451:../../source/src/FWlib/src/stm32f10x_spi.c **** void I2S_Cmd(SPI_TypeDef* SPIx, FunctionalState NewState)
 452:../../source/src/FWlib/src/stm32f10x_spi.c **** {
 472              		.loc 1 452 0
 473              		.cfi_startproc
 474              		@ args = 0, pretend = 0, frame = 0
 475              		@ frame_needed = 0, uses_anonymous_args = 0
 476              		@ link register save eliminated.
 477              	.LVL41:
 453:../../source/src/FWlib/src/stm32f10x_spi.c ****   /* Check the parameters */
 454:../../source/src/FWlib/src/stm32f10x_spi.c ****   assert_param(IS_SPI_23_PERIPH(SPIx));
 455:../../source/src/FWlib/src/stm32f10x_spi.c ****   assert_param(IS_FUNCTIONAL_STATE(NewState));
 456:../../source/src/FWlib/src/stm32f10x_spi.c ****   if (NewState != DISABLE)
 457:../../source/src/FWlib/src/stm32f10x_spi.c ****   {
 458:../../source/src/FWlib/src/stm32f10x_spi.c ****     /* Enable the selected SPI peripheral (in I2S mode) */
 459:../../source/src/FWlib/src/stm32f10x_spi.c ****     SPIx->I2SCFGR |= I2SCFGR_I2SE_Set;
ARM GAS  G:\Users\Jaxb\AppData\Local\Temp\ccFgkJ8n.s 			page 18


 478              		.loc 1 459 0
 479 0194 838B     		ldrh	r3, [r0, #28]
 456:../../source/src/FWlib/src/stm32f10x_spi.c ****   {
 480              		.loc 1 456 0
 481 0196 29B9     		cbnz	r1, .L33
 460:../../source/src/FWlib/src/stm32f10x_spi.c ****   }
 461:../../source/src/FWlib/src/stm32f10x_spi.c ****   else
 462:../../source/src/FWlib/src/stm32f10x_spi.c ****   {
 463:../../source/src/FWlib/src/stm32f10x_spi.c ****     /* Disable the selected SPI peripheral (in I2S mode) */
 464:../../source/src/FWlib/src/stm32f10x_spi.c ****     SPIx->I2SCFGR &= I2SCFGR_I2SE_Reset;
 482              		.loc 1 464 0
 483 0198 23F48063 		bic	r3, r3, #1024
 484 019c 1B04     		lsls	r3, r3, #16
 485 019e 1B0C     		lsrs	r3, r3, #16
 486 01a0 8383     		strh	r3, [r0, #28]	@ movhi
 465:../../source/src/FWlib/src/stm32f10x_spi.c ****   }
 466:../../source/src/FWlib/src/stm32f10x_spi.c **** }
 487              		.loc 1 466 0
 488 01a2 7047     		bx	lr
 489              	.L33:
 459:../../source/src/FWlib/src/stm32f10x_spi.c ****   }
 490              		.loc 1 459 0
 491 01a4 43F48063 		orr	r3, r3, #1024
 492 01a8 8383     		strh	r3, [r0, #28]	@ movhi
 493 01aa 7047     		bx	lr
 494              		.cfi_endproc
 495              	.LFE35:
 496              		.size	I2S_Cmd, .-I2S_Cmd
 497              		.align	1
 498              		.p2align 2,,3
 499              		.global	SPI_I2S_ITConfig
 500              		.syntax unified
 501              		.thumb
 502              		.thumb_func
 503              		.fpu softvfp
 504              		.type	SPI_I2S_ITConfig, %function
 505              	SPI_I2S_ITConfig:
 506              	.LFB36:
 467:../../source/src/FWlib/src/stm32f10x_spi.c **** 
 468:../../source/src/FWlib/src/stm32f10x_spi.c **** /**
 469:../../source/src/FWlib/src/stm32f10x_spi.c ****   * @brief  Enables or disables the specified SPI/I2S interrupts.
 470:../../source/src/FWlib/src/stm32f10x_spi.c ****   * @param  SPIx: where x can be
 471:../../source/src/FWlib/src/stm32f10x_spi.c ****   *   - 1, 2 or 3 in SPI mode 
 472:../../source/src/FWlib/src/stm32f10x_spi.c ****   *   - 2 or 3 in I2S mode
 473:../../source/src/FWlib/src/stm32f10x_spi.c ****   * @param  SPI_I2S_IT: specifies the SPI/I2S interrupt source to be enabled or disabled. 
 474:../../source/src/FWlib/src/stm32f10x_spi.c ****   *   This parameter can be one of the following values:
 475:../../source/src/FWlib/src/stm32f10x_spi.c ****   *     @arg SPI_I2S_IT_TXE: Tx buffer empty interrupt mask
 476:../../source/src/FWlib/src/stm32f10x_spi.c ****   *     @arg SPI_I2S_IT_RXNE: Rx buffer not empty interrupt mask
 477:../../source/src/FWlib/src/stm32f10x_spi.c ****   *     @arg SPI_I2S_IT_ERR: Error interrupt mask
 478:../../source/src/FWlib/src/stm32f10x_spi.c ****   * @param  NewState: new state of the specified SPI/I2S interrupt.
 479:../../source/src/FWlib/src/stm32f10x_spi.c ****   *   This parameter can be: ENABLE or DISABLE.
 480:../../source/src/FWlib/src/stm32f10x_spi.c ****   * @retval None
 481:../../source/src/FWlib/src/stm32f10x_spi.c ****   */
 482:../../source/src/FWlib/src/stm32f10x_spi.c **** void SPI_I2S_ITConfig(SPI_TypeDef* SPIx, uint8_t SPI_I2S_IT, FunctionalState NewState)
 483:../../source/src/FWlib/src/stm32f10x_spi.c **** {
 507              		.loc 1 483 0
 508              		.cfi_startproc
ARM GAS  G:\Users\Jaxb\AppData\Local\Temp\ccFgkJ8n.s 			page 19


 509              		@ args = 0, pretend = 0, frame = 0
 510              		@ frame_needed = 0, uses_anonymous_args = 0
 511              		@ link register save eliminated.
 512              	.LVL42:
 484:../../source/src/FWlib/src/stm32f10x_spi.c ****   uint16_t itpos = 0, itmask = 0 ;
 485:../../source/src/FWlib/src/stm32f10x_spi.c ****   /* Check the parameters */
 486:../../source/src/FWlib/src/stm32f10x_spi.c ****   assert_param(IS_SPI_ALL_PERIPH(SPIx));
 487:../../source/src/FWlib/src/stm32f10x_spi.c ****   assert_param(IS_FUNCTIONAL_STATE(NewState));
 488:../../source/src/FWlib/src/stm32f10x_spi.c ****   assert_param(IS_SPI_I2S_CONFIG_IT(SPI_I2S_IT));
 489:../../source/src/FWlib/src/stm32f10x_spi.c **** 
 490:../../source/src/FWlib/src/stm32f10x_spi.c ****   /* Get the SPI/I2S IT index */
 491:../../source/src/FWlib/src/stm32f10x_spi.c ****   itpos = SPI_I2S_IT >> 4;
 492:../../source/src/FWlib/src/stm32f10x_spi.c **** 
 493:../../source/src/FWlib/src/stm32f10x_spi.c ****   /* Set the IT mask */
 494:../../source/src/FWlib/src/stm32f10x_spi.c ****   itmask = (uint16_t)1 << (uint16_t)itpos;
 513              		.loc 1 494 0
 514 01ac 0123     		movs	r3, #1
 515 01ae 0909     		lsrs	r1, r1, #4
 516              	.LVL43:
 517 01b0 8B40     		lsls	r3, r3, r1
 518 01b2 9BB2     		uxth	r3, r3
 519              	.LVL44:
 495:../../source/src/FWlib/src/stm32f10x_spi.c **** 
 496:../../source/src/FWlib/src/stm32f10x_spi.c ****   if (NewState != DISABLE)
 497:../../source/src/FWlib/src/stm32f10x_spi.c ****   {
 498:../../source/src/FWlib/src/stm32f10x_spi.c ****     /* Enable the selected SPI/I2S interrupt */
 499:../../source/src/FWlib/src/stm32f10x_spi.c ****     SPIx->CR2 |= itmask;
 520              		.loc 1 499 0
 521 01b4 8188     		ldrh	r1, [r0, #4]
 496:../../source/src/FWlib/src/stm32f10x_spi.c ****   {
 522              		.loc 1 496 0
 523 01b6 1AB9     		cbnz	r2, .L37
 500:../../source/src/FWlib/src/stm32f10x_spi.c ****   }
 501:../../source/src/FWlib/src/stm32f10x_spi.c ****   else
 502:../../source/src/FWlib/src/stm32f10x_spi.c ****   {
 503:../../source/src/FWlib/src/stm32f10x_spi.c ****     /* Disable the selected SPI/I2S interrupt */
 504:../../source/src/FWlib/src/stm32f10x_spi.c ****     SPIx->CR2 &= (uint16_t)~itmask;
 524              		.loc 1 504 0
 525 01b8 21EA0303 		bic	r3, r1, r3
 526              	.LVL45:
 527 01bc 8380     		strh	r3, [r0, #4]	@ movhi
 505:../../source/src/FWlib/src/stm32f10x_spi.c ****   }
 506:../../source/src/FWlib/src/stm32f10x_spi.c **** }
 528              		.loc 1 506 0
 529 01be 7047     		bx	lr
 530              	.LVL46:
 531              	.L37:
 499:../../source/src/FWlib/src/stm32f10x_spi.c ****   }
 532              		.loc 1 499 0
 533 01c0 0B43     		orrs	r3, r3, r1
 534              	.LVL47:
 535 01c2 8380     		strh	r3, [r0, #4]	@ movhi
 536 01c4 7047     		bx	lr
 537              		.cfi_endproc
 538              	.LFE36:
 539              		.size	SPI_I2S_ITConfig, .-SPI_I2S_ITConfig
 540              		.align	1
ARM GAS  G:\Users\Jaxb\AppData\Local\Temp\ccFgkJ8n.s 			page 20


 541 01c6 00BF     		.p2align 2,,3
 542              		.global	SPI_I2S_DMACmd
 543              		.syntax unified
 544              		.thumb
 545              		.thumb_func
 546              		.fpu softvfp
 547              		.type	SPI_I2S_DMACmd, %function
 548              	SPI_I2S_DMACmd:
 549              	.LFB37:
 507:../../source/src/FWlib/src/stm32f10x_spi.c **** 
 508:../../source/src/FWlib/src/stm32f10x_spi.c **** /**
 509:../../source/src/FWlib/src/stm32f10x_spi.c ****   * @brief  Enables or disables the SPIx/I2Sx DMA interface.
 510:../../source/src/FWlib/src/stm32f10x_spi.c ****   * @param  SPIx: where x can be
 511:../../source/src/FWlib/src/stm32f10x_spi.c ****   *   - 1, 2 or 3 in SPI mode 
 512:../../source/src/FWlib/src/stm32f10x_spi.c ****   *   - 2 or 3 in I2S mode
 513:../../source/src/FWlib/src/stm32f10x_spi.c ****   * @param  SPI_I2S_DMAReq: specifies the SPI/I2S DMA transfer request to be enabled or disabled. 
 514:../../source/src/FWlib/src/stm32f10x_spi.c ****   *   This parameter can be any combination of the following values:
 515:../../source/src/FWlib/src/stm32f10x_spi.c ****   *     @arg SPI_I2S_DMAReq_Tx: Tx buffer DMA transfer request
 516:../../source/src/FWlib/src/stm32f10x_spi.c ****   *     @arg SPI_I2S_DMAReq_Rx: Rx buffer DMA transfer request
 517:../../source/src/FWlib/src/stm32f10x_spi.c ****   * @param  NewState: new state of the selected SPI/I2S DMA transfer request.
 518:../../source/src/FWlib/src/stm32f10x_spi.c ****   *   This parameter can be: ENABLE or DISABLE.
 519:../../source/src/FWlib/src/stm32f10x_spi.c ****   * @retval None
 520:../../source/src/FWlib/src/stm32f10x_spi.c ****   */
 521:../../source/src/FWlib/src/stm32f10x_spi.c **** void SPI_I2S_DMACmd(SPI_TypeDef* SPIx, uint16_t SPI_I2S_DMAReq, FunctionalState NewState)
 522:../../source/src/FWlib/src/stm32f10x_spi.c **** {
 550              		.loc 1 522 0
 551              		.cfi_startproc
 552              		@ args = 0, pretend = 0, frame = 0
 553              		@ frame_needed = 0, uses_anonymous_args = 0
 554              		@ link register save eliminated.
 555              	.LVL48:
 523:../../source/src/FWlib/src/stm32f10x_spi.c ****   /* Check the parameters */
 524:../../source/src/FWlib/src/stm32f10x_spi.c ****   assert_param(IS_SPI_ALL_PERIPH(SPIx));
 525:../../source/src/FWlib/src/stm32f10x_spi.c ****   assert_param(IS_FUNCTIONAL_STATE(NewState));
 526:../../source/src/FWlib/src/stm32f10x_spi.c ****   assert_param(IS_SPI_I2S_DMAREQ(SPI_I2S_DMAReq));
 527:../../source/src/FWlib/src/stm32f10x_spi.c ****   if (NewState != DISABLE)
 528:../../source/src/FWlib/src/stm32f10x_spi.c ****   {
 529:../../source/src/FWlib/src/stm32f10x_spi.c ****     /* Enable the selected SPI/I2S DMA requests */
 530:../../source/src/FWlib/src/stm32f10x_spi.c ****     SPIx->CR2 |= SPI_I2S_DMAReq;
 556              		.loc 1 530 0
 557 01c8 8388     		ldrh	r3, [r0, #4]
 527:../../source/src/FWlib/src/stm32f10x_spi.c ****   {
 558              		.loc 1 527 0
 559 01ca 1AB9     		cbnz	r2, .L41
 531:../../source/src/FWlib/src/stm32f10x_spi.c ****   }
 532:../../source/src/FWlib/src/stm32f10x_spi.c ****   else
 533:../../source/src/FWlib/src/stm32f10x_spi.c ****   {
 534:../../source/src/FWlib/src/stm32f10x_spi.c ****     /* Disable the selected SPI/I2S DMA requests */
 535:../../source/src/FWlib/src/stm32f10x_spi.c ****     SPIx->CR2 &= (uint16_t)~SPI_I2S_DMAReq;
 560              		.loc 1 535 0
 561 01cc 23EA0101 		bic	r1, r3, r1
 562              	.LVL49:
 563 01d0 8180     		strh	r1, [r0, #4]	@ movhi
 536:../../source/src/FWlib/src/stm32f10x_spi.c ****   }
 537:../../source/src/FWlib/src/stm32f10x_spi.c **** }
 564              		.loc 1 537 0
 565 01d2 7047     		bx	lr
ARM GAS  G:\Users\Jaxb\AppData\Local\Temp\ccFgkJ8n.s 			page 21


 566              	.LVL50:
 567              	.L41:
 530:../../source/src/FWlib/src/stm32f10x_spi.c ****   }
 568              		.loc 1 530 0
 569 01d4 1943     		orrs	r1, r1, r3
 570              	.LVL51:
 571 01d6 8180     		strh	r1, [r0, #4]	@ movhi
 572 01d8 7047     		bx	lr
 573              		.cfi_endproc
 574              	.LFE37:
 575              		.size	SPI_I2S_DMACmd, .-SPI_I2S_DMACmd
 576              		.align	1
 577 01da 00BF     		.p2align 2,,3
 578              		.global	SPI_I2S_SendData
 579              		.syntax unified
 580              		.thumb
 581              		.thumb_func
 582              		.fpu softvfp
 583              		.type	SPI_I2S_SendData, %function
 584              	SPI_I2S_SendData:
 585              	.LFB38:
 538:../../source/src/FWlib/src/stm32f10x_spi.c **** 
 539:../../source/src/FWlib/src/stm32f10x_spi.c **** /**
 540:../../source/src/FWlib/src/stm32f10x_spi.c ****   * @brief  Transmits a Data through the SPIx/I2Sx peripheral.
 541:../../source/src/FWlib/src/stm32f10x_spi.c ****   * @param  SPIx: where x can be
 542:../../source/src/FWlib/src/stm32f10x_spi.c ****   *   - 1, 2 or 3 in SPI mode 
 543:../../source/src/FWlib/src/stm32f10x_spi.c ****   *   - 2 or 3 in I2S mode
 544:../../source/src/FWlib/src/stm32f10x_spi.c ****   * @param  Data : Data to be transmitted.
 545:../../source/src/FWlib/src/stm32f10x_spi.c ****   * @retval None
 546:../../source/src/FWlib/src/stm32f10x_spi.c ****   */
 547:../../source/src/FWlib/src/stm32f10x_spi.c **** void SPI_I2S_SendData(SPI_TypeDef* SPIx, uint16_t Data)
 548:../../source/src/FWlib/src/stm32f10x_spi.c **** {
 586              		.loc 1 548 0
 587              		.cfi_startproc
 588              		@ args = 0, pretend = 0, frame = 0
 589              		@ frame_needed = 0, uses_anonymous_args = 0
 590              		@ link register save eliminated.
 591              	.LVL52:
 549:../../source/src/FWlib/src/stm32f10x_spi.c ****   /* Check the parameters */
 550:../../source/src/FWlib/src/stm32f10x_spi.c ****   assert_param(IS_SPI_ALL_PERIPH(SPIx));
 551:../../source/src/FWlib/src/stm32f10x_spi.c ****   
 552:../../source/src/FWlib/src/stm32f10x_spi.c ****   /* Write in the DR register the data to be sent */
 553:../../source/src/FWlib/src/stm32f10x_spi.c ****   SPIx->DR = Data;
 592              		.loc 1 553 0
 593 01dc 8181     		strh	r1, [r0, #12]	@ movhi
 554:../../source/src/FWlib/src/stm32f10x_spi.c **** }
 594              		.loc 1 554 0
 595 01de 7047     		bx	lr
 596              		.cfi_endproc
 597              	.LFE38:
 598              		.size	SPI_I2S_SendData, .-SPI_I2S_SendData
 599              		.align	1
 600              		.p2align 2,,3
 601              		.global	SPI_I2S_ReceiveData
 602              		.syntax unified
 603              		.thumb
 604              		.thumb_func
ARM GAS  G:\Users\Jaxb\AppData\Local\Temp\ccFgkJ8n.s 			page 22


 605              		.fpu softvfp
 606              		.type	SPI_I2S_ReceiveData, %function
 607              	SPI_I2S_ReceiveData:
 608              	.LFB39:
 555:../../source/src/FWlib/src/stm32f10x_spi.c **** 
 556:../../source/src/FWlib/src/stm32f10x_spi.c **** /**
 557:../../source/src/FWlib/src/stm32f10x_spi.c ****   * @brief  Returns the most recent received data by the SPIx/I2Sx peripheral. 
 558:../../source/src/FWlib/src/stm32f10x_spi.c ****   * @param  SPIx: where x can be
 559:../../source/src/FWlib/src/stm32f10x_spi.c ****   *   - 1, 2 or 3 in SPI mode 
 560:../../source/src/FWlib/src/stm32f10x_spi.c ****   *   - 2 or 3 in I2S mode
 561:../../source/src/FWlib/src/stm32f10x_spi.c ****   * @retval The value of the received data.
 562:../../source/src/FWlib/src/stm32f10x_spi.c ****   */
 563:../../source/src/FWlib/src/stm32f10x_spi.c **** uint16_t SPI_I2S_ReceiveData(SPI_TypeDef* SPIx)
 564:../../source/src/FWlib/src/stm32f10x_spi.c **** {
 609              		.loc 1 564 0
 610              		.cfi_startproc
 611              		@ args = 0, pretend = 0, frame = 0
 612              		@ frame_needed = 0, uses_anonymous_args = 0
 613              		@ link register save eliminated.
 614              	.LVL53:
 565:../../source/src/FWlib/src/stm32f10x_spi.c ****   /* Check the parameters */
 566:../../source/src/FWlib/src/stm32f10x_spi.c ****   assert_param(IS_SPI_ALL_PERIPH(SPIx));
 567:../../source/src/FWlib/src/stm32f10x_spi.c ****   
 568:../../source/src/FWlib/src/stm32f10x_spi.c ****   /* Return the data in the DR register */
 569:../../source/src/FWlib/src/stm32f10x_spi.c ****   return SPIx->DR;
 615              		.loc 1 569 0
 616 01e0 8089     		ldrh	r0, [r0, #12]
 617              	.LVL54:
 570:../../source/src/FWlib/src/stm32f10x_spi.c **** }
 618              		.loc 1 570 0
 619 01e2 7047     		bx	lr
 620              		.cfi_endproc
 621              	.LFE39:
 622              		.size	SPI_I2S_ReceiveData, .-SPI_I2S_ReceiveData
 623              		.align	1
 624              		.p2align 2,,3
 625              		.global	SPI_NSSInternalSoftwareConfig
 626              		.syntax unified
 627              		.thumb
 628              		.thumb_func
 629              		.fpu softvfp
 630              		.type	SPI_NSSInternalSoftwareConfig, %function
 631              	SPI_NSSInternalSoftwareConfig:
 632              	.LFB40:
 571:../../source/src/FWlib/src/stm32f10x_spi.c **** 
 572:../../source/src/FWlib/src/stm32f10x_spi.c **** /**
 573:../../source/src/FWlib/src/stm32f10x_spi.c ****   * @brief  Configures internally by software the NSS pin for the selected SPI.
 574:../../source/src/FWlib/src/stm32f10x_spi.c ****   * @param  SPIx: where x can be 1, 2 or 3 to select the SPI peripheral.
 575:../../source/src/FWlib/src/stm32f10x_spi.c ****   * @param  SPI_NSSInternalSoft: specifies the SPI NSS internal state.
 576:../../source/src/FWlib/src/stm32f10x_spi.c ****   *   This parameter can be one of the following values:
 577:../../source/src/FWlib/src/stm32f10x_spi.c ****   *     @arg SPI_NSSInternalSoft_Set: Set NSS pin internally
 578:../../source/src/FWlib/src/stm32f10x_spi.c ****   *     @arg SPI_NSSInternalSoft_Reset: Reset NSS pin internally
 579:../../source/src/FWlib/src/stm32f10x_spi.c ****   * @retval None
 580:../../source/src/FWlib/src/stm32f10x_spi.c ****   */
 581:../../source/src/FWlib/src/stm32f10x_spi.c **** void SPI_NSSInternalSoftwareConfig(SPI_TypeDef* SPIx, uint16_t SPI_NSSInternalSoft)
 582:../../source/src/FWlib/src/stm32f10x_spi.c **** {
 633              		.loc 1 582 0
ARM GAS  G:\Users\Jaxb\AppData\Local\Temp\ccFgkJ8n.s 			page 23


 634              		.cfi_startproc
 635              		@ args = 0, pretend = 0, frame = 0
 636              		@ frame_needed = 0, uses_anonymous_args = 0
 637              		@ link register save eliminated.
 638              	.LVL55:
 583:../../source/src/FWlib/src/stm32f10x_spi.c ****   /* Check the parameters */
 584:../../source/src/FWlib/src/stm32f10x_spi.c ****   assert_param(IS_SPI_ALL_PERIPH(SPIx));
 585:../../source/src/FWlib/src/stm32f10x_spi.c ****   assert_param(IS_SPI_NSS_INTERNAL(SPI_NSSInternalSoft));
 586:../../source/src/FWlib/src/stm32f10x_spi.c ****   if (SPI_NSSInternalSoft != SPI_NSSInternalSoft_Reset)
 639              		.loc 1 586 0
 640 01e4 4FF6FF63 		movw	r3, #65279
 641 01e8 9942     		cmp	r1, r3
 587:../../source/src/FWlib/src/stm32f10x_spi.c ****   {
 588:../../source/src/FWlib/src/stm32f10x_spi.c ****     /* Set NSS pin internally by software */
 589:../../source/src/FWlib/src/stm32f10x_spi.c ****     SPIx->CR1 |= SPI_NSSInternalSoft_Set;
 642              		.loc 1 589 0
 643 01ea 0388     		ldrh	r3, [r0]
 590:../../source/src/FWlib/src/stm32f10x_spi.c ****   }
 591:../../source/src/FWlib/src/stm32f10x_spi.c ****   else
 592:../../source/src/FWlib/src/stm32f10x_spi.c ****   {
 593:../../source/src/FWlib/src/stm32f10x_spi.c ****     /* Reset NSS pin internally by software */
 594:../../source/src/FWlib/src/stm32f10x_spi.c ****     SPIx->CR1 &= SPI_NSSInternalSoft_Reset;
 644              		.loc 1 594 0
 645 01ec 05BF     		ittet	eq
 646 01ee 23F48073 		biceq	r3, r3, #256
 647 01f2 1B04     		lsleq	r3, r3, #16
 589:../../source/src/FWlib/src/stm32f10x_spi.c ****   }
 648              		.loc 1 589 0
 649 01f4 43F48073 		orrne	r3, r3, #256
 650              		.loc 1 594 0
 651 01f8 1B0C     		lsreq	r3, r3, #16
 652 01fa 0380     		strh	r3, [r0]	@ movhi
 595:../../source/src/FWlib/src/stm32f10x_spi.c ****   }
 596:../../source/src/FWlib/src/stm32f10x_spi.c **** }
 653              		.loc 1 596 0
 654 01fc 7047     		bx	lr
 655              		.cfi_endproc
 656              	.LFE40:
 657              		.size	SPI_NSSInternalSoftwareConfig, .-SPI_NSSInternalSoftwareConfig
 658              		.align	1
 659 01fe 00BF     		.p2align 2,,3
 660              		.global	SPI_SSOutputCmd
 661              		.syntax unified
 662              		.thumb
 663              		.thumb_func
 664              		.fpu softvfp
 665              		.type	SPI_SSOutputCmd, %function
 666              	SPI_SSOutputCmd:
 667              	.LFB41:
 597:../../source/src/FWlib/src/stm32f10x_spi.c **** 
 598:../../source/src/FWlib/src/stm32f10x_spi.c **** /**
 599:../../source/src/FWlib/src/stm32f10x_spi.c ****   * @brief  Enables or disables the SS output for the selected SPI.
 600:../../source/src/FWlib/src/stm32f10x_spi.c ****   * @param  SPIx: where x can be 1, 2 or 3 to select the SPI peripheral.
 601:../../source/src/FWlib/src/stm32f10x_spi.c ****   * @param  NewState: new state of the SPIx SS output. 
 602:../../source/src/FWlib/src/stm32f10x_spi.c ****   *   This parameter can be: ENABLE or DISABLE.
 603:../../source/src/FWlib/src/stm32f10x_spi.c ****   * @retval None
 604:../../source/src/FWlib/src/stm32f10x_spi.c ****   */
ARM GAS  G:\Users\Jaxb\AppData\Local\Temp\ccFgkJ8n.s 			page 24


 605:../../source/src/FWlib/src/stm32f10x_spi.c **** void SPI_SSOutputCmd(SPI_TypeDef* SPIx, FunctionalState NewState)
 606:../../source/src/FWlib/src/stm32f10x_spi.c **** {
 668              		.loc 1 606 0
 669              		.cfi_startproc
 670              		@ args = 0, pretend = 0, frame = 0
 671              		@ frame_needed = 0, uses_anonymous_args = 0
 672              		@ link register save eliminated.
 673              	.LVL56:
 607:../../source/src/FWlib/src/stm32f10x_spi.c ****   /* Check the parameters */
 608:../../source/src/FWlib/src/stm32f10x_spi.c ****   assert_param(IS_SPI_ALL_PERIPH(SPIx));
 609:../../source/src/FWlib/src/stm32f10x_spi.c ****   assert_param(IS_FUNCTIONAL_STATE(NewState));
 610:../../source/src/FWlib/src/stm32f10x_spi.c ****   if (NewState != DISABLE)
 611:../../source/src/FWlib/src/stm32f10x_spi.c ****   {
 612:../../source/src/FWlib/src/stm32f10x_spi.c ****     /* Enable the selected SPI SS output */
 613:../../source/src/FWlib/src/stm32f10x_spi.c ****     SPIx->CR2 |= CR2_SSOE_Set;
 674              		.loc 1 613 0
 675 0200 8388     		ldrh	r3, [r0, #4]
 610:../../source/src/FWlib/src/stm32f10x_spi.c ****   {
 676              		.loc 1 610 0
 677 0202 29B9     		cbnz	r1, .L50
 614:../../source/src/FWlib/src/stm32f10x_spi.c ****   }
 615:../../source/src/FWlib/src/stm32f10x_spi.c ****   else
 616:../../source/src/FWlib/src/stm32f10x_spi.c ****   {
 617:../../source/src/FWlib/src/stm32f10x_spi.c ****     /* Disable the selected SPI SS output */
 618:../../source/src/FWlib/src/stm32f10x_spi.c ****     SPIx->CR2 &= CR2_SSOE_Reset;
 678              		.loc 1 618 0
 679 0204 23F00403 		bic	r3, r3, #4
 680 0208 1B04     		lsls	r3, r3, #16
 681 020a 1B0C     		lsrs	r3, r3, #16
 682 020c 8380     		strh	r3, [r0, #4]	@ movhi
 619:../../source/src/FWlib/src/stm32f10x_spi.c ****   }
 620:../../source/src/FWlib/src/stm32f10x_spi.c **** }
 683              		.loc 1 620 0
 684 020e 7047     		bx	lr
 685              	.L50:
 613:../../source/src/FWlib/src/stm32f10x_spi.c ****   }
 686              		.loc 1 613 0
 687 0210 43F00403 		orr	r3, r3, #4
 688 0214 8380     		strh	r3, [r0, #4]	@ movhi
 689 0216 7047     		bx	lr
 690              		.cfi_endproc
 691              	.LFE41:
 692              		.size	SPI_SSOutputCmd, .-SPI_SSOutputCmd
 693              		.align	1
 694              		.p2align 2,,3
 695              		.global	SPI_DataSizeConfig
 696              		.syntax unified
 697              		.thumb
 698              		.thumb_func
 699              		.fpu softvfp
 700              		.type	SPI_DataSizeConfig, %function
 701              	SPI_DataSizeConfig:
 702              	.LFB42:
 621:../../source/src/FWlib/src/stm32f10x_spi.c **** 
 622:../../source/src/FWlib/src/stm32f10x_spi.c **** /**
 623:../../source/src/FWlib/src/stm32f10x_spi.c ****   * @brief  Configures the data size for the selected SPI.
 624:../../source/src/FWlib/src/stm32f10x_spi.c ****   * @param  SPIx: where x can be 1, 2 or 3 to select the SPI peripheral.
ARM GAS  G:\Users\Jaxb\AppData\Local\Temp\ccFgkJ8n.s 			page 25


 625:../../source/src/FWlib/src/stm32f10x_spi.c ****   * @param  SPI_DataSize: specifies the SPI data size.
 626:../../source/src/FWlib/src/stm32f10x_spi.c ****   *   This parameter can be one of the following values:
 627:../../source/src/FWlib/src/stm32f10x_spi.c ****   *     @arg SPI_DataSize_16b: Set data frame format to 16bit
 628:../../source/src/FWlib/src/stm32f10x_spi.c ****   *     @arg SPI_DataSize_8b: Set data frame format to 8bit
 629:../../source/src/FWlib/src/stm32f10x_spi.c ****   * @retval None
 630:../../source/src/FWlib/src/stm32f10x_spi.c ****   */
 631:../../source/src/FWlib/src/stm32f10x_spi.c **** void SPI_DataSizeConfig(SPI_TypeDef* SPIx, uint16_t SPI_DataSize)
 632:../../source/src/FWlib/src/stm32f10x_spi.c **** {
 703              		.loc 1 632 0
 704              		.cfi_startproc
 705              		@ args = 0, pretend = 0, frame = 0
 706              		@ frame_needed = 0, uses_anonymous_args = 0
 707              		@ link register save eliminated.
 708              	.LVL57:
 633:../../source/src/FWlib/src/stm32f10x_spi.c ****   /* Check the parameters */
 634:../../source/src/FWlib/src/stm32f10x_spi.c ****   assert_param(IS_SPI_ALL_PERIPH(SPIx));
 635:../../source/src/FWlib/src/stm32f10x_spi.c ****   assert_param(IS_SPI_DATASIZE(SPI_DataSize));
 636:../../source/src/FWlib/src/stm32f10x_spi.c ****   /* Clear DFF bit */
 637:../../source/src/FWlib/src/stm32f10x_spi.c ****   SPIx->CR1 &= (uint16_t)~SPI_DataSize_16b;
 709              		.loc 1 637 0
 710 0218 0388     		ldrh	r3, [r0]
 711 021a 23F40063 		bic	r3, r3, #2048
 712 021e 1B04     		lsls	r3, r3, #16
 713 0220 1B0C     		lsrs	r3, r3, #16
 714 0222 0380     		strh	r3, [r0]	@ movhi
 638:../../source/src/FWlib/src/stm32f10x_spi.c ****   /* Set new DFF bit value */
 639:../../source/src/FWlib/src/stm32f10x_spi.c ****   SPIx->CR1 |= SPI_DataSize;
 715              		.loc 1 639 0
 716 0224 0388     		ldrh	r3, [r0]
 717 0226 1943     		orrs	r1, r1, r3
 718              	.LVL58:
 719 0228 0180     		strh	r1, [r0]	@ movhi
 640:../../source/src/FWlib/src/stm32f10x_spi.c **** }
 720              		.loc 1 640 0
 721 022a 7047     		bx	lr
 722              		.cfi_endproc
 723              	.LFE42:
 724              		.size	SPI_DataSizeConfig, .-SPI_DataSizeConfig
 725              		.align	1
 726              		.p2align 2,,3
 727              		.global	SPI_TransmitCRC
 728              		.syntax unified
 729              		.thumb
 730              		.thumb_func
 731              		.fpu softvfp
 732              		.type	SPI_TransmitCRC, %function
 733              	SPI_TransmitCRC:
 734              	.LFB43:
 641:../../source/src/FWlib/src/stm32f10x_spi.c **** 
 642:../../source/src/FWlib/src/stm32f10x_spi.c **** /**
 643:../../source/src/FWlib/src/stm32f10x_spi.c ****   * @brief  Transmit the SPIx CRC value.
 644:../../source/src/FWlib/src/stm32f10x_spi.c ****   * @param  SPIx: where x can be 1, 2 or 3 to select the SPI peripheral.
 645:../../source/src/FWlib/src/stm32f10x_spi.c ****   * @retval None
 646:../../source/src/FWlib/src/stm32f10x_spi.c ****   */
 647:../../source/src/FWlib/src/stm32f10x_spi.c **** void SPI_TransmitCRC(SPI_TypeDef* SPIx)
 648:../../source/src/FWlib/src/stm32f10x_spi.c **** {
 735              		.loc 1 648 0
ARM GAS  G:\Users\Jaxb\AppData\Local\Temp\ccFgkJ8n.s 			page 26


 736              		.cfi_startproc
 737              		@ args = 0, pretend = 0, frame = 0
 738              		@ frame_needed = 0, uses_anonymous_args = 0
 739              		@ link register save eliminated.
 740              	.LVL59:
 649:../../source/src/FWlib/src/stm32f10x_spi.c ****   /* Check the parameters */
 650:../../source/src/FWlib/src/stm32f10x_spi.c ****   assert_param(IS_SPI_ALL_PERIPH(SPIx));
 651:../../source/src/FWlib/src/stm32f10x_spi.c ****   
 652:../../source/src/FWlib/src/stm32f10x_spi.c ****   /* Enable the selected SPI CRC transmission */
 653:../../source/src/FWlib/src/stm32f10x_spi.c ****   SPIx->CR1 |= CR1_CRCNext_Set;
 741              		.loc 1 653 0
 742 022c 0388     		ldrh	r3, [r0]
 743 022e 43F48053 		orr	r3, r3, #4096
 744 0232 0380     		strh	r3, [r0]	@ movhi
 654:../../source/src/FWlib/src/stm32f10x_spi.c **** }
 745              		.loc 1 654 0
 746 0234 7047     		bx	lr
 747              		.cfi_endproc
 748              	.LFE43:
 749              		.size	SPI_TransmitCRC, .-SPI_TransmitCRC
 750              		.align	1
 751 0236 00BF     		.p2align 2,,3
 752              		.global	SPI_CalculateCRC
 753              		.syntax unified
 754              		.thumb
 755              		.thumb_func
 756              		.fpu softvfp
 757              		.type	SPI_CalculateCRC, %function
 758              	SPI_CalculateCRC:
 759              	.LFB44:
 655:../../source/src/FWlib/src/stm32f10x_spi.c **** 
 656:../../source/src/FWlib/src/stm32f10x_spi.c **** /**
 657:../../source/src/FWlib/src/stm32f10x_spi.c ****   * @brief  Enables or disables the CRC value calculation of the transferred bytes.
 658:../../source/src/FWlib/src/stm32f10x_spi.c ****   * @param  SPIx: where x can be 1, 2 or 3 to select the SPI peripheral.
 659:../../source/src/FWlib/src/stm32f10x_spi.c ****   * @param  NewState: new state of the SPIx CRC value calculation.
 660:../../source/src/FWlib/src/stm32f10x_spi.c ****   *   This parameter can be: ENABLE or DISABLE.
 661:../../source/src/FWlib/src/stm32f10x_spi.c ****   * @retval None
 662:../../source/src/FWlib/src/stm32f10x_spi.c ****   */
 663:../../source/src/FWlib/src/stm32f10x_spi.c **** void SPI_CalculateCRC(SPI_TypeDef* SPIx, FunctionalState NewState)
 664:../../source/src/FWlib/src/stm32f10x_spi.c **** {
 760              		.loc 1 664 0
 761              		.cfi_startproc
 762              		@ args = 0, pretend = 0, frame = 0
 763              		@ frame_needed = 0, uses_anonymous_args = 0
 764              		@ link register save eliminated.
 765              	.LVL60:
 665:../../source/src/FWlib/src/stm32f10x_spi.c ****   /* Check the parameters */
 666:../../source/src/FWlib/src/stm32f10x_spi.c ****   assert_param(IS_SPI_ALL_PERIPH(SPIx));
 667:../../source/src/FWlib/src/stm32f10x_spi.c ****   assert_param(IS_FUNCTIONAL_STATE(NewState));
 668:../../source/src/FWlib/src/stm32f10x_spi.c ****   if (NewState != DISABLE)
 669:../../source/src/FWlib/src/stm32f10x_spi.c ****   {
 670:../../source/src/FWlib/src/stm32f10x_spi.c ****     /* Enable the selected SPI CRC calculation */
 671:../../source/src/FWlib/src/stm32f10x_spi.c ****     SPIx->CR1 |= CR1_CRCEN_Set;
 766              		.loc 1 671 0
 767 0238 0388     		ldrh	r3, [r0]
 668:../../source/src/FWlib/src/stm32f10x_spi.c ****   {
 768              		.loc 1 668 0
ARM GAS  G:\Users\Jaxb\AppData\Local\Temp\ccFgkJ8n.s 			page 27


 769 023a 29B9     		cbnz	r1, .L56
 672:../../source/src/FWlib/src/stm32f10x_spi.c ****   }
 673:../../source/src/FWlib/src/stm32f10x_spi.c ****   else
 674:../../source/src/FWlib/src/stm32f10x_spi.c ****   {
 675:../../source/src/FWlib/src/stm32f10x_spi.c ****     /* Disable the selected SPI CRC calculation */
 676:../../source/src/FWlib/src/stm32f10x_spi.c ****     SPIx->CR1 &= CR1_CRCEN_Reset;
 770              		.loc 1 676 0
 771 023c 23F40053 		bic	r3, r3, #8192
 772 0240 1B04     		lsls	r3, r3, #16
 773 0242 1B0C     		lsrs	r3, r3, #16
 774 0244 0380     		strh	r3, [r0]	@ movhi
 677:../../source/src/FWlib/src/stm32f10x_spi.c ****   }
 678:../../source/src/FWlib/src/stm32f10x_spi.c **** }
 775              		.loc 1 678 0
 776 0246 7047     		bx	lr
 777              	.L56:
 671:../../source/src/FWlib/src/stm32f10x_spi.c ****   }
 778              		.loc 1 671 0
 779 0248 43F40053 		orr	r3, r3, #8192
 780 024c 0380     		strh	r3, [r0]	@ movhi
 781 024e 7047     		bx	lr
 782              		.cfi_endproc
 783              	.LFE44:
 784              		.size	SPI_CalculateCRC, .-SPI_CalculateCRC
 785              		.align	1
 786              		.p2align 2,,3
 787              		.global	SPI_GetCRC
 788              		.syntax unified
 789              		.thumb
 790              		.thumb_func
 791              		.fpu softvfp
 792              		.type	SPI_GetCRC, %function
 793              	SPI_GetCRC:
 794              	.LFB45:
 679:../../source/src/FWlib/src/stm32f10x_spi.c **** 
 680:../../source/src/FWlib/src/stm32f10x_spi.c **** /**
 681:../../source/src/FWlib/src/stm32f10x_spi.c ****   * @brief  Returns the transmit or the receive CRC register value for the specified SPI.
 682:../../source/src/FWlib/src/stm32f10x_spi.c ****   * @param  SPIx: where x can be 1, 2 or 3 to select the SPI peripheral.
 683:../../source/src/FWlib/src/stm32f10x_spi.c ****   * @param  SPI_CRC: specifies the CRC register to be read.
 684:../../source/src/FWlib/src/stm32f10x_spi.c ****   *   This parameter can be one of the following values:
 685:../../source/src/FWlib/src/stm32f10x_spi.c ****   *     @arg SPI_CRC_Tx: Selects Tx CRC register
 686:../../source/src/FWlib/src/stm32f10x_spi.c ****   *     @arg SPI_CRC_Rx: Selects Rx CRC register
 687:../../source/src/FWlib/src/stm32f10x_spi.c ****   * @retval The selected CRC register value..
 688:../../source/src/FWlib/src/stm32f10x_spi.c ****   */
 689:../../source/src/FWlib/src/stm32f10x_spi.c **** uint16_t SPI_GetCRC(SPI_TypeDef* SPIx, uint8_t SPI_CRC)
 690:../../source/src/FWlib/src/stm32f10x_spi.c **** {
 795              		.loc 1 690 0
 796              		.cfi_startproc
 797              		@ args = 0, pretend = 0, frame = 0
 798              		@ frame_needed = 0, uses_anonymous_args = 0
 799              		@ link register save eliminated.
 800              	.LVL61:
 691:../../source/src/FWlib/src/stm32f10x_spi.c ****   uint16_t crcreg = 0;
 692:../../source/src/FWlib/src/stm32f10x_spi.c ****   /* Check the parameters */
 693:../../source/src/FWlib/src/stm32f10x_spi.c ****   assert_param(IS_SPI_ALL_PERIPH(SPIx));
 694:../../source/src/FWlib/src/stm32f10x_spi.c ****   assert_param(IS_SPI_CRC(SPI_CRC));
 695:../../source/src/FWlib/src/stm32f10x_spi.c ****   if (SPI_CRC != SPI_CRC_Rx)
ARM GAS  G:\Users\Jaxb\AppData\Local\Temp\ccFgkJ8n.s 			page 28


 801              		.loc 1 695 0
 802 0250 0129     		cmp	r1, #1
 696:../../source/src/FWlib/src/stm32f10x_spi.c ****   {
 697:../../source/src/FWlib/src/stm32f10x_spi.c ****     /* Get the Tx CRC register */
 698:../../source/src/FWlib/src/stm32f10x_spi.c ****     crcreg = SPIx->TXCRCR;
 803              		.loc 1 698 0
 804 0252 14BF     		ite	ne
 805 0254 008B     		ldrhne	r0, [r0, #24]
 806              	.LVL62:
 699:../../source/src/FWlib/src/stm32f10x_spi.c ****   }
 700:../../source/src/FWlib/src/stm32f10x_spi.c ****   else
 701:../../source/src/FWlib/src/stm32f10x_spi.c ****   {
 702:../../source/src/FWlib/src/stm32f10x_spi.c ****     /* Get the Rx CRC register */
 703:../../source/src/FWlib/src/stm32f10x_spi.c ****     crcreg = SPIx->RXCRCR;
 807              		.loc 1 703 0
 808 0256 808A     		ldrheq	r0, [r0, #20]
 809 0258 80B2     		uxth	r0, r0
 810              	.LVL63:
 704:../../source/src/FWlib/src/stm32f10x_spi.c ****   }
 705:../../source/src/FWlib/src/stm32f10x_spi.c ****   /* Return the selected CRC register */
 706:../../source/src/FWlib/src/stm32f10x_spi.c ****   return crcreg;
 707:../../source/src/FWlib/src/stm32f10x_spi.c **** }
 811              		.loc 1 707 0
 812 025a 7047     		bx	lr
 813              		.cfi_endproc
 814              	.LFE45:
 815              		.size	SPI_GetCRC, .-SPI_GetCRC
 816              		.align	1
 817              		.p2align 2,,3
 818              		.global	SPI_GetCRCPolynomial
 819              		.syntax unified
 820              		.thumb
 821              		.thumb_func
 822              		.fpu softvfp
 823              		.type	SPI_GetCRCPolynomial, %function
 824              	SPI_GetCRCPolynomial:
 825              	.LFB46:
 708:../../source/src/FWlib/src/stm32f10x_spi.c **** 
 709:../../source/src/FWlib/src/stm32f10x_spi.c **** /**
 710:../../source/src/FWlib/src/stm32f10x_spi.c ****   * @brief  Returns the CRC Polynomial register value for the specified SPI.
 711:../../source/src/FWlib/src/stm32f10x_spi.c ****   * @param  SPIx: where x can be 1, 2 or 3 to select the SPI peripheral.
 712:../../source/src/FWlib/src/stm32f10x_spi.c ****   * @retval The CRC Polynomial register value.
 713:../../source/src/FWlib/src/stm32f10x_spi.c ****   */
 714:../../source/src/FWlib/src/stm32f10x_spi.c **** uint16_t SPI_GetCRCPolynomial(SPI_TypeDef* SPIx)
 715:../../source/src/FWlib/src/stm32f10x_spi.c **** {
 826              		.loc 1 715 0
 827              		.cfi_startproc
 828              		@ args = 0, pretend = 0, frame = 0
 829              		@ frame_needed = 0, uses_anonymous_args = 0
 830              		@ link register save eliminated.
 831              	.LVL64:
 716:../../source/src/FWlib/src/stm32f10x_spi.c ****   /* Check the parameters */
 717:../../source/src/FWlib/src/stm32f10x_spi.c ****   assert_param(IS_SPI_ALL_PERIPH(SPIx));
 718:../../source/src/FWlib/src/stm32f10x_spi.c ****   
 719:../../source/src/FWlib/src/stm32f10x_spi.c ****   /* Return the CRC polynomial register */
 720:../../source/src/FWlib/src/stm32f10x_spi.c ****   return SPIx->CRCPR;
 832              		.loc 1 720 0
ARM GAS  G:\Users\Jaxb\AppData\Local\Temp\ccFgkJ8n.s 			page 29


 833 025c 008A     		ldrh	r0, [r0, #16]
 834              	.LVL65:
 721:../../source/src/FWlib/src/stm32f10x_spi.c **** }
 835              		.loc 1 721 0
 836 025e 7047     		bx	lr
 837              		.cfi_endproc
 838              	.LFE46:
 839              		.size	SPI_GetCRCPolynomial, .-SPI_GetCRCPolynomial
 840              		.align	1
 841              		.p2align 2,,3
 842              		.global	SPI_BiDirectionalLineConfig
 843              		.syntax unified
 844              		.thumb
 845              		.thumb_func
 846              		.fpu softvfp
 847              		.type	SPI_BiDirectionalLineConfig, %function
 848              	SPI_BiDirectionalLineConfig:
 849              	.LFB47:
 722:../../source/src/FWlib/src/stm32f10x_spi.c **** 
 723:../../source/src/FWlib/src/stm32f10x_spi.c **** /**
 724:../../source/src/FWlib/src/stm32f10x_spi.c ****   * @brief  Selects the data transfer direction in bi-directional mode for the specified SPI.
 725:../../source/src/FWlib/src/stm32f10x_spi.c ****   * @param  SPIx: where x can be 1, 2 or 3 to select the SPI peripheral.
 726:../../source/src/FWlib/src/stm32f10x_spi.c ****   * @param  SPI_Direction: specifies the data transfer direction in bi-directional mode. 
 727:../../source/src/FWlib/src/stm32f10x_spi.c ****   *   This parameter can be one of the following values:
 728:../../source/src/FWlib/src/stm32f10x_spi.c ****   *     @arg SPI_Direction_Tx: Selects Tx transmission direction
 729:../../source/src/FWlib/src/stm32f10x_spi.c ****   *     @arg SPI_Direction_Rx: Selects Rx receive direction
 730:../../source/src/FWlib/src/stm32f10x_spi.c ****   * @retval None
 731:../../source/src/FWlib/src/stm32f10x_spi.c ****   */
 732:../../source/src/FWlib/src/stm32f10x_spi.c **** void SPI_BiDirectionalLineConfig(SPI_TypeDef* SPIx, uint16_t SPI_Direction)
 733:../../source/src/FWlib/src/stm32f10x_spi.c **** {
 850              		.loc 1 733 0
 851              		.cfi_startproc
 852              		@ args = 0, pretend = 0, frame = 0
 853              		@ frame_needed = 0, uses_anonymous_args = 0
 854              		@ link register save eliminated.
 855              	.LVL66:
 734:../../source/src/FWlib/src/stm32f10x_spi.c ****   /* Check the parameters */
 735:../../source/src/FWlib/src/stm32f10x_spi.c ****   assert_param(IS_SPI_ALL_PERIPH(SPIx));
 736:../../source/src/FWlib/src/stm32f10x_spi.c ****   assert_param(IS_SPI_DIRECTION(SPI_Direction));
 737:../../source/src/FWlib/src/stm32f10x_spi.c ****   if (SPI_Direction == SPI_Direction_Tx)
 738:../../source/src/FWlib/src/stm32f10x_spi.c ****   {
 739:../../source/src/FWlib/src/stm32f10x_spi.c ****     /* Set the Tx only mode */
 740:../../source/src/FWlib/src/stm32f10x_spi.c ****     SPIx->CR1 |= SPI_Direction_Tx;
 856              		.loc 1 740 0
 857 0260 0388     		ldrh	r3, [r0]
 737:../../source/src/FWlib/src/stm32f10x_spi.c ****   {
 858              		.loc 1 737 0
 859 0262 B1F5804F 		cmp	r1, #16384
 741:../../source/src/FWlib/src/stm32f10x_spi.c ****   }
 742:../../source/src/FWlib/src/stm32f10x_spi.c ****   else
 743:../../source/src/FWlib/src/stm32f10x_spi.c ****   {
 744:../../source/src/FWlib/src/stm32f10x_spi.c ****     /* Set the Rx only mode */
 745:../../source/src/FWlib/src/stm32f10x_spi.c ****     SPIx->CR1 &= SPI_Direction_Rx;
 860              		.loc 1 745 0
 861 0266 1BBF     		ittet	ne
 862 0268 23F48043 		bicne	r3, r3, #16384
 863 026c 1B04     		lslne	r3, r3, #16
ARM GAS  G:\Users\Jaxb\AppData\Local\Temp\ccFgkJ8n.s 			page 30


 740:../../source/src/FWlib/src/stm32f10x_spi.c ****   }
 864              		.loc 1 740 0
 865 026e 43F48043 		orreq	r3, r3, #16384
 866              		.loc 1 745 0
 867 0272 1B0C     		lsrne	r3, r3, #16
 868 0274 0380     		strh	r3, [r0]	@ movhi
 746:../../source/src/FWlib/src/stm32f10x_spi.c ****   }
 747:../../source/src/FWlib/src/stm32f10x_spi.c **** }
 869              		.loc 1 747 0
 870 0276 7047     		bx	lr
 871              		.cfi_endproc
 872              	.LFE47:
 873              		.size	SPI_BiDirectionalLineConfig, .-SPI_BiDirectionalLineConfig
 874              		.align	1
 875              		.p2align 2,,3
 876              		.global	SPI_I2S_GetFlagStatus
 877              		.syntax unified
 878              		.thumb
 879              		.thumb_func
 880              		.fpu softvfp
 881              		.type	SPI_I2S_GetFlagStatus, %function
 882              	SPI_I2S_GetFlagStatus:
 883              	.LFB48:
 748:../../source/src/FWlib/src/stm32f10x_spi.c **** 
 749:../../source/src/FWlib/src/stm32f10x_spi.c **** /**
 750:../../source/src/FWlib/src/stm32f10x_spi.c ****   * @brief  Checks whether the specified SPI/I2S flag is set or not.
 751:../../source/src/FWlib/src/stm32f10x_spi.c ****   * @param  SPIx: where x can be
 752:../../source/src/FWlib/src/stm32f10x_spi.c ****   *   - 1, 2 or 3 in SPI mode 
 753:../../source/src/FWlib/src/stm32f10x_spi.c ****   *   - 2 or 3 in I2S mode
 754:../../source/src/FWlib/src/stm32f10x_spi.c ****   * @param  SPI_I2S_FLAG: specifies the SPI/I2S flag to check. 
 755:../../source/src/FWlib/src/stm32f10x_spi.c ****   *   This parameter can be one of the following values:
 756:../../source/src/FWlib/src/stm32f10x_spi.c ****   *     @arg SPI_I2S_FLAG_TXE: Transmit buffer empty flag.
 757:../../source/src/FWlib/src/stm32f10x_spi.c ****   *     @arg SPI_I2S_FLAG_RXNE: Receive buffer not empty flag.
 758:../../source/src/FWlib/src/stm32f10x_spi.c ****   *     @arg SPI_I2S_FLAG_BSY: Busy flag.
 759:../../source/src/FWlib/src/stm32f10x_spi.c ****   *     @arg SPI_I2S_FLAG_OVR: Overrun flag.
 760:../../source/src/FWlib/src/stm32f10x_spi.c ****   *     @arg SPI_FLAG_MODF: Mode Fault flag.
 761:../../source/src/FWlib/src/stm32f10x_spi.c ****   *     @arg SPI_FLAG_CRCERR: CRC Error flag.
 762:../../source/src/FWlib/src/stm32f10x_spi.c ****   *     @arg I2S_FLAG_UDR: Underrun Error flag.
 763:../../source/src/FWlib/src/stm32f10x_spi.c ****   *     @arg I2S_FLAG_CHSIDE: Channel Side flag.
 764:../../source/src/FWlib/src/stm32f10x_spi.c ****   * @retval The new state of SPI_I2S_FLAG (SET or RESET).
 765:../../source/src/FWlib/src/stm32f10x_spi.c ****   */
 766:../../source/src/FWlib/src/stm32f10x_spi.c **** FlagStatus SPI_I2S_GetFlagStatus(SPI_TypeDef* SPIx, uint16_t SPI_I2S_FLAG)
 767:../../source/src/FWlib/src/stm32f10x_spi.c **** {
 884              		.loc 1 767 0
 885              		.cfi_startproc
 886              		@ args = 0, pretend = 0, frame = 0
 887              		@ frame_needed = 0, uses_anonymous_args = 0
 888              		@ link register save eliminated.
 889              	.LVL67:
 768:../../source/src/FWlib/src/stm32f10x_spi.c ****   FlagStatus bitstatus = RESET;
 769:../../source/src/FWlib/src/stm32f10x_spi.c ****   /* Check the parameters */
 770:../../source/src/FWlib/src/stm32f10x_spi.c ****   assert_param(IS_SPI_ALL_PERIPH(SPIx));
 771:../../source/src/FWlib/src/stm32f10x_spi.c ****   assert_param(IS_SPI_I2S_GET_FLAG(SPI_I2S_FLAG));
 772:../../source/src/FWlib/src/stm32f10x_spi.c ****   /* Check the status of the specified SPI/I2S flag */
 773:../../source/src/FWlib/src/stm32f10x_spi.c ****   if ((SPIx->SR & SPI_I2S_FLAG) != (uint16_t)RESET)
 890              		.loc 1 773 0
 891 0278 0389     		ldrh	r3, [r0, #8]
ARM GAS  G:\Users\Jaxb\AppData\Local\Temp\ccFgkJ8n.s 			page 31


 892              	.LVL68:
 893 027a 1942     		tst	r1, r3
 774:../../source/src/FWlib/src/stm32f10x_spi.c ****   {
 775:../../source/src/FWlib/src/stm32f10x_spi.c ****     /* SPI_I2S_FLAG is set */
 776:../../source/src/FWlib/src/stm32f10x_spi.c ****     bitstatus = SET;
 777:../../source/src/FWlib/src/stm32f10x_spi.c ****   }
 778:../../source/src/FWlib/src/stm32f10x_spi.c ****   else
 779:../../source/src/FWlib/src/stm32f10x_spi.c ****   {
 780:../../source/src/FWlib/src/stm32f10x_spi.c ****     /* SPI_I2S_FLAG is reset */
 781:../../source/src/FWlib/src/stm32f10x_spi.c ****     bitstatus = RESET;
 782:../../source/src/FWlib/src/stm32f10x_spi.c ****   }
 783:../../source/src/FWlib/src/stm32f10x_spi.c ****   /* Return the SPI_I2S_FLAG status */
 784:../../source/src/FWlib/src/stm32f10x_spi.c ****   return  bitstatus;
 785:../../source/src/FWlib/src/stm32f10x_spi.c **** }
 894              		.loc 1 785 0
 895 027c 14BF     		ite	ne
 896 027e 0120     		movne	r0, #1
 897              	.LVL69:
 898 0280 0020     		moveq	r0, #0
 899 0282 7047     		bx	lr
 900              		.cfi_endproc
 901              	.LFE48:
 902              		.size	SPI_I2S_GetFlagStatus, .-SPI_I2S_GetFlagStatus
 903              		.align	1
 904              		.p2align 2,,3
 905              		.global	SPI_I2S_ClearFlag
 906              		.syntax unified
 907              		.thumb
 908              		.thumb_func
 909              		.fpu softvfp
 910              		.type	SPI_I2S_ClearFlag, %function
 911              	SPI_I2S_ClearFlag:
 912              	.LFB49:
 786:../../source/src/FWlib/src/stm32f10x_spi.c **** 
 787:../../source/src/FWlib/src/stm32f10x_spi.c **** /**
 788:../../source/src/FWlib/src/stm32f10x_spi.c ****   * @brief  Clears the SPIx CRC Error (CRCERR) flag.
 789:../../source/src/FWlib/src/stm32f10x_spi.c ****   * @param  SPIx: where x can be
 790:../../source/src/FWlib/src/stm32f10x_spi.c ****   *   - 1, 2 or 3 in SPI mode 
 791:../../source/src/FWlib/src/stm32f10x_spi.c ****   * @param  SPI_I2S_FLAG: specifies the SPI flag to clear. 
 792:../../source/src/FWlib/src/stm32f10x_spi.c ****   *   This function clears only CRCERR flag.
 793:../../source/src/FWlib/src/stm32f10x_spi.c ****   * @note
 794:../../source/src/FWlib/src/stm32f10x_spi.c ****   *   - OVR (OverRun error) flag is cleared by software sequence: a read 
 795:../../source/src/FWlib/src/stm32f10x_spi.c ****   *     operation to SPI_DR register (SPI_I2S_ReceiveData()) followed by a read 
 796:../../source/src/FWlib/src/stm32f10x_spi.c ****   *     operation to SPI_SR register (SPI_I2S_GetFlagStatus()).
 797:../../source/src/FWlib/src/stm32f10x_spi.c ****   *   - UDR (UnderRun error) flag is cleared by a read operation to 
 798:../../source/src/FWlib/src/stm32f10x_spi.c ****   *     SPI_SR register (SPI_I2S_GetFlagStatus()).
 799:../../source/src/FWlib/src/stm32f10x_spi.c ****   *   - MODF (Mode Fault) flag is cleared by software sequence: a read/write 
 800:../../source/src/FWlib/src/stm32f10x_spi.c ****   *     operation to SPI_SR register (SPI_I2S_GetFlagStatus()) followed by a 
 801:../../source/src/FWlib/src/stm32f10x_spi.c ****   *     write operation to SPI_CR1 register (SPI_Cmd() to enable the SPI).
 802:../../source/src/FWlib/src/stm32f10x_spi.c ****   * @retval None
 803:../../source/src/FWlib/src/stm32f10x_spi.c ****   */
 804:../../source/src/FWlib/src/stm32f10x_spi.c **** void SPI_I2S_ClearFlag(SPI_TypeDef* SPIx, uint16_t SPI_I2S_FLAG)
 805:../../source/src/FWlib/src/stm32f10x_spi.c **** {
 913              		.loc 1 805 0
 914              		.cfi_startproc
 915              		@ args = 0, pretend = 0, frame = 0
 916              		@ frame_needed = 0, uses_anonymous_args = 0
ARM GAS  G:\Users\Jaxb\AppData\Local\Temp\ccFgkJ8n.s 			page 32


 917              		@ link register save eliminated.
 918              	.LVL70:
 806:../../source/src/FWlib/src/stm32f10x_spi.c ****   /* Check the parameters */
 807:../../source/src/FWlib/src/stm32f10x_spi.c ****   assert_param(IS_SPI_ALL_PERIPH(SPIx));
 808:../../source/src/FWlib/src/stm32f10x_spi.c ****   assert_param(IS_SPI_I2S_CLEAR_FLAG(SPI_I2S_FLAG));
 809:../../source/src/FWlib/src/stm32f10x_spi.c ****     
 810:../../source/src/FWlib/src/stm32f10x_spi.c ****     /* Clear the selected SPI CRC Error (CRCERR) flag */
 811:../../source/src/FWlib/src/stm32f10x_spi.c ****     SPIx->SR = (uint16_t)~SPI_I2S_FLAG;
 919              		.loc 1 811 0
 920 0284 C943     		mvns	r1, r1
 921              	.LVL71:
 922 0286 89B2     		uxth	r1, r1
 923 0288 0181     		strh	r1, [r0, #8]	@ movhi
 812:../../source/src/FWlib/src/stm32f10x_spi.c **** }
 924              		.loc 1 812 0
 925 028a 7047     		bx	lr
 926              		.cfi_endproc
 927              	.LFE49:
 928              		.size	SPI_I2S_ClearFlag, .-SPI_I2S_ClearFlag
 929              		.align	1
 930              		.p2align 2,,3
 931              		.global	SPI_I2S_GetITStatus
 932              		.syntax unified
 933              		.thumb
 934              		.thumb_func
 935              		.fpu softvfp
 936              		.type	SPI_I2S_GetITStatus, %function
 937              	SPI_I2S_GetITStatus:
 938              	.LFB50:
 813:../../source/src/FWlib/src/stm32f10x_spi.c **** 
 814:../../source/src/FWlib/src/stm32f10x_spi.c **** /**
 815:../../source/src/FWlib/src/stm32f10x_spi.c ****   * @brief  Checks whether the specified SPI/I2S interrupt has occurred or not.
 816:../../source/src/FWlib/src/stm32f10x_spi.c ****   * @param  SPIx: where x can be
 817:../../source/src/FWlib/src/stm32f10x_spi.c ****   *   - 1, 2 or 3 in SPI mode 
 818:../../source/src/FWlib/src/stm32f10x_spi.c ****   *   - 2 or 3 in I2S mode
 819:../../source/src/FWlib/src/stm32f10x_spi.c ****   * @param  SPI_I2S_IT: specifies the SPI/I2S interrupt source to check. 
 820:../../source/src/FWlib/src/stm32f10x_spi.c ****   *   This parameter can be one of the following values:
 821:../../source/src/FWlib/src/stm32f10x_spi.c ****   *     @arg SPI_I2S_IT_TXE: Transmit buffer empty interrupt.
 822:../../source/src/FWlib/src/stm32f10x_spi.c ****   *     @arg SPI_I2S_IT_RXNE: Receive buffer not empty interrupt.
 823:../../source/src/FWlib/src/stm32f10x_spi.c ****   *     @arg SPI_I2S_IT_OVR: Overrun interrupt.
 824:../../source/src/FWlib/src/stm32f10x_spi.c ****   *     @arg SPI_IT_MODF: Mode Fault interrupt.
 825:../../source/src/FWlib/src/stm32f10x_spi.c ****   *     @arg SPI_IT_CRCERR: CRC Error interrupt.
 826:../../source/src/FWlib/src/stm32f10x_spi.c ****   *     @arg I2S_IT_UDR: Underrun Error interrupt.
 827:../../source/src/FWlib/src/stm32f10x_spi.c ****   * @retval The new state of SPI_I2S_IT (SET or RESET).
 828:../../source/src/FWlib/src/stm32f10x_spi.c ****   */
 829:../../source/src/FWlib/src/stm32f10x_spi.c **** ITStatus SPI_I2S_GetITStatus(SPI_TypeDef* SPIx, uint8_t SPI_I2S_IT)
 830:../../source/src/FWlib/src/stm32f10x_spi.c **** {
 939              		.loc 1 830 0
 940              		.cfi_startproc
 941              		@ args = 0, pretend = 0, frame = 0
 942              		@ frame_needed = 0, uses_anonymous_args = 0
 943              		@ link register save eliminated.
 944              	.LVL72:
 831:../../source/src/FWlib/src/stm32f10x_spi.c ****   ITStatus bitstatus = RESET;
 832:../../source/src/FWlib/src/stm32f10x_spi.c ****   uint16_t itpos = 0, itmask = 0, enablestatus = 0;
 833:../../source/src/FWlib/src/stm32f10x_spi.c **** 
 834:../../source/src/FWlib/src/stm32f10x_spi.c ****   /* Check the parameters */
ARM GAS  G:\Users\Jaxb\AppData\Local\Temp\ccFgkJ8n.s 			page 33


 835:../../source/src/FWlib/src/stm32f10x_spi.c ****   assert_param(IS_SPI_ALL_PERIPH(SPIx));
 836:../../source/src/FWlib/src/stm32f10x_spi.c ****   assert_param(IS_SPI_I2S_GET_IT(SPI_I2S_IT));
 837:../../source/src/FWlib/src/stm32f10x_spi.c **** 
 838:../../source/src/FWlib/src/stm32f10x_spi.c ****   /* Get the SPI/I2S IT index */
 839:../../source/src/FWlib/src/stm32f10x_spi.c ****   itpos = 0x01 << (SPI_I2S_IT & 0x0F);
 945              		.loc 1 839 0
 946 028c 0122     		movs	r2, #1
 830:../../source/src/FWlib/src/stm32f10x_spi.c ****   ITStatus bitstatus = RESET;
 947              		.loc 1 830 0
 948 028e 30B4     		push	{r4, r5}
 949              	.LCFI12:
 950              		.cfi_def_cfa_offset 8
 951              		.cfi_offset 4, -8
 952              		.cfi_offset 5, -4
 953              		.loc 1 839 0
 954 0290 01F00F03 		and	r3, r1, #15
 840:../../source/src/FWlib/src/stm32f10x_spi.c **** 
 841:../../source/src/FWlib/src/stm32f10x_spi.c ****   /* Get the SPI/I2S IT mask */
 842:../../source/src/FWlib/src/stm32f10x_spi.c ****   itmask = SPI_I2S_IT >> 4;
 843:../../source/src/FWlib/src/stm32f10x_spi.c **** 
 844:../../source/src/FWlib/src/stm32f10x_spi.c ****   /* Set the IT mask */
 845:../../source/src/FWlib/src/stm32f10x_spi.c ****   itmask = 0x01 << itmask;
 846:../../source/src/FWlib/src/stm32f10x_spi.c **** 
 847:../../source/src/FWlib/src/stm32f10x_spi.c ****   /* Get the SPI_I2S_IT enable bit status */
 848:../../source/src/FWlib/src/stm32f10x_spi.c ****   enablestatus = (SPIx->CR2 & itmask) ;
 955              		.loc 1 848 0
 956 0294 8488     		ldrh	r4, [r0, #4]
 849:../../source/src/FWlib/src/stm32f10x_spi.c **** 
 850:../../source/src/FWlib/src/stm32f10x_spi.c ****   /* Check the status of the specified SPI/I2S interrupt */
 851:../../source/src/FWlib/src/stm32f10x_spi.c ****   if (((SPIx->SR & itpos) != (uint16_t)RESET) && enablestatus)
 957              		.loc 1 851 0
 958 0296 0589     		ldrh	r5, [r0, #8]
 839:../../source/src/FWlib/src/stm32f10x_spi.c **** 
 959              		.loc 1 839 0
 960 0298 02FA03F0 		lsl	r0, r2, r3
 961              	.LVL73:
 962              		.loc 1 851 0
 963 029c 2840     		ands	r0, r0, r5
 848:../../source/src/FWlib/src/stm32f10x_spi.c **** 
 964              		.loc 1 848 0
 965 029e A4B2     		uxth	r4, r4
 966              	.LVL74:
 967              		.loc 1 851 0
 968 02a0 05D0     		beq	.L67
 845:../../source/src/FWlib/src/stm32f10x_spi.c **** 
 969              		.loc 1 845 0 discriminator 1
 970 02a2 0909     		lsrs	r1, r1, #4
 971              	.LVL75:
 972 02a4 8A40     		lsls	r2, r2, r1
 973              		.loc 1 851 0 discriminator 1
 974 02a6 1442     		tst	r4, r2
 852:../../source/src/FWlib/src/stm32f10x_spi.c ****   {
 853:../../source/src/FWlib/src/stm32f10x_spi.c ****     /* SPI_I2S_IT is set */
 854:../../source/src/FWlib/src/stm32f10x_spi.c ****     bitstatus = SET;
 975              		.loc 1 854 0 discriminator 1
 976 02a8 14BF     		ite	ne
 977 02aa 0120     		movne	r0, #1
ARM GAS  G:\Users\Jaxb\AppData\Local\Temp\ccFgkJ8n.s 			page 34


 978 02ac 0020     		moveq	r0, #0
 979              	.L67:
 980              	.LVL76:
 855:../../source/src/FWlib/src/stm32f10x_spi.c ****   }
 856:../../source/src/FWlib/src/stm32f10x_spi.c ****   else
 857:../../source/src/FWlib/src/stm32f10x_spi.c ****   {
 858:../../source/src/FWlib/src/stm32f10x_spi.c ****     /* SPI_I2S_IT is reset */
 859:../../source/src/FWlib/src/stm32f10x_spi.c ****     bitstatus = RESET;
 860:../../source/src/FWlib/src/stm32f10x_spi.c ****   }
 861:../../source/src/FWlib/src/stm32f10x_spi.c ****   /* Return the SPI_I2S_IT status */
 862:../../source/src/FWlib/src/stm32f10x_spi.c ****   return bitstatus;
 863:../../source/src/FWlib/src/stm32f10x_spi.c **** }
 981              		.loc 1 863 0
 982 02ae 30BC     		pop	{r4, r5}
 983              	.LCFI13:
 984              		.cfi_restore 5
 985              		.cfi_restore 4
 986              		.cfi_def_cfa_offset 0
 987              	.LVL77:
 988 02b0 7047     		bx	lr
 989              		.cfi_endproc
 990              	.LFE50:
 991              		.size	SPI_I2S_GetITStatus, .-SPI_I2S_GetITStatus
 992              		.align	1
 993 02b2 00BF     		.p2align 2,,3
 994              		.global	SPI_I2S_ClearITPendingBit
 995              		.syntax unified
 996              		.thumb
 997              		.thumb_func
 998              		.fpu softvfp
 999              		.type	SPI_I2S_ClearITPendingBit, %function
 1000              	SPI_I2S_ClearITPendingBit:
 1001              	.LFB51:
 864:../../source/src/FWlib/src/stm32f10x_spi.c **** 
 865:../../source/src/FWlib/src/stm32f10x_spi.c **** /**
 866:../../source/src/FWlib/src/stm32f10x_spi.c ****   * @brief  Clears the SPIx CRC Error (CRCERR) interrupt pending bit.
 867:../../source/src/FWlib/src/stm32f10x_spi.c ****   * @param  SPIx: where x can be
 868:../../source/src/FWlib/src/stm32f10x_spi.c ****   *   - 1, 2 or 3 in SPI mode 
 869:../../source/src/FWlib/src/stm32f10x_spi.c ****   * @param  SPI_I2S_IT: specifies the SPI interrupt pending bit to clear.
 870:../../source/src/FWlib/src/stm32f10x_spi.c ****   *   This function clears only CRCERR interrupt pending bit.   
 871:../../source/src/FWlib/src/stm32f10x_spi.c ****   * @note
 872:../../source/src/FWlib/src/stm32f10x_spi.c ****   *   - OVR (OverRun Error) interrupt pending bit is cleared by software 
 873:../../source/src/FWlib/src/stm32f10x_spi.c ****   *     sequence: a read operation to SPI_DR register (SPI_I2S_ReceiveData()) 
 874:../../source/src/FWlib/src/stm32f10x_spi.c ****   *     followed by a read operation to SPI_SR register (SPI_I2S_GetITStatus()).
 875:../../source/src/FWlib/src/stm32f10x_spi.c ****   *   - UDR (UnderRun Error) interrupt pending bit is cleared by a read 
 876:../../source/src/FWlib/src/stm32f10x_spi.c ****   *     operation to SPI_SR register (SPI_I2S_GetITStatus()).
 877:../../source/src/FWlib/src/stm32f10x_spi.c ****   *   - MODF (Mode Fault) interrupt pending bit is cleared by software sequence:
 878:../../source/src/FWlib/src/stm32f10x_spi.c ****   *     a read/write operation to SPI_SR register (SPI_I2S_GetITStatus()) 
 879:../../source/src/FWlib/src/stm32f10x_spi.c ****   *     followed by a write operation to SPI_CR1 register (SPI_Cmd() to enable 
 880:../../source/src/FWlib/src/stm32f10x_spi.c ****   *     the SPI).
 881:../../source/src/FWlib/src/stm32f10x_spi.c ****   * @retval None
 882:../../source/src/FWlib/src/stm32f10x_spi.c ****   */
 883:../../source/src/FWlib/src/stm32f10x_spi.c **** void SPI_I2S_ClearITPendingBit(SPI_TypeDef* SPIx, uint8_t SPI_I2S_IT)
 884:../../source/src/FWlib/src/stm32f10x_spi.c **** {
 1002              		.loc 1 884 0
 1003              		.cfi_startproc
 1004              		@ args = 0, pretend = 0, frame = 0
ARM GAS  G:\Users\Jaxb\AppData\Local\Temp\ccFgkJ8n.s 			page 35


 1005              		@ frame_needed = 0, uses_anonymous_args = 0
 1006              		@ link register save eliminated.
 1007              	.LVL78:
 885:../../source/src/FWlib/src/stm32f10x_spi.c ****   uint16_t itpos = 0;
 886:../../source/src/FWlib/src/stm32f10x_spi.c ****   /* Check the parameters */
 887:../../source/src/FWlib/src/stm32f10x_spi.c ****   assert_param(IS_SPI_ALL_PERIPH(SPIx));
 888:../../source/src/FWlib/src/stm32f10x_spi.c ****   assert_param(IS_SPI_I2S_CLEAR_IT(SPI_I2S_IT));
 889:../../source/src/FWlib/src/stm32f10x_spi.c **** 
 890:../../source/src/FWlib/src/stm32f10x_spi.c ****   /* Get the SPI IT index */
 891:../../source/src/FWlib/src/stm32f10x_spi.c ****   itpos = 0x01 << (SPI_I2S_IT & 0x0F);
 1008              		.loc 1 891 0
 1009 02b4 0123     		movs	r3, #1
 1010 02b6 01F00F01 		and	r1, r1, #15
 1011              	.LVL79:
 1012 02ba 8B40     		lsls	r3, r3, r1
 892:../../source/src/FWlib/src/stm32f10x_spi.c **** 
 893:../../source/src/FWlib/src/stm32f10x_spi.c ****   /* Clear the selected SPI CRC Error (CRCERR) interrupt pending bit */
 894:../../source/src/FWlib/src/stm32f10x_spi.c ****   SPIx->SR = (uint16_t)~itpos;
 1013              		.loc 1 894 0
 1014 02bc DB43     		mvns	r3, r3
 1015 02be 9BB2     		uxth	r3, r3
 1016 02c0 0381     		strh	r3, [r0, #8]	@ movhi
 895:../../source/src/FWlib/src/stm32f10x_spi.c **** }
 1017              		.loc 1 895 0
 1018 02c2 7047     		bx	lr
 1019              		.cfi_endproc
 1020              	.LFE51:
 1021              		.size	SPI_I2S_ClearITPendingBit, .-SPI_I2S_ClearITPendingBit
 1022              	.Letext0:
 1023              		.file 2 "f:\\arm\\gcc2018\\arm-none-eabi\\include\\machine\\_default_types.h"
 1024              		.file 3 "f:\\arm\\gcc2018\\arm-none-eabi\\include\\sys\\_stdint.h"
 1025              		.file 4 "../../source/include/core_cm3.h"
 1026              		.file 5 "../../source/include/system_stm32f10x.h"
 1027              		.file 6 "../../source/include/stm32f10x.h"
 1028              		.file 7 "../../source/src/FWlib/inc/stm32f10x_rcc.h"
 1029              		.file 8 "../../source/src/FWlib/inc/stm32f10x_spi.h"