ARM GAS  G:\Users\Jaxb\AppData\Local\Temp\ccclxmrG.s 			page 1


   1              		.cpu cortex-m3
   2              		.eabi_attribute 20, 1
   3              		.eabi_attribute 21, 1
   4              		.eabi_attribute 23, 3
   5              		.eabi_attribute 24, 1
   6              		.eabi_attribute 25, 1
   7              		.eabi_attribute 26, 1
   8              		.eabi_attribute 30, 2
   9              		.eabi_attribute 34, 1
  10              		.eabi_attribute 18, 4
  11              		.file	"stm32f10x_adc.c"
  12              		.text
  13              	.Ltext0:
  14              		.cfi_sections	.debug_frame
  15              		.align	1
  16              		.p2align 2,,3
  17              		.global	ADC_DeInit
  18              		.syntax unified
  19              		.thumb
  20              		.thumb_func
  21              		.fpu softvfp
  22              		.type	ADC_DeInit, %function
  23              	ADC_DeInit:
  24              	.LFB29:
  25              		.file 1 "../../source/src/FWlib/src/stm32f10x_adc.c"
   1:../../source/src/FWlib/src/stm32f10x_adc.c **** /**
   2:../../source/src/FWlib/src/stm32f10x_adc.c ****   ******************************************************************************
   3:../../source/src/FWlib/src/stm32f10x_adc.c ****   * @file    stm32f10x_adc.c
   4:../../source/src/FWlib/src/stm32f10x_adc.c ****   * @author  MCD Application Team
   5:../../source/src/FWlib/src/stm32f10x_adc.c ****   * @version V3.5.0
   6:../../source/src/FWlib/src/stm32f10x_adc.c ****   * @date    11-March-2011
   7:../../source/src/FWlib/src/stm32f10x_adc.c ****   * @brief   This file provides all the ADC firmware functions.
   8:../../source/src/FWlib/src/stm32f10x_adc.c ****   ******************************************************************************
   9:../../source/src/FWlib/src/stm32f10x_adc.c ****   * @attention
  10:../../source/src/FWlib/src/stm32f10x_adc.c ****   *
  11:../../source/src/FWlib/src/stm32f10x_adc.c ****   * THE PRESENT FIRMWARE WHICH IS FOR GUIDANCE ONLY AIMS AT PROVIDING CUSTOMERS
  12:../../source/src/FWlib/src/stm32f10x_adc.c ****   * WITH CODING INFORMATION REGARDING THEIR PRODUCTS IN ORDER FOR THEM TO SAVE
  13:../../source/src/FWlib/src/stm32f10x_adc.c ****   * TIME. AS A RESULT, STMICROELECTRONICS SHALL NOT BE HELD LIABLE FOR ANY
  14:../../source/src/FWlib/src/stm32f10x_adc.c ****   * DIRECT, INDIRECT OR CONSEQUENTIAL DAMAGES WITH RESPECT TO ANY CLAIMS ARISING
  15:../../source/src/FWlib/src/stm32f10x_adc.c ****   * FROM THE CONTENT OF SUCH FIRMWARE AND/OR THE USE MADE BY CUSTOMERS OF THE
  16:../../source/src/FWlib/src/stm32f10x_adc.c ****   * CODING INFORMATION CONTAINED HEREIN IN CONNECTION WITH THEIR PRODUCTS.
  17:../../source/src/FWlib/src/stm32f10x_adc.c ****   *
  18:../../source/src/FWlib/src/stm32f10x_adc.c ****   * <h2><center>&copy; COPYRIGHT 2011 STMicroelectronics</center></h2>
  19:../../source/src/FWlib/src/stm32f10x_adc.c ****   ******************************************************************************
  20:../../source/src/FWlib/src/stm32f10x_adc.c ****   */
  21:../../source/src/FWlib/src/stm32f10x_adc.c **** 
  22:../../source/src/FWlib/src/stm32f10x_adc.c **** /* Includes ------------------------------------------------------------------*/
  23:../../source/src/FWlib/src/stm32f10x_adc.c **** #include "stm32f10x_adc.h"
  24:../../source/src/FWlib/src/stm32f10x_adc.c **** #include "stm32f10x_rcc.h"
  25:../../source/src/FWlib/src/stm32f10x_adc.c **** 
  26:../../source/src/FWlib/src/stm32f10x_adc.c **** /** @addtogroup STM32F10x_StdPeriph_Driver
  27:../../source/src/FWlib/src/stm32f10x_adc.c ****   * @{
  28:../../source/src/FWlib/src/stm32f10x_adc.c ****   */
  29:../../source/src/FWlib/src/stm32f10x_adc.c **** 
  30:../../source/src/FWlib/src/stm32f10x_adc.c **** /** @defgroup ADC 
  31:../../source/src/FWlib/src/stm32f10x_adc.c ****   * @brief ADC driver modules
  32:../../source/src/FWlib/src/stm32f10x_adc.c ****   * @{
ARM GAS  G:\Users\Jaxb\AppData\Local\Temp\ccclxmrG.s 			page 2


  33:../../source/src/FWlib/src/stm32f10x_adc.c ****   */
  34:../../source/src/FWlib/src/stm32f10x_adc.c **** 
  35:../../source/src/FWlib/src/stm32f10x_adc.c **** /** @defgroup ADC_Private_TypesDefinitions
  36:../../source/src/FWlib/src/stm32f10x_adc.c ****   * @{
  37:../../source/src/FWlib/src/stm32f10x_adc.c ****   */
  38:../../source/src/FWlib/src/stm32f10x_adc.c **** 
  39:../../source/src/FWlib/src/stm32f10x_adc.c **** /**
  40:../../source/src/FWlib/src/stm32f10x_adc.c ****   * @}
  41:../../source/src/FWlib/src/stm32f10x_adc.c ****   */
  42:../../source/src/FWlib/src/stm32f10x_adc.c **** 
  43:../../source/src/FWlib/src/stm32f10x_adc.c **** /** @defgroup ADC_Private_Defines
  44:../../source/src/FWlib/src/stm32f10x_adc.c ****   * @{
  45:../../source/src/FWlib/src/stm32f10x_adc.c ****   */
  46:../../source/src/FWlib/src/stm32f10x_adc.c **** 
  47:../../source/src/FWlib/src/stm32f10x_adc.c **** /* ADC DISCNUM mask */
  48:../../source/src/FWlib/src/stm32f10x_adc.c **** #define CR1_DISCNUM_Reset           ((uint32_t)0xFFFF1FFF)
  49:../../source/src/FWlib/src/stm32f10x_adc.c **** 
  50:../../source/src/FWlib/src/stm32f10x_adc.c **** /* ADC DISCEN mask */
  51:../../source/src/FWlib/src/stm32f10x_adc.c **** #define CR1_DISCEN_Set              ((uint32_t)0x00000800)
  52:../../source/src/FWlib/src/stm32f10x_adc.c **** #define CR1_DISCEN_Reset            ((uint32_t)0xFFFFF7FF)
  53:../../source/src/FWlib/src/stm32f10x_adc.c **** 
  54:../../source/src/FWlib/src/stm32f10x_adc.c **** /* ADC JAUTO mask */
  55:../../source/src/FWlib/src/stm32f10x_adc.c **** #define CR1_JAUTO_Set               ((uint32_t)0x00000400)
  56:../../source/src/FWlib/src/stm32f10x_adc.c **** #define CR1_JAUTO_Reset             ((uint32_t)0xFFFFFBFF)
  57:../../source/src/FWlib/src/stm32f10x_adc.c **** 
  58:../../source/src/FWlib/src/stm32f10x_adc.c **** /* ADC JDISCEN mask */
  59:../../source/src/FWlib/src/stm32f10x_adc.c **** #define CR1_JDISCEN_Set             ((uint32_t)0x00001000)
  60:../../source/src/FWlib/src/stm32f10x_adc.c **** #define CR1_JDISCEN_Reset           ((uint32_t)0xFFFFEFFF)
  61:../../source/src/FWlib/src/stm32f10x_adc.c **** 
  62:../../source/src/FWlib/src/stm32f10x_adc.c **** /* ADC AWDCH mask */
  63:../../source/src/FWlib/src/stm32f10x_adc.c **** #define CR1_AWDCH_Reset             ((uint32_t)0xFFFFFFE0)
  64:../../source/src/FWlib/src/stm32f10x_adc.c **** 
  65:../../source/src/FWlib/src/stm32f10x_adc.c **** /* ADC Analog watchdog enable mode mask */
  66:../../source/src/FWlib/src/stm32f10x_adc.c **** #define CR1_AWDMode_Reset           ((uint32_t)0xFF3FFDFF)
  67:../../source/src/FWlib/src/stm32f10x_adc.c **** 
  68:../../source/src/FWlib/src/stm32f10x_adc.c **** /* CR1 register Mask */
  69:../../source/src/FWlib/src/stm32f10x_adc.c **** #define CR1_CLEAR_Mask              ((uint32_t)0xFFF0FEFF)
  70:../../source/src/FWlib/src/stm32f10x_adc.c **** 
  71:../../source/src/FWlib/src/stm32f10x_adc.c **** /* ADC ADON mask */
  72:../../source/src/FWlib/src/stm32f10x_adc.c **** #define CR2_ADON_Set                ((uint32_t)0x00000001)
  73:../../source/src/FWlib/src/stm32f10x_adc.c **** #define CR2_ADON_Reset              ((uint32_t)0xFFFFFFFE)
  74:../../source/src/FWlib/src/stm32f10x_adc.c **** 
  75:../../source/src/FWlib/src/stm32f10x_adc.c **** /* ADC DMA mask */
  76:../../source/src/FWlib/src/stm32f10x_adc.c **** #define CR2_DMA_Set                 ((uint32_t)0x00000100)
  77:../../source/src/FWlib/src/stm32f10x_adc.c **** #define CR2_DMA_Reset               ((uint32_t)0xFFFFFEFF)
  78:../../source/src/FWlib/src/stm32f10x_adc.c **** 
  79:../../source/src/FWlib/src/stm32f10x_adc.c **** /* ADC RSTCAL mask */
  80:../../source/src/FWlib/src/stm32f10x_adc.c **** #define CR2_RSTCAL_Set              ((uint32_t)0x00000008)
  81:../../source/src/FWlib/src/stm32f10x_adc.c **** 
  82:../../source/src/FWlib/src/stm32f10x_adc.c **** /* ADC CAL mask */
  83:../../source/src/FWlib/src/stm32f10x_adc.c **** #define CR2_CAL_Set                 ((uint32_t)0x00000004)
  84:../../source/src/FWlib/src/stm32f10x_adc.c **** 
  85:../../source/src/FWlib/src/stm32f10x_adc.c **** /* ADC SWSTART mask */
  86:../../source/src/FWlib/src/stm32f10x_adc.c **** #define CR2_SWSTART_Set             ((uint32_t)0x00400000)
  87:../../source/src/FWlib/src/stm32f10x_adc.c **** 
  88:../../source/src/FWlib/src/stm32f10x_adc.c **** /* ADC EXTTRIG mask */
  89:../../source/src/FWlib/src/stm32f10x_adc.c **** #define CR2_EXTTRIG_Set             ((uint32_t)0x00100000)
ARM GAS  G:\Users\Jaxb\AppData\Local\Temp\ccclxmrG.s 			page 3


  90:../../source/src/FWlib/src/stm32f10x_adc.c **** #define CR2_EXTTRIG_Reset           ((uint32_t)0xFFEFFFFF)
  91:../../source/src/FWlib/src/stm32f10x_adc.c **** 
  92:../../source/src/FWlib/src/stm32f10x_adc.c **** /* ADC Software start mask */
  93:../../source/src/FWlib/src/stm32f10x_adc.c **** #define CR2_EXTTRIG_SWSTART_Set     ((uint32_t)0x00500000)
  94:../../source/src/FWlib/src/stm32f10x_adc.c **** #define CR2_EXTTRIG_SWSTART_Reset   ((uint32_t)0xFFAFFFFF)
  95:../../source/src/FWlib/src/stm32f10x_adc.c **** 
  96:../../source/src/FWlib/src/stm32f10x_adc.c **** /* ADC JEXTSEL mask */
  97:../../source/src/FWlib/src/stm32f10x_adc.c **** #define CR2_JEXTSEL_Reset           ((uint32_t)0xFFFF8FFF)
  98:../../source/src/FWlib/src/stm32f10x_adc.c **** 
  99:../../source/src/FWlib/src/stm32f10x_adc.c **** /* ADC JEXTTRIG mask */
 100:../../source/src/FWlib/src/stm32f10x_adc.c **** #define CR2_JEXTTRIG_Set            ((uint32_t)0x00008000)
 101:../../source/src/FWlib/src/stm32f10x_adc.c **** #define CR2_JEXTTRIG_Reset          ((uint32_t)0xFFFF7FFF)
 102:../../source/src/FWlib/src/stm32f10x_adc.c **** 
 103:../../source/src/FWlib/src/stm32f10x_adc.c **** /* ADC JSWSTART mask */
 104:../../source/src/FWlib/src/stm32f10x_adc.c **** #define CR2_JSWSTART_Set            ((uint32_t)0x00200000)
 105:../../source/src/FWlib/src/stm32f10x_adc.c **** 
 106:../../source/src/FWlib/src/stm32f10x_adc.c **** /* ADC injected software start mask */
 107:../../source/src/FWlib/src/stm32f10x_adc.c **** #define CR2_JEXTTRIG_JSWSTART_Set   ((uint32_t)0x00208000)
 108:../../source/src/FWlib/src/stm32f10x_adc.c **** #define CR2_JEXTTRIG_JSWSTART_Reset ((uint32_t)0xFFDF7FFF)
 109:../../source/src/FWlib/src/stm32f10x_adc.c **** 
 110:../../source/src/FWlib/src/stm32f10x_adc.c **** /* ADC TSPD mask */
 111:../../source/src/FWlib/src/stm32f10x_adc.c **** #define CR2_TSVREFE_Set             ((uint32_t)0x00800000)
 112:../../source/src/FWlib/src/stm32f10x_adc.c **** #define CR2_TSVREFE_Reset           ((uint32_t)0xFF7FFFFF)
 113:../../source/src/FWlib/src/stm32f10x_adc.c **** 
 114:../../source/src/FWlib/src/stm32f10x_adc.c **** /* CR2 register Mask */
 115:../../source/src/FWlib/src/stm32f10x_adc.c **** #define CR2_CLEAR_Mask              ((uint32_t)0xFFF1F7FD)
 116:../../source/src/FWlib/src/stm32f10x_adc.c **** 
 117:../../source/src/FWlib/src/stm32f10x_adc.c **** /* ADC SQx mask */
 118:../../source/src/FWlib/src/stm32f10x_adc.c **** #define SQR3_SQ_Set                 ((uint32_t)0x0000001F)
 119:../../source/src/FWlib/src/stm32f10x_adc.c **** #define SQR2_SQ_Set                 ((uint32_t)0x0000001F)
 120:../../source/src/FWlib/src/stm32f10x_adc.c **** #define SQR1_SQ_Set                 ((uint32_t)0x0000001F)
 121:../../source/src/FWlib/src/stm32f10x_adc.c **** 
 122:../../source/src/FWlib/src/stm32f10x_adc.c **** /* SQR1 register Mask */
 123:../../source/src/FWlib/src/stm32f10x_adc.c **** #define SQR1_CLEAR_Mask             ((uint32_t)0xFF0FFFFF)
 124:../../source/src/FWlib/src/stm32f10x_adc.c **** 
 125:../../source/src/FWlib/src/stm32f10x_adc.c **** /* ADC JSQx mask */
 126:../../source/src/FWlib/src/stm32f10x_adc.c **** #define JSQR_JSQ_Set                ((uint32_t)0x0000001F)
 127:../../source/src/FWlib/src/stm32f10x_adc.c **** 
 128:../../source/src/FWlib/src/stm32f10x_adc.c **** /* ADC JL mask */
 129:../../source/src/FWlib/src/stm32f10x_adc.c **** #define JSQR_JL_Set                 ((uint32_t)0x00300000)
 130:../../source/src/FWlib/src/stm32f10x_adc.c **** #define JSQR_JL_Reset               ((uint32_t)0xFFCFFFFF)
 131:../../source/src/FWlib/src/stm32f10x_adc.c **** 
 132:../../source/src/FWlib/src/stm32f10x_adc.c **** /* ADC SMPx mask */
 133:../../source/src/FWlib/src/stm32f10x_adc.c **** #define SMPR1_SMP_Set               ((uint32_t)0x00000007)
 134:../../source/src/FWlib/src/stm32f10x_adc.c **** #define SMPR2_SMP_Set               ((uint32_t)0x00000007)
 135:../../source/src/FWlib/src/stm32f10x_adc.c **** 
 136:../../source/src/FWlib/src/stm32f10x_adc.c **** /* ADC JDRx registers offset */
 137:../../source/src/FWlib/src/stm32f10x_adc.c **** #define JDR_Offset                  ((uint8_t)0x28)
 138:../../source/src/FWlib/src/stm32f10x_adc.c **** 
 139:../../source/src/FWlib/src/stm32f10x_adc.c **** /* ADC1 DR register base address */
 140:../../source/src/FWlib/src/stm32f10x_adc.c **** #define DR_ADDRESS                  ((uint32_t)0x4001244C)
 141:../../source/src/FWlib/src/stm32f10x_adc.c **** 
 142:../../source/src/FWlib/src/stm32f10x_adc.c **** /**
 143:../../source/src/FWlib/src/stm32f10x_adc.c ****   * @}
 144:../../source/src/FWlib/src/stm32f10x_adc.c ****   */
 145:../../source/src/FWlib/src/stm32f10x_adc.c **** 
 146:../../source/src/FWlib/src/stm32f10x_adc.c **** /** @defgroup ADC_Private_Macros
ARM GAS  G:\Users\Jaxb\AppData\Local\Temp\ccclxmrG.s 			page 4


 147:../../source/src/FWlib/src/stm32f10x_adc.c ****   * @{
 148:../../source/src/FWlib/src/stm32f10x_adc.c ****   */
 149:../../source/src/FWlib/src/stm32f10x_adc.c **** 
 150:../../source/src/FWlib/src/stm32f10x_adc.c **** /**
 151:../../source/src/FWlib/src/stm32f10x_adc.c ****   * @}
 152:../../source/src/FWlib/src/stm32f10x_adc.c ****   */
 153:../../source/src/FWlib/src/stm32f10x_adc.c **** 
 154:../../source/src/FWlib/src/stm32f10x_adc.c **** /** @defgroup ADC_Private_Variables
 155:../../source/src/FWlib/src/stm32f10x_adc.c ****   * @{
 156:../../source/src/FWlib/src/stm32f10x_adc.c ****   */
 157:../../source/src/FWlib/src/stm32f10x_adc.c **** 
 158:../../source/src/FWlib/src/stm32f10x_adc.c **** /**
 159:../../source/src/FWlib/src/stm32f10x_adc.c ****   * @}
 160:../../source/src/FWlib/src/stm32f10x_adc.c ****   */
 161:../../source/src/FWlib/src/stm32f10x_adc.c **** 
 162:../../source/src/FWlib/src/stm32f10x_adc.c **** /** @defgroup ADC_Private_FunctionPrototypes
 163:../../source/src/FWlib/src/stm32f10x_adc.c ****   * @{
 164:../../source/src/FWlib/src/stm32f10x_adc.c ****   */
 165:../../source/src/FWlib/src/stm32f10x_adc.c **** 
 166:../../source/src/FWlib/src/stm32f10x_adc.c **** /**
 167:../../source/src/FWlib/src/stm32f10x_adc.c ****   * @}
 168:../../source/src/FWlib/src/stm32f10x_adc.c ****   */
 169:../../source/src/FWlib/src/stm32f10x_adc.c **** 
 170:../../source/src/FWlib/src/stm32f10x_adc.c **** /** @defgroup ADC_Private_Functions
 171:../../source/src/FWlib/src/stm32f10x_adc.c ****   * @{
 172:../../source/src/FWlib/src/stm32f10x_adc.c ****   */
 173:../../source/src/FWlib/src/stm32f10x_adc.c **** 
 174:../../source/src/FWlib/src/stm32f10x_adc.c **** /**
 175:../../source/src/FWlib/src/stm32f10x_adc.c ****   * @brief  Deinitializes the ADCx peripheral registers to their default reset values.
 176:../../source/src/FWlib/src/stm32f10x_adc.c ****   * @param  ADCx: where x can be 1, 2 or 3 to select the ADC peripheral.
 177:../../source/src/FWlib/src/stm32f10x_adc.c ****   * @retval None
 178:../../source/src/FWlib/src/stm32f10x_adc.c ****   */
 179:../../source/src/FWlib/src/stm32f10x_adc.c **** void ADC_DeInit(ADC_TypeDef* ADCx)
 180:../../source/src/FWlib/src/stm32f10x_adc.c **** {
  26              		.loc 1 180 0
  27              		.cfi_startproc
  28              		@ args = 0, pretend = 0, frame = 0
  29              		@ frame_needed = 0, uses_anonymous_args = 0
  30              	.LVL0:
  31 0000 08B5     		push	{r3, lr}
  32              	.LCFI0:
  33              		.cfi_def_cfa_offset 8
  34              		.cfi_offset 3, -8
  35              		.cfi_offset 14, -4
 181:../../source/src/FWlib/src/stm32f10x_adc.c ****   /* Check the parameters */
 182:../../source/src/FWlib/src/stm32f10x_adc.c ****   assert_param(IS_ADC_ALL_PERIPH(ADCx));
 183:../../source/src/FWlib/src/stm32f10x_adc.c ****   
 184:../../source/src/FWlib/src/stm32f10x_adc.c ****   if (ADCx == ADC1)
  36              		.loc 1 184 0
  37 0002 174B     		ldr	r3, .L9
  38 0004 9842     		cmp	r0, r3
  39 0006 06D0     		beq	.L6
 185:../../source/src/FWlib/src/stm32f10x_adc.c ****   {
 186:../../source/src/FWlib/src/stm32f10x_adc.c ****     /* Enable ADC1 reset state */
 187:../../source/src/FWlib/src/stm32f10x_adc.c ****     RCC_APB2PeriphResetCmd(RCC_APB2Periph_ADC1, ENABLE);
 188:../../source/src/FWlib/src/stm32f10x_adc.c ****     /* Release ADC1 from reset state */
 189:../../source/src/FWlib/src/stm32f10x_adc.c ****     RCC_APB2PeriphResetCmd(RCC_APB2Periph_ADC1, DISABLE);
ARM GAS  G:\Users\Jaxb\AppData\Local\Temp\ccclxmrG.s 			page 5


 190:../../source/src/FWlib/src/stm32f10x_adc.c ****   }
 191:../../source/src/FWlib/src/stm32f10x_adc.c ****   else if (ADCx == ADC2)
  40              		.loc 1 191 0
  41 0008 164B     		ldr	r3, .L9+4
  42 000a 9842     		cmp	r0, r3
  43 000c 1BD0     		beq	.L7
 192:../../source/src/FWlib/src/stm32f10x_adc.c ****   {
 193:../../source/src/FWlib/src/stm32f10x_adc.c ****     /* Enable ADC2 reset state */
 194:../../source/src/FWlib/src/stm32f10x_adc.c ****     RCC_APB2PeriphResetCmd(RCC_APB2Periph_ADC2, ENABLE);
 195:../../source/src/FWlib/src/stm32f10x_adc.c ****     /* Release ADC2 from reset state */
 196:../../source/src/FWlib/src/stm32f10x_adc.c ****     RCC_APB2PeriphResetCmd(RCC_APB2Periph_ADC2, DISABLE);
 197:../../source/src/FWlib/src/stm32f10x_adc.c ****   }
 198:../../source/src/FWlib/src/stm32f10x_adc.c ****   else
 199:../../source/src/FWlib/src/stm32f10x_adc.c ****   {
 200:../../source/src/FWlib/src/stm32f10x_adc.c ****     if (ADCx == ADC3)
  44              		.loc 1 200 0
  45 000e 164B     		ldr	r3, .L9+8
  46 0010 9842     		cmp	r0, r3
  47 0012 0CD0     		beq	.L8
 201:../../source/src/FWlib/src/stm32f10x_adc.c ****     {
 202:../../source/src/FWlib/src/stm32f10x_adc.c ****       /* Enable ADC3 reset state */
 203:../../source/src/FWlib/src/stm32f10x_adc.c ****       RCC_APB2PeriphResetCmd(RCC_APB2Periph_ADC3, ENABLE);
 204:../../source/src/FWlib/src/stm32f10x_adc.c ****       /* Release ADC3 from reset state */
 205:../../source/src/FWlib/src/stm32f10x_adc.c ****       RCC_APB2PeriphResetCmd(RCC_APB2Periph_ADC3, DISABLE);
 206:../../source/src/FWlib/src/stm32f10x_adc.c ****     }
 207:../../source/src/FWlib/src/stm32f10x_adc.c ****   }
 208:../../source/src/FWlib/src/stm32f10x_adc.c **** }
  48              		.loc 1 208 0
  49 0014 08BD     		pop	{r3, pc}
  50              	.L6:
 187:../../source/src/FWlib/src/stm32f10x_adc.c ****     /* Release ADC1 from reset state */
  51              		.loc 1 187 0
  52 0016 0121     		movs	r1, #1
  53 0018 4FF40070 		mov	r0, #512
  54              	.LVL1:
  55 001c FFF7FEFF 		bl	RCC_APB2PeriphResetCmd
  56              	.LVL2:
  57              		.loc 1 208 0
  58 0020 BDE80840 		pop	{r3, lr}
  59              	.LCFI1:
  60              		.cfi_remember_state
  61              		.cfi_restore 14
  62              		.cfi_restore 3
  63              		.cfi_def_cfa_offset 0
 189:../../source/src/FWlib/src/stm32f10x_adc.c ****   }
  64              		.loc 1 189 0
  65 0024 0021     		movs	r1, #0
  66 0026 4FF40070 		mov	r0, #512
  67 002a FFF7FEBF 		b	RCC_APB2PeriphResetCmd
  68              	.LVL3:
  69              	.L8:
  70              	.LCFI2:
  71              		.cfi_restore_state
 203:../../source/src/FWlib/src/stm32f10x_adc.c ****       /* Release ADC3 from reset state */
  72              		.loc 1 203 0
  73 002e 0121     		movs	r1, #1
  74 0030 4FF40040 		mov	r0, #32768
ARM GAS  G:\Users\Jaxb\AppData\Local\Temp\ccclxmrG.s 			page 6


  75              	.LVL4:
  76 0034 FFF7FEFF 		bl	RCC_APB2PeriphResetCmd
  77              	.LVL5:
  78              		.loc 1 208 0
  79 0038 BDE80840 		pop	{r3, lr}
  80              	.LCFI3:
  81              		.cfi_remember_state
  82              		.cfi_restore 14
  83              		.cfi_restore 3
  84              		.cfi_def_cfa_offset 0
 205:../../source/src/FWlib/src/stm32f10x_adc.c ****     }
  85              		.loc 1 205 0
  86 003c 0021     		movs	r1, #0
  87 003e 4FF40040 		mov	r0, #32768
  88 0042 FFF7FEBF 		b	RCC_APB2PeriphResetCmd
  89              	.LVL6:
  90              	.L7:
  91              	.LCFI4:
  92              		.cfi_restore_state
 194:../../source/src/FWlib/src/stm32f10x_adc.c ****     /* Release ADC2 from reset state */
  93              		.loc 1 194 0
  94 0046 0121     		movs	r1, #1
  95 0048 4FF48060 		mov	r0, #1024
  96              	.LVL7:
  97 004c FFF7FEFF 		bl	RCC_APB2PeriphResetCmd
  98              	.LVL8:
  99              		.loc 1 208 0
 100 0050 BDE80840 		pop	{r3, lr}
 101              	.LCFI5:
 102              		.cfi_restore 14
 103              		.cfi_restore 3
 104              		.cfi_def_cfa_offset 0
 196:../../source/src/FWlib/src/stm32f10x_adc.c ****   }
 105              		.loc 1 196 0
 106 0054 0021     		movs	r1, #0
 107 0056 4FF48060 		mov	r0, #1024
 108 005a FFF7FEBF 		b	RCC_APB2PeriphResetCmd
 109              	.LVL9:
 110              	.L10:
 111 005e 00BF     		.align	2
 112              	.L9:
 113 0060 00240140 		.word	1073816576
 114 0064 00280140 		.word	1073817600
 115 0068 003C0140 		.word	1073822720
 116              		.cfi_endproc
 117              	.LFE29:
 118              		.size	ADC_DeInit, .-ADC_DeInit
 119              		.align	1
 120              		.p2align 2,,3
 121              		.global	ADC_Init
 122              		.syntax unified
 123              		.thumb
 124              		.thumb_func
 125              		.fpu softvfp
 126              		.type	ADC_Init, %function
 127              	ADC_Init:
 128              	.LFB30:
ARM GAS  G:\Users\Jaxb\AppData\Local\Temp\ccclxmrG.s 			page 7


 209:../../source/src/FWlib/src/stm32f10x_adc.c **** 
 210:../../source/src/FWlib/src/stm32f10x_adc.c **** /**
 211:../../source/src/FWlib/src/stm32f10x_adc.c ****   * @brief  Initializes the ADCx peripheral according to the specified parameters
 212:../../source/src/FWlib/src/stm32f10x_adc.c ****   *         in the ADC_InitStruct.
 213:../../source/src/FWlib/src/stm32f10x_adc.c ****   * @param  ADCx: where x can be 1, 2 or 3 to select the ADC peripheral.
 214:../../source/src/FWlib/src/stm32f10x_adc.c ****   * @param  ADC_InitStruct: pointer to an ADC_InitTypeDef structure that contains
 215:../../source/src/FWlib/src/stm32f10x_adc.c ****   *         the configuration information for the specified ADC peripheral.
 216:../../source/src/FWlib/src/stm32f10x_adc.c ****   * @retval None
 217:../../source/src/FWlib/src/stm32f10x_adc.c ****   */
 218:../../source/src/FWlib/src/stm32f10x_adc.c **** void ADC_Init(ADC_TypeDef* ADCx, ADC_InitTypeDef* ADC_InitStruct)
 219:../../source/src/FWlib/src/stm32f10x_adc.c **** {
 129              		.loc 1 219 0
 130              		.cfi_startproc
 131              		@ args = 0, pretend = 0, frame = 0
 132              		@ frame_needed = 0, uses_anonymous_args = 0
 133              		@ link register save eliminated.
 134              	.LVL10:
 220:../../source/src/FWlib/src/stm32f10x_adc.c ****   uint32_t tmpreg1 = 0;
 221:../../source/src/FWlib/src/stm32f10x_adc.c ****   uint8_t tmpreg2 = 0;
 222:../../source/src/FWlib/src/stm32f10x_adc.c ****   /* Check the parameters */
 223:../../source/src/FWlib/src/stm32f10x_adc.c ****   assert_param(IS_ADC_ALL_PERIPH(ADCx));
 224:../../source/src/FWlib/src/stm32f10x_adc.c ****   assert_param(IS_ADC_MODE(ADC_InitStruct->ADC_Mode));
 225:../../source/src/FWlib/src/stm32f10x_adc.c ****   assert_param(IS_FUNCTIONAL_STATE(ADC_InitStruct->ADC_ScanConvMode));
 226:../../source/src/FWlib/src/stm32f10x_adc.c ****   assert_param(IS_FUNCTIONAL_STATE(ADC_InitStruct->ADC_ContinuousConvMode));
 227:../../source/src/FWlib/src/stm32f10x_adc.c ****   assert_param(IS_ADC_EXT_TRIG(ADC_InitStruct->ADC_ExternalTrigConv));   
 228:../../source/src/FWlib/src/stm32f10x_adc.c ****   assert_param(IS_ADC_DATA_ALIGN(ADC_InitStruct->ADC_DataAlign)); 
 229:../../source/src/FWlib/src/stm32f10x_adc.c ****   assert_param(IS_ADC_REGULAR_LENGTH(ADC_InitStruct->ADC_NbrOfChannel));
 230:../../source/src/FWlib/src/stm32f10x_adc.c **** 
 231:../../source/src/FWlib/src/stm32f10x_adc.c ****   /*---------------------------- ADCx CR1 Configuration -----------------*/
 232:../../source/src/FWlib/src/stm32f10x_adc.c ****   /* Get the ADCx CR1 value */
 233:../../source/src/FWlib/src/stm32f10x_adc.c ****   tmpreg1 = ADCx->CR1;
 135              		.loc 1 233 0
 136 006c 4368     		ldr	r3, [r0, #4]
 137              	.LVL11:
 219:../../source/src/FWlib/src/stm32f10x_adc.c ****   uint32_t tmpreg1 = 0;
 138              		.loc 1 219 0
 139 006e 30B4     		push	{r4, r5}
 140              	.LCFI6:
 141              		.cfi_def_cfa_offset 8
 142              		.cfi_offset 4, -8
 143              		.cfi_offset 5, -4
 234:../../source/src/FWlib/src/stm32f10x_adc.c ****   /* Clear DUALMOD and SCAN bits */
 235:../../source/src/FWlib/src/stm32f10x_adc.c ****   tmpreg1 &= CR1_CLEAR_Mask;
 144              		.loc 1 235 0
 145 0070 23F47023 		bic	r3, r3, #983040
 146              	.LVL12:
 236:../../source/src/FWlib/src/stm32f10x_adc.c ****   /* Configure ADCx: Dual mode and scan conversion mode */
 237:../../source/src/FWlib/src/stm32f10x_adc.c ****   /* Set DUALMOD bits according to ADC_Mode value */
 238:../../source/src/FWlib/src/stm32f10x_adc.c ****   /* Set SCAN bit according to ADC_ScanConvMode value */
 239:../../source/src/FWlib/src/stm32f10x_adc.c ****   tmpreg1 |= (uint32_t)(ADC_InitStruct->ADC_Mode | ((uint32_t)ADC_InitStruct->ADC_ScanConvMode << 8
 147              		.loc 1 239 0
 148 0074 0C79     		ldrb	r4, [r1, #4]	@ zero_extendqisi2
 149 0076 0A68     		ldr	r2, [r1]
 235:../../source/src/FWlib/src/stm32f10x_adc.c ****   /* Configure ADCx: Dual mode and scan conversion mode */
 150              		.loc 1 235 0
 151 0078 23F48073 		bic	r3, r3, #256
 152 007c 43EA0423 		orr	r3, r3, r4, lsl #8
ARM GAS  G:\Users\Jaxb\AppData\Local\Temp\ccclxmrG.s 			page 8


 153              		.loc 1 239 0
 154 0080 1343     		orrs	r3, r3, r2
 155              	.LVL13:
 240:../../source/src/FWlib/src/stm32f10x_adc.c ****   /* Write to ADCx CR1 */
 241:../../source/src/FWlib/src/stm32f10x_adc.c ****   ADCx->CR1 = tmpreg1;
 156              		.loc 1 241 0
 157 0082 4360     		str	r3, [r0, #4]
 242:../../source/src/FWlib/src/stm32f10x_adc.c **** 
 243:../../source/src/FWlib/src/stm32f10x_adc.c ****   /*---------------------------- ADCx CR2 Configuration -----------------*/
 244:../../source/src/FWlib/src/stm32f10x_adc.c ****   /* Get the ADCx CR2 value */
 245:../../source/src/FWlib/src/stm32f10x_adc.c ****   tmpreg1 = ADCx->CR2;
 158              		.loc 1 245 0
 159 0084 8568     		ldr	r5, [r0, #8]
 160              	.LVL14:
 246:../../source/src/FWlib/src/stm32f10x_adc.c ****   /* Clear CONT, ALIGN and EXTSEL bits */
 247:../../source/src/FWlib/src/stm32f10x_adc.c ****   tmpreg1 &= CR2_CLEAR_Mask;
 161              		.loc 1 247 0
 162 0086 0A4A     		ldr	r2, .L12
 163 0088 D1E90243 		ldrd	r4, r3, [r1, #8]
 164 008c 2A40     		ands	r2, r2, r5
 165              	.LVL15:
 166 008e 2343     		orrs	r3, r3, r4
 248:../../source/src/FWlib/src/stm32f10x_adc.c ****   /* Configure ADCx: external trigger event and continuous conversion mode */
 249:../../source/src/FWlib/src/stm32f10x_adc.c ****   /* Set ALIGN bit according to ADC_DataAlign value */
 250:../../source/src/FWlib/src/stm32f10x_adc.c ****   /* Set EXTSEL bits according to ADC_ExternalTrigConv value */
 251:../../source/src/FWlib/src/stm32f10x_adc.c ****   /* Set CONT bit according to ADC_ContinuousConvMode value */
 252:../../source/src/FWlib/src/stm32f10x_adc.c ****   tmpreg1 |= (uint32_t)(ADC_InitStruct->ADC_DataAlign | ADC_InitStruct->ADC_ExternalTrigConv |
 253:../../source/src/FWlib/src/stm32f10x_adc.c ****             ((uint32_t)ADC_InitStruct->ADC_ContinuousConvMode << 1));
 167              		.loc 1 253 0
 168 0090 4C79     		ldrb	r4, [r1, #5]	@ zero_extendqisi2
 169 0092 1343     		orrs	r3, r3, r2
 252:../../source/src/FWlib/src/stm32f10x_adc.c ****             ((uint32_t)ADC_InitStruct->ADC_ContinuousConvMode << 1));
 170              		.loc 1 252 0
 171 0094 43EA4403 		orr	r3, r3, r4, lsl #1
 172              	.LVL16:
 254:../../source/src/FWlib/src/stm32f10x_adc.c ****   /* Write to ADCx CR2 */
 255:../../source/src/FWlib/src/stm32f10x_adc.c ****   ADCx->CR2 = tmpreg1;
 173              		.loc 1 255 0
 174 0098 8360     		str	r3, [r0, #8]
 256:../../source/src/FWlib/src/stm32f10x_adc.c **** 
 257:../../source/src/FWlib/src/stm32f10x_adc.c ****   /*---------------------------- ADCx SQR1 Configuration -----------------*/
 258:../../source/src/FWlib/src/stm32f10x_adc.c ****   /* Get the ADCx SQR1 value */
 259:../../source/src/FWlib/src/stm32f10x_adc.c ****   tmpreg1 = ADCx->SQR1;
 260:../../source/src/FWlib/src/stm32f10x_adc.c ****   /* Clear L bits */
 261:../../source/src/FWlib/src/stm32f10x_adc.c ****   tmpreg1 &= SQR1_CLEAR_Mask;
 262:../../source/src/FWlib/src/stm32f10x_adc.c ****   /* Configure ADCx: regular channel sequence length */
 263:../../source/src/FWlib/src/stm32f10x_adc.c ****   /* Set L bits according to ADC_NbrOfChannel value */
 264:../../source/src/FWlib/src/stm32f10x_adc.c ****   tmpreg2 |= (uint8_t) (ADC_InitStruct->ADC_NbrOfChannel - (uint8_t)1);
 175              		.loc 1 264 0
 176 009a 0A7C     		ldrb	r2, [r1, #16]	@ zero_extendqisi2
 259:../../source/src/FWlib/src/stm32f10x_adc.c ****   /* Clear L bits */
 177              		.loc 1 259 0
 178 009c C36A     		ldr	r3, [r0, #44]
 179              	.LVL17:
 180              		.loc 1 264 0
 181 009e 013A     		subs	r2, r2, #1
 265:../../source/src/FWlib/src/stm32f10x_adc.c ****   tmpreg1 |= (uint32_t)tmpreg2 << 20;
ARM GAS  G:\Users\Jaxb\AppData\Local\Temp\ccclxmrG.s 			page 9


 182              		.loc 1 265 0
 183 00a0 D2B2     		uxtb	r2, r2
 261:../../source/src/FWlib/src/stm32f10x_adc.c ****   /* Configure ADCx: regular channel sequence length */
 184              		.loc 1 261 0
 185 00a2 23F47003 		bic	r3, r3, #15728640
 186              	.LVL18:
 187              		.loc 1 265 0
 188 00a6 43EA0253 		orr	r3, r3, r2, lsl #20
 189              	.LVL19:
 266:../../source/src/FWlib/src/stm32f10x_adc.c ****   /* Write to ADCx SQR1 */
 267:../../source/src/FWlib/src/stm32f10x_adc.c ****   ADCx->SQR1 = tmpreg1;
 190              		.loc 1 267 0
 191 00aa C362     		str	r3, [r0, #44]
 192              	.LVL20:
 268:../../source/src/FWlib/src/stm32f10x_adc.c **** }
 193              		.loc 1 268 0
 194 00ac 30BC     		pop	{r4, r5}
 195              	.LCFI7:
 196              		.cfi_restore 5
 197              		.cfi_restore 4
 198              		.cfi_def_cfa_offset 0
 199 00ae 7047     		bx	lr
 200              	.L13:
 201              		.align	2
 202              	.L12:
 203 00b0 FDF7F1FF 		.word	-919555
 204              		.cfi_endproc
 205              	.LFE30:
 206              		.size	ADC_Init, .-ADC_Init
 207              		.align	1
 208              		.p2align 2,,3
 209              		.global	ADC_StructInit
 210              		.syntax unified
 211              		.thumb
 212              		.thumb_func
 213              		.fpu softvfp
 214              		.type	ADC_StructInit, %function
 215              	ADC_StructInit:
 216              	.LFB31:
 269:../../source/src/FWlib/src/stm32f10x_adc.c **** 
 270:../../source/src/FWlib/src/stm32f10x_adc.c **** /**
 271:../../source/src/FWlib/src/stm32f10x_adc.c ****   * @brief  Fills each ADC_InitStruct member with its default value.
 272:../../source/src/FWlib/src/stm32f10x_adc.c ****   * @param  ADC_InitStruct : pointer to an ADC_InitTypeDef structure which will be initialized.
 273:../../source/src/FWlib/src/stm32f10x_adc.c ****   * @retval None
 274:../../source/src/FWlib/src/stm32f10x_adc.c ****   */
 275:../../source/src/FWlib/src/stm32f10x_adc.c **** void ADC_StructInit(ADC_InitTypeDef* ADC_InitStruct)
 276:../../source/src/FWlib/src/stm32f10x_adc.c **** {
 217              		.loc 1 276 0
 218              		.cfi_startproc
 219              		@ args = 0, pretend = 0, frame = 0
 220              		@ frame_needed = 0, uses_anonymous_args = 0
 221              		@ link register save eliminated.
 222              	.LVL21:
 277:../../source/src/FWlib/src/stm32f10x_adc.c ****   /* Reset ADC init structure parameters values */
 278:../../source/src/FWlib/src/stm32f10x_adc.c ****   /* Initialize the ADC_Mode member */
 279:../../source/src/FWlib/src/stm32f10x_adc.c ****   ADC_InitStruct->ADC_Mode = ADC_Mode_Independent;
 223              		.loc 1 279 0
ARM GAS  G:\Users\Jaxb\AppData\Local\Temp\ccclxmrG.s 			page 10


 224 00b4 0023     		movs	r3, #0
 280:../../source/src/FWlib/src/stm32f10x_adc.c ****   /* initialize the ADC_ScanConvMode member */
 281:../../source/src/FWlib/src/stm32f10x_adc.c ****   ADC_InitStruct->ADC_ScanConvMode = DISABLE;
 282:../../source/src/FWlib/src/stm32f10x_adc.c ****   /* Initialize the ADC_ContinuousConvMode member */
 283:../../source/src/FWlib/src/stm32f10x_adc.c ****   ADC_InitStruct->ADC_ContinuousConvMode = DISABLE;
 284:../../source/src/FWlib/src/stm32f10x_adc.c ****   /* Initialize the ADC_ExternalTrigConv member */
 285:../../source/src/FWlib/src/stm32f10x_adc.c ****   ADC_InitStruct->ADC_ExternalTrigConv = ADC_ExternalTrigConv_T1_CC1;
 286:../../source/src/FWlib/src/stm32f10x_adc.c ****   /* Initialize the ADC_DataAlign member */
 287:../../source/src/FWlib/src/stm32f10x_adc.c ****   ADC_InitStruct->ADC_DataAlign = ADC_DataAlign_Right;
 288:../../source/src/FWlib/src/stm32f10x_adc.c ****   /* Initialize the ADC_NbrOfChannel member */
 289:../../source/src/FWlib/src/stm32f10x_adc.c ****   ADC_InitStruct->ADC_NbrOfChannel = 1;
 225              		.loc 1 289 0
 226 00b6 0122     		movs	r2, #1
 279:../../source/src/FWlib/src/stm32f10x_adc.c ****   /* initialize the ADC_ScanConvMode member */
 227              		.loc 1 279 0
 228 00b8 0360     		str	r3, [r0]
 229              		.loc 1 289 0
 230 00ba 0274     		strb	r2, [r0, #16]
 281:../../source/src/FWlib/src/stm32f10x_adc.c ****   /* Initialize the ADC_ContinuousConvMode member */
 231              		.loc 1 281 0
 232 00bc 0371     		strb	r3, [r0, #4]
 283:../../source/src/FWlib/src/stm32f10x_adc.c ****   /* Initialize the ADC_ExternalTrigConv member */
 233              		.loc 1 283 0
 234 00be 4371     		strb	r3, [r0, #5]
 287:../../source/src/FWlib/src/stm32f10x_adc.c ****   /* Initialize the ADC_NbrOfChannel member */
 235              		.loc 1 287 0
 236 00c0 C0E90233 		strd	r3, r3, [r0, #8]
 290:../../source/src/FWlib/src/stm32f10x_adc.c **** }
 237              		.loc 1 290 0
 238 00c4 7047     		bx	lr
 239              		.cfi_endproc
 240              	.LFE31:
 241              		.size	ADC_StructInit, .-ADC_StructInit
 242              		.align	1
 243 00c6 00BF     		.p2align 2,,3
 244              		.global	ADC_Cmd
 245              		.syntax unified
 246              		.thumb
 247              		.thumb_func
 248              		.fpu softvfp
 249              		.type	ADC_Cmd, %function
 250              	ADC_Cmd:
 251              	.LFB32:
 291:../../source/src/FWlib/src/stm32f10x_adc.c **** 
 292:../../source/src/FWlib/src/stm32f10x_adc.c **** /**
 293:../../source/src/FWlib/src/stm32f10x_adc.c ****   * @brief  Enables or disables the specified ADC peripheral.
 294:../../source/src/FWlib/src/stm32f10x_adc.c ****   * @param  ADCx: where x can be 1, 2 or 3 to select the ADC peripheral.
 295:../../source/src/FWlib/src/stm32f10x_adc.c ****   * @param  NewState: new state of the ADCx peripheral.
 296:../../source/src/FWlib/src/stm32f10x_adc.c ****   *   This parameter can be: ENABLE or DISABLE.
 297:../../source/src/FWlib/src/stm32f10x_adc.c ****   * @retval None
 298:../../source/src/FWlib/src/stm32f10x_adc.c ****   */
 299:../../source/src/FWlib/src/stm32f10x_adc.c **** void ADC_Cmd(ADC_TypeDef* ADCx, FunctionalState NewState)
 300:../../source/src/FWlib/src/stm32f10x_adc.c **** {
 252              		.loc 1 300 0
 253              		.cfi_startproc
 254              		@ args = 0, pretend = 0, frame = 0
 255              		@ frame_needed = 0, uses_anonymous_args = 0
ARM GAS  G:\Users\Jaxb\AppData\Local\Temp\ccclxmrG.s 			page 11


 256              		@ link register save eliminated.
 257              	.LVL22:
 301:../../source/src/FWlib/src/stm32f10x_adc.c ****   /* Check the parameters */
 302:../../source/src/FWlib/src/stm32f10x_adc.c ****   assert_param(IS_ADC_ALL_PERIPH(ADCx));
 303:../../source/src/FWlib/src/stm32f10x_adc.c ****   assert_param(IS_FUNCTIONAL_STATE(NewState));
 304:../../source/src/FWlib/src/stm32f10x_adc.c ****   if (NewState != DISABLE)
 305:../../source/src/FWlib/src/stm32f10x_adc.c ****   {
 306:../../source/src/FWlib/src/stm32f10x_adc.c ****     /* Set the ADON bit to wake up the ADC from power down mode */
 307:../../source/src/FWlib/src/stm32f10x_adc.c ****     ADCx->CR2 |= CR2_ADON_Set;
 258              		.loc 1 307 0
 259 00c8 8368     		ldr	r3, [r0, #8]
 304:../../source/src/FWlib/src/stm32f10x_adc.c ****   {
 260              		.loc 1 304 0
 261 00ca 19B9     		cbnz	r1, .L18
 308:../../source/src/FWlib/src/stm32f10x_adc.c ****   }
 309:../../source/src/FWlib/src/stm32f10x_adc.c ****   else
 310:../../source/src/FWlib/src/stm32f10x_adc.c ****   {
 311:../../source/src/FWlib/src/stm32f10x_adc.c ****     /* Disable the selected ADC peripheral */
 312:../../source/src/FWlib/src/stm32f10x_adc.c ****     ADCx->CR2 &= CR2_ADON_Reset;
 262              		.loc 1 312 0
 263 00cc 23F00103 		bic	r3, r3, #1
 264 00d0 8360     		str	r3, [r0, #8]
 313:../../source/src/FWlib/src/stm32f10x_adc.c ****   }
 314:../../source/src/FWlib/src/stm32f10x_adc.c **** }
 265              		.loc 1 314 0
 266 00d2 7047     		bx	lr
 267              	.L18:
 307:../../source/src/FWlib/src/stm32f10x_adc.c ****   }
 268              		.loc 1 307 0
 269 00d4 43F00103 		orr	r3, r3, #1
 270 00d8 8360     		str	r3, [r0, #8]
 271 00da 7047     		bx	lr
 272              		.cfi_endproc
 273              	.LFE32:
 274              		.size	ADC_Cmd, .-ADC_Cmd
 275              		.align	1
 276              		.p2align 2,,3
 277              		.global	ADC_DMACmd
 278              		.syntax unified
 279              		.thumb
 280              		.thumb_func
 281              		.fpu softvfp
 282              		.type	ADC_DMACmd, %function
 283              	ADC_DMACmd:
 284              	.LFB33:
 315:../../source/src/FWlib/src/stm32f10x_adc.c **** 
 316:../../source/src/FWlib/src/stm32f10x_adc.c **** /**
 317:../../source/src/FWlib/src/stm32f10x_adc.c ****   * @brief  Enables or disables the specified ADC DMA request.
 318:../../source/src/FWlib/src/stm32f10x_adc.c ****   * @param  ADCx: where x can be 1 or 3 to select the ADC peripheral.
 319:../../source/src/FWlib/src/stm32f10x_adc.c ****   *   Note: ADC2 hasn't a DMA capability.
 320:../../source/src/FWlib/src/stm32f10x_adc.c ****   * @param  NewState: new state of the selected ADC DMA transfer.
 321:../../source/src/FWlib/src/stm32f10x_adc.c ****   *   This parameter can be: ENABLE or DISABLE.
 322:../../source/src/FWlib/src/stm32f10x_adc.c ****   * @retval None
 323:../../source/src/FWlib/src/stm32f10x_adc.c ****   */
 324:../../source/src/FWlib/src/stm32f10x_adc.c **** void ADC_DMACmd(ADC_TypeDef* ADCx, FunctionalState NewState)
 325:../../source/src/FWlib/src/stm32f10x_adc.c **** {
 285              		.loc 1 325 0
ARM GAS  G:\Users\Jaxb\AppData\Local\Temp\ccclxmrG.s 			page 12


 286              		.cfi_startproc
 287              		@ args = 0, pretend = 0, frame = 0
 288              		@ frame_needed = 0, uses_anonymous_args = 0
 289              		@ link register save eliminated.
 290              	.LVL23:
 326:../../source/src/FWlib/src/stm32f10x_adc.c ****   /* Check the parameters */
 327:../../source/src/FWlib/src/stm32f10x_adc.c ****   assert_param(IS_ADC_DMA_PERIPH(ADCx));
 328:../../source/src/FWlib/src/stm32f10x_adc.c ****   assert_param(IS_FUNCTIONAL_STATE(NewState));
 329:../../source/src/FWlib/src/stm32f10x_adc.c ****   if (NewState != DISABLE)
 330:../../source/src/FWlib/src/stm32f10x_adc.c ****   {
 331:../../source/src/FWlib/src/stm32f10x_adc.c ****     /* Enable the selected ADC DMA request */
 332:../../source/src/FWlib/src/stm32f10x_adc.c ****     ADCx->CR2 |= CR2_DMA_Set;
 291              		.loc 1 332 0
 292 00dc 8368     		ldr	r3, [r0, #8]
 329:../../source/src/FWlib/src/stm32f10x_adc.c ****   {
 293              		.loc 1 329 0
 294 00de 19B9     		cbnz	r1, .L22
 333:../../source/src/FWlib/src/stm32f10x_adc.c ****   }
 334:../../source/src/FWlib/src/stm32f10x_adc.c ****   else
 335:../../source/src/FWlib/src/stm32f10x_adc.c ****   {
 336:../../source/src/FWlib/src/stm32f10x_adc.c ****     /* Disable the selected ADC DMA request */
 337:../../source/src/FWlib/src/stm32f10x_adc.c ****     ADCx->CR2 &= CR2_DMA_Reset;
 295              		.loc 1 337 0
 296 00e0 23F48073 		bic	r3, r3, #256
 297 00e4 8360     		str	r3, [r0, #8]
 338:../../source/src/FWlib/src/stm32f10x_adc.c ****   }
 339:../../source/src/FWlib/src/stm32f10x_adc.c **** }
 298              		.loc 1 339 0
 299 00e6 7047     		bx	lr
 300              	.L22:
 332:../../source/src/FWlib/src/stm32f10x_adc.c ****   }
 301              		.loc 1 332 0
 302 00e8 43F48073 		orr	r3, r3, #256
 303 00ec 8360     		str	r3, [r0, #8]
 304 00ee 7047     		bx	lr
 305              		.cfi_endproc
 306              	.LFE33:
 307              		.size	ADC_DMACmd, .-ADC_DMACmd
 308              		.align	1
 309              		.p2align 2,,3
 310              		.global	ADC_ITConfig
 311              		.syntax unified
 312              		.thumb
 313              		.thumb_func
 314              		.fpu softvfp
 315              		.type	ADC_ITConfig, %function
 316              	ADC_ITConfig:
 317              	.LFB34:
 340:../../source/src/FWlib/src/stm32f10x_adc.c **** 
 341:../../source/src/FWlib/src/stm32f10x_adc.c **** /**
 342:../../source/src/FWlib/src/stm32f10x_adc.c ****   * @brief  Enables or disables the specified ADC interrupts.
 343:../../source/src/FWlib/src/stm32f10x_adc.c ****   * @param  ADCx: where x can be 1, 2 or 3 to select the ADC peripheral.
 344:../../source/src/FWlib/src/stm32f10x_adc.c ****   * @param  ADC_IT: specifies the ADC interrupt sources to be enabled or disabled. 
 345:../../source/src/FWlib/src/stm32f10x_adc.c ****   *   This parameter can be any combination of the following values:
 346:../../source/src/FWlib/src/stm32f10x_adc.c ****   *     @arg ADC_IT_EOC: End of conversion interrupt mask
 347:../../source/src/FWlib/src/stm32f10x_adc.c ****   *     @arg ADC_IT_AWD: Analog watchdog interrupt mask
 348:../../source/src/FWlib/src/stm32f10x_adc.c ****   *     @arg ADC_IT_JEOC: End of injected conversion interrupt mask
ARM GAS  G:\Users\Jaxb\AppData\Local\Temp\ccclxmrG.s 			page 13


 349:../../source/src/FWlib/src/stm32f10x_adc.c ****   * @param  NewState: new state of the specified ADC interrupts.
 350:../../source/src/FWlib/src/stm32f10x_adc.c ****   *   This parameter can be: ENABLE or DISABLE.
 351:../../source/src/FWlib/src/stm32f10x_adc.c ****   * @retval None
 352:../../source/src/FWlib/src/stm32f10x_adc.c ****   */
 353:../../source/src/FWlib/src/stm32f10x_adc.c **** void ADC_ITConfig(ADC_TypeDef* ADCx, uint16_t ADC_IT, FunctionalState NewState)
 354:../../source/src/FWlib/src/stm32f10x_adc.c **** {
 318              		.loc 1 354 0
 319              		.cfi_startproc
 320              		@ args = 0, pretend = 0, frame = 0
 321              		@ frame_needed = 0, uses_anonymous_args = 0
 322              		@ link register save eliminated.
 323              	.LVL24:
 324 00f0 C9B2     		uxtb	r1, r1
 325              	.LVL25:
 355:../../source/src/FWlib/src/stm32f10x_adc.c ****   uint8_t itmask = 0;
 356:../../source/src/FWlib/src/stm32f10x_adc.c ****   /* Check the parameters */
 357:../../source/src/FWlib/src/stm32f10x_adc.c ****   assert_param(IS_ADC_ALL_PERIPH(ADCx));
 358:../../source/src/FWlib/src/stm32f10x_adc.c ****   assert_param(IS_FUNCTIONAL_STATE(NewState));
 359:../../source/src/FWlib/src/stm32f10x_adc.c ****   assert_param(IS_ADC_IT(ADC_IT));
 360:../../source/src/FWlib/src/stm32f10x_adc.c ****   /* Get the ADC IT index */
 361:../../source/src/FWlib/src/stm32f10x_adc.c ****   itmask = (uint8_t)ADC_IT;
 362:../../source/src/FWlib/src/stm32f10x_adc.c ****   if (NewState != DISABLE)
 363:../../source/src/FWlib/src/stm32f10x_adc.c ****   {
 364:../../source/src/FWlib/src/stm32f10x_adc.c ****     /* Enable the selected ADC interrupts */
 365:../../source/src/FWlib/src/stm32f10x_adc.c ****     ADCx->CR1 |= itmask;
 326              		.loc 1 365 0
 327 00f2 4368     		ldr	r3, [r0, #4]
 362:../../source/src/FWlib/src/stm32f10x_adc.c ****   {
 328              		.loc 1 362 0
 329 00f4 1AB9     		cbnz	r2, .L26
 366:../../source/src/FWlib/src/stm32f10x_adc.c ****   }
 367:../../source/src/FWlib/src/stm32f10x_adc.c ****   else
 368:../../source/src/FWlib/src/stm32f10x_adc.c ****   {
 369:../../source/src/FWlib/src/stm32f10x_adc.c ****     /* Disable the selected ADC interrupts */
 370:../../source/src/FWlib/src/stm32f10x_adc.c ****     ADCx->CR1 &= (~(uint32_t)itmask);
 330              		.loc 1 370 0
 331 00f6 23EA0101 		bic	r1, r3, r1
 332              	.LVL26:
 333 00fa 4160     		str	r1, [r0, #4]
 371:../../source/src/FWlib/src/stm32f10x_adc.c ****   }
 372:../../source/src/FWlib/src/stm32f10x_adc.c **** }
 334              		.loc 1 372 0
 335 00fc 7047     		bx	lr
 336              	.L26:
 365:../../source/src/FWlib/src/stm32f10x_adc.c ****   }
 337              		.loc 1 365 0
 338 00fe 1943     		orrs	r1, r1, r3
 339 0100 4160     		str	r1, [r0, #4]
 340 0102 7047     		bx	lr
 341              		.cfi_endproc
 342              	.LFE34:
 343              		.size	ADC_ITConfig, .-ADC_ITConfig
 344              		.align	1
 345              		.p2align 2,,3
 346              		.global	ADC_ResetCalibration
 347              		.syntax unified
 348              		.thumb
ARM GAS  G:\Users\Jaxb\AppData\Local\Temp\ccclxmrG.s 			page 14


 349              		.thumb_func
 350              		.fpu softvfp
 351              		.type	ADC_ResetCalibration, %function
 352              	ADC_ResetCalibration:
 353              	.LFB35:
 373:../../source/src/FWlib/src/stm32f10x_adc.c **** 
 374:../../source/src/FWlib/src/stm32f10x_adc.c **** /**
 375:../../source/src/FWlib/src/stm32f10x_adc.c ****   * @brief  Resets the selected ADC calibration registers.
 376:../../source/src/FWlib/src/stm32f10x_adc.c ****   * @param  ADCx: where x can be 1, 2 or 3 to select the ADC peripheral.
 377:../../source/src/FWlib/src/stm32f10x_adc.c ****   * @retval None
 378:../../source/src/FWlib/src/stm32f10x_adc.c ****   */
 379:../../source/src/FWlib/src/stm32f10x_adc.c **** void ADC_ResetCalibration(ADC_TypeDef* ADCx)
 380:../../source/src/FWlib/src/stm32f10x_adc.c **** {
 354              		.loc 1 380 0
 355              		.cfi_startproc
 356              		@ args = 0, pretend = 0, frame = 0
 357              		@ frame_needed = 0, uses_anonymous_args = 0
 358              		@ link register save eliminated.
 359              	.LVL27:
 381:../../source/src/FWlib/src/stm32f10x_adc.c ****   /* Check the parameters */
 382:../../source/src/FWlib/src/stm32f10x_adc.c ****   assert_param(IS_ADC_ALL_PERIPH(ADCx));
 383:../../source/src/FWlib/src/stm32f10x_adc.c ****   /* Resets the selected ADC calibration registers */  
 384:../../source/src/FWlib/src/stm32f10x_adc.c ****   ADCx->CR2 |= CR2_RSTCAL_Set;
 360              		.loc 1 384 0
 361 0104 8368     		ldr	r3, [r0, #8]
 362 0106 43F00803 		orr	r3, r3, #8
 363 010a 8360     		str	r3, [r0, #8]
 385:../../source/src/FWlib/src/stm32f10x_adc.c **** }
 364              		.loc 1 385 0
 365 010c 7047     		bx	lr
 366              		.cfi_endproc
 367              	.LFE35:
 368              		.size	ADC_ResetCalibration, .-ADC_ResetCalibration
 369              		.align	1
 370 010e 00BF     		.p2align 2,,3
 371              		.global	ADC_GetResetCalibrationStatus
 372              		.syntax unified
 373              		.thumb
 374              		.thumb_func
 375              		.fpu softvfp
 376              		.type	ADC_GetResetCalibrationStatus, %function
 377              	ADC_GetResetCalibrationStatus:
 378              	.LFB36:
 386:../../source/src/FWlib/src/stm32f10x_adc.c **** 
 387:../../source/src/FWlib/src/stm32f10x_adc.c **** /**
 388:../../source/src/FWlib/src/stm32f10x_adc.c ****   * @brief  Gets the selected ADC reset calibration registers status.
 389:../../source/src/FWlib/src/stm32f10x_adc.c ****   * @param  ADCx: where x can be 1, 2 or 3 to select the ADC peripheral.
 390:../../source/src/FWlib/src/stm32f10x_adc.c ****   * @retval The new state of ADC reset calibration registers (SET or RESET).
 391:../../source/src/FWlib/src/stm32f10x_adc.c ****   */
 392:../../source/src/FWlib/src/stm32f10x_adc.c **** FlagStatus ADC_GetResetCalibrationStatus(ADC_TypeDef* ADCx)
 393:../../source/src/FWlib/src/stm32f10x_adc.c **** {
 379              		.loc 1 393 0
 380              		.cfi_startproc
 381              		@ args = 0, pretend = 0, frame = 0
 382              		@ frame_needed = 0, uses_anonymous_args = 0
 383              		@ link register save eliminated.
 384              	.LVL28:
ARM GAS  G:\Users\Jaxb\AppData\Local\Temp\ccclxmrG.s 			page 15


 394:../../source/src/FWlib/src/stm32f10x_adc.c ****   FlagStatus bitstatus = RESET;
 395:../../source/src/FWlib/src/stm32f10x_adc.c ****   /* Check the parameters */
 396:../../source/src/FWlib/src/stm32f10x_adc.c ****   assert_param(IS_ADC_ALL_PERIPH(ADCx));
 397:../../source/src/FWlib/src/stm32f10x_adc.c ****   /* Check the status of RSTCAL bit */
 398:../../source/src/FWlib/src/stm32f10x_adc.c ****   if ((ADCx->CR2 & CR2_RSTCAL_Set) != (uint32_t)RESET)
 385              		.loc 1 398 0
 386 0110 8068     		ldr	r0, [r0, #8]
 387              	.LVL29:
 399:../../source/src/FWlib/src/stm32f10x_adc.c ****   {
 400:../../source/src/FWlib/src/stm32f10x_adc.c ****     /* RSTCAL bit is set */
 401:../../source/src/FWlib/src/stm32f10x_adc.c ****     bitstatus = SET;
 402:../../source/src/FWlib/src/stm32f10x_adc.c ****   }
 403:../../source/src/FWlib/src/stm32f10x_adc.c ****   else
 404:../../source/src/FWlib/src/stm32f10x_adc.c ****   {
 405:../../source/src/FWlib/src/stm32f10x_adc.c ****     /* RSTCAL bit is reset */
 406:../../source/src/FWlib/src/stm32f10x_adc.c ****     bitstatus = RESET;
 407:../../source/src/FWlib/src/stm32f10x_adc.c ****   }
 408:../../source/src/FWlib/src/stm32f10x_adc.c ****   /* Return the RSTCAL bit status */
 409:../../source/src/FWlib/src/stm32f10x_adc.c ****   return  bitstatus;
 410:../../source/src/FWlib/src/stm32f10x_adc.c **** }
 388              		.loc 1 410 0
 389 0112 C0F3C000 		ubfx	r0, r0, #3, #1
 390              	.LVL30:
 391 0116 7047     		bx	lr
 392              		.cfi_endproc
 393              	.LFE36:
 394              		.size	ADC_GetResetCalibrationStatus, .-ADC_GetResetCalibrationStatus
 395              		.align	1
 396              		.p2align 2,,3
 397              		.global	ADC_StartCalibration
 398              		.syntax unified
 399              		.thumb
 400              		.thumb_func
 401              		.fpu softvfp
 402              		.type	ADC_StartCalibration, %function
 403              	ADC_StartCalibration:
 404              	.LFB37:
 411:../../source/src/FWlib/src/stm32f10x_adc.c **** 
 412:../../source/src/FWlib/src/stm32f10x_adc.c **** /**
 413:../../source/src/FWlib/src/stm32f10x_adc.c ****   * @brief  Starts the selected ADC calibration process.
 414:../../source/src/FWlib/src/stm32f10x_adc.c ****   * @param  ADCx: where x can be 1, 2 or 3 to select the ADC peripheral.
 415:../../source/src/FWlib/src/stm32f10x_adc.c ****   * @retval None
 416:../../source/src/FWlib/src/stm32f10x_adc.c ****   */
 417:../../source/src/FWlib/src/stm32f10x_adc.c **** void ADC_StartCalibration(ADC_TypeDef* ADCx)
 418:../../source/src/FWlib/src/stm32f10x_adc.c **** {
 405              		.loc 1 418 0
 406              		.cfi_startproc
 407              		@ args = 0, pretend = 0, frame = 0
 408              		@ frame_needed = 0, uses_anonymous_args = 0
 409              		@ link register save eliminated.
 410              	.LVL31:
 419:../../source/src/FWlib/src/stm32f10x_adc.c ****   /* Check the parameters */
 420:../../source/src/FWlib/src/stm32f10x_adc.c ****   assert_param(IS_ADC_ALL_PERIPH(ADCx));
 421:../../source/src/FWlib/src/stm32f10x_adc.c ****   /* Enable the selected ADC calibration process */  
 422:../../source/src/FWlib/src/stm32f10x_adc.c ****   ADCx->CR2 |= CR2_CAL_Set;
 411              		.loc 1 422 0
 412 0118 8368     		ldr	r3, [r0, #8]
ARM GAS  G:\Users\Jaxb\AppData\Local\Temp\ccclxmrG.s 			page 16


 413 011a 43F00403 		orr	r3, r3, #4
 414 011e 8360     		str	r3, [r0, #8]
 423:../../source/src/FWlib/src/stm32f10x_adc.c **** }
 415              		.loc 1 423 0
 416 0120 7047     		bx	lr
 417              		.cfi_endproc
 418              	.LFE37:
 419              		.size	ADC_StartCalibration, .-ADC_StartCalibration
 420              		.align	1
 421 0122 00BF     		.p2align 2,,3
 422              		.global	ADC_GetCalibrationStatus
 423              		.syntax unified
 424              		.thumb
 425              		.thumb_func
 426              		.fpu softvfp
 427              		.type	ADC_GetCalibrationStatus, %function
 428              	ADC_GetCalibrationStatus:
 429              	.LFB38:
 424:../../source/src/FWlib/src/stm32f10x_adc.c **** 
 425:../../source/src/FWlib/src/stm32f10x_adc.c **** /**
 426:../../source/src/FWlib/src/stm32f10x_adc.c ****   * @brief  Gets the selected ADC calibration status.
 427:../../source/src/FWlib/src/stm32f10x_adc.c ****   * @param  ADCx: where x can be 1, 2 or 3 to select the ADC peripheral.
 428:../../source/src/FWlib/src/stm32f10x_adc.c ****   * @retval The new state of ADC calibration (SET or RESET).
 429:../../source/src/FWlib/src/stm32f10x_adc.c ****   */
 430:../../source/src/FWlib/src/stm32f10x_adc.c **** FlagStatus ADC_GetCalibrationStatus(ADC_TypeDef* ADCx)
 431:../../source/src/FWlib/src/stm32f10x_adc.c **** {
 430              		.loc 1 431 0
 431              		.cfi_startproc
 432              		@ args = 0, pretend = 0, frame = 0
 433              		@ frame_needed = 0, uses_anonymous_args = 0
 434              		@ link register save eliminated.
 435              	.LVL32:
 432:../../source/src/FWlib/src/stm32f10x_adc.c ****   FlagStatus bitstatus = RESET;
 433:../../source/src/FWlib/src/stm32f10x_adc.c ****   /* Check the parameters */
 434:../../source/src/FWlib/src/stm32f10x_adc.c ****   assert_param(IS_ADC_ALL_PERIPH(ADCx));
 435:../../source/src/FWlib/src/stm32f10x_adc.c ****   /* Check the status of CAL bit */
 436:../../source/src/FWlib/src/stm32f10x_adc.c ****   if ((ADCx->CR2 & CR2_CAL_Set) != (uint32_t)RESET)
 436              		.loc 1 436 0
 437 0124 8068     		ldr	r0, [r0, #8]
 438              	.LVL33:
 437:../../source/src/FWlib/src/stm32f10x_adc.c ****   {
 438:../../source/src/FWlib/src/stm32f10x_adc.c ****     /* CAL bit is set: calibration on going */
 439:../../source/src/FWlib/src/stm32f10x_adc.c ****     bitstatus = SET;
 440:../../source/src/FWlib/src/stm32f10x_adc.c ****   }
 441:../../source/src/FWlib/src/stm32f10x_adc.c ****   else
 442:../../source/src/FWlib/src/stm32f10x_adc.c ****   {
 443:../../source/src/FWlib/src/stm32f10x_adc.c ****     /* CAL bit is reset: end of calibration */
 444:../../source/src/FWlib/src/stm32f10x_adc.c ****     bitstatus = RESET;
 445:../../source/src/FWlib/src/stm32f10x_adc.c ****   }
 446:../../source/src/FWlib/src/stm32f10x_adc.c ****   /* Return the CAL bit status */
 447:../../source/src/FWlib/src/stm32f10x_adc.c ****   return  bitstatus;
 448:../../source/src/FWlib/src/stm32f10x_adc.c **** }
 439              		.loc 1 448 0
 440 0126 C0F38000 		ubfx	r0, r0, #2, #1
 441              	.LVL34:
 442 012a 7047     		bx	lr
 443              		.cfi_endproc
ARM GAS  G:\Users\Jaxb\AppData\Local\Temp\ccclxmrG.s 			page 17


 444              	.LFE38:
 445              		.size	ADC_GetCalibrationStatus, .-ADC_GetCalibrationStatus
 446              		.align	1
 447              		.p2align 2,,3
 448              		.global	ADC_SoftwareStartConvCmd
 449              		.syntax unified
 450              		.thumb
 451              		.thumb_func
 452              		.fpu softvfp
 453              		.type	ADC_SoftwareStartConvCmd, %function
 454              	ADC_SoftwareStartConvCmd:
 455              	.LFB39:
 449:../../source/src/FWlib/src/stm32f10x_adc.c **** 
 450:../../source/src/FWlib/src/stm32f10x_adc.c **** /**
 451:../../source/src/FWlib/src/stm32f10x_adc.c ****   * @brief  Enables or disables the selected ADC software start conversion .
 452:../../source/src/FWlib/src/stm32f10x_adc.c ****   * @param  ADCx: where x can be 1, 2 or 3 to select the ADC peripheral.
 453:../../source/src/FWlib/src/stm32f10x_adc.c ****   * @param  NewState: new state of the selected ADC software start conversion.
 454:../../source/src/FWlib/src/stm32f10x_adc.c ****   *   This parameter can be: ENABLE or DISABLE.
 455:../../source/src/FWlib/src/stm32f10x_adc.c ****   * @retval None
 456:../../source/src/FWlib/src/stm32f10x_adc.c ****   */
 457:../../source/src/FWlib/src/stm32f10x_adc.c **** void ADC_SoftwareStartConvCmd(ADC_TypeDef* ADCx, FunctionalState NewState)
 458:../../source/src/FWlib/src/stm32f10x_adc.c **** {
 456              		.loc 1 458 0
 457              		.cfi_startproc
 458              		@ args = 0, pretend = 0, frame = 0
 459              		@ frame_needed = 0, uses_anonymous_args = 0
 460              		@ link register save eliminated.
 461              	.LVL35:
 459:../../source/src/FWlib/src/stm32f10x_adc.c ****   /* Check the parameters */
 460:../../source/src/FWlib/src/stm32f10x_adc.c ****   assert_param(IS_ADC_ALL_PERIPH(ADCx));
 461:../../source/src/FWlib/src/stm32f10x_adc.c ****   assert_param(IS_FUNCTIONAL_STATE(NewState));
 462:../../source/src/FWlib/src/stm32f10x_adc.c ****   if (NewState != DISABLE)
 463:../../source/src/FWlib/src/stm32f10x_adc.c ****   {
 464:../../source/src/FWlib/src/stm32f10x_adc.c ****     /* Enable the selected ADC conversion on external event and start the selected
 465:../../source/src/FWlib/src/stm32f10x_adc.c ****        ADC conversion */
 466:../../source/src/FWlib/src/stm32f10x_adc.c ****     ADCx->CR2 |= CR2_EXTTRIG_SWSTART_Set;
 462              		.loc 1 466 0
 463 012c 8368     		ldr	r3, [r0, #8]
 462:../../source/src/FWlib/src/stm32f10x_adc.c ****   {
 464              		.loc 1 462 0
 465 012e 19B9     		cbnz	r1, .L34
 467:../../source/src/FWlib/src/stm32f10x_adc.c ****   }
 468:../../source/src/FWlib/src/stm32f10x_adc.c ****   else
 469:../../source/src/FWlib/src/stm32f10x_adc.c ****   {
 470:../../source/src/FWlib/src/stm32f10x_adc.c ****     /* Disable the selected ADC conversion on external event and stop the selected
 471:../../source/src/FWlib/src/stm32f10x_adc.c ****        ADC conversion */
 472:../../source/src/FWlib/src/stm32f10x_adc.c ****     ADCx->CR2 &= CR2_EXTTRIG_SWSTART_Reset;
 466              		.loc 1 472 0
 467 0130 23F4A003 		bic	r3, r3, #5242880
 468 0134 8360     		str	r3, [r0, #8]
 473:../../source/src/FWlib/src/stm32f10x_adc.c ****   }
 474:../../source/src/FWlib/src/stm32f10x_adc.c **** }
 469              		.loc 1 474 0
 470 0136 7047     		bx	lr
 471              	.L34:
 466:../../source/src/FWlib/src/stm32f10x_adc.c ****   }
 472              		.loc 1 466 0
ARM GAS  G:\Users\Jaxb\AppData\Local\Temp\ccclxmrG.s 			page 18


 473 0138 43F4A003 		orr	r3, r3, #5242880
 474 013c 8360     		str	r3, [r0, #8]
 475 013e 7047     		bx	lr
 476              		.cfi_endproc
 477              	.LFE39:
 478              		.size	ADC_SoftwareStartConvCmd, .-ADC_SoftwareStartConvCmd
 479              		.align	1
 480              		.p2align 2,,3
 481              		.global	ADC_GetSoftwareStartConvStatus
 482              		.syntax unified
 483              		.thumb
 484              		.thumb_func
 485              		.fpu softvfp
 486              		.type	ADC_GetSoftwareStartConvStatus, %function
 487              	ADC_GetSoftwareStartConvStatus:
 488              	.LFB40:
 475:../../source/src/FWlib/src/stm32f10x_adc.c **** 
 476:../../source/src/FWlib/src/stm32f10x_adc.c **** /**
 477:../../source/src/FWlib/src/stm32f10x_adc.c ****   * @brief  Gets the selected ADC Software start conversion Status.
 478:../../source/src/FWlib/src/stm32f10x_adc.c ****   * @param  ADCx: where x can be 1, 2 or 3 to select the ADC peripheral.
 479:../../source/src/FWlib/src/stm32f10x_adc.c ****   * @retval The new state of ADC software start conversion (SET or RESET).
 480:../../source/src/FWlib/src/stm32f10x_adc.c ****   */
 481:../../source/src/FWlib/src/stm32f10x_adc.c **** FlagStatus ADC_GetSoftwareStartConvStatus(ADC_TypeDef* ADCx)
 482:../../source/src/FWlib/src/stm32f10x_adc.c **** {
 489              		.loc 1 482 0
 490              		.cfi_startproc
 491              		@ args = 0, pretend = 0, frame = 0
 492              		@ frame_needed = 0, uses_anonymous_args = 0
 493              		@ link register save eliminated.
 494              	.LVL36:
 483:../../source/src/FWlib/src/stm32f10x_adc.c ****   FlagStatus bitstatus = RESET;
 484:../../source/src/FWlib/src/stm32f10x_adc.c ****   /* Check the parameters */
 485:../../source/src/FWlib/src/stm32f10x_adc.c ****   assert_param(IS_ADC_ALL_PERIPH(ADCx));
 486:../../source/src/FWlib/src/stm32f10x_adc.c ****   /* Check the status of SWSTART bit */
 487:../../source/src/FWlib/src/stm32f10x_adc.c ****   if ((ADCx->CR2 & CR2_SWSTART_Set) != (uint32_t)RESET)
 495              		.loc 1 487 0
 496 0140 8068     		ldr	r0, [r0, #8]
 497              	.LVL37:
 488:../../source/src/FWlib/src/stm32f10x_adc.c ****   {
 489:../../source/src/FWlib/src/stm32f10x_adc.c ****     /* SWSTART bit is set */
 490:../../source/src/FWlib/src/stm32f10x_adc.c ****     bitstatus = SET;
 491:../../source/src/FWlib/src/stm32f10x_adc.c ****   }
 492:../../source/src/FWlib/src/stm32f10x_adc.c ****   else
 493:../../source/src/FWlib/src/stm32f10x_adc.c ****   {
 494:../../source/src/FWlib/src/stm32f10x_adc.c ****     /* SWSTART bit is reset */
 495:../../source/src/FWlib/src/stm32f10x_adc.c ****     bitstatus = RESET;
 496:../../source/src/FWlib/src/stm32f10x_adc.c ****   }
 497:../../source/src/FWlib/src/stm32f10x_adc.c ****   /* Return the SWSTART bit status */
 498:../../source/src/FWlib/src/stm32f10x_adc.c ****   return  bitstatus;
 499:../../source/src/FWlib/src/stm32f10x_adc.c **** }
 498              		.loc 1 499 0
 499 0142 C0F38050 		ubfx	r0, r0, #22, #1
 500              	.LVL38:
 501 0146 7047     		bx	lr
 502              		.cfi_endproc
 503              	.LFE40:
 504              		.size	ADC_GetSoftwareStartConvStatus, .-ADC_GetSoftwareStartConvStatus
ARM GAS  G:\Users\Jaxb\AppData\Local\Temp\ccclxmrG.s 			page 19


 505              		.align	1
 506              		.p2align 2,,3
 507              		.global	ADC_DiscModeChannelCountConfig
 508              		.syntax unified
 509              		.thumb
 510              		.thumb_func
 511              		.fpu softvfp
 512              		.type	ADC_DiscModeChannelCountConfig, %function
 513              	ADC_DiscModeChannelCountConfig:
 514              	.LFB41:
 500:../../source/src/FWlib/src/stm32f10x_adc.c **** 
 501:../../source/src/FWlib/src/stm32f10x_adc.c **** /**
 502:../../source/src/FWlib/src/stm32f10x_adc.c ****   * @brief  Configures the discontinuous mode for the selected ADC regular
 503:../../source/src/FWlib/src/stm32f10x_adc.c ****   *         group channel.
 504:../../source/src/FWlib/src/stm32f10x_adc.c ****   * @param  ADCx: where x can be 1, 2 or 3 to select the ADC peripheral.
 505:../../source/src/FWlib/src/stm32f10x_adc.c ****   * @param  Number: specifies the discontinuous mode regular channel
 506:../../source/src/FWlib/src/stm32f10x_adc.c ****   *         count value. This number must be between 1 and 8.
 507:../../source/src/FWlib/src/stm32f10x_adc.c ****   * @retval None
 508:../../source/src/FWlib/src/stm32f10x_adc.c ****   */
 509:../../source/src/FWlib/src/stm32f10x_adc.c **** void ADC_DiscModeChannelCountConfig(ADC_TypeDef* ADCx, uint8_t Number)
 510:../../source/src/FWlib/src/stm32f10x_adc.c **** {
 515              		.loc 1 510 0
 516              		.cfi_startproc
 517              		@ args = 0, pretend = 0, frame = 0
 518              		@ frame_needed = 0, uses_anonymous_args = 0
 519              		@ link register save eliminated.
 520              	.LVL39:
 511:../../source/src/FWlib/src/stm32f10x_adc.c ****   uint32_t tmpreg1 = 0;
 512:../../source/src/FWlib/src/stm32f10x_adc.c ****   uint32_t tmpreg2 = 0;
 513:../../source/src/FWlib/src/stm32f10x_adc.c ****   /* Check the parameters */
 514:../../source/src/FWlib/src/stm32f10x_adc.c ****   assert_param(IS_ADC_ALL_PERIPH(ADCx));
 515:../../source/src/FWlib/src/stm32f10x_adc.c ****   assert_param(IS_ADC_REGULAR_DISC_NUMBER(Number));
 516:../../source/src/FWlib/src/stm32f10x_adc.c ****   /* Get the old register value */
 517:../../source/src/FWlib/src/stm32f10x_adc.c ****   tmpreg1 = ADCx->CR1;
 521              		.loc 1 517 0
 522 0148 4368     		ldr	r3, [r0, #4]
 523              	.LVL40:
 518:../../source/src/FWlib/src/stm32f10x_adc.c ****   /* Clear the old discontinuous mode channel count */
 519:../../source/src/FWlib/src/stm32f10x_adc.c ****   tmpreg1 &= CR1_DISCNUM_Reset;
 520:../../source/src/FWlib/src/stm32f10x_adc.c ****   /* Set the discontinuous mode channel count */
 521:../../source/src/FWlib/src/stm32f10x_adc.c ****   tmpreg2 = Number - 1;
 524              		.loc 1 521 0
 525 014a 0139     		subs	r1, r1, #1
 526              	.LVL41:
 519:../../source/src/FWlib/src/stm32f10x_adc.c ****   /* Set the discontinuous mode channel count */
 527              		.loc 1 519 0
 528 014c 23F46043 		bic	r3, r3, #57344
 529              	.LVL42:
 522:../../source/src/FWlib/src/stm32f10x_adc.c ****   tmpreg1 |= tmpreg2 << 13;
 530              		.loc 1 522 0
 531 0150 43EA4133 		orr	r3, r3, r1, lsl #13
 532              	.LVL43:
 523:../../source/src/FWlib/src/stm32f10x_adc.c ****   /* Store the new register value */
 524:../../source/src/FWlib/src/stm32f10x_adc.c ****   ADCx->CR1 = tmpreg1;
 533              		.loc 1 524 0
 534 0154 4360     		str	r3, [r0, #4]
 525:../../source/src/FWlib/src/stm32f10x_adc.c **** }
ARM GAS  G:\Users\Jaxb\AppData\Local\Temp\ccclxmrG.s 			page 20


 535              		.loc 1 525 0
 536 0156 7047     		bx	lr
 537              		.cfi_endproc
 538              	.LFE41:
 539              		.size	ADC_DiscModeChannelCountConfig, .-ADC_DiscModeChannelCountConfig
 540              		.align	1
 541              		.p2align 2,,3
 542              		.global	ADC_DiscModeCmd
 543              		.syntax unified
 544              		.thumb
 545              		.thumb_func
 546              		.fpu softvfp
 547              		.type	ADC_DiscModeCmd, %function
 548              	ADC_DiscModeCmd:
 549              	.LFB42:
 526:../../source/src/FWlib/src/stm32f10x_adc.c **** 
 527:../../source/src/FWlib/src/stm32f10x_adc.c **** /**
 528:../../source/src/FWlib/src/stm32f10x_adc.c ****   * @brief  Enables or disables the discontinuous mode on regular group
 529:../../source/src/FWlib/src/stm32f10x_adc.c ****   *         channel for the specified ADC
 530:../../source/src/FWlib/src/stm32f10x_adc.c ****   * @param  ADCx: where x can be 1, 2 or 3 to select the ADC peripheral.
 531:../../source/src/FWlib/src/stm32f10x_adc.c ****   * @param  NewState: new state of the selected ADC discontinuous mode
 532:../../source/src/FWlib/src/stm32f10x_adc.c ****   *         on regular group channel.
 533:../../source/src/FWlib/src/stm32f10x_adc.c ****   *         This parameter can be: ENABLE or DISABLE.
 534:../../source/src/FWlib/src/stm32f10x_adc.c ****   * @retval None
 535:../../source/src/FWlib/src/stm32f10x_adc.c ****   */
 536:../../source/src/FWlib/src/stm32f10x_adc.c **** void ADC_DiscModeCmd(ADC_TypeDef* ADCx, FunctionalState NewState)
 537:../../source/src/FWlib/src/stm32f10x_adc.c **** {
 550              		.loc 1 537 0
 551              		.cfi_startproc
 552              		@ args = 0, pretend = 0, frame = 0
 553              		@ frame_needed = 0, uses_anonymous_args = 0
 554              		@ link register save eliminated.
 555              	.LVL44:
 538:../../source/src/FWlib/src/stm32f10x_adc.c ****   /* Check the parameters */
 539:../../source/src/FWlib/src/stm32f10x_adc.c ****   assert_param(IS_ADC_ALL_PERIPH(ADCx));
 540:../../source/src/FWlib/src/stm32f10x_adc.c ****   assert_param(IS_FUNCTIONAL_STATE(NewState));
 541:../../source/src/FWlib/src/stm32f10x_adc.c ****   if (NewState != DISABLE)
 542:../../source/src/FWlib/src/stm32f10x_adc.c ****   {
 543:../../source/src/FWlib/src/stm32f10x_adc.c ****     /* Enable the selected ADC regular discontinuous mode */
 544:../../source/src/FWlib/src/stm32f10x_adc.c ****     ADCx->CR1 |= CR1_DISCEN_Set;
 556              		.loc 1 544 0
 557 0158 4368     		ldr	r3, [r0, #4]
 541:../../source/src/FWlib/src/stm32f10x_adc.c ****   {
 558              		.loc 1 541 0
 559 015a 19B9     		cbnz	r1, .L40
 545:../../source/src/FWlib/src/stm32f10x_adc.c ****   }
 546:../../source/src/FWlib/src/stm32f10x_adc.c ****   else
 547:../../source/src/FWlib/src/stm32f10x_adc.c ****   {
 548:../../source/src/FWlib/src/stm32f10x_adc.c ****     /* Disable the selected ADC regular discontinuous mode */
 549:../../source/src/FWlib/src/stm32f10x_adc.c ****     ADCx->CR1 &= CR1_DISCEN_Reset;
 560              		.loc 1 549 0
 561 015c 23F40063 		bic	r3, r3, #2048
 562 0160 4360     		str	r3, [r0, #4]
 550:../../source/src/FWlib/src/stm32f10x_adc.c ****   }
 551:../../source/src/FWlib/src/stm32f10x_adc.c **** }
 563              		.loc 1 551 0
 564 0162 7047     		bx	lr
ARM GAS  G:\Users\Jaxb\AppData\Local\Temp\ccclxmrG.s 			page 21


 565              	.L40:
 544:../../source/src/FWlib/src/stm32f10x_adc.c ****   }
 566              		.loc 1 544 0
 567 0164 43F40063 		orr	r3, r3, #2048
 568 0168 4360     		str	r3, [r0, #4]
 569 016a 7047     		bx	lr
 570              		.cfi_endproc
 571              	.LFE42:
 572              		.size	ADC_DiscModeCmd, .-ADC_DiscModeCmd
 573              		.align	1
 574              		.p2align 2,,3
 575              		.global	ADC_RegularChannelConfig
 576              		.syntax unified
 577              		.thumb
 578              		.thumb_func
 579              		.fpu softvfp
 580              		.type	ADC_RegularChannelConfig, %function
 581              	ADC_RegularChannelConfig:
 582              	.LFB43:
 552:../../source/src/FWlib/src/stm32f10x_adc.c **** 
 553:../../source/src/FWlib/src/stm32f10x_adc.c **** /**
 554:../../source/src/FWlib/src/stm32f10x_adc.c ****   * @brief  Configures for the selected ADC regular channel its corresponding
 555:../../source/src/FWlib/src/stm32f10x_adc.c ****   *         rank in the sequencer and its sample time.
 556:../../source/src/FWlib/src/stm32f10x_adc.c ****   * @param  ADCx: where x can be 1, 2 or 3 to select the ADC peripheral.
 557:../../source/src/FWlib/src/stm32f10x_adc.c ****   * @param  ADC_Channel: the ADC channel to configure. 
 558:../../source/src/FWlib/src/stm32f10x_adc.c ****   *   This parameter can be one of the following values:
 559:../../source/src/FWlib/src/stm32f10x_adc.c ****   *     @arg ADC_Channel_0: ADC Channel0 selected
 560:../../source/src/FWlib/src/stm32f10x_adc.c ****   *     @arg ADC_Channel_1: ADC Channel1 selected
 561:../../source/src/FWlib/src/stm32f10x_adc.c ****   *     @arg ADC_Channel_2: ADC Channel2 selected
 562:../../source/src/FWlib/src/stm32f10x_adc.c ****   *     @arg ADC_Channel_3: ADC Channel3 selected
 563:../../source/src/FWlib/src/stm32f10x_adc.c ****   *     @arg ADC_Channel_4: ADC Channel4 selected
 564:../../source/src/FWlib/src/stm32f10x_adc.c ****   *     @arg ADC_Channel_5: ADC Channel5 selected
 565:../../source/src/FWlib/src/stm32f10x_adc.c ****   *     @arg ADC_Channel_6: ADC Channel6 selected
 566:../../source/src/FWlib/src/stm32f10x_adc.c ****   *     @arg ADC_Channel_7: ADC Channel7 selected
 567:../../source/src/FWlib/src/stm32f10x_adc.c ****   *     @arg ADC_Channel_8: ADC Channel8 selected
 568:../../source/src/FWlib/src/stm32f10x_adc.c ****   *     @arg ADC_Channel_9: ADC Channel9 selected
 569:../../source/src/FWlib/src/stm32f10x_adc.c ****   *     @arg ADC_Channel_10: ADC Channel10 selected
 570:../../source/src/FWlib/src/stm32f10x_adc.c ****   *     @arg ADC_Channel_11: ADC Channel11 selected
 571:../../source/src/FWlib/src/stm32f10x_adc.c ****   *     @arg ADC_Channel_12: ADC Channel12 selected
 572:../../source/src/FWlib/src/stm32f10x_adc.c ****   *     @arg ADC_Channel_13: ADC Channel13 selected
 573:../../source/src/FWlib/src/stm32f10x_adc.c ****   *     @arg ADC_Channel_14: ADC Channel14 selected
 574:../../source/src/FWlib/src/stm32f10x_adc.c ****   *     @arg ADC_Channel_15: ADC Channel15 selected
 575:../../source/src/FWlib/src/stm32f10x_adc.c ****   *     @arg ADC_Channel_16: ADC Channel16 selected
 576:../../source/src/FWlib/src/stm32f10x_adc.c ****   *     @arg ADC_Channel_17: ADC Channel17 selected
 577:../../source/src/FWlib/src/stm32f10x_adc.c ****   * @param  Rank: The rank in the regular group sequencer. This parameter must be between 1 to 16.
 578:../../source/src/FWlib/src/stm32f10x_adc.c ****   * @param  ADC_SampleTime: The sample time value to be set for the selected channel. 
 579:../../source/src/FWlib/src/stm32f10x_adc.c ****   *   This parameter can be one of the following values:
 580:../../source/src/FWlib/src/stm32f10x_adc.c ****   *     @arg ADC_SampleTime_1Cycles5: Sample time equal to 1.5 cycles
 581:../../source/src/FWlib/src/stm32f10x_adc.c ****   *     @arg ADC_SampleTime_7Cycles5: Sample time equal to 7.5 cycles
 582:../../source/src/FWlib/src/stm32f10x_adc.c ****   *     @arg ADC_SampleTime_13Cycles5: Sample time equal to 13.5 cycles
 583:../../source/src/FWlib/src/stm32f10x_adc.c ****   *     @arg ADC_SampleTime_28Cycles5: Sample time equal to 28.5 cycles	
 584:../../source/src/FWlib/src/stm32f10x_adc.c ****   *     @arg ADC_SampleTime_41Cycles5: Sample time equal to 41.5 cycles	
 585:../../source/src/FWlib/src/stm32f10x_adc.c ****   *     @arg ADC_SampleTime_55Cycles5: Sample time equal to 55.5 cycles	
 586:../../source/src/FWlib/src/stm32f10x_adc.c ****   *     @arg ADC_SampleTime_71Cycles5: Sample time equal to 71.5 cycles	
 587:../../source/src/FWlib/src/stm32f10x_adc.c ****   *     @arg ADC_SampleTime_239Cycles5: Sample time equal to 239.5 cycles	
 588:../../source/src/FWlib/src/stm32f10x_adc.c ****   * @retval None
 589:../../source/src/FWlib/src/stm32f10x_adc.c ****   */
ARM GAS  G:\Users\Jaxb\AppData\Local\Temp\ccclxmrG.s 			page 22


 590:../../source/src/FWlib/src/stm32f10x_adc.c **** void ADC_RegularChannelConfig(ADC_TypeDef* ADCx, uint8_t ADC_Channel, uint8_t Rank, uint8_t ADC_Sam
 591:../../source/src/FWlib/src/stm32f10x_adc.c **** {
 583              		.loc 1 591 0
 584              		.cfi_startproc
 585              		@ args = 0, pretend = 0, frame = 0
 586              		@ frame_needed = 0, uses_anonymous_args = 0
 587              		@ link register save eliminated.
 588              	.LVL45:
 592:../../source/src/FWlib/src/stm32f10x_adc.c ****   uint32_t tmpreg1 = 0, tmpreg2 = 0;
 593:../../source/src/FWlib/src/stm32f10x_adc.c ****   /* Check the parameters */
 594:../../source/src/FWlib/src/stm32f10x_adc.c ****   assert_param(IS_ADC_ALL_PERIPH(ADCx));
 595:../../source/src/FWlib/src/stm32f10x_adc.c ****   assert_param(IS_ADC_CHANNEL(ADC_Channel));
 596:../../source/src/FWlib/src/stm32f10x_adc.c ****   assert_param(IS_ADC_REGULAR_RANK(Rank));
 597:../../source/src/FWlib/src/stm32f10x_adc.c ****   assert_param(IS_ADC_SAMPLE_TIME(ADC_SampleTime));
 598:../../source/src/FWlib/src/stm32f10x_adc.c ****   /* if ADC_Channel_10 ... ADC_Channel_17 is selected */
 599:../../source/src/FWlib/src/stm32f10x_adc.c ****   if (ADC_Channel > ADC_Channel_9)
 589              		.loc 1 599 0
 590 016c 0929     		cmp	r1, #9
 591:../../source/src/FWlib/src/stm32f10x_adc.c ****   uint32_t tmpreg1 = 0, tmpreg2 = 0;
 591              		.loc 1 591 0
 592 016e 70B4     		push	{r4, r5, r6}
 593              	.LCFI8:
 594              		.cfi_def_cfa_offset 12
 595              		.cfi_offset 4, -12
 596              		.cfi_offset 5, -8
 597              		.cfi_offset 6, -4
 598              		.loc 1 599 0
 599 0170 1DD9     		bls	.L42
 600:../../source/src/FWlib/src/stm32f10x_adc.c ****   {
 601:../../source/src/FWlib/src/stm32f10x_adc.c ****     /* Get the old register value */
 602:../../source/src/FWlib/src/stm32f10x_adc.c ****     tmpreg1 = ADCx->SMPR1;
 603:../../source/src/FWlib/src/stm32f10x_adc.c ****     /* Calculate the mask to clear */
 604:../../source/src/FWlib/src/stm32f10x_adc.c ****     tmpreg2 = SMPR1_SMP_Set << (3 * (ADC_Channel - 10));
 600              		.loc 1 604 0
 601 0172 0726     		movs	r6, #7
 602 0174 A1F10A04 		sub	r4, r1, #10
 603 0178 04EB4404 		add	r4, r4, r4, lsl #1
 602:../../source/src/FWlib/src/stm32f10x_adc.c ****     /* Calculate the mask to clear */
 604              		.loc 1 602 0
 605 017c C568     		ldr	r5, [r0, #12]
 606              	.LVL46:
 607              		.loc 1 604 0
 608 017e A640     		lsls	r6, r6, r4
 609              	.LVL47:
 605:../../source/src/FWlib/src/stm32f10x_adc.c ****     /* Clear the old channel sample time */
 606:../../source/src/FWlib/src/stm32f10x_adc.c ****     tmpreg1 &= ~tmpreg2;
 607:../../source/src/FWlib/src/stm32f10x_adc.c ****     /* Calculate the mask to set */
 608:../../source/src/FWlib/src/stm32f10x_adc.c ****     tmpreg2 = (uint32_t)ADC_SampleTime << (3 * (ADC_Channel - 10));
 610              		.loc 1 608 0
 611 0180 A340     		lsls	r3, r3, r4
 612              	.LVL48:
 606:../../source/src/FWlib/src/stm32f10x_adc.c ****     /* Calculate the mask to set */
 613              		.loc 1 606 0
 614 0182 25EA0604 		bic	r4, r5, r6
 615              	.LVL49:
 609:../../source/src/FWlib/src/stm32f10x_adc.c ****     /* Set the new channel sample time */
 610:../../source/src/FWlib/src/stm32f10x_adc.c ****     tmpreg1 |= tmpreg2;
ARM GAS  G:\Users\Jaxb\AppData\Local\Temp\ccclxmrG.s 			page 23


 616              		.loc 1 610 0
 617 0186 2343     		orrs	r3, r3, r4
 618              	.LVL50:
 611:../../source/src/FWlib/src/stm32f10x_adc.c ****     /* Store the new register value */
 612:../../source/src/FWlib/src/stm32f10x_adc.c ****     ADCx->SMPR1 = tmpreg1;
 613:../../source/src/FWlib/src/stm32f10x_adc.c ****   }
 614:../../source/src/FWlib/src/stm32f10x_adc.c ****   else /* ADC_Channel include in ADC_Channel_[0..9] */
 615:../../source/src/FWlib/src/stm32f10x_adc.c ****   {
 616:../../source/src/FWlib/src/stm32f10x_adc.c ****     /* Get the old register value */
 617:../../source/src/FWlib/src/stm32f10x_adc.c ****     tmpreg1 = ADCx->SMPR2;
 618:../../source/src/FWlib/src/stm32f10x_adc.c ****     /* Calculate the mask to clear */
 619:../../source/src/FWlib/src/stm32f10x_adc.c ****     tmpreg2 = SMPR2_SMP_Set << (3 * ADC_Channel);
 620:../../source/src/FWlib/src/stm32f10x_adc.c ****     /* Clear the old channel sample time */
 621:../../source/src/FWlib/src/stm32f10x_adc.c ****     tmpreg1 &= ~tmpreg2;
 622:../../source/src/FWlib/src/stm32f10x_adc.c ****     /* Calculate the mask to set */
 623:../../source/src/FWlib/src/stm32f10x_adc.c ****     tmpreg2 = (uint32_t)ADC_SampleTime << (3 * ADC_Channel);
 624:../../source/src/FWlib/src/stm32f10x_adc.c ****     /* Set the new channel sample time */
 625:../../source/src/FWlib/src/stm32f10x_adc.c ****     tmpreg1 |= tmpreg2;
 626:../../source/src/FWlib/src/stm32f10x_adc.c ****     /* Store the new register value */
 627:../../source/src/FWlib/src/stm32f10x_adc.c ****     ADCx->SMPR2 = tmpreg1;
 628:../../source/src/FWlib/src/stm32f10x_adc.c ****   }
 629:../../source/src/FWlib/src/stm32f10x_adc.c ****   /* For Rank 1 to 6 */
 630:../../source/src/FWlib/src/stm32f10x_adc.c ****   if (Rank < 7)
 619              		.loc 1 630 0
 620 0188 062A     		cmp	r2, #6
 612:../../source/src/FWlib/src/stm32f10x_adc.c ****   }
 621              		.loc 1 612 0
 622 018a C360     		str	r3, [r0, #12]
 631:../../source/src/FWlib/src/stm32f10x_adc.c ****   {
 632:../../source/src/FWlib/src/stm32f10x_adc.c ****     /* Get the old register value */
 633:../../source/src/FWlib/src/stm32f10x_adc.c ****     tmpreg1 = ADCx->SQR3;
 634:../../source/src/FWlib/src/stm32f10x_adc.c ****     /* Calculate the mask to clear */
 635:../../source/src/FWlib/src/stm32f10x_adc.c ****     tmpreg2 = SQR3_SQ_Set << (5 * (Rank - 1));
 623              		.loc 1 635 0
 624 018c 4FF01F04 		mov	r4, #31
 630:../../source/src/FWlib/src/stm32f10x_adc.c ****   {
 625              		.loc 1 630 0
 626 0190 1BD9     		bls	.L47
 627              	.L44:
 636:../../source/src/FWlib/src/stm32f10x_adc.c ****     /* Clear the old SQx bits for the selected rank */
 637:../../source/src/FWlib/src/stm32f10x_adc.c ****     tmpreg1 &= ~tmpreg2;
 638:../../source/src/FWlib/src/stm32f10x_adc.c ****     /* Calculate the mask to set */
 639:../../source/src/FWlib/src/stm32f10x_adc.c ****     tmpreg2 = (uint32_t)ADC_Channel << (5 * (Rank - 1));
 640:../../source/src/FWlib/src/stm32f10x_adc.c ****     /* Set the SQx bits for the selected rank */
 641:../../source/src/FWlib/src/stm32f10x_adc.c ****     tmpreg1 |= tmpreg2;
 642:../../source/src/FWlib/src/stm32f10x_adc.c ****     /* Store the new register value */
 643:../../source/src/FWlib/src/stm32f10x_adc.c ****     ADCx->SQR3 = tmpreg1;
 644:../../source/src/FWlib/src/stm32f10x_adc.c ****   }
 645:../../source/src/FWlib/src/stm32f10x_adc.c ****   /* For Rank 7 to 12 */
 646:../../source/src/FWlib/src/stm32f10x_adc.c ****   else if (Rank < 13)
 628              		.loc 1 646 0
 629 0192 0C2A     		cmp	r2, #12
 630 0194 25D9     		bls	.L48
 647:../../source/src/FWlib/src/stm32f10x_adc.c ****   {
 648:../../source/src/FWlib/src/stm32f10x_adc.c ****     /* Get the old register value */
 649:../../source/src/FWlib/src/stm32f10x_adc.c ****     tmpreg1 = ADCx->SQR2;
 650:../../source/src/FWlib/src/stm32f10x_adc.c ****     /* Calculate the mask to clear */
ARM GAS  G:\Users\Jaxb\AppData\Local\Temp\ccclxmrG.s 			page 24


 651:../../source/src/FWlib/src/stm32f10x_adc.c ****     tmpreg2 = SQR2_SQ_Set << (5 * (Rank - 7));
 652:../../source/src/FWlib/src/stm32f10x_adc.c ****     /* Clear the old SQx bits for the selected rank */
 653:../../source/src/FWlib/src/stm32f10x_adc.c ****     tmpreg1 &= ~tmpreg2;
 654:../../source/src/FWlib/src/stm32f10x_adc.c ****     /* Calculate the mask to set */
 655:../../source/src/FWlib/src/stm32f10x_adc.c ****     tmpreg2 = (uint32_t)ADC_Channel << (5 * (Rank - 7));
 656:../../source/src/FWlib/src/stm32f10x_adc.c ****     /* Set the SQx bits for the selected rank */
 657:../../source/src/FWlib/src/stm32f10x_adc.c ****     tmpreg1 |= tmpreg2;
 658:../../source/src/FWlib/src/stm32f10x_adc.c ****     /* Store the new register value */
 659:../../source/src/FWlib/src/stm32f10x_adc.c ****     ADCx->SQR2 = tmpreg1;
 660:../../source/src/FWlib/src/stm32f10x_adc.c ****   }
 661:../../source/src/FWlib/src/stm32f10x_adc.c ****   /* For Rank 13 to 16 */
 662:../../source/src/FWlib/src/stm32f10x_adc.c ****   else
 663:../../source/src/FWlib/src/stm32f10x_adc.c ****   {
 664:../../source/src/FWlib/src/stm32f10x_adc.c ****     /* Get the old register value */
 665:../../source/src/FWlib/src/stm32f10x_adc.c ****     tmpreg1 = ADCx->SQR1;
 666:../../source/src/FWlib/src/stm32f10x_adc.c ****     /* Calculate the mask to clear */
 667:../../source/src/FWlib/src/stm32f10x_adc.c ****     tmpreg2 = SQR1_SQ_Set << (5 * (Rank - 13));
 631              		.loc 1 667 0
 632 0196 0D3A     		subs	r2, r2, #13
 633              	.LVL51:
 634 0198 02EB8202 		add	r2, r2, r2, lsl #2
 665:../../source/src/FWlib/src/stm32f10x_adc.c ****     /* Calculate the mask to clear */
 635              		.loc 1 665 0
 636 019c C36A     		ldr	r3, [r0, #44]
 637              	.LVL52:
 638              		.loc 1 667 0
 639 019e 9440     		lsls	r4, r4, r2
 668:../../source/src/FWlib/src/stm32f10x_adc.c ****     /* Clear the old SQx bits for the selected rank */
 669:../../source/src/FWlib/src/stm32f10x_adc.c ****     tmpreg1 &= ~tmpreg2;
 670:../../source/src/FWlib/src/stm32f10x_adc.c ****     /* Calculate the mask to set */
 671:../../source/src/FWlib/src/stm32f10x_adc.c ****     tmpreg2 = (uint32_t)ADC_Channel << (5 * (Rank - 13));
 640              		.loc 1 671 0
 641 01a0 9140     		lsls	r1, r1, r2
 642              	.LVL53:
 669:../../source/src/FWlib/src/stm32f10x_adc.c ****     /* Calculate the mask to set */
 643              		.loc 1 669 0
 644 01a2 23EA0402 		bic	r2, r3, r4
 645              	.LVL54:
 672:../../source/src/FWlib/src/stm32f10x_adc.c ****     /* Set the SQx bits for the selected rank */
 673:../../source/src/FWlib/src/stm32f10x_adc.c ****     tmpreg1 |= tmpreg2;
 646              		.loc 1 673 0
 647 01a6 1143     		orrs	r1, r1, r2
 648              	.LVL55:
 674:../../source/src/FWlib/src/stm32f10x_adc.c ****     /* Store the new register value */
 675:../../source/src/FWlib/src/stm32f10x_adc.c ****     ADCx->SQR1 = tmpreg1;
 649              		.loc 1 675 0
 650 01a8 C162     		str	r1, [r0, #44]
 676:../../source/src/FWlib/src/stm32f10x_adc.c ****   }
 677:../../source/src/FWlib/src/stm32f10x_adc.c **** }
 651              		.loc 1 677 0
 652 01aa 70BC     		pop	{r4, r5, r6}
 653              	.LCFI9:
 654              		.cfi_remember_state
 655              		.cfi_restore 6
 656              		.cfi_restore 5
 657              		.cfi_restore 4
 658              		.cfi_def_cfa_offset 0
ARM GAS  G:\Users\Jaxb\AppData\Local\Temp\ccclxmrG.s 			page 25


 659 01ac 7047     		bx	lr
 660              	.LVL56:
 661              	.L42:
 662              	.LCFI10:
 663              		.cfi_restore_state
 619:../../source/src/FWlib/src/stm32f10x_adc.c ****     /* Clear the old channel sample time */
 664              		.loc 1 619 0
 665 01ae 0725     		movs	r5, #7
 666 01b0 01EB4106 		add	r6, r1, r1, lsl #1
 617:../../source/src/FWlib/src/stm32f10x_adc.c ****     /* Calculate the mask to clear */
 667              		.loc 1 617 0
 668 01b4 0469     		ldr	r4, [r0, #16]
 669              	.LVL57:
 619:../../source/src/FWlib/src/stm32f10x_adc.c ****     /* Clear the old channel sample time */
 670              		.loc 1 619 0
 671 01b6 B540     		lsls	r5, r5, r6
 672              	.LVL58:
 621:../../source/src/FWlib/src/stm32f10x_adc.c ****     /* Calculate the mask to set */
 673              		.loc 1 621 0
 674 01b8 24EA0504 		bic	r4, r4, r5
 675              	.LVL59:
 623:../../source/src/FWlib/src/stm32f10x_adc.c ****     /* Set the new channel sample time */
 676              		.loc 1 623 0
 677 01bc B340     		lsls	r3, r3, r6
 678              	.LVL60:
 625:../../source/src/FWlib/src/stm32f10x_adc.c ****     /* Store the new register value */
 679              		.loc 1 625 0
 680 01be 2343     		orrs	r3, r3, r4
 681              	.LVL61:
 630:../../source/src/FWlib/src/stm32f10x_adc.c ****   {
 682              		.loc 1 630 0
 683 01c0 062A     		cmp	r2, #6
 627:../../source/src/FWlib/src/stm32f10x_adc.c ****   }
 684              		.loc 1 627 0
 685 01c2 0361     		str	r3, [r0, #16]
 635:../../source/src/FWlib/src/stm32f10x_adc.c ****     /* Clear the old SQx bits for the selected rank */
 686              		.loc 1 635 0
 687 01c4 4FF01F04 		mov	r4, #31
 630:../../source/src/FWlib/src/stm32f10x_adc.c ****   {
 688              		.loc 1 630 0
 689 01c8 E3D8     		bhi	.L44
 690              	.L47:
 635:../../source/src/FWlib/src/stm32f10x_adc.c ****     /* Clear the old SQx bits for the selected rank */
 691              		.loc 1 635 0
 692 01ca 013A     		subs	r2, r2, #1
 693              	.LVL62:
 694 01cc 02EB8202 		add	r2, r2, r2, lsl #2
 633:../../source/src/FWlib/src/stm32f10x_adc.c ****     /* Calculate the mask to clear */
 695              		.loc 1 633 0
 696 01d0 436B     		ldr	r3, [r0, #52]
 697              	.LVL63:
 635:../../source/src/FWlib/src/stm32f10x_adc.c ****     /* Clear the old SQx bits for the selected rank */
 698              		.loc 1 635 0
 699 01d2 9440     		lsls	r4, r4, r2
 639:../../source/src/FWlib/src/stm32f10x_adc.c ****     /* Set the SQx bits for the selected rank */
 700              		.loc 1 639 0
 701 01d4 9140     		lsls	r1, r1, r2
ARM GAS  G:\Users\Jaxb\AppData\Local\Temp\ccclxmrG.s 			page 26


 702              	.LVL64:
 637:../../source/src/FWlib/src/stm32f10x_adc.c ****     /* Calculate the mask to set */
 703              		.loc 1 637 0
 704 01d6 23EA0402 		bic	r2, r3, r4
 705              	.LVL65:
 641:../../source/src/FWlib/src/stm32f10x_adc.c ****     /* Store the new register value */
 706              		.loc 1 641 0
 707 01da 1143     		orrs	r1, r1, r2
 708              	.LVL66:
 643:../../source/src/FWlib/src/stm32f10x_adc.c ****   }
 709              		.loc 1 643 0
 710 01dc 4163     		str	r1, [r0, #52]
 711              		.loc 1 677 0
 712 01de 70BC     		pop	{r4, r5, r6}
 713              	.LCFI11:
 714              		.cfi_remember_state
 715              		.cfi_restore 6
 716              		.cfi_restore 5
 717              		.cfi_restore 4
 718              		.cfi_def_cfa_offset 0
 719 01e0 7047     		bx	lr
 720              	.LVL67:
 721              	.L48:
 722              	.LCFI12:
 723              		.cfi_restore_state
 651:../../source/src/FWlib/src/stm32f10x_adc.c ****     /* Clear the old SQx bits for the selected rank */
 724              		.loc 1 651 0
 725 01e2 073A     		subs	r2, r2, #7
 726              	.LVL68:
 727 01e4 02EB8202 		add	r2, r2, r2, lsl #2
 649:../../source/src/FWlib/src/stm32f10x_adc.c ****     /* Calculate the mask to clear */
 728              		.loc 1 649 0
 729 01e8 036B     		ldr	r3, [r0, #48]
 730              	.LVL69:
 651:../../source/src/FWlib/src/stm32f10x_adc.c ****     /* Clear the old SQx bits for the selected rank */
 731              		.loc 1 651 0
 732 01ea 9440     		lsls	r4, r4, r2
 655:../../source/src/FWlib/src/stm32f10x_adc.c ****     /* Set the SQx bits for the selected rank */
 733              		.loc 1 655 0
 734 01ec 9140     		lsls	r1, r1, r2
 735              	.LVL70:
 653:../../source/src/FWlib/src/stm32f10x_adc.c ****     /* Calculate the mask to set */
 736              		.loc 1 653 0
 737 01ee 23EA0402 		bic	r2, r3, r4
 738              	.LVL71:
 657:../../source/src/FWlib/src/stm32f10x_adc.c ****     /* Store the new register value */
 739              		.loc 1 657 0
 740 01f2 1143     		orrs	r1, r1, r2
 741              	.LVL72:
 659:../../source/src/FWlib/src/stm32f10x_adc.c ****   }
 742              		.loc 1 659 0
 743 01f4 0163     		str	r1, [r0, #48]
 744              		.loc 1 677 0
 745 01f6 70BC     		pop	{r4, r5, r6}
 746              	.LCFI13:
 747              		.cfi_restore 6
 748              		.cfi_restore 5
ARM GAS  G:\Users\Jaxb\AppData\Local\Temp\ccclxmrG.s 			page 27


 749              		.cfi_restore 4
 750              		.cfi_def_cfa_offset 0
 751 01f8 7047     		bx	lr
 752              		.cfi_endproc
 753              	.LFE43:
 754              		.size	ADC_RegularChannelConfig, .-ADC_RegularChannelConfig
 755              		.align	1
 756 01fa 00BF     		.p2align 2,,3
 757              		.global	ADC_ExternalTrigConvCmd
 758              		.syntax unified
 759              		.thumb
 760              		.thumb_func
 761              		.fpu softvfp
 762              		.type	ADC_ExternalTrigConvCmd, %function
 763              	ADC_ExternalTrigConvCmd:
 764              	.LFB44:
 678:../../source/src/FWlib/src/stm32f10x_adc.c **** 
 679:../../source/src/FWlib/src/stm32f10x_adc.c **** /**
 680:../../source/src/FWlib/src/stm32f10x_adc.c ****   * @brief  Enables or disables the ADCx conversion through external trigger.
 681:../../source/src/FWlib/src/stm32f10x_adc.c ****   * @param  ADCx: where x can be 1, 2 or 3 to select the ADC peripheral.
 682:../../source/src/FWlib/src/stm32f10x_adc.c ****   * @param  NewState: new state of the selected ADC external trigger start of conversion.
 683:../../source/src/FWlib/src/stm32f10x_adc.c ****   *   This parameter can be: ENABLE or DISABLE.
 684:../../source/src/FWlib/src/stm32f10x_adc.c ****   * @retval None
 685:../../source/src/FWlib/src/stm32f10x_adc.c ****   */
 686:../../source/src/FWlib/src/stm32f10x_adc.c **** void ADC_ExternalTrigConvCmd(ADC_TypeDef* ADCx, FunctionalState NewState)
 687:../../source/src/FWlib/src/stm32f10x_adc.c **** {
 765              		.loc 1 687 0
 766              		.cfi_startproc
 767              		@ args = 0, pretend = 0, frame = 0
 768              		@ frame_needed = 0, uses_anonymous_args = 0
 769              		@ link register save eliminated.
 770              	.LVL73:
 688:../../source/src/FWlib/src/stm32f10x_adc.c ****   /* Check the parameters */
 689:../../source/src/FWlib/src/stm32f10x_adc.c ****   assert_param(IS_ADC_ALL_PERIPH(ADCx));
 690:../../source/src/FWlib/src/stm32f10x_adc.c ****   assert_param(IS_FUNCTIONAL_STATE(NewState));
 691:../../source/src/FWlib/src/stm32f10x_adc.c ****   if (NewState != DISABLE)
 692:../../source/src/FWlib/src/stm32f10x_adc.c ****   {
 693:../../source/src/FWlib/src/stm32f10x_adc.c ****     /* Enable the selected ADC conversion on external event */
 694:../../source/src/FWlib/src/stm32f10x_adc.c ****     ADCx->CR2 |= CR2_EXTTRIG_Set;
 771              		.loc 1 694 0
 772 01fc 8368     		ldr	r3, [r0, #8]
 691:../../source/src/FWlib/src/stm32f10x_adc.c ****   {
 773              		.loc 1 691 0
 774 01fe 19B9     		cbnz	r1, .L52
 695:../../source/src/FWlib/src/stm32f10x_adc.c ****   }
 696:../../source/src/FWlib/src/stm32f10x_adc.c ****   else
 697:../../source/src/FWlib/src/stm32f10x_adc.c ****   {
 698:../../source/src/FWlib/src/stm32f10x_adc.c ****     /* Disable the selected ADC conversion on external event */
 699:../../source/src/FWlib/src/stm32f10x_adc.c ****     ADCx->CR2 &= CR2_EXTTRIG_Reset;
 775              		.loc 1 699 0
 776 0200 23F48013 		bic	r3, r3, #1048576
 777 0204 8360     		str	r3, [r0, #8]
 700:../../source/src/FWlib/src/stm32f10x_adc.c ****   }
 701:../../source/src/FWlib/src/stm32f10x_adc.c **** }
 778              		.loc 1 701 0
 779 0206 7047     		bx	lr
 780              	.L52:
ARM GAS  G:\Users\Jaxb\AppData\Local\Temp\ccclxmrG.s 			page 28


 694:../../source/src/FWlib/src/stm32f10x_adc.c ****   }
 781              		.loc 1 694 0
 782 0208 43F48013 		orr	r3, r3, #1048576
 783 020c 8360     		str	r3, [r0, #8]
 784 020e 7047     		bx	lr
 785              		.cfi_endproc
 786              	.LFE44:
 787              		.size	ADC_ExternalTrigConvCmd, .-ADC_ExternalTrigConvCmd
 788              		.align	1
 789              		.p2align 2,,3
 790              		.global	ADC_GetConversionValue
 791              		.syntax unified
 792              		.thumb
 793              		.thumb_func
 794              		.fpu softvfp
 795              		.type	ADC_GetConversionValue, %function
 796              	ADC_GetConversionValue:
 797              	.LFB45:
 702:../../source/src/FWlib/src/stm32f10x_adc.c **** 
 703:../../source/src/FWlib/src/stm32f10x_adc.c **** /**
 704:../../source/src/FWlib/src/stm32f10x_adc.c ****   * @brief  Returns the last ADCx conversion result data for regular channel.
 705:../../source/src/FWlib/src/stm32f10x_adc.c ****   * @param  ADCx: where x can be 1, 2 or 3 to select the ADC peripheral.
 706:../../source/src/FWlib/src/stm32f10x_adc.c ****   * @retval The Data conversion value.
 707:../../source/src/FWlib/src/stm32f10x_adc.c ****   */
 708:../../source/src/FWlib/src/stm32f10x_adc.c **** uint16_t ADC_GetConversionValue(ADC_TypeDef* ADCx)
 709:../../source/src/FWlib/src/stm32f10x_adc.c **** {
 798              		.loc 1 709 0
 799              		.cfi_startproc
 800              		@ args = 0, pretend = 0, frame = 0
 801              		@ frame_needed = 0, uses_anonymous_args = 0
 802              		@ link register save eliminated.
 803              	.LVL74:
 710:../../source/src/FWlib/src/stm32f10x_adc.c ****   /* Check the parameters */
 711:../../source/src/FWlib/src/stm32f10x_adc.c ****   assert_param(IS_ADC_ALL_PERIPH(ADCx));
 712:../../source/src/FWlib/src/stm32f10x_adc.c ****   /* Return the selected ADC conversion value */
 713:../../source/src/FWlib/src/stm32f10x_adc.c ****   return (uint16_t) ADCx->DR;
 804              		.loc 1 713 0
 805 0210 C06C     		ldr	r0, [r0, #76]
 806              	.LVL75:
 714:../../source/src/FWlib/src/stm32f10x_adc.c **** }
 807              		.loc 1 714 0
 808 0212 80B2     		uxth	r0, r0
 809 0214 7047     		bx	lr
 810              		.cfi_endproc
 811              	.LFE45:
 812              		.size	ADC_GetConversionValue, .-ADC_GetConversionValue
 813              		.align	1
 814 0216 00BF     		.p2align 2,,3
 815              		.global	ADC_GetDualModeConversionValue
 816              		.syntax unified
 817              		.thumb
 818              		.thumb_func
 819              		.fpu softvfp
 820              		.type	ADC_GetDualModeConversionValue, %function
 821              	ADC_GetDualModeConversionValue:
 822              	.LFB46:
 715:../../source/src/FWlib/src/stm32f10x_adc.c **** 
ARM GAS  G:\Users\Jaxb\AppData\Local\Temp\ccclxmrG.s 			page 29


 716:../../source/src/FWlib/src/stm32f10x_adc.c **** /**
 717:../../source/src/FWlib/src/stm32f10x_adc.c ****   * @brief  Returns the last ADC1 and ADC2 conversion result data in dual mode.
 718:../../source/src/FWlib/src/stm32f10x_adc.c ****   * @retval The Data conversion value.
 719:../../source/src/FWlib/src/stm32f10x_adc.c ****   */
 720:../../source/src/FWlib/src/stm32f10x_adc.c **** uint32_t ADC_GetDualModeConversionValue(void)
 721:../../source/src/FWlib/src/stm32f10x_adc.c **** {
 823              		.loc 1 721 0
 824              		.cfi_startproc
 825              		@ args = 0, pretend = 0, frame = 0
 826              		@ frame_needed = 0, uses_anonymous_args = 0
 827              		@ link register save eliminated.
 722:../../source/src/FWlib/src/stm32f10x_adc.c ****   /* Return the dual mode conversion value */
 723:../../source/src/FWlib/src/stm32f10x_adc.c ****   return (*(__IO uint32_t *) DR_ADDRESS);
 828              		.loc 1 723 0
 829 0218 014B     		ldr	r3, .L55
 830 021a 1868     		ldr	r0, [r3]
 724:../../source/src/FWlib/src/stm32f10x_adc.c **** }
 831              		.loc 1 724 0
 832 021c 7047     		bx	lr
 833              	.L56:
 834 021e 00BF     		.align	2
 835              	.L55:
 836 0220 4C240140 		.word	1073816652
 837              		.cfi_endproc
 838              	.LFE46:
 839              		.size	ADC_GetDualModeConversionValue, .-ADC_GetDualModeConversionValue
 840              		.align	1
 841              		.p2align 2,,3
 842              		.global	ADC_AutoInjectedConvCmd
 843              		.syntax unified
 844              		.thumb
 845              		.thumb_func
 846              		.fpu softvfp
 847              		.type	ADC_AutoInjectedConvCmd, %function
 848              	ADC_AutoInjectedConvCmd:
 849              	.LFB47:
 725:../../source/src/FWlib/src/stm32f10x_adc.c **** 
 726:../../source/src/FWlib/src/stm32f10x_adc.c **** /**
 727:../../source/src/FWlib/src/stm32f10x_adc.c ****   * @brief  Enables or disables the selected ADC automatic injected group
 728:../../source/src/FWlib/src/stm32f10x_adc.c ****   *         conversion after regular one.
 729:../../source/src/FWlib/src/stm32f10x_adc.c ****   * @param  ADCx: where x can be 1, 2 or 3 to select the ADC peripheral.
 730:../../source/src/FWlib/src/stm32f10x_adc.c ****   * @param  NewState: new state of the selected ADC auto injected conversion
 731:../../source/src/FWlib/src/stm32f10x_adc.c ****   *   This parameter can be: ENABLE or DISABLE.
 732:../../source/src/FWlib/src/stm32f10x_adc.c ****   * @retval None
 733:../../source/src/FWlib/src/stm32f10x_adc.c ****   */
 734:../../source/src/FWlib/src/stm32f10x_adc.c **** void ADC_AutoInjectedConvCmd(ADC_TypeDef* ADCx, FunctionalState NewState)
 735:../../source/src/FWlib/src/stm32f10x_adc.c **** {
 850              		.loc 1 735 0
 851              		.cfi_startproc
 852              		@ args = 0, pretend = 0, frame = 0
 853              		@ frame_needed = 0, uses_anonymous_args = 0
 854              		@ link register save eliminated.
 855              	.LVL76:
 736:../../source/src/FWlib/src/stm32f10x_adc.c ****   /* Check the parameters */
 737:../../source/src/FWlib/src/stm32f10x_adc.c ****   assert_param(IS_ADC_ALL_PERIPH(ADCx));
 738:../../source/src/FWlib/src/stm32f10x_adc.c ****   assert_param(IS_FUNCTIONAL_STATE(NewState));
 739:../../source/src/FWlib/src/stm32f10x_adc.c ****   if (NewState != DISABLE)
ARM GAS  G:\Users\Jaxb\AppData\Local\Temp\ccclxmrG.s 			page 30


 740:../../source/src/FWlib/src/stm32f10x_adc.c ****   {
 741:../../source/src/FWlib/src/stm32f10x_adc.c ****     /* Enable the selected ADC automatic injected group conversion */
 742:../../source/src/FWlib/src/stm32f10x_adc.c ****     ADCx->CR1 |= CR1_JAUTO_Set;
 856              		.loc 1 742 0
 857 0224 4368     		ldr	r3, [r0, #4]
 739:../../source/src/FWlib/src/stm32f10x_adc.c ****   {
 858              		.loc 1 739 0
 859 0226 19B9     		cbnz	r1, .L60
 743:../../source/src/FWlib/src/stm32f10x_adc.c ****   }
 744:../../source/src/FWlib/src/stm32f10x_adc.c ****   else
 745:../../source/src/FWlib/src/stm32f10x_adc.c ****   {
 746:../../source/src/FWlib/src/stm32f10x_adc.c ****     /* Disable the selected ADC automatic injected group conversion */
 747:../../source/src/FWlib/src/stm32f10x_adc.c ****     ADCx->CR1 &= CR1_JAUTO_Reset;
 860              		.loc 1 747 0
 861 0228 23F48063 		bic	r3, r3, #1024
 862 022c 4360     		str	r3, [r0, #4]
 748:../../source/src/FWlib/src/stm32f10x_adc.c ****   }
 749:../../source/src/FWlib/src/stm32f10x_adc.c **** }
 863              		.loc 1 749 0
 864 022e 7047     		bx	lr
 865              	.L60:
 742:../../source/src/FWlib/src/stm32f10x_adc.c ****   }
 866              		.loc 1 742 0
 867 0230 43F48063 		orr	r3, r3, #1024
 868 0234 4360     		str	r3, [r0, #4]
 869 0236 7047     		bx	lr
 870              		.cfi_endproc
 871              	.LFE47:
 872              		.size	ADC_AutoInjectedConvCmd, .-ADC_AutoInjectedConvCmd
 873              		.align	1
 874              		.p2align 2,,3
 875              		.global	ADC_InjectedDiscModeCmd
 876              		.syntax unified
 877              		.thumb
 878              		.thumb_func
 879              		.fpu softvfp
 880              		.type	ADC_InjectedDiscModeCmd, %function
 881              	ADC_InjectedDiscModeCmd:
 882              	.LFB48:
 750:../../source/src/FWlib/src/stm32f10x_adc.c **** 
 751:../../source/src/FWlib/src/stm32f10x_adc.c **** /**
 752:../../source/src/FWlib/src/stm32f10x_adc.c ****   * @brief  Enables or disables the discontinuous mode for injected group
 753:../../source/src/FWlib/src/stm32f10x_adc.c ****   *         channel for the specified ADC
 754:../../source/src/FWlib/src/stm32f10x_adc.c ****   * @param  ADCx: where x can be 1, 2 or 3 to select the ADC peripheral.
 755:../../source/src/FWlib/src/stm32f10x_adc.c ****   * @param  NewState: new state of the selected ADC discontinuous mode
 756:../../source/src/FWlib/src/stm32f10x_adc.c ****   *         on injected group channel.
 757:../../source/src/FWlib/src/stm32f10x_adc.c ****   *   This parameter can be: ENABLE or DISABLE.
 758:../../source/src/FWlib/src/stm32f10x_adc.c ****   * @retval None
 759:../../source/src/FWlib/src/stm32f10x_adc.c ****   */
 760:../../source/src/FWlib/src/stm32f10x_adc.c **** void ADC_InjectedDiscModeCmd(ADC_TypeDef* ADCx, FunctionalState NewState)
 761:../../source/src/FWlib/src/stm32f10x_adc.c **** {
 883              		.loc 1 761 0
 884              		.cfi_startproc
 885              		@ args = 0, pretend = 0, frame = 0
 886              		@ frame_needed = 0, uses_anonymous_args = 0
 887              		@ link register save eliminated.
 888              	.LVL77:
ARM GAS  G:\Users\Jaxb\AppData\Local\Temp\ccclxmrG.s 			page 31


 762:../../source/src/FWlib/src/stm32f10x_adc.c ****   /* Check the parameters */
 763:../../source/src/FWlib/src/stm32f10x_adc.c ****   assert_param(IS_ADC_ALL_PERIPH(ADCx));
 764:../../source/src/FWlib/src/stm32f10x_adc.c ****   assert_param(IS_FUNCTIONAL_STATE(NewState));
 765:../../source/src/FWlib/src/stm32f10x_adc.c ****   if (NewState != DISABLE)
 766:../../source/src/FWlib/src/stm32f10x_adc.c ****   {
 767:../../source/src/FWlib/src/stm32f10x_adc.c ****     /* Enable the selected ADC injected discontinuous mode */
 768:../../source/src/FWlib/src/stm32f10x_adc.c ****     ADCx->CR1 |= CR1_JDISCEN_Set;
 889              		.loc 1 768 0
 890 0238 4368     		ldr	r3, [r0, #4]
 765:../../source/src/FWlib/src/stm32f10x_adc.c ****   {
 891              		.loc 1 765 0
 892 023a 19B9     		cbnz	r1, .L64
 769:../../source/src/FWlib/src/stm32f10x_adc.c ****   }
 770:../../source/src/FWlib/src/stm32f10x_adc.c ****   else
 771:../../source/src/FWlib/src/stm32f10x_adc.c ****   {
 772:../../source/src/FWlib/src/stm32f10x_adc.c ****     /* Disable the selected ADC injected discontinuous mode */
 773:../../source/src/FWlib/src/stm32f10x_adc.c ****     ADCx->CR1 &= CR1_JDISCEN_Reset;
 893              		.loc 1 773 0
 894 023c 23F48053 		bic	r3, r3, #4096
 895 0240 4360     		str	r3, [r0, #4]
 774:../../source/src/FWlib/src/stm32f10x_adc.c ****   }
 775:../../source/src/FWlib/src/stm32f10x_adc.c **** }
 896              		.loc 1 775 0
 897 0242 7047     		bx	lr
 898              	.L64:
 768:../../source/src/FWlib/src/stm32f10x_adc.c ****   }
 899              		.loc 1 768 0
 900 0244 43F48053 		orr	r3, r3, #4096
 901 0248 4360     		str	r3, [r0, #4]
 902 024a 7047     		bx	lr
 903              		.cfi_endproc
 904              	.LFE48:
 905              		.size	ADC_InjectedDiscModeCmd, .-ADC_InjectedDiscModeCmd
 906              		.align	1
 907              		.p2align 2,,3
 908              		.global	ADC_ExternalTrigInjectedConvConfig
 909              		.syntax unified
 910              		.thumb
 911              		.thumb_func
 912              		.fpu softvfp
 913              		.type	ADC_ExternalTrigInjectedConvConfig, %function
 914              	ADC_ExternalTrigInjectedConvConfig:
 915              	.LFB49:
 776:../../source/src/FWlib/src/stm32f10x_adc.c **** 
 777:../../source/src/FWlib/src/stm32f10x_adc.c **** /**
 778:../../source/src/FWlib/src/stm32f10x_adc.c ****   * @brief  Configures the ADCx external trigger for injected channels conversion.
 779:../../source/src/FWlib/src/stm32f10x_adc.c ****   * @param  ADCx: where x can be 1, 2 or 3 to select the ADC peripheral.
 780:../../source/src/FWlib/src/stm32f10x_adc.c ****   * @param  ADC_ExternalTrigInjecConv: specifies the ADC trigger to start injected conversion. 
 781:../../source/src/FWlib/src/stm32f10x_adc.c ****   *   This parameter can be one of the following values:
 782:../../source/src/FWlib/src/stm32f10x_adc.c ****   *     @arg ADC_ExternalTrigInjecConv_T1_TRGO: Timer1 TRGO event selected (for ADC1, ADC2 and ADC3
 783:../../source/src/FWlib/src/stm32f10x_adc.c ****   *     @arg ADC_ExternalTrigInjecConv_T1_CC4: Timer1 capture compare4 selected (for ADC1, ADC2 and
 784:../../source/src/FWlib/src/stm32f10x_adc.c ****   *     @arg ADC_ExternalTrigInjecConv_T2_TRGO: Timer2 TRGO event selected (for ADC1 and ADC2)
 785:../../source/src/FWlib/src/stm32f10x_adc.c ****   *     @arg ADC_ExternalTrigInjecConv_T2_CC1: Timer2 capture compare1 selected (for ADC1 and ADC2)
 786:../../source/src/FWlib/src/stm32f10x_adc.c ****   *     @arg ADC_ExternalTrigInjecConv_T3_CC4: Timer3 capture compare4 selected (for ADC1 and ADC2)
 787:../../source/src/FWlib/src/stm32f10x_adc.c ****   *     @arg ADC_ExternalTrigInjecConv_T4_TRGO: Timer4 TRGO event selected (for ADC1 and ADC2)
 788:../../source/src/FWlib/src/stm32f10x_adc.c ****   *     @arg ADC_ExternalTrigInjecConv_Ext_IT15_TIM8_CC4: External interrupt line 15 or Timer8
 789:../../source/src/FWlib/src/stm32f10x_adc.c ****   *                                                       capture compare4 event selected (for ADC1
ARM GAS  G:\Users\Jaxb\AppData\Local\Temp\ccclxmrG.s 			page 32


 790:../../source/src/FWlib/src/stm32f10x_adc.c ****   *     @arg ADC_ExternalTrigInjecConv_T4_CC3: Timer4 capture compare3 selected (for ADC3 only)
 791:../../source/src/FWlib/src/stm32f10x_adc.c ****   *     @arg ADC_ExternalTrigInjecConv_T8_CC2: Timer8 capture compare2 selected (for ADC3 only)    
 792:../../source/src/FWlib/src/stm32f10x_adc.c ****   *     @arg ADC_ExternalTrigInjecConv_T8_CC4: Timer8 capture compare4 selected (for ADC3 only)
 793:../../source/src/FWlib/src/stm32f10x_adc.c ****   *     @arg ADC_ExternalTrigInjecConv_T5_TRGO: Timer5 TRGO event selected (for ADC3 only)         
 794:../../source/src/FWlib/src/stm32f10x_adc.c ****   *     @arg ADC_ExternalTrigInjecConv_T5_CC4: Timer5 capture compare4 selected (for ADC3 only)    
 795:../../source/src/FWlib/src/stm32f10x_adc.c ****   *     @arg ADC_ExternalTrigInjecConv_None: Injected conversion started by software and not
 796:../../source/src/FWlib/src/stm32f10x_adc.c ****   *                                          by external trigger (for ADC1, ADC2 and ADC3)
 797:../../source/src/FWlib/src/stm32f10x_adc.c ****   * @retval None
 798:../../source/src/FWlib/src/stm32f10x_adc.c ****   */
 799:../../source/src/FWlib/src/stm32f10x_adc.c **** void ADC_ExternalTrigInjectedConvConfig(ADC_TypeDef* ADCx, uint32_t ADC_ExternalTrigInjecConv)
 800:../../source/src/FWlib/src/stm32f10x_adc.c **** {
 916              		.loc 1 800 0
 917              		.cfi_startproc
 918              		@ args = 0, pretend = 0, frame = 0
 919              		@ frame_needed = 0, uses_anonymous_args = 0
 920              		@ link register save eliminated.
 921              	.LVL78:
 801:../../source/src/FWlib/src/stm32f10x_adc.c ****   uint32_t tmpreg = 0;
 802:../../source/src/FWlib/src/stm32f10x_adc.c ****   /* Check the parameters */
 803:../../source/src/FWlib/src/stm32f10x_adc.c ****   assert_param(IS_ADC_ALL_PERIPH(ADCx));
 804:../../source/src/FWlib/src/stm32f10x_adc.c ****   assert_param(IS_ADC_EXT_INJEC_TRIG(ADC_ExternalTrigInjecConv));
 805:../../source/src/FWlib/src/stm32f10x_adc.c ****   /* Get the old register value */
 806:../../source/src/FWlib/src/stm32f10x_adc.c ****   tmpreg = ADCx->CR2;
 922              		.loc 1 806 0
 923 024c 8368     		ldr	r3, [r0, #8]
 924              	.LVL79:
 807:../../source/src/FWlib/src/stm32f10x_adc.c ****   /* Clear the old external event selection for injected group */
 808:../../source/src/FWlib/src/stm32f10x_adc.c ****   tmpreg &= CR2_JEXTSEL_Reset;
 925              		.loc 1 808 0
 926 024e 23F4E043 		bic	r3, r3, #28672
 927              	.LVL80:
 809:../../source/src/FWlib/src/stm32f10x_adc.c ****   /* Set the external event selection for injected group */
 810:../../source/src/FWlib/src/stm32f10x_adc.c ****   tmpreg |= ADC_ExternalTrigInjecConv;
 928              		.loc 1 810 0
 929 0252 1943     		orrs	r1, r1, r3
 930              	.LVL81:
 811:../../source/src/FWlib/src/stm32f10x_adc.c ****   /* Store the new register value */
 812:../../source/src/FWlib/src/stm32f10x_adc.c ****   ADCx->CR2 = tmpreg;
 931              		.loc 1 812 0
 932 0254 8160     		str	r1, [r0, #8]
 813:../../source/src/FWlib/src/stm32f10x_adc.c **** }
 933              		.loc 1 813 0
 934 0256 7047     		bx	lr
 935              		.cfi_endproc
 936              	.LFE49:
 937              		.size	ADC_ExternalTrigInjectedConvConfig, .-ADC_ExternalTrigInjectedConvConfig
 938              		.align	1
 939              		.p2align 2,,3
 940              		.global	ADC_ExternalTrigInjectedConvCmd
 941              		.syntax unified
 942              		.thumb
 943              		.thumb_func
 944              		.fpu softvfp
 945              		.type	ADC_ExternalTrigInjectedConvCmd, %function
 946              	ADC_ExternalTrigInjectedConvCmd:
 947              	.LFB50:
 814:../../source/src/FWlib/src/stm32f10x_adc.c **** 
ARM GAS  G:\Users\Jaxb\AppData\Local\Temp\ccclxmrG.s 			page 33


 815:../../source/src/FWlib/src/stm32f10x_adc.c **** /**
 816:../../source/src/FWlib/src/stm32f10x_adc.c ****   * @brief  Enables or disables the ADCx injected channels conversion through
 817:../../source/src/FWlib/src/stm32f10x_adc.c ****   *         external trigger
 818:../../source/src/FWlib/src/stm32f10x_adc.c ****   * @param  ADCx: where x can be 1, 2 or 3 to select the ADC peripheral.
 819:../../source/src/FWlib/src/stm32f10x_adc.c ****   * @param  NewState: new state of the selected ADC external trigger start of
 820:../../source/src/FWlib/src/stm32f10x_adc.c ****   *         injected conversion.
 821:../../source/src/FWlib/src/stm32f10x_adc.c ****   *   This parameter can be: ENABLE or DISABLE.
 822:../../source/src/FWlib/src/stm32f10x_adc.c ****   * @retval None
 823:../../source/src/FWlib/src/stm32f10x_adc.c ****   */
 824:../../source/src/FWlib/src/stm32f10x_adc.c **** void ADC_ExternalTrigInjectedConvCmd(ADC_TypeDef* ADCx, FunctionalState NewState)
 825:../../source/src/FWlib/src/stm32f10x_adc.c **** {
 948              		.loc 1 825 0
 949              		.cfi_startproc
 950              		@ args = 0, pretend = 0, frame = 0
 951              		@ frame_needed = 0, uses_anonymous_args = 0
 952              		@ link register save eliminated.
 953              	.LVL82:
 826:../../source/src/FWlib/src/stm32f10x_adc.c ****   /* Check the parameters */
 827:../../source/src/FWlib/src/stm32f10x_adc.c ****   assert_param(IS_ADC_ALL_PERIPH(ADCx));
 828:../../source/src/FWlib/src/stm32f10x_adc.c ****   assert_param(IS_FUNCTIONAL_STATE(NewState));
 829:../../source/src/FWlib/src/stm32f10x_adc.c ****   if (NewState != DISABLE)
 830:../../source/src/FWlib/src/stm32f10x_adc.c ****   {
 831:../../source/src/FWlib/src/stm32f10x_adc.c ****     /* Enable the selected ADC external event selection for injected group */
 832:../../source/src/FWlib/src/stm32f10x_adc.c ****     ADCx->CR2 |= CR2_JEXTTRIG_Set;
 954              		.loc 1 832 0
 955 0258 8368     		ldr	r3, [r0, #8]
 829:../../source/src/FWlib/src/stm32f10x_adc.c ****   {
 956              		.loc 1 829 0
 957 025a 19B9     		cbnz	r1, .L69
 833:../../source/src/FWlib/src/stm32f10x_adc.c ****   }
 834:../../source/src/FWlib/src/stm32f10x_adc.c ****   else
 835:../../source/src/FWlib/src/stm32f10x_adc.c ****   {
 836:../../source/src/FWlib/src/stm32f10x_adc.c ****     /* Disable the selected ADC external event selection for injected group */
 837:../../source/src/FWlib/src/stm32f10x_adc.c ****     ADCx->CR2 &= CR2_JEXTTRIG_Reset;
 958              		.loc 1 837 0
 959 025c 23F40043 		bic	r3, r3, #32768
 960 0260 8360     		str	r3, [r0, #8]
 838:../../source/src/FWlib/src/stm32f10x_adc.c ****   }
 839:../../source/src/FWlib/src/stm32f10x_adc.c **** }
 961              		.loc 1 839 0
 962 0262 7047     		bx	lr
 963              	.L69:
 832:../../source/src/FWlib/src/stm32f10x_adc.c ****   }
 964              		.loc 1 832 0
 965 0264 43F40043 		orr	r3, r3, #32768
 966 0268 8360     		str	r3, [r0, #8]
 967 026a 7047     		bx	lr
 968              		.cfi_endproc
 969              	.LFE50:
 970              		.size	ADC_ExternalTrigInjectedConvCmd, .-ADC_ExternalTrigInjectedConvCmd
 971              		.align	1
 972              		.p2align 2,,3
 973              		.global	ADC_SoftwareStartInjectedConvCmd
 974              		.syntax unified
 975              		.thumb
 976              		.thumb_func
 977              		.fpu softvfp
ARM GAS  G:\Users\Jaxb\AppData\Local\Temp\ccclxmrG.s 			page 34


 978              		.type	ADC_SoftwareStartInjectedConvCmd, %function
 979              	ADC_SoftwareStartInjectedConvCmd:
 980              	.LFB51:
 840:../../source/src/FWlib/src/stm32f10x_adc.c **** 
 841:../../source/src/FWlib/src/stm32f10x_adc.c **** /**
 842:../../source/src/FWlib/src/stm32f10x_adc.c ****   * @brief  Enables or disables the selected ADC start of the injected 
 843:../../source/src/FWlib/src/stm32f10x_adc.c ****   *         channels conversion.
 844:../../source/src/FWlib/src/stm32f10x_adc.c ****   * @param  ADCx: where x can be 1, 2 or 3 to select the ADC peripheral.
 845:../../source/src/FWlib/src/stm32f10x_adc.c ****   * @param  NewState: new state of the selected ADC software start injected conversion.
 846:../../source/src/FWlib/src/stm32f10x_adc.c ****   *   This parameter can be: ENABLE or DISABLE.
 847:../../source/src/FWlib/src/stm32f10x_adc.c ****   * @retval None
 848:../../source/src/FWlib/src/stm32f10x_adc.c ****   */
 849:../../source/src/FWlib/src/stm32f10x_adc.c **** void ADC_SoftwareStartInjectedConvCmd(ADC_TypeDef* ADCx, FunctionalState NewState)
 850:../../source/src/FWlib/src/stm32f10x_adc.c **** {
 981              		.loc 1 850 0
 982              		.cfi_startproc
 983              		@ args = 0, pretend = 0, frame = 0
 984              		@ frame_needed = 0, uses_anonymous_args = 0
 985              		@ link register save eliminated.
 986              	.LVL83:
 851:../../source/src/FWlib/src/stm32f10x_adc.c ****   /* Check the parameters */
 852:../../source/src/FWlib/src/stm32f10x_adc.c ****   assert_param(IS_ADC_ALL_PERIPH(ADCx));
 853:../../source/src/FWlib/src/stm32f10x_adc.c ****   assert_param(IS_FUNCTIONAL_STATE(NewState));
 854:../../source/src/FWlib/src/stm32f10x_adc.c ****   if (NewState != DISABLE)
 855:../../source/src/FWlib/src/stm32f10x_adc.c ****   {
 856:../../source/src/FWlib/src/stm32f10x_adc.c ****     /* Enable the selected ADC conversion for injected group on external event and start the select
 857:../../source/src/FWlib/src/stm32f10x_adc.c ****        ADC injected conversion */
 858:../../source/src/FWlib/src/stm32f10x_adc.c ****     ADCx->CR2 |= CR2_JEXTTRIG_JSWSTART_Set;
 987              		.loc 1 858 0
 988 026c 8368     		ldr	r3, [r0, #8]
 854:../../source/src/FWlib/src/stm32f10x_adc.c ****   {
 989              		.loc 1 854 0
 990 026e 19B9     		cbnz	r1, .L73
 859:../../source/src/FWlib/src/stm32f10x_adc.c ****   }
 860:../../source/src/FWlib/src/stm32f10x_adc.c ****   else
 861:../../source/src/FWlib/src/stm32f10x_adc.c ****   {
 862:../../source/src/FWlib/src/stm32f10x_adc.c ****     /* Disable the selected ADC conversion on external event for injected group and stop the select
 863:../../source/src/FWlib/src/stm32f10x_adc.c ****        ADC injected conversion */
 864:../../source/src/FWlib/src/stm32f10x_adc.c ****     ADCx->CR2 &= CR2_JEXTTRIG_JSWSTART_Reset;
 991              		.loc 1 864 0
 992 0270 23F40213 		bic	r3, r3, #2129920
 993 0274 8360     		str	r3, [r0, #8]
 865:../../source/src/FWlib/src/stm32f10x_adc.c ****   }
 866:../../source/src/FWlib/src/stm32f10x_adc.c **** }
 994              		.loc 1 866 0
 995 0276 7047     		bx	lr
 996              	.L73:
 858:../../source/src/FWlib/src/stm32f10x_adc.c ****   }
 997              		.loc 1 858 0
 998 0278 43F40213 		orr	r3, r3, #2129920
 999 027c 8360     		str	r3, [r0, #8]
 1000 027e 7047     		bx	lr
 1001              		.cfi_endproc
 1002              	.LFE51:
 1003              		.size	ADC_SoftwareStartInjectedConvCmd, .-ADC_SoftwareStartInjectedConvCmd
 1004              		.align	1
 1005              		.p2align 2,,3
ARM GAS  G:\Users\Jaxb\AppData\Local\Temp\ccclxmrG.s 			page 35


 1006              		.global	ADC_GetSoftwareStartInjectedConvCmdStatus
 1007              		.syntax unified
 1008              		.thumb
 1009              		.thumb_func
 1010              		.fpu softvfp
 1011              		.type	ADC_GetSoftwareStartInjectedConvCmdStatus, %function
 1012              	ADC_GetSoftwareStartInjectedConvCmdStatus:
 1013              	.LFB52:
 867:../../source/src/FWlib/src/stm32f10x_adc.c **** 
 868:../../source/src/FWlib/src/stm32f10x_adc.c **** /**
 869:../../source/src/FWlib/src/stm32f10x_adc.c ****   * @brief  Gets the selected ADC Software start injected conversion Status.
 870:../../source/src/FWlib/src/stm32f10x_adc.c ****   * @param  ADCx: where x can be 1, 2 or 3 to select the ADC peripheral.
 871:../../source/src/FWlib/src/stm32f10x_adc.c ****   * @retval The new state of ADC software start injected conversion (SET or RESET).
 872:../../source/src/FWlib/src/stm32f10x_adc.c ****   */
 873:../../source/src/FWlib/src/stm32f10x_adc.c **** FlagStatus ADC_GetSoftwareStartInjectedConvCmdStatus(ADC_TypeDef* ADCx)
 874:../../source/src/FWlib/src/stm32f10x_adc.c **** {
 1014              		.loc 1 874 0
 1015              		.cfi_startproc
 1016              		@ args = 0, pretend = 0, frame = 0
 1017              		@ frame_needed = 0, uses_anonymous_args = 0
 1018              		@ link register save eliminated.
 1019              	.LVL84:
 875:../../source/src/FWlib/src/stm32f10x_adc.c ****   FlagStatus bitstatus = RESET;
 876:../../source/src/FWlib/src/stm32f10x_adc.c ****   /* Check the parameters */
 877:../../source/src/FWlib/src/stm32f10x_adc.c ****   assert_param(IS_ADC_ALL_PERIPH(ADCx));
 878:../../source/src/FWlib/src/stm32f10x_adc.c ****   /* Check the status of JSWSTART bit */
 879:../../source/src/FWlib/src/stm32f10x_adc.c ****   if ((ADCx->CR2 & CR2_JSWSTART_Set) != (uint32_t)RESET)
 1020              		.loc 1 879 0
 1021 0280 8068     		ldr	r0, [r0, #8]
 1022              	.LVL85:
 880:../../source/src/FWlib/src/stm32f10x_adc.c ****   {
 881:../../source/src/FWlib/src/stm32f10x_adc.c ****     /* JSWSTART bit is set */
 882:../../source/src/FWlib/src/stm32f10x_adc.c ****     bitstatus = SET;
 883:../../source/src/FWlib/src/stm32f10x_adc.c ****   }
 884:../../source/src/FWlib/src/stm32f10x_adc.c ****   else
 885:../../source/src/FWlib/src/stm32f10x_adc.c ****   {
 886:../../source/src/FWlib/src/stm32f10x_adc.c ****     /* JSWSTART bit is reset */
 887:../../source/src/FWlib/src/stm32f10x_adc.c ****     bitstatus = RESET;
 888:../../source/src/FWlib/src/stm32f10x_adc.c ****   }
 889:../../source/src/FWlib/src/stm32f10x_adc.c ****   /* Return the JSWSTART bit status */
 890:../../source/src/FWlib/src/stm32f10x_adc.c ****   return  bitstatus;
 891:../../source/src/FWlib/src/stm32f10x_adc.c **** }
 1023              		.loc 1 891 0
 1024 0282 C0F34050 		ubfx	r0, r0, #21, #1
 1025              	.LVL86:
 1026 0286 7047     		bx	lr
 1027              		.cfi_endproc
 1028              	.LFE52:
 1029              		.size	ADC_GetSoftwareStartInjectedConvCmdStatus, .-ADC_GetSoftwareStartInjectedConvCmdStatus
 1030              		.align	1
 1031              		.p2align 2,,3
 1032              		.global	ADC_InjectedChannelConfig
 1033              		.syntax unified
 1034              		.thumb
 1035              		.thumb_func
 1036              		.fpu softvfp
 1037              		.type	ADC_InjectedChannelConfig, %function
ARM GAS  G:\Users\Jaxb\AppData\Local\Temp\ccclxmrG.s 			page 36


 1038              	ADC_InjectedChannelConfig:
 1039              	.LFB53:
 892:../../source/src/FWlib/src/stm32f10x_adc.c **** 
 893:../../source/src/FWlib/src/stm32f10x_adc.c **** /**
 894:../../source/src/FWlib/src/stm32f10x_adc.c ****   * @brief  Configures for the selected ADC injected channel its corresponding
 895:../../source/src/FWlib/src/stm32f10x_adc.c ****   *         rank in the sequencer and its sample time.
 896:../../source/src/FWlib/src/stm32f10x_adc.c ****   * @param  ADCx: where x can be 1, 2 or 3 to select the ADC peripheral.
 897:../../source/src/FWlib/src/stm32f10x_adc.c ****   * @param  ADC_Channel: the ADC channel to configure. 
 898:../../source/src/FWlib/src/stm32f10x_adc.c ****   *   This parameter can be one of the following values:
 899:../../source/src/FWlib/src/stm32f10x_adc.c ****   *     @arg ADC_Channel_0: ADC Channel0 selected
 900:../../source/src/FWlib/src/stm32f10x_adc.c ****   *     @arg ADC_Channel_1: ADC Channel1 selected
 901:../../source/src/FWlib/src/stm32f10x_adc.c ****   *     @arg ADC_Channel_2: ADC Channel2 selected
 902:../../source/src/FWlib/src/stm32f10x_adc.c ****   *     @arg ADC_Channel_3: ADC Channel3 selected
 903:../../source/src/FWlib/src/stm32f10x_adc.c ****   *     @arg ADC_Channel_4: ADC Channel4 selected
 904:../../source/src/FWlib/src/stm32f10x_adc.c ****   *     @arg ADC_Channel_5: ADC Channel5 selected
 905:../../source/src/FWlib/src/stm32f10x_adc.c ****   *     @arg ADC_Channel_6: ADC Channel6 selected
 906:../../source/src/FWlib/src/stm32f10x_adc.c ****   *     @arg ADC_Channel_7: ADC Channel7 selected
 907:../../source/src/FWlib/src/stm32f10x_adc.c ****   *     @arg ADC_Channel_8: ADC Channel8 selected
 908:../../source/src/FWlib/src/stm32f10x_adc.c ****   *     @arg ADC_Channel_9: ADC Channel9 selected
 909:../../source/src/FWlib/src/stm32f10x_adc.c ****   *     @arg ADC_Channel_10: ADC Channel10 selected
 910:../../source/src/FWlib/src/stm32f10x_adc.c ****   *     @arg ADC_Channel_11: ADC Channel11 selected
 911:../../source/src/FWlib/src/stm32f10x_adc.c ****   *     @arg ADC_Channel_12: ADC Channel12 selected
 912:../../source/src/FWlib/src/stm32f10x_adc.c ****   *     @arg ADC_Channel_13: ADC Channel13 selected
 913:../../source/src/FWlib/src/stm32f10x_adc.c ****   *     @arg ADC_Channel_14: ADC Channel14 selected
 914:../../source/src/FWlib/src/stm32f10x_adc.c ****   *     @arg ADC_Channel_15: ADC Channel15 selected
 915:../../source/src/FWlib/src/stm32f10x_adc.c ****   *     @arg ADC_Channel_16: ADC Channel16 selected
 916:../../source/src/FWlib/src/stm32f10x_adc.c ****   *     @arg ADC_Channel_17: ADC Channel17 selected
 917:../../source/src/FWlib/src/stm32f10x_adc.c ****   * @param  Rank: The rank in the injected group sequencer. This parameter must be between 1 and 4.
 918:../../source/src/FWlib/src/stm32f10x_adc.c ****   * @param  ADC_SampleTime: The sample time value to be set for the selected channel. 
 919:../../source/src/FWlib/src/stm32f10x_adc.c ****   *   This parameter can be one of the following values:
 920:../../source/src/FWlib/src/stm32f10x_adc.c ****   *     @arg ADC_SampleTime_1Cycles5: Sample time equal to 1.5 cycles
 921:../../source/src/FWlib/src/stm32f10x_adc.c ****   *     @arg ADC_SampleTime_7Cycles5: Sample time equal to 7.5 cycles
 922:../../source/src/FWlib/src/stm32f10x_adc.c ****   *     @arg ADC_SampleTime_13Cycles5: Sample time equal to 13.5 cycles
 923:../../source/src/FWlib/src/stm32f10x_adc.c ****   *     @arg ADC_SampleTime_28Cycles5: Sample time equal to 28.5 cycles	
 924:../../source/src/FWlib/src/stm32f10x_adc.c ****   *     @arg ADC_SampleTime_41Cycles5: Sample time equal to 41.5 cycles	
 925:../../source/src/FWlib/src/stm32f10x_adc.c ****   *     @arg ADC_SampleTime_55Cycles5: Sample time equal to 55.5 cycles	
 926:../../source/src/FWlib/src/stm32f10x_adc.c ****   *     @arg ADC_SampleTime_71Cycles5: Sample time equal to 71.5 cycles	
 927:../../source/src/FWlib/src/stm32f10x_adc.c ****   *     @arg ADC_SampleTime_239Cycles5: Sample time equal to 239.5 cycles	
 928:../../source/src/FWlib/src/stm32f10x_adc.c ****   * @retval None
 929:../../source/src/FWlib/src/stm32f10x_adc.c ****   */
 930:../../source/src/FWlib/src/stm32f10x_adc.c **** void ADC_InjectedChannelConfig(ADC_TypeDef* ADCx, uint8_t ADC_Channel, uint8_t Rank, uint8_t ADC_Sa
 931:../../source/src/FWlib/src/stm32f10x_adc.c **** {
 1040              		.loc 1 931 0
 1041              		.cfi_startproc
 1042              		@ args = 0, pretend = 0, frame = 0
 1043              		@ frame_needed = 0, uses_anonymous_args = 0
 1044              		@ link register save eliminated.
 1045              	.LVL87:
 932:../../source/src/FWlib/src/stm32f10x_adc.c ****   uint32_t tmpreg1 = 0, tmpreg2 = 0, tmpreg3 = 0;
 933:../../source/src/FWlib/src/stm32f10x_adc.c ****   /* Check the parameters */
 934:../../source/src/FWlib/src/stm32f10x_adc.c ****   assert_param(IS_ADC_ALL_PERIPH(ADCx));
 935:../../source/src/FWlib/src/stm32f10x_adc.c ****   assert_param(IS_ADC_CHANNEL(ADC_Channel));
 936:../../source/src/FWlib/src/stm32f10x_adc.c ****   assert_param(IS_ADC_INJECTED_RANK(Rank));
 937:../../source/src/FWlib/src/stm32f10x_adc.c ****   assert_param(IS_ADC_SAMPLE_TIME(ADC_SampleTime));
 938:../../source/src/FWlib/src/stm32f10x_adc.c ****   /* if ADC_Channel_10 ... ADC_Channel_17 is selected */
 939:../../source/src/FWlib/src/stm32f10x_adc.c ****   if (ADC_Channel > ADC_Channel_9)
 1046              		.loc 1 939 0
ARM GAS  G:\Users\Jaxb\AppData\Local\Temp\ccclxmrG.s 			page 37


 1047 0288 0929     		cmp	r1, #9
 931:../../source/src/FWlib/src/stm32f10x_adc.c ****   uint32_t tmpreg1 = 0, tmpreg2 = 0, tmpreg3 = 0;
 1048              		.loc 1 931 0
 1049 028a 70B4     		push	{r4, r5, r6}
 1050              	.LCFI14:
 1051              		.cfi_def_cfa_offset 12
 1052              		.cfi_offset 4, -12
 1053              		.cfi_offset 5, -8
 1054              		.cfi_offset 6, -4
 1055              		.loc 1 939 0
 1056 028c 1AD8     		bhi	.L78
 940:../../source/src/FWlib/src/stm32f10x_adc.c ****   {
 941:../../source/src/FWlib/src/stm32f10x_adc.c ****     /* Get the old register value */
 942:../../source/src/FWlib/src/stm32f10x_adc.c ****     tmpreg1 = ADCx->SMPR1;
 943:../../source/src/FWlib/src/stm32f10x_adc.c ****     /* Calculate the mask to clear */
 944:../../source/src/FWlib/src/stm32f10x_adc.c ****     tmpreg2 = SMPR1_SMP_Set << (3*(ADC_Channel - 10));
 945:../../source/src/FWlib/src/stm32f10x_adc.c ****     /* Clear the old channel sample time */
 946:../../source/src/FWlib/src/stm32f10x_adc.c ****     tmpreg1 &= ~tmpreg2;
 947:../../source/src/FWlib/src/stm32f10x_adc.c ****     /* Calculate the mask to set */
 948:../../source/src/FWlib/src/stm32f10x_adc.c ****     tmpreg2 = (uint32_t)ADC_SampleTime << (3*(ADC_Channel - 10));
 949:../../source/src/FWlib/src/stm32f10x_adc.c ****     /* Set the new channel sample time */
 950:../../source/src/FWlib/src/stm32f10x_adc.c ****     tmpreg1 |= tmpreg2;
 951:../../source/src/FWlib/src/stm32f10x_adc.c ****     /* Store the new register value */
 952:../../source/src/FWlib/src/stm32f10x_adc.c ****     ADCx->SMPR1 = tmpreg1;
 953:../../source/src/FWlib/src/stm32f10x_adc.c ****   }
 954:../../source/src/FWlib/src/stm32f10x_adc.c ****   else /* ADC_Channel include in ADC_Channel_[0..9] */
 955:../../source/src/FWlib/src/stm32f10x_adc.c ****   {
 956:../../source/src/FWlib/src/stm32f10x_adc.c ****     /* Get the old register value */
 957:../../source/src/FWlib/src/stm32f10x_adc.c ****     tmpreg1 = ADCx->SMPR2;
 958:../../source/src/FWlib/src/stm32f10x_adc.c ****     /* Calculate the mask to clear */
 959:../../source/src/FWlib/src/stm32f10x_adc.c ****     tmpreg2 = SMPR2_SMP_Set << (3 * ADC_Channel);
 1057              		.loc 1 959 0
 1058 028e 0725     		movs	r5, #7
 1059 0290 01EB4106 		add	r6, r1, r1, lsl #1
 957:../../source/src/FWlib/src/stm32f10x_adc.c ****     /* Calculate the mask to clear */
 1060              		.loc 1 957 0
 1061 0294 0469     		ldr	r4, [r0, #16]
 1062              	.LVL88:
 1063              		.loc 1 959 0
 1064 0296 B540     		lsls	r5, r5, r6
 1065              	.LVL89:
 960:../../source/src/FWlib/src/stm32f10x_adc.c ****     /* Clear the old channel sample time */
 961:../../source/src/FWlib/src/stm32f10x_adc.c ****     tmpreg1 &= ~tmpreg2;
 962:../../source/src/FWlib/src/stm32f10x_adc.c ****     /* Calculate the mask to set */
 963:../../source/src/FWlib/src/stm32f10x_adc.c ****     tmpreg2 = (uint32_t)ADC_SampleTime << (3 * ADC_Channel);
 1066              		.loc 1 963 0
 1067 0298 B340     		lsls	r3, r3, r6
 1068              	.LVL90:
 961:../../source/src/FWlib/src/stm32f10x_adc.c ****     /* Calculate the mask to set */
 1069              		.loc 1 961 0
 1070 029a 24EA0504 		bic	r4, r4, r5
 1071              	.LVL91:
 964:../../source/src/FWlib/src/stm32f10x_adc.c ****     /* Set the new channel sample time */
 965:../../source/src/FWlib/src/stm32f10x_adc.c ****     tmpreg1 |= tmpreg2;
 1072              		.loc 1 965 0
 1073 029e 2343     		orrs	r3, r3, r4
 1074              	.LVL92:
ARM GAS  G:\Users\Jaxb\AppData\Local\Temp\ccclxmrG.s 			page 38


 966:../../source/src/FWlib/src/stm32f10x_adc.c ****     /* Store the new register value */
 967:../../source/src/FWlib/src/stm32f10x_adc.c ****     ADCx->SMPR2 = tmpreg1;
 1075              		.loc 1 967 0
 1076 02a0 0361     		str	r3, [r0, #16]
 1077              	.L77:
 968:../../source/src/FWlib/src/stm32f10x_adc.c ****   }
 969:../../source/src/FWlib/src/stm32f10x_adc.c ****   /* Rank configuration */
 970:../../source/src/FWlib/src/stm32f10x_adc.c ****   /* Get the old register value */
 971:../../source/src/FWlib/src/stm32f10x_adc.c ****   tmpreg1 = ADCx->JSQR;
 972:../../source/src/FWlib/src/stm32f10x_adc.c ****   /* Get JL value: Number = JL+1 */
 973:../../source/src/FWlib/src/stm32f10x_adc.c ****   tmpreg3 =  (tmpreg1 & JSQR_JL_Set)>> 20;
 974:../../source/src/FWlib/src/stm32f10x_adc.c ****   /* Calculate the mask to clear: ((Rank-1)+(4-JL-1)) */
 975:../../source/src/FWlib/src/stm32f10x_adc.c ****   tmpreg2 = JSQR_JSQ_Set << (5 * (uint8_t)((Rank + 3) - (tmpreg3 + 1)));
 1078              		.loc 1 975 0
 1079 02a2 1F24     		movs	r4, #31
 971:../../source/src/FWlib/src/stm32f10x_adc.c ****   /* Get JL value: Number = JL+1 */
 1080              		.loc 1 971 0
 1081 02a4 836B     		ldr	r3, [r0, #56]
 1082              	.LVL93:
 1083              		.loc 1 975 0
 1084 02a6 0232     		adds	r2, r2, #2
 1085              	.LVL94:
 973:../../source/src/FWlib/src/stm32f10x_adc.c ****   /* Calculate the mask to clear: ((Rank-1)+(4-JL-1)) */
 1086              		.loc 1 973 0
 1087 02a8 C3F30155 		ubfx	r5, r3, #20, #2
 1088              		.loc 1 975 0
 1089 02ac 521B     		subs	r2, r2, r5
 1090 02ae D2B2     		uxtb	r2, r2
 1091 02b0 02EB8202 		add	r2, r2, r2, lsl #2
 1092              	.LVL95:
 1093 02b4 9440     		lsls	r4, r4, r2
 1094              	.LVL96:
 976:../../source/src/FWlib/src/stm32f10x_adc.c ****   /* Clear the old JSQx bits for the selected rank */
 977:../../source/src/FWlib/src/stm32f10x_adc.c ****   tmpreg1 &= ~tmpreg2;
 1095              		.loc 1 977 0
 1096 02b6 23EA0403 		bic	r3, r3, r4
 1097              	.LVL97:
 978:../../source/src/FWlib/src/stm32f10x_adc.c ****   /* Calculate the mask to set: ((Rank-1)+(4-JL-1)) */
 979:../../source/src/FWlib/src/stm32f10x_adc.c ****   tmpreg2 = (uint32_t)ADC_Channel << (5 * (uint8_t)((Rank + 3) - (tmpreg3 + 1)));
 1098              		.loc 1 979 0
 1099 02ba 9140     		lsls	r1, r1, r2
 1100              	.LVL98:
 980:../../source/src/FWlib/src/stm32f10x_adc.c ****   /* Set the JSQx bits for the selected rank */
 981:../../source/src/FWlib/src/stm32f10x_adc.c ****   tmpreg1 |= tmpreg2;
 1101              		.loc 1 981 0
 1102 02bc 1943     		orrs	r1, r1, r3
 1103              	.LVL99:
 982:../../source/src/FWlib/src/stm32f10x_adc.c ****   /* Store the new register value */
 983:../../source/src/FWlib/src/stm32f10x_adc.c ****   ADCx->JSQR = tmpreg1;
 1104              		.loc 1 983 0
 1105 02be 8163     		str	r1, [r0, #56]
 984:../../source/src/FWlib/src/stm32f10x_adc.c **** }
 1106              		.loc 1 984 0
 1107 02c0 70BC     		pop	{r4, r5, r6}
 1108              	.LCFI15:
 1109              		.cfi_remember_state
 1110              		.cfi_restore 6
ARM GAS  G:\Users\Jaxb\AppData\Local\Temp\ccclxmrG.s 			page 39


 1111              		.cfi_restore 5
 1112              		.cfi_restore 4
 1113              		.cfi_def_cfa_offset 0
 1114 02c2 7047     		bx	lr
 1115              	.LVL100:
 1116              	.L78:
 1117              	.LCFI16:
 1118              		.cfi_restore_state
 944:../../source/src/FWlib/src/stm32f10x_adc.c ****     /* Clear the old channel sample time */
 1119              		.loc 1 944 0
 1120 02c4 0726     		movs	r6, #7
 1121 02c6 A1F10A04 		sub	r4, r1, #10
 1122 02ca 04EB4404 		add	r4, r4, r4, lsl #1
 942:../../source/src/FWlib/src/stm32f10x_adc.c ****     /* Calculate the mask to clear */
 1123              		.loc 1 942 0
 1124 02ce C568     		ldr	r5, [r0, #12]
 1125              	.LVL101:
 944:../../source/src/FWlib/src/stm32f10x_adc.c ****     /* Clear the old channel sample time */
 1126              		.loc 1 944 0
 1127 02d0 A640     		lsls	r6, r6, r4
 1128              	.LVL102:
 948:../../source/src/FWlib/src/stm32f10x_adc.c ****     /* Set the new channel sample time */
 1129              		.loc 1 948 0
 1130 02d2 A340     		lsls	r3, r3, r4
 1131              	.LVL103:
 946:../../source/src/FWlib/src/stm32f10x_adc.c ****     /* Calculate the mask to set */
 1132              		.loc 1 946 0
 1133 02d4 25EA0604 		bic	r4, r5, r6
 1134              	.LVL104:
 950:../../source/src/FWlib/src/stm32f10x_adc.c ****     /* Store the new register value */
 1135              		.loc 1 950 0
 1136 02d8 2343     		orrs	r3, r3, r4
 1137              	.LVL105:
 952:../../source/src/FWlib/src/stm32f10x_adc.c ****   }
 1138              		.loc 1 952 0
 1139 02da C360     		str	r3, [r0, #12]
 1140 02dc E1E7     		b	.L77
 1141              		.cfi_endproc
 1142              	.LFE53:
 1143              		.size	ADC_InjectedChannelConfig, .-ADC_InjectedChannelConfig
 1144              		.align	1
 1145 02de 00BF     		.p2align 2,,3
 1146              		.global	ADC_InjectedSequencerLengthConfig
 1147              		.syntax unified
 1148              		.thumb
 1149              		.thumb_func
 1150              		.fpu softvfp
 1151              		.type	ADC_InjectedSequencerLengthConfig, %function
 1152              	ADC_InjectedSequencerLengthConfig:
 1153              	.LFB54:
 985:../../source/src/FWlib/src/stm32f10x_adc.c **** 
 986:../../source/src/FWlib/src/stm32f10x_adc.c **** /**
 987:../../source/src/FWlib/src/stm32f10x_adc.c ****   * @brief  Configures the sequencer length for injected channels
 988:../../source/src/FWlib/src/stm32f10x_adc.c ****   * @param  ADCx: where x can be 1, 2 or 3 to select the ADC peripheral.
 989:../../source/src/FWlib/src/stm32f10x_adc.c ****   * @param  Length: The sequencer length. 
 990:../../source/src/FWlib/src/stm32f10x_adc.c ****   *   This parameter must be a number between 1 to 4.
 991:../../source/src/FWlib/src/stm32f10x_adc.c ****   * @retval None
ARM GAS  G:\Users\Jaxb\AppData\Local\Temp\ccclxmrG.s 			page 40


 992:../../source/src/FWlib/src/stm32f10x_adc.c ****   */
 993:../../source/src/FWlib/src/stm32f10x_adc.c **** void ADC_InjectedSequencerLengthConfig(ADC_TypeDef* ADCx, uint8_t Length)
 994:../../source/src/FWlib/src/stm32f10x_adc.c **** {
 1154              		.loc 1 994 0
 1155              		.cfi_startproc
 1156              		@ args = 0, pretend = 0, frame = 0
 1157              		@ frame_needed = 0, uses_anonymous_args = 0
 1158              		@ link register save eliminated.
 1159              	.LVL106:
 995:../../source/src/FWlib/src/stm32f10x_adc.c ****   uint32_t tmpreg1 = 0;
 996:../../source/src/FWlib/src/stm32f10x_adc.c ****   uint32_t tmpreg2 = 0;
 997:../../source/src/FWlib/src/stm32f10x_adc.c ****   /* Check the parameters */
 998:../../source/src/FWlib/src/stm32f10x_adc.c ****   assert_param(IS_ADC_ALL_PERIPH(ADCx));
 999:../../source/src/FWlib/src/stm32f10x_adc.c ****   assert_param(IS_ADC_INJECTED_LENGTH(Length));
1000:../../source/src/FWlib/src/stm32f10x_adc.c ****   
1001:../../source/src/FWlib/src/stm32f10x_adc.c ****   /* Get the old register value */
1002:../../source/src/FWlib/src/stm32f10x_adc.c ****   tmpreg1 = ADCx->JSQR;
 1160              		.loc 1 1002 0
 1161 02e0 836B     		ldr	r3, [r0, #56]
 1162              	.LVL107:
1003:../../source/src/FWlib/src/stm32f10x_adc.c ****   /* Clear the old injected sequnence lenght JL bits */
1004:../../source/src/FWlib/src/stm32f10x_adc.c ****   tmpreg1 &= JSQR_JL_Reset;
1005:../../source/src/FWlib/src/stm32f10x_adc.c ****   /* Set the injected sequnence lenght JL bits */
1006:../../source/src/FWlib/src/stm32f10x_adc.c ****   tmpreg2 = Length - 1; 
 1163              		.loc 1 1006 0
 1164 02e2 0139     		subs	r1, r1, #1
 1165              	.LVL108:
1004:../../source/src/FWlib/src/stm32f10x_adc.c ****   /* Set the injected sequnence lenght JL bits */
 1166              		.loc 1 1004 0
 1167 02e4 23F44013 		bic	r3, r3, #3145728
 1168              	.LVL109:
1007:../../source/src/FWlib/src/stm32f10x_adc.c ****   tmpreg1 |= tmpreg2 << 20;
 1169              		.loc 1 1007 0
 1170 02e8 43EA0153 		orr	r3, r3, r1, lsl #20
 1171              	.LVL110:
1008:../../source/src/FWlib/src/stm32f10x_adc.c ****   /* Store the new register value */
1009:../../source/src/FWlib/src/stm32f10x_adc.c ****   ADCx->JSQR = tmpreg1;
 1172              		.loc 1 1009 0
 1173 02ec 8363     		str	r3, [r0, #56]
1010:../../source/src/FWlib/src/stm32f10x_adc.c **** }
 1174              		.loc 1 1010 0
 1175 02ee 7047     		bx	lr
 1176              		.cfi_endproc
 1177              	.LFE54:
 1178              		.size	ADC_InjectedSequencerLengthConfig, .-ADC_InjectedSequencerLengthConfig
 1179              		.align	1
 1180              		.p2align 2,,3
 1181              		.global	ADC_SetInjectedOffset
 1182              		.syntax unified
 1183              		.thumb
 1184              		.thumb_func
 1185              		.fpu softvfp
 1186              		.type	ADC_SetInjectedOffset, %function
 1187              	ADC_SetInjectedOffset:
 1188              	.LFB55:
1011:../../source/src/FWlib/src/stm32f10x_adc.c **** 
1012:../../source/src/FWlib/src/stm32f10x_adc.c **** /**
ARM GAS  G:\Users\Jaxb\AppData\Local\Temp\ccclxmrG.s 			page 41


1013:../../source/src/FWlib/src/stm32f10x_adc.c ****   * @brief  Set the injected channels conversion value offset
1014:../../source/src/FWlib/src/stm32f10x_adc.c ****   * @param  ADCx: where x can be 1, 2 or 3 to select the ADC peripheral.
1015:../../source/src/FWlib/src/stm32f10x_adc.c ****   * @param  ADC_InjectedChannel: the ADC injected channel to set its offset. 
1016:../../source/src/FWlib/src/stm32f10x_adc.c ****   *   This parameter can be one of the following values:
1017:../../source/src/FWlib/src/stm32f10x_adc.c ****   *     @arg ADC_InjectedChannel_1: Injected Channel1 selected
1018:../../source/src/FWlib/src/stm32f10x_adc.c ****   *     @arg ADC_InjectedChannel_2: Injected Channel2 selected
1019:../../source/src/FWlib/src/stm32f10x_adc.c ****   *     @arg ADC_InjectedChannel_3: Injected Channel3 selected
1020:../../source/src/FWlib/src/stm32f10x_adc.c ****   *     @arg ADC_InjectedChannel_4: Injected Channel4 selected
1021:../../source/src/FWlib/src/stm32f10x_adc.c ****   * @param  Offset: the offset value for the selected ADC injected channel
1022:../../source/src/FWlib/src/stm32f10x_adc.c ****   *   This parameter must be a 12bit value.
1023:../../source/src/FWlib/src/stm32f10x_adc.c ****   * @retval None
1024:../../source/src/FWlib/src/stm32f10x_adc.c ****   */
1025:../../source/src/FWlib/src/stm32f10x_adc.c **** void ADC_SetInjectedOffset(ADC_TypeDef* ADCx, uint8_t ADC_InjectedChannel, uint16_t Offset)
1026:../../source/src/FWlib/src/stm32f10x_adc.c **** {
 1189              		.loc 1 1026 0
 1190              		.cfi_startproc
 1191              		@ args = 0, pretend = 0, frame = 8
 1192              		@ frame_needed = 0, uses_anonymous_args = 0
 1193              		@ link register save eliminated.
 1194              	.LVL111:
1027:../../source/src/FWlib/src/stm32f10x_adc.c ****   __IO uint32_t tmp = 0;
 1195              		.loc 1 1027 0
 1196 02f0 0023     		movs	r3, #0
1026:../../source/src/FWlib/src/stm32f10x_adc.c ****   __IO uint32_t tmp = 0;
 1197              		.loc 1 1026 0
 1198 02f2 82B0     		sub	sp, sp, #8
 1199              	.LCFI17:
 1200              		.cfi_def_cfa_offset 8
 1201              		.loc 1 1027 0
 1202 02f4 0193     		str	r3, [sp, #4]
1028:../../source/src/FWlib/src/stm32f10x_adc.c ****   
1029:../../source/src/FWlib/src/stm32f10x_adc.c ****   /* Check the parameters */
1030:../../source/src/FWlib/src/stm32f10x_adc.c ****   assert_param(IS_ADC_ALL_PERIPH(ADCx));
1031:../../source/src/FWlib/src/stm32f10x_adc.c ****   assert_param(IS_ADC_INJECTED_CHANNEL(ADC_InjectedChannel));
1032:../../source/src/FWlib/src/stm32f10x_adc.c ****   assert_param(IS_ADC_OFFSET(Offset));  
1033:../../source/src/FWlib/src/stm32f10x_adc.c ****   
1034:../../source/src/FWlib/src/stm32f10x_adc.c ****   tmp = (uint32_t)ADCx;
 1203              		.loc 1 1034 0
 1204 02f6 0190     		str	r0, [sp, #4]
1035:../../source/src/FWlib/src/stm32f10x_adc.c ****   tmp += ADC_InjectedChannel;
 1205              		.loc 1 1035 0
 1206 02f8 019B     		ldr	r3, [sp, #4]
 1207 02fa 1944     		add	r1, r1, r3
 1208              	.LVL112:
 1209 02fc 0191     		str	r1, [sp, #4]
1036:../../source/src/FWlib/src/stm32f10x_adc.c ****   
1037:../../source/src/FWlib/src/stm32f10x_adc.c ****   /* Set the selected injected channel data offset */
1038:../../source/src/FWlib/src/stm32f10x_adc.c ****   *(__IO uint32_t *) tmp = (uint32_t)Offset;
 1210              		.loc 1 1038 0
 1211 02fe 019B     		ldr	r3, [sp, #4]
 1212 0300 1A60     		str	r2, [r3]
1039:../../source/src/FWlib/src/stm32f10x_adc.c **** }
 1213              		.loc 1 1039 0
 1214 0302 02B0     		add	sp, sp, #8
 1215              	.LCFI18:
 1216              		.cfi_def_cfa_offset 0
 1217              		@ sp needed
ARM GAS  G:\Users\Jaxb\AppData\Local\Temp\ccclxmrG.s 			page 42


 1218 0304 7047     		bx	lr
 1219              		.cfi_endproc
 1220              	.LFE55:
 1221              		.size	ADC_SetInjectedOffset, .-ADC_SetInjectedOffset
 1222              		.align	1
 1223 0306 00BF     		.p2align 2,,3
 1224              		.global	ADC_GetInjectedConversionValue
 1225              		.syntax unified
 1226              		.thumb
 1227              		.thumb_func
 1228              		.fpu softvfp
 1229              		.type	ADC_GetInjectedConversionValue, %function
 1230              	ADC_GetInjectedConversionValue:
 1231              	.LFB56:
1040:../../source/src/FWlib/src/stm32f10x_adc.c **** 
1041:../../source/src/FWlib/src/stm32f10x_adc.c **** /**
1042:../../source/src/FWlib/src/stm32f10x_adc.c ****   * @brief  Returns the ADC injected channel conversion result
1043:../../source/src/FWlib/src/stm32f10x_adc.c ****   * @param  ADCx: where x can be 1, 2 or 3 to select the ADC peripheral.
1044:../../source/src/FWlib/src/stm32f10x_adc.c ****   * @param  ADC_InjectedChannel: the converted ADC injected channel.
1045:../../source/src/FWlib/src/stm32f10x_adc.c ****   *   This parameter can be one of the following values:
1046:../../source/src/FWlib/src/stm32f10x_adc.c ****   *     @arg ADC_InjectedChannel_1: Injected Channel1 selected
1047:../../source/src/FWlib/src/stm32f10x_adc.c ****   *     @arg ADC_InjectedChannel_2: Injected Channel2 selected
1048:../../source/src/FWlib/src/stm32f10x_adc.c ****   *     @arg ADC_InjectedChannel_3: Injected Channel3 selected
1049:../../source/src/FWlib/src/stm32f10x_adc.c ****   *     @arg ADC_InjectedChannel_4: Injected Channel4 selected
1050:../../source/src/FWlib/src/stm32f10x_adc.c ****   * @retval The Data conversion value.
1051:../../source/src/FWlib/src/stm32f10x_adc.c ****   */
1052:../../source/src/FWlib/src/stm32f10x_adc.c **** uint16_t ADC_GetInjectedConversionValue(ADC_TypeDef* ADCx, uint8_t ADC_InjectedChannel)
1053:../../source/src/FWlib/src/stm32f10x_adc.c **** {
 1232              		.loc 1 1053 0
 1233              		.cfi_startproc
 1234              		@ args = 0, pretend = 0, frame = 8
 1235              		@ frame_needed = 0, uses_anonymous_args = 0
 1236              		@ link register save eliminated.
 1237              	.LVL113:
1054:../../source/src/FWlib/src/stm32f10x_adc.c ****   __IO uint32_t tmp = 0;
 1238              		.loc 1 1054 0
 1239 0308 0023     		movs	r3, #0
1053:../../source/src/FWlib/src/stm32f10x_adc.c ****   __IO uint32_t tmp = 0;
 1240              		.loc 1 1053 0
 1241 030a 82B0     		sub	sp, sp, #8
 1242              	.LCFI19:
 1243              		.cfi_def_cfa_offset 8
 1244              		.loc 1 1054 0
 1245 030c 0193     		str	r3, [sp, #4]
1055:../../source/src/FWlib/src/stm32f10x_adc.c ****   
1056:../../source/src/FWlib/src/stm32f10x_adc.c ****   /* Check the parameters */
1057:../../source/src/FWlib/src/stm32f10x_adc.c ****   assert_param(IS_ADC_ALL_PERIPH(ADCx));
1058:../../source/src/FWlib/src/stm32f10x_adc.c ****   assert_param(IS_ADC_INJECTED_CHANNEL(ADC_InjectedChannel));
1059:../../source/src/FWlib/src/stm32f10x_adc.c **** 
1060:../../source/src/FWlib/src/stm32f10x_adc.c ****   tmp = (uint32_t)ADCx;
 1246              		.loc 1 1060 0
 1247 030e 0190     		str	r0, [sp, #4]
1061:../../source/src/FWlib/src/stm32f10x_adc.c ****   tmp += ADC_InjectedChannel + JDR_Offset;
 1248              		.loc 1 1061 0
 1249 0310 019B     		ldr	r3, [sp, #4]
 1250 0312 2833     		adds	r3, r3, #40
 1251 0314 1944     		add	r1, r1, r3
ARM GAS  G:\Users\Jaxb\AppData\Local\Temp\ccclxmrG.s 			page 43


 1252              	.LVL114:
 1253 0316 0191     		str	r1, [sp, #4]
1062:../../source/src/FWlib/src/stm32f10x_adc.c ****   
1063:../../source/src/FWlib/src/stm32f10x_adc.c ****   /* Returns the selected injected channel conversion data value */
1064:../../source/src/FWlib/src/stm32f10x_adc.c ****   return (uint16_t) (*(__IO uint32_t*)  tmp);   
 1254              		.loc 1 1064 0
 1255 0318 019B     		ldr	r3, [sp, #4]
 1256 031a 1868     		ldr	r0, [r3]
 1257              	.LVL115:
1065:../../source/src/FWlib/src/stm32f10x_adc.c **** }
 1258              		.loc 1 1065 0
 1259 031c 80B2     		uxth	r0, r0
 1260 031e 02B0     		add	sp, sp, #8
 1261              	.LCFI20:
 1262              		.cfi_def_cfa_offset 0
 1263              		@ sp needed
 1264 0320 7047     		bx	lr
 1265              		.cfi_endproc
 1266              	.LFE56:
 1267              		.size	ADC_GetInjectedConversionValue, .-ADC_GetInjectedConversionValue
 1268              		.align	1
 1269 0322 00BF     		.p2align 2,,3
 1270              		.global	ADC_AnalogWatchdogCmd
 1271              		.syntax unified
 1272              		.thumb
 1273              		.thumb_func
 1274              		.fpu softvfp
 1275              		.type	ADC_AnalogWatchdogCmd, %function
 1276              	ADC_AnalogWatchdogCmd:
 1277              	.LFB57:
1066:../../source/src/FWlib/src/stm32f10x_adc.c **** 
1067:../../source/src/FWlib/src/stm32f10x_adc.c **** /**
1068:../../source/src/FWlib/src/stm32f10x_adc.c ****   * @brief  Enables or disables the analog watchdog on single/all regular
1069:../../source/src/FWlib/src/stm32f10x_adc.c ****   *         or injected channels
1070:../../source/src/FWlib/src/stm32f10x_adc.c ****   * @param  ADCx: where x can be 1, 2 or 3 to select the ADC peripheral.
1071:../../source/src/FWlib/src/stm32f10x_adc.c ****   * @param  ADC_AnalogWatchdog: the ADC analog watchdog configuration.
1072:../../source/src/FWlib/src/stm32f10x_adc.c ****   *   This parameter can be one of the following values:
1073:../../source/src/FWlib/src/stm32f10x_adc.c ****   *     @arg ADC_AnalogWatchdog_SingleRegEnable: Analog watchdog on a single regular channel
1074:../../source/src/FWlib/src/stm32f10x_adc.c ****   *     @arg ADC_AnalogWatchdog_SingleInjecEnable: Analog watchdog on a single injected channel
1075:../../source/src/FWlib/src/stm32f10x_adc.c ****   *     @arg ADC_AnalogWatchdog_SingleRegOrInjecEnable: Analog watchdog on a single regular or inje
1076:../../source/src/FWlib/src/stm32f10x_adc.c ****   *     @arg ADC_AnalogWatchdog_AllRegEnable: Analog watchdog on  all regular channel
1077:../../source/src/FWlib/src/stm32f10x_adc.c ****   *     @arg ADC_AnalogWatchdog_AllInjecEnable: Analog watchdog on  all injected channel
1078:../../source/src/FWlib/src/stm32f10x_adc.c ****   *     @arg ADC_AnalogWatchdog_AllRegAllInjecEnable: Analog watchdog on all regular and injected c
1079:../../source/src/FWlib/src/stm32f10x_adc.c ****   *     @arg ADC_AnalogWatchdog_None: No channel guarded by the analog watchdog
1080:../../source/src/FWlib/src/stm32f10x_adc.c ****   * @retval None	  
1081:../../source/src/FWlib/src/stm32f10x_adc.c ****   */
1082:../../source/src/FWlib/src/stm32f10x_adc.c **** void ADC_AnalogWatchdogCmd(ADC_TypeDef* ADCx, uint32_t ADC_AnalogWatchdog)
1083:../../source/src/FWlib/src/stm32f10x_adc.c **** {
 1278              		.loc 1 1083 0
 1279              		.cfi_startproc
 1280              		@ args = 0, pretend = 0, frame = 0
 1281              		@ frame_needed = 0, uses_anonymous_args = 0
 1282              		@ link register save eliminated.
 1283              	.LVL116:
1084:../../source/src/FWlib/src/stm32f10x_adc.c ****   uint32_t tmpreg = 0;
1085:../../source/src/FWlib/src/stm32f10x_adc.c ****   /* Check the parameters */
1086:../../source/src/FWlib/src/stm32f10x_adc.c ****   assert_param(IS_ADC_ALL_PERIPH(ADCx));
ARM GAS  G:\Users\Jaxb\AppData\Local\Temp\ccclxmrG.s 			page 44


1087:../../source/src/FWlib/src/stm32f10x_adc.c ****   assert_param(IS_ADC_ANALOG_WATCHDOG(ADC_AnalogWatchdog));
1088:../../source/src/FWlib/src/stm32f10x_adc.c ****   /* Get the old register value */
1089:../../source/src/FWlib/src/stm32f10x_adc.c ****   tmpreg = ADCx->CR1;
 1284              		.loc 1 1089 0
 1285 0324 4368     		ldr	r3, [r0, #4]
 1286              	.LVL117:
1090:../../source/src/FWlib/src/stm32f10x_adc.c ****   /* Clear AWDEN, AWDENJ and AWDSGL bits */
1091:../../source/src/FWlib/src/stm32f10x_adc.c ****   tmpreg &= CR1_AWDMode_Reset;
 1287              		.loc 1 1091 0
 1288 0326 23F44003 		bic	r3, r3, #12582912
 1289              	.LVL118:
 1290 032a 23F40073 		bic	r3, r3, #512
 1291              	.LVL119:
1092:../../source/src/FWlib/src/stm32f10x_adc.c ****   /* Set the analog watchdog enable mode */
1093:../../source/src/FWlib/src/stm32f10x_adc.c ****   tmpreg |= ADC_AnalogWatchdog;
 1292              		.loc 1 1093 0
 1293 032e 1943     		orrs	r1, r1, r3
 1294              	.LVL120:
1094:../../source/src/FWlib/src/stm32f10x_adc.c ****   /* Store the new register value */
1095:../../source/src/FWlib/src/stm32f10x_adc.c ****   ADCx->CR1 = tmpreg;
 1295              		.loc 1 1095 0
 1296 0330 4160     		str	r1, [r0, #4]
1096:../../source/src/FWlib/src/stm32f10x_adc.c **** }
 1297              		.loc 1 1096 0
 1298 0332 7047     		bx	lr
 1299              		.cfi_endproc
 1300              	.LFE57:
 1301              		.size	ADC_AnalogWatchdogCmd, .-ADC_AnalogWatchdogCmd
 1302              		.align	1
 1303              		.p2align 2,,3
 1304              		.global	ADC_AnalogWatchdogThresholdsConfig
 1305              		.syntax unified
 1306              		.thumb
 1307              		.thumb_func
 1308              		.fpu softvfp
 1309              		.type	ADC_AnalogWatchdogThresholdsConfig, %function
 1310              	ADC_AnalogWatchdogThresholdsConfig:
 1311              	.LFB58:
1097:../../source/src/FWlib/src/stm32f10x_adc.c **** 
1098:../../source/src/FWlib/src/stm32f10x_adc.c **** /**
1099:../../source/src/FWlib/src/stm32f10x_adc.c ****   * @brief  Configures the high and low thresholds of the analog watchdog.
1100:../../source/src/FWlib/src/stm32f10x_adc.c ****   * @param  ADCx: where x can be 1, 2 or 3 to select the ADC peripheral.
1101:../../source/src/FWlib/src/stm32f10x_adc.c ****   * @param  HighThreshold: the ADC analog watchdog High threshold value.
1102:../../source/src/FWlib/src/stm32f10x_adc.c ****   *   This parameter must be a 12bit value.
1103:../../source/src/FWlib/src/stm32f10x_adc.c ****   * @param  LowThreshold: the ADC analog watchdog Low threshold value.
1104:../../source/src/FWlib/src/stm32f10x_adc.c ****   *   This parameter must be a 12bit value.
1105:../../source/src/FWlib/src/stm32f10x_adc.c ****   * @retval None
1106:../../source/src/FWlib/src/stm32f10x_adc.c ****   */
1107:../../source/src/FWlib/src/stm32f10x_adc.c **** void ADC_AnalogWatchdogThresholdsConfig(ADC_TypeDef* ADCx, uint16_t HighThreshold,
1108:../../source/src/FWlib/src/stm32f10x_adc.c ****                                         uint16_t LowThreshold)
1109:../../source/src/FWlib/src/stm32f10x_adc.c **** {
 1312              		.loc 1 1109 0
 1313              		.cfi_startproc
 1314              		@ args = 0, pretend = 0, frame = 0
 1315              		@ frame_needed = 0, uses_anonymous_args = 0
 1316              		@ link register save eliminated.
 1317              	.LVL121:
ARM GAS  G:\Users\Jaxb\AppData\Local\Temp\ccclxmrG.s 			page 45


1110:../../source/src/FWlib/src/stm32f10x_adc.c ****   /* Check the parameters */
1111:../../source/src/FWlib/src/stm32f10x_adc.c ****   assert_param(IS_ADC_ALL_PERIPH(ADCx));
1112:../../source/src/FWlib/src/stm32f10x_adc.c ****   assert_param(IS_ADC_THRESHOLD(HighThreshold));
1113:../../source/src/FWlib/src/stm32f10x_adc.c ****   assert_param(IS_ADC_THRESHOLD(LowThreshold));
1114:../../source/src/FWlib/src/stm32f10x_adc.c ****   /* Set the ADCx high threshold */
1115:../../source/src/FWlib/src/stm32f10x_adc.c ****   ADCx->HTR = HighThreshold;
 1318              		.loc 1 1115 0
 1319 0334 4162     		str	r1, [r0, #36]
1116:../../source/src/FWlib/src/stm32f10x_adc.c ****   /* Set the ADCx low threshold */
1117:../../source/src/FWlib/src/stm32f10x_adc.c ****   ADCx->LTR = LowThreshold;
 1320              		.loc 1 1117 0
 1321 0336 8262     		str	r2, [r0, #40]
1118:../../source/src/FWlib/src/stm32f10x_adc.c **** }
 1322              		.loc 1 1118 0
 1323 0338 7047     		bx	lr
 1324              		.cfi_endproc
 1325              	.LFE58:
 1326              		.size	ADC_AnalogWatchdogThresholdsConfig, .-ADC_AnalogWatchdogThresholdsConfig
 1327              		.align	1
 1328 033a 00BF     		.p2align 2,,3
 1329              		.global	ADC_AnalogWatchdogSingleChannelConfig
 1330              		.syntax unified
 1331              		.thumb
 1332              		.thumb_func
 1333              		.fpu softvfp
 1334              		.type	ADC_AnalogWatchdogSingleChannelConfig, %function
 1335              	ADC_AnalogWatchdogSingleChannelConfig:
 1336              	.LFB59:
1119:../../source/src/FWlib/src/stm32f10x_adc.c **** 
1120:../../source/src/FWlib/src/stm32f10x_adc.c **** /**
1121:../../source/src/FWlib/src/stm32f10x_adc.c ****   * @brief  Configures the analog watchdog guarded single channel
1122:../../source/src/FWlib/src/stm32f10x_adc.c ****   * @param  ADCx: where x can be 1, 2 or 3 to select the ADC peripheral.
1123:../../source/src/FWlib/src/stm32f10x_adc.c ****   * @param  ADC_Channel: the ADC channel to configure for the analog watchdog. 
1124:../../source/src/FWlib/src/stm32f10x_adc.c ****   *   This parameter can be one of the following values:
1125:../../source/src/FWlib/src/stm32f10x_adc.c ****   *     @arg ADC_Channel_0: ADC Channel0 selected
1126:../../source/src/FWlib/src/stm32f10x_adc.c ****   *     @arg ADC_Channel_1: ADC Channel1 selected
1127:../../source/src/FWlib/src/stm32f10x_adc.c ****   *     @arg ADC_Channel_2: ADC Channel2 selected
1128:../../source/src/FWlib/src/stm32f10x_adc.c ****   *     @arg ADC_Channel_3: ADC Channel3 selected
1129:../../source/src/FWlib/src/stm32f10x_adc.c ****   *     @arg ADC_Channel_4: ADC Channel4 selected
1130:../../source/src/FWlib/src/stm32f10x_adc.c ****   *     @arg ADC_Channel_5: ADC Channel5 selected
1131:../../source/src/FWlib/src/stm32f10x_adc.c ****   *     @arg ADC_Channel_6: ADC Channel6 selected
1132:../../source/src/FWlib/src/stm32f10x_adc.c ****   *     @arg ADC_Channel_7: ADC Channel7 selected
1133:../../source/src/FWlib/src/stm32f10x_adc.c ****   *     @arg ADC_Channel_8: ADC Channel8 selected
1134:../../source/src/FWlib/src/stm32f10x_adc.c ****   *     @arg ADC_Channel_9: ADC Channel9 selected
1135:../../source/src/FWlib/src/stm32f10x_adc.c ****   *     @arg ADC_Channel_10: ADC Channel10 selected
1136:../../source/src/FWlib/src/stm32f10x_adc.c ****   *     @arg ADC_Channel_11: ADC Channel11 selected
1137:../../source/src/FWlib/src/stm32f10x_adc.c ****   *     @arg ADC_Channel_12: ADC Channel12 selected
1138:../../source/src/FWlib/src/stm32f10x_adc.c ****   *     @arg ADC_Channel_13: ADC Channel13 selected
1139:../../source/src/FWlib/src/stm32f10x_adc.c ****   *     @arg ADC_Channel_14: ADC Channel14 selected
1140:../../source/src/FWlib/src/stm32f10x_adc.c ****   *     @arg ADC_Channel_15: ADC Channel15 selected
1141:../../source/src/FWlib/src/stm32f10x_adc.c ****   *     @arg ADC_Channel_16: ADC Channel16 selected
1142:../../source/src/FWlib/src/stm32f10x_adc.c ****   *     @arg ADC_Channel_17: ADC Channel17 selected
1143:../../source/src/FWlib/src/stm32f10x_adc.c ****   * @retval None
1144:../../source/src/FWlib/src/stm32f10x_adc.c ****   */
1145:../../source/src/FWlib/src/stm32f10x_adc.c **** void ADC_AnalogWatchdogSingleChannelConfig(ADC_TypeDef* ADCx, uint8_t ADC_Channel)
1146:../../source/src/FWlib/src/stm32f10x_adc.c **** {
 1337              		.loc 1 1146 0
ARM GAS  G:\Users\Jaxb\AppData\Local\Temp\ccclxmrG.s 			page 46


 1338              		.cfi_startproc
 1339              		@ args = 0, pretend = 0, frame = 0
 1340              		@ frame_needed = 0, uses_anonymous_args = 0
 1341              		@ link register save eliminated.
 1342              	.LVL122:
1147:../../source/src/FWlib/src/stm32f10x_adc.c ****   uint32_t tmpreg = 0;
1148:../../source/src/FWlib/src/stm32f10x_adc.c ****   /* Check the parameters */
1149:../../source/src/FWlib/src/stm32f10x_adc.c ****   assert_param(IS_ADC_ALL_PERIPH(ADCx));
1150:../../source/src/FWlib/src/stm32f10x_adc.c ****   assert_param(IS_ADC_CHANNEL(ADC_Channel));
1151:../../source/src/FWlib/src/stm32f10x_adc.c ****   /* Get the old register value */
1152:../../source/src/FWlib/src/stm32f10x_adc.c ****   tmpreg = ADCx->CR1;
 1343              		.loc 1 1152 0
 1344 033c 4368     		ldr	r3, [r0, #4]
 1345              	.LVL123:
1153:../../source/src/FWlib/src/stm32f10x_adc.c ****   /* Clear the Analog watchdog channel select bits */
1154:../../source/src/FWlib/src/stm32f10x_adc.c ****   tmpreg &= CR1_AWDCH_Reset;
 1346              		.loc 1 1154 0
 1347 033e 23F01F03 		bic	r3, r3, #31
 1348              	.LVL124:
1155:../../source/src/FWlib/src/stm32f10x_adc.c ****   /* Set the Analog watchdog channel */
1156:../../source/src/FWlib/src/stm32f10x_adc.c ****   tmpreg |= ADC_Channel;
 1349              		.loc 1 1156 0
 1350 0342 1943     		orrs	r1, r1, r3
 1351              	.LVL125:
1157:../../source/src/FWlib/src/stm32f10x_adc.c ****   /* Store the new register value */
1158:../../source/src/FWlib/src/stm32f10x_adc.c ****   ADCx->CR1 = tmpreg;
 1352              		.loc 1 1158 0
 1353 0344 4160     		str	r1, [r0, #4]
1159:../../source/src/FWlib/src/stm32f10x_adc.c **** }
 1354              		.loc 1 1159 0
 1355 0346 7047     		bx	lr
 1356              		.cfi_endproc
 1357              	.LFE59:
 1358              		.size	ADC_AnalogWatchdogSingleChannelConfig, .-ADC_AnalogWatchdogSingleChannelConfig
 1359              		.align	1
 1360              		.p2align 2,,3
 1361              		.global	ADC_TempSensorVrefintCmd
 1362              		.syntax unified
 1363              		.thumb
 1364              		.thumb_func
 1365              		.fpu softvfp
 1366              		.type	ADC_TempSensorVrefintCmd, %function
 1367              	ADC_TempSensorVrefintCmd:
 1368              	.LFB60:
1160:../../source/src/FWlib/src/stm32f10x_adc.c **** 
1161:../../source/src/FWlib/src/stm32f10x_adc.c **** /**
1162:../../source/src/FWlib/src/stm32f10x_adc.c ****   * @brief  Enables or disables the temperature sensor and Vrefint channel.
1163:../../source/src/FWlib/src/stm32f10x_adc.c ****   * @param  NewState: new state of the temperature sensor.
1164:../../source/src/FWlib/src/stm32f10x_adc.c ****   *   This parameter can be: ENABLE or DISABLE.
1165:../../source/src/FWlib/src/stm32f10x_adc.c ****   * @retval None
1166:../../source/src/FWlib/src/stm32f10x_adc.c ****   */
1167:../../source/src/FWlib/src/stm32f10x_adc.c **** void ADC_TempSensorVrefintCmd(FunctionalState NewState)
1168:../../source/src/FWlib/src/stm32f10x_adc.c **** {
 1369              		.loc 1 1168 0
 1370              		.cfi_startproc
 1371              		@ args = 0, pretend = 0, frame = 0
 1372              		@ frame_needed = 0, uses_anonymous_args = 0
ARM GAS  G:\Users\Jaxb\AppData\Local\Temp\ccclxmrG.s 			page 47


 1373              		@ link register save eliminated.
 1374              	.LVL126:
1169:../../source/src/FWlib/src/stm32f10x_adc.c ****   /* Check the parameters */
1170:../../source/src/FWlib/src/stm32f10x_adc.c ****   assert_param(IS_FUNCTIONAL_STATE(NewState));
1171:../../source/src/FWlib/src/stm32f10x_adc.c ****   if (NewState != DISABLE)
1172:../../source/src/FWlib/src/stm32f10x_adc.c ****   {
1173:../../source/src/FWlib/src/stm32f10x_adc.c ****     /* Enable the temperature sensor and Vrefint channel*/
1174:../../source/src/FWlib/src/stm32f10x_adc.c ****     ADC1->CR2 |= CR2_TSVREFE_Set;
 1375              		.loc 1 1174 0
 1376 0348 054A     		ldr	r2, .L89
 1377 034a 9368     		ldr	r3, [r2, #8]
1171:../../source/src/FWlib/src/stm32f10x_adc.c ****   {
 1378              		.loc 1 1171 0
 1379 034c 18B9     		cbnz	r0, .L88
1175:../../source/src/FWlib/src/stm32f10x_adc.c ****   }
1176:../../source/src/FWlib/src/stm32f10x_adc.c ****   else
1177:../../source/src/FWlib/src/stm32f10x_adc.c ****   {
1178:../../source/src/FWlib/src/stm32f10x_adc.c ****     /* Disable the temperature sensor and Vrefint channel*/
1179:../../source/src/FWlib/src/stm32f10x_adc.c ****     ADC1->CR2 &= CR2_TSVREFE_Reset;
 1380              		.loc 1 1179 0
 1381 034e 23F40003 		bic	r3, r3, #8388608
 1382 0352 9360     		str	r3, [r2, #8]
1180:../../source/src/FWlib/src/stm32f10x_adc.c ****   }
1181:../../source/src/FWlib/src/stm32f10x_adc.c **** }
 1383              		.loc 1 1181 0
 1384 0354 7047     		bx	lr
 1385              	.L88:
1174:../../source/src/FWlib/src/stm32f10x_adc.c ****   }
 1386              		.loc 1 1174 0
 1387 0356 43F40003 		orr	r3, r3, #8388608
 1388 035a 9360     		str	r3, [r2, #8]
 1389 035c 7047     		bx	lr
 1390              	.L90:
 1391 035e 00BF     		.align	2
 1392              	.L89:
 1393 0360 00240140 		.word	1073816576
 1394              		.cfi_endproc
 1395              	.LFE60:
 1396              		.size	ADC_TempSensorVrefintCmd, .-ADC_TempSensorVrefintCmd
 1397              		.align	1
 1398              		.p2align 2,,3
 1399              		.global	ADC_GetFlagStatus
 1400              		.syntax unified
 1401              		.thumb
 1402              		.thumb_func
 1403              		.fpu softvfp
 1404              		.type	ADC_GetFlagStatus, %function
 1405              	ADC_GetFlagStatus:
 1406              	.LFB61:
1182:../../source/src/FWlib/src/stm32f10x_adc.c **** 
1183:../../source/src/FWlib/src/stm32f10x_adc.c **** /**
1184:../../source/src/FWlib/src/stm32f10x_adc.c ****   * @brief  Checks whether the specified ADC flag is set or not.
1185:../../source/src/FWlib/src/stm32f10x_adc.c ****   * @param  ADCx: where x can be 1, 2 or 3 to select the ADC peripheral.
1186:../../source/src/FWlib/src/stm32f10x_adc.c ****   * @param  ADC_FLAG: specifies the flag to check. 
1187:../../source/src/FWlib/src/stm32f10x_adc.c ****   *   This parameter can be one of the following values:
1188:../../source/src/FWlib/src/stm32f10x_adc.c ****   *     @arg ADC_FLAG_AWD: Analog watchdog flag
1189:../../source/src/FWlib/src/stm32f10x_adc.c ****   *     @arg ADC_FLAG_EOC: End of conversion flag
ARM GAS  G:\Users\Jaxb\AppData\Local\Temp\ccclxmrG.s 			page 48


1190:../../source/src/FWlib/src/stm32f10x_adc.c ****   *     @arg ADC_FLAG_JEOC: End of injected group conversion flag
1191:../../source/src/FWlib/src/stm32f10x_adc.c ****   *     @arg ADC_FLAG_JSTRT: Start of injected group conversion flag
1192:../../source/src/FWlib/src/stm32f10x_adc.c ****   *     @arg ADC_FLAG_STRT: Start of regular group conversion flag
1193:../../source/src/FWlib/src/stm32f10x_adc.c ****   * @retval The new state of ADC_FLAG (SET or RESET).
1194:../../source/src/FWlib/src/stm32f10x_adc.c ****   */
1195:../../source/src/FWlib/src/stm32f10x_adc.c **** FlagStatus ADC_GetFlagStatus(ADC_TypeDef* ADCx, uint8_t ADC_FLAG)
1196:../../source/src/FWlib/src/stm32f10x_adc.c **** {
 1407              		.loc 1 1196 0
 1408              		.cfi_startproc
 1409              		@ args = 0, pretend = 0, frame = 0
 1410              		@ frame_needed = 0, uses_anonymous_args = 0
 1411              		@ link register save eliminated.
 1412              	.LVL127:
1197:../../source/src/FWlib/src/stm32f10x_adc.c ****   FlagStatus bitstatus = RESET;
1198:../../source/src/FWlib/src/stm32f10x_adc.c ****   /* Check the parameters */
1199:../../source/src/FWlib/src/stm32f10x_adc.c ****   assert_param(IS_ADC_ALL_PERIPH(ADCx));
1200:../../source/src/FWlib/src/stm32f10x_adc.c ****   assert_param(IS_ADC_GET_FLAG(ADC_FLAG));
1201:../../source/src/FWlib/src/stm32f10x_adc.c ****   /* Check the status of the specified ADC flag */
1202:../../source/src/FWlib/src/stm32f10x_adc.c ****   if ((ADCx->SR & ADC_FLAG) != (uint8_t)RESET)
 1413              		.loc 1 1202 0
 1414 0364 0368     		ldr	r3, [r0]
 1415              	.LVL128:
 1416 0366 1942     		tst	r1, r3
1203:../../source/src/FWlib/src/stm32f10x_adc.c ****   {
1204:../../source/src/FWlib/src/stm32f10x_adc.c ****     /* ADC_FLAG is set */
1205:../../source/src/FWlib/src/stm32f10x_adc.c ****     bitstatus = SET;
1206:../../source/src/FWlib/src/stm32f10x_adc.c ****   }
1207:../../source/src/FWlib/src/stm32f10x_adc.c ****   else
1208:../../source/src/FWlib/src/stm32f10x_adc.c ****   {
1209:../../source/src/FWlib/src/stm32f10x_adc.c ****     /* ADC_FLAG is reset */
1210:../../source/src/FWlib/src/stm32f10x_adc.c ****     bitstatus = RESET;
1211:../../source/src/FWlib/src/stm32f10x_adc.c ****   }
1212:../../source/src/FWlib/src/stm32f10x_adc.c ****   /* Return the ADC_FLAG status */
1213:../../source/src/FWlib/src/stm32f10x_adc.c ****   return  bitstatus;
1214:../../source/src/FWlib/src/stm32f10x_adc.c **** }
 1417              		.loc 1 1214 0
 1418 0368 14BF     		ite	ne
 1419 036a 0120     		movne	r0, #1
 1420              	.LVL129:
 1421 036c 0020     		moveq	r0, #0
 1422 036e 7047     		bx	lr
 1423              		.cfi_endproc
 1424              	.LFE61:
 1425              		.size	ADC_GetFlagStatus, .-ADC_GetFlagStatus
 1426              		.align	1
 1427              		.p2align 2,,3
 1428              		.global	ADC_ClearFlag
 1429              		.syntax unified
 1430              		.thumb
 1431              		.thumb_func
 1432              		.fpu softvfp
 1433              		.type	ADC_ClearFlag, %function
 1434              	ADC_ClearFlag:
 1435              	.LFB62:
1215:../../source/src/FWlib/src/stm32f10x_adc.c **** 
1216:../../source/src/FWlib/src/stm32f10x_adc.c **** /**
1217:../../source/src/FWlib/src/stm32f10x_adc.c ****   * @brief  Clears the ADCx's pending flags.
ARM GAS  G:\Users\Jaxb\AppData\Local\Temp\ccclxmrG.s 			page 49


1218:../../source/src/FWlib/src/stm32f10x_adc.c ****   * @param  ADCx: where x can be 1, 2 or 3 to select the ADC peripheral.
1219:../../source/src/FWlib/src/stm32f10x_adc.c ****   * @param  ADC_FLAG: specifies the flag to clear. 
1220:../../source/src/FWlib/src/stm32f10x_adc.c ****   *   This parameter can be any combination of the following values:
1221:../../source/src/FWlib/src/stm32f10x_adc.c ****   *     @arg ADC_FLAG_AWD: Analog watchdog flag
1222:../../source/src/FWlib/src/stm32f10x_adc.c ****   *     @arg ADC_FLAG_EOC: End of conversion flag
1223:../../source/src/FWlib/src/stm32f10x_adc.c ****   *     @arg ADC_FLAG_JEOC: End of injected group conversion flag
1224:../../source/src/FWlib/src/stm32f10x_adc.c ****   *     @arg ADC_FLAG_JSTRT: Start of injected group conversion flag
1225:../../source/src/FWlib/src/stm32f10x_adc.c ****   *     @arg ADC_FLAG_STRT: Start of regular group conversion flag
1226:../../source/src/FWlib/src/stm32f10x_adc.c ****   * @retval None
1227:../../source/src/FWlib/src/stm32f10x_adc.c ****   */
1228:../../source/src/FWlib/src/stm32f10x_adc.c **** void ADC_ClearFlag(ADC_TypeDef* ADCx, uint8_t ADC_FLAG)
1229:../../source/src/FWlib/src/stm32f10x_adc.c **** {
 1436              		.loc 1 1229 0
 1437              		.cfi_startproc
 1438              		@ args = 0, pretend = 0, frame = 0
 1439              		@ frame_needed = 0, uses_anonymous_args = 0
 1440              		@ link register save eliminated.
 1441              	.LVL130:
1230:../../source/src/FWlib/src/stm32f10x_adc.c ****   /* Check the parameters */
1231:../../source/src/FWlib/src/stm32f10x_adc.c ****   assert_param(IS_ADC_ALL_PERIPH(ADCx));
1232:../../source/src/FWlib/src/stm32f10x_adc.c ****   assert_param(IS_ADC_CLEAR_FLAG(ADC_FLAG));
1233:../../source/src/FWlib/src/stm32f10x_adc.c ****   /* Clear the selected ADC flags */
1234:../../source/src/FWlib/src/stm32f10x_adc.c ****   ADCx->SR = ~(uint32_t)ADC_FLAG;
 1442              		.loc 1 1234 0
 1443 0370 C943     		mvns	r1, r1
 1444              	.LVL131:
 1445 0372 0160     		str	r1, [r0]
1235:../../source/src/FWlib/src/stm32f10x_adc.c **** }
 1446              		.loc 1 1235 0
 1447 0374 7047     		bx	lr
 1448              		.cfi_endproc
 1449              	.LFE62:
 1450              		.size	ADC_ClearFlag, .-ADC_ClearFlag
 1451              		.align	1
 1452 0376 00BF     		.p2align 2,,3
 1453              		.global	ADC_GetITStatus
 1454              		.syntax unified
 1455              		.thumb
 1456              		.thumb_func
 1457              		.fpu softvfp
 1458              		.type	ADC_GetITStatus, %function
 1459              	ADC_GetITStatus:
 1460              	.LFB63:
1236:../../source/src/FWlib/src/stm32f10x_adc.c **** 
1237:../../source/src/FWlib/src/stm32f10x_adc.c **** /**
1238:../../source/src/FWlib/src/stm32f10x_adc.c ****   * @brief  Checks whether the specified ADC interrupt has occurred or not.
1239:../../source/src/FWlib/src/stm32f10x_adc.c ****   * @param  ADCx: where x can be 1, 2 or 3 to select the ADC peripheral.
1240:../../source/src/FWlib/src/stm32f10x_adc.c ****   * @param  ADC_IT: specifies the ADC interrupt source to check. 
1241:../../source/src/FWlib/src/stm32f10x_adc.c ****   *   This parameter can be one of the following values:
1242:../../source/src/FWlib/src/stm32f10x_adc.c ****   *     @arg ADC_IT_EOC: End of conversion interrupt mask
1243:../../source/src/FWlib/src/stm32f10x_adc.c ****   *     @arg ADC_IT_AWD: Analog watchdog interrupt mask
1244:../../source/src/FWlib/src/stm32f10x_adc.c ****   *     @arg ADC_IT_JEOC: End of injected conversion interrupt mask
1245:../../source/src/FWlib/src/stm32f10x_adc.c ****   * @retval The new state of ADC_IT (SET or RESET).
1246:../../source/src/FWlib/src/stm32f10x_adc.c ****   */
1247:../../source/src/FWlib/src/stm32f10x_adc.c **** ITStatus ADC_GetITStatus(ADC_TypeDef* ADCx, uint16_t ADC_IT)
1248:../../source/src/FWlib/src/stm32f10x_adc.c **** {
 1461              		.loc 1 1248 0
ARM GAS  G:\Users\Jaxb\AppData\Local\Temp\ccclxmrG.s 			page 50


 1462              		.cfi_startproc
 1463              		@ args = 0, pretend = 0, frame = 0
 1464              		@ frame_needed = 0, uses_anonymous_args = 0
 1465              		@ link register save eliminated.
 1466              	.LVL132:
1249:../../source/src/FWlib/src/stm32f10x_adc.c ****   ITStatus bitstatus = RESET;
1250:../../source/src/FWlib/src/stm32f10x_adc.c ****   uint32_t itmask = 0, enablestatus = 0;
1251:../../source/src/FWlib/src/stm32f10x_adc.c ****   /* Check the parameters */
1252:../../source/src/FWlib/src/stm32f10x_adc.c ****   assert_param(IS_ADC_ALL_PERIPH(ADCx));
1253:../../source/src/FWlib/src/stm32f10x_adc.c ****   assert_param(IS_ADC_GET_IT(ADC_IT));
1254:../../source/src/FWlib/src/stm32f10x_adc.c ****   /* Get the ADC IT index */
1255:../../source/src/FWlib/src/stm32f10x_adc.c ****   itmask = ADC_IT >> 8;
1256:../../source/src/FWlib/src/stm32f10x_adc.c ****   /* Get the ADC_IT enable bit status */
1257:../../source/src/FWlib/src/stm32f10x_adc.c ****   enablestatus = (ADCx->CR1 & (uint8_t)ADC_IT) ;
 1467              		.loc 1 1257 0
 1468 0378 4368     		ldr	r3, [r0, #4]
 1469              	.LVL133:
1258:../../source/src/FWlib/src/stm32f10x_adc.c ****   /* Check the status of the specified ADC interrupt */
1259:../../source/src/FWlib/src/stm32f10x_adc.c ****   if (((ADCx->SR & itmask) != (uint32_t)RESET) && enablestatus)
 1470              		.loc 1 1259 0
 1471 037a 0068     		ldr	r0, [r0]
 1472              	.LVL134:
 1473 037c 10EA1120 		ands	r0, r0, r1, lsr #8
 1474 0380 04D0     		beq	.L94
1257:../../source/src/FWlib/src/stm32f10x_adc.c ****   /* Check the status of the specified ADC interrupt */
 1475              		.loc 1 1257 0 discriminator 1
 1476 0382 C9B2     		uxtb	r1, r1
 1477              	.LVL135:
 1478              		.loc 1 1259 0 discriminator 1
 1479 0384 1942     		tst	r1, r3
1260:../../source/src/FWlib/src/stm32f10x_adc.c ****   {
1261:../../source/src/FWlib/src/stm32f10x_adc.c ****     /* ADC_IT is set */
1262:../../source/src/FWlib/src/stm32f10x_adc.c ****     bitstatus = SET;
 1480              		.loc 1 1262 0 discriminator 1
 1481 0386 14BF     		ite	ne
 1482 0388 0120     		movne	r0, #1
 1483 038a 0020     		moveq	r0, #0
 1484              	.LVL136:
 1485              	.L94:
1263:../../source/src/FWlib/src/stm32f10x_adc.c ****   }
1264:../../source/src/FWlib/src/stm32f10x_adc.c ****   else
1265:../../source/src/FWlib/src/stm32f10x_adc.c ****   {
1266:../../source/src/FWlib/src/stm32f10x_adc.c ****     /* ADC_IT is reset */
1267:../../source/src/FWlib/src/stm32f10x_adc.c ****     bitstatus = RESET;
1268:../../source/src/FWlib/src/stm32f10x_adc.c ****   }
1269:../../source/src/FWlib/src/stm32f10x_adc.c ****   /* Return the ADC_IT status */
1270:../../source/src/FWlib/src/stm32f10x_adc.c ****   return  bitstatus;
1271:../../source/src/FWlib/src/stm32f10x_adc.c **** }
 1486              		.loc 1 1271 0
 1487 038c 7047     		bx	lr
 1488              		.cfi_endproc
 1489              	.LFE63:
 1490              		.size	ADC_GetITStatus, .-ADC_GetITStatus
 1491              		.align	1
 1492 038e 00BF     		.p2align 2,,3
 1493              		.global	ADC_ClearITPendingBit
 1494              		.syntax unified
ARM GAS  G:\Users\Jaxb\AppData\Local\Temp\ccclxmrG.s 			page 51


 1495              		.thumb
 1496              		.thumb_func
 1497              		.fpu softvfp
 1498              		.type	ADC_ClearITPendingBit, %function
 1499              	ADC_ClearITPendingBit:
 1500              	.LFB64:
1272:../../source/src/FWlib/src/stm32f10x_adc.c **** 
1273:../../source/src/FWlib/src/stm32f10x_adc.c **** /**
1274:../../source/src/FWlib/src/stm32f10x_adc.c ****   * @brief  Clears the ADCx's interrupt pending bits.
1275:../../source/src/FWlib/src/stm32f10x_adc.c ****   * @param  ADCx: where x can be 1, 2 or 3 to select the ADC peripheral.
1276:../../source/src/FWlib/src/stm32f10x_adc.c ****   * @param  ADC_IT: specifies the ADC interrupt pending bit to clear.
1277:../../source/src/FWlib/src/stm32f10x_adc.c ****   *   This parameter can be any combination of the following values:
1278:../../source/src/FWlib/src/stm32f10x_adc.c ****   *     @arg ADC_IT_EOC: End of conversion interrupt mask
1279:../../source/src/FWlib/src/stm32f10x_adc.c ****   *     @arg ADC_IT_AWD: Analog watchdog interrupt mask
1280:../../source/src/FWlib/src/stm32f10x_adc.c ****   *     @arg ADC_IT_JEOC: End of injected conversion interrupt mask
1281:../../source/src/FWlib/src/stm32f10x_adc.c ****   * @retval None
1282:../../source/src/FWlib/src/stm32f10x_adc.c ****   */
1283:../../source/src/FWlib/src/stm32f10x_adc.c **** void ADC_ClearITPendingBit(ADC_TypeDef* ADCx, uint16_t ADC_IT)
1284:../../source/src/FWlib/src/stm32f10x_adc.c **** {
 1501              		.loc 1 1284 0
 1502              		.cfi_startproc
 1503              		@ args = 0, pretend = 0, frame = 0
 1504              		@ frame_needed = 0, uses_anonymous_args = 0
 1505              		@ link register save eliminated.
 1506              	.LVL137:
1285:../../source/src/FWlib/src/stm32f10x_adc.c ****   uint8_t itmask = 0;
1286:../../source/src/FWlib/src/stm32f10x_adc.c ****   /* Check the parameters */
1287:../../source/src/FWlib/src/stm32f10x_adc.c ****   assert_param(IS_ADC_ALL_PERIPH(ADCx));
1288:../../source/src/FWlib/src/stm32f10x_adc.c ****   assert_param(IS_ADC_IT(ADC_IT));
1289:../../source/src/FWlib/src/stm32f10x_adc.c ****   /* Get the ADC IT index */
1290:../../source/src/FWlib/src/stm32f10x_adc.c ****   itmask = (uint8_t)(ADC_IT >> 8);
1291:../../source/src/FWlib/src/stm32f10x_adc.c ****   /* Clear the selected ADC interrupt pending bits */
1292:../../source/src/FWlib/src/stm32f10x_adc.c ****   ADCx->SR = ~(uint32_t)itmask;
 1507              		.loc 1 1292 0
 1508 0390 6FEA1121 		mvn	r1, r1, lsr #8
 1509              	.LVL138:
 1510 0394 0160     		str	r1, [r0]
1293:../../source/src/FWlib/src/stm32f10x_adc.c **** }
 1511              		.loc 1 1293 0
 1512 0396 7047     		bx	lr
 1513              		.cfi_endproc
 1514              	.LFE64:
 1515              		.size	ADC_ClearITPendingBit, .-ADC_ClearITPendingBit
 1516              	.Letext0:
 1517              		.file 2 "f:\\arm\\gcc2018\\arm-none-eabi\\include\\machine\\_default_types.h"
 1518              		.file 3 "f:\\arm\\gcc2018\\arm-none-eabi\\include\\sys\\_stdint.h"
 1519              		.file 4 "../../source/include/core_cm3.h"
 1520              		.file 5 "../../source/include/system_stm32f10x.h"
 1521              		.file 6 "../../source/include/stm32f10x.h"
 1522              		.file 7 "../../source/src/FWlib/inc/stm32f10x_adc.h"
 1523              		.file 8 "../../source/src/FWlib/inc/stm32f10x_rcc.h"
 1524              		.section	.debug_info,"",%progbits
 1525              	.Ldebug_info0:
 1526 0000 EC0C0000 		.4byte	0xcec
 1527 0004 0200     		.2byte	0x2
 1528 0006 00000000 		.4byte	.Ldebug_abbrev0
 1529 000a 04       		.byte	0x4
ARM GAS  G:\Users\Jaxb\AppData\Local\Temp\ccclxmrG.s 			page 52


 1530 000b 01       		.uleb128 0x1
 1531 000c 26060000 		.4byte	.LASF103
 1532 0010 0C       		.byte	0xc
 1533 0011 26040000 		.4byte	.LASF104
 1534 0015 EF010000 		.4byte	.LASF105
 1535 0019 00000000 		.4byte	.Ltext0
 1536 001d 98030000 		.4byte	.Letext0
 1537 0021 00000000 		.4byte	.Ldebug_line0
 1538 0025 02       		.uleb128 0x2
 1539 0026 01       		.byte	0x1
 1540 0027 06       		.byte	0x6
 1541 0028 39030000 		.4byte	.LASF0
 1542 002c 03       		.uleb128 0x3
 1543 002d 47020000 		.4byte	.LASF3
 1544 0031 02       		.byte	0x2
 1545 0032 2B       		.byte	0x2b
 1546 0033 37000000 		.4byte	0x37
 1547 0037 02       		.uleb128 0x2
 1548 0038 01       		.byte	0x1
 1549 0039 08       		.byte	0x8
 1550 003a 87020000 		.4byte	.LASF1
 1551 003e 02       		.uleb128 0x2
 1552 003f 02       		.byte	0x2
 1553 0040 05       		.byte	0x5
 1554 0041 04010000 		.4byte	.LASF2
 1555 0045 03       		.uleb128 0x3
 1556 0046 F4000000 		.4byte	.LASF4
 1557 004a 02       		.byte	0x2
 1558 004b 39       		.byte	0x39
 1559 004c 50000000 		.4byte	0x50
 1560 0050 02       		.uleb128 0x2
 1561 0051 02       		.byte	0x2
 1562 0052 07       		.byte	0x7
 1563 0053 13040000 		.4byte	.LASF5
 1564 0057 02       		.uleb128 0x2
 1565 0058 04       		.byte	0x4
 1566 0059 05       		.byte	0x5
 1567 005a 39020000 		.4byte	.LASF6
 1568 005e 03       		.uleb128 0x3
 1569 005f E1000000 		.4byte	.LASF7
 1570 0063 02       		.byte	0x2
 1571 0064 4F       		.byte	0x4f
 1572 0065 69000000 		.4byte	0x69
 1573 0069 02       		.uleb128 0x2
 1574 006a 04       		.byte	0x4
 1575 006b 07       		.byte	0x7
 1576 006c 53050000 		.4byte	.LASF8
 1577 0070 02       		.uleb128 0x2
 1578 0071 08       		.byte	0x8
 1579 0072 05       		.byte	0x5
 1580 0073 1D020000 		.4byte	.LASF9
 1581 0077 02       		.uleb128 0x2
 1582 0078 08       		.byte	0x8
 1583 0079 07       		.byte	0x7
 1584 007a 45030000 		.4byte	.LASF10
 1585 007e 04       		.uleb128 0x4
 1586 007f 04       		.byte	0x4
ARM GAS  G:\Users\Jaxb\AppData\Local\Temp\ccclxmrG.s 			page 53


 1587 0080 05       		.byte	0x5
 1588 0081 696E7400 		.ascii	"int\000"
 1589 0085 05       		.uleb128 0x5
 1590 0086 7E000000 		.4byte	0x7e
 1591 008a 02       		.uleb128 0x2
 1592 008b 04       		.byte	0x4
 1593 008c 07       		.byte	0x7
 1594 008d 88030000 		.4byte	.LASF11
 1595 0091 03       		.uleb128 0x3
 1596 0092 62010000 		.4byte	.LASF12
 1597 0096 03       		.byte	0x3
 1598 0097 18       		.byte	0x18
 1599 0098 2C000000 		.4byte	0x2c
 1600 009c 03       		.uleb128 0x3
 1601 009d B4030000 		.4byte	.LASF13
 1602 00a1 03       		.byte	0x3
 1603 00a2 24       		.byte	0x24
 1604 00a3 45000000 		.4byte	0x45
 1605 00a7 03       		.uleb128 0x3
 1606 00a8 5C030000 		.4byte	.LASF14
 1607 00ac 03       		.byte	0x3
 1608 00ad 30       		.byte	0x30
 1609 00ae 5E000000 		.4byte	0x5e
 1610 00b2 05       		.uleb128 0x5
 1611 00b3 A7000000 		.4byte	0xa7
 1612 00b7 06       		.uleb128 0x6
 1613 00b8 B9050000 		.4byte	.LASF15
 1614 00bc 04       		.byte	0x4
 1615 00bd CE06     		.2byte	0x6ce
 1616 00bf 85000000 		.4byte	0x85
 1617 00c3 01       		.byte	0x1
 1618 00c4 01       		.byte	0x1
 1619 00c5 07       		.uleb128 0x7
 1620 00c6 C7040000 		.4byte	.LASF16
 1621 00ca 05       		.byte	0x5
 1622 00cb 35       		.byte	0x35
 1623 00cc A7000000 		.4byte	0xa7
 1624 00d0 01       		.byte	0x1
 1625 00d1 01       		.byte	0x1
 1626 00d2 08       		.uleb128 0x8
 1627 00d3 07       		.byte	0x7
 1628 00d4 01       		.byte	0x1
 1629 00d5 37000000 		.4byte	0x37
 1630 00d9 06       		.byte	0x6
 1631 00da 0702     		.2byte	0x207
 1632 00dc ED000000 		.4byte	0xed
 1633 00e0 09       		.uleb128 0x9
 1634 00e1 EE050000 		.4byte	.LASF17
 1635 00e5 00       		.byte	0
 1636 00e6 0A       		.uleb128 0xa
 1637 00e7 53455400 		.ascii	"SET\000"
 1638 00eb 01       		.byte	0x1
 1639 00ec 00       		.byte	0
 1640 00ed 0B       		.uleb128 0xb
 1641 00ee FB060000 		.4byte	.LASF18
 1642 00f2 06       		.byte	0x6
 1643 00f3 0702     		.2byte	0x207
ARM GAS  G:\Users\Jaxb\AppData\Local\Temp\ccclxmrG.s 			page 54


 1644 00f5 D2000000 		.4byte	0xd2
 1645 00f9 0B       		.uleb128 0xb
 1646 00fa 0E050000 		.4byte	.LASF19
 1647 00fe 06       		.byte	0x6
 1648 00ff 0702     		.2byte	0x207
 1649 0101 D2000000 		.4byte	0xd2
 1650 0105 08       		.uleb128 0x8
 1651 0106 07       		.byte	0x7
 1652 0107 01       		.byte	0x1
 1653 0108 37000000 		.4byte	0x37
 1654 010c 06       		.byte	0x6
 1655 010d 0902     		.2byte	0x209
 1656 010f 20010000 		.4byte	0x120
 1657 0113 09       		.uleb128 0x9
 1658 0114 DA010000 		.4byte	.LASF20
 1659 0118 00       		.byte	0
 1660 0119 09       		.uleb128 0x9
 1661 011a 20070000 		.4byte	.LASF21
 1662 011e 01       		.byte	0x1
 1663 011f 00       		.byte	0
 1664 0120 0B       		.uleb128 0xb
 1665 0121 A9050000 		.4byte	.LASF22
 1666 0125 06       		.byte	0x6
 1667 0126 0902     		.2byte	0x209
 1668 0128 05010000 		.4byte	0x105
 1669 012c 0C       		.uleb128 0xc
 1670 012d 50       		.byte	0x50
 1671 012e 06       		.byte	0x6
 1672 012f 1E02     		.2byte	0x21e
 1673 0131 60020000 		.4byte	0x260
 1674 0135 0D       		.uleb128 0xd
 1675 0136 535200   		.ascii	"SR\000"
 1676 0139 06       		.byte	0x6
 1677 013a 2002     		.2byte	0x220
 1678 013c B2000000 		.4byte	0xb2
 1679 0140 02       		.byte	0x2
 1680 0141 23       		.byte	0x23
 1681 0142 00       		.uleb128 0
 1682 0143 0D       		.uleb128 0xd
 1683 0144 43523100 		.ascii	"CR1\000"
 1684 0148 06       		.byte	0x6
 1685 0149 2102     		.2byte	0x221
 1686 014b B2000000 		.4byte	0xb2
 1687 014f 02       		.byte	0x2
 1688 0150 23       		.byte	0x23
 1689 0151 04       		.uleb128 0x4
 1690 0152 0D       		.uleb128 0xd
 1691 0153 43523200 		.ascii	"CR2\000"
 1692 0157 06       		.byte	0x6
 1693 0158 2202     		.2byte	0x222
 1694 015a B2000000 		.4byte	0xb2
 1695 015e 02       		.byte	0x2
 1696 015f 23       		.byte	0x23
 1697 0160 08       		.uleb128 0x8
 1698 0161 0E       		.uleb128 0xe
 1699 0162 E6060000 		.4byte	.LASF23
 1700 0166 06       		.byte	0x6
ARM GAS  G:\Users\Jaxb\AppData\Local\Temp\ccclxmrG.s 			page 55


 1701 0167 2302     		.2byte	0x223
 1702 0169 B2000000 		.4byte	0xb2
 1703 016d 02       		.byte	0x2
 1704 016e 23       		.byte	0x23
 1705 016f 0C       		.uleb128 0xc
 1706 0170 0E       		.uleb128 0xe
 1707 0171 EC060000 		.4byte	.LASF24
 1708 0175 06       		.byte	0x6
 1709 0176 2402     		.2byte	0x224
 1710 0178 B2000000 		.4byte	0xb2
 1711 017c 02       		.byte	0x2
 1712 017d 23       		.byte	0x23
 1713 017e 10       		.uleb128 0x10
 1714 017f 0E       		.uleb128 0xe
 1715 0180 D8050000 		.4byte	.LASF25
 1716 0184 06       		.byte	0x6
 1717 0185 2502     		.2byte	0x225
 1718 0187 B2000000 		.4byte	0xb2
 1719 018b 02       		.byte	0x2
 1720 018c 23       		.byte	0x23
 1721 018d 14       		.uleb128 0x14
 1722 018e 0E       		.uleb128 0xe
 1723 018f F4050000 		.4byte	.LASF26
 1724 0193 06       		.byte	0x6
 1725 0194 2602     		.2byte	0x226
 1726 0196 B2000000 		.4byte	0xb2
 1727 019a 02       		.byte	0x2
 1728 019b 23       		.byte	0x23
 1729 019c 18       		.uleb128 0x18
 1730 019d 0E       		.uleb128 0xe
 1731 019e DA030000 		.4byte	.LASF27
 1732 01a2 06       		.byte	0x6
 1733 01a3 2702     		.2byte	0x227
 1734 01a5 B2000000 		.4byte	0xb2
 1735 01a9 02       		.byte	0x2
 1736 01aa 23       		.byte	0x23
 1737 01ab 1C       		.uleb128 0x1c
 1738 01ac 0E       		.uleb128 0xe
 1739 01ad B9020000 		.4byte	.LASF28
 1740 01b1 06       		.byte	0x6
 1741 01b2 2802     		.2byte	0x228
 1742 01b4 B2000000 		.4byte	0xb2
 1743 01b8 02       		.byte	0x2
 1744 01b9 23       		.byte	0x23
 1745 01ba 20       		.uleb128 0x20
 1746 01bb 0D       		.uleb128 0xd
 1747 01bc 48545200 		.ascii	"HTR\000"
 1748 01c0 06       		.byte	0x6
 1749 01c1 2902     		.2byte	0x229
 1750 01c3 B2000000 		.4byte	0xb2
 1751 01c7 02       		.byte	0x2
 1752 01c8 23       		.byte	0x23
 1753 01c9 24       		.uleb128 0x24
 1754 01ca 0D       		.uleb128 0xd
 1755 01cb 4C545200 		.ascii	"LTR\000"
 1756 01cf 06       		.byte	0x6
 1757 01d0 2A02     		.2byte	0x22a
ARM GAS  G:\Users\Jaxb\AppData\Local\Temp\ccclxmrG.s 			page 56


 1758 01d2 B2000000 		.4byte	0xb2
 1759 01d6 02       		.byte	0x2
 1760 01d7 23       		.byte	0x23
 1761 01d8 28       		.uleb128 0x28
 1762 01d9 0E       		.uleb128 0xe
 1763 01da 02060000 		.4byte	.LASF29
 1764 01de 06       		.byte	0x6
 1765 01df 2B02     		.2byte	0x22b
 1766 01e1 B2000000 		.4byte	0xb2
 1767 01e5 02       		.byte	0x2
 1768 01e6 23       		.byte	0x23
 1769 01e7 2C       		.uleb128 0x2c
 1770 01e8 0E       		.uleb128 0xe
 1771 01e9 07060000 		.4byte	.LASF30
 1772 01ed 06       		.byte	0x6
 1773 01ee 2C02     		.2byte	0x22c
 1774 01f0 B2000000 		.4byte	0xb2
 1775 01f4 02       		.byte	0x2
 1776 01f5 23       		.byte	0x23
 1777 01f6 30       		.uleb128 0x30
 1778 01f7 0E       		.uleb128 0xe
 1779 01f8 0C060000 		.4byte	.LASF31
 1780 01fc 06       		.byte	0x6
 1781 01fd 2D02     		.2byte	0x22d
 1782 01ff B2000000 		.4byte	0xb2
 1783 0203 02       		.byte	0x2
 1784 0204 23       		.byte	0x23
 1785 0205 34       		.uleb128 0x34
 1786 0206 0E       		.uleb128 0xe
 1787 0207 FF000000 		.4byte	.LASF32
 1788 020b 06       		.byte	0x6
 1789 020c 2E02     		.2byte	0x22e
 1790 020e B2000000 		.4byte	0xb2
 1791 0212 02       		.byte	0x2
 1792 0213 23       		.byte	0x23
 1793 0214 38       		.uleb128 0x38
 1794 0215 0E       		.uleb128 0xe
 1795 0216 42020000 		.4byte	.LASF33
 1796 021a 06       		.byte	0x6
 1797 021b 2F02     		.2byte	0x22f
 1798 021d B2000000 		.4byte	0xb2
 1799 0221 02       		.byte	0x2
 1800 0222 23       		.byte	0x23
 1801 0223 3C       		.uleb128 0x3c
 1802 0224 0E       		.uleb128 0xe
 1803 0225 63000000 		.4byte	.LASF34
 1804 0229 06       		.byte	0x6
 1805 022a 3002     		.2byte	0x230
 1806 022c B2000000 		.4byte	0xb2
 1807 0230 02       		.byte	0x2
 1808 0231 23       		.byte	0x23
 1809 0232 40       		.uleb128 0x40
 1810 0233 0E       		.uleb128 0xe
 1811 0234 68000000 		.4byte	.LASF35
 1812 0238 06       		.byte	0x6
 1813 0239 3102     		.2byte	0x231
 1814 023b B2000000 		.4byte	0xb2
ARM GAS  G:\Users\Jaxb\AppData\Local\Temp\ccclxmrG.s 			page 57


 1815 023f 02       		.byte	0x2
 1816 0240 23       		.byte	0x23
 1817 0241 44       		.uleb128 0x44
 1818 0242 0E       		.uleb128 0xe
 1819 0243 6D000000 		.4byte	.LASF36
 1820 0247 06       		.byte	0x6
 1821 0248 3202     		.2byte	0x232
 1822 024a B2000000 		.4byte	0xb2
 1823 024e 02       		.byte	0x2
 1824 024f 23       		.byte	0x23
 1825 0250 48       		.uleb128 0x48
 1826 0251 0D       		.uleb128 0xd
 1827 0252 445200   		.ascii	"DR\000"
 1828 0255 06       		.byte	0x6
 1829 0256 3302     		.2byte	0x233
 1830 0258 B2000000 		.4byte	0xb2
 1831 025c 02       		.byte	0x2
 1832 025d 23       		.byte	0x23
 1833 025e 4C       		.uleb128 0x4c
 1834 025f 00       		.byte	0
 1835 0260 0B       		.uleb128 0xb
 1836 0261 DA060000 		.4byte	.LASF37
 1837 0265 06       		.byte	0x6
 1838 0266 3402     		.2byte	0x234
 1839 0268 2C010000 		.4byte	0x12c
 1840 026c 0F       		.uleb128 0xf
 1841 026d 14       		.byte	0x14
 1842 026e 07       		.byte	0x7
 1843 026f 33       		.byte	0x33
 1844 0270 C9020000 		.4byte	0x2c9
 1845 0274 10       		.uleb128 0x10
 1846 0275 D7020000 		.4byte	.LASF38
 1847 0279 07       		.byte	0x7
 1848 027a 35       		.byte	0x35
 1849 027b A7000000 		.4byte	0xa7
 1850 027f 02       		.byte	0x2
 1851 0280 23       		.byte	0x23
 1852 0281 00       		.uleb128 0
 1853 0282 10       		.uleb128 0x10
 1854 0283 1D010000 		.4byte	.LASF39
 1855 0287 07       		.byte	0x7
 1856 0288 39       		.byte	0x39
 1857 0289 20010000 		.4byte	0x120
 1858 028d 02       		.byte	0x2
 1859 028e 23       		.byte	0x23
 1860 028f 04       		.uleb128 0x4
 1861 0290 10       		.uleb128 0x10
 1862 0291 97040000 		.4byte	.LASF40
 1863 0295 07       		.byte	0x7
 1864 0296 3D       		.byte	0x3d
 1865 0297 20010000 		.4byte	0x120
 1866 029b 02       		.byte	0x2
 1867 029c 23       		.byte	0x23
 1868 029d 05       		.uleb128 0x5
 1869 029e 10       		.uleb128 0x10
 1870 029f D7040000 		.4byte	.LASF41
 1871 02a3 07       		.byte	0x7
ARM GAS  G:\Users\Jaxb\AppData\Local\Temp\ccclxmrG.s 			page 58


 1872 02a4 41       		.byte	0x41
 1873 02a5 A7000000 		.4byte	0xa7
 1874 02a9 02       		.byte	0x2
 1875 02aa 23       		.byte	0x23
 1876 02ab 08       		.uleb128 0x8
 1877 02ac 10       		.uleb128 0x10
 1878 02ad 72000000 		.4byte	.LASF42
 1879 02b1 07       		.byte	0x7
 1880 02b2 45       		.byte	0x45
 1881 02b3 A7000000 		.4byte	0xa7
 1882 02b7 02       		.byte	0x2
 1883 02b8 23       		.byte	0x23
 1884 02b9 0C       		.uleb128 0xc
 1885 02ba 10       		.uleb128 0x10
 1886 02bb C9030000 		.4byte	.LASF43
 1887 02bf 07       		.byte	0x7
 1888 02c0 48       		.byte	0x48
 1889 02c1 91000000 		.4byte	0x91
 1890 02c5 02       		.byte	0x2
 1891 02c6 23       		.byte	0x23
 1892 02c7 10       		.uleb128 0x10
 1893 02c8 00       		.byte	0
 1894 02c9 03       		.uleb128 0x3
 1895 02ca 15000000 		.4byte	.LASF44
 1896 02ce 07       		.byte	0x7
 1897 02cf 4B       		.byte	0x4b
 1898 02d0 6C020000 		.4byte	0x26c
 1899 02d4 11       		.uleb128 0x11
 1900 02d5 01       		.byte	0x1
 1901 02d6 2E010000 		.4byte	.LASF50
 1902 02da 01       		.byte	0x1
 1903 02db 0305     		.2byte	0x503
 1904 02dd 01       		.byte	0x1
 1905 02de 90030000 		.4byte	.LFB64
 1906 02e2 98030000 		.4byte	.LFE64
 1907 02e6 02       		.byte	0x2
 1908 02e7 7D       		.byte	0x7d
 1909 02e8 00       		.sleb128 0
 1910 02e9 01       		.byte	0x1
 1911 02ea 1D030000 		.4byte	0x31d
 1912 02ee 12       		.uleb128 0x12
 1913 02ef 00000000 		.4byte	.LASF45
 1914 02f3 01       		.byte	0x1
 1915 02f4 0305     		.2byte	0x503
 1916 02f6 1D030000 		.4byte	0x31d
 1917 02fa 01       		.byte	0x1
 1918 02fb 50       		.byte	0x50
 1919 02fc 13       		.uleb128 0x13
 1920 02fd CC060000 		.4byte	.LASF46
 1921 0301 01       		.byte	0x1
 1922 0302 0305     		.2byte	0x503
 1923 0304 9C000000 		.4byte	0x9c
 1924 0308 00000000 		.4byte	.LLST54
 1925 030c 14       		.uleb128 0x14
 1926 030d D3060000 		.4byte	.LASF47
 1927 0311 01       		.byte	0x1
 1928 0312 0505     		.2byte	0x505
ARM GAS  G:\Users\Jaxb\AppData\Local\Temp\ccclxmrG.s 			page 59


 1929 0314 91000000 		.4byte	0x91
 1930 0318 21000000 		.4byte	.LLST55
 1931 031c 00       		.byte	0
 1932 031d 15       		.uleb128 0x15
 1933 031e 04       		.byte	0x4
 1934 031f 60020000 		.4byte	0x260
 1935 0323 16       		.uleb128 0x16
 1936 0324 01       		.byte	0x1
 1937 0325 9B000000 		.4byte	.LASF53
 1938 0329 01       		.byte	0x1
 1939 032a DF04     		.2byte	0x4df
 1940 032c 01       		.byte	0x1
 1941 032d F9000000 		.4byte	0xf9
 1942 0331 78030000 		.4byte	.LFB63
 1943 0335 8E030000 		.4byte	.LFE63
 1944 0339 02       		.byte	0x2
 1945 033a 7D       		.byte	0x7d
 1946 033b 00       		.sleb128 0
 1947 033c 01       		.byte	0x1
 1948 033d 92030000 		.4byte	0x392
 1949 0341 13       		.uleb128 0x13
 1950 0342 00000000 		.4byte	.LASF45
 1951 0346 01       		.byte	0x1
 1952 0347 DF04     		.2byte	0x4df
 1953 0349 1D030000 		.4byte	0x31d
 1954 034d 48000000 		.4byte	.LLST49
 1955 0351 13       		.uleb128 0x13
 1956 0352 CC060000 		.4byte	.LASF46
 1957 0356 01       		.byte	0x1
 1958 0357 DF04     		.2byte	0x4df
 1959 0359 9C000000 		.4byte	0x9c
 1960 035d 69000000 		.4byte	.LLST50
 1961 0361 14       		.uleb128 0x14
 1962 0362 8D040000 		.4byte	.LASF48
 1963 0366 01       		.byte	0x1
 1964 0367 E104     		.2byte	0x4e1
 1965 0369 F9000000 		.4byte	0xf9
 1966 036d 8A000000 		.4byte	.LLST51
 1967 0371 14       		.uleb128 0x14
 1968 0372 D3060000 		.4byte	.LASF47
 1969 0376 01       		.byte	0x1
 1970 0377 E204     		.2byte	0x4e2
 1971 0379 A7000000 		.4byte	0xa7
 1972 037d A9000000 		.4byte	.LLST52
 1973 0381 14       		.uleb128 0x14
 1974 0382 E2010000 		.4byte	.LASF49
 1975 0386 01       		.byte	0x1
 1976 0387 E204     		.2byte	0x4e2
 1977 0389 A7000000 		.4byte	0xa7
 1978 038d D8000000 		.4byte	.LLST53
 1979 0391 00       		.byte	0
 1980 0392 11       		.uleb128 0x11
 1981 0393 01       		.byte	0x1
 1982 0394 8D000000 		.4byte	.LASF51
 1983 0398 01       		.byte	0x1
 1984 0399 CC04     		.2byte	0x4cc
 1985 039b 01       		.byte	0x1
ARM GAS  G:\Users\Jaxb\AppData\Local\Temp\ccclxmrG.s 			page 60


 1986 039c 70030000 		.4byte	.LFB62
 1987 03a0 76030000 		.4byte	.LFE62
 1988 03a4 02       		.byte	0x2
 1989 03a5 7D       		.byte	0x7d
 1990 03a6 00       		.sleb128 0
 1991 03a7 01       		.byte	0x1
 1992 03a8 CB030000 		.4byte	0x3cb
 1993 03ac 12       		.uleb128 0x12
 1994 03ad 00000000 		.4byte	.LASF45
 1995 03b1 01       		.byte	0x1
 1996 03b2 CC04     		.2byte	0x4cc
 1997 03b4 1D030000 		.4byte	0x31d
 1998 03b8 01       		.byte	0x1
 1999 03b9 50       		.byte	0x50
 2000 03ba 13       		.uleb128 0x13
 2001 03bb 6A010000 		.4byte	.LASF52
 2002 03bf 01       		.byte	0x1
 2003 03c0 CC04     		.2byte	0x4cc
 2004 03c2 91000000 		.4byte	0x91
 2005 03c6 13010000 		.4byte	.LLST48
 2006 03ca 00       		.byte	0
 2007 03cb 16       		.uleb128 0x16
 2008 03cc 01       		.byte	0x1
 2009 03cd C6050000 		.4byte	.LASF54
 2010 03d1 01       		.byte	0x1
 2011 03d2 AB04     		.2byte	0x4ab
 2012 03d4 01       		.byte	0x1
 2013 03d5 ED000000 		.4byte	0xed
 2014 03d9 64030000 		.4byte	.LFB61
 2015 03dd 70030000 		.4byte	.LFE61
 2016 03e1 02       		.byte	0x2
 2017 03e2 7D       		.byte	0x7d
 2018 03e3 00       		.sleb128 0
 2019 03e4 01       		.byte	0x1
 2020 03e5 18040000 		.4byte	0x418
 2021 03e9 13       		.uleb128 0x13
 2022 03ea 00000000 		.4byte	.LASF45
 2023 03ee 01       		.byte	0x1
 2024 03ef AB04     		.2byte	0x4ab
 2025 03f1 1D030000 		.4byte	0x31d
 2026 03f5 34010000 		.4byte	.LLST46
 2027 03f9 12       		.uleb128 0x12
 2028 03fa 6A010000 		.4byte	.LASF52
 2029 03fe 01       		.byte	0x1
 2030 03ff AB04     		.2byte	0x4ab
 2031 0401 91000000 		.4byte	0x91
 2032 0405 01       		.byte	0x1
 2033 0406 51       		.byte	0x51
 2034 0407 14       		.uleb128 0x14
 2035 0408 8D040000 		.4byte	.LASF48
 2036 040c 01       		.byte	0x1
 2037 040d AD04     		.2byte	0x4ad
 2038 040f ED000000 		.4byte	0xed
 2039 0413 55010000 		.4byte	.LLST47
 2040 0417 00       		.byte	0
 2041 0418 11       		.uleb128 0x11
 2042 0419 01       		.byte	0x1
ARM GAS  G:\Users\Jaxb\AppData\Local\Temp\ccclxmrG.s 			page 61


 2043 041a AB000000 		.4byte	.LASF55
 2044 041e 01       		.byte	0x1
 2045 041f 8F04     		.2byte	0x48f
 2046 0421 01       		.byte	0x1
 2047 0422 48030000 		.4byte	.LFB60
 2048 0426 64030000 		.4byte	.LFE60
 2049 042a 02       		.byte	0x2
 2050 042b 7D       		.byte	0x7d
 2051 042c 00       		.sleb128 0
 2052 042d 01       		.byte	0x1
 2053 042e 41040000 		.4byte	0x441
 2054 0432 12       		.uleb128 0x12
 2055 0433 92010000 		.4byte	.LASF56
 2056 0437 01       		.byte	0x1
 2057 0438 8F04     		.2byte	0x48f
 2058 043a 20010000 		.4byte	0x120
 2059 043e 01       		.byte	0x1
 2060 043f 50       		.byte	0x50
 2061 0440 00       		.byte	0
 2062 0441 11       		.uleb128 0x11
 2063 0442 01       		.byte	0x1
 2064 0443 9B010000 		.4byte	.LASF57
 2065 0447 01       		.byte	0x1
 2066 0448 7904     		.2byte	0x479
 2067 044a 01       		.byte	0x1
 2068 044b 3C030000 		.4byte	.LFB59
 2069 044f 48030000 		.4byte	.LFE59
 2070 0453 02       		.byte	0x2
 2071 0454 7D       		.byte	0x7d
 2072 0455 00       		.sleb128 0
 2073 0456 01       		.byte	0x1
 2074 0457 8A040000 		.4byte	0x48a
 2075 045b 12       		.uleb128 0x12
 2076 045c 00000000 		.4byte	.LASF45
 2077 0460 01       		.byte	0x1
 2078 0461 7904     		.2byte	0x479
 2079 0463 1D030000 		.4byte	0x31d
 2080 0467 01       		.byte	0x1
 2081 0468 50       		.byte	0x50
 2082 0469 13       		.uleb128 0x13
 2083 046a BD030000 		.4byte	.LASF58
 2084 046e 01       		.byte	0x1
 2085 046f 7904     		.2byte	0x479
 2086 0471 91000000 		.4byte	0x91
 2087 0475 7E010000 		.4byte	.LLST44
 2088 0479 14       		.uleb128 0x14
 2089 047a 95020000 		.4byte	.LASF59
 2090 047e 01       		.byte	0x1
 2091 047f 7B04     		.2byte	0x47b
 2092 0481 A7000000 		.4byte	0xa7
 2093 0485 9F010000 		.4byte	.LLST45
 2094 0489 00       		.byte	0
 2095 048a 11       		.uleb128 0x11
 2096 048b 01       		.byte	0x1
 2097 048c 6A040000 		.4byte	.LASF60
 2098 0490 01       		.byte	0x1
 2099 0491 5304     		.2byte	0x453
ARM GAS  G:\Users\Jaxb\AppData\Local\Temp\ccclxmrG.s 			page 62


 2100 0493 01       		.byte	0x1
 2101 0494 34030000 		.4byte	.LFB58
 2102 0498 3A030000 		.4byte	.LFE58
 2103 049c 02       		.byte	0x2
 2104 049d 7D       		.byte	0x7d
 2105 049e 00       		.sleb128 0
 2106 049f 01       		.byte	0x1
 2107 04a0 CF040000 		.4byte	0x4cf
 2108 04a4 12       		.uleb128 0x12
 2109 04a5 00000000 		.4byte	.LASF45
 2110 04a9 01       		.byte	0x1
 2111 04aa 5304     		.2byte	0x453
 2112 04ac 1D030000 		.4byte	0x31d
 2113 04b0 01       		.byte	0x1
 2114 04b1 50       		.byte	0x50
 2115 04b2 12       		.uleb128 0x12
 2116 04b3 2B020000 		.4byte	.LASF61
 2117 04b7 01       		.byte	0x1
 2118 04b8 5304     		.2byte	0x453
 2119 04ba 9C000000 		.4byte	0x9c
 2120 04be 01       		.byte	0x1
 2121 04bf 51       		.byte	0x51
 2122 04c0 12       		.uleb128 0x12
 2123 04c1 80000000 		.4byte	.LASF62
 2124 04c5 01       		.byte	0x1
 2125 04c6 5404     		.2byte	0x454
 2126 04c8 9C000000 		.4byte	0x9c
 2127 04cc 01       		.byte	0x1
 2128 04cd 52       		.byte	0x52
 2129 04ce 00       		.byte	0
 2130 04cf 11       		.uleb128 0x11
 2131 04d0 01       		.byte	0x1
 2132 04d1 CB000000 		.4byte	.LASF63
 2133 04d5 01       		.byte	0x1
 2134 04d6 3A04     		.2byte	0x43a
 2135 04d8 01       		.byte	0x1
 2136 04d9 24030000 		.4byte	.LFB57
 2137 04dd 34030000 		.4byte	.LFE57
 2138 04e1 02       		.byte	0x2
 2139 04e2 7D       		.byte	0x7d
 2140 04e3 00       		.sleb128 0
 2141 04e4 01       		.byte	0x1
 2142 04e5 18050000 		.4byte	0x518
 2143 04e9 12       		.uleb128 0x12
 2144 04ea 00000000 		.4byte	.LASF45
 2145 04ee 01       		.byte	0x1
 2146 04ef 3A04     		.2byte	0x43a
 2147 04f1 1D030000 		.4byte	0x31d
 2148 04f5 01       		.byte	0x1
 2149 04f6 50       		.byte	0x50
 2150 04f7 13       		.uleb128 0x13
 2151 04f8 17050000 		.4byte	.LASF64
 2152 04fc 01       		.byte	0x1
 2153 04fd 3A04     		.2byte	0x43a
 2154 04ff A7000000 		.4byte	0xa7
 2155 0503 C9010000 		.4byte	.LLST42
 2156 0507 14       		.uleb128 0x14
ARM GAS  G:\Users\Jaxb\AppData\Local\Temp\ccclxmrG.s 			page 63


 2157 0508 95020000 		.4byte	.LASF59
 2158 050c 01       		.byte	0x1
 2159 050d 3C04     		.2byte	0x43c
 2160 050f A7000000 		.4byte	0xa7
 2161 0513 EA010000 		.4byte	.LLST43
 2162 0517 00       		.byte	0
 2163 0518 17       		.uleb128 0x17
 2164 0519 01       		.byte	0x1
 2165 051a 95030000 		.4byte	.LASF65
 2166 051e 01       		.byte	0x1
 2167 051f 1C04     		.2byte	0x41c
 2168 0521 01       		.byte	0x1
 2169 0522 9C000000 		.4byte	0x9c
 2170 0526 08030000 		.4byte	.LFB56
 2171 052a 22030000 		.4byte	.LFE56
 2172 052e 1F020000 		.4byte	.LLST39
 2173 0532 01       		.byte	0x1
 2174 0533 67050000 		.4byte	0x567
 2175 0537 13       		.uleb128 0x13
 2176 0538 00000000 		.4byte	.LASF45
 2177 053c 01       		.byte	0x1
 2178 053d 1C04     		.2byte	0x41c
 2179 053f 1D030000 		.4byte	0x31d
 2180 0543 4B020000 		.4byte	.LLST40
 2181 0547 13       		.uleb128 0x13
 2182 0548 95050000 		.4byte	.LASF66
 2183 054c 01       		.byte	0x1
 2184 054d 1C04     		.2byte	0x41c
 2185 054f 91000000 		.4byte	0x91
 2186 0553 6C020000 		.4byte	.LLST41
 2187 0557 18       		.uleb128 0x18
 2188 0558 746D7000 		.ascii	"tmp\000"
 2189 055c 01       		.byte	0x1
 2190 055d 1E04     		.2byte	0x41e
 2191 055f B2000000 		.4byte	0xb2
 2192 0563 02       		.byte	0x2
 2193 0564 91       		.byte	0x91
 2194 0565 7C       		.sleb128 -4
 2195 0566 00       		.byte	0
 2196 0567 19       		.uleb128 0x19
 2197 0568 01       		.byte	0x1
 2198 0569 E0020000 		.4byte	.LASF67
 2199 056d 01       		.byte	0x1
 2200 056e 0104     		.2byte	0x401
 2201 0570 01       		.byte	0x1
 2202 0571 F0020000 		.4byte	.LFB55
 2203 0575 06030000 		.4byte	.LFE55
 2204 0579 8D020000 		.4byte	.LLST37
 2205 057d 01       		.byte	0x1
 2206 057e BE050000 		.4byte	0x5be
 2207 0582 12       		.uleb128 0x12
 2208 0583 00000000 		.4byte	.LASF45
 2209 0587 01       		.byte	0x1
 2210 0588 0104     		.2byte	0x401
 2211 058a 1D030000 		.4byte	0x31d
 2212 058e 01       		.byte	0x1
 2213 058f 50       		.byte	0x50
ARM GAS  G:\Users\Jaxb\AppData\Local\Temp\ccclxmrG.s 			page 64


 2214 0590 13       		.uleb128 0x13
 2215 0591 95050000 		.4byte	.LASF66
 2216 0595 01       		.byte	0x1
 2217 0596 0104     		.2byte	0x401
 2218 0598 91000000 		.4byte	0x91
 2219 059c B9020000 		.4byte	.LLST38
 2220 05a0 12       		.uleb128 0x12
 2221 05a1 F7030000 		.4byte	.LASF68
 2222 05a5 01       		.byte	0x1
 2223 05a6 0104     		.2byte	0x401
 2224 05a8 9C000000 		.4byte	0x9c
 2225 05ac 01       		.byte	0x1
 2226 05ad 52       		.byte	0x52
 2227 05ae 18       		.uleb128 0x18
 2228 05af 746D7000 		.ascii	"tmp\000"
 2229 05b3 01       		.byte	0x1
 2230 05b4 0304     		.2byte	0x403
 2231 05b6 B2000000 		.4byte	0xb2
 2232 05ba 02       		.byte	0x2
 2233 05bb 91       		.byte	0x91
 2234 05bc 7C       		.sleb128 -4
 2235 05bd 00       		.byte	0
 2236 05be 11       		.uleb128 0x11
 2237 05bf 01       		.byte	0x1
 2238 05c0 EC040000 		.4byte	.LASF69
 2239 05c4 01       		.byte	0x1
 2240 05c5 E103     		.2byte	0x3e1
 2241 05c7 01       		.byte	0x1
 2242 05c8 E0020000 		.4byte	.LFB54
 2243 05cc F0020000 		.4byte	.LFE54
 2244 05d0 02       		.byte	0x2
 2245 05d1 7D       		.byte	0x7d
 2246 05d2 00       		.sleb128 0
 2247 05d3 01       		.byte	0x1
 2248 05d4 17060000 		.4byte	0x617
 2249 05d8 12       		.uleb128 0x12
 2250 05d9 00000000 		.4byte	.LASF45
 2251 05dd 01       		.byte	0x1
 2252 05de E103     		.2byte	0x3e1
 2253 05e0 1D030000 		.4byte	0x31d
 2254 05e4 01       		.byte	0x1
 2255 05e5 50       		.byte	0x50
 2256 05e6 13       		.uleb128 0x13
 2257 05e7 25000000 		.4byte	.LASF70
 2258 05eb 01       		.byte	0x1
 2259 05ec E103     		.2byte	0x3e1
 2260 05ee 91000000 		.4byte	0x91
 2261 05f2 DA020000 		.4byte	.LLST34
 2262 05f6 14       		.uleb128 0x14
 2263 05f7 05000000 		.4byte	.LASF71
 2264 05fb 01       		.byte	0x1
 2265 05fc E303     		.2byte	0x3e3
 2266 05fe A7000000 		.4byte	0xa7
 2267 0602 FB020000 		.4byte	.LLST35
 2268 0606 14       		.uleb128 0x14
 2269 0607 0D000000 		.4byte	.LASF72
 2270 060b 01       		.byte	0x1
ARM GAS  G:\Users\Jaxb\AppData\Local\Temp\ccclxmrG.s 			page 65


 2271 060c E403     		.2byte	0x3e4
 2272 060e A7000000 		.4byte	0xa7
 2273 0612 1A030000 		.4byte	.LLST36
 2274 0616 00       		.byte	0
 2275 0617 19       		.uleb128 0x19
 2276 0618 01       		.byte	0x1
 2277 0619 2A050000 		.4byte	.LASF73
 2278 061d 01       		.byte	0x1
 2279 061e A203     		.2byte	0x3a2
 2280 0620 01       		.byte	0x1
 2281 0621 88020000 		.4byte	.LFB53
 2282 0625 DE020000 		.4byte	.LFE53
 2283 0629 41030000 		.4byte	.LLST27
 2284 062d 01       		.byte	0x1
 2285 062e A1060000 		.4byte	0x6a1
 2286 0632 12       		.uleb128 0x12
 2287 0633 00000000 		.4byte	.LASF45
 2288 0637 01       		.byte	0x1
 2289 0638 A203     		.2byte	0x3a2
 2290 063a 1D030000 		.4byte	0x31d
 2291 063e 01       		.byte	0x1
 2292 063f 50       		.byte	0x50
 2293 0640 13       		.uleb128 0x13
 2294 0641 BD030000 		.4byte	.LASF58
 2295 0645 01       		.byte	0x1
 2296 0646 A203     		.2byte	0x3a2
 2297 0648 91000000 		.4byte	0x91
 2298 064c 79030000 		.4byte	.LLST28
 2299 0650 13       		.uleb128 0x13
 2300 0651 9C020000 		.4byte	.LASF74
 2301 0655 01       		.byte	0x1
 2302 0656 A203     		.2byte	0x3a2
 2303 0658 91000000 		.4byte	0x91
 2304 065c A5030000 		.4byte	.LLST29
 2305 0660 13       		.uleb128 0x13
 2306 0661 44050000 		.4byte	.LASF75
 2307 0665 01       		.byte	0x1
 2308 0666 A203     		.2byte	0x3a2
 2309 0668 91000000 		.4byte	0x91
 2310 066c D1030000 		.4byte	.LLST30
 2311 0670 14       		.uleb128 0x14
 2312 0671 05000000 		.4byte	.LASF71
 2313 0675 01       		.byte	0x1
 2314 0676 A403     		.2byte	0x3a4
 2315 0678 A7000000 		.4byte	0xa7
 2316 067c 0B040000 		.4byte	.LLST31
 2317 0680 14       		.uleb128 0x14
 2318 0681 0D000000 		.4byte	.LASF72
 2319 0685 01       		.byte	0x1
 2320 0686 A403     		.2byte	0x3a4
 2321 0688 A7000000 		.4byte	0xa7
 2322 068c 6D040000 		.4byte	.LLST32
 2323 0690 14       		.uleb128 0x14
 2324 0691 FA050000 		.4byte	.LASF76
 2325 0695 01       		.byte	0x1
 2326 0696 A403     		.2byte	0x3a4
 2327 0698 A7000000 		.4byte	0xa7
ARM GAS  G:\Users\Jaxb\AppData\Local\Temp\ccclxmrG.s 			page 66


 2328 069c EE040000 		.4byte	.LLST33
 2329 06a0 00       		.byte	0
 2330 06a1 16       		.uleb128 0x16
 2331 06a2 01       		.byte	0x1
 2332 06a3 39000000 		.4byte	.LASF77
 2333 06a7 01       		.byte	0x1
 2334 06a8 6903     		.2byte	0x369
 2335 06aa 01       		.byte	0x1
 2336 06ab ED000000 		.4byte	0xed
 2337 06af 80020000 		.4byte	.LFB52
 2338 06b3 88020000 		.4byte	.LFE52
 2339 06b7 02       		.byte	0x2
 2340 06b8 7D       		.byte	0x7d
 2341 06b9 00       		.sleb128 0
 2342 06ba 01       		.byte	0x1
 2343 06bb E0060000 		.4byte	0x6e0
 2344 06bf 13       		.uleb128 0x13
 2345 06c0 00000000 		.4byte	.LASF45
 2346 06c4 01       		.byte	0x1
 2347 06c5 6903     		.2byte	0x369
 2348 06c7 1D030000 		.4byte	0x31d
 2349 06cb 1F050000 		.4byte	.LLST25
 2350 06cf 14       		.uleb128 0x14
 2351 06d0 8D040000 		.4byte	.LASF48
 2352 06d4 01       		.byte	0x1
 2353 06d5 6B03     		.2byte	0x36b
 2354 06d7 ED000000 		.4byte	0xed
 2355 06db 40050000 		.4byte	.LLST26
 2356 06df 00       		.byte	0
 2357 06e0 11       		.uleb128 0x11
 2358 06e1 01       		.byte	0x1
 2359 06e2 74050000 		.4byte	.LASF78
 2360 06e6 01       		.byte	0x1
 2361 06e7 5103     		.2byte	0x351
 2362 06e9 01       		.byte	0x1
 2363 06ea 6C020000 		.4byte	.LFB51
 2364 06ee 80020000 		.4byte	.LFE51
 2365 06f2 02       		.byte	0x2
 2366 06f3 7D       		.byte	0x7d
 2367 06f4 00       		.sleb128 0
 2368 06f5 01       		.byte	0x1
 2369 06f6 17070000 		.4byte	0x717
 2370 06fa 12       		.uleb128 0x12
 2371 06fb 00000000 		.4byte	.LASF45
 2372 06ff 01       		.byte	0x1
 2373 0700 5103     		.2byte	0x351
 2374 0702 1D030000 		.4byte	0x31d
 2375 0706 01       		.byte	0x1
 2376 0707 50       		.byte	0x50
 2377 0708 12       		.uleb128 0x12
 2378 0709 92010000 		.4byte	.LASF56
 2379 070d 01       		.byte	0x1
 2380 070e 5103     		.2byte	0x351
 2381 0710 20010000 		.4byte	0x120
 2382 0714 01       		.byte	0x1
 2383 0715 51       		.byte	0x51
 2384 0716 00       		.byte	0
ARM GAS  G:\Users\Jaxb\AppData\Local\Temp\ccclxmrG.s 			page 67


 2385 0717 11       		.uleb128 0x11
 2386 0718 01       		.byte	0x1
 2387 0719 01030000 		.4byte	.LASF79
 2388 071d 01       		.byte	0x1
 2389 071e 3803     		.2byte	0x338
 2390 0720 01       		.byte	0x1
 2391 0721 58020000 		.4byte	.LFB50
 2392 0725 6C020000 		.4byte	.LFE50
 2393 0729 02       		.byte	0x2
 2394 072a 7D       		.byte	0x7d
 2395 072b 00       		.sleb128 0
 2396 072c 01       		.byte	0x1
 2397 072d 4E070000 		.4byte	0x74e
 2398 0731 12       		.uleb128 0x12
 2399 0732 00000000 		.4byte	.LASF45
 2400 0736 01       		.byte	0x1
 2401 0737 3803     		.2byte	0x338
 2402 0739 1D030000 		.4byte	0x31d
 2403 073d 01       		.byte	0x1
 2404 073e 50       		.byte	0x50
 2405 073f 12       		.uleb128 0x12
 2406 0740 92010000 		.4byte	.LASF56
 2407 0744 01       		.byte	0x1
 2408 0745 3803     		.2byte	0x338
 2409 0747 20010000 		.4byte	0x120
 2410 074b 01       		.byte	0x1
 2411 074c 51       		.byte	0x51
 2412 074d 00       		.byte	0
 2413 074e 11       		.uleb128 0x11
 2414 074f 01       		.byte	0x1
 2415 0750 65030000 		.4byte	.LASF80
 2416 0754 01       		.byte	0x1
 2417 0755 1F03     		.2byte	0x31f
 2418 0757 01       		.byte	0x1
 2419 0758 4C020000 		.4byte	.LFB49
 2420 075c 58020000 		.4byte	.LFE49
 2421 0760 02       		.byte	0x2
 2422 0761 7D       		.byte	0x7d
 2423 0762 00       		.sleb128 0
 2424 0763 01       		.byte	0x1
 2425 0764 97070000 		.4byte	0x797
 2426 0768 12       		.uleb128 0x12
 2427 0769 00000000 		.4byte	.LASF45
 2428 076d 01       		.byte	0x1
 2429 076e 1F03     		.2byte	0x31f
 2430 0770 1D030000 		.4byte	0x31d
 2431 0774 01       		.byte	0x1
 2432 0775 50       		.byte	0x50
 2433 0776 13       		.uleb128 0x13
 2434 0777 06070000 		.4byte	.LASF81
 2435 077b 01       		.byte	0x1
 2436 077c 1F03     		.2byte	0x31f
 2437 077e A7000000 		.4byte	0xa7
 2438 0782 67050000 		.4byte	.LLST23
 2439 0786 14       		.uleb128 0x14
 2440 0787 95020000 		.4byte	.LASF59
 2441 078b 01       		.byte	0x1
ARM GAS  G:\Users\Jaxb\AppData\Local\Temp\ccclxmrG.s 			page 68


 2442 078c 2103     		.2byte	0x321
 2443 078e A7000000 		.4byte	0xa7
 2444 0792 88050000 		.4byte	.LLST24
 2445 0796 00       		.byte	0
 2446 0797 11       		.uleb128 0x11
 2447 0798 01       		.byte	0x1
 2448 0799 21030000 		.4byte	.LASF82
 2449 079d 01       		.byte	0x1
 2450 079e F802     		.2byte	0x2f8
 2451 07a0 01       		.byte	0x1
 2452 07a1 38020000 		.4byte	.LFB48
 2453 07a5 4C020000 		.4byte	.LFE48
 2454 07a9 02       		.byte	0x2
 2455 07aa 7D       		.byte	0x7d
 2456 07ab 00       		.sleb128 0
 2457 07ac 01       		.byte	0x1
 2458 07ad CE070000 		.4byte	0x7ce
 2459 07b1 12       		.uleb128 0x12
 2460 07b2 00000000 		.4byte	.LASF45
 2461 07b6 01       		.byte	0x1
 2462 07b7 F802     		.2byte	0x2f8
 2463 07b9 1D030000 		.4byte	0x31d
 2464 07bd 01       		.byte	0x1
 2465 07be 50       		.byte	0x50
 2466 07bf 12       		.uleb128 0x12
 2467 07c0 92010000 		.4byte	.LASF56
 2468 07c4 01       		.byte	0x1
 2469 07c5 F802     		.2byte	0x2f8
 2470 07c7 20010000 		.4byte	0x120
 2471 07cb 01       		.byte	0x1
 2472 07cc 51       		.byte	0x51
 2473 07cd 00       		.byte	0
 2474 07ce 11       		.uleb128 0x11
 2475 07cf 01       		.byte	0x1
 2476 07d0 A1020000 		.4byte	.LASF83
 2477 07d4 01       		.byte	0x1
 2478 07d5 DE02     		.2byte	0x2de
 2479 07d7 01       		.byte	0x1
 2480 07d8 24020000 		.4byte	.LFB47
 2481 07dc 38020000 		.4byte	.LFE47
 2482 07e0 02       		.byte	0x2
 2483 07e1 7D       		.byte	0x7d
 2484 07e2 00       		.sleb128 0
 2485 07e3 01       		.byte	0x1
 2486 07e4 05080000 		.4byte	0x805
 2487 07e8 12       		.uleb128 0x12
 2488 07e9 00000000 		.4byte	.LASF45
 2489 07ed 01       		.byte	0x1
 2490 07ee DE02     		.2byte	0x2de
 2491 07f0 1D030000 		.4byte	0x31d
 2492 07f4 01       		.byte	0x1
 2493 07f5 50       		.byte	0x50
 2494 07f6 12       		.uleb128 0x12
 2495 07f7 92010000 		.4byte	.LASF56
 2496 07fb 01       		.byte	0x1
 2497 07fc DE02     		.2byte	0x2de
 2498 07fe 20010000 		.4byte	0x120
ARM GAS  G:\Users\Jaxb\AppData\Local\Temp\ccclxmrG.s 			page 69


 2499 0802 01       		.byte	0x1
 2500 0803 51       		.byte	0x51
 2501 0804 00       		.byte	0
 2502 0805 1A       		.uleb128 0x1a
 2503 0806 01       		.byte	0x1
 2504 0807 32070000 		.4byte	.LASF106
 2505 080b 01       		.byte	0x1
 2506 080c D002     		.2byte	0x2d0
 2507 080e 01       		.byte	0x1
 2508 080f A7000000 		.4byte	0xa7
 2509 0813 18020000 		.4byte	.LFB46
 2510 0817 24020000 		.4byte	.LFE46
 2511 081b 02       		.byte	0x2
 2512 081c 7D       		.byte	0x7d
 2513 081d 00       		.sleb128 0
 2514 081e 01       		.byte	0x1
 2515 081f 16       		.uleb128 0x16
 2516 0820 01       		.byte	0x1
 2517 0821 70020000 		.4byte	.LASF84
 2518 0825 01       		.byte	0x1
 2519 0826 C402     		.2byte	0x2c4
 2520 0828 01       		.byte	0x1
 2521 0829 9C000000 		.4byte	0x9c
 2522 082d 10020000 		.4byte	.LFB45
 2523 0831 16020000 		.4byte	.LFE45
 2524 0835 02       		.byte	0x2
 2525 0836 7D       		.byte	0x7d
 2526 0837 00       		.sleb128 0
 2527 0838 01       		.byte	0x1
 2528 0839 4E080000 		.4byte	0x84e
 2529 083d 13       		.uleb128 0x13
 2530 083e 00000000 		.4byte	.LASF45
 2531 0842 01       		.byte	0x1
 2532 0843 C402     		.2byte	0x2c4
 2533 0845 1D030000 		.4byte	0x31d
 2534 0849 B2050000 		.4byte	.LLST22
 2535 084d 00       		.byte	0
 2536 084e 11       		.uleb128 0x11
 2537 084f 01       		.byte	0x1
 2538 0850 BF020000 		.4byte	.LASF85
 2539 0854 01       		.byte	0x1
 2540 0855 AE02     		.2byte	0x2ae
 2541 0857 01       		.byte	0x1
 2542 0858 FC010000 		.4byte	.LFB44
 2543 085c 10020000 		.4byte	.LFE44
 2544 0860 02       		.byte	0x2
 2545 0861 7D       		.byte	0x7d
 2546 0862 00       		.sleb128 0
 2547 0863 01       		.byte	0x1
 2548 0864 85080000 		.4byte	0x885
 2549 0868 12       		.uleb128 0x12
 2550 0869 00000000 		.4byte	.LASF45
 2551 086d 01       		.byte	0x1
 2552 086e AE02     		.2byte	0x2ae
 2553 0870 1D030000 		.4byte	0x31d
 2554 0874 01       		.byte	0x1
 2555 0875 50       		.byte	0x50
ARM GAS  G:\Users\Jaxb\AppData\Local\Temp\ccclxmrG.s 			page 70


 2556 0876 12       		.uleb128 0x12
 2557 0877 92010000 		.4byte	.LASF56
 2558 087b 01       		.byte	0x1
 2559 087c AE02     		.2byte	0x2ae
 2560 087e 20010000 		.4byte	0x120
 2561 0882 01       		.byte	0x1
 2562 0883 51       		.byte	0x51
 2563 0884 00       		.byte	0
 2564 0885 19       		.uleb128 0x19
 2565 0886 01       		.byte	0x1
 2566 0887 C1010000 		.4byte	.LASF86
 2567 088b 01       		.byte	0x1
 2568 088c 4E02     		.2byte	0x24e
 2569 088e 01       		.byte	0x1
 2570 088f 6C010000 		.4byte	.LFB43
 2571 0893 FA010000 		.4byte	.LFE43
 2572 0897 D3050000 		.4byte	.LLST16
 2573 089b 01       		.byte	0x1
 2574 089c FF080000 		.4byte	0x8ff
 2575 08a0 12       		.uleb128 0x12
 2576 08a1 00000000 		.4byte	.LASF45
 2577 08a5 01       		.byte	0x1
 2578 08a6 4E02     		.2byte	0x24e
 2579 08a8 1D030000 		.4byte	0x31d
 2580 08ac 01       		.byte	0x1
 2581 08ad 50       		.byte	0x50
 2582 08ae 13       		.uleb128 0x13
 2583 08af BD030000 		.4byte	.LASF58
 2584 08b3 01       		.byte	0x1
 2585 08b4 4E02     		.2byte	0x24e
 2586 08b6 91000000 		.4byte	0x91
 2587 08ba 2F060000 		.4byte	.LLST17
 2588 08be 13       		.uleb128 0x13
 2589 08bf 9C020000 		.4byte	.LASF74
 2590 08c3 01       		.byte	0x1
 2591 08c4 4E02     		.2byte	0x24e
 2592 08c6 91000000 		.4byte	0x91
 2593 08ca 82060000 		.4byte	.LLST18
 2594 08ce 13       		.uleb128 0x13
 2595 08cf 44050000 		.4byte	.LASF75
 2596 08d3 01       		.byte	0x1
 2597 08d4 4E02     		.2byte	0x24e
 2598 08d6 91000000 		.4byte	0x91
 2599 08da D5060000 		.4byte	.LLST19
 2600 08de 14       		.uleb128 0x14
 2601 08df 05000000 		.4byte	.LASF71
 2602 08e3 01       		.byte	0x1
 2603 08e4 5002     		.2byte	0x250
 2604 08e6 A7000000 		.4byte	0xa7
 2605 08ea 0F070000 		.4byte	.LLST20
 2606 08ee 14       		.uleb128 0x14
 2607 08ef 0D000000 		.4byte	.LASF72
 2608 08f3 01       		.byte	0x1
 2609 08f4 5002     		.2byte	0x250
 2610 08f6 A7000000 		.4byte	0xa7
 2611 08fa B3070000 		.4byte	.LLST21
 2612 08fe 00       		.byte	0
ARM GAS  G:\Users\Jaxb\AppData\Local\Temp\ccclxmrG.s 			page 71


 2613 08ff 11       		.uleb128 0x11
 2614 0900 01       		.byte	0x1
 2615 0901 DE050000 		.4byte	.LASF87
 2616 0905 01       		.byte	0x1
 2617 0906 1802     		.2byte	0x218
 2618 0908 01       		.byte	0x1
 2619 0909 58010000 		.4byte	.LFB42
 2620 090d 6C010000 		.4byte	.LFE42
 2621 0911 02       		.byte	0x2
 2622 0912 7D       		.byte	0x7d
 2623 0913 00       		.sleb128 0
 2624 0914 01       		.byte	0x1
 2625 0915 36090000 		.4byte	0x936
 2626 0919 12       		.uleb128 0x12
 2627 091a 00000000 		.4byte	.LASF45
 2628 091e 01       		.byte	0x1
 2629 091f 1802     		.2byte	0x218
 2630 0921 1D030000 		.4byte	0x31d
 2631 0925 01       		.byte	0x1
 2632 0926 50       		.byte	0x50
 2633 0927 12       		.uleb128 0x12
 2634 0928 92010000 		.4byte	.LASF56
 2635 092c 01       		.byte	0x1
 2636 092d 1802     		.2byte	0x218
 2637 092f 20010000 		.4byte	0x120
 2638 0933 01       		.byte	0x1
 2639 0934 51       		.byte	0x51
 2640 0935 00       		.byte	0
 2641 0936 11       		.uleb128 0x11
 2642 0937 01       		.byte	0x1
 2643 0938 51020000 		.4byte	.LASF88
 2644 093c 01       		.byte	0x1
 2645 093d FD01     		.2byte	0x1fd
 2646 093f 01       		.byte	0x1
 2647 0940 48010000 		.4byte	.LFB41
 2648 0944 58010000 		.4byte	.LFE41
 2649 0948 02       		.byte	0x2
 2650 0949 7D       		.byte	0x7d
 2651 094a 00       		.sleb128 0
 2652 094b 01       		.byte	0x1
 2653 094c 8F090000 		.4byte	0x98f
 2654 0950 12       		.uleb128 0x12
 2655 0951 00000000 		.4byte	.LASF45
 2656 0955 01       		.byte	0x1
 2657 0956 FD01     		.2byte	0x1fd
 2658 0958 1D030000 		.4byte	0x31d
 2659 095c 01       		.byte	0x1
 2660 095d 50       		.byte	0x50
 2661 095e 13       		.uleb128 0x13
 2662 095f C4000000 		.4byte	.LASF89
 2663 0963 01       		.byte	0x1
 2664 0964 FD01     		.2byte	0x1fd
 2665 0966 91000000 		.4byte	0x91
 2666 096a 44080000 		.4byte	.LLST13
 2667 096e 14       		.uleb128 0x14
 2668 096f 05000000 		.4byte	.LASF71
 2669 0973 01       		.byte	0x1
ARM GAS  G:\Users\Jaxb\AppData\Local\Temp\ccclxmrG.s 			page 72


 2670 0974 FF01     		.2byte	0x1ff
 2671 0976 A7000000 		.4byte	0xa7
 2672 097a 65080000 		.4byte	.LLST14
 2673 097e 14       		.uleb128 0x14
 2674 097f 0D000000 		.4byte	.LASF72
 2675 0983 01       		.byte	0x1
 2676 0984 0002     		.2byte	0x200
 2677 0986 A7000000 		.4byte	0xa7
 2678 098a 84080000 		.4byte	.LLST15
 2679 098e 00       		.byte	0
 2680 098f 16       		.uleb128 0x16
 2681 0990 01       		.byte	0x1
 2682 0991 73010000 		.4byte	.LASF90
 2683 0995 01       		.byte	0x1
 2684 0996 E101     		.2byte	0x1e1
 2685 0998 01       		.byte	0x1
 2686 0999 ED000000 		.4byte	0xed
 2687 099d 40010000 		.4byte	.LFB40
 2688 09a1 48010000 		.4byte	.LFE40
 2689 09a5 02       		.byte	0x2
 2690 09a6 7D       		.byte	0x7d
 2691 09a7 00       		.sleb128 0
 2692 09a8 01       		.byte	0x1
 2693 09a9 CE090000 		.4byte	0x9ce
 2694 09ad 13       		.uleb128 0x13
 2695 09ae 00000000 		.4byte	.LASF45
 2696 09b2 01       		.byte	0x1
 2697 09b3 E101     		.2byte	0x1e1
 2698 09b5 1D030000 		.4byte	0x31d
 2699 09b9 AB080000 		.4byte	.LLST11
 2700 09bd 14       		.uleb128 0x14
 2701 09be 8D040000 		.4byte	.LASF48
 2702 09c2 01       		.byte	0x1
 2703 09c3 E301     		.2byte	0x1e3
 2704 09c5 ED000000 		.4byte	0xed
 2705 09c9 CC080000 		.4byte	.LLST12
 2706 09cd 00       		.byte	0
 2707 09ce 11       		.uleb128 0x11
 2708 09cf 01       		.byte	0x1
 2709 09d0 AE040000 		.4byte	.LASF91
 2710 09d4 01       		.byte	0x1
 2711 09d5 C901     		.2byte	0x1c9
 2712 09d7 01       		.byte	0x1
 2713 09d8 2C010000 		.4byte	.LFB39
 2714 09dc 40010000 		.4byte	.LFE39
 2715 09e0 02       		.byte	0x2
 2716 09e1 7D       		.byte	0x7d
 2717 09e2 00       		.sleb128 0
 2718 09e3 01       		.byte	0x1
 2719 09e4 050A0000 		.4byte	0xa05
 2720 09e8 12       		.uleb128 0x12
 2721 09e9 00000000 		.4byte	.LASF45
 2722 09ed 01       		.byte	0x1
 2723 09ee C901     		.2byte	0x1c9
 2724 09f0 1D030000 		.4byte	0x31d
 2725 09f4 01       		.byte	0x1
 2726 09f5 50       		.byte	0x50
ARM GAS  G:\Users\Jaxb\AppData\Local\Temp\ccclxmrG.s 			page 73


 2727 09f6 12       		.uleb128 0x12
 2728 09f7 92010000 		.4byte	.LASF56
 2729 09fb 01       		.byte	0x1
 2730 09fc C901     		.2byte	0x1c9
 2731 09fe 20010000 		.4byte	0x120
 2732 0a02 01       		.byte	0x1
 2733 0a03 51       		.byte	0x51
 2734 0a04 00       		.byte	0
 2735 0a05 16       		.uleb128 0x16
 2736 0a06 01       		.byte	0x1
 2737 0a07 51040000 		.4byte	.LASF92
 2738 0a0b 01       		.byte	0x1
 2739 0a0c AE01     		.2byte	0x1ae
 2740 0a0e 01       		.byte	0x1
 2741 0a0f ED000000 		.4byte	0xed
 2742 0a13 24010000 		.4byte	.LFB38
 2743 0a17 2C010000 		.4byte	.LFE38
 2744 0a1b 02       		.byte	0x2
 2745 0a1c 7D       		.byte	0x7d
 2746 0a1d 00       		.sleb128 0
 2747 0a1e 01       		.byte	0x1
 2748 0a1f 440A0000 		.4byte	0xa44
 2749 0a23 13       		.uleb128 0x13
 2750 0a24 00000000 		.4byte	.LASF45
 2751 0a28 01       		.byte	0x1
 2752 0a29 AE01     		.2byte	0x1ae
 2753 0a2b 1D030000 		.4byte	0x31d
 2754 0a2f F3080000 		.4byte	.LLST9
 2755 0a33 14       		.uleb128 0x14
 2756 0a34 8D040000 		.4byte	.LASF48
 2757 0a38 01       		.byte	0x1
 2758 0a39 B001     		.2byte	0x1b0
 2759 0a3b ED000000 		.4byte	0xed
 2760 0a3f 14090000 		.4byte	.LLST10
 2761 0a43 00       		.byte	0
 2762 0a44 11       		.uleb128 0x11
 2763 0a45 01       		.byte	0x1
 2764 0a46 FE030000 		.4byte	.LASF93
 2765 0a4a 01       		.byte	0x1
 2766 0a4b A101     		.2byte	0x1a1
 2767 0a4d 01       		.byte	0x1
 2768 0a4e 18010000 		.4byte	.LFB37
 2769 0a52 22010000 		.4byte	.LFE37
 2770 0a56 02       		.byte	0x2
 2771 0a57 7D       		.byte	0x7d
 2772 0a58 00       		.sleb128 0
 2773 0a59 01       		.byte	0x1
 2774 0a5a 6D0A0000 		.4byte	0xa6d
 2775 0a5e 12       		.uleb128 0x12
 2776 0a5f 00000000 		.4byte	.LASF45
 2777 0a63 01       		.byte	0x1
 2778 0a64 A101     		.2byte	0x1a1
 2779 0a66 1D030000 		.4byte	0x31d
 2780 0a6a 01       		.byte	0x1
 2781 0a6b 50       		.byte	0x50
 2782 0a6c 00       		.byte	0
 2783 0a6d 16       		.uleb128 0x16
ARM GAS  G:\Users\Jaxb\AppData\Local\Temp\ccclxmrG.s 			page 74


 2784 0a6e 01       		.byte	0x1
 2785 0a6f 44010000 		.4byte	.LASF94
 2786 0a73 01       		.byte	0x1
 2787 0a74 8801     		.2byte	0x188
 2788 0a76 01       		.byte	0x1
 2789 0a77 ED000000 		.4byte	0xed
 2790 0a7b 10010000 		.4byte	.LFB36
 2791 0a7f 18010000 		.4byte	.LFE36
 2792 0a83 02       		.byte	0x2
 2793 0a84 7D       		.byte	0x7d
 2794 0a85 00       		.sleb128 0
 2795 0a86 01       		.byte	0x1
 2796 0a87 AC0A0000 		.4byte	0xaac
 2797 0a8b 13       		.uleb128 0x13
 2798 0a8c 00000000 		.4byte	.LASF45
 2799 0a90 01       		.byte	0x1
 2800 0a91 8801     		.2byte	0x188
 2801 0a93 1D030000 		.4byte	0x31d
 2802 0a97 39090000 		.4byte	.LLST7
 2803 0a9b 14       		.uleb128 0x14
 2804 0a9c 8D040000 		.4byte	.LASF48
 2805 0aa0 01       		.byte	0x1
 2806 0aa1 8A01     		.2byte	0x18a
 2807 0aa3 ED000000 		.4byte	0xed
 2808 0aa7 5A090000 		.4byte	.LLST8
 2809 0aab 00       		.byte	0
 2810 0aac 11       		.uleb128 0x11
 2811 0aad 01       		.byte	0x1
 2812 0aae 11060000 		.4byte	.LASF95
 2813 0ab2 01       		.byte	0x1
 2814 0ab3 7B01     		.2byte	0x17b
 2815 0ab5 01       		.byte	0x1
 2816 0ab6 04010000 		.4byte	.LFB35
 2817 0aba 0E010000 		.4byte	.LFE35
 2818 0abe 02       		.byte	0x2
 2819 0abf 7D       		.byte	0x7d
 2820 0ac0 00       		.sleb128 0
 2821 0ac1 01       		.byte	0x1
 2822 0ac2 D50A0000 		.4byte	0xad5
 2823 0ac6 12       		.uleb128 0x12
 2824 0ac7 00000000 		.4byte	.LASF45
 2825 0acb 01       		.byte	0x1
 2826 0acc 7B01     		.2byte	0x17b
 2827 0ace 1D030000 		.4byte	0x31d
 2828 0ad2 01       		.byte	0x1
 2829 0ad3 50       		.byte	0x50
 2830 0ad4 00       		.byte	0
 2831 0ad5 11       		.uleb128 0x11
 2832 0ad6 01       		.byte	0x1
 2833 0ad7 2C000000 		.4byte	.LASF96
 2834 0adb 01       		.byte	0x1
 2835 0adc 6101     		.2byte	0x161
 2836 0ade 01       		.byte	0x1
 2837 0adf F0000000 		.4byte	.LFB34
 2838 0ae3 04010000 		.4byte	.LFE34
 2839 0ae7 02       		.byte	0x2
 2840 0ae8 7D       		.byte	0x7d
ARM GAS  G:\Users\Jaxb\AppData\Local\Temp\ccclxmrG.s 			page 75


 2841 0ae9 00       		.sleb128 0
 2842 0aea 01       		.byte	0x1
 2843 0aeb 2C0B0000 		.4byte	0xb2c
 2844 0aef 12       		.uleb128 0x12
 2845 0af0 00000000 		.4byte	.LASF45
 2846 0af4 01       		.byte	0x1
 2847 0af5 6101     		.2byte	0x161
 2848 0af7 1D030000 		.4byte	0x31d
 2849 0afb 01       		.byte	0x1
 2850 0afc 50       		.byte	0x50
 2851 0afd 13       		.uleb128 0x13
 2852 0afe CC060000 		.4byte	.LASF46
 2853 0b02 01       		.byte	0x1
 2854 0b03 6101     		.2byte	0x161
 2855 0b05 9C000000 		.4byte	0x9c
 2856 0b09 7F090000 		.4byte	.LLST5
 2857 0b0d 12       		.uleb128 0x12
 2858 0b0e 92010000 		.4byte	.LASF56
 2859 0b12 01       		.byte	0x1
 2860 0b13 6101     		.2byte	0x161
 2861 0b15 20010000 		.4byte	0x120
 2862 0b19 01       		.byte	0x1
 2863 0b1a 52       		.byte	0x52
 2864 0b1b 14       		.uleb128 0x14
 2865 0b1c D3060000 		.4byte	.LASF47
 2866 0b20 01       		.byte	0x1
 2867 0b21 6301     		.2byte	0x163
 2868 0b23 91000000 		.4byte	0x91
 2869 0b27 A0090000 		.4byte	.LLST6
 2870 0b2b 00       		.byte	0
 2871 0b2c 11       		.uleb128 0x11
 2872 0b2d 01       		.byte	0x1
 2873 0b2e 27070000 		.4byte	.LASF97
 2874 0b32 01       		.byte	0x1
 2875 0b33 4401     		.2byte	0x144
 2876 0b35 01       		.byte	0x1
 2877 0b36 DC000000 		.4byte	.LFB33
 2878 0b3a F0000000 		.4byte	.LFE33
 2879 0b3e 02       		.byte	0x2
 2880 0b3f 7D       		.byte	0x7d
 2881 0b40 00       		.sleb128 0
 2882 0b41 01       		.byte	0x1
 2883 0b42 630B0000 		.4byte	0xb63
 2884 0b46 12       		.uleb128 0x12
 2885 0b47 00000000 		.4byte	.LASF45
 2886 0b4b 01       		.byte	0x1
 2887 0b4c 4401     		.2byte	0x144
 2888 0b4e 1D030000 		.4byte	0x31d
 2889 0b52 01       		.byte	0x1
 2890 0b53 50       		.byte	0x50
 2891 0b54 12       		.uleb128 0x12
 2892 0b55 92010000 		.4byte	.LASF56
 2893 0b59 01       		.byte	0x1
 2894 0b5a 4401     		.2byte	0x144
 2895 0b5c 20010000 		.4byte	0x120
 2896 0b60 01       		.byte	0x1
 2897 0b61 51       		.byte	0x51
ARM GAS  G:\Users\Jaxb\AppData\Local\Temp\ccclxmrG.s 			page 76


 2898 0b62 00       		.byte	0
 2899 0b63 11       		.uleb128 0x11
 2900 0b64 01       		.byte	0x1
 2901 0b65 EC000000 		.4byte	.LASF98
 2902 0b69 01       		.byte	0x1
 2903 0b6a 2B01     		.2byte	0x12b
 2904 0b6c 01       		.byte	0x1
 2905 0b6d C8000000 		.4byte	.LFB32
 2906 0b71 DC000000 		.4byte	.LFE32
 2907 0b75 02       		.byte	0x2
 2908 0b76 7D       		.byte	0x7d
 2909 0b77 00       		.sleb128 0
 2910 0b78 01       		.byte	0x1
 2911 0b79 9A0B0000 		.4byte	0xb9a
 2912 0b7d 12       		.uleb128 0x12
 2913 0b7e 00000000 		.4byte	.LASF45
 2914 0b82 01       		.byte	0x1
 2915 0b83 2B01     		.2byte	0x12b
 2916 0b85 1D030000 		.4byte	0x31d
 2917 0b89 01       		.byte	0x1
 2918 0b8a 50       		.byte	0x50
 2919 0b8b 12       		.uleb128 0x12
 2920 0b8c 92010000 		.4byte	.LASF56
 2921 0b90 01       		.byte	0x1
 2922 0b91 2B01     		.2byte	0x12b
 2923 0b93 20010000 		.4byte	0x120
 2924 0b97 01       		.byte	0x1
 2925 0b98 51       		.byte	0x51
 2926 0b99 00       		.byte	0
 2927 0b9a 11       		.uleb128 0x11
 2928 0b9b 01       		.byte	0x1
 2929 0b9c 65050000 		.4byte	.LASF99
 2930 0ba0 01       		.byte	0x1
 2931 0ba1 1301     		.2byte	0x113
 2932 0ba3 01       		.byte	0x1
 2933 0ba4 B4000000 		.4byte	.LFB31
 2934 0ba8 C6000000 		.4byte	.LFE31
 2935 0bac 02       		.byte	0x2
 2936 0bad 7D       		.byte	0x7d
 2937 0bae 00       		.sleb128 0
 2938 0baf 01       		.byte	0x1
 2939 0bb0 C30B0000 		.4byte	0xbc3
 2940 0bb4 12       		.uleb128 0x12
 2941 0bb5 0E010000 		.4byte	.LASF100
 2942 0bb9 01       		.byte	0x1
 2943 0bba 1301     		.2byte	0x113
 2944 0bbc C30B0000 		.4byte	0xbc3
 2945 0bc0 01       		.byte	0x1
 2946 0bc1 50       		.byte	0x50
 2947 0bc2 00       		.byte	0
 2948 0bc3 15       		.uleb128 0x15
 2949 0bc4 04       		.byte	0x4
 2950 0bc5 C9020000 		.4byte	0x2c9
 2951 0bc9 1B       		.uleb128 0x1b
 2952 0bca 01       		.byte	0x1
 2953 0bcb F2060000 		.4byte	.LASF101
 2954 0bcf 01       		.byte	0x1
ARM GAS  G:\Users\Jaxb\AppData\Local\Temp\ccclxmrG.s 			page 77


 2955 0bd0 DA       		.byte	0xda
 2956 0bd1 01       		.byte	0x1
 2957 0bd2 6C000000 		.4byte	.LFB30
 2958 0bd6 B4000000 		.4byte	.LFE30
 2959 0bda C1090000 		.4byte	.LLST2
 2960 0bde 01       		.byte	0x1
 2961 0bdf 1C0C0000 		.4byte	0xc1c
 2962 0be3 1C       		.uleb128 0x1c
 2963 0be4 00000000 		.4byte	.LASF45
 2964 0be8 01       		.byte	0x1
 2965 0be9 DA       		.byte	0xda
 2966 0bea 1D030000 		.4byte	0x31d
 2967 0bee 01       		.byte	0x1
 2968 0bef 50       		.byte	0x50
 2969 0bf0 1C       		.uleb128 0x1c
 2970 0bf1 0E010000 		.4byte	.LASF100
 2971 0bf5 01       		.byte	0x1
 2972 0bf6 DA       		.byte	0xda
 2973 0bf7 C30B0000 		.4byte	0xbc3
 2974 0bfb 01       		.byte	0x1
 2975 0bfc 51       		.byte	0x51
 2976 0bfd 1D       		.uleb128 0x1d
 2977 0bfe 05000000 		.4byte	.LASF71
 2978 0c02 01       		.byte	0x1
 2979 0c03 DC       		.byte	0xdc
 2980 0c04 A7000000 		.4byte	0xa7
 2981 0c08 ED090000 		.4byte	.LLST3
 2982 0c0c 1D       		.uleb128 0x1d
 2983 0c0d 0D000000 		.4byte	.LASF72
 2984 0c11 01       		.byte	0x1
 2985 0c12 DD       		.byte	0xdd
 2986 0c13 91000000 		.4byte	0x91
 2987 0c17 460A0000 		.4byte	.LLST4
 2988 0c1b 00       		.byte	0
 2989 0c1c 1B       		.uleb128 0x1b
 2990 0c1d 01       		.byte	0x1
 2991 0c1e F6020000 		.4byte	.LASF102
 2992 0c22 01       		.byte	0x1
 2993 0c23 B3       		.byte	0xb3
 2994 0c24 01       		.byte	0x1
 2995 0c25 00000000 		.4byte	.LFB29
 2996 0c29 6C000000 		.4byte	.LFE29
 2997 0c2d 6B0A0000 		.4byte	.LLST0
 2998 0c31 01       		.byte	0x1
 2999 0c32 E10C0000 		.4byte	0xce1
 3000 0c36 1E       		.uleb128 0x1e
 3001 0c37 00000000 		.4byte	.LASF45
 3002 0c3b 01       		.byte	0x1
 3003 0c3c B3       		.byte	0xb3
 3004 0c3d 1D030000 		.4byte	0x31d
 3005 0c41 C70A0000 		.4byte	.LLST1
 3006 0c45 1F       		.uleb128 0x1f
 3007 0c46 20000000 		.4byte	.LVL2
 3008 0c4a E10C0000 		.4byte	0xce1
 3009 0c4e 5F0C0000 		.4byte	0xc5f
 3010 0c52 20       		.uleb128 0x20
 3011 0c53 01       		.byte	0x1
ARM GAS  G:\Users\Jaxb\AppData\Local\Temp\ccclxmrG.s 			page 78


 3012 0c54 50       		.byte	0x50
 3013 0c55 03       		.byte	0x3
 3014 0c56 0A       		.byte	0xa
 3015 0c57 0002     		.2byte	0x200
 3016 0c59 20       		.uleb128 0x20
 3017 0c5a 01       		.byte	0x1
 3018 0c5b 51       		.byte	0x51
 3019 0c5c 01       		.byte	0x1
 3020 0c5d 31       		.byte	0x31
 3021 0c5e 00       		.byte	0
 3022 0c5f 21       		.uleb128 0x21
 3023 0c60 2E000000 		.4byte	.LVL3
 3024 0c64 01       		.byte	0x1
 3025 0c65 E10C0000 		.4byte	0xce1
 3026 0c69 7A0C0000 		.4byte	0xc7a
 3027 0c6d 20       		.uleb128 0x20
 3028 0c6e 01       		.byte	0x1
 3029 0c6f 50       		.byte	0x50
 3030 0c70 03       		.byte	0x3
 3031 0c71 0A       		.byte	0xa
 3032 0c72 0002     		.2byte	0x200
 3033 0c74 20       		.uleb128 0x20
 3034 0c75 01       		.byte	0x1
 3035 0c76 51       		.byte	0x51
 3036 0c77 01       		.byte	0x1
 3037 0c78 30       		.byte	0x30
 3038 0c79 00       		.byte	0
 3039 0c7a 1F       		.uleb128 0x1f
 3040 0c7b 38000000 		.4byte	.LVL5
 3041 0c7f E10C0000 		.4byte	0xce1
 3042 0c83 940C0000 		.4byte	0xc94
 3043 0c87 20       		.uleb128 0x20
 3044 0c88 01       		.byte	0x1
 3045 0c89 50       		.byte	0x50
 3046 0c8a 03       		.byte	0x3
 3047 0c8b 0A       		.byte	0xa
 3048 0c8c 0080     		.2byte	0x8000
 3049 0c8e 20       		.uleb128 0x20
 3050 0c8f 01       		.byte	0x1
 3051 0c90 51       		.byte	0x51
 3052 0c91 01       		.byte	0x1
 3053 0c92 31       		.byte	0x31
 3054 0c93 00       		.byte	0
 3055 0c94 21       		.uleb128 0x21
 3056 0c95 46000000 		.4byte	.LVL6
 3057 0c99 01       		.byte	0x1
 3058 0c9a E10C0000 		.4byte	0xce1
 3059 0c9e AF0C0000 		.4byte	0xcaf
 3060 0ca2 20       		.uleb128 0x20
 3061 0ca3 01       		.byte	0x1
 3062 0ca4 50       		.byte	0x50
 3063 0ca5 03       		.byte	0x3
 3064 0ca6 0A       		.byte	0xa
 3065 0ca7 0080     		.2byte	0x8000
 3066 0ca9 20       		.uleb128 0x20
 3067 0caa 01       		.byte	0x1
 3068 0cab 51       		.byte	0x51
ARM GAS  G:\Users\Jaxb\AppData\Local\Temp\ccclxmrG.s 			page 79


 3069 0cac 01       		.byte	0x1
 3070 0cad 30       		.byte	0x30
 3071 0cae 00       		.byte	0
 3072 0caf 1F       		.uleb128 0x1f
 3073 0cb0 50000000 		.4byte	.LVL8
 3074 0cb4 E10C0000 		.4byte	0xce1
 3075 0cb8 C90C0000 		.4byte	0xcc9
 3076 0cbc 20       		.uleb128 0x20
 3077 0cbd 01       		.byte	0x1
 3078 0cbe 50       		.byte	0x50
 3079 0cbf 03       		.byte	0x3
 3080 0cc0 0A       		.byte	0xa
 3081 0cc1 0004     		.2byte	0x400
 3082 0cc3 20       		.uleb128 0x20
 3083 0cc4 01       		.byte	0x1
 3084 0cc5 51       		.byte	0x51
 3085 0cc6 01       		.byte	0x1
 3086 0cc7 31       		.byte	0x31
 3087 0cc8 00       		.byte	0
 3088 0cc9 22       		.uleb128 0x22
 3089 0cca 5E000000 		.4byte	.LVL9
 3090 0cce 01       		.byte	0x1
 3091 0ccf E10C0000 		.4byte	0xce1
 3092 0cd3 20       		.uleb128 0x20
 3093 0cd4 01       		.byte	0x1
 3094 0cd5 50       		.byte	0x50
 3095 0cd6 03       		.byte	0x3
 3096 0cd7 0A       		.byte	0xa
 3097 0cd8 0004     		.2byte	0x400
 3098 0cda 20       		.uleb128 0x20
 3099 0cdb 01       		.byte	0x1
 3100 0cdc 51       		.byte	0x51
 3101 0cdd 01       		.byte	0x1
 3102 0cde 30       		.byte	0x30
 3103 0cdf 00       		.byte	0
 3104 0ce0 00       		.byte	0
 3105 0ce1 23       		.uleb128 0x23
 3106 0ce2 01       		.byte	0x1
 3107 0ce3 01       		.byte	0x1
 3108 0ce4 E0030000 		.4byte	.LASF107
 3109 0ce8 E0030000 		.4byte	.LASF107
 3110 0cec 08       		.byte	0x8
 3111 0ced BC02     		.2byte	0x2bc
 3112 0cef 00       		.byte	0
 3113              		.section	.debug_abbrev,"",%progbits
 3114              	.Ldebug_abbrev0:
 3115 0000 01       		.uleb128 0x1
 3116 0001 11       		.uleb128 0x11
 3117 0002 01       		.byte	0x1
 3118 0003 25       		.uleb128 0x25
 3119 0004 0E       		.uleb128 0xe
 3120 0005 13       		.uleb128 0x13
 3121 0006 0B       		.uleb128 0xb
 3122 0007 03       		.uleb128 0x3
 3123 0008 0E       		.uleb128 0xe
 3124 0009 1B       		.uleb128 0x1b
 3125 000a 0E       		.uleb128 0xe
ARM GAS  G:\Users\Jaxb\AppData\Local\Temp\ccclxmrG.s 			page 80


 3126 000b 11       		.uleb128 0x11
 3127 000c 01       		.uleb128 0x1
 3128 000d 12       		.uleb128 0x12
 3129 000e 01       		.uleb128 0x1
 3130 000f 10       		.uleb128 0x10
 3131 0010 06       		.uleb128 0x6
 3132 0011 00       		.byte	0
 3133 0012 00       		.byte	0
 3134 0013 02       		.uleb128 0x2
 3135 0014 24       		.uleb128 0x24
 3136 0015 00       		.byte	0
 3137 0016 0B       		.uleb128 0xb
 3138 0017 0B       		.uleb128 0xb
 3139 0018 3E       		.uleb128 0x3e
 3140 0019 0B       		.uleb128 0xb
 3141 001a 03       		.uleb128 0x3
 3142 001b 0E       		.uleb128 0xe
 3143 001c 00       		.byte	0
 3144 001d 00       		.byte	0
 3145 001e 03       		.uleb128 0x3
 3146 001f 16       		.uleb128 0x16
 3147 0020 00       		.byte	0
 3148 0021 03       		.uleb128 0x3
 3149 0022 0E       		.uleb128 0xe
 3150 0023 3A       		.uleb128 0x3a
 3151 0024 0B       		.uleb128 0xb
 3152 0025 3B       		.uleb128 0x3b
 3153 0026 0B       		.uleb128 0xb
 3154 0027 49       		.uleb128 0x49
 3155 0028 13       		.uleb128 0x13
 3156 0029 00       		.byte	0
 3157 002a 00       		.byte	0
 3158 002b 04       		.uleb128 0x4
 3159 002c 24       		.uleb128 0x24
 3160 002d 00       		.byte	0
 3161 002e 0B       		.uleb128 0xb
 3162 002f 0B       		.uleb128 0xb
 3163 0030 3E       		.uleb128 0x3e
 3164 0031 0B       		.uleb128 0xb
 3165 0032 03       		.uleb128 0x3
 3166 0033 08       		.uleb128 0x8
 3167 0034 00       		.byte	0
 3168 0035 00       		.byte	0
 3169 0036 05       		.uleb128 0x5
 3170 0037 35       		.uleb128 0x35
 3171 0038 00       		.byte	0
 3172 0039 49       		.uleb128 0x49
 3173 003a 13       		.uleb128 0x13
 3174 003b 00       		.byte	0
 3175 003c 00       		.byte	0
 3176 003d 06       		.uleb128 0x6
 3177 003e 34       		.uleb128 0x34
 3178 003f 00       		.byte	0
 3179 0040 03       		.uleb128 0x3
 3180 0041 0E       		.uleb128 0xe
 3181 0042 3A       		.uleb128 0x3a
 3182 0043 0B       		.uleb128 0xb
ARM GAS  G:\Users\Jaxb\AppData\Local\Temp\ccclxmrG.s 			page 81


 3183 0044 3B       		.uleb128 0x3b
 3184 0045 05       		.uleb128 0x5
 3185 0046 49       		.uleb128 0x49
 3186 0047 13       		.uleb128 0x13
 3187 0048 3F       		.uleb128 0x3f
 3188 0049 0C       		.uleb128 0xc
 3189 004a 3C       		.uleb128 0x3c
 3190 004b 0C       		.uleb128 0xc
 3191 004c 00       		.byte	0
 3192 004d 00       		.byte	0
 3193 004e 07       		.uleb128 0x7
 3194 004f 34       		.uleb128 0x34
 3195 0050 00       		.byte	0
 3196 0051 03       		.uleb128 0x3
 3197 0052 0E       		.uleb128 0xe
 3198 0053 3A       		.uleb128 0x3a
 3199 0054 0B       		.uleb128 0xb
 3200 0055 3B       		.uleb128 0x3b
 3201 0056 0B       		.uleb128 0xb
 3202 0057 49       		.uleb128 0x49
 3203 0058 13       		.uleb128 0x13
 3204 0059 3F       		.uleb128 0x3f
 3205 005a 0C       		.uleb128 0xc
 3206 005b 3C       		.uleb128 0x3c
 3207 005c 0C       		.uleb128 0xc
 3208 005d 00       		.byte	0
 3209 005e 00       		.byte	0
 3210 005f 08       		.uleb128 0x8
 3211 0060 04       		.uleb128 0x4
 3212 0061 01       		.byte	0x1
 3213 0062 3E       		.uleb128 0x3e
 3214 0063 0B       		.uleb128 0xb
 3215 0064 0B       		.uleb128 0xb
 3216 0065 0B       		.uleb128 0xb
 3217 0066 49       		.uleb128 0x49
 3218 0067 13       		.uleb128 0x13
 3219 0068 3A       		.uleb128 0x3a
 3220 0069 0B       		.uleb128 0xb
 3221 006a 3B       		.uleb128 0x3b
 3222 006b 05       		.uleb128 0x5
 3223 006c 01       		.uleb128 0x1
 3224 006d 13       		.uleb128 0x13
 3225 006e 00       		.byte	0
 3226 006f 00       		.byte	0
 3227 0070 09       		.uleb128 0x9
 3228 0071 28       		.uleb128 0x28
 3229 0072 00       		.byte	0
 3230 0073 03       		.uleb128 0x3
 3231 0074 0E       		.uleb128 0xe
 3232 0075 1C       		.uleb128 0x1c
 3233 0076 0B       		.uleb128 0xb
 3234 0077 00       		.byte	0
 3235 0078 00       		.byte	0
 3236 0079 0A       		.uleb128 0xa
 3237 007a 28       		.uleb128 0x28
 3238 007b 00       		.byte	0
 3239 007c 03       		.uleb128 0x3
ARM GAS  G:\Users\Jaxb\AppData\Local\Temp\ccclxmrG.s 			page 82


 3240 007d 08       		.uleb128 0x8
 3241 007e 1C       		.uleb128 0x1c
 3242 007f 0B       		.uleb128 0xb
 3243 0080 00       		.byte	0
 3244 0081 00       		.byte	0
 3245 0082 0B       		.uleb128 0xb
 3246 0083 16       		.uleb128 0x16
 3247 0084 00       		.byte	0
 3248 0085 03       		.uleb128 0x3
 3249 0086 0E       		.uleb128 0xe
 3250 0087 3A       		.uleb128 0x3a
 3251 0088 0B       		.uleb128 0xb
 3252 0089 3B       		.uleb128 0x3b
 3253 008a 05       		.uleb128 0x5
 3254 008b 49       		.uleb128 0x49
 3255 008c 13       		.uleb128 0x13
 3256 008d 00       		.byte	0
 3257 008e 00       		.byte	0
 3258 008f 0C       		.uleb128 0xc
 3259 0090 13       		.uleb128 0x13
 3260 0091 01       		.byte	0x1
 3261 0092 0B       		.uleb128 0xb
 3262 0093 0B       		.uleb128 0xb
 3263 0094 3A       		.uleb128 0x3a
 3264 0095 0B       		.uleb128 0xb
 3265 0096 3B       		.uleb128 0x3b
 3266 0097 05       		.uleb128 0x5
 3267 0098 01       		.uleb128 0x1
 3268 0099 13       		.uleb128 0x13
 3269 009a 00       		.byte	0
 3270 009b 00       		.byte	0
 3271 009c 0D       		.uleb128 0xd
 3272 009d 0D       		.uleb128 0xd
 3273 009e 00       		.byte	0
 3274 009f 03       		.uleb128 0x3
 3275 00a0 08       		.uleb128 0x8
 3276 00a1 3A       		.uleb128 0x3a
 3277 00a2 0B       		.uleb128 0xb
 3278 00a3 3B       		.uleb128 0x3b
 3279 00a4 05       		.uleb128 0x5
 3280 00a5 49       		.uleb128 0x49
 3281 00a6 13       		.uleb128 0x13
 3282 00a7 38       		.uleb128 0x38
 3283 00a8 0A       		.uleb128 0xa
 3284 00a9 00       		.byte	0
 3285 00aa 00       		.byte	0
 3286 00ab 0E       		.uleb128 0xe
 3287 00ac 0D       		.uleb128 0xd
 3288 00ad 00       		.byte	0
 3289 00ae 03       		.uleb128 0x3
 3290 00af 0E       		.uleb128 0xe
 3291 00b0 3A       		.uleb128 0x3a
 3292 00b1 0B       		.uleb128 0xb
 3293 00b2 3B       		.uleb128 0x3b
 3294 00b3 05       		.uleb128 0x5
 3295 00b4 49       		.uleb128 0x49
 3296 00b5 13       		.uleb128 0x13
ARM GAS  G:\Users\Jaxb\AppData\Local\Temp\ccclxmrG.s 			page 83


 3297 00b6 38       		.uleb128 0x38
 3298 00b7 0A       		.uleb128 0xa
 3299 00b8 00       		.byte	0
 3300 00b9 00       		.byte	0
 3301 00ba 0F       		.uleb128 0xf
 3302 00bb 13       		.uleb128 0x13
 3303 00bc 01       		.byte	0x1
 3304 00bd 0B       		.uleb128 0xb
 3305 00be 0B       		.uleb128 0xb
 3306 00bf 3A       		.uleb128 0x3a
 3307 00c0 0B       		.uleb128 0xb
 3308 00c1 3B       		.uleb128 0x3b
 3309 00c2 0B       		.uleb128 0xb
 3310 00c3 01       		.uleb128 0x1
 3311 00c4 13       		.uleb128 0x13
 3312 00c5 00       		.byte	0
 3313 00c6 00       		.byte	0
 3314 00c7 10       		.uleb128 0x10
 3315 00c8 0D       		.uleb128 0xd
 3316 00c9 00       		.byte	0
 3317 00ca 03       		.uleb128 0x3
 3318 00cb 0E       		.uleb128 0xe
 3319 00cc 3A       		.uleb128 0x3a
 3320 00cd 0B       		.uleb128 0xb
 3321 00ce 3B       		.uleb128 0x3b
 3322 00cf 0B       		.uleb128 0xb
 3323 00d0 49       		.uleb128 0x49
 3324 00d1 13       		.uleb128 0x13
 3325 00d2 38       		.uleb128 0x38
 3326 00d3 0A       		.uleb128 0xa
 3327 00d4 00       		.byte	0
 3328 00d5 00       		.byte	0
 3329 00d6 11       		.uleb128 0x11
 3330 00d7 2E       		.uleb128 0x2e
 3331 00d8 01       		.byte	0x1
 3332 00d9 3F       		.uleb128 0x3f
 3333 00da 0C       		.uleb128 0xc
 3334 00db 03       		.uleb128 0x3
 3335 00dc 0E       		.uleb128 0xe
 3336 00dd 3A       		.uleb128 0x3a
 3337 00de 0B       		.uleb128 0xb
 3338 00df 3B       		.uleb128 0x3b
 3339 00e0 05       		.uleb128 0x5
 3340 00e1 27       		.uleb128 0x27
 3341 00e2 0C       		.uleb128 0xc
 3342 00e3 11       		.uleb128 0x11
 3343 00e4 01       		.uleb128 0x1
 3344 00e5 12       		.uleb128 0x12
 3345 00e6 01       		.uleb128 0x1
 3346 00e7 40       		.uleb128 0x40
 3347 00e8 0A       		.uleb128 0xa
 3348 00e9 9742     		.uleb128 0x2117
 3349 00eb 0C       		.uleb128 0xc
 3350 00ec 01       		.uleb128 0x1
 3351 00ed 13       		.uleb128 0x13
 3352 00ee 00       		.byte	0
 3353 00ef 00       		.byte	0
ARM GAS  G:\Users\Jaxb\AppData\Local\Temp\ccclxmrG.s 			page 84


 3354 00f0 12       		.uleb128 0x12
 3355 00f1 05       		.uleb128 0x5
 3356 00f2 00       		.byte	0
 3357 00f3 03       		.uleb128 0x3
 3358 00f4 0E       		.uleb128 0xe
 3359 00f5 3A       		.uleb128 0x3a
 3360 00f6 0B       		.uleb128 0xb
 3361 00f7 3B       		.uleb128 0x3b
 3362 00f8 05       		.uleb128 0x5
 3363 00f9 49       		.uleb128 0x49
 3364 00fa 13       		.uleb128 0x13
 3365 00fb 02       		.uleb128 0x2
 3366 00fc 0A       		.uleb128 0xa
 3367 00fd 00       		.byte	0
 3368 00fe 00       		.byte	0
 3369 00ff 13       		.uleb128 0x13
 3370 0100 05       		.uleb128 0x5
 3371 0101 00       		.byte	0
 3372 0102 03       		.uleb128 0x3
 3373 0103 0E       		.uleb128 0xe
 3374 0104 3A       		.uleb128 0x3a
 3375 0105 0B       		.uleb128 0xb
 3376 0106 3B       		.uleb128 0x3b
 3377 0107 05       		.uleb128 0x5
 3378 0108 49       		.uleb128 0x49
 3379 0109 13       		.uleb128 0x13
 3380 010a 02       		.uleb128 0x2
 3381 010b 06       		.uleb128 0x6
 3382 010c 00       		.byte	0
 3383 010d 00       		.byte	0
 3384 010e 14       		.uleb128 0x14
 3385 010f 34       		.uleb128 0x34
 3386 0110 00       		.byte	0
 3387 0111 03       		.uleb128 0x3
 3388 0112 0E       		.uleb128 0xe
 3389 0113 3A       		.uleb128 0x3a
 3390 0114 0B       		.uleb128 0xb
 3391 0115 3B       		.uleb128 0x3b
 3392 0116 05       		.uleb128 0x5
 3393 0117 49       		.uleb128 0x49
 3394 0118 13       		.uleb128 0x13
 3395 0119 02       		.uleb128 0x2
 3396 011a 06       		.uleb128 0x6
 3397 011b 00       		.byte	0
 3398 011c 00       		.byte	0
 3399 011d 15       		.uleb128 0x15
 3400 011e 0F       		.uleb128 0xf
 3401 011f 00       		.byte	0
 3402 0120 0B       		.uleb128 0xb
 3403 0121 0B       		.uleb128 0xb
 3404 0122 49       		.uleb128 0x49
 3405 0123 13       		.uleb128 0x13
 3406 0124 00       		.byte	0
 3407 0125 00       		.byte	0
 3408 0126 16       		.uleb128 0x16
 3409 0127 2E       		.uleb128 0x2e
 3410 0128 01       		.byte	0x1
ARM GAS  G:\Users\Jaxb\AppData\Local\Temp\ccclxmrG.s 			page 85


 3411 0129 3F       		.uleb128 0x3f
 3412 012a 0C       		.uleb128 0xc
 3413 012b 03       		.uleb128 0x3
 3414 012c 0E       		.uleb128 0xe
 3415 012d 3A       		.uleb128 0x3a
 3416 012e 0B       		.uleb128 0xb
 3417 012f 3B       		.uleb128 0x3b
 3418 0130 05       		.uleb128 0x5
 3419 0131 27       		.uleb128 0x27
 3420 0132 0C       		.uleb128 0xc
 3421 0133 49       		.uleb128 0x49
 3422 0134 13       		.uleb128 0x13
 3423 0135 11       		.uleb128 0x11
 3424 0136 01       		.uleb128 0x1
 3425 0137 12       		.uleb128 0x12
 3426 0138 01       		.uleb128 0x1
 3427 0139 40       		.uleb128 0x40
 3428 013a 0A       		.uleb128 0xa
 3429 013b 9742     		.uleb128 0x2117
 3430 013d 0C       		.uleb128 0xc
 3431 013e 01       		.uleb128 0x1
 3432 013f 13       		.uleb128 0x13
 3433 0140 00       		.byte	0
 3434 0141 00       		.byte	0
 3435 0142 17       		.uleb128 0x17
 3436 0143 2E       		.uleb128 0x2e
 3437 0144 01       		.byte	0x1
 3438 0145 3F       		.uleb128 0x3f
 3439 0146 0C       		.uleb128 0xc
 3440 0147 03       		.uleb128 0x3
 3441 0148 0E       		.uleb128 0xe
 3442 0149 3A       		.uleb128 0x3a
 3443 014a 0B       		.uleb128 0xb
 3444 014b 3B       		.uleb128 0x3b
 3445 014c 05       		.uleb128 0x5
 3446 014d 27       		.uleb128 0x27
 3447 014e 0C       		.uleb128 0xc
 3448 014f 49       		.uleb128 0x49
 3449 0150 13       		.uleb128 0x13
 3450 0151 11       		.uleb128 0x11
 3451 0152 01       		.uleb128 0x1
 3452 0153 12       		.uleb128 0x12
 3453 0154 01       		.uleb128 0x1
 3454 0155 40       		.uleb128 0x40
 3455 0156 06       		.uleb128 0x6
 3456 0157 9742     		.uleb128 0x2117
 3457 0159 0C       		.uleb128 0xc
 3458 015a 01       		.uleb128 0x1
 3459 015b 13       		.uleb128 0x13
 3460 015c 00       		.byte	0
 3461 015d 00       		.byte	0
 3462 015e 18       		.uleb128 0x18
 3463 015f 34       		.uleb128 0x34
 3464 0160 00       		.byte	0
 3465 0161 03       		.uleb128 0x3
 3466 0162 08       		.uleb128 0x8
 3467 0163 3A       		.uleb128 0x3a
ARM GAS  G:\Users\Jaxb\AppData\Local\Temp\ccclxmrG.s 			page 86


 3468 0164 0B       		.uleb128 0xb
 3469 0165 3B       		.uleb128 0x3b
 3470 0166 05       		.uleb128 0x5
 3471 0167 49       		.uleb128 0x49
 3472 0168 13       		.uleb128 0x13
 3473 0169 02       		.uleb128 0x2
 3474 016a 0A       		.uleb128 0xa
 3475 016b 00       		.byte	0
 3476 016c 00       		.byte	0
 3477 016d 19       		.uleb128 0x19
 3478 016e 2E       		.uleb128 0x2e
 3479 016f 01       		.byte	0x1
 3480 0170 3F       		.uleb128 0x3f
 3481 0171 0C       		.uleb128 0xc
 3482 0172 03       		.uleb128 0x3
 3483 0173 0E       		.uleb128 0xe
 3484 0174 3A       		.uleb128 0x3a
 3485 0175 0B       		.uleb128 0xb
 3486 0176 3B       		.uleb128 0x3b
 3487 0177 05       		.uleb128 0x5
 3488 0178 27       		.uleb128 0x27
 3489 0179 0C       		.uleb128 0xc
 3490 017a 11       		.uleb128 0x11
 3491 017b 01       		.uleb128 0x1
 3492 017c 12       		.uleb128 0x12
 3493 017d 01       		.uleb128 0x1
 3494 017e 40       		.uleb128 0x40
 3495 017f 06       		.uleb128 0x6
 3496 0180 9742     		.uleb128 0x2117
 3497 0182 0C       		.uleb128 0xc
 3498 0183 01       		.uleb128 0x1
 3499 0184 13       		.uleb128 0x13
 3500 0185 00       		.byte	0
 3501 0186 00       		.byte	0
 3502 0187 1A       		.uleb128 0x1a
 3503 0188 2E       		.uleb128 0x2e
 3504 0189 00       		.byte	0
 3505 018a 3F       		.uleb128 0x3f
 3506 018b 0C       		.uleb128 0xc
 3507 018c 03       		.uleb128 0x3
 3508 018d 0E       		.uleb128 0xe
 3509 018e 3A       		.uleb128 0x3a
 3510 018f 0B       		.uleb128 0xb
 3511 0190 3B       		.uleb128 0x3b
 3512 0191 05       		.uleb128 0x5
 3513 0192 27       		.uleb128 0x27
 3514 0193 0C       		.uleb128 0xc
 3515 0194 49       		.uleb128 0x49
 3516 0195 13       		.uleb128 0x13
 3517 0196 11       		.uleb128 0x11
 3518 0197 01       		.uleb128 0x1
 3519 0198 12       		.uleb128 0x12
 3520 0199 01       		.uleb128 0x1
 3521 019a 40       		.uleb128 0x40
 3522 019b 0A       		.uleb128 0xa
 3523 019c 9742     		.uleb128 0x2117
 3524 019e 0C       		.uleb128 0xc
ARM GAS  G:\Users\Jaxb\AppData\Local\Temp\ccclxmrG.s 			page 87


 3525 019f 00       		.byte	0
 3526 01a0 00       		.byte	0
 3527 01a1 1B       		.uleb128 0x1b
 3528 01a2 2E       		.uleb128 0x2e
 3529 01a3 01       		.byte	0x1
 3530 01a4 3F       		.uleb128 0x3f
 3531 01a5 0C       		.uleb128 0xc
 3532 01a6 03       		.uleb128 0x3
 3533 01a7 0E       		.uleb128 0xe
 3534 01a8 3A       		.uleb128 0x3a
 3535 01a9 0B       		.uleb128 0xb
 3536 01aa 3B       		.uleb128 0x3b
 3537 01ab 0B       		.uleb128 0xb
 3538 01ac 27       		.uleb128 0x27
 3539 01ad 0C       		.uleb128 0xc
 3540 01ae 11       		.uleb128 0x11
 3541 01af 01       		.uleb128 0x1
 3542 01b0 12       		.uleb128 0x12
 3543 01b1 01       		.uleb128 0x1
 3544 01b2 40       		.uleb128 0x40
 3545 01b3 06       		.uleb128 0x6
 3546 01b4 9742     		.uleb128 0x2117
 3547 01b6 0C       		.uleb128 0xc
 3548 01b7 01       		.uleb128 0x1
 3549 01b8 13       		.uleb128 0x13
 3550 01b9 00       		.byte	0
 3551 01ba 00       		.byte	0
 3552 01bb 1C       		.uleb128 0x1c
 3553 01bc 05       		.uleb128 0x5
 3554 01bd 00       		.byte	0
 3555 01be 03       		.uleb128 0x3
 3556 01bf 0E       		.uleb128 0xe
 3557 01c0 3A       		.uleb128 0x3a
 3558 01c1 0B       		.uleb128 0xb
 3559 01c2 3B       		.uleb128 0x3b
 3560 01c3 0B       		.uleb128 0xb
 3561 01c4 49       		.uleb128 0x49
 3562 01c5 13       		.uleb128 0x13
 3563 01c6 02       		.uleb128 0x2
 3564 01c7 0A       		.uleb128 0xa
 3565 01c8 00       		.byte	0
 3566 01c9 00       		.byte	0
 3567 01ca 1D       		.uleb128 0x1d
 3568 01cb 34       		.uleb128 0x34
 3569 01cc 00       		.byte	0
 3570 01cd 03       		.uleb128 0x3
 3571 01ce 0E       		.uleb128 0xe
 3572 01cf 3A       		.uleb128 0x3a
 3573 01d0 0B       		.uleb128 0xb
 3574 01d1 3B       		.uleb128 0x3b
 3575 01d2 0B       		.uleb128 0xb
 3576 01d3 49       		.uleb128 0x49
 3577 01d4 13       		.uleb128 0x13
 3578 01d5 02       		.uleb128 0x2
 3579 01d6 06       		.uleb128 0x6
 3580 01d7 00       		.byte	0
 3581 01d8 00       		.byte	0
ARM GAS  G:\Users\Jaxb\AppData\Local\Temp\ccclxmrG.s 			page 88


 3582 01d9 1E       		.uleb128 0x1e
 3583 01da 05       		.uleb128 0x5
 3584 01db 00       		.byte	0
 3585 01dc 03       		.uleb128 0x3
 3586 01dd 0E       		.uleb128 0xe
 3587 01de 3A       		.uleb128 0x3a
 3588 01df 0B       		.uleb128 0xb
 3589 01e0 3B       		.uleb128 0x3b
 3590 01e1 0B       		.uleb128 0xb
 3591 01e2 49       		.uleb128 0x49
 3592 01e3 13       		.uleb128 0x13
 3593 01e4 02       		.uleb128 0x2
 3594 01e5 06       		.uleb128 0x6
 3595 01e6 00       		.byte	0
 3596 01e7 00       		.byte	0
 3597 01e8 1F       		.uleb128 0x1f
 3598 01e9 898201   		.uleb128 0x4109
 3599 01ec 01       		.byte	0x1
 3600 01ed 11       		.uleb128 0x11
 3601 01ee 01       		.uleb128 0x1
 3602 01ef 31       		.uleb128 0x31
 3603 01f0 13       		.uleb128 0x13
 3604 01f1 01       		.uleb128 0x1
 3605 01f2 13       		.uleb128 0x13
 3606 01f3 00       		.byte	0
 3607 01f4 00       		.byte	0
 3608 01f5 20       		.uleb128 0x20
 3609 01f6 8A8201   		.uleb128 0x410a
 3610 01f9 00       		.byte	0
 3611 01fa 02       		.uleb128 0x2
 3612 01fb 0A       		.uleb128 0xa
 3613 01fc 9142     		.uleb128 0x2111
 3614 01fe 0A       		.uleb128 0xa
 3615 01ff 00       		.byte	0
 3616 0200 00       		.byte	0
 3617 0201 21       		.uleb128 0x21
 3618 0202 898201   		.uleb128 0x4109
 3619 0205 01       		.byte	0x1
 3620 0206 11       		.uleb128 0x11
 3621 0207 01       		.uleb128 0x1
 3622 0208 9542     		.uleb128 0x2115
 3623 020a 0C       		.uleb128 0xc
 3624 020b 31       		.uleb128 0x31
 3625 020c 13       		.uleb128 0x13
 3626 020d 01       		.uleb128 0x1
 3627 020e 13       		.uleb128 0x13
 3628 020f 00       		.byte	0
 3629 0210 00       		.byte	0
 3630 0211 22       		.uleb128 0x22
 3631 0212 898201   		.uleb128 0x4109
 3632 0215 01       		.byte	0x1
 3633 0216 11       		.uleb128 0x11
 3634 0217 01       		.uleb128 0x1
 3635 0218 9542     		.uleb128 0x2115
 3636 021a 0C       		.uleb128 0xc
 3637 021b 31       		.uleb128 0x31
 3638 021c 13       		.uleb128 0x13
ARM GAS  G:\Users\Jaxb\AppData\Local\Temp\ccclxmrG.s 			page 89


 3639 021d 00       		.byte	0
 3640 021e 00       		.byte	0
 3641 021f 23       		.uleb128 0x23
 3642 0220 2E       		.uleb128 0x2e
 3643 0221 00       		.byte	0
 3644 0222 3F       		.uleb128 0x3f
 3645 0223 0C       		.uleb128 0xc
 3646 0224 3C       		.uleb128 0x3c
 3647 0225 0C       		.uleb128 0xc
 3648 0226 8740     		.uleb128 0x2007
 3649 0228 0E       		.uleb128 0xe
 3650 0229 03       		.uleb128 0x3
 3651 022a 0E       		.uleb128 0xe
 3652 022b 3A       		.uleb128 0x3a
 3653 022c 0B       		.uleb128 0xb
 3654 022d 3B       		.uleb128 0x3b
 3655 022e 05       		.uleb128 0x5
 3656 022f 00       		.byte	0
 3657 0230 00       		.byte	0
 3658 0231 00       		.byte	0
 3659              		.section	.debug_loc,"",%progbits
 3660              	.Ldebug_loc0:
 3661              	.LLST54:
 3662 0000 90030000 		.4byte	.LVL137-.Ltext0
 3663 0004 94030000 		.4byte	.LVL138-.Ltext0
 3664 0008 0100     		.2byte	0x1
 3665 000a 51       		.byte	0x51
 3666 000b 94030000 		.4byte	.LVL138-.Ltext0
 3667 000f 98030000 		.4byte	.LFE64-.Ltext0
 3668 0013 0400     		.2byte	0x4
 3669 0015 F3       		.byte	0xf3
 3670 0016 01       		.uleb128 0x1
 3671 0017 51       		.byte	0x51
 3672 0018 9F       		.byte	0x9f
 3673 0019 00000000 		.4byte	0
 3674 001d 00000000 		.4byte	0
 3675              	.LLST55:
 3676 0021 90030000 		.4byte	.LVL137-.Ltext0
 3677 0025 94030000 		.4byte	.LVL138-.Ltext0
 3678 0029 0500     		.2byte	0x5
 3679 002b 71       		.byte	0x71
 3680 002c 00       		.sleb128 0
 3681 002d 38       		.byte	0x38
 3682 002e 25       		.byte	0x25
 3683 002f 9F       		.byte	0x9f
 3684 0030 94030000 		.4byte	.LVL138-.Ltext0
 3685 0034 98030000 		.4byte	.LFE64-.Ltext0
 3686 0038 0600     		.2byte	0x6
 3687 003a F3       		.byte	0xf3
 3688 003b 01       		.uleb128 0x1
 3689 003c 51       		.byte	0x51
 3690 003d 38       		.byte	0x38
 3691 003e 25       		.byte	0x25
 3692 003f 9F       		.byte	0x9f
 3693 0040 00000000 		.4byte	0
 3694 0044 00000000 		.4byte	0
 3695              	.LLST49:
ARM GAS  G:\Users\Jaxb\AppData\Local\Temp\ccclxmrG.s 			page 90


 3696 0048 78030000 		.4byte	.LVL132-.Ltext0
 3697 004c 7C030000 		.4byte	.LVL134-.Ltext0
 3698 0050 0100     		.2byte	0x1
 3699 0052 50       		.byte	0x50
 3700 0053 7C030000 		.4byte	.LVL134-.Ltext0
 3701 0057 8E030000 		.4byte	.LFE63-.Ltext0
 3702 005b 0400     		.2byte	0x4
 3703 005d F3       		.byte	0xf3
 3704 005e 01       		.uleb128 0x1
 3705 005f 50       		.byte	0x50
 3706 0060 9F       		.byte	0x9f
 3707 0061 00000000 		.4byte	0
 3708 0065 00000000 		.4byte	0
 3709              	.LLST50:
 3710 0069 78030000 		.4byte	.LVL132-.Ltext0
 3711 006d 84030000 		.4byte	.LVL135-.Ltext0
 3712 0071 0100     		.2byte	0x1
 3713 0073 51       		.byte	0x51
 3714 0074 84030000 		.4byte	.LVL135-.Ltext0
 3715 0078 8E030000 		.4byte	.LFE63-.Ltext0
 3716 007c 0400     		.2byte	0x4
 3717 007e F3       		.byte	0xf3
 3718 007f 01       		.uleb128 0x1
 3719 0080 51       		.byte	0x51
 3720 0081 9F       		.byte	0x9f
 3721 0082 00000000 		.4byte	0
 3722 0086 00000000 		.4byte	0
 3723              	.LLST51:
 3724 008a 78030000 		.4byte	.LVL132-.Ltext0
 3725 008e 8C030000 		.4byte	.LVL136-.Ltext0
 3726 0092 0200     		.2byte	0x2
 3727 0094 30       		.byte	0x30
 3728 0095 9F       		.byte	0x9f
 3729 0096 8C030000 		.4byte	.LVL136-.Ltext0
 3730 009a 8E030000 		.4byte	.LFE63-.Ltext0
 3731 009e 0100     		.2byte	0x1
 3732 00a0 50       		.byte	0x50
 3733 00a1 00000000 		.4byte	0
 3734 00a5 00000000 		.4byte	0
 3735              	.LLST52:
 3736 00a9 78030000 		.4byte	.LVL132-.Ltext0
 3737 00ad 84030000 		.4byte	.LVL135-.Ltext0
 3738 00b1 0900     		.2byte	0x9
 3739 00b3 71       		.byte	0x71
 3740 00b4 00       		.sleb128 0
 3741 00b5 38       		.byte	0x38
 3742 00b6 25       		.byte	0x25
 3743 00b7 0A       		.byte	0xa
 3744 00b8 FFFF     		.2byte	0xffff
 3745 00ba 1A       		.byte	0x1a
 3746 00bb 9F       		.byte	0x9f
 3747 00bc 84030000 		.4byte	.LVL135-.Ltext0
 3748 00c0 8E030000 		.4byte	.LFE63-.Ltext0
 3749 00c4 0A00     		.2byte	0xa
 3750 00c6 F3       		.byte	0xf3
 3751 00c7 01       		.uleb128 0x1
 3752 00c8 51       		.byte	0x51
ARM GAS  G:\Users\Jaxb\AppData\Local\Temp\ccclxmrG.s 			page 91


 3753 00c9 38       		.byte	0x38
 3754 00ca 25       		.byte	0x25
 3755 00cb 0A       		.byte	0xa
 3756 00cc FFFF     		.2byte	0xffff
 3757 00ce 1A       		.byte	0x1a
 3758 00cf 9F       		.byte	0x9f
 3759 00d0 00000000 		.4byte	0
 3760 00d4 00000000 		.4byte	0
 3761              	.LLST53:
 3762 00d8 78030000 		.4byte	.LVL132-.Ltext0
 3763 00dc 7A030000 		.4byte	.LVL133-.Ltext0
 3764 00e0 0200     		.2byte	0x2
 3765 00e2 30       		.byte	0x30
 3766 00e3 9F       		.byte	0x9f
 3767 00e4 7A030000 		.4byte	.LVL133-.Ltext0
 3768 00e8 8C030000 		.4byte	.LVL136-.Ltext0
 3769 00ec 0900     		.2byte	0x9
 3770 00ee 71       		.byte	0x71
 3771 00ef 00       		.sleb128 0
 3772 00f0 08       		.byte	0x8
 3773 00f1 FF       		.byte	0xff
 3774 00f2 1A       		.byte	0x1a
 3775 00f3 73       		.byte	0x73
 3776 00f4 00       		.sleb128 0
 3777 00f5 1A       		.byte	0x1a
 3778 00f6 9F       		.byte	0x9f
 3779 00f7 8C030000 		.4byte	.LVL136-.Ltext0
 3780 00fb 8E030000 		.4byte	.LFE63-.Ltext0
 3781 00ff 0A00     		.2byte	0xa
 3782 0101 F3       		.byte	0xf3
 3783 0102 01       		.uleb128 0x1
 3784 0103 51       		.byte	0x51
 3785 0104 08       		.byte	0x8
 3786 0105 FF       		.byte	0xff
 3787 0106 1A       		.byte	0x1a
 3788 0107 73       		.byte	0x73
 3789 0108 00       		.sleb128 0
 3790 0109 1A       		.byte	0x1a
 3791 010a 9F       		.byte	0x9f
 3792 010b 00000000 		.4byte	0
 3793 010f 00000000 		.4byte	0
 3794              	.LLST48:
 3795 0113 70030000 		.4byte	.LVL130-.Ltext0
 3796 0117 72030000 		.4byte	.LVL131-.Ltext0
 3797 011b 0100     		.2byte	0x1
 3798 011d 51       		.byte	0x51
 3799 011e 72030000 		.4byte	.LVL131-.Ltext0
 3800 0122 76030000 		.4byte	.LFE62-.Ltext0
 3801 0126 0400     		.2byte	0x4
 3802 0128 F3       		.byte	0xf3
 3803 0129 01       		.uleb128 0x1
 3804 012a 51       		.byte	0x51
 3805 012b 9F       		.byte	0x9f
 3806 012c 00000000 		.4byte	0
 3807 0130 00000000 		.4byte	0
 3808              	.LLST46:
 3809 0134 64030000 		.4byte	.LVL127-.Ltext0
ARM GAS  G:\Users\Jaxb\AppData\Local\Temp\ccclxmrG.s 			page 92


 3810 0138 6C030000 		.4byte	.LVL129-.Ltext0
 3811 013c 0100     		.2byte	0x1
 3812 013e 50       		.byte	0x50
 3813 013f 6C030000 		.4byte	.LVL129-.Ltext0
 3814 0143 70030000 		.4byte	.LFE61-.Ltext0
 3815 0147 0400     		.2byte	0x4
 3816 0149 F3       		.byte	0xf3
 3817 014a 01       		.uleb128 0x1
 3818 014b 50       		.byte	0x50
 3819 014c 9F       		.byte	0x9f
 3820 014d 00000000 		.4byte	0
 3821 0151 00000000 		.4byte	0
 3822              	.LLST47:
 3823 0155 64030000 		.4byte	.LVL127-.Ltext0
 3824 0159 66030000 		.4byte	.LVL128-.Ltext0
 3825 015d 0200     		.2byte	0x2
 3826 015f 30       		.byte	0x30
 3827 0160 9F       		.byte	0x9f
 3828 0161 66030000 		.4byte	.LVL128-.Ltext0
 3829 0165 70030000 		.4byte	.LFE61-.Ltext0
 3830 0169 0B00     		.2byte	0xb
 3831 016b 71       		.byte	0x71
 3832 016c 00       		.sleb128 0
 3833 016d 08       		.byte	0x8
 3834 016e FF       		.byte	0xff
 3835 016f 1A       		.byte	0x1a
 3836 0170 73       		.byte	0x73
 3837 0171 00       		.sleb128 0
 3838 0172 1A       		.byte	0x1a
 3839 0173 30       		.byte	0x30
 3840 0174 2E       		.byte	0x2e
 3841 0175 9F       		.byte	0x9f
 3842 0176 00000000 		.4byte	0
 3843 017a 00000000 		.4byte	0
 3844              	.LLST44:
 3845 017e 3C030000 		.4byte	.LVL122-.Ltext0
 3846 0182 44030000 		.4byte	.LVL125-.Ltext0
 3847 0186 0100     		.2byte	0x1
 3848 0188 51       		.byte	0x51
 3849 0189 44030000 		.4byte	.LVL125-.Ltext0
 3850 018d 48030000 		.4byte	.LFE59-.Ltext0
 3851 0191 0400     		.2byte	0x4
 3852 0193 F3       		.byte	0xf3
 3853 0194 01       		.uleb128 0x1
 3854 0195 51       		.byte	0x51
 3855 0196 9F       		.byte	0x9f
 3856 0197 00000000 		.4byte	0
 3857 019b 00000000 		.4byte	0
 3858              	.LLST45:
 3859 019f 3C030000 		.4byte	.LVL122-.Ltext0
 3860 01a3 3E030000 		.4byte	.LVL123-.Ltext0
 3861 01a7 0200     		.2byte	0x2
 3862 01a9 30       		.byte	0x30
 3863 01aa 9F       		.byte	0x9f
 3864 01ab 3E030000 		.4byte	.LVL123-.Ltext0
 3865 01af 44030000 		.4byte	.LVL125-.Ltext0
 3866 01b3 0100     		.2byte	0x1
ARM GAS  G:\Users\Jaxb\AppData\Local\Temp\ccclxmrG.s 			page 93


 3867 01b5 53       		.byte	0x53
 3868 01b6 44030000 		.4byte	.LVL125-.Ltext0
 3869 01ba 48030000 		.4byte	.LFE59-.Ltext0
 3870 01be 0100     		.2byte	0x1
 3871 01c0 51       		.byte	0x51
 3872 01c1 00000000 		.4byte	0
 3873 01c5 00000000 		.4byte	0
 3874              	.LLST42:
 3875 01c9 24030000 		.4byte	.LVL116-.Ltext0
 3876 01cd 30030000 		.4byte	.LVL120-.Ltext0
 3877 01d1 0100     		.2byte	0x1
 3878 01d3 51       		.byte	0x51
 3879 01d4 30030000 		.4byte	.LVL120-.Ltext0
 3880 01d8 34030000 		.4byte	.LFE57-.Ltext0
 3881 01dc 0400     		.2byte	0x4
 3882 01de F3       		.byte	0xf3
 3883 01df 01       		.uleb128 0x1
 3884 01e0 51       		.byte	0x51
 3885 01e1 9F       		.byte	0x9f
 3886 01e2 00000000 		.4byte	0
 3887 01e6 00000000 		.4byte	0
 3888              	.LLST43:
 3889 01ea 24030000 		.4byte	.LVL116-.Ltext0
 3890 01ee 26030000 		.4byte	.LVL117-.Ltext0
 3891 01f2 0200     		.2byte	0x2
 3892 01f4 30       		.byte	0x30
 3893 01f5 9F       		.byte	0x9f
 3894 01f6 26030000 		.4byte	.LVL117-.Ltext0
 3895 01fa 2A030000 		.4byte	.LVL118-.Ltext0
 3896 01fe 0100     		.2byte	0x1
 3897 0200 53       		.byte	0x53
 3898 0201 2E030000 		.4byte	.LVL119-.Ltext0
 3899 0205 30030000 		.4byte	.LVL120-.Ltext0
 3900 0209 0100     		.2byte	0x1
 3901 020b 53       		.byte	0x53
 3902 020c 30030000 		.4byte	.LVL120-.Ltext0
 3903 0210 34030000 		.4byte	.LFE57-.Ltext0
 3904 0214 0100     		.2byte	0x1
 3905 0216 51       		.byte	0x51
 3906 0217 00000000 		.4byte	0
 3907 021b 00000000 		.4byte	0
 3908              	.LLST39:
 3909 021f 08030000 		.4byte	.LFB56-.Ltext0
 3910 0223 0C030000 		.4byte	.LCFI19-.Ltext0
 3911 0227 0200     		.2byte	0x2
 3912 0229 7D       		.byte	0x7d
 3913 022a 00       		.sleb128 0
 3914 022b 0C030000 		.4byte	.LCFI19-.Ltext0
 3915 022f 20030000 		.4byte	.LCFI20-.Ltext0
 3916 0233 0200     		.2byte	0x2
 3917 0235 7D       		.byte	0x7d
 3918 0236 08       		.sleb128 8
 3919 0237 20030000 		.4byte	.LCFI20-.Ltext0
 3920 023b 22030000 		.4byte	.LFE56-.Ltext0
 3921 023f 0200     		.2byte	0x2
 3922 0241 7D       		.byte	0x7d
 3923 0242 00       		.sleb128 0
ARM GAS  G:\Users\Jaxb\AppData\Local\Temp\ccclxmrG.s 			page 94


 3924 0243 00000000 		.4byte	0
 3925 0247 00000000 		.4byte	0
 3926              	.LLST40:
 3927 024b 08030000 		.4byte	.LVL113-.Ltext0
 3928 024f 1C030000 		.4byte	.LVL115-.Ltext0
 3929 0253 0100     		.2byte	0x1
 3930 0255 50       		.byte	0x50
 3931 0256 1C030000 		.4byte	.LVL115-.Ltext0
 3932 025a 22030000 		.4byte	.LFE56-.Ltext0
 3933 025e 0400     		.2byte	0x4
 3934 0260 F3       		.byte	0xf3
 3935 0261 01       		.uleb128 0x1
 3936 0262 50       		.byte	0x50
 3937 0263 9F       		.byte	0x9f
 3938 0264 00000000 		.4byte	0
 3939 0268 00000000 		.4byte	0
 3940              	.LLST41:
 3941 026c 08030000 		.4byte	.LVL113-.Ltext0
 3942 0270 16030000 		.4byte	.LVL114-.Ltext0
 3943 0274 0100     		.2byte	0x1
 3944 0276 51       		.byte	0x51
 3945 0277 16030000 		.4byte	.LVL114-.Ltext0
 3946 027b 22030000 		.4byte	.LFE56-.Ltext0
 3947 027f 0400     		.2byte	0x4
 3948 0281 F3       		.byte	0xf3
 3949 0282 01       		.uleb128 0x1
 3950 0283 51       		.byte	0x51
 3951 0284 9F       		.byte	0x9f
 3952 0285 00000000 		.4byte	0
 3953 0289 00000000 		.4byte	0
 3954              	.LLST37:
 3955 028d F0020000 		.4byte	.LFB55-.Ltext0
 3956 0291 F4020000 		.4byte	.LCFI17-.Ltext0
 3957 0295 0200     		.2byte	0x2
 3958 0297 7D       		.byte	0x7d
 3959 0298 00       		.sleb128 0
 3960 0299 F4020000 		.4byte	.LCFI17-.Ltext0
 3961 029d 04030000 		.4byte	.LCFI18-.Ltext0
 3962 02a1 0200     		.2byte	0x2
 3963 02a3 7D       		.byte	0x7d
 3964 02a4 08       		.sleb128 8
 3965 02a5 04030000 		.4byte	.LCFI18-.Ltext0
 3966 02a9 06030000 		.4byte	.LFE55-.Ltext0
 3967 02ad 0200     		.2byte	0x2
 3968 02af 7D       		.byte	0x7d
 3969 02b0 00       		.sleb128 0
 3970 02b1 00000000 		.4byte	0
 3971 02b5 00000000 		.4byte	0
 3972              	.LLST38:
 3973 02b9 F0020000 		.4byte	.LVL111-.Ltext0
 3974 02bd FC020000 		.4byte	.LVL112-.Ltext0
 3975 02c1 0100     		.2byte	0x1
 3976 02c3 51       		.byte	0x51
 3977 02c4 FC020000 		.4byte	.LVL112-.Ltext0
 3978 02c8 06030000 		.4byte	.LFE55-.Ltext0
 3979 02cc 0400     		.2byte	0x4
 3980 02ce F3       		.byte	0xf3
ARM GAS  G:\Users\Jaxb\AppData\Local\Temp\ccclxmrG.s 			page 95


 3981 02cf 01       		.uleb128 0x1
 3982 02d0 51       		.byte	0x51
 3983 02d1 9F       		.byte	0x9f
 3984 02d2 00000000 		.4byte	0
 3985 02d6 00000000 		.4byte	0
 3986              	.LLST34:
 3987 02da E0020000 		.4byte	.LVL106-.Ltext0
 3988 02de E4020000 		.4byte	.LVL108-.Ltext0
 3989 02e2 0100     		.2byte	0x1
 3990 02e4 51       		.byte	0x51
 3991 02e5 E4020000 		.4byte	.LVL108-.Ltext0
 3992 02e9 F0020000 		.4byte	.LFE54-.Ltext0
 3993 02ed 0400     		.2byte	0x4
 3994 02ef F3       		.byte	0xf3
 3995 02f0 01       		.uleb128 0x1
 3996 02f1 51       		.byte	0x51
 3997 02f2 9F       		.byte	0x9f
 3998 02f3 00000000 		.4byte	0
 3999 02f7 00000000 		.4byte	0
 4000              	.LLST35:
 4001 02fb E0020000 		.4byte	.LVL106-.Ltext0
 4002 02ff E2020000 		.4byte	.LVL107-.Ltext0
 4003 0303 0200     		.2byte	0x2
 4004 0305 30       		.byte	0x30
 4005 0306 9F       		.byte	0x9f
 4006 0307 E2020000 		.4byte	.LVL107-.Ltext0
 4007 030b F0020000 		.4byte	.LFE54-.Ltext0
 4008 030f 0100     		.2byte	0x1
 4009 0311 53       		.byte	0x53
 4010 0312 00000000 		.4byte	0
 4011 0316 00000000 		.4byte	0
 4012              	.LLST36:
 4013 031a E0020000 		.4byte	.LVL106-.Ltext0
 4014 031e E8020000 		.4byte	.LVL109-.Ltext0
 4015 0322 0200     		.2byte	0x2
 4016 0324 30       		.byte	0x30
 4017 0325 9F       		.byte	0x9f
 4018 0326 E8020000 		.4byte	.LVL109-.Ltext0
 4019 032a F0020000 		.4byte	.LFE54-.Ltext0
 4020 032e 0900     		.2byte	0x9
 4021 0330 F3       		.byte	0xf3
 4022 0331 01       		.uleb128 0x1
 4023 0332 51       		.byte	0x51
 4024 0333 08       		.byte	0x8
 4025 0334 FF       		.byte	0xff
 4026 0335 1A       		.byte	0x1a
 4027 0336 31       		.byte	0x31
 4028 0337 1C       		.byte	0x1c
 4029 0338 9F       		.byte	0x9f
 4030 0339 00000000 		.4byte	0
 4031 033d 00000000 		.4byte	0
 4032              	.LLST27:
 4033 0341 88020000 		.4byte	.LFB53-.Ltext0
 4034 0345 8C020000 		.4byte	.LCFI14-.Ltext0
 4035 0349 0200     		.2byte	0x2
 4036 034b 7D       		.byte	0x7d
 4037 034c 00       		.sleb128 0
ARM GAS  G:\Users\Jaxb\AppData\Local\Temp\ccclxmrG.s 			page 96


 4038 034d 8C020000 		.4byte	.LCFI14-.Ltext0
 4039 0351 C2020000 		.4byte	.LCFI15-.Ltext0
 4040 0355 0200     		.2byte	0x2
 4041 0357 7D       		.byte	0x7d
 4042 0358 0C       		.sleb128 12
 4043 0359 C2020000 		.4byte	.LCFI15-.Ltext0
 4044 035d C4020000 		.4byte	.LCFI16-.Ltext0
 4045 0361 0200     		.2byte	0x2
 4046 0363 7D       		.byte	0x7d
 4047 0364 00       		.sleb128 0
 4048 0365 C4020000 		.4byte	.LCFI16-.Ltext0
 4049 0369 DE020000 		.4byte	.LFE53-.Ltext0
 4050 036d 0200     		.2byte	0x2
 4051 036f 7D       		.byte	0x7d
 4052 0370 0C       		.sleb128 12
 4053 0371 00000000 		.4byte	0
 4054 0375 00000000 		.4byte	0
 4055              	.LLST28:
 4056 0379 88020000 		.4byte	.LVL87-.Ltext0
 4057 037d BC020000 		.4byte	.LVL98-.Ltext0
 4058 0381 0100     		.2byte	0x1
 4059 0383 51       		.byte	0x51
 4060 0384 BC020000 		.4byte	.LVL98-.Ltext0
 4061 0388 C4020000 		.4byte	.LVL100-.Ltext0
 4062 038c 0400     		.2byte	0x4
 4063 038e F3       		.byte	0xf3
 4064 038f 01       		.uleb128 0x1
 4065 0390 51       		.byte	0x51
 4066 0391 9F       		.byte	0x9f
 4067 0392 C4020000 		.4byte	.LVL100-.Ltext0
 4068 0396 DE020000 		.4byte	.LFE53-.Ltext0
 4069 039a 0100     		.2byte	0x1
 4070 039c 51       		.byte	0x51
 4071 039d 00000000 		.4byte	0
 4072 03a1 00000000 		.4byte	0
 4073              	.LLST29:
 4074 03a5 88020000 		.4byte	.LVL87-.Ltext0
 4075 03a9 A8020000 		.4byte	.LVL94-.Ltext0
 4076 03ad 0100     		.2byte	0x1
 4077 03af 52       		.byte	0x52
 4078 03b0 A8020000 		.4byte	.LVL94-.Ltext0
 4079 03b4 C4020000 		.4byte	.LVL100-.Ltext0
 4080 03b8 0400     		.2byte	0x4
 4081 03ba F3       		.byte	0xf3
 4082 03bb 01       		.uleb128 0x1
 4083 03bc 52       		.byte	0x52
 4084 03bd 9F       		.byte	0x9f
 4085 03be C4020000 		.4byte	.LVL100-.Ltext0
 4086 03c2 DE020000 		.4byte	.LFE53-.Ltext0
 4087 03c6 0100     		.2byte	0x1
 4088 03c8 52       		.byte	0x52
 4089 03c9 00000000 		.4byte	0
 4090 03cd 00000000 		.4byte	0
 4091              	.LLST30:
 4092 03d1 88020000 		.4byte	.LVL87-.Ltext0
 4093 03d5 9A020000 		.4byte	.LVL90-.Ltext0
 4094 03d9 0100     		.2byte	0x1
ARM GAS  G:\Users\Jaxb\AppData\Local\Temp\ccclxmrG.s 			page 97


 4095 03db 53       		.byte	0x53
 4096 03dc 9A020000 		.4byte	.LVL90-.Ltext0
 4097 03e0 C4020000 		.4byte	.LVL100-.Ltext0
 4098 03e4 0400     		.2byte	0x4
 4099 03e6 F3       		.byte	0xf3
 4100 03e7 01       		.uleb128 0x1
 4101 03e8 53       		.byte	0x53
 4102 03e9 9F       		.byte	0x9f
 4103 03ea C4020000 		.4byte	.LVL100-.Ltext0
 4104 03ee D4020000 		.4byte	.LVL103-.Ltext0
 4105 03f2 0100     		.2byte	0x1
 4106 03f4 53       		.byte	0x53
 4107 03f5 D4020000 		.4byte	.LVL103-.Ltext0
 4108 03f9 DE020000 		.4byte	.LFE53-.Ltext0
 4109 03fd 0400     		.2byte	0x4
 4110 03ff F3       		.byte	0xf3
 4111 0400 01       		.uleb128 0x1
 4112 0401 53       		.byte	0x53
 4113 0402 9F       		.byte	0x9f
 4114 0403 00000000 		.4byte	0
 4115 0407 00000000 		.4byte	0
 4116              	.LLST31:
 4117 040b 88020000 		.4byte	.LVL87-.Ltext0
 4118 040f 96020000 		.4byte	.LVL88-.Ltext0
 4119 0413 0200     		.2byte	0x2
 4120 0415 30       		.byte	0x30
 4121 0416 9F       		.byte	0x9f
 4122 0417 96020000 		.4byte	.LVL88-.Ltext0
 4123 041b A0020000 		.4byte	.LVL92-.Ltext0
 4124 041f 0100     		.2byte	0x1
 4125 0421 54       		.byte	0x54
 4126 0422 A0020000 		.4byte	.LVL92-.Ltext0
 4127 0426 BE020000 		.4byte	.LVL99-.Ltext0
 4128 042a 0100     		.2byte	0x1
 4129 042c 53       		.byte	0x53
 4130 042d BE020000 		.4byte	.LVL99-.Ltext0
 4131 0431 C4020000 		.4byte	.LVL100-.Ltext0
 4132 0435 0100     		.2byte	0x1
 4133 0437 51       		.byte	0x51
 4134 0438 C4020000 		.4byte	.LVL100-.Ltext0
 4135 043c D0020000 		.4byte	.LVL101-.Ltext0
 4136 0440 0200     		.2byte	0x2
 4137 0442 30       		.byte	0x30
 4138 0443 9F       		.byte	0x9f
 4139 0444 D0020000 		.4byte	.LVL101-.Ltext0
 4140 0448 D8020000 		.4byte	.LVL104-.Ltext0
 4141 044c 0100     		.2byte	0x1
 4142 044e 55       		.byte	0x55
 4143 044f D8020000 		.4byte	.LVL104-.Ltext0
 4144 0453 DA020000 		.4byte	.LVL105-.Ltext0
 4145 0457 0100     		.2byte	0x1
 4146 0459 54       		.byte	0x54
 4147 045a DA020000 		.4byte	.LVL105-.Ltext0
 4148 045e DE020000 		.4byte	.LFE53-.Ltext0
 4149 0462 0100     		.2byte	0x1
 4150 0464 53       		.byte	0x53
 4151 0465 00000000 		.4byte	0
ARM GAS  G:\Users\Jaxb\AppData\Local\Temp\ccclxmrG.s 			page 98


 4152 0469 00000000 		.4byte	0
 4153              	.LLST32:
 4154 046d 88020000 		.4byte	.LVL87-.Ltext0
 4155 0471 96020000 		.4byte	.LVL88-.Ltext0
 4156 0475 0200     		.2byte	0x2
 4157 0477 30       		.byte	0x30
 4158 0478 9F       		.byte	0x9f
 4159 0479 96020000 		.4byte	.LVL88-.Ltext0
 4160 047d 98020000 		.4byte	.LVL89-.Ltext0
 4161 0481 0500     		.2byte	0x5
 4162 0483 37       		.byte	0x37
 4163 0484 76       		.byte	0x76
 4164 0485 00       		.sleb128 0
 4165 0486 24       		.byte	0x24
 4166 0487 9F       		.byte	0x9f
 4167 0488 98020000 		.4byte	.LVL89-.Ltext0
 4168 048c 9E020000 		.4byte	.LVL91-.Ltext0
 4169 0490 0100     		.2byte	0x1
 4170 0492 55       		.byte	0x55
 4171 0493 B4020000 		.4byte	.LVL95-.Ltext0
 4172 0497 B6020000 		.4byte	.LVL96-.Ltext0
 4173 049b 0500     		.2byte	0x5
 4174 049d 4F       		.byte	0x4f
 4175 049e 72       		.byte	0x72
 4176 049f 00       		.sleb128 0
 4177 04a0 24       		.byte	0x24
 4178 04a1 9F       		.byte	0x9f
 4179 04a2 B6020000 		.4byte	.LVL96-.Ltext0
 4180 04a6 BA020000 		.4byte	.LVL97-.Ltext0
 4181 04aa 0100     		.2byte	0x1
 4182 04ac 54       		.byte	0x54
 4183 04ad BA020000 		.4byte	.LVL97-.Ltext0
 4184 04b1 BC020000 		.4byte	.LVL98-.Ltext0
 4185 04b5 0900     		.2byte	0x9
 4186 04b7 71       		.byte	0x71
 4187 04b8 00       		.sleb128 0
 4188 04b9 08       		.byte	0x8
 4189 04ba FF       		.byte	0xff
 4190 04bb 1A       		.byte	0x1a
 4191 04bc 72       		.byte	0x72
 4192 04bd 00       		.sleb128 0
 4193 04be 24       		.byte	0x24
 4194 04bf 9F       		.byte	0x9f
 4195 04c0 C4020000 		.4byte	.LVL100-.Ltext0
 4196 04c4 D0020000 		.4byte	.LVL101-.Ltext0
 4197 04c8 0200     		.2byte	0x2
 4198 04ca 30       		.byte	0x30
 4199 04cb 9F       		.byte	0x9f
 4200 04cc D0020000 		.4byte	.LVL101-.Ltext0
 4201 04d0 D2020000 		.4byte	.LVL102-.Ltext0
 4202 04d4 0500     		.2byte	0x5
 4203 04d6 37       		.byte	0x37
 4204 04d7 74       		.byte	0x74
 4205 04d8 00       		.sleb128 0
 4206 04d9 24       		.byte	0x24
 4207 04da 9F       		.byte	0x9f
 4208 04db D2020000 		.4byte	.LVL102-.Ltext0
ARM GAS  G:\Users\Jaxb\AppData\Local\Temp\ccclxmrG.s 			page 99


 4209 04df D8020000 		.4byte	.LVL104-.Ltext0
 4210 04e3 0100     		.2byte	0x1
 4211 04e5 56       		.byte	0x56
 4212 04e6 00000000 		.4byte	0
 4213 04ea 00000000 		.4byte	0
 4214              	.LLST33:
 4215 04ee 88020000 		.4byte	.LVL87-.Ltext0
 4216 04f2 A6020000 		.4byte	.LVL93-.Ltext0
 4217 04f6 0200     		.2byte	0x2
 4218 04f8 30       		.byte	0x30
 4219 04f9 9F       		.byte	0x9f
 4220 04fa A6020000 		.4byte	.LVL93-.Ltext0
 4221 04fe BA020000 		.4byte	.LVL97-.Ltext0
 4222 0502 0700     		.2byte	0x7
 4223 0504 73       		.byte	0x73
 4224 0505 00       		.sleb128 0
 4225 0506 44       		.byte	0x44
 4226 0507 25       		.byte	0x25
 4227 0508 33       		.byte	0x33
 4228 0509 1A       		.byte	0x1a
 4229 050a 9F       		.byte	0x9f
 4230 050b C4020000 		.4byte	.LVL100-.Ltext0
 4231 050f DE020000 		.4byte	.LFE53-.Ltext0
 4232 0513 0200     		.2byte	0x2
 4233 0515 30       		.byte	0x30
 4234 0516 9F       		.byte	0x9f
 4235 0517 00000000 		.4byte	0
 4236 051b 00000000 		.4byte	0
 4237              	.LLST25:
 4238 051f 80020000 		.4byte	.LVL84-.Ltext0
 4239 0523 82020000 		.4byte	.LVL85-.Ltext0
 4240 0527 0100     		.2byte	0x1
 4241 0529 50       		.byte	0x50
 4242 052a 82020000 		.4byte	.LVL85-.Ltext0
 4243 052e 88020000 		.4byte	.LFE52-.Ltext0
 4244 0532 0400     		.2byte	0x4
 4245 0534 F3       		.byte	0xf3
 4246 0535 01       		.uleb128 0x1
 4247 0536 50       		.byte	0x50
 4248 0537 9F       		.byte	0x9f
 4249 0538 00000000 		.4byte	0
 4250 053c 00000000 		.4byte	0
 4251              	.LLST26:
 4252 0540 80020000 		.4byte	.LVL84-.Ltext0
 4253 0544 82020000 		.4byte	.LVL85-.Ltext0
 4254 0548 0200     		.2byte	0x2
 4255 054a 30       		.byte	0x30
 4256 054b 9F       		.byte	0x9f
 4257 054c 82020000 		.4byte	.LVL85-.Ltext0
 4258 0550 86020000 		.4byte	.LVL86-.Ltext0
 4259 0554 0900     		.2byte	0x9
 4260 0556 70       		.byte	0x70
 4261 0557 00       		.sleb128 0
 4262 0558 40       		.byte	0x40
 4263 0559 41       		.byte	0x41
 4264 055a 24       		.byte	0x24
 4265 055b 1A       		.byte	0x1a
ARM GAS  G:\Users\Jaxb\AppData\Local\Temp\ccclxmrG.s 			page 100


 4266 055c 30       		.byte	0x30
 4267 055d 2E       		.byte	0x2e
 4268 055e 9F       		.byte	0x9f
 4269 055f 00000000 		.4byte	0
 4270 0563 00000000 		.4byte	0
 4271              	.LLST23:
 4272 0567 4C020000 		.4byte	.LVL78-.Ltext0
 4273 056b 54020000 		.4byte	.LVL81-.Ltext0
 4274 056f 0100     		.2byte	0x1
 4275 0571 51       		.byte	0x51
 4276 0572 54020000 		.4byte	.LVL81-.Ltext0
 4277 0576 58020000 		.4byte	.LFE49-.Ltext0
 4278 057a 0400     		.2byte	0x4
 4279 057c F3       		.byte	0xf3
 4280 057d 01       		.uleb128 0x1
 4281 057e 51       		.byte	0x51
 4282 057f 9F       		.byte	0x9f
 4283 0580 00000000 		.4byte	0
 4284 0584 00000000 		.4byte	0
 4285              	.LLST24:
 4286 0588 4C020000 		.4byte	.LVL78-.Ltext0
 4287 058c 4E020000 		.4byte	.LVL79-.Ltext0
 4288 0590 0200     		.2byte	0x2
 4289 0592 30       		.byte	0x30
 4290 0593 9F       		.byte	0x9f
 4291 0594 4E020000 		.4byte	.LVL79-.Ltext0
 4292 0598 54020000 		.4byte	.LVL81-.Ltext0
 4293 059c 0100     		.2byte	0x1
 4294 059e 53       		.byte	0x53
 4295 059f 54020000 		.4byte	.LVL81-.Ltext0
 4296 05a3 58020000 		.4byte	.LFE49-.Ltext0
 4297 05a7 0100     		.2byte	0x1
 4298 05a9 51       		.byte	0x51
 4299 05aa 00000000 		.4byte	0
 4300 05ae 00000000 		.4byte	0
 4301              	.LLST22:
 4302 05b2 10020000 		.4byte	.LVL74-.Ltext0
 4303 05b6 12020000 		.4byte	.LVL75-.Ltext0
 4304 05ba 0100     		.2byte	0x1
 4305 05bc 50       		.byte	0x50
 4306 05bd 12020000 		.4byte	.LVL75-.Ltext0
 4307 05c1 16020000 		.4byte	.LFE45-.Ltext0
 4308 05c5 0400     		.2byte	0x4
 4309 05c7 F3       		.byte	0xf3
 4310 05c8 01       		.uleb128 0x1
 4311 05c9 50       		.byte	0x50
 4312 05ca 9F       		.byte	0x9f
 4313 05cb 00000000 		.4byte	0
 4314 05cf 00000000 		.4byte	0
 4315              	.LLST16:
 4316 05d3 6C010000 		.4byte	.LFB43-.Ltext0
 4317 05d7 70010000 		.4byte	.LCFI8-.Ltext0
 4318 05db 0200     		.2byte	0x2
 4319 05dd 7D       		.byte	0x7d
 4320 05de 00       		.sleb128 0
 4321 05df 70010000 		.4byte	.LCFI8-.Ltext0
 4322 05e3 AC010000 		.4byte	.LCFI9-.Ltext0
ARM GAS  G:\Users\Jaxb\AppData\Local\Temp\ccclxmrG.s 			page 101


 4323 05e7 0200     		.2byte	0x2
 4324 05e9 7D       		.byte	0x7d
 4325 05ea 0C       		.sleb128 12
 4326 05eb AC010000 		.4byte	.LCFI9-.Ltext0
 4327 05ef AE010000 		.4byte	.LCFI10-.Ltext0
 4328 05f3 0200     		.2byte	0x2
 4329 05f5 7D       		.byte	0x7d
 4330 05f6 00       		.sleb128 0
 4331 05f7 AE010000 		.4byte	.LCFI10-.Ltext0
 4332 05fb E0010000 		.4byte	.LCFI11-.Ltext0
 4333 05ff 0200     		.2byte	0x2
 4334 0601 7D       		.byte	0x7d
 4335 0602 0C       		.sleb128 12
 4336 0603 E0010000 		.4byte	.LCFI11-.Ltext0
 4337 0607 E2010000 		.4byte	.LCFI12-.Ltext0
 4338 060b 0200     		.2byte	0x2
 4339 060d 7D       		.byte	0x7d
 4340 060e 00       		.sleb128 0
 4341 060f E2010000 		.4byte	.LCFI12-.Ltext0
 4342 0613 F8010000 		.4byte	.LCFI13-.Ltext0
 4343 0617 0200     		.2byte	0x2
 4344 0619 7D       		.byte	0x7d
 4345 061a 0C       		.sleb128 12
 4346 061b F8010000 		.4byte	.LCFI13-.Ltext0
 4347 061f FA010000 		.4byte	.LFE43-.Ltext0
 4348 0623 0200     		.2byte	0x2
 4349 0625 7D       		.byte	0x7d
 4350 0626 00       		.sleb128 0
 4351 0627 00000000 		.4byte	0
 4352 062b 00000000 		.4byte	0
 4353              	.LLST17:
 4354 062f 6C010000 		.4byte	.LVL45-.Ltext0
 4355 0633 A2010000 		.4byte	.LVL53-.Ltext0
 4356 0637 0100     		.2byte	0x1
 4357 0639 51       		.byte	0x51
 4358 063a A2010000 		.4byte	.LVL53-.Ltext0
 4359 063e AE010000 		.4byte	.LVL56-.Ltext0
 4360 0642 0400     		.2byte	0x4
 4361 0644 F3       		.byte	0xf3
 4362 0645 01       		.uleb128 0x1
 4363 0646 51       		.byte	0x51
 4364 0647 9F       		.byte	0x9f
 4365 0648 AE010000 		.4byte	.LVL56-.Ltext0
 4366 064c D6010000 		.4byte	.LVL64-.Ltext0
 4367 0650 0100     		.2byte	0x1
 4368 0652 51       		.byte	0x51
 4369 0653 D6010000 		.4byte	.LVL64-.Ltext0
 4370 0657 E2010000 		.4byte	.LVL67-.Ltext0
 4371 065b 0400     		.2byte	0x4
 4372 065d F3       		.byte	0xf3
 4373 065e 01       		.uleb128 0x1
 4374 065f 51       		.byte	0x51
 4375 0660 9F       		.byte	0x9f
 4376 0661 E2010000 		.4byte	.LVL67-.Ltext0
 4377 0665 EE010000 		.4byte	.LVL70-.Ltext0
 4378 0669 0100     		.2byte	0x1
 4379 066b 51       		.byte	0x51
ARM GAS  G:\Users\Jaxb\AppData\Local\Temp\ccclxmrG.s 			page 102


 4380 066c EE010000 		.4byte	.LVL70-.Ltext0
 4381 0670 FA010000 		.4byte	.LFE43-.Ltext0
 4382 0674 0400     		.2byte	0x4
 4383 0676 F3       		.byte	0xf3
 4384 0677 01       		.uleb128 0x1
 4385 0678 51       		.byte	0x51
 4386 0679 9F       		.byte	0x9f
 4387 067a 00000000 		.4byte	0
 4388 067e 00000000 		.4byte	0
 4389              	.LLST18:
 4390 0682 6C010000 		.4byte	.LVL45-.Ltext0
 4391 0686 98010000 		.4byte	.LVL51-.Ltext0
 4392 068a 0100     		.2byte	0x1
 4393 068c 52       		.byte	0x52
 4394 068d 98010000 		.4byte	.LVL51-.Ltext0
 4395 0691 AE010000 		.4byte	.LVL56-.Ltext0
 4396 0695 0400     		.2byte	0x4
 4397 0697 F3       		.byte	0xf3
 4398 0698 01       		.uleb128 0x1
 4399 0699 52       		.byte	0x52
 4400 069a 9F       		.byte	0x9f
 4401 069b AE010000 		.4byte	.LVL56-.Ltext0
 4402 069f CC010000 		.4byte	.LVL62-.Ltext0
 4403 06a3 0100     		.2byte	0x1
 4404 06a5 52       		.byte	0x52
 4405 06a6 CC010000 		.4byte	.LVL62-.Ltext0
 4406 06aa E2010000 		.4byte	.LVL67-.Ltext0
 4407 06ae 0400     		.2byte	0x4
 4408 06b0 F3       		.byte	0xf3
 4409 06b1 01       		.uleb128 0x1
 4410 06b2 52       		.byte	0x52
 4411 06b3 9F       		.byte	0x9f
 4412 06b4 E2010000 		.4byte	.LVL67-.Ltext0
 4413 06b8 E4010000 		.4byte	.LVL68-.Ltext0
 4414 06bc 0100     		.2byte	0x1
 4415 06be 52       		.byte	0x52
 4416 06bf E4010000 		.4byte	.LVL68-.Ltext0
 4417 06c3 FA010000 		.4byte	.LFE43-.Ltext0
 4418 06c7 0400     		.2byte	0x4
 4419 06c9 F3       		.byte	0xf3
 4420 06ca 01       		.uleb128 0x1
 4421 06cb 52       		.byte	0x52
 4422 06cc 9F       		.byte	0x9f
 4423 06cd 00000000 		.4byte	0
 4424 06d1 00000000 		.4byte	0
 4425              	.LLST19:
 4426 06d5 6C010000 		.4byte	.LVL45-.Ltext0
 4427 06d9 82010000 		.4byte	.LVL48-.Ltext0
 4428 06dd 0100     		.2byte	0x1
 4429 06df 53       		.byte	0x53
 4430 06e0 82010000 		.4byte	.LVL48-.Ltext0
 4431 06e4 AE010000 		.4byte	.LVL56-.Ltext0
 4432 06e8 0400     		.2byte	0x4
 4433 06ea F3       		.byte	0xf3
 4434 06eb 01       		.uleb128 0x1
 4435 06ec 53       		.byte	0x53
 4436 06ed 9F       		.byte	0x9f
ARM GAS  G:\Users\Jaxb\AppData\Local\Temp\ccclxmrG.s 			page 103


 4437 06ee AE010000 		.4byte	.LVL56-.Ltext0
 4438 06f2 BE010000 		.4byte	.LVL60-.Ltext0
 4439 06f6 0100     		.2byte	0x1
 4440 06f8 53       		.byte	0x53
 4441 06f9 BE010000 		.4byte	.LVL60-.Ltext0
 4442 06fd FA010000 		.4byte	.LFE43-.Ltext0
 4443 0701 0400     		.2byte	0x4
 4444 0703 F3       		.byte	0xf3
 4445 0704 01       		.uleb128 0x1
 4446 0705 53       		.byte	0x53
 4447 0706 9F       		.byte	0x9f
 4448 0707 00000000 		.4byte	0
 4449 070b 00000000 		.4byte	0
 4450              	.LLST20:
 4451 070f 6C010000 		.4byte	.LVL45-.Ltext0
 4452 0713 7E010000 		.4byte	.LVL46-.Ltext0
 4453 0717 0200     		.2byte	0x2
 4454 0719 30       		.byte	0x30
 4455 071a 9F       		.byte	0x9f
 4456 071b 7E010000 		.4byte	.LVL46-.Ltext0
 4457 071f 86010000 		.4byte	.LVL49-.Ltext0
 4458 0723 0100     		.2byte	0x1
 4459 0725 55       		.byte	0x55
 4460 0726 86010000 		.4byte	.LVL49-.Ltext0
 4461 072a 88010000 		.4byte	.LVL50-.Ltext0
 4462 072e 0100     		.2byte	0x1
 4463 0730 54       		.byte	0x54
 4464 0731 88010000 		.4byte	.LVL50-.Ltext0
 4465 0735 A6010000 		.4byte	.LVL54-.Ltext0
 4466 0739 0100     		.2byte	0x1
 4467 073b 53       		.byte	0x53
 4468 073c A6010000 		.4byte	.LVL54-.Ltext0
 4469 0740 A8010000 		.4byte	.LVL55-.Ltext0
 4470 0744 0100     		.2byte	0x1
 4471 0746 52       		.byte	0x52
 4472 0747 A8010000 		.4byte	.LVL55-.Ltext0
 4473 074b AE010000 		.4byte	.LVL56-.Ltext0
 4474 074f 0100     		.2byte	0x1
 4475 0751 51       		.byte	0x51
 4476 0752 AE010000 		.4byte	.LVL56-.Ltext0
 4477 0756 B6010000 		.4byte	.LVL57-.Ltext0
 4478 075a 0200     		.2byte	0x2
 4479 075c 30       		.byte	0x30
 4480 075d 9F       		.byte	0x9f
 4481 075e B6010000 		.4byte	.LVL57-.Ltext0
 4482 0762 C0010000 		.4byte	.LVL61-.Ltext0
 4483 0766 0100     		.2byte	0x1
 4484 0768 54       		.byte	0x54
 4485 0769 C0010000 		.4byte	.LVL61-.Ltext0
 4486 076d DA010000 		.4byte	.LVL65-.Ltext0
 4487 0771 0100     		.2byte	0x1
 4488 0773 53       		.byte	0x53
 4489 0774 DA010000 		.4byte	.LVL65-.Ltext0
 4490 0778 DC010000 		.4byte	.LVL66-.Ltext0
 4491 077c 0100     		.2byte	0x1
 4492 077e 52       		.byte	0x52
 4493 077f DC010000 		.4byte	.LVL66-.Ltext0
ARM GAS  G:\Users\Jaxb\AppData\Local\Temp\ccclxmrG.s 			page 104


 4494 0783 E2010000 		.4byte	.LVL67-.Ltext0
 4495 0787 0100     		.2byte	0x1
 4496 0789 51       		.byte	0x51
 4497 078a E2010000 		.4byte	.LVL67-.Ltext0
 4498 078e F2010000 		.4byte	.LVL71-.Ltext0
 4499 0792 0100     		.2byte	0x1
 4500 0794 53       		.byte	0x53
 4501 0795 F2010000 		.4byte	.LVL71-.Ltext0
 4502 0799 F4010000 		.4byte	.LVL72-.Ltext0
 4503 079d 0100     		.2byte	0x1
 4504 079f 52       		.byte	0x52
 4505 07a0 F4010000 		.4byte	.LVL72-.Ltext0
 4506 07a4 FA010000 		.4byte	.LFE43-.Ltext0
 4507 07a8 0100     		.2byte	0x1
 4508 07aa 51       		.byte	0x51
 4509 07ab 00000000 		.4byte	0
 4510 07af 00000000 		.4byte	0
 4511              	.LLST21:
 4512 07b3 6C010000 		.4byte	.LVL45-.Ltext0
 4513 07b7 7E010000 		.4byte	.LVL46-.Ltext0
 4514 07bb 0200     		.2byte	0x2
 4515 07bd 30       		.byte	0x30
 4516 07be 9F       		.byte	0x9f
 4517 07bf 7E010000 		.4byte	.LVL46-.Ltext0
 4518 07c3 80010000 		.4byte	.LVL47-.Ltext0
 4519 07c7 0500     		.2byte	0x5
 4520 07c9 37       		.byte	0x37
 4521 07ca 74       		.byte	0x74
 4522 07cb 00       		.sleb128 0
 4523 07cc 24       		.byte	0x24
 4524 07cd 9F       		.byte	0x9f
 4525 07ce 80010000 		.4byte	.LVL47-.Ltext0
 4526 07d2 86010000 		.4byte	.LVL49-.Ltext0
 4527 07d6 0100     		.2byte	0x1
 4528 07d8 56       		.byte	0x56
 4529 07d9 9E010000 		.4byte	.LVL52-.Ltext0
 4530 07dd A6010000 		.4byte	.LVL54-.Ltext0
 4531 07e1 0500     		.2byte	0x5
 4532 07e3 4F       		.byte	0x4f
 4533 07e4 72       		.byte	0x72
 4534 07e5 00       		.sleb128 0
 4535 07e6 24       		.byte	0x24
 4536 07e7 9F       		.byte	0x9f
 4537 07e8 AE010000 		.4byte	.LVL56-.Ltext0
 4538 07ec B6010000 		.4byte	.LVL57-.Ltext0
 4539 07f0 0200     		.2byte	0x2
 4540 07f2 30       		.byte	0x30
 4541 07f3 9F       		.byte	0x9f
 4542 07f4 B6010000 		.4byte	.LVL57-.Ltext0
 4543 07f8 B8010000 		.4byte	.LVL58-.Ltext0
 4544 07fc 0500     		.2byte	0x5
 4545 07fe 37       		.byte	0x37
 4546 07ff 76       		.byte	0x76
 4547 0800 00       		.sleb128 0
 4548 0801 24       		.byte	0x24
 4549 0802 9F       		.byte	0x9f
 4550 0803 B8010000 		.4byte	.LVL58-.Ltext0
ARM GAS  G:\Users\Jaxb\AppData\Local\Temp\ccclxmrG.s 			page 105


 4551 0807 BC010000 		.4byte	.LVL59-.Ltext0
 4552 080b 0100     		.2byte	0x1
 4553 080d 55       		.byte	0x55
 4554 080e BC010000 		.4byte	.LVL59-.Ltext0
 4555 0812 BE010000 		.4byte	.LVL60-.Ltext0
 4556 0816 0600     		.2byte	0x6
 4557 0818 73       		.byte	0x73
 4558 0819 00       		.sleb128 0
 4559 081a 76       		.byte	0x76
 4560 081b 00       		.sleb128 0
 4561 081c 24       		.byte	0x24
 4562 081d 9F       		.byte	0x9f
 4563 081e D2010000 		.4byte	.LVL63-.Ltext0
 4564 0822 DA010000 		.4byte	.LVL65-.Ltext0
 4565 0826 0500     		.2byte	0x5
 4566 0828 4F       		.byte	0x4f
 4567 0829 72       		.byte	0x72
 4568 082a 00       		.sleb128 0
 4569 082b 24       		.byte	0x24
 4570 082c 9F       		.byte	0x9f
 4571 082d EA010000 		.4byte	.LVL69-.Ltext0
 4572 0831 F2010000 		.4byte	.LVL71-.Ltext0
 4573 0835 0500     		.2byte	0x5
 4574 0837 4F       		.byte	0x4f
 4575 0838 72       		.byte	0x72
 4576 0839 00       		.sleb128 0
 4577 083a 24       		.byte	0x24
 4578 083b 9F       		.byte	0x9f
 4579 083c 00000000 		.4byte	0
 4580 0840 00000000 		.4byte	0
 4581              	.LLST13:
 4582 0844 48010000 		.4byte	.LVL39-.Ltext0
 4583 0848 4C010000 		.4byte	.LVL41-.Ltext0
 4584 084c 0100     		.2byte	0x1
 4585 084e 51       		.byte	0x51
 4586 084f 4C010000 		.4byte	.LVL41-.Ltext0
 4587 0853 58010000 		.4byte	.LFE41-.Ltext0
 4588 0857 0400     		.2byte	0x4
 4589 0859 F3       		.byte	0xf3
 4590 085a 01       		.uleb128 0x1
 4591 085b 51       		.byte	0x51
 4592 085c 9F       		.byte	0x9f
 4593 085d 00000000 		.4byte	0
 4594 0861 00000000 		.4byte	0
 4595              	.LLST14:
 4596 0865 48010000 		.4byte	.LVL39-.Ltext0
 4597 0869 4A010000 		.4byte	.LVL40-.Ltext0
 4598 086d 0200     		.2byte	0x2
 4599 086f 30       		.byte	0x30
 4600 0870 9F       		.byte	0x9f
 4601 0871 4A010000 		.4byte	.LVL40-.Ltext0
 4602 0875 58010000 		.4byte	.LFE41-.Ltext0
 4603 0879 0100     		.2byte	0x1
 4604 087b 53       		.byte	0x53
 4605 087c 00000000 		.4byte	0
 4606 0880 00000000 		.4byte	0
 4607              	.LLST15:
ARM GAS  G:\Users\Jaxb\AppData\Local\Temp\ccclxmrG.s 			page 106


 4608 0884 48010000 		.4byte	.LVL39-.Ltext0
 4609 0888 50010000 		.4byte	.LVL42-.Ltext0
 4610 088c 0200     		.2byte	0x2
 4611 088e 30       		.byte	0x30
 4612 088f 9F       		.byte	0x9f
 4613 0890 50010000 		.4byte	.LVL42-.Ltext0
 4614 0894 58010000 		.4byte	.LFE41-.Ltext0
 4615 0898 0900     		.2byte	0x9
 4616 089a F3       		.byte	0xf3
 4617 089b 01       		.uleb128 0x1
 4618 089c 51       		.byte	0x51
 4619 089d 08       		.byte	0x8
 4620 089e FF       		.byte	0xff
 4621 089f 1A       		.byte	0x1a
 4622 08a0 31       		.byte	0x31
 4623 08a1 1C       		.byte	0x1c
 4624 08a2 9F       		.byte	0x9f
 4625 08a3 00000000 		.4byte	0
 4626 08a7 00000000 		.4byte	0
 4627              	.LLST11:
 4628 08ab 40010000 		.4byte	.LVL36-.Ltext0
 4629 08af 42010000 		.4byte	.LVL37-.Ltext0
 4630 08b3 0100     		.2byte	0x1
 4631 08b5 50       		.byte	0x50
 4632 08b6 42010000 		.4byte	.LVL37-.Ltext0
 4633 08ba 48010000 		.4byte	.LFE40-.Ltext0
 4634 08be 0400     		.2byte	0x4
 4635 08c0 F3       		.byte	0xf3
 4636 08c1 01       		.uleb128 0x1
 4637 08c2 50       		.byte	0x50
 4638 08c3 9F       		.byte	0x9f
 4639 08c4 00000000 		.4byte	0
 4640 08c8 00000000 		.4byte	0
 4641              	.LLST12:
 4642 08cc 40010000 		.4byte	.LVL36-.Ltext0
 4643 08d0 42010000 		.4byte	.LVL37-.Ltext0
 4644 08d4 0200     		.2byte	0x2
 4645 08d6 30       		.byte	0x30
 4646 08d7 9F       		.byte	0x9f
 4647 08d8 42010000 		.4byte	.LVL37-.Ltext0
 4648 08dc 46010000 		.4byte	.LVL38-.Ltext0
 4649 08e0 0900     		.2byte	0x9
 4650 08e2 70       		.byte	0x70
 4651 08e3 00       		.sleb128 0
 4652 08e4 40       		.byte	0x40
 4653 08e5 42       		.byte	0x42
 4654 08e6 24       		.byte	0x24
 4655 08e7 1A       		.byte	0x1a
 4656 08e8 30       		.byte	0x30
 4657 08e9 2E       		.byte	0x2e
 4658 08ea 9F       		.byte	0x9f
 4659 08eb 00000000 		.4byte	0
 4660 08ef 00000000 		.4byte	0
 4661              	.LLST9:
 4662 08f3 24010000 		.4byte	.LVL32-.Ltext0
 4663 08f7 26010000 		.4byte	.LVL33-.Ltext0
 4664 08fb 0100     		.2byte	0x1
ARM GAS  G:\Users\Jaxb\AppData\Local\Temp\ccclxmrG.s 			page 107


 4665 08fd 50       		.byte	0x50
 4666 08fe 26010000 		.4byte	.LVL33-.Ltext0
 4667 0902 2C010000 		.4byte	.LFE38-.Ltext0
 4668 0906 0400     		.2byte	0x4
 4669 0908 F3       		.byte	0xf3
 4670 0909 01       		.uleb128 0x1
 4671 090a 50       		.byte	0x50
 4672 090b 9F       		.byte	0x9f
 4673 090c 00000000 		.4byte	0
 4674 0910 00000000 		.4byte	0
 4675              	.LLST10:
 4676 0914 24010000 		.4byte	.LVL32-.Ltext0
 4677 0918 26010000 		.4byte	.LVL33-.Ltext0
 4678 091c 0200     		.2byte	0x2
 4679 091e 30       		.byte	0x30
 4680 091f 9F       		.byte	0x9f
 4681 0920 26010000 		.4byte	.LVL33-.Ltext0
 4682 0924 2A010000 		.4byte	.LVL34-.Ltext0
 4683 0928 0700     		.2byte	0x7
 4684 092a 70       		.byte	0x70
 4685 092b 00       		.sleb128 0
 4686 092c 34       		.byte	0x34
 4687 092d 1A       		.byte	0x1a
 4688 092e 30       		.byte	0x30
 4689 092f 2E       		.byte	0x2e
 4690 0930 9F       		.byte	0x9f
 4691 0931 00000000 		.4byte	0
 4692 0935 00000000 		.4byte	0
 4693              	.LLST7:
 4694 0939 10010000 		.4byte	.LVL28-.Ltext0
 4695 093d 12010000 		.4byte	.LVL29-.Ltext0
 4696 0941 0100     		.2byte	0x1
 4697 0943 50       		.byte	0x50
 4698 0944 12010000 		.4byte	.LVL29-.Ltext0
 4699 0948 18010000 		.4byte	.LFE36-.Ltext0
 4700 094c 0400     		.2byte	0x4
 4701 094e F3       		.byte	0xf3
 4702 094f 01       		.uleb128 0x1
 4703 0950 50       		.byte	0x50
 4704 0951 9F       		.byte	0x9f
 4705 0952 00000000 		.4byte	0
 4706 0956 00000000 		.4byte	0
 4707              	.LLST8:
 4708 095a 10010000 		.4byte	.LVL28-.Ltext0
 4709 095e 12010000 		.4byte	.LVL29-.Ltext0
 4710 0962 0200     		.2byte	0x2
 4711 0964 30       		.byte	0x30
 4712 0965 9F       		.byte	0x9f
 4713 0966 12010000 		.4byte	.LVL29-.Ltext0
 4714 096a 16010000 		.4byte	.LVL30-.Ltext0
 4715 096e 0700     		.2byte	0x7
 4716 0970 70       		.byte	0x70
 4717 0971 00       		.sleb128 0
 4718 0972 38       		.byte	0x38
 4719 0973 1A       		.byte	0x1a
 4720 0974 30       		.byte	0x30
 4721 0975 2E       		.byte	0x2e
ARM GAS  G:\Users\Jaxb\AppData\Local\Temp\ccclxmrG.s 			page 108


 4722 0976 9F       		.byte	0x9f
 4723 0977 00000000 		.4byte	0
 4724 097b 00000000 		.4byte	0
 4725              	.LLST5:
 4726 097f F0000000 		.4byte	.LVL24-.Ltext0
 4727 0983 F2000000 		.4byte	.LVL25-.Ltext0
 4728 0987 0100     		.2byte	0x1
 4729 0989 51       		.byte	0x51
 4730 098a F2000000 		.4byte	.LVL25-.Ltext0
 4731 098e 04010000 		.4byte	.LFE34-.Ltext0
 4732 0992 0400     		.2byte	0x4
 4733 0994 F3       		.byte	0xf3
 4734 0995 01       		.uleb128 0x1
 4735 0996 51       		.byte	0x51
 4736 0997 9F       		.byte	0x9f
 4737 0998 00000000 		.4byte	0
 4738 099c 00000000 		.4byte	0
 4739              	.LLST6:
 4740 09a0 F0000000 		.4byte	.LVL24-.Ltext0
 4741 09a4 FA000000 		.4byte	.LVL26-.Ltext0
 4742 09a8 0100     		.2byte	0x1
 4743 09aa 51       		.byte	0x51
 4744 09ab FA000000 		.4byte	.LVL26-.Ltext0
 4745 09af 04010000 		.4byte	.LFE34-.Ltext0
 4746 09b3 0400     		.2byte	0x4
 4747 09b5 F3       		.byte	0xf3
 4748 09b6 01       		.uleb128 0x1
 4749 09b7 51       		.byte	0x51
 4750 09b8 9F       		.byte	0x9f
 4751 09b9 00000000 		.4byte	0
 4752 09bd 00000000 		.4byte	0
 4753              	.LLST2:
 4754 09c1 6C000000 		.4byte	.LFB30-.Ltext0
 4755 09c5 70000000 		.4byte	.LCFI6-.Ltext0
 4756 09c9 0200     		.2byte	0x2
 4757 09cb 7D       		.byte	0x7d
 4758 09cc 00       		.sleb128 0
 4759 09cd 70000000 		.4byte	.LCFI6-.Ltext0
 4760 09d1 AE000000 		.4byte	.LCFI7-.Ltext0
 4761 09d5 0200     		.2byte	0x2
 4762 09d7 7D       		.byte	0x7d
 4763 09d8 08       		.sleb128 8
 4764 09d9 AE000000 		.4byte	.LCFI7-.Ltext0
 4765 09dd B4000000 		.4byte	.LFE30-.Ltext0
 4766 09e1 0200     		.2byte	0x2
 4767 09e3 7D       		.byte	0x7d
 4768 09e4 00       		.sleb128 0
 4769 09e5 00000000 		.4byte	0
 4770 09e9 00000000 		.4byte	0
 4771              	.LLST3:
 4772 09ed 6C000000 		.4byte	.LVL10-.Ltext0
 4773 09f1 6E000000 		.4byte	.LVL11-.Ltext0
 4774 09f5 0200     		.2byte	0x2
 4775 09f7 30       		.byte	0x30
 4776 09f8 9F       		.byte	0x9f
 4777 09f9 6E000000 		.4byte	.LVL11-.Ltext0
 4778 09fd 74000000 		.4byte	.LVL12-.Ltext0
ARM GAS  G:\Users\Jaxb\AppData\Local\Temp\ccclxmrG.s 			page 109


 4779 0a01 0800     		.2byte	0x8
 4780 0a03 73       		.byte	0x73
 4781 0a04 00       		.sleb128 0
 4782 0a05 11       		.byte	0x11
 4783 0a06 FFFD43   		.sleb128 -983297
 4784 0a09 1A       		.byte	0x1a
 4785 0a0a 9F       		.byte	0x9f
 4786 0a0b 82000000 		.4byte	.LVL13-.Ltext0
 4787 0a0f 86000000 		.4byte	.LVL14-.Ltext0
 4788 0a13 0100     		.2byte	0x1
 4789 0a15 53       		.byte	0x53
 4790 0a16 86000000 		.4byte	.LVL14-.Ltext0
 4791 0a1a 8E000000 		.4byte	.LVL15-.Ltext0
 4792 0a1e 0800     		.2byte	0x8
 4793 0a20 75       		.byte	0x75
 4794 0a21 00       		.sleb128 0
 4795 0a22 11       		.byte	0x11
 4796 0a23 FDEF47   		.sleb128 -919555
 4797 0a26 1A       		.byte	0x1a
 4798 0a27 9F       		.byte	0x9f
 4799 0a28 8E000000 		.4byte	.LVL15-.Ltext0
 4800 0a2c 98000000 		.4byte	.LVL16-.Ltext0
 4801 0a30 0100     		.2byte	0x1
 4802 0a32 52       		.byte	0x52
 4803 0a33 98000000 		.4byte	.LVL16-.Ltext0
 4804 0a37 B4000000 		.4byte	.LFE30-.Ltext0
 4805 0a3b 0100     		.2byte	0x1
 4806 0a3d 53       		.byte	0x53
 4807 0a3e 00000000 		.4byte	0
 4808 0a42 00000000 		.4byte	0
 4809              	.LLST4:
 4810 0a46 6C000000 		.4byte	.LVL10-.Ltext0
 4811 0a4a A6000000 		.4byte	.LVL18-.Ltext0
 4812 0a4e 0200     		.2byte	0x2
 4813 0a50 30       		.byte	0x30
 4814 0a51 9F       		.byte	0x9f
 4815 0a52 A6000000 		.4byte	.LVL18-.Ltext0
 4816 0a56 AC000000 		.4byte	.LVL20-.Ltext0
 4817 0a5a 0700     		.2byte	0x7
 4818 0a5c 71       		.byte	0x71
 4819 0a5d 10       		.sleb128 16
 4820 0a5e 94       		.byte	0x94
 4821 0a5f 01       		.byte	0x1
 4822 0a60 31       		.byte	0x31
 4823 0a61 1C       		.byte	0x1c
 4824 0a62 9F       		.byte	0x9f
 4825 0a63 00000000 		.4byte	0
 4826 0a67 00000000 		.4byte	0
 4827              	.LLST0:
 4828 0a6b 00000000 		.4byte	.LFB29-.Ltext0
 4829 0a6f 02000000 		.4byte	.LCFI0-.Ltext0
 4830 0a73 0200     		.2byte	0x2
 4831 0a75 7D       		.byte	0x7d
 4832 0a76 00       		.sleb128 0
 4833 0a77 02000000 		.4byte	.LCFI0-.Ltext0
 4834 0a7b 24000000 		.4byte	.LCFI1-.Ltext0
 4835 0a7f 0200     		.2byte	0x2
ARM GAS  G:\Users\Jaxb\AppData\Local\Temp\ccclxmrG.s 			page 110


 4836 0a81 7D       		.byte	0x7d
 4837 0a82 08       		.sleb128 8
 4838 0a83 24000000 		.4byte	.LCFI1-.Ltext0
 4839 0a87 2E000000 		.4byte	.LCFI2-.Ltext0
 4840 0a8b 0200     		.2byte	0x2
 4841 0a8d 7D       		.byte	0x7d
 4842 0a8e 00       		.sleb128 0
 4843 0a8f 2E000000 		.4byte	.LCFI2-.Ltext0
 4844 0a93 3C000000 		.4byte	.LCFI3-.Ltext0
 4845 0a97 0200     		.2byte	0x2
 4846 0a99 7D       		.byte	0x7d
 4847 0a9a 08       		.sleb128 8
 4848 0a9b 3C000000 		.4byte	.LCFI3-.Ltext0
 4849 0a9f 46000000 		.4byte	.LCFI4-.Ltext0
 4850 0aa3 0200     		.2byte	0x2
 4851 0aa5 7D       		.byte	0x7d
 4852 0aa6 00       		.sleb128 0
 4853 0aa7 46000000 		.4byte	.LCFI4-.Ltext0
 4854 0aab 54000000 		.4byte	.LCFI5-.Ltext0
 4855 0aaf 0200     		.2byte	0x2
 4856 0ab1 7D       		.byte	0x7d
 4857 0ab2 08       		.sleb128 8
 4858 0ab3 54000000 		.4byte	.LCFI5-.Ltext0
 4859 0ab7 6C000000 		.4byte	.LFE29-.Ltext0
 4860 0abb 0200     		.2byte	0x2
 4861 0abd 7D       		.byte	0x7d
 4862 0abe 00       		.sleb128 0
 4863 0abf 00000000 		.4byte	0
 4864 0ac3 00000000 		.4byte	0
 4865              	.LLST1:
 4866 0ac7 00000000 		.4byte	.LVL0-.Ltext0
 4867 0acb 1C000000 		.4byte	.LVL1-.Ltext0
 4868 0acf 0100     		.2byte	0x1
 4869 0ad1 50       		.byte	0x50
 4870 0ad2 1C000000 		.4byte	.LVL1-.Ltext0
 4871 0ad6 2E000000 		.4byte	.LVL3-.Ltext0
 4872 0ada 0400     		.2byte	0x4
 4873 0adc F3       		.byte	0xf3
 4874 0add 01       		.uleb128 0x1
 4875 0ade 50       		.byte	0x50
 4876 0adf 9F       		.byte	0x9f
 4877 0ae0 2E000000 		.4byte	.LVL3-.Ltext0
 4878 0ae4 34000000 		.4byte	.LVL4-.Ltext0
 4879 0ae8 0100     		.2byte	0x1
 4880 0aea 50       		.byte	0x50
 4881 0aeb 34000000 		.4byte	.LVL4-.Ltext0
 4882 0aef 46000000 		.4byte	.LVL6-.Ltext0
 4883 0af3 0400     		.2byte	0x4
 4884 0af5 F3       		.byte	0xf3
 4885 0af6 01       		.uleb128 0x1
 4886 0af7 50       		.byte	0x50
 4887 0af8 9F       		.byte	0x9f
 4888 0af9 46000000 		.4byte	.LVL6-.Ltext0
 4889 0afd 4C000000 		.4byte	.LVL7-.Ltext0
 4890 0b01 0100     		.2byte	0x1
 4891 0b03 50       		.byte	0x50
 4892 0b04 4C000000 		.4byte	.LVL7-.Ltext0
ARM GAS  G:\Users\Jaxb\AppData\Local\Temp\ccclxmrG.s 			page 111


 4893 0b08 6C000000 		.4byte	.LFE29-.Ltext0
 4894 0b0c 0400     		.2byte	0x4
 4895 0b0e F3       		.byte	0xf3
 4896 0b0f 01       		.uleb128 0x1
 4897 0b10 50       		.byte	0x50
 4898 0b11 9F       		.byte	0x9f
 4899 0b12 00000000 		.4byte	0
 4900 0b16 00000000 		.4byte	0
 4901              		.section	.debug_aranges,"",%progbits
 4902 0000 1C000000 		.4byte	0x1c
 4903 0004 0200     		.2byte	0x2
 4904 0006 00000000 		.4byte	.Ldebug_info0
 4905 000a 04       		.byte	0x4
 4906 000b 00       		.byte	0
 4907 000c 0000     		.2byte	0
 4908 000e 0000     		.2byte	0
 4909 0010 00000000 		.4byte	.Ltext0
 4910 0014 98030000 		.4byte	.Letext0-.Ltext0
 4911 0018 00000000 		.4byte	0
 4912 001c 00000000 		.4byte	0
 4913              		.section	.debug_line,"",%progbits
 4914              	.Ldebug_line0:
 4915 0000 19030000 		.section	.debug_str,"MS",%progbits,1
 4915      02004101 
 4915      00000201 
 4915      FB0E0D00 
 4915      01010101 
 4916              	.LASF45:
 4917 0000 41444378 		.ascii	"ADCx\000"
 4917      00
 4918              	.LASF71:
 4919 0005 746D7072 		.ascii	"tmpreg1\000"
 4919      65673100 
 4920              	.LASF72:
 4921 000d 746D7072 		.ascii	"tmpreg2\000"
 4921      65673200 
 4922              	.LASF44:
 4923 0015 4144435F 		.ascii	"ADC_InitTypeDef\000"
 4923      496E6974 
 4923      54797065 
 4923      44656600 
 4924              	.LASF70:
 4925 0025 4C656E67 		.ascii	"Length\000"
 4925      746800
 4926              	.LASF96:
 4927 002c 4144435F 		.ascii	"ADC_ITConfig\000"
 4927      4954436F 
 4927      6E666967 
 4927      00
 4928              	.LASF77:
 4929 0039 4144435F 		.ascii	"ADC_GetSoftwareStartInjectedConvCmdStatus\000"
 4929      47657453 
 4929      6F667477 
 4929      61726553 
 4929      74617274 
 4930              	.LASF34:
 4931 0063 4A445232 		.ascii	"JDR2\000"
ARM GAS  G:\Users\Jaxb\AppData\Local\Temp\ccclxmrG.s 			page 112


 4931      00
 4932              	.LASF35:
 4933 0068 4A445233 		.ascii	"JDR3\000"
 4933      00
 4934              	.LASF36:
 4935 006d 4A445234 		.ascii	"JDR4\000"
 4935      00
 4936              	.LASF42:
 4937 0072 4144435F 		.ascii	"ADC_DataAlign\000"
 4937      44617461 
 4937      416C6967 
 4937      6E00
 4938              	.LASF62:
 4939 0080 4C6F7754 		.ascii	"LowThreshold\000"
 4939      68726573 
 4939      686F6C64 
 4939      00
 4940              	.LASF51:
 4941 008d 4144435F 		.ascii	"ADC_ClearFlag\000"
 4941      436C6561 
 4941      72466C61 
 4941      6700
 4942              	.LASF53:
 4943 009b 4144435F 		.ascii	"ADC_GetITStatus\000"
 4943      47657449 
 4943      54537461 
 4943      74757300 
 4944              	.LASF55:
 4945 00ab 4144435F 		.ascii	"ADC_TempSensorVrefintCmd\000"
 4945      54656D70 
 4945      53656E73 
 4945      6F725672 
 4945      6566696E 
 4946              	.LASF89:
 4947 00c4 4E756D62 		.ascii	"Number\000"
 4947      657200
 4948              	.LASF63:
 4949 00cb 4144435F 		.ascii	"ADC_AnalogWatchdogCmd\000"
 4949      416E616C 
 4949      6F675761 
 4949      74636864 
 4949      6F67436D 
 4950              	.LASF7:
 4951 00e1 5F5F7569 		.ascii	"__uint32_t\000"
 4951      6E743332 
 4951      5F7400
 4952              	.LASF98:
 4953 00ec 4144435F 		.ascii	"ADC_Cmd\000"
 4953      436D6400 
 4954              	.LASF4:
 4955 00f4 5F5F7569 		.ascii	"__uint16_t\000"
 4955      6E743136 
 4955      5F7400
 4956              	.LASF32:
 4957 00ff 4A535152 		.ascii	"JSQR\000"
 4957      00
 4958              	.LASF2:
ARM GAS  G:\Users\Jaxb\AppData\Local\Temp\ccclxmrG.s 			page 113


 4959 0104 73686F72 		.ascii	"short int\000"
 4959      7420696E 
 4959      7400
 4960              	.LASF100:
 4961 010e 4144435F 		.ascii	"ADC_InitStruct\000"
 4961      496E6974 
 4961      53747275 
 4961      637400
 4962              	.LASF39:
 4963 011d 4144435F 		.ascii	"ADC_ScanConvMode\000"
 4963      5363616E 
 4963      436F6E76 
 4963      4D6F6465 
 4963      00
 4964              	.LASF50:
 4965 012e 4144435F 		.ascii	"ADC_ClearITPendingBit\000"
 4965      436C6561 
 4965      72495450 
 4965      656E6469 
 4965      6E674269 
 4966              	.LASF94:
 4967 0144 4144435F 		.ascii	"ADC_GetResetCalibrationStatus\000"
 4967      47657452 
 4967      65736574 
 4967      43616C69 
 4967      62726174 
 4968              	.LASF12:
 4969 0162 75696E74 		.ascii	"uint8_t\000"
 4969      385F7400 
 4970              	.LASF52:
 4971 016a 4144435F 		.ascii	"ADC_FLAG\000"
 4971      464C4147 
 4971      00
 4972              	.LASF90:
 4973 0173 4144435F 		.ascii	"ADC_GetSoftwareStartConvStatus\000"
 4973      47657453 
 4973      6F667477 
 4973      61726553 
 4973      74617274 
 4974              	.LASF56:
 4975 0192 4E657753 		.ascii	"NewState\000"
 4975      74617465 
 4975      00
 4976              	.LASF57:
 4977 019b 4144435F 		.ascii	"ADC_AnalogWatchdogSingleChannelConfig\000"
 4977      416E616C 
 4977      6F675761 
 4977      74636864 
 4977      6F675369 
 4978              	.LASF86:
 4979 01c1 4144435F 		.ascii	"ADC_RegularChannelConfig\000"
 4979      52656775 
 4979      6C617243 
 4979      68616E6E 
 4979      656C436F 
 4980              	.LASF20:
 4981 01da 44495341 		.ascii	"DISABLE\000"
ARM GAS  G:\Users\Jaxb\AppData\Local\Temp\ccclxmrG.s 			page 114


 4981      424C4500 
 4982              	.LASF49:
 4983 01e2 656E6162 		.ascii	"enablestatus\000"
 4983      6C657374 
 4983      61747573 
 4983      00
 4984              	.LASF105:
 4985 01ef 463A5C6B 		.ascii	"F:\\kaka\\KAKAOS\\C\\windows\\Project\\RVMDK\243\250"
 4985      616B615C 
 4985      4B414B41 
 4985      4F535C43 
 4985      5C77696E 
 4986 0217 757635A3 		.ascii	"uv5\243\251\000"
 4986      A900
 4987              	.LASF9:
 4988 021d 6C6F6E67 		.ascii	"long long int\000"
 4988      206C6F6E 
 4988      6720696E 
 4988      7400
 4989              	.LASF61:
 4990 022b 48696768 		.ascii	"HighThreshold\000"
 4990      54687265 
 4990      73686F6C 
 4990      6400
 4991              	.LASF6:
 4992 0239 6C6F6E67 		.ascii	"long int\000"
 4992      20696E74 
 4992      00
 4993              	.LASF33:
 4994 0242 4A445231 		.ascii	"JDR1\000"
 4994      00
 4995              	.LASF3:
 4996 0247 5F5F7569 		.ascii	"__uint8_t\000"
 4996      6E74385F 
 4996      7400
 4997              	.LASF88:
 4998 0251 4144435F 		.ascii	"ADC_DiscModeChannelCountConfig\000"
 4998      44697363 
 4998      4D6F6465 
 4998      4368616E 
 4998      6E656C43 
 4999              	.LASF84:
 5000 0270 4144435F 		.ascii	"ADC_GetConversionValue\000"
 5000      47657443 
 5000      6F6E7665 
 5000      7273696F 
 5000      6E56616C 
 5001              	.LASF1:
 5002 0287 756E7369 		.ascii	"unsigned char\000"
 5002      676E6564 
 5002      20636861 
 5002      7200
 5003              	.LASF59:
 5004 0295 746D7072 		.ascii	"tmpreg\000"
 5004      656700
 5005              	.LASF74:
 5006 029c 52616E6B 		.ascii	"Rank\000"
ARM GAS  G:\Users\Jaxb\AppData\Local\Temp\ccclxmrG.s 			page 115


 5006      00
 5007              	.LASF83:
 5008 02a1 4144435F 		.ascii	"ADC_AutoInjectedConvCmd\000"
 5008      4175746F 
 5008      496E6A65 
 5008      63746564 
 5008      436F6E76 
 5009              	.LASF28:
 5010 02b9 4A4F4652 		.ascii	"JOFR4\000"
 5010      3400
 5011              	.LASF85:
 5012 02bf 4144435F 		.ascii	"ADC_ExternalTrigConvCmd\000"
 5012      45787465 
 5012      726E616C 
 5012      54726967 
 5012      436F6E76 
 5013              	.LASF38:
 5014 02d7 4144435F 		.ascii	"ADC_Mode\000"
 5014      4D6F6465 
 5014      00
 5015              	.LASF67:
 5016 02e0 4144435F 		.ascii	"ADC_SetInjectedOffset\000"
 5016      53657449 
 5016      6E6A6563 
 5016      7465644F 
 5016      66667365 
 5017              	.LASF102:
 5018 02f6 4144435F 		.ascii	"ADC_DeInit\000"
 5018      4465496E 
 5018      697400
 5019              	.LASF79:
 5020 0301 4144435F 		.ascii	"ADC_ExternalTrigInjectedConvCmd\000"
 5020      45787465 
 5020      726E616C 
 5020      54726967 
 5020      496E6A65 
 5021              	.LASF82:
 5022 0321 4144435F 		.ascii	"ADC_InjectedDiscModeCmd\000"
 5022      496E6A65 
 5022      63746564 
 5022      44697363 
 5022      4D6F6465 
 5023              	.LASF0:
 5024 0339 7369676E 		.ascii	"signed char\000"
 5024      65642063 
 5024      68617200 
 5025              	.LASF10:
 5026 0345 6C6F6E67 		.ascii	"long long unsigned int\000"
 5026      206C6F6E 
 5026      6720756E 
 5026      7369676E 
 5026      65642069 
 5027              	.LASF14:
 5028 035c 75696E74 		.ascii	"uint32_t\000"
 5028      33325F74 
 5028      00
 5029              	.LASF80:
ARM GAS  G:\Users\Jaxb\AppData\Local\Temp\ccclxmrG.s 			page 116


 5030 0365 4144435F 		.ascii	"ADC_ExternalTrigInjectedConvConfig\000"
 5030      45787465 
 5030      726E616C 
 5030      54726967 
 5030      496E6A65 
 5031              	.LASF11:
 5032 0388 756E7369 		.ascii	"unsigned int\000"
 5032      676E6564 
 5032      20696E74 
 5032      00
 5033              	.LASF65:
 5034 0395 4144435F 		.ascii	"ADC_GetInjectedConversionValue\000"
 5034      47657449 
 5034      6E6A6563 
 5034      74656443 
 5034      6F6E7665 
 5035              	.LASF13:
 5036 03b4 75696E74 		.ascii	"uint16_t\000"
 5036      31365F74 
 5036      00
 5037              	.LASF58:
 5038 03bd 4144435F 		.ascii	"ADC_Channel\000"
 5038      4368616E 
 5038      6E656C00 
 5039              	.LASF43:
 5040 03c9 4144435F 		.ascii	"ADC_NbrOfChannel\000"
 5040      4E62724F 
 5040      66436861 
 5040      6E6E656C 
 5040      00
 5041              	.LASF27:
 5042 03da 4A4F4652 		.ascii	"JOFR3\000"
 5042      3300
 5043              	.LASF107:
 5044 03e0 5243435F 		.ascii	"RCC_APB2PeriphResetCmd\000"
 5044      41504232 
 5044      50657269 
 5044      70685265 
 5044      73657443 
 5045              	.LASF68:
 5046 03f7 4F666673 		.ascii	"Offset\000"
 5046      657400
 5047              	.LASF93:
 5048 03fe 4144435F 		.ascii	"ADC_StartCalibration\000"
 5048      53746172 
 5048      7443616C 
 5048      69627261 
 5048      74696F6E 
 5049              	.LASF5:
 5050 0413 73686F72 		.ascii	"short unsigned int\000"
 5050      7420756E 
 5050      7369676E 
 5050      65642069 
 5050      6E7400
 5051              	.LASF104:
 5052 0426 2E2E2F2E 		.ascii	"../../source/src/FWlib/src/stm32f10x_adc.c\000"
 5052      2E2F736F 
ARM GAS  G:\Users\Jaxb\AppData\Local\Temp\ccclxmrG.s 			page 117


 5052      75726365 
 5052      2F737263 
 5052      2F46576C 
 5053              	.LASF92:
 5054 0451 4144435F 		.ascii	"ADC_GetCalibrationStatus\000"
 5054      47657443 
 5054      616C6962 
 5054      72617469 
 5054      6F6E5374 
 5055              	.LASF60:
 5056 046a 4144435F 		.ascii	"ADC_AnalogWatchdogThresholdsConfig\000"
 5056      416E616C 
 5056      6F675761 
 5056      74636864 
 5056      6F675468 
 5057              	.LASF48:
 5058 048d 62697473 		.ascii	"bitstatus\000"
 5058      74617475 
 5058      7300
 5059              	.LASF40:
 5060 0497 4144435F 		.ascii	"ADC_ContinuousConvMode\000"
 5060      436F6E74 
 5060      696E756F 
 5060      7573436F 
 5060      6E764D6F 
 5061              	.LASF91:
 5062 04ae 4144435F 		.ascii	"ADC_SoftwareStartConvCmd\000"
 5062      536F6674 
 5062      77617265 
 5062      53746172 
 5062      74436F6E 
 5063              	.LASF16:
 5064 04c7 53797374 		.ascii	"SystemCoreClock\000"
 5064      656D436F 
 5064      7265436C 
 5064      6F636B00 
 5065              	.LASF41:
 5066 04d7 4144435F 		.ascii	"ADC_ExternalTrigConv\000"
 5066      45787465 
 5066      726E616C 
 5066      54726967 
 5066      436F6E76 
 5067              	.LASF69:
 5068 04ec 4144435F 		.ascii	"ADC_InjectedSequencerLengthConfig\000"
 5068      496E6A65 
 5068      63746564 
 5068      53657175 
 5068      656E6365 
 5069              	.LASF19:
 5070 050e 49545374 		.ascii	"ITStatus\000"
 5070      61747573 
 5070      00
 5071              	.LASF64:
 5072 0517 4144435F 		.ascii	"ADC_AnalogWatchdog\000"
 5072      416E616C 
 5072      6F675761 
 5072      74636864 
ARM GAS  G:\Users\Jaxb\AppData\Local\Temp\ccclxmrG.s 			page 118


 5072      6F6700
 5073              	.LASF73:
 5074 052a 4144435F 		.ascii	"ADC_InjectedChannelConfig\000"
 5074      496E6A65 
 5074      63746564 
 5074      4368616E 
 5074      6E656C43 
 5075              	.LASF75:
 5076 0544 4144435F 		.ascii	"ADC_SampleTime\000"
 5076      53616D70 
 5076      6C655469 
 5076      6D6500
 5077              	.LASF8:
 5078 0553 6C6F6E67 		.ascii	"long unsigned int\000"
 5078      20756E73 
 5078      69676E65 
 5078      6420696E 
 5078      7400
 5079              	.LASF99:
 5080 0565 4144435F 		.ascii	"ADC_StructInit\000"
 5080      53747275 
 5080      6374496E 
 5080      697400
 5081              	.LASF78:
 5082 0574 4144435F 		.ascii	"ADC_SoftwareStartInjectedConvCmd\000"
 5082      536F6674 
 5082      77617265 
 5082      53746172 
 5082      74496E6A 
 5083              	.LASF66:
 5084 0595 4144435F 		.ascii	"ADC_InjectedChannel\000"
 5084      496E6A65 
 5084      63746564 
 5084      4368616E 
 5084      6E656C00 
 5085              	.LASF22:
 5086 05a9 46756E63 		.ascii	"FunctionalState\000"
 5086      74696F6E 
 5086      616C5374 
 5086      61746500 
 5087              	.LASF15:
 5088 05b9 49544D5F 		.ascii	"ITM_RxBuffer\000"
 5088      52784275 
 5088      66666572 
 5088      00
 5089              	.LASF54:
 5090 05c6 4144435F 		.ascii	"ADC_GetFlagStatus\000"
 5090      47657446 
 5090      6C616753 
 5090      74617475 
 5090      7300
 5091              	.LASF25:
 5092 05d8 4A4F4652 		.ascii	"JOFR1\000"
 5092      3100
 5093              	.LASF87:
 5094 05de 4144435F 		.ascii	"ADC_DiscModeCmd\000"
 5094      44697363 
ARM GAS  G:\Users\Jaxb\AppData\Local\Temp\ccclxmrG.s 			page 119


 5094      4D6F6465 
 5094      436D6400 
 5095              	.LASF17:
 5096 05ee 52455345 		.ascii	"RESET\000"
 5096      5400
 5097              	.LASF26:
 5098 05f4 4A4F4652 		.ascii	"JOFR2\000"
 5098      3200
 5099              	.LASF76:
 5100 05fa 746D7072 		.ascii	"tmpreg3\000"
 5100      65673300 
 5101              	.LASF29:
 5102 0602 53515231 		.ascii	"SQR1\000"
 5102      00
 5103              	.LASF30:
 5104 0607 53515232 		.ascii	"SQR2\000"
 5104      00
 5105              	.LASF31:
 5106 060c 53515233 		.ascii	"SQR3\000"
 5106      00
 5107              	.LASF95:
 5108 0611 4144435F 		.ascii	"ADC_ResetCalibration\000"
 5108      52657365 
 5108      7443616C 
 5108      69627261 
 5108      74696F6E 
 5109              	.LASF103:
 5110 0626 474E5520 		.ascii	"GNU C11 7.3.1 20180622 (release) [ARM/embedded-7-br"
 5110      43313120 
 5110      372E332E 
 5110      31203230 
 5110      31383036 
 5111 0659 616E6368 		.ascii	"anch revision 261907] -mcpu=cortex-m3 -mthumb -mapc"
 5111      20726576 
 5111      6973696F 
 5111      6E203236 
 5111      31393037 
 5112 068c 732D6672 		.ascii	"s-frame -mthumb-interwork -mcpu=cortex-m3 -mthumb -"
 5112      616D6520 
 5112      2D6D7468 
 5112      756D622D 
 5112      696E7465 
 5113 06bf 67647761 		.ascii	"gdwarf-2 -O2\000"
 5113      72662D32 
 5113      202D4F32 
 5113      00
 5114              	.LASF46:
 5115 06cc 4144435F 		.ascii	"ADC_IT\000"
 5115      495400
 5116              	.LASF47:
 5117 06d3 69746D61 		.ascii	"itmask\000"
 5117      736B00
 5118              	.LASF37:
 5119 06da 4144435F 		.ascii	"ADC_TypeDef\000"
 5119      54797065 
 5119      44656600 
 5120              	.LASF23:
ARM GAS  G:\Users\Jaxb\AppData\Local\Temp\ccclxmrG.s 			page 120


 5121 06e6 534D5052 		.ascii	"SMPR1\000"
 5121      3100
 5122              	.LASF24:
 5123 06ec 534D5052 		.ascii	"SMPR2\000"
 5123      3200
 5124              	.LASF101:
 5125 06f2 4144435F 		.ascii	"ADC_Init\000"
 5125      496E6974 
 5125      00
 5126              	.LASF18:
 5127 06fb 466C6167 		.ascii	"FlagStatus\000"
 5127      53746174 
 5127      757300
 5128              	.LASF81:
 5129 0706 4144435F 		.ascii	"ADC_ExternalTrigInjecConv\000"
 5129      45787465 
 5129      726E616C 
 5129      54726967 
 5129      496E6A65 
 5130              	.LASF21:
 5131 0720 454E4142 		.ascii	"ENABLE\000"
 5131      4C4500
 5132              	.LASF97:
 5133 0727 4144435F 		.ascii	"ADC_DMACmd\000"
 5133      444D4143 
 5133      6D6400
 5134              	.LASF106:
 5135 0732 4144435F 		.ascii	"ADC_GetDualModeConversionValue\000"
 5135      47657444 
 5135      75616C4D 
 5135      6F646543 
 5135      6F6E7665 
 5136              		.ident	"GCC: (GNU Tools for Arm Embedded Processors 7-2018-q2-update) 7.3.1 20180622 (release) [AR
ARM GAS  G:\Users\Jaxb\AppData\Local\Temp\ccclxmrG.s 			page 121


DEFINED SYMBOLS
                            *ABS*:00000000 stm32f10x_adc.c
G:\Users\Jaxb\AppData\Local\Temp\ccclxmrG.s:15     .text:00000000 $t
G:\Users\Jaxb\AppData\Local\Temp\ccclxmrG.s:23     .text:00000000 ADC_DeInit
G:\Users\Jaxb\AppData\Local\Temp\ccclxmrG.s:113    .text:00000060 $d
G:\Users\Jaxb\AppData\Local\Temp\ccclxmrG.s:119    .text:0000006c $t
G:\Users\Jaxb\AppData\Local\Temp\ccclxmrG.s:127    .text:0000006c ADC_Init
G:\Users\Jaxb\AppData\Local\Temp\ccclxmrG.s:203    .text:000000b0 $d
G:\Users\Jaxb\AppData\Local\Temp\ccclxmrG.s:207    .text:000000b4 $t
G:\Users\Jaxb\AppData\Local\Temp\ccclxmrG.s:215    .text:000000b4 ADC_StructInit
G:\Users\Jaxb\AppData\Local\Temp\ccclxmrG.s:250    .text:000000c8 ADC_Cmd
G:\Users\Jaxb\AppData\Local\Temp\ccclxmrG.s:283    .text:000000dc ADC_DMACmd
G:\Users\Jaxb\AppData\Local\Temp\ccclxmrG.s:316    .text:000000f0 ADC_ITConfig
G:\Users\Jaxb\AppData\Local\Temp\ccclxmrG.s:352    .text:00000104 ADC_ResetCalibration
G:\Users\Jaxb\AppData\Local\Temp\ccclxmrG.s:377    .text:00000110 ADC_GetResetCalibrationStatus
G:\Users\Jaxb\AppData\Local\Temp\ccclxmrG.s:403    .text:00000118 ADC_StartCalibration
G:\Users\Jaxb\AppData\Local\Temp\ccclxmrG.s:428    .text:00000124 ADC_GetCalibrationStatus
G:\Users\Jaxb\AppData\Local\Temp\ccclxmrG.s:454    .text:0000012c ADC_SoftwareStartConvCmd
G:\Users\Jaxb\AppData\Local\Temp\ccclxmrG.s:487    .text:00000140 ADC_GetSoftwareStartConvStatus
G:\Users\Jaxb\AppData\Local\Temp\ccclxmrG.s:513    .text:00000148 ADC_DiscModeChannelCountConfig
G:\Users\Jaxb\AppData\Local\Temp\ccclxmrG.s:548    .text:00000158 ADC_DiscModeCmd
G:\Users\Jaxb\AppData\Local\Temp\ccclxmrG.s:581    .text:0000016c ADC_RegularChannelConfig
G:\Users\Jaxb\AppData\Local\Temp\ccclxmrG.s:763    .text:000001fc ADC_ExternalTrigConvCmd
G:\Users\Jaxb\AppData\Local\Temp\ccclxmrG.s:796    .text:00000210 ADC_GetConversionValue
G:\Users\Jaxb\AppData\Local\Temp\ccclxmrG.s:821    .text:00000218 ADC_GetDualModeConversionValue
G:\Users\Jaxb\AppData\Local\Temp\ccclxmrG.s:836    .text:00000220 $d
G:\Users\Jaxb\AppData\Local\Temp\ccclxmrG.s:840    .text:00000224 $t
G:\Users\Jaxb\AppData\Local\Temp\ccclxmrG.s:848    .text:00000224 ADC_AutoInjectedConvCmd
G:\Users\Jaxb\AppData\Local\Temp\ccclxmrG.s:881    .text:00000238 ADC_InjectedDiscModeCmd
G:\Users\Jaxb\AppData\Local\Temp\ccclxmrG.s:914    .text:0000024c ADC_ExternalTrigInjectedConvConfig
G:\Users\Jaxb\AppData\Local\Temp\ccclxmrG.s:946    .text:00000258 ADC_ExternalTrigInjectedConvCmd
G:\Users\Jaxb\AppData\Local\Temp\ccclxmrG.s:979    .text:0000026c ADC_SoftwareStartInjectedConvCmd
G:\Users\Jaxb\AppData\Local\Temp\ccclxmrG.s:1012   .text:00000280 ADC_GetSoftwareStartInjectedConvCmdStatus
G:\Users\Jaxb\AppData\Local\Temp\ccclxmrG.s:1038   .text:00000288 ADC_InjectedChannelConfig
G:\Users\Jaxb\AppData\Local\Temp\ccclxmrG.s:1152   .text:000002e0 ADC_InjectedSequencerLengthConfig
G:\Users\Jaxb\AppData\Local\Temp\ccclxmrG.s:1187   .text:000002f0 ADC_SetInjectedOffset
G:\Users\Jaxb\AppData\Local\Temp\ccclxmrG.s:1230   .text:00000308 ADC_GetInjectedConversionValue
G:\Users\Jaxb\AppData\Local\Temp\ccclxmrG.s:1276   .text:00000324 ADC_AnalogWatchdogCmd
G:\Users\Jaxb\AppData\Local\Temp\ccclxmrG.s:1310   .text:00000334 ADC_AnalogWatchdogThresholdsConfig
G:\Users\Jaxb\AppData\Local\Temp\ccclxmrG.s:1335   .text:0000033c ADC_AnalogWatchdogSingleChannelConfig
G:\Users\Jaxb\AppData\Local\Temp\ccclxmrG.s:1367   .text:00000348 ADC_TempSensorVrefintCmd
G:\Users\Jaxb\AppData\Local\Temp\ccclxmrG.s:1393   .text:00000360 $d
G:\Users\Jaxb\AppData\Local\Temp\ccclxmrG.s:1397   .text:00000364 $t
G:\Users\Jaxb\AppData\Local\Temp\ccclxmrG.s:1405   .text:00000364 ADC_GetFlagStatus
G:\Users\Jaxb\AppData\Local\Temp\ccclxmrG.s:1434   .text:00000370 ADC_ClearFlag
G:\Users\Jaxb\AppData\Local\Temp\ccclxmrG.s:1459   .text:00000378 ADC_GetITStatus
G:\Users\Jaxb\AppData\Local\Temp\ccclxmrG.s:1499   .text:00000390 ADC_ClearITPendingBit

UNDEFINED SYMBOLS
RCC_APB2PeriphResetCmd
