ARM GAS  G:\Users\Jaxb\AppData\Local\Temp\cc88D6Yx.s 			page 1


   1              		.cpu cortex-m3
   2              		.eabi_attribute 20, 1
   3              		.eabi_attribute 21, 1
   4              		.eabi_attribute 23, 3
   5              		.eabi_attribute 24, 1
   6              		.eabi_attribute 25, 1
   7              		.eabi_attribute 26, 1
   8              		.eabi_attribute 30, 6
   9              		.eabi_attribute 34, 1
  10              		.eabi_attribute 18, 4
  11              		.file	"stm32f10x_dbgmcu.c"
  12              		.text
  13              	.Ltext0:
  14              		.cfi_sections	.debug_frame
  15              		.align	1
  16              		.global	DBGMCU_GetREVID
  17              		.syntax unified
  18              		.thumb
  19              		.thumb_func
  20              		.fpu softvfp
  21              		.type	DBGMCU_GetREVID, %function
  22              	DBGMCU_GetREVID:
  23              	.LFB29:
  24              		.file 1 "../../source/src/FWlib/src/stm32f10x_dbgmcu.c"
   1:../../source/src/FWlib/src/stm32f10x_dbgmcu.c **** /**
   2:../../source/src/FWlib/src/stm32f10x_dbgmcu.c ****   ******************************************************************************
   3:../../source/src/FWlib/src/stm32f10x_dbgmcu.c ****   * @file    stm32f10x_dbgmcu.c
   4:../../source/src/FWlib/src/stm32f10x_dbgmcu.c ****   * @author  MCD Application Team
   5:../../source/src/FWlib/src/stm32f10x_dbgmcu.c ****   * @version V3.5.0
   6:../../source/src/FWlib/src/stm32f10x_dbgmcu.c ****   * @date    11-March-2011
   7:../../source/src/FWlib/src/stm32f10x_dbgmcu.c ****   * @brief   This file provides all the DBGMCU firmware functions.
   8:../../source/src/FWlib/src/stm32f10x_dbgmcu.c ****   ******************************************************************************
   9:../../source/src/FWlib/src/stm32f10x_dbgmcu.c ****   * @attention
  10:../../source/src/FWlib/src/stm32f10x_dbgmcu.c ****   *
  11:../../source/src/FWlib/src/stm32f10x_dbgmcu.c ****   * THE PRESENT FIRMWARE WHICH IS FOR GUIDANCE ONLY AIMS AT PROVIDING CUSTOMERS
  12:../../source/src/FWlib/src/stm32f10x_dbgmcu.c ****   * WITH CODING INFORMATION REGARDING THEIR PRODUCTS IN ORDER FOR THEM TO SAVE
  13:../../source/src/FWlib/src/stm32f10x_dbgmcu.c ****   * TIME. AS A RESULT, STMICROELECTRONICS SHALL NOT BE HELD LIABLE FOR ANY
  14:../../source/src/FWlib/src/stm32f10x_dbgmcu.c ****   * DIRECT, INDIRECT OR CONSEQUENTIAL DAMAGES WITH RESPECT TO ANY CLAIMS ARISING
  15:../../source/src/FWlib/src/stm32f10x_dbgmcu.c ****   * FROM THE CONTENT OF SUCH FIRMWARE AND/OR THE USE MADE BY CUSTOMERS OF THE
  16:../../source/src/FWlib/src/stm32f10x_dbgmcu.c ****   * CODING INFORMATION CONTAINED HEREIN IN CONNECTION WITH THEIR PRODUCTS.
  17:../../source/src/FWlib/src/stm32f10x_dbgmcu.c ****   *
  18:../../source/src/FWlib/src/stm32f10x_dbgmcu.c ****   * <h2><center>&copy; COPYRIGHT 2011 STMicroelectronics</center></h2>
  19:../../source/src/FWlib/src/stm32f10x_dbgmcu.c ****   ******************************************************************************
  20:../../source/src/FWlib/src/stm32f10x_dbgmcu.c ****   */
  21:../../source/src/FWlib/src/stm32f10x_dbgmcu.c **** 
  22:../../source/src/FWlib/src/stm32f10x_dbgmcu.c **** /* Includes ------------------------------------------------------------------*/
  23:../../source/src/FWlib/src/stm32f10x_dbgmcu.c **** #include "stm32f10x_dbgmcu.h"
  24:../../source/src/FWlib/src/stm32f10x_dbgmcu.c **** 
  25:../../source/src/FWlib/src/stm32f10x_dbgmcu.c **** /** @addtogroup STM32F10x_StdPeriph_Driver
  26:../../source/src/FWlib/src/stm32f10x_dbgmcu.c ****   * @{
  27:../../source/src/FWlib/src/stm32f10x_dbgmcu.c ****   */
  28:../../source/src/FWlib/src/stm32f10x_dbgmcu.c **** 
  29:../../source/src/FWlib/src/stm32f10x_dbgmcu.c **** /** @defgroup DBGMCU 
  30:../../source/src/FWlib/src/stm32f10x_dbgmcu.c ****   * @brief DBGMCU driver modules
  31:../../source/src/FWlib/src/stm32f10x_dbgmcu.c ****   * @{
  32:../../source/src/FWlib/src/stm32f10x_dbgmcu.c ****   */ 
  33:../../source/src/FWlib/src/stm32f10x_dbgmcu.c **** 
ARM GAS  G:\Users\Jaxb\AppData\Local\Temp\cc88D6Yx.s 			page 2


  34:../../source/src/FWlib/src/stm32f10x_dbgmcu.c **** /** @defgroup DBGMCU_Private_TypesDefinitions
  35:../../source/src/FWlib/src/stm32f10x_dbgmcu.c ****   * @{
  36:../../source/src/FWlib/src/stm32f10x_dbgmcu.c ****   */
  37:../../source/src/FWlib/src/stm32f10x_dbgmcu.c **** 
  38:../../source/src/FWlib/src/stm32f10x_dbgmcu.c **** /**
  39:../../source/src/FWlib/src/stm32f10x_dbgmcu.c ****   * @}
  40:../../source/src/FWlib/src/stm32f10x_dbgmcu.c ****   */
  41:../../source/src/FWlib/src/stm32f10x_dbgmcu.c **** 
  42:../../source/src/FWlib/src/stm32f10x_dbgmcu.c **** /** @defgroup DBGMCU_Private_Defines
  43:../../source/src/FWlib/src/stm32f10x_dbgmcu.c ****   * @{
  44:../../source/src/FWlib/src/stm32f10x_dbgmcu.c ****   */
  45:../../source/src/FWlib/src/stm32f10x_dbgmcu.c **** 
  46:../../source/src/FWlib/src/stm32f10x_dbgmcu.c **** #define IDCODE_DEVID_MASK    ((uint32_t)0x00000FFF)
  47:../../source/src/FWlib/src/stm32f10x_dbgmcu.c **** /**
  48:../../source/src/FWlib/src/stm32f10x_dbgmcu.c ****   * @}
  49:../../source/src/FWlib/src/stm32f10x_dbgmcu.c ****   */
  50:../../source/src/FWlib/src/stm32f10x_dbgmcu.c **** 
  51:../../source/src/FWlib/src/stm32f10x_dbgmcu.c **** /** @defgroup DBGMCU_Private_Macros
  52:../../source/src/FWlib/src/stm32f10x_dbgmcu.c ****   * @{
  53:../../source/src/FWlib/src/stm32f10x_dbgmcu.c ****   */
  54:../../source/src/FWlib/src/stm32f10x_dbgmcu.c **** 
  55:../../source/src/FWlib/src/stm32f10x_dbgmcu.c **** /**
  56:../../source/src/FWlib/src/stm32f10x_dbgmcu.c ****   * @}
  57:../../source/src/FWlib/src/stm32f10x_dbgmcu.c ****   */
  58:../../source/src/FWlib/src/stm32f10x_dbgmcu.c **** 
  59:../../source/src/FWlib/src/stm32f10x_dbgmcu.c **** /** @defgroup DBGMCU_Private_Variables
  60:../../source/src/FWlib/src/stm32f10x_dbgmcu.c ****   * @{
  61:../../source/src/FWlib/src/stm32f10x_dbgmcu.c ****   */
  62:../../source/src/FWlib/src/stm32f10x_dbgmcu.c **** 
  63:../../source/src/FWlib/src/stm32f10x_dbgmcu.c **** /**
  64:../../source/src/FWlib/src/stm32f10x_dbgmcu.c ****   * @}
  65:../../source/src/FWlib/src/stm32f10x_dbgmcu.c ****   */
  66:../../source/src/FWlib/src/stm32f10x_dbgmcu.c **** 
  67:../../source/src/FWlib/src/stm32f10x_dbgmcu.c **** /** @defgroup DBGMCU_Private_FunctionPrototypes
  68:../../source/src/FWlib/src/stm32f10x_dbgmcu.c ****   * @{
  69:../../source/src/FWlib/src/stm32f10x_dbgmcu.c ****   */
  70:../../source/src/FWlib/src/stm32f10x_dbgmcu.c **** 
  71:../../source/src/FWlib/src/stm32f10x_dbgmcu.c **** /**
  72:../../source/src/FWlib/src/stm32f10x_dbgmcu.c ****   * @}
  73:../../source/src/FWlib/src/stm32f10x_dbgmcu.c ****   */
  74:../../source/src/FWlib/src/stm32f10x_dbgmcu.c **** 
  75:../../source/src/FWlib/src/stm32f10x_dbgmcu.c **** /** @defgroup DBGMCU_Private_Functions
  76:../../source/src/FWlib/src/stm32f10x_dbgmcu.c ****   * @{
  77:../../source/src/FWlib/src/stm32f10x_dbgmcu.c ****   */
  78:../../source/src/FWlib/src/stm32f10x_dbgmcu.c **** 
  79:../../source/src/FWlib/src/stm32f10x_dbgmcu.c **** /**
  80:../../source/src/FWlib/src/stm32f10x_dbgmcu.c ****   * @brief  Returns the device revision identifier.
  81:../../source/src/FWlib/src/stm32f10x_dbgmcu.c ****   * @param  None
  82:../../source/src/FWlib/src/stm32f10x_dbgmcu.c ****   * @retval Device revision identifier
  83:../../source/src/FWlib/src/stm32f10x_dbgmcu.c ****   */
  84:../../source/src/FWlib/src/stm32f10x_dbgmcu.c **** uint32_t DBGMCU_GetREVID(void)
  85:../../source/src/FWlib/src/stm32f10x_dbgmcu.c **** {
  25              		.loc 1 85 0
  26              		.cfi_startproc
  27              		@ args = 0, pretend = 0, frame = 0
  28              		@ frame_needed = 1, uses_anonymous_args = 0
  29              		@ link register save eliminated.
ARM GAS  G:\Users\Jaxb\AppData\Local\Temp\cc88D6Yx.s 			page 3


  30 0000 80B4     		push	{r7}
  31              	.LCFI0:
  32              		.cfi_def_cfa_offset 4
  33              		.cfi_offset 7, -4
  34 0002 00AF     		add	r7, sp, #0
  35              	.LCFI1:
  36              		.cfi_def_cfa_register 7
  86:../../source/src/FWlib/src/stm32f10x_dbgmcu.c ****    return(DBGMCU->IDCODE >> 16);
  37              		.loc 1 86 0
  38 0004 034B     		ldr	r3, .L3
  39 0006 1B68     		ldr	r3, [r3]
  40 0008 1B0C     		lsrs	r3, r3, #16
  87:../../source/src/FWlib/src/stm32f10x_dbgmcu.c **** }
  41              		.loc 1 87 0
  42 000a 1846     		mov	r0, r3
  43 000c BD46     		mov	sp, r7
  44              	.LCFI2:
  45              		.cfi_def_cfa_register 13
  46              		@ sp needed
  47 000e 80BC     		pop	{r7}
  48              	.LCFI3:
  49              		.cfi_restore 7
  50              		.cfi_def_cfa_offset 0
  51 0010 7047     		bx	lr
  52              	.L4:
  53 0012 00BF     		.align	2
  54              	.L3:
  55 0014 002004E0 		.word	-536600576
  56              		.cfi_endproc
  57              	.LFE29:
  58              		.size	DBGMCU_GetREVID, .-DBGMCU_GetREVID
  59              		.align	1
  60              		.global	DBGMCU_GetDEVID
  61              		.syntax unified
  62              		.thumb
  63              		.thumb_func
  64              		.fpu softvfp
  65              		.type	DBGMCU_GetDEVID, %function
  66              	DBGMCU_GetDEVID:
  67              	.LFB30:
  88:../../source/src/FWlib/src/stm32f10x_dbgmcu.c **** 
  89:../../source/src/FWlib/src/stm32f10x_dbgmcu.c **** /**
  90:../../source/src/FWlib/src/stm32f10x_dbgmcu.c ****   * @brief  Returns the device identifier.
  91:../../source/src/FWlib/src/stm32f10x_dbgmcu.c ****   * @param  None
  92:../../source/src/FWlib/src/stm32f10x_dbgmcu.c ****   * @retval Device identifier
  93:../../source/src/FWlib/src/stm32f10x_dbgmcu.c ****   */
  94:../../source/src/FWlib/src/stm32f10x_dbgmcu.c **** uint32_t DBGMCU_GetDEVID(void)
  95:../../source/src/FWlib/src/stm32f10x_dbgmcu.c **** {
  68              		.loc 1 95 0
  69              		.cfi_startproc
  70              		@ args = 0, pretend = 0, frame = 0
  71              		@ frame_needed = 1, uses_anonymous_args = 0
  72              		@ link register save eliminated.
  73 0018 80B4     		push	{r7}
  74              	.LCFI4:
  75              		.cfi_def_cfa_offset 4
  76              		.cfi_offset 7, -4
ARM GAS  G:\Users\Jaxb\AppData\Local\Temp\cc88D6Yx.s 			page 4


  77 001a 00AF     		add	r7, sp, #0
  78              	.LCFI5:
  79              		.cfi_def_cfa_register 7
  96:../../source/src/FWlib/src/stm32f10x_dbgmcu.c ****    return(DBGMCU->IDCODE & IDCODE_DEVID_MASK);
  80              		.loc 1 96 0
  81 001c 034B     		ldr	r3, .L7
  82 001e 1B68     		ldr	r3, [r3]
  83 0020 C3F30B03 		ubfx	r3, r3, #0, #12
  97:../../source/src/FWlib/src/stm32f10x_dbgmcu.c **** }
  84              		.loc 1 97 0
  85 0024 1846     		mov	r0, r3
  86 0026 BD46     		mov	sp, r7
  87              	.LCFI6:
  88              		.cfi_def_cfa_register 13
  89              		@ sp needed
  90 0028 80BC     		pop	{r7}
  91              	.LCFI7:
  92              		.cfi_restore 7
  93              		.cfi_def_cfa_offset 0
  94 002a 7047     		bx	lr
  95              	.L8:
  96              		.align	2
  97              	.L7:
  98 002c 002004E0 		.word	-536600576
  99              		.cfi_endproc
 100              	.LFE30:
 101              		.size	DBGMCU_GetDEVID, .-DBGMCU_GetDEVID
 102              		.align	1
 103              		.global	DBGMCU_Config
 104              		.syntax unified
 105              		.thumb
 106              		.thumb_func
 107              		.fpu softvfp
 108              		.type	DBGMCU_Config, %function
 109              	DBGMCU_Config:
 110              	.LFB31:
  98:../../source/src/FWlib/src/stm32f10x_dbgmcu.c **** 
  99:../../source/src/FWlib/src/stm32f10x_dbgmcu.c **** /**
 100:../../source/src/FWlib/src/stm32f10x_dbgmcu.c ****   * @brief  Configures the specified peripheral and low power mode behavior
 101:../../source/src/FWlib/src/stm32f10x_dbgmcu.c ****   *   when the MCU under Debug mode.
 102:../../source/src/FWlib/src/stm32f10x_dbgmcu.c ****   * @param  DBGMCU_Periph: specifies the peripheral and low power mode.
 103:../../source/src/FWlib/src/stm32f10x_dbgmcu.c ****   *   This parameter can be any combination of the following values:
 104:../../source/src/FWlib/src/stm32f10x_dbgmcu.c ****   *     @arg DBGMCU_SLEEP: Keep debugger connection during SLEEP mode              
 105:../../source/src/FWlib/src/stm32f10x_dbgmcu.c ****   *     @arg DBGMCU_STOP: Keep debugger connection during STOP mode               
 106:../../source/src/FWlib/src/stm32f10x_dbgmcu.c ****   *     @arg DBGMCU_STANDBY: Keep debugger connection during STANDBY mode            
 107:../../source/src/FWlib/src/stm32f10x_dbgmcu.c ****   *     @arg DBGMCU_IWDG_STOP: Debug IWDG stopped when Core is halted          
 108:../../source/src/FWlib/src/stm32f10x_dbgmcu.c ****   *     @arg DBGMCU_WWDG_STOP: Debug WWDG stopped when Core is halted          
 109:../../source/src/FWlib/src/stm32f10x_dbgmcu.c ****   *     @arg DBGMCU_TIM1_STOP: TIM1 counter stopped when Core is halted          
 110:../../source/src/FWlib/src/stm32f10x_dbgmcu.c ****   *     @arg DBGMCU_TIM2_STOP: TIM2 counter stopped when Core is halted          
 111:../../source/src/FWlib/src/stm32f10x_dbgmcu.c ****   *     @arg DBGMCU_TIM3_STOP: TIM3 counter stopped when Core is halted          
 112:../../source/src/FWlib/src/stm32f10x_dbgmcu.c ****   *     @arg DBGMCU_TIM4_STOP: TIM4 counter stopped when Core is halted          
 113:../../source/src/FWlib/src/stm32f10x_dbgmcu.c ****   *     @arg DBGMCU_CAN1_STOP: Debug CAN2 stopped when Core is halted           
 114:../../source/src/FWlib/src/stm32f10x_dbgmcu.c ****   *     @arg DBGMCU_I2C1_SMBUS_TIMEOUT: I2C1 SMBUS timeout mode stopped when Core is halted
 115:../../source/src/FWlib/src/stm32f10x_dbgmcu.c ****   *     @arg DBGMCU_I2C2_SMBUS_TIMEOUT: I2C2 SMBUS timeout mode stopped when Core is halted
 116:../../source/src/FWlib/src/stm32f10x_dbgmcu.c ****   *     @arg DBGMCU_TIM5_STOP: TIM5 counter stopped when Core is halted          
 117:../../source/src/FWlib/src/stm32f10x_dbgmcu.c ****   *     @arg DBGMCU_TIM6_STOP: TIM6 counter stopped when Core is halted          
 118:../../source/src/FWlib/src/stm32f10x_dbgmcu.c ****   *     @arg DBGMCU_TIM7_STOP: TIM7 counter stopped when Core is halted          
ARM GAS  G:\Users\Jaxb\AppData\Local\Temp\cc88D6Yx.s 			page 5


 119:../../source/src/FWlib/src/stm32f10x_dbgmcu.c ****   *     @arg DBGMCU_TIM8_STOP: TIM8 counter stopped when Core is halted
 120:../../source/src/FWlib/src/stm32f10x_dbgmcu.c ****   *     @arg DBGMCU_CAN2_STOP: Debug CAN2 stopped when Core is halted 
 121:../../source/src/FWlib/src/stm32f10x_dbgmcu.c ****   *     @arg DBGMCU_TIM15_STOP: TIM15 counter stopped when Core is halted
 122:../../source/src/FWlib/src/stm32f10x_dbgmcu.c ****   *     @arg DBGMCU_TIM16_STOP: TIM16 counter stopped when Core is halted
 123:../../source/src/FWlib/src/stm32f10x_dbgmcu.c ****   *     @arg DBGMCU_TIM17_STOP: TIM17 counter stopped when Core is halted                
 124:../../source/src/FWlib/src/stm32f10x_dbgmcu.c ****   *     @arg DBGMCU_TIM9_STOP: TIM9 counter stopped when Core is halted
 125:../../source/src/FWlib/src/stm32f10x_dbgmcu.c ****   *     @arg DBGMCU_TIM10_STOP: TIM10 counter stopped when Core is halted
 126:../../source/src/FWlib/src/stm32f10x_dbgmcu.c ****   *     @arg DBGMCU_TIM11_STOP: TIM11 counter stopped when Core is halted
 127:../../source/src/FWlib/src/stm32f10x_dbgmcu.c ****   *     @arg DBGMCU_TIM12_STOP: TIM12 counter stopped when Core is halted
 128:../../source/src/FWlib/src/stm32f10x_dbgmcu.c ****   *     @arg DBGMCU_TIM13_STOP: TIM13 counter stopped when Core is halted
 129:../../source/src/FWlib/src/stm32f10x_dbgmcu.c ****   *     @arg DBGMCU_TIM14_STOP: TIM14 counter stopped when Core is halted
 130:../../source/src/FWlib/src/stm32f10x_dbgmcu.c ****   * @param  NewState: new state of the specified peripheral in Debug mode.
 131:../../source/src/FWlib/src/stm32f10x_dbgmcu.c ****   *   This parameter can be: ENABLE or DISABLE.
 132:../../source/src/FWlib/src/stm32f10x_dbgmcu.c ****   * @retval None
 133:../../source/src/FWlib/src/stm32f10x_dbgmcu.c ****   */
 134:../../source/src/FWlib/src/stm32f10x_dbgmcu.c **** void DBGMCU_Config(uint32_t DBGMCU_Periph, FunctionalState NewState)
 135:../../source/src/FWlib/src/stm32f10x_dbgmcu.c **** {
 111              		.loc 1 135 0
 112              		.cfi_startproc
 113              		@ args = 0, pretend = 0, frame = 8
 114              		@ frame_needed = 1, uses_anonymous_args = 0
 115              		@ link register save eliminated.
 116 0030 80B4     		push	{r7}
 117              	.LCFI8:
 118              		.cfi_def_cfa_offset 4
 119              		.cfi_offset 7, -4
 120 0032 83B0     		sub	sp, sp, #12
 121              	.LCFI9:
 122              		.cfi_def_cfa_offset 16
 123 0034 00AF     		add	r7, sp, #0
 124              	.LCFI10:
 125              		.cfi_def_cfa_register 7
 126 0036 7860     		str	r0, [r7, #4]
 127 0038 0B46     		mov	r3, r1
 128 003a FB70     		strb	r3, [r7, #3]
 136:../../source/src/FWlib/src/stm32f10x_dbgmcu.c ****   /* Check the parameters */
 137:../../source/src/FWlib/src/stm32f10x_dbgmcu.c ****   assert_param(IS_DBGMCU_PERIPH(DBGMCU_Periph));
 138:../../source/src/FWlib/src/stm32f10x_dbgmcu.c ****   assert_param(IS_FUNCTIONAL_STATE(NewState));
 139:../../source/src/FWlib/src/stm32f10x_dbgmcu.c **** 
 140:../../source/src/FWlib/src/stm32f10x_dbgmcu.c ****   if (NewState != DISABLE)
 129              		.loc 1 140 0
 130 003c FB78     		ldrb	r3, [r7, #3]	@ zero_extendqisi2
 131 003e 002B     		cmp	r3, #0
 132 0040 06D0     		beq	.L10
 141:../../source/src/FWlib/src/stm32f10x_dbgmcu.c ****   {
 142:../../source/src/FWlib/src/stm32f10x_dbgmcu.c ****     DBGMCU->CR |= DBGMCU_Periph;
 133              		.loc 1 142 0
 134 0042 094B     		ldr	r3, .L13
 135 0044 5A68     		ldr	r2, [r3, #4]
 136 0046 0849     		ldr	r1, .L13
 137 0048 7B68     		ldr	r3, [r7, #4]
 138 004a 1343     		orrs	r3, r3, r2
 139 004c 4B60     		str	r3, [r1, #4]
 143:../../source/src/FWlib/src/stm32f10x_dbgmcu.c ****   }
 144:../../source/src/FWlib/src/stm32f10x_dbgmcu.c ****   else
 145:../../source/src/FWlib/src/stm32f10x_dbgmcu.c ****   {
 146:../../source/src/FWlib/src/stm32f10x_dbgmcu.c ****     DBGMCU->CR &= ~DBGMCU_Periph;
ARM GAS  G:\Users\Jaxb\AppData\Local\Temp\cc88D6Yx.s 			page 6


 147:../../source/src/FWlib/src/stm32f10x_dbgmcu.c ****   }
 148:../../source/src/FWlib/src/stm32f10x_dbgmcu.c **** }
 140              		.loc 1 148 0
 141 004e 06E0     		b	.L12
 142              	.L10:
 146:../../source/src/FWlib/src/stm32f10x_dbgmcu.c ****   }
 143              		.loc 1 146 0
 144 0050 054B     		ldr	r3, .L13
 145 0052 5A68     		ldr	r2, [r3, #4]
 146 0054 7B68     		ldr	r3, [r7, #4]
 147 0056 DB43     		mvns	r3, r3
 148 0058 0349     		ldr	r1, .L13
 149 005a 1340     		ands	r3, r3, r2
 150 005c 4B60     		str	r3, [r1, #4]
 151              	.L12:
 152              		.loc 1 148 0
 153 005e 00BF     		nop
 154 0060 0C37     		adds	r7, r7, #12
 155              	.LCFI11:
 156              		.cfi_def_cfa_offset 4
 157 0062 BD46     		mov	sp, r7
 158              	.LCFI12:
 159              		.cfi_def_cfa_register 13
 160              		@ sp needed
 161 0064 80BC     		pop	{r7}
 162              	.LCFI13:
 163              		.cfi_restore 7
 164              		.cfi_def_cfa_offset 0
 165 0066 7047     		bx	lr
 166              	.L14:
 167              		.align	2
 168              	.L13:
 169 0068 002004E0 		.word	-536600576
 170              		.cfi_endproc
 171              	.LFE31:
 172              		.size	DBGMCU_Config, .-DBGMCU_Config
 173              	.Letext0:
 174              		.file 2 "f:\\arm\\gcc2018\\arm-none-eabi\\include\\machine\\_default_types.h"
 175              		.file 3 "f:\\arm\\gcc2018\\arm-none-eabi\\include\\sys\\_stdint.h"
 176              		.file 4 "../../source/include/os_cpu/core_cm3.h"
 177              		.file 5 "../../source/include/os_cpu/system_stm32f10x.h"
 178              		.file 6 "../../source/include/os_cpu/stm32f10x.h"