ARM GAS  G:\Users\Jaxb\AppData\Local\Temp\cc88D6Yx.s 			page 1


   1              		.cpu cortex-m3
   2              		.eabi_attribute 20, 1
   3              		.eabi_attribute 21, 1
   4              		.eabi_attribute 23, 3
   5              		.eabi_attribute 24, 1
   6              		.eabi_attribute 25, 1
   7              		.eabi_attribute 26, 1
   8              		.eabi_attribute 30, 6
   9              		.eabi_attribute 34, 1
  10              		.eabi_attribute 18, 4
  11              		.file	"stm32f10x_dbgmcu.c"
  12              		.text
  13              	.Ltext0:
  14              		.cfi_sections	.debug_frame
  15              		.align	1
  16              		.global	DBGMCU_GetREVID
  17              		.syntax unified
  18              		.thumb
  19              		.thumb_func
  20              		.fpu softvfp
  21              		.type	DBGMCU_GetREVID, %function
  22              	DBGMCU_GetREVID:
  23              	.LFB29:
  24              		.file 1 "../../source/src/FWlib/src/stm32f10x_dbgmcu.c"
   1:../../source/src/FWlib/src/stm32f10x_dbgmcu.c **** /**
   2:../../source/src/FWlib/src/stm32f10x_dbgmcu.c ****   ******************************************************************************
   3:../../source/src/FWlib/src/stm32f10x_dbgmcu.c ****   * @file    stm32f10x_dbgmcu.c
   4:../../source/src/FWlib/src/stm32f10x_dbgmcu.c ****   * @author  MCD Application Team
   5:../../source/src/FWlib/src/stm32f10x_dbgmcu.c ****   * @version V3.5.0
   6:../../source/src/FWlib/src/stm32f10x_dbgmcu.c ****   * @date    11-March-2011
   7:../../source/src/FWlib/src/stm32f10x_dbgmcu.c ****   * @brief   This file provides all the DBGMCU firmware functions.
   8:../../source/src/FWlib/src/stm32f10x_dbgmcu.c ****   ******************************************************************************
   9:../../source/src/FWlib/src/stm32f10x_dbgmcu.c ****   * @attention
  10:../../source/src/FWlib/src/stm32f10x_dbgmcu.c ****   *
  11:../../source/src/FWlib/src/stm32f10x_dbgmcu.c ****   * THE PRESENT FIRMWARE WHICH IS FOR GUIDANCE ONLY AIMS AT PROVIDING CUSTOMERS
  12:../../source/src/FWlib/src/stm32f10x_dbgmcu.c ****   * WITH CODING INFORMATION REGARDING THEIR PRODUCTS IN ORDER FOR THEM TO SAVE
  13:../../source/src/FWlib/src/stm32f10x_dbgmcu.c ****   * TIME. AS A RESULT, STMICROELECTRONICS SHALL NOT BE HELD LIABLE FOR ANY
  14:../../source/src/FWlib/src/stm32f10x_dbgmcu.c ****   * DIRECT, INDIRECT OR CONSEQUENTIAL DAMAGES WITH RESPECT TO ANY CLAIMS ARISING
  15:../../source/src/FWlib/src/stm32f10x_dbgmcu.c ****   * FROM THE CONTENT OF SUCH FIRMWARE AND/OR THE USE MADE BY CUSTOMERS OF THE
  16:../../source/src/FWlib/src/stm32f10x_dbgmcu.c ****   * CODING INFORMATION CONTAINED HEREIN IN CONNECTION WITH THEIR PRODUCTS.
  17:../../source/src/FWlib/src/stm32f10x_dbgmcu.c ****   *
  18:../../source/src/FWlib/src/stm32f10x_dbgmcu.c ****   * <h2><center>&copy; COPYRIGHT 2011 STMicroelectronics</center></h2>
  19:../../source/src/FWlib/src/stm32f10x_dbgmcu.c ****   ******************************************************************************
  20:../../source/src/FWlib/src/stm32f10x_dbgmcu.c ****   */
  21:../../source/src/FWlib/src/stm32f10x_dbgmcu.c **** 
  22:../../source/src/FWlib/src/stm32f10x_dbgmcu.c **** /* Includes ------------------------------------------------------------------*/
  23:../../source/src/FWlib/src/stm32f10x_dbgmcu.c **** #include "stm32f10x_dbgmcu.h"
  24:../../source/src/FWlib/src/stm32f10x_dbgmcu.c **** 
  25:../../source/src/FWlib/src/stm32f10x_dbgmcu.c **** /** @addtogroup STM32F10x_StdPeriph_Driver
  26:../../source/src/FWlib/src/stm32f10x_dbgmcu.c ****   * @{
  27:../../source/src/FWlib/src/stm32f10x_dbgmcu.c ****   */
  28:../../source/src/FWlib/src/stm32f10x_dbgmcu.c **** 
  29:../../source/src/FWlib/src/stm32f10x_dbgmcu.c **** /** @defgroup DBGMCU 
  30:../../source/src/FWlib/src/stm32f10x_dbgmcu.c ****   * @brief DBGMCU driver modules
  31:../../source/src/FWlib/src/stm32f10x_dbgmcu.c ****   * @{
  32:../../source/src/FWlib/src/stm32f10x_dbgmcu.c ****   */ 
  33:../../source/src/FWlib/src/stm32f10x_dbgmcu.c **** 
ARM GAS  G:\Users\Jaxb\AppData\Local\Temp\cc88D6Yx.s 			page 2


  34:../../source/src/FWlib/src/stm32f10x_dbgmcu.c **** /** @defgroup DBGMCU_Private_TypesDefinitions
  35:../../source/src/FWlib/src/stm32f10x_dbgmcu.c ****   * @{
  36:../../source/src/FWlib/src/stm32f10x_dbgmcu.c ****   */
  37:../../source/src/FWlib/src/stm32f10x_dbgmcu.c **** 
  38:../../source/src/FWlib/src/stm32f10x_dbgmcu.c **** /**
  39:../../source/src/FWlib/src/stm32f10x_dbgmcu.c ****   * @}
  40:../../source/src/FWlib/src/stm32f10x_dbgmcu.c ****   */
  41:../../source/src/FWlib/src/stm32f10x_dbgmcu.c **** 
  42:../../source/src/FWlib/src/stm32f10x_dbgmcu.c **** /** @defgroup DBGMCU_Private_Defines
  43:../../source/src/FWlib/src/stm32f10x_dbgmcu.c ****   * @{
  44:../../source/src/FWlib/src/stm32f10x_dbgmcu.c ****   */
  45:../../source/src/FWlib/src/stm32f10x_dbgmcu.c **** 
  46:../../source/src/FWlib/src/stm32f10x_dbgmcu.c **** #define IDCODE_DEVID_MASK    ((uint32_t)0x00000FFF)
  47:../../source/src/FWlib/src/stm32f10x_dbgmcu.c **** /**
  48:../../source/src/FWlib/src/stm32f10x_dbgmcu.c ****   * @}
  49:../../source/src/FWlib/src/stm32f10x_dbgmcu.c ****   */
  50:../../source/src/FWlib/src/stm32f10x_dbgmcu.c **** 
  51:../../source/src/FWlib/src/stm32f10x_dbgmcu.c **** /** @defgroup DBGMCU_Private_Macros
  52:../../source/src/FWlib/src/stm32f10x_dbgmcu.c ****   * @{
  53:../../source/src/FWlib/src/stm32f10x_dbgmcu.c ****   */
  54:../../source/src/FWlib/src/stm32f10x_dbgmcu.c **** 
  55:../../source/src/FWlib/src/stm32f10x_dbgmcu.c **** /**
  56:../../source/src/FWlib/src/stm32f10x_dbgmcu.c ****   * @}
  57:../../source/src/FWlib/src/stm32f10x_dbgmcu.c ****   */
  58:../../source/src/FWlib/src/stm32f10x_dbgmcu.c **** 
  59:../../source/src/FWlib/src/stm32f10x_dbgmcu.c **** /** @defgroup DBGMCU_Private_Variables
  60:../../source/src/FWlib/src/stm32f10x_dbgmcu.c ****   * @{
  61:../../source/src/FWlib/src/stm32f10x_dbgmcu.c ****   */
  62:../../source/src/FWlib/src/stm32f10x_dbgmcu.c **** 
  63:../../source/src/FWlib/src/stm32f10x_dbgmcu.c **** /**
  64:../../source/src/FWlib/src/stm32f10x_dbgmcu.c ****   * @}
  65:../../source/src/FWlib/src/stm32f10x_dbgmcu.c ****   */
  66:../../source/src/FWlib/src/stm32f10x_dbgmcu.c **** 
  67:../../source/src/FWlib/src/stm32f10x_dbgmcu.c **** /** @defgroup DBGMCU_Private_FunctionPrototypes
  68:../../source/src/FWlib/src/stm32f10x_dbgmcu.c ****   * @{
  69:../../source/src/FWlib/src/stm32f10x_dbgmcu.c ****   */
  70:../../source/src/FWlib/src/stm32f10x_dbgmcu.c **** 
  71:../../source/src/FWlib/src/stm32f10x_dbgmcu.c **** /**
  72:../../source/src/FWlib/src/stm32f10x_dbgmcu.c ****   * @}
  73:../../source/src/FWlib/src/stm32f10x_dbgmcu.c ****   */
  74:../../source/src/FWlib/src/stm32f10x_dbgmcu.c **** 
  75:../../source/src/FWlib/src/stm32f10x_dbgmcu.c **** /** @defgroup DBGMCU_Private_Functions
  76:../../source/src/FWlib/src/stm32f10x_dbgmcu.c ****   * @{
  77:../../source/src/FWlib/src/stm32f10x_dbgmcu.c ****   */
  78:../../source/src/FWlib/src/stm32f10x_dbgmcu.c **** 
  79:../../source/src/FWlib/src/stm32f10x_dbgmcu.c **** /**
  80:../../source/src/FWlib/src/stm32f10x_dbgmcu.c ****   * @brief  Returns the device revision identifier.
  81:../../source/src/FWlib/src/stm32f10x_dbgmcu.c ****   * @param  None
  82:../../source/src/FWlib/src/stm32f10x_dbgmcu.c ****   * @retval Device revision identifier
  83:../../source/src/FWlib/src/stm32f10x_dbgmcu.c ****   */
  84:../../source/src/FWlib/src/stm32f10x_dbgmcu.c **** uint32_t DBGMCU_GetREVID(void)
  85:../../source/src/FWlib/src/stm32f10x_dbgmcu.c **** {
  25              		.loc 1 85 0
  26              		.cfi_startproc
  27              		@ args = 0, pretend = 0, frame = 0
  28              		@ frame_needed = 1, uses_anonymous_args = 0
  29              		@ link register save eliminated.
ARM GAS  G:\Users\Jaxb\AppData\Local\Temp\cc88D6Yx.s 			page 3


  30 0000 80B4     		push	{r7}
  31              	.LCFI0:
  32              		.cfi_def_cfa_offset 4
  33              		.cfi_offset 7, -4
  34 0002 00AF     		add	r7, sp, #0
  35              	.LCFI1:
  36              		.cfi_def_cfa_register 7
  86:../../source/src/FWlib/src/stm32f10x_dbgmcu.c ****    return(DBGMCU->IDCODE >> 16);
  37              		.loc 1 86 0
  38 0004 034B     		ldr	r3, .L3
  39 0006 1B68     		ldr	r3, [r3]
  40 0008 1B0C     		lsrs	r3, r3, #16
  87:../../source/src/FWlib/src/stm32f10x_dbgmcu.c **** }
  41              		.loc 1 87 0
  42 000a 1846     		mov	r0, r3
  43 000c BD46     		mov	sp, r7
  44              	.LCFI2:
  45              		.cfi_def_cfa_register 13
  46              		@ sp needed
  47 000e 80BC     		pop	{r7}
  48              	.LCFI3:
  49              		.cfi_restore 7
  50              		.cfi_def_cfa_offset 0
  51 0010 7047     		bx	lr
  52              	.L4:
  53 0012 00BF     		.align	2
  54              	.L3:
  55 0014 002004E0 		.word	-536600576
  56              		.cfi_endproc
  57              	.LFE29:
  58              		.size	DBGMCU_GetREVID, .-DBGMCU_GetREVID
  59              		.align	1
  60              		.global	DBGMCU_GetDEVID
  61              		.syntax unified
  62              		.thumb
  63              		.thumb_func
  64              		.fpu softvfp
  65              		.type	DBGMCU_GetDEVID, %function
  66              	DBGMCU_GetDEVID:
  67              	.LFB30:
  88:../../source/src/FWlib/src/stm32f10x_dbgmcu.c **** 
  89:../../source/src/FWlib/src/stm32f10x_dbgmcu.c **** /**
  90:../../source/src/FWlib/src/stm32f10x_dbgmcu.c ****   * @brief  Returns the device identifier.
  91:../../source/src/FWlib/src/stm32f10x_dbgmcu.c ****   * @param  None
  92:../../source/src/FWlib/src/stm32f10x_dbgmcu.c ****   * @retval Device identifier
  93:../../source/src/FWlib/src/stm32f10x_dbgmcu.c ****   */
  94:../../source/src/FWlib/src/stm32f10x_dbgmcu.c **** uint32_t DBGMCU_GetDEVID(void)
  95:../../source/src/FWlib/src/stm32f10x_dbgmcu.c **** {
  68              		.loc 1 95 0
  69              		.cfi_startproc
  70              		@ args = 0, pretend = 0, frame = 0
  71              		@ frame_needed = 1, uses_anonymous_args = 0
  72              		@ link register save eliminated.
  73 0018 80B4     		push	{r7}
  74              	.LCFI4:
  75              		.cfi_def_cfa_offset 4
  76              		.cfi_offset 7, -4
ARM GAS  G:\Users\Jaxb\AppData\Local\Temp\cc88D6Yx.s 			page 4


  77 001a 00AF     		add	r7, sp, #0
  78              	.LCFI5:
  79              		.cfi_def_cfa_register 7
  96:../../source/src/FWlib/src/stm32f10x_dbgmcu.c ****    return(DBGMCU->IDCODE & IDCODE_DEVID_MASK);
  80              		.loc 1 96 0
  81 001c 034B     		ldr	r3, .L7
  82 001e 1B68     		ldr	r3, [r3]
  83 0020 C3F30B03 		ubfx	r3, r3, #0, #12
  97:../../source/src/FWlib/src/stm32f10x_dbgmcu.c **** }
  84              		.loc 1 97 0
  85 0024 1846     		mov	r0, r3
  86 0026 BD46     		mov	sp, r7
  87              	.LCFI6:
  88              		.cfi_def_cfa_register 13
  89              		@ sp needed
  90 0028 80BC     		pop	{r7}
  91              	.LCFI7:
  92              		.cfi_restore 7
  93              		.cfi_def_cfa_offset 0
  94 002a 7047     		bx	lr
  95              	.L8:
  96              		.align	2
  97              	.L7:
  98 002c 002004E0 		.word	-536600576
  99              		.cfi_endproc
 100              	.LFE30:
 101              		.size	DBGMCU_GetDEVID, .-DBGMCU_GetDEVID
 102              		.align	1
 103              		.global	DBGMCU_Config
 104              		.syntax unified
 105              		.thumb
 106              		.thumb_func
 107              		.fpu softvfp
 108              		.type	DBGMCU_Config, %function
 109              	DBGMCU_Config:
 110              	.LFB31:
  98:../../source/src/FWlib/src/stm32f10x_dbgmcu.c **** 
  99:../../source/src/FWlib/src/stm32f10x_dbgmcu.c **** /**
 100:../../source/src/FWlib/src/stm32f10x_dbgmcu.c ****   * @brief  Configures the specified peripheral and low power mode behavior
 101:../../source/src/FWlib/src/stm32f10x_dbgmcu.c ****   *   when the MCU under Debug mode.
 102:../../source/src/FWlib/src/stm32f10x_dbgmcu.c ****   * @param  DBGMCU_Periph: specifies the peripheral and low power mode.
 103:../../source/src/FWlib/src/stm32f10x_dbgmcu.c ****   *   This parameter can be any combination of the following values:
 104:../../source/src/FWlib/src/stm32f10x_dbgmcu.c ****   *     @arg DBGMCU_SLEEP: Keep debugger connection during SLEEP mode              
 105:../../source/src/FWlib/src/stm32f10x_dbgmcu.c ****   *     @arg DBGMCU_STOP: Keep debugger connection during STOP mode               
 106:../../source/src/FWlib/src/stm32f10x_dbgmcu.c ****   *     @arg DBGMCU_STANDBY: Keep debugger connection during STANDBY mode            
 107:../../source/src/FWlib/src/stm32f10x_dbgmcu.c ****   *     @arg DBGMCU_IWDG_STOP: Debug IWDG stopped when Core is halted          
 108:../../source/src/FWlib/src/stm32f10x_dbgmcu.c ****   *     @arg DBGMCU_WWDG_STOP: Debug WWDG stopped when Core is halted          
 109:../../source/src/FWlib/src/stm32f10x_dbgmcu.c ****   *     @arg DBGMCU_TIM1_STOP: TIM1 counter stopped when Core is halted          
 110:../../source/src/FWlib/src/stm32f10x_dbgmcu.c ****   *     @arg DBGMCU_TIM2_STOP: TIM2 counter stopped when Core is halted          
 111:../../source/src/FWlib/src/stm32f10x_dbgmcu.c ****   *     @arg DBGMCU_TIM3_STOP: TIM3 counter stopped when Core is halted          
 112:../../source/src/FWlib/src/stm32f10x_dbgmcu.c ****   *     @arg DBGMCU_TIM4_STOP: TIM4 counter stopped when Core is halted          
 113:../../source/src/FWlib/src/stm32f10x_dbgmcu.c ****   *     @arg DBGMCU_CAN1_STOP: Debug CAN2 stopped when Core is halted           
 114:../../source/src/FWlib/src/stm32f10x_dbgmcu.c ****   *     @arg DBGMCU_I2C1_SMBUS_TIMEOUT: I2C1 SMBUS timeout mode stopped when Core is halted
 115:../../source/src/FWlib/src/stm32f10x_dbgmcu.c ****   *     @arg DBGMCU_I2C2_SMBUS_TIMEOUT: I2C2 SMBUS timeout mode stopped when Core is halted
 116:../../source/src/FWlib/src/stm32f10x_dbgmcu.c ****   *     @arg DBGMCU_TIM5_STOP: TIM5 counter stopped when Core is halted          
 117:../../source/src/FWlib/src/stm32f10x_dbgmcu.c ****   *     @arg DBGMCU_TIM6_STOP: TIM6 counter stopped when Core is halted          
 118:../../source/src/FWlib/src/stm32f10x_dbgmcu.c ****   *     @arg DBGMCU_TIM7_STOP: TIM7 counter stopped when Core is halted          
ARM GAS  G:\Users\Jaxb\AppData\Local\Temp\cc88D6Yx.s 			page 5


 119:../../source/src/FWlib/src/stm32f10x_dbgmcu.c ****   *     @arg DBGMCU_TIM8_STOP: TIM8 counter stopped when Core is halted
 120:../../source/src/FWlib/src/stm32f10x_dbgmcu.c ****   *     @arg DBGMCU_CAN2_STOP: Debug CAN2 stopped when Core is halted 
 121:../../source/src/FWlib/src/stm32f10x_dbgmcu.c ****   *     @arg DBGMCU_TIM15_STOP: TIM15 counter stopped when Core is halted
 122:../../source/src/FWlib/src/stm32f10x_dbgmcu.c ****   *     @arg DBGMCU_TIM16_STOP: TIM16 counter stopped when Core is halted
 123:../../source/src/FWlib/src/stm32f10x_dbgmcu.c ****   *     @arg DBGMCU_TIM17_STOP: TIM17 counter stopped when Core is halted                
 124:../../source/src/FWlib/src/stm32f10x_dbgmcu.c ****   *     @arg DBGMCU_TIM9_STOP: TIM9 counter stopped when Core is halted
 125:../../source/src/FWlib/src/stm32f10x_dbgmcu.c ****   *     @arg DBGMCU_TIM10_STOP: TIM10 counter stopped when Core is halted
 126:../../source/src/FWlib/src/stm32f10x_dbgmcu.c ****   *     @arg DBGMCU_TIM11_STOP: TIM11 counter stopped when Core is halted
 127:../../source/src/FWlib/src/stm32f10x_dbgmcu.c ****   *     @arg DBGMCU_TIM12_STOP: TIM12 counter stopped when Core is halted
 128:../../source/src/FWlib/src/stm32f10x_dbgmcu.c ****   *     @arg DBGMCU_TIM13_STOP: TIM13 counter stopped when Core is halted
 129:../../source/src/FWlib/src/stm32f10x_dbgmcu.c ****   *     @arg DBGMCU_TIM14_STOP: TIM14 counter stopped when Core is halted
 130:../../source/src/FWlib/src/stm32f10x_dbgmcu.c ****   * @param  NewState: new state of the specified peripheral in Debug mode.
 131:../../source/src/FWlib/src/stm32f10x_dbgmcu.c ****   *   This parameter can be: ENABLE or DISABLE.
 132:../../source/src/FWlib/src/stm32f10x_dbgmcu.c ****   * @retval None
 133:../../source/src/FWlib/src/stm32f10x_dbgmcu.c ****   */
 134:../../source/src/FWlib/src/stm32f10x_dbgmcu.c **** void DBGMCU_Config(uint32_t DBGMCU_Periph, FunctionalState NewState)
 135:../../source/src/FWlib/src/stm32f10x_dbgmcu.c **** {
 111              		.loc 1 135 0
 112              		.cfi_startproc
 113              		@ args = 0, pretend = 0, frame = 8
 114              		@ frame_needed = 1, uses_anonymous_args = 0
 115              		@ link register save eliminated.
 116 0030 80B4     		push	{r7}
 117              	.LCFI8:
 118              		.cfi_def_cfa_offset 4
 119              		.cfi_offset 7, -4
 120 0032 83B0     		sub	sp, sp, #12
 121              	.LCFI9:
 122              		.cfi_def_cfa_offset 16
 123 0034 00AF     		add	r7, sp, #0
 124              	.LCFI10:
 125              		.cfi_def_cfa_register 7
 126 0036 7860     		str	r0, [r7, #4]
 127 0038 0B46     		mov	r3, r1
 128 003a FB70     		strb	r3, [r7, #3]
 136:../../source/src/FWlib/src/stm32f10x_dbgmcu.c ****   /* Check the parameters */
 137:../../source/src/FWlib/src/stm32f10x_dbgmcu.c ****   assert_param(IS_DBGMCU_PERIPH(DBGMCU_Periph));
 138:../../source/src/FWlib/src/stm32f10x_dbgmcu.c ****   assert_param(IS_FUNCTIONAL_STATE(NewState));
 139:../../source/src/FWlib/src/stm32f10x_dbgmcu.c **** 
 140:../../source/src/FWlib/src/stm32f10x_dbgmcu.c ****   if (NewState != DISABLE)
 129              		.loc 1 140 0
 130 003c FB78     		ldrb	r3, [r7, #3]	@ zero_extendqisi2
 131 003e 002B     		cmp	r3, #0
 132 0040 06D0     		beq	.L10
 141:../../source/src/FWlib/src/stm32f10x_dbgmcu.c ****   {
 142:../../source/src/FWlib/src/stm32f10x_dbgmcu.c ****     DBGMCU->CR |= DBGMCU_Periph;
 133              		.loc 1 142 0
 134 0042 094B     		ldr	r3, .L13
 135 0044 5A68     		ldr	r2, [r3, #4]
 136 0046 0849     		ldr	r1, .L13
 137 0048 7B68     		ldr	r3, [r7, #4]
 138 004a 1343     		orrs	r3, r3, r2
 139 004c 4B60     		str	r3, [r1, #4]
 143:../../source/src/FWlib/src/stm32f10x_dbgmcu.c ****   }
 144:../../source/src/FWlib/src/stm32f10x_dbgmcu.c ****   else
 145:../../source/src/FWlib/src/stm32f10x_dbgmcu.c ****   {
 146:../../source/src/FWlib/src/stm32f10x_dbgmcu.c ****     DBGMCU->CR &= ~DBGMCU_Periph;
ARM GAS  G:\Users\Jaxb\AppData\Local\Temp\cc88D6Yx.s 			page 6


 147:../../source/src/FWlib/src/stm32f10x_dbgmcu.c ****   }
 148:../../source/src/FWlib/src/stm32f10x_dbgmcu.c **** }
 140              		.loc 1 148 0
 141 004e 06E0     		b	.L12
 142              	.L10:
 146:../../source/src/FWlib/src/stm32f10x_dbgmcu.c ****   }
 143              		.loc 1 146 0
 144 0050 054B     		ldr	r3, .L13
 145 0052 5A68     		ldr	r2, [r3, #4]
 146 0054 7B68     		ldr	r3, [r7, #4]
 147 0056 DB43     		mvns	r3, r3
 148 0058 0349     		ldr	r1, .L13
 149 005a 1340     		ands	r3, r3, r2
 150 005c 4B60     		str	r3, [r1, #4]
 151              	.L12:
 152              		.loc 1 148 0
 153 005e 00BF     		nop
 154 0060 0C37     		adds	r7, r7, #12
 155              	.LCFI11:
 156              		.cfi_def_cfa_offset 4
 157 0062 BD46     		mov	sp, r7
 158              	.LCFI12:
 159              		.cfi_def_cfa_register 13
 160              		@ sp needed
 161 0064 80BC     		pop	{r7}
 162              	.LCFI13:
 163              		.cfi_restore 7
 164              		.cfi_def_cfa_offset 0
 165 0066 7047     		bx	lr
 166              	.L14:
 167              		.align	2
 168              	.L13:
 169 0068 002004E0 		.word	-536600576
 170              		.cfi_endproc
 171              	.LFE31:
 172              		.size	DBGMCU_Config, .-DBGMCU_Config
 173              	.Letext0:
 174              		.file 2 "f:\\arm\\gcc2018\\arm-none-eabi\\include\\machine\\_default_types.h"
 175              		.file 3 "f:\\arm\\gcc2018\\arm-none-eabi\\include\\sys\\_stdint.h"
 176              		.file 4 "../../source/include/os_cpu/core_cm3.h"
 177              		.file 5 "../../source/include/os_cpu/system_stm32f10x.h"
 178              		.file 6 "../../source/include/os_cpu/stm32f10x.h"
 179              		.section	.debug_info,"",%progbits
 180              	.Ldebug_info0:
 181 0000 68010000 		.4byte	0x168
 182 0004 0200     		.2byte	0x2
 183 0006 00000000 		.4byte	.Ldebug_abbrev0
 184 000a 04       		.byte	0x4
 185 000b 01       		.uleb128 0x1
 186 000c 22010000 		.4byte	.LASF22
 187 0010 0C       		.byte	0xc
 188 0011 E0010000 		.4byte	.LASF23
 189 0015 DE000000 		.4byte	.LASF24
 190 0019 00000000 		.4byte	.Ltext0
 191 001d 6C000000 		.4byte	.Letext0
 192 0021 00000000 		.4byte	.Ldebug_line0
 193 0025 02       		.uleb128 0x2
ARM GAS  G:\Users\Jaxb\AppData\Local\Temp\cc88D6Yx.s 			page 7


 194 0026 01       		.byte	0x1
 195 0027 06       		.byte	0x6
 196 0028 0E020000 		.4byte	.LASF0
 197 002c 02       		.uleb128 0x2
 198 002d 01       		.byte	0x1
 199 002e 08       		.byte	0x8
 200 002f B0000000 		.4byte	.LASF1
 201 0033 02       		.uleb128 0x2
 202 0034 02       		.byte	0x2
 203 0035 05       		.byte	0x5
 204 0036 D6010000 		.4byte	.LASF2
 205 003a 02       		.uleb128 0x2
 206 003b 02       		.byte	0x2
 207 003c 07       		.byte	0x7
 208 003d 0E000000 		.4byte	.LASF3
 209 0041 02       		.uleb128 0x2
 210 0042 04       		.byte	0x4
 211 0043 05       		.byte	0x5
 212 0044 0C010000 		.4byte	.LASF4
 213 0048 03       		.uleb128 0x3
 214 0049 4D000000 		.4byte	.LASF9
 215 004d 02       		.byte	0x2
 216 004e 4F       		.byte	0x4f
 217 004f 53000000 		.4byte	0x53
 218 0053 02       		.uleb128 0x2
 219 0054 04       		.byte	0x4
 220 0055 07       		.byte	0x7
 221 0056 6E000000 		.4byte	.LASF5
 222 005a 02       		.uleb128 0x2
 223 005b 08       		.byte	0x8
 224 005c 05       		.byte	0x5
 225 005d 00000000 		.4byte	.LASF6
 226 0061 02       		.uleb128 0x2
 227 0062 08       		.byte	0x8
 228 0063 07       		.byte	0x7
 229 0064 80000000 		.4byte	.LASF7
 230 0068 04       		.uleb128 0x4
 231 0069 04       		.byte	0x4
 232 006a 05       		.byte	0x5
 233 006b 696E7400 		.ascii	"int\000"
 234 006f 05       		.uleb128 0x5
 235 0070 68000000 		.4byte	0x68
 236 0074 02       		.uleb128 0x2
 237 0075 04       		.byte	0x4
 238 0076 07       		.byte	0x7
 239 0077 21000000 		.4byte	.LASF8
 240 007b 03       		.uleb128 0x3
 241 007c C5000000 		.4byte	.LASF10
 242 0080 03       		.byte	0x3
 243 0081 30       		.byte	0x30
 244 0082 48000000 		.4byte	0x48
 245 0086 05       		.uleb128 0x5
 246 0087 7B000000 		.4byte	0x7b
 247 008b 06       		.uleb128 0x6
 248 008c 15010000 		.4byte	.LASF11
 249 0090 04       		.byte	0x4
 250 0091 CE06     		.2byte	0x6ce
ARM GAS  G:\Users\Jaxb\AppData\Local\Temp\cc88D6Yx.s 			page 8


 251 0093 6F000000 		.4byte	0x6f
 252 0097 01       		.byte	0x1
 253 0098 01       		.byte	0x1
 254 0099 07       		.uleb128 0x7
 255 009a CE000000 		.4byte	.LASF12
 256 009e 05       		.byte	0x5
 257 009f 35       		.byte	0x35
 258 00a0 7B000000 		.4byte	0x7b
 259 00a4 01       		.byte	0x1
 260 00a5 01       		.byte	0x1
 261 00a6 08       		.uleb128 0x8
 262 00a7 07       		.byte	0x7
 263 00a8 01       		.byte	0x1
 264 00a9 2C000000 		.4byte	0x2c
 265 00ad 06       		.byte	0x6
 266 00ae 0902     		.2byte	0x209
 267 00b0 C1000000 		.4byte	0xc1
 268 00b4 09       		.uleb128 0x9
 269 00b5 58000000 		.4byte	.LASF13
 270 00b9 00       		.byte	0
 271 00ba 09       		.uleb128 0x9
 272 00bb BE000000 		.4byte	.LASF14
 273 00bf 01       		.byte	0x1
 274 00c0 00       		.byte	0
 275 00c1 0A       		.uleb128 0xa
 276 00c2 3D000000 		.4byte	.LASF15
 277 00c6 06       		.byte	0x6
 278 00c7 0902     		.2byte	0x209
 279 00c9 A6000000 		.4byte	0xa6
 280 00cd 0B       		.uleb128 0xb
 281 00ce 08       		.byte	0x8
 282 00cf 06       		.byte	0x6
 283 00d0 1403     		.2byte	0x314
 284 00d2 F4000000 		.4byte	0xf4
 285 00d6 0C       		.uleb128 0xc
 286 00d7 1A020000 		.4byte	.LASF16
 287 00db 06       		.byte	0x6
 288 00dc 1603     		.2byte	0x316
 289 00de 86000000 		.4byte	0x86
 290 00e2 02       		.byte	0x2
 291 00e3 23       		.byte	0x23
 292 00e4 00       		.uleb128 0
 293 00e5 0D       		.uleb128 0xd
 294 00e6 435200   		.ascii	"CR\000"
 295 00e9 06       		.byte	0x6
 296 00ea 1703     		.2byte	0x317
 297 00ec 86000000 		.4byte	0x86
 298 00f0 02       		.byte	0x2
 299 00f1 23       		.byte	0x23
 300 00f2 04       		.uleb128 0x4
 301 00f3 00       		.byte	0
 302 00f4 0A       		.uleb128 0xa
 303 00f5 2E000000 		.4byte	.LASF17
 304 00f9 06       		.byte	0x6
 305 00fa 1803     		.2byte	0x318
 306 00fc CD000000 		.4byte	0xcd
 307 0100 0E       		.uleb128 0xe
ARM GAS  G:\Users\Jaxb\AppData\Local\Temp\cc88D6Yx.s 			page 9


 308 0101 01       		.byte	0x1
 309 0102 60000000 		.4byte	.LASF25
 310 0106 01       		.byte	0x1
 311 0107 86       		.byte	0x86
 312 0108 01       		.byte	0x1
 313 0109 30000000 		.4byte	.LFB31
 314 010d 6C000000 		.4byte	.LFE31
 315 0111 00000000 		.4byte	.LLST2
 316 0115 01       		.byte	0x1
 317 0116 37010000 		.4byte	0x137
 318 011a 0F       		.uleb128 0xf
 319 011b C8010000 		.4byte	.LASF18
 320 011f 01       		.byte	0x1
 321 0120 86       		.byte	0x86
 322 0121 7B000000 		.4byte	0x7b
 323 0125 02       		.byte	0x2
 324 0126 91       		.byte	0x91
 325 0127 74       		.sleb128 -12
 326 0128 0F       		.uleb128 0xf
 327 0129 97000000 		.4byte	.LASF19
 328 012d 01       		.byte	0x1
 329 012e 86       		.byte	0x86
 330 012f C1000000 		.4byte	0xc1
 331 0133 02       		.byte	0x2
 332 0134 91       		.byte	0x91
 333 0135 73       		.sleb128 -13
 334 0136 00       		.byte	0
 335 0137 10       		.uleb128 0x10
 336 0138 01       		.byte	0x1
 337 0139 21020000 		.4byte	.LASF20
 338 013d 01       		.byte	0x1
 339 013e 5E       		.byte	0x5e
 340 013f 01       		.byte	0x1
 341 0140 7B000000 		.4byte	0x7b
 342 0144 18000000 		.4byte	.LFB30
 343 0148 30000000 		.4byte	.LFE30
 344 014c 5C000000 		.4byte	.LLST1
 345 0150 01       		.byte	0x1
 346 0151 10       		.uleb128 0x10
 347 0152 01       		.byte	0x1
 348 0153 A0000000 		.4byte	.LASF21
 349 0157 01       		.byte	0x1
 350 0158 54       		.byte	0x54
 351 0159 01       		.byte	0x1
 352 015a 7B000000 		.4byte	0x7b
 353 015e 00000000 		.4byte	.LFB29
 354 0162 18000000 		.4byte	.LFE29
 355 0166 A0000000 		.4byte	.LLST0
 356 016a 01       		.byte	0x1
 357 016b 00       		.byte	0
 358              		.section	.debug_abbrev,"",%progbits
 359              	.Ldebug_abbrev0:
 360 0000 01       		.uleb128 0x1
 361 0001 11       		.uleb128 0x11
 362 0002 01       		.byte	0x1
 363 0003 25       		.uleb128 0x25
 364 0004 0E       		.uleb128 0xe
ARM GAS  G:\Users\Jaxb\AppData\Local\Temp\cc88D6Yx.s 			page 10


 365 0005 13       		.uleb128 0x13
 366 0006 0B       		.uleb128 0xb
 367 0007 03       		.uleb128 0x3
 368 0008 0E       		.uleb128 0xe
 369 0009 1B       		.uleb128 0x1b
 370 000a 0E       		.uleb128 0xe
 371 000b 11       		.uleb128 0x11
 372 000c 01       		.uleb128 0x1
 373 000d 12       		.uleb128 0x12
 374 000e 01       		.uleb128 0x1
 375 000f 10       		.uleb128 0x10
 376 0010 06       		.uleb128 0x6
 377 0011 00       		.byte	0
 378 0012 00       		.byte	0
 379 0013 02       		.uleb128 0x2
 380 0014 24       		.uleb128 0x24
 381 0015 00       		.byte	0
 382 0016 0B       		.uleb128 0xb
 383 0017 0B       		.uleb128 0xb
 384 0018 3E       		.uleb128 0x3e
 385 0019 0B       		.uleb128 0xb
 386 001a 03       		.uleb128 0x3
 387 001b 0E       		.uleb128 0xe
 388 001c 00       		.byte	0
 389 001d 00       		.byte	0
 390 001e 03       		.uleb128 0x3
 391 001f 16       		.uleb128 0x16
 392 0020 00       		.byte	0
 393 0021 03       		.uleb128 0x3
 394 0022 0E       		.uleb128 0xe
 395 0023 3A       		.uleb128 0x3a
 396 0024 0B       		.uleb128 0xb
 397 0025 3B       		.uleb128 0x3b
 398 0026 0B       		.uleb128 0xb
 399 0027 49       		.uleb128 0x49
 400 0028 13       		.uleb128 0x13
 401 0029 00       		.byte	0
 402 002a 00       		.byte	0
 403 002b 04       		.uleb128 0x4
 404 002c 24       		.uleb128 0x24
 405 002d 00       		.byte	0
 406 002e 0B       		.uleb128 0xb
 407 002f 0B       		.uleb128 0xb
 408 0030 3E       		.uleb128 0x3e
 409 0031 0B       		.uleb128 0xb
 410 0032 03       		.uleb128 0x3
 411 0033 08       		.uleb128 0x8
 412 0034 00       		.byte	0
 413 0035 00       		.byte	0
 414 0036 05       		.uleb128 0x5
 415 0037 35       		.uleb128 0x35
 416 0038 00       		.byte	0
 417 0039 49       		.uleb128 0x49
 418 003a 13       		.uleb128 0x13
 419 003b 00       		.byte	0
 420 003c 00       		.byte	0
 421 003d 06       		.uleb128 0x6
ARM GAS  G:\Users\Jaxb\AppData\Local\Temp\cc88D6Yx.s 			page 11


 422 003e 34       		.uleb128 0x34
 423 003f 00       		.byte	0
 424 0040 03       		.uleb128 0x3
 425 0041 0E       		.uleb128 0xe
 426 0042 3A       		.uleb128 0x3a
 427 0043 0B       		.uleb128 0xb
 428 0044 3B       		.uleb128 0x3b
 429 0045 05       		.uleb128 0x5
 430 0046 49       		.uleb128 0x49
 431 0047 13       		.uleb128 0x13
 432 0048 3F       		.uleb128 0x3f
 433 0049 0C       		.uleb128 0xc
 434 004a 3C       		.uleb128 0x3c
 435 004b 0C       		.uleb128 0xc
 436 004c 00       		.byte	0
 437 004d 00       		.byte	0
 438 004e 07       		.uleb128 0x7
 439 004f 34       		.uleb128 0x34
 440 0050 00       		.byte	0
 441 0051 03       		.uleb128 0x3
 442 0052 0E       		.uleb128 0xe
 443 0053 3A       		.uleb128 0x3a
 444 0054 0B       		.uleb128 0xb
 445 0055 3B       		.uleb128 0x3b
 446 0056 0B       		.uleb128 0xb
 447 0057 49       		.uleb128 0x49
 448 0058 13       		.uleb128 0x13
 449 0059 3F       		.uleb128 0x3f
 450 005a 0C       		.uleb128 0xc
 451 005b 3C       		.uleb128 0x3c
 452 005c 0C       		.uleb128 0xc
 453 005d 00       		.byte	0
 454 005e 00       		.byte	0
 455 005f 08       		.uleb128 0x8
 456 0060 04       		.uleb128 0x4
 457 0061 01       		.byte	0x1
 458 0062 3E       		.uleb128 0x3e
 459 0063 0B       		.uleb128 0xb
 460 0064 0B       		.uleb128 0xb
 461 0065 0B       		.uleb128 0xb
 462 0066 49       		.uleb128 0x49
 463 0067 13       		.uleb128 0x13
 464 0068 3A       		.uleb128 0x3a
 465 0069 0B       		.uleb128 0xb
 466 006a 3B       		.uleb128 0x3b
 467 006b 05       		.uleb128 0x5
 468 006c 01       		.uleb128 0x1
 469 006d 13       		.uleb128 0x13
 470 006e 00       		.byte	0
 471 006f 00       		.byte	0
 472 0070 09       		.uleb128 0x9
 473 0071 28       		.uleb128 0x28
 474 0072 00       		.byte	0
 475 0073 03       		.uleb128 0x3
 476 0074 0E       		.uleb128 0xe
 477 0075 1C       		.uleb128 0x1c
 478 0076 0B       		.uleb128 0xb
ARM GAS  G:\Users\Jaxb\AppData\Local\Temp\cc88D6Yx.s 			page 12


 479 0077 00       		.byte	0
 480 0078 00       		.byte	0
 481 0079 0A       		.uleb128 0xa
 482 007a 16       		.uleb128 0x16
 483 007b 00       		.byte	0
 484 007c 03       		.uleb128 0x3
 485 007d 0E       		.uleb128 0xe
 486 007e 3A       		.uleb128 0x3a
 487 007f 0B       		.uleb128 0xb
 488 0080 3B       		.uleb128 0x3b
 489 0081 05       		.uleb128 0x5
 490 0082 49       		.uleb128 0x49
 491 0083 13       		.uleb128 0x13
 492 0084 00       		.byte	0
 493 0085 00       		.byte	0
 494 0086 0B       		.uleb128 0xb
 495 0087 13       		.uleb128 0x13
 496 0088 01       		.byte	0x1
 497 0089 0B       		.uleb128 0xb
 498 008a 0B       		.uleb128 0xb
 499 008b 3A       		.uleb128 0x3a
 500 008c 0B       		.uleb128 0xb
 501 008d 3B       		.uleb128 0x3b
 502 008e 05       		.uleb128 0x5
 503 008f 01       		.uleb128 0x1
 504 0090 13       		.uleb128 0x13
 505 0091 00       		.byte	0
 506 0092 00       		.byte	0
 507 0093 0C       		.uleb128 0xc
 508 0094 0D       		.uleb128 0xd
 509 0095 00       		.byte	0
 510 0096 03       		.uleb128 0x3
 511 0097 0E       		.uleb128 0xe
 512 0098 3A       		.uleb128 0x3a
 513 0099 0B       		.uleb128 0xb
 514 009a 3B       		.uleb128 0x3b
 515 009b 05       		.uleb128 0x5
 516 009c 49       		.uleb128 0x49
 517 009d 13       		.uleb128 0x13
 518 009e 38       		.uleb128 0x38
 519 009f 0A       		.uleb128 0xa
 520 00a0 00       		.byte	0
 521 00a1 00       		.byte	0
 522 00a2 0D       		.uleb128 0xd
 523 00a3 0D       		.uleb128 0xd
 524 00a4 00       		.byte	0
 525 00a5 03       		.uleb128 0x3
 526 00a6 08       		.uleb128 0x8
 527 00a7 3A       		.uleb128 0x3a
 528 00a8 0B       		.uleb128 0xb
 529 00a9 3B       		.uleb128 0x3b
 530 00aa 05       		.uleb128 0x5
 531 00ab 49       		.uleb128 0x49
 532 00ac 13       		.uleb128 0x13
 533 00ad 38       		.uleb128 0x38
 534 00ae 0A       		.uleb128 0xa
 535 00af 00       		.byte	0
ARM GAS  G:\Users\Jaxb\AppData\Local\Temp\cc88D6Yx.s 			page 13


 536 00b0 00       		.byte	0
 537 00b1 0E       		.uleb128 0xe
 538 00b2 2E       		.uleb128 0x2e
 539 00b3 01       		.byte	0x1
 540 00b4 3F       		.uleb128 0x3f
 541 00b5 0C       		.uleb128 0xc
 542 00b6 03       		.uleb128 0x3
 543 00b7 0E       		.uleb128 0xe
 544 00b8 3A       		.uleb128 0x3a
 545 00b9 0B       		.uleb128 0xb
 546 00ba 3B       		.uleb128 0x3b
 547 00bb 0B       		.uleb128 0xb
 548 00bc 27       		.uleb128 0x27
 549 00bd 0C       		.uleb128 0xc
 550 00be 11       		.uleb128 0x11
 551 00bf 01       		.uleb128 0x1
 552 00c0 12       		.uleb128 0x12
 553 00c1 01       		.uleb128 0x1
 554 00c2 40       		.uleb128 0x40
 555 00c3 06       		.uleb128 0x6
 556 00c4 9742     		.uleb128 0x2117
 557 00c6 0C       		.uleb128 0xc
 558 00c7 01       		.uleb128 0x1
 559 00c8 13       		.uleb128 0x13
 560 00c9 00       		.byte	0
 561 00ca 00       		.byte	0
 562 00cb 0F       		.uleb128 0xf
 563 00cc 05       		.uleb128 0x5
 564 00cd 00       		.byte	0
 565 00ce 03       		.uleb128 0x3
 566 00cf 0E       		.uleb128 0xe
 567 00d0 3A       		.uleb128 0x3a
 568 00d1 0B       		.uleb128 0xb
 569 00d2 3B       		.uleb128 0x3b
 570 00d3 0B       		.uleb128 0xb
 571 00d4 49       		.uleb128 0x49
 572 00d5 13       		.uleb128 0x13
 573 00d6 02       		.uleb128 0x2
 574 00d7 0A       		.uleb128 0xa
 575 00d8 00       		.byte	0
 576 00d9 00       		.byte	0
 577 00da 10       		.uleb128 0x10
 578 00db 2E       		.uleb128 0x2e
 579 00dc 00       		.byte	0
 580 00dd 3F       		.uleb128 0x3f
 581 00de 0C       		.uleb128 0xc
 582 00df 03       		.uleb128 0x3
 583 00e0 0E       		.uleb128 0xe
 584 00e1 3A       		.uleb128 0x3a
 585 00e2 0B       		.uleb128 0xb
 586 00e3 3B       		.uleb128 0x3b
 587 00e4 0B       		.uleb128 0xb
 588 00e5 27       		.uleb128 0x27
 589 00e6 0C       		.uleb128 0xc
 590 00e7 49       		.uleb128 0x49
 591 00e8 13       		.uleb128 0x13
 592 00e9 11       		.uleb128 0x11
ARM GAS  G:\Users\Jaxb\AppData\Local\Temp\cc88D6Yx.s 			page 14


 593 00ea 01       		.uleb128 0x1
 594 00eb 12       		.uleb128 0x12
 595 00ec 01       		.uleb128 0x1
 596 00ed 40       		.uleb128 0x40
 597 00ee 06       		.uleb128 0x6
 598 00ef 9742     		.uleb128 0x2117
 599 00f1 0C       		.uleb128 0xc
 600 00f2 00       		.byte	0
 601 00f3 00       		.byte	0
 602 00f4 00       		.byte	0
 603              		.section	.debug_loc,"",%progbits
 604              	.Ldebug_loc0:
 605              	.LLST2:
 606 0000 30000000 		.4byte	.LFB31-.Ltext0
 607 0004 32000000 		.4byte	.LCFI8-.Ltext0
 608 0008 0200     		.2byte	0x2
 609 000a 7D       		.byte	0x7d
 610 000b 00       		.sleb128 0
 611 000c 32000000 		.4byte	.LCFI8-.Ltext0
 612 0010 34000000 		.4byte	.LCFI9-.Ltext0
 613 0014 0200     		.2byte	0x2
 614 0016 7D       		.byte	0x7d
 615 0017 04       		.sleb128 4
 616 0018 34000000 		.4byte	.LCFI9-.Ltext0
 617 001c 36000000 		.4byte	.LCFI10-.Ltext0
 618 0020 0200     		.2byte	0x2
 619 0022 7D       		.byte	0x7d
 620 0023 10       		.sleb128 16
 621 0024 36000000 		.4byte	.LCFI10-.Ltext0
 622 0028 62000000 		.4byte	.LCFI11-.Ltext0
 623 002c 0200     		.2byte	0x2
 624 002e 77       		.byte	0x77
 625 002f 10       		.sleb128 16
 626 0030 62000000 		.4byte	.LCFI11-.Ltext0
 627 0034 64000000 		.4byte	.LCFI12-.Ltext0
 628 0038 0200     		.2byte	0x2
 629 003a 77       		.byte	0x77
 630 003b 04       		.sleb128 4
 631 003c 64000000 		.4byte	.LCFI12-.Ltext0
 632 0040 66000000 		.4byte	.LCFI13-.Ltext0
 633 0044 0200     		.2byte	0x2
 634 0046 7D       		.byte	0x7d
 635 0047 04       		.sleb128 4
 636 0048 66000000 		.4byte	.LCFI13-.Ltext0
 637 004c 6C000000 		.4byte	.LFE31-.Ltext0
 638 0050 0200     		.2byte	0x2
 639 0052 7D       		.byte	0x7d
 640 0053 00       		.sleb128 0
 641 0054 00000000 		.4byte	0
 642 0058 00000000 		.4byte	0
 643              	.LLST1:
 644 005c 18000000 		.4byte	.LFB30-.Ltext0
 645 0060 1A000000 		.4byte	.LCFI4-.Ltext0
 646 0064 0200     		.2byte	0x2
 647 0066 7D       		.byte	0x7d
 648 0067 00       		.sleb128 0
 649 0068 1A000000 		.4byte	.LCFI4-.Ltext0
ARM GAS  G:\Users\Jaxb\AppData\Local\Temp\cc88D6Yx.s 			page 15


 650 006c 1C000000 		.4byte	.LCFI5-.Ltext0
 651 0070 0200     		.2byte	0x2
 652 0072 7D       		.byte	0x7d
 653 0073 04       		.sleb128 4
 654 0074 1C000000 		.4byte	.LCFI5-.Ltext0
 655 0078 28000000 		.4byte	.LCFI6-.Ltext0
 656 007c 0200     		.2byte	0x2
 657 007e 77       		.byte	0x77
 658 007f 04       		.sleb128 4
 659 0080 28000000 		.4byte	.LCFI6-.Ltext0
 660 0084 2A000000 		.4byte	.LCFI7-.Ltext0
 661 0088 0200     		.2byte	0x2
 662 008a 7D       		.byte	0x7d
 663 008b 04       		.sleb128 4
 664 008c 2A000000 		.4byte	.LCFI7-.Ltext0
 665 0090 30000000 		.4byte	.LFE30-.Ltext0
 666 0094 0200     		.2byte	0x2
 667 0096 7D       		.byte	0x7d
 668 0097 00       		.sleb128 0
 669 0098 00000000 		.4byte	0
 670 009c 00000000 		.4byte	0
 671              	.LLST0:
 672 00a0 00000000 		.4byte	.LFB29-.Ltext0
 673 00a4 02000000 		.4byte	.LCFI0-.Ltext0
 674 00a8 0200     		.2byte	0x2
 675 00aa 7D       		.byte	0x7d
 676 00ab 00       		.sleb128 0
 677 00ac 02000000 		.4byte	.LCFI0-.Ltext0
 678 00b0 04000000 		.4byte	.LCFI1-.Ltext0
 679 00b4 0200     		.2byte	0x2
 680 00b6 7D       		.byte	0x7d
 681 00b7 04       		.sleb128 4
 682 00b8 04000000 		.4byte	.LCFI1-.Ltext0
 683 00bc 0E000000 		.4byte	.LCFI2-.Ltext0
 684 00c0 0200     		.2byte	0x2
 685 00c2 77       		.byte	0x77
 686 00c3 04       		.sleb128 4
 687 00c4 0E000000 		.4byte	.LCFI2-.Ltext0
 688 00c8 10000000 		.4byte	.LCFI3-.Ltext0
 689 00cc 0200     		.2byte	0x2
 690 00ce 7D       		.byte	0x7d
 691 00cf 04       		.sleb128 4
 692 00d0 10000000 		.4byte	.LCFI3-.Ltext0
 693 00d4 18000000 		.4byte	.LFE29-.Ltext0
 694 00d8 0200     		.2byte	0x2
 695 00da 7D       		.byte	0x7d
 696 00db 00       		.sleb128 0
 697 00dc 00000000 		.4byte	0
 698 00e0 00000000 		.4byte	0
 699              		.section	.debug_aranges,"",%progbits
 700 0000 1C000000 		.4byte	0x1c
 701 0004 0200     		.2byte	0x2
 702 0006 00000000 		.4byte	.Ldebug_info0
 703 000a 04       		.byte	0x4
 704 000b 00       		.byte	0
 705 000c 0000     		.2byte	0
 706 000e 0000     		.2byte	0
ARM GAS  G:\Users\Jaxb\AppData\Local\Temp\cc88D6Yx.s 			page 16


 707 0010 00000000 		.4byte	.Ltext0
 708 0014 6C000000 		.4byte	.Letext0-.Ltext0
 709 0018 00000000 		.4byte	0
 710 001c 00000000 		.4byte	0
 711              		.section	.debug_line,"",%progbits
 712              	.Ldebug_line0:
 713 0000 2D010000 		.section	.debug_str,"MS",%progbits,1
 713      02000A01 
 713      00000201 
 713      FB0E0D00 
 713      01010101 
 714              	.LASF6:
 715 0000 6C6F6E67 		.ascii	"long long int\000"
 715      206C6F6E 
 715      6720696E 
 715      7400
 716              	.LASF3:
 717 000e 73686F72 		.ascii	"short unsigned int\000"
 717      7420756E 
 717      7369676E 
 717      65642069 
 717      6E7400
 718              	.LASF8:
 719 0021 756E7369 		.ascii	"unsigned int\000"
 719      676E6564 
 719      20696E74 
 719      00
 720              	.LASF17:
 721 002e 4442474D 		.ascii	"DBGMCU_TypeDef\000"
 721      43555F54 
 721      79706544 
 721      656600
 722              	.LASF15:
 723 003d 46756E63 		.ascii	"FunctionalState\000"
 723      74696F6E 
 723      616C5374 
 723      61746500 
 724              	.LASF9:
 725 004d 5F5F7569 		.ascii	"__uint32_t\000"
 725      6E743332 
 725      5F7400
 726              	.LASF13:
 727 0058 44495341 		.ascii	"DISABLE\000"
 727      424C4500 
 728              	.LASF25:
 729 0060 4442474D 		.ascii	"DBGMCU_Config\000"
 729      43555F43 
 729      6F6E6669 
 729      6700
 730              	.LASF5:
 731 006e 6C6F6E67 		.ascii	"long unsigned int\000"
 731      20756E73 
 731      69676E65 
 731      6420696E 
 731      7400
 732              	.LASF7:
 733 0080 6C6F6E67 		.ascii	"long long unsigned int\000"
ARM GAS  G:\Users\Jaxb\AppData\Local\Temp\cc88D6Yx.s 			page 17


 733      206C6F6E 
 733      6720756E 
 733      7369676E 
 733      65642069 
 734              	.LASF19:
 735 0097 4E657753 		.ascii	"NewState\000"
 735      74617465 
 735      00
 736              	.LASF21:
 737 00a0 4442474D 		.ascii	"DBGMCU_GetREVID\000"
 737      43555F47 
 737      65745245 
 737      56494400 
 738              	.LASF1:
 739 00b0 756E7369 		.ascii	"unsigned char\000"
 739      676E6564 
 739      20636861 
 739      7200
 740              	.LASF14:
 741 00be 454E4142 		.ascii	"ENABLE\000"
 741      4C4500
 742              	.LASF10:
 743 00c5 75696E74 		.ascii	"uint32_t\000"
 743      33325F74 
 743      00
 744              	.LASF12:
 745 00ce 53797374 		.ascii	"SystemCoreClock\000"
 745      656D436F 
 745      7265436C 
 745      6F636B00 
 746              	.LASF24:
 747 00de 463A5C6B 		.ascii	"F:\\kaka\\KAKAOS\\C\\windows\\Project\\RVMDK\243\250"
 747      616B615C 
 747      4B414B41 
 747      4F535C43 
 747      5C77696E 
 748 0106 757635A3 		.ascii	"uv5\243\251\000"
 748      A900
 749              	.LASF4:
 750 010c 6C6F6E67 		.ascii	"long int\000"
 750      20696E74 
 750      00
 751              	.LASF11:
 752 0115 49544D5F 		.ascii	"ITM_RxBuffer\000"
 752      52784275 
 752      66666572 
 752      00
 753              	.LASF22:
 754 0122 474E5520 		.ascii	"GNU C11 7.3.1 20180622 (release) [ARM/embedded-7-br"
 754      43313120 
 754      372E332E 
 754      31203230 
 754      31383036 
 755 0155 616E6368 		.ascii	"anch revision 261907] -mcpu=cortex-m3 -mthumb -mapc"
 755      20726576 
 755      6973696F 
 755      6E203236 
ARM GAS  G:\Users\Jaxb\AppData\Local\Temp\cc88D6Yx.s 			page 18


 755      31393037 
 756 0188 732D6672 		.ascii	"s-frame -mthumb-interwork -mcpu=cortex-m3 -mthumb -"
 756      616D6520 
 756      2D6D7468 
 756      756D622D 
 756      696E7465 
 757 01bb 67647761 		.ascii	"gdwarf-2 -O0\000"
 757      72662D32 
 757      202D4F30 
 757      00
 758              	.LASF18:
 759 01c8 4442474D 		.ascii	"DBGMCU_Periph\000"
 759      43555F50 
 759      65726970 
 759      6800
 760              	.LASF2:
 761 01d6 73686F72 		.ascii	"short int\000"
 761      7420696E 
 761      7400
 762              	.LASF23:
 763 01e0 2E2E2F2E 		.ascii	"../../source/src/FWlib/src/stm32f10x_dbgmcu.c\000"
 763      2E2F736F 
 763      75726365 
 763      2F737263 
 763      2F46576C 
 764              	.LASF0:
 765 020e 7369676E 		.ascii	"signed char\000"
 765      65642063 
 765      68617200 
 766              	.LASF16:
 767 021a 4944434F 		.ascii	"IDCODE\000"
 767      444500
 768              	.LASF20:
 769 0221 4442474D 		.ascii	"DBGMCU_GetDEVID\000"
 769      43555F47 
 769      65744445 
 769      56494400 
 770              		.ident	"GCC: (GNU Tools for Arm Embedded Processors 7-2018-q2-update) 7.3.1 20180622 (release) [AR
ARM GAS  G:\Users\Jaxb\AppData\Local\Temp\cc88D6Yx.s 			page 19


DEFINED SYMBOLS
                            *ABS*:00000000 stm32f10x_dbgmcu.c
G:\Users\Jaxb\AppData\Local\Temp\cc88D6Yx.s:15     .text:00000000 $t
G:\Users\Jaxb\AppData\Local\Temp\cc88D6Yx.s:22     .text:00000000 DBGMCU_GetREVID
G:\Users\Jaxb\AppData\Local\Temp\cc88D6Yx.s:55     .text:00000014 $d
G:\Users\Jaxb\AppData\Local\Temp\cc88D6Yx.s:59     .text:00000018 $t
G:\Users\Jaxb\AppData\Local\Temp\cc88D6Yx.s:66     .text:00000018 DBGMCU_GetDEVID
G:\Users\Jaxb\AppData\Local\Temp\cc88D6Yx.s:98     .text:0000002c $d
G:\Users\Jaxb\AppData\Local\Temp\cc88D6Yx.s:102    .text:00000030 $t
G:\Users\Jaxb\AppData\Local\Temp\cc88D6Yx.s:109    .text:00000030 DBGMCU_Config
G:\Users\Jaxb\AppData\Local\Temp\cc88D6Yx.s:169    .text:00000068 $d

NO UNDEFINED SYMBOLS
