ARM GAS  G:\Users\Jaxb\AppData\Local\Temp\ccck4Nii.s 			page 1


   1              		.cpu cortex-m3
   2              		.eabi_attribute 20, 1
   3              		.eabi_attribute 21, 1
   4              		.eabi_attribute 23, 3
   5              		.eabi_attribute 24, 1
   6              		.eabi_attribute 25, 1
   7              		.eabi_attribute 26, 1
   8              		.eabi_attribute 30, 2
   9              		.eabi_attribute 34, 1
  10              		.eabi_attribute 18, 4
  11              		.file	"stm32f10x_flash.c"
  12              		.text
  13              	.Ltext0:
  14              		.cfi_sections	.debug_frame
  15              		.align	1
  16              		.p2align 2,,3
  17              		.global	FLASH_SetLatency
  18              		.syntax unified
  19              		.thumb
  20              		.thumb_func
  21              		.fpu softvfp
  22              		.type	FLASH_SetLatency, %function
  23              	FLASH_SetLatency:
  24              	.LFB29:
  25              		.file 1 "../../source/src/FWlib/src/stm32f10x_flash.c"
   1:../../source/src/FWlib/src/stm32f10x_flash.c **** /**
   2:../../source/src/FWlib/src/stm32f10x_flash.c ****   ******************************************************************************
   3:../../source/src/FWlib/src/stm32f10x_flash.c ****   * @file    stm32f10x_flash.c
   4:../../source/src/FWlib/src/stm32f10x_flash.c ****   * @author  MCD Application Team
   5:../../source/src/FWlib/src/stm32f10x_flash.c ****   * @version V3.5.0
   6:../../source/src/FWlib/src/stm32f10x_flash.c ****   * @date    11-March-2011
   7:../../source/src/FWlib/src/stm32f10x_flash.c ****   * @brief   This file provides all the FLASH firmware functions.
   8:../../source/src/FWlib/src/stm32f10x_flash.c ****   ******************************************************************************
   9:../../source/src/FWlib/src/stm32f10x_flash.c ****   * @attention
  10:../../source/src/FWlib/src/stm32f10x_flash.c ****   *
  11:../../source/src/FWlib/src/stm32f10x_flash.c ****   * THE PRESENT FIRMWARE WHICH IS FOR GUIDANCE ONLY AIMS AT PROVIDING CUSTOMERS
  12:../../source/src/FWlib/src/stm32f10x_flash.c ****   * WITH CODING INFORMATION REGARDING THEIR PRODUCTS IN ORDER FOR THEM TO SAVE
  13:../../source/src/FWlib/src/stm32f10x_flash.c ****   * TIME. AS A RESULT, STMICROELECTRONICS SHALL NOT BE HELD LIABLE FOR ANY
  14:../../source/src/FWlib/src/stm32f10x_flash.c ****   * DIRECT, INDIRECT OR CONSEQUENTIAL DAMAGES WITH RESPECT TO ANY CLAIMS ARISING
  15:../../source/src/FWlib/src/stm32f10x_flash.c ****   * FROM THE CONTENT OF SUCH FIRMWARE AND/OR THE USE MADE BY CUSTOMERS OF THE
  16:../../source/src/FWlib/src/stm32f10x_flash.c ****   * CODING INFORMATION CONTAINED HEREIN IN CONNECTION WITH THEIR PRODUCTS.
  17:../../source/src/FWlib/src/stm32f10x_flash.c ****   *
  18:../../source/src/FWlib/src/stm32f10x_flash.c ****   * <h2><center>&copy; COPYRIGHT 2011 STMicroelectronics</center></h2>
  19:../../source/src/FWlib/src/stm32f10x_flash.c ****   ******************************************************************************
  20:../../source/src/FWlib/src/stm32f10x_flash.c ****   */
  21:../../source/src/FWlib/src/stm32f10x_flash.c **** 
  22:../../source/src/FWlib/src/stm32f10x_flash.c **** /* Includes ------------------------------------------------------------------*/
  23:../../source/src/FWlib/src/stm32f10x_flash.c **** #include "stm32f10x_flash.h"
  24:../../source/src/FWlib/src/stm32f10x_flash.c **** 
  25:../../source/src/FWlib/src/stm32f10x_flash.c **** /** @addtogroup STM32F10x_StdPeriph_Driver
  26:../../source/src/FWlib/src/stm32f10x_flash.c ****   * @{
  27:../../source/src/FWlib/src/stm32f10x_flash.c ****   */
  28:../../source/src/FWlib/src/stm32f10x_flash.c **** 
  29:../../source/src/FWlib/src/stm32f10x_flash.c **** /** @defgroup FLASH 
  30:../../source/src/FWlib/src/stm32f10x_flash.c ****   * @brief FLASH driver modules
  31:../../source/src/FWlib/src/stm32f10x_flash.c ****   * @{
  32:../../source/src/FWlib/src/stm32f10x_flash.c ****   */ 
ARM GAS  G:\Users\Jaxb\AppData\Local\Temp\ccck4Nii.s 			page 2


  33:../../source/src/FWlib/src/stm32f10x_flash.c **** 
  34:../../source/src/FWlib/src/stm32f10x_flash.c **** /** @defgroup FLASH_Private_TypesDefinitions
  35:../../source/src/FWlib/src/stm32f10x_flash.c ****   * @{
  36:../../source/src/FWlib/src/stm32f10x_flash.c ****   */
  37:../../source/src/FWlib/src/stm32f10x_flash.c **** 
  38:../../source/src/FWlib/src/stm32f10x_flash.c **** /**
  39:../../source/src/FWlib/src/stm32f10x_flash.c ****   * @}
  40:../../source/src/FWlib/src/stm32f10x_flash.c ****   */ 
  41:../../source/src/FWlib/src/stm32f10x_flash.c **** 
  42:../../source/src/FWlib/src/stm32f10x_flash.c **** /** @defgroup FLASH_Private_Defines
  43:../../source/src/FWlib/src/stm32f10x_flash.c ****   * @{
  44:../../source/src/FWlib/src/stm32f10x_flash.c ****   */ 
  45:../../source/src/FWlib/src/stm32f10x_flash.c **** 
  46:../../source/src/FWlib/src/stm32f10x_flash.c **** /* Flash Access Control Register bits */
  47:../../source/src/FWlib/src/stm32f10x_flash.c **** #define ACR_LATENCY_Mask         ((uint32_t)0x00000038)
  48:../../source/src/FWlib/src/stm32f10x_flash.c **** #define ACR_HLFCYA_Mask          ((uint32_t)0xFFFFFFF7)
  49:../../source/src/FWlib/src/stm32f10x_flash.c **** #define ACR_PRFTBE_Mask          ((uint32_t)0xFFFFFFEF)
  50:../../source/src/FWlib/src/stm32f10x_flash.c **** 
  51:../../source/src/FWlib/src/stm32f10x_flash.c **** /* Flash Access Control Register bits */
  52:../../source/src/FWlib/src/stm32f10x_flash.c **** #define ACR_PRFTBS_Mask          ((uint32_t)0x00000020) 
  53:../../source/src/FWlib/src/stm32f10x_flash.c **** 
  54:../../source/src/FWlib/src/stm32f10x_flash.c **** /* Flash Control Register bits */
  55:../../source/src/FWlib/src/stm32f10x_flash.c **** #define CR_PG_Set                ((uint32_t)0x00000001)
  56:../../source/src/FWlib/src/stm32f10x_flash.c **** #define CR_PG_Reset              ((uint32_t)0x00001FFE) 
  57:../../source/src/FWlib/src/stm32f10x_flash.c **** #define CR_PER_Set               ((uint32_t)0x00000002)
  58:../../source/src/FWlib/src/stm32f10x_flash.c **** #define CR_PER_Reset             ((uint32_t)0x00001FFD)
  59:../../source/src/FWlib/src/stm32f10x_flash.c **** #define CR_MER_Set               ((uint32_t)0x00000004)
  60:../../source/src/FWlib/src/stm32f10x_flash.c **** #define CR_MER_Reset             ((uint32_t)0x00001FFB)
  61:../../source/src/FWlib/src/stm32f10x_flash.c **** #define CR_OPTPG_Set             ((uint32_t)0x00000010)
  62:../../source/src/FWlib/src/stm32f10x_flash.c **** #define CR_OPTPG_Reset           ((uint32_t)0x00001FEF)
  63:../../source/src/FWlib/src/stm32f10x_flash.c **** #define CR_OPTER_Set             ((uint32_t)0x00000020)
  64:../../source/src/FWlib/src/stm32f10x_flash.c **** #define CR_OPTER_Reset           ((uint32_t)0x00001FDF)
  65:../../source/src/FWlib/src/stm32f10x_flash.c **** #define CR_STRT_Set              ((uint32_t)0x00000040)
  66:../../source/src/FWlib/src/stm32f10x_flash.c **** #define CR_LOCK_Set              ((uint32_t)0x00000080)
  67:../../source/src/FWlib/src/stm32f10x_flash.c **** 
  68:../../source/src/FWlib/src/stm32f10x_flash.c **** /* FLASH Mask */
  69:../../source/src/FWlib/src/stm32f10x_flash.c **** #define RDPRT_Mask               ((uint32_t)0x00000002)
  70:../../source/src/FWlib/src/stm32f10x_flash.c **** #define WRP0_Mask                ((uint32_t)0x000000FF)
  71:../../source/src/FWlib/src/stm32f10x_flash.c **** #define WRP1_Mask                ((uint32_t)0x0000FF00)
  72:../../source/src/FWlib/src/stm32f10x_flash.c **** #define WRP2_Mask                ((uint32_t)0x00FF0000)
  73:../../source/src/FWlib/src/stm32f10x_flash.c **** #define WRP3_Mask                ((uint32_t)0xFF000000)
  74:../../source/src/FWlib/src/stm32f10x_flash.c **** #define OB_USER_BFB2             ((uint16_t)0x0008)
  75:../../source/src/FWlib/src/stm32f10x_flash.c **** 
  76:../../source/src/FWlib/src/stm32f10x_flash.c **** /* FLASH Keys */
  77:../../source/src/FWlib/src/stm32f10x_flash.c **** #define RDP_Key                  ((uint16_t)0x00A5)
  78:../../source/src/FWlib/src/stm32f10x_flash.c **** #define FLASH_KEY1               ((uint32_t)0x45670123)
  79:../../source/src/FWlib/src/stm32f10x_flash.c **** #define FLASH_KEY2               ((uint32_t)0xCDEF89AB)
  80:../../source/src/FWlib/src/stm32f10x_flash.c **** 
  81:../../source/src/FWlib/src/stm32f10x_flash.c **** /* FLASH BANK address */
  82:../../source/src/FWlib/src/stm32f10x_flash.c **** #define FLASH_BANK1_END_ADDRESS   ((uint32_t)0x807FFFF)
  83:../../source/src/FWlib/src/stm32f10x_flash.c **** 
  84:../../source/src/FWlib/src/stm32f10x_flash.c **** /* Delay definition */   
  85:../../source/src/FWlib/src/stm32f10x_flash.c **** #define EraseTimeout          ((uint32_t)0x000B0000)
  86:../../source/src/FWlib/src/stm32f10x_flash.c **** #define ProgramTimeout        ((uint32_t)0x00002000)
  87:../../source/src/FWlib/src/stm32f10x_flash.c **** /**
  88:../../source/src/FWlib/src/stm32f10x_flash.c ****   * @}
  89:../../source/src/FWlib/src/stm32f10x_flash.c ****   */ 
ARM GAS  G:\Users\Jaxb\AppData\Local\Temp\ccck4Nii.s 			page 3


  90:../../source/src/FWlib/src/stm32f10x_flash.c **** 
  91:../../source/src/FWlib/src/stm32f10x_flash.c **** /** @defgroup FLASH_Private_Macros
  92:../../source/src/FWlib/src/stm32f10x_flash.c ****   * @{
  93:../../source/src/FWlib/src/stm32f10x_flash.c ****   */
  94:../../source/src/FWlib/src/stm32f10x_flash.c **** 
  95:../../source/src/FWlib/src/stm32f10x_flash.c **** /**
  96:../../source/src/FWlib/src/stm32f10x_flash.c ****   * @}
  97:../../source/src/FWlib/src/stm32f10x_flash.c ****   */ 
  98:../../source/src/FWlib/src/stm32f10x_flash.c **** 
  99:../../source/src/FWlib/src/stm32f10x_flash.c **** /** @defgroup FLASH_Private_Variables
 100:../../source/src/FWlib/src/stm32f10x_flash.c ****   * @{
 101:../../source/src/FWlib/src/stm32f10x_flash.c ****   */
 102:../../source/src/FWlib/src/stm32f10x_flash.c **** 
 103:../../source/src/FWlib/src/stm32f10x_flash.c **** /**
 104:../../source/src/FWlib/src/stm32f10x_flash.c ****   * @}
 105:../../source/src/FWlib/src/stm32f10x_flash.c ****   */ 
 106:../../source/src/FWlib/src/stm32f10x_flash.c **** 
 107:../../source/src/FWlib/src/stm32f10x_flash.c **** /** @defgroup FLASH_Private_FunctionPrototypes
 108:../../source/src/FWlib/src/stm32f10x_flash.c ****   * @{
 109:../../source/src/FWlib/src/stm32f10x_flash.c ****   */
 110:../../source/src/FWlib/src/stm32f10x_flash.c ****   
 111:../../source/src/FWlib/src/stm32f10x_flash.c **** /**
 112:../../source/src/FWlib/src/stm32f10x_flash.c ****   * @}
 113:../../source/src/FWlib/src/stm32f10x_flash.c ****   */
 114:../../source/src/FWlib/src/stm32f10x_flash.c **** 
 115:../../source/src/FWlib/src/stm32f10x_flash.c **** /** @defgroup FLASH_Private_Functions
 116:../../source/src/FWlib/src/stm32f10x_flash.c ****   * @{
 117:../../source/src/FWlib/src/stm32f10x_flash.c ****   */
 118:../../source/src/FWlib/src/stm32f10x_flash.c **** 
 119:../../source/src/FWlib/src/stm32f10x_flash.c **** /**
 120:../../source/src/FWlib/src/stm32f10x_flash.c **** @code  
 121:../../source/src/FWlib/src/stm32f10x_flash.c ****  
 122:../../source/src/FWlib/src/stm32f10x_flash.c ****  This driver provides functions to configure and program the Flash memory of all STM32F10x devices,
 123:../../source/src/FWlib/src/stm32f10x_flash.c ****  including the latest STM32F10x_XL density devices. 
 124:../../source/src/FWlib/src/stm32f10x_flash.c **** 
 125:../../source/src/FWlib/src/stm32f10x_flash.c ****  STM32F10x_XL devices feature up to 1 Mbyte with dual bank architecture for read-while-write (RWW) 
 126:../../source/src/FWlib/src/stm32f10x_flash.c ****     - bank1: fixed size of 512 Kbytes (256 pages of 2Kbytes each)
 127:../../source/src/FWlib/src/stm32f10x_flash.c ****     - bank2: up to 512 Kbytes (up to 256 pages of 2Kbytes each)
 128:../../source/src/FWlib/src/stm32f10x_flash.c ****  While other STM32F10x devices features only one bank with memory up to 512 Kbytes.
 129:../../source/src/FWlib/src/stm32f10x_flash.c **** 
 130:../../source/src/FWlib/src/stm32f10x_flash.c ****  In version V3.3.0, some functions were updated and new ones were added to support
 131:../../source/src/FWlib/src/stm32f10x_flash.c ****  STM32F10x_XL devices. Thus some functions manages all devices, while other are 
 132:../../source/src/FWlib/src/stm32f10x_flash.c ****  dedicated for XL devices only.
 133:../../source/src/FWlib/src/stm32f10x_flash.c ****  
 134:../../source/src/FWlib/src/stm32f10x_flash.c ****  The table below presents the list of available functions depending on the used STM32F10x devices. 
 135:../../source/src/FWlib/src/stm32f10x_flash.c ****       
 136:../../source/src/FWlib/src/stm32f10x_flash.c ****    ***************************************************
 137:../../source/src/FWlib/src/stm32f10x_flash.c ****    * Legacy functions used for all STM32F10x devices *
 138:../../source/src/FWlib/src/stm32f10x_flash.c ****    ***************************************************
 139:../../source/src/FWlib/src/stm32f10x_flash.c ****    +-----------------------------------------------------------------------------------------------
 140:../../source/src/FWlib/src/stm32f10x_flash.c ****    |       Functions prototypes         |STM32F10x_XL|Other STM32F10x|    Comments                 
 141:../../source/src/FWlib/src/stm32f10x_flash.c ****    |                                    |   devices  |  devices      |                             
 142:../../source/src/FWlib/src/stm32f10x_flash.c ****    |-----------------------------------------------------------------------------------------------
 143:../../source/src/FWlib/src/stm32f10x_flash.c ****    |FLASH_SetLatency                    |    Yes     |      Yes      | No change                   
 144:../../source/src/FWlib/src/stm32f10x_flash.c ****    |-----------------------------------------------------------------------------------------------
 145:../../source/src/FWlib/src/stm32f10x_flash.c ****    |FLASH_HalfCycleAccessCmd            |    Yes     |      Yes      | No change                   
 146:../../source/src/FWlib/src/stm32f10x_flash.c ****    |-----------------------------------------------------------------------------------------------
ARM GAS  G:\Users\Jaxb\AppData\Local\Temp\ccck4Nii.s 			page 4


 147:../../source/src/FWlib/src/stm32f10x_flash.c ****    |FLASH_PrefetchBufferCmd             |    Yes     |      Yes      | No change                   
 148:../../source/src/FWlib/src/stm32f10x_flash.c ****    |-----------------------------------------------------------------------------------------------
 149:../../source/src/FWlib/src/stm32f10x_flash.c ****    |FLASH_Unlock                        |    Yes     |      Yes      | - For STM32F10X_XL devices: 
 150:../../source/src/FWlib/src/stm32f10x_flash.c ****    |                                    |            |               | - For other devices: unlock 
 151:../../source/src/FWlib/src/stm32f10x_flash.c ****    |                                    |            |               |   to FLASH_UnlockBank1 funct
 152:../../source/src/FWlib/src/stm32f10x_flash.c ****    |-----------------------------------------------------------------------------------------------
 153:../../source/src/FWlib/src/stm32f10x_flash.c ****    |FLASH_Lock                          |    Yes     |      Yes      | - For STM32F10X_XL devices: 
 154:../../source/src/FWlib/src/stm32f10x_flash.c ****    |                                    |            |               | - For other devices: lock Ba
 155:../../source/src/FWlib/src/stm32f10x_flash.c ****    |                                    |            |               |   to FLASH_LockBank1 functio
 156:../../source/src/FWlib/src/stm32f10x_flash.c ****    |-----------------------------------------------------------------------------------------------
 157:../../source/src/FWlib/src/stm32f10x_flash.c ****    |FLASH_ErasePage                     |    Yes     |      Yes      | - For STM32F10x_XL devices: 
 158:../../source/src/FWlib/src/stm32f10x_flash.c ****    |                                    |            |               | - For other devices: erase a
 159:../../source/src/FWlib/src/stm32f10x_flash.c ****    |-----------------------------------------------------------------------------------------------
 160:../../source/src/FWlib/src/stm32f10x_flash.c ****    |FLASH_EraseAllPages                 |    Yes     |      Yes      | - For STM32F10x_XL devices: 
 161:../../source/src/FWlib/src/stm32f10x_flash.c ****    |                                    |            |               | - For other devices: erase a
 162:../../source/src/FWlib/src/stm32f10x_flash.c ****    |-----------------------------------------------------------------------------------------------
 163:../../source/src/FWlib/src/stm32f10x_flash.c ****    |FLASH_EraseOptionBytes              |    Yes     |      Yes      | No change                   
 164:../../source/src/FWlib/src/stm32f10x_flash.c ****    |-----------------------------------------------------------------------------------------------
 165:../../source/src/FWlib/src/stm32f10x_flash.c ****    |FLASH_ProgramWord                   |    Yes     |      Yes      | Updated to program up to 1MB
 166:../../source/src/FWlib/src/stm32f10x_flash.c ****    |-----------------------------------------------------------------------------------------------
 167:../../source/src/FWlib/src/stm32f10x_flash.c ****    |FLASH_ProgramHalfWord               |    Yes     |      Yes      | Updated to program up to 1MB
 168:../../source/src/FWlib/src/stm32f10x_flash.c ****    |-----------------------------------------------------------------------------------------------
 169:../../source/src/FWlib/src/stm32f10x_flash.c ****    |FLASH_ProgramOptionByteData         |    Yes     |      Yes      | No change                   
 170:../../source/src/FWlib/src/stm32f10x_flash.c ****    |-----------------------------------------------------------------------------------------------
 171:../../source/src/FWlib/src/stm32f10x_flash.c ****    |FLASH_EnableWriteProtection         |    Yes     |      Yes      | No change                   
 172:../../source/src/FWlib/src/stm32f10x_flash.c ****    |-----------------------------------------------------------------------------------------------
 173:../../source/src/FWlib/src/stm32f10x_flash.c ****    |FLASH_ReadOutProtection             |    Yes     |      Yes      | No change                   
 174:../../source/src/FWlib/src/stm32f10x_flash.c ****    |-----------------------------------------------------------------------------------------------
 175:../../source/src/FWlib/src/stm32f10x_flash.c ****    |FLASH_UserOptionByteConfig          |    Yes     |      Yes      | No change                   
 176:../../source/src/FWlib/src/stm32f10x_flash.c ****    |-----------------------------------------------------------------------------------------------
 177:../../source/src/FWlib/src/stm32f10x_flash.c ****    |FLASH_GetUserOptionByte             |    Yes     |      Yes      | No change                   
 178:../../source/src/FWlib/src/stm32f10x_flash.c ****    |-----------------------------------------------------------------------------------------------
 179:../../source/src/FWlib/src/stm32f10x_flash.c ****    |FLASH_GetWriteProtectionOptionByte  |    Yes     |      Yes      | No change                   
 180:../../source/src/FWlib/src/stm32f10x_flash.c ****    |-----------------------------------------------------------------------------------------------
 181:../../source/src/FWlib/src/stm32f10x_flash.c ****    |FLASH_GetReadOutProtectionStatus    |    Yes     |      Yes      | No change                   
 182:../../source/src/FWlib/src/stm32f10x_flash.c ****    |-----------------------------------------------------------------------------------------------
 183:../../source/src/FWlib/src/stm32f10x_flash.c ****    |FLASH_GetPrefetchBufferStatus       |    Yes     |      Yes      | No change                   
 184:../../source/src/FWlib/src/stm32f10x_flash.c ****    |-----------------------------------------------------------------------------------------------
 185:../../source/src/FWlib/src/stm32f10x_flash.c ****    |FLASH_ITConfig                      |    Yes     |      Yes      | - For STM32F10x_XL devices: 
 186:../../source/src/FWlib/src/stm32f10x_flash.c ****    |                                    |            |               | - For other devices: enable 
 187:../../source/src/FWlib/src/stm32f10x_flash.c ****    |-----------------------------------------------------------------------------------------------
 188:../../source/src/FWlib/src/stm32f10x_flash.c ****    |FLASH_GetFlagStatus                 |    Yes     |      Yes      | - For STM32F10x_XL devices: 
 189:../../source/src/FWlib/src/stm32f10x_flash.c ****    |                                    |            |               | - For other devices: return 
 190:../../source/src/FWlib/src/stm32f10x_flash.c ****    |-----------------------------------------------------------------------------------------------
 191:../../source/src/FWlib/src/stm32f10x_flash.c ****    |FLASH_ClearFlag                     |    Yes     |      Yes      | - For STM32F10x_XL devices: 
 192:../../source/src/FWlib/src/stm32f10x_flash.c ****    |                                    |            |               | - For other devices: clear B
 193:../../source/src/FWlib/src/stm32f10x_flash.c ****    |-----------------------------------------------------------------------------------------------
 194:../../source/src/FWlib/src/stm32f10x_flash.c ****    |FLASH_GetStatus                     |    Yes     |      Yes      | - Return the status of Bank1
 195:../../source/src/FWlib/src/stm32f10x_flash.c ****    |                                    |            |               |   equivalent to FLASH_GetBan
 196:../../source/src/FWlib/src/stm32f10x_flash.c ****    |-----------------------------------------------------------------------------------------------
 197:../../source/src/FWlib/src/stm32f10x_flash.c ****    |FLASH_WaitForLastOperation          |    Yes     |      Yes      | - Wait for Bank1 last operat
 198:../../source/src/FWlib/src/stm32f10x_flash.c ****    |                                    |            |               |   equivalent to: FLASH_WaitF
 199:../../source/src/FWlib/src/stm32f10x_flash.c ****    +-----------------------------------------------------------------------------------------------
 200:../../source/src/FWlib/src/stm32f10x_flash.c **** 
 201:../../source/src/FWlib/src/stm32f10x_flash.c ****    ************************************************************************************************
 202:../../source/src/FWlib/src/stm32f10x_flash.c ****    * New functions used for all STM32F10x devices to manage Bank1:                                 
 203:../../source/src/FWlib/src/stm32f10x_flash.c ****    *   - These functions are mainly useful for STM32F10x_XL density devices, to have separate contr
ARM GAS  G:\Users\Jaxb\AppData\Local\Temp\ccck4Nii.s 			page 5


 204:../../source/src/FWlib/src/stm32f10x_flash.c ****    *   - For other devices, these functions are optional (covered by functions listed above)       
 205:../../source/src/FWlib/src/stm32f10x_flash.c ****    ************************************************************************************************
 206:../../source/src/FWlib/src/stm32f10x_flash.c ****    +-----------------------------------------------------------------------------------------------
 207:../../source/src/FWlib/src/stm32f10x_flash.c ****    |       Functions prototypes         |STM32F10x_XL|Other STM32F10x|    Comments                 
 208:../../source/src/FWlib/src/stm32f10x_flash.c ****    |                                    |   devices  |  devices      |                             
 209:../../source/src/FWlib/src/stm32f10x_flash.c ****    |-----------------------------------------------------------------------------------------------
 210:../../source/src/FWlib/src/stm32f10x_flash.c ****    | FLASH_UnlockBank1                  |    Yes     |      Yes      | - Unlock Bank1              
 211:../../source/src/FWlib/src/stm32f10x_flash.c ****    |-----------------------------------------------------------------------------------------------
 212:../../source/src/FWlib/src/stm32f10x_flash.c ****    |FLASH_LockBank1                     |    Yes     |      Yes      | - Lock Bank1                
 213:../../source/src/FWlib/src/stm32f10x_flash.c ****    |-----------------------------------------------------------------------------------------------
 214:../../source/src/FWlib/src/stm32f10x_flash.c ****    | FLASH_EraseAllBank1Pages           |    Yes     |      Yes      | - Erase all pages in Bank1  
 215:../../source/src/FWlib/src/stm32f10x_flash.c ****    |-----------------------------------------------------------------------------------------------
 216:../../source/src/FWlib/src/stm32f10x_flash.c ****    | FLASH_GetBank1Status               |    Yes     |      Yes      | - Return the status of Bank1
 217:../../source/src/FWlib/src/stm32f10x_flash.c ****    |-----------------------------------------------------------------------------------------------
 218:../../source/src/FWlib/src/stm32f10x_flash.c ****    | FLASH_WaitForLastBank1Operation    |    Yes     |      Yes      | - Wait for Bank1 last operat
 219:../../source/src/FWlib/src/stm32f10x_flash.c ****    +-----------------------------------------------------------------------------------------------
 220:../../source/src/FWlib/src/stm32f10x_flash.c **** 
 221:../../source/src/FWlib/src/stm32f10x_flash.c ****    *****************************************************************************
 222:../../source/src/FWlib/src/stm32f10x_flash.c ****    * New Functions used only with STM32F10x_XL density devices to manage Bank2 *
 223:../../source/src/FWlib/src/stm32f10x_flash.c ****    *****************************************************************************
 224:../../source/src/FWlib/src/stm32f10x_flash.c ****    +-----------------------------------------------------------------------------------------------
 225:../../source/src/FWlib/src/stm32f10x_flash.c ****    |       Functions prototypes         |STM32F10x_XL|Other STM32F10x|    Comments                 
 226:../../source/src/FWlib/src/stm32f10x_flash.c ****    |                                    |   devices  |  devices      |                             
 227:../../source/src/FWlib/src/stm32f10x_flash.c ****    |-----------------------------------------------------------------------------------------------
 228:../../source/src/FWlib/src/stm32f10x_flash.c ****    | FLASH_UnlockBank2                  |    Yes     |      No       | - Unlock Bank2              
 229:../../source/src/FWlib/src/stm32f10x_flash.c ****    |-----------------------------------------------------------------------------------------------
 230:../../source/src/FWlib/src/stm32f10x_flash.c ****    |FLASH_LockBank2                     |    Yes     |      No       | - Lock Bank2                
 231:../../source/src/FWlib/src/stm32f10x_flash.c ****    |-----------------------------------------------------------------------------------------------
 232:../../source/src/FWlib/src/stm32f10x_flash.c ****    | FLASH_EraseAllBank2Pages           |    Yes     |      No       | - Erase all pages in Bank2  
 233:../../source/src/FWlib/src/stm32f10x_flash.c ****    |-----------------------------------------------------------------------------------------------
 234:../../source/src/FWlib/src/stm32f10x_flash.c ****    | FLASH_GetBank2Status               |    Yes     |      No       | - Return the status of Bank2
 235:../../source/src/FWlib/src/stm32f10x_flash.c ****    |-----------------------------------------------------------------------------------------------
 236:../../source/src/FWlib/src/stm32f10x_flash.c ****    | FLASH_WaitForLastBank2Operation    |    Yes     |      No       | - Wait for Bank2 last operat
 237:../../source/src/FWlib/src/stm32f10x_flash.c ****    |-----------------------------------------------------------------------------------------------
 238:../../source/src/FWlib/src/stm32f10x_flash.c ****    | FLASH_BootConfig                   |    Yes     |      No       | - Configure to boot from Ban
 239:../../source/src/FWlib/src/stm32f10x_flash.c ****    +-----------------------------------------------------------------------------------------------
 240:../../source/src/FWlib/src/stm32f10x_flash.c **** @endcode
 241:../../source/src/FWlib/src/stm32f10x_flash.c **** */
 242:../../source/src/FWlib/src/stm32f10x_flash.c **** 
 243:../../source/src/FWlib/src/stm32f10x_flash.c **** 
 244:../../source/src/FWlib/src/stm32f10x_flash.c **** /**
 245:../../source/src/FWlib/src/stm32f10x_flash.c ****   * @brief  Sets the code latency value.
 246:../../source/src/FWlib/src/stm32f10x_flash.c ****   * @note   This function can be used for all STM32F10x devices.
 247:../../source/src/FWlib/src/stm32f10x_flash.c ****   * @param  FLASH_Latency: specifies the FLASH Latency value.
 248:../../source/src/FWlib/src/stm32f10x_flash.c ****   *   This parameter can be one of the following values:
 249:../../source/src/FWlib/src/stm32f10x_flash.c ****   *     @arg FLASH_Latency_0: FLASH Zero Latency cycle
 250:../../source/src/FWlib/src/stm32f10x_flash.c ****   *     @arg FLASH_Latency_1: FLASH One Latency cycle
 251:../../source/src/FWlib/src/stm32f10x_flash.c ****   *     @arg FLASH_Latency_2: FLASH Two Latency cycles
 252:../../source/src/FWlib/src/stm32f10x_flash.c ****   * @retval None
 253:../../source/src/FWlib/src/stm32f10x_flash.c ****   */
 254:../../source/src/FWlib/src/stm32f10x_flash.c **** void FLASH_SetLatency(uint32_t FLASH_Latency)
 255:../../source/src/FWlib/src/stm32f10x_flash.c **** {
  26              		.loc 1 255 0
  27              		.cfi_startproc
  28              		@ args = 0, pretend = 0, frame = 0
  29              		@ frame_needed = 0, uses_anonymous_args = 0
  30              		@ link register save eliminated.
ARM GAS  G:\Users\Jaxb\AppData\Local\Temp\ccck4Nii.s 			page 6


  31              	.LVL0:
 256:../../source/src/FWlib/src/stm32f10x_flash.c ****   uint32_t tmpreg = 0;
 257:../../source/src/FWlib/src/stm32f10x_flash.c ****   
 258:../../source/src/FWlib/src/stm32f10x_flash.c ****   /* Check the parameters */
 259:../../source/src/FWlib/src/stm32f10x_flash.c ****   assert_param(IS_FLASH_LATENCY(FLASH_Latency));
 260:../../source/src/FWlib/src/stm32f10x_flash.c ****   
 261:../../source/src/FWlib/src/stm32f10x_flash.c ****   /* Read the ACR register */
 262:../../source/src/FWlib/src/stm32f10x_flash.c ****   tmpreg = FLASH->ACR;  
  32              		.loc 1 262 0
  33 0000 034A     		ldr	r2, .L3
  34 0002 1368     		ldr	r3, [r2]
  35              	.LVL1:
 263:../../source/src/FWlib/src/stm32f10x_flash.c ****   
 264:../../source/src/FWlib/src/stm32f10x_flash.c ****   /* Sets the Latency value */
 265:../../source/src/FWlib/src/stm32f10x_flash.c ****   tmpreg &= ACR_LATENCY_Mask;
  36              		.loc 1 265 0
  37 0004 03F03803 		and	r3, r3, #56
  38              	.LVL2:
 266:../../source/src/FWlib/src/stm32f10x_flash.c ****   tmpreg |= FLASH_Latency;
  39              		.loc 1 266 0
  40 0008 1843     		orrs	r0, r0, r3
  41              	.LVL3:
 267:../../source/src/FWlib/src/stm32f10x_flash.c ****   
 268:../../source/src/FWlib/src/stm32f10x_flash.c ****   /* Write the ACR register */
 269:../../source/src/FWlib/src/stm32f10x_flash.c ****   FLASH->ACR = tmpreg;
  42              		.loc 1 269 0
  43 000a 1060     		str	r0, [r2]
 270:../../source/src/FWlib/src/stm32f10x_flash.c **** }
  44              		.loc 1 270 0
  45 000c 7047     		bx	lr
  46              	.L4:
  47 000e 00BF     		.align	2
  48              	.L3:
  49 0010 00200240 		.word	1073881088
  50              		.cfi_endproc
  51              	.LFE29:
  52              		.size	FLASH_SetLatency, .-FLASH_SetLatency
  53              		.align	1
  54              		.p2align 2,,3
  55              		.global	FLASH_HalfCycleAccessCmd
  56              		.syntax unified
  57              		.thumb
  58              		.thumb_func
  59              		.fpu softvfp
  60              		.type	FLASH_HalfCycleAccessCmd, %function
  61              	FLASH_HalfCycleAccessCmd:
  62              	.LFB30:
 271:../../source/src/FWlib/src/stm32f10x_flash.c **** 
 272:../../source/src/FWlib/src/stm32f10x_flash.c **** /**
 273:../../source/src/FWlib/src/stm32f10x_flash.c ****   * @brief  Enables or disables the Half cycle flash access.
 274:../../source/src/FWlib/src/stm32f10x_flash.c ****   * @note   This function can be used for all STM32F10x devices.
 275:../../source/src/FWlib/src/stm32f10x_flash.c ****   * @param  FLASH_HalfCycleAccess: specifies the FLASH Half cycle Access mode.
 276:../../source/src/FWlib/src/stm32f10x_flash.c ****   *   This parameter can be one of the following values:
 277:../../source/src/FWlib/src/stm32f10x_flash.c ****   *     @arg FLASH_HalfCycleAccess_Enable: FLASH Half Cycle Enable
 278:../../source/src/FWlib/src/stm32f10x_flash.c ****   *     @arg FLASH_HalfCycleAccess_Disable: FLASH Half Cycle Disable
 279:../../source/src/FWlib/src/stm32f10x_flash.c ****   * @retval None
 280:../../source/src/FWlib/src/stm32f10x_flash.c ****   */
ARM GAS  G:\Users\Jaxb\AppData\Local\Temp\ccck4Nii.s 			page 7


 281:../../source/src/FWlib/src/stm32f10x_flash.c **** void FLASH_HalfCycleAccessCmd(uint32_t FLASH_HalfCycleAccess)
 282:../../source/src/FWlib/src/stm32f10x_flash.c **** {
  63              		.loc 1 282 0
  64              		.cfi_startproc
  65              		@ args = 0, pretend = 0, frame = 0
  66              		@ frame_needed = 0, uses_anonymous_args = 0
  67              		@ link register save eliminated.
  68              	.LVL4:
 283:../../source/src/FWlib/src/stm32f10x_flash.c ****   /* Check the parameters */
 284:../../source/src/FWlib/src/stm32f10x_flash.c ****   assert_param(IS_FLASH_HALFCYCLEACCESS_STATE(FLASH_HalfCycleAccess));
 285:../../source/src/FWlib/src/stm32f10x_flash.c ****   
 286:../../source/src/FWlib/src/stm32f10x_flash.c ****   /* Enable or disable the Half cycle access */
 287:../../source/src/FWlib/src/stm32f10x_flash.c ****   FLASH->ACR &= ACR_HLFCYA_Mask;
  69              		.loc 1 287 0
  70 0014 044B     		ldr	r3, .L6
  71 0016 1A68     		ldr	r2, [r3]
  72 0018 22F00802 		bic	r2, r2, #8
  73 001c 1A60     		str	r2, [r3]
 288:../../source/src/FWlib/src/stm32f10x_flash.c ****   FLASH->ACR |= FLASH_HalfCycleAccess;
  74              		.loc 1 288 0
  75 001e 1A68     		ldr	r2, [r3]
  76 0020 1043     		orrs	r0, r0, r2
  77              	.LVL5:
  78 0022 1860     		str	r0, [r3]
 289:../../source/src/FWlib/src/stm32f10x_flash.c **** }
  79              		.loc 1 289 0
  80 0024 7047     		bx	lr
  81              	.L7:
  82 0026 00BF     		.align	2
  83              	.L6:
  84 0028 00200240 		.word	1073881088
  85              		.cfi_endproc
  86              	.LFE30:
  87              		.size	FLASH_HalfCycleAccessCmd, .-FLASH_HalfCycleAccessCmd
  88              		.align	1
  89              		.p2align 2,,3
  90              		.global	FLASH_PrefetchBufferCmd
  91              		.syntax unified
  92              		.thumb
  93              		.thumb_func
  94              		.fpu softvfp
  95              		.type	FLASH_PrefetchBufferCmd, %function
  96              	FLASH_PrefetchBufferCmd:
  97              	.LFB31:
 290:../../source/src/FWlib/src/stm32f10x_flash.c **** 
 291:../../source/src/FWlib/src/stm32f10x_flash.c **** /**
 292:../../source/src/FWlib/src/stm32f10x_flash.c ****   * @brief  Enables or disables the Prefetch Buffer.
 293:../../source/src/FWlib/src/stm32f10x_flash.c ****   * @note   This function can be used for all STM32F10x devices.
 294:../../source/src/FWlib/src/stm32f10x_flash.c ****   * @param  FLASH_PrefetchBuffer: specifies the Prefetch buffer status.
 295:../../source/src/FWlib/src/stm32f10x_flash.c ****   *   This parameter can be one of the following values:
 296:../../source/src/FWlib/src/stm32f10x_flash.c ****   *     @arg FLASH_PrefetchBuffer_Enable: FLASH Prefetch Buffer Enable
 297:../../source/src/FWlib/src/stm32f10x_flash.c ****   *     @arg FLASH_PrefetchBuffer_Disable: FLASH Prefetch Buffer Disable
 298:../../source/src/FWlib/src/stm32f10x_flash.c ****   * @retval None
 299:../../source/src/FWlib/src/stm32f10x_flash.c ****   */
 300:../../source/src/FWlib/src/stm32f10x_flash.c **** void FLASH_PrefetchBufferCmd(uint32_t FLASH_PrefetchBuffer)
 301:../../source/src/FWlib/src/stm32f10x_flash.c **** {
  98              		.loc 1 301 0
ARM GAS  G:\Users\Jaxb\AppData\Local\Temp\ccck4Nii.s 			page 8


  99              		.cfi_startproc
 100              		@ args = 0, pretend = 0, frame = 0
 101              		@ frame_needed = 0, uses_anonymous_args = 0
 102              		@ link register save eliminated.
 103              	.LVL6:
 302:../../source/src/FWlib/src/stm32f10x_flash.c ****   /* Check the parameters */
 303:../../source/src/FWlib/src/stm32f10x_flash.c ****   assert_param(IS_FLASH_PREFETCHBUFFER_STATE(FLASH_PrefetchBuffer));
 304:../../source/src/FWlib/src/stm32f10x_flash.c ****   
 305:../../source/src/FWlib/src/stm32f10x_flash.c ****   /* Enable or disable the Prefetch Buffer */
 306:../../source/src/FWlib/src/stm32f10x_flash.c ****   FLASH->ACR &= ACR_PRFTBE_Mask;
 104              		.loc 1 306 0
 105 002c 044B     		ldr	r3, .L9
 106 002e 1A68     		ldr	r2, [r3]
 107 0030 22F01002 		bic	r2, r2, #16
 108 0034 1A60     		str	r2, [r3]
 307:../../source/src/FWlib/src/stm32f10x_flash.c ****   FLASH->ACR |= FLASH_PrefetchBuffer;
 109              		.loc 1 307 0
 110 0036 1A68     		ldr	r2, [r3]
 111 0038 1043     		orrs	r0, r0, r2
 112              	.LVL7:
 113 003a 1860     		str	r0, [r3]
 308:../../source/src/FWlib/src/stm32f10x_flash.c **** }
 114              		.loc 1 308 0
 115 003c 7047     		bx	lr
 116              	.L10:
 117 003e 00BF     		.align	2
 118              	.L9:
 119 0040 00200240 		.word	1073881088
 120              		.cfi_endproc
 121              	.LFE31:
 122              		.size	FLASH_PrefetchBufferCmd, .-FLASH_PrefetchBufferCmd
 123              		.align	1
 124              		.p2align 2,,3
 125              		.global	FLASH_Unlock
 126              		.syntax unified
 127              		.thumb
 128              		.thumb_func
 129              		.fpu softvfp
 130              		.type	FLASH_Unlock, %function
 131              	FLASH_Unlock:
 132              	.LFB32:
 309:../../source/src/FWlib/src/stm32f10x_flash.c **** 
 310:../../source/src/FWlib/src/stm32f10x_flash.c **** /**
 311:../../source/src/FWlib/src/stm32f10x_flash.c ****   * @brief  Unlocks the FLASH Program Erase Controller.
 312:../../source/src/FWlib/src/stm32f10x_flash.c ****   * @note   This function can be used for all STM32F10x devices.
 313:../../source/src/FWlib/src/stm32f10x_flash.c ****   *         - For STM32F10X_XL devices this function unlocks Bank1 and Bank2.
 314:../../source/src/FWlib/src/stm32f10x_flash.c ****   *         - For all other devices it unlocks Bank1 and it is equivalent 
 315:../../source/src/FWlib/src/stm32f10x_flash.c ****   *           to FLASH_UnlockBank1 function.. 
 316:../../source/src/FWlib/src/stm32f10x_flash.c ****   * @param  None
 317:../../source/src/FWlib/src/stm32f10x_flash.c ****   * @retval None
 318:../../source/src/FWlib/src/stm32f10x_flash.c ****   */
 319:../../source/src/FWlib/src/stm32f10x_flash.c **** void FLASH_Unlock(void)
 320:../../source/src/FWlib/src/stm32f10x_flash.c **** {
 133              		.loc 1 320 0
 134              		.cfi_startproc
 135              		@ args = 0, pretend = 0, frame = 0
 136              		@ frame_needed = 0, uses_anonymous_args = 0
ARM GAS  G:\Users\Jaxb\AppData\Local\Temp\ccck4Nii.s 			page 9


 137              		@ link register save eliminated.
 321:../../source/src/FWlib/src/stm32f10x_flash.c ****   /* Authorize the FPEC of Bank1 Access */
 322:../../source/src/FWlib/src/stm32f10x_flash.c ****   FLASH->KEYR = FLASH_KEY1;
 138              		.loc 1 322 0
 139 0044 024B     		ldr	r3, .L12
 140 0046 0349     		ldr	r1, .L12+4
 323:../../source/src/FWlib/src/stm32f10x_flash.c ****   FLASH->KEYR = FLASH_KEY2;
 141              		.loc 1 323 0
 142 0048 034A     		ldr	r2, .L12+8
 322:../../source/src/FWlib/src/stm32f10x_flash.c ****   FLASH->KEYR = FLASH_KEY2;
 143              		.loc 1 322 0
 144 004a 5960     		str	r1, [r3, #4]
 145              		.loc 1 323 0
 146 004c 5A60     		str	r2, [r3, #4]
 324:../../source/src/FWlib/src/stm32f10x_flash.c **** 
 325:../../source/src/FWlib/src/stm32f10x_flash.c **** #ifdef STM32F10X_XL
 326:../../source/src/FWlib/src/stm32f10x_flash.c ****   /* Authorize the FPEC of Bank2 Access */
 327:../../source/src/FWlib/src/stm32f10x_flash.c ****   FLASH->KEYR2 = FLASH_KEY1;
 328:../../source/src/FWlib/src/stm32f10x_flash.c ****   FLASH->KEYR2 = FLASH_KEY2;
 329:../../source/src/FWlib/src/stm32f10x_flash.c **** #endif /* STM32F10X_XL */
 330:../../source/src/FWlib/src/stm32f10x_flash.c **** }
 147              		.loc 1 330 0
 148 004e 7047     		bx	lr
 149              	.L13:
 150              		.align	2
 151              	.L12:
 152 0050 00200240 		.word	1073881088
 153 0054 23016745 		.word	1164378403
 154 0058 AB89EFCD 		.word	-839939669
 155              		.cfi_endproc
 156              	.LFE32:
 157              		.size	FLASH_Unlock, .-FLASH_Unlock
 158              		.align	1
 159              		.p2align 2,,3
 160              		.global	FLASH_UnlockBank1
 161              		.syntax unified
 162              		.thumb
 163              		.thumb_func
 164              		.fpu softvfp
 165              		.type	FLASH_UnlockBank1, %function
 166              	FLASH_UnlockBank1:
 167              	.LFB59:
 168              		.cfi_startproc
 169              		@ args = 0, pretend = 0, frame = 0
 170              		@ frame_needed = 0, uses_anonymous_args = 0
 171              		@ link register save eliminated.
 172 005c FFF7FEBF 		b	FLASH_Unlock
 173              		.cfi_endproc
 174              	.LFE59:
 175              		.size	FLASH_UnlockBank1, .-FLASH_UnlockBank1
 176              		.align	1
 177              		.p2align 2,,3
 178              		.global	FLASH_Lock
 179              		.syntax unified
 180              		.thumb
 181              		.thumb_func
 182              		.fpu softvfp
ARM GAS  G:\Users\Jaxb\AppData\Local\Temp\ccck4Nii.s 			page 10


 183              		.type	FLASH_Lock, %function
 184              	FLASH_Lock:
 185              	.LFB34:
 331:../../source/src/FWlib/src/stm32f10x_flash.c **** /**
 332:../../source/src/FWlib/src/stm32f10x_flash.c ****   * @brief  Unlocks the FLASH Bank1 Program Erase Controller.
 333:../../source/src/FWlib/src/stm32f10x_flash.c ****   * @note   This function can be used for all STM32F10x devices.
 334:../../source/src/FWlib/src/stm32f10x_flash.c ****   *         - For STM32F10X_XL devices this function unlocks Bank1.
 335:../../source/src/FWlib/src/stm32f10x_flash.c ****   *         - For all other devices it unlocks Bank1 and it is 
 336:../../source/src/FWlib/src/stm32f10x_flash.c ****   *           equivalent to FLASH_Unlock function.
 337:../../source/src/FWlib/src/stm32f10x_flash.c ****   * @param  None
 338:../../source/src/FWlib/src/stm32f10x_flash.c ****   * @retval None
 339:../../source/src/FWlib/src/stm32f10x_flash.c ****   */
 340:../../source/src/FWlib/src/stm32f10x_flash.c **** void FLASH_UnlockBank1(void)
 341:../../source/src/FWlib/src/stm32f10x_flash.c **** {
 342:../../source/src/FWlib/src/stm32f10x_flash.c ****   /* Authorize the FPEC of Bank1 Access */
 343:../../source/src/FWlib/src/stm32f10x_flash.c ****   FLASH->KEYR = FLASH_KEY1;
 344:../../source/src/FWlib/src/stm32f10x_flash.c ****   FLASH->KEYR = FLASH_KEY2;
 345:../../source/src/FWlib/src/stm32f10x_flash.c **** }
 346:../../source/src/FWlib/src/stm32f10x_flash.c **** 
 347:../../source/src/FWlib/src/stm32f10x_flash.c **** #ifdef STM32F10X_XL
 348:../../source/src/FWlib/src/stm32f10x_flash.c **** /**
 349:../../source/src/FWlib/src/stm32f10x_flash.c ****   * @brief  Unlocks the FLASH Bank2 Program Erase Controller.
 350:../../source/src/FWlib/src/stm32f10x_flash.c ****   * @note   This function can be used only for STM32F10X_XL density devices.
 351:../../source/src/FWlib/src/stm32f10x_flash.c ****   * @param  None
 352:../../source/src/FWlib/src/stm32f10x_flash.c ****   * @retval None
 353:../../source/src/FWlib/src/stm32f10x_flash.c ****   */
 354:../../source/src/FWlib/src/stm32f10x_flash.c **** void FLASH_UnlockBank2(void)
 355:../../source/src/FWlib/src/stm32f10x_flash.c **** {
 356:../../source/src/FWlib/src/stm32f10x_flash.c ****   /* Authorize the FPEC of Bank2 Access */
 357:../../source/src/FWlib/src/stm32f10x_flash.c ****   FLASH->KEYR2 = FLASH_KEY1;
 358:../../source/src/FWlib/src/stm32f10x_flash.c ****   FLASH->KEYR2 = FLASH_KEY2;
 359:../../source/src/FWlib/src/stm32f10x_flash.c **** 
 360:../../source/src/FWlib/src/stm32f10x_flash.c **** }
 361:../../source/src/FWlib/src/stm32f10x_flash.c **** #endif /* STM32F10X_XL */
 362:../../source/src/FWlib/src/stm32f10x_flash.c **** 
 363:../../source/src/FWlib/src/stm32f10x_flash.c **** /**
 364:../../source/src/FWlib/src/stm32f10x_flash.c ****   * @brief  Locks the FLASH Program Erase Controller.
 365:../../source/src/FWlib/src/stm32f10x_flash.c ****   * @note   This function can be used for all STM32F10x devices.
 366:../../source/src/FWlib/src/stm32f10x_flash.c ****   *         - For STM32F10X_XL devices this function Locks Bank1 and Bank2.
 367:../../source/src/FWlib/src/stm32f10x_flash.c ****   *         - For all other devices it Locks Bank1 and it is equivalent 
 368:../../source/src/FWlib/src/stm32f10x_flash.c ****   *           to FLASH_LockBank1 function.
 369:../../source/src/FWlib/src/stm32f10x_flash.c ****   * @param  None
 370:../../source/src/FWlib/src/stm32f10x_flash.c ****   * @retval None
 371:../../source/src/FWlib/src/stm32f10x_flash.c ****   */
 372:../../source/src/FWlib/src/stm32f10x_flash.c **** void FLASH_Lock(void)
 373:../../source/src/FWlib/src/stm32f10x_flash.c **** {
 186              		.loc 1 373 0
 187              		.cfi_startproc
 188              		@ args = 0, pretend = 0, frame = 0
 189              		@ frame_needed = 0, uses_anonymous_args = 0
 190              		@ link register save eliminated.
 374:../../source/src/FWlib/src/stm32f10x_flash.c ****   /* Set the Lock Bit to lock the FPEC and the CR of  Bank1 */
 375:../../source/src/FWlib/src/stm32f10x_flash.c ****   FLASH->CR |= CR_LOCK_Set;
 191              		.loc 1 375 0
 192 0060 024A     		ldr	r2, .L16
 193 0062 1369     		ldr	r3, [r2, #16]
 194 0064 43F08003 		orr	r3, r3, #128
ARM GAS  G:\Users\Jaxb\AppData\Local\Temp\ccck4Nii.s 			page 11


 195 0068 1361     		str	r3, [r2, #16]
 376:../../source/src/FWlib/src/stm32f10x_flash.c **** 
 377:../../source/src/FWlib/src/stm32f10x_flash.c **** #ifdef STM32F10X_XL
 378:../../source/src/FWlib/src/stm32f10x_flash.c ****   /* Set the Lock Bit to lock the FPEC and the CR of  Bank2 */
 379:../../source/src/FWlib/src/stm32f10x_flash.c ****   FLASH->CR2 |= CR_LOCK_Set;
 380:../../source/src/FWlib/src/stm32f10x_flash.c **** #endif /* STM32F10X_XL */
 381:../../source/src/FWlib/src/stm32f10x_flash.c **** }
 196              		.loc 1 381 0
 197 006a 7047     		bx	lr
 198              	.L17:
 199              		.align	2
 200              	.L16:
 201 006c 00200240 		.word	1073881088
 202              		.cfi_endproc
 203              	.LFE34:
 204              		.size	FLASH_Lock, .-FLASH_Lock
 205              		.align	1
 206              		.p2align 2,,3
 207              		.global	FLASH_LockBank1
 208              		.syntax unified
 209              		.thumb
 210              		.thumb_func
 211              		.fpu softvfp
 212              		.type	FLASH_LockBank1, %function
 213              	FLASH_LockBank1:
 214              	.LFB61:
 215              		.cfi_startproc
 216              		@ args = 0, pretend = 0, frame = 0
 217              		@ frame_needed = 0, uses_anonymous_args = 0
 218              		@ link register save eliminated.
 219 0070 FFF7FEBF 		b	FLASH_Lock
 220              		.cfi_endproc
 221              	.LFE61:
 222              		.size	FLASH_LockBank1, .-FLASH_LockBank1
 223              		.align	1
 224              		.p2align 2,,3
 225              		.global	FLASH_GetUserOptionByte
 226              		.syntax unified
 227              		.thumb
 228              		.thumb_func
 229              		.fpu softvfp
 230              		.type	FLASH_GetUserOptionByte, %function
 231              	FLASH_GetUserOptionByte:
 232              	.LFB46:
 382:../../source/src/FWlib/src/stm32f10x_flash.c **** 
 383:../../source/src/FWlib/src/stm32f10x_flash.c **** /**
 384:../../source/src/FWlib/src/stm32f10x_flash.c ****   * @brief  Locks the FLASH Bank1 Program Erase Controller.
 385:../../source/src/FWlib/src/stm32f10x_flash.c ****   * @note   this function can be used for all STM32F10x devices.
 386:../../source/src/FWlib/src/stm32f10x_flash.c ****   *         - For STM32F10X_XL devices this function Locks Bank1.
 387:../../source/src/FWlib/src/stm32f10x_flash.c ****   *         - For all other devices it Locks Bank1 and it is equivalent 
 388:../../source/src/FWlib/src/stm32f10x_flash.c ****   *           to FLASH_Lock function.
 389:../../source/src/FWlib/src/stm32f10x_flash.c ****   * @param  None
 390:../../source/src/FWlib/src/stm32f10x_flash.c ****   * @retval None
 391:../../source/src/FWlib/src/stm32f10x_flash.c ****   */
 392:../../source/src/FWlib/src/stm32f10x_flash.c **** void FLASH_LockBank1(void)
 393:../../source/src/FWlib/src/stm32f10x_flash.c **** {
 394:../../source/src/FWlib/src/stm32f10x_flash.c ****   /* Set the Lock Bit to lock the FPEC and the CR of  Bank1 */
ARM GAS  G:\Users\Jaxb\AppData\Local\Temp\ccck4Nii.s 			page 12


 395:../../source/src/FWlib/src/stm32f10x_flash.c ****   FLASH->CR |= CR_LOCK_Set;
 396:../../source/src/FWlib/src/stm32f10x_flash.c **** }
 397:../../source/src/FWlib/src/stm32f10x_flash.c **** 
 398:../../source/src/FWlib/src/stm32f10x_flash.c **** #ifdef STM32F10X_XL
 399:../../source/src/FWlib/src/stm32f10x_flash.c **** /**
 400:../../source/src/FWlib/src/stm32f10x_flash.c ****   * @brief  Locks the FLASH Bank2 Program Erase Controller.
 401:../../source/src/FWlib/src/stm32f10x_flash.c ****   * @note   This function can be used only for STM32F10X_XL density devices.
 402:../../source/src/FWlib/src/stm32f10x_flash.c ****   * @param  None
 403:../../source/src/FWlib/src/stm32f10x_flash.c ****   * @retval None
 404:../../source/src/FWlib/src/stm32f10x_flash.c ****   */
 405:../../source/src/FWlib/src/stm32f10x_flash.c **** void FLASH_LockBank2(void)
 406:../../source/src/FWlib/src/stm32f10x_flash.c **** {
 407:../../source/src/FWlib/src/stm32f10x_flash.c ****   /* Set the Lock Bit to lock the FPEC and the CR of  Bank2 */
 408:../../source/src/FWlib/src/stm32f10x_flash.c ****   FLASH->CR2 |= CR_LOCK_Set;
 409:../../source/src/FWlib/src/stm32f10x_flash.c **** }
 410:../../source/src/FWlib/src/stm32f10x_flash.c **** #endif /* STM32F10X_XL */
 411:../../source/src/FWlib/src/stm32f10x_flash.c **** 
 412:../../source/src/FWlib/src/stm32f10x_flash.c **** /**
 413:../../source/src/FWlib/src/stm32f10x_flash.c ****   * @brief  Erases a specified FLASH page.
 414:../../source/src/FWlib/src/stm32f10x_flash.c ****   * @note   This function can be used for all STM32F10x devices.
 415:../../source/src/FWlib/src/stm32f10x_flash.c ****   * @param  Page_Address: The page address to be erased.
 416:../../source/src/FWlib/src/stm32f10x_flash.c ****   * @retval FLASH Status: The returned value can be: FLASH_BUSY, FLASH_ERROR_PG,
 417:../../source/src/FWlib/src/stm32f10x_flash.c ****   *         FLASH_ERROR_WRP, FLASH_COMPLETE or FLASH_TIMEOUT.
 418:../../source/src/FWlib/src/stm32f10x_flash.c ****   */
 419:../../source/src/FWlib/src/stm32f10x_flash.c **** FLASH_Status FLASH_ErasePage(uint32_t Page_Address)
 420:../../source/src/FWlib/src/stm32f10x_flash.c **** {
 421:../../source/src/FWlib/src/stm32f10x_flash.c ****   FLASH_Status status = FLASH_COMPLETE;
 422:../../source/src/FWlib/src/stm32f10x_flash.c ****   /* Check the parameters */
 423:../../source/src/FWlib/src/stm32f10x_flash.c ****   assert_param(IS_FLASH_ADDRESS(Page_Address));
 424:../../source/src/FWlib/src/stm32f10x_flash.c **** 
 425:../../source/src/FWlib/src/stm32f10x_flash.c **** #ifdef STM32F10X_XL
 426:../../source/src/FWlib/src/stm32f10x_flash.c ****   if(Page_Address < FLASH_BANK1_END_ADDRESS)  
 427:../../source/src/FWlib/src/stm32f10x_flash.c ****   {
 428:../../source/src/FWlib/src/stm32f10x_flash.c ****     /* Wait for last operation to be completed */
 429:../../source/src/FWlib/src/stm32f10x_flash.c ****     status = FLASH_WaitForLastBank1Operation(EraseTimeout);
 430:../../source/src/FWlib/src/stm32f10x_flash.c ****     if(status == FLASH_COMPLETE)
 431:../../source/src/FWlib/src/stm32f10x_flash.c ****     { 
 432:../../source/src/FWlib/src/stm32f10x_flash.c ****       /* if the previous operation is completed, proceed to erase the page */
 433:../../source/src/FWlib/src/stm32f10x_flash.c ****       FLASH->CR|= CR_PER_Set;
 434:../../source/src/FWlib/src/stm32f10x_flash.c ****       FLASH->AR = Page_Address; 
 435:../../source/src/FWlib/src/stm32f10x_flash.c ****       FLASH->CR|= CR_STRT_Set;
 436:../../source/src/FWlib/src/stm32f10x_flash.c ****     
 437:../../source/src/FWlib/src/stm32f10x_flash.c ****       /* Wait for last operation to be completed */
 438:../../source/src/FWlib/src/stm32f10x_flash.c ****       status = FLASH_WaitForLastBank1Operation(EraseTimeout);
 439:../../source/src/FWlib/src/stm32f10x_flash.c **** 
 440:../../source/src/FWlib/src/stm32f10x_flash.c ****       /* Disable the PER Bit */
 441:../../source/src/FWlib/src/stm32f10x_flash.c ****       FLASH->CR &= CR_PER_Reset;
 442:../../source/src/FWlib/src/stm32f10x_flash.c ****     }
 443:../../source/src/FWlib/src/stm32f10x_flash.c ****   }
 444:../../source/src/FWlib/src/stm32f10x_flash.c ****   else
 445:../../source/src/FWlib/src/stm32f10x_flash.c ****   {
 446:../../source/src/FWlib/src/stm32f10x_flash.c ****     /* Wait for last operation to be completed */
 447:../../source/src/FWlib/src/stm32f10x_flash.c ****     status = FLASH_WaitForLastBank2Operation(EraseTimeout);
 448:../../source/src/FWlib/src/stm32f10x_flash.c ****     if(status == FLASH_COMPLETE)
 449:../../source/src/FWlib/src/stm32f10x_flash.c ****     { 
 450:../../source/src/FWlib/src/stm32f10x_flash.c ****       /* if the previous operation is completed, proceed to erase the page */
 451:../../source/src/FWlib/src/stm32f10x_flash.c ****       FLASH->CR2|= CR_PER_Set;
ARM GAS  G:\Users\Jaxb\AppData\Local\Temp\ccck4Nii.s 			page 13


 452:../../source/src/FWlib/src/stm32f10x_flash.c ****       FLASH->AR2 = Page_Address; 
 453:../../source/src/FWlib/src/stm32f10x_flash.c ****       FLASH->CR2|= CR_STRT_Set;
 454:../../source/src/FWlib/src/stm32f10x_flash.c ****     
 455:../../source/src/FWlib/src/stm32f10x_flash.c ****       /* Wait for last operation to be completed */
 456:../../source/src/FWlib/src/stm32f10x_flash.c ****       status = FLASH_WaitForLastBank2Operation(EraseTimeout);
 457:../../source/src/FWlib/src/stm32f10x_flash.c ****       
 458:../../source/src/FWlib/src/stm32f10x_flash.c ****       /* Disable the PER Bit */
 459:../../source/src/FWlib/src/stm32f10x_flash.c ****       FLASH->CR2 &= CR_PER_Reset;
 460:../../source/src/FWlib/src/stm32f10x_flash.c ****     }
 461:../../source/src/FWlib/src/stm32f10x_flash.c ****   }
 462:../../source/src/FWlib/src/stm32f10x_flash.c **** #else
 463:../../source/src/FWlib/src/stm32f10x_flash.c ****   /* Wait for last operation to be completed */
 464:../../source/src/FWlib/src/stm32f10x_flash.c ****   status = FLASH_WaitForLastOperation(EraseTimeout);
 465:../../source/src/FWlib/src/stm32f10x_flash.c ****   
 466:../../source/src/FWlib/src/stm32f10x_flash.c ****   if(status == FLASH_COMPLETE)
 467:../../source/src/FWlib/src/stm32f10x_flash.c ****   { 
 468:../../source/src/FWlib/src/stm32f10x_flash.c ****     /* if the previous operation is completed, proceed to erase the page */
 469:../../source/src/FWlib/src/stm32f10x_flash.c ****     FLASH->CR|= CR_PER_Set;
 470:../../source/src/FWlib/src/stm32f10x_flash.c ****     FLASH->AR = Page_Address; 
 471:../../source/src/FWlib/src/stm32f10x_flash.c ****     FLASH->CR|= CR_STRT_Set;
 472:../../source/src/FWlib/src/stm32f10x_flash.c ****     
 473:../../source/src/FWlib/src/stm32f10x_flash.c ****     /* Wait for last operation to be completed */
 474:../../source/src/FWlib/src/stm32f10x_flash.c ****     status = FLASH_WaitForLastOperation(EraseTimeout);
 475:../../source/src/FWlib/src/stm32f10x_flash.c ****     
 476:../../source/src/FWlib/src/stm32f10x_flash.c ****     /* Disable the PER Bit */
 477:../../source/src/FWlib/src/stm32f10x_flash.c ****     FLASH->CR &= CR_PER_Reset;
 478:../../source/src/FWlib/src/stm32f10x_flash.c ****   }
 479:../../source/src/FWlib/src/stm32f10x_flash.c **** #endif /* STM32F10X_XL */
 480:../../source/src/FWlib/src/stm32f10x_flash.c **** 
 481:../../source/src/FWlib/src/stm32f10x_flash.c ****   /* Return the Erase Status */
 482:../../source/src/FWlib/src/stm32f10x_flash.c ****   return status;
 483:../../source/src/FWlib/src/stm32f10x_flash.c **** }
 484:../../source/src/FWlib/src/stm32f10x_flash.c **** 
 485:../../source/src/FWlib/src/stm32f10x_flash.c **** /**
 486:../../source/src/FWlib/src/stm32f10x_flash.c ****   * @brief  Erases all FLASH pages.
 487:../../source/src/FWlib/src/stm32f10x_flash.c ****   * @note   This function can be used for all STM32F10x devices.
 488:../../source/src/FWlib/src/stm32f10x_flash.c ****   * @param  None
 489:../../source/src/FWlib/src/stm32f10x_flash.c ****   * @retval FLASH Status: The returned value can be: FLASH_ERROR_PG,
 490:../../source/src/FWlib/src/stm32f10x_flash.c ****   *         FLASH_ERROR_WRP, FLASH_COMPLETE or FLASH_TIMEOUT.
 491:../../source/src/FWlib/src/stm32f10x_flash.c ****   */
 492:../../source/src/FWlib/src/stm32f10x_flash.c **** FLASH_Status FLASH_EraseAllPages(void)
 493:../../source/src/FWlib/src/stm32f10x_flash.c **** {
 494:../../source/src/FWlib/src/stm32f10x_flash.c ****   FLASH_Status status = FLASH_COMPLETE;
 495:../../source/src/FWlib/src/stm32f10x_flash.c **** 
 496:../../source/src/FWlib/src/stm32f10x_flash.c **** #ifdef STM32F10X_XL
 497:../../source/src/FWlib/src/stm32f10x_flash.c ****   /* Wait for last operation to be completed */
 498:../../source/src/FWlib/src/stm32f10x_flash.c ****   status = FLASH_WaitForLastBank1Operation(EraseTimeout);
 499:../../source/src/FWlib/src/stm32f10x_flash.c ****   
 500:../../source/src/FWlib/src/stm32f10x_flash.c ****   if(status == FLASH_COMPLETE)
 501:../../source/src/FWlib/src/stm32f10x_flash.c ****   {
 502:../../source/src/FWlib/src/stm32f10x_flash.c ****     /* if the previous operation is completed, proceed to erase all pages */
 503:../../source/src/FWlib/src/stm32f10x_flash.c ****      FLASH->CR |= CR_MER_Set;
 504:../../source/src/FWlib/src/stm32f10x_flash.c ****      FLASH->CR |= CR_STRT_Set;
 505:../../source/src/FWlib/src/stm32f10x_flash.c ****     
 506:../../source/src/FWlib/src/stm32f10x_flash.c ****     /* Wait for last operation to be completed */
 507:../../source/src/FWlib/src/stm32f10x_flash.c ****     status = FLASH_WaitForLastBank1Operation(EraseTimeout);
 508:../../source/src/FWlib/src/stm32f10x_flash.c ****     
ARM GAS  G:\Users\Jaxb\AppData\Local\Temp\ccck4Nii.s 			page 14


 509:../../source/src/FWlib/src/stm32f10x_flash.c ****     /* Disable the MER Bit */
 510:../../source/src/FWlib/src/stm32f10x_flash.c ****     FLASH->CR &= CR_MER_Reset;
 511:../../source/src/FWlib/src/stm32f10x_flash.c ****   }    
 512:../../source/src/FWlib/src/stm32f10x_flash.c ****   if(status == FLASH_COMPLETE)
 513:../../source/src/FWlib/src/stm32f10x_flash.c ****   {
 514:../../source/src/FWlib/src/stm32f10x_flash.c ****     /* if the previous operation is completed, proceed to erase all pages */
 515:../../source/src/FWlib/src/stm32f10x_flash.c ****      FLASH->CR2 |= CR_MER_Set;
 516:../../source/src/FWlib/src/stm32f10x_flash.c ****      FLASH->CR2 |= CR_STRT_Set;
 517:../../source/src/FWlib/src/stm32f10x_flash.c ****     
 518:../../source/src/FWlib/src/stm32f10x_flash.c ****     /* Wait for last operation to be completed */
 519:../../source/src/FWlib/src/stm32f10x_flash.c ****     status = FLASH_WaitForLastBank2Operation(EraseTimeout);
 520:../../source/src/FWlib/src/stm32f10x_flash.c ****     
 521:../../source/src/FWlib/src/stm32f10x_flash.c ****     /* Disable the MER Bit */
 522:../../source/src/FWlib/src/stm32f10x_flash.c ****     FLASH->CR2 &= CR_MER_Reset;
 523:../../source/src/FWlib/src/stm32f10x_flash.c ****   }
 524:../../source/src/FWlib/src/stm32f10x_flash.c **** #else
 525:../../source/src/FWlib/src/stm32f10x_flash.c ****   /* Wait for last operation to be completed */
 526:../../source/src/FWlib/src/stm32f10x_flash.c ****   status = FLASH_WaitForLastOperation(EraseTimeout);
 527:../../source/src/FWlib/src/stm32f10x_flash.c ****   if(status == FLASH_COMPLETE)
 528:../../source/src/FWlib/src/stm32f10x_flash.c ****   {
 529:../../source/src/FWlib/src/stm32f10x_flash.c ****     /* if the previous operation is completed, proceed to erase all pages */
 530:../../source/src/FWlib/src/stm32f10x_flash.c ****      FLASH->CR |= CR_MER_Set;
 531:../../source/src/FWlib/src/stm32f10x_flash.c ****      FLASH->CR |= CR_STRT_Set;
 532:../../source/src/FWlib/src/stm32f10x_flash.c ****     
 533:../../source/src/FWlib/src/stm32f10x_flash.c ****     /* Wait for last operation to be completed */
 534:../../source/src/FWlib/src/stm32f10x_flash.c ****     status = FLASH_WaitForLastOperation(EraseTimeout);
 535:../../source/src/FWlib/src/stm32f10x_flash.c **** 
 536:../../source/src/FWlib/src/stm32f10x_flash.c ****     /* Disable the MER Bit */
 537:../../source/src/FWlib/src/stm32f10x_flash.c ****     FLASH->CR &= CR_MER_Reset;
 538:../../source/src/FWlib/src/stm32f10x_flash.c ****   }
 539:../../source/src/FWlib/src/stm32f10x_flash.c **** #endif /* STM32F10X_XL */
 540:../../source/src/FWlib/src/stm32f10x_flash.c **** 
 541:../../source/src/FWlib/src/stm32f10x_flash.c ****   /* Return the Erase Status */
 542:../../source/src/FWlib/src/stm32f10x_flash.c ****   return status;
 543:../../source/src/FWlib/src/stm32f10x_flash.c **** }
 544:../../source/src/FWlib/src/stm32f10x_flash.c **** 
 545:../../source/src/FWlib/src/stm32f10x_flash.c **** /**
 546:../../source/src/FWlib/src/stm32f10x_flash.c ****   * @brief  Erases all Bank1 FLASH pages.
 547:../../source/src/FWlib/src/stm32f10x_flash.c ****   * @note   This function can be used for all STM32F10x devices.
 548:../../source/src/FWlib/src/stm32f10x_flash.c ****   *         - For STM32F10X_XL devices this function erases all Bank1 pages.
 549:../../source/src/FWlib/src/stm32f10x_flash.c ****   *         - For all other devices it erases all Bank1 pages and it is equivalent 
 550:../../source/src/FWlib/src/stm32f10x_flash.c ****   *           to FLASH_EraseAllPages function.
 551:../../source/src/FWlib/src/stm32f10x_flash.c ****   * @param  None
 552:../../source/src/FWlib/src/stm32f10x_flash.c ****   * @retval FLASH Status: The returned value can be: FLASH_ERROR_PG,
 553:../../source/src/FWlib/src/stm32f10x_flash.c ****   *         FLASH_ERROR_WRP, FLASH_COMPLETE or FLASH_TIMEOUT.
 554:../../source/src/FWlib/src/stm32f10x_flash.c ****   */
 555:../../source/src/FWlib/src/stm32f10x_flash.c **** FLASH_Status FLASH_EraseAllBank1Pages(void)
 556:../../source/src/FWlib/src/stm32f10x_flash.c **** {
 557:../../source/src/FWlib/src/stm32f10x_flash.c ****   FLASH_Status status = FLASH_COMPLETE;
 558:../../source/src/FWlib/src/stm32f10x_flash.c ****   /* Wait for last operation to be completed */
 559:../../source/src/FWlib/src/stm32f10x_flash.c ****   status = FLASH_WaitForLastBank1Operation(EraseTimeout);
 560:../../source/src/FWlib/src/stm32f10x_flash.c ****   
 561:../../source/src/FWlib/src/stm32f10x_flash.c ****   if(status == FLASH_COMPLETE)
 562:../../source/src/FWlib/src/stm32f10x_flash.c ****   {
 563:../../source/src/FWlib/src/stm32f10x_flash.c ****     /* if the previous operation is completed, proceed to erase all pages */
 564:../../source/src/FWlib/src/stm32f10x_flash.c ****      FLASH->CR |= CR_MER_Set;
 565:../../source/src/FWlib/src/stm32f10x_flash.c ****      FLASH->CR |= CR_STRT_Set;
ARM GAS  G:\Users\Jaxb\AppData\Local\Temp\ccck4Nii.s 			page 15


 566:../../source/src/FWlib/src/stm32f10x_flash.c ****     
 567:../../source/src/FWlib/src/stm32f10x_flash.c ****     /* Wait for last operation to be completed */
 568:../../source/src/FWlib/src/stm32f10x_flash.c ****     status = FLASH_WaitForLastBank1Operation(EraseTimeout);
 569:../../source/src/FWlib/src/stm32f10x_flash.c ****     
 570:../../source/src/FWlib/src/stm32f10x_flash.c ****     /* Disable the MER Bit */
 571:../../source/src/FWlib/src/stm32f10x_flash.c ****     FLASH->CR &= CR_MER_Reset;
 572:../../source/src/FWlib/src/stm32f10x_flash.c ****   }    
 573:../../source/src/FWlib/src/stm32f10x_flash.c ****   /* Return the Erase Status */
 574:../../source/src/FWlib/src/stm32f10x_flash.c ****   return status;
 575:../../source/src/FWlib/src/stm32f10x_flash.c **** }
 576:../../source/src/FWlib/src/stm32f10x_flash.c **** 
 577:../../source/src/FWlib/src/stm32f10x_flash.c **** #ifdef STM32F10X_XL
 578:../../source/src/FWlib/src/stm32f10x_flash.c **** /**
 579:../../source/src/FWlib/src/stm32f10x_flash.c ****   * @brief  Erases all Bank2 FLASH pages.
 580:../../source/src/FWlib/src/stm32f10x_flash.c ****   * @note   This function can be used only for STM32F10x_XL density devices.
 581:../../source/src/FWlib/src/stm32f10x_flash.c ****   * @param  None
 582:../../source/src/FWlib/src/stm32f10x_flash.c ****   * @retval FLASH Status: The returned value can be: FLASH_ERROR_PG,
 583:../../source/src/FWlib/src/stm32f10x_flash.c ****   *         FLASH_ERROR_WRP, FLASH_COMPLETE or FLASH_TIMEOUT.
 584:../../source/src/FWlib/src/stm32f10x_flash.c ****   */
 585:../../source/src/FWlib/src/stm32f10x_flash.c **** FLASH_Status FLASH_EraseAllBank2Pages(void)
 586:../../source/src/FWlib/src/stm32f10x_flash.c **** {
 587:../../source/src/FWlib/src/stm32f10x_flash.c ****   FLASH_Status status = FLASH_COMPLETE;
 588:../../source/src/FWlib/src/stm32f10x_flash.c ****   /* Wait for last operation to be completed */
 589:../../source/src/FWlib/src/stm32f10x_flash.c ****   status = FLASH_WaitForLastBank2Operation(EraseTimeout);
 590:../../source/src/FWlib/src/stm32f10x_flash.c ****   
 591:../../source/src/FWlib/src/stm32f10x_flash.c ****   if(status == FLASH_COMPLETE)
 592:../../source/src/FWlib/src/stm32f10x_flash.c ****   {
 593:../../source/src/FWlib/src/stm32f10x_flash.c ****     /* if the previous operation is completed, proceed to erase all pages */
 594:../../source/src/FWlib/src/stm32f10x_flash.c ****      FLASH->CR2 |= CR_MER_Set;
 595:../../source/src/FWlib/src/stm32f10x_flash.c ****      FLASH->CR2 |= CR_STRT_Set;
 596:../../source/src/FWlib/src/stm32f10x_flash.c ****     
 597:../../source/src/FWlib/src/stm32f10x_flash.c ****     /* Wait for last operation to be completed */
 598:../../source/src/FWlib/src/stm32f10x_flash.c ****     status = FLASH_WaitForLastBank2Operation(EraseTimeout);
 599:../../source/src/FWlib/src/stm32f10x_flash.c **** 
 600:../../source/src/FWlib/src/stm32f10x_flash.c ****     /* Disable the MER Bit */
 601:../../source/src/FWlib/src/stm32f10x_flash.c ****     FLASH->CR2 &= CR_MER_Reset;
 602:../../source/src/FWlib/src/stm32f10x_flash.c ****   }    
 603:../../source/src/FWlib/src/stm32f10x_flash.c ****   /* Return the Erase Status */
 604:../../source/src/FWlib/src/stm32f10x_flash.c ****   return status;
 605:../../source/src/FWlib/src/stm32f10x_flash.c **** }
 606:../../source/src/FWlib/src/stm32f10x_flash.c **** #endif /* STM32F10X_XL */
 607:../../source/src/FWlib/src/stm32f10x_flash.c **** 
 608:../../source/src/FWlib/src/stm32f10x_flash.c **** /**
 609:../../source/src/FWlib/src/stm32f10x_flash.c ****   * @brief  Erases the FLASH option bytes.
 610:../../source/src/FWlib/src/stm32f10x_flash.c ****   * @note   This functions erases all option bytes except the Read protection (RDP). 
 611:../../source/src/FWlib/src/stm32f10x_flash.c ****   * @note   This function can be used for all STM32F10x devices.
 612:../../source/src/FWlib/src/stm32f10x_flash.c ****   * @param  None
 613:../../source/src/FWlib/src/stm32f10x_flash.c ****   * @retval FLASH Status: The returned value can be: FLASH_ERROR_PG,
 614:../../source/src/FWlib/src/stm32f10x_flash.c ****   *         FLASH_ERROR_WRP, FLASH_COMPLETE or FLASH_TIMEOUT.
 615:../../source/src/FWlib/src/stm32f10x_flash.c ****   */
 616:../../source/src/FWlib/src/stm32f10x_flash.c **** FLASH_Status FLASH_EraseOptionBytes(void)
 617:../../source/src/FWlib/src/stm32f10x_flash.c **** {
 618:../../source/src/FWlib/src/stm32f10x_flash.c ****   uint16_t rdptmp = RDP_Key;
 619:../../source/src/FWlib/src/stm32f10x_flash.c **** 
 620:../../source/src/FWlib/src/stm32f10x_flash.c ****   FLASH_Status status = FLASH_COMPLETE;
 621:../../source/src/FWlib/src/stm32f10x_flash.c **** 
 622:../../source/src/FWlib/src/stm32f10x_flash.c ****   /* Get the actual read protection Option Byte value */ 
ARM GAS  G:\Users\Jaxb\AppData\Local\Temp\ccck4Nii.s 			page 16


 623:../../source/src/FWlib/src/stm32f10x_flash.c ****   if(FLASH_GetReadOutProtectionStatus() != RESET)
 624:../../source/src/FWlib/src/stm32f10x_flash.c ****   {
 625:../../source/src/FWlib/src/stm32f10x_flash.c ****     rdptmp = 0x00;  
 626:../../source/src/FWlib/src/stm32f10x_flash.c ****   }
 627:../../source/src/FWlib/src/stm32f10x_flash.c **** 
 628:../../source/src/FWlib/src/stm32f10x_flash.c ****   /* Wait for last operation to be completed */
 629:../../source/src/FWlib/src/stm32f10x_flash.c ****   status = FLASH_WaitForLastOperation(EraseTimeout);
 630:../../source/src/FWlib/src/stm32f10x_flash.c ****   if(status == FLASH_COMPLETE)
 631:../../source/src/FWlib/src/stm32f10x_flash.c ****   {
 632:../../source/src/FWlib/src/stm32f10x_flash.c ****     /* Authorize the small information block programming */
 633:../../source/src/FWlib/src/stm32f10x_flash.c ****     FLASH->OPTKEYR = FLASH_KEY1;
 634:../../source/src/FWlib/src/stm32f10x_flash.c ****     FLASH->OPTKEYR = FLASH_KEY2;
 635:../../source/src/FWlib/src/stm32f10x_flash.c ****     
 636:../../source/src/FWlib/src/stm32f10x_flash.c ****     /* if the previous operation is completed, proceed to erase the option bytes */
 637:../../source/src/FWlib/src/stm32f10x_flash.c ****     FLASH->CR |= CR_OPTER_Set;
 638:../../source/src/FWlib/src/stm32f10x_flash.c ****     FLASH->CR |= CR_STRT_Set;
 639:../../source/src/FWlib/src/stm32f10x_flash.c ****     /* Wait for last operation to be completed */
 640:../../source/src/FWlib/src/stm32f10x_flash.c ****     status = FLASH_WaitForLastOperation(EraseTimeout);
 641:../../source/src/FWlib/src/stm32f10x_flash.c ****     
 642:../../source/src/FWlib/src/stm32f10x_flash.c ****     if(status == FLASH_COMPLETE)
 643:../../source/src/FWlib/src/stm32f10x_flash.c ****     {
 644:../../source/src/FWlib/src/stm32f10x_flash.c ****       /* if the erase operation is completed, disable the OPTER Bit */
 645:../../source/src/FWlib/src/stm32f10x_flash.c ****       FLASH->CR &= CR_OPTER_Reset;
 646:../../source/src/FWlib/src/stm32f10x_flash.c ****        
 647:../../source/src/FWlib/src/stm32f10x_flash.c ****       /* Enable the Option Bytes Programming operation */
 648:../../source/src/FWlib/src/stm32f10x_flash.c ****       FLASH->CR |= CR_OPTPG_Set;
 649:../../source/src/FWlib/src/stm32f10x_flash.c ****       /* Restore the last read protection Option Byte value */
 650:../../source/src/FWlib/src/stm32f10x_flash.c ****       OB->RDP = (uint16_t)rdptmp; 
 651:../../source/src/FWlib/src/stm32f10x_flash.c ****       /* Wait for last operation to be completed */
 652:../../source/src/FWlib/src/stm32f10x_flash.c ****       status = FLASH_WaitForLastOperation(ProgramTimeout);
 653:../../source/src/FWlib/src/stm32f10x_flash.c ****  
 654:../../source/src/FWlib/src/stm32f10x_flash.c ****       if(status != FLASH_TIMEOUT)
 655:../../source/src/FWlib/src/stm32f10x_flash.c ****       {
 656:../../source/src/FWlib/src/stm32f10x_flash.c ****         /* if the program operation is completed, disable the OPTPG Bit */
 657:../../source/src/FWlib/src/stm32f10x_flash.c ****         FLASH->CR &= CR_OPTPG_Reset;
 658:../../source/src/FWlib/src/stm32f10x_flash.c ****       }
 659:../../source/src/FWlib/src/stm32f10x_flash.c ****     }
 660:../../source/src/FWlib/src/stm32f10x_flash.c ****     else
 661:../../source/src/FWlib/src/stm32f10x_flash.c ****     {
 662:../../source/src/FWlib/src/stm32f10x_flash.c ****       if (status != FLASH_TIMEOUT)
 663:../../source/src/FWlib/src/stm32f10x_flash.c ****       {
 664:../../source/src/FWlib/src/stm32f10x_flash.c ****         /* Disable the OPTPG Bit */
 665:../../source/src/FWlib/src/stm32f10x_flash.c ****         FLASH->CR &= CR_OPTPG_Reset;
 666:../../source/src/FWlib/src/stm32f10x_flash.c ****       }
 667:../../source/src/FWlib/src/stm32f10x_flash.c ****     }  
 668:../../source/src/FWlib/src/stm32f10x_flash.c ****   }
 669:../../source/src/FWlib/src/stm32f10x_flash.c ****   /* Return the erase status */
 670:../../source/src/FWlib/src/stm32f10x_flash.c ****   return status;
 671:../../source/src/FWlib/src/stm32f10x_flash.c **** }
 672:../../source/src/FWlib/src/stm32f10x_flash.c **** 
 673:../../source/src/FWlib/src/stm32f10x_flash.c **** /**
 674:../../source/src/FWlib/src/stm32f10x_flash.c ****   * @brief  Programs a word at a specified address.
 675:../../source/src/FWlib/src/stm32f10x_flash.c ****   * @note   This function can be used for all STM32F10x devices.
 676:../../source/src/FWlib/src/stm32f10x_flash.c ****   * @param  Address: specifies the address to be programmed.
 677:../../source/src/FWlib/src/stm32f10x_flash.c ****   * @param  Data: specifies the data to be programmed.
 678:../../source/src/FWlib/src/stm32f10x_flash.c ****   * @retval FLASH Status: The returned value can be: FLASH_ERROR_PG,
 679:../../source/src/FWlib/src/stm32f10x_flash.c ****   *         FLASH_ERROR_WRP, FLASH_COMPLETE or FLASH_TIMEOUT. 
ARM GAS  G:\Users\Jaxb\AppData\Local\Temp\ccck4Nii.s 			page 17


 680:../../source/src/FWlib/src/stm32f10x_flash.c ****   */
 681:../../source/src/FWlib/src/stm32f10x_flash.c **** FLASH_Status FLASH_ProgramWord(uint32_t Address, uint32_t Data)
 682:../../source/src/FWlib/src/stm32f10x_flash.c **** {
 683:../../source/src/FWlib/src/stm32f10x_flash.c ****   FLASH_Status status = FLASH_COMPLETE;
 684:../../source/src/FWlib/src/stm32f10x_flash.c ****   __IO uint32_t tmp = 0;
 685:../../source/src/FWlib/src/stm32f10x_flash.c **** 
 686:../../source/src/FWlib/src/stm32f10x_flash.c ****   /* Check the parameters */
 687:../../source/src/FWlib/src/stm32f10x_flash.c ****   assert_param(IS_FLASH_ADDRESS(Address));
 688:../../source/src/FWlib/src/stm32f10x_flash.c **** 
 689:../../source/src/FWlib/src/stm32f10x_flash.c **** #ifdef STM32F10X_XL
 690:../../source/src/FWlib/src/stm32f10x_flash.c ****   if(Address < FLASH_BANK1_END_ADDRESS - 2)
 691:../../source/src/FWlib/src/stm32f10x_flash.c ****   { 
 692:../../source/src/FWlib/src/stm32f10x_flash.c ****     /* Wait for last operation to be completed */
 693:../../source/src/FWlib/src/stm32f10x_flash.c ****     status = FLASH_WaitForLastBank1Operation(ProgramTimeout); 
 694:../../source/src/FWlib/src/stm32f10x_flash.c ****     if(status == FLASH_COMPLETE)
 695:../../source/src/FWlib/src/stm32f10x_flash.c ****     {
 696:../../source/src/FWlib/src/stm32f10x_flash.c ****       /* if the previous operation is completed, proceed to program the new first 
 697:../../source/src/FWlib/src/stm32f10x_flash.c ****         half word */
 698:../../source/src/FWlib/src/stm32f10x_flash.c ****       FLASH->CR |= CR_PG_Set;
 699:../../source/src/FWlib/src/stm32f10x_flash.c ****   
 700:../../source/src/FWlib/src/stm32f10x_flash.c ****       *(__IO uint16_t*)Address = (uint16_t)Data;
 701:../../source/src/FWlib/src/stm32f10x_flash.c ****       /* Wait for last operation to be completed */
 702:../../source/src/FWlib/src/stm32f10x_flash.c ****       status = FLASH_WaitForLastOperation(ProgramTimeout);
 703:../../source/src/FWlib/src/stm32f10x_flash.c ****  
 704:../../source/src/FWlib/src/stm32f10x_flash.c ****       if(status == FLASH_COMPLETE)
 705:../../source/src/FWlib/src/stm32f10x_flash.c ****       {
 706:../../source/src/FWlib/src/stm32f10x_flash.c ****         /* if the previous operation is completed, proceed to program the new second 
 707:../../source/src/FWlib/src/stm32f10x_flash.c ****         half word */
 708:../../source/src/FWlib/src/stm32f10x_flash.c ****         tmp = Address + 2;
 709:../../source/src/FWlib/src/stm32f10x_flash.c **** 
 710:../../source/src/FWlib/src/stm32f10x_flash.c ****         *(__IO uint16_t*) tmp = Data >> 16;
 711:../../source/src/FWlib/src/stm32f10x_flash.c ****     
 712:../../source/src/FWlib/src/stm32f10x_flash.c ****         /* Wait for last operation to be completed */
 713:../../source/src/FWlib/src/stm32f10x_flash.c ****         status = FLASH_WaitForLastOperation(ProgramTimeout);
 714:../../source/src/FWlib/src/stm32f10x_flash.c ****         
 715:../../source/src/FWlib/src/stm32f10x_flash.c ****         /* Disable the PG Bit */
 716:../../source/src/FWlib/src/stm32f10x_flash.c ****         FLASH->CR &= CR_PG_Reset;
 717:../../source/src/FWlib/src/stm32f10x_flash.c ****       }
 718:../../source/src/FWlib/src/stm32f10x_flash.c ****       else
 719:../../source/src/FWlib/src/stm32f10x_flash.c ****       {
 720:../../source/src/FWlib/src/stm32f10x_flash.c ****         /* Disable the PG Bit */
 721:../../source/src/FWlib/src/stm32f10x_flash.c ****         FLASH->CR &= CR_PG_Reset;
 722:../../source/src/FWlib/src/stm32f10x_flash.c ****        }
 723:../../source/src/FWlib/src/stm32f10x_flash.c ****     }
 724:../../source/src/FWlib/src/stm32f10x_flash.c ****   }
 725:../../source/src/FWlib/src/stm32f10x_flash.c ****   else if(Address == (FLASH_BANK1_END_ADDRESS - 1))
 726:../../source/src/FWlib/src/stm32f10x_flash.c ****   {
 727:../../source/src/FWlib/src/stm32f10x_flash.c ****     /* Wait for last operation to be completed */
 728:../../source/src/FWlib/src/stm32f10x_flash.c ****     status = FLASH_WaitForLastBank1Operation(ProgramTimeout);
 729:../../source/src/FWlib/src/stm32f10x_flash.c **** 
 730:../../source/src/FWlib/src/stm32f10x_flash.c ****     if(status == FLASH_COMPLETE)
 731:../../source/src/FWlib/src/stm32f10x_flash.c ****     {
 732:../../source/src/FWlib/src/stm32f10x_flash.c ****       /* if the previous operation is completed, proceed to program the new first 
 733:../../source/src/FWlib/src/stm32f10x_flash.c ****         half word */
 734:../../source/src/FWlib/src/stm32f10x_flash.c ****       FLASH->CR |= CR_PG_Set;
 735:../../source/src/FWlib/src/stm32f10x_flash.c ****   
 736:../../source/src/FWlib/src/stm32f10x_flash.c ****       *(__IO uint16_t*)Address = (uint16_t)Data;
ARM GAS  G:\Users\Jaxb\AppData\Local\Temp\ccck4Nii.s 			page 18


 737:../../source/src/FWlib/src/stm32f10x_flash.c **** 
 738:../../source/src/FWlib/src/stm32f10x_flash.c ****       /* Wait for last operation to be completed */
 739:../../source/src/FWlib/src/stm32f10x_flash.c ****       status = FLASH_WaitForLastBank1Operation(ProgramTimeout);
 740:../../source/src/FWlib/src/stm32f10x_flash.c ****       
 741:../../source/src/FWlib/src/stm32f10x_flash.c **** 	  /* Disable the PG Bit */
 742:../../source/src/FWlib/src/stm32f10x_flash.c ****       FLASH->CR &= CR_PG_Reset;
 743:../../source/src/FWlib/src/stm32f10x_flash.c ****     }
 744:../../source/src/FWlib/src/stm32f10x_flash.c ****     else
 745:../../source/src/FWlib/src/stm32f10x_flash.c ****     {
 746:../../source/src/FWlib/src/stm32f10x_flash.c ****       /* Disable the PG Bit */
 747:../../source/src/FWlib/src/stm32f10x_flash.c ****       FLASH->CR &= CR_PG_Reset;
 748:../../source/src/FWlib/src/stm32f10x_flash.c ****     }
 749:../../source/src/FWlib/src/stm32f10x_flash.c **** 
 750:../../source/src/FWlib/src/stm32f10x_flash.c ****     /* Wait for last operation to be completed */
 751:../../source/src/FWlib/src/stm32f10x_flash.c ****     status = FLASH_WaitForLastBank2Operation(ProgramTimeout);
 752:../../source/src/FWlib/src/stm32f10x_flash.c **** 
 753:../../source/src/FWlib/src/stm32f10x_flash.c ****     if(status == FLASH_COMPLETE)
 754:../../source/src/FWlib/src/stm32f10x_flash.c ****     {
 755:../../source/src/FWlib/src/stm32f10x_flash.c ****       /* if the previous operation is completed, proceed to program the new second 
 756:../../source/src/FWlib/src/stm32f10x_flash.c ****       half word */
 757:../../source/src/FWlib/src/stm32f10x_flash.c ****       FLASH->CR2 |= CR_PG_Set;
 758:../../source/src/FWlib/src/stm32f10x_flash.c ****       tmp = Address + 2;
 759:../../source/src/FWlib/src/stm32f10x_flash.c **** 
 760:../../source/src/FWlib/src/stm32f10x_flash.c ****       *(__IO uint16_t*) tmp = Data >> 16;
 761:../../source/src/FWlib/src/stm32f10x_flash.c ****     
 762:../../source/src/FWlib/src/stm32f10x_flash.c ****       /* Wait for last operation to be completed */
 763:../../source/src/FWlib/src/stm32f10x_flash.c ****       status = FLASH_WaitForLastBank2Operation(ProgramTimeout);
 764:../../source/src/FWlib/src/stm32f10x_flash.c ****         
 765:../../source/src/FWlib/src/stm32f10x_flash.c ****       /* Disable the PG Bit */
 766:../../source/src/FWlib/src/stm32f10x_flash.c ****       FLASH->CR2 &= CR_PG_Reset;
 767:../../source/src/FWlib/src/stm32f10x_flash.c ****     }
 768:../../source/src/FWlib/src/stm32f10x_flash.c ****     else
 769:../../source/src/FWlib/src/stm32f10x_flash.c ****     {
 770:../../source/src/FWlib/src/stm32f10x_flash.c ****       /* Disable the PG Bit */
 771:../../source/src/FWlib/src/stm32f10x_flash.c ****       FLASH->CR2 &= CR_PG_Reset;
 772:../../source/src/FWlib/src/stm32f10x_flash.c ****     }
 773:../../source/src/FWlib/src/stm32f10x_flash.c ****   }
 774:../../source/src/FWlib/src/stm32f10x_flash.c ****   else
 775:../../source/src/FWlib/src/stm32f10x_flash.c ****   {
 776:../../source/src/FWlib/src/stm32f10x_flash.c ****     /* Wait for last operation to be completed */
 777:../../source/src/FWlib/src/stm32f10x_flash.c ****     status = FLASH_WaitForLastBank2Operation(ProgramTimeout);
 778:../../source/src/FWlib/src/stm32f10x_flash.c **** 
 779:../../source/src/FWlib/src/stm32f10x_flash.c ****     if(status == FLASH_COMPLETE)
 780:../../source/src/FWlib/src/stm32f10x_flash.c ****     {
 781:../../source/src/FWlib/src/stm32f10x_flash.c ****       /* if the previous operation is completed, proceed to program the new first 
 782:../../source/src/FWlib/src/stm32f10x_flash.c ****         half word */
 783:../../source/src/FWlib/src/stm32f10x_flash.c ****       FLASH->CR2 |= CR_PG_Set;
 784:../../source/src/FWlib/src/stm32f10x_flash.c ****   
 785:../../source/src/FWlib/src/stm32f10x_flash.c ****       *(__IO uint16_t*)Address = (uint16_t)Data;
 786:../../source/src/FWlib/src/stm32f10x_flash.c ****       /* Wait for last operation to be completed */
 787:../../source/src/FWlib/src/stm32f10x_flash.c ****       status = FLASH_WaitForLastBank2Operation(ProgramTimeout);
 788:../../source/src/FWlib/src/stm32f10x_flash.c ****  
 789:../../source/src/FWlib/src/stm32f10x_flash.c ****       if(status == FLASH_COMPLETE)
 790:../../source/src/FWlib/src/stm32f10x_flash.c ****       {
 791:../../source/src/FWlib/src/stm32f10x_flash.c ****         /* if the previous operation is completed, proceed to program the new second 
 792:../../source/src/FWlib/src/stm32f10x_flash.c ****         half word */
 793:../../source/src/FWlib/src/stm32f10x_flash.c ****         tmp = Address + 2;
ARM GAS  G:\Users\Jaxb\AppData\Local\Temp\ccck4Nii.s 			page 19


 794:../../source/src/FWlib/src/stm32f10x_flash.c **** 
 795:../../source/src/FWlib/src/stm32f10x_flash.c ****         *(__IO uint16_t*) tmp = Data >> 16;
 796:../../source/src/FWlib/src/stm32f10x_flash.c ****     
 797:../../source/src/FWlib/src/stm32f10x_flash.c ****         /* Wait for last operation to be completed */
 798:../../source/src/FWlib/src/stm32f10x_flash.c ****         status = FLASH_WaitForLastBank2Operation(ProgramTimeout);
 799:../../source/src/FWlib/src/stm32f10x_flash.c ****         
 800:../../source/src/FWlib/src/stm32f10x_flash.c ****         /* Disable the PG Bit */
 801:../../source/src/FWlib/src/stm32f10x_flash.c ****         FLASH->CR2 &= CR_PG_Reset;
 802:../../source/src/FWlib/src/stm32f10x_flash.c ****       }
 803:../../source/src/FWlib/src/stm32f10x_flash.c ****       else
 804:../../source/src/FWlib/src/stm32f10x_flash.c ****       {
 805:../../source/src/FWlib/src/stm32f10x_flash.c ****         /* Disable the PG Bit */
 806:../../source/src/FWlib/src/stm32f10x_flash.c ****         FLASH->CR2 &= CR_PG_Reset;
 807:../../source/src/FWlib/src/stm32f10x_flash.c ****       }
 808:../../source/src/FWlib/src/stm32f10x_flash.c ****     }
 809:../../source/src/FWlib/src/stm32f10x_flash.c ****   }
 810:../../source/src/FWlib/src/stm32f10x_flash.c **** #else
 811:../../source/src/FWlib/src/stm32f10x_flash.c ****   /* Wait for last operation to be completed */
 812:../../source/src/FWlib/src/stm32f10x_flash.c ****   status = FLASH_WaitForLastOperation(ProgramTimeout);
 813:../../source/src/FWlib/src/stm32f10x_flash.c ****   
 814:../../source/src/FWlib/src/stm32f10x_flash.c ****   if(status == FLASH_COMPLETE)
 815:../../source/src/FWlib/src/stm32f10x_flash.c ****   {
 816:../../source/src/FWlib/src/stm32f10x_flash.c ****     /* if the previous operation is completed, proceed to program the new first 
 817:../../source/src/FWlib/src/stm32f10x_flash.c ****     half word */
 818:../../source/src/FWlib/src/stm32f10x_flash.c ****     FLASH->CR |= CR_PG_Set;
 819:../../source/src/FWlib/src/stm32f10x_flash.c ****   
 820:../../source/src/FWlib/src/stm32f10x_flash.c ****     *(__IO uint16_t*)Address = (uint16_t)Data;
 821:../../source/src/FWlib/src/stm32f10x_flash.c ****     /* Wait for last operation to be completed */
 822:../../source/src/FWlib/src/stm32f10x_flash.c ****     status = FLASH_WaitForLastOperation(ProgramTimeout);
 823:../../source/src/FWlib/src/stm32f10x_flash.c ****  
 824:../../source/src/FWlib/src/stm32f10x_flash.c ****     if(status == FLASH_COMPLETE)
 825:../../source/src/FWlib/src/stm32f10x_flash.c ****     {
 826:../../source/src/FWlib/src/stm32f10x_flash.c ****       /* if the previous operation is completed, proceed to program the new second 
 827:../../source/src/FWlib/src/stm32f10x_flash.c ****       half word */
 828:../../source/src/FWlib/src/stm32f10x_flash.c ****       tmp = Address + 2;
 829:../../source/src/FWlib/src/stm32f10x_flash.c **** 
 830:../../source/src/FWlib/src/stm32f10x_flash.c ****       *(__IO uint16_t*) tmp = Data >> 16;
 831:../../source/src/FWlib/src/stm32f10x_flash.c ****     
 832:../../source/src/FWlib/src/stm32f10x_flash.c ****       /* Wait for last operation to be completed */
 833:../../source/src/FWlib/src/stm32f10x_flash.c ****       status = FLASH_WaitForLastOperation(ProgramTimeout);
 834:../../source/src/FWlib/src/stm32f10x_flash.c ****         
 835:../../source/src/FWlib/src/stm32f10x_flash.c ****       /* Disable the PG Bit */
 836:../../source/src/FWlib/src/stm32f10x_flash.c ****       FLASH->CR &= CR_PG_Reset;
 837:../../source/src/FWlib/src/stm32f10x_flash.c ****     }
 838:../../source/src/FWlib/src/stm32f10x_flash.c ****     else
 839:../../source/src/FWlib/src/stm32f10x_flash.c ****     {
 840:../../source/src/FWlib/src/stm32f10x_flash.c ****       /* Disable the PG Bit */
 841:../../source/src/FWlib/src/stm32f10x_flash.c ****       FLASH->CR &= CR_PG_Reset;
 842:../../source/src/FWlib/src/stm32f10x_flash.c ****     }
 843:../../source/src/FWlib/src/stm32f10x_flash.c ****   }         
 844:../../source/src/FWlib/src/stm32f10x_flash.c **** #endif /* STM32F10X_XL */
 845:../../source/src/FWlib/src/stm32f10x_flash.c ****    
 846:../../source/src/FWlib/src/stm32f10x_flash.c ****   /* Return the Program Status */
 847:../../source/src/FWlib/src/stm32f10x_flash.c ****   return status;
 848:../../source/src/FWlib/src/stm32f10x_flash.c **** }
 849:../../source/src/FWlib/src/stm32f10x_flash.c **** 
 850:../../source/src/FWlib/src/stm32f10x_flash.c **** /**
ARM GAS  G:\Users\Jaxb\AppData\Local\Temp\ccck4Nii.s 			page 20


 851:../../source/src/FWlib/src/stm32f10x_flash.c ****   * @brief  Programs a half word at a specified address.
 852:../../source/src/FWlib/src/stm32f10x_flash.c ****   * @note   This function can be used for all STM32F10x devices.
 853:../../source/src/FWlib/src/stm32f10x_flash.c ****   * @param  Address: specifies the address to be programmed.
 854:../../source/src/FWlib/src/stm32f10x_flash.c ****   * @param  Data: specifies the data to be programmed.
 855:../../source/src/FWlib/src/stm32f10x_flash.c ****   * @retval FLASH Status: The returned value can be: FLASH_ERROR_PG,
 856:../../source/src/FWlib/src/stm32f10x_flash.c ****   *         FLASH_ERROR_WRP, FLASH_COMPLETE or FLASH_TIMEOUT. 
 857:../../source/src/FWlib/src/stm32f10x_flash.c ****   */
 858:../../source/src/FWlib/src/stm32f10x_flash.c **** FLASH_Status FLASH_ProgramHalfWord(uint32_t Address, uint16_t Data)
 859:../../source/src/FWlib/src/stm32f10x_flash.c **** {
 860:../../source/src/FWlib/src/stm32f10x_flash.c ****   FLASH_Status status = FLASH_COMPLETE;
 861:../../source/src/FWlib/src/stm32f10x_flash.c ****   /* Check the parameters */
 862:../../source/src/FWlib/src/stm32f10x_flash.c ****   assert_param(IS_FLASH_ADDRESS(Address));
 863:../../source/src/FWlib/src/stm32f10x_flash.c **** 
 864:../../source/src/FWlib/src/stm32f10x_flash.c **** #ifdef STM32F10X_XL
 865:../../source/src/FWlib/src/stm32f10x_flash.c ****   /* Wait for last operation to be completed */
 866:../../source/src/FWlib/src/stm32f10x_flash.c ****   status = FLASH_WaitForLastOperation(ProgramTimeout);
 867:../../source/src/FWlib/src/stm32f10x_flash.c ****   
 868:../../source/src/FWlib/src/stm32f10x_flash.c ****   if(Address < FLASH_BANK1_END_ADDRESS)
 869:../../source/src/FWlib/src/stm32f10x_flash.c ****   {
 870:../../source/src/FWlib/src/stm32f10x_flash.c ****     if(status == FLASH_COMPLETE)
 871:../../source/src/FWlib/src/stm32f10x_flash.c ****     {
 872:../../source/src/FWlib/src/stm32f10x_flash.c ****       /* if the previous operation is completed, proceed to program the new data */
 873:../../source/src/FWlib/src/stm32f10x_flash.c ****       FLASH->CR |= CR_PG_Set;
 874:../../source/src/FWlib/src/stm32f10x_flash.c ****   
 875:../../source/src/FWlib/src/stm32f10x_flash.c ****       *(__IO uint16_t*)Address = Data;
 876:../../source/src/FWlib/src/stm32f10x_flash.c ****       /* Wait for last operation to be completed */
 877:../../source/src/FWlib/src/stm32f10x_flash.c ****       status = FLASH_WaitForLastBank1Operation(ProgramTimeout);
 878:../../source/src/FWlib/src/stm32f10x_flash.c **** 
 879:../../source/src/FWlib/src/stm32f10x_flash.c ****       /* Disable the PG Bit */
 880:../../source/src/FWlib/src/stm32f10x_flash.c ****       FLASH->CR &= CR_PG_Reset;
 881:../../source/src/FWlib/src/stm32f10x_flash.c ****     }
 882:../../source/src/FWlib/src/stm32f10x_flash.c ****   }
 883:../../source/src/FWlib/src/stm32f10x_flash.c ****   else
 884:../../source/src/FWlib/src/stm32f10x_flash.c ****   {
 885:../../source/src/FWlib/src/stm32f10x_flash.c ****     if(status == FLASH_COMPLETE)
 886:../../source/src/FWlib/src/stm32f10x_flash.c ****     {
 887:../../source/src/FWlib/src/stm32f10x_flash.c ****       /* if the previous operation is completed, proceed to program the new data */
 888:../../source/src/FWlib/src/stm32f10x_flash.c ****       FLASH->CR2 |= CR_PG_Set;
 889:../../source/src/FWlib/src/stm32f10x_flash.c ****   
 890:../../source/src/FWlib/src/stm32f10x_flash.c ****       *(__IO uint16_t*)Address = Data;
 891:../../source/src/FWlib/src/stm32f10x_flash.c ****       /* Wait for last operation to be completed */
 892:../../source/src/FWlib/src/stm32f10x_flash.c ****       status = FLASH_WaitForLastBank2Operation(ProgramTimeout);
 893:../../source/src/FWlib/src/stm32f10x_flash.c **** 
 894:../../source/src/FWlib/src/stm32f10x_flash.c ****       /* Disable the PG Bit */
 895:../../source/src/FWlib/src/stm32f10x_flash.c ****       FLASH->CR2 &= CR_PG_Reset;
 896:../../source/src/FWlib/src/stm32f10x_flash.c ****     }
 897:../../source/src/FWlib/src/stm32f10x_flash.c ****   }
 898:../../source/src/FWlib/src/stm32f10x_flash.c **** #else
 899:../../source/src/FWlib/src/stm32f10x_flash.c ****   /* Wait for last operation to be completed */
 900:../../source/src/FWlib/src/stm32f10x_flash.c ****   status = FLASH_WaitForLastOperation(ProgramTimeout);
 901:../../source/src/FWlib/src/stm32f10x_flash.c ****   
 902:../../source/src/FWlib/src/stm32f10x_flash.c ****   if(status == FLASH_COMPLETE)
 903:../../source/src/FWlib/src/stm32f10x_flash.c ****   {
 904:../../source/src/FWlib/src/stm32f10x_flash.c ****     /* if the previous operation is completed, proceed to program the new data */
 905:../../source/src/FWlib/src/stm32f10x_flash.c ****     FLASH->CR |= CR_PG_Set;
 906:../../source/src/FWlib/src/stm32f10x_flash.c ****   
 907:../../source/src/FWlib/src/stm32f10x_flash.c ****     *(__IO uint16_t*)Address = Data;
ARM GAS  G:\Users\Jaxb\AppData\Local\Temp\ccck4Nii.s 			page 21


 908:../../source/src/FWlib/src/stm32f10x_flash.c ****     /* Wait for last operation to be completed */
 909:../../source/src/FWlib/src/stm32f10x_flash.c ****     status = FLASH_WaitForLastOperation(ProgramTimeout);
 910:../../source/src/FWlib/src/stm32f10x_flash.c ****     
 911:../../source/src/FWlib/src/stm32f10x_flash.c ****     /* Disable the PG Bit */
 912:../../source/src/FWlib/src/stm32f10x_flash.c ****     FLASH->CR &= CR_PG_Reset;
 913:../../source/src/FWlib/src/stm32f10x_flash.c ****   } 
 914:../../source/src/FWlib/src/stm32f10x_flash.c **** #endif  /* STM32F10X_XL */
 915:../../source/src/FWlib/src/stm32f10x_flash.c ****   
 916:../../source/src/FWlib/src/stm32f10x_flash.c ****   /* Return the Program Status */
 917:../../source/src/FWlib/src/stm32f10x_flash.c ****   return status;
 918:../../source/src/FWlib/src/stm32f10x_flash.c **** }
 919:../../source/src/FWlib/src/stm32f10x_flash.c **** 
 920:../../source/src/FWlib/src/stm32f10x_flash.c **** /**
 921:../../source/src/FWlib/src/stm32f10x_flash.c ****   * @brief  Programs a half word at a specified Option Byte Data address.
 922:../../source/src/FWlib/src/stm32f10x_flash.c ****   * @note   This function can be used for all STM32F10x devices.
 923:../../source/src/FWlib/src/stm32f10x_flash.c ****   * @param  Address: specifies the address to be programmed.
 924:../../source/src/FWlib/src/stm32f10x_flash.c ****   *   This parameter can be 0x1FFFF804 or 0x1FFFF806. 
 925:../../source/src/FWlib/src/stm32f10x_flash.c ****   * @param  Data: specifies the data to be programmed.
 926:../../source/src/FWlib/src/stm32f10x_flash.c ****   * @retval FLASH Status: The returned value can be: FLASH_ERROR_PG,
 927:../../source/src/FWlib/src/stm32f10x_flash.c ****   *         FLASH_ERROR_WRP, FLASH_COMPLETE or FLASH_TIMEOUT. 
 928:../../source/src/FWlib/src/stm32f10x_flash.c ****   */
 929:../../source/src/FWlib/src/stm32f10x_flash.c **** FLASH_Status FLASH_ProgramOptionByteData(uint32_t Address, uint8_t Data)
 930:../../source/src/FWlib/src/stm32f10x_flash.c **** {
 931:../../source/src/FWlib/src/stm32f10x_flash.c ****   FLASH_Status status = FLASH_COMPLETE;
 932:../../source/src/FWlib/src/stm32f10x_flash.c ****   /* Check the parameters */
 933:../../source/src/FWlib/src/stm32f10x_flash.c ****   assert_param(IS_OB_DATA_ADDRESS(Address));
 934:../../source/src/FWlib/src/stm32f10x_flash.c ****   status = FLASH_WaitForLastOperation(ProgramTimeout);
 935:../../source/src/FWlib/src/stm32f10x_flash.c **** 
 936:../../source/src/FWlib/src/stm32f10x_flash.c ****   if(status == FLASH_COMPLETE)
 937:../../source/src/FWlib/src/stm32f10x_flash.c ****   {
 938:../../source/src/FWlib/src/stm32f10x_flash.c ****     /* Authorize the small information block programming */
 939:../../source/src/FWlib/src/stm32f10x_flash.c ****     FLASH->OPTKEYR = FLASH_KEY1;
 940:../../source/src/FWlib/src/stm32f10x_flash.c ****     FLASH->OPTKEYR = FLASH_KEY2;
 941:../../source/src/FWlib/src/stm32f10x_flash.c ****     /* Enables the Option Bytes Programming operation */
 942:../../source/src/FWlib/src/stm32f10x_flash.c ****     FLASH->CR |= CR_OPTPG_Set; 
 943:../../source/src/FWlib/src/stm32f10x_flash.c ****     *(__IO uint16_t*)Address = Data;
 944:../../source/src/FWlib/src/stm32f10x_flash.c ****     
 945:../../source/src/FWlib/src/stm32f10x_flash.c ****     /* Wait for last operation to be completed */
 946:../../source/src/FWlib/src/stm32f10x_flash.c ****     status = FLASH_WaitForLastOperation(ProgramTimeout);
 947:../../source/src/FWlib/src/stm32f10x_flash.c ****     if(status != FLASH_TIMEOUT)
 948:../../source/src/FWlib/src/stm32f10x_flash.c ****     {
 949:../../source/src/FWlib/src/stm32f10x_flash.c ****       /* if the program operation is completed, disable the OPTPG Bit */
 950:../../source/src/FWlib/src/stm32f10x_flash.c ****       FLASH->CR &= CR_OPTPG_Reset;
 951:../../source/src/FWlib/src/stm32f10x_flash.c ****     }
 952:../../source/src/FWlib/src/stm32f10x_flash.c ****   }
 953:../../source/src/FWlib/src/stm32f10x_flash.c ****   /* Return the Option Byte Data Program Status */
 954:../../source/src/FWlib/src/stm32f10x_flash.c ****   return status;
 955:../../source/src/FWlib/src/stm32f10x_flash.c **** }
 956:../../source/src/FWlib/src/stm32f10x_flash.c **** 
 957:../../source/src/FWlib/src/stm32f10x_flash.c **** /**
 958:../../source/src/FWlib/src/stm32f10x_flash.c ****   * @brief  Write protects the desired pages
 959:../../source/src/FWlib/src/stm32f10x_flash.c ****   * @note   This function can be used for all STM32F10x devices.
 960:../../source/src/FWlib/src/stm32f10x_flash.c ****   * @param  FLASH_Pages: specifies the address of the pages to be write protected.
 961:../../source/src/FWlib/src/stm32f10x_flash.c ****   *   This parameter can be:
 962:../../source/src/FWlib/src/stm32f10x_flash.c ****   *     @arg For @b STM32_Low-density_devices: value between FLASH_WRProt_Pages0to3 and FLASH_WRPro
 963:../../source/src/FWlib/src/stm32f10x_flash.c ****   *     @arg For @b STM32_Medium-density_devices: value between FLASH_WRProt_Pages0to3
 964:../../source/src/FWlib/src/stm32f10x_flash.c ****   *       and FLASH_WRProt_Pages124to127
ARM GAS  G:\Users\Jaxb\AppData\Local\Temp\ccck4Nii.s 			page 22


 965:../../source/src/FWlib/src/stm32f10x_flash.c ****   *     @arg For @b STM32_High-density_devices: value between FLASH_WRProt_Pages0to1 and
 966:../../source/src/FWlib/src/stm32f10x_flash.c ****   *       FLASH_WRProt_Pages60to61 or FLASH_WRProt_Pages62to255
 967:../../source/src/FWlib/src/stm32f10x_flash.c ****   *     @arg For @b STM32_Connectivity_line_devices: value between FLASH_WRProt_Pages0to1 and
 968:../../source/src/FWlib/src/stm32f10x_flash.c ****   *       FLASH_WRProt_Pages60to61 or FLASH_WRProt_Pages62to127    
 969:../../source/src/FWlib/src/stm32f10x_flash.c ****   *     @arg For @b STM32_XL-density_devices: value between FLASH_WRProt_Pages0to1 and
 970:../../source/src/FWlib/src/stm32f10x_flash.c ****   *       FLASH_WRProt_Pages60to61 or FLASH_WRProt_Pages62to511
 971:../../source/src/FWlib/src/stm32f10x_flash.c ****   *     @arg FLASH_WRProt_AllPages
 972:../../source/src/FWlib/src/stm32f10x_flash.c ****   * @retval FLASH Status: The returned value can be: FLASH_ERROR_PG,
 973:../../source/src/FWlib/src/stm32f10x_flash.c ****   *         FLASH_ERROR_WRP, FLASH_COMPLETE or FLASH_TIMEOUT.
 974:../../source/src/FWlib/src/stm32f10x_flash.c ****   */
 975:../../source/src/FWlib/src/stm32f10x_flash.c **** FLASH_Status FLASH_EnableWriteProtection(uint32_t FLASH_Pages)
 976:../../source/src/FWlib/src/stm32f10x_flash.c **** {
 977:../../source/src/FWlib/src/stm32f10x_flash.c ****   uint16_t WRP0_Data = 0xFFFF, WRP1_Data = 0xFFFF, WRP2_Data = 0xFFFF, WRP3_Data = 0xFFFF;
 978:../../source/src/FWlib/src/stm32f10x_flash.c ****   
 979:../../source/src/FWlib/src/stm32f10x_flash.c ****   FLASH_Status status = FLASH_COMPLETE;
 980:../../source/src/FWlib/src/stm32f10x_flash.c ****   
 981:../../source/src/FWlib/src/stm32f10x_flash.c ****   /* Check the parameters */
 982:../../source/src/FWlib/src/stm32f10x_flash.c ****   assert_param(IS_FLASH_WRPROT_PAGE(FLASH_Pages));
 983:../../source/src/FWlib/src/stm32f10x_flash.c ****   
 984:../../source/src/FWlib/src/stm32f10x_flash.c ****   FLASH_Pages = (uint32_t)(~FLASH_Pages);
 985:../../source/src/FWlib/src/stm32f10x_flash.c ****   WRP0_Data = (uint16_t)(FLASH_Pages & WRP0_Mask);
 986:../../source/src/FWlib/src/stm32f10x_flash.c ****   WRP1_Data = (uint16_t)((FLASH_Pages & WRP1_Mask) >> 8);
 987:../../source/src/FWlib/src/stm32f10x_flash.c ****   WRP2_Data = (uint16_t)((FLASH_Pages & WRP2_Mask) >> 16);
 988:../../source/src/FWlib/src/stm32f10x_flash.c ****   WRP3_Data = (uint16_t)((FLASH_Pages & WRP3_Mask) >> 24);
 989:../../source/src/FWlib/src/stm32f10x_flash.c ****   
 990:../../source/src/FWlib/src/stm32f10x_flash.c ****   /* Wait for last operation to be completed */
 991:../../source/src/FWlib/src/stm32f10x_flash.c ****   status = FLASH_WaitForLastOperation(ProgramTimeout);
 992:../../source/src/FWlib/src/stm32f10x_flash.c ****   
 993:../../source/src/FWlib/src/stm32f10x_flash.c ****   if(status == FLASH_COMPLETE)
 994:../../source/src/FWlib/src/stm32f10x_flash.c ****   {
 995:../../source/src/FWlib/src/stm32f10x_flash.c ****     /* Authorizes the small information block programming */
 996:../../source/src/FWlib/src/stm32f10x_flash.c ****     FLASH->OPTKEYR = FLASH_KEY1;
 997:../../source/src/FWlib/src/stm32f10x_flash.c ****     FLASH->OPTKEYR = FLASH_KEY2;
 998:../../source/src/FWlib/src/stm32f10x_flash.c ****     FLASH->CR |= CR_OPTPG_Set;
 999:../../source/src/FWlib/src/stm32f10x_flash.c ****     if(WRP0_Data != 0xFF)
1000:../../source/src/FWlib/src/stm32f10x_flash.c ****     {
1001:../../source/src/FWlib/src/stm32f10x_flash.c ****       OB->WRP0 = WRP0_Data;
1002:../../source/src/FWlib/src/stm32f10x_flash.c ****       
1003:../../source/src/FWlib/src/stm32f10x_flash.c ****       /* Wait for last operation to be completed */
1004:../../source/src/FWlib/src/stm32f10x_flash.c ****       status = FLASH_WaitForLastOperation(ProgramTimeout);
1005:../../source/src/FWlib/src/stm32f10x_flash.c ****     }
1006:../../source/src/FWlib/src/stm32f10x_flash.c ****     if((status == FLASH_COMPLETE) && (WRP1_Data != 0xFF))
1007:../../source/src/FWlib/src/stm32f10x_flash.c ****     {
1008:../../source/src/FWlib/src/stm32f10x_flash.c ****       OB->WRP1 = WRP1_Data;
1009:../../source/src/FWlib/src/stm32f10x_flash.c ****       
1010:../../source/src/FWlib/src/stm32f10x_flash.c ****       /* Wait for last operation to be completed */
1011:../../source/src/FWlib/src/stm32f10x_flash.c ****       status = FLASH_WaitForLastOperation(ProgramTimeout);
1012:../../source/src/FWlib/src/stm32f10x_flash.c ****     }
1013:../../source/src/FWlib/src/stm32f10x_flash.c ****     if((status == FLASH_COMPLETE) && (WRP2_Data != 0xFF))
1014:../../source/src/FWlib/src/stm32f10x_flash.c ****     {
1015:../../source/src/FWlib/src/stm32f10x_flash.c ****       OB->WRP2 = WRP2_Data;
1016:../../source/src/FWlib/src/stm32f10x_flash.c ****       
1017:../../source/src/FWlib/src/stm32f10x_flash.c ****       /* Wait for last operation to be completed */
1018:../../source/src/FWlib/src/stm32f10x_flash.c ****       status = FLASH_WaitForLastOperation(ProgramTimeout);
1019:../../source/src/FWlib/src/stm32f10x_flash.c ****     }
1020:../../source/src/FWlib/src/stm32f10x_flash.c ****     
1021:../../source/src/FWlib/src/stm32f10x_flash.c ****     if((status == FLASH_COMPLETE)&& (WRP3_Data != 0xFF))
ARM GAS  G:\Users\Jaxb\AppData\Local\Temp\ccck4Nii.s 			page 23


1022:../../source/src/FWlib/src/stm32f10x_flash.c ****     {
1023:../../source/src/FWlib/src/stm32f10x_flash.c ****       OB->WRP3 = WRP3_Data;
1024:../../source/src/FWlib/src/stm32f10x_flash.c ****      
1025:../../source/src/FWlib/src/stm32f10x_flash.c ****       /* Wait for last operation to be completed */
1026:../../source/src/FWlib/src/stm32f10x_flash.c ****       status = FLASH_WaitForLastOperation(ProgramTimeout);
1027:../../source/src/FWlib/src/stm32f10x_flash.c ****     }
1028:../../source/src/FWlib/src/stm32f10x_flash.c ****           
1029:../../source/src/FWlib/src/stm32f10x_flash.c ****     if(status != FLASH_TIMEOUT)
1030:../../source/src/FWlib/src/stm32f10x_flash.c ****     {
1031:../../source/src/FWlib/src/stm32f10x_flash.c ****       /* if the program operation is completed, disable the OPTPG Bit */
1032:../../source/src/FWlib/src/stm32f10x_flash.c ****       FLASH->CR &= CR_OPTPG_Reset;
1033:../../source/src/FWlib/src/stm32f10x_flash.c ****     }
1034:../../source/src/FWlib/src/stm32f10x_flash.c ****   } 
1035:../../source/src/FWlib/src/stm32f10x_flash.c ****   /* Return the write protection operation Status */
1036:../../source/src/FWlib/src/stm32f10x_flash.c ****   return status;       
1037:../../source/src/FWlib/src/stm32f10x_flash.c **** }
1038:../../source/src/FWlib/src/stm32f10x_flash.c **** 
1039:../../source/src/FWlib/src/stm32f10x_flash.c **** /**
1040:../../source/src/FWlib/src/stm32f10x_flash.c ****   * @brief  Enables or disables the read out protection.
1041:../../source/src/FWlib/src/stm32f10x_flash.c ****   * @note   If the user has already programmed the other option bytes before calling 
1042:../../source/src/FWlib/src/stm32f10x_flash.c ****   *   this function, he must re-program them since this function erases all option bytes.
1043:../../source/src/FWlib/src/stm32f10x_flash.c ****   * @note   This function can be used for all STM32F10x devices.
1044:../../source/src/FWlib/src/stm32f10x_flash.c ****   * @param  Newstate: new state of the ReadOut Protection.
1045:../../source/src/FWlib/src/stm32f10x_flash.c ****   *   This parameter can be: ENABLE or DISABLE.
1046:../../source/src/FWlib/src/stm32f10x_flash.c ****   * @retval FLASH Status: The returned value can be: FLASH_ERROR_PG,
1047:../../source/src/FWlib/src/stm32f10x_flash.c ****   *         FLASH_ERROR_WRP, FLASH_COMPLETE or FLASH_TIMEOUT.
1048:../../source/src/FWlib/src/stm32f10x_flash.c ****   */
1049:../../source/src/FWlib/src/stm32f10x_flash.c **** FLASH_Status FLASH_ReadOutProtection(FunctionalState NewState)
1050:../../source/src/FWlib/src/stm32f10x_flash.c **** {
1051:../../source/src/FWlib/src/stm32f10x_flash.c ****   FLASH_Status status = FLASH_COMPLETE;
1052:../../source/src/FWlib/src/stm32f10x_flash.c ****   /* Check the parameters */
1053:../../source/src/FWlib/src/stm32f10x_flash.c ****   assert_param(IS_FUNCTIONAL_STATE(NewState));
1054:../../source/src/FWlib/src/stm32f10x_flash.c ****   status = FLASH_WaitForLastOperation(EraseTimeout);
1055:../../source/src/FWlib/src/stm32f10x_flash.c ****   if(status == FLASH_COMPLETE)
1056:../../source/src/FWlib/src/stm32f10x_flash.c ****   {
1057:../../source/src/FWlib/src/stm32f10x_flash.c ****     /* Authorizes the small information block programming */
1058:../../source/src/FWlib/src/stm32f10x_flash.c ****     FLASH->OPTKEYR = FLASH_KEY1;
1059:../../source/src/FWlib/src/stm32f10x_flash.c ****     FLASH->OPTKEYR = FLASH_KEY2;
1060:../../source/src/FWlib/src/stm32f10x_flash.c ****     FLASH->CR |= CR_OPTER_Set;
1061:../../source/src/FWlib/src/stm32f10x_flash.c ****     FLASH->CR |= CR_STRT_Set;
1062:../../source/src/FWlib/src/stm32f10x_flash.c ****     /* Wait for last operation to be completed */
1063:../../source/src/FWlib/src/stm32f10x_flash.c ****     status = FLASH_WaitForLastOperation(EraseTimeout);
1064:../../source/src/FWlib/src/stm32f10x_flash.c ****     if(status == FLASH_COMPLETE)
1065:../../source/src/FWlib/src/stm32f10x_flash.c ****     {
1066:../../source/src/FWlib/src/stm32f10x_flash.c ****       /* if the erase operation is completed, disable the OPTER Bit */
1067:../../source/src/FWlib/src/stm32f10x_flash.c ****       FLASH->CR &= CR_OPTER_Reset;
1068:../../source/src/FWlib/src/stm32f10x_flash.c ****       /* Enable the Option Bytes Programming operation */
1069:../../source/src/FWlib/src/stm32f10x_flash.c ****       FLASH->CR |= CR_OPTPG_Set; 
1070:../../source/src/FWlib/src/stm32f10x_flash.c ****       if(NewState != DISABLE)
1071:../../source/src/FWlib/src/stm32f10x_flash.c ****       {
1072:../../source/src/FWlib/src/stm32f10x_flash.c ****         OB->RDP = 0x00;
1073:../../source/src/FWlib/src/stm32f10x_flash.c ****       }
1074:../../source/src/FWlib/src/stm32f10x_flash.c ****       else
1075:../../source/src/FWlib/src/stm32f10x_flash.c ****       {
1076:../../source/src/FWlib/src/stm32f10x_flash.c ****         OB->RDP = RDP_Key;  
1077:../../source/src/FWlib/src/stm32f10x_flash.c ****       }
1078:../../source/src/FWlib/src/stm32f10x_flash.c ****       /* Wait for last operation to be completed */
ARM GAS  G:\Users\Jaxb\AppData\Local\Temp\ccck4Nii.s 			page 24


1079:../../source/src/FWlib/src/stm32f10x_flash.c ****       status = FLASH_WaitForLastOperation(EraseTimeout); 
1080:../../source/src/FWlib/src/stm32f10x_flash.c ****     
1081:../../source/src/FWlib/src/stm32f10x_flash.c ****       if(status != FLASH_TIMEOUT)
1082:../../source/src/FWlib/src/stm32f10x_flash.c ****       {
1083:../../source/src/FWlib/src/stm32f10x_flash.c ****         /* if the program operation is completed, disable the OPTPG Bit */
1084:../../source/src/FWlib/src/stm32f10x_flash.c ****         FLASH->CR &= CR_OPTPG_Reset;
1085:../../source/src/FWlib/src/stm32f10x_flash.c ****       }
1086:../../source/src/FWlib/src/stm32f10x_flash.c ****     }
1087:../../source/src/FWlib/src/stm32f10x_flash.c ****     else 
1088:../../source/src/FWlib/src/stm32f10x_flash.c ****     {
1089:../../source/src/FWlib/src/stm32f10x_flash.c ****       if(status != FLASH_TIMEOUT)
1090:../../source/src/FWlib/src/stm32f10x_flash.c ****       {
1091:../../source/src/FWlib/src/stm32f10x_flash.c ****         /* Disable the OPTER Bit */
1092:../../source/src/FWlib/src/stm32f10x_flash.c ****         FLASH->CR &= CR_OPTER_Reset;
1093:../../source/src/FWlib/src/stm32f10x_flash.c ****       }
1094:../../source/src/FWlib/src/stm32f10x_flash.c ****     }
1095:../../source/src/FWlib/src/stm32f10x_flash.c ****   }
1096:../../source/src/FWlib/src/stm32f10x_flash.c ****   /* Return the protection operation Status */
1097:../../source/src/FWlib/src/stm32f10x_flash.c ****   return status;       
1098:../../source/src/FWlib/src/stm32f10x_flash.c **** }
1099:../../source/src/FWlib/src/stm32f10x_flash.c **** 
1100:../../source/src/FWlib/src/stm32f10x_flash.c **** /**
1101:../../source/src/FWlib/src/stm32f10x_flash.c ****   * @brief  Programs the FLASH User Option Byte: IWDG_SW / RST_STOP / RST_STDBY.
1102:../../source/src/FWlib/src/stm32f10x_flash.c ****   * @note   This function can be used for all STM32F10x devices.
1103:../../source/src/FWlib/src/stm32f10x_flash.c ****   * @param  OB_IWDG: Selects the IWDG mode
1104:../../source/src/FWlib/src/stm32f10x_flash.c ****   *   This parameter can be one of the following values:
1105:../../source/src/FWlib/src/stm32f10x_flash.c ****   *     @arg OB_IWDG_SW: Software IWDG selected
1106:../../source/src/FWlib/src/stm32f10x_flash.c ****   *     @arg OB_IWDG_HW: Hardware IWDG selected
1107:../../source/src/FWlib/src/stm32f10x_flash.c ****   * @param  OB_STOP: Reset event when entering STOP mode.
1108:../../source/src/FWlib/src/stm32f10x_flash.c ****   *   This parameter can be one of the following values:
1109:../../source/src/FWlib/src/stm32f10x_flash.c ****   *     @arg OB_STOP_NoRST: No reset generated when entering in STOP
1110:../../source/src/FWlib/src/stm32f10x_flash.c ****   *     @arg OB_STOP_RST: Reset generated when entering in STOP
1111:../../source/src/FWlib/src/stm32f10x_flash.c ****   * @param  OB_STDBY: Reset event when entering Standby mode.
1112:../../source/src/FWlib/src/stm32f10x_flash.c ****   *   This parameter can be one of the following values:
1113:../../source/src/FWlib/src/stm32f10x_flash.c ****   *     @arg OB_STDBY_NoRST: No reset generated when entering in STANDBY
1114:../../source/src/FWlib/src/stm32f10x_flash.c ****   *     @arg OB_STDBY_RST: Reset generated when entering in STANDBY
1115:../../source/src/FWlib/src/stm32f10x_flash.c ****   * @retval FLASH Status: The returned value can be: FLASH_ERROR_PG, 
1116:../../source/src/FWlib/src/stm32f10x_flash.c ****   *         FLASH_ERROR_WRP, FLASH_COMPLETE or FLASH_TIMEOUT.
1117:../../source/src/FWlib/src/stm32f10x_flash.c ****   */
1118:../../source/src/FWlib/src/stm32f10x_flash.c **** FLASH_Status FLASH_UserOptionByteConfig(uint16_t OB_IWDG, uint16_t OB_STOP, uint16_t OB_STDBY)
1119:../../source/src/FWlib/src/stm32f10x_flash.c **** {
1120:../../source/src/FWlib/src/stm32f10x_flash.c ****   FLASH_Status status = FLASH_COMPLETE; 
1121:../../source/src/FWlib/src/stm32f10x_flash.c **** 
1122:../../source/src/FWlib/src/stm32f10x_flash.c ****   /* Check the parameters */
1123:../../source/src/FWlib/src/stm32f10x_flash.c ****   assert_param(IS_OB_IWDG_SOURCE(OB_IWDG));
1124:../../source/src/FWlib/src/stm32f10x_flash.c ****   assert_param(IS_OB_STOP_SOURCE(OB_STOP));
1125:../../source/src/FWlib/src/stm32f10x_flash.c ****   assert_param(IS_OB_STDBY_SOURCE(OB_STDBY));
1126:../../source/src/FWlib/src/stm32f10x_flash.c **** 
1127:../../source/src/FWlib/src/stm32f10x_flash.c ****   /* Authorize the small information block programming */
1128:../../source/src/FWlib/src/stm32f10x_flash.c ****   FLASH->OPTKEYR = FLASH_KEY1;
1129:../../source/src/FWlib/src/stm32f10x_flash.c ****   FLASH->OPTKEYR = FLASH_KEY2;
1130:../../source/src/FWlib/src/stm32f10x_flash.c ****   
1131:../../source/src/FWlib/src/stm32f10x_flash.c ****   /* Wait for last operation to be completed */
1132:../../source/src/FWlib/src/stm32f10x_flash.c ****   status = FLASH_WaitForLastOperation(ProgramTimeout);
1133:../../source/src/FWlib/src/stm32f10x_flash.c ****   
1134:../../source/src/FWlib/src/stm32f10x_flash.c ****   if(status == FLASH_COMPLETE)
1135:../../source/src/FWlib/src/stm32f10x_flash.c ****   {  
ARM GAS  G:\Users\Jaxb\AppData\Local\Temp\ccck4Nii.s 			page 25


1136:../../source/src/FWlib/src/stm32f10x_flash.c ****     /* Enable the Option Bytes Programming operation */
1137:../../source/src/FWlib/src/stm32f10x_flash.c ****     FLASH->CR |= CR_OPTPG_Set; 
1138:../../source/src/FWlib/src/stm32f10x_flash.c ****            
1139:../../source/src/FWlib/src/stm32f10x_flash.c ****     OB->USER = OB_IWDG | (uint16_t)(OB_STOP | (uint16_t)(OB_STDBY | ((uint16_t)0xF8))); 
1140:../../source/src/FWlib/src/stm32f10x_flash.c ****   
1141:../../source/src/FWlib/src/stm32f10x_flash.c ****     /* Wait for last operation to be completed */
1142:../../source/src/FWlib/src/stm32f10x_flash.c ****     status = FLASH_WaitForLastOperation(ProgramTimeout);
1143:../../source/src/FWlib/src/stm32f10x_flash.c ****     if(status != FLASH_TIMEOUT)
1144:../../source/src/FWlib/src/stm32f10x_flash.c ****     {
1145:../../source/src/FWlib/src/stm32f10x_flash.c ****       /* if the program operation is completed, disable the OPTPG Bit */
1146:../../source/src/FWlib/src/stm32f10x_flash.c ****       FLASH->CR &= CR_OPTPG_Reset;
1147:../../source/src/FWlib/src/stm32f10x_flash.c ****     }
1148:../../source/src/FWlib/src/stm32f10x_flash.c ****   }    
1149:../../source/src/FWlib/src/stm32f10x_flash.c ****   /* Return the Option Byte program Status */
1150:../../source/src/FWlib/src/stm32f10x_flash.c ****   return status;
1151:../../source/src/FWlib/src/stm32f10x_flash.c **** }
1152:../../source/src/FWlib/src/stm32f10x_flash.c **** 
1153:../../source/src/FWlib/src/stm32f10x_flash.c **** #ifdef STM32F10X_XL
1154:../../source/src/FWlib/src/stm32f10x_flash.c **** /**
1155:../../source/src/FWlib/src/stm32f10x_flash.c ****   * @brief  Configures to boot from Bank1 or Bank2.  
1156:../../source/src/FWlib/src/stm32f10x_flash.c ****   * @note   This function can be used only for STM32F10x_XL density devices.
1157:../../source/src/FWlib/src/stm32f10x_flash.c ****   * @param  FLASH_BOOT: select the FLASH Bank to boot from.
1158:../../source/src/FWlib/src/stm32f10x_flash.c ****   *   This parameter can be one of the following values:
1159:../../source/src/FWlib/src/stm32f10x_flash.c ****   *     @arg FLASH_BOOT_Bank1: At startup, if boot pins are set in boot from user Flash
1160:../../source/src/FWlib/src/stm32f10x_flash.c ****   *        position and this parameter is selected the device will boot from Bank1(Default).
1161:../../source/src/FWlib/src/stm32f10x_flash.c ****   *     @arg FLASH_BOOT_Bank2: At startup, if boot pins are set in boot from user Flash
1162:../../source/src/FWlib/src/stm32f10x_flash.c ****   *        position and this parameter is selected the device will boot from Bank2 or Bank1,
1163:../../source/src/FWlib/src/stm32f10x_flash.c ****   *        depending on the activation of the bank. The active banks are checked in
1164:../../source/src/FWlib/src/stm32f10x_flash.c ****   *        the following order: Bank2, followed by Bank1.
1165:../../source/src/FWlib/src/stm32f10x_flash.c ****   *        The active bank is recognized by the value programmed at the base address
1166:../../source/src/FWlib/src/stm32f10x_flash.c ****   *        of the respective bank (corresponding to the initial stack pointer value
1167:../../source/src/FWlib/src/stm32f10x_flash.c ****   *        in the interrupt vector table).
1168:../../source/src/FWlib/src/stm32f10x_flash.c ****   *        For more information, please refer to AN2606 from www.st.com.    
1169:../../source/src/FWlib/src/stm32f10x_flash.c ****   * @retval FLASH Status: The returned value can be: FLASH_ERROR_PG, 
1170:../../source/src/FWlib/src/stm32f10x_flash.c ****   *         FLASH_ERROR_WRP, FLASH_COMPLETE or FLASH_TIMEOUT.
1171:../../source/src/FWlib/src/stm32f10x_flash.c ****   */
1172:../../source/src/FWlib/src/stm32f10x_flash.c **** FLASH_Status FLASH_BootConfig(uint16_t FLASH_BOOT)
1173:../../source/src/FWlib/src/stm32f10x_flash.c **** { 
1174:../../source/src/FWlib/src/stm32f10x_flash.c ****   FLASH_Status status = FLASH_COMPLETE; 
1175:../../source/src/FWlib/src/stm32f10x_flash.c ****   assert_param(IS_FLASH_BOOT(FLASH_BOOT));
1176:../../source/src/FWlib/src/stm32f10x_flash.c ****   /* Authorize the small information block programming */
1177:../../source/src/FWlib/src/stm32f10x_flash.c ****   FLASH->OPTKEYR = FLASH_KEY1;
1178:../../source/src/FWlib/src/stm32f10x_flash.c ****   FLASH->OPTKEYR = FLASH_KEY2;
1179:../../source/src/FWlib/src/stm32f10x_flash.c ****   
1180:../../source/src/FWlib/src/stm32f10x_flash.c ****   /* Wait for last operation to be completed */
1181:../../source/src/FWlib/src/stm32f10x_flash.c ****   status = FLASH_WaitForLastOperation(ProgramTimeout);
1182:../../source/src/FWlib/src/stm32f10x_flash.c ****   
1183:../../source/src/FWlib/src/stm32f10x_flash.c ****   if(status == FLASH_COMPLETE)
1184:../../source/src/FWlib/src/stm32f10x_flash.c ****   {  
1185:../../source/src/FWlib/src/stm32f10x_flash.c ****     /* Enable the Option Bytes Programming operation */
1186:../../source/src/FWlib/src/stm32f10x_flash.c ****     FLASH->CR |= CR_OPTPG_Set; 
1187:../../source/src/FWlib/src/stm32f10x_flash.c **** 
1188:../../source/src/FWlib/src/stm32f10x_flash.c ****     if(FLASH_BOOT == FLASH_BOOT_Bank1)
1189:../../source/src/FWlib/src/stm32f10x_flash.c ****     {
1190:../../source/src/FWlib/src/stm32f10x_flash.c ****       OB->USER |= OB_USER_BFB2;
1191:../../source/src/FWlib/src/stm32f10x_flash.c ****     }
1192:../../source/src/FWlib/src/stm32f10x_flash.c ****     else
ARM GAS  G:\Users\Jaxb\AppData\Local\Temp\ccck4Nii.s 			page 26


1193:../../source/src/FWlib/src/stm32f10x_flash.c ****     {
1194:../../source/src/FWlib/src/stm32f10x_flash.c ****       OB->USER &= (uint16_t)(~(uint16_t)(OB_USER_BFB2));
1195:../../source/src/FWlib/src/stm32f10x_flash.c ****     }
1196:../../source/src/FWlib/src/stm32f10x_flash.c ****     /* Wait for last operation to be completed */
1197:../../source/src/FWlib/src/stm32f10x_flash.c ****     status = FLASH_WaitForLastOperation(ProgramTimeout);
1198:../../source/src/FWlib/src/stm32f10x_flash.c ****     if(status != FLASH_TIMEOUT)
1199:../../source/src/FWlib/src/stm32f10x_flash.c ****     {
1200:../../source/src/FWlib/src/stm32f10x_flash.c ****       /* if the program operation is completed, disable the OPTPG Bit */
1201:../../source/src/FWlib/src/stm32f10x_flash.c ****       FLASH->CR &= CR_OPTPG_Reset;
1202:../../source/src/FWlib/src/stm32f10x_flash.c ****     }
1203:../../source/src/FWlib/src/stm32f10x_flash.c ****   }    
1204:../../source/src/FWlib/src/stm32f10x_flash.c ****   /* Return the Option Byte program Status */
1205:../../source/src/FWlib/src/stm32f10x_flash.c ****   return status;
1206:../../source/src/FWlib/src/stm32f10x_flash.c **** }
1207:../../source/src/FWlib/src/stm32f10x_flash.c **** #endif /* STM32F10X_XL */
1208:../../source/src/FWlib/src/stm32f10x_flash.c **** 
1209:../../source/src/FWlib/src/stm32f10x_flash.c **** /**
1210:../../source/src/FWlib/src/stm32f10x_flash.c ****   * @brief  Returns the FLASH User Option Bytes values.
1211:../../source/src/FWlib/src/stm32f10x_flash.c ****   * @note   This function can be used for all STM32F10x devices.
1212:../../source/src/FWlib/src/stm32f10x_flash.c ****   * @param  None
1213:../../source/src/FWlib/src/stm32f10x_flash.c ****   * @retval The FLASH User Option Bytes values:IWDG_SW(Bit0), RST_STOP(Bit1)
1214:../../source/src/FWlib/src/stm32f10x_flash.c ****   *         and RST_STDBY(Bit2).
1215:../../source/src/FWlib/src/stm32f10x_flash.c ****   */
1216:../../source/src/FWlib/src/stm32f10x_flash.c **** uint32_t FLASH_GetUserOptionByte(void)
1217:../../source/src/FWlib/src/stm32f10x_flash.c **** {
 233              		.loc 1 1217 0
 234              		.cfi_startproc
 235              		@ args = 0, pretend = 0, frame = 0
 236              		@ frame_needed = 0, uses_anonymous_args = 0
 237              		@ link register save eliminated.
1218:../../source/src/FWlib/src/stm32f10x_flash.c ****   /* Return the User Option Byte */
1219:../../source/src/FWlib/src/stm32f10x_flash.c ****   return (uint32_t)(FLASH->OBR >> 2);
 238              		.loc 1 1219 0
 239 0074 014B     		ldr	r3, .L20
 240 0076 D869     		ldr	r0, [r3, #28]
1220:../../source/src/FWlib/src/stm32f10x_flash.c **** }
 241              		.loc 1 1220 0
 242 0078 8008     		lsrs	r0, r0, #2
 243 007a 7047     		bx	lr
 244              	.L21:
 245              		.align	2
 246              	.L20:
 247 007c 00200240 		.word	1073881088
 248              		.cfi_endproc
 249              	.LFE46:
 250              		.size	FLASH_GetUserOptionByte, .-FLASH_GetUserOptionByte
 251              		.align	1
 252              		.p2align 2,,3
 253              		.global	FLASH_GetWriteProtectionOptionByte
 254              		.syntax unified
 255              		.thumb
 256              		.thumb_func
 257              		.fpu softvfp
 258              		.type	FLASH_GetWriteProtectionOptionByte, %function
 259              	FLASH_GetWriteProtectionOptionByte:
 260              	.LFB47:
1221:../../source/src/FWlib/src/stm32f10x_flash.c **** 
ARM GAS  G:\Users\Jaxb\AppData\Local\Temp\ccck4Nii.s 			page 27


1222:../../source/src/FWlib/src/stm32f10x_flash.c **** /**
1223:../../source/src/FWlib/src/stm32f10x_flash.c ****   * @brief  Returns the FLASH Write Protection Option Bytes Register value.
1224:../../source/src/FWlib/src/stm32f10x_flash.c ****   * @note   This function can be used for all STM32F10x devices.
1225:../../source/src/FWlib/src/stm32f10x_flash.c ****   * @param  None
1226:../../source/src/FWlib/src/stm32f10x_flash.c ****   * @retval The FLASH Write Protection  Option Bytes Register value
1227:../../source/src/FWlib/src/stm32f10x_flash.c ****   */
1228:../../source/src/FWlib/src/stm32f10x_flash.c **** uint32_t FLASH_GetWriteProtectionOptionByte(void)
1229:../../source/src/FWlib/src/stm32f10x_flash.c **** {
 261              		.loc 1 1229 0
 262              		.cfi_startproc
 263              		@ args = 0, pretend = 0, frame = 0
 264              		@ frame_needed = 0, uses_anonymous_args = 0
 265              		@ link register save eliminated.
1230:../../source/src/FWlib/src/stm32f10x_flash.c ****   /* Return the Flash write protection Register value */
1231:../../source/src/FWlib/src/stm32f10x_flash.c ****   return (uint32_t)(FLASH->WRPR);
 266              		.loc 1 1231 0
 267 0080 014B     		ldr	r3, .L23
 268 0082 186A     		ldr	r0, [r3, #32]
1232:../../source/src/FWlib/src/stm32f10x_flash.c **** }
 269              		.loc 1 1232 0
 270 0084 7047     		bx	lr
 271              	.L24:
 272 0086 00BF     		.align	2
 273              	.L23:
 274 0088 00200240 		.word	1073881088
 275              		.cfi_endproc
 276              	.LFE47:
 277              		.size	FLASH_GetWriteProtectionOptionByte, .-FLASH_GetWriteProtectionOptionByte
 278              		.align	1
 279              		.p2align 2,,3
 280              		.global	FLASH_GetReadOutProtectionStatus
 281              		.syntax unified
 282              		.thumb
 283              		.thumb_func
 284              		.fpu softvfp
 285              		.type	FLASH_GetReadOutProtectionStatus, %function
 286              	FLASH_GetReadOutProtectionStatus:
 287              	.LFB48:
1233:../../source/src/FWlib/src/stm32f10x_flash.c **** 
1234:../../source/src/FWlib/src/stm32f10x_flash.c **** /**
1235:../../source/src/FWlib/src/stm32f10x_flash.c ****   * @brief  Checks whether the FLASH Read Out Protection Status is set or not.
1236:../../source/src/FWlib/src/stm32f10x_flash.c ****   * @note   This function can be used for all STM32F10x devices.
1237:../../source/src/FWlib/src/stm32f10x_flash.c ****   * @param  None
1238:../../source/src/FWlib/src/stm32f10x_flash.c ****   * @retval FLASH ReadOut Protection Status(SET or RESET)
1239:../../source/src/FWlib/src/stm32f10x_flash.c ****   */
1240:../../source/src/FWlib/src/stm32f10x_flash.c **** FlagStatus FLASH_GetReadOutProtectionStatus(void)
1241:../../source/src/FWlib/src/stm32f10x_flash.c **** {
 288              		.loc 1 1241 0
 289              		.cfi_startproc
 290              		@ args = 0, pretend = 0, frame = 0
 291              		@ frame_needed = 0, uses_anonymous_args = 0
 292              		@ link register save eliminated.
 293              	.LVL8:
1242:../../source/src/FWlib/src/stm32f10x_flash.c ****   FlagStatus readoutstatus = RESET;
1243:../../source/src/FWlib/src/stm32f10x_flash.c ****   if ((FLASH->OBR & RDPRT_Mask) != (uint32_t)RESET)
 294              		.loc 1 1243 0
 295 008c 024B     		ldr	r3, .L26
ARM GAS  G:\Users\Jaxb\AppData\Local\Temp\ccck4Nii.s 			page 28


 296 008e D869     		ldr	r0, [r3, #28]
 297              	.LVL9:
1244:../../source/src/FWlib/src/stm32f10x_flash.c ****   {
1245:../../source/src/FWlib/src/stm32f10x_flash.c ****     readoutstatus = SET;
1246:../../source/src/FWlib/src/stm32f10x_flash.c ****   }
1247:../../source/src/FWlib/src/stm32f10x_flash.c ****   else
1248:../../source/src/FWlib/src/stm32f10x_flash.c ****   {
1249:../../source/src/FWlib/src/stm32f10x_flash.c ****     readoutstatus = RESET;
1250:../../source/src/FWlib/src/stm32f10x_flash.c ****   }
1251:../../source/src/FWlib/src/stm32f10x_flash.c ****   return readoutstatus;
1252:../../source/src/FWlib/src/stm32f10x_flash.c **** }
 298              		.loc 1 1252 0
 299 0090 C0F34000 		ubfx	r0, r0, #1, #1
 300              	.LVL10:
 301 0094 7047     		bx	lr
 302              	.L27:
 303 0096 00BF     		.align	2
 304              	.L26:
 305 0098 00200240 		.word	1073881088
 306              		.cfi_endproc
 307              	.LFE48:
 308              		.size	FLASH_GetReadOutProtectionStatus, .-FLASH_GetReadOutProtectionStatus
 309              		.align	1
 310              		.p2align 2,,3
 311              		.global	FLASH_GetPrefetchBufferStatus
 312              		.syntax unified
 313              		.thumb
 314              		.thumb_func
 315              		.fpu softvfp
 316              		.type	FLASH_GetPrefetchBufferStatus, %function
 317              	FLASH_GetPrefetchBufferStatus:
 318              	.LFB49:
1253:../../source/src/FWlib/src/stm32f10x_flash.c **** 
1254:../../source/src/FWlib/src/stm32f10x_flash.c **** /**
1255:../../source/src/FWlib/src/stm32f10x_flash.c ****   * @brief  Checks whether the FLASH Prefetch Buffer status is set or not.
1256:../../source/src/FWlib/src/stm32f10x_flash.c ****   * @note   This function can be used for all STM32F10x devices.
1257:../../source/src/FWlib/src/stm32f10x_flash.c ****   * @param  None
1258:../../source/src/FWlib/src/stm32f10x_flash.c ****   * @retval FLASH Prefetch Buffer Status (SET or RESET).
1259:../../source/src/FWlib/src/stm32f10x_flash.c ****   */
1260:../../source/src/FWlib/src/stm32f10x_flash.c **** FlagStatus FLASH_GetPrefetchBufferStatus(void)
1261:../../source/src/FWlib/src/stm32f10x_flash.c **** {
 319              		.loc 1 1261 0
 320              		.cfi_startproc
 321              		@ args = 0, pretend = 0, frame = 0
 322              		@ frame_needed = 0, uses_anonymous_args = 0
 323              		@ link register save eliminated.
 324              	.LVL11:
1262:../../source/src/FWlib/src/stm32f10x_flash.c ****   FlagStatus bitstatus = RESET;
1263:../../source/src/FWlib/src/stm32f10x_flash.c ****   
1264:../../source/src/FWlib/src/stm32f10x_flash.c ****   if ((FLASH->ACR & ACR_PRFTBS_Mask) != (uint32_t)RESET)
 325              		.loc 1 1264 0
 326 009c 024B     		ldr	r3, .L29
 327 009e 1868     		ldr	r0, [r3]
 328              	.LVL12:
1265:../../source/src/FWlib/src/stm32f10x_flash.c ****   {
1266:../../source/src/FWlib/src/stm32f10x_flash.c ****     bitstatus = SET;
1267:../../source/src/FWlib/src/stm32f10x_flash.c ****   }
ARM GAS  G:\Users\Jaxb\AppData\Local\Temp\ccck4Nii.s 			page 29


1268:../../source/src/FWlib/src/stm32f10x_flash.c ****   else
1269:../../source/src/FWlib/src/stm32f10x_flash.c ****   {
1270:../../source/src/FWlib/src/stm32f10x_flash.c ****     bitstatus = RESET;
1271:../../source/src/FWlib/src/stm32f10x_flash.c ****   }
1272:../../source/src/FWlib/src/stm32f10x_flash.c ****   /* Return the new state of FLASH Prefetch Buffer Status (SET or RESET) */
1273:../../source/src/FWlib/src/stm32f10x_flash.c ****   return bitstatus; 
1274:../../source/src/FWlib/src/stm32f10x_flash.c **** }
 329              		.loc 1 1274 0
 330 00a0 C0F34010 		ubfx	r0, r0, #5, #1
 331              	.LVL13:
 332 00a4 7047     		bx	lr
 333              	.L30:
 334 00a6 00BF     		.align	2
 335              	.L29:
 336 00a8 00200240 		.word	1073881088
 337              		.cfi_endproc
 338              	.LFE49:
 339              		.size	FLASH_GetPrefetchBufferStatus, .-FLASH_GetPrefetchBufferStatus
 340              		.align	1
 341              		.p2align 2,,3
 342              		.global	FLASH_ITConfig
 343              		.syntax unified
 344              		.thumb
 345              		.thumb_func
 346              		.fpu softvfp
 347              		.type	FLASH_ITConfig, %function
 348              	FLASH_ITConfig:
 349              	.LFB50:
1275:../../source/src/FWlib/src/stm32f10x_flash.c **** 
1276:../../source/src/FWlib/src/stm32f10x_flash.c **** /**
1277:../../source/src/FWlib/src/stm32f10x_flash.c ****   * @brief  Enables or disables the specified FLASH interrupts.
1278:../../source/src/FWlib/src/stm32f10x_flash.c ****   * @note   This function can be used for all STM32F10x devices.
1279:../../source/src/FWlib/src/stm32f10x_flash.c ****   *         - For STM32F10X_XL devices, enables or disables the specified FLASH interrupts
1280:../../source/src/FWlib/src/stm32f10x_flash.c ****               for Bank1 and Bank2.
1281:../../source/src/FWlib/src/stm32f10x_flash.c ****   *         - For other devices it enables or disables the specified FLASH interrupts for Bank1.
1282:../../source/src/FWlib/src/stm32f10x_flash.c ****   * @param  FLASH_IT: specifies the FLASH interrupt sources to be enabled or disabled.
1283:../../source/src/FWlib/src/stm32f10x_flash.c ****   *   This parameter can be any combination of the following values:
1284:../../source/src/FWlib/src/stm32f10x_flash.c ****   *     @arg FLASH_IT_ERROR: FLASH Error Interrupt
1285:../../source/src/FWlib/src/stm32f10x_flash.c ****   *     @arg FLASH_IT_EOP: FLASH end of operation Interrupt
1286:../../source/src/FWlib/src/stm32f10x_flash.c ****   * @param  NewState: new state of the specified Flash interrupts.
1287:../../source/src/FWlib/src/stm32f10x_flash.c ****   *   This parameter can be: ENABLE or DISABLE.      
1288:../../source/src/FWlib/src/stm32f10x_flash.c ****   * @retval None 
1289:../../source/src/FWlib/src/stm32f10x_flash.c ****   */
1290:../../source/src/FWlib/src/stm32f10x_flash.c **** void FLASH_ITConfig(uint32_t FLASH_IT, FunctionalState NewState)
1291:../../source/src/FWlib/src/stm32f10x_flash.c **** {
 350              		.loc 1 1291 0
 351              		.cfi_startproc
 352              		@ args = 0, pretend = 0, frame = 0
 353              		@ frame_needed = 0, uses_anonymous_args = 0
 354              		@ link register save eliminated.
 355              	.LVL14:
1292:../../source/src/FWlib/src/stm32f10x_flash.c **** #ifdef STM32F10X_XL
1293:../../source/src/FWlib/src/stm32f10x_flash.c ****   /* Check the parameters */
1294:../../source/src/FWlib/src/stm32f10x_flash.c ****   assert_param(IS_FLASH_IT(FLASH_IT)); 
1295:../../source/src/FWlib/src/stm32f10x_flash.c ****   assert_param(IS_FUNCTIONAL_STATE(NewState));
1296:../../source/src/FWlib/src/stm32f10x_flash.c **** 
1297:../../source/src/FWlib/src/stm32f10x_flash.c ****   if((FLASH_IT & 0x80000000) != 0x0)
ARM GAS  G:\Users\Jaxb\AppData\Local\Temp\ccck4Nii.s 			page 30


1298:../../source/src/FWlib/src/stm32f10x_flash.c ****   {
1299:../../source/src/FWlib/src/stm32f10x_flash.c ****     if(NewState != DISABLE)
1300:../../source/src/FWlib/src/stm32f10x_flash.c ****     {
1301:../../source/src/FWlib/src/stm32f10x_flash.c ****       /* Enable the interrupt sources */
1302:../../source/src/FWlib/src/stm32f10x_flash.c ****       FLASH->CR2 |= (FLASH_IT & 0x7FFFFFFF);
1303:../../source/src/FWlib/src/stm32f10x_flash.c ****     }
1304:../../source/src/FWlib/src/stm32f10x_flash.c ****     else
1305:../../source/src/FWlib/src/stm32f10x_flash.c ****     {
1306:../../source/src/FWlib/src/stm32f10x_flash.c ****       /* Disable the interrupt sources */
1307:../../source/src/FWlib/src/stm32f10x_flash.c ****       FLASH->CR2 &= ~(uint32_t)(FLASH_IT & 0x7FFFFFFF);
1308:../../source/src/FWlib/src/stm32f10x_flash.c ****     }
1309:../../source/src/FWlib/src/stm32f10x_flash.c ****   }
1310:../../source/src/FWlib/src/stm32f10x_flash.c ****   else
1311:../../source/src/FWlib/src/stm32f10x_flash.c ****   {
1312:../../source/src/FWlib/src/stm32f10x_flash.c ****     if(NewState != DISABLE)
1313:../../source/src/FWlib/src/stm32f10x_flash.c ****     {
1314:../../source/src/FWlib/src/stm32f10x_flash.c ****       /* Enable the interrupt sources */
1315:../../source/src/FWlib/src/stm32f10x_flash.c ****       FLASH->CR |= FLASH_IT;
1316:../../source/src/FWlib/src/stm32f10x_flash.c ****     }
1317:../../source/src/FWlib/src/stm32f10x_flash.c ****     else
1318:../../source/src/FWlib/src/stm32f10x_flash.c ****     {
1319:../../source/src/FWlib/src/stm32f10x_flash.c ****       /* Disable the interrupt sources */
1320:../../source/src/FWlib/src/stm32f10x_flash.c ****       FLASH->CR &= ~(uint32_t)FLASH_IT;
1321:../../source/src/FWlib/src/stm32f10x_flash.c ****     }
1322:../../source/src/FWlib/src/stm32f10x_flash.c ****   }
1323:../../source/src/FWlib/src/stm32f10x_flash.c **** #else
1324:../../source/src/FWlib/src/stm32f10x_flash.c ****   /* Check the parameters */
1325:../../source/src/FWlib/src/stm32f10x_flash.c ****   assert_param(IS_FLASH_IT(FLASH_IT)); 
1326:../../source/src/FWlib/src/stm32f10x_flash.c ****   assert_param(IS_FUNCTIONAL_STATE(NewState));
1327:../../source/src/FWlib/src/stm32f10x_flash.c **** 
1328:../../source/src/FWlib/src/stm32f10x_flash.c ****   if(NewState != DISABLE)
1329:../../source/src/FWlib/src/stm32f10x_flash.c ****   {
1330:../../source/src/FWlib/src/stm32f10x_flash.c ****     /* Enable the interrupt sources */
1331:../../source/src/FWlib/src/stm32f10x_flash.c ****     FLASH->CR |= FLASH_IT;
 356              		.loc 1 1331 0
 357 00ac 044A     		ldr	r2, .L35
 358 00ae 1369     		ldr	r3, [r2, #16]
1328:../../source/src/FWlib/src/stm32f10x_flash.c ****   {
 359              		.loc 1 1328 0
 360 00b0 19B9     		cbnz	r1, .L34
1332:../../source/src/FWlib/src/stm32f10x_flash.c ****   }
1333:../../source/src/FWlib/src/stm32f10x_flash.c ****   else
1334:../../source/src/FWlib/src/stm32f10x_flash.c ****   {
1335:../../source/src/FWlib/src/stm32f10x_flash.c ****     /* Disable the interrupt sources */
1336:../../source/src/FWlib/src/stm32f10x_flash.c ****     FLASH->CR &= ~(uint32_t)FLASH_IT;
 361              		.loc 1 1336 0
 362 00b2 23EA0000 		bic	r0, r3, r0
 363              	.LVL15:
 364 00b6 1061     		str	r0, [r2, #16]
1337:../../source/src/FWlib/src/stm32f10x_flash.c ****   }
1338:../../source/src/FWlib/src/stm32f10x_flash.c **** #endif /* STM32F10X_XL */
1339:../../source/src/FWlib/src/stm32f10x_flash.c **** }
 365              		.loc 1 1339 0
 366 00b8 7047     		bx	lr
 367              	.LVL16:
 368              	.L34:
1331:../../source/src/FWlib/src/stm32f10x_flash.c ****   }
ARM GAS  G:\Users\Jaxb\AppData\Local\Temp\ccck4Nii.s 			page 31


 369              		.loc 1 1331 0
 370 00ba 1843     		orrs	r0, r0, r3
 371              	.LVL17:
 372 00bc 1061     		str	r0, [r2, #16]
 373 00be 7047     		bx	lr
 374              	.L36:
 375              		.align	2
 376              	.L35:
 377 00c0 00200240 		.word	1073881088
 378              		.cfi_endproc
 379              	.LFE50:
 380              		.size	FLASH_ITConfig, .-FLASH_ITConfig
 381              		.align	1
 382              		.p2align 2,,3
 383              		.global	FLASH_GetFlagStatus
 384              		.syntax unified
 385              		.thumb
 386              		.thumb_func
 387              		.fpu softvfp
 388              		.type	FLASH_GetFlagStatus, %function
 389              	FLASH_GetFlagStatus:
 390              	.LFB51:
1340:../../source/src/FWlib/src/stm32f10x_flash.c **** 
1341:../../source/src/FWlib/src/stm32f10x_flash.c **** /**
1342:../../source/src/FWlib/src/stm32f10x_flash.c ****   * @brief  Checks whether the specified FLASH flag is set or not.
1343:../../source/src/FWlib/src/stm32f10x_flash.c ****   * @note   This function can be used for all STM32F10x devices.
1344:../../source/src/FWlib/src/stm32f10x_flash.c ****   *         - For STM32F10X_XL devices, this function checks whether the specified 
1345:../../source/src/FWlib/src/stm32f10x_flash.c ****   *           Bank1 or Bank2 flag is set or not.
1346:../../source/src/FWlib/src/stm32f10x_flash.c ****   *         - For other devices, it checks whether the specified Bank1 flag is 
1347:../../source/src/FWlib/src/stm32f10x_flash.c ****   *           set or not.
1348:../../source/src/FWlib/src/stm32f10x_flash.c ****   * @param  FLASH_FLAG: specifies the FLASH flag to check.
1349:../../source/src/FWlib/src/stm32f10x_flash.c ****   *   This parameter can be one of the following values:
1350:../../source/src/FWlib/src/stm32f10x_flash.c ****   *     @arg FLASH_FLAG_BSY: FLASH Busy flag           
1351:../../source/src/FWlib/src/stm32f10x_flash.c ****   *     @arg FLASH_FLAG_PGERR: FLASH Program error flag       
1352:../../source/src/FWlib/src/stm32f10x_flash.c ****   *     @arg FLASH_FLAG_WRPRTERR: FLASH Write protected error flag      
1353:../../source/src/FWlib/src/stm32f10x_flash.c ****   *     @arg FLASH_FLAG_EOP: FLASH End of Operation flag           
1354:../../source/src/FWlib/src/stm32f10x_flash.c ****   *     @arg FLASH_FLAG_OPTERR:  FLASH Option Byte error flag     
1355:../../source/src/FWlib/src/stm32f10x_flash.c ****   * @retval The new state of FLASH_FLAG (SET or RESET).
1356:../../source/src/FWlib/src/stm32f10x_flash.c ****   */
1357:../../source/src/FWlib/src/stm32f10x_flash.c **** FlagStatus FLASH_GetFlagStatus(uint32_t FLASH_FLAG)
1358:../../source/src/FWlib/src/stm32f10x_flash.c **** {
 391              		.loc 1 1358 0
 392              		.cfi_startproc
 393              		@ args = 0, pretend = 0, frame = 0
 394              		@ frame_needed = 0, uses_anonymous_args = 0
 395              		@ link register save eliminated.
 396              	.LVL18:
1359:../../source/src/FWlib/src/stm32f10x_flash.c ****   FlagStatus bitstatus = RESET;
1360:../../source/src/FWlib/src/stm32f10x_flash.c **** 
1361:../../source/src/FWlib/src/stm32f10x_flash.c **** #ifdef STM32F10X_XL
1362:../../source/src/FWlib/src/stm32f10x_flash.c ****   /* Check the parameters */
1363:../../source/src/FWlib/src/stm32f10x_flash.c ****   assert_param(IS_FLASH_GET_FLAG(FLASH_FLAG)) ;
1364:../../source/src/FWlib/src/stm32f10x_flash.c ****   if(FLASH_FLAG == FLASH_FLAG_OPTERR) 
1365:../../source/src/FWlib/src/stm32f10x_flash.c ****   {
1366:../../source/src/FWlib/src/stm32f10x_flash.c ****     if((FLASH->OBR & FLASH_FLAG_OPTERR) != (uint32_t)RESET)
1367:../../source/src/FWlib/src/stm32f10x_flash.c ****     {
1368:../../source/src/FWlib/src/stm32f10x_flash.c ****       bitstatus = SET;
ARM GAS  G:\Users\Jaxb\AppData\Local\Temp\ccck4Nii.s 			page 32


1369:../../source/src/FWlib/src/stm32f10x_flash.c ****     }
1370:../../source/src/FWlib/src/stm32f10x_flash.c ****     else
1371:../../source/src/FWlib/src/stm32f10x_flash.c ****     {
1372:../../source/src/FWlib/src/stm32f10x_flash.c ****       bitstatus = RESET;
1373:../../source/src/FWlib/src/stm32f10x_flash.c ****     }
1374:../../source/src/FWlib/src/stm32f10x_flash.c ****   }
1375:../../source/src/FWlib/src/stm32f10x_flash.c ****   else
1376:../../source/src/FWlib/src/stm32f10x_flash.c ****   {
1377:../../source/src/FWlib/src/stm32f10x_flash.c ****     if((FLASH_FLAG & 0x80000000) != 0x0)
1378:../../source/src/FWlib/src/stm32f10x_flash.c ****     {
1379:../../source/src/FWlib/src/stm32f10x_flash.c ****       if((FLASH->SR2 & FLASH_FLAG) != (uint32_t)RESET)
1380:../../source/src/FWlib/src/stm32f10x_flash.c ****       {
1381:../../source/src/FWlib/src/stm32f10x_flash.c ****         bitstatus = SET;
1382:../../source/src/FWlib/src/stm32f10x_flash.c ****       }
1383:../../source/src/FWlib/src/stm32f10x_flash.c ****       else
1384:../../source/src/FWlib/src/stm32f10x_flash.c ****       {
1385:../../source/src/FWlib/src/stm32f10x_flash.c ****         bitstatus = RESET;
1386:../../source/src/FWlib/src/stm32f10x_flash.c ****       }
1387:../../source/src/FWlib/src/stm32f10x_flash.c ****     }
1388:../../source/src/FWlib/src/stm32f10x_flash.c ****     else
1389:../../source/src/FWlib/src/stm32f10x_flash.c ****     {
1390:../../source/src/FWlib/src/stm32f10x_flash.c ****       if((FLASH->SR & FLASH_FLAG) != (uint32_t)RESET)
1391:../../source/src/FWlib/src/stm32f10x_flash.c ****       {
1392:../../source/src/FWlib/src/stm32f10x_flash.c ****         bitstatus = SET;
1393:../../source/src/FWlib/src/stm32f10x_flash.c ****       }
1394:../../source/src/FWlib/src/stm32f10x_flash.c ****       else
1395:../../source/src/FWlib/src/stm32f10x_flash.c ****       {
1396:../../source/src/FWlib/src/stm32f10x_flash.c ****         bitstatus = RESET;
1397:../../source/src/FWlib/src/stm32f10x_flash.c ****       }
1398:../../source/src/FWlib/src/stm32f10x_flash.c ****     }
1399:../../source/src/FWlib/src/stm32f10x_flash.c ****   }
1400:../../source/src/FWlib/src/stm32f10x_flash.c **** #else
1401:../../source/src/FWlib/src/stm32f10x_flash.c ****   /* Check the parameters */
1402:../../source/src/FWlib/src/stm32f10x_flash.c ****   assert_param(IS_FLASH_GET_FLAG(FLASH_FLAG)) ;
1403:../../source/src/FWlib/src/stm32f10x_flash.c ****   if(FLASH_FLAG == FLASH_FLAG_OPTERR) 
 397              		.loc 1 1403 0
 398 00c4 0128     		cmp	r0, #1
1404:../../source/src/FWlib/src/stm32f10x_flash.c ****   {
1405:../../source/src/FWlib/src/stm32f10x_flash.c ****     if((FLASH->OBR & FLASH_FLAG_OPTERR) != (uint32_t)RESET)
 399              		.loc 1 1405 0
 400 00c6 064B     		ldr	r3, .L41
1403:../../source/src/FWlib/src/stm32f10x_flash.c ****   {
 401              		.loc 1 1403 0
 402 00c8 05D0     		beq	.L40
1406:../../source/src/FWlib/src/stm32f10x_flash.c ****     {
1407:../../source/src/FWlib/src/stm32f10x_flash.c ****       bitstatus = SET;
1408:../../source/src/FWlib/src/stm32f10x_flash.c ****     }
1409:../../source/src/FWlib/src/stm32f10x_flash.c ****     else
1410:../../source/src/FWlib/src/stm32f10x_flash.c ****     {
1411:../../source/src/FWlib/src/stm32f10x_flash.c ****       bitstatus = RESET;
1412:../../source/src/FWlib/src/stm32f10x_flash.c ****     }
1413:../../source/src/FWlib/src/stm32f10x_flash.c ****   }
1414:../../source/src/FWlib/src/stm32f10x_flash.c ****   else
1415:../../source/src/FWlib/src/stm32f10x_flash.c ****   {
1416:../../source/src/FWlib/src/stm32f10x_flash.c ****    if((FLASH->SR & FLASH_FLAG) != (uint32_t)RESET)
 403              		.loc 1 1416 0
 404 00ca DB68     		ldr	r3, [r3, #12]
ARM GAS  G:\Users\Jaxb\AppData\Local\Temp\ccck4Nii.s 			page 33


 405 00cc 0342     		tst	r3, r0
1411:../../source/src/FWlib/src/stm32f10x_flash.c ****     }
 406              		.loc 1 1411 0
 407 00ce 14BF     		ite	ne
 408 00d0 0120     		movne	r0, #1
 409              	.LVL19:
 410 00d2 0020     		moveq	r0, #0
 411              	.LVL20:
1417:../../source/src/FWlib/src/stm32f10x_flash.c ****     {
1418:../../source/src/FWlib/src/stm32f10x_flash.c ****       bitstatus = SET;
1419:../../source/src/FWlib/src/stm32f10x_flash.c ****     }
1420:../../source/src/FWlib/src/stm32f10x_flash.c ****     else
1421:../../source/src/FWlib/src/stm32f10x_flash.c ****     {
1422:../../source/src/FWlib/src/stm32f10x_flash.c ****       bitstatus = RESET;
1423:../../source/src/FWlib/src/stm32f10x_flash.c ****     }
1424:../../source/src/FWlib/src/stm32f10x_flash.c ****   }
1425:../../source/src/FWlib/src/stm32f10x_flash.c **** #endif /* STM32F10X_XL */
1426:../../source/src/FWlib/src/stm32f10x_flash.c **** 
1427:../../source/src/FWlib/src/stm32f10x_flash.c ****   /* Return the new state of FLASH_FLAG (SET or RESET) */
1428:../../source/src/FWlib/src/stm32f10x_flash.c ****   return bitstatus;
1429:../../source/src/FWlib/src/stm32f10x_flash.c **** }
 412              		.loc 1 1429 0
 413 00d4 7047     		bx	lr
 414              	.LVL21:
 415              	.L40:
1405:../../source/src/FWlib/src/stm32f10x_flash.c ****     {
 416              		.loc 1 1405 0
 417 00d6 D869     		ldr	r0, [r3, #28]
 418              	.LVL22:
1411:../../source/src/FWlib/src/stm32f10x_flash.c ****     }
 419              		.loc 1 1411 0
 420 00d8 00F00100 		and	r0, r0, #1
 421 00dc 7047     		bx	lr
 422              	.L42:
 423 00de 00BF     		.align	2
 424              	.L41:
 425 00e0 00200240 		.word	1073881088
 426              		.cfi_endproc
 427              	.LFE51:
 428              		.size	FLASH_GetFlagStatus, .-FLASH_GetFlagStatus
 429              		.align	1
 430              		.p2align 2,,3
 431              		.global	FLASH_ClearFlag
 432              		.syntax unified
 433              		.thumb
 434              		.thumb_func
 435              		.fpu softvfp
 436              		.type	FLASH_ClearFlag, %function
 437              	FLASH_ClearFlag:
 438              	.LFB52:
1430:../../source/src/FWlib/src/stm32f10x_flash.c **** 
1431:../../source/src/FWlib/src/stm32f10x_flash.c **** /**
1432:../../source/src/FWlib/src/stm32f10x_flash.c ****   * @brief  Clears the FLASH's pending flags.
1433:../../source/src/FWlib/src/stm32f10x_flash.c ****   * @note   This function can be used for all STM32F10x devices.
1434:../../source/src/FWlib/src/stm32f10x_flash.c ****   *         - For STM32F10X_XL devices, this function clears Bank1 or Bank2s pending flags
1435:../../source/src/FWlib/src/stm32f10x_flash.c ****   *         - For other devices, it clears Bank1s pending flags.
1436:../../source/src/FWlib/src/stm32f10x_flash.c ****   * @param  FLASH_FLAG: specifies the FLASH flags to clear.
ARM GAS  G:\Users\Jaxb\AppData\Local\Temp\ccck4Nii.s 			page 34


1437:../../source/src/FWlib/src/stm32f10x_flash.c ****   *   This parameter can be any combination of the following values:         
1438:../../source/src/FWlib/src/stm32f10x_flash.c ****   *     @arg FLASH_FLAG_PGERR: FLASH Program error flag       
1439:../../source/src/FWlib/src/stm32f10x_flash.c ****   *     @arg FLASH_FLAG_WRPRTERR: FLASH Write protected error flag      
1440:../../source/src/FWlib/src/stm32f10x_flash.c ****   *     @arg FLASH_FLAG_EOP: FLASH End of Operation flag           
1441:../../source/src/FWlib/src/stm32f10x_flash.c ****   * @retval None
1442:../../source/src/FWlib/src/stm32f10x_flash.c ****   */
1443:../../source/src/FWlib/src/stm32f10x_flash.c **** void FLASH_ClearFlag(uint32_t FLASH_FLAG)
1444:../../source/src/FWlib/src/stm32f10x_flash.c **** {
 439              		.loc 1 1444 0
 440              		.cfi_startproc
 441              		@ args = 0, pretend = 0, frame = 0
 442              		@ frame_needed = 0, uses_anonymous_args = 0
 443              		@ link register save eliminated.
 444              	.LVL23:
1445:../../source/src/FWlib/src/stm32f10x_flash.c **** #ifdef STM32F10X_XL
1446:../../source/src/FWlib/src/stm32f10x_flash.c ****   /* Check the parameters */
1447:../../source/src/FWlib/src/stm32f10x_flash.c ****   assert_param(IS_FLASH_CLEAR_FLAG(FLASH_FLAG)) ;
1448:../../source/src/FWlib/src/stm32f10x_flash.c **** 
1449:../../source/src/FWlib/src/stm32f10x_flash.c ****   if((FLASH_FLAG & 0x80000000) != 0x0)
1450:../../source/src/FWlib/src/stm32f10x_flash.c ****   {
1451:../../source/src/FWlib/src/stm32f10x_flash.c ****     /* Clear the flags */
1452:../../source/src/FWlib/src/stm32f10x_flash.c ****     FLASH->SR2 = FLASH_FLAG;
1453:../../source/src/FWlib/src/stm32f10x_flash.c ****   }
1454:../../source/src/FWlib/src/stm32f10x_flash.c ****   else
1455:../../source/src/FWlib/src/stm32f10x_flash.c ****   {
1456:../../source/src/FWlib/src/stm32f10x_flash.c ****     /* Clear the flags */
1457:../../source/src/FWlib/src/stm32f10x_flash.c ****     FLASH->SR = FLASH_FLAG;
1458:../../source/src/FWlib/src/stm32f10x_flash.c ****   }  
1459:../../source/src/FWlib/src/stm32f10x_flash.c **** 
1460:../../source/src/FWlib/src/stm32f10x_flash.c **** #else
1461:../../source/src/FWlib/src/stm32f10x_flash.c ****   /* Check the parameters */
1462:../../source/src/FWlib/src/stm32f10x_flash.c ****   assert_param(IS_FLASH_CLEAR_FLAG(FLASH_FLAG)) ;
1463:../../source/src/FWlib/src/stm32f10x_flash.c ****   
1464:../../source/src/FWlib/src/stm32f10x_flash.c ****   /* Clear the flags */
1465:../../source/src/FWlib/src/stm32f10x_flash.c ****   FLASH->SR = FLASH_FLAG;
 445              		.loc 1 1465 0
 446 00e4 014B     		ldr	r3, .L44
 447 00e6 D860     		str	r0, [r3, #12]
1466:../../source/src/FWlib/src/stm32f10x_flash.c **** #endif /* STM32F10X_XL */
1467:../../source/src/FWlib/src/stm32f10x_flash.c **** }
 448              		.loc 1 1467 0
 449 00e8 7047     		bx	lr
 450              	.L45:
 451 00ea 00BF     		.align	2
 452              	.L44:
 453 00ec 00200240 		.word	1073881088
 454              		.cfi_endproc
 455              	.LFE52:
 456              		.size	FLASH_ClearFlag, .-FLASH_ClearFlag
 457              		.align	1
 458              		.p2align 2,,3
 459              		.global	FLASH_GetStatus
 460              		.syntax unified
 461              		.thumb
 462              		.thumb_func
 463              		.fpu softvfp
 464              		.type	FLASH_GetStatus, %function
ARM GAS  G:\Users\Jaxb\AppData\Local\Temp\ccck4Nii.s 			page 35


 465              	FLASH_GetStatus:
 466              	.LFB53:
1468:../../source/src/FWlib/src/stm32f10x_flash.c **** 
1469:../../source/src/FWlib/src/stm32f10x_flash.c **** /**
1470:../../source/src/FWlib/src/stm32f10x_flash.c ****   * @brief  Returns the FLASH Status.
1471:../../source/src/FWlib/src/stm32f10x_flash.c ****   * @note   This function can be used for all STM32F10x devices, it is equivalent
1472:../../source/src/FWlib/src/stm32f10x_flash.c ****   *         to FLASH_GetBank1Status function.
1473:../../source/src/FWlib/src/stm32f10x_flash.c ****   * @param  None
1474:../../source/src/FWlib/src/stm32f10x_flash.c ****   * @retval FLASH Status: The returned value can be: FLASH_BUSY, FLASH_ERROR_PG,
1475:../../source/src/FWlib/src/stm32f10x_flash.c ****   *         FLASH_ERROR_WRP or FLASH_COMPLETE
1476:../../source/src/FWlib/src/stm32f10x_flash.c ****   */
1477:../../source/src/FWlib/src/stm32f10x_flash.c **** FLASH_Status FLASH_GetStatus(void)
1478:../../source/src/FWlib/src/stm32f10x_flash.c **** {
 467              		.loc 1 1478 0
 468              		.cfi_startproc
 469              		@ args = 0, pretend = 0, frame = 0
 470              		@ frame_needed = 0, uses_anonymous_args = 0
 471              		@ link register save eliminated.
 472              	.LVL24:
1479:../../source/src/FWlib/src/stm32f10x_flash.c ****   FLASH_Status flashstatus = FLASH_COMPLETE;
1480:../../source/src/FWlib/src/stm32f10x_flash.c ****   
1481:../../source/src/FWlib/src/stm32f10x_flash.c ****   if((FLASH->SR & FLASH_FLAG_BSY) == FLASH_FLAG_BSY) 
 473              		.loc 1 1481 0
 474 00f0 084B     		ldr	r3, .L51
 475 00f2 DA68     		ldr	r2, [r3, #12]
 476 00f4 D107     		lsls	r1, r2, #31
 477 00f6 09D4     		bmi	.L48
1482:../../source/src/FWlib/src/stm32f10x_flash.c ****   {
1483:../../source/src/FWlib/src/stm32f10x_flash.c ****     flashstatus = FLASH_BUSY;
1484:../../source/src/FWlib/src/stm32f10x_flash.c ****   }
1485:../../source/src/FWlib/src/stm32f10x_flash.c ****   else 
1486:../../source/src/FWlib/src/stm32f10x_flash.c ****   {  
1487:../../source/src/FWlib/src/stm32f10x_flash.c ****     if((FLASH->SR & FLASH_FLAG_PGERR) != 0)
 478              		.loc 1 1487 0
 479 00f8 DA68     		ldr	r2, [r3, #12]
 480 00fa 5207     		lsls	r2, r2, #29
 481 00fc 08D4     		bmi	.L49
1488:../../source/src/FWlib/src/stm32f10x_flash.c ****     { 
1489:../../source/src/FWlib/src/stm32f10x_flash.c ****       flashstatus = FLASH_ERROR_PG;
1490:../../source/src/FWlib/src/stm32f10x_flash.c ****     }
1491:../../source/src/FWlib/src/stm32f10x_flash.c ****     else 
1492:../../source/src/FWlib/src/stm32f10x_flash.c ****     {
1493:../../source/src/FWlib/src/stm32f10x_flash.c ****       if((FLASH->SR & FLASH_FLAG_WRPRTERR) != 0 )
 482              		.loc 1 1493 0
 483 00fe DB68     		ldr	r3, [r3, #12]
 484 0100 13F0100F 		tst	r3, #16
1494:../../source/src/FWlib/src/stm32f10x_flash.c ****       {
1495:../../source/src/FWlib/src/stm32f10x_flash.c ****         flashstatus = FLASH_ERROR_WRP;
1496:../../source/src/FWlib/src/stm32f10x_flash.c ****       }
1497:../../source/src/FWlib/src/stm32f10x_flash.c ****       else
1498:../../source/src/FWlib/src/stm32f10x_flash.c ****       {
1499:../../source/src/FWlib/src/stm32f10x_flash.c ****         flashstatus = FLASH_COMPLETE;
 485              		.loc 1 1499 0
 486 0104 14BF     		ite	ne
 487 0106 0320     		movne	r0, #3
 488 0108 0420     		moveq	r0, #4
 489 010a 7047     		bx	lr
ARM GAS  G:\Users\Jaxb\AppData\Local\Temp\ccck4Nii.s 			page 36


 490              	.L48:
1483:../../source/src/FWlib/src/stm32f10x_flash.c ****   }
 491              		.loc 1 1483 0
 492 010c 0120     		movs	r0, #1
 493 010e 7047     		bx	lr
 494              	.L49:
1489:../../source/src/FWlib/src/stm32f10x_flash.c ****     }
 495              		.loc 1 1489 0
 496 0110 0220     		movs	r0, #2
 497              	.LVL25:
1500:../../source/src/FWlib/src/stm32f10x_flash.c ****       }
1501:../../source/src/FWlib/src/stm32f10x_flash.c ****     }
1502:../../source/src/FWlib/src/stm32f10x_flash.c ****   }
1503:../../source/src/FWlib/src/stm32f10x_flash.c ****   /* Return the Flash Status */
1504:../../source/src/FWlib/src/stm32f10x_flash.c ****   return flashstatus;
1505:../../source/src/FWlib/src/stm32f10x_flash.c **** }
 498              		.loc 1 1505 0
 499 0112 7047     		bx	lr
 500              	.L52:
 501              		.align	2
 502              	.L51:
 503 0114 00200240 		.word	1073881088
 504              		.cfi_endproc
 505              	.LFE53:
 506              		.size	FLASH_GetStatus, .-FLASH_GetStatus
 507              		.align	1
 508              		.p2align 2,,3
 509              		.global	FLASH_GetBank1Status
 510              		.syntax unified
 511              		.thumb
 512              		.thumb_func
 513              		.fpu softvfp
 514              		.type	FLASH_GetBank1Status, %function
 515              	FLASH_GetBank1Status:
 516              	.LFB54:
1506:../../source/src/FWlib/src/stm32f10x_flash.c **** 
1507:../../source/src/FWlib/src/stm32f10x_flash.c **** /**
1508:../../source/src/FWlib/src/stm32f10x_flash.c ****   * @brief  Returns the FLASH Bank1 Status.
1509:../../source/src/FWlib/src/stm32f10x_flash.c ****   * @note   This function can be used for all STM32F10x devices, it is equivalent
1510:../../source/src/FWlib/src/stm32f10x_flash.c ****   *         to FLASH_GetStatus function.
1511:../../source/src/FWlib/src/stm32f10x_flash.c ****   * @param  None
1512:../../source/src/FWlib/src/stm32f10x_flash.c ****   * @retval FLASH Status: The returned value can be: FLASH_BUSY, FLASH_ERROR_PG,
1513:../../source/src/FWlib/src/stm32f10x_flash.c ****   *         FLASH_ERROR_WRP or FLASH_COMPLETE
1514:../../source/src/FWlib/src/stm32f10x_flash.c ****   */
1515:../../source/src/FWlib/src/stm32f10x_flash.c **** FLASH_Status FLASH_GetBank1Status(void)
1516:../../source/src/FWlib/src/stm32f10x_flash.c **** {
 517              		.loc 1 1516 0
 518              		.cfi_startproc
 519              		@ args = 0, pretend = 0, frame = 0
 520              		@ frame_needed = 0, uses_anonymous_args = 0
 521              		@ link register save eliminated.
 522              	.LVL26:
1517:../../source/src/FWlib/src/stm32f10x_flash.c ****   FLASH_Status flashstatus = FLASH_COMPLETE;
1518:../../source/src/FWlib/src/stm32f10x_flash.c ****   
1519:../../source/src/FWlib/src/stm32f10x_flash.c ****   if((FLASH->SR & FLASH_FLAG_BANK1_BSY) == FLASH_FLAG_BSY) 
 523              		.loc 1 1519 0
 524 0118 084B     		ldr	r3, .L58
ARM GAS  G:\Users\Jaxb\AppData\Local\Temp\ccck4Nii.s 			page 37


 525 011a DA68     		ldr	r2, [r3, #12]
 526 011c D107     		lsls	r1, r2, #31
 527 011e 09D4     		bmi	.L55
1520:../../source/src/FWlib/src/stm32f10x_flash.c ****   {
1521:../../source/src/FWlib/src/stm32f10x_flash.c ****     flashstatus = FLASH_BUSY;
1522:../../source/src/FWlib/src/stm32f10x_flash.c ****   }
1523:../../source/src/FWlib/src/stm32f10x_flash.c ****   else 
1524:../../source/src/FWlib/src/stm32f10x_flash.c ****   {  
1525:../../source/src/FWlib/src/stm32f10x_flash.c ****     if((FLASH->SR & FLASH_FLAG_BANK1_PGERR) != 0)
 528              		.loc 1 1525 0
 529 0120 DA68     		ldr	r2, [r3, #12]
 530 0122 5207     		lsls	r2, r2, #29
 531 0124 08D4     		bmi	.L56
 532              	.LBB6:
 533              	.LBB7:
1526:../../source/src/FWlib/src/stm32f10x_flash.c ****     { 
1527:../../source/src/FWlib/src/stm32f10x_flash.c ****       flashstatus = FLASH_ERROR_PG;
1528:../../source/src/FWlib/src/stm32f10x_flash.c ****     }
1529:../../source/src/FWlib/src/stm32f10x_flash.c ****     else 
1530:../../source/src/FWlib/src/stm32f10x_flash.c ****     {
1531:../../source/src/FWlib/src/stm32f10x_flash.c ****       if((FLASH->SR & FLASH_FLAG_BANK1_WRPRTERR) != 0 )
 534              		.loc 1 1531 0
 535 0126 DB68     		ldr	r3, [r3, #12]
 536 0128 13F0100F 		tst	r3, #16
1532:../../source/src/FWlib/src/stm32f10x_flash.c ****       {
1533:../../source/src/FWlib/src/stm32f10x_flash.c ****         flashstatus = FLASH_ERROR_WRP;
1534:../../source/src/FWlib/src/stm32f10x_flash.c ****       }
1535:../../source/src/FWlib/src/stm32f10x_flash.c ****       else
1536:../../source/src/FWlib/src/stm32f10x_flash.c ****       {
1537:../../source/src/FWlib/src/stm32f10x_flash.c ****         flashstatus = FLASH_COMPLETE;
 537              		.loc 1 1537 0
 538 012c 14BF     		ite	ne
 539 012e 0320     		movne	r0, #3
 540 0130 0420     		moveq	r0, #4
 541 0132 7047     		bx	lr
 542              	.L55:
 543              	.LBE7:
 544              	.LBE6:
1521:../../source/src/FWlib/src/stm32f10x_flash.c ****   }
 545              		.loc 1 1521 0
 546 0134 0120     		movs	r0, #1
 547 0136 7047     		bx	lr
 548              	.L56:
1527:../../source/src/FWlib/src/stm32f10x_flash.c ****     }
 549              		.loc 1 1527 0
 550 0138 0220     		movs	r0, #2
 551              	.LVL27:
1538:../../source/src/FWlib/src/stm32f10x_flash.c ****       }
1539:../../source/src/FWlib/src/stm32f10x_flash.c ****     }
1540:../../source/src/FWlib/src/stm32f10x_flash.c ****   }
1541:../../source/src/FWlib/src/stm32f10x_flash.c ****   /* Return the Flash Status */
1542:../../source/src/FWlib/src/stm32f10x_flash.c ****   return flashstatus;
1543:../../source/src/FWlib/src/stm32f10x_flash.c **** }
 552              		.loc 1 1543 0
 553 013a 7047     		bx	lr
 554              	.L59:
 555              		.align	2
ARM GAS  G:\Users\Jaxb\AppData\Local\Temp\ccck4Nii.s 			page 38


 556              	.L58:
 557 013c 00200240 		.word	1073881088
 558              		.cfi_endproc
 559              	.LFE54:
 560              		.size	FLASH_GetBank1Status, .-FLASH_GetBank1Status
 561              		.align	1
 562              		.p2align 2,,3
 563              		.global	FLASH_WaitForLastOperation
 564              		.syntax unified
 565              		.thumb
 566              		.thumb_func
 567              		.fpu softvfp
 568              		.type	FLASH_WaitForLastOperation, %function
 569              	FLASH_WaitForLastOperation:
 570              	.LFB55:
1544:../../source/src/FWlib/src/stm32f10x_flash.c **** 
1545:../../source/src/FWlib/src/stm32f10x_flash.c **** #ifdef STM32F10X_XL
1546:../../source/src/FWlib/src/stm32f10x_flash.c **** /**
1547:../../source/src/FWlib/src/stm32f10x_flash.c ****   * @brief  Returns the FLASH Bank2 Status.
1548:../../source/src/FWlib/src/stm32f10x_flash.c ****   * @note   This function can be used for STM32F10x_XL density devices.
1549:../../source/src/FWlib/src/stm32f10x_flash.c ****   * @param  None
1550:../../source/src/FWlib/src/stm32f10x_flash.c ****   * @retval FLASH Status: The returned value can be: FLASH_BUSY, FLASH_ERROR_PG,
1551:../../source/src/FWlib/src/stm32f10x_flash.c ****   *        FLASH_ERROR_WRP or FLASH_COMPLETE
1552:../../source/src/FWlib/src/stm32f10x_flash.c ****   */
1553:../../source/src/FWlib/src/stm32f10x_flash.c **** FLASH_Status FLASH_GetBank2Status(void)
1554:../../source/src/FWlib/src/stm32f10x_flash.c **** {
1555:../../source/src/FWlib/src/stm32f10x_flash.c ****   FLASH_Status flashstatus = FLASH_COMPLETE;
1556:../../source/src/FWlib/src/stm32f10x_flash.c ****   
1557:../../source/src/FWlib/src/stm32f10x_flash.c ****   if((FLASH->SR2 & (FLASH_FLAG_BANK2_BSY & 0x7FFFFFFF)) == (FLASH_FLAG_BANK2_BSY & 0x7FFFFFFF)) 
1558:../../source/src/FWlib/src/stm32f10x_flash.c ****   {
1559:../../source/src/FWlib/src/stm32f10x_flash.c ****     flashstatus = FLASH_BUSY;
1560:../../source/src/FWlib/src/stm32f10x_flash.c ****   }
1561:../../source/src/FWlib/src/stm32f10x_flash.c ****   else 
1562:../../source/src/FWlib/src/stm32f10x_flash.c ****   {  
1563:../../source/src/FWlib/src/stm32f10x_flash.c ****     if((FLASH->SR2 & (FLASH_FLAG_BANK2_PGERR & 0x7FFFFFFF)) != 0)
1564:../../source/src/FWlib/src/stm32f10x_flash.c ****     { 
1565:../../source/src/FWlib/src/stm32f10x_flash.c ****       flashstatus = FLASH_ERROR_PG;
1566:../../source/src/FWlib/src/stm32f10x_flash.c ****     }
1567:../../source/src/FWlib/src/stm32f10x_flash.c ****     else 
1568:../../source/src/FWlib/src/stm32f10x_flash.c ****     {
1569:../../source/src/FWlib/src/stm32f10x_flash.c ****       if((FLASH->SR2 & (FLASH_FLAG_BANK2_WRPRTERR & 0x7FFFFFFF)) != 0 )
1570:../../source/src/FWlib/src/stm32f10x_flash.c ****       {
1571:../../source/src/FWlib/src/stm32f10x_flash.c ****         flashstatus = FLASH_ERROR_WRP;
1572:../../source/src/FWlib/src/stm32f10x_flash.c ****       }
1573:../../source/src/FWlib/src/stm32f10x_flash.c ****       else
1574:../../source/src/FWlib/src/stm32f10x_flash.c ****       {
1575:../../source/src/FWlib/src/stm32f10x_flash.c ****         flashstatus = FLASH_COMPLETE;
1576:../../source/src/FWlib/src/stm32f10x_flash.c ****       }
1577:../../source/src/FWlib/src/stm32f10x_flash.c ****     }
1578:../../source/src/FWlib/src/stm32f10x_flash.c ****   }
1579:../../source/src/FWlib/src/stm32f10x_flash.c ****   /* Return the Flash Status */
1580:../../source/src/FWlib/src/stm32f10x_flash.c ****   return flashstatus;
1581:../../source/src/FWlib/src/stm32f10x_flash.c **** }
1582:../../source/src/FWlib/src/stm32f10x_flash.c **** #endif /* STM32F10X_XL */
1583:../../source/src/FWlib/src/stm32f10x_flash.c **** /**
1584:../../source/src/FWlib/src/stm32f10x_flash.c ****   * @brief  Waits for a Flash operation to complete or a TIMEOUT to occur.
1585:../../source/src/FWlib/src/stm32f10x_flash.c ****   * @note   This function can be used for all STM32F10x devices, 
ARM GAS  G:\Users\Jaxb\AppData\Local\Temp\ccck4Nii.s 			page 39


1586:../../source/src/FWlib/src/stm32f10x_flash.c ****   *         it is equivalent to FLASH_WaitForLastBank1Operation.
1587:../../source/src/FWlib/src/stm32f10x_flash.c ****   *         - For STM32F10X_XL devices this function waits for a Bank1 Flash operation
1588:../../source/src/FWlib/src/stm32f10x_flash.c ****   *           to complete or a TIMEOUT to occur.
1589:../../source/src/FWlib/src/stm32f10x_flash.c ****   *         - For all other devices it waits for a Flash operation to complete 
1590:../../source/src/FWlib/src/stm32f10x_flash.c ****   *           or a TIMEOUT to occur.
1591:../../source/src/FWlib/src/stm32f10x_flash.c ****   * @param  Timeout: FLASH programming Timeout
1592:../../source/src/FWlib/src/stm32f10x_flash.c ****   * @retval FLASH Status: The returned value can be: FLASH_ERROR_PG,
1593:../../source/src/FWlib/src/stm32f10x_flash.c ****   *         FLASH_ERROR_WRP, FLASH_COMPLETE or FLASH_TIMEOUT.
1594:../../source/src/FWlib/src/stm32f10x_flash.c ****   */
1595:../../source/src/FWlib/src/stm32f10x_flash.c **** FLASH_Status FLASH_WaitForLastOperation(uint32_t Timeout)
1596:../../source/src/FWlib/src/stm32f10x_flash.c **** { 
 571              		.loc 1 1596 0
 572              		.cfi_startproc
 573              		@ args = 0, pretend = 0, frame = 0
 574              		@ frame_needed = 0, uses_anonymous_args = 0
 575              	.LVL28:
 576 0140 10B5     		push	{r4, lr}
 577              	.LCFI0:
 578              		.cfi_def_cfa_offset 8
 579              		.cfi_offset 4, -8
 580              		.cfi_offset 14, -4
 581              		.loc 1 1596 0
 582 0142 0446     		mov	r4, r0
1597:../../source/src/FWlib/src/stm32f10x_flash.c ****   FLASH_Status status = FLASH_COMPLETE;
1598:../../source/src/FWlib/src/stm32f10x_flash.c ****    
1599:../../source/src/FWlib/src/stm32f10x_flash.c ****   /* Check for the Flash Status */
1600:../../source/src/FWlib/src/stm32f10x_flash.c ****   status = FLASH_GetBank1Status();
 583              		.loc 1 1600 0
 584 0144 FFF7FEFF 		bl	FLASH_GetBank1Status
 585              	.LVL29:
1601:../../source/src/FWlib/src/stm32f10x_flash.c ****   /* Wait for a Flash operation to complete or a TIMEOUT to occur */
1602:../../source/src/FWlib/src/stm32f10x_flash.c ****   while((status == FLASH_BUSY) && (Timeout != 0x00))
 586              		.loc 1 1602 0
 587 0148 0128     		cmp	r0, #1
 588 014a 06D1     		bne	.L61
 589              	.L69:
 590 014c 3CB1     		cbz	r4, .L62
 591              	.LVL30:
1603:../../source/src/FWlib/src/stm32f10x_flash.c ****   {
1604:../../source/src/FWlib/src/stm32f10x_flash.c ****     status = FLASH_GetBank1Status();
 592              		.loc 1 1604 0
 593 014e FFF7FEFF 		bl	FLASH_GetBank1Status
 594              	.LVL31:
1602:../../source/src/FWlib/src/stm32f10x_flash.c ****   {
 595              		.loc 1 1602 0
 596 0152 0128     		cmp	r0, #1
1605:../../source/src/FWlib/src/stm32f10x_flash.c ****     Timeout--;
 597              		.loc 1 1605 0
 598 0154 04F1FF34 		add	r4, r4, #-1
 599              	.LVL32:
1602:../../source/src/FWlib/src/stm32f10x_flash.c ****   {
 600              		.loc 1 1602 0
 601 0158 F8D0     		beq	.L69
 602              	.L61:
1606:../../source/src/FWlib/src/stm32f10x_flash.c ****   }
1607:../../source/src/FWlib/src/stm32f10x_flash.c ****   if(Timeout == 0x00 )
 603              		.loc 1 1607 0
ARM GAS  G:\Users\Jaxb\AppData\Local\Temp\ccck4Nii.s 			page 40


 604 015a 04B1     		cbz	r4, .L62
1608:../../source/src/FWlib/src/stm32f10x_flash.c ****   {
1609:../../source/src/FWlib/src/stm32f10x_flash.c ****     status = FLASH_TIMEOUT;
1610:../../source/src/FWlib/src/stm32f10x_flash.c ****   }
1611:../../source/src/FWlib/src/stm32f10x_flash.c ****   /* Return the operation status */
1612:../../source/src/FWlib/src/stm32f10x_flash.c ****   return status;
1613:../../source/src/FWlib/src/stm32f10x_flash.c **** }
 605              		.loc 1 1613 0
 606 015c 10BD     		pop	{r4, pc}
 607              	.LVL33:
 608              	.L62:
1609:../../source/src/FWlib/src/stm32f10x_flash.c ****   }
 609              		.loc 1 1609 0
 610 015e 0520     		movs	r0, #5
 611              	.LVL34:
 612              		.loc 1 1613 0
 613 0160 10BD     		pop	{r4, pc}
 614              		.cfi_endproc
 615              	.LFE55:
 616              		.size	FLASH_WaitForLastOperation, .-FLASH_WaitForLastOperation
 617              		.align	1
 618 0162 00BF     		.p2align 2,,3
 619              		.global	FLASH_ErasePage
 620              		.syntax unified
 621              		.thumb
 622              		.thumb_func
 623              		.fpu softvfp
 624              		.type	FLASH_ErasePage, %function
 625              	FLASH_ErasePage:
 626              	.LFB36:
 420:../../source/src/FWlib/src/stm32f10x_flash.c ****   FLASH_Status status = FLASH_COMPLETE;
 627              		.loc 1 420 0
 628              		.cfi_startproc
 629              		@ args = 0, pretend = 0, frame = 0
 630              		@ frame_needed = 0, uses_anonymous_args = 0
 631              	.LVL35:
 632 0164 38B5     		push	{r3, r4, r5, lr}
 633              	.LCFI1:
 634              		.cfi_def_cfa_offset 16
 635              		.cfi_offset 3, -16
 636              		.cfi_offset 4, -12
 637              		.cfi_offset 5, -8
 638              		.cfi_offset 14, -4
 420:../../source/src/FWlib/src/stm32f10x_flash.c ****   FLASH_Status status = FLASH_COMPLETE;
 639              		.loc 1 420 0
 640 0166 0546     		mov	r5, r0
 464:../../source/src/FWlib/src/stm32f10x_flash.c ****   
 641              		.loc 1 464 0
 642 0168 4FF43020 		mov	r0, #720896
 643              	.LVL36:
 644 016c FFF7FEFF 		bl	FLASH_WaitForLastOperation
 645              	.LVL37:
 466:../../source/src/FWlib/src/stm32f10x_flash.c ****   { 
 646              		.loc 1 466 0
 647 0170 0428     		cmp	r0, #4
 648 0172 00D0     		beq	.L72
 483:../../source/src/FWlib/src/stm32f10x_flash.c **** 
ARM GAS  G:\Users\Jaxb\AppData\Local\Temp\ccck4Nii.s 			page 41


 649              		.loc 1 483 0
 650 0174 38BD     		pop	{r3, r4, r5, pc}
 651              	.LVL38:
 652              	.L72:
 469:../../source/src/FWlib/src/stm32f10x_flash.c ****     FLASH->AR = Page_Address; 
 653              		.loc 1 469 0
 654 0176 0A4C     		ldr	r4, .L73
 474:../../source/src/FWlib/src/stm32f10x_flash.c ****     
 655              		.loc 1 474 0
 656 0178 4FF43020 		mov	r0, #720896
 657              	.LVL39:
 469:../../source/src/FWlib/src/stm32f10x_flash.c ****     FLASH->AR = Page_Address; 
 658              		.loc 1 469 0
 659 017c 2369     		ldr	r3, [r4, #16]
 660 017e 43F00203 		orr	r3, r3, #2
 661 0182 2361     		str	r3, [r4, #16]
 470:../../source/src/FWlib/src/stm32f10x_flash.c ****     FLASH->CR|= CR_STRT_Set;
 662              		.loc 1 470 0
 663 0184 6561     		str	r5, [r4, #20]
 471:../../source/src/FWlib/src/stm32f10x_flash.c ****     
 664              		.loc 1 471 0
 665 0186 2369     		ldr	r3, [r4, #16]
 666 0188 43F04003 		orr	r3, r3, #64
 667 018c 2361     		str	r3, [r4, #16]
 474:../../source/src/FWlib/src/stm32f10x_flash.c ****     
 668              		.loc 1 474 0
 669 018e FFF7FEFF 		bl	FLASH_WaitForLastOperation
 670              	.LVL40:
 477:../../source/src/FWlib/src/stm32f10x_flash.c ****   }
 671              		.loc 1 477 0
 672 0192 41F6FD72 		movw	r2, #8189
 673 0196 2369     		ldr	r3, [r4, #16]
 674 0198 1340     		ands	r3, r3, r2
 675 019a 2361     		str	r3, [r4, #16]
 483:../../source/src/FWlib/src/stm32f10x_flash.c **** 
 676              		.loc 1 483 0
 677 019c 38BD     		pop	{r3, r4, r5, pc}
 678              	.LVL41:
 679              	.L74:
 680 019e 00BF     		.align	2
 681              	.L73:
 682 01a0 00200240 		.word	1073881088
 683              		.cfi_endproc
 684              	.LFE36:
 685              		.size	FLASH_ErasePage, .-FLASH_ErasePage
 686              		.align	1
 687              		.p2align 2,,3
 688              		.global	FLASH_EraseAllPages
 689              		.syntax unified
 690              		.thumb
 691              		.thumb_func
 692              		.fpu softvfp
 693              		.type	FLASH_EraseAllPages, %function
 694              	FLASH_EraseAllPages:
 695              	.LFB37:
 493:../../source/src/FWlib/src/stm32f10x_flash.c ****   FLASH_Status status = FLASH_COMPLETE;
 696              		.loc 1 493 0
ARM GAS  G:\Users\Jaxb\AppData\Local\Temp\ccck4Nii.s 			page 42


 697              		.cfi_startproc
 698              		@ args = 0, pretend = 0, frame = 0
 699              		@ frame_needed = 0, uses_anonymous_args = 0
 700              	.LVL42:
 701 01a4 10B5     		push	{r4, lr}
 702              	.LCFI2:
 703              		.cfi_def_cfa_offset 8
 704              		.cfi_offset 4, -8
 705              		.cfi_offset 14, -4
 526:../../source/src/FWlib/src/stm32f10x_flash.c ****   if(status == FLASH_COMPLETE)
 706              		.loc 1 526 0
 707 01a6 4FF43020 		mov	r0, #720896
 708 01aa FFF7FEFF 		bl	FLASH_WaitForLastOperation
 709              	.LVL43:
 527:../../source/src/FWlib/src/stm32f10x_flash.c ****   {
 710              		.loc 1 527 0
 711 01ae 0428     		cmp	r0, #4
 712 01b0 00D0     		beq	.L77
 543:../../source/src/FWlib/src/stm32f10x_flash.c **** 
 713              		.loc 1 543 0
 714 01b2 10BD     		pop	{r4, pc}
 715              	.L77:
 530:../../source/src/FWlib/src/stm32f10x_flash.c ****      FLASH->CR |= CR_STRT_Set;
 716              		.loc 1 530 0
 717 01b4 094C     		ldr	r4, .L78
 534:../../source/src/FWlib/src/stm32f10x_flash.c **** 
 718              		.loc 1 534 0
 719 01b6 4FF43020 		mov	r0, #720896
 720              	.LVL44:
 530:../../source/src/FWlib/src/stm32f10x_flash.c ****      FLASH->CR |= CR_STRT_Set;
 721              		.loc 1 530 0
 722 01ba 2369     		ldr	r3, [r4, #16]
 723 01bc 43F00403 		orr	r3, r3, #4
 724 01c0 2361     		str	r3, [r4, #16]
 531:../../source/src/FWlib/src/stm32f10x_flash.c ****     
 725              		.loc 1 531 0
 726 01c2 2369     		ldr	r3, [r4, #16]
 727 01c4 43F04003 		orr	r3, r3, #64
 728 01c8 2361     		str	r3, [r4, #16]
 534:../../source/src/FWlib/src/stm32f10x_flash.c **** 
 729              		.loc 1 534 0
 730 01ca FFF7FEFF 		bl	FLASH_WaitForLastOperation
 731              	.LVL45:
 537:../../source/src/FWlib/src/stm32f10x_flash.c ****   }
 732              		.loc 1 537 0
 733 01ce 41F6FB72 		movw	r2, #8187
 734 01d2 2369     		ldr	r3, [r4, #16]
 735 01d4 1340     		ands	r3, r3, r2
 736 01d6 2361     		str	r3, [r4, #16]
 543:../../source/src/FWlib/src/stm32f10x_flash.c **** 
 737              		.loc 1 543 0
 738 01d8 10BD     		pop	{r4, pc}
 739              	.L79:
 740 01da 00BF     		.align	2
 741              	.L78:
 742 01dc 00200240 		.word	1073881088
 743              		.cfi_endproc
ARM GAS  G:\Users\Jaxb\AppData\Local\Temp\ccck4Nii.s 			page 43


 744              	.LFE37:
 745              		.size	FLASH_EraseAllPages, .-FLASH_EraseAllPages
 746              		.align	1
 747              		.p2align 2,,3
 748              		.global	FLASH_EraseAllBank1Pages
 749              		.syntax unified
 750              		.thumb
 751              		.thumb_func
 752              		.fpu softvfp
 753              		.type	FLASH_EraseAllBank1Pages, %function
 754              	FLASH_EraseAllBank1Pages:
 755              	.LFB63:
 756              		.cfi_startproc
 757              		@ args = 0, pretend = 0, frame = 0
 758              		@ frame_needed = 0, uses_anonymous_args = 0
 759              		@ link register save eliminated.
 760 01e0 FFF7FEBF 		b	FLASH_EraseAllPages
 761              		.cfi_endproc
 762              	.LFE63:
 763              		.size	FLASH_EraseAllBank1Pages, .-FLASH_EraseAllBank1Pages
 764              		.align	1
 765              		.p2align 2,,3
 766              		.global	FLASH_EraseOptionBytes
 767              		.syntax unified
 768              		.thumb
 769              		.thumb_func
 770              		.fpu softvfp
 771              		.type	FLASH_EraseOptionBytes, %function
 772              	FLASH_EraseOptionBytes:
 773              	.LFB39:
 617:../../source/src/FWlib/src/stm32f10x_flash.c ****   uint16_t rdptmp = RDP_Key;
 774              		.loc 1 617 0
 775              		.cfi_startproc
 776              		@ args = 0, pretend = 0, frame = 0
 777              		@ frame_needed = 0, uses_anonymous_args = 0
 778              	.LVL46:
 617:../../source/src/FWlib/src/stm32f10x_flash.c ****   uint16_t rdptmp = RDP_Key;
 779              		.loc 1 617 0
 780 01e4 38B5     		push	{r3, r4, r5, lr}
 781              	.LCFI3:
 782              		.cfi_def_cfa_offset 16
 783              		.cfi_offset 3, -16
 784              		.cfi_offset 4, -12
 785              		.cfi_offset 5, -8
 786              		.cfi_offset 14, -4
 787              	.LBB8:
 788              	.LBB9:
1243:../../source/src/FWlib/src/stm32f10x_flash.c ****   {
 789              		.loc 1 1243 0
 790 01e6 1D4C     		ldr	r4, .L96
 791              	.LBE9:
 792              	.LBE8:
 629:../../source/src/FWlib/src/stm32f10x_flash.c ****   if(status == FLASH_COMPLETE)
 793              		.loc 1 629 0
 794 01e8 4FF43020 		mov	r0, #720896
 795              	.LBB11:
 796              	.LBB10:
ARM GAS  G:\Users\Jaxb\AppData\Local\Temp\ccck4Nii.s 			page 44


1243:../../source/src/FWlib/src/stm32f10x_flash.c ****   {
 797              		.loc 1 1243 0
 798 01ec E369     		ldr	r3, [r4, #28]
 799              	.LBE10:
 800              	.LBE11:
 618:../../source/src/FWlib/src/stm32f10x_flash.c **** 
 801              		.loc 1 618 0
 802 01ee 13F0020F 		tst	r3, #2
 803 01f2 14BF     		ite	ne
 804 01f4 0025     		movne	r5, #0
 805 01f6 A525     		moveq	r5, #165
 806              	.LVL47:
 629:../../source/src/FWlib/src/stm32f10x_flash.c ****   if(status == FLASH_COMPLETE)
 807              		.loc 1 629 0
 808 01f8 FFF7FEFF 		bl	FLASH_WaitForLastOperation
 809              	.LVL48:
 630:../../source/src/FWlib/src/stm32f10x_flash.c ****   {
 810              		.loc 1 630 0
 811 01fc 0428     		cmp	r0, #4
 812 01fe 00D0     		beq	.L94
 813              	.L83:
 671:../../source/src/FWlib/src/stm32f10x_flash.c **** 
 814              		.loc 1 671 0
 815 0200 38BD     		pop	{r3, r4, r5, pc}
 816              	.LVL49:
 817              	.L94:
 633:../../source/src/FWlib/src/stm32f10x_flash.c ****     FLASH->OPTKEYR = FLASH_KEY2;
 818              		.loc 1 633 0
 819 0202 174A     		ldr	r2, .L96+4
 634:../../source/src/FWlib/src/stm32f10x_flash.c ****     
 820              		.loc 1 634 0
 821 0204 174B     		ldr	r3, .L96+8
 633:../../source/src/FWlib/src/stm32f10x_flash.c ****     FLASH->OPTKEYR = FLASH_KEY2;
 822              		.loc 1 633 0
 823 0206 A260     		str	r2, [r4, #8]
 634:../../source/src/FWlib/src/stm32f10x_flash.c ****     
 824              		.loc 1 634 0
 825 0208 A360     		str	r3, [r4, #8]
 637:../../source/src/FWlib/src/stm32f10x_flash.c ****     FLASH->CR |= CR_STRT_Set;
 826              		.loc 1 637 0
 827 020a 2369     		ldr	r3, [r4, #16]
 640:../../source/src/FWlib/src/stm32f10x_flash.c ****     
 828              		.loc 1 640 0
 829 020c 4FF43020 		mov	r0, #720896
 830              	.LVL50:
 637:../../source/src/FWlib/src/stm32f10x_flash.c ****     FLASH->CR |= CR_STRT_Set;
 831              		.loc 1 637 0
 832 0210 43F02003 		orr	r3, r3, #32
 833 0214 2361     		str	r3, [r4, #16]
 638:../../source/src/FWlib/src/stm32f10x_flash.c ****     /* Wait for last operation to be completed */
 834              		.loc 1 638 0
 835 0216 2369     		ldr	r3, [r4, #16]
 836 0218 43F04003 		orr	r3, r3, #64
 837 021c 2361     		str	r3, [r4, #16]
 640:../../source/src/FWlib/src/stm32f10x_flash.c ****     
 838              		.loc 1 640 0
 839 021e FFF7FEFF 		bl	FLASH_WaitForLastOperation
ARM GAS  G:\Users\Jaxb\AppData\Local\Temp\ccck4Nii.s 			page 45


 840              	.LVL51:
 642:../../source/src/FWlib/src/stm32f10x_flash.c ****     {
 841              		.loc 1 642 0
 842 0222 0428     		cmp	r0, #4
 843 0224 07D0     		beq	.L95
 662:../../source/src/FWlib/src/stm32f10x_flash.c ****       {
 844              		.loc 1 662 0
 845 0226 0528     		cmp	r0, #5
 846 0228 EAD0     		beq	.L83
 847              	.L92:
 665:../../source/src/FWlib/src/stm32f10x_flash.c ****       }
 848              		.loc 1 665 0
 849 022a 41F6EF72 		movw	r2, #8175
 850 022e 2369     		ldr	r3, [r4, #16]
 851 0230 1340     		ands	r3, r3, r2
 852 0232 2361     		str	r3, [r4, #16]
 671:../../source/src/FWlib/src/stm32f10x_flash.c **** 
 853              		.loc 1 671 0
 854 0234 38BD     		pop	{r3, r4, r5, pc}
 855              	.LVL52:
 856              	.L95:
 645:../../source/src/FWlib/src/stm32f10x_flash.c ****        
 857              		.loc 1 645 0
 858 0236 41F6DF71 		movw	r1, #8159
 859 023a 2369     		ldr	r3, [r4, #16]
 650:../../source/src/FWlib/src/stm32f10x_flash.c ****       /* Wait for last operation to be completed */
 860              		.loc 1 650 0
 861 023c 0A4A     		ldr	r2, .L96+12
 645:../../source/src/FWlib/src/stm32f10x_flash.c ****        
 862              		.loc 1 645 0
 863 023e 0B40     		ands	r3, r3, r1
 864 0240 2361     		str	r3, [r4, #16]
 648:../../source/src/FWlib/src/stm32f10x_flash.c ****       /* Restore the last read protection Option Byte value */
 865              		.loc 1 648 0
 866 0242 2369     		ldr	r3, [r4, #16]
 652:../../source/src/FWlib/src/stm32f10x_flash.c ****  
 867              		.loc 1 652 0
 868 0244 4FF40050 		mov	r0, #8192
 869              	.LVL53:
 648:../../source/src/FWlib/src/stm32f10x_flash.c ****       /* Restore the last read protection Option Byte value */
 870              		.loc 1 648 0
 871 0248 43F01003 		orr	r3, r3, #16
 872 024c 2361     		str	r3, [r4, #16]
 650:../../source/src/FWlib/src/stm32f10x_flash.c ****       /* Wait for last operation to be completed */
 873              		.loc 1 650 0
 874 024e 1580     		strh	r5, [r2]	@ movhi
 652:../../source/src/FWlib/src/stm32f10x_flash.c ****  
 875              		.loc 1 652 0
 876 0250 FFF7FEFF 		bl	FLASH_WaitForLastOperation
 877              	.LVL54:
 654:../../source/src/FWlib/src/stm32f10x_flash.c ****       {
 878              		.loc 1 654 0
 879 0254 0528     		cmp	r0, #5
 880 0256 E8D1     		bne	.L92
 671:../../source/src/FWlib/src/stm32f10x_flash.c **** 
 881              		.loc 1 671 0
 882 0258 38BD     		pop	{r3, r4, r5, pc}
ARM GAS  G:\Users\Jaxb\AppData\Local\Temp\ccck4Nii.s 			page 46


 883              	.LVL55:
 884              	.L97:
 885 025a 00BF     		.align	2
 886              	.L96:
 887 025c 00200240 		.word	1073881088
 888 0260 23016745 		.word	1164378403
 889 0264 AB89EFCD 		.word	-839939669
 890 0268 00F8FF1F 		.word	536868864
 891              		.cfi_endproc
 892              	.LFE39:
 893              		.size	FLASH_EraseOptionBytes, .-FLASH_EraseOptionBytes
 894              		.align	1
 895              		.p2align 2,,3
 896              		.global	FLASH_ProgramWord
 897              		.syntax unified
 898              		.thumb
 899              		.thumb_func
 900              		.fpu softvfp
 901              		.type	FLASH_ProgramWord, %function
 902              	FLASH_ProgramWord:
 903              	.LFB40:
 682:../../source/src/FWlib/src/stm32f10x_flash.c ****   FLASH_Status status = FLASH_COMPLETE;
 904              		.loc 1 682 0
 905              		.cfi_startproc
 906              		@ args = 0, pretend = 0, frame = 8
 907              		@ frame_needed = 0, uses_anonymous_args = 0
 908              	.LVL56:
 684:../../source/src/FWlib/src/stm32f10x_flash.c **** 
 909              		.loc 1 684 0
 910 026c 0023     		movs	r3, #0
 682:../../source/src/FWlib/src/stm32f10x_flash.c ****   FLASH_Status status = FLASH_COMPLETE;
 911              		.loc 1 682 0
 912 026e 70B5     		push	{r4, r5, r6, lr}
 913              	.LCFI4:
 914              		.cfi_def_cfa_offset 16
 915              		.cfi_offset 4, -16
 916              		.cfi_offset 5, -12
 917              		.cfi_offset 6, -8
 918              		.cfi_offset 14, -4
 919 0270 0546     		mov	r5, r0
 920 0272 82B0     		sub	sp, sp, #8
 921              	.LCFI5:
 922              		.cfi_def_cfa_offset 24
 812:../../source/src/FWlib/src/stm32f10x_flash.c ****   
 923              		.loc 1 812 0
 924 0274 4FF40050 		mov	r0, #8192
 925              	.LVL57:
 682:../../source/src/FWlib/src/stm32f10x_flash.c ****   FLASH_Status status = FLASH_COMPLETE;
 926              		.loc 1 682 0
 927 0278 0C46     		mov	r4, r1
 684:../../source/src/FWlib/src/stm32f10x_flash.c **** 
 928              		.loc 1 684 0
 929 027a 0193     		str	r3, [sp, #4]
 812:../../source/src/FWlib/src/stm32f10x_flash.c ****   
 930              		.loc 1 812 0
 931 027c FFF7FEFF 		bl	FLASH_WaitForLastOperation
 932              	.LVL58:
ARM GAS  G:\Users\Jaxb\AppData\Local\Temp\ccck4Nii.s 			page 47


 814:../../source/src/FWlib/src/stm32f10x_flash.c ****   {
 933              		.loc 1 814 0
 934 0280 0428     		cmp	r0, #4
 935 0282 01D0     		beq	.L101
 936              	.LVL59:
 937              	.L99:
 848:../../source/src/FWlib/src/stm32f10x_flash.c **** 
 938              		.loc 1 848 0
 939 0284 02B0     		add	sp, sp, #8
 940              	.LCFI6:
 941              		.cfi_remember_state
 942              		.cfi_def_cfa_offset 16
 943              		@ sp needed
 944 0286 70BD     		pop	{r4, r5, r6, pc}
 945              	.LVL60:
 946              	.L101:
 947              	.LCFI7:
 948              		.cfi_restore_state
 818:../../source/src/FWlib/src/stm32f10x_flash.c ****   
 949              		.loc 1 818 0
 950 0288 114E     		ldr	r6, .L103
 820:../../source/src/FWlib/src/stm32f10x_flash.c ****     /* Wait for last operation to be completed */
 951              		.loc 1 820 0
 952 028a A3B2     		uxth	r3, r4
 818:../../source/src/FWlib/src/stm32f10x_flash.c ****   
 953              		.loc 1 818 0
 954 028c 3269     		ldr	r2, [r6, #16]
 822:../../source/src/FWlib/src/stm32f10x_flash.c ****  
 955              		.loc 1 822 0
 956 028e 4FF40050 		mov	r0, #8192
 957              	.LVL61:
 818:../../source/src/FWlib/src/stm32f10x_flash.c ****   
 958              		.loc 1 818 0
 959 0292 42F00102 		orr	r2, r2, #1
 960 0296 3261     		str	r2, [r6, #16]
 820:../../source/src/FWlib/src/stm32f10x_flash.c ****     /* Wait for last operation to be completed */
 961              		.loc 1 820 0
 962 0298 2B80     		strh	r3, [r5]	@ movhi
 822:../../source/src/FWlib/src/stm32f10x_flash.c ****  
 963              		.loc 1 822 0
 964 029a FFF7FEFF 		bl	FLASH_WaitForLastOperation
 965              	.LVL62:
 824:../../source/src/FWlib/src/stm32f10x_flash.c ****     {
 966              		.loc 1 824 0
 967 029e 0428     		cmp	r0, #4
 968 02a0 06D0     		beq	.L102
 841:../../source/src/FWlib/src/stm32f10x_flash.c ****     }
 969              		.loc 1 841 0
 970 02a2 41F6FE72 		movw	r2, #8190
 971 02a6 3369     		ldr	r3, [r6, #16]
 972 02a8 1340     		ands	r3, r3, r2
 973 02aa 3361     		str	r3, [r6, #16]
 848:../../source/src/FWlib/src/stm32f10x_flash.c **** 
 974              		.loc 1 848 0
 975 02ac 02B0     		add	sp, sp, #8
 976              	.LCFI8:
 977              		.cfi_remember_state
ARM GAS  G:\Users\Jaxb\AppData\Local\Temp\ccck4Nii.s 			page 48


 978              		.cfi_def_cfa_offset 16
 979              		@ sp needed
 980 02ae 70BD     		pop	{r4, r5, r6, pc}
 981              	.LVL63:
 982              	.L102:
 983              	.LCFI9:
 984              		.cfi_restore_state
 828:../../source/src/FWlib/src/stm32f10x_flash.c **** 
 985              		.loc 1 828 0
 986 02b0 0235     		adds	r5, r5, #2
 987              	.LVL64:
 988 02b2 0195     		str	r5, [sp, #4]
 830:../../source/src/FWlib/src/stm32f10x_flash.c ****     
 989              		.loc 1 830 0
 990 02b4 019B     		ldr	r3, [sp, #4]
 991 02b6 240C     		lsrs	r4, r4, #16
 992              	.LVL65:
 993 02b8 1C80     		strh	r4, [r3]	@ movhi
 833:../../source/src/FWlib/src/stm32f10x_flash.c ****         
 994              		.loc 1 833 0
 995 02ba 4FF40050 		mov	r0, #8192
 996              	.LVL66:
 997 02be FFF7FEFF 		bl	FLASH_WaitForLastOperation
 998              	.LVL67:
 836:../../source/src/FWlib/src/stm32f10x_flash.c ****     }
 999              		.loc 1 836 0
 1000 02c2 41F6FE72 		movw	r2, #8190
 1001 02c6 3369     		ldr	r3, [r6, #16]
 1002 02c8 1340     		ands	r3, r3, r2
 1003 02ca 3361     		str	r3, [r6, #16]
 1004 02cc DAE7     		b	.L99
 1005              	.L104:
 1006 02ce 00BF     		.align	2
 1007              	.L103:
 1008 02d0 00200240 		.word	1073881088
 1009              		.cfi_endproc
 1010              	.LFE40:
 1011              		.size	FLASH_ProgramWord, .-FLASH_ProgramWord
 1012              		.align	1
 1013              		.p2align 2,,3
 1014              		.global	FLASH_ProgramHalfWord
 1015              		.syntax unified
 1016              		.thumb
 1017              		.thumb_func
 1018              		.fpu softvfp
 1019              		.type	FLASH_ProgramHalfWord, %function
 1020              	FLASH_ProgramHalfWord:
 1021              	.LFB41:
 859:../../source/src/FWlib/src/stm32f10x_flash.c ****   FLASH_Status status = FLASH_COMPLETE;
 1022              		.loc 1 859 0
 1023              		.cfi_startproc
 1024              		@ args = 0, pretend = 0, frame = 0
 1025              		@ frame_needed = 0, uses_anonymous_args = 0
 1026              	.LVL68:
 1027 02d4 70B5     		push	{r4, r5, r6, lr}
 1028              	.LCFI10:
 1029              		.cfi_def_cfa_offset 16
ARM GAS  G:\Users\Jaxb\AppData\Local\Temp\ccck4Nii.s 			page 49


 1030              		.cfi_offset 4, -16
 1031              		.cfi_offset 5, -12
 1032              		.cfi_offset 6, -8
 1033              		.cfi_offset 14, -4
 859:../../source/src/FWlib/src/stm32f10x_flash.c ****   FLASH_Status status = FLASH_COMPLETE;
 1034              		.loc 1 859 0
 1035 02d6 0446     		mov	r4, r0
 900:../../source/src/FWlib/src/stm32f10x_flash.c ****   
 1036              		.loc 1 900 0
 1037 02d8 4FF40050 		mov	r0, #8192
 1038              	.LVL69:
 859:../../source/src/FWlib/src/stm32f10x_flash.c ****   FLASH_Status status = FLASH_COMPLETE;
 1039              		.loc 1 859 0
 1040 02dc 0D46     		mov	r5, r1
 900:../../source/src/FWlib/src/stm32f10x_flash.c ****   
 1041              		.loc 1 900 0
 1042 02de FFF7FEFF 		bl	FLASH_WaitForLastOperation
 1043              	.LVL70:
 902:../../source/src/FWlib/src/stm32f10x_flash.c ****   {
 1044              		.loc 1 902 0
 1045 02e2 0428     		cmp	r0, #4
 1046 02e4 00D0     		beq	.L107
 918:../../source/src/FWlib/src/stm32f10x_flash.c **** 
 1047              		.loc 1 918 0
 1048 02e6 70BD     		pop	{r4, r5, r6, pc}
 1049              	.LVL71:
 1050              	.L107:
 905:../../source/src/FWlib/src/stm32f10x_flash.c ****   
 1051              		.loc 1 905 0
 1052 02e8 074E     		ldr	r6, .L108
 909:../../source/src/FWlib/src/stm32f10x_flash.c ****     
 1053              		.loc 1 909 0
 1054 02ea 4FF40050 		mov	r0, #8192
 1055              	.LVL72:
 905:../../source/src/FWlib/src/stm32f10x_flash.c ****   
 1056              		.loc 1 905 0
 1057 02ee 3369     		ldr	r3, [r6, #16]
 1058 02f0 43F00103 		orr	r3, r3, #1
 1059 02f4 3361     		str	r3, [r6, #16]
 907:../../source/src/FWlib/src/stm32f10x_flash.c ****     /* Wait for last operation to be completed */
 1060              		.loc 1 907 0
 1061 02f6 2580     		strh	r5, [r4]	@ movhi
 909:../../source/src/FWlib/src/stm32f10x_flash.c ****     
 1062              		.loc 1 909 0
 1063 02f8 FFF7FEFF 		bl	FLASH_WaitForLastOperation
 1064              	.LVL73:
 912:../../source/src/FWlib/src/stm32f10x_flash.c ****   } 
 1065              		.loc 1 912 0
 1066 02fc 41F6FE72 		movw	r2, #8190
 1067 0300 3369     		ldr	r3, [r6, #16]
 1068 0302 1340     		ands	r3, r3, r2
 1069 0304 3361     		str	r3, [r6, #16]
 918:../../source/src/FWlib/src/stm32f10x_flash.c **** 
 1070              		.loc 1 918 0
 1071 0306 70BD     		pop	{r4, r5, r6, pc}
 1072              	.LVL74:
 1073              	.L109:
ARM GAS  G:\Users\Jaxb\AppData\Local\Temp\ccck4Nii.s 			page 50


 1074              		.align	2
 1075              	.L108:
 1076 0308 00200240 		.word	1073881088
 1077              		.cfi_endproc
 1078              	.LFE41:
 1079              		.size	FLASH_ProgramHalfWord, .-FLASH_ProgramHalfWord
 1080              		.align	1
 1081              		.p2align 2,,3
 1082              		.global	FLASH_ProgramOptionByteData
 1083              		.syntax unified
 1084              		.thumb
 1085              		.thumb_func
 1086              		.fpu softvfp
 1087              		.type	FLASH_ProgramOptionByteData, %function
 1088              	FLASH_ProgramOptionByteData:
 1089              	.LFB42:
 930:../../source/src/FWlib/src/stm32f10x_flash.c ****   FLASH_Status status = FLASH_COMPLETE;
 1090              		.loc 1 930 0
 1091              		.cfi_startproc
 1092              		@ args = 0, pretend = 0, frame = 0
 1093              		@ frame_needed = 0, uses_anonymous_args = 0
 1094              	.LVL75:
 1095 030c 70B5     		push	{r4, r5, r6, lr}
 1096              	.LCFI11:
 1097              		.cfi_def_cfa_offset 16
 1098              		.cfi_offset 4, -16
 1099              		.cfi_offset 5, -12
 1100              		.cfi_offset 6, -8
 1101              		.cfi_offset 14, -4
 930:../../source/src/FWlib/src/stm32f10x_flash.c ****   FLASH_Status status = FLASH_COMPLETE;
 1102              		.loc 1 930 0
 1103 030e 0646     		mov	r6, r0
 934:../../source/src/FWlib/src/stm32f10x_flash.c **** 
 1104              		.loc 1 934 0
 1105 0310 4FF40050 		mov	r0, #8192
 1106              	.LVL76:
 930:../../source/src/FWlib/src/stm32f10x_flash.c ****   FLASH_Status status = FLASH_COMPLETE;
 1107              		.loc 1 930 0
 1108 0314 0C46     		mov	r4, r1
 934:../../source/src/FWlib/src/stm32f10x_flash.c **** 
 1109              		.loc 1 934 0
 1110 0316 FFF7FEFF 		bl	FLASH_WaitForLastOperation
 1111              	.LVL77:
 936:../../source/src/FWlib/src/stm32f10x_flash.c ****   {
 1112              		.loc 1 936 0
 1113 031a 0428     		cmp	r0, #4
 1114 031c 00D0     		beq	.L115
 1115              	.L111:
 955:../../source/src/FWlib/src/stm32f10x_flash.c **** 
 1116              		.loc 1 955 0
 1117 031e 70BD     		pop	{r4, r5, r6, pc}
 1118              	.LVL78:
 1119              	.L115:
 939:../../source/src/FWlib/src/stm32f10x_flash.c ****     FLASH->OPTKEYR = FLASH_KEY2;
 1120              		.loc 1 939 0
 1121 0320 0B4D     		ldr	r5, .L116
 1122 0322 0C4A     		ldr	r2, .L116+4
ARM GAS  G:\Users\Jaxb\AppData\Local\Temp\ccck4Nii.s 			page 51


 940:../../source/src/FWlib/src/stm32f10x_flash.c ****     /* Enables the Option Bytes Programming operation */
 1123              		.loc 1 940 0
 1124 0324 0C4B     		ldr	r3, .L116+8
 939:../../source/src/FWlib/src/stm32f10x_flash.c ****     FLASH->OPTKEYR = FLASH_KEY2;
 1125              		.loc 1 939 0
 1126 0326 AA60     		str	r2, [r5, #8]
 940:../../source/src/FWlib/src/stm32f10x_flash.c ****     /* Enables the Option Bytes Programming operation */
 1127              		.loc 1 940 0
 1128 0328 AB60     		str	r3, [r5, #8]
 942:../../source/src/FWlib/src/stm32f10x_flash.c ****     *(__IO uint16_t*)Address = Data;
 1129              		.loc 1 942 0
 1130 032a 2B69     		ldr	r3, [r5, #16]
 943:../../source/src/FWlib/src/stm32f10x_flash.c ****     
 1131              		.loc 1 943 0
 1132 032c A4B2     		uxth	r4, r4
 942:../../source/src/FWlib/src/stm32f10x_flash.c ****     *(__IO uint16_t*)Address = Data;
 1133              		.loc 1 942 0
 1134 032e 43F01003 		orr	r3, r3, #16
 1135 0332 2B61     		str	r3, [r5, #16]
 946:../../source/src/FWlib/src/stm32f10x_flash.c ****     if(status != FLASH_TIMEOUT)
 1136              		.loc 1 946 0
 1137 0334 4FF40050 		mov	r0, #8192
 1138              	.LVL79:
 943:../../source/src/FWlib/src/stm32f10x_flash.c ****     
 1139              		.loc 1 943 0
 1140 0338 3480     		strh	r4, [r6]	@ movhi
 946:../../source/src/FWlib/src/stm32f10x_flash.c ****     if(status != FLASH_TIMEOUT)
 1141              		.loc 1 946 0
 1142 033a FFF7FEFF 		bl	FLASH_WaitForLastOperation
 1143              	.LVL80:
 947:../../source/src/FWlib/src/stm32f10x_flash.c ****     {
 1144              		.loc 1 947 0
 1145 033e 0528     		cmp	r0, #5
 1146 0340 EDD0     		beq	.L111
 950:../../source/src/FWlib/src/stm32f10x_flash.c ****     }
 1147              		.loc 1 950 0
 1148 0342 41F6EF72 		movw	r2, #8175
 1149 0346 2B69     		ldr	r3, [r5, #16]
 1150 0348 1340     		ands	r3, r3, r2
 1151 034a 2B61     		str	r3, [r5, #16]
 955:../../source/src/FWlib/src/stm32f10x_flash.c **** 
 1152              		.loc 1 955 0
 1153 034c 70BD     		pop	{r4, r5, r6, pc}
 1154              	.LVL81:
 1155              	.L117:
 1156 034e 00BF     		.align	2
 1157              	.L116:
 1158 0350 00200240 		.word	1073881088
 1159 0354 23016745 		.word	1164378403
 1160 0358 AB89EFCD 		.word	-839939669
 1161              		.cfi_endproc
 1162              	.LFE42:
 1163              		.size	FLASH_ProgramOptionByteData, .-FLASH_ProgramOptionByteData
 1164              		.align	1
 1165              		.p2align 2,,3
 1166              		.global	FLASH_EnableWriteProtection
 1167              		.syntax unified
ARM GAS  G:\Users\Jaxb\AppData\Local\Temp\ccck4Nii.s 			page 52


 1168              		.thumb
 1169              		.thumb_func
 1170              		.fpu softvfp
 1171              		.type	FLASH_EnableWriteProtection, %function
 1172              	FLASH_EnableWriteProtection:
 1173              	.LFB43:
 976:../../source/src/FWlib/src/stm32f10x_flash.c ****   uint16_t WRP0_Data = 0xFFFF, WRP1_Data = 0xFFFF, WRP2_Data = 0xFFFF, WRP3_Data = 0xFFFF;
 1174              		.loc 1 976 0
 1175              		.cfi_startproc
 1176              		@ args = 0, pretend = 0, frame = 0
 1177              		@ frame_needed = 0, uses_anonymous_args = 0
 1178              	.LVL82:
 1179 035c 38B5     		push	{r3, r4, r5, lr}
 1180              	.LCFI12:
 1181              		.cfi_def_cfa_offset 16
 1182              		.cfi_offset 3, -16
 1183              		.cfi_offset 4, -12
 1184              		.cfi_offset 5, -8
 1185              		.cfi_offset 14, -4
 976:../../source/src/FWlib/src/stm32f10x_flash.c ****   uint16_t WRP0_Data = 0xFFFF, WRP1_Data = 0xFFFF, WRP2_Data = 0xFFFF, WRP3_Data = 0xFFFF;
 1186              		.loc 1 976 0
 1187 035e 0546     		mov	r5, r0
 1188              	.LVL83:
 991:../../source/src/FWlib/src/stm32f10x_flash.c ****   
 1189              		.loc 1 991 0
 1190 0360 4FF40050 		mov	r0, #8192
 1191              	.LVL84:
 1192 0364 FFF7FEFF 		bl	FLASH_WaitForLastOperation
 1193              	.LVL85:
 993:../../source/src/FWlib/src/stm32f10x_flash.c ****   {
 1194              		.loc 1 993 0
 1195 0368 0428     		cmp	r0, #4
 991:../../source/src/FWlib/src/stm32f10x_flash.c ****   
 1196              		.loc 1 991 0
 1197 036a 0446     		mov	r4, r0
 1198              	.LVL86:
 993:../../source/src/FWlib/src/stm32f10x_flash.c ****   {
 1199              		.loc 1 993 0
 1200 036c 01D0     		beq	.L139
 1201              	.LVL87:
 1202              	.L129:
1037:../../source/src/FWlib/src/stm32f10x_flash.c **** 
 1203              		.loc 1 1037 0
 1204 036e 2046     		mov	r0, r4
 1205 0370 38BD     		pop	{r3, r4, r5, pc}
 1206              	.LVL88:
 1207              	.L139:
 984:../../source/src/FWlib/src/stm32f10x_flash.c ****   WRP0_Data = (uint16_t)(FLASH_Pages & WRP0_Mask);
 1208              		.loc 1 984 0
 1209 0372 ED43     		mvns	r5, r5
 1210              	.LVL89:
 996:../../source/src/FWlib/src/stm32f10x_flash.c ****     FLASH->OPTKEYR = FLASH_KEY2;
 1211              		.loc 1 996 0
 1212 0374 214B     		ldr	r3, .L141
 1213 0376 2249     		ldr	r1, .L141+4
 997:../../source/src/FWlib/src/stm32f10x_flash.c ****     FLASH->CR |= CR_OPTPG_Set;
 1214              		.loc 1 997 0
ARM GAS  G:\Users\Jaxb\AppData\Local\Temp\ccck4Nii.s 			page 53


 1215 0378 224A     		ldr	r2, .L141+8
 996:../../source/src/FWlib/src/stm32f10x_flash.c ****     FLASH->OPTKEYR = FLASH_KEY2;
 1216              		.loc 1 996 0
 1217 037a 9960     		str	r1, [r3, #8]
 997:../../source/src/FWlib/src/stm32f10x_flash.c ****     FLASH->CR |= CR_OPTPG_Set;
 1218              		.loc 1 997 0
 1219 037c 9A60     		str	r2, [r3, #8]
 998:../../source/src/FWlib/src/stm32f10x_flash.c ****     if(WRP0_Data != 0xFF)
 1220              		.loc 1 998 0
 1221 037e 1A69     		ldr	r2, [r3, #16]
 985:../../source/src/FWlib/src/stm32f10x_flash.c ****   WRP1_Data = (uint16_t)((FLASH_Pages & WRP1_Mask) >> 8);
 1222              		.loc 1 985 0
 1223 0380 E9B2     		uxtb	r1, r5
 998:../../source/src/FWlib/src/stm32f10x_flash.c ****     if(WRP0_Data != 0xFF)
 1224              		.loc 1 998 0
 1225 0382 42F01002 		orr	r2, r2, #16
 999:../../source/src/FWlib/src/stm32f10x_flash.c ****     {
 1226              		.loc 1 999 0
 1227 0386 FF29     		cmp	r1, #255
 998:../../source/src/FWlib/src/stm32f10x_flash.c ****     if(WRP0_Data != 0xFF)
 1228              		.loc 1 998 0
 1229 0388 1A61     		str	r2, [r3, #16]
 999:../../source/src/FWlib/src/stm32f10x_flash.c ****     {
 1230              		.loc 1 999 0
 1231 038a 1AD1     		bne	.L120
 1232              	.LVL90:
 1233              	.L123:
 986:../../source/src/FWlib/src/stm32f10x_flash.c ****   WRP2_Data = (uint16_t)((FLASH_Pages & WRP2_Mask) >> 16);
 1234              		.loc 1 986 0
 1235 038c C5F30723 		ubfx	r3, r5, #8, #8
1006:../../source/src/FWlib/src/stm32f10x_flash.c ****     {
 1236              		.loc 1 1006 0
 1237 0390 FF2B     		cmp	r3, #255
 1238 0392 29D1     		bne	.L140
 1239              	.L122:
 987:../../source/src/FWlib/src/stm32f10x_flash.c ****   WRP3_Data = (uint16_t)((FLASH_Pages & WRP3_Mask) >> 24);
 1240              		.loc 1 987 0
 1241 0394 C5F30743 		ubfx	r3, r5, #16, #8
1013:../../source/src/FWlib/src/stm32f10x_flash.c ****     {
 1242              		.loc 1 1013 0
 1243 0398 FF2B     		cmp	r3, #255
 1244 039a 07D0     		beq	.L127
1015:../../source/src/FWlib/src/stm32f10x_flash.c ****       
 1245              		.loc 1 1015 0
 1246 039c 1A4A     		ldr	r2, .L141+12
1018:../../source/src/FWlib/src/stm32f10x_flash.c ****     }
 1247              		.loc 1 1018 0
 1248 039e 4FF40050 		mov	r0, #8192
1015:../../source/src/FWlib/src/stm32f10x_flash.c ****       
 1249              		.loc 1 1015 0
 1250 03a2 9381     		strh	r3, [r2, #12]	@ movhi
1018:../../source/src/FWlib/src/stm32f10x_flash.c ****     }
 1251              		.loc 1 1018 0
 1252 03a4 FFF7FEFF 		bl	FLASH_WaitForLastOperation
 1253              	.LVL91:
1021:../../source/src/FWlib/src/stm32f10x_flash.c ****     {
 1254              		.loc 1 1021 0
ARM GAS  G:\Users\Jaxb\AppData\Local\Temp\ccck4Nii.s 			page 54


 1255 03a8 0428     		cmp	r0, #4
 1256 03aa 12D1     		bne	.L124
 1257              	.LVL92:
 1258              	.L127:
 988:../../source/src/FWlib/src/stm32f10x_flash.c ****   
 1259              		.loc 1 988 0
 1260 03ac 2D0E     		lsrs	r5, r5, #24
 1261              	.LVL93:
1021:../../source/src/FWlib/src/stm32f10x_flash.c ****     {
 1262              		.loc 1 1021 0
 1263 03ae FF2D     		cmp	r5, #255
 1264 03b0 12D0     		beq	.L125
1023:../../source/src/FWlib/src/stm32f10x_flash.c ****      
 1265              		.loc 1 1023 0
 1266 03b2 154B     		ldr	r3, .L141+12
 988:../../source/src/FWlib/src/stm32f10x_flash.c ****   
 1267              		.loc 1 988 0
 1268 03b4 ADB2     		uxth	r5, r5
1023:../../source/src/FWlib/src/stm32f10x_flash.c ****      
 1269              		.loc 1 1023 0
 1270 03b6 DD81     		strh	r5, [r3, #14]	@ movhi
1026:../../source/src/FWlib/src/stm32f10x_flash.c ****     }
 1271              		.loc 1 1026 0
 1272 03b8 4FF40050 		mov	r0, #8192
 1273 03bc FFF7FEFF 		bl	FLASH_WaitForLastOperation
 1274              	.LVL94:
 1275 03c0 07E0     		b	.L124
 1276              	.L120:
1001:../../source/src/FWlib/src/stm32f10x_flash.c ****       
 1277              		.loc 1 1001 0
 1278 03c2 114B     		ldr	r3, .L141+12
1004:../../source/src/FWlib/src/stm32f10x_flash.c ****     }
 1279              		.loc 1 1004 0
 1280 03c4 4FF40050 		mov	r0, #8192
 1281              	.LVL95:
1001:../../source/src/FWlib/src/stm32f10x_flash.c ****       
 1282              		.loc 1 1001 0
 1283 03c8 1981     		strh	r1, [r3, #8]	@ movhi
1004:../../source/src/FWlib/src/stm32f10x_flash.c ****     }
 1284              		.loc 1 1004 0
 1285 03ca FFF7FEFF 		bl	FLASH_WaitForLastOperation
 1286              	.LVL96:
1006:../../source/src/FWlib/src/stm32f10x_flash.c ****     {
 1287              		.loc 1 1006 0
 1288 03ce 0428     		cmp	r0, #4
 1289 03d0 DCD0     		beq	.L123
 1290              	.LVL97:
 1291              	.L124:
1029:../../source/src/FWlib/src/stm32f10x_flash.c ****     {
 1292              		.loc 1 1029 0
 1293 03d2 0528     		cmp	r0, #5
 1294 03d4 0446     		mov	r4, r0
 1295 03d6 CAD0     		beq	.L129
 1296              	.LVL98:
 1297              	.L125:
1032:../../source/src/FWlib/src/stm32f10x_flash.c ****     }
 1298              		.loc 1 1032 0
ARM GAS  G:\Users\Jaxb\AppData\Local\Temp\ccck4Nii.s 			page 55


 1299 03d8 41F6EF71 		movw	r1, #8175
 1300 03dc 074A     		ldr	r2, .L141
1037:../../source/src/FWlib/src/stm32f10x_flash.c **** 
 1301              		.loc 1 1037 0
 1302 03de 2046     		mov	r0, r4
1032:../../source/src/FWlib/src/stm32f10x_flash.c ****     }
 1303              		.loc 1 1032 0
 1304 03e0 1369     		ldr	r3, [r2, #16]
 1305 03e2 0B40     		ands	r3, r3, r1
 1306 03e4 1361     		str	r3, [r2, #16]
1037:../../source/src/FWlib/src/stm32f10x_flash.c **** 
 1307              		.loc 1 1037 0
 1308 03e6 38BD     		pop	{r3, r4, r5, pc}
 1309              	.L140:
1008:../../source/src/FWlib/src/stm32f10x_flash.c ****       
 1310              		.loc 1 1008 0
 1311 03e8 074A     		ldr	r2, .L141+12
1011:../../source/src/FWlib/src/stm32f10x_flash.c ****     }
 1312              		.loc 1 1011 0
 1313 03ea 4FF40050 		mov	r0, #8192
1008:../../source/src/FWlib/src/stm32f10x_flash.c ****       
 1314              		.loc 1 1008 0
 1315 03ee 5381     		strh	r3, [r2, #10]	@ movhi
1011:../../source/src/FWlib/src/stm32f10x_flash.c ****     }
 1316              		.loc 1 1011 0
 1317 03f0 FFF7FEFF 		bl	FLASH_WaitForLastOperation
 1318              	.LVL99:
1013:../../source/src/FWlib/src/stm32f10x_flash.c ****     {
 1319              		.loc 1 1013 0
 1320 03f4 0428     		cmp	r0, #4
 1321 03f6 CDD0     		beq	.L122
 1322 03f8 EBE7     		b	.L124
 1323              	.L142:
 1324 03fa 00BF     		.align	2
 1325              	.L141:
 1326 03fc 00200240 		.word	1073881088
 1327 0400 23016745 		.word	1164378403
 1328 0404 AB89EFCD 		.word	-839939669
 1329 0408 00F8FF1F 		.word	536868864
 1330              		.cfi_endproc
 1331              	.LFE43:
 1332              		.size	FLASH_EnableWriteProtection, .-FLASH_EnableWriteProtection
 1333              		.align	1
 1334              		.p2align 2,,3
 1335              		.global	FLASH_ReadOutProtection
 1336              		.syntax unified
 1337              		.thumb
 1338              		.thumb_func
 1339              		.fpu softvfp
 1340              		.type	FLASH_ReadOutProtection, %function
 1341              	FLASH_ReadOutProtection:
 1342              	.LFB44:
1050:../../source/src/FWlib/src/stm32f10x_flash.c ****   FLASH_Status status = FLASH_COMPLETE;
 1343              		.loc 1 1050 0
 1344              		.cfi_startproc
 1345              		@ args = 0, pretend = 0, frame = 0
 1346              		@ frame_needed = 0, uses_anonymous_args = 0
ARM GAS  G:\Users\Jaxb\AppData\Local\Temp\ccck4Nii.s 			page 56


 1347              	.LVL100:
 1348 040c 38B5     		push	{r3, r4, r5, lr}
 1349              	.LCFI13:
 1350              		.cfi_def_cfa_offset 16
 1351              		.cfi_offset 3, -16
 1352              		.cfi_offset 4, -12
 1353              		.cfi_offset 5, -8
 1354              		.cfi_offset 14, -4
1050:../../source/src/FWlib/src/stm32f10x_flash.c ****   FLASH_Status status = FLASH_COMPLETE;
 1355              		.loc 1 1050 0
 1356 040e 0546     		mov	r5, r0
1054:../../source/src/FWlib/src/stm32f10x_flash.c ****   if(status == FLASH_COMPLETE)
 1357              		.loc 1 1054 0
 1358 0410 4FF43020 		mov	r0, #720896
 1359              	.LVL101:
 1360 0414 FFF7FEFF 		bl	FLASH_WaitForLastOperation
 1361              	.LVL102:
1055:../../source/src/FWlib/src/stm32f10x_flash.c ****   {
 1362              		.loc 1 1055 0
 1363 0418 0428     		cmp	r0, #4
 1364 041a 00D0     		beq	.L154
 1365              	.L144:
1098:../../source/src/FWlib/src/stm32f10x_flash.c **** 
 1366              		.loc 1 1098 0
 1367 041c 38BD     		pop	{r3, r4, r5, pc}
 1368              	.L154:
1058:../../source/src/FWlib/src/stm32f10x_flash.c ****     FLASH->OPTKEYR = FLASH_KEY2;
 1369              		.loc 1 1058 0
 1370 041e 1C4C     		ldr	r4, .L157
 1371 0420 1C4A     		ldr	r2, .L157+4
1059:../../source/src/FWlib/src/stm32f10x_flash.c ****     FLASH->CR |= CR_OPTER_Set;
 1372              		.loc 1 1059 0
 1373 0422 1D4B     		ldr	r3, .L157+8
1058:../../source/src/FWlib/src/stm32f10x_flash.c ****     FLASH->OPTKEYR = FLASH_KEY2;
 1374              		.loc 1 1058 0
 1375 0424 A260     		str	r2, [r4, #8]
1059:../../source/src/FWlib/src/stm32f10x_flash.c ****     FLASH->CR |= CR_OPTER_Set;
 1376              		.loc 1 1059 0
 1377 0426 A360     		str	r3, [r4, #8]
1060:../../source/src/FWlib/src/stm32f10x_flash.c ****     FLASH->CR |= CR_STRT_Set;
 1378              		.loc 1 1060 0
 1379 0428 2369     		ldr	r3, [r4, #16]
1063:../../source/src/FWlib/src/stm32f10x_flash.c ****     if(status == FLASH_COMPLETE)
 1380              		.loc 1 1063 0
 1381 042a 4FF43020 		mov	r0, #720896
 1382              	.LVL103:
1060:../../source/src/FWlib/src/stm32f10x_flash.c ****     FLASH->CR |= CR_STRT_Set;
 1383              		.loc 1 1060 0
 1384 042e 43F02003 		orr	r3, r3, #32
 1385 0432 2361     		str	r3, [r4, #16]
1061:../../source/src/FWlib/src/stm32f10x_flash.c ****     /* Wait for last operation to be completed */
 1386              		.loc 1 1061 0
 1387 0434 2369     		ldr	r3, [r4, #16]
 1388 0436 43F04003 		orr	r3, r3, #64
 1389 043a 2361     		str	r3, [r4, #16]
1063:../../source/src/FWlib/src/stm32f10x_flash.c ****     if(status == FLASH_COMPLETE)
 1390              		.loc 1 1063 0
ARM GAS  G:\Users\Jaxb\AppData\Local\Temp\ccck4Nii.s 			page 57


 1391 043c FFF7FEFF 		bl	FLASH_WaitForLastOperation
 1392              	.LVL104:
1064:../../source/src/FWlib/src/stm32f10x_flash.c ****     {
 1393              		.loc 1 1064 0
 1394 0440 0428     		cmp	r0, #4
 1395 0442 07D0     		beq	.L155
1089:../../source/src/FWlib/src/stm32f10x_flash.c ****       {
 1396              		.loc 1 1089 0
 1397 0444 0528     		cmp	r0, #5
 1398 0446 E9D0     		beq	.L144
1092:../../source/src/FWlib/src/stm32f10x_flash.c ****       }
 1399              		.loc 1 1092 0
 1400 0448 41F6DF72 		movw	r2, #8159
 1401 044c 2369     		ldr	r3, [r4, #16]
 1402 044e 1340     		ands	r3, r3, r2
 1403 0450 2361     		str	r3, [r4, #16]
1098:../../source/src/FWlib/src/stm32f10x_flash.c **** 
 1404              		.loc 1 1098 0
 1405 0452 38BD     		pop	{r3, r4, r5, pc}
 1406              	.L155:
1067:../../source/src/FWlib/src/stm32f10x_flash.c ****       /* Enable the Option Bytes Programming operation */
 1407              		.loc 1 1067 0
 1408 0454 41F6DF72 		movw	r2, #8159
 1409 0458 2369     		ldr	r3, [r4, #16]
 1410 045a 1340     		ands	r3, r3, r2
 1411 045c 2361     		str	r3, [r4, #16]
1069:../../source/src/FWlib/src/stm32f10x_flash.c ****       if(NewState != DISABLE)
 1412              		.loc 1 1069 0
 1413 045e 2369     		ldr	r3, [r4, #16]
 1414 0460 43F01003 		orr	r3, r3, #16
 1415 0464 2361     		str	r3, [r4, #16]
1070:../../source/src/FWlib/src/stm32f10x_flash.c ****       {
 1416              		.loc 1 1070 0
 1417 0466 7DB9     		cbnz	r5, .L156
1076:../../source/src/FWlib/src/stm32f10x_flash.c ****       }
 1418              		.loc 1 1076 0
 1419 0468 A522     		movs	r2, #165
 1420 046a 0C4B     		ldr	r3, .L157+12
 1421 046c 1A80     		strh	r2, [r3]	@ movhi
 1422              	.L147:
1079:../../source/src/FWlib/src/stm32f10x_flash.c ****     
 1423              		.loc 1 1079 0
 1424 046e 4FF43020 		mov	r0, #720896
 1425              	.LVL105:
 1426 0472 FFF7FEFF 		bl	FLASH_WaitForLastOperation
 1427              	.LVL106:
1081:../../source/src/FWlib/src/stm32f10x_flash.c ****       {
 1428              		.loc 1 1081 0
 1429 0476 0528     		cmp	r0, #5
 1430 0478 D0D0     		beq	.L144
1084:../../source/src/FWlib/src/stm32f10x_flash.c ****       }
 1431              		.loc 1 1084 0
 1432 047a 41F6EF71 		movw	r1, #8175
 1433 047e 044A     		ldr	r2, .L157
 1434 0480 1369     		ldr	r3, [r2, #16]
 1435 0482 0B40     		ands	r3, r3, r1
 1436 0484 1361     		str	r3, [r2, #16]
ARM GAS  G:\Users\Jaxb\AppData\Local\Temp\ccck4Nii.s 			page 58


1098:../../source/src/FWlib/src/stm32f10x_flash.c **** 
 1437              		.loc 1 1098 0
 1438 0486 38BD     		pop	{r3, r4, r5, pc}
 1439              	.L156:
1072:../../source/src/FWlib/src/stm32f10x_flash.c ****       }
 1440              		.loc 1 1072 0
 1441 0488 0022     		movs	r2, #0
 1442 048a 044B     		ldr	r3, .L157+12
 1443 048c 1A80     		strh	r2, [r3]	@ movhi
 1444 048e EEE7     		b	.L147
 1445              	.L158:
 1446              		.align	2
 1447              	.L157:
 1448 0490 00200240 		.word	1073881088
 1449 0494 23016745 		.word	1164378403
 1450 0498 AB89EFCD 		.word	-839939669
 1451 049c 00F8FF1F 		.word	536868864
 1452              		.cfi_endproc
 1453              	.LFE44:
 1454              		.size	FLASH_ReadOutProtection, .-FLASH_ReadOutProtection
 1455              		.align	1
 1456              		.p2align 2,,3
 1457              		.global	FLASH_UserOptionByteConfig
 1458              		.syntax unified
 1459              		.thumb
 1460              		.thumb_func
 1461              		.fpu softvfp
 1462              		.type	FLASH_UserOptionByteConfig, %function
 1463              	FLASH_UserOptionByteConfig:
 1464              	.LFB45:
1119:../../source/src/FWlib/src/stm32f10x_flash.c ****   FLASH_Status status = FLASH_COMPLETE; 
 1465              		.loc 1 1119 0
 1466              		.cfi_startproc
 1467              		@ args = 0, pretend = 0, frame = 0
 1468              		@ frame_needed = 0, uses_anonymous_args = 0
 1469              	.LVL107:
 1470 04a0 F8B5     		push	{r3, r4, r5, r6, r7, lr}
 1471              	.LCFI14:
 1472              		.cfi_def_cfa_offset 24
 1473              		.cfi_offset 3, -24
 1474              		.cfi_offset 4, -20
 1475              		.cfi_offset 5, -16
 1476              		.cfi_offset 6, -12
 1477              		.cfi_offset 7, -8
 1478              		.cfi_offset 14, -4
1128:../../source/src/FWlib/src/stm32f10x_flash.c ****   FLASH->OPTKEYR = FLASH_KEY2;
 1479              		.loc 1 1128 0
 1480 04a2 124C     		ldr	r4, .L165
 1481 04a4 124D     		ldr	r5, .L165+4
1129:../../source/src/FWlib/src/stm32f10x_flash.c ****   
 1482              		.loc 1 1129 0
 1483 04a6 134B     		ldr	r3, .L165+8
1128:../../source/src/FWlib/src/stm32f10x_flash.c ****   FLASH->OPTKEYR = FLASH_KEY2;
 1484              		.loc 1 1128 0
 1485 04a8 A560     		str	r5, [r4, #8]
1119:../../source/src/FWlib/src/stm32f10x_flash.c ****   FLASH_Status status = FLASH_COMPLETE; 
 1486              		.loc 1 1119 0
ARM GAS  G:\Users\Jaxb\AppData\Local\Temp\ccck4Nii.s 			page 59


 1487 04aa 0746     		mov	r7, r0
1129:../../source/src/FWlib/src/stm32f10x_flash.c ****   
 1488              		.loc 1 1129 0
 1489 04ac A360     		str	r3, [r4, #8]
1132:../../source/src/FWlib/src/stm32f10x_flash.c ****   
 1490              		.loc 1 1132 0
 1491 04ae 4FF40050 		mov	r0, #8192
 1492              	.LVL108:
1119:../../source/src/FWlib/src/stm32f10x_flash.c ****   FLASH_Status status = FLASH_COMPLETE; 
 1493              		.loc 1 1119 0
 1494 04b2 0E46     		mov	r6, r1
 1495 04b4 1546     		mov	r5, r2
1132:../../source/src/FWlib/src/stm32f10x_flash.c ****   
 1496              		.loc 1 1132 0
 1497 04b6 FFF7FEFF 		bl	FLASH_WaitForLastOperation
 1498              	.LVL109:
1134:../../source/src/FWlib/src/stm32f10x_flash.c ****   {  
 1499              		.loc 1 1134 0
 1500 04ba 0428     		cmp	r0, #4
 1501 04bc 00D0     		beq	.L164
 1502              	.L160:
1151:../../source/src/FWlib/src/stm32f10x_flash.c **** 
 1503              		.loc 1 1151 0
 1504 04be F8BD     		pop	{r3, r4, r5, r6, r7, pc}
 1505              	.L164:
1137:../../source/src/FWlib/src/stm32f10x_flash.c ****            
 1506              		.loc 1 1137 0
 1507 04c0 2369     		ldr	r3, [r4, #16]
1139:../../source/src/FWlib/src/stm32f10x_flash.c ****   
 1508              		.loc 1 1139 0
 1509 04c2 47F0F807 		orr	r7, r7, #248
 1510 04c6 0C4A     		ldr	r2, .L165+12
 1511 04c8 3E43     		orrs	r6, r6, r7
1137:../../source/src/FWlib/src/stm32f10x_flash.c ****            
 1512              		.loc 1 1137 0
 1513 04ca 43F01003 		orr	r3, r3, #16
1139:../../source/src/FWlib/src/stm32f10x_flash.c ****   
 1514              		.loc 1 1139 0
 1515 04ce 3543     		orrs	r5, r5, r6
1137:../../source/src/FWlib/src/stm32f10x_flash.c ****            
 1516              		.loc 1 1137 0
 1517 04d0 2361     		str	r3, [r4, #16]
1142:../../source/src/FWlib/src/stm32f10x_flash.c ****     if(status != FLASH_TIMEOUT)
 1518              		.loc 1 1142 0
 1519 04d2 4FF40050 		mov	r0, #8192
 1520              	.LVL110:
1139:../../source/src/FWlib/src/stm32f10x_flash.c ****   
 1521              		.loc 1 1139 0
 1522 04d6 5580     		strh	r5, [r2, #2]	@ movhi
1142:../../source/src/FWlib/src/stm32f10x_flash.c ****     if(status != FLASH_TIMEOUT)
 1523              		.loc 1 1142 0
 1524 04d8 FFF7FEFF 		bl	FLASH_WaitForLastOperation
 1525              	.LVL111:
1143:../../source/src/FWlib/src/stm32f10x_flash.c ****     {
 1526              		.loc 1 1143 0
 1527 04dc 0528     		cmp	r0, #5
 1528 04de EED0     		beq	.L160
ARM GAS  G:\Users\Jaxb\AppData\Local\Temp\ccck4Nii.s 			page 60


1146:../../source/src/FWlib/src/stm32f10x_flash.c ****     }
 1529              		.loc 1 1146 0
 1530 04e0 41F6EF72 		movw	r2, #8175
 1531 04e4 2369     		ldr	r3, [r4, #16]
 1532 04e6 1340     		ands	r3, r3, r2
 1533 04e8 2361     		str	r3, [r4, #16]
1151:../../source/src/FWlib/src/stm32f10x_flash.c **** 
 1534              		.loc 1 1151 0
 1535 04ea F8BD     		pop	{r3, r4, r5, r6, r7, pc}
 1536              	.L166:
 1537              		.align	2
 1538              	.L165:
 1539 04ec 00200240 		.word	1073881088
 1540 04f0 23016745 		.word	1164378403
 1541 04f4 AB89EFCD 		.word	-839939669
 1542 04f8 00F8FF1F 		.word	536868864
 1543              		.cfi_endproc
 1544              	.LFE45:
 1545              		.size	FLASH_UserOptionByteConfig, .-FLASH_UserOptionByteConfig
 1546              		.align	1
 1547              		.p2align 2,,3
 1548              		.global	FLASH_WaitForLastBank1Operation
 1549              		.syntax unified
 1550              		.thumb
 1551              		.thumb_func
 1552              		.fpu softvfp
 1553              		.type	FLASH_WaitForLastBank1Operation, %function
 1554              	FLASH_WaitForLastBank1Operation:
 1555              	.LFB65:
 1556              		.cfi_startproc
 1557              		@ args = 0, pretend = 0, frame = 0
 1558              		@ frame_needed = 0, uses_anonymous_args = 0
 1559              		@ link register save eliminated.
 1560 04fc FFF7FEBF 		b	FLASH_WaitForLastOperation
 1561              		.cfi_endproc
 1562              	.LFE65:
 1563              		.size	FLASH_WaitForLastBank1Operation, .-FLASH_WaitForLastBank1Operation
 1564              	.Letext0:
 1565              		.file 2 "f:\\arm\\gcc2018\\arm-none-eabi\\include\\machine\\_default_types.h"
 1566              		.file 3 "f:\\arm\\gcc2018\\arm-none-eabi\\include\\sys\\_stdint.h"
 1567              		.file 4 "../../source/include/core_cm3.h"
 1568              		.file 5 "../../source/include/system_stm32f10x.h"
 1569              		.file 6 "../../source/include/stm32f10x.h"
 1570              		.file 7 "../../source/src/FWlib/inc/stm32f10x_flash.h"
 1571              		.section	.debug_info,"",%progbits
 1572              	.Ldebug_info0:
 1573 0000 6B0A0000 		.4byte	0xa6b
 1574 0004 0200     		.2byte	0x2
 1575 0006 00000000 		.4byte	.Ldebug_abbrev0
 1576 000a 04       		.byte	0x4
 1577 000b 01       		.uleb128 0x1
 1578 000c A1020000 		.4byte	.LASF93
 1579 0010 0C       		.byte	0xc
 1580 0011 42050000 		.4byte	.LASF94
 1581 0015 AC010000 		.4byte	.LASF95
 1582 0019 00000000 		.4byte	.Ltext0
 1583 001d 00050000 		.4byte	.Letext0
ARM GAS  G:\Users\Jaxb\AppData\Local\Temp\ccck4Nii.s 			page 61


 1584 0021 00000000 		.4byte	.Ldebug_line0
 1585 0025 02       		.uleb128 0x2
 1586 0026 01       		.byte	0x1
 1587 0027 06       		.byte	0x6
 1588 0028 5F030000 		.4byte	.LASF0
 1589 002c 03       		.uleb128 0x3
 1590 002d 36020000 		.4byte	.LASF3
 1591 0031 02       		.byte	0x2
 1592 0032 2B       		.byte	0x2b
 1593 0033 37000000 		.4byte	0x37
 1594 0037 02       		.uleb128 0x2
 1595 0038 01       		.byte	0x1
 1596 0039 08       		.byte	0x8
 1597 003a 62020000 		.4byte	.LASF1
 1598 003e 02       		.uleb128 0x2
 1599 003f 02       		.byte	0x2
 1600 0040 05       		.byte	0x5
 1601 0041 BF000000 		.4byte	.LASF2
 1602 0045 03       		.uleb128 0x3
 1603 0046 B4000000 		.4byte	.LASF4
 1604 004a 02       		.byte	0x2
 1605 004b 39       		.byte	0x39
 1606 004c 50000000 		.4byte	0x50
 1607 0050 02       		.uleb128 0x2
 1608 0051 02       		.byte	0x2
 1609 0052 07       		.byte	0x7
 1610 0053 0E040000 		.4byte	.LASF5
 1611 0057 02       		.uleb128 0x2
 1612 0058 04       		.byte	0x4
 1613 0059 05       		.byte	0x5
 1614 005a 1B020000 		.4byte	.LASF6
 1615 005e 03       		.uleb128 0x3
 1616 005f A1000000 		.4byte	.LASF7
 1617 0063 02       		.byte	0x2
 1618 0064 4F       		.byte	0x4f
 1619 0065 69000000 		.4byte	0x69
 1620 0069 02       		.uleb128 0x2
 1621 006a 04       		.byte	0x4
 1622 006b 07       		.byte	0x7
 1623 006c 24020000 		.4byte	.LASF8
 1624 0070 02       		.uleb128 0x2
 1625 0071 08       		.byte	0x8
 1626 0072 05       		.byte	0x5
 1627 0073 DA010000 		.4byte	.LASF9
 1628 0077 02       		.uleb128 0x2
 1629 0078 08       		.byte	0x8
 1630 0079 07       		.byte	0x7
 1631 007a 7F030000 		.4byte	.LASF10
 1632 007e 04       		.uleb128 0x4
 1633 007f 04       		.byte	0x4
 1634 0080 05       		.byte	0x5
 1635 0081 696E7400 		.ascii	"int\000"
 1636 0085 05       		.uleb128 0x5
 1637 0086 7E000000 		.4byte	0x7e
 1638 008a 02       		.uleb128 0x2
 1639 008b 04       		.byte	0x4
 1640 008c 07       		.byte	0x7
ARM GAS  G:\Users\Jaxb\AppData\Local\Temp\ccck4Nii.s 			page 62


 1641 008d AF030000 		.4byte	.LASF11
 1642 0091 03       		.uleb128 0x3
 1643 0092 0A010000 		.4byte	.LASF12
 1644 0096 03       		.byte	0x3
 1645 0097 18       		.byte	0x18
 1646 0098 2C000000 		.4byte	0x2c
 1647 009c 03       		.uleb128 0x3
 1648 009d 73040000 		.4byte	.LASF13
 1649 00a1 03       		.byte	0x3
 1650 00a2 24       		.byte	0x24
 1651 00a3 45000000 		.4byte	0x45
 1652 00a7 05       		.uleb128 0x5
 1653 00a8 9C000000 		.4byte	0x9c
 1654 00ac 03       		.uleb128 0x3
 1655 00ad 96030000 		.4byte	.LASF14
 1656 00b1 03       		.byte	0x3
 1657 00b2 30       		.byte	0x30
 1658 00b3 5E000000 		.4byte	0x5e
 1659 00b7 05       		.uleb128 0x5
 1660 00b8 AC000000 		.4byte	0xac
 1661 00bc 06       		.uleb128 0x6
 1662 00bd 35050000 		.4byte	.LASF15
 1663 00c1 04       		.byte	0x4
 1664 00c2 CE06     		.2byte	0x6ce
 1665 00c4 85000000 		.4byte	0x85
 1666 00c8 01       		.byte	0x1
 1667 00c9 01       		.byte	0x1
 1668 00ca 07       		.uleb128 0x7
 1669 00cb B2040000 		.4byte	.LASF16
 1670 00cf 05       		.byte	0x5
 1671 00d0 35       		.byte	0x35
 1672 00d1 AC000000 		.4byte	0xac
 1673 00d5 01       		.byte	0x1
 1674 00d6 01       		.byte	0x1
 1675 00d7 08       		.uleb128 0x8
 1676 00d8 07       		.byte	0x7
 1677 00d9 01       		.byte	0x1
 1678 00da 37000000 		.4byte	0x37
 1679 00de 06       		.byte	0x6
 1680 00df 0702     		.2byte	0x207
 1681 00e1 F2000000 		.4byte	0xf2
 1682 00e5 09       		.uleb128 0x9
 1683 00e6 8B050000 		.4byte	.LASF17
 1684 00ea 00       		.byte	0
 1685 00eb 0A       		.uleb128 0xa
 1686 00ec 53455400 		.ascii	"SET\000"
 1687 00f0 01       		.byte	0x1
 1688 00f1 00       		.byte	0
 1689 00f2 0B       		.uleb128 0xb
 1690 00f3 15060000 		.4byte	.LASF18
 1691 00f7 06       		.byte	0x6
 1692 00f8 0702     		.2byte	0x207
 1693 00fa D7000000 		.4byte	0xd7
 1694 00fe 08       		.uleb128 0x8
 1695 00ff 07       		.byte	0x7
 1696 0100 01       		.byte	0x1
 1697 0101 37000000 		.4byte	0x37
ARM GAS  G:\Users\Jaxb\AppData\Local\Temp\ccck4Nii.s 			page 63


 1698 0105 06       		.byte	0x6
 1699 0106 0902     		.2byte	0x209
 1700 0108 19010000 		.4byte	0x119
 1701 010c 09       		.uleb128 0x9
 1702 010d 67010000 		.4byte	.LASF19
 1703 0111 00       		.byte	0
 1704 0112 09       		.uleb128 0x9
 1705 0113 20060000 		.4byte	.LASF20
 1706 0117 01       		.byte	0x1
 1707 0118 00       		.byte	0
 1708 0119 0B       		.uleb128 0xb
 1709 011a 25050000 		.4byte	.LASF21
 1710 011e 06       		.byte	0x6
 1711 011f 0902     		.2byte	0x209
 1712 0121 FE000000 		.4byte	0xfe
 1713 0125 0C       		.uleb128 0xc
 1714 0126 24       		.byte	0x24
 1715 0127 06       		.byte	0x6
 1716 0128 8503     		.2byte	0x385
 1717 012a B3010000 		.4byte	0x1b3
 1718 012e 0D       		.uleb128 0xd
 1719 012f 41435200 		.ascii	"ACR\000"
 1720 0133 06       		.byte	0x6
 1721 0134 8703     		.2byte	0x387
 1722 0136 B7000000 		.4byte	0xb7
 1723 013a 02       		.byte	0x2
 1724 013b 23       		.byte	0x23
 1725 013c 00       		.uleb128 0
 1726 013d 0E       		.uleb128 0xe
 1727 013e CE000000 		.4byte	.LASF22
 1728 0142 06       		.byte	0x6
 1729 0143 8803     		.2byte	0x388
 1730 0145 B7000000 		.4byte	0xb7
 1731 0149 02       		.byte	0x2
 1732 014a 23       		.byte	0x23
 1733 014b 04       		.uleb128 0x4
 1734 014c 0E       		.uleb128 0xe
 1735 014d A4010000 		.4byte	.LASF23
 1736 0151 06       		.byte	0x6
 1737 0152 8903     		.2byte	0x389
 1738 0154 B7000000 		.4byte	0xb7
 1739 0158 02       		.byte	0x2
 1740 0159 23       		.byte	0x23
 1741 015a 08       		.uleb128 0x8
 1742 015b 0D       		.uleb128 0xd
 1743 015c 535200   		.ascii	"SR\000"
 1744 015f 06       		.byte	0x6
 1745 0160 8A03     		.2byte	0x38a
 1746 0162 B7000000 		.4byte	0xb7
 1747 0166 02       		.byte	0x2
 1748 0167 23       		.byte	0x23
 1749 0168 0C       		.uleb128 0xc
 1750 0169 0D       		.uleb128 0xd
 1751 016a 435200   		.ascii	"CR\000"
 1752 016d 06       		.byte	0x6
 1753 016e 8B03     		.2byte	0x38b
 1754 0170 B7000000 		.4byte	0xb7
ARM GAS  G:\Users\Jaxb\AppData\Local\Temp\ccck4Nii.s 			page 64


 1755 0174 02       		.byte	0x2
 1756 0175 23       		.byte	0x23
 1757 0176 10       		.uleb128 0x10
 1758 0177 0D       		.uleb128 0xd
 1759 0178 415200   		.ascii	"AR\000"
 1760 017b 06       		.byte	0x6
 1761 017c 8C03     		.2byte	0x38c
 1762 017e B7000000 		.4byte	0xb7
 1763 0182 02       		.byte	0x2
 1764 0183 23       		.byte	0x23
 1765 0184 14       		.uleb128 0x14
 1766 0185 0E       		.uleb128 0xe
 1767 0186 C9050000 		.4byte	.LASF24
 1768 018a 06       		.byte	0x6
 1769 018b 8D03     		.2byte	0x38d
 1770 018d B7000000 		.4byte	0xb7
 1771 0191 02       		.byte	0x2
 1772 0192 23       		.byte	0x23
 1773 0193 18       		.uleb128 0x18
 1774 0194 0D       		.uleb128 0xd
 1775 0195 4F425200 		.ascii	"OBR\000"
 1776 0199 06       		.byte	0x6
 1777 019a 8E03     		.2byte	0x38e
 1778 019c B7000000 		.4byte	0xb7
 1779 01a0 02       		.byte	0x2
 1780 01a1 23       		.byte	0x23
 1781 01a2 1C       		.uleb128 0x1c
 1782 01a3 0E       		.uleb128 0xe
 1783 01a4 C9000000 		.4byte	.LASF25
 1784 01a8 06       		.byte	0x6
 1785 01a9 8F03     		.2byte	0x38f
 1786 01ab B7000000 		.4byte	0xb7
 1787 01af 02       		.byte	0x2
 1788 01b0 23       		.byte	0x23
 1789 01b1 20       		.uleb128 0x20
 1790 01b2 00       		.byte	0
 1791 01b3 0B       		.uleb128 0xb
 1792 01b4 D2050000 		.4byte	.LASF26
 1793 01b8 06       		.byte	0x6
 1794 01b9 9803     		.2byte	0x398
 1795 01bb 25010000 		.4byte	0x125
 1796 01bf 0C       		.uleb128 0xc
 1797 01c0 10       		.byte	0x10
 1798 01c1 06       		.byte	0x6
 1799 01c2 9E03     		.2byte	0x39e
 1800 01c4 41020000 		.4byte	0x241
 1801 01c8 0D       		.uleb128 0xd
 1802 01c9 52445000 		.ascii	"RDP\000"
 1803 01cd 06       		.byte	0x6
 1804 01ce A003     		.2byte	0x3a0
 1805 01d0 A7000000 		.4byte	0xa7
 1806 01d4 02       		.byte	0x2
 1807 01d5 23       		.byte	0x23
 1808 01d6 00       		.uleb128 0
 1809 01d7 0E       		.uleb128 0xe
 1810 01d8 91050000 		.4byte	.LASF27
 1811 01dc 06       		.byte	0x6
ARM GAS  G:\Users\Jaxb\AppData\Local\Temp\ccck4Nii.s 			page 65


 1812 01dd A103     		.2byte	0x3a1
 1813 01df A7000000 		.4byte	0xa7
 1814 01e3 02       		.byte	0x2
 1815 01e4 23       		.byte	0x23
 1816 01e5 02       		.uleb128 0x2
 1817 01e6 0E       		.uleb128 0xe
 1818 01e7 96050000 		.4byte	.LASF28
 1819 01eb 06       		.byte	0x6
 1820 01ec A203     		.2byte	0x3a2
 1821 01ee A7000000 		.4byte	0xa7
 1822 01f2 02       		.byte	0x2
 1823 01f3 23       		.byte	0x23
 1824 01f4 04       		.uleb128 0x4
 1825 01f5 0E       		.uleb128 0xe
 1826 01f6 9C050000 		.4byte	.LASF29
 1827 01fa 06       		.byte	0x6
 1828 01fb A303     		.2byte	0x3a3
 1829 01fd A7000000 		.4byte	0xa7
 1830 0201 02       		.byte	0x2
 1831 0202 23       		.byte	0x23
 1832 0203 06       		.uleb128 0x6
 1833 0204 0E       		.uleb128 0xe
 1834 0205 FB050000 		.4byte	.LASF30
 1835 0209 06       		.byte	0x6
 1836 020a A403     		.2byte	0x3a4
 1837 020c A7000000 		.4byte	0xa7
 1838 0210 02       		.byte	0x2
 1839 0211 23       		.byte	0x23
 1840 0212 08       		.uleb128 0x8
 1841 0213 0E       		.uleb128 0xe
 1842 0214 58010000 		.4byte	.LASF31
 1843 0218 06       		.byte	0x6
 1844 0219 A503     		.2byte	0x3a5
 1845 021b A7000000 		.4byte	0xa7
 1846 021f 02       		.byte	0x2
 1847 0220 23       		.byte	0x23
 1848 0221 0A       		.uleb128 0xa
 1849 0222 0E       		.uleb128 0xe
 1850 0223 5D010000 		.4byte	.LASF32
 1851 0227 06       		.byte	0x6
 1852 0228 A603     		.2byte	0x3a6
 1853 022a A7000000 		.4byte	0xa7
 1854 022e 02       		.byte	0x2
 1855 022f 23       		.byte	0x23
 1856 0230 0C       		.uleb128 0xc
 1857 0231 0E       		.uleb128 0xe
 1858 0232 62010000 		.4byte	.LASF33
 1859 0236 06       		.byte	0x6
 1860 0237 A703     		.2byte	0x3a7
 1861 0239 A7000000 		.4byte	0xa7
 1862 023d 02       		.byte	0x2
 1863 023e 23       		.byte	0x23
 1864 023f 0E       		.uleb128 0xe
 1865 0240 00       		.byte	0
 1866 0241 0B       		.uleb128 0xb
 1867 0242 96040000 		.4byte	.LASF34
 1868 0246 06       		.byte	0x6
ARM GAS  G:\Users\Jaxb\AppData\Local\Temp\ccck4Nii.s 			page 66


 1869 0247 A803     		.2byte	0x3a8
 1870 0249 BF010000 		.4byte	0x1bf
 1871 024d 0F       		.uleb128 0xf
 1872 024e 07       		.byte	0x7
 1873 024f 01       		.byte	0x1
 1874 0250 37000000 		.4byte	0x37
 1875 0254 07       		.byte	0x7
 1876 0255 33       		.byte	0x33
 1877 0256 79020000 		.4byte	0x279
 1878 025a 09       		.uleb128 0x9
 1879 025b CB030000 		.4byte	.LASF35
 1880 025f 01       		.byte	0x1
 1881 0260 09       		.uleb128 0x9
 1882 0261 7D020000 		.4byte	.LASF36
 1883 0265 02       		.byte	0x2
 1884 0266 09       		.uleb128 0x9
 1885 0267 73000000 		.4byte	.LASF37
 1886 026b 03       		.byte	0x3
 1887 026c 09       		.uleb128 0x9
 1888 026d BC030000 		.4byte	.LASF38
 1889 0271 04       		.byte	0x4
 1890 0272 09       		.uleb128 0x9
 1891 0273 F9030000 		.4byte	.LASF39
 1892 0277 05       		.byte	0x5
 1893 0278 00       		.byte	0
 1894 0279 03       		.uleb128 0x3
 1895 027a 12010000 		.4byte	.LASF40
 1896 027e 07       		.byte	0x7
 1897 027f 39       		.byte	0x39
 1898 0280 4D020000 		.4byte	0x24d
 1899 0284 10       		.uleb128 0x10
 1900 0285 01       		.byte	0x1
 1901 0286 29040000 		.4byte	.LASF77
 1902 028a 01       		.byte	0x1
 1903 028b 5706     		.2byte	0x657
 1904 028d 01       		.byte	0x1
 1905 028e 79020000 		.4byte	0x279
 1906 0292 AF020000 		.4byte	0x2af
 1907 0296 11       		.uleb128 0x11
 1908 0297 21040000 		.4byte	.LASF45
 1909 029b 01       		.byte	0x1
 1910 029c 5706     		.2byte	0x657
 1911 029e AC000000 		.4byte	0xac
 1912 02a2 12       		.uleb128 0x12
 1913 02a3 07040000 		.4byte	.LASF41
 1914 02a7 01       		.byte	0x1
 1915 02a8 5906     		.2byte	0x659
 1916 02aa 79020000 		.4byte	0x279
 1917 02ae 00       		.byte	0
 1918 02af 13       		.uleb128 0x13
 1919 02b0 01       		.byte	0x1
 1920 02b1 E0050000 		.4byte	.LASF43
 1921 02b5 01       		.byte	0x1
 1922 02b6 3B06     		.2byte	0x63b
 1923 02b8 01       		.byte	0x1
 1924 02b9 79020000 		.4byte	0x279
 1925 02bd 40010000 		.4byte	.LFB55
ARM GAS  G:\Users\Jaxb\AppData\Local\Temp\ccck4Nii.s 			page 67


 1926 02c1 62010000 		.4byte	.LFE55
 1927 02c5 00000000 		.4byte	.LLST11
 1928 02c9 01       		.byte	0x1
 1929 02ca 01030000 		.4byte	0x301
 1930 02ce 14       		.uleb128 0x14
 1931 02cf 21040000 		.4byte	.LASF45
 1932 02d3 01       		.byte	0x1
 1933 02d4 3B06     		.2byte	0x63b
 1934 02d6 AC000000 		.4byte	0xac
 1935 02da 20000000 		.4byte	.LLST12
 1936 02de 15       		.uleb128 0x15
 1937 02df 07040000 		.4byte	.LASF41
 1938 02e3 01       		.byte	0x1
 1939 02e4 3D06     		.2byte	0x63d
 1940 02e6 79020000 		.4byte	0x279
 1941 02ea 3E000000 		.4byte	.LLST13
 1942 02ee 16       		.uleb128 0x16
 1943 02ef 48010000 		.4byte	.LVL29
 1944 02f3 01030000 		.4byte	0x301
 1945 02f7 16       		.uleb128 0x16
 1946 02f8 52010000 		.4byte	.LVL31
 1947 02fc 01030000 		.4byte	0x301
 1948 0300 00       		.byte	0
 1949 0301 17       		.uleb128 0x17
 1950 0302 01       		.byte	0x1
 1951 0303 2D000000 		.4byte	.LASF54
 1952 0307 01       		.byte	0x1
 1953 0308 EB05     		.2byte	0x5eb
 1954 030a 01       		.byte	0x1
 1955 030b 79020000 		.4byte	0x279
 1956 030f 01       		.byte	0x1
 1957 0310 21030000 		.4byte	0x321
 1958 0314 12       		.uleb128 0x12
 1959 0315 40020000 		.4byte	.LASF42
 1960 0319 01       		.byte	0x1
 1961 031a ED05     		.2byte	0x5ed
 1962 031c 79020000 		.4byte	0x279
 1963 0320 00       		.byte	0
 1964 0321 18       		.uleb128 0x18
 1965 0322 01       		.byte	0x1
 1966 0323 86040000 		.4byte	.LASF44
 1967 0327 01       		.byte	0x1
 1968 0328 C505     		.2byte	0x5c5
 1969 032a 01       		.byte	0x1
 1970 032b 79020000 		.4byte	0x279
 1971 032f F0000000 		.4byte	.LFB53
 1972 0333 18010000 		.4byte	.LFE53
 1973 0337 02       		.byte	0x2
 1974 0338 7D       		.byte	0x7d
 1975 0339 00       		.sleb128 0
 1976 033a 01       		.byte	0x1
 1977 033b 50030000 		.4byte	0x350
 1978 033f 15       		.uleb128 0x15
 1979 0340 40020000 		.4byte	.LASF42
 1980 0344 01       		.byte	0x1
 1981 0345 C705     		.2byte	0x5c7
 1982 0347 79020000 		.4byte	0x279
ARM GAS  G:\Users\Jaxb\AppData\Local\Temp\ccck4Nii.s 			page 68


 1983 034b 8B000000 		.4byte	.LLST9
 1984 034f 00       		.byte	0
 1985 0350 19       		.uleb128 0x19
 1986 0351 01       		.byte	0x1
 1987 0352 9F030000 		.4byte	.LASF49
 1988 0356 01       		.byte	0x1
 1989 0357 A305     		.2byte	0x5a3
 1990 0359 01       		.byte	0x1
 1991 035a E4000000 		.4byte	.LFB52
 1992 035e F0000000 		.4byte	.LFE52
 1993 0362 02       		.byte	0x2
 1994 0363 7D       		.byte	0x7d
 1995 0364 00       		.sleb128 0
 1996 0365 01       		.byte	0x1
 1997 0366 79030000 		.4byte	0x379
 1998 036a 1A       		.uleb128 0x1a
 1999 036b 1A050000 		.4byte	.LASF46
 2000 036f 01       		.byte	0x1
 2001 0370 A305     		.2byte	0x5a3
 2002 0372 AC000000 		.4byte	0xac
 2003 0376 01       		.byte	0x1
 2004 0377 50       		.byte	0x50
 2005 0378 00       		.byte	0
 2006 0379 18       		.uleb128 0x18
 2007 037a 01       		.byte	0x1
 2008 037b 6B030000 		.4byte	.LASF47
 2009 037f 01       		.byte	0x1
 2010 0380 4D05     		.2byte	0x54d
 2011 0382 01       		.byte	0x1
 2012 0383 F2000000 		.4byte	0xf2
 2013 0387 C4000000 		.4byte	.LFB51
 2014 038b E4000000 		.4byte	.LFE51
 2015 038f 02       		.byte	0x2
 2016 0390 7D       		.byte	0x7d
 2017 0391 00       		.sleb128 0
 2018 0392 01       		.byte	0x1
 2019 0393 B8030000 		.4byte	0x3b8
 2020 0397 14       		.uleb128 0x14
 2021 0398 1A050000 		.4byte	.LASF46
 2022 039c 01       		.byte	0x1
 2023 039d 4D05     		.2byte	0x54d
 2024 039f AC000000 		.4byte	0xac
 2025 03a3 AA000000 		.4byte	.LLST7
 2026 03a7 15       		.uleb128 0x15
 2027 03a8 58020000 		.4byte	.LASF48
 2028 03ac 01       		.byte	0x1
 2029 03ad 4F05     		.2byte	0x54f
 2030 03af F2000000 		.4byte	0xf2
 2031 03b3 E4000000 		.4byte	.LLST8
 2032 03b7 00       		.byte	0
 2033 03b8 19       		.uleb128 0x19
 2034 03b9 01       		.byte	0x1
 2035 03ba 00000000 		.4byte	.LASF50
 2036 03be 01       		.byte	0x1
 2037 03bf 0A05     		.2byte	0x50a
 2038 03c1 01       		.byte	0x1
 2039 03c2 AC000000 		.4byte	.LFB50
ARM GAS  G:\Users\Jaxb\AppData\Local\Temp\ccck4Nii.s 			page 69


 2040 03c6 C4000000 		.4byte	.LFE50
 2041 03ca 02       		.byte	0x2
 2042 03cb 7D       		.byte	0x7d
 2043 03cc 00       		.sleb128 0
 2044 03cd 01       		.byte	0x1
 2045 03ce F1030000 		.4byte	0x3f1
 2046 03d2 14       		.uleb128 0x14
 2047 03d3 AE050000 		.4byte	.LASF51
 2048 03d7 01       		.byte	0x1
 2049 03d8 0A05     		.2byte	0x50a
 2050 03da AC000000 		.4byte	0xac
 2051 03de 0F010000 		.4byte	.LLST6
 2052 03e2 1A       		.uleb128 0x1a
 2053 03e3 3F010000 		.4byte	.LASF52
 2054 03e7 01       		.byte	0x1
 2055 03e8 0A05     		.2byte	0x50a
 2056 03ea 19010000 		.4byte	0x119
 2057 03ee 01       		.byte	0x1
 2058 03ef 51       		.byte	0x51
 2059 03f0 00       		.byte	0
 2060 03f1 18       		.uleb128 0x18
 2061 03f2 01       		.byte	0x1
 2062 03f3 0F000000 		.4byte	.LASF53
 2063 03f7 01       		.byte	0x1
 2064 03f8 EC04     		.2byte	0x4ec
 2065 03fa 01       		.byte	0x1
 2066 03fb F2000000 		.4byte	0xf2
 2067 03ff 9C000000 		.4byte	.LFB49
 2068 0403 AC000000 		.4byte	.LFE49
 2069 0407 02       		.byte	0x2
 2070 0408 7D       		.byte	0x7d
 2071 0409 00       		.sleb128 0
 2072 040a 01       		.byte	0x1
 2073 040b 20040000 		.4byte	0x420
 2074 040f 15       		.uleb128 0x15
 2075 0410 58020000 		.4byte	.LASF48
 2076 0414 01       		.byte	0x1
 2077 0415 EE04     		.2byte	0x4ee
 2078 0417 F2000000 		.4byte	0xf2
 2079 041b 49010000 		.4byte	.LLST5
 2080 041f 00       		.byte	0
 2081 0420 17       		.uleb128 0x17
 2082 0421 01       		.byte	0x1
 2083 0422 49040000 		.4byte	.LASF55
 2084 0426 01       		.byte	0x1
 2085 0427 D804     		.2byte	0x4d8
 2086 0429 01       		.byte	0x1
 2087 042a F2000000 		.4byte	0xf2
 2088 042e 01       		.byte	0x1
 2089 042f 40040000 		.4byte	0x440
 2090 0433 12       		.uleb128 0x12
 2091 0434 F6040000 		.4byte	.LASF56
 2092 0438 01       		.byte	0x1
 2093 0439 DA04     		.2byte	0x4da
 2094 043b F2000000 		.4byte	0xf2
 2095 043f 00       		.byte	0
 2096 0440 1B       		.uleb128 0x1b
ARM GAS  G:\Users\Jaxb\AppData\Local\Temp\ccck4Nii.s 			page 70


 2097 0441 01       		.byte	0x1
 2098 0442 81010000 		.4byte	.LASF57
 2099 0446 01       		.byte	0x1
 2100 0447 CC04     		.2byte	0x4cc
 2101 0449 01       		.byte	0x1
 2102 044a AC000000 		.4byte	0xac
 2103 044e 80000000 		.4byte	.LFB47
 2104 0452 8C000000 		.4byte	.LFE47
 2105 0456 02       		.byte	0x2
 2106 0457 7D       		.byte	0x7d
 2107 0458 00       		.sleb128 0
 2108 0459 01       		.byte	0x1
 2109 045a 1B       		.uleb128 0x1b
 2110 045b 01       		.byte	0x1
 2111 045c DE040000 		.4byte	.LASF58
 2112 0460 01       		.byte	0x1
 2113 0461 C004     		.2byte	0x4c0
 2114 0463 01       		.byte	0x1
 2115 0464 AC000000 		.4byte	0xac
 2116 0468 74000000 		.4byte	.LFB46
 2117 046c 80000000 		.4byte	.LFE46
 2118 0470 02       		.byte	0x2
 2119 0471 7D       		.byte	0x7d
 2120 0472 00       		.sleb128 0
 2121 0473 01       		.byte	0x1
 2122 0474 13       		.uleb128 0x13
 2123 0475 01       		.byte	0x1
 2124 0476 E8010000 		.4byte	.LASF59
 2125 047a 01       		.byte	0x1
 2126 047b 5E04     		.2byte	0x45e
 2127 047d 01       		.byte	0x1
 2128 047e 79020000 		.4byte	0x279
 2129 0482 A0040000 		.4byte	.LFB45
 2130 0486 FC040000 		.4byte	.LFE45
 2131 048a 6F010000 		.4byte	.LLST44
 2132 048e 01       		.byte	0x1
 2133 048f FA040000 		.4byte	0x4fa
 2134 0493 14       		.uleb128 0x14
 2135 0494 42000000 		.4byte	.LASF60
 2136 0498 01       		.byte	0x1
 2137 0499 5E04     		.2byte	0x45e
 2138 049b 9C000000 		.4byte	0x9c
 2139 049f 8F010000 		.4byte	.LLST45
 2140 04a3 14       		.uleb128 0x14
 2141 04a4 54000000 		.4byte	.LASF61
 2142 04a8 01       		.byte	0x1
 2143 04a9 5E04     		.2byte	0x45e
 2144 04ab 9C000000 		.4byte	0x9c
 2145 04af B0010000 		.4byte	.LLST46
 2146 04b3 14       		.uleb128 0x14
 2147 04b4 6A040000 		.4byte	.LASF62
 2148 04b8 01       		.byte	0x1
 2149 04b9 5E04     		.2byte	0x45e
 2150 04bb 9C000000 		.4byte	0x9c
 2151 04bf D1010000 		.4byte	.LLST47
 2152 04c3 15       		.uleb128 0x15
 2153 04c4 07040000 		.4byte	.LASF41
ARM GAS  G:\Users\Jaxb\AppData\Local\Temp\ccck4Nii.s 			page 71


 2154 04c8 01       		.byte	0x1
 2155 04c9 6004     		.2byte	0x460
 2156 04cb 79020000 		.4byte	0x279
 2157 04cf F2010000 		.4byte	.LLST48
 2158 04d3 1C       		.uleb128 0x1c
 2159 04d4 BA040000 		.4byte	.LVL109
 2160 04d8 AF020000 		.4byte	0x2af
 2161 04dc E8040000 		.4byte	0x4e8
 2162 04e0 1D       		.uleb128 0x1d
 2163 04e1 01       		.byte	0x1
 2164 04e2 50       		.byte	0x50
 2165 04e3 03       		.byte	0x3
 2166 04e4 0A       		.byte	0xa
 2167 04e5 0020     		.2byte	0x2000
 2168 04e7 00       		.byte	0
 2169 04e8 1E       		.uleb128 0x1e
 2170 04e9 DC040000 		.4byte	.LVL111
 2171 04ed AF020000 		.4byte	0x2af
 2172 04f1 1D       		.uleb128 0x1d
 2173 04f2 01       		.byte	0x1
 2174 04f3 50       		.byte	0x50
 2175 04f4 03       		.byte	0x3
 2176 04f5 0A       		.byte	0xa
 2177 04f6 0020     		.2byte	0x2000
 2178 04f8 00       		.byte	0
 2179 04f9 00       		.byte	0
 2180 04fa 13       		.uleb128 0x13
 2181 04fb 01       		.byte	0x1
 2182 04fc 03020000 		.4byte	.LASF63
 2183 0500 01       		.byte	0x1
 2184 0501 1904     		.2byte	0x419
 2185 0503 01       		.byte	0x1
 2186 0504 79020000 		.4byte	0x279
 2187 0508 0C040000 		.4byte	.LFB44
 2188 050c A0040000 		.4byte	.LFE44
 2189 0510 1C020000 		.4byte	.LLST41
 2190 0514 01       		.byte	0x1
 2191 0515 75050000 		.4byte	0x575
 2192 0519 14       		.uleb128 0x14
 2193 051a 3F010000 		.4byte	.LASF52
 2194 051e 01       		.byte	0x1
 2195 051f 1904     		.2byte	0x419
 2196 0521 19010000 		.4byte	0x119
 2197 0525 3C020000 		.4byte	.LLST42
 2198 0529 15       		.uleb128 0x15
 2199 052a 07040000 		.4byte	.LASF41
 2200 052e 01       		.byte	0x1
 2201 052f 1B04     		.2byte	0x41b
 2202 0531 79020000 		.4byte	0x279
 2203 0535 5D020000 		.4byte	.LLST43
 2204 0539 1C       		.uleb128 0x1c
 2205 053a 18040000 		.4byte	.LVL102
 2206 053e AF020000 		.4byte	0x2af
 2207 0542 4E050000 		.4byte	0x54e
 2208 0546 1D       		.uleb128 0x1d
 2209 0547 01       		.byte	0x1
 2210 0548 50       		.byte	0x50
ARM GAS  G:\Users\Jaxb\AppData\Local\Temp\ccck4Nii.s 			page 72


 2211 0549 03       		.byte	0x3
 2212 054a 46       		.byte	0x46
 2213 054b 3F       		.byte	0x3f
 2214 054c 24       		.byte	0x24
 2215 054d 00       		.byte	0
 2216 054e 1C       		.uleb128 0x1c
 2217 054f 40040000 		.4byte	.LVL104
 2218 0553 AF020000 		.4byte	0x2af
 2219 0557 63050000 		.4byte	0x563
 2220 055b 1D       		.uleb128 0x1d
 2221 055c 01       		.byte	0x1
 2222 055d 50       		.byte	0x50
 2223 055e 03       		.byte	0x3
 2224 055f 46       		.byte	0x46
 2225 0560 3F       		.byte	0x3f
 2226 0561 24       		.byte	0x24
 2227 0562 00       		.byte	0
 2228 0563 1E       		.uleb128 0x1e
 2229 0564 76040000 		.4byte	.LVL106
 2230 0568 AF020000 		.4byte	0x2af
 2231 056c 1D       		.uleb128 0x1d
 2232 056d 01       		.byte	0x1
 2233 056e 50       		.byte	0x50
 2234 056f 03       		.byte	0x3
 2235 0570 46       		.byte	0x46
 2236 0571 3F       		.byte	0x3f
 2237 0572 24       		.byte	0x24
 2238 0573 00       		.byte	0
 2239 0574 00       		.byte	0
 2240 0575 13       		.uleb128 0x13
 2241 0576 01       		.byte	0x1
 2242 0577 6F050000 		.4byte	.LASF64
 2243 057b 01       		.byte	0x1
 2244 057c CF03     		.2byte	0x3cf
 2245 057e 01       		.byte	0x1
 2246 057f 79020000 		.4byte	0x279
 2247 0583 5C030000 		.4byte	.LFB43
 2248 0587 0C040000 		.4byte	.LFE43
 2249 058b 92020000 		.4byte	.LLST34
 2250 058f 01       		.byte	0x1
 2251 0590 5A060000 		.4byte	0x65a
 2252 0594 14       		.uleb128 0x14
 2253 0595 A2050000 		.4byte	.LASF65
 2254 0599 01       		.byte	0x1
 2255 059a CF03     		.2byte	0x3cf
 2256 059c AC000000 		.4byte	0xac
 2257 05a0 B2020000 		.4byte	.LLST35
 2258 05a4 15       		.uleb128 0x15
 2259 05a5 7C040000 		.4byte	.LASF66
 2260 05a9 01       		.byte	0x1
 2261 05aa D103     		.2byte	0x3d1
 2262 05ac 9C000000 		.4byte	0x9c
 2263 05b0 18030000 		.4byte	.LLST36
 2264 05b4 15       		.uleb128 0x15
 2265 05b5 D6030000 		.4byte	.LASF67
 2266 05b9 01       		.byte	0x1
 2267 05ba D103     		.2byte	0x3d1
ARM GAS  G:\Users\Jaxb\AppData\Local\Temp\ccck4Nii.s 			page 73


 2268 05bc 9C000000 		.4byte	0x9c
 2269 05c0 87030000 		.4byte	.LLST37
 2270 05c4 15       		.uleb128 0x15
 2271 05c5 4A000000 		.4byte	.LASF68
 2272 05c9 01       		.byte	0x1
 2273 05ca D103     		.2byte	0x3d1
 2274 05cc 9C000000 		.4byte	0x9c
 2275 05d0 02040000 		.4byte	.LLST38
 2276 05d4 15       		.uleb128 0x15
 2277 05d5 97020000 		.4byte	.LASF69
 2278 05d9 01       		.byte	0x1
 2279 05da D103     		.2byte	0x3d1
 2280 05dc 9C000000 		.4byte	0x9c
 2281 05e0 7D040000 		.4byte	.LLST39
 2282 05e4 15       		.uleb128 0x15
 2283 05e5 07040000 		.4byte	.LASF41
 2284 05e9 01       		.byte	0x1
 2285 05ea D303     		.2byte	0x3d3
 2286 05ec 79020000 		.4byte	0x279
 2287 05f0 E6040000 		.4byte	.LLST40
 2288 05f4 1C       		.uleb128 0x1c
 2289 05f5 68030000 		.4byte	.LVL85
 2290 05f9 AF020000 		.4byte	0x2af
 2291 05fd 09060000 		.4byte	0x609
 2292 0601 1D       		.uleb128 0x1d
 2293 0602 01       		.byte	0x1
 2294 0603 50       		.byte	0x50
 2295 0604 03       		.byte	0x3
 2296 0605 0A       		.byte	0xa
 2297 0606 0020     		.2byte	0x2000
 2298 0608 00       		.byte	0
 2299 0609 1C       		.uleb128 0x1c
 2300 060a A8030000 		.4byte	.LVL91
 2301 060e AF020000 		.4byte	0x2af
 2302 0612 1E060000 		.4byte	0x61e
 2303 0616 1D       		.uleb128 0x1d
 2304 0617 01       		.byte	0x1
 2305 0618 50       		.byte	0x50
 2306 0619 03       		.byte	0x3
 2307 061a 0A       		.byte	0xa
 2308 061b 0020     		.2byte	0x2000
 2309 061d 00       		.byte	0
 2310 061e 1C       		.uleb128 0x1c
 2311 061f C0030000 		.4byte	.LVL94
 2312 0623 AF020000 		.4byte	0x2af
 2313 0627 33060000 		.4byte	0x633
 2314 062b 1D       		.uleb128 0x1d
 2315 062c 01       		.byte	0x1
 2316 062d 50       		.byte	0x50
 2317 062e 03       		.byte	0x3
 2318 062f 0A       		.byte	0xa
 2319 0630 0020     		.2byte	0x2000
 2320 0632 00       		.byte	0
 2321 0633 1C       		.uleb128 0x1c
 2322 0634 CE030000 		.4byte	.LVL96
 2323 0638 AF020000 		.4byte	0x2af
 2324 063c 48060000 		.4byte	0x648
ARM GAS  G:\Users\Jaxb\AppData\Local\Temp\ccck4Nii.s 			page 74


 2325 0640 1D       		.uleb128 0x1d
 2326 0641 01       		.byte	0x1
 2327 0642 50       		.byte	0x50
 2328 0643 03       		.byte	0x3
 2329 0644 0A       		.byte	0xa
 2330 0645 0020     		.2byte	0x2000
 2331 0647 00       		.byte	0
 2332 0648 1E       		.uleb128 0x1e
 2333 0649 F4030000 		.4byte	.LVL99
 2334 064d AF020000 		.4byte	0x2af
 2335 0651 1D       		.uleb128 0x1d
 2336 0652 01       		.byte	0x1
 2337 0653 50       		.byte	0x50
 2338 0654 03       		.byte	0x3
 2339 0655 0A       		.byte	0xa
 2340 0656 0020     		.2byte	0x2000
 2341 0658 00       		.byte	0
 2342 0659 00       		.byte	0
 2343 065a 13       		.uleb128 0x13
 2344 065b 01       		.byte	0x1
 2345 065c C2040000 		.4byte	.LASF70
 2346 0660 01       		.byte	0x1
 2347 0661 A103     		.2byte	0x3a1
 2348 0663 01       		.byte	0x1
 2349 0664 79020000 		.4byte	0x279
 2350 0668 0C030000 		.4byte	.LFB42
 2351 066c 5C030000 		.4byte	.LFE42
 2352 0670 3C050000 		.4byte	.LLST30
 2353 0674 01       		.byte	0x1
 2354 0675 D0060000 		.4byte	0x6d0
 2355 0679 14       		.uleb128 0x14
 2356 067a AC000000 		.4byte	.LASF71
 2357 067e 01       		.byte	0x1
 2358 067f A103     		.2byte	0x3a1
 2359 0681 AC000000 		.4byte	0xac
 2360 0685 5C050000 		.4byte	.LLST31
 2361 0689 14       		.uleb128 0x14
 2362 068a 4C020000 		.4byte	.LASF72
 2363 068e 01       		.byte	0x1
 2364 068f A103     		.2byte	0x3a1
 2365 0691 91000000 		.4byte	0x91
 2366 0695 88050000 		.4byte	.LLST32
 2367 0699 15       		.uleb128 0x15
 2368 069a 07040000 		.4byte	.LASF41
 2369 069e 01       		.byte	0x1
 2370 069f A303     		.2byte	0x3a3
 2371 06a1 79020000 		.4byte	0x279
 2372 06a5 A9050000 		.4byte	.LLST33
 2373 06a9 1C       		.uleb128 0x1c
 2374 06aa 1A030000 		.4byte	.LVL77
 2375 06ae AF020000 		.4byte	0x2af
 2376 06b2 BE060000 		.4byte	0x6be
 2377 06b6 1D       		.uleb128 0x1d
 2378 06b7 01       		.byte	0x1
 2379 06b8 50       		.byte	0x50
 2380 06b9 03       		.byte	0x3
 2381 06ba 0A       		.byte	0xa
ARM GAS  G:\Users\Jaxb\AppData\Local\Temp\ccck4Nii.s 			page 75


 2382 06bb 0020     		.2byte	0x2000
 2383 06bd 00       		.byte	0
 2384 06be 1E       		.uleb128 0x1e
 2385 06bf 3E030000 		.4byte	.LVL80
 2386 06c3 AF020000 		.4byte	0x2af
 2387 06c7 1D       		.uleb128 0x1d
 2388 06c8 01       		.byte	0x1
 2389 06c9 50       		.byte	0x50
 2390 06ca 03       		.byte	0x3
 2391 06cb 0A       		.byte	0xa
 2392 06cc 0020     		.2byte	0x2000
 2393 06ce 00       		.byte	0
 2394 06cf 00       		.byte	0
 2395 06d0 13       		.uleb128 0x13
 2396 06d1 01       		.byte	0x1
 2397 06d2 04050000 		.4byte	.LASF73
 2398 06d6 01       		.byte	0x1
 2399 06d7 5A03     		.2byte	0x35a
 2400 06d9 01       		.byte	0x1
 2401 06da 79020000 		.4byte	0x279
 2402 06de D4020000 		.4byte	.LFB41
 2403 06e2 0C030000 		.4byte	.LFE41
 2404 06e6 D3050000 		.4byte	.LLST26
 2405 06ea 01       		.byte	0x1
 2406 06eb 46070000 		.4byte	0x746
 2407 06ef 14       		.uleb128 0x14
 2408 06f0 AC000000 		.4byte	.LASF71
 2409 06f4 01       		.byte	0x1
 2410 06f5 5A03     		.2byte	0x35a
 2411 06f7 AC000000 		.4byte	0xac
 2412 06fb F3050000 		.4byte	.LLST27
 2413 06ff 14       		.uleb128 0x14
 2414 0700 4C020000 		.4byte	.LASF72
 2415 0704 01       		.byte	0x1
 2416 0705 5A03     		.2byte	0x35a
 2417 0707 9C000000 		.4byte	0x9c
 2418 070b 1F060000 		.4byte	.LLST28
 2419 070f 15       		.uleb128 0x15
 2420 0710 07040000 		.4byte	.LASF41
 2421 0714 01       		.byte	0x1
 2422 0715 5C03     		.2byte	0x35c
 2423 0717 79020000 		.4byte	0x279
 2424 071b 40060000 		.4byte	.LLST29
 2425 071f 1C       		.uleb128 0x1c
 2426 0720 E2020000 		.4byte	.LVL70
 2427 0724 AF020000 		.4byte	0x2af
 2428 0728 34070000 		.4byte	0x734
 2429 072c 1D       		.uleb128 0x1d
 2430 072d 01       		.byte	0x1
 2431 072e 50       		.byte	0x50
 2432 072f 03       		.byte	0x3
 2433 0730 0A       		.byte	0xa
 2434 0731 0020     		.2byte	0x2000
 2435 0733 00       		.byte	0
 2436 0734 1E       		.uleb128 0x1e
 2437 0735 FC020000 		.4byte	.LVL73
 2438 0739 AF020000 		.4byte	0x2af
ARM GAS  G:\Users\Jaxb\AppData\Local\Temp\ccck4Nii.s 			page 76


 2439 073d 1D       		.uleb128 0x1d
 2440 073e 01       		.byte	0x1
 2441 073f 50       		.byte	0x50
 2442 0740 03       		.byte	0x3
 2443 0741 0A       		.byte	0xa
 2444 0742 0020     		.2byte	0x2000
 2445 0744 00       		.byte	0
 2446 0745 00       		.byte	0
 2447 0746 13       		.uleb128 0x13
 2448 0747 01       		.byte	0x1
 2449 0748 B7050000 		.4byte	.LASF74
 2450 074c 01       		.byte	0x1
 2451 074d A902     		.2byte	0x2a9
 2452 074f 01       		.byte	0x1
 2453 0750 79020000 		.4byte	0x279
 2454 0754 6C020000 		.4byte	.LFB40
 2455 0758 D4020000 		.4byte	.LFE40
 2456 075c 6A060000 		.4byte	.LLST22
 2457 0760 01       		.byte	0x1
 2458 0761 E0070000 		.4byte	0x7e0
 2459 0765 14       		.uleb128 0x14
 2460 0766 AC000000 		.4byte	.LASF71
 2461 076a 01       		.byte	0x1
 2462 076b A902     		.2byte	0x2a9
 2463 076d AC000000 		.4byte	0xac
 2464 0771 C6060000 		.4byte	.LLST23
 2465 0775 14       		.uleb128 0x14
 2466 0776 4C020000 		.4byte	.LASF72
 2467 077a 01       		.byte	0x1
 2468 077b A902     		.2byte	0x2a9
 2469 077d AC000000 		.4byte	0xac
 2470 0781 0A070000 		.4byte	.LLST24
 2471 0785 15       		.uleb128 0x15
 2472 0786 07040000 		.4byte	.LASF41
 2473 078a 01       		.byte	0x1
 2474 078b AB02     		.2byte	0x2ab
 2475 078d 79020000 		.4byte	0x279
 2476 0791 4F070000 		.4byte	.LLST25
 2477 0795 1F       		.uleb128 0x1f
 2478 0796 746D7000 		.ascii	"tmp\000"
 2479 079a 01       		.byte	0x1
 2480 079b AC02     		.2byte	0x2ac
 2481 079d B7000000 		.4byte	0xb7
 2482 07a1 02       		.byte	0x2
 2483 07a2 91       		.byte	0x91
 2484 07a3 6C       		.sleb128 -20
 2485 07a4 1C       		.uleb128 0x1c
 2486 07a5 80020000 		.4byte	.LVL58
 2487 07a9 AF020000 		.4byte	0x2af
 2488 07ad B9070000 		.4byte	0x7b9
 2489 07b1 1D       		.uleb128 0x1d
 2490 07b2 01       		.byte	0x1
 2491 07b3 50       		.byte	0x50
 2492 07b4 03       		.byte	0x3
 2493 07b5 0A       		.byte	0xa
 2494 07b6 0020     		.2byte	0x2000
 2495 07b8 00       		.byte	0
ARM GAS  G:\Users\Jaxb\AppData\Local\Temp\ccck4Nii.s 			page 77


 2496 07b9 1C       		.uleb128 0x1c
 2497 07ba 9E020000 		.4byte	.LVL62
 2498 07be AF020000 		.4byte	0x2af
 2499 07c2 CE070000 		.4byte	0x7ce
 2500 07c6 1D       		.uleb128 0x1d
 2501 07c7 01       		.byte	0x1
 2502 07c8 50       		.byte	0x50
 2503 07c9 03       		.byte	0x3
 2504 07ca 0A       		.byte	0xa
 2505 07cb 0020     		.2byte	0x2000
 2506 07cd 00       		.byte	0
 2507 07ce 1E       		.uleb128 0x1e
 2508 07cf C2020000 		.4byte	.LVL67
 2509 07d3 AF020000 		.4byte	0x2af
 2510 07d7 1D       		.uleb128 0x1d
 2511 07d8 01       		.byte	0x1
 2512 07d9 50       		.byte	0x50
 2513 07da 03       		.byte	0x3
 2514 07db 0A       		.byte	0xa
 2515 07dc 0020     		.2byte	0x2000
 2516 07de 00       		.byte	0
 2517 07df 00       		.byte	0
 2518 07e0 13       		.uleb128 0x13
 2519 07e1 01       		.byte	0x1
 2520 07e2 5C000000 		.4byte	.LASF75
 2521 07e6 01       		.byte	0x1
 2522 07e7 6802     		.2byte	0x268
 2523 07e9 01       		.byte	0x1
 2524 07ea 79020000 		.4byte	0x279
 2525 07ee E4010000 		.4byte	.LFB39
 2526 07f2 6C020000 		.4byte	.LFE39
 2527 07f6 84070000 		.4byte	.LLST19
 2528 07fa 01       		.byte	0x1
 2529 07fb 7B080000 		.4byte	0x87b
 2530 07ff 15       		.uleb128 0x15
 2531 0800 1F010000 		.4byte	.LASF76
 2532 0804 01       		.byte	0x1
 2533 0805 6A02     		.2byte	0x26a
 2534 0807 9C000000 		.4byte	0x9c
 2535 080b A4070000 		.4byte	.LLST20
 2536 080f 15       		.uleb128 0x15
 2537 0810 07040000 		.4byte	.LASF41
 2538 0814 01       		.byte	0x1
 2539 0815 6C02     		.2byte	0x26c
 2540 0817 79020000 		.4byte	0x279
 2541 081b C4070000 		.4byte	.LLST21
 2542 081f 20       		.uleb128 0x20
 2543 0820 20040000 		.4byte	0x420
 2544 0824 E6010000 		.4byte	.LBB8
 2545 0828 00000000 		.4byte	.Ldebug_ranges0+0
 2546 082c 01       		.byte	0x1
 2547 082d 6F02     		.2byte	0x26f
 2548 082f 3F080000 		.4byte	0x83f
 2549 0833 21       		.uleb128 0x21
 2550 0834 00000000 		.4byte	.Ldebug_ranges0+0
 2551 0838 22       		.uleb128 0x22
 2552 0839 3A0A0000 		.4byte	0xa3a
ARM GAS  G:\Users\Jaxb\AppData\Local\Temp\ccck4Nii.s 			page 78


 2553 083d 00       		.byte	0
 2554 083e 00       		.byte	0
 2555 083f 1C       		.uleb128 0x1c
 2556 0840 FC010000 		.4byte	.LVL48
 2557 0844 AF020000 		.4byte	0x2af
 2558 0848 54080000 		.4byte	0x854
 2559 084c 1D       		.uleb128 0x1d
 2560 084d 01       		.byte	0x1
 2561 084e 50       		.byte	0x50
 2562 084f 03       		.byte	0x3
 2563 0850 46       		.byte	0x46
 2564 0851 3F       		.byte	0x3f
 2565 0852 24       		.byte	0x24
 2566 0853 00       		.byte	0
 2567 0854 1C       		.uleb128 0x1c
 2568 0855 22020000 		.4byte	.LVL51
 2569 0859 AF020000 		.4byte	0x2af
 2570 085d 69080000 		.4byte	0x869
 2571 0861 1D       		.uleb128 0x1d
 2572 0862 01       		.byte	0x1
 2573 0863 50       		.byte	0x50
 2574 0864 03       		.byte	0x3
 2575 0865 46       		.byte	0x46
 2576 0866 3F       		.byte	0x3f
 2577 0867 24       		.byte	0x24
 2578 0868 00       		.byte	0
 2579 0869 1E       		.uleb128 0x1e
 2580 086a 54020000 		.4byte	.LVL54
 2581 086e AF020000 		.4byte	0x2af
 2582 0872 1D       		.uleb128 0x1d
 2583 0873 01       		.byte	0x1
 2584 0874 50       		.byte	0x50
 2585 0875 03       		.byte	0x3
 2586 0876 0A       		.byte	0xa
 2587 0877 0020     		.2byte	0x2000
 2588 0879 00       		.byte	0
 2589 087a 00       		.byte	0
 2590 087b 10       		.uleb128 0x10
 2591 087c 01       		.byte	0x1
 2592 087d 26010000 		.4byte	.LASF78
 2593 0881 01       		.byte	0x1
 2594 0882 2B02     		.2byte	0x22b
 2595 0884 01       		.byte	0x1
 2596 0885 79020000 		.4byte	0x279
 2597 0889 9A080000 		.4byte	0x89a
 2598 088d 12       		.uleb128 0x12
 2599 088e 07040000 		.4byte	.LASF41
 2600 0892 01       		.byte	0x1
 2601 0893 2D02     		.2byte	0x22d
 2602 0895 79020000 		.4byte	0x279
 2603 0899 00       		.byte	0
 2604 089a 13       		.uleb128 0x13
 2605 089b 01       		.byte	0x1
 2606 089c F6000000 		.4byte	.LASF79
 2607 08a0 01       		.byte	0x1
 2608 08a1 EC01     		.2byte	0x1ec
 2609 08a3 01       		.byte	0x1
ARM GAS  G:\Users\Jaxb\AppData\Local\Temp\ccck4Nii.s 			page 79


 2610 08a4 79020000 		.4byte	0x279
 2611 08a8 A4010000 		.4byte	.LFB37
 2612 08ac E0010000 		.4byte	.LFE37
 2613 08b0 F9070000 		.4byte	.LLST17
 2614 08b4 01       		.byte	0x1
 2615 08b5 F0080000 		.4byte	0x8f0
 2616 08b9 15       		.uleb128 0x15
 2617 08ba 07040000 		.4byte	.LASF41
 2618 08be 01       		.byte	0x1
 2619 08bf EE01     		.2byte	0x1ee
 2620 08c1 79020000 		.4byte	0x279
 2621 08c5 19080000 		.4byte	.LLST18
 2622 08c9 1C       		.uleb128 0x1c
 2623 08ca AE010000 		.4byte	.LVL43
 2624 08ce AF020000 		.4byte	0x2af
 2625 08d2 DE080000 		.4byte	0x8de
 2626 08d6 1D       		.uleb128 0x1d
 2627 08d7 01       		.byte	0x1
 2628 08d8 50       		.byte	0x50
 2629 08d9 03       		.byte	0x3
 2630 08da 46       		.byte	0x46
 2631 08db 3F       		.byte	0x3f
 2632 08dc 24       		.byte	0x24
 2633 08dd 00       		.byte	0
 2634 08de 1E       		.uleb128 0x1e
 2635 08df CE010000 		.4byte	.LVL45
 2636 08e3 AF020000 		.4byte	0x2af
 2637 08e7 1D       		.uleb128 0x1d
 2638 08e8 01       		.byte	0x1
 2639 08e9 50       		.byte	0x50
 2640 08ea 03       		.byte	0x3
 2641 08eb 46       		.byte	0x46
 2642 08ec 3F       		.byte	0x3f
 2643 08ed 24       		.byte	0x24
 2644 08ee 00       		.byte	0
 2645 08ef 00       		.byte	0
 2646 08f0 13       		.uleb128 0x13
 2647 08f1 01       		.byte	0x1
 2648 08f2 83000000 		.4byte	.LASF80
 2649 08f6 01       		.byte	0x1
 2650 08f7 A301     		.2byte	0x1a3
 2651 08f9 01       		.byte	0x1
 2652 08fa 79020000 		.4byte	0x279
 2653 08fe 64010000 		.4byte	.LFB36
 2654 0902 A4010000 		.4byte	.LFE36
 2655 0906 43080000 		.4byte	.LLST14
 2656 090a 01       		.byte	0x1
 2657 090b 56090000 		.4byte	0x956
 2658 090f 14       		.uleb128 0x14
 2659 0910 70020000 		.4byte	.LASF81
 2660 0914 01       		.byte	0x1
 2661 0915 A301     		.2byte	0x1a3
 2662 0917 AC000000 		.4byte	0xac
 2663 091b 63080000 		.4byte	.LLST15
 2664 091f 15       		.uleb128 0x15
 2665 0920 07040000 		.4byte	.LASF41
 2666 0924 01       		.byte	0x1
ARM GAS  G:\Users\Jaxb\AppData\Local\Temp\ccck4Nii.s 			page 80


 2667 0925 A501     		.2byte	0x1a5
 2668 0927 79020000 		.4byte	0x279
 2669 092b 8F080000 		.4byte	.LLST16
 2670 092f 1C       		.uleb128 0x1c
 2671 0930 70010000 		.4byte	.LVL37
 2672 0934 AF020000 		.4byte	0x2af
 2673 0938 44090000 		.4byte	0x944
 2674 093c 1D       		.uleb128 0x1d
 2675 093d 01       		.byte	0x1
 2676 093e 50       		.byte	0x50
 2677 093f 03       		.byte	0x3
 2678 0940 46       		.byte	0x46
 2679 0941 3F       		.byte	0x3f
 2680 0942 24       		.byte	0x24
 2681 0943 00       		.byte	0
 2682 0944 1E       		.uleb128 0x1e
 2683 0945 92010000 		.4byte	.LVL40
 2684 0949 AF020000 		.4byte	0x2af
 2685 094d 1D       		.uleb128 0x1d
 2686 094e 01       		.byte	0x1
 2687 094f 50       		.byte	0x50
 2688 0950 03       		.byte	0x3
 2689 0951 46       		.byte	0x46
 2690 0952 3F       		.byte	0x3f
 2691 0953 24       		.byte	0x24
 2692 0954 00       		.byte	0
 2693 0955 00       		.byte	0
 2694 0956 23       		.uleb128 0x23
 2695 0957 01       		.byte	0x1
 2696 0958 48010000 		.4byte	.LASF82
 2697 095c 01       		.byte	0x1
 2698 095d 8801     		.2byte	0x188
 2699 095f 01       		.byte	0x1
 2700 0960 24       		.uleb128 0x24
 2701 0961 01       		.byte	0x1
 2702 0962 8C020000 		.4byte	.LASF84
 2703 0966 01       		.byte	0x1
 2704 0967 7401     		.2byte	0x174
 2705 0969 01       		.byte	0x1
 2706 096a 60000000 		.4byte	.LFB34
 2707 096e 70000000 		.4byte	.LFE34
 2708 0972 02       		.byte	0x2
 2709 0973 7D       		.byte	0x7d
 2710 0974 00       		.sleb128 0
 2711 0975 01       		.byte	0x1
 2712 0976 23       		.uleb128 0x23
 2713 0977 01       		.byte	0x1
 2714 0978 6F010000 		.4byte	.LASF83
 2715 097c 01       		.byte	0x1
 2716 097d 5401     		.2byte	0x154
 2717 097f 01       		.byte	0x1
 2718 0980 24       		.uleb128 0x24
 2719 0981 01       		.byte	0x1
 2720 0982 D3000000 		.4byte	.LASF85
 2721 0986 01       		.byte	0x1
 2722 0987 3F01     		.2byte	0x13f
 2723 0989 01       		.byte	0x1
ARM GAS  G:\Users\Jaxb\AppData\Local\Temp\ccck4Nii.s 			page 81


 2724 098a 44000000 		.4byte	.LFB32
 2725 098e 5C000000 		.4byte	.LFE32
 2726 0992 02       		.byte	0x2
 2727 0993 7D       		.byte	0x7d
 2728 0994 00       		.sleb128 0
 2729 0995 01       		.byte	0x1
 2730 0996 19       		.uleb128 0x19
 2731 0997 01       		.byte	0x1
 2732 0998 47030000 		.4byte	.LASF86
 2733 099c 01       		.byte	0x1
 2734 099d 2C01     		.2byte	0x12c
 2735 099f 01       		.byte	0x1
 2736 09a0 2C000000 		.4byte	.LFB31
 2737 09a4 44000000 		.4byte	.LFE31
 2738 09a8 02       		.byte	0x2
 2739 09a9 7D       		.byte	0x7d
 2740 09aa 00       		.sleb128 0
 2741 09ab 01       		.byte	0x1
 2742 09ac C1090000 		.4byte	0x9c1
 2743 09b0 14       		.uleb128 0x14
 2744 09b1 00060000 		.4byte	.LASF87
 2745 09b5 01       		.byte	0x1
 2746 09b6 2C01     		.2byte	0x12c
 2747 09b8 AC000000 		.4byte	0xac
 2748 09bc B9080000 		.4byte	.LLST3
 2749 09c0 00       		.byte	0
 2750 09c1 19       		.uleb128 0x19
 2751 09c2 01       		.byte	0x1
 2752 09c3 E0030000 		.4byte	.LASF88
 2753 09c7 01       		.byte	0x1
 2754 09c8 1901     		.2byte	0x119
 2755 09ca 01       		.byte	0x1
 2756 09cb 14000000 		.4byte	.LFB30
 2757 09cf 2C000000 		.4byte	.LFE30
 2758 09d3 02       		.byte	0x2
 2759 09d4 7D       		.byte	0x7d
 2760 09d5 00       		.sleb128 0
 2761 09d6 01       		.byte	0x1
 2762 09d7 EC090000 		.4byte	0x9ec
 2763 09db 14       		.uleb128 0x14
 2764 09dc E0000000 		.4byte	.LASF89
 2765 09e0 01       		.byte	0x1
 2766 09e1 1901     		.2byte	0x119
 2767 09e3 AC000000 		.4byte	0xac
 2768 09e7 DA080000 		.4byte	.LLST2
 2769 09eb 00       		.byte	0
 2770 09ec 25       		.uleb128 0x25
 2771 09ed 01       		.byte	0x1
 2772 09ee A1040000 		.4byte	.LASF90
 2773 09f2 01       		.byte	0x1
 2774 09f3 FE       		.byte	0xfe
 2775 09f4 01       		.byte	0x1
 2776 09f5 00000000 		.4byte	.LFB29
 2777 09f9 14000000 		.4byte	.LFE29
 2778 09fd 02       		.byte	0x2
 2779 09fe 7D       		.byte	0x7d
 2780 09ff 00       		.sleb128 0
ARM GAS  G:\Users\Jaxb\AppData\Local\Temp\ccck4Nii.s 			page 82


 2781 0a00 01       		.byte	0x1
 2782 0a01 250A0000 		.4byte	0xa25
 2783 0a05 26       		.uleb128 0x26
 2784 0a06 93000000 		.4byte	.LASF91
 2785 0a0a 01       		.byte	0x1
 2786 0a0b FE       		.byte	0xfe
 2787 0a0c AC000000 		.4byte	0xac
 2788 0a10 FB080000 		.4byte	.LLST0
 2789 0a14 15       		.uleb128 0x15
 2790 0a15 51020000 		.4byte	.LASF92
 2791 0a19 01       		.byte	0x1
 2792 0a1a 0001     		.2byte	0x100
 2793 0a1c AC000000 		.4byte	0xac
 2794 0a20 1C090000 		.4byte	.LLST1
 2795 0a24 00       		.byte	0
 2796 0a25 27       		.uleb128 0x27
 2797 0a26 20040000 		.4byte	0x420
 2798 0a2a 8C000000 		.4byte	.LFB48
 2799 0a2e 9C000000 		.4byte	.LFE48
 2800 0a32 02       		.byte	0x2
 2801 0a33 7D       		.byte	0x7d
 2802 0a34 00       		.sleb128 0
 2803 0a35 01       		.byte	0x1
 2804 0a36 440A0000 		.4byte	0xa44
 2805 0a3a 28       		.uleb128 0x28
 2806 0a3b 33040000 		.4byte	0x433
 2807 0a3f 46090000 		.4byte	.LLST4
 2808 0a43 00       		.byte	0
 2809 0a44 29       		.uleb128 0x29
 2810 0a45 01030000 		.4byte	0x301
 2811 0a49 18010000 		.4byte	.LFB54
 2812 0a4d 40010000 		.4byte	.LFE54
 2813 0a51 02       		.byte	0x2
 2814 0a52 7D       		.byte	0x7d
 2815 0a53 00       		.sleb128 0
 2816 0a54 01       		.byte	0x1
 2817 0a55 28       		.uleb128 0x28
 2818 0a56 14030000 		.4byte	0x314
 2819 0a5a 6B090000 		.4byte	.LLST10
 2820 0a5e 2A       		.uleb128 0x2a
 2821 0a5f 26010000 		.4byte	.LBB7
 2822 0a63 34010000 		.4byte	.LBE7
 2823 0a67 22       		.uleb128 0x22
 2824 0a68 550A0000 		.4byte	0xa55
 2825 0a6c 00       		.byte	0
 2826 0a6d 00       		.byte	0
 2827 0a6e 00       		.byte	0
 2828              		.section	.debug_abbrev,"",%progbits
 2829              	.Ldebug_abbrev0:
 2830 0000 01       		.uleb128 0x1
 2831 0001 11       		.uleb128 0x11
 2832 0002 01       		.byte	0x1
 2833 0003 25       		.uleb128 0x25
 2834 0004 0E       		.uleb128 0xe
 2835 0005 13       		.uleb128 0x13
 2836 0006 0B       		.uleb128 0xb
 2837 0007 03       		.uleb128 0x3
ARM GAS  G:\Users\Jaxb\AppData\Local\Temp\ccck4Nii.s 			page 83


 2838 0008 0E       		.uleb128 0xe
 2839 0009 1B       		.uleb128 0x1b
 2840 000a 0E       		.uleb128 0xe
 2841 000b 11       		.uleb128 0x11
 2842 000c 01       		.uleb128 0x1
 2843 000d 12       		.uleb128 0x12
 2844 000e 01       		.uleb128 0x1
 2845 000f 10       		.uleb128 0x10
 2846 0010 06       		.uleb128 0x6
 2847 0011 00       		.byte	0
 2848 0012 00       		.byte	0
 2849 0013 02       		.uleb128 0x2
 2850 0014 24       		.uleb128 0x24
 2851 0015 00       		.byte	0
 2852 0016 0B       		.uleb128 0xb
 2853 0017 0B       		.uleb128 0xb
 2854 0018 3E       		.uleb128 0x3e
 2855 0019 0B       		.uleb128 0xb
 2856 001a 03       		.uleb128 0x3
 2857 001b 0E       		.uleb128 0xe
 2858 001c 00       		.byte	0
 2859 001d 00       		.byte	0
 2860 001e 03       		.uleb128 0x3
 2861 001f 16       		.uleb128 0x16
 2862 0020 00       		.byte	0
 2863 0021 03       		.uleb128 0x3
 2864 0022 0E       		.uleb128 0xe
 2865 0023 3A       		.uleb128 0x3a
 2866 0024 0B       		.uleb128 0xb
 2867 0025 3B       		.uleb128 0x3b
 2868 0026 0B       		.uleb128 0xb
 2869 0027 49       		.uleb128 0x49
 2870 0028 13       		.uleb128 0x13
 2871 0029 00       		.byte	0
 2872 002a 00       		.byte	0
 2873 002b 04       		.uleb128 0x4
 2874 002c 24       		.uleb128 0x24
 2875 002d 00       		.byte	0
 2876 002e 0B       		.uleb128 0xb
 2877 002f 0B       		.uleb128 0xb
 2878 0030 3E       		.uleb128 0x3e
 2879 0031 0B       		.uleb128 0xb
 2880 0032 03       		.uleb128 0x3
 2881 0033 08       		.uleb128 0x8
 2882 0034 00       		.byte	0
 2883 0035 00       		.byte	0
 2884 0036 05       		.uleb128 0x5
 2885 0037 35       		.uleb128 0x35
 2886 0038 00       		.byte	0
 2887 0039 49       		.uleb128 0x49
 2888 003a 13       		.uleb128 0x13
 2889 003b 00       		.byte	0
 2890 003c 00       		.byte	0
 2891 003d 06       		.uleb128 0x6
 2892 003e 34       		.uleb128 0x34
 2893 003f 00       		.byte	0
 2894 0040 03       		.uleb128 0x3
ARM GAS  G:\Users\Jaxb\AppData\Local\Temp\ccck4Nii.s 			page 84


 2895 0041 0E       		.uleb128 0xe
 2896 0042 3A       		.uleb128 0x3a
 2897 0043 0B       		.uleb128 0xb
 2898 0044 3B       		.uleb128 0x3b
 2899 0045 05       		.uleb128 0x5
 2900 0046 49       		.uleb128 0x49
 2901 0047 13       		.uleb128 0x13
 2902 0048 3F       		.uleb128 0x3f
 2903 0049 0C       		.uleb128 0xc
 2904 004a 3C       		.uleb128 0x3c
 2905 004b 0C       		.uleb128 0xc
 2906 004c 00       		.byte	0
 2907 004d 00       		.byte	0
 2908 004e 07       		.uleb128 0x7
 2909 004f 34       		.uleb128 0x34
 2910 0050 00       		.byte	0
 2911 0051 03       		.uleb128 0x3
 2912 0052 0E       		.uleb128 0xe
 2913 0053 3A       		.uleb128 0x3a
 2914 0054 0B       		.uleb128 0xb
 2915 0055 3B       		.uleb128 0x3b
 2916 0056 0B       		.uleb128 0xb
 2917 0057 49       		.uleb128 0x49
 2918 0058 13       		.uleb128 0x13
 2919 0059 3F       		.uleb128 0x3f
 2920 005a 0C       		.uleb128 0xc
 2921 005b 3C       		.uleb128 0x3c
 2922 005c 0C       		.uleb128 0xc
 2923 005d 00       		.byte	0
 2924 005e 00       		.byte	0
 2925 005f 08       		.uleb128 0x8
 2926 0060 04       		.uleb128 0x4
 2927 0061 01       		.byte	0x1
 2928 0062 3E       		.uleb128 0x3e
 2929 0063 0B       		.uleb128 0xb
 2930 0064 0B       		.uleb128 0xb
 2931 0065 0B       		.uleb128 0xb
 2932 0066 49       		.uleb128 0x49
 2933 0067 13       		.uleb128 0x13
 2934 0068 3A       		.uleb128 0x3a
 2935 0069 0B       		.uleb128 0xb
 2936 006a 3B       		.uleb128 0x3b
 2937 006b 05       		.uleb128 0x5
 2938 006c 01       		.uleb128 0x1
 2939 006d 13       		.uleb128 0x13
 2940 006e 00       		.byte	0
 2941 006f 00       		.byte	0
 2942 0070 09       		.uleb128 0x9
 2943 0071 28       		.uleb128 0x28
 2944 0072 00       		.byte	0
 2945 0073 03       		.uleb128 0x3
 2946 0074 0E       		.uleb128 0xe
 2947 0075 1C       		.uleb128 0x1c
 2948 0076 0B       		.uleb128 0xb
 2949 0077 00       		.byte	0
 2950 0078 00       		.byte	0
 2951 0079 0A       		.uleb128 0xa
ARM GAS  G:\Users\Jaxb\AppData\Local\Temp\ccck4Nii.s 			page 85


 2952 007a 28       		.uleb128 0x28
 2953 007b 00       		.byte	0
 2954 007c 03       		.uleb128 0x3
 2955 007d 08       		.uleb128 0x8
 2956 007e 1C       		.uleb128 0x1c
 2957 007f 0B       		.uleb128 0xb
 2958 0080 00       		.byte	0
 2959 0081 00       		.byte	0
 2960 0082 0B       		.uleb128 0xb
 2961 0083 16       		.uleb128 0x16
 2962 0084 00       		.byte	0
 2963 0085 03       		.uleb128 0x3
 2964 0086 0E       		.uleb128 0xe
 2965 0087 3A       		.uleb128 0x3a
 2966 0088 0B       		.uleb128 0xb
 2967 0089 3B       		.uleb128 0x3b
 2968 008a 05       		.uleb128 0x5
 2969 008b 49       		.uleb128 0x49
 2970 008c 13       		.uleb128 0x13
 2971 008d 00       		.byte	0
 2972 008e 00       		.byte	0
 2973 008f 0C       		.uleb128 0xc
 2974 0090 13       		.uleb128 0x13
 2975 0091 01       		.byte	0x1
 2976 0092 0B       		.uleb128 0xb
 2977 0093 0B       		.uleb128 0xb
 2978 0094 3A       		.uleb128 0x3a
 2979 0095 0B       		.uleb128 0xb
 2980 0096 3B       		.uleb128 0x3b
 2981 0097 05       		.uleb128 0x5
 2982 0098 01       		.uleb128 0x1
 2983 0099 13       		.uleb128 0x13
 2984 009a 00       		.byte	0
 2985 009b 00       		.byte	0
 2986 009c 0D       		.uleb128 0xd
 2987 009d 0D       		.uleb128 0xd
 2988 009e 00       		.byte	0
 2989 009f 03       		.uleb128 0x3
 2990 00a0 08       		.uleb128 0x8
 2991 00a1 3A       		.uleb128 0x3a
 2992 00a2 0B       		.uleb128 0xb
 2993 00a3 3B       		.uleb128 0x3b
 2994 00a4 05       		.uleb128 0x5
 2995 00a5 49       		.uleb128 0x49
 2996 00a6 13       		.uleb128 0x13
 2997 00a7 38       		.uleb128 0x38
 2998 00a8 0A       		.uleb128 0xa
 2999 00a9 00       		.byte	0
 3000 00aa 00       		.byte	0
 3001 00ab 0E       		.uleb128 0xe
 3002 00ac 0D       		.uleb128 0xd
 3003 00ad 00       		.byte	0
 3004 00ae 03       		.uleb128 0x3
 3005 00af 0E       		.uleb128 0xe
 3006 00b0 3A       		.uleb128 0x3a
 3007 00b1 0B       		.uleb128 0xb
 3008 00b2 3B       		.uleb128 0x3b
ARM GAS  G:\Users\Jaxb\AppData\Local\Temp\ccck4Nii.s 			page 86


 3009 00b3 05       		.uleb128 0x5
 3010 00b4 49       		.uleb128 0x49
 3011 00b5 13       		.uleb128 0x13
 3012 00b6 38       		.uleb128 0x38
 3013 00b7 0A       		.uleb128 0xa
 3014 00b8 00       		.byte	0
 3015 00b9 00       		.byte	0
 3016 00ba 0F       		.uleb128 0xf
 3017 00bb 04       		.uleb128 0x4
 3018 00bc 01       		.byte	0x1
 3019 00bd 3E       		.uleb128 0x3e
 3020 00be 0B       		.uleb128 0xb
 3021 00bf 0B       		.uleb128 0xb
 3022 00c0 0B       		.uleb128 0xb
 3023 00c1 49       		.uleb128 0x49
 3024 00c2 13       		.uleb128 0x13
 3025 00c3 3A       		.uleb128 0x3a
 3026 00c4 0B       		.uleb128 0xb
 3027 00c5 3B       		.uleb128 0x3b
 3028 00c6 0B       		.uleb128 0xb
 3029 00c7 01       		.uleb128 0x1
 3030 00c8 13       		.uleb128 0x13
 3031 00c9 00       		.byte	0
 3032 00ca 00       		.byte	0
 3033 00cb 10       		.uleb128 0x10
 3034 00cc 2E       		.uleb128 0x2e
 3035 00cd 01       		.byte	0x1
 3036 00ce 3F       		.uleb128 0x3f
 3037 00cf 0C       		.uleb128 0xc
 3038 00d0 03       		.uleb128 0x3
 3039 00d1 0E       		.uleb128 0xe
 3040 00d2 3A       		.uleb128 0x3a
 3041 00d3 0B       		.uleb128 0xb
 3042 00d4 3B       		.uleb128 0x3b
 3043 00d5 05       		.uleb128 0x5
 3044 00d6 27       		.uleb128 0x27
 3045 00d7 0C       		.uleb128 0xc
 3046 00d8 49       		.uleb128 0x49
 3047 00d9 13       		.uleb128 0x13
 3048 00da 01       		.uleb128 0x1
 3049 00db 13       		.uleb128 0x13
 3050 00dc 00       		.byte	0
 3051 00dd 00       		.byte	0
 3052 00de 11       		.uleb128 0x11
 3053 00df 05       		.uleb128 0x5
 3054 00e0 00       		.byte	0
 3055 00e1 03       		.uleb128 0x3
 3056 00e2 0E       		.uleb128 0xe
 3057 00e3 3A       		.uleb128 0x3a
 3058 00e4 0B       		.uleb128 0xb
 3059 00e5 3B       		.uleb128 0x3b
 3060 00e6 05       		.uleb128 0x5
 3061 00e7 49       		.uleb128 0x49
 3062 00e8 13       		.uleb128 0x13
 3063 00e9 00       		.byte	0
 3064 00ea 00       		.byte	0
 3065 00eb 12       		.uleb128 0x12
ARM GAS  G:\Users\Jaxb\AppData\Local\Temp\ccck4Nii.s 			page 87


 3066 00ec 34       		.uleb128 0x34
 3067 00ed 00       		.byte	0
 3068 00ee 03       		.uleb128 0x3
 3069 00ef 0E       		.uleb128 0xe
 3070 00f0 3A       		.uleb128 0x3a
 3071 00f1 0B       		.uleb128 0xb
 3072 00f2 3B       		.uleb128 0x3b
 3073 00f3 05       		.uleb128 0x5
 3074 00f4 49       		.uleb128 0x49
 3075 00f5 13       		.uleb128 0x13
 3076 00f6 00       		.byte	0
 3077 00f7 00       		.byte	0
 3078 00f8 13       		.uleb128 0x13
 3079 00f9 2E       		.uleb128 0x2e
 3080 00fa 01       		.byte	0x1
 3081 00fb 3F       		.uleb128 0x3f
 3082 00fc 0C       		.uleb128 0xc
 3083 00fd 03       		.uleb128 0x3
 3084 00fe 0E       		.uleb128 0xe
 3085 00ff 3A       		.uleb128 0x3a
 3086 0100 0B       		.uleb128 0xb
 3087 0101 3B       		.uleb128 0x3b
 3088 0102 05       		.uleb128 0x5
 3089 0103 27       		.uleb128 0x27
 3090 0104 0C       		.uleb128 0xc
 3091 0105 49       		.uleb128 0x49
 3092 0106 13       		.uleb128 0x13
 3093 0107 11       		.uleb128 0x11
 3094 0108 01       		.uleb128 0x1
 3095 0109 12       		.uleb128 0x12
 3096 010a 01       		.uleb128 0x1
 3097 010b 40       		.uleb128 0x40
 3098 010c 06       		.uleb128 0x6
 3099 010d 9742     		.uleb128 0x2117
 3100 010f 0C       		.uleb128 0xc
 3101 0110 01       		.uleb128 0x1
 3102 0111 13       		.uleb128 0x13
 3103 0112 00       		.byte	0
 3104 0113 00       		.byte	0
 3105 0114 14       		.uleb128 0x14
 3106 0115 05       		.uleb128 0x5
 3107 0116 00       		.byte	0
 3108 0117 03       		.uleb128 0x3
 3109 0118 0E       		.uleb128 0xe
 3110 0119 3A       		.uleb128 0x3a
 3111 011a 0B       		.uleb128 0xb
 3112 011b 3B       		.uleb128 0x3b
 3113 011c 05       		.uleb128 0x5
 3114 011d 49       		.uleb128 0x49
 3115 011e 13       		.uleb128 0x13
 3116 011f 02       		.uleb128 0x2
 3117 0120 06       		.uleb128 0x6
 3118 0121 00       		.byte	0
 3119 0122 00       		.byte	0
 3120 0123 15       		.uleb128 0x15
 3121 0124 34       		.uleb128 0x34
 3122 0125 00       		.byte	0
ARM GAS  G:\Users\Jaxb\AppData\Local\Temp\ccck4Nii.s 			page 88


 3123 0126 03       		.uleb128 0x3
 3124 0127 0E       		.uleb128 0xe
 3125 0128 3A       		.uleb128 0x3a
 3126 0129 0B       		.uleb128 0xb
 3127 012a 3B       		.uleb128 0x3b
 3128 012b 05       		.uleb128 0x5
 3129 012c 49       		.uleb128 0x49
 3130 012d 13       		.uleb128 0x13
 3131 012e 02       		.uleb128 0x2
 3132 012f 06       		.uleb128 0x6
 3133 0130 00       		.byte	0
 3134 0131 00       		.byte	0
 3135 0132 16       		.uleb128 0x16
 3136 0133 898201   		.uleb128 0x4109
 3137 0136 00       		.byte	0
 3138 0137 11       		.uleb128 0x11
 3139 0138 01       		.uleb128 0x1
 3140 0139 31       		.uleb128 0x31
 3141 013a 13       		.uleb128 0x13
 3142 013b 00       		.byte	0
 3143 013c 00       		.byte	0
 3144 013d 17       		.uleb128 0x17
 3145 013e 2E       		.uleb128 0x2e
 3146 013f 01       		.byte	0x1
 3147 0140 3F       		.uleb128 0x3f
 3148 0141 0C       		.uleb128 0xc
 3149 0142 03       		.uleb128 0x3
 3150 0143 0E       		.uleb128 0xe
 3151 0144 3A       		.uleb128 0x3a
 3152 0145 0B       		.uleb128 0xb
 3153 0146 3B       		.uleb128 0x3b
 3154 0147 05       		.uleb128 0x5
 3155 0148 27       		.uleb128 0x27
 3156 0149 0C       		.uleb128 0xc
 3157 014a 49       		.uleb128 0x49
 3158 014b 13       		.uleb128 0x13
 3159 014c 20       		.uleb128 0x20
 3160 014d 0B       		.uleb128 0xb
 3161 014e 01       		.uleb128 0x1
 3162 014f 13       		.uleb128 0x13
 3163 0150 00       		.byte	0
 3164 0151 00       		.byte	0
 3165 0152 18       		.uleb128 0x18
 3166 0153 2E       		.uleb128 0x2e
 3167 0154 01       		.byte	0x1
 3168 0155 3F       		.uleb128 0x3f
 3169 0156 0C       		.uleb128 0xc
 3170 0157 03       		.uleb128 0x3
 3171 0158 0E       		.uleb128 0xe
 3172 0159 3A       		.uleb128 0x3a
 3173 015a 0B       		.uleb128 0xb
 3174 015b 3B       		.uleb128 0x3b
 3175 015c 05       		.uleb128 0x5
 3176 015d 27       		.uleb128 0x27
 3177 015e 0C       		.uleb128 0xc
 3178 015f 49       		.uleb128 0x49
 3179 0160 13       		.uleb128 0x13
ARM GAS  G:\Users\Jaxb\AppData\Local\Temp\ccck4Nii.s 			page 89


 3180 0161 11       		.uleb128 0x11
 3181 0162 01       		.uleb128 0x1
 3182 0163 12       		.uleb128 0x12
 3183 0164 01       		.uleb128 0x1
 3184 0165 40       		.uleb128 0x40
 3185 0166 0A       		.uleb128 0xa
 3186 0167 9742     		.uleb128 0x2117
 3187 0169 0C       		.uleb128 0xc
 3188 016a 01       		.uleb128 0x1
 3189 016b 13       		.uleb128 0x13
 3190 016c 00       		.byte	0
 3191 016d 00       		.byte	0
 3192 016e 19       		.uleb128 0x19
 3193 016f 2E       		.uleb128 0x2e
 3194 0170 01       		.byte	0x1
 3195 0171 3F       		.uleb128 0x3f
 3196 0172 0C       		.uleb128 0xc
 3197 0173 03       		.uleb128 0x3
 3198 0174 0E       		.uleb128 0xe
 3199 0175 3A       		.uleb128 0x3a
 3200 0176 0B       		.uleb128 0xb
 3201 0177 3B       		.uleb128 0x3b
 3202 0178 05       		.uleb128 0x5
 3203 0179 27       		.uleb128 0x27
 3204 017a 0C       		.uleb128 0xc
 3205 017b 11       		.uleb128 0x11
 3206 017c 01       		.uleb128 0x1
 3207 017d 12       		.uleb128 0x12
 3208 017e 01       		.uleb128 0x1
 3209 017f 40       		.uleb128 0x40
 3210 0180 0A       		.uleb128 0xa
 3211 0181 9742     		.uleb128 0x2117
 3212 0183 0C       		.uleb128 0xc
 3213 0184 01       		.uleb128 0x1
 3214 0185 13       		.uleb128 0x13
 3215 0186 00       		.byte	0
 3216 0187 00       		.byte	0
 3217 0188 1A       		.uleb128 0x1a
 3218 0189 05       		.uleb128 0x5
 3219 018a 00       		.byte	0
 3220 018b 03       		.uleb128 0x3
 3221 018c 0E       		.uleb128 0xe
 3222 018d 3A       		.uleb128 0x3a
 3223 018e 0B       		.uleb128 0xb
 3224 018f 3B       		.uleb128 0x3b
 3225 0190 05       		.uleb128 0x5
 3226 0191 49       		.uleb128 0x49
 3227 0192 13       		.uleb128 0x13
 3228 0193 02       		.uleb128 0x2
 3229 0194 0A       		.uleb128 0xa
 3230 0195 00       		.byte	0
 3231 0196 00       		.byte	0
 3232 0197 1B       		.uleb128 0x1b
 3233 0198 2E       		.uleb128 0x2e
 3234 0199 00       		.byte	0
 3235 019a 3F       		.uleb128 0x3f
 3236 019b 0C       		.uleb128 0xc
ARM GAS  G:\Users\Jaxb\AppData\Local\Temp\ccck4Nii.s 			page 90


 3237 019c 03       		.uleb128 0x3
 3238 019d 0E       		.uleb128 0xe
 3239 019e 3A       		.uleb128 0x3a
 3240 019f 0B       		.uleb128 0xb
 3241 01a0 3B       		.uleb128 0x3b
 3242 01a1 05       		.uleb128 0x5
 3243 01a2 27       		.uleb128 0x27
 3244 01a3 0C       		.uleb128 0xc
 3245 01a4 49       		.uleb128 0x49
 3246 01a5 13       		.uleb128 0x13
 3247 01a6 11       		.uleb128 0x11
 3248 01a7 01       		.uleb128 0x1
 3249 01a8 12       		.uleb128 0x12
 3250 01a9 01       		.uleb128 0x1
 3251 01aa 40       		.uleb128 0x40
 3252 01ab 0A       		.uleb128 0xa
 3253 01ac 9742     		.uleb128 0x2117
 3254 01ae 0C       		.uleb128 0xc
 3255 01af 00       		.byte	0
 3256 01b0 00       		.byte	0
 3257 01b1 1C       		.uleb128 0x1c
 3258 01b2 898201   		.uleb128 0x4109
 3259 01b5 01       		.byte	0x1
 3260 01b6 11       		.uleb128 0x11
 3261 01b7 01       		.uleb128 0x1
 3262 01b8 31       		.uleb128 0x31
 3263 01b9 13       		.uleb128 0x13
 3264 01ba 01       		.uleb128 0x1
 3265 01bb 13       		.uleb128 0x13
 3266 01bc 00       		.byte	0
 3267 01bd 00       		.byte	0
 3268 01be 1D       		.uleb128 0x1d
 3269 01bf 8A8201   		.uleb128 0x410a
 3270 01c2 00       		.byte	0
 3271 01c3 02       		.uleb128 0x2
 3272 01c4 0A       		.uleb128 0xa
 3273 01c5 9142     		.uleb128 0x2111
 3274 01c7 0A       		.uleb128 0xa
 3275 01c8 00       		.byte	0
 3276 01c9 00       		.byte	0
 3277 01ca 1E       		.uleb128 0x1e
 3278 01cb 898201   		.uleb128 0x4109
 3279 01ce 01       		.byte	0x1
 3280 01cf 11       		.uleb128 0x11
 3281 01d0 01       		.uleb128 0x1
 3282 01d1 31       		.uleb128 0x31
 3283 01d2 13       		.uleb128 0x13
 3284 01d3 00       		.byte	0
 3285 01d4 00       		.byte	0
 3286 01d5 1F       		.uleb128 0x1f
 3287 01d6 34       		.uleb128 0x34
 3288 01d7 00       		.byte	0
 3289 01d8 03       		.uleb128 0x3
 3290 01d9 08       		.uleb128 0x8
 3291 01da 3A       		.uleb128 0x3a
 3292 01db 0B       		.uleb128 0xb
 3293 01dc 3B       		.uleb128 0x3b
ARM GAS  G:\Users\Jaxb\AppData\Local\Temp\ccck4Nii.s 			page 91


 3294 01dd 05       		.uleb128 0x5
 3295 01de 49       		.uleb128 0x49
 3296 01df 13       		.uleb128 0x13
 3297 01e0 02       		.uleb128 0x2
 3298 01e1 0A       		.uleb128 0xa
 3299 01e2 00       		.byte	0
 3300 01e3 00       		.byte	0
 3301 01e4 20       		.uleb128 0x20
 3302 01e5 1D       		.uleb128 0x1d
 3303 01e6 01       		.byte	0x1
 3304 01e7 31       		.uleb128 0x31
 3305 01e8 13       		.uleb128 0x13
 3306 01e9 52       		.uleb128 0x52
 3307 01ea 01       		.uleb128 0x1
 3308 01eb 55       		.uleb128 0x55
 3309 01ec 06       		.uleb128 0x6
 3310 01ed 58       		.uleb128 0x58
 3311 01ee 0B       		.uleb128 0xb
 3312 01ef 59       		.uleb128 0x59
 3313 01f0 05       		.uleb128 0x5
 3314 01f1 01       		.uleb128 0x1
 3315 01f2 13       		.uleb128 0x13
 3316 01f3 00       		.byte	0
 3317 01f4 00       		.byte	0
 3318 01f5 21       		.uleb128 0x21
 3319 01f6 0B       		.uleb128 0xb
 3320 01f7 01       		.byte	0x1
 3321 01f8 55       		.uleb128 0x55
 3322 01f9 06       		.uleb128 0x6
 3323 01fa 00       		.byte	0
 3324 01fb 00       		.byte	0
 3325 01fc 22       		.uleb128 0x22
 3326 01fd 34       		.uleb128 0x34
 3327 01fe 00       		.byte	0
 3328 01ff 31       		.uleb128 0x31
 3329 0200 13       		.uleb128 0x13
 3330 0201 00       		.byte	0
 3331 0202 00       		.byte	0
 3332 0203 23       		.uleb128 0x23
 3333 0204 2E       		.uleb128 0x2e
 3334 0205 00       		.byte	0
 3335 0206 3F       		.uleb128 0x3f
 3336 0207 0C       		.uleb128 0xc
 3337 0208 03       		.uleb128 0x3
 3338 0209 0E       		.uleb128 0xe
 3339 020a 3A       		.uleb128 0x3a
 3340 020b 0B       		.uleb128 0xb
 3341 020c 3B       		.uleb128 0x3b
 3342 020d 05       		.uleb128 0x5
 3343 020e 27       		.uleb128 0x27
 3344 020f 0C       		.uleb128 0xc
 3345 0210 00       		.byte	0
 3346 0211 00       		.byte	0
 3347 0212 24       		.uleb128 0x24
 3348 0213 2E       		.uleb128 0x2e
 3349 0214 00       		.byte	0
 3350 0215 3F       		.uleb128 0x3f
ARM GAS  G:\Users\Jaxb\AppData\Local\Temp\ccck4Nii.s 			page 92


 3351 0216 0C       		.uleb128 0xc
 3352 0217 03       		.uleb128 0x3
 3353 0218 0E       		.uleb128 0xe
 3354 0219 3A       		.uleb128 0x3a
 3355 021a 0B       		.uleb128 0xb
 3356 021b 3B       		.uleb128 0x3b
 3357 021c 05       		.uleb128 0x5
 3358 021d 27       		.uleb128 0x27
 3359 021e 0C       		.uleb128 0xc
 3360 021f 11       		.uleb128 0x11
 3361 0220 01       		.uleb128 0x1
 3362 0221 12       		.uleb128 0x12
 3363 0222 01       		.uleb128 0x1
 3364 0223 40       		.uleb128 0x40
 3365 0224 0A       		.uleb128 0xa
 3366 0225 9742     		.uleb128 0x2117
 3367 0227 0C       		.uleb128 0xc
 3368 0228 00       		.byte	0
 3369 0229 00       		.byte	0
 3370 022a 25       		.uleb128 0x25
 3371 022b 2E       		.uleb128 0x2e
 3372 022c 01       		.byte	0x1
 3373 022d 3F       		.uleb128 0x3f
 3374 022e 0C       		.uleb128 0xc
 3375 022f 03       		.uleb128 0x3
 3376 0230 0E       		.uleb128 0xe
 3377 0231 3A       		.uleb128 0x3a
 3378 0232 0B       		.uleb128 0xb
 3379 0233 3B       		.uleb128 0x3b
 3380 0234 0B       		.uleb128 0xb
 3381 0235 27       		.uleb128 0x27
 3382 0236 0C       		.uleb128 0xc
 3383 0237 11       		.uleb128 0x11
 3384 0238 01       		.uleb128 0x1
 3385 0239 12       		.uleb128 0x12
 3386 023a 01       		.uleb128 0x1
 3387 023b 40       		.uleb128 0x40
 3388 023c 0A       		.uleb128 0xa
 3389 023d 9742     		.uleb128 0x2117
 3390 023f 0C       		.uleb128 0xc
 3391 0240 01       		.uleb128 0x1
 3392 0241 13       		.uleb128 0x13
 3393 0242 00       		.byte	0
 3394 0243 00       		.byte	0
 3395 0244 26       		.uleb128 0x26
 3396 0245 05       		.uleb128 0x5
 3397 0246 00       		.byte	0
 3398 0247 03       		.uleb128 0x3
 3399 0248 0E       		.uleb128 0xe
 3400 0249 3A       		.uleb128 0x3a
 3401 024a 0B       		.uleb128 0xb
 3402 024b 3B       		.uleb128 0x3b
 3403 024c 0B       		.uleb128 0xb
 3404 024d 49       		.uleb128 0x49
 3405 024e 13       		.uleb128 0x13
 3406 024f 02       		.uleb128 0x2
 3407 0250 06       		.uleb128 0x6
ARM GAS  G:\Users\Jaxb\AppData\Local\Temp\ccck4Nii.s 			page 93


 3408 0251 00       		.byte	0
 3409 0252 00       		.byte	0
 3410 0253 27       		.uleb128 0x27
 3411 0254 2E       		.uleb128 0x2e
 3412 0255 01       		.byte	0x1
 3413 0256 31       		.uleb128 0x31
 3414 0257 13       		.uleb128 0x13
 3415 0258 11       		.uleb128 0x11
 3416 0259 01       		.uleb128 0x1
 3417 025a 12       		.uleb128 0x12
 3418 025b 01       		.uleb128 0x1
 3419 025c 40       		.uleb128 0x40
 3420 025d 0A       		.uleb128 0xa
 3421 025e 9742     		.uleb128 0x2117
 3422 0260 0C       		.uleb128 0xc
 3423 0261 01       		.uleb128 0x1
 3424 0262 13       		.uleb128 0x13
 3425 0263 00       		.byte	0
 3426 0264 00       		.byte	0
 3427 0265 28       		.uleb128 0x28
 3428 0266 34       		.uleb128 0x34
 3429 0267 00       		.byte	0
 3430 0268 31       		.uleb128 0x31
 3431 0269 13       		.uleb128 0x13
 3432 026a 02       		.uleb128 0x2
 3433 026b 06       		.uleb128 0x6
 3434 026c 00       		.byte	0
 3435 026d 00       		.byte	0
 3436 026e 29       		.uleb128 0x29
 3437 026f 2E       		.uleb128 0x2e
 3438 0270 01       		.byte	0x1
 3439 0271 31       		.uleb128 0x31
 3440 0272 13       		.uleb128 0x13
 3441 0273 11       		.uleb128 0x11
 3442 0274 01       		.uleb128 0x1
 3443 0275 12       		.uleb128 0x12
 3444 0276 01       		.uleb128 0x1
 3445 0277 40       		.uleb128 0x40
 3446 0278 0A       		.uleb128 0xa
 3447 0279 9742     		.uleb128 0x2117
 3448 027b 0C       		.uleb128 0xc
 3449 027c 00       		.byte	0
 3450 027d 00       		.byte	0
 3451 027e 2A       		.uleb128 0x2a
 3452 027f 0B       		.uleb128 0xb
 3453 0280 01       		.byte	0x1
 3454 0281 11       		.uleb128 0x11
 3455 0282 01       		.uleb128 0x1
 3456 0283 12       		.uleb128 0x12
 3457 0284 01       		.uleb128 0x1
 3458 0285 00       		.byte	0
 3459 0286 00       		.byte	0
 3460 0287 00       		.byte	0
 3461              		.section	.debug_loc,"",%progbits
 3462              	.Ldebug_loc0:
 3463              	.LLST11:
 3464 0000 40010000 		.4byte	.LFB55-.Ltext0
ARM GAS  G:\Users\Jaxb\AppData\Local\Temp\ccck4Nii.s 			page 94


 3465 0004 42010000 		.4byte	.LCFI0-.Ltext0
 3466 0008 0200     		.2byte	0x2
 3467 000a 7D       		.byte	0x7d
 3468 000b 00       		.sleb128 0
 3469 000c 42010000 		.4byte	.LCFI0-.Ltext0
 3470 0010 62010000 		.4byte	.LFE55-.Ltext0
 3471 0014 0200     		.2byte	0x2
 3472 0016 7D       		.byte	0x7d
 3473 0017 08       		.sleb128 8
 3474 0018 00000000 		.4byte	0
 3475 001c 00000000 		.4byte	0
 3476              	.LLST12:
 3477 0020 40010000 		.4byte	.LVL28-.Ltext0
 3478 0024 47010000 		.4byte	.LVL29-1-.Ltext0
 3479 0028 0100     		.2byte	0x1
 3480 002a 50       		.byte	0x50
 3481 002b 47010000 		.4byte	.LVL29-1-.Ltext0
 3482 002f 62010000 		.4byte	.LFE55-.Ltext0
 3483 0033 0100     		.2byte	0x1
 3484 0035 54       		.byte	0x54
 3485 0036 00000000 		.4byte	0
 3486 003a 00000000 		.4byte	0
 3487              	.LLST13:
 3488 003e 40010000 		.4byte	.LVL28-.Ltext0
 3489 0042 48010000 		.4byte	.LVL29-.Ltext0
 3490 0046 0200     		.2byte	0x2
 3491 0048 34       		.byte	0x34
 3492 0049 9F       		.byte	0x9f
 3493 004a 48010000 		.4byte	.LVL29-.Ltext0
 3494 004e 4E010000 		.4byte	.LVL30-.Ltext0
 3495 0052 0100     		.2byte	0x1
 3496 0054 50       		.byte	0x50
 3497 0055 4E010000 		.4byte	.LVL30-.Ltext0
 3498 0059 52010000 		.4byte	.LVL31-.Ltext0
 3499 005d 0200     		.2byte	0x2
 3500 005f 31       		.byte	0x31
 3501 0060 9F       		.byte	0x9f
 3502 0061 52010000 		.4byte	.LVL31-.Ltext0
 3503 0065 5E010000 		.4byte	.LVL33-.Ltext0
 3504 0069 0100     		.2byte	0x1
 3505 006b 50       		.byte	0x50
 3506 006c 5E010000 		.4byte	.LVL33-.Ltext0
 3507 0070 60010000 		.4byte	.LVL34-.Ltext0
 3508 0074 0200     		.2byte	0x2
 3509 0076 35       		.byte	0x35
 3510 0077 9F       		.byte	0x9f
 3511 0078 60010000 		.4byte	.LVL34-.Ltext0
 3512 007c 62010000 		.4byte	.LFE55-.Ltext0
 3513 0080 0100     		.2byte	0x1
 3514 0082 50       		.byte	0x50
 3515 0083 00000000 		.4byte	0
 3516 0087 00000000 		.4byte	0
 3517              	.LLST9:
 3518 008b F0000000 		.4byte	.LVL24-.Ltext0
 3519 008f 12010000 		.4byte	.LVL25-.Ltext0
 3520 0093 0200     		.2byte	0x2
 3521 0095 34       		.byte	0x34
ARM GAS  G:\Users\Jaxb\AppData\Local\Temp\ccck4Nii.s 			page 95


 3522 0096 9F       		.byte	0x9f
 3523 0097 12010000 		.4byte	.LVL25-.Ltext0
 3524 009b 18010000 		.4byte	.LFE53-.Ltext0
 3525 009f 0100     		.2byte	0x1
 3526 00a1 50       		.byte	0x50
 3527 00a2 00000000 		.4byte	0
 3528 00a6 00000000 		.4byte	0
 3529              	.LLST7:
 3530 00aa C4000000 		.4byte	.LVL18-.Ltext0
 3531 00ae D2000000 		.4byte	.LVL19-.Ltext0
 3532 00b2 0100     		.2byte	0x1
 3533 00b4 50       		.byte	0x50
 3534 00b5 D2000000 		.4byte	.LVL19-.Ltext0
 3535 00b9 D6000000 		.4byte	.LVL21-.Ltext0
 3536 00bd 0400     		.2byte	0x4
 3537 00bf F3       		.byte	0xf3
 3538 00c0 01       		.uleb128 0x1
 3539 00c1 50       		.byte	0x50
 3540 00c2 9F       		.byte	0x9f
 3541 00c3 D6000000 		.4byte	.LVL21-.Ltext0
 3542 00c7 D8000000 		.4byte	.LVL22-.Ltext0
 3543 00cb 0100     		.2byte	0x1
 3544 00cd 50       		.byte	0x50
 3545 00ce D8000000 		.4byte	.LVL22-.Ltext0
 3546 00d2 E4000000 		.4byte	.LFE51-.Ltext0
 3547 00d6 0400     		.2byte	0x4
 3548 00d8 F3       		.byte	0xf3
 3549 00d9 01       		.uleb128 0x1
 3550 00da 50       		.byte	0x50
 3551 00db 9F       		.byte	0x9f
 3552 00dc 00000000 		.4byte	0
 3553 00e0 00000000 		.4byte	0
 3554              	.LLST8:
 3555 00e4 C4000000 		.4byte	.LVL18-.Ltext0
 3556 00e8 D4000000 		.4byte	.LVL20-.Ltext0
 3557 00ec 0200     		.2byte	0x2
 3558 00ee 30       		.byte	0x30
 3559 00ef 9F       		.byte	0x9f
 3560 00f0 D4000000 		.4byte	.LVL20-.Ltext0
 3561 00f4 D6000000 		.4byte	.LVL21-.Ltext0
 3562 00f8 0100     		.2byte	0x1
 3563 00fa 50       		.byte	0x50
 3564 00fb D6000000 		.4byte	.LVL21-.Ltext0
 3565 00ff E4000000 		.4byte	.LFE51-.Ltext0
 3566 0103 0200     		.2byte	0x2
 3567 0105 30       		.byte	0x30
 3568 0106 9F       		.byte	0x9f
 3569 0107 00000000 		.4byte	0
 3570 010b 00000000 		.4byte	0
 3571              	.LLST6:
 3572 010f AC000000 		.4byte	.LVL14-.Ltext0
 3573 0113 B6000000 		.4byte	.LVL15-.Ltext0
 3574 0117 0100     		.2byte	0x1
 3575 0119 50       		.byte	0x50
 3576 011a B6000000 		.4byte	.LVL15-.Ltext0
 3577 011e BA000000 		.4byte	.LVL16-.Ltext0
 3578 0122 0400     		.2byte	0x4
ARM GAS  G:\Users\Jaxb\AppData\Local\Temp\ccck4Nii.s 			page 96


 3579 0124 F3       		.byte	0xf3
 3580 0125 01       		.uleb128 0x1
 3581 0126 50       		.byte	0x50
 3582 0127 9F       		.byte	0x9f
 3583 0128 BA000000 		.4byte	.LVL16-.Ltext0
 3584 012c BC000000 		.4byte	.LVL17-.Ltext0
 3585 0130 0100     		.2byte	0x1
 3586 0132 50       		.byte	0x50
 3587 0133 BC000000 		.4byte	.LVL17-.Ltext0
 3588 0137 C4000000 		.4byte	.LFE50-.Ltext0
 3589 013b 0400     		.2byte	0x4
 3590 013d F3       		.byte	0xf3
 3591 013e 01       		.uleb128 0x1
 3592 013f 50       		.byte	0x50
 3593 0140 9F       		.byte	0x9f
 3594 0141 00000000 		.4byte	0
 3595 0145 00000000 		.4byte	0
 3596              	.LLST5:
 3597 0149 9C000000 		.4byte	.LVL11-.Ltext0
 3598 014d A0000000 		.4byte	.LVL12-.Ltext0
 3599 0151 0200     		.2byte	0x2
 3600 0153 30       		.byte	0x30
 3601 0154 9F       		.byte	0x9f
 3602 0155 A0000000 		.4byte	.LVL12-.Ltext0
 3603 0159 A4000000 		.4byte	.LVL13-.Ltext0
 3604 015d 0800     		.2byte	0x8
 3605 015f 70       		.byte	0x70
 3606 0160 00       		.sleb128 0
 3607 0161 08       		.byte	0x8
 3608 0162 20       		.byte	0x20
 3609 0163 1A       		.byte	0x1a
 3610 0164 30       		.byte	0x30
 3611 0165 2E       		.byte	0x2e
 3612 0166 9F       		.byte	0x9f
 3613 0167 00000000 		.4byte	0
 3614 016b 00000000 		.4byte	0
 3615              	.LLST44:
 3616 016f A0040000 		.4byte	.LFB45-.Ltext0
 3617 0173 A2040000 		.4byte	.LCFI14-.Ltext0
 3618 0177 0200     		.2byte	0x2
 3619 0179 7D       		.byte	0x7d
 3620 017a 00       		.sleb128 0
 3621 017b A2040000 		.4byte	.LCFI14-.Ltext0
 3622 017f FC040000 		.4byte	.LFE45-.Ltext0
 3623 0183 0200     		.2byte	0x2
 3624 0185 7D       		.byte	0x7d
 3625 0186 18       		.sleb128 24
 3626 0187 00000000 		.4byte	0
 3627 018b 00000000 		.4byte	0
 3628              	.LLST45:
 3629 018f A0040000 		.4byte	.LVL107-.Ltext0
 3630 0193 B2040000 		.4byte	.LVL108-.Ltext0
 3631 0197 0100     		.2byte	0x1
 3632 0199 50       		.byte	0x50
 3633 019a B2040000 		.4byte	.LVL108-.Ltext0
 3634 019e FC040000 		.4byte	.LFE45-.Ltext0
 3635 01a2 0400     		.2byte	0x4
ARM GAS  G:\Users\Jaxb\AppData\Local\Temp\ccck4Nii.s 			page 97


 3636 01a4 F3       		.byte	0xf3
 3637 01a5 01       		.uleb128 0x1
 3638 01a6 50       		.byte	0x50
 3639 01a7 9F       		.byte	0x9f
 3640 01a8 00000000 		.4byte	0
 3641 01ac 00000000 		.4byte	0
 3642              	.LLST46:
 3643 01b0 A0040000 		.4byte	.LVL107-.Ltext0
 3644 01b4 B9040000 		.4byte	.LVL109-1-.Ltext0
 3645 01b8 0100     		.2byte	0x1
 3646 01ba 51       		.byte	0x51
 3647 01bb B9040000 		.4byte	.LVL109-1-.Ltext0
 3648 01bf FC040000 		.4byte	.LFE45-.Ltext0
 3649 01c3 0400     		.2byte	0x4
 3650 01c5 F3       		.byte	0xf3
 3651 01c6 01       		.uleb128 0x1
 3652 01c7 51       		.byte	0x51
 3653 01c8 9F       		.byte	0x9f
 3654 01c9 00000000 		.4byte	0
 3655 01cd 00000000 		.4byte	0
 3656              	.LLST47:
 3657 01d1 A0040000 		.4byte	.LVL107-.Ltext0
 3658 01d5 B9040000 		.4byte	.LVL109-1-.Ltext0
 3659 01d9 0100     		.2byte	0x1
 3660 01db 52       		.byte	0x52
 3661 01dc B9040000 		.4byte	.LVL109-1-.Ltext0
 3662 01e0 FC040000 		.4byte	.LFE45-.Ltext0
 3663 01e4 0400     		.2byte	0x4
 3664 01e6 F3       		.byte	0xf3
 3665 01e7 01       		.uleb128 0x1
 3666 01e8 52       		.byte	0x52
 3667 01e9 9F       		.byte	0x9f
 3668 01ea 00000000 		.4byte	0
 3669 01ee 00000000 		.4byte	0
 3670              	.LLST48:
 3671 01f2 A0040000 		.4byte	.LVL107-.Ltext0
 3672 01f6 BA040000 		.4byte	.LVL109-.Ltext0
 3673 01fa 0200     		.2byte	0x2
 3674 01fc 34       		.byte	0x34
 3675 01fd 9F       		.byte	0x9f
 3676 01fe BA040000 		.4byte	.LVL109-.Ltext0
 3677 0202 D6040000 		.4byte	.LVL110-.Ltext0
 3678 0206 0100     		.2byte	0x1
 3679 0208 50       		.byte	0x50
 3680 0209 DC040000 		.4byte	.LVL111-.Ltext0
 3681 020d FC040000 		.4byte	.LFE45-.Ltext0
 3682 0211 0100     		.2byte	0x1
 3683 0213 50       		.byte	0x50
 3684 0214 00000000 		.4byte	0
 3685 0218 00000000 		.4byte	0
 3686              	.LLST41:
 3687 021c 0C040000 		.4byte	.LFB44-.Ltext0
 3688 0220 0E040000 		.4byte	.LCFI13-.Ltext0
 3689 0224 0200     		.2byte	0x2
 3690 0226 7D       		.byte	0x7d
 3691 0227 00       		.sleb128 0
 3692 0228 0E040000 		.4byte	.LCFI13-.Ltext0
ARM GAS  G:\Users\Jaxb\AppData\Local\Temp\ccck4Nii.s 			page 98


 3693 022c A0040000 		.4byte	.LFE44-.Ltext0
 3694 0230 0200     		.2byte	0x2
 3695 0232 7D       		.byte	0x7d
 3696 0233 10       		.sleb128 16
 3697 0234 00000000 		.4byte	0
 3698 0238 00000000 		.4byte	0
 3699              	.LLST42:
 3700 023c 0C040000 		.4byte	.LVL100-.Ltext0
 3701 0240 14040000 		.4byte	.LVL101-.Ltext0
 3702 0244 0100     		.2byte	0x1
 3703 0246 50       		.byte	0x50
 3704 0247 14040000 		.4byte	.LVL101-.Ltext0
 3705 024b A0040000 		.4byte	.LFE44-.Ltext0
 3706 024f 0400     		.2byte	0x4
 3707 0251 F3       		.byte	0xf3
 3708 0252 01       		.uleb128 0x1
 3709 0253 50       		.byte	0x50
 3710 0254 9F       		.byte	0x9f
 3711 0255 00000000 		.4byte	0
 3712 0259 00000000 		.4byte	0
 3713              	.LLST43:
 3714 025d 0C040000 		.4byte	.LVL100-.Ltext0
 3715 0261 18040000 		.4byte	.LVL102-.Ltext0
 3716 0265 0200     		.2byte	0x2
 3717 0267 34       		.byte	0x34
 3718 0268 9F       		.byte	0x9f
 3719 0269 18040000 		.4byte	.LVL102-.Ltext0
 3720 026d 2E040000 		.4byte	.LVL103-.Ltext0
 3721 0271 0100     		.2byte	0x1
 3722 0273 50       		.byte	0x50
 3723 0274 40040000 		.4byte	.LVL104-.Ltext0
 3724 0278 72040000 		.4byte	.LVL105-.Ltext0
 3725 027c 0100     		.2byte	0x1
 3726 027e 50       		.byte	0x50
 3727 027f 76040000 		.4byte	.LVL106-.Ltext0
 3728 0283 A0040000 		.4byte	.LFE44-.Ltext0
 3729 0287 0100     		.2byte	0x1
 3730 0289 50       		.byte	0x50
 3731 028a 00000000 		.4byte	0
 3732 028e 00000000 		.4byte	0
 3733              	.LLST34:
 3734 0292 5C030000 		.4byte	.LFB43-.Ltext0
 3735 0296 5E030000 		.4byte	.LCFI12-.Ltext0
 3736 029a 0200     		.2byte	0x2
 3737 029c 7D       		.byte	0x7d
 3738 029d 00       		.sleb128 0
 3739 029e 5E030000 		.4byte	.LCFI12-.Ltext0
 3740 02a2 0C040000 		.4byte	.LFE43-.Ltext0
 3741 02a6 0200     		.2byte	0x2
 3742 02a8 7D       		.byte	0x7d
 3743 02a9 10       		.sleb128 16
 3744 02aa 00000000 		.4byte	0
 3745 02ae 00000000 		.4byte	0
 3746              	.LLST35:
 3747 02b2 5C030000 		.4byte	.LVL82-.Ltext0
 3748 02b6 60030000 		.4byte	.LVL83-.Ltext0
 3749 02ba 0100     		.2byte	0x1
ARM GAS  G:\Users\Jaxb\AppData\Local\Temp\ccck4Nii.s 			page 99


 3750 02bc 50       		.byte	0x50
 3751 02bd 60030000 		.4byte	.LVL83-.Ltext0
 3752 02c1 64030000 		.4byte	.LVL84-.Ltext0
 3753 02c5 0400     		.2byte	0x4
 3754 02c7 70       		.byte	0x70
 3755 02c8 00       		.sleb128 0
 3756 02c9 20       		.byte	0x20
 3757 02ca 9F       		.byte	0x9f
 3758 02cb 64030000 		.4byte	.LVL84-.Ltext0
 3759 02cf 6E030000 		.4byte	.LVL87-.Ltext0
 3760 02d3 0400     		.2byte	0x4
 3761 02d5 75       		.byte	0x75
 3762 02d6 00       		.sleb128 0
 3763 02d7 20       		.byte	0x20
 3764 02d8 9F       		.byte	0x9f
 3765 02d9 6E030000 		.4byte	.LVL87-.Ltext0
 3766 02dd 72030000 		.4byte	.LVL88-.Ltext0
 3767 02e1 0500     		.2byte	0x5
 3768 02e3 F3       		.byte	0xf3
 3769 02e4 01       		.uleb128 0x1
 3770 02e5 50       		.byte	0x50
 3771 02e6 20       		.byte	0x20
 3772 02e7 9F       		.byte	0x9f
 3773 02e8 72030000 		.4byte	.LVL88-.Ltext0
 3774 02ec 74030000 		.4byte	.LVL89-.Ltext0
 3775 02f0 0400     		.2byte	0x4
 3776 02f2 75       		.byte	0x75
 3777 02f3 00       		.sleb128 0
 3778 02f4 20       		.byte	0x20
 3779 02f5 9F       		.byte	0x9f
 3780 02f6 74030000 		.4byte	.LVL89-.Ltext0
 3781 02fa AE030000 		.4byte	.LVL93-.Ltext0
 3782 02fe 0100     		.2byte	0x1
 3783 0300 55       		.byte	0x55
 3784 0301 AE030000 		.4byte	.LVL93-.Ltext0
 3785 0305 0C040000 		.4byte	.LFE43-.Ltext0
 3786 0309 0500     		.2byte	0x5
 3787 030b F3       		.byte	0xf3
 3788 030c 01       		.uleb128 0x1
 3789 030d 50       		.byte	0x50
 3790 030e 20       		.byte	0x20
 3791 030f 9F       		.byte	0x9f
 3792 0310 00000000 		.4byte	0
 3793 0314 00000000 		.4byte	0
 3794              	.LLST36:
 3795 0318 60030000 		.4byte	.LVL83-.Ltext0
 3796 031c 64030000 		.4byte	.LVL84-.Ltext0
 3797 0320 0700     		.2byte	0x7
 3798 0322 70       		.byte	0x70
 3799 0323 00       		.sleb128 0
 3800 0324 20       		.byte	0x20
 3801 0325 08       		.byte	0x8
 3802 0326 FF       		.byte	0xff
 3803 0327 1A       		.byte	0x1a
 3804 0328 9F       		.byte	0x9f
 3805 0329 64030000 		.4byte	.LVL84-.Ltext0
 3806 032d 6E030000 		.4byte	.LVL87-.Ltext0
ARM GAS  G:\Users\Jaxb\AppData\Local\Temp\ccck4Nii.s 			page 100


 3807 0331 0700     		.2byte	0x7
 3808 0333 75       		.byte	0x75
 3809 0334 00       		.sleb128 0
 3810 0335 20       		.byte	0x20
 3811 0336 08       		.byte	0x8
 3812 0337 FF       		.byte	0xff
 3813 0338 1A       		.byte	0x1a
 3814 0339 9F       		.byte	0x9f
 3815 033a 6E030000 		.4byte	.LVL87-.Ltext0
 3816 033e 72030000 		.4byte	.LVL88-.Ltext0
 3817 0342 0800     		.2byte	0x8
 3818 0344 F3       		.byte	0xf3
 3819 0345 01       		.uleb128 0x1
 3820 0346 50       		.byte	0x50
 3821 0347 20       		.byte	0x20
 3822 0348 08       		.byte	0x8
 3823 0349 FF       		.byte	0xff
 3824 034a 1A       		.byte	0x1a
 3825 034b 9F       		.byte	0x9f
 3826 034c 72030000 		.4byte	.LVL88-.Ltext0
 3827 0350 74030000 		.4byte	.LVL89-.Ltext0
 3828 0354 0700     		.2byte	0x7
 3829 0356 75       		.byte	0x75
 3830 0357 00       		.sleb128 0
 3831 0358 20       		.byte	0x20
 3832 0359 08       		.byte	0x8
 3833 035a FF       		.byte	0xff
 3834 035b 1A       		.byte	0x1a
 3835 035c 9F       		.byte	0x9f
 3836 035d 74030000 		.4byte	.LVL89-.Ltext0
 3837 0361 AE030000 		.4byte	.LVL93-.Ltext0
 3838 0365 0600     		.2byte	0x6
 3839 0367 75       		.byte	0x75
 3840 0368 00       		.sleb128 0
 3841 0369 08       		.byte	0x8
 3842 036a FF       		.byte	0xff
 3843 036b 1A       		.byte	0x1a
 3844 036c 9F       		.byte	0x9f
 3845 036d AE030000 		.4byte	.LVL93-.Ltext0
 3846 0371 0C040000 		.4byte	.LFE43-.Ltext0
 3847 0375 0800     		.2byte	0x8
 3848 0377 F3       		.byte	0xf3
 3849 0378 01       		.uleb128 0x1
 3850 0379 50       		.byte	0x50
 3851 037a 20       		.byte	0x20
 3852 037b 08       		.byte	0x8
 3853 037c FF       		.byte	0xff
 3854 037d 1A       		.byte	0x1a
 3855 037e 9F       		.byte	0x9f
 3856 037f 00000000 		.4byte	0
 3857 0383 00000000 		.4byte	0
 3858              	.LLST37:
 3859 0387 60030000 		.4byte	.LVL83-.Ltext0
 3860 038b 64030000 		.4byte	.LVL84-.Ltext0
 3861 038f 0900     		.2byte	0x9
 3862 0391 70       		.byte	0x70
 3863 0392 00       		.sleb128 0
ARM GAS  G:\Users\Jaxb\AppData\Local\Temp\ccck4Nii.s 			page 101


 3864 0393 20       		.byte	0x20
 3865 0394 38       		.byte	0x38
 3866 0395 25       		.byte	0x25
 3867 0396 08       		.byte	0x8
 3868 0397 FF       		.byte	0xff
 3869 0398 1A       		.byte	0x1a
 3870 0399 9F       		.byte	0x9f
 3871 039a 64030000 		.4byte	.LVL84-.Ltext0
 3872 039e 6E030000 		.4byte	.LVL87-.Ltext0
 3873 03a2 0900     		.2byte	0x9
 3874 03a4 75       		.byte	0x75
 3875 03a5 00       		.sleb128 0
 3876 03a6 20       		.byte	0x20
 3877 03a7 38       		.byte	0x38
 3878 03a8 25       		.byte	0x25
 3879 03a9 08       		.byte	0x8
 3880 03aa FF       		.byte	0xff
 3881 03ab 1A       		.byte	0x1a
 3882 03ac 9F       		.byte	0x9f
 3883 03ad 6E030000 		.4byte	.LVL87-.Ltext0
 3884 03b1 72030000 		.4byte	.LVL88-.Ltext0
 3885 03b5 0A00     		.2byte	0xa
 3886 03b7 F3       		.byte	0xf3
 3887 03b8 01       		.uleb128 0x1
 3888 03b9 50       		.byte	0x50
 3889 03ba 20       		.byte	0x20
 3890 03bb 38       		.byte	0x38
 3891 03bc 25       		.byte	0x25
 3892 03bd 08       		.byte	0x8
 3893 03be FF       		.byte	0xff
 3894 03bf 1A       		.byte	0x1a
 3895 03c0 9F       		.byte	0x9f
 3896 03c1 72030000 		.4byte	.LVL88-.Ltext0
 3897 03c5 74030000 		.4byte	.LVL89-.Ltext0
 3898 03c9 0900     		.2byte	0x9
 3899 03cb 75       		.byte	0x75
 3900 03cc 00       		.sleb128 0
 3901 03cd 20       		.byte	0x20
 3902 03ce 38       		.byte	0x38
 3903 03cf 25       		.byte	0x25
 3904 03d0 08       		.byte	0x8
 3905 03d1 FF       		.byte	0xff
 3906 03d2 1A       		.byte	0x1a
 3907 03d3 9F       		.byte	0x9f
 3908 03d4 74030000 		.4byte	.LVL89-.Ltext0
 3909 03d8 AE030000 		.4byte	.LVL93-.Ltext0
 3910 03dc 0800     		.2byte	0x8
 3911 03de 75       		.byte	0x75
 3912 03df 00       		.sleb128 0
 3913 03e0 38       		.byte	0x38
 3914 03e1 25       		.byte	0x25
 3915 03e2 08       		.byte	0x8
 3916 03e3 FF       		.byte	0xff
 3917 03e4 1A       		.byte	0x1a
 3918 03e5 9F       		.byte	0x9f
 3919 03e6 AE030000 		.4byte	.LVL93-.Ltext0
 3920 03ea 0C040000 		.4byte	.LFE43-.Ltext0
ARM GAS  G:\Users\Jaxb\AppData\Local\Temp\ccck4Nii.s 			page 102


 3921 03ee 0A00     		.2byte	0xa
 3922 03f0 F3       		.byte	0xf3
 3923 03f1 01       		.uleb128 0x1
 3924 03f2 50       		.byte	0x50
 3925 03f3 20       		.byte	0x20
 3926 03f4 38       		.byte	0x38
 3927 03f5 25       		.byte	0x25
 3928 03f6 08       		.byte	0x8
 3929 03f7 FF       		.byte	0xff
 3930 03f8 1A       		.byte	0x1a
 3931 03f9 9F       		.byte	0x9f
 3932 03fa 00000000 		.4byte	0
 3933 03fe 00000000 		.4byte	0
 3934              	.LLST38:
 3935 0402 60030000 		.4byte	.LVL83-.Ltext0
 3936 0406 64030000 		.4byte	.LVL84-.Ltext0
 3937 040a 0900     		.2byte	0x9
 3938 040c 70       		.byte	0x70
 3939 040d 00       		.sleb128 0
 3940 040e 20       		.byte	0x20
 3941 040f 40       		.byte	0x40
 3942 0410 25       		.byte	0x25
 3943 0411 08       		.byte	0x8
 3944 0412 FF       		.byte	0xff
 3945 0413 1A       		.byte	0x1a
 3946 0414 9F       		.byte	0x9f
 3947 0415 64030000 		.4byte	.LVL84-.Ltext0
 3948 0419 6E030000 		.4byte	.LVL87-.Ltext0
 3949 041d 0900     		.2byte	0x9
 3950 041f 75       		.byte	0x75
 3951 0420 00       		.sleb128 0
 3952 0421 20       		.byte	0x20
 3953 0422 40       		.byte	0x40
 3954 0423 25       		.byte	0x25
 3955 0424 08       		.byte	0x8
 3956 0425 FF       		.byte	0xff
 3957 0426 1A       		.byte	0x1a
 3958 0427 9F       		.byte	0x9f
 3959 0428 6E030000 		.4byte	.LVL87-.Ltext0
 3960 042c 72030000 		.4byte	.LVL88-.Ltext0
 3961 0430 0A00     		.2byte	0xa
 3962 0432 F3       		.byte	0xf3
 3963 0433 01       		.uleb128 0x1
 3964 0434 50       		.byte	0x50
 3965 0435 20       		.byte	0x20
 3966 0436 40       		.byte	0x40
 3967 0437 25       		.byte	0x25
 3968 0438 08       		.byte	0x8
 3969 0439 FF       		.byte	0xff
 3970 043a 1A       		.byte	0x1a
 3971 043b 9F       		.byte	0x9f
 3972 043c 72030000 		.4byte	.LVL88-.Ltext0
 3973 0440 74030000 		.4byte	.LVL89-.Ltext0
 3974 0444 0900     		.2byte	0x9
 3975 0446 75       		.byte	0x75
 3976 0447 00       		.sleb128 0
 3977 0448 20       		.byte	0x20
ARM GAS  G:\Users\Jaxb\AppData\Local\Temp\ccck4Nii.s 			page 103


 3978 0449 40       		.byte	0x40
 3979 044a 25       		.byte	0x25
 3980 044b 08       		.byte	0x8
 3981 044c FF       		.byte	0xff
 3982 044d 1A       		.byte	0x1a
 3983 044e 9F       		.byte	0x9f
 3984 044f 74030000 		.4byte	.LVL89-.Ltext0
 3985 0453 AE030000 		.4byte	.LVL93-.Ltext0
 3986 0457 0800     		.2byte	0x8
 3987 0459 75       		.byte	0x75
 3988 045a 00       		.sleb128 0
 3989 045b 40       		.byte	0x40
 3990 045c 25       		.byte	0x25
 3991 045d 08       		.byte	0x8
 3992 045e FF       		.byte	0xff
 3993 045f 1A       		.byte	0x1a
 3994 0460 9F       		.byte	0x9f
 3995 0461 AE030000 		.4byte	.LVL93-.Ltext0
 3996 0465 0C040000 		.4byte	.LFE43-.Ltext0
 3997 0469 0A00     		.2byte	0xa
 3998 046b F3       		.byte	0xf3
 3999 046c 01       		.uleb128 0x1
 4000 046d 50       		.byte	0x50
 4001 046e 20       		.byte	0x20
 4002 046f 40       		.byte	0x40
 4003 0470 25       		.byte	0x25
 4004 0471 08       		.byte	0x8
 4005 0472 FF       		.byte	0xff
 4006 0473 1A       		.byte	0x1a
 4007 0474 9F       		.byte	0x9f
 4008 0475 00000000 		.4byte	0
 4009 0479 00000000 		.4byte	0
 4010              	.LLST39:
 4011 047d 60030000 		.4byte	.LVL83-.Ltext0
 4012 0481 64030000 		.4byte	.LVL84-.Ltext0
 4013 0485 0600     		.2byte	0x6
 4014 0487 70       		.byte	0x70
 4015 0488 00       		.sleb128 0
 4016 0489 20       		.byte	0x20
 4017 048a 48       		.byte	0x48
 4018 048b 25       		.byte	0x25
 4019 048c 9F       		.byte	0x9f
 4020 048d 64030000 		.4byte	.LVL84-.Ltext0
 4021 0491 6E030000 		.4byte	.LVL87-.Ltext0
 4022 0495 0600     		.2byte	0x6
 4023 0497 75       		.byte	0x75
 4024 0498 00       		.sleb128 0
 4025 0499 20       		.byte	0x20
 4026 049a 48       		.byte	0x48
 4027 049b 25       		.byte	0x25
 4028 049c 9F       		.byte	0x9f
 4029 049d 6E030000 		.4byte	.LVL87-.Ltext0
 4030 04a1 72030000 		.4byte	.LVL88-.Ltext0
 4031 04a5 0700     		.2byte	0x7
 4032 04a7 F3       		.byte	0xf3
 4033 04a8 01       		.uleb128 0x1
 4034 04a9 50       		.byte	0x50
ARM GAS  G:\Users\Jaxb\AppData\Local\Temp\ccck4Nii.s 			page 104


 4035 04aa 20       		.byte	0x20
 4036 04ab 48       		.byte	0x48
 4037 04ac 25       		.byte	0x25
 4038 04ad 9F       		.byte	0x9f
 4039 04ae 72030000 		.4byte	.LVL88-.Ltext0
 4040 04b2 74030000 		.4byte	.LVL89-.Ltext0
 4041 04b6 0600     		.2byte	0x6
 4042 04b8 75       		.byte	0x75
 4043 04b9 00       		.sleb128 0
 4044 04ba 20       		.byte	0x20
 4045 04bb 48       		.byte	0x48
 4046 04bc 25       		.byte	0x25
 4047 04bd 9F       		.byte	0x9f
 4048 04be 74030000 		.4byte	.LVL89-.Ltext0
 4049 04c2 AE030000 		.4byte	.LVL93-.Ltext0
 4050 04c6 0500     		.2byte	0x5
 4051 04c8 75       		.byte	0x75
 4052 04c9 00       		.sleb128 0
 4053 04ca 48       		.byte	0x48
 4054 04cb 25       		.byte	0x25
 4055 04cc 9F       		.byte	0x9f
 4056 04cd AE030000 		.4byte	.LVL93-.Ltext0
 4057 04d1 0C040000 		.4byte	.LFE43-.Ltext0
 4058 04d5 0700     		.2byte	0x7
 4059 04d7 F3       		.byte	0xf3
 4060 04d8 01       		.uleb128 0x1
 4061 04d9 50       		.byte	0x50
 4062 04da 20       		.byte	0x20
 4063 04db 48       		.byte	0x48
 4064 04dc 25       		.byte	0x25
 4065 04dd 9F       		.byte	0x9f
 4066 04de 00000000 		.4byte	0
 4067 04e2 00000000 		.4byte	0
 4068              	.LLST40:
 4069 04e6 5C030000 		.4byte	.LVL82-.Ltext0
 4070 04ea 6C030000 		.4byte	.LVL86-.Ltext0
 4071 04ee 0200     		.2byte	0x2
 4072 04f0 34       		.byte	0x34
 4073 04f1 9F       		.byte	0x9f
 4074 04f2 6C030000 		.4byte	.LVL86-.Ltext0
 4075 04f6 6E030000 		.4byte	.LVL87-.Ltext0
 4076 04fa 0100     		.2byte	0x1
 4077 04fc 50       		.byte	0x50
 4078 04fd 72030000 		.4byte	.LVL88-.Ltext0
 4079 0501 8C030000 		.4byte	.LVL90-.Ltext0
 4080 0505 0100     		.2byte	0x1
 4081 0507 50       		.byte	0x50
 4082 0508 A8030000 		.4byte	.LVL91-.Ltext0
 4083 050c AC030000 		.4byte	.LVL92-.Ltext0
 4084 0510 0100     		.2byte	0x1
 4085 0512 50       		.byte	0x50
 4086 0513 C0030000 		.4byte	.LVL94-.Ltext0
 4087 0517 C8030000 		.4byte	.LVL95-.Ltext0
 4088 051b 0100     		.2byte	0x1
 4089 051d 50       		.byte	0x50
 4090 051e CE030000 		.4byte	.LVL96-.Ltext0
 4091 0522 D8030000 		.4byte	.LVL98-.Ltext0
ARM GAS  G:\Users\Jaxb\AppData\Local\Temp\ccck4Nii.s 			page 105


 4092 0526 0100     		.2byte	0x1
 4093 0528 50       		.byte	0x50
 4094 0529 F4030000 		.4byte	.LVL99-.Ltext0
 4095 052d 0C040000 		.4byte	.LFE43-.Ltext0
 4096 0531 0100     		.2byte	0x1
 4097 0533 50       		.byte	0x50
 4098 0534 00000000 		.4byte	0
 4099 0538 00000000 		.4byte	0
 4100              	.LLST30:
 4101 053c 0C030000 		.4byte	.LFB42-.Ltext0
 4102 0540 0E030000 		.4byte	.LCFI11-.Ltext0
 4103 0544 0200     		.2byte	0x2
 4104 0546 7D       		.byte	0x7d
 4105 0547 00       		.sleb128 0
 4106 0548 0E030000 		.4byte	.LCFI11-.Ltext0
 4107 054c 5C030000 		.4byte	.LFE42-.Ltext0
 4108 0550 0200     		.2byte	0x2
 4109 0552 7D       		.byte	0x7d
 4110 0553 10       		.sleb128 16
 4111 0554 00000000 		.4byte	0
 4112 0558 00000000 		.4byte	0
 4113              	.LLST31:
 4114 055c 0C030000 		.4byte	.LVL75-.Ltext0
 4115 0560 14030000 		.4byte	.LVL76-.Ltext0
 4116 0564 0100     		.2byte	0x1
 4117 0566 50       		.byte	0x50
 4118 0567 14030000 		.4byte	.LVL76-.Ltext0
 4119 056b 4E030000 		.4byte	.LVL81-.Ltext0
 4120 056f 0100     		.2byte	0x1
 4121 0571 56       		.byte	0x56
 4122 0572 4E030000 		.4byte	.LVL81-.Ltext0
 4123 0576 5C030000 		.4byte	.LFE42-.Ltext0
 4124 057a 0400     		.2byte	0x4
 4125 057c F3       		.byte	0xf3
 4126 057d 01       		.uleb128 0x1
 4127 057e 50       		.byte	0x50
 4128 057f 9F       		.byte	0x9f
 4129 0580 00000000 		.4byte	0
 4130 0584 00000000 		.4byte	0
 4131              	.LLST32:
 4132 0588 0C030000 		.4byte	.LVL75-.Ltext0
 4133 058c 19030000 		.4byte	.LVL77-1-.Ltext0
 4134 0590 0100     		.2byte	0x1
 4135 0592 51       		.byte	0x51
 4136 0593 19030000 		.4byte	.LVL77-1-.Ltext0
 4137 0597 5C030000 		.4byte	.LFE42-.Ltext0
 4138 059b 0400     		.2byte	0x4
 4139 059d F3       		.byte	0xf3
 4140 059e 01       		.uleb128 0x1
 4141 059f 51       		.byte	0x51
 4142 05a0 9F       		.byte	0x9f
 4143 05a1 00000000 		.4byte	0
 4144 05a5 00000000 		.4byte	0
 4145              	.LLST33:
 4146 05a9 0C030000 		.4byte	.LVL75-.Ltext0
 4147 05ad 1A030000 		.4byte	.LVL77-.Ltext0
 4148 05b1 0200     		.2byte	0x2
ARM GAS  G:\Users\Jaxb\AppData\Local\Temp\ccck4Nii.s 			page 106


 4149 05b3 34       		.byte	0x34
 4150 05b4 9F       		.byte	0x9f
 4151 05b5 1A030000 		.4byte	.LVL77-.Ltext0
 4152 05b9 38030000 		.4byte	.LVL79-.Ltext0
 4153 05bd 0100     		.2byte	0x1
 4154 05bf 50       		.byte	0x50
 4155 05c0 3E030000 		.4byte	.LVL80-.Ltext0
 4156 05c4 5C030000 		.4byte	.LFE42-.Ltext0
 4157 05c8 0100     		.2byte	0x1
 4158 05ca 50       		.byte	0x50
 4159 05cb 00000000 		.4byte	0
 4160 05cf 00000000 		.4byte	0
 4161              	.LLST26:
 4162 05d3 D4020000 		.4byte	.LFB41-.Ltext0
 4163 05d7 D6020000 		.4byte	.LCFI10-.Ltext0
 4164 05db 0200     		.2byte	0x2
 4165 05dd 7D       		.byte	0x7d
 4166 05de 00       		.sleb128 0
 4167 05df D6020000 		.4byte	.LCFI10-.Ltext0
 4168 05e3 0C030000 		.4byte	.LFE41-.Ltext0
 4169 05e7 0200     		.2byte	0x2
 4170 05e9 7D       		.byte	0x7d
 4171 05ea 10       		.sleb128 16
 4172 05eb 00000000 		.4byte	0
 4173 05ef 00000000 		.4byte	0
 4174              	.LLST27:
 4175 05f3 D4020000 		.4byte	.LVL68-.Ltext0
 4176 05f7 DC020000 		.4byte	.LVL69-.Ltext0
 4177 05fb 0100     		.2byte	0x1
 4178 05fd 50       		.byte	0x50
 4179 05fe DC020000 		.4byte	.LVL69-.Ltext0
 4180 0602 08030000 		.4byte	.LVL74-.Ltext0
 4181 0606 0100     		.2byte	0x1
 4182 0608 54       		.byte	0x54
 4183 0609 08030000 		.4byte	.LVL74-.Ltext0
 4184 060d 0C030000 		.4byte	.LFE41-.Ltext0
 4185 0611 0400     		.2byte	0x4
 4186 0613 F3       		.byte	0xf3
 4187 0614 01       		.uleb128 0x1
 4188 0615 50       		.byte	0x50
 4189 0616 9F       		.byte	0x9f
 4190 0617 00000000 		.4byte	0
 4191 061b 00000000 		.4byte	0
 4192              	.LLST28:
 4193 061f D4020000 		.4byte	.LVL68-.Ltext0
 4194 0623 E1020000 		.4byte	.LVL70-1-.Ltext0
 4195 0627 0100     		.2byte	0x1
 4196 0629 51       		.byte	0x51
 4197 062a E1020000 		.4byte	.LVL70-1-.Ltext0
 4198 062e 0C030000 		.4byte	.LFE41-.Ltext0
 4199 0632 0400     		.2byte	0x4
 4200 0634 F3       		.byte	0xf3
 4201 0635 01       		.uleb128 0x1
 4202 0636 51       		.byte	0x51
 4203 0637 9F       		.byte	0x9f
 4204 0638 00000000 		.4byte	0
 4205 063c 00000000 		.4byte	0
ARM GAS  G:\Users\Jaxb\AppData\Local\Temp\ccck4Nii.s 			page 107


 4206              	.LLST29:
 4207 0640 D4020000 		.4byte	.LVL68-.Ltext0
 4208 0644 E2020000 		.4byte	.LVL70-.Ltext0
 4209 0648 0200     		.2byte	0x2
 4210 064a 34       		.byte	0x34
 4211 064b 9F       		.byte	0x9f
 4212 064c E2020000 		.4byte	.LVL70-.Ltext0
 4213 0650 EE020000 		.4byte	.LVL72-.Ltext0
 4214 0654 0100     		.2byte	0x1
 4215 0656 50       		.byte	0x50
 4216 0657 FC020000 		.4byte	.LVL73-.Ltext0
 4217 065b 0C030000 		.4byte	.LFE41-.Ltext0
 4218 065f 0100     		.2byte	0x1
 4219 0661 50       		.byte	0x50
 4220 0662 00000000 		.4byte	0
 4221 0666 00000000 		.4byte	0
 4222              	.LLST22:
 4223 066a 6C020000 		.4byte	.LFB40-.Ltext0
 4224 066e 70020000 		.4byte	.LCFI4-.Ltext0
 4225 0672 0200     		.2byte	0x2
 4226 0674 7D       		.byte	0x7d
 4227 0675 00       		.sleb128 0
 4228 0676 70020000 		.4byte	.LCFI4-.Ltext0
 4229 067a 74020000 		.4byte	.LCFI5-.Ltext0
 4230 067e 0200     		.2byte	0x2
 4231 0680 7D       		.byte	0x7d
 4232 0681 10       		.sleb128 16
 4233 0682 74020000 		.4byte	.LCFI5-.Ltext0
 4234 0686 86020000 		.4byte	.LCFI6-.Ltext0
 4235 068a 0200     		.2byte	0x2
 4236 068c 7D       		.byte	0x7d
 4237 068d 18       		.sleb128 24
 4238 068e 86020000 		.4byte	.LCFI6-.Ltext0
 4239 0692 88020000 		.4byte	.LCFI7-.Ltext0
 4240 0696 0200     		.2byte	0x2
 4241 0698 7D       		.byte	0x7d
 4242 0699 10       		.sleb128 16
 4243 069a 88020000 		.4byte	.LCFI7-.Ltext0
 4244 069e AE020000 		.4byte	.LCFI8-.Ltext0
 4245 06a2 0200     		.2byte	0x2
 4246 06a4 7D       		.byte	0x7d
 4247 06a5 18       		.sleb128 24
 4248 06a6 AE020000 		.4byte	.LCFI8-.Ltext0
 4249 06aa B0020000 		.4byte	.LCFI9-.Ltext0
 4250 06ae 0200     		.2byte	0x2
 4251 06b0 7D       		.byte	0x7d
 4252 06b1 10       		.sleb128 16
 4253 06b2 B0020000 		.4byte	.LCFI9-.Ltext0
 4254 06b6 D4020000 		.4byte	.LFE40-.Ltext0
 4255 06ba 0200     		.2byte	0x2
 4256 06bc 7D       		.byte	0x7d
 4257 06bd 18       		.sleb128 24
 4258 06be 00000000 		.4byte	0
 4259 06c2 00000000 		.4byte	0
 4260              	.LLST23:
 4261 06c6 6C020000 		.4byte	.LVL56-.Ltext0
 4262 06ca 78020000 		.4byte	.LVL57-.Ltext0
ARM GAS  G:\Users\Jaxb\AppData\Local\Temp\ccck4Nii.s 			page 108


 4263 06ce 0100     		.2byte	0x1
 4264 06d0 50       		.byte	0x50
 4265 06d1 78020000 		.4byte	.LVL57-.Ltext0
 4266 06d5 84020000 		.4byte	.LVL59-.Ltext0
 4267 06d9 0100     		.2byte	0x1
 4268 06db 55       		.byte	0x55
 4269 06dc 84020000 		.4byte	.LVL59-.Ltext0
 4270 06e0 88020000 		.4byte	.LVL60-.Ltext0
 4271 06e4 0400     		.2byte	0x4
 4272 06e6 F3       		.byte	0xf3
 4273 06e7 01       		.uleb128 0x1
 4274 06e8 50       		.byte	0x50
 4275 06e9 9F       		.byte	0x9f
 4276 06ea 88020000 		.4byte	.LVL60-.Ltext0
 4277 06ee B2020000 		.4byte	.LVL64-.Ltext0
 4278 06f2 0100     		.2byte	0x1
 4279 06f4 55       		.byte	0x55
 4280 06f5 B2020000 		.4byte	.LVL64-.Ltext0
 4281 06f9 D4020000 		.4byte	.LFE40-.Ltext0
 4282 06fd 0300     		.2byte	0x3
 4283 06ff 75       		.byte	0x75
 4284 0700 7E       		.sleb128 -2
 4285 0701 9F       		.byte	0x9f
 4286 0702 00000000 		.4byte	0
 4287 0706 00000000 		.4byte	0
 4288              	.LLST24:
 4289 070a 6C020000 		.4byte	.LVL56-.Ltext0
 4290 070e 7F020000 		.4byte	.LVL58-1-.Ltext0
 4291 0712 0100     		.2byte	0x1
 4292 0714 51       		.byte	0x51
 4293 0715 7F020000 		.4byte	.LVL58-1-.Ltext0
 4294 0719 84020000 		.4byte	.LVL59-.Ltext0
 4295 071d 0100     		.2byte	0x1
 4296 071f 54       		.byte	0x54
 4297 0720 84020000 		.4byte	.LVL59-.Ltext0
 4298 0724 88020000 		.4byte	.LVL60-.Ltext0
 4299 0728 0400     		.2byte	0x4
 4300 072a F3       		.byte	0xf3
 4301 072b 01       		.uleb128 0x1
 4302 072c 51       		.byte	0x51
 4303 072d 9F       		.byte	0x9f
 4304 072e 88020000 		.4byte	.LVL60-.Ltext0
 4305 0732 B8020000 		.4byte	.LVL65-.Ltext0
 4306 0736 0100     		.2byte	0x1
 4307 0738 54       		.byte	0x54
 4308 0739 B8020000 		.4byte	.LVL65-.Ltext0
 4309 073d D4020000 		.4byte	.LFE40-.Ltext0
 4310 0741 0400     		.2byte	0x4
 4311 0743 F3       		.byte	0xf3
 4312 0744 01       		.uleb128 0x1
 4313 0745 51       		.byte	0x51
 4314 0746 9F       		.byte	0x9f
 4315 0747 00000000 		.4byte	0
 4316 074b 00000000 		.4byte	0
 4317              	.LLST25:
 4318 074f 6C020000 		.4byte	.LVL56-.Ltext0
 4319 0753 80020000 		.4byte	.LVL58-.Ltext0
ARM GAS  G:\Users\Jaxb\AppData\Local\Temp\ccck4Nii.s 			page 109


 4320 0757 0200     		.2byte	0x2
 4321 0759 34       		.byte	0x34
 4322 075a 9F       		.byte	0x9f
 4323 075b 80020000 		.4byte	.LVL58-.Ltext0
 4324 075f 92020000 		.4byte	.LVL61-.Ltext0
 4325 0763 0100     		.2byte	0x1
 4326 0765 50       		.byte	0x50
 4327 0766 9E020000 		.4byte	.LVL62-.Ltext0
 4328 076a BE020000 		.4byte	.LVL66-.Ltext0
 4329 076e 0100     		.2byte	0x1
 4330 0770 50       		.byte	0x50
 4331 0771 C2020000 		.4byte	.LVL67-.Ltext0
 4332 0775 D4020000 		.4byte	.LFE40-.Ltext0
 4333 0779 0100     		.2byte	0x1
 4334 077b 50       		.byte	0x50
 4335 077c 00000000 		.4byte	0
 4336 0780 00000000 		.4byte	0
 4337              	.LLST19:
 4338 0784 E4010000 		.4byte	.LFB39-.Ltext0
 4339 0788 E6010000 		.4byte	.LCFI3-.Ltext0
 4340 078c 0200     		.2byte	0x2
 4341 078e 7D       		.byte	0x7d
 4342 078f 00       		.sleb128 0
 4343 0790 E6010000 		.4byte	.LCFI3-.Ltext0
 4344 0794 6C020000 		.4byte	.LFE39-.Ltext0
 4345 0798 0200     		.2byte	0x2
 4346 079a 7D       		.byte	0x7d
 4347 079b 10       		.sleb128 16
 4348 079c 00000000 		.4byte	0
 4349 07a0 00000000 		.4byte	0
 4350              	.LLST20:
 4351 07a4 E4010000 		.4byte	.LVL46-.Ltext0
 4352 07a8 F8010000 		.4byte	.LVL47-.Ltext0
 4353 07ac 0300     		.2byte	0x3
 4354 07ae 08       		.byte	0x8
 4355 07af A5       		.byte	0xa5
 4356 07b0 9F       		.byte	0x9f
 4357 07b1 F8010000 		.4byte	.LVL47-.Ltext0
 4358 07b5 5A020000 		.4byte	.LVL55-.Ltext0
 4359 07b9 0100     		.2byte	0x1
 4360 07bb 55       		.byte	0x55
 4361 07bc 00000000 		.4byte	0
 4362 07c0 00000000 		.4byte	0
 4363              	.LLST21:
 4364 07c4 E4010000 		.4byte	.LVL46-.Ltext0
 4365 07c8 FC010000 		.4byte	.LVL48-.Ltext0
 4366 07cc 0200     		.2byte	0x2
 4367 07ce 34       		.byte	0x34
 4368 07cf 9F       		.byte	0x9f
 4369 07d0 FC010000 		.4byte	.LVL48-.Ltext0
 4370 07d4 10020000 		.4byte	.LVL50-.Ltext0
 4371 07d8 0100     		.2byte	0x1
 4372 07da 50       		.byte	0x50
 4373 07db 22020000 		.4byte	.LVL51-.Ltext0
 4374 07df 48020000 		.4byte	.LVL53-.Ltext0
 4375 07e3 0100     		.2byte	0x1
 4376 07e5 50       		.byte	0x50
ARM GAS  G:\Users\Jaxb\AppData\Local\Temp\ccck4Nii.s 			page 110


 4377 07e6 54020000 		.4byte	.LVL54-.Ltext0
 4378 07ea 6C020000 		.4byte	.LFE39-.Ltext0
 4379 07ee 0100     		.2byte	0x1
 4380 07f0 50       		.byte	0x50
 4381 07f1 00000000 		.4byte	0
 4382 07f5 00000000 		.4byte	0
 4383              	.LLST17:
 4384 07f9 A4010000 		.4byte	.LFB37-.Ltext0
 4385 07fd A6010000 		.4byte	.LCFI2-.Ltext0
 4386 0801 0200     		.2byte	0x2
 4387 0803 7D       		.byte	0x7d
 4388 0804 00       		.sleb128 0
 4389 0805 A6010000 		.4byte	.LCFI2-.Ltext0
 4390 0809 E0010000 		.4byte	.LFE37-.Ltext0
 4391 080d 0200     		.2byte	0x2
 4392 080f 7D       		.byte	0x7d
 4393 0810 08       		.sleb128 8
 4394 0811 00000000 		.4byte	0
 4395 0815 00000000 		.4byte	0
 4396              	.LLST18:
 4397 0819 A4010000 		.4byte	.LVL42-.Ltext0
 4398 081d AE010000 		.4byte	.LVL43-.Ltext0
 4399 0821 0200     		.2byte	0x2
 4400 0823 34       		.byte	0x34
 4401 0824 9F       		.byte	0x9f
 4402 0825 AE010000 		.4byte	.LVL43-.Ltext0
 4403 0829 BA010000 		.4byte	.LVL44-.Ltext0
 4404 082d 0100     		.2byte	0x1
 4405 082f 50       		.byte	0x50
 4406 0830 CE010000 		.4byte	.LVL45-.Ltext0
 4407 0834 E0010000 		.4byte	.LFE37-.Ltext0
 4408 0838 0100     		.2byte	0x1
 4409 083a 50       		.byte	0x50
 4410 083b 00000000 		.4byte	0
 4411 083f 00000000 		.4byte	0
 4412              	.LLST14:
 4413 0843 64010000 		.4byte	.LFB36-.Ltext0
 4414 0847 66010000 		.4byte	.LCFI1-.Ltext0
 4415 084b 0200     		.2byte	0x2
 4416 084d 7D       		.byte	0x7d
 4417 084e 00       		.sleb128 0
 4418 084f 66010000 		.4byte	.LCFI1-.Ltext0
 4419 0853 A4010000 		.4byte	.LFE36-.Ltext0
 4420 0857 0200     		.2byte	0x2
 4421 0859 7D       		.byte	0x7d
 4422 085a 10       		.sleb128 16
 4423 085b 00000000 		.4byte	0
 4424 085f 00000000 		.4byte	0
 4425              	.LLST15:
 4426 0863 64010000 		.4byte	.LVL35-.Ltext0
 4427 0867 6C010000 		.4byte	.LVL36-.Ltext0
 4428 086b 0100     		.2byte	0x1
 4429 086d 50       		.byte	0x50
 4430 086e 6C010000 		.4byte	.LVL36-.Ltext0
 4431 0872 9E010000 		.4byte	.LVL41-.Ltext0
 4432 0876 0100     		.2byte	0x1
 4433 0878 55       		.byte	0x55
ARM GAS  G:\Users\Jaxb\AppData\Local\Temp\ccck4Nii.s 			page 111


 4434 0879 9E010000 		.4byte	.LVL41-.Ltext0
 4435 087d A4010000 		.4byte	.LFE36-.Ltext0
 4436 0881 0400     		.2byte	0x4
 4437 0883 F3       		.byte	0xf3
 4438 0884 01       		.uleb128 0x1
 4439 0885 50       		.byte	0x50
 4440 0886 9F       		.byte	0x9f
 4441 0887 00000000 		.4byte	0
 4442 088b 00000000 		.4byte	0
 4443              	.LLST16:
 4444 088f 64010000 		.4byte	.LVL35-.Ltext0
 4445 0893 70010000 		.4byte	.LVL37-.Ltext0
 4446 0897 0200     		.2byte	0x2
 4447 0899 34       		.byte	0x34
 4448 089a 9F       		.byte	0x9f
 4449 089b 70010000 		.4byte	.LVL37-.Ltext0
 4450 089f 7C010000 		.4byte	.LVL39-.Ltext0
 4451 08a3 0100     		.2byte	0x1
 4452 08a5 50       		.byte	0x50
 4453 08a6 92010000 		.4byte	.LVL40-.Ltext0
 4454 08aa A4010000 		.4byte	.LFE36-.Ltext0
 4455 08ae 0100     		.2byte	0x1
 4456 08b0 50       		.byte	0x50
 4457 08b1 00000000 		.4byte	0
 4458 08b5 00000000 		.4byte	0
 4459              	.LLST3:
 4460 08b9 2C000000 		.4byte	.LVL6-.Ltext0
 4461 08bd 3A000000 		.4byte	.LVL7-.Ltext0
 4462 08c1 0100     		.2byte	0x1
 4463 08c3 50       		.byte	0x50
 4464 08c4 3A000000 		.4byte	.LVL7-.Ltext0
 4465 08c8 44000000 		.4byte	.LFE31-.Ltext0
 4466 08cc 0400     		.2byte	0x4
 4467 08ce F3       		.byte	0xf3
 4468 08cf 01       		.uleb128 0x1
 4469 08d0 50       		.byte	0x50
 4470 08d1 9F       		.byte	0x9f
 4471 08d2 00000000 		.4byte	0
 4472 08d6 00000000 		.4byte	0
 4473              	.LLST2:
 4474 08da 14000000 		.4byte	.LVL4-.Ltext0
 4475 08de 22000000 		.4byte	.LVL5-.Ltext0
 4476 08e2 0100     		.2byte	0x1
 4477 08e4 50       		.byte	0x50
 4478 08e5 22000000 		.4byte	.LVL5-.Ltext0
 4479 08e9 2C000000 		.4byte	.LFE30-.Ltext0
 4480 08ed 0400     		.2byte	0x4
 4481 08ef F3       		.byte	0xf3
 4482 08f0 01       		.uleb128 0x1
 4483 08f1 50       		.byte	0x50
 4484 08f2 9F       		.byte	0x9f
 4485 08f3 00000000 		.4byte	0
 4486 08f7 00000000 		.4byte	0
 4487              	.LLST0:
 4488 08fb 00000000 		.4byte	.LVL0-.Ltext0
 4489 08ff 0A000000 		.4byte	.LVL3-.Ltext0
 4490 0903 0100     		.2byte	0x1
ARM GAS  G:\Users\Jaxb\AppData\Local\Temp\ccck4Nii.s 			page 112


 4491 0905 50       		.byte	0x50
 4492 0906 0A000000 		.4byte	.LVL3-.Ltext0
 4493 090a 14000000 		.4byte	.LFE29-.Ltext0
 4494 090e 0400     		.2byte	0x4
 4495 0910 F3       		.byte	0xf3
 4496 0911 01       		.uleb128 0x1
 4497 0912 50       		.byte	0x50
 4498 0913 9F       		.byte	0x9f
 4499 0914 00000000 		.4byte	0
 4500 0918 00000000 		.4byte	0
 4501              	.LLST1:
 4502 091c 00000000 		.4byte	.LVL0-.Ltext0
 4503 0920 04000000 		.4byte	.LVL1-.Ltext0
 4504 0924 0200     		.2byte	0x2
 4505 0926 30       		.byte	0x30
 4506 0927 9F       		.byte	0x9f
 4507 0928 04000000 		.4byte	.LVL1-.Ltext0
 4508 092c 0A000000 		.4byte	.LVL3-.Ltext0
 4509 0930 0100     		.2byte	0x1
 4510 0932 53       		.byte	0x53
 4511 0933 0A000000 		.4byte	.LVL3-.Ltext0
 4512 0937 14000000 		.4byte	.LFE29-.Ltext0
 4513 093b 0100     		.2byte	0x1
 4514 093d 50       		.byte	0x50
 4515 093e 00000000 		.4byte	0
 4516 0942 00000000 		.4byte	0
 4517              	.LLST4:
 4518 0946 8C000000 		.4byte	.LVL8-.Ltext0
 4519 094a 90000000 		.4byte	.LVL9-.Ltext0
 4520 094e 0200     		.2byte	0x2
 4521 0950 30       		.byte	0x30
 4522 0951 9F       		.byte	0x9f
 4523 0952 90000000 		.4byte	.LVL9-.Ltext0
 4524 0956 94000000 		.4byte	.LVL10-.Ltext0
 4525 095a 0700     		.2byte	0x7
 4526 095c 70       		.byte	0x70
 4527 095d 00       		.sleb128 0
 4528 095e 32       		.byte	0x32
 4529 095f 1A       		.byte	0x1a
 4530 0960 30       		.byte	0x30
 4531 0961 2E       		.byte	0x2e
 4532 0962 9F       		.byte	0x9f
 4533 0963 00000000 		.4byte	0
 4534 0967 00000000 		.4byte	0
 4535              	.LLST10:
 4536 096b 18010000 		.4byte	.LVL26-.Ltext0
 4537 096f 3A010000 		.4byte	.LVL27-.Ltext0
 4538 0973 0200     		.2byte	0x2
 4539 0975 34       		.byte	0x34
 4540 0976 9F       		.byte	0x9f
 4541 0977 3A010000 		.4byte	.LVL27-.Ltext0
 4542 097b 40010000 		.4byte	.LFE54-.Ltext0
 4543 097f 0100     		.2byte	0x1
 4544 0981 50       		.byte	0x50
 4545 0982 00000000 		.4byte	0
 4546 0986 00000000 		.4byte	0
 4547              		.section	.debug_aranges,"",%progbits
ARM GAS  G:\Users\Jaxb\AppData\Local\Temp\ccck4Nii.s 			page 113


 4548 0000 1C000000 		.4byte	0x1c
 4549 0004 0200     		.2byte	0x2
 4550 0006 00000000 		.4byte	.Ldebug_info0
 4551 000a 04       		.byte	0x4
 4552 000b 00       		.byte	0
 4553 000c 0000     		.2byte	0
 4554 000e 0000     		.2byte	0
 4555 0010 00000000 		.4byte	.Ltext0
 4556 0014 00050000 		.4byte	.Letext0-.Ltext0
 4557 0018 00000000 		.4byte	0
 4558 001c 00000000 		.4byte	0
 4559              		.section	.debug_ranges,"",%progbits
 4560              	.Ldebug_ranges0:
 4561 0000 E6010000 		.4byte	.LBB8-.Ltext0
 4562 0004 E8010000 		.4byte	.LBE8-.Ltext0
 4563 0008 EC010000 		.4byte	.LBB11-.Ltext0
 4564 000c EE010000 		.4byte	.LBE11-.Ltext0
 4565 0010 00000000 		.4byte	0
 4566 0014 00000000 		.4byte	0
 4567              		.section	.debug_line,"",%progbits
 4568              	.Ldebug_line0:
 4569 0000 34030000 		.section	.debug_str,"MS",%progbits,1
 4569      02003201 
 4569      00000201 
 4569      FB0E0D00 
 4569      01010101 
 4570              	.LASF50:
 4571 0000 464C4153 		.ascii	"FLASH_ITConfig\000"
 4571      485F4954 
 4571      436F6E66 
 4571      696700
 4572              	.LASF53:
 4573 000f 464C4153 		.ascii	"FLASH_GetPrefetchBufferStatus\000"
 4573      485F4765 
 4573      74507265 
 4573      66657463 
 4573      68427566 
 4574              	.LASF54:
 4575 002d 464C4153 		.ascii	"FLASH_GetBank1Status\000"
 4575      485F4765 
 4575      7442616E 
 4575      6B315374 
 4575      61747573 
 4576              	.LASF60:
 4577 0042 4F425F49 		.ascii	"OB_IWDG\000"
 4577      57444700 
 4578              	.LASF68:
 4579 004a 57525032 		.ascii	"WRP2_Data\000"
 4579      5F446174 
 4579      6100
 4580              	.LASF61:
 4581 0054 4F425F53 		.ascii	"OB_STOP\000"
 4581      544F5000 
 4582              	.LASF75:
 4583 005c 464C4153 		.ascii	"FLASH_EraseOptionBytes\000"
 4583      485F4572 
 4583      6173654F 
ARM GAS  G:\Users\Jaxb\AppData\Local\Temp\ccck4Nii.s 			page 114


 4583      7074696F 
 4583      6E427974 
 4584              	.LASF37:
 4585 0073 464C4153 		.ascii	"FLASH_ERROR_WRP\000"
 4585      485F4552 
 4585      524F525F 
 4585      57525000 
 4586              	.LASF80:
 4587 0083 464C4153 		.ascii	"FLASH_ErasePage\000"
 4587      485F4572 
 4587      61736550 
 4587      61676500 
 4588              	.LASF91:
 4589 0093 464C4153 		.ascii	"FLASH_Latency\000"
 4589      485F4C61 
 4589      74656E63 
 4589      7900
 4590              	.LASF7:
 4591 00a1 5F5F7569 		.ascii	"__uint32_t\000"
 4591      6E743332 
 4591      5F7400
 4592              	.LASF71:
 4593 00ac 41646472 		.ascii	"Address\000"
 4593      65737300 
 4594              	.LASF4:
 4595 00b4 5F5F7569 		.ascii	"__uint16_t\000"
 4595      6E743136 
 4595      5F7400
 4596              	.LASF2:
 4597 00bf 73686F72 		.ascii	"short int\000"
 4597      7420696E 
 4597      7400
 4598              	.LASF25:
 4599 00c9 57525052 		.ascii	"WRPR\000"
 4599      00
 4600              	.LASF22:
 4601 00ce 4B455952 		.ascii	"KEYR\000"
 4601      00
 4602              	.LASF85:
 4603 00d3 464C4153 		.ascii	"FLASH_Unlock\000"
 4603      485F556E 
 4603      6C6F636B 
 4603      00
 4604              	.LASF89:
 4605 00e0 464C4153 		.ascii	"FLASH_HalfCycleAccess\000"
 4605      485F4861 
 4605      6C664379 
 4605      636C6541 
 4605      63636573 
 4606              	.LASF79:
 4607 00f6 464C4153 		.ascii	"FLASH_EraseAllPages\000"
 4607      485F4572 
 4607      61736541 
 4607      6C6C5061 
 4607      67657300 
 4608              	.LASF12:
 4609 010a 75696E74 		.ascii	"uint8_t\000"
ARM GAS  G:\Users\Jaxb\AppData\Local\Temp\ccck4Nii.s 			page 115


 4609      385F7400 
 4610              	.LASF40:
 4611 0112 464C4153 		.ascii	"FLASH_Status\000"
 4611      485F5374 
 4611      61747573 
 4611      00
 4612              	.LASF76:
 4613 011f 72647074 		.ascii	"rdptmp\000"
 4613      6D7000
 4614              	.LASF78:
 4615 0126 464C4153 		.ascii	"FLASH_EraseAllBank1Pages\000"
 4615      485F4572 
 4615      61736541 
 4615      6C6C4261 
 4615      6E6B3150 
 4616              	.LASF52:
 4617 013f 4E657753 		.ascii	"NewState\000"
 4617      74617465 
 4617      00
 4618              	.LASF82:
 4619 0148 464C4153 		.ascii	"FLASH_LockBank1\000"
 4619      485F4C6F 
 4619      636B4261 
 4619      6E6B3100 
 4620              	.LASF31:
 4621 0158 57525031 		.ascii	"WRP1\000"
 4621      00
 4622              	.LASF32:
 4623 015d 57525032 		.ascii	"WRP2\000"
 4623      00
 4624              	.LASF33:
 4625 0162 57525033 		.ascii	"WRP3\000"
 4625      00
 4626              	.LASF19:
 4627 0167 44495341 		.ascii	"DISABLE\000"
 4627      424C4500 
 4628              	.LASF83:
 4629 016f 464C4153 		.ascii	"FLASH_UnlockBank1\000"
 4629      485F556E 
 4629      6C6F636B 
 4629      42616E6B 
 4629      3100
 4630              	.LASF57:
 4631 0181 464C4153 		.ascii	"FLASH_GetWriteProtectionOptionByte\000"
 4631      485F4765 
 4631      74577269 
 4631      74655072 
 4631      6F746563 
 4632              	.LASF23:
 4633 01a4 4F50544B 		.ascii	"OPTKEYR\000"
 4633      45595200 
 4634              	.LASF95:
 4635 01ac 463A5C6B 		.ascii	"F:\\kaka\\KAKAOS\\C\\windows\\Project\\RVMDK\243\250"
 4635      616B615C 
 4635      4B414B41 
 4635      4F535C43 
 4635      5C77696E 
ARM GAS  G:\Users\Jaxb\AppData\Local\Temp\ccck4Nii.s 			page 116


 4636 01d4 757635A3 		.ascii	"uv5\243\251\000"
 4636      A900
 4637              	.LASF9:
 4638 01da 6C6F6E67 		.ascii	"long long int\000"
 4638      206C6F6E 
 4638      6720696E 
 4638      7400
 4639              	.LASF59:
 4640 01e8 464C4153 		.ascii	"FLASH_UserOptionByteConfig\000"
 4640      485F5573 
 4640      65724F70 
 4640      74696F6E 
 4640      42797465 
 4641              	.LASF63:
 4642 0203 464C4153 		.ascii	"FLASH_ReadOutProtection\000"
 4642      485F5265 
 4642      61644F75 
 4642      7450726F 
 4642      74656374 
 4643              	.LASF6:
 4644 021b 6C6F6E67 		.ascii	"long int\000"
 4644      20696E74 
 4644      00
 4645              	.LASF8:
 4646 0224 6C6F6E67 		.ascii	"long unsigned int\000"
 4646      20756E73 
 4646      69676E65 
 4646      6420696E 
 4646      7400
 4647              	.LASF3:
 4648 0236 5F5F7569 		.ascii	"__uint8_t\000"
 4648      6E74385F 
 4648      7400
 4649              	.LASF42:
 4650 0240 666C6173 		.ascii	"flashstatus\000"
 4650      68737461 
 4650      74757300 
 4651              	.LASF72:
 4652 024c 44617461 		.ascii	"Data\000"
 4652      00
 4653              	.LASF92:
 4654 0251 746D7072 		.ascii	"tmpreg\000"
 4654      656700
 4655              	.LASF48:
 4656 0258 62697473 		.ascii	"bitstatus\000"
 4656      74617475 
 4656      7300
 4657              	.LASF1:
 4658 0262 756E7369 		.ascii	"unsigned char\000"
 4658      676E6564 
 4658      20636861 
 4658      7200
 4659              	.LASF81:
 4660 0270 50616765 		.ascii	"Page_Address\000"
 4660      5F416464 
 4660      72657373 
 4660      00
ARM GAS  G:\Users\Jaxb\AppData\Local\Temp\ccck4Nii.s 			page 117


 4661              	.LASF36:
 4662 027d 464C4153 		.ascii	"FLASH_ERROR_PG\000"
 4662      485F4552 
 4662      524F525F 
 4662      504700
 4663              	.LASF84:
 4664 028c 464C4153 		.ascii	"FLASH_Lock\000"
 4664      485F4C6F 
 4664      636B00
 4665              	.LASF69:
 4666 0297 57525033 		.ascii	"WRP3_Data\000"
 4666      5F446174 
 4666      6100
 4667              	.LASF93:
 4668 02a1 474E5520 		.ascii	"GNU C11 7.3.1 20180622 (release) [ARM/embedded-7-br"
 4668      43313120 
 4668      372E332E 
 4668      31203230 
 4668      31383036 
 4669 02d4 616E6368 		.ascii	"anch revision 261907] -mcpu=cortex-m3 -mthumb -mapc"
 4669      20726576 
 4669      6973696F 
 4669      6E203236 
 4669      31393037 
 4670 0307 732D6672 		.ascii	"s-frame -mthumb-interwork -mcpu=cortex-m3 -mthumb -"
 4670      616D6520 
 4670      2D6D7468 
 4670      756D622D 
 4670      696E7465 
 4671 033a 67647761 		.ascii	"gdwarf-2 -O2\000"
 4671      72662D32 
 4671      202D4F32 
 4671      00
 4672              	.LASF86:
 4673 0347 464C4153 		.ascii	"FLASH_PrefetchBufferCmd\000"
 4673      485F5072 
 4673      65666574 
 4673      63684275 
 4673      66666572 
 4674              	.LASF0:
 4675 035f 7369676E 		.ascii	"signed char\000"
 4675      65642063 
 4675      68617200 
 4676              	.LASF47:
 4677 036b 464C4153 		.ascii	"FLASH_GetFlagStatus\000"
 4677      485F4765 
 4677      74466C61 
 4677      67537461 
 4677      74757300 
 4678              	.LASF10:
 4679 037f 6C6F6E67 		.ascii	"long long unsigned int\000"
 4679      206C6F6E 
 4679      6720756E 
 4679      7369676E 
 4679      65642069 
 4680              	.LASF14:
 4681 0396 75696E74 		.ascii	"uint32_t\000"
ARM GAS  G:\Users\Jaxb\AppData\Local\Temp\ccck4Nii.s 			page 118


 4681      33325F74 
 4681      00
 4682              	.LASF49:
 4683 039f 464C4153 		.ascii	"FLASH_ClearFlag\000"
 4683      485F436C 
 4683      65617246 
 4683      6C616700 
 4684              	.LASF11:
 4685 03af 756E7369 		.ascii	"unsigned int\000"
 4685      676E6564 
 4685      20696E74 
 4685      00
 4686              	.LASF38:
 4687 03bc 464C4153 		.ascii	"FLASH_COMPLETE\000"
 4687      485F434F 
 4687      4D504C45 
 4687      544500
 4688              	.LASF35:
 4689 03cb 464C4153 		.ascii	"FLASH_BUSY\000"
 4689      485F4255 
 4689      535900
 4690              	.LASF67:
 4691 03d6 57525031 		.ascii	"WRP1_Data\000"
 4691      5F446174 
 4691      6100
 4692              	.LASF88:
 4693 03e0 464C4153 		.ascii	"FLASH_HalfCycleAccessCmd\000"
 4693      485F4861 
 4693      6C664379 
 4693      636C6541 
 4693      63636573 
 4694              	.LASF39:
 4695 03f9 464C4153 		.ascii	"FLASH_TIMEOUT\000"
 4695      485F5449 
 4695      4D454F55 
 4695      5400
 4696              	.LASF41:
 4697 0407 73746174 		.ascii	"status\000"
 4697      757300
 4698              	.LASF5:
 4699 040e 73686F72 		.ascii	"short unsigned int\000"
 4699      7420756E 
 4699      7369676E 
 4699      65642069 
 4699      6E7400
 4700              	.LASF45:
 4701 0421 54696D65 		.ascii	"Timeout\000"
 4701      6F757400 
 4702              	.LASF77:
 4703 0429 464C4153 		.ascii	"FLASH_WaitForLastBank1Operation\000"
 4703      485F5761 
 4703      6974466F 
 4703      724C6173 
 4703      7442616E 
 4704              	.LASF55:
 4705 0449 464C4153 		.ascii	"FLASH_GetReadOutProtectionStatus\000"
 4705      485F4765 
ARM GAS  G:\Users\Jaxb\AppData\Local\Temp\ccck4Nii.s 			page 119


 4705      74526561 
 4705      644F7574 
 4705      50726F74 
 4706              	.LASF62:
 4707 046a 4F425F53 		.ascii	"OB_STDBY\000"
 4707      54444259 
 4707      00
 4708              	.LASF13:
 4709 0473 75696E74 		.ascii	"uint16_t\000"
 4709      31365F74 
 4709      00
 4710              	.LASF66:
 4711 047c 57525030 		.ascii	"WRP0_Data\000"
 4711      5F446174 
 4711      6100
 4712              	.LASF44:
 4713 0486 464C4153 		.ascii	"FLASH_GetStatus\000"
 4713      485F4765 
 4713      74537461 
 4713      74757300 
 4714              	.LASF34:
 4715 0496 4F425F54 		.ascii	"OB_TypeDef\000"
 4715      79706544 
 4715      656600
 4716              	.LASF90:
 4717 04a1 464C4153 		.ascii	"FLASH_SetLatency\000"
 4717      485F5365 
 4717      744C6174 
 4717      656E6379 
 4717      00
 4718              	.LASF16:
 4719 04b2 53797374 		.ascii	"SystemCoreClock\000"
 4719      656D436F 
 4719      7265436C 
 4719      6F636B00 
 4720              	.LASF70:
 4721 04c2 464C4153 		.ascii	"FLASH_ProgramOptionByteData\000"
 4721      485F5072 
 4721      6F677261 
 4721      6D4F7074 
 4721      696F6E42 
 4722              	.LASF58:
 4723 04de 464C4153 		.ascii	"FLASH_GetUserOptionByte\000"
 4723      485F4765 
 4723      74557365 
 4723      724F7074 
 4723      696F6E42 
 4724              	.LASF56:
 4725 04f6 72656164 		.ascii	"readoutstatus\000"
 4725      6F757473 
 4725      74617475 
 4725      7300
 4726              	.LASF73:
 4727 0504 464C4153 		.ascii	"FLASH_ProgramHalfWord\000"
 4727      485F5072 
 4727      6F677261 
 4727      6D48616C 
ARM GAS  G:\Users\Jaxb\AppData\Local\Temp\ccck4Nii.s 			page 120


 4727      66576F72 
 4728              	.LASF46:
 4729 051a 464C4153 		.ascii	"FLASH_FLAG\000"
 4729      485F464C 
 4729      414700
 4730              	.LASF21:
 4731 0525 46756E63 		.ascii	"FunctionalState\000"
 4731      74696F6E 
 4731      616C5374 
 4731      61746500 
 4732              	.LASF15:
 4733 0535 49544D5F 		.ascii	"ITM_RxBuffer\000"
 4733      52784275 
 4733      66666572 
 4733      00
 4734              	.LASF94:
 4735 0542 2E2E2F2E 		.ascii	"../../source/src/FWlib/src/stm32f10x_flash.c\000"
 4735      2E2F736F 
 4735      75726365 
 4735      2F737263 
 4735      2F46576C 
 4736              	.LASF64:
 4737 056f 464C4153 		.ascii	"FLASH_EnableWriteProtection\000"
 4737      485F456E 
 4737      61626C65 
 4737      57726974 
 4737      6550726F 
 4738              	.LASF17:
 4739 058b 52455345 		.ascii	"RESET\000"
 4739      5400
 4740              	.LASF27:
 4741 0591 55534552 		.ascii	"USER\000"
 4741      00
 4742              	.LASF28:
 4743 0596 44617461 		.ascii	"Data0\000"
 4743      3000
 4744              	.LASF29:
 4745 059c 44617461 		.ascii	"Data1\000"
 4745      3100
 4746              	.LASF65:
 4747 05a2 464C4153 		.ascii	"FLASH_Pages\000"
 4747      485F5061 
 4747      67657300 
 4748              	.LASF51:
 4749 05ae 464C4153 		.ascii	"FLASH_IT\000"
 4749      485F4954 
 4749      00
 4750              	.LASF74:
 4751 05b7 464C4153 		.ascii	"FLASH_ProgramWord\000"
 4751      485F5072 
 4751      6F677261 
 4751      6D576F72 
 4751      6400
 4752              	.LASF24:
 4753 05c9 52455345 		.ascii	"RESERVED\000"
 4753      52564544 
 4753      00
ARM GAS  G:\Users\Jaxb\AppData\Local\Temp\ccck4Nii.s 			page 121


 4754              	.LASF26:
 4755 05d2 464C4153 		.ascii	"FLASH_TypeDef\000"
 4755      485F5479 
 4755      70654465 
 4755      6600
 4756              	.LASF43:
 4757 05e0 464C4153 		.ascii	"FLASH_WaitForLastOperation\000"
 4757      485F5761 
 4757      6974466F 
 4757      724C6173 
 4757      744F7065 
 4758              	.LASF30:
 4759 05fb 57525030 		.ascii	"WRP0\000"
 4759      00
 4760              	.LASF87:
 4761 0600 464C4153 		.ascii	"FLASH_PrefetchBuffer\000"
 4761      485F5072 
 4761      65666574 
 4761      63684275 
 4761      66666572 
 4762              	.LASF18:
 4763 0615 466C6167 		.ascii	"FlagStatus\000"
 4763      53746174 
 4763      757300
 4764              	.LASF20:
 4765 0620 454E4142 		.ascii	"ENABLE\000"
 4765      4C4500
 4766              		.ident	"GCC: (GNU Tools for Arm Embedded Processors 7-2018-q2-update) 7.3.1 20180622 (release) [AR
ARM GAS  G:\Users\Jaxb\AppData\Local\Temp\ccck4Nii.s 			page 122


DEFINED SYMBOLS
                            *ABS*:00000000 stm32f10x_flash.c
G:\Users\Jaxb\AppData\Local\Temp\ccck4Nii.s:15     .text:00000000 $t
G:\Users\Jaxb\AppData\Local\Temp\ccck4Nii.s:23     .text:00000000 FLASH_SetLatency
G:\Users\Jaxb\AppData\Local\Temp\ccck4Nii.s:49     .text:00000010 $d
G:\Users\Jaxb\AppData\Local\Temp\ccck4Nii.s:53     .text:00000014 $t
G:\Users\Jaxb\AppData\Local\Temp\ccck4Nii.s:61     .text:00000014 FLASH_HalfCycleAccessCmd
G:\Users\Jaxb\AppData\Local\Temp\ccck4Nii.s:84     .text:00000028 $d
G:\Users\Jaxb\AppData\Local\Temp\ccck4Nii.s:88     .text:0000002c $t
G:\Users\Jaxb\AppData\Local\Temp\ccck4Nii.s:96     .text:0000002c FLASH_PrefetchBufferCmd
G:\Users\Jaxb\AppData\Local\Temp\ccck4Nii.s:119    .text:00000040 $d
G:\Users\Jaxb\AppData\Local\Temp\ccck4Nii.s:123    .text:00000044 $t
G:\Users\Jaxb\AppData\Local\Temp\ccck4Nii.s:131    .text:00000044 FLASH_Unlock
G:\Users\Jaxb\AppData\Local\Temp\ccck4Nii.s:152    .text:00000050 $d
G:\Users\Jaxb\AppData\Local\Temp\ccck4Nii.s:158    .text:0000005c $t
G:\Users\Jaxb\AppData\Local\Temp\ccck4Nii.s:166    .text:0000005c FLASH_UnlockBank1
G:\Users\Jaxb\AppData\Local\Temp\ccck4Nii.s:184    .text:00000060 FLASH_Lock
G:\Users\Jaxb\AppData\Local\Temp\ccck4Nii.s:201    .text:0000006c $d
G:\Users\Jaxb\AppData\Local\Temp\ccck4Nii.s:205    .text:00000070 $t
G:\Users\Jaxb\AppData\Local\Temp\ccck4Nii.s:213    .text:00000070 FLASH_LockBank1
G:\Users\Jaxb\AppData\Local\Temp\ccck4Nii.s:231    .text:00000074 FLASH_GetUserOptionByte
G:\Users\Jaxb\AppData\Local\Temp\ccck4Nii.s:247    .text:0000007c $d
G:\Users\Jaxb\AppData\Local\Temp\ccck4Nii.s:251    .text:00000080 $t
G:\Users\Jaxb\AppData\Local\Temp\ccck4Nii.s:259    .text:00000080 FLASH_GetWriteProtectionOptionByte
G:\Users\Jaxb\AppData\Local\Temp\ccck4Nii.s:274    .text:00000088 $d
G:\Users\Jaxb\AppData\Local\Temp\ccck4Nii.s:278    .text:0000008c $t
G:\Users\Jaxb\AppData\Local\Temp\ccck4Nii.s:286    .text:0000008c FLASH_GetReadOutProtectionStatus
G:\Users\Jaxb\AppData\Local\Temp\ccck4Nii.s:305    .text:00000098 $d
G:\Users\Jaxb\AppData\Local\Temp\ccck4Nii.s:309    .text:0000009c $t
G:\Users\Jaxb\AppData\Local\Temp\ccck4Nii.s:317    .text:0000009c FLASH_GetPrefetchBufferStatus
G:\Users\Jaxb\AppData\Local\Temp\ccck4Nii.s:336    .text:000000a8 $d
G:\Users\Jaxb\AppData\Local\Temp\ccck4Nii.s:340    .text:000000ac $t
G:\Users\Jaxb\AppData\Local\Temp\ccck4Nii.s:348    .text:000000ac FLASH_ITConfig
G:\Users\Jaxb\AppData\Local\Temp\ccck4Nii.s:377    .text:000000c0 $d
G:\Users\Jaxb\AppData\Local\Temp\ccck4Nii.s:381    .text:000000c4 $t
G:\Users\Jaxb\AppData\Local\Temp\ccck4Nii.s:389    .text:000000c4 FLASH_GetFlagStatus
G:\Users\Jaxb\AppData\Local\Temp\ccck4Nii.s:425    .text:000000e0 $d
G:\Users\Jaxb\AppData\Local\Temp\ccck4Nii.s:429    .text:000000e4 $t
G:\Users\Jaxb\AppData\Local\Temp\ccck4Nii.s:437    .text:000000e4 FLASH_ClearFlag
G:\Users\Jaxb\AppData\Local\Temp\ccck4Nii.s:453    .text:000000ec $d
G:\Users\Jaxb\AppData\Local\Temp\ccck4Nii.s:457    .text:000000f0 $t
G:\Users\Jaxb\AppData\Local\Temp\ccck4Nii.s:465    .text:000000f0 FLASH_GetStatus
G:\Users\Jaxb\AppData\Local\Temp\ccck4Nii.s:503    .text:00000114 $d
G:\Users\Jaxb\AppData\Local\Temp\ccck4Nii.s:507    .text:00000118 $t
G:\Users\Jaxb\AppData\Local\Temp\ccck4Nii.s:515    .text:00000118 FLASH_GetBank1Status
G:\Users\Jaxb\AppData\Local\Temp\ccck4Nii.s:557    .text:0000013c $d
G:\Users\Jaxb\AppData\Local\Temp\ccck4Nii.s:561    .text:00000140 $t
G:\Users\Jaxb\AppData\Local\Temp\ccck4Nii.s:569    .text:00000140 FLASH_WaitForLastOperation
G:\Users\Jaxb\AppData\Local\Temp\ccck4Nii.s:625    .text:00000164 FLASH_ErasePage
G:\Users\Jaxb\AppData\Local\Temp\ccck4Nii.s:682    .text:000001a0 $d
G:\Users\Jaxb\AppData\Local\Temp\ccck4Nii.s:686    .text:000001a4 $t
G:\Users\Jaxb\AppData\Local\Temp\ccck4Nii.s:694    .text:000001a4 FLASH_EraseAllPages
G:\Users\Jaxb\AppData\Local\Temp\ccck4Nii.s:742    .text:000001dc $d
G:\Users\Jaxb\AppData\Local\Temp\ccck4Nii.s:746    .text:000001e0 $t
G:\Users\Jaxb\AppData\Local\Temp\ccck4Nii.s:754    .text:000001e0 FLASH_EraseAllBank1Pages
G:\Users\Jaxb\AppData\Local\Temp\ccck4Nii.s:772    .text:000001e4 FLASH_EraseOptionBytes
G:\Users\Jaxb\AppData\Local\Temp\ccck4Nii.s:887    .text:0000025c $d
ARM GAS  G:\Users\Jaxb\AppData\Local\Temp\ccck4Nii.s 			page 123


G:\Users\Jaxb\AppData\Local\Temp\ccck4Nii.s:894    .text:0000026c $t
G:\Users\Jaxb\AppData\Local\Temp\ccck4Nii.s:902    .text:0000026c FLASH_ProgramWord
G:\Users\Jaxb\AppData\Local\Temp\ccck4Nii.s:1008   .text:000002d0 $d
G:\Users\Jaxb\AppData\Local\Temp\ccck4Nii.s:1012   .text:000002d4 $t
G:\Users\Jaxb\AppData\Local\Temp\ccck4Nii.s:1020   .text:000002d4 FLASH_ProgramHalfWord
G:\Users\Jaxb\AppData\Local\Temp\ccck4Nii.s:1076   .text:00000308 $d
G:\Users\Jaxb\AppData\Local\Temp\ccck4Nii.s:1080   .text:0000030c $t
G:\Users\Jaxb\AppData\Local\Temp\ccck4Nii.s:1088   .text:0000030c FLASH_ProgramOptionByteData
G:\Users\Jaxb\AppData\Local\Temp\ccck4Nii.s:1158   .text:00000350 $d
G:\Users\Jaxb\AppData\Local\Temp\ccck4Nii.s:1164   .text:0000035c $t
G:\Users\Jaxb\AppData\Local\Temp\ccck4Nii.s:1172   .text:0000035c FLASH_EnableWriteProtection
G:\Users\Jaxb\AppData\Local\Temp\ccck4Nii.s:1326   .text:000003fc $d
G:\Users\Jaxb\AppData\Local\Temp\ccck4Nii.s:1333   .text:0000040c $t
G:\Users\Jaxb\AppData\Local\Temp\ccck4Nii.s:1341   .text:0000040c FLASH_ReadOutProtection
G:\Users\Jaxb\AppData\Local\Temp\ccck4Nii.s:1448   .text:00000490 $d
G:\Users\Jaxb\AppData\Local\Temp\ccck4Nii.s:1455   .text:000004a0 $t
G:\Users\Jaxb\AppData\Local\Temp\ccck4Nii.s:1463   .text:000004a0 FLASH_UserOptionByteConfig
G:\Users\Jaxb\AppData\Local\Temp\ccck4Nii.s:1539   .text:000004ec $d
G:\Users\Jaxb\AppData\Local\Temp\ccck4Nii.s:1546   .text:000004fc $t
G:\Users\Jaxb\AppData\Local\Temp\ccck4Nii.s:1554   .text:000004fc FLASH_WaitForLastBank1Operation

NO UNDEFINED SYMBOLS
