ARM GAS  G:\Users\Jaxb\AppData\Local\Temp\cc7ygt2u.s 			page 1


   1              		.cpu cortex-m3
   2              		.eabi_attribute 20, 1
   3              		.eabi_attribute 21, 1
   4              		.eabi_attribute 23, 3
   5              		.eabi_attribute 24, 1
   6              		.eabi_attribute 25, 1
   7              		.eabi_attribute 26, 1
   8              		.eabi_attribute 30, 2
   9              		.eabi_attribute 34, 1
  10              		.eabi_attribute 18, 4
  11              		.file	"stm32f10x_usart.c"
  12              		.text
  13              	.Ltext0:
  14              		.cfi_sections	.debug_frame
  15              		.align	1
  16              		.p2align 2,,3
  17              		.global	USART_DeInit
  18              		.syntax unified
  19              		.thumb
  20              		.thumb_func
  21              		.fpu softvfp
  22              		.type	USART_DeInit, %function
  23              	USART_DeInit:
  24              	.LFB29:
  25              		.file 1 "../../source/src/FWlib/src/stm32f10x_usart.c"
   1:../../source/src/FWlib/src/stm32f10x_usart.c **** /**
   2:../../source/src/FWlib/src/stm32f10x_usart.c ****   ******************************************************************************
   3:../../source/src/FWlib/src/stm32f10x_usart.c ****   * @file    stm32f10x_usart.c
   4:../../source/src/FWlib/src/stm32f10x_usart.c ****   * @author  MCD Application Team
   5:../../source/src/FWlib/src/stm32f10x_usart.c ****   * @version V3.5.0
   6:../../source/src/FWlib/src/stm32f10x_usart.c ****   * @date    11-March-2011
   7:../../source/src/FWlib/src/stm32f10x_usart.c ****   * @brief   This file provides all the USART firmware functions.
   8:../../source/src/FWlib/src/stm32f10x_usart.c ****   ******************************************************************************
   9:../../source/src/FWlib/src/stm32f10x_usart.c ****   * @attention
  10:../../source/src/FWlib/src/stm32f10x_usart.c ****   *
  11:../../source/src/FWlib/src/stm32f10x_usart.c ****   * THE PRESENT FIRMWARE WHICH IS FOR GUIDANCE ONLY AIMS AT PROVIDING CUSTOMERS
  12:../../source/src/FWlib/src/stm32f10x_usart.c ****   * WITH CODING INFORMATION REGARDING THEIR PRODUCTS IN ORDER FOR THEM TO SAVE
  13:../../source/src/FWlib/src/stm32f10x_usart.c ****   * TIME. AS A RESULT, STMICROELECTRONICS SHALL NOT BE HELD LIABLE FOR ANY
  14:../../source/src/FWlib/src/stm32f10x_usart.c ****   * DIRECT, INDIRECT OR CONSEQUENTIAL DAMAGES WITH RESPECT TO ANY CLAIMS ARISING
  15:../../source/src/FWlib/src/stm32f10x_usart.c ****   * FROM THE CONTENT OF SUCH FIRMWARE AND/OR THE USE MADE BY CUSTOMERS OF THE
  16:../../source/src/FWlib/src/stm32f10x_usart.c ****   * CODING INFORMATION CONTAINED HEREIN IN CONNECTION WITH THEIR PRODUCTS.
  17:../../source/src/FWlib/src/stm32f10x_usart.c ****   *
  18:../../source/src/FWlib/src/stm32f10x_usart.c ****   * <h2><center>&copy; COPYRIGHT 2011 STMicroelectronics</center></h2>
  19:../../source/src/FWlib/src/stm32f10x_usart.c ****   ******************************************************************************
  20:../../source/src/FWlib/src/stm32f10x_usart.c ****   */
  21:../../source/src/FWlib/src/stm32f10x_usart.c **** 
  22:../../source/src/FWlib/src/stm32f10x_usart.c **** /* Includes ------------------------------------------------------------------*/
  23:../../source/src/FWlib/src/stm32f10x_usart.c **** #include "stm32f10x_usart.h"
  24:../../source/src/FWlib/src/stm32f10x_usart.c **** #include "stm32f10x_rcc.h"
  25:../../source/src/FWlib/src/stm32f10x_usart.c **** 
  26:../../source/src/FWlib/src/stm32f10x_usart.c **** /** @addtogroup STM32F10x_StdPeriph_Driver
  27:../../source/src/FWlib/src/stm32f10x_usart.c ****   * @{
  28:../../source/src/FWlib/src/stm32f10x_usart.c ****   */
  29:../../source/src/FWlib/src/stm32f10x_usart.c **** 
  30:../../source/src/FWlib/src/stm32f10x_usart.c **** /** @defgroup USART 
  31:../../source/src/FWlib/src/stm32f10x_usart.c ****   * @brief USART driver modules
  32:../../source/src/FWlib/src/stm32f10x_usart.c ****   * @{
ARM GAS  G:\Users\Jaxb\AppData\Local\Temp\cc7ygt2u.s 			page 2


  33:../../source/src/FWlib/src/stm32f10x_usart.c ****   */
  34:../../source/src/FWlib/src/stm32f10x_usart.c **** 
  35:../../source/src/FWlib/src/stm32f10x_usart.c **** /** @defgroup USART_Private_TypesDefinitions
  36:../../source/src/FWlib/src/stm32f10x_usart.c ****   * @{
  37:../../source/src/FWlib/src/stm32f10x_usart.c ****   */
  38:../../source/src/FWlib/src/stm32f10x_usart.c **** 
  39:../../source/src/FWlib/src/stm32f10x_usart.c **** /**
  40:../../source/src/FWlib/src/stm32f10x_usart.c ****   * @}
  41:../../source/src/FWlib/src/stm32f10x_usart.c ****   */
  42:../../source/src/FWlib/src/stm32f10x_usart.c **** 
  43:../../source/src/FWlib/src/stm32f10x_usart.c **** /** @defgroup USART_Private_Defines
  44:../../source/src/FWlib/src/stm32f10x_usart.c ****   * @{
  45:../../source/src/FWlib/src/stm32f10x_usart.c ****   */
  46:../../source/src/FWlib/src/stm32f10x_usart.c **** 
  47:../../source/src/FWlib/src/stm32f10x_usart.c **** #define CR1_UE_Set                ((uint16_t)0x2000)  /*!< USART Enable Mask */
  48:../../source/src/FWlib/src/stm32f10x_usart.c **** #define CR1_UE_Reset              ((uint16_t)0xDFFF)  /*!< USART Disable Mask */
  49:../../source/src/FWlib/src/stm32f10x_usart.c **** 
  50:../../source/src/FWlib/src/stm32f10x_usart.c **** #define CR1_WAKE_Mask             ((uint16_t)0xF7FF)  /*!< USART WakeUp Method Mask */
  51:../../source/src/FWlib/src/stm32f10x_usart.c **** 
  52:../../source/src/FWlib/src/stm32f10x_usart.c **** #define CR1_RWU_Set               ((uint16_t)0x0002)  /*!< USART mute mode Enable Mask */
  53:../../source/src/FWlib/src/stm32f10x_usart.c **** #define CR1_RWU_Reset             ((uint16_t)0xFFFD)  /*!< USART mute mode Enable Mask */
  54:../../source/src/FWlib/src/stm32f10x_usart.c **** #define CR1_SBK_Set               ((uint16_t)0x0001)  /*!< USART Break Character send Mask */
  55:../../source/src/FWlib/src/stm32f10x_usart.c **** #define CR1_CLEAR_Mask            ((uint16_t)0xE9F3)  /*!< USART CR1 Mask */
  56:../../source/src/FWlib/src/stm32f10x_usart.c **** #define CR2_Address_Mask          ((uint16_t)0xFFF0)  /*!< USART address Mask */
  57:../../source/src/FWlib/src/stm32f10x_usart.c **** 
  58:../../source/src/FWlib/src/stm32f10x_usart.c **** #define CR2_LINEN_Set              ((uint16_t)0x4000)  /*!< USART LIN Enable Mask */
  59:../../source/src/FWlib/src/stm32f10x_usart.c **** #define CR2_LINEN_Reset            ((uint16_t)0xBFFF)  /*!< USART LIN Disable Mask */
  60:../../source/src/FWlib/src/stm32f10x_usart.c **** 
  61:../../source/src/FWlib/src/stm32f10x_usart.c **** #define CR2_LBDL_Mask             ((uint16_t)0xFFDF)  /*!< USART LIN Break detection Mask */
  62:../../source/src/FWlib/src/stm32f10x_usart.c **** #define CR2_STOP_CLEAR_Mask       ((uint16_t)0xCFFF)  /*!< USART CR2 STOP Bits Mask */
  63:../../source/src/FWlib/src/stm32f10x_usart.c **** #define CR2_CLOCK_CLEAR_Mask      ((uint16_t)0xF0FF)  /*!< USART CR2 Clock Mask */
  64:../../source/src/FWlib/src/stm32f10x_usart.c **** 
  65:../../source/src/FWlib/src/stm32f10x_usart.c **** #define CR3_SCEN_Set              ((uint16_t)0x0020)  /*!< USART SC Enable Mask */
  66:../../source/src/FWlib/src/stm32f10x_usart.c **** #define CR3_SCEN_Reset            ((uint16_t)0xFFDF)  /*!< USART SC Disable Mask */
  67:../../source/src/FWlib/src/stm32f10x_usart.c **** 
  68:../../source/src/FWlib/src/stm32f10x_usart.c **** #define CR3_NACK_Set              ((uint16_t)0x0010)  /*!< USART SC NACK Enable Mask */
  69:../../source/src/FWlib/src/stm32f10x_usart.c **** #define CR3_NACK_Reset            ((uint16_t)0xFFEF)  /*!< USART SC NACK Disable Mask */
  70:../../source/src/FWlib/src/stm32f10x_usart.c **** 
  71:../../source/src/FWlib/src/stm32f10x_usart.c **** #define CR3_HDSEL_Set             ((uint16_t)0x0008)  /*!< USART Half-Duplex Enable Mask */
  72:../../source/src/FWlib/src/stm32f10x_usart.c **** #define CR3_HDSEL_Reset           ((uint16_t)0xFFF7)  /*!< USART Half-Duplex Disable Mask */
  73:../../source/src/FWlib/src/stm32f10x_usart.c **** 
  74:../../source/src/FWlib/src/stm32f10x_usart.c **** #define CR3_IRLP_Mask             ((uint16_t)0xFFFB)  /*!< USART IrDA LowPower mode Mask */
  75:../../source/src/FWlib/src/stm32f10x_usart.c **** #define CR3_CLEAR_Mask            ((uint16_t)0xFCFF)  /*!< USART CR3 Mask */
  76:../../source/src/FWlib/src/stm32f10x_usart.c **** 
  77:../../source/src/FWlib/src/stm32f10x_usart.c **** #define CR3_IREN_Set              ((uint16_t)0x0002)  /*!< USART IrDA Enable Mask */
  78:../../source/src/FWlib/src/stm32f10x_usart.c **** #define CR3_IREN_Reset            ((uint16_t)0xFFFD)  /*!< USART IrDA Disable Mask */
  79:../../source/src/FWlib/src/stm32f10x_usart.c **** #define GTPR_LSB_Mask             ((uint16_t)0x00FF)  /*!< Guard Time Register LSB Mask */
  80:../../source/src/FWlib/src/stm32f10x_usart.c **** #define GTPR_MSB_Mask             ((uint16_t)0xFF00)  /*!< Guard Time Register MSB Mask */
  81:../../source/src/FWlib/src/stm32f10x_usart.c **** #define IT_Mask                   ((uint16_t)0x001F)  /*!< USART Interrupt Mask */
  82:../../source/src/FWlib/src/stm32f10x_usart.c **** 
  83:../../source/src/FWlib/src/stm32f10x_usart.c **** /* USART OverSampling-8 Mask */
  84:../../source/src/FWlib/src/stm32f10x_usart.c **** #define CR1_OVER8_Set             ((u16)0x8000)  /* USART OVER8 mode Enable Mask */
  85:../../source/src/FWlib/src/stm32f10x_usart.c **** #define CR1_OVER8_Reset           ((u16)0x7FFF)  /* USART OVER8 mode Disable Mask */
  86:../../source/src/FWlib/src/stm32f10x_usart.c **** 
  87:../../source/src/FWlib/src/stm32f10x_usart.c **** /* USART One Bit Sampling Mask */
  88:../../source/src/FWlib/src/stm32f10x_usart.c **** #define CR3_ONEBITE_Set           ((u16)0x0800)  /* USART ONEBITE mode Enable Mask */
  89:../../source/src/FWlib/src/stm32f10x_usart.c **** #define CR3_ONEBITE_Reset         ((u16)0xF7FF)  /* USART ONEBITE mode Disable Mask */
ARM GAS  G:\Users\Jaxb\AppData\Local\Temp\cc7ygt2u.s 			page 3


  90:../../source/src/FWlib/src/stm32f10x_usart.c **** 
  91:../../source/src/FWlib/src/stm32f10x_usart.c **** /**
  92:../../source/src/FWlib/src/stm32f10x_usart.c ****   * @}
  93:../../source/src/FWlib/src/stm32f10x_usart.c ****   */
  94:../../source/src/FWlib/src/stm32f10x_usart.c **** 
  95:../../source/src/FWlib/src/stm32f10x_usart.c **** /** @defgroup USART_Private_Macros
  96:../../source/src/FWlib/src/stm32f10x_usart.c ****   * @{
  97:../../source/src/FWlib/src/stm32f10x_usart.c ****   */
  98:../../source/src/FWlib/src/stm32f10x_usart.c **** 
  99:../../source/src/FWlib/src/stm32f10x_usart.c **** /**
 100:../../source/src/FWlib/src/stm32f10x_usart.c ****   * @}
 101:../../source/src/FWlib/src/stm32f10x_usart.c ****   */
 102:../../source/src/FWlib/src/stm32f10x_usart.c **** 
 103:../../source/src/FWlib/src/stm32f10x_usart.c **** /** @defgroup USART_Private_Variables
 104:../../source/src/FWlib/src/stm32f10x_usart.c ****   * @{
 105:../../source/src/FWlib/src/stm32f10x_usart.c ****   */
 106:../../source/src/FWlib/src/stm32f10x_usart.c **** 
 107:../../source/src/FWlib/src/stm32f10x_usart.c **** /**
 108:../../source/src/FWlib/src/stm32f10x_usart.c ****   * @}
 109:../../source/src/FWlib/src/stm32f10x_usart.c ****   */
 110:../../source/src/FWlib/src/stm32f10x_usart.c **** 
 111:../../source/src/FWlib/src/stm32f10x_usart.c **** /** @defgroup USART_Private_FunctionPrototypes
 112:../../source/src/FWlib/src/stm32f10x_usart.c ****   * @{
 113:../../source/src/FWlib/src/stm32f10x_usart.c ****   */
 114:../../source/src/FWlib/src/stm32f10x_usart.c **** 
 115:../../source/src/FWlib/src/stm32f10x_usart.c **** /**
 116:../../source/src/FWlib/src/stm32f10x_usart.c ****   * @}
 117:../../source/src/FWlib/src/stm32f10x_usart.c ****   */
 118:../../source/src/FWlib/src/stm32f10x_usart.c **** 
 119:../../source/src/FWlib/src/stm32f10x_usart.c **** /** @defgroup USART_Private_Functions
 120:../../source/src/FWlib/src/stm32f10x_usart.c ****   * @{
 121:../../source/src/FWlib/src/stm32f10x_usart.c ****   */
 122:../../source/src/FWlib/src/stm32f10x_usart.c **** 
 123:../../source/src/FWlib/src/stm32f10x_usart.c **** /**
 124:../../source/src/FWlib/src/stm32f10x_usart.c ****   * @brief  Deinitializes the USARTx peripheral registers to their default reset values.
 125:../../source/src/FWlib/src/stm32f10x_usart.c ****   * @param  USARTx: Select the USART or the UART peripheral. 
 126:../../source/src/FWlib/src/stm32f10x_usart.c ****   *   This parameter can be one of the following values: 
 127:../../source/src/FWlib/src/stm32f10x_usart.c ****   *      USART1, USART2, USART3, UART4 or UART5.
 128:../../source/src/FWlib/src/stm32f10x_usart.c ****   * @retval None
 129:../../source/src/FWlib/src/stm32f10x_usart.c ****   */
 130:../../source/src/FWlib/src/stm32f10x_usart.c **** void USART_DeInit(USART_TypeDef* USARTx)
 131:../../source/src/FWlib/src/stm32f10x_usart.c **** {
  26              		.loc 1 131 0
  27              		.cfi_startproc
  28              		@ args = 0, pretend = 0, frame = 0
  29              		@ frame_needed = 0, uses_anonymous_args = 0
  30              	.LVL0:
  31 0000 08B5     		push	{r3, lr}
  32              	.LCFI0:
  33              		.cfi_def_cfa_offset 8
  34              		.cfi_offset 3, -8
  35              		.cfi_offset 14, -4
 132:../../source/src/FWlib/src/stm32f10x_usart.c ****   /* Check the parameters */
 133:../../source/src/FWlib/src/stm32f10x_usart.c ****   assert_param(IS_USART_ALL_PERIPH(USARTx));
 134:../../source/src/FWlib/src/stm32f10x_usart.c **** 
 135:../../source/src/FWlib/src/stm32f10x_usart.c ****   if (USARTx == USART1)
  36              		.loc 1 135 0
ARM GAS  G:\Users\Jaxb\AppData\Local\Temp\cc7ygt2u.s 			page 4


  37 0002 264B     		ldr	r3, .L13
  38 0004 9842     		cmp	r0, r3
  39 0006 18D0     		beq	.L8
 136:../../source/src/FWlib/src/stm32f10x_usart.c ****   {
 137:../../source/src/FWlib/src/stm32f10x_usart.c ****     RCC_APB2PeriphResetCmd(RCC_APB2Periph_USART1, ENABLE);
 138:../../source/src/FWlib/src/stm32f10x_usart.c ****     RCC_APB2PeriphResetCmd(RCC_APB2Periph_USART1, DISABLE);
 139:../../source/src/FWlib/src/stm32f10x_usart.c ****   }
 140:../../source/src/FWlib/src/stm32f10x_usart.c ****   else if (USARTx == USART2)
  40              		.loc 1 140 0
  41 0008 254B     		ldr	r3, .L13+4
  42 000a 9842     		cmp	r0, r3
  43 000c 21D0     		beq	.L9
 141:../../source/src/FWlib/src/stm32f10x_usart.c ****   {
 142:../../source/src/FWlib/src/stm32f10x_usart.c ****     RCC_APB1PeriphResetCmd(RCC_APB1Periph_USART2, ENABLE);
 143:../../source/src/FWlib/src/stm32f10x_usart.c ****     RCC_APB1PeriphResetCmd(RCC_APB1Periph_USART2, DISABLE);
 144:../../source/src/FWlib/src/stm32f10x_usart.c ****   }
 145:../../source/src/FWlib/src/stm32f10x_usart.c ****   else if (USARTx == USART3)
  44              		.loc 1 145 0
  45 000e 254B     		ldr	r3, .L13+8
  46 0010 9842     		cmp	r0, r3
  47 0012 2AD0     		beq	.L10
 146:../../source/src/FWlib/src/stm32f10x_usart.c ****   {
 147:../../source/src/FWlib/src/stm32f10x_usart.c ****     RCC_APB1PeriphResetCmd(RCC_APB1Periph_USART3, ENABLE);
 148:../../source/src/FWlib/src/stm32f10x_usart.c ****     RCC_APB1PeriphResetCmd(RCC_APB1Periph_USART3, DISABLE);
 149:../../source/src/FWlib/src/stm32f10x_usart.c ****   }    
 150:../../source/src/FWlib/src/stm32f10x_usart.c ****   else if (USARTx == UART4)
  48              		.loc 1 150 0
  49 0014 244B     		ldr	r3, .L13+12
  50 0016 9842     		cmp	r0, r3
  51 0018 33D0     		beq	.L11
 151:../../source/src/FWlib/src/stm32f10x_usart.c ****   {
 152:../../source/src/FWlib/src/stm32f10x_usart.c ****     RCC_APB1PeriphResetCmd(RCC_APB1Periph_UART4, ENABLE);
 153:../../source/src/FWlib/src/stm32f10x_usart.c ****     RCC_APB1PeriphResetCmd(RCC_APB1Periph_UART4, DISABLE);
 154:../../source/src/FWlib/src/stm32f10x_usart.c ****   }    
 155:../../source/src/FWlib/src/stm32f10x_usart.c ****   else
 156:../../source/src/FWlib/src/stm32f10x_usart.c ****   {
 157:../../source/src/FWlib/src/stm32f10x_usart.c ****     if (USARTx == UART5)
  52              		.loc 1 157 0
  53 001a 244B     		ldr	r3, .L13+16
  54 001c 9842     		cmp	r0, r3
  55 001e 00D0     		beq	.L12
 158:../../source/src/FWlib/src/stm32f10x_usart.c ****     { 
 159:../../source/src/FWlib/src/stm32f10x_usart.c ****       RCC_APB1PeriphResetCmd(RCC_APB1Periph_UART5, ENABLE);
 160:../../source/src/FWlib/src/stm32f10x_usart.c ****       RCC_APB1PeriphResetCmd(RCC_APB1Periph_UART5, DISABLE);
 161:../../source/src/FWlib/src/stm32f10x_usart.c ****     }
 162:../../source/src/FWlib/src/stm32f10x_usart.c ****   }
 163:../../source/src/FWlib/src/stm32f10x_usart.c **** }
  56              		.loc 1 163 0
  57 0020 08BD     		pop	{r3, pc}
  58              	.L12:
 159:../../source/src/FWlib/src/stm32f10x_usart.c ****       RCC_APB1PeriphResetCmd(RCC_APB1Periph_UART5, DISABLE);
  59              		.loc 1 159 0
  60 0022 0121     		movs	r1, #1
  61 0024 4FF48010 		mov	r0, #1048576
  62              	.LVL1:
  63 0028 FFF7FEFF 		bl	RCC_APB1PeriphResetCmd
  64              	.LVL2:
ARM GAS  G:\Users\Jaxb\AppData\Local\Temp\cc7ygt2u.s 			page 5


  65              		.loc 1 163 0
  66 002c BDE80840 		pop	{r3, lr}
  67              	.LCFI1:
  68              		.cfi_remember_state
  69              		.cfi_restore 14
  70              		.cfi_restore 3
  71              		.cfi_def_cfa_offset 0
 160:../../source/src/FWlib/src/stm32f10x_usart.c ****     }
  72              		.loc 1 160 0
  73 0030 0021     		movs	r1, #0
  74 0032 4FF48010 		mov	r0, #1048576
  75 0036 FFF7FEBF 		b	RCC_APB1PeriphResetCmd
  76              	.LVL3:
  77              	.L8:
  78              	.LCFI2:
  79              		.cfi_restore_state
 137:../../source/src/FWlib/src/stm32f10x_usart.c ****     RCC_APB2PeriphResetCmd(RCC_APB2Periph_USART1, DISABLE);
  80              		.loc 1 137 0
  81 003a 0121     		movs	r1, #1
  82 003c 4FF48040 		mov	r0, #16384
  83              	.LVL4:
  84 0040 FFF7FEFF 		bl	RCC_APB2PeriphResetCmd
  85              	.LVL5:
  86              		.loc 1 163 0
  87 0044 BDE80840 		pop	{r3, lr}
  88              	.LCFI3:
  89              		.cfi_remember_state
  90              		.cfi_restore 14
  91              		.cfi_restore 3
  92              		.cfi_def_cfa_offset 0
 138:../../source/src/FWlib/src/stm32f10x_usart.c ****   }
  93              		.loc 1 138 0
  94 0048 0021     		movs	r1, #0
  95 004a 4FF48040 		mov	r0, #16384
  96 004e FFF7FEBF 		b	RCC_APB2PeriphResetCmd
  97              	.LVL6:
  98              	.L9:
  99              	.LCFI4:
 100              		.cfi_restore_state
 142:../../source/src/FWlib/src/stm32f10x_usart.c ****     RCC_APB1PeriphResetCmd(RCC_APB1Periph_USART2, DISABLE);
 101              		.loc 1 142 0
 102 0052 0121     		movs	r1, #1
 103 0054 4FF40030 		mov	r0, #131072
 104              	.LVL7:
 105 0058 FFF7FEFF 		bl	RCC_APB1PeriphResetCmd
 106              	.LVL8:
 107              		.loc 1 163 0
 108 005c BDE80840 		pop	{r3, lr}
 109              	.LCFI5:
 110              		.cfi_remember_state
 111              		.cfi_restore 14
 112              		.cfi_restore 3
 113              		.cfi_def_cfa_offset 0
 143:../../source/src/FWlib/src/stm32f10x_usart.c ****   }
 114              		.loc 1 143 0
 115 0060 0021     		movs	r1, #0
 116 0062 4FF40030 		mov	r0, #131072
ARM GAS  G:\Users\Jaxb\AppData\Local\Temp\cc7ygt2u.s 			page 6


 117 0066 FFF7FEBF 		b	RCC_APB1PeriphResetCmd
 118              	.LVL9:
 119              	.L10:
 120              	.LCFI6:
 121              		.cfi_restore_state
 147:../../source/src/FWlib/src/stm32f10x_usart.c ****     RCC_APB1PeriphResetCmd(RCC_APB1Periph_USART3, DISABLE);
 122              		.loc 1 147 0
 123 006a 0121     		movs	r1, #1
 124 006c 4FF48020 		mov	r0, #262144
 125              	.LVL10:
 126 0070 FFF7FEFF 		bl	RCC_APB1PeriphResetCmd
 127              	.LVL11:
 128              		.loc 1 163 0
 129 0074 BDE80840 		pop	{r3, lr}
 130              	.LCFI7:
 131              		.cfi_remember_state
 132              		.cfi_restore 14
 133              		.cfi_restore 3
 134              		.cfi_def_cfa_offset 0
 148:../../source/src/FWlib/src/stm32f10x_usart.c ****   }    
 135              		.loc 1 148 0
 136 0078 0021     		movs	r1, #0
 137 007a 4FF48020 		mov	r0, #262144
 138 007e FFF7FEBF 		b	RCC_APB1PeriphResetCmd
 139              	.LVL12:
 140              	.L11:
 141              	.LCFI8:
 142              		.cfi_restore_state
 152:../../source/src/FWlib/src/stm32f10x_usart.c ****     RCC_APB1PeriphResetCmd(RCC_APB1Periph_UART4, DISABLE);
 143              		.loc 1 152 0
 144 0082 0121     		movs	r1, #1
 145 0084 4FF40020 		mov	r0, #524288
 146              	.LVL13:
 147 0088 FFF7FEFF 		bl	RCC_APB1PeriphResetCmd
 148              	.LVL14:
 149              		.loc 1 163 0
 150 008c BDE80840 		pop	{r3, lr}
 151              	.LCFI9:
 152              		.cfi_restore 14
 153              		.cfi_restore 3
 154              		.cfi_def_cfa_offset 0
 153:../../source/src/FWlib/src/stm32f10x_usart.c ****   }    
 155              		.loc 1 153 0
 156 0090 0021     		movs	r1, #0
 157 0092 4FF40020 		mov	r0, #524288
 158 0096 FFF7FEBF 		b	RCC_APB1PeriphResetCmd
 159              	.LVL15:
 160              	.L14:
 161 009a 00BF     		.align	2
 162              	.L13:
 163 009c 00380140 		.word	1073821696
 164 00a0 00440040 		.word	1073759232
 165 00a4 00480040 		.word	1073760256
 166 00a8 004C0040 		.word	1073761280
 167 00ac 00500040 		.word	1073762304
 168              		.cfi_endproc
 169              	.LFE29:
ARM GAS  G:\Users\Jaxb\AppData\Local\Temp\cc7ygt2u.s 			page 7


 170              		.size	USART_DeInit, .-USART_DeInit
 171              		.align	1
 172              		.p2align 2,,3
 173              		.global	USART_Init
 174              		.syntax unified
 175              		.thumb
 176              		.thumb_func
 177              		.fpu softvfp
 178              		.type	USART_Init, %function
 179              	USART_Init:
 180              	.LFB30:
 164:../../source/src/FWlib/src/stm32f10x_usart.c **** 
 165:../../source/src/FWlib/src/stm32f10x_usart.c **** /**
 166:../../source/src/FWlib/src/stm32f10x_usart.c ****   * @brief  Initializes the USARTx peripheral according to the specified
 167:../../source/src/FWlib/src/stm32f10x_usart.c ****   *         parameters in the USART_InitStruct .
 168:../../source/src/FWlib/src/stm32f10x_usart.c ****   * @param  USARTx: Select the USART or the UART peripheral. 
 169:../../source/src/FWlib/src/stm32f10x_usart.c ****   *   This parameter can be one of the following values:
 170:../../source/src/FWlib/src/stm32f10x_usart.c ****   *   USART1, USART2, USART3, UART4 or UART5.
 171:../../source/src/FWlib/src/stm32f10x_usart.c ****   * @param  USART_InitStruct: pointer to a USART_InitTypeDef structure
 172:../../source/src/FWlib/src/stm32f10x_usart.c ****   *         that contains the configuration information for the specified USART 
 173:../../source/src/FWlib/src/stm32f10x_usart.c ****   *         peripheral.
 174:../../source/src/FWlib/src/stm32f10x_usart.c ****   * @retval None
 175:../../source/src/FWlib/src/stm32f10x_usart.c ****   */
 176:../../source/src/FWlib/src/stm32f10x_usart.c **** void USART_Init(USART_TypeDef* USARTx, USART_InitTypeDef* USART_InitStruct)
 177:../../source/src/FWlib/src/stm32f10x_usart.c **** {
 181              		.loc 1 177 0
 182              		.cfi_startproc
 183              		@ args = 0, pretend = 0, frame = 24
 184              		@ frame_needed = 0, uses_anonymous_args = 0
 185              	.LVL16:
 186 00b0 30B5     		push	{r4, r5, lr}
 187              	.LCFI10:
 188              		.cfi_def_cfa_offset 12
 189              		.cfi_offset 4, -12
 190              		.cfi_offset 5, -8
 191              		.cfi_offset 14, -4
 192 00b2 0D46     		mov	r5, r1
 193 00b4 0446     		mov	r4, r0
 178:../../source/src/FWlib/src/stm32f10x_usart.c ****   uint32_t tmpreg = 0x00, apbclock = 0x00;
 179:../../source/src/FWlib/src/stm32f10x_usart.c ****   uint32_t integerdivider = 0x00;
 180:../../source/src/FWlib/src/stm32f10x_usart.c ****   uint32_t fractionaldivider = 0x00;
 181:../../source/src/FWlib/src/stm32f10x_usart.c ****   uint32_t usartxbase = 0;
 182:../../source/src/FWlib/src/stm32f10x_usart.c ****   RCC_ClocksTypeDef RCC_ClocksStatus;
 183:../../source/src/FWlib/src/stm32f10x_usart.c ****   /* Check the parameters */
 184:../../source/src/FWlib/src/stm32f10x_usart.c ****   assert_param(IS_USART_ALL_PERIPH(USARTx));
 185:../../source/src/FWlib/src/stm32f10x_usart.c ****   assert_param(IS_USART_BAUDRATE(USART_InitStruct->USART_BaudRate));  
 186:../../source/src/FWlib/src/stm32f10x_usart.c ****   assert_param(IS_USART_WORD_LENGTH(USART_InitStruct->USART_WordLength));
 187:../../source/src/FWlib/src/stm32f10x_usart.c ****   assert_param(IS_USART_STOPBITS(USART_InitStruct->USART_StopBits));
 188:../../source/src/FWlib/src/stm32f10x_usart.c ****   assert_param(IS_USART_PARITY(USART_InitStruct->USART_Parity));
 189:../../source/src/FWlib/src/stm32f10x_usart.c ****   assert_param(IS_USART_MODE(USART_InitStruct->USART_Mode));
 190:../../source/src/FWlib/src/stm32f10x_usart.c ****   assert_param(IS_USART_HARDWARE_FLOW_CONTROL(USART_InitStruct->USART_HardwareFlowControl));
 191:../../source/src/FWlib/src/stm32f10x_usart.c ****   /* The hardware flow control is available only for USART1, USART2 and USART3 */
 192:../../source/src/FWlib/src/stm32f10x_usart.c ****   if (USART_InitStruct->USART_HardwareFlowControl != USART_HardwareFlowControl_None)
 193:../../source/src/FWlib/src/stm32f10x_usart.c ****   {
 194:../../source/src/FWlib/src/stm32f10x_usart.c ****     assert_param(IS_USART_123_PERIPH(USARTx));
 195:../../source/src/FWlib/src/stm32f10x_usart.c ****   }
 196:../../source/src/FWlib/src/stm32f10x_usart.c **** 
ARM GAS  G:\Users\Jaxb\AppData\Local\Temp\cc7ygt2u.s 			page 8


 197:../../source/src/FWlib/src/stm32f10x_usart.c ****   usartxbase = (uint32_t)USARTx;
 198:../../source/src/FWlib/src/stm32f10x_usart.c **** 
 199:../../source/src/FWlib/src/stm32f10x_usart.c **** /*---------------------------- USART CR2 Configuration -----------------------*/
 200:../../source/src/FWlib/src/stm32f10x_usart.c ****   tmpreg = USARTx->CR2;
 194              		.loc 1 200 0
 195 00b6 038A     		ldrh	r3, [r0, #16]
 196 00b8 CA88     		ldrh	r2, [r1, #6]
 197 00ba 9BB2     		uxth	r3, r3
 198 00bc 23F44053 		bic	r3, r3, #12288
 199 00c0 1343     		orrs	r3, r3, r2
 192:../../source/src/FWlib/src/stm32f10x_usart.c ****   {
 200              		.loc 1 192 0
 201 00c2 8A89     		ldrh	r2, [r1, #12]
 202              	.LVL17:
 201:../../source/src/FWlib/src/stm32f10x_usart.c ****   /* Clear STOP[13:12] bits */
 202:../../source/src/FWlib/src/stm32f10x_usart.c ****   tmpreg &= CR2_STOP_CLEAR_Mask;
 203:../../source/src/FWlib/src/stm32f10x_usart.c ****   /* Configure the USART Stop Bits, Clock, CPOL, CPHA and LastBit ------------*/
 204:../../source/src/FWlib/src/stm32f10x_usart.c ****   /* Set STOP[13:12] bits according to USART_StopBits value */
 205:../../source/src/FWlib/src/stm32f10x_usart.c ****   tmpreg |= (uint32_t)USART_InitStruct->USART_StopBits;
 206:../../source/src/FWlib/src/stm32f10x_usart.c ****   
 207:../../source/src/FWlib/src/stm32f10x_usart.c ****   /* Write to USART CR2 */
 208:../../source/src/FWlib/src/stm32f10x_usart.c ****   USARTx->CR2 = (uint16_t)tmpreg;
 203              		.loc 1 208 0
 204 00c4 0382     		strh	r3, [r0, #16]	@ movhi
 209:../../source/src/FWlib/src/stm32f10x_usart.c **** 
 210:../../source/src/FWlib/src/stm32f10x_usart.c **** /*---------------------------- USART CR1 Configuration -----------------------*/
 211:../../source/src/FWlib/src/stm32f10x_usart.c ****   tmpreg = USARTx->CR1;
 205              		.loc 1 211 0
 206 00c6 8089     		ldrh	r0, [r0, #12]
 207              	.LVL18:
 208 00c8 234B     		ldr	r3, .L23
 209 00ca 8988     		ldrh	r1, [r1, #4]
 210              	.LVL19:
 211 00cc 0340     		ands	r3, r3, r0
 212 00ce 2889     		ldrh	r0, [r5, #8]
 213              	.LVL20:
 214 00d0 0B43     		orrs	r3, r3, r1
 215 00d2 6989     		ldrh	r1, [r5, #10]
 216 00d4 0343     		orrs	r3, r3, r0
 217 00d6 0B43     		orrs	r3, r3, r1
 218              	.LVL21:
 212:../../source/src/FWlib/src/stm32f10x_usart.c ****   /* Clear M, PCE, PS, TE and RE bits */
 213:../../source/src/FWlib/src/stm32f10x_usart.c ****   tmpreg &= CR1_CLEAR_Mask;
 214:../../source/src/FWlib/src/stm32f10x_usart.c ****   /* Configure the USART Word Length, Parity and mode ----------------------- */
 215:../../source/src/FWlib/src/stm32f10x_usart.c ****   /* Set the M bits according to USART_WordLength value */
 216:../../source/src/FWlib/src/stm32f10x_usart.c ****   /* Set PCE and PS bits according to USART_Parity value */
 217:../../source/src/FWlib/src/stm32f10x_usart.c ****   /* Set TE and RE bits according to USART_Mode value */
 218:../../source/src/FWlib/src/stm32f10x_usart.c ****   tmpreg |= (uint32_t)USART_InitStruct->USART_WordLength | USART_InitStruct->USART_Parity |
 219:../../source/src/FWlib/src/stm32f10x_usart.c ****             USART_InitStruct->USART_Mode;
 220:../../source/src/FWlib/src/stm32f10x_usart.c ****   /* Write to USART CR1 */
 221:../../source/src/FWlib/src/stm32f10x_usart.c ****   USARTx->CR1 = (uint16_t)tmpreg;
 219              		.loc 1 221 0
 220 00d8 A381     		strh	r3, [r4, #12]	@ movhi
 222:../../source/src/FWlib/src/stm32f10x_usart.c **** 
 223:../../source/src/FWlib/src/stm32f10x_usart.c **** /*---------------------------- USART CR3 Configuration -----------------------*/  
 224:../../source/src/FWlib/src/stm32f10x_usart.c ****   tmpreg = USARTx->CR3;
 221              		.loc 1 224 0
ARM GAS  G:\Users\Jaxb\AppData\Local\Temp\cc7ygt2u.s 			page 9


 222 00da A38A     		ldrh	r3, [r4, #20]
 223              	.LVL22:
 177:../../source/src/FWlib/src/stm32f10x_usart.c ****   uint32_t tmpreg = 0x00, apbclock = 0x00;
 224              		.loc 1 177 0
 225 00dc 87B0     		sub	sp, sp, #28
 226              	.LCFI11:
 227              		.cfi_def_cfa_offset 40
 228              		.loc 1 224 0
 229 00de 9BB2     		uxth	r3, r3
 230              	.LVL23:
 231 00e0 23F44073 		bic	r3, r3, #768
 232              	.LVL24:
 233 00e4 1343     		orrs	r3, r3, r2
 234              	.LVL25:
 225:../../source/src/FWlib/src/stm32f10x_usart.c ****   /* Clear CTSE and RTSE bits */
 226:../../source/src/FWlib/src/stm32f10x_usart.c ****   tmpreg &= CR3_CLEAR_Mask;
 227:../../source/src/FWlib/src/stm32f10x_usart.c ****   /* Configure the USART HFC -------------------------------------------------*/
 228:../../source/src/FWlib/src/stm32f10x_usart.c ****   /* Set CTSE and RTSE bits according to USART_HardwareFlowControl value */
 229:../../source/src/FWlib/src/stm32f10x_usart.c ****   tmpreg |= USART_InitStruct->USART_HardwareFlowControl;
 230:../../source/src/FWlib/src/stm32f10x_usart.c ****   /* Write to USART CR3 */
 231:../../source/src/FWlib/src/stm32f10x_usart.c ****   USARTx->CR3 = (uint16_t)tmpreg;
 232:../../source/src/FWlib/src/stm32f10x_usart.c **** 
 233:../../source/src/FWlib/src/stm32f10x_usart.c **** /*---------------------------- USART BRR Configuration -----------------------*/
 234:../../source/src/FWlib/src/stm32f10x_usart.c ****   /* Configure the USART Baud Rate -------------------------------------------*/
 235:../../source/src/FWlib/src/stm32f10x_usart.c ****   RCC_GetClocksFreq(&RCC_ClocksStatus);
 235              		.loc 1 235 0
 236 00e6 01A8     		add	r0, sp, #4
 231:../../source/src/FWlib/src/stm32f10x_usart.c **** 
 237              		.loc 1 231 0
 238 00e8 A382     		strh	r3, [r4, #20]	@ movhi
 239              		.loc 1 235 0
 240 00ea FFF7FEFF 		bl	RCC_GetClocksFreq
 241              	.LVL26:
 236:../../source/src/FWlib/src/stm32f10x_usart.c ****   if (usartxbase == USART1_BASE)
 237:../../source/src/FWlib/src/stm32f10x_usart.c ****   {
 238:../../source/src/FWlib/src/stm32f10x_usart.c ****     apbclock = RCC_ClocksStatus.PCLK2_Frequency;
 242              		.loc 1 238 0
 243 00ee DDE90331 		ldrd	r3, r1, [sp, #12]
 236:../../source/src/FWlib/src/stm32f10x_usart.c ****   if (usartxbase == USART1_BASE)
 244              		.loc 1 236 0
 245 00f2 1A48     		ldr	r0, .L23+4
 246 00f4 2A68     		ldr	r2, [r5]
 247              		.loc 1 238 0
 248 00f6 8442     		cmp	r4, r0
 249 00f8 08BF     		it	eq
 250 00fa 0B46     		moveq	r3, r1
 251              	.LVL27:
 239:../../source/src/FWlib/src/stm32f10x_usart.c ****   }
 240:../../source/src/FWlib/src/stm32f10x_usart.c ****   else
 241:../../source/src/FWlib/src/stm32f10x_usart.c ****   {
 242:../../source/src/FWlib/src/stm32f10x_usart.c ****     apbclock = RCC_ClocksStatus.PCLK1_Frequency;
 243:../../source/src/FWlib/src/stm32f10x_usart.c ****   }
 244:../../source/src/FWlib/src/stm32f10x_usart.c ****   
 245:../../source/src/FWlib/src/stm32f10x_usart.c ****   /* Determine the integer part */
 246:../../source/src/FWlib/src/stm32f10x_usart.c ****   if ((USARTx->CR1 & CR1_OVER8_Set) != 0)
 252              		.loc 1 246 0
 253 00fc A189     		ldrh	r1, [r4, #12]
ARM GAS  G:\Users\Jaxb\AppData\Local\Temp\cc7ygt2u.s 			page 10


 254 00fe 03EB8303 		add	r3, r3, r3, lsl #2
 255              	.LVL28:
 256 0102 0904     		lsls	r1, r1, #16
 247:../../source/src/FWlib/src/stm32f10x_usart.c ****   {
 248:../../source/src/FWlib/src/stm32f10x_usart.c ****     /* Integer part computing in case Oversampling mode is 8 Samples */
 249:../../source/src/FWlib/src/stm32f10x_usart.c ****     integerdivider = ((25 * apbclock) / (2 * (USART_InitStruct->USART_BaudRate)));    
 257              		.loc 1 249 0
 258 0104 4CBF     		ite	mi
 259 0106 5200     		lslmi	r2, r2, #1
 250:../../source/src/FWlib/src/stm32f10x_usart.c ****   }
 251:../../source/src/FWlib/src/stm32f10x_usart.c ****   else /* if ((USARTx->CR1 & CR1_OVER8_Set) == 0) */
 252:../../source/src/FWlib/src/stm32f10x_usart.c ****   {
 253:../../source/src/FWlib/src/stm32f10x_usart.c ****     /* Integer part computing in case Oversampling mode is 16 Samples */
 254:../../source/src/FWlib/src/stm32f10x_usart.c ****     integerdivider = ((25 * apbclock) / (4 * (USART_InitStruct->USART_BaudRate)));    
 260              		.loc 1 254 0
 261 0108 9200     		lslpl	r2, r2, #2
 262 010a 03EB8303 		add	r3, r3, r3, lsl #2
 263 010e B3FBF2F3 		udiv	r3, r3, r2
 264              	.LVL29:
 265 0112 6422     		movs	r2, #100
 255:../../source/src/FWlib/src/stm32f10x_usart.c ****   }
 256:../../source/src/FWlib/src/stm32f10x_usart.c ****   tmpreg = (integerdivider / 100) << 4;
 266              		.loc 1 256 0
 267 0114 1248     		ldr	r0, .L23+8
 268              	.LVL30:
 257:../../source/src/FWlib/src/stm32f10x_usart.c **** 
 258:../../source/src/FWlib/src/stm32f10x_usart.c ****   /* Determine the fractional part */
 259:../../source/src/FWlib/src/stm32f10x_usart.c ****   fractionaldivider = integerdivider - (100 * (tmpreg >> 4));
 260:../../source/src/FWlib/src/stm32f10x_usart.c **** 
 261:../../source/src/FWlib/src/stm32f10x_usart.c ****   /* Implement the fractional part in the register */
 262:../../source/src/FWlib/src/stm32f10x_usart.c ****   if ((USARTx->CR1 & CR1_OVER8_Set) != 0)
 269              		.loc 1 262 0
 270 0116 A589     		ldrh	r5, [r4, #12]
 271              	.LVL31:
 256:../../source/src/FWlib/src/stm32f10x_usart.c **** 
 272              		.loc 1 256 0
 273 0118 A0FB03C1 		umull	ip, r1, r0, r3
 274 011c 4909     		lsrs	r1, r1, #5
 275 011e 02FB1133 		mls	r3, r2, r1, r3
 276              	.LVL32:
 277              		.loc 1 262 0
 278 0122 2A04     		lsls	r2, r5, #16
 279              	.LVL33:
 256:../../source/src/FWlib/src/stm32f10x_usart.c **** 
 280              		.loc 1 256 0
 281 0124 4FEA0111 		lsl	r1, r1, #4
 282              	.LVL34:
 283              		.loc 1 262 0
 284 0128 0AD4     		bmi	.L22
 263:../../source/src/FWlib/src/stm32f10x_usart.c ****   {
 264:../../source/src/FWlib/src/stm32f10x_usart.c ****     tmpreg |= ((((fractionaldivider * 8) + 50) / 100)) & ((uint8_t)0x07);
 265:../../source/src/FWlib/src/stm32f10x_usart.c ****   }
 266:../../source/src/FWlib/src/stm32f10x_usart.c ****   else /* if ((USARTx->CR1 & CR1_OVER8_Set) == 0) */
 267:../../source/src/FWlib/src/stm32f10x_usart.c ****   {
 268:../../source/src/FWlib/src/stm32f10x_usart.c ****     tmpreg |= ((((fractionaldivider * 16) + 50) / 100)) & ((uint8_t)0x0F);
 285              		.loc 1 268 0
 286 012a 1B01     		lsls	r3, r3, #4
ARM GAS  G:\Users\Jaxb\AppData\Local\Temp\cc7ygt2u.s 			page 11


 287              	.LVL35:
 288 012c 3233     		adds	r3, r3, #50
 289 012e A0FB0323 		umull	r2, r3, r0, r3
 290 0132 C3F34313 		ubfx	r3, r3, #5, #4
 291 0136 0B43     		orrs	r3, r3, r1
 292              	.LVL36:
 269:../../source/src/FWlib/src/stm32f10x_usart.c ****   }
 270:../../source/src/FWlib/src/stm32f10x_usart.c ****   
 271:../../source/src/FWlib/src/stm32f10x_usart.c ****   /* Write to USART BRR */
 272:../../source/src/FWlib/src/stm32f10x_usart.c ****   USARTx->BRR = (uint16_t)tmpreg;
 293              		.loc 1 272 0
 294 0138 9BB2     		uxth	r3, r3
 295              	.LVL37:
 296 013a 2381     		strh	r3, [r4, #8]	@ movhi
 273:../../source/src/FWlib/src/stm32f10x_usart.c **** }
 297              		.loc 1 273 0
 298 013c 07B0     		add	sp, sp, #28
 299              	.LCFI12:
 300              		.cfi_remember_state
 301              		.cfi_def_cfa_offset 12
 302              		@ sp needed
 303 013e 30BD     		pop	{r4, r5, pc}
 304              	.LVL38:
 305              	.L22:
 306              	.LCFI13:
 307              		.cfi_restore_state
 264:../../source/src/FWlib/src/stm32f10x_usart.c ****   }
 308              		.loc 1 264 0
 309 0140 DA00     		lsls	r2, r3, #3
 310 0142 3232     		adds	r2, r2, #50
 311 0144 A0FB0232 		umull	r3, r2, r0, r2
 312              	.LVL39:
 313 0148 C2F34212 		ubfx	r2, r2, #5, #3
 314 014c 42EA0103 		orr	r3, r2, r1
 315              	.LVL40:
 272:../../source/src/FWlib/src/stm32f10x_usart.c **** }
 316              		.loc 1 272 0
 317 0150 9BB2     		uxth	r3, r3
 318              	.LVL41:
 319 0152 2381     		strh	r3, [r4, #8]	@ movhi
 320              		.loc 1 273 0
 321 0154 07B0     		add	sp, sp, #28
 322              	.LCFI14:
 323              		.cfi_def_cfa_offset 12
 324              		@ sp needed
 325 0156 30BD     		pop	{r4, r5, pc}
 326              	.LVL42:
 327              	.L24:
 328              		.align	2
 329              	.L23:
 330 0158 F3E9FFFF 		.word	-5645
 331 015c 00380140 		.word	1073821696
 332 0160 1F85EB51 		.word	1374389535
 333              		.cfi_endproc
 334              	.LFE30:
 335              		.size	USART_Init, .-USART_Init
 336              		.align	1
ARM GAS  G:\Users\Jaxb\AppData\Local\Temp\cc7ygt2u.s 			page 12


 337              		.p2align 2,,3
 338              		.global	USART_StructInit
 339              		.syntax unified
 340              		.thumb
 341              		.thumb_func
 342              		.fpu softvfp
 343              		.type	USART_StructInit, %function
 344              	USART_StructInit:
 345              	.LFB31:
 274:../../source/src/FWlib/src/stm32f10x_usart.c **** 
 275:../../source/src/FWlib/src/stm32f10x_usart.c **** /**
 276:../../source/src/FWlib/src/stm32f10x_usart.c ****   * @brief  Fills each USART_InitStruct member with its default value.
 277:../../source/src/FWlib/src/stm32f10x_usart.c ****   * @param  USART_InitStruct: pointer to a USART_InitTypeDef structure
 278:../../source/src/FWlib/src/stm32f10x_usart.c ****   *         which will be initialized.
 279:../../source/src/FWlib/src/stm32f10x_usart.c ****   * @retval None
 280:../../source/src/FWlib/src/stm32f10x_usart.c ****   */
 281:../../source/src/FWlib/src/stm32f10x_usart.c **** void USART_StructInit(USART_InitTypeDef* USART_InitStruct)
 282:../../source/src/FWlib/src/stm32f10x_usart.c **** {
 346              		.loc 1 282 0
 347              		.cfi_startproc
 348              		@ args = 0, pretend = 0, frame = 0
 349              		@ frame_needed = 0, uses_anonymous_args = 0
 350              		@ link register save eliminated.
 351              	.LVL43:
 283:../../source/src/FWlib/src/stm32f10x_usart.c ****   /* USART_InitStruct members default value */
 284:../../source/src/FWlib/src/stm32f10x_usart.c ****   USART_InitStruct->USART_BaudRate = 9600;
 352              		.loc 1 284 0
 353 0164 0023     		movs	r3, #0
 354 0166 4FF41651 		mov	r1, #9600
 285:../../source/src/FWlib/src/stm32f10x_usart.c ****   USART_InitStruct->USART_WordLength = USART_WordLength_8b;
 286:../../source/src/FWlib/src/stm32f10x_usart.c ****   USART_InitStruct->USART_StopBits = USART_StopBits_1;
 355              		.loc 1 286 0
 356 016a 4FF44022 		mov	r2, #786432
 284:../../source/src/FWlib/src/stm32f10x_usart.c ****   USART_InitStruct->USART_WordLength = USART_WordLength_8b;
 357              		.loc 1 284 0
 358 016e 0160     		str	r1, [r0]
 359 0170 C0E90132 		strd	r3, r2, [r0, #4]
 287:../../source/src/FWlib/src/stm32f10x_usart.c ****   USART_InitStruct->USART_Parity = USART_Parity_No ;
 288:../../source/src/FWlib/src/stm32f10x_usart.c ****   USART_InitStruct->USART_Mode = USART_Mode_Rx | USART_Mode_Tx;
 360              		.loc 1 288 0
 361 0174 8381     		strh	r3, [r0, #12]	@ movhi
 289:../../source/src/FWlib/src/stm32f10x_usart.c ****   USART_InitStruct->USART_HardwareFlowControl = USART_HardwareFlowControl_None;  
 290:../../source/src/FWlib/src/stm32f10x_usart.c **** }
 362              		.loc 1 290 0
 363 0176 7047     		bx	lr
 364              		.cfi_endproc
 365              	.LFE31:
 366              		.size	USART_StructInit, .-USART_StructInit
 367              		.align	1
 368              		.p2align 2,,3
 369              		.global	USART_ClockInit
 370              		.syntax unified
 371              		.thumb
 372              		.thumb_func
 373              		.fpu softvfp
 374              		.type	USART_ClockInit, %function
 375              	USART_ClockInit:
ARM GAS  G:\Users\Jaxb\AppData\Local\Temp\cc7ygt2u.s 			page 13


 376              	.LFB32:
 291:../../source/src/FWlib/src/stm32f10x_usart.c **** 
 292:../../source/src/FWlib/src/stm32f10x_usart.c **** /**
 293:../../source/src/FWlib/src/stm32f10x_usart.c ****   * @brief  Initializes the USARTx peripheral Clock according to the 
 294:../../source/src/FWlib/src/stm32f10x_usart.c ****   *          specified parameters in the USART_ClockInitStruct .
 295:../../source/src/FWlib/src/stm32f10x_usart.c ****   * @param  USARTx: where x can be 1, 2, 3 to select the USART peripheral.
 296:../../source/src/FWlib/src/stm32f10x_usart.c ****   * @param  USART_ClockInitStruct: pointer to a USART_ClockInitTypeDef
 297:../../source/src/FWlib/src/stm32f10x_usart.c ****   *         structure that contains the configuration information for the specified 
 298:../../source/src/FWlib/src/stm32f10x_usart.c ****   *         USART peripheral.  
 299:../../source/src/FWlib/src/stm32f10x_usart.c ****   * @note The Smart Card and Synchronous modes are not available for UART4 and UART5.
 300:../../source/src/FWlib/src/stm32f10x_usart.c ****   * @retval None
 301:../../source/src/FWlib/src/stm32f10x_usart.c ****   */
 302:../../source/src/FWlib/src/stm32f10x_usart.c **** void USART_ClockInit(USART_TypeDef* USARTx, USART_ClockInitTypeDef* USART_ClockInitStruct)
 303:../../source/src/FWlib/src/stm32f10x_usart.c **** {
 377              		.loc 1 303 0
 378              		.cfi_startproc
 379              		@ args = 0, pretend = 0, frame = 0
 380              		@ frame_needed = 0, uses_anonymous_args = 0
 381              		@ link register save eliminated.
 382              	.LVL44:
 383 0178 30B4     		push	{r4, r5}
 384              	.LCFI15:
 385              		.cfi_def_cfa_offset 8
 386              		.cfi_offset 4, -8
 387              		.cfi_offset 5, -4
 304:../../source/src/FWlib/src/stm32f10x_usart.c ****   uint32_t tmpreg = 0x00;
 305:../../source/src/FWlib/src/stm32f10x_usart.c ****   /* Check the parameters */
 306:../../source/src/FWlib/src/stm32f10x_usart.c ****   assert_param(IS_USART_123_PERIPH(USARTx));
 307:../../source/src/FWlib/src/stm32f10x_usart.c ****   assert_param(IS_USART_CLOCK(USART_ClockInitStruct->USART_Clock));
 308:../../source/src/FWlib/src/stm32f10x_usart.c ****   assert_param(IS_USART_CPOL(USART_ClockInitStruct->USART_CPOL));
 309:../../source/src/FWlib/src/stm32f10x_usart.c ****   assert_param(IS_USART_CPHA(USART_ClockInitStruct->USART_CPHA));
 310:../../source/src/FWlib/src/stm32f10x_usart.c ****   assert_param(IS_USART_LASTBIT(USART_ClockInitStruct->USART_LastBit));
 311:../../source/src/FWlib/src/stm32f10x_usart.c ****   
 312:../../source/src/FWlib/src/stm32f10x_usart.c **** /*---------------------------- USART CR2 Configuration -----------------------*/
 313:../../source/src/FWlib/src/stm32f10x_usart.c ****   tmpreg = USARTx->CR2;
 314:../../source/src/FWlib/src/stm32f10x_usart.c ****   /* Clear CLKEN, CPOL, CPHA and LBCL bits */
 315:../../source/src/FWlib/src/stm32f10x_usart.c ****   tmpreg &= CR2_CLOCK_CLEAR_Mask;
 316:../../source/src/FWlib/src/stm32f10x_usart.c ****   /* Configure the USART Clock, CPOL, CPHA and LastBit ------------*/
 317:../../source/src/FWlib/src/stm32f10x_usart.c ****   /* Set CLKEN bit according to USART_Clock value */
 318:../../source/src/FWlib/src/stm32f10x_usart.c ****   /* Set CPOL bit according to USART_CPOL value */
 319:../../source/src/FWlib/src/stm32f10x_usart.c ****   /* Set CPHA bit according to USART_CPHA value */
 320:../../source/src/FWlib/src/stm32f10x_usart.c ****   /* Set LBCL bit according to USART_LastBit value */
 321:../../source/src/FWlib/src/stm32f10x_usart.c ****   tmpreg |= (uint32_t)USART_ClockInitStruct->USART_Clock | USART_ClockInitStruct->USART_CPOL | 
 322:../../source/src/FWlib/src/stm32f10x_usart.c ****                  USART_ClockInitStruct->USART_CPHA | USART_ClockInitStruct->USART_LastBit;
 388              		.loc 1 322 0
 389 017a 0B88     		ldrh	r3, [r1]
 390 017c 4D88     		ldrh	r5, [r1, #2]
 391 017e 8C88     		ldrh	r4, [r1, #4]
 313:../../source/src/FWlib/src/stm32f10x_usart.c ****   /* Clear CLKEN, CPOL, CPHA and LBCL bits */
 392              		.loc 1 313 0
 393 0180 028A     		ldrh	r2, [r0, #16]
 394              		.loc 1 322 0
 395 0182 2B43     		orrs	r3, r3, r5
 396 0184 C988     		ldrh	r1, [r1, #6]
 397              	.LVL45:
 398 0186 2343     		orrs	r3, r3, r4
 313:../../source/src/FWlib/src/stm32f10x_usart.c ****   /* Clear CLKEN, CPOL, CPHA and LBCL bits */
ARM GAS  G:\Users\Jaxb\AppData\Local\Temp\cc7ygt2u.s 			page 14


 399              		.loc 1 313 0
 400 0188 92B2     		uxth	r2, r2
 401              	.LVL46:
 402              		.loc 1 322 0
 403 018a 0B43     		orrs	r3, r3, r1
 404 018c 22F47062 		bic	r2, r2, #3840
 405              	.LVL47:
 406 0190 1343     		orrs	r3, r3, r2
 407              	.LVL48:
 323:../../source/src/FWlib/src/stm32f10x_usart.c ****   /* Write to USART CR2 */
 324:../../source/src/FWlib/src/stm32f10x_usart.c ****   USARTx->CR2 = (uint16_t)tmpreg;
 408              		.loc 1 324 0
 409 0192 0382     		strh	r3, [r0, #16]	@ movhi
 325:../../source/src/FWlib/src/stm32f10x_usart.c **** }
 410              		.loc 1 325 0
 411 0194 30BC     		pop	{r4, r5}
 412              	.LCFI16:
 413              		.cfi_restore 5
 414              		.cfi_restore 4
 415              		.cfi_def_cfa_offset 0
 416 0196 7047     		bx	lr
 417              		.cfi_endproc
 418              	.LFE32:
 419              		.size	USART_ClockInit, .-USART_ClockInit
 420              		.align	1
 421              		.p2align 2,,3
 422              		.global	USART_ClockStructInit
 423              		.syntax unified
 424              		.thumb
 425              		.thumb_func
 426              		.fpu softvfp
 427              		.type	USART_ClockStructInit, %function
 428              	USART_ClockStructInit:
 429              	.LFB33:
 326:../../source/src/FWlib/src/stm32f10x_usart.c **** 
 327:../../source/src/FWlib/src/stm32f10x_usart.c **** /**
 328:../../source/src/FWlib/src/stm32f10x_usart.c ****   * @brief  Fills each USART_ClockInitStruct member with its default value.
 329:../../source/src/FWlib/src/stm32f10x_usart.c ****   * @param  USART_ClockInitStruct: pointer to a USART_ClockInitTypeDef
 330:../../source/src/FWlib/src/stm32f10x_usart.c ****   *         structure which will be initialized.
 331:../../source/src/FWlib/src/stm32f10x_usart.c ****   * @retval None
 332:../../source/src/FWlib/src/stm32f10x_usart.c ****   */
 333:../../source/src/FWlib/src/stm32f10x_usart.c **** void USART_ClockStructInit(USART_ClockInitTypeDef* USART_ClockInitStruct)
 334:../../source/src/FWlib/src/stm32f10x_usart.c **** {
 430              		.loc 1 334 0
 431              		.cfi_startproc
 432              		@ args = 0, pretend = 0, frame = 0
 433              		@ frame_needed = 0, uses_anonymous_args = 0
 434              		@ link register save eliminated.
 435              	.LVL49:
 335:../../source/src/FWlib/src/stm32f10x_usart.c ****   /* USART_ClockInitStruct members default value */
 336:../../source/src/FWlib/src/stm32f10x_usart.c ****   USART_ClockInitStruct->USART_Clock = USART_Clock_Disable;
 436              		.loc 1 336 0
 437 0198 0023     		movs	r3, #0
 438 019a 0380     		strh	r3, [r0]	@ movhi
 337:../../source/src/FWlib/src/stm32f10x_usart.c ****   USART_ClockInitStruct->USART_CPOL = USART_CPOL_Low;
 439              		.loc 1 337 0
 440 019c 4380     		strh	r3, [r0, #2]	@ movhi
ARM GAS  G:\Users\Jaxb\AppData\Local\Temp\cc7ygt2u.s 			page 15


 338:../../source/src/FWlib/src/stm32f10x_usart.c ****   USART_ClockInitStruct->USART_CPHA = USART_CPHA_1Edge;
 441              		.loc 1 338 0
 442 019e 8380     		strh	r3, [r0, #4]	@ movhi
 339:../../source/src/FWlib/src/stm32f10x_usart.c ****   USART_ClockInitStruct->USART_LastBit = USART_LastBit_Disable;
 443              		.loc 1 339 0
 444 01a0 C380     		strh	r3, [r0, #6]	@ movhi
 340:../../source/src/FWlib/src/stm32f10x_usart.c **** }
 445              		.loc 1 340 0
 446 01a2 7047     		bx	lr
 447              		.cfi_endproc
 448              	.LFE33:
 449              		.size	USART_ClockStructInit, .-USART_ClockStructInit
 450              		.align	1
 451              		.p2align 2,,3
 452              		.global	USART_Cmd
 453              		.syntax unified
 454              		.thumb
 455              		.thumb_func
 456              		.fpu softvfp
 457              		.type	USART_Cmd, %function
 458              	USART_Cmd:
 459              	.LFB34:
 341:../../source/src/FWlib/src/stm32f10x_usart.c **** 
 342:../../source/src/FWlib/src/stm32f10x_usart.c **** /**
 343:../../source/src/FWlib/src/stm32f10x_usart.c ****   * @brief  Enables or disables the specified USART peripheral.
 344:../../source/src/FWlib/src/stm32f10x_usart.c ****   * @param  USARTx: Select the USART or the UART peripheral. 
 345:../../source/src/FWlib/src/stm32f10x_usart.c ****   *         This parameter can be one of the following values:
 346:../../source/src/FWlib/src/stm32f10x_usart.c ****   *           USART1, USART2, USART3, UART4 or UART5.
 347:../../source/src/FWlib/src/stm32f10x_usart.c ****   * @param  NewState: new state of the USARTx peripheral.
 348:../../source/src/FWlib/src/stm32f10x_usart.c ****   *         This parameter can be: ENABLE or DISABLE.
 349:../../source/src/FWlib/src/stm32f10x_usart.c ****   * @retval None
 350:../../source/src/FWlib/src/stm32f10x_usart.c ****   */
 351:../../source/src/FWlib/src/stm32f10x_usart.c **** void USART_Cmd(USART_TypeDef* USARTx, FunctionalState NewState)
 352:../../source/src/FWlib/src/stm32f10x_usart.c **** {
 460              		.loc 1 352 0
 461              		.cfi_startproc
 462              		@ args = 0, pretend = 0, frame = 0
 463              		@ frame_needed = 0, uses_anonymous_args = 0
 464              		@ link register save eliminated.
 465              	.LVL50:
 353:../../source/src/FWlib/src/stm32f10x_usart.c ****   /* Check the parameters */
 354:../../source/src/FWlib/src/stm32f10x_usart.c ****   assert_param(IS_USART_ALL_PERIPH(USARTx));
 355:../../source/src/FWlib/src/stm32f10x_usart.c ****   assert_param(IS_FUNCTIONAL_STATE(NewState));
 356:../../source/src/FWlib/src/stm32f10x_usart.c ****   
 357:../../source/src/FWlib/src/stm32f10x_usart.c ****   if (NewState != DISABLE)
 358:../../source/src/FWlib/src/stm32f10x_usart.c ****   {
 359:../../source/src/FWlib/src/stm32f10x_usart.c ****     /* Enable the selected USART by setting the UE bit in the CR1 register */
 360:../../source/src/FWlib/src/stm32f10x_usart.c ****     USARTx->CR1 |= CR1_UE_Set;
 466              		.loc 1 360 0
 467 01a4 8389     		ldrh	r3, [r0, #12]
 357:../../source/src/FWlib/src/stm32f10x_usart.c ****   {
 468              		.loc 1 357 0
 469 01a6 29B9     		cbnz	r1, .L31
 361:../../source/src/FWlib/src/stm32f10x_usart.c ****   }
 362:../../source/src/FWlib/src/stm32f10x_usart.c ****   else
 363:../../source/src/FWlib/src/stm32f10x_usart.c ****   {
 364:../../source/src/FWlib/src/stm32f10x_usart.c ****     /* Disable the selected USART by clearing the UE bit in the CR1 register */
ARM GAS  G:\Users\Jaxb\AppData\Local\Temp\cc7ygt2u.s 			page 16


 365:../../source/src/FWlib/src/stm32f10x_usart.c ****     USARTx->CR1 &= CR1_UE_Reset;
 470              		.loc 1 365 0
 471 01a8 23F40053 		bic	r3, r3, #8192
 472 01ac 1B04     		lsls	r3, r3, #16
 473 01ae 1B0C     		lsrs	r3, r3, #16
 474 01b0 8381     		strh	r3, [r0, #12]	@ movhi
 366:../../source/src/FWlib/src/stm32f10x_usart.c ****   }
 367:../../source/src/FWlib/src/stm32f10x_usart.c **** }
 475              		.loc 1 367 0
 476 01b2 7047     		bx	lr
 477              	.L31:
 360:../../source/src/FWlib/src/stm32f10x_usart.c ****   }
 478              		.loc 1 360 0
 479 01b4 43F40053 		orr	r3, r3, #8192
 480 01b8 8381     		strh	r3, [r0, #12]	@ movhi
 481 01ba 7047     		bx	lr
 482              		.cfi_endproc
 483              	.LFE34:
 484              		.size	USART_Cmd, .-USART_Cmd
 485              		.align	1
 486              		.p2align 2,,3
 487              		.global	USART_ITConfig
 488              		.syntax unified
 489              		.thumb
 490              		.thumb_func
 491              		.fpu softvfp
 492              		.type	USART_ITConfig, %function
 493              	USART_ITConfig:
 494              	.LFB35:
 368:../../source/src/FWlib/src/stm32f10x_usart.c **** 
 369:../../source/src/FWlib/src/stm32f10x_usart.c **** /**
 370:../../source/src/FWlib/src/stm32f10x_usart.c ****   * @brief  Enables or disables the specified USART interrupts.
 371:../../source/src/FWlib/src/stm32f10x_usart.c ****   * @param  USARTx: Select the USART or the UART peripheral. 
 372:../../source/src/FWlib/src/stm32f10x_usart.c ****   *   This parameter can be one of the following values:
 373:../../source/src/FWlib/src/stm32f10x_usart.c ****   *   USART1, USART2, USART3, UART4 or UART5.
 374:../../source/src/FWlib/src/stm32f10x_usart.c ****   * @param  USART_IT: specifies the USART interrupt sources to be enabled or disabled.
 375:../../source/src/FWlib/src/stm32f10x_usart.c ****   *   This parameter can be one of the following values:
 376:../../source/src/FWlib/src/stm32f10x_usart.c ****   *     @arg USART_IT_CTS:  CTS change interrupt (not available for UART4 and UART5)
 377:../../source/src/FWlib/src/stm32f10x_usart.c ****   *     @arg USART_IT_LBD:  LIN Break detection interrupt
 378:../../source/src/FWlib/src/stm32f10x_usart.c ****   *     @arg USART_IT_TXE:  Transmit Data Register empty interrupt
 379:../../source/src/FWlib/src/stm32f10x_usart.c ****   *     @arg USART_IT_TC:   Transmission complete interrupt
 380:../../source/src/FWlib/src/stm32f10x_usart.c ****   *     @arg USART_IT_RXNE: Receive Data register not empty interrupt
 381:../../source/src/FWlib/src/stm32f10x_usart.c ****   *     @arg USART_IT_IDLE: Idle line detection interrupt
 382:../../source/src/FWlib/src/stm32f10x_usart.c ****   *     @arg USART_IT_PE:   Parity Error interrupt
 383:../../source/src/FWlib/src/stm32f10x_usart.c ****   *     @arg USART_IT_ERR:  Error interrupt(Frame error, noise error, overrun error)
 384:../../source/src/FWlib/src/stm32f10x_usart.c ****   * @param  NewState: new state of the specified USARTx interrupts.
 385:../../source/src/FWlib/src/stm32f10x_usart.c ****   *   This parameter can be: ENABLE or DISABLE.
 386:../../source/src/FWlib/src/stm32f10x_usart.c ****   * @retval None
 387:../../source/src/FWlib/src/stm32f10x_usart.c ****   */
 388:../../source/src/FWlib/src/stm32f10x_usart.c **** void USART_ITConfig(USART_TypeDef* USARTx, uint16_t USART_IT, FunctionalState NewState)
 389:../../source/src/FWlib/src/stm32f10x_usart.c **** {
 495              		.loc 1 389 0
 496              		.cfi_startproc
 497              		@ args = 0, pretend = 0, frame = 0
 498              		@ frame_needed = 0, uses_anonymous_args = 0
 499              		@ link register save eliminated.
 500              	.LVL51:
ARM GAS  G:\Users\Jaxb\AppData\Local\Temp\cc7ygt2u.s 			page 17


 390:../../source/src/FWlib/src/stm32f10x_usart.c ****   uint32_t usartreg = 0x00, itpos = 0x00, itmask = 0x00;
 391:../../source/src/FWlib/src/stm32f10x_usart.c ****   uint32_t usartxbase = 0x00;
 392:../../source/src/FWlib/src/stm32f10x_usart.c ****   /* Check the parameters */
 393:../../source/src/FWlib/src/stm32f10x_usart.c ****   assert_param(IS_USART_ALL_PERIPH(USARTx));
 394:../../source/src/FWlib/src/stm32f10x_usart.c ****   assert_param(IS_USART_CONFIG_IT(USART_IT));
 395:../../source/src/FWlib/src/stm32f10x_usart.c ****   assert_param(IS_FUNCTIONAL_STATE(NewState));
 396:../../source/src/FWlib/src/stm32f10x_usart.c ****   /* The CTS interrupt is not available for UART4 and UART5 */
 397:../../source/src/FWlib/src/stm32f10x_usart.c ****   if (USART_IT == USART_IT_CTS)
 398:../../source/src/FWlib/src/stm32f10x_usart.c ****   {
 399:../../source/src/FWlib/src/stm32f10x_usart.c ****     assert_param(IS_USART_123_PERIPH(USARTx));
 400:../../source/src/FWlib/src/stm32f10x_usart.c ****   }   
 401:../../source/src/FWlib/src/stm32f10x_usart.c ****   
 402:../../source/src/FWlib/src/stm32f10x_usart.c ****   usartxbase = (uint32_t)USARTx;
 403:../../source/src/FWlib/src/stm32f10x_usart.c **** 
 404:../../source/src/FWlib/src/stm32f10x_usart.c ****   /* Get the USART register index */
 405:../../source/src/FWlib/src/stm32f10x_usart.c ****   usartreg = (((uint8_t)USART_IT) >> 0x05);
 406:../../source/src/FWlib/src/stm32f10x_usart.c **** 
 407:../../source/src/FWlib/src/stm32f10x_usart.c ****   /* Get the interrupt position */
 408:../../source/src/FWlib/src/stm32f10x_usart.c ****   itpos = USART_IT & IT_Mask;
 409:../../source/src/FWlib/src/stm32f10x_usart.c ****   itmask = (((uint32_t)0x01) << itpos);
 501              		.loc 1 409 0
 502 01bc 0123     		movs	r3, #1
 389:../../source/src/FWlib/src/stm32f10x_usart.c ****   uint32_t usartreg = 0x00, itpos = 0x00, itmask = 0x00;
 503              		.loc 1 389 0
 504 01be 10B4     		push	{r4}
 505              	.LCFI17:
 506              		.cfi_def_cfa_offset 4
 507              		.cfi_offset 4, -4
 408:../../source/src/FWlib/src/stm32f10x_usart.c ****   itmask = (((uint32_t)0x01) << itpos);
 508              		.loc 1 408 0
 509 01c0 01F01F04 		and	r4, r1, #31
 405:../../source/src/FWlib/src/stm32f10x_usart.c **** 
 510              		.loc 1 405 0
 511 01c4 C1F34211 		ubfx	r1, r1, #5, #3
 512              	.LVL52:
 410:../../source/src/FWlib/src/stm32f10x_usart.c ****     
 411:../../source/src/FWlib/src/stm32f10x_usart.c ****   if (usartreg == 0x01) /* The IT is in CR1 register */
 513              		.loc 1 411 0
 514 01c8 0129     		cmp	r1, #1
 409:../../source/src/FWlib/src/stm32f10x_usart.c ****     
 515              		.loc 1 409 0
 516 01ca 03FA04F3 		lsl	r3, r3, r4
 517              	.LVL53:
 518              		.loc 1 411 0
 519 01ce 0FD0     		beq	.L38
 412:../../source/src/FWlib/src/stm32f10x_usart.c ****   {
 413:../../source/src/FWlib/src/stm32f10x_usart.c ****     usartxbase += 0x0C;
 414:../../source/src/FWlib/src/stm32f10x_usart.c ****   }
 415:../../source/src/FWlib/src/stm32f10x_usart.c ****   else if (usartreg == 0x02) /* The IT is in CR2 register */
 520              		.loc 1 415 0
 521 01d0 0229     		cmp	r1, #2
 416:../../source/src/FWlib/src/stm32f10x_usart.c ****   {
 417:../../source/src/FWlib/src/stm32f10x_usart.c ****     usartxbase += 0x10;
 522              		.loc 1 417 0
 523 01d2 0CBF     		ite	eq
 524 01d4 1030     		addeq	r0, r0, #16
 525              	.LVL54:
ARM GAS  G:\Users\Jaxb\AppData\Local\Temp\cc7ygt2u.s 			page 18


 418:../../source/src/FWlib/src/stm32f10x_usart.c ****   }
 419:../../source/src/FWlib/src/stm32f10x_usart.c ****   else /* The IT is in CR3 register */
 420:../../source/src/FWlib/src/stm32f10x_usart.c ****   {
 421:../../source/src/FWlib/src/stm32f10x_usart.c ****     usartxbase += 0x14; 
 526              		.loc 1 421 0
 527 01d6 1430     		addne	r0, r0, #20
 528              	.LVL55:
 529              	.L34:
 422:../../source/src/FWlib/src/stm32f10x_usart.c ****   }
 423:../../source/src/FWlib/src/stm32f10x_usart.c ****   if (NewState != DISABLE)
 530              		.loc 1 423 0
 531 01d8 2AB9     		cbnz	r2, .L39
 424:../../source/src/FWlib/src/stm32f10x_usart.c ****   {
 425:../../source/src/FWlib/src/stm32f10x_usart.c ****     *(__IO uint32_t*)usartxbase  |= itmask;
 426:../../source/src/FWlib/src/stm32f10x_usart.c ****   }
 427:../../source/src/FWlib/src/stm32f10x_usart.c ****   else
 428:../../source/src/FWlib/src/stm32f10x_usart.c ****   {
 429:../../source/src/FWlib/src/stm32f10x_usart.c ****     *(__IO uint32_t*)usartxbase &= ~itmask;
 532              		.loc 1 429 0
 533 01da 0268     		ldr	r2, [r0]
 534              	.LVL56:
 430:../../source/src/FWlib/src/stm32f10x_usart.c ****   }
 431:../../source/src/FWlib/src/stm32f10x_usart.c **** }
 535              		.loc 1 431 0
 536 01dc 10BC     		pop	{r4}
 537              	.LCFI18:
 538              		.cfi_remember_state
 539              		.cfi_restore 4
 540              		.cfi_def_cfa_offset 0
 429:../../source/src/FWlib/src/stm32f10x_usart.c ****   }
 541              		.loc 1 429 0
 542 01de 22EA0303 		bic	r3, r2, r3
 543              	.LVL57:
 544 01e2 0360     		str	r3, [r0]
 545              		.loc 1 431 0
 546 01e4 7047     		bx	lr
 547              	.LVL58:
 548              	.L39:
 549              	.LCFI19:
 550              		.cfi_restore_state
 425:../../source/src/FWlib/src/stm32f10x_usart.c ****   }
 551              		.loc 1 425 0
 552 01e6 0268     		ldr	r2, [r0]
 553              	.LVL59:
 554              		.loc 1 431 0
 555 01e8 10BC     		pop	{r4}
 556              	.LCFI20:
 557              		.cfi_remember_state
 558              		.cfi_restore 4
 559              		.cfi_def_cfa_offset 0
 425:../../source/src/FWlib/src/stm32f10x_usart.c ****   }
 560              		.loc 1 425 0
 561 01ea 1343     		orrs	r3, r3, r2
 562              	.LVL60:
 563 01ec 0360     		str	r3, [r0]
 564              		.loc 1 431 0
 565 01ee 7047     		bx	lr
ARM GAS  G:\Users\Jaxb\AppData\Local\Temp\cc7ygt2u.s 			page 19


 566              	.LVL61:
 567              	.L38:
 568              	.LCFI21:
 569              		.cfi_restore_state
 413:../../source/src/FWlib/src/stm32f10x_usart.c ****   }
 570              		.loc 1 413 0
 571 01f0 0C30     		adds	r0, r0, #12
 572              	.LVL62:
 573 01f2 F1E7     		b	.L34
 574              		.cfi_endproc
 575              	.LFE35:
 576              		.size	USART_ITConfig, .-USART_ITConfig
 577              		.align	1
 578              		.p2align 2,,3
 579              		.global	USART_DMACmd
 580              		.syntax unified
 581              		.thumb
 582              		.thumb_func
 583              		.fpu softvfp
 584              		.type	USART_DMACmd, %function
 585              	USART_DMACmd:
 586              	.LFB36:
 432:../../source/src/FWlib/src/stm32f10x_usart.c **** 
 433:../../source/src/FWlib/src/stm32f10x_usart.c **** /**
 434:../../source/src/FWlib/src/stm32f10x_usart.c ****   * @brief  Enables or disables the USARTs DMA interface.
 435:../../source/src/FWlib/src/stm32f10x_usart.c ****   * @param  USARTx: Select the USART or the UART peripheral. 
 436:../../source/src/FWlib/src/stm32f10x_usart.c ****   *   This parameter can be one of the following values:
 437:../../source/src/FWlib/src/stm32f10x_usart.c ****   *   USART1, USART2, USART3, UART4 or UART5.
 438:../../source/src/FWlib/src/stm32f10x_usart.c ****   * @param  USART_DMAReq: specifies the DMA request.
 439:../../source/src/FWlib/src/stm32f10x_usart.c ****   *   This parameter can be any combination of the following values:
 440:../../source/src/FWlib/src/stm32f10x_usart.c ****   *     @arg USART_DMAReq_Tx: USART DMA transmit request
 441:../../source/src/FWlib/src/stm32f10x_usart.c ****   *     @arg USART_DMAReq_Rx: USART DMA receive request
 442:../../source/src/FWlib/src/stm32f10x_usart.c ****   * @param  NewState: new state of the DMA Request sources.
 443:../../source/src/FWlib/src/stm32f10x_usart.c ****   *   This parameter can be: ENABLE or DISABLE.
 444:../../source/src/FWlib/src/stm32f10x_usart.c ****   * @note The DMA mode is not available for UART5 except in the STM32
 445:../../source/src/FWlib/src/stm32f10x_usart.c ****   *       High density value line devices(STM32F10X_HD_VL).  
 446:../../source/src/FWlib/src/stm32f10x_usart.c ****   * @retval None
 447:../../source/src/FWlib/src/stm32f10x_usart.c ****   */
 448:../../source/src/FWlib/src/stm32f10x_usart.c **** void USART_DMACmd(USART_TypeDef* USARTx, uint16_t USART_DMAReq, FunctionalState NewState)
 449:../../source/src/FWlib/src/stm32f10x_usart.c **** {
 587              		.loc 1 449 0
 588              		.cfi_startproc
 589              		@ args = 0, pretend = 0, frame = 0
 590              		@ frame_needed = 0, uses_anonymous_args = 0
 591              		@ link register save eliminated.
 592              	.LVL63:
 450:../../source/src/FWlib/src/stm32f10x_usart.c ****   /* Check the parameters */
 451:../../source/src/FWlib/src/stm32f10x_usart.c ****   assert_param(IS_USART_ALL_PERIPH(USARTx));
 452:../../source/src/FWlib/src/stm32f10x_usart.c ****   assert_param(IS_USART_DMAREQ(USART_DMAReq));  
 453:../../source/src/FWlib/src/stm32f10x_usart.c ****   assert_param(IS_FUNCTIONAL_STATE(NewState)); 
 454:../../source/src/FWlib/src/stm32f10x_usart.c ****   if (NewState != DISABLE)
 455:../../source/src/FWlib/src/stm32f10x_usart.c ****   {
 456:../../source/src/FWlib/src/stm32f10x_usart.c ****     /* Enable the DMA transfer for selected requests by setting the DMAT and/or
 457:../../source/src/FWlib/src/stm32f10x_usart.c ****        DMAR bits in the USART CR3 register */
 458:../../source/src/FWlib/src/stm32f10x_usart.c ****     USARTx->CR3 |= USART_DMAReq;
 593              		.loc 1 458 0
 594 01f4 838A     		ldrh	r3, [r0, #20]
ARM GAS  G:\Users\Jaxb\AppData\Local\Temp\cc7ygt2u.s 			page 20


 454:../../source/src/FWlib/src/stm32f10x_usart.c ****   {
 595              		.loc 1 454 0
 596 01f6 1AB9     		cbnz	r2, .L43
 459:../../source/src/FWlib/src/stm32f10x_usart.c ****   }
 460:../../source/src/FWlib/src/stm32f10x_usart.c ****   else
 461:../../source/src/FWlib/src/stm32f10x_usart.c ****   {
 462:../../source/src/FWlib/src/stm32f10x_usart.c ****     /* Disable the DMA transfer for selected requests by clearing the DMAT and/or
 463:../../source/src/FWlib/src/stm32f10x_usart.c ****        DMAR bits in the USART CR3 register */
 464:../../source/src/FWlib/src/stm32f10x_usart.c ****     USARTx->CR3 &= (uint16_t)~USART_DMAReq;
 597              		.loc 1 464 0
 598 01f8 23EA0101 		bic	r1, r3, r1
 599              	.LVL64:
 600 01fc 8182     		strh	r1, [r0, #20]	@ movhi
 465:../../source/src/FWlib/src/stm32f10x_usart.c ****   }
 466:../../source/src/FWlib/src/stm32f10x_usart.c **** }
 601              		.loc 1 466 0
 602 01fe 7047     		bx	lr
 603              	.LVL65:
 604              	.L43:
 458:../../source/src/FWlib/src/stm32f10x_usart.c ****   }
 605              		.loc 1 458 0
 606 0200 1943     		orrs	r1, r1, r3
 607              	.LVL66:
 608 0202 8182     		strh	r1, [r0, #20]	@ movhi
 609 0204 7047     		bx	lr
 610              		.cfi_endproc
 611              	.LFE36:
 612              		.size	USART_DMACmd, .-USART_DMACmd
 613              		.align	1
 614 0206 00BF     		.p2align 2,,3
 615              		.global	USART_SetAddress
 616              		.syntax unified
 617              		.thumb
 618              		.thumb_func
 619              		.fpu softvfp
 620              		.type	USART_SetAddress, %function
 621              	USART_SetAddress:
 622              	.LFB37:
 467:../../source/src/FWlib/src/stm32f10x_usart.c **** 
 468:../../source/src/FWlib/src/stm32f10x_usart.c **** /**
 469:../../source/src/FWlib/src/stm32f10x_usart.c ****   * @brief  Sets the address of the USART node.
 470:../../source/src/FWlib/src/stm32f10x_usart.c ****   * @param  USARTx: Select the USART or the UART peripheral. 
 471:../../source/src/FWlib/src/stm32f10x_usart.c ****   *   This parameter can be one of the following values:
 472:../../source/src/FWlib/src/stm32f10x_usart.c ****   *   USART1, USART2, USART3, UART4 or UART5.
 473:../../source/src/FWlib/src/stm32f10x_usart.c ****   * @param  USART_Address: Indicates the address of the USART node.
 474:../../source/src/FWlib/src/stm32f10x_usart.c ****   * @retval None
 475:../../source/src/FWlib/src/stm32f10x_usart.c ****   */
 476:../../source/src/FWlib/src/stm32f10x_usart.c **** void USART_SetAddress(USART_TypeDef* USARTx, uint8_t USART_Address)
 477:../../source/src/FWlib/src/stm32f10x_usart.c **** {
 623              		.loc 1 477 0
 624              		.cfi_startproc
 625              		@ args = 0, pretend = 0, frame = 0
 626              		@ frame_needed = 0, uses_anonymous_args = 0
 627              		@ link register save eliminated.
 628              	.LVL67:
 478:../../source/src/FWlib/src/stm32f10x_usart.c ****   /* Check the parameters */
 479:../../source/src/FWlib/src/stm32f10x_usart.c ****   assert_param(IS_USART_ALL_PERIPH(USARTx));
ARM GAS  G:\Users\Jaxb\AppData\Local\Temp\cc7ygt2u.s 			page 21


 480:../../source/src/FWlib/src/stm32f10x_usart.c ****   assert_param(IS_USART_ADDRESS(USART_Address)); 
 481:../../source/src/FWlib/src/stm32f10x_usart.c ****     
 482:../../source/src/FWlib/src/stm32f10x_usart.c ****   /* Clear the USART address */
 483:../../source/src/FWlib/src/stm32f10x_usart.c ****   USARTx->CR2 &= CR2_Address_Mask;
 629              		.loc 1 483 0
 630 0208 038A     		ldrh	r3, [r0, #16]
 631 020a 23F00F03 		bic	r3, r3, #15
 632 020e 1B04     		lsls	r3, r3, #16
 633 0210 1B0C     		lsrs	r3, r3, #16
 634 0212 0382     		strh	r3, [r0, #16]	@ movhi
 484:../../source/src/FWlib/src/stm32f10x_usart.c ****   /* Set the USART address node */
 485:../../source/src/FWlib/src/stm32f10x_usart.c ****   USARTx->CR2 |= USART_Address;
 635              		.loc 1 485 0
 636 0214 038A     		ldrh	r3, [r0, #16]
 637 0216 1943     		orrs	r1, r1, r3
 638              	.LVL68:
 639 0218 0182     		strh	r1, [r0, #16]	@ movhi
 486:../../source/src/FWlib/src/stm32f10x_usart.c **** }
 640              		.loc 1 486 0
 641 021a 7047     		bx	lr
 642              		.cfi_endproc
 643              	.LFE37:
 644              		.size	USART_SetAddress, .-USART_SetAddress
 645              		.align	1
 646              		.p2align 2,,3
 647              		.global	USART_WakeUpConfig
 648              		.syntax unified
 649              		.thumb
 650              		.thumb_func
 651              		.fpu softvfp
 652              		.type	USART_WakeUpConfig, %function
 653              	USART_WakeUpConfig:
 654              	.LFB38:
 487:../../source/src/FWlib/src/stm32f10x_usart.c **** 
 488:../../source/src/FWlib/src/stm32f10x_usart.c **** /**
 489:../../source/src/FWlib/src/stm32f10x_usart.c ****   * @brief  Selects the USART WakeUp method.
 490:../../source/src/FWlib/src/stm32f10x_usart.c ****   * @param  USARTx: Select the USART or the UART peripheral. 
 491:../../source/src/FWlib/src/stm32f10x_usart.c ****   *   This parameter can be one of the following values:
 492:../../source/src/FWlib/src/stm32f10x_usart.c ****   *   USART1, USART2, USART3, UART4 or UART5.
 493:../../source/src/FWlib/src/stm32f10x_usart.c ****   * @param  USART_WakeUp: specifies the USART wakeup method.
 494:../../source/src/FWlib/src/stm32f10x_usart.c ****   *   This parameter can be one of the following values:
 495:../../source/src/FWlib/src/stm32f10x_usart.c ****   *     @arg USART_WakeUp_IdleLine: WakeUp by an idle line detection
 496:../../source/src/FWlib/src/stm32f10x_usart.c ****   *     @arg USART_WakeUp_AddressMark: WakeUp by an address mark
 497:../../source/src/FWlib/src/stm32f10x_usart.c ****   * @retval None
 498:../../source/src/FWlib/src/stm32f10x_usart.c ****   */
 499:../../source/src/FWlib/src/stm32f10x_usart.c **** void USART_WakeUpConfig(USART_TypeDef* USARTx, uint16_t USART_WakeUp)
 500:../../source/src/FWlib/src/stm32f10x_usart.c **** {
 655              		.loc 1 500 0
 656              		.cfi_startproc
 657              		@ args = 0, pretend = 0, frame = 0
 658              		@ frame_needed = 0, uses_anonymous_args = 0
 659              		@ link register save eliminated.
 660              	.LVL69:
 501:../../source/src/FWlib/src/stm32f10x_usart.c ****   /* Check the parameters */
 502:../../source/src/FWlib/src/stm32f10x_usart.c ****   assert_param(IS_USART_ALL_PERIPH(USARTx));
 503:../../source/src/FWlib/src/stm32f10x_usart.c ****   assert_param(IS_USART_WAKEUP(USART_WakeUp));
 504:../../source/src/FWlib/src/stm32f10x_usart.c ****   
ARM GAS  G:\Users\Jaxb\AppData\Local\Temp\cc7ygt2u.s 			page 22


 505:../../source/src/FWlib/src/stm32f10x_usart.c ****   USARTx->CR1 &= CR1_WAKE_Mask;
 661              		.loc 1 505 0
 662 021c 8389     		ldrh	r3, [r0, #12]
 663 021e 23F40063 		bic	r3, r3, #2048
 664 0222 1B04     		lsls	r3, r3, #16
 665 0224 1B0C     		lsrs	r3, r3, #16
 666 0226 8381     		strh	r3, [r0, #12]	@ movhi
 506:../../source/src/FWlib/src/stm32f10x_usart.c ****   USARTx->CR1 |= USART_WakeUp;
 667              		.loc 1 506 0
 668 0228 8389     		ldrh	r3, [r0, #12]
 669 022a 1943     		orrs	r1, r1, r3
 670              	.LVL70:
 671 022c 8181     		strh	r1, [r0, #12]	@ movhi
 507:../../source/src/FWlib/src/stm32f10x_usart.c **** }
 672              		.loc 1 507 0
 673 022e 7047     		bx	lr
 674              		.cfi_endproc
 675              	.LFE38:
 676              		.size	USART_WakeUpConfig, .-USART_WakeUpConfig
 677              		.align	1
 678              		.p2align 2,,3
 679              		.global	USART_ReceiverWakeUpCmd
 680              		.syntax unified
 681              		.thumb
 682              		.thumb_func
 683              		.fpu softvfp
 684              		.type	USART_ReceiverWakeUpCmd, %function
 685              	USART_ReceiverWakeUpCmd:
 686              	.LFB39:
 508:../../source/src/FWlib/src/stm32f10x_usart.c **** 
 509:../../source/src/FWlib/src/stm32f10x_usart.c **** /**
 510:../../source/src/FWlib/src/stm32f10x_usart.c ****   * @brief  Determines if the USART is in mute mode or not.
 511:../../source/src/FWlib/src/stm32f10x_usart.c ****   * @param  USARTx: Select the USART or the UART peripheral. 
 512:../../source/src/FWlib/src/stm32f10x_usart.c ****   *   This parameter can be one of the following values:
 513:../../source/src/FWlib/src/stm32f10x_usart.c ****   *   USART1, USART2, USART3, UART4 or UART5.
 514:../../source/src/FWlib/src/stm32f10x_usart.c ****   * @param  NewState: new state of the USART mute mode.
 515:../../source/src/FWlib/src/stm32f10x_usart.c ****   *   This parameter can be: ENABLE or DISABLE.
 516:../../source/src/FWlib/src/stm32f10x_usart.c ****   * @retval None
 517:../../source/src/FWlib/src/stm32f10x_usart.c ****   */
 518:../../source/src/FWlib/src/stm32f10x_usart.c **** void USART_ReceiverWakeUpCmd(USART_TypeDef* USARTx, FunctionalState NewState)
 519:../../source/src/FWlib/src/stm32f10x_usart.c **** {
 687              		.loc 1 519 0
 688              		.cfi_startproc
 689              		@ args = 0, pretend = 0, frame = 0
 690              		@ frame_needed = 0, uses_anonymous_args = 0
 691              		@ link register save eliminated.
 692              	.LVL71:
 520:../../source/src/FWlib/src/stm32f10x_usart.c ****   /* Check the parameters */
 521:../../source/src/FWlib/src/stm32f10x_usart.c ****   assert_param(IS_USART_ALL_PERIPH(USARTx));
 522:../../source/src/FWlib/src/stm32f10x_usart.c ****   assert_param(IS_FUNCTIONAL_STATE(NewState)); 
 523:../../source/src/FWlib/src/stm32f10x_usart.c ****   
 524:../../source/src/FWlib/src/stm32f10x_usart.c ****   if (NewState != DISABLE)
 525:../../source/src/FWlib/src/stm32f10x_usart.c ****   {
 526:../../source/src/FWlib/src/stm32f10x_usart.c ****     /* Enable the USART mute mode  by setting the RWU bit in the CR1 register */
 527:../../source/src/FWlib/src/stm32f10x_usart.c ****     USARTx->CR1 |= CR1_RWU_Set;
 693              		.loc 1 527 0
 694 0230 8389     		ldrh	r3, [r0, #12]
ARM GAS  G:\Users\Jaxb\AppData\Local\Temp\cc7ygt2u.s 			page 23


 524:../../source/src/FWlib/src/stm32f10x_usart.c ****   {
 695              		.loc 1 524 0
 696 0232 29B9     		cbnz	r1, .L49
 528:../../source/src/FWlib/src/stm32f10x_usart.c ****   }
 529:../../source/src/FWlib/src/stm32f10x_usart.c ****   else
 530:../../source/src/FWlib/src/stm32f10x_usart.c ****   {
 531:../../source/src/FWlib/src/stm32f10x_usart.c ****     /* Disable the USART mute mode by clearing the RWU bit in the CR1 register */
 532:../../source/src/FWlib/src/stm32f10x_usart.c ****     USARTx->CR1 &= CR1_RWU_Reset;
 697              		.loc 1 532 0
 698 0234 23F00203 		bic	r3, r3, #2
 699 0238 1B04     		lsls	r3, r3, #16
 700 023a 1B0C     		lsrs	r3, r3, #16
 701 023c 8381     		strh	r3, [r0, #12]	@ movhi
 533:../../source/src/FWlib/src/stm32f10x_usart.c ****   }
 534:../../source/src/FWlib/src/stm32f10x_usart.c **** }
 702              		.loc 1 534 0
 703 023e 7047     		bx	lr
 704              	.L49:
 527:../../source/src/FWlib/src/stm32f10x_usart.c ****   }
 705              		.loc 1 527 0
 706 0240 43F00203 		orr	r3, r3, #2
 707 0244 8381     		strh	r3, [r0, #12]	@ movhi
 708 0246 7047     		bx	lr
 709              		.cfi_endproc
 710              	.LFE39:
 711              		.size	USART_ReceiverWakeUpCmd, .-USART_ReceiverWakeUpCmd
 712              		.align	1
 713              		.p2align 2,,3
 714              		.global	USART_LINBreakDetectLengthConfig
 715              		.syntax unified
 716              		.thumb
 717              		.thumb_func
 718              		.fpu softvfp
 719              		.type	USART_LINBreakDetectLengthConfig, %function
 720              	USART_LINBreakDetectLengthConfig:
 721              	.LFB40:
 535:../../source/src/FWlib/src/stm32f10x_usart.c **** 
 536:../../source/src/FWlib/src/stm32f10x_usart.c **** /**
 537:../../source/src/FWlib/src/stm32f10x_usart.c ****   * @brief  Sets the USART LIN Break detection length.
 538:../../source/src/FWlib/src/stm32f10x_usart.c ****   * @param  USARTx: Select the USART or the UART peripheral. 
 539:../../source/src/FWlib/src/stm32f10x_usart.c ****   *   This parameter can be one of the following values:
 540:../../source/src/FWlib/src/stm32f10x_usart.c ****   *   USART1, USART2, USART3, UART4 or UART5.
 541:../../source/src/FWlib/src/stm32f10x_usart.c ****   * @param  USART_LINBreakDetectLength: specifies the LIN break detection length.
 542:../../source/src/FWlib/src/stm32f10x_usart.c ****   *   This parameter can be one of the following values:
 543:../../source/src/FWlib/src/stm32f10x_usart.c ****   *     @arg USART_LINBreakDetectLength_10b: 10-bit break detection
 544:../../source/src/FWlib/src/stm32f10x_usart.c ****   *     @arg USART_LINBreakDetectLength_11b: 11-bit break detection
 545:../../source/src/FWlib/src/stm32f10x_usart.c ****   * @retval None
 546:../../source/src/FWlib/src/stm32f10x_usart.c ****   */
 547:../../source/src/FWlib/src/stm32f10x_usart.c **** void USART_LINBreakDetectLengthConfig(USART_TypeDef* USARTx, uint16_t USART_LINBreakDetectLength)
 548:../../source/src/FWlib/src/stm32f10x_usart.c **** {
 722              		.loc 1 548 0
 723              		.cfi_startproc
 724              		@ args = 0, pretend = 0, frame = 0
 725              		@ frame_needed = 0, uses_anonymous_args = 0
 726              		@ link register save eliminated.
 727              	.LVL72:
 549:../../source/src/FWlib/src/stm32f10x_usart.c ****   /* Check the parameters */
ARM GAS  G:\Users\Jaxb\AppData\Local\Temp\cc7ygt2u.s 			page 24


 550:../../source/src/FWlib/src/stm32f10x_usart.c ****   assert_param(IS_USART_ALL_PERIPH(USARTx));
 551:../../source/src/FWlib/src/stm32f10x_usart.c ****   assert_param(IS_USART_LIN_BREAK_DETECT_LENGTH(USART_LINBreakDetectLength));
 552:../../source/src/FWlib/src/stm32f10x_usart.c ****   
 553:../../source/src/FWlib/src/stm32f10x_usart.c ****   USARTx->CR2 &= CR2_LBDL_Mask;
 728              		.loc 1 553 0
 729 0248 038A     		ldrh	r3, [r0, #16]
 730 024a 23F02003 		bic	r3, r3, #32
 731 024e 1B04     		lsls	r3, r3, #16
 732 0250 1B0C     		lsrs	r3, r3, #16
 733 0252 0382     		strh	r3, [r0, #16]	@ movhi
 554:../../source/src/FWlib/src/stm32f10x_usart.c ****   USARTx->CR2 |= USART_LINBreakDetectLength;  
 734              		.loc 1 554 0
 735 0254 038A     		ldrh	r3, [r0, #16]
 736 0256 1943     		orrs	r1, r1, r3
 737              	.LVL73:
 738 0258 0182     		strh	r1, [r0, #16]	@ movhi
 555:../../source/src/FWlib/src/stm32f10x_usart.c **** }
 739              		.loc 1 555 0
 740 025a 7047     		bx	lr
 741              		.cfi_endproc
 742              	.LFE40:
 743              		.size	USART_LINBreakDetectLengthConfig, .-USART_LINBreakDetectLengthConfig
 744              		.align	1
 745              		.p2align 2,,3
 746              		.global	USART_LINCmd
 747              		.syntax unified
 748              		.thumb
 749              		.thumb_func
 750              		.fpu softvfp
 751              		.type	USART_LINCmd, %function
 752              	USART_LINCmd:
 753              	.LFB41:
 556:../../source/src/FWlib/src/stm32f10x_usart.c **** 
 557:../../source/src/FWlib/src/stm32f10x_usart.c **** /**
 558:../../source/src/FWlib/src/stm32f10x_usart.c ****   * @brief  Enables or disables the USARTs LIN mode.
 559:../../source/src/FWlib/src/stm32f10x_usart.c ****   * @param  USARTx: Select the USART or the UART peripheral. 
 560:../../source/src/FWlib/src/stm32f10x_usart.c ****   *   This parameter can be one of the following values:
 561:../../source/src/FWlib/src/stm32f10x_usart.c ****   *   USART1, USART2, USART3, UART4 or UART5.
 562:../../source/src/FWlib/src/stm32f10x_usart.c ****   * @param  NewState: new state of the USART LIN mode.
 563:../../source/src/FWlib/src/stm32f10x_usart.c ****   *   This parameter can be: ENABLE or DISABLE.
 564:../../source/src/FWlib/src/stm32f10x_usart.c ****   * @retval None
 565:../../source/src/FWlib/src/stm32f10x_usart.c ****   */
 566:../../source/src/FWlib/src/stm32f10x_usart.c **** void USART_LINCmd(USART_TypeDef* USARTx, FunctionalState NewState)
 567:../../source/src/FWlib/src/stm32f10x_usart.c **** {
 754              		.loc 1 567 0
 755              		.cfi_startproc
 756              		@ args = 0, pretend = 0, frame = 0
 757              		@ frame_needed = 0, uses_anonymous_args = 0
 758              		@ link register save eliminated.
 759              	.LVL74:
 568:../../source/src/FWlib/src/stm32f10x_usart.c ****   /* Check the parameters */
 569:../../source/src/FWlib/src/stm32f10x_usart.c ****   assert_param(IS_USART_ALL_PERIPH(USARTx));
 570:../../source/src/FWlib/src/stm32f10x_usart.c ****   assert_param(IS_FUNCTIONAL_STATE(NewState));
 571:../../source/src/FWlib/src/stm32f10x_usart.c ****   
 572:../../source/src/FWlib/src/stm32f10x_usart.c ****   if (NewState != DISABLE)
 573:../../source/src/FWlib/src/stm32f10x_usart.c ****   {
 574:../../source/src/FWlib/src/stm32f10x_usart.c ****     /* Enable the LIN mode by setting the LINEN bit in the CR2 register */
ARM GAS  G:\Users\Jaxb\AppData\Local\Temp\cc7ygt2u.s 			page 25


 575:../../source/src/FWlib/src/stm32f10x_usart.c ****     USARTx->CR2 |= CR2_LINEN_Set;
 760              		.loc 1 575 0
 761 025c 038A     		ldrh	r3, [r0, #16]
 572:../../source/src/FWlib/src/stm32f10x_usart.c ****   {
 762              		.loc 1 572 0
 763 025e 29B9     		cbnz	r1, .L54
 576:../../source/src/FWlib/src/stm32f10x_usart.c ****   }
 577:../../source/src/FWlib/src/stm32f10x_usart.c ****   else
 578:../../source/src/FWlib/src/stm32f10x_usart.c ****   {
 579:../../source/src/FWlib/src/stm32f10x_usart.c ****     /* Disable the LIN mode by clearing the LINEN bit in the CR2 register */
 580:../../source/src/FWlib/src/stm32f10x_usart.c ****     USARTx->CR2 &= CR2_LINEN_Reset;
 764              		.loc 1 580 0
 765 0260 23F48043 		bic	r3, r3, #16384
 766 0264 1B04     		lsls	r3, r3, #16
 767 0266 1B0C     		lsrs	r3, r3, #16
 768 0268 0382     		strh	r3, [r0, #16]	@ movhi
 581:../../source/src/FWlib/src/stm32f10x_usart.c ****   }
 582:../../source/src/FWlib/src/stm32f10x_usart.c **** }
 769              		.loc 1 582 0
 770 026a 7047     		bx	lr
 771              	.L54:
 575:../../source/src/FWlib/src/stm32f10x_usart.c ****   }
 772              		.loc 1 575 0
 773 026c 43F48043 		orr	r3, r3, #16384
 774 0270 0382     		strh	r3, [r0, #16]	@ movhi
 775 0272 7047     		bx	lr
 776              		.cfi_endproc
 777              	.LFE41:
 778              		.size	USART_LINCmd, .-USART_LINCmd
 779              		.align	1
 780              		.p2align 2,,3
 781              		.global	USART_SendData
 782              		.syntax unified
 783              		.thumb
 784              		.thumb_func
 785              		.fpu softvfp
 786              		.type	USART_SendData, %function
 787              	USART_SendData:
 788              	.LFB42:
 583:../../source/src/FWlib/src/stm32f10x_usart.c **** 
 584:../../source/src/FWlib/src/stm32f10x_usart.c **** /**
 585:../../source/src/FWlib/src/stm32f10x_usart.c ****   * @brief  Transmits single data through the USARTx peripheral.
 586:../../source/src/FWlib/src/stm32f10x_usart.c ****   * @param  USARTx: Select the USART or the UART peripheral. 
 587:../../source/src/FWlib/src/stm32f10x_usart.c ****   *   This parameter can be one of the following values:
 588:../../source/src/FWlib/src/stm32f10x_usart.c ****   *   USART1, USART2, USART3, UART4 or UART5.
 589:../../source/src/FWlib/src/stm32f10x_usart.c ****   * @param  Data: the data to transmit.
 590:../../source/src/FWlib/src/stm32f10x_usart.c ****   * @retval None
 591:../../source/src/FWlib/src/stm32f10x_usart.c ****   */
 592:../../source/src/FWlib/src/stm32f10x_usart.c **** void USART_SendData(USART_TypeDef* USARTx, uint16_t Data)
 593:../../source/src/FWlib/src/stm32f10x_usart.c **** {
 789              		.loc 1 593 0
 790              		.cfi_startproc
 791              		@ args = 0, pretend = 0, frame = 0
 792              		@ frame_needed = 0, uses_anonymous_args = 0
 793              		@ link register save eliminated.
 794              	.LVL75:
 594:../../source/src/FWlib/src/stm32f10x_usart.c ****   /* Check the parameters */
ARM GAS  G:\Users\Jaxb\AppData\Local\Temp\cc7ygt2u.s 			page 26


 595:../../source/src/FWlib/src/stm32f10x_usart.c ****   assert_param(IS_USART_ALL_PERIPH(USARTx));
 596:../../source/src/FWlib/src/stm32f10x_usart.c ****   assert_param(IS_USART_DATA(Data)); 
 597:../../source/src/FWlib/src/stm32f10x_usart.c ****     
 598:../../source/src/FWlib/src/stm32f10x_usart.c ****   /* Transmit Data */
 599:../../source/src/FWlib/src/stm32f10x_usart.c ****   USARTx->DR = (Data & (uint16_t)0x01FF);
 795              		.loc 1 599 0
 796 0274 C1F30801 		ubfx	r1, r1, #0, #9
 797              	.LVL76:
 798 0278 8180     		strh	r1, [r0, #4]	@ movhi
 600:../../source/src/FWlib/src/stm32f10x_usart.c **** }
 799              		.loc 1 600 0
 800 027a 7047     		bx	lr
 801              		.cfi_endproc
 802              	.LFE42:
 803              		.size	USART_SendData, .-USART_SendData
 804              		.align	1
 805              		.p2align 2,,3
 806              		.global	USART_ReceiveData
 807              		.syntax unified
 808              		.thumb
 809              		.thumb_func
 810              		.fpu softvfp
 811              		.type	USART_ReceiveData, %function
 812              	USART_ReceiveData:
 813              	.LFB43:
 601:../../source/src/FWlib/src/stm32f10x_usart.c **** 
 602:../../source/src/FWlib/src/stm32f10x_usart.c **** /**
 603:../../source/src/FWlib/src/stm32f10x_usart.c ****   * @brief  Returns the most recent received data by the USARTx peripheral.
 604:../../source/src/FWlib/src/stm32f10x_usart.c ****   * @param  USARTx: Select the USART or the UART peripheral. 
 605:../../source/src/FWlib/src/stm32f10x_usart.c ****   *   This parameter can be one of the following values:
 606:../../source/src/FWlib/src/stm32f10x_usart.c ****   *   USART1, USART2, USART3, UART4 or UART5.
 607:../../source/src/FWlib/src/stm32f10x_usart.c ****   * @retval The received data.
 608:../../source/src/FWlib/src/stm32f10x_usart.c ****   */
 609:../../source/src/FWlib/src/stm32f10x_usart.c **** uint16_t USART_ReceiveData(USART_TypeDef* USARTx)
 610:../../source/src/FWlib/src/stm32f10x_usart.c **** {
 814              		.loc 1 610 0
 815              		.cfi_startproc
 816              		@ args = 0, pretend = 0, frame = 0
 817              		@ frame_needed = 0, uses_anonymous_args = 0
 818              		@ link register save eliminated.
 819              	.LVL77:
 611:../../source/src/FWlib/src/stm32f10x_usart.c ****   /* Check the parameters */
 612:../../source/src/FWlib/src/stm32f10x_usart.c ****   assert_param(IS_USART_ALL_PERIPH(USARTx));
 613:../../source/src/FWlib/src/stm32f10x_usart.c ****   
 614:../../source/src/FWlib/src/stm32f10x_usart.c ****   /* Receive Data */
 615:../../source/src/FWlib/src/stm32f10x_usart.c ****   return (uint16_t)(USARTx->DR & (uint16_t)0x01FF);
 820              		.loc 1 615 0
 821 027c 8088     		ldrh	r0, [r0, #4]
 822              	.LVL78:
 616:../../source/src/FWlib/src/stm32f10x_usart.c **** }
 823              		.loc 1 616 0
 824 027e C0F30800 		ubfx	r0, r0, #0, #9
 825 0282 7047     		bx	lr
 826              		.cfi_endproc
 827              	.LFE43:
 828              		.size	USART_ReceiveData, .-USART_ReceiveData
 829              		.align	1
ARM GAS  G:\Users\Jaxb\AppData\Local\Temp\cc7ygt2u.s 			page 27


 830              		.p2align 2,,3
 831              		.global	USART_SendBreak
 832              		.syntax unified
 833              		.thumb
 834              		.thumb_func
 835              		.fpu softvfp
 836              		.type	USART_SendBreak, %function
 837              	USART_SendBreak:
 838              	.LFB44:
 617:../../source/src/FWlib/src/stm32f10x_usart.c **** 
 618:../../source/src/FWlib/src/stm32f10x_usart.c **** /**
 619:../../source/src/FWlib/src/stm32f10x_usart.c ****   * @brief  Transmits break characters.
 620:../../source/src/FWlib/src/stm32f10x_usart.c ****   * @param  USARTx: Select the USART or the UART peripheral. 
 621:../../source/src/FWlib/src/stm32f10x_usart.c ****   *   This parameter can be one of the following values:
 622:../../source/src/FWlib/src/stm32f10x_usart.c ****   *   USART1, USART2, USART3, UART4 or UART5.
 623:../../source/src/FWlib/src/stm32f10x_usart.c ****   * @retval None
 624:../../source/src/FWlib/src/stm32f10x_usart.c ****   */
 625:../../source/src/FWlib/src/stm32f10x_usart.c **** void USART_SendBreak(USART_TypeDef* USARTx)
 626:../../source/src/FWlib/src/stm32f10x_usart.c **** {
 839              		.loc 1 626 0
 840              		.cfi_startproc
 841              		@ args = 0, pretend = 0, frame = 0
 842              		@ frame_needed = 0, uses_anonymous_args = 0
 843              		@ link register save eliminated.
 844              	.LVL79:
 627:../../source/src/FWlib/src/stm32f10x_usart.c ****   /* Check the parameters */
 628:../../source/src/FWlib/src/stm32f10x_usart.c ****   assert_param(IS_USART_ALL_PERIPH(USARTx));
 629:../../source/src/FWlib/src/stm32f10x_usart.c ****   
 630:../../source/src/FWlib/src/stm32f10x_usart.c ****   /* Send break characters */
 631:../../source/src/FWlib/src/stm32f10x_usart.c ****   USARTx->CR1 |= CR1_SBK_Set;
 845              		.loc 1 631 0
 846 0284 8389     		ldrh	r3, [r0, #12]
 847 0286 43F00103 		orr	r3, r3, #1
 848 028a 8381     		strh	r3, [r0, #12]	@ movhi
 632:../../source/src/FWlib/src/stm32f10x_usart.c **** }
 849              		.loc 1 632 0
 850 028c 7047     		bx	lr
 851              		.cfi_endproc
 852              	.LFE44:
 853              		.size	USART_SendBreak, .-USART_SendBreak
 854              		.align	1
 855 028e 00BF     		.p2align 2,,3
 856              		.global	USART_SetGuardTime
 857              		.syntax unified
 858              		.thumb
 859              		.thumb_func
 860              		.fpu softvfp
 861              		.type	USART_SetGuardTime, %function
 862              	USART_SetGuardTime:
 863              	.LFB45:
 633:../../source/src/FWlib/src/stm32f10x_usart.c **** 
 634:../../source/src/FWlib/src/stm32f10x_usart.c **** /**
 635:../../source/src/FWlib/src/stm32f10x_usart.c ****   * @brief  Sets the specified USART guard time.
 636:../../source/src/FWlib/src/stm32f10x_usart.c ****   * @param  USARTx: where x can be 1, 2 or 3 to select the USART peripheral.
 637:../../source/src/FWlib/src/stm32f10x_usart.c ****   * @param  USART_GuardTime: specifies the guard time.
 638:../../source/src/FWlib/src/stm32f10x_usart.c ****   * @note The guard time bits are not available for UART4 and UART5.   
 639:../../source/src/FWlib/src/stm32f10x_usart.c ****   * @retval None
ARM GAS  G:\Users\Jaxb\AppData\Local\Temp\cc7ygt2u.s 			page 28


 640:../../source/src/FWlib/src/stm32f10x_usart.c ****   */
 641:../../source/src/FWlib/src/stm32f10x_usart.c **** void USART_SetGuardTime(USART_TypeDef* USARTx, uint8_t USART_GuardTime)
 642:../../source/src/FWlib/src/stm32f10x_usart.c **** {    
 864              		.loc 1 642 0
 865              		.cfi_startproc
 866              		@ args = 0, pretend = 0, frame = 0
 867              		@ frame_needed = 0, uses_anonymous_args = 0
 868              		@ link register save eliminated.
 869              	.LVL80:
 643:../../source/src/FWlib/src/stm32f10x_usart.c ****   /* Check the parameters */
 644:../../source/src/FWlib/src/stm32f10x_usart.c ****   assert_param(IS_USART_123_PERIPH(USARTx));
 645:../../source/src/FWlib/src/stm32f10x_usart.c ****   
 646:../../source/src/FWlib/src/stm32f10x_usart.c ****   /* Clear the USART Guard time */
 647:../../source/src/FWlib/src/stm32f10x_usart.c ****   USARTx->GTPR &= GTPR_LSB_Mask;
 870              		.loc 1 647 0
 871 0290 038B     		ldrh	r3, [r0, #24]
 872 0292 DBB2     		uxtb	r3, r3
 873 0294 0383     		strh	r3, [r0, #24]	@ movhi
 648:../../source/src/FWlib/src/stm32f10x_usart.c ****   /* Set the USART guard time */
 649:../../source/src/FWlib/src/stm32f10x_usart.c ****   USARTx->GTPR |= (uint16_t)((uint16_t)USART_GuardTime << 0x08);
 874              		.loc 1 649 0
 875 0296 038B     		ldrh	r3, [r0, #24]
 876 0298 43EA0121 		orr	r1, r3, r1, lsl #8
 877              	.LVL81:
 878 029c 0183     		strh	r1, [r0, #24]	@ movhi
 650:../../source/src/FWlib/src/stm32f10x_usart.c **** }
 879              		.loc 1 650 0
 880 029e 7047     		bx	lr
 881              		.cfi_endproc
 882              	.LFE45:
 883              		.size	USART_SetGuardTime, .-USART_SetGuardTime
 884              		.align	1
 885              		.p2align 2,,3
 886              		.global	USART_SetPrescaler
 887              		.syntax unified
 888              		.thumb
 889              		.thumb_func
 890              		.fpu softvfp
 891              		.type	USART_SetPrescaler, %function
 892              	USART_SetPrescaler:
 893              	.LFB46:
 651:../../source/src/FWlib/src/stm32f10x_usart.c **** 
 652:../../source/src/FWlib/src/stm32f10x_usart.c **** /**
 653:../../source/src/FWlib/src/stm32f10x_usart.c ****   * @brief  Sets the system clock prescaler.
 654:../../source/src/FWlib/src/stm32f10x_usart.c ****   * @param  USARTx: Select the USART or the UART peripheral. 
 655:../../source/src/FWlib/src/stm32f10x_usart.c ****   *   This parameter can be one of the following values:
 656:../../source/src/FWlib/src/stm32f10x_usart.c ****   *   USART1, USART2, USART3, UART4 or UART5.
 657:../../source/src/FWlib/src/stm32f10x_usart.c ****   * @param  USART_Prescaler: specifies the prescaler clock.  
 658:../../source/src/FWlib/src/stm32f10x_usart.c ****   * @note   The function is used for IrDA mode with UART4 and UART5.
 659:../../source/src/FWlib/src/stm32f10x_usart.c ****   * @retval None
 660:../../source/src/FWlib/src/stm32f10x_usart.c ****   */
 661:../../source/src/FWlib/src/stm32f10x_usart.c **** void USART_SetPrescaler(USART_TypeDef* USARTx, uint8_t USART_Prescaler)
 662:../../source/src/FWlib/src/stm32f10x_usart.c **** { 
 894              		.loc 1 662 0
 895              		.cfi_startproc
 896              		@ args = 0, pretend = 0, frame = 0
 897              		@ frame_needed = 0, uses_anonymous_args = 0
ARM GAS  G:\Users\Jaxb\AppData\Local\Temp\cc7ygt2u.s 			page 29


 898              		@ link register save eliminated.
 899              	.LVL82:
 663:../../source/src/FWlib/src/stm32f10x_usart.c ****   /* Check the parameters */
 664:../../source/src/FWlib/src/stm32f10x_usart.c ****   assert_param(IS_USART_ALL_PERIPH(USARTx));
 665:../../source/src/FWlib/src/stm32f10x_usart.c ****   
 666:../../source/src/FWlib/src/stm32f10x_usart.c ****   /* Clear the USART prescaler */
 667:../../source/src/FWlib/src/stm32f10x_usart.c ****   USARTx->GTPR &= GTPR_MSB_Mask;
 900              		.loc 1 667 0
 901 02a0 038B     		ldrh	r3, [r0, #24]
 902 02a2 03F47F43 		and	r3, r3, #65280
 903 02a6 0383     		strh	r3, [r0, #24]	@ movhi
 668:../../source/src/FWlib/src/stm32f10x_usart.c ****   /* Set the USART prescaler */
 669:../../source/src/FWlib/src/stm32f10x_usart.c ****   USARTx->GTPR |= USART_Prescaler;
 904              		.loc 1 669 0
 905 02a8 038B     		ldrh	r3, [r0, #24]
 906 02aa 1943     		orrs	r1, r1, r3
 907              	.LVL83:
 908 02ac 0183     		strh	r1, [r0, #24]	@ movhi
 670:../../source/src/FWlib/src/stm32f10x_usart.c **** }
 909              		.loc 1 670 0
 910 02ae 7047     		bx	lr
 911              		.cfi_endproc
 912              	.LFE46:
 913              		.size	USART_SetPrescaler, .-USART_SetPrescaler
 914              		.align	1
 915              		.p2align 2,,3
 916              		.global	USART_SmartCardCmd
 917              		.syntax unified
 918              		.thumb
 919              		.thumb_func
 920              		.fpu softvfp
 921              		.type	USART_SmartCardCmd, %function
 922              	USART_SmartCardCmd:
 923              	.LFB47:
 671:../../source/src/FWlib/src/stm32f10x_usart.c **** 
 672:../../source/src/FWlib/src/stm32f10x_usart.c **** /**
 673:../../source/src/FWlib/src/stm32f10x_usart.c ****   * @brief  Enables or disables the USARTs Smart Card mode.
 674:../../source/src/FWlib/src/stm32f10x_usart.c ****   * @param  USARTx: where x can be 1, 2 or 3 to select the USART peripheral.
 675:../../source/src/FWlib/src/stm32f10x_usart.c ****   * @param  NewState: new state of the Smart Card mode.
 676:../../source/src/FWlib/src/stm32f10x_usart.c ****   *   This parameter can be: ENABLE or DISABLE.     
 677:../../source/src/FWlib/src/stm32f10x_usart.c ****   * @note The Smart Card mode is not available for UART4 and UART5. 
 678:../../source/src/FWlib/src/stm32f10x_usart.c ****   * @retval None
 679:../../source/src/FWlib/src/stm32f10x_usart.c ****   */
 680:../../source/src/FWlib/src/stm32f10x_usart.c **** void USART_SmartCardCmd(USART_TypeDef* USARTx, FunctionalState NewState)
 681:../../source/src/FWlib/src/stm32f10x_usart.c **** {
 924              		.loc 1 681 0
 925              		.cfi_startproc
 926              		@ args = 0, pretend = 0, frame = 0
 927              		@ frame_needed = 0, uses_anonymous_args = 0
 928              		@ link register save eliminated.
 929              	.LVL84:
 682:../../source/src/FWlib/src/stm32f10x_usart.c ****   /* Check the parameters */
 683:../../source/src/FWlib/src/stm32f10x_usart.c ****   assert_param(IS_USART_123_PERIPH(USARTx));
 684:../../source/src/FWlib/src/stm32f10x_usart.c ****   assert_param(IS_FUNCTIONAL_STATE(NewState));
 685:../../source/src/FWlib/src/stm32f10x_usart.c ****   if (NewState != DISABLE)
 686:../../source/src/FWlib/src/stm32f10x_usart.c ****   {
 687:../../source/src/FWlib/src/stm32f10x_usart.c ****     /* Enable the SC mode by setting the SCEN bit in the CR3 register */
ARM GAS  G:\Users\Jaxb\AppData\Local\Temp\cc7ygt2u.s 			page 30


 688:../../source/src/FWlib/src/stm32f10x_usart.c ****     USARTx->CR3 |= CR3_SCEN_Set;
 930              		.loc 1 688 0
 931 02b0 838A     		ldrh	r3, [r0, #20]
 685:../../source/src/FWlib/src/stm32f10x_usart.c ****   {
 932              		.loc 1 685 0
 933 02b2 29B9     		cbnz	r1, .L63
 689:../../source/src/FWlib/src/stm32f10x_usart.c ****   }
 690:../../source/src/FWlib/src/stm32f10x_usart.c ****   else
 691:../../source/src/FWlib/src/stm32f10x_usart.c ****   {
 692:../../source/src/FWlib/src/stm32f10x_usart.c ****     /* Disable the SC mode by clearing the SCEN bit in the CR3 register */
 693:../../source/src/FWlib/src/stm32f10x_usart.c ****     USARTx->CR3 &= CR3_SCEN_Reset;
 934              		.loc 1 693 0
 935 02b4 23F02003 		bic	r3, r3, #32
 936 02b8 1B04     		lsls	r3, r3, #16
 937 02ba 1B0C     		lsrs	r3, r3, #16
 938 02bc 8382     		strh	r3, [r0, #20]	@ movhi
 694:../../source/src/FWlib/src/stm32f10x_usart.c ****   }
 695:../../source/src/FWlib/src/stm32f10x_usart.c **** }
 939              		.loc 1 695 0
 940 02be 7047     		bx	lr
 941              	.L63:
 688:../../source/src/FWlib/src/stm32f10x_usart.c ****   }
 942              		.loc 1 688 0
 943 02c0 43F02003 		orr	r3, r3, #32
 944 02c4 8382     		strh	r3, [r0, #20]	@ movhi
 945 02c6 7047     		bx	lr
 946              		.cfi_endproc
 947              	.LFE47:
 948              		.size	USART_SmartCardCmd, .-USART_SmartCardCmd
 949              		.align	1
 950              		.p2align 2,,3
 951              		.global	USART_SmartCardNACKCmd
 952              		.syntax unified
 953              		.thumb
 954              		.thumb_func
 955              		.fpu softvfp
 956              		.type	USART_SmartCardNACKCmd, %function
 957              	USART_SmartCardNACKCmd:
 958              	.LFB48:
 696:../../source/src/FWlib/src/stm32f10x_usart.c **** 
 697:../../source/src/FWlib/src/stm32f10x_usart.c **** /**
 698:../../source/src/FWlib/src/stm32f10x_usart.c ****   * @brief  Enables or disables NACK transmission.
 699:../../source/src/FWlib/src/stm32f10x_usart.c ****   * @param  USARTx: where x can be 1, 2 or 3 to select the USART peripheral. 
 700:../../source/src/FWlib/src/stm32f10x_usart.c ****   * @param  NewState: new state of the NACK transmission.
 701:../../source/src/FWlib/src/stm32f10x_usart.c ****   *   This parameter can be: ENABLE or DISABLE.  
 702:../../source/src/FWlib/src/stm32f10x_usart.c ****   * @note The Smart Card mode is not available for UART4 and UART5.
 703:../../source/src/FWlib/src/stm32f10x_usart.c ****   * @retval None
 704:../../source/src/FWlib/src/stm32f10x_usart.c ****   */
 705:../../source/src/FWlib/src/stm32f10x_usart.c **** void USART_SmartCardNACKCmd(USART_TypeDef* USARTx, FunctionalState NewState)
 706:../../source/src/FWlib/src/stm32f10x_usart.c **** {
 959              		.loc 1 706 0
 960              		.cfi_startproc
 961              		@ args = 0, pretend = 0, frame = 0
 962              		@ frame_needed = 0, uses_anonymous_args = 0
 963              		@ link register save eliminated.
 964              	.LVL85:
 707:../../source/src/FWlib/src/stm32f10x_usart.c ****   /* Check the parameters */
ARM GAS  G:\Users\Jaxb\AppData\Local\Temp\cc7ygt2u.s 			page 31


 708:../../source/src/FWlib/src/stm32f10x_usart.c ****   assert_param(IS_USART_123_PERIPH(USARTx));  
 709:../../source/src/FWlib/src/stm32f10x_usart.c ****   assert_param(IS_FUNCTIONAL_STATE(NewState));
 710:../../source/src/FWlib/src/stm32f10x_usart.c ****   if (NewState != DISABLE)
 711:../../source/src/FWlib/src/stm32f10x_usart.c ****   {
 712:../../source/src/FWlib/src/stm32f10x_usart.c ****     /* Enable the NACK transmission by setting the NACK bit in the CR3 register */
 713:../../source/src/FWlib/src/stm32f10x_usart.c ****     USARTx->CR3 |= CR3_NACK_Set;
 965              		.loc 1 713 0
 966 02c8 838A     		ldrh	r3, [r0, #20]
 710:../../source/src/FWlib/src/stm32f10x_usart.c ****   {
 967              		.loc 1 710 0
 968 02ca 29B9     		cbnz	r1, .L67
 714:../../source/src/FWlib/src/stm32f10x_usart.c ****   }
 715:../../source/src/FWlib/src/stm32f10x_usart.c ****   else
 716:../../source/src/FWlib/src/stm32f10x_usart.c ****   {
 717:../../source/src/FWlib/src/stm32f10x_usart.c ****     /* Disable the NACK transmission by clearing the NACK bit in the CR3 register */
 718:../../source/src/FWlib/src/stm32f10x_usart.c ****     USARTx->CR3 &= CR3_NACK_Reset;
 969              		.loc 1 718 0
 970 02cc 23F01003 		bic	r3, r3, #16
 971 02d0 1B04     		lsls	r3, r3, #16
 972 02d2 1B0C     		lsrs	r3, r3, #16
 973 02d4 8382     		strh	r3, [r0, #20]	@ movhi
 719:../../source/src/FWlib/src/stm32f10x_usart.c ****   }
 720:../../source/src/FWlib/src/stm32f10x_usart.c **** }
 974              		.loc 1 720 0
 975 02d6 7047     		bx	lr
 976              	.L67:
 713:../../source/src/FWlib/src/stm32f10x_usart.c ****   }
 977              		.loc 1 713 0
 978 02d8 43F01003 		orr	r3, r3, #16
 979 02dc 8382     		strh	r3, [r0, #20]	@ movhi
 980 02de 7047     		bx	lr
 981              		.cfi_endproc
 982              	.LFE48:
 983              		.size	USART_SmartCardNACKCmd, .-USART_SmartCardNACKCmd
 984              		.align	1
 985              		.p2align 2,,3
 986              		.global	USART_HalfDuplexCmd
 987              		.syntax unified
 988              		.thumb
 989              		.thumb_func
 990              		.fpu softvfp
 991              		.type	USART_HalfDuplexCmd, %function
 992              	USART_HalfDuplexCmd:
 993              	.LFB49:
 721:../../source/src/FWlib/src/stm32f10x_usart.c **** 
 722:../../source/src/FWlib/src/stm32f10x_usart.c **** /**
 723:../../source/src/FWlib/src/stm32f10x_usart.c ****   * @brief  Enables or disables the USARTs Half Duplex communication.
 724:../../source/src/FWlib/src/stm32f10x_usart.c ****   * @param  USARTx: Select the USART or the UART peripheral. 
 725:../../source/src/FWlib/src/stm32f10x_usart.c ****   *   This parameter can be one of the following values:
 726:../../source/src/FWlib/src/stm32f10x_usart.c ****   *   USART1, USART2, USART3, UART4 or UART5.
 727:../../source/src/FWlib/src/stm32f10x_usart.c ****   * @param  NewState: new state of the USART Communication.
 728:../../source/src/FWlib/src/stm32f10x_usart.c ****   *   This parameter can be: ENABLE or DISABLE.
 729:../../source/src/FWlib/src/stm32f10x_usart.c ****   * @retval None
 730:../../source/src/FWlib/src/stm32f10x_usart.c ****   */
 731:../../source/src/FWlib/src/stm32f10x_usart.c **** void USART_HalfDuplexCmd(USART_TypeDef* USARTx, FunctionalState NewState)
 732:../../source/src/FWlib/src/stm32f10x_usart.c **** {
 994              		.loc 1 732 0
ARM GAS  G:\Users\Jaxb\AppData\Local\Temp\cc7ygt2u.s 			page 32


 995              		.cfi_startproc
 996              		@ args = 0, pretend = 0, frame = 0
 997              		@ frame_needed = 0, uses_anonymous_args = 0
 998              		@ link register save eliminated.
 999              	.LVL86:
 733:../../source/src/FWlib/src/stm32f10x_usart.c ****   /* Check the parameters */
 734:../../source/src/FWlib/src/stm32f10x_usart.c ****   assert_param(IS_USART_ALL_PERIPH(USARTx));
 735:../../source/src/FWlib/src/stm32f10x_usart.c ****   assert_param(IS_FUNCTIONAL_STATE(NewState));
 736:../../source/src/FWlib/src/stm32f10x_usart.c ****   
 737:../../source/src/FWlib/src/stm32f10x_usart.c ****   if (NewState != DISABLE)
 738:../../source/src/FWlib/src/stm32f10x_usart.c ****   {
 739:../../source/src/FWlib/src/stm32f10x_usart.c ****     /* Enable the Half-Duplex mode by setting the HDSEL bit in the CR3 register */
 740:../../source/src/FWlib/src/stm32f10x_usart.c ****     USARTx->CR3 |= CR3_HDSEL_Set;
 1000              		.loc 1 740 0
 1001 02e0 838A     		ldrh	r3, [r0, #20]
 737:../../source/src/FWlib/src/stm32f10x_usart.c ****   {
 1002              		.loc 1 737 0
 1003 02e2 29B9     		cbnz	r1, .L71
 741:../../source/src/FWlib/src/stm32f10x_usart.c ****   }
 742:../../source/src/FWlib/src/stm32f10x_usart.c ****   else
 743:../../source/src/FWlib/src/stm32f10x_usart.c ****   {
 744:../../source/src/FWlib/src/stm32f10x_usart.c ****     /* Disable the Half-Duplex mode by clearing the HDSEL bit in the CR3 register */
 745:../../source/src/FWlib/src/stm32f10x_usart.c ****     USARTx->CR3 &= CR3_HDSEL_Reset;
 1004              		.loc 1 745 0
 1005 02e4 23F00803 		bic	r3, r3, #8
 1006 02e8 1B04     		lsls	r3, r3, #16
 1007 02ea 1B0C     		lsrs	r3, r3, #16
 1008 02ec 8382     		strh	r3, [r0, #20]	@ movhi
 746:../../source/src/FWlib/src/stm32f10x_usart.c ****   }
 747:../../source/src/FWlib/src/stm32f10x_usart.c **** }
 1009              		.loc 1 747 0
 1010 02ee 7047     		bx	lr
 1011              	.L71:
 740:../../source/src/FWlib/src/stm32f10x_usart.c ****   }
 1012              		.loc 1 740 0
 1013 02f0 43F00803 		orr	r3, r3, #8
 1014 02f4 8382     		strh	r3, [r0, #20]	@ movhi
 1015 02f6 7047     		bx	lr
 1016              		.cfi_endproc
 1017              	.LFE49:
 1018              		.size	USART_HalfDuplexCmd, .-USART_HalfDuplexCmd
 1019              		.align	1
 1020              		.p2align 2,,3
 1021              		.global	USART_OverSampling8Cmd
 1022              		.syntax unified
 1023              		.thumb
 1024              		.thumb_func
 1025              		.fpu softvfp
 1026              		.type	USART_OverSampling8Cmd, %function
 1027              	USART_OverSampling8Cmd:
 1028              	.LFB50:
 748:../../source/src/FWlib/src/stm32f10x_usart.c **** 
 749:../../source/src/FWlib/src/stm32f10x_usart.c **** 
 750:../../source/src/FWlib/src/stm32f10x_usart.c **** /**
 751:../../source/src/FWlib/src/stm32f10x_usart.c ****   * @brief  Enables or disables the USART's 8x oversampling mode.
 752:../../source/src/FWlib/src/stm32f10x_usart.c ****   * @param  USARTx: Select the USART or the UART peripheral.
 753:../../source/src/FWlib/src/stm32f10x_usart.c ****   *   This parameter can be one of the following values:
ARM GAS  G:\Users\Jaxb\AppData\Local\Temp\cc7ygt2u.s 			page 33


 754:../../source/src/FWlib/src/stm32f10x_usart.c ****   *   USART1, USART2, USART3, UART4 or UART5.
 755:../../source/src/FWlib/src/stm32f10x_usart.c ****   * @param  NewState: new state of the USART one bit sampling method.
 756:../../source/src/FWlib/src/stm32f10x_usart.c ****   *   This parameter can be: ENABLE or DISABLE.
 757:../../source/src/FWlib/src/stm32f10x_usart.c ****   * @note
 758:../../source/src/FWlib/src/stm32f10x_usart.c ****   *     This function has to be called before calling USART_Init()
 759:../../source/src/FWlib/src/stm32f10x_usart.c ****   *     function in order to have correct baudrate Divider value.   
 760:../../source/src/FWlib/src/stm32f10x_usart.c ****   * @retval None
 761:../../source/src/FWlib/src/stm32f10x_usart.c ****   */
 762:../../source/src/FWlib/src/stm32f10x_usart.c **** void USART_OverSampling8Cmd(USART_TypeDef* USARTx, FunctionalState NewState)
 763:../../source/src/FWlib/src/stm32f10x_usart.c **** {
 1029              		.loc 1 763 0
 1030              		.cfi_startproc
 1031              		@ args = 0, pretend = 0, frame = 0
 1032              		@ frame_needed = 0, uses_anonymous_args = 0
 1033              		@ link register save eliminated.
 1034              	.LVL87:
 764:../../source/src/FWlib/src/stm32f10x_usart.c ****   /* Check the parameters */
 765:../../source/src/FWlib/src/stm32f10x_usart.c ****   assert_param(IS_USART_ALL_PERIPH(USARTx));
 766:../../source/src/FWlib/src/stm32f10x_usart.c ****   assert_param(IS_FUNCTIONAL_STATE(NewState));
 767:../../source/src/FWlib/src/stm32f10x_usart.c ****   
 768:../../source/src/FWlib/src/stm32f10x_usart.c ****   if (NewState != DISABLE)
 769:../../source/src/FWlib/src/stm32f10x_usart.c ****   {
 770:../../source/src/FWlib/src/stm32f10x_usart.c ****     /* Enable the 8x Oversampling mode by setting the OVER8 bit in the CR1 register */
 771:../../source/src/FWlib/src/stm32f10x_usart.c ****     USARTx->CR1 |= CR1_OVER8_Set;
 1035              		.loc 1 771 0
 1036 02f8 8389     		ldrh	r3, [r0, #12]
 768:../../source/src/FWlib/src/stm32f10x_usart.c ****   {
 1037              		.loc 1 768 0
 1038 02fa 19B9     		cbnz	r1, .L75
 772:../../source/src/FWlib/src/stm32f10x_usart.c ****   }
 773:../../source/src/FWlib/src/stm32f10x_usart.c ****   else
 774:../../source/src/FWlib/src/stm32f10x_usart.c ****   {
 775:../../source/src/FWlib/src/stm32f10x_usart.c ****     /* Disable the 8x Oversampling mode by clearing the OVER8 bit in the CR1 register */
 776:../../source/src/FWlib/src/stm32f10x_usart.c ****     USARTx->CR1 &= CR1_OVER8_Reset;
 1039              		.loc 1 776 0
 1040 02fc C3F30E03 		ubfx	r3, r3, #0, #15
 1041 0300 8381     		strh	r3, [r0, #12]	@ movhi
 777:../../source/src/FWlib/src/stm32f10x_usart.c ****   }
 778:../../source/src/FWlib/src/stm32f10x_usart.c **** }
 1042              		.loc 1 778 0
 1043 0302 7047     		bx	lr
 1044              	.L75:
 771:../../source/src/FWlib/src/stm32f10x_usart.c ****   }
 1045              		.loc 1 771 0
 1046 0304 43F40043 		orr	r3, r3, #32768
 1047 0308 8381     		strh	r3, [r0, #12]	@ movhi
 1048 030a 7047     		bx	lr
 1049              		.cfi_endproc
 1050              	.LFE50:
 1051              		.size	USART_OverSampling8Cmd, .-USART_OverSampling8Cmd
 1052              		.align	1
 1053              		.p2align 2,,3
 1054              		.global	USART_OneBitMethodCmd
 1055              		.syntax unified
 1056              		.thumb
 1057              		.thumb_func
 1058              		.fpu softvfp
ARM GAS  G:\Users\Jaxb\AppData\Local\Temp\cc7ygt2u.s 			page 34


 1059              		.type	USART_OneBitMethodCmd, %function
 1060              	USART_OneBitMethodCmd:
 1061              	.LFB51:
 779:../../source/src/FWlib/src/stm32f10x_usart.c **** 
 780:../../source/src/FWlib/src/stm32f10x_usart.c **** /**
 781:../../source/src/FWlib/src/stm32f10x_usart.c ****   * @brief  Enables or disables the USART's one bit sampling method.
 782:../../source/src/FWlib/src/stm32f10x_usart.c ****   * @param  USARTx: Select the USART or the UART peripheral.
 783:../../source/src/FWlib/src/stm32f10x_usart.c ****   *   This parameter can be one of the following values:
 784:../../source/src/FWlib/src/stm32f10x_usart.c ****   *   USART1, USART2, USART3, UART4 or UART5.
 785:../../source/src/FWlib/src/stm32f10x_usart.c ****   * @param  NewState: new state of the USART one bit sampling method.
 786:../../source/src/FWlib/src/stm32f10x_usart.c ****   *   This parameter can be: ENABLE or DISABLE.
 787:../../source/src/FWlib/src/stm32f10x_usart.c ****   * @retval None
 788:../../source/src/FWlib/src/stm32f10x_usart.c ****   */
 789:../../source/src/FWlib/src/stm32f10x_usart.c **** void USART_OneBitMethodCmd(USART_TypeDef* USARTx, FunctionalState NewState)
 790:../../source/src/FWlib/src/stm32f10x_usart.c **** {
 1062              		.loc 1 790 0
 1063              		.cfi_startproc
 1064              		@ args = 0, pretend = 0, frame = 0
 1065              		@ frame_needed = 0, uses_anonymous_args = 0
 1066              		@ link register save eliminated.
 1067              	.LVL88:
 791:../../source/src/FWlib/src/stm32f10x_usart.c ****   /* Check the parameters */
 792:../../source/src/FWlib/src/stm32f10x_usart.c ****   assert_param(IS_USART_ALL_PERIPH(USARTx));
 793:../../source/src/FWlib/src/stm32f10x_usart.c ****   assert_param(IS_FUNCTIONAL_STATE(NewState));
 794:../../source/src/FWlib/src/stm32f10x_usart.c ****   
 795:../../source/src/FWlib/src/stm32f10x_usart.c ****   if (NewState != DISABLE)
 796:../../source/src/FWlib/src/stm32f10x_usart.c ****   {
 797:../../source/src/FWlib/src/stm32f10x_usart.c ****     /* Enable the one bit method by setting the ONEBITE bit in the CR3 register */
 798:../../source/src/FWlib/src/stm32f10x_usart.c ****     USARTx->CR3 |= CR3_ONEBITE_Set;
 1068              		.loc 1 798 0
 1069 030c 838A     		ldrh	r3, [r0, #20]
 795:../../source/src/FWlib/src/stm32f10x_usart.c ****   {
 1070              		.loc 1 795 0
 1071 030e 29B9     		cbnz	r1, .L79
 799:../../source/src/FWlib/src/stm32f10x_usart.c ****   }
 800:../../source/src/FWlib/src/stm32f10x_usart.c ****   else
 801:../../source/src/FWlib/src/stm32f10x_usart.c ****   {
 802:../../source/src/FWlib/src/stm32f10x_usart.c ****     /* Disable tthe one bit method by clearing the ONEBITE bit in the CR3 register */
 803:../../source/src/FWlib/src/stm32f10x_usart.c ****     USARTx->CR3 &= CR3_ONEBITE_Reset;
 1072              		.loc 1 803 0
 1073 0310 23F40063 		bic	r3, r3, #2048
 1074 0314 1B04     		lsls	r3, r3, #16
 1075 0316 1B0C     		lsrs	r3, r3, #16
 1076 0318 8382     		strh	r3, [r0, #20]	@ movhi
 804:../../source/src/FWlib/src/stm32f10x_usart.c ****   }
 805:../../source/src/FWlib/src/stm32f10x_usart.c **** }
 1077              		.loc 1 805 0
 1078 031a 7047     		bx	lr
 1079              	.L79:
 798:../../source/src/FWlib/src/stm32f10x_usart.c ****   }
 1080              		.loc 1 798 0
 1081 031c 43F40063 		orr	r3, r3, #2048
 1082 0320 8382     		strh	r3, [r0, #20]	@ movhi
 1083 0322 7047     		bx	lr
 1084              		.cfi_endproc
 1085              	.LFE51:
 1086              		.size	USART_OneBitMethodCmd, .-USART_OneBitMethodCmd
ARM GAS  G:\Users\Jaxb\AppData\Local\Temp\cc7ygt2u.s 			page 35


 1087              		.align	1
 1088              		.p2align 2,,3
 1089              		.global	USART_IrDAConfig
 1090              		.syntax unified
 1091              		.thumb
 1092              		.thumb_func
 1093              		.fpu softvfp
 1094              		.type	USART_IrDAConfig, %function
 1095              	USART_IrDAConfig:
 1096              	.LFB52:
 806:../../source/src/FWlib/src/stm32f10x_usart.c **** 
 807:../../source/src/FWlib/src/stm32f10x_usart.c **** /**
 808:../../source/src/FWlib/src/stm32f10x_usart.c ****   * @brief  Configures the USART's IrDA interface.
 809:../../source/src/FWlib/src/stm32f10x_usart.c ****   * @param  USARTx: Select the USART or the UART peripheral. 
 810:../../source/src/FWlib/src/stm32f10x_usart.c ****   *   This parameter can be one of the following values:
 811:../../source/src/FWlib/src/stm32f10x_usart.c ****   *   USART1, USART2, USART3, UART4 or UART5.
 812:../../source/src/FWlib/src/stm32f10x_usart.c ****   * @param  USART_IrDAMode: specifies the IrDA mode.
 813:../../source/src/FWlib/src/stm32f10x_usart.c ****   *   This parameter can be one of the following values:
 814:../../source/src/FWlib/src/stm32f10x_usart.c ****   *     @arg USART_IrDAMode_LowPower
 815:../../source/src/FWlib/src/stm32f10x_usart.c ****   *     @arg USART_IrDAMode_Normal
 816:../../source/src/FWlib/src/stm32f10x_usart.c ****   * @retval None
 817:../../source/src/FWlib/src/stm32f10x_usart.c ****   */
 818:../../source/src/FWlib/src/stm32f10x_usart.c **** void USART_IrDAConfig(USART_TypeDef* USARTx, uint16_t USART_IrDAMode)
 819:../../source/src/FWlib/src/stm32f10x_usart.c **** {
 1097              		.loc 1 819 0
 1098              		.cfi_startproc
 1099              		@ args = 0, pretend = 0, frame = 0
 1100              		@ frame_needed = 0, uses_anonymous_args = 0
 1101              		@ link register save eliminated.
 1102              	.LVL89:
 820:../../source/src/FWlib/src/stm32f10x_usart.c ****   /* Check the parameters */
 821:../../source/src/FWlib/src/stm32f10x_usart.c ****   assert_param(IS_USART_ALL_PERIPH(USARTx));
 822:../../source/src/FWlib/src/stm32f10x_usart.c ****   assert_param(IS_USART_IRDA_MODE(USART_IrDAMode));
 823:../../source/src/FWlib/src/stm32f10x_usart.c ****     
 824:../../source/src/FWlib/src/stm32f10x_usart.c ****   USARTx->CR3 &= CR3_IRLP_Mask;
 1103              		.loc 1 824 0
 1104 0324 838A     		ldrh	r3, [r0, #20]
 1105 0326 23F00403 		bic	r3, r3, #4
 1106 032a 1B04     		lsls	r3, r3, #16
 1107 032c 1B0C     		lsrs	r3, r3, #16
 1108 032e 8382     		strh	r3, [r0, #20]	@ movhi
 825:../../source/src/FWlib/src/stm32f10x_usart.c ****   USARTx->CR3 |= USART_IrDAMode;
 1109              		.loc 1 825 0
 1110 0330 838A     		ldrh	r3, [r0, #20]
 1111 0332 1943     		orrs	r1, r1, r3
 1112              	.LVL90:
 1113 0334 8182     		strh	r1, [r0, #20]	@ movhi
 826:../../source/src/FWlib/src/stm32f10x_usart.c **** }
 1114              		.loc 1 826 0
 1115 0336 7047     		bx	lr
 1116              		.cfi_endproc
 1117              	.LFE52:
 1118              		.size	USART_IrDAConfig, .-USART_IrDAConfig
 1119              		.align	1
 1120              		.p2align 2,,3
 1121              		.global	USART_IrDACmd
 1122              		.syntax unified
ARM GAS  G:\Users\Jaxb\AppData\Local\Temp\cc7ygt2u.s 			page 36


 1123              		.thumb
 1124              		.thumb_func
 1125              		.fpu softvfp
 1126              		.type	USART_IrDACmd, %function
 1127              	USART_IrDACmd:
 1128              	.LFB53:
 827:../../source/src/FWlib/src/stm32f10x_usart.c **** 
 828:../../source/src/FWlib/src/stm32f10x_usart.c **** /**
 829:../../source/src/FWlib/src/stm32f10x_usart.c ****   * @brief  Enables or disables the USART's IrDA interface.
 830:../../source/src/FWlib/src/stm32f10x_usart.c ****   * @param  USARTx: Select the USART or the UART peripheral. 
 831:../../source/src/FWlib/src/stm32f10x_usart.c ****   *   This parameter can be one of the following values:
 832:../../source/src/FWlib/src/stm32f10x_usart.c ****   *   USART1, USART2, USART3, UART4 or UART5.
 833:../../source/src/FWlib/src/stm32f10x_usart.c ****   * @param  NewState: new state of the IrDA mode.
 834:../../source/src/FWlib/src/stm32f10x_usart.c ****   *   This parameter can be: ENABLE or DISABLE.
 835:../../source/src/FWlib/src/stm32f10x_usart.c ****   * @retval None
 836:../../source/src/FWlib/src/stm32f10x_usart.c ****   */
 837:../../source/src/FWlib/src/stm32f10x_usart.c **** void USART_IrDACmd(USART_TypeDef* USARTx, FunctionalState NewState)
 838:../../source/src/FWlib/src/stm32f10x_usart.c **** {
 1129              		.loc 1 838 0
 1130              		.cfi_startproc
 1131              		@ args = 0, pretend = 0, frame = 0
 1132              		@ frame_needed = 0, uses_anonymous_args = 0
 1133              		@ link register save eliminated.
 1134              	.LVL91:
 839:../../source/src/FWlib/src/stm32f10x_usart.c ****   /* Check the parameters */
 840:../../source/src/FWlib/src/stm32f10x_usart.c ****   assert_param(IS_USART_ALL_PERIPH(USARTx));
 841:../../source/src/FWlib/src/stm32f10x_usart.c ****   assert_param(IS_FUNCTIONAL_STATE(NewState));
 842:../../source/src/FWlib/src/stm32f10x_usart.c ****     
 843:../../source/src/FWlib/src/stm32f10x_usart.c ****   if (NewState != DISABLE)
 844:../../source/src/FWlib/src/stm32f10x_usart.c ****   {
 845:../../source/src/FWlib/src/stm32f10x_usart.c ****     /* Enable the IrDA mode by setting the IREN bit in the CR3 register */
 846:../../source/src/FWlib/src/stm32f10x_usart.c ****     USARTx->CR3 |= CR3_IREN_Set;
 1135              		.loc 1 846 0
 1136 0338 838A     		ldrh	r3, [r0, #20]
 843:../../source/src/FWlib/src/stm32f10x_usart.c ****   {
 1137              		.loc 1 843 0
 1138 033a 29B9     		cbnz	r1, .L84
 847:../../source/src/FWlib/src/stm32f10x_usart.c ****   }
 848:../../source/src/FWlib/src/stm32f10x_usart.c ****   else
 849:../../source/src/FWlib/src/stm32f10x_usart.c ****   {
 850:../../source/src/FWlib/src/stm32f10x_usart.c ****     /* Disable the IrDA mode by clearing the IREN bit in the CR3 register */
 851:../../source/src/FWlib/src/stm32f10x_usart.c ****     USARTx->CR3 &= CR3_IREN_Reset;
 1139              		.loc 1 851 0
 1140 033c 23F00203 		bic	r3, r3, #2
 1141 0340 1B04     		lsls	r3, r3, #16
 1142 0342 1B0C     		lsrs	r3, r3, #16
 1143 0344 8382     		strh	r3, [r0, #20]	@ movhi
 852:../../source/src/FWlib/src/stm32f10x_usart.c ****   }
 853:../../source/src/FWlib/src/stm32f10x_usart.c **** }
 1144              		.loc 1 853 0
 1145 0346 7047     		bx	lr
 1146              	.L84:
 846:../../source/src/FWlib/src/stm32f10x_usart.c ****   }
 1147              		.loc 1 846 0
 1148 0348 43F00203 		orr	r3, r3, #2
 1149 034c 8382     		strh	r3, [r0, #20]	@ movhi
 1150 034e 7047     		bx	lr
ARM GAS  G:\Users\Jaxb\AppData\Local\Temp\cc7ygt2u.s 			page 37


 1151              		.cfi_endproc
 1152              	.LFE53:
 1153              		.size	USART_IrDACmd, .-USART_IrDACmd
 1154              		.align	1
 1155              		.p2align 2,,3
 1156              		.global	USART_GetFlagStatus
 1157              		.syntax unified
 1158              		.thumb
 1159              		.thumb_func
 1160              		.fpu softvfp
 1161              		.type	USART_GetFlagStatus, %function
 1162              	USART_GetFlagStatus:
 1163              	.LFB54:
 854:../../source/src/FWlib/src/stm32f10x_usart.c **** 
 855:../../source/src/FWlib/src/stm32f10x_usart.c **** /**
 856:../../source/src/FWlib/src/stm32f10x_usart.c ****   * @brief  Checks whether the specified USART flag is set or not.
 857:../../source/src/FWlib/src/stm32f10x_usart.c ****   * @param  USARTx: Select the USART or the UART peripheral. 
 858:../../source/src/FWlib/src/stm32f10x_usart.c ****   *   This parameter can be one of the following values:
 859:../../source/src/FWlib/src/stm32f10x_usart.c ****   *   USART1, USART2, USART3, UART4 or UART5.
 860:../../source/src/FWlib/src/stm32f10x_usart.c ****   * @param  USART_FLAG: specifies the flag to check.
 861:../../source/src/FWlib/src/stm32f10x_usart.c ****   *   This parameter can be one of the following values:
 862:../../source/src/FWlib/src/stm32f10x_usart.c ****   *     @arg USART_FLAG_CTS:  CTS Change flag (not available for UART4 and UART5)
 863:../../source/src/FWlib/src/stm32f10x_usart.c ****   *     @arg USART_FLAG_LBD:  LIN Break detection flag
 864:../../source/src/FWlib/src/stm32f10x_usart.c ****   *     @arg USART_FLAG_TXE:  Transmit data register empty flag
 865:../../source/src/FWlib/src/stm32f10x_usart.c ****   *     @arg USART_FLAG_TC:   Transmission Complete flag
 866:../../source/src/FWlib/src/stm32f10x_usart.c ****   *     @arg USART_FLAG_RXNE: Receive data register not empty flag
 867:../../source/src/FWlib/src/stm32f10x_usart.c ****   *     @arg USART_FLAG_IDLE: Idle Line detection flag
 868:../../source/src/FWlib/src/stm32f10x_usart.c ****   *     @arg USART_FLAG_ORE:  OverRun Error flag
 869:../../source/src/FWlib/src/stm32f10x_usart.c ****   *     @arg USART_FLAG_NE:   Noise Error flag
 870:../../source/src/FWlib/src/stm32f10x_usart.c ****   *     @arg USART_FLAG_FE:   Framing Error flag
 871:../../source/src/FWlib/src/stm32f10x_usart.c ****   *     @arg USART_FLAG_PE:   Parity Error flag
 872:../../source/src/FWlib/src/stm32f10x_usart.c ****   * @retval The new state of USART_FLAG (SET or RESET).
 873:../../source/src/FWlib/src/stm32f10x_usart.c ****   */
 874:../../source/src/FWlib/src/stm32f10x_usart.c **** FlagStatus USART_GetFlagStatus(USART_TypeDef* USARTx, uint16_t USART_FLAG)
 875:../../source/src/FWlib/src/stm32f10x_usart.c **** {
 1164              		.loc 1 875 0
 1165              		.cfi_startproc
 1166              		@ args = 0, pretend = 0, frame = 0
 1167              		@ frame_needed = 0, uses_anonymous_args = 0
 1168              		@ link register save eliminated.
 1169              	.LVL92:
 876:../../source/src/FWlib/src/stm32f10x_usart.c ****   FlagStatus bitstatus = RESET;
 877:../../source/src/FWlib/src/stm32f10x_usart.c ****   /* Check the parameters */
 878:../../source/src/FWlib/src/stm32f10x_usart.c ****   assert_param(IS_USART_ALL_PERIPH(USARTx));
 879:../../source/src/FWlib/src/stm32f10x_usart.c ****   assert_param(IS_USART_FLAG(USART_FLAG));
 880:../../source/src/FWlib/src/stm32f10x_usart.c ****   /* The CTS flag is not available for UART4 and UART5 */
 881:../../source/src/FWlib/src/stm32f10x_usart.c ****   if (USART_FLAG == USART_FLAG_CTS)
 882:../../source/src/FWlib/src/stm32f10x_usart.c ****   {
 883:../../source/src/FWlib/src/stm32f10x_usart.c ****     assert_param(IS_USART_123_PERIPH(USARTx));
 884:../../source/src/FWlib/src/stm32f10x_usart.c ****   }  
 885:../../source/src/FWlib/src/stm32f10x_usart.c ****   
 886:../../source/src/FWlib/src/stm32f10x_usart.c ****   if ((USARTx->SR & USART_FLAG) != (uint16_t)RESET)
 1170              		.loc 1 886 0
 1171 0350 0388     		ldrh	r3, [r0]
 1172              	.LVL93:
 1173 0352 1942     		tst	r1, r3
 887:../../source/src/FWlib/src/stm32f10x_usart.c ****   {
ARM GAS  G:\Users\Jaxb\AppData\Local\Temp\cc7ygt2u.s 			page 38


 888:../../source/src/FWlib/src/stm32f10x_usart.c ****     bitstatus = SET;
 889:../../source/src/FWlib/src/stm32f10x_usart.c ****   }
 890:../../source/src/FWlib/src/stm32f10x_usart.c ****   else
 891:../../source/src/FWlib/src/stm32f10x_usart.c ****   {
 892:../../source/src/FWlib/src/stm32f10x_usart.c ****     bitstatus = RESET;
 893:../../source/src/FWlib/src/stm32f10x_usart.c ****   }
 894:../../source/src/FWlib/src/stm32f10x_usart.c ****   return bitstatus;
 895:../../source/src/FWlib/src/stm32f10x_usart.c **** }
 1174              		.loc 1 895 0
 1175 0354 14BF     		ite	ne
 1176 0356 0120     		movne	r0, #1
 1177              	.LVL94:
 1178 0358 0020     		moveq	r0, #0
 1179 035a 7047     		bx	lr
 1180              		.cfi_endproc
 1181              	.LFE54:
 1182              		.size	USART_GetFlagStatus, .-USART_GetFlagStatus
 1183              		.align	1
 1184              		.p2align 2,,3
 1185              		.global	USART_ClearFlag
 1186              		.syntax unified
 1187              		.thumb
 1188              		.thumb_func
 1189              		.fpu softvfp
 1190              		.type	USART_ClearFlag, %function
 1191              	USART_ClearFlag:
 1192              	.LFB55:
 896:../../source/src/FWlib/src/stm32f10x_usart.c **** 
 897:../../source/src/FWlib/src/stm32f10x_usart.c **** /**
 898:../../source/src/FWlib/src/stm32f10x_usart.c ****   * @brief  Clears the USARTx's pending flags.
 899:../../source/src/FWlib/src/stm32f10x_usart.c ****   * @param  USARTx: Select the USART or the UART peripheral. 
 900:../../source/src/FWlib/src/stm32f10x_usart.c ****   *   This parameter can be one of the following values:
 901:../../source/src/FWlib/src/stm32f10x_usart.c ****   *   USART1, USART2, USART3, UART4 or UART5.
 902:../../source/src/FWlib/src/stm32f10x_usart.c ****   * @param  USART_FLAG: specifies the flag to clear.
 903:../../source/src/FWlib/src/stm32f10x_usart.c ****   *   This parameter can be any combination of the following values:
 904:../../source/src/FWlib/src/stm32f10x_usart.c ****   *     @arg USART_FLAG_CTS:  CTS Change flag (not available for UART4 and UART5).
 905:../../source/src/FWlib/src/stm32f10x_usart.c ****   *     @arg USART_FLAG_LBD:  LIN Break detection flag.
 906:../../source/src/FWlib/src/stm32f10x_usart.c ****   *     @arg USART_FLAG_TC:   Transmission Complete flag.
 907:../../source/src/FWlib/src/stm32f10x_usart.c ****   *     @arg USART_FLAG_RXNE: Receive data register not empty flag.
 908:../../source/src/FWlib/src/stm32f10x_usart.c ****   *   
 909:../../source/src/FWlib/src/stm32f10x_usart.c ****   * @note
 910:../../source/src/FWlib/src/stm32f10x_usart.c ****   *   - PE (Parity error), FE (Framing error), NE (Noise error), ORE (OverRun 
 911:../../source/src/FWlib/src/stm32f10x_usart.c ****   *     error) and IDLE (Idle line detected) flags are cleared by software 
 912:../../source/src/FWlib/src/stm32f10x_usart.c ****   *     sequence: a read operation to USART_SR register (USART_GetFlagStatus()) 
 913:../../source/src/FWlib/src/stm32f10x_usart.c ****   *     followed by a read operation to USART_DR register (USART_ReceiveData()).
 914:../../source/src/FWlib/src/stm32f10x_usart.c ****   *   - RXNE flag can be also cleared by a read to the USART_DR register 
 915:../../source/src/FWlib/src/stm32f10x_usart.c ****   *     (USART_ReceiveData()).
 916:../../source/src/FWlib/src/stm32f10x_usart.c ****   *   - TC flag can be also cleared by software sequence: a read operation to 
 917:../../source/src/FWlib/src/stm32f10x_usart.c ****   *     USART_SR register (USART_GetFlagStatus()) followed by a write operation
 918:../../source/src/FWlib/src/stm32f10x_usart.c ****   *     to USART_DR register (USART_SendData()).
 919:../../source/src/FWlib/src/stm32f10x_usart.c ****   *   - TXE flag is cleared only by a write to the USART_DR register 
 920:../../source/src/FWlib/src/stm32f10x_usart.c ****   *     (USART_SendData()).
 921:../../source/src/FWlib/src/stm32f10x_usart.c ****   * @retval None
 922:../../source/src/FWlib/src/stm32f10x_usart.c ****   */
 923:../../source/src/FWlib/src/stm32f10x_usart.c **** void USART_ClearFlag(USART_TypeDef* USARTx, uint16_t USART_FLAG)
 924:../../source/src/FWlib/src/stm32f10x_usart.c **** {
 1193              		.loc 1 924 0
ARM GAS  G:\Users\Jaxb\AppData\Local\Temp\cc7ygt2u.s 			page 39


 1194              		.cfi_startproc
 1195              		@ args = 0, pretend = 0, frame = 0
 1196              		@ frame_needed = 0, uses_anonymous_args = 0
 1197              		@ link register save eliminated.
 1198              	.LVL95:
 925:../../source/src/FWlib/src/stm32f10x_usart.c ****   /* Check the parameters */
 926:../../source/src/FWlib/src/stm32f10x_usart.c ****   assert_param(IS_USART_ALL_PERIPH(USARTx));
 927:../../source/src/FWlib/src/stm32f10x_usart.c ****   assert_param(IS_USART_CLEAR_FLAG(USART_FLAG));
 928:../../source/src/FWlib/src/stm32f10x_usart.c ****   /* The CTS flag is not available for UART4 and UART5 */
 929:../../source/src/FWlib/src/stm32f10x_usart.c ****   if ((USART_FLAG & USART_FLAG_CTS) == USART_FLAG_CTS)
 930:../../source/src/FWlib/src/stm32f10x_usart.c ****   {
 931:../../source/src/FWlib/src/stm32f10x_usart.c ****     assert_param(IS_USART_123_PERIPH(USARTx));
 932:../../source/src/FWlib/src/stm32f10x_usart.c ****   } 
 933:../../source/src/FWlib/src/stm32f10x_usart.c ****    
 934:../../source/src/FWlib/src/stm32f10x_usart.c ****   USARTx->SR = (uint16_t)~USART_FLAG;
 1199              		.loc 1 934 0
 1200 035c C943     		mvns	r1, r1
 1201              	.LVL96:
 1202 035e 89B2     		uxth	r1, r1
 1203 0360 0180     		strh	r1, [r0]	@ movhi
 935:../../source/src/FWlib/src/stm32f10x_usart.c **** }
 1204              		.loc 1 935 0
 1205 0362 7047     		bx	lr
 1206              		.cfi_endproc
 1207              	.LFE55:
 1208              		.size	USART_ClearFlag, .-USART_ClearFlag
 1209              		.align	1
 1210              		.p2align 2,,3
 1211              		.global	USART_GetITStatus
 1212              		.syntax unified
 1213              		.thumb
 1214              		.thumb_func
 1215              		.fpu softvfp
 1216              		.type	USART_GetITStatus, %function
 1217              	USART_GetITStatus:
 1218              	.LFB56:
 936:../../source/src/FWlib/src/stm32f10x_usart.c **** 
 937:../../source/src/FWlib/src/stm32f10x_usart.c **** /**
 938:../../source/src/FWlib/src/stm32f10x_usart.c ****   * @brief  Checks whether the specified USART interrupt has occurred or not.
 939:../../source/src/FWlib/src/stm32f10x_usart.c ****   * @param  USARTx: Select the USART or the UART peripheral. 
 940:../../source/src/FWlib/src/stm32f10x_usart.c ****   *   This parameter can be one of the following values:
 941:../../source/src/FWlib/src/stm32f10x_usart.c ****   *   USART1, USART2, USART3, UART4 or UART5.
 942:../../source/src/FWlib/src/stm32f10x_usart.c ****   * @param  USART_IT: specifies the USART interrupt source to check.
 943:../../source/src/FWlib/src/stm32f10x_usart.c ****   *   This parameter can be one of the following values:
 944:../../source/src/FWlib/src/stm32f10x_usart.c ****   *     @arg USART_IT_CTS:  CTS change interrupt (not available for UART4 and UART5)
 945:../../source/src/FWlib/src/stm32f10x_usart.c ****   *     @arg USART_IT_LBD:  LIN Break detection interrupt
 946:../../source/src/FWlib/src/stm32f10x_usart.c ****   *     @arg USART_IT_TXE:  Tansmit Data Register empty interrupt
 947:../../source/src/FWlib/src/stm32f10x_usart.c ****   *     @arg USART_IT_TC:   Transmission complete interrupt
 948:../../source/src/FWlib/src/stm32f10x_usart.c ****   *     @arg USART_IT_RXNE: Receive Data register not empty interrupt
 949:../../source/src/FWlib/src/stm32f10x_usart.c ****   *     @arg USART_IT_IDLE: Idle line detection interrupt
 950:../../source/src/FWlib/src/stm32f10x_usart.c ****   *     @arg USART_IT_ORE:  OverRun Error interrupt
 951:../../source/src/FWlib/src/stm32f10x_usart.c ****   *     @arg USART_IT_NE:   Noise Error interrupt
 952:../../source/src/FWlib/src/stm32f10x_usart.c ****   *     @arg USART_IT_FE:   Framing Error interrupt
 953:../../source/src/FWlib/src/stm32f10x_usart.c ****   *     @arg USART_IT_PE:   Parity Error interrupt
 954:../../source/src/FWlib/src/stm32f10x_usart.c ****   * @retval The new state of USART_IT (SET or RESET).
 955:../../source/src/FWlib/src/stm32f10x_usart.c ****   */
 956:../../source/src/FWlib/src/stm32f10x_usart.c **** ITStatus USART_GetITStatus(USART_TypeDef* USARTx, uint16_t USART_IT)
ARM GAS  G:\Users\Jaxb\AppData\Local\Temp\cc7ygt2u.s 			page 40


 957:../../source/src/FWlib/src/stm32f10x_usart.c **** {
 1219              		.loc 1 957 0
 1220              		.cfi_startproc
 1221              		@ args = 0, pretend = 0, frame = 0
 1222              		@ frame_needed = 0, uses_anonymous_args = 0
 1223              		@ link register save eliminated.
 1224              	.LVL97:
 958:../../source/src/FWlib/src/stm32f10x_usart.c ****   uint32_t bitpos = 0x00, itmask = 0x00, usartreg = 0x00;
 959:../../source/src/FWlib/src/stm32f10x_usart.c ****   ITStatus bitstatus = RESET;
 960:../../source/src/FWlib/src/stm32f10x_usart.c ****   /* Check the parameters */
 961:../../source/src/FWlib/src/stm32f10x_usart.c ****   assert_param(IS_USART_ALL_PERIPH(USARTx));
 962:../../source/src/FWlib/src/stm32f10x_usart.c ****   assert_param(IS_USART_GET_IT(USART_IT));
 963:../../source/src/FWlib/src/stm32f10x_usart.c ****   /* The CTS interrupt is not available for UART4 and UART5 */ 
 964:../../source/src/FWlib/src/stm32f10x_usart.c ****   if (USART_IT == USART_IT_CTS)
 965:../../source/src/FWlib/src/stm32f10x_usart.c ****   {
 966:../../source/src/FWlib/src/stm32f10x_usart.c ****     assert_param(IS_USART_123_PERIPH(USARTx));
 967:../../source/src/FWlib/src/stm32f10x_usart.c ****   }   
 968:../../source/src/FWlib/src/stm32f10x_usart.c ****   
 969:../../source/src/FWlib/src/stm32f10x_usart.c ****   /* Get the USART register index */
 970:../../source/src/FWlib/src/stm32f10x_usart.c ****   usartreg = (((uint8_t)USART_IT) >> 0x05);
 971:../../source/src/FWlib/src/stm32f10x_usart.c ****   /* Get the interrupt position */
 972:../../source/src/FWlib/src/stm32f10x_usart.c ****   itmask = USART_IT & IT_Mask;
 973:../../source/src/FWlib/src/stm32f10x_usart.c ****   itmask = (uint32_t)0x01 << itmask;
 1225              		.loc 1 973 0
 1226 0364 0123     		movs	r3, #1
 970:../../source/src/FWlib/src/stm32f10x_usart.c ****   /* Get the interrupt position */
 1227              		.loc 1 970 0
 1228 0366 C1F34212 		ubfx	r2, r1, #5, #3
 1229              	.LVL98:
 957:../../source/src/FWlib/src/stm32f10x_usart.c ****   uint32_t bitpos = 0x00, itmask = 0x00, usartreg = 0x00;
 1230              		.loc 1 957 0
 1231 036a 10B4     		push	{r4}
 1232              	.LCFI22:
 1233              		.cfi_def_cfa_offset 4
 1234              		.cfi_offset 4, -4
 974:../../source/src/FWlib/src/stm32f10x_usart.c ****   
 975:../../source/src/FWlib/src/stm32f10x_usart.c ****   if (usartreg == 0x01) /* The IT  is in CR1 register */
 1235              		.loc 1 975 0
 1236 036c 012A     		cmp	r2, #1
 972:../../source/src/FWlib/src/stm32f10x_usart.c ****   itmask = (uint32_t)0x01 << itmask;
 1237              		.loc 1 972 0
 1238 036e 01F01F04 		and	r4, r1, #31
 1239              	.LVL99:
 973:../../source/src/FWlib/src/stm32f10x_usart.c ****   
 1240              		.loc 1 973 0
 1241 0372 03FA04F3 		lsl	r3, r3, r4
 1242              	.LVL100:
 1243              		.loc 1 975 0
 1244 0376 14D0     		beq	.L93
 976:../../source/src/FWlib/src/stm32f10x_usart.c ****   {
 977:../../source/src/FWlib/src/stm32f10x_usart.c ****     itmask &= USARTx->CR1;
 978:../../source/src/FWlib/src/stm32f10x_usart.c ****   }
 979:../../source/src/FWlib/src/stm32f10x_usart.c ****   else if (usartreg == 0x02) /* The IT  is in CR2 register */
 1245              		.loc 1 979 0
 1246 0378 022A     		cmp	r2, #2
 980:../../source/src/FWlib/src/stm32f10x_usart.c ****   {
 981:../../source/src/FWlib/src/stm32f10x_usart.c ****     itmask &= USARTx->CR2;
ARM GAS  G:\Users\Jaxb\AppData\Local\Temp\cc7ygt2u.s 			page 41


 1247              		.loc 1 981 0
 1248 037a 0CBF     		ite	eq
 1249 037c 028A     		ldrheq	r2, [r0, #16]
 1250              	.LVL101:
 982:../../source/src/FWlib/src/stm32f10x_usart.c ****   }
 983:../../source/src/FWlib/src/stm32f10x_usart.c ****   else /* The IT  is in CR3 register */
 984:../../source/src/FWlib/src/stm32f10x_usart.c ****   {
 985:../../source/src/FWlib/src/stm32f10x_usart.c ****     itmask &= USARTx->CR3;
 1251              		.loc 1 985 0
 1252 037e 828A     		ldrhne	r2, [r0, #20]
 1253 0380 1340     		ands	r3, r3, r2
 1254              	.LVL102:
 1255              	.L89:
 986:../../source/src/FWlib/src/stm32f10x_usart.c ****   }
 987:../../source/src/FWlib/src/stm32f10x_usart.c ****   
 988:../../source/src/FWlib/src/stm32f10x_usart.c ****   bitpos = USART_IT >> 0x08;
 989:../../source/src/FWlib/src/stm32f10x_usart.c ****   bitpos = (uint32_t)0x01 << bitpos;
 990:../../source/src/FWlib/src/stm32f10x_usart.c ****   bitpos &= USARTx->SR;
 1256              		.loc 1 990 0
 1257 0382 0288     		ldrh	r2, [r0]
 1258 0384 92B2     		uxth	r2, r2
 1259              	.LVL103:
 991:../../source/src/FWlib/src/stm32f10x_usart.c ****   if ((itmask != (uint16_t)RESET)&&(bitpos != (uint16_t)RESET))
 1260              		.loc 1 991 0
 1261 0386 4BB1     		cbz	r3, .L92
 989:../../source/src/FWlib/src/stm32f10x_usart.c ****   bitpos &= USARTx->SR;
 1262              		.loc 1 989 0 discriminator 1
 1263 0388 0123     		movs	r3, #1
 1264              	.LVL104:
 988:../../source/src/FWlib/src/stm32f10x_usart.c ****   bitpos = (uint32_t)0x01 << bitpos;
 1265              		.loc 1 988 0 discriminator 1
 1266 038a 090A     		lsrs	r1, r1, #8
 1267              	.LVL105:
 989:../../source/src/FWlib/src/stm32f10x_usart.c ****   bitpos &= USARTx->SR;
 1268              		.loc 1 989 0 discriminator 1
 1269 038c 03FA01F1 		lsl	r1, r3, r1
 1270              		.loc 1 991 0 discriminator 1
 1271 0390 0A42     		tst	r2, r1
 992:../../source/src/FWlib/src/stm32f10x_usart.c ****   {
 993:../../source/src/FWlib/src/stm32f10x_usart.c ****     bitstatus = SET;
 1272              		.loc 1 993 0 discriminator 1
 1273 0392 14BF     		ite	ne
 1274 0394 1846     		movne	r0, r3
 1275              	.LVL106:
 1276 0396 0020     		moveq	r0, #0
 1277              	.LVL107:
 994:../../source/src/FWlib/src/stm32f10x_usart.c ****   }
 995:../../source/src/FWlib/src/stm32f10x_usart.c ****   else
 996:../../source/src/FWlib/src/stm32f10x_usart.c ****   {
 997:../../source/src/FWlib/src/stm32f10x_usart.c ****     bitstatus = RESET;
 998:../../source/src/FWlib/src/stm32f10x_usart.c ****   }
 999:../../source/src/FWlib/src/stm32f10x_usart.c ****   
1000:../../source/src/FWlib/src/stm32f10x_usart.c ****   return bitstatus;  
1001:../../source/src/FWlib/src/stm32f10x_usart.c **** }
 1278              		.loc 1 1001 0 discriminator 1
 1279 0398 10BC     		pop	{r4}
 1280              	.LCFI23:
ARM GAS  G:\Users\Jaxb\AppData\Local\Temp\cc7ygt2u.s 			page 42


 1281              		.cfi_remember_state
 1282              		.cfi_restore 4
 1283              		.cfi_def_cfa_offset 0
 1284 039a 7047     		bx	lr
 1285              	.LVL108:
 1286              	.L92:
 1287              	.LCFI24:
 1288              		.cfi_restore_state
 997:../../source/src/FWlib/src/stm32f10x_usart.c ****   }
 1289              		.loc 1 997 0
 1290 039c 1846     		mov	r0, r3
 1291              	.LVL109:
 1292              		.loc 1 1001 0
 1293 039e 10BC     		pop	{r4}
 1294              	.LCFI25:
 1295              		.cfi_remember_state
 1296              		.cfi_restore 4
 1297              		.cfi_def_cfa_offset 0
 1298 03a0 7047     		bx	lr
 1299              	.LVL110:
 1300              	.L93:
 1301              	.LCFI26:
 1302              		.cfi_restore_state
 977:../../source/src/FWlib/src/stm32f10x_usart.c ****   }
 1303              		.loc 1 977 0
 1304 03a2 8289     		ldrh	r2, [r0, #12]
 1305              	.LVL111:
 1306 03a4 1340     		ands	r3, r3, r2
 1307              	.LVL112:
 1308 03a6 ECE7     		b	.L89
 1309              		.cfi_endproc
 1310              	.LFE56:
 1311              		.size	USART_GetITStatus, .-USART_GetITStatus
 1312              		.align	1
 1313              		.p2align 2,,3
 1314              		.global	USART_ClearITPendingBit
 1315              		.syntax unified
 1316              		.thumb
 1317              		.thumb_func
 1318              		.fpu softvfp
 1319              		.type	USART_ClearITPendingBit, %function
 1320              	USART_ClearITPendingBit:
 1321              	.LFB57:
1002:../../source/src/FWlib/src/stm32f10x_usart.c **** 
1003:../../source/src/FWlib/src/stm32f10x_usart.c **** /**
1004:../../source/src/FWlib/src/stm32f10x_usart.c ****   * @brief  Clears the USARTx's interrupt pending bits.
1005:../../source/src/FWlib/src/stm32f10x_usart.c ****   * @param  USARTx: Select the USART or the UART peripheral. 
1006:../../source/src/FWlib/src/stm32f10x_usart.c ****   *   This parameter can be one of the following values:
1007:../../source/src/FWlib/src/stm32f10x_usart.c ****   *   USART1, USART2, USART3, UART4 or UART5.
1008:../../source/src/FWlib/src/stm32f10x_usart.c ****   * @param  USART_IT: specifies the interrupt pending bit to clear.
1009:../../source/src/FWlib/src/stm32f10x_usart.c ****   *   This parameter can be one of the following values:
1010:../../source/src/FWlib/src/stm32f10x_usart.c ****   *     @arg USART_IT_CTS:  CTS change interrupt (not available for UART4 and UART5)
1011:../../source/src/FWlib/src/stm32f10x_usart.c ****   *     @arg USART_IT_LBD:  LIN Break detection interrupt
1012:../../source/src/FWlib/src/stm32f10x_usart.c ****   *     @arg USART_IT_TC:   Transmission complete interrupt. 
1013:../../source/src/FWlib/src/stm32f10x_usart.c ****   *     @arg USART_IT_RXNE: Receive Data register not empty interrupt.
1014:../../source/src/FWlib/src/stm32f10x_usart.c ****   *   
1015:../../source/src/FWlib/src/stm32f10x_usart.c ****   * @note
ARM GAS  G:\Users\Jaxb\AppData\Local\Temp\cc7ygt2u.s 			page 43


1016:../../source/src/FWlib/src/stm32f10x_usart.c ****   *   - PE (Parity error), FE (Framing error), NE (Noise error), ORE (OverRun 
1017:../../source/src/FWlib/src/stm32f10x_usart.c ****   *     error) and IDLE (Idle line detected) pending bits are cleared by 
1018:../../source/src/FWlib/src/stm32f10x_usart.c ****   *     software sequence: a read operation to USART_SR register 
1019:../../source/src/FWlib/src/stm32f10x_usart.c ****   *     (USART_GetITStatus()) followed by a read operation to USART_DR register 
1020:../../source/src/FWlib/src/stm32f10x_usart.c ****   *     (USART_ReceiveData()).
1021:../../source/src/FWlib/src/stm32f10x_usart.c ****   *   - RXNE pending bit can be also cleared by a read to the USART_DR register 
1022:../../source/src/FWlib/src/stm32f10x_usart.c ****   *     (USART_ReceiveData()).
1023:../../source/src/FWlib/src/stm32f10x_usart.c ****   *   - TC pending bit can be also cleared by software sequence: a read 
1024:../../source/src/FWlib/src/stm32f10x_usart.c ****   *     operation to USART_SR register (USART_GetITStatus()) followed by a write 
1025:../../source/src/FWlib/src/stm32f10x_usart.c ****   *     operation to USART_DR register (USART_SendData()).
1026:../../source/src/FWlib/src/stm32f10x_usart.c ****   *   - TXE pending bit is cleared only by a write to the USART_DR register 
1027:../../source/src/FWlib/src/stm32f10x_usart.c ****   *     (USART_SendData()).
1028:../../source/src/FWlib/src/stm32f10x_usart.c ****   * @retval None
1029:../../source/src/FWlib/src/stm32f10x_usart.c ****   */
1030:../../source/src/FWlib/src/stm32f10x_usart.c **** void USART_ClearITPendingBit(USART_TypeDef* USARTx, uint16_t USART_IT)
1031:../../source/src/FWlib/src/stm32f10x_usart.c **** {
 1322              		.loc 1 1031 0
 1323              		.cfi_startproc
 1324              		@ args = 0, pretend = 0, frame = 0
 1325              		@ frame_needed = 0, uses_anonymous_args = 0
 1326              		@ link register save eliminated.
 1327              	.LVL113:
1032:../../source/src/FWlib/src/stm32f10x_usart.c ****   uint16_t bitpos = 0x00, itmask = 0x00;
1033:../../source/src/FWlib/src/stm32f10x_usart.c ****   /* Check the parameters */
1034:../../source/src/FWlib/src/stm32f10x_usart.c ****   assert_param(IS_USART_ALL_PERIPH(USARTx));
1035:../../source/src/FWlib/src/stm32f10x_usart.c ****   assert_param(IS_USART_CLEAR_IT(USART_IT));
1036:../../source/src/FWlib/src/stm32f10x_usart.c ****   /* The CTS interrupt is not available for UART4 and UART5 */
1037:../../source/src/FWlib/src/stm32f10x_usart.c ****   if (USART_IT == USART_IT_CTS)
1038:../../source/src/FWlib/src/stm32f10x_usart.c ****   {
1039:../../source/src/FWlib/src/stm32f10x_usart.c ****     assert_param(IS_USART_123_PERIPH(USARTx));
1040:../../source/src/FWlib/src/stm32f10x_usart.c ****   }   
1041:../../source/src/FWlib/src/stm32f10x_usart.c ****   
1042:../../source/src/FWlib/src/stm32f10x_usart.c ****   bitpos = USART_IT >> 0x08;
1043:../../source/src/FWlib/src/stm32f10x_usart.c ****   itmask = ((uint16_t)0x01 << (uint16_t)bitpos);
 1328              		.loc 1 1043 0
 1329 03a8 0123     		movs	r3, #1
 1330 03aa 090A     		lsrs	r1, r1, #8
 1331              	.LVL114:
 1332 03ac 8B40     		lsls	r3, r3, r1
1044:../../source/src/FWlib/src/stm32f10x_usart.c ****   USARTx->SR = (uint16_t)~itmask;
 1333              		.loc 1 1044 0
 1334 03ae DB43     		mvns	r3, r3
 1335 03b0 9BB2     		uxth	r3, r3
 1336 03b2 0380     		strh	r3, [r0]	@ movhi
1045:../../source/src/FWlib/src/stm32f10x_usart.c **** }
 1337              		.loc 1 1045 0
 1338 03b4 7047     		bx	lr
 1339              		.cfi_endproc
 1340              	.LFE57:
 1341              		.size	USART_ClearITPendingBit, .-USART_ClearITPendingBit
 1342              	.Letext0:
 1343              		.file 2 "f:\\arm\\gcc2018\\arm-none-eabi\\include\\machine\\_default_types.h"
 1344              		.file 3 "f:\\arm\\gcc2018\\arm-none-eabi\\include\\sys\\_stdint.h"
 1345              		.file 4 "../../source/include/core_cm3.h"
 1346              		.file 5 "../../source/include/system_stm32f10x.h"
 1347              		.file 6 "../../source/include/stm32f10x.h"
 1348              		.file 7 "../../source/src/FWlib/inc/stm32f10x_rcc.h"
ARM GAS  G:\Users\Jaxb\AppData\Local\Temp\cc7ygt2u.s 			page 44


 1349              		.file 8 "../../source/src/FWlib/inc/stm32f10x_usart.h"