ARM GAS  G:\Users\Jaxb\AppData\Local\Temp\ccD75fGw.s 			page 1


   1              		.cpu cortex-m3
   2              		.eabi_attribute 20, 1
   3              		.eabi_attribute 21, 1
   4              		.eabi_attribute 23, 3
   5              		.eabi_attribute 24, 1
   6              		.eabi_attribute 25, 1
   7              		.eabi_attribute 26, 1
   8              		.eabi_attribute 30, 2
   9              		.eabi_attribute 34, 1
  10              		.eabi_attribute 18, 4
  11              		.file	"stm32f10x_rtc.c"
  12              		.text
  13              	.Ltext0:
  14              		.cfi_sections	.debug_frame
  15              		.align	1
  16              		.p2align 2,,3
  17              		.global	RTC_ITConfig
  18              		.syntax unified
  19              		.thumb
  20              		.thumb_func
  21              		.fpu softvfp
  22              		.type	RTC_ITConfig, %function
  23              	RTC_ITConfig:
  24              	.LFB29:
  25              		.file 1 "../../source/src/FWlib/src/stm32f10x_rtc.c"
   1:../../source/src/FWlib/src/stm32f10x_rtc.c **** /**
   2:../../source/src/FWlib/src/stm32f10x_rtc.c ****   ******************************************************************************
   3:../../source/src/FWlib/src/stm32f10x_rtc.c ****   * @file    stm32f10x_rtc.c
   4:../../source/src/FWlib/src/stm32f10x_rtc.c ****   * @author  MCD Application Team
   5:../../source/src/FWlib/src/stm32f10x_rtc.c ****   * @version V3.5.0
   6:../../source/src/FWlib/src/stm32f10x_rtc.c ****   * @date    11-March-2011
   7:../../source/src/FWlib/src/stm32f10x_rtc.c ****   * @brief   This file provides all the RTC firmware functions.
   8:../../source/src/FWlib/src/stm32f10x_rtc.c ****   ******************************************************************************
   9:../../source/src/FWlib/src/stm32f10x_rtc.c ****   * @attention
  10:../../source/src/FWlib/src/stm32f10x_rtc.c ****   *
  11:../../source/src/FWlib/src/stm32f10x_rtc.c ****   * THE PRESENT FIRMWARE WHICH IS FOR GUIDANCE ONLY AIMS AT PROVIDING CUSTOMERS
  12:../../source/src/FWlib/src/stm32f10x_rtc.c ****   * WITH CODING INFORMATION REGARDING THEIR PRODUCTS IN ORDER FOR THEM TO SAVE
  13:../../source/src/FWlib/src/stm32f10x_rtc.c ****   * TIME. AS A RESULT, STMICROELECTRONICS SHALL NOT BE HELD LIABLE FOR ANY
  14:../../source/src/FWlib/src/stm32f10x_rtc.c ****   * DIRECT, INDIRECT OR CONSEQUENTIAL DAMAGES WITH RESPECT TO ANY CLAIMS ARISING
  15:../../source/src/FWlib/src/stm32f10x_rtc.c ****   * FROM THE CONTENT OF SUCH FIRMWARE AND/OR THE USE MADE BY CUSTOMERS OF THE
  16:../../source/src/FWlib/src/stm32f10x_rtc.c ****   * CODING INFORMATION CONTAINED HEREIN IN CONNECTION WITH THEIR PRODUCTS.
  17:../../source/src/FWlib/src/stm32f10x_rtc.c ****   *
  18:../../source/src/FWlib/src/stm32f10x_rtc.c ****   * <h2><center>&copy; COPYRIGHT 2011 STMicroelectronics</center></h2>
  19:../../source/src/FWlib/src/stm32f10x_rtc.c ****   ******************************************************************************
  20:../../source/src/FWlib/src/stm32f10x_rtc.c ****   */
  21:../../source/src/FWlib/src/stm32f10x_rtc.c **** 
  22:../../source/src/FWlib/src/stm32f10x_rtc.c **** /* Includes ------------------------------------------------------------------*/
  23:../../source/src/FWlib/src/stm32f10x_rtc.c **** #include "stm32f10x_rtc.h"
  24:../../source/src/FWlib/src/stm32f10x_rtc.c **** 
  25:../../source/src/FWlib/src/stm32f10x_rtc.c **** /** @addtogroup STM32F10x_StdPeriph_Driver
  26:../../source/src/FWlib/src/stm32f10x_rtc.c ****   * @{
  27:../../source/src/FWlib/src/stm32f10x_rtc.c ****   */
  28:../../source/src/FWlib/src/stm32f10x_rtc.c **** 
  29:../../source/src/FWlib/src/stm32f10x_rtc.c **** /** @defgroup RTC 
  30:../../source/src/FWlib/src/stm32f10x_rtc.c ****   * @brief RTC driver modules
  31:../../source/src/FWlib/src/stm32f10x_rtc.c ****   * @{
  32:../../source/src/FWlib/src/stm32f10x_rtc.c ****   */
ARM GAS  G:\Users\Jaxb\AppData\Local\Temp\ccD75fGw.s 			page 2


  33:../../source/src/FWlib/src/stm32f10x_rtc.c **** 
  34:../../source/src/FWlib/src/stm32f10x_rtc.c **** /** @defgroup RTC_Private_TypesDefinitions
  35:../../source/src/FWlib/src/stm32f10x_rtc.c ****   * @{
  36:../../source/src/FWlib/src/stm32f10x_rtc.c ****   */ 
  37:../../source/src/FWlib/src/stm32f10x_rtc.c **** /**
  38:../../source/src/FWlib/src/stm32f10x_rtc.c ****   * @}
  39:../../source/src/FWlib/src/stm32f10x_rtc.c ****   */
  40:../../source/src/FWlib/src/stm32f10x_rtc.c **** 
  41:../../source/src/FWlib/src/stm32f10x_rtc.c **** /** @defgroup RTC_Private_Defines
  42:../../source/src/FWlib/src/stm32f10x_rtc.c ****   * @{
  43:../../source/src/FWlib/src/stm32f10x_rtc.c ****   */
  44:../../source/src/FWlib/src/stm32f10x_rtc.c **** #define RTC_LSB_MASK     ((uint32_t)0x0000FFFF)  /*!< RTC LSB Mask */
  45:../../source/src/FWlib/src/stm32f10x_rtc.c **** #define PRLH_MSB_MASK    ((uint32_t)0x000F0000)  /*!< RTC Prescaler MSB Mask */
  46:../../source/src/FWlib/src/stm32f10x_rtc.c **** 
  47:../../source/src/FWlib/src/stm32f10x_rtc.c **** /**
  48:../../source/src/FWlib/src/stm32f10x_rtc.c ****   * @}
  49:../../source/src/FWlib/src/stm32f10x_rtc.c ****   */
  50:../../source/src/FWlib/src/stm32f10x_rtc.c **** 
  51:../../source/src/FWlib/src/stm32f10x_rtc.c **** /** @defgroup RTC_Private_Macros
  52:../../source/src/FWlib/src/stm32f10x_rtc.c ****   * @{
  53:../../source/src/FWlib/src/stm32f10x_rtc.c ****   */
  54:../../source/src/FWlib/src/stm32f10x_rtc.c **** 
  55:../../source/src/FWlib/src/stm32f10x_rtc.c **** /**
  56:../../source/src/FWlib/src/stm32f10x_rtc.c ****   * @}
  57:../../source/src/FWlib/src/stm32f10x_rtc.c ****   */
  58:../../source/src/FWlib/src/stm32f10x_rtc.c **** 
  59:../../source/src/FWlib/src/stm32f10x_rtc.c **** /** @defgroup RTC_Private_Variables
  60:../../source/src/FWlib/src/stm32f10x_rtc.c ****   * @{
  61:../../source/src/FWlib/src/stm32f10x_rtc.c ****   */
  62:../../source/src/FWlib/src/stm32f10x_rtc.c **** 
  63:../../source/src/FWlib/src/stm32f10x_rtc.c **** /**
  64:../../source/src/FWlib/src/stm32f10x_rtc.c ****   * @}
  65:../../source/src/FWlib/src/stm32f10x_rtc.c ****   */
  66:../../source/src/FWlib/src/stm32f10x_rtc.c **** 
  67:../../source/src/FWlib/src/stm32f10x_rtc.c **** /** @defgroup RTC_Private_FunctionPrototypes
  68:../../source/src/FWlib/src/stm32f10x_rtc.c ****   * @{
  69:../../source/src/FWlib/src/stm32f10x_rtc.c ****   */
  70:../../source/src/FWlib/src/stm32f10x_rtc.c **** 
  71:../../source/src/FWlib/src/stm32f10x_rtc.c **** /**
  72:../../source/src/FWlib/src/stm32f10x_rtc.c ****   * @}
  73:../../source/src/FWlib/src/stm32f10x_rtc.c ****   */
  74:../../source/src/FWlib/src/stm32f10x_rtc.c **** 
  75:../../source/src/FWlib/src/stm32f10x_rtc.c **** /** @defgroup RTC_Private_Functions
  76:../../source/src/FWlib/src/stm32f10x_rtc.c ****   * @{
  77:../../source/src/FWlib/src/stm32f10x_rtc.c ****   */
  78:../../source/src/FWlib/src/stm32f10x_rtc.c **** 
  79:../../source/src/FWlib/src/stm32f10x_rtc.c **** /**
  80:../../source/src/FWlib/src/stm32f10x_rtc.c ****   * @brief  Enables or disables the specified RTC interrupts.
  81:../../source/src/FWlib/src/stm32f10x_rtc.c ****   * @param  RTC_IT: specifies the RTC interrupts sources to be enabled or disabled.
  82:../../source/src/FWlib/src/stm32f10x_rtc.c ****   *   This parameter can be any combination of the following values:
  83:../../source/src/FWlib/src/stm32f10x_rtc.c ****   *     @arg RTC_IT_OW: Overflow interrupt
  84:../../source/src/FWlib/src/stm32f10x_rtc.c ****   *     @arg RTC_IT_ALR: Alarm interrupt
  85:../../source/src/FWlib/src/stm32f10x_rtc.c ****   *     @arg RTC_IT_SEC: Second interrupt
  86:../../source/src/FWlib/src/stm32f10x_rtc.c ****   * @param  NewState: new state of the specified RTC interrupts.
  87:../../source/src/FWlib/src/stm32f10x_rtc.c ****   *   This parameter can be: ENABLE or DISABLE.
  88:../../source/src/FWlib/src/stm32f10x_rtc.c ****   * @retval None
  89:../../source/src/FWlib/src/stm32f10x_rtc.c ****   */
ARM GAS  G:\Users\Jaxb\AppData\Local\Temp\ccD75fGw.s 			page 3


  90:../../source/src/FWlib/src/stm32f10x_rtc.c **** void RTC_ITConfig(uint16_t RTC_IT, FunctionalState NewState)
  91:../../source/src/FWlib/src/stm32f10x_rtc.c **** {
  26              		.loc 1 91 0
  27              		.cfi_startproc
  28              		@ args = 0, pretend = 0, frame = 0
  29              		@ frame_needed = 0, uses_anonymous_args = 0
  30              		@ link register save eliminated.
  31              	.LVL0:
  92:../../source/src/FWlib/src/stm32f10x_rtc.c ****   /* Check the parameters */
  93:../../source/src/FWlib/src/stm32f10x_rtc.c ****   assert_param(IS_RTC_IT(RTC_IT));  
  94:../../source/src/FWlib/src/stm32f10x_rtc.c ****   assert_param(IS_FUNCTIONAL_STATE(NewState));
  95:../../source/src/FWlib/src/stm32f10x_rtc.c ****   
  96:../../source/src/FWlib/src/stm32f10x_rtc.c ****   if (NewState != DISABLE)
  32              		.loc 1 96 0
  33 0000 29B9     		cbnz	r1, .L5
  97:../../source/src/FWlib/src/stm32f10x_rtc.c ****   {
  98:../../source/src/FWlib/src/stm32f10x_rtc.c ****     RTC->CRH |= RTC_IT;
  99:../../source/src/FWlib/src/stm32f10x_rtc.c ****   }
 100:../../source/src/FWlib/src/stm32f10x_rtc.c ****   else
 101:../../source/src/FWlib/src/stm32f10x_rtc.c ****   {
 102:../../source/src/FWlib/src/stm32f10x_rtc.c ****     RTC->CRH &= (uint16_t)~RTC_IT;
  34              		.loc 1 102 0
  35 0002 054A     		ldr	r2, .L6
  36 0004 1388     		ldrh	r3, [r2]
  37 0006 23EA0000 		bic	r0, r3, r0
  38              	.LVL1:
  39 000a 1080     		strh	r0, [r2]	@ movhi
 103:../../source/src/FWlib/src/stm32f10x_rtc.c ****   }
 104:../../source/src/FWlib/src/stm32f10x_rtc.c **** }
  40              		.loc 1 104 0
  41 000c 7047     		bx	lr
  42              	.LVL2:
  43              	.L5:
  98:../../source/src/FWlib/src/stm32f10x_rtc.c ****   }
  44              		.loc 1 98 0
  45 000e 024B     		ldr	r3, .L6
  46 0010 1A88     		ldrh	r2, [r3]
  47 0012 1043     		orrs	r0, r0, r2
  48              	.LVL3:
  49 0014 1880     		strh	r0, [r3]	@ movhi
  50 0016 7047     		bx	lr
  51              	.L7:
  52              		.align	2
  53              	.L6:
  54 0018 00280040 		.word	1073752064
  55              		.cfi_endproc
  56              	.LFE29:
  57              		.size	RTC_ITConfig, .-RTC_ITConfig
  58              		.align	1
  59              		.p2align 2,,3
  60              		.global	RTC_EnterConfigMode
  61              		.syntax unified
  62              		.thumb
  63              		.thumb_func
  64              		.fpu softvfp
  65              		.type	RTC_EnterConfigMode, %function
  66              	RTC_EnterConfigMode:
ARM GAS  G:\Users\Jaxb\AppData\Local\Temp\ccD75fGw.s 			page 4


  67              	.LFB30:
 105:../../source/src/FWlib/src/stm32f10x_rtc.c **** 
 106:../../source/src/FWlib/src/stm32f10x_rtc.c **** /**
 107:../../source/src/FWlib/src/stm32f10x_rtc.c ****   * @brief  Enters the RTC configuration mode.
 108:../../source/src/FWlib/src/stm32f10x_rtc.c ****   * @param  None
 109:../../source/src/FWlib/src/stm32f10x_rtc.c ****   * @retval None
 110:../../source/src/FWlib/src/stm32f10x_rtc.c ****   */
 111:../../source/src/FWlib/src/stm32f10x_rtc.c **** void RTC_EnterConfigMode(void)
 112:../../source/src/FWlib/src/stm32f10x_rtc.c **** {
  68              		.loc 1 112 0
  69              		.cfi_startproc
  70              		@ args = 0, pretend = 0, frame = 0
  71              		@ frame_needed = 0, uses_anonymous_args = 0
  72              		@ link register save eliminated.
 113:../../source/src/FWlib/src/stm32f10x_rtc.c ****   /* Set the CNF flag to enter in the Configuration Mode */
 114:../../source/src/FWlib/src/stm32f10x_rtc.c ****   RTC->CRL |= RTC_CRL_CNF;
  73              		.loc 1 114 0
  74 001c 024A     		ldr	r2, .L9
  75 001e 9388     		ldrh	r3, [r2, #4]
  76 0020 43F01003 		orr	r3, r3, #16
  77 0024 9380     		strh	r3, [r2, #4]	@ movhi
 115:../../source/src/FWlib/src/stm32f10x_rtc.c **** }
  78              		.loc 1 115 0
  79 0026 7047     		bx	lr
  80              	.L10:
  81              		.align	2
  82              	.L9:
  83 0028 00280040 		.word	1073752064
  84              		.cfi_endproc
  85              	.LFE30:
  86              		.size	RTC_EnterConfigMode, .-RTC_EnterConfigMode
  87              		.align	1
  88              		.p2align 2,,3
  89              		.global	RTC_ExitConfigMode
  90              		.syntax unified
  91              		.thumb
  92              		.thumb_func
  93              		.fpu softvfp
  94              		.type	RTC_ExitConfigMode, %function
  95              	RTC_ExitConfigMode:
  96              	.LFB31:
 116:../../source/src/FWlib/src/stm32f10x_rtc.c **** 
 117:../../source/src/FWlib/src/stm32f10x_rtc.c **** /**
 118:../../source/src/FWlib/src/stm32f10x_rtc.c ****   * @brief  Exits from the RTC configuration mode.
 119:../../source/src/FWlib/src/stm32f10x_rtc.c ****   * @param  None
 120:../../source/src/FWlib/src/stm32f10x_rtc.c ****   * @retval None
 121:../../source/src/FWlib/src/stm32f10x_rtc.c ****   */
 122:../../source/src/FWlib/src/stm32f10x_rtc.c **** void RTC_ExitConfigMode(void)
 123:../../source/src/FWlib/src/stm32f10x_rtc.c **** {
  97              		.loc 1 123 0
  98              		.cfi_startproc
  99              		@ args = 0, pretend = 0, frame = 0
 100              		@ frame_needed = 0, uses_anonymous_args = 0
 101              		@ link register save eliminated.
 124:../../source/src/FWlib/src/stm32f10x_rtc.c ****   /* Reset the CNF flag to exit from the Configuration Mode */
 125:../../source/src/FWlib/src/stm32f10x_rtc.c ****   RTC->CRL &= (uint16_t)~((uint16_t)RTC_CRL_CNF); 
 102              		.loc 1 125 0
ARM GAS  G:\Users\Jaxb\AppData\Local\Temp\ccD75fGw.s 			page 5


 103 002c 034A     		ldr	r2, .L12
 104 002e 9388     		ldrh	r3, [r2, #4]
 105 0030 23F01003 		bic	r3, r3, #16
 106 0034 1B04     		lsls	r3, r3, #16
 107 0036 1B0C     		lsrs	r3, r3, #16
 108 0038 9380     		strh	r3, [r2, #4]	@ movhi
 126:../../source/src/FWlib/src/stm32f10x_rtc.c **** }
 109              		.loc 1 126 0
 110 003a 7047     		bx	lr
 111              	.L13:
 112              		.align	2
 113              	.L12:
 114 003c 00280040 		.word	1073752064
 115              		.cfi_endproc
 116              	.LFE31:
 117              		.size	RTC_ExitConfigMode, .-RTC_ExitConfigMode
 118              		.align	1
 119              		.p2align 2,,3
 120              		.global	RTC_GetCounter
 121              		.syntax unified
 122              		.thumb
 123              		.thumb_func
 124              		.fpu softvfp
 125              		.type	RTC_GetCounter, %function
 126              	RTC_GetCounter:
 127              	.LFB32:
 127:../../source/src/FWlib/src/stm32f10x_rtc.c **** 
 128:../../source/src/FWlib/src/stm32f10x_rtc.c **** /**
 129:../../source/src/FWlib/src/stm32f10x_rtc.c ****   * @brief  Gets the RTC counter value.
 130:../../source/src/FWlib/src/stm32f10x_rtc.c ****   * @param  None
 131:../../source/src/FWlib/src/stm32f10x_rtc.c ****   * @retval RTC counter value.
 132:../../source/src/FWlib/src/stm32f10x_rtc.c ****   */
 133:../../source/src/FWlib/src/stm32f10x_rtc.c **** uint32_t RTC_GetCounter(void)
 134:../../source/src/FWlib/src/stm32f10x_rtc.c **** {
 128              		.loc 1 134 0
 129              		.cfi_startproc
 130              		@ args = 0, pretend = 0, frame = 0
 131              		@ frame_needed = 0, uses_anonymous_args = 0
 132              		@ link register save eliminated.
 133              	.LVL4:
 135:../../source/src/FWlib/src/stm32f10x_rtc.c ****   uint16_t tmp = 0;
 136:../../source/src/FWlib/src/stm32f10x_rtc.c ****   tmp = RTC->CNTL;
 134              		.loc 1 136 0
 135 0040 024B     		ldr	r3, .L15
 136 0042 9A8B     		ldrh	r2, [r3, #28]
 137              	.LVL5:
 137:../../source/src/FWlib/src/stm32f10x_rtc.c ****   return (((uint32_t)RTC->CNTH << 16 ) | tmp) ;
 138              		.loc 1 137 0
 139 0044 188B     		ldrh	r0, [r3, #24]
 138:../../source/src/FWlib/src/stm32f10x_rtc.c **** }
 140              		.loc 1 138 0
 141 0046 42EA0040 		orr	r0, r2, r0, lsl #16
 142 004a 7047     		bx	lr
 143              	.L16:
 144              		.align	2
 145              	.L15:
 146 004c 00280040 		.word	1073752064
ARM GAS  G:\Users\Jaxb\AppData\Local\Temp\ccD75fGw.s 			page 6


 147              		.cfi_endproc
 148              	.LFE32:
 149              		.size	RTC_GetCounter, .-RTC_GetCounter
 150              		.align	1
 151              		.p2align 2,,3
 152              		.global	RTC_SetCounter
 153              		.syntax unified
 154              		.thumb
 155              		.thumb_func
 156              		.fpu softvfp
 157              		.type	RTC_SetCounter, %function
 158              	RTC_SetCounter:
 159              	.LFB33:
 139:../../source/src/FWlib/src/stm32f10x_rtc.c **** 
 140:../../source/src/FWlib/src/stm32f10x_rtc.c **** /**
 141:../../source/src/FWlib/src/stm32f10x_rtc.c ****   * @brief  Sets the RTC counter value.
 142:../../source/src/FWlib/src/stm32f10x_rtc.c ****   * @param  CounterValue: RTC counter new value.
 143:../../source/src/FWlib/src/stm32f10x_rtc.c ****   * @retval None
 144:../../source/src/FWlib/src/stm32f10x_rtc.c ****   */
 145:../../source/src/FWlib/src/stm32f10x_rtc.c **** void RTC_SetCounter(uint32_t CounterValue)
 146:../../source/src/FWlib/src/stm32f10x_rtc.c **** { 
 160              		.loc 1 146 0
 161              		.cfi_startproc
 162              		@ args = 0, pretend = 0, frame = 0
 163              		@ frame_needed = 0, uses_anonymous_args = 0
 164              		@ link register save eliminated.
 165              	.LVL6:
 166              	.LBB14:
 167              	.LBB15:
 114:../../source/src/FWlib/src/stm32f10x_rtc.c **** }
 168              		.loc 1 114 0
 169 0050 074A     		ldr	r2, .L18
 170              	.LBE15:
 171              	.LBE14:
 147:../../source/src/FWlib/src/stm32f10x_rtc.c ****   RTC_EnterConfigMode();
 148:../../source/src/FWlib/src/stm32f10x_rtc.c ****   /* Set RTC COUNTER MSB word */
 149:../../source/src/FWlib/src/stm32f10x_rtc.c ****   RTC->CNTH = CounterValue >> 16;
 172              		.loc 1 149 0
 173 0052 010C     		lsrs	r1, r0, #16
 174              	.LBB18:
 175              	.LBB16:
 114:../../source/src/FWlib/src/stm32f10x_rtc.c **** }
 176              		.loc 1 114 0
 177 0054 9388     		ldrh	r3, [r2, #4]
 178              	.LBE16:
 179              	.LBE18:
 150:../../source/src/FWlib/src/stm32f10x_rtc.c ****   /* Set RTC COUNTER LSB word */
 151:../../source/src/FWlib/src/stm32f10x_rtc.c ****   RTC->CNTL = (CounterValue & RTC_LSB_MASK);
 180              		.loc 1 151 0
 181 0056 80B2     		uxth	r0, r0
 182              	.LVL7:
 183              	.LBB19:
 184              	.LBB17:
 114:../../source/src/FWlib/src/stm32f10x_rtc.c **** }
 185              		.loc 1 114 0
 186 0058 43F01003 		orr	r3, r3, #16
 187 005c 9380     		strh	r3, [r2, #4]	@ movhi
ARM GAS  G:\Users\Jaxb\AppData\Local\Temp\ccD75fGw.s 			page 7


 188              	.LBE17:
 189              	.LBE19:
 149:../../source/src/FWlib/src/stm32f10x_rtc.c ****   /* Set RTC COUNTER LSB word */
 190              		.loc 1 149 0
 191 005e 1183     		strh	r1, [r2, #24]	@ movhi
 192              		.loc 1 151 0
 193 0060 9083     		strh	r0, [r2, #28]	@ movhi
 194              	.LBB20:
 195              	.LBB21:
 125:../../source/src/FWlib/src/stm32f10x_rtc.c **** }
 196              		.loc 1 125 0
 197 0062 9388     		ldrh	r3, [r2, #4]
 198 0064 23F01003 		bic	r3, r3, #16
 199 0068 1B04     		lsls	r3, r3, #16
 200 006a 1B0C     		lsrs	r3, r3, #16
 201 006c 9380     		strh	r3, [r2, #4]	@ movhi
 202              	.LBE21:
 203              	.LBE20:
 152:../../source/src/FWlib/src/stm32f10x_rtc.c ****   RTC_ExitConfigMode();
 153:../../source/src/FWlib/src/stm32f10x_rtc.c **** }
 204              		.loc 1 153 0
 205 006e 7047     		bx	lr
 206              	.L19:
 207              		.align	2
 208              	.L18:
 209 0070 00280040 		.word	1073752064
 210              		.cfi_endproc
 211              	.LFE33:
 212              		.size	RTC_SetCounter, .-RTC_SetCounter
 213              		.align	1
 214              		.p2align 2,,3
 215              		.global	RTC_SetPrescaler
 216              		.syntax unified
 217              		.thumb
 218              		.thumb_func
 219              		.fpu softvfp
 220              		.type	RTC_SetPrescaler, %function
 221              	RTC_SetPrescaler:
 222              	.LFB34:
 154:../../source/src/FWlib/src/stm32f10x_rtc.c **** 
 155:../../source/src/FWlib/src/stm32f10x_rtc.c **** /**
 156:../../source/src/FWlib/src/stm32f10x_rtc.c ****   * @brief  Sets the RTC prescaler value.
 157:../../source/src/FWlib/src/stm32f10x_rtc.c ****   * @param  PrescalerValue: RTC prescaler new value.
 158:../../source/src/FWlib/src/stm32f10x_rtc.c ****   * @retval None
 159:../../source/src/FWlib/src/stm32f10x_rtc.c ****   */
 160:../../source/src/FWlib/src/stm32f10x_rtc.c **** void RTC_SetPrescaler(uint32_t PrescalerValue)
 161:../../source/src/FWlib/src/stm32f10x_rtc.c **** {
 223              		.loc 1 161 0
 224              		.cfi_startproc
 225              		@ args = 0, pretend = 0, frame = 0
 226              		@ frame_needed = 0, uses_anonymous_args = 0
 227              		@ link register save eliminated.
 228              	.LVL8:
 229              	.LBB22:
 230              	.LBB23:
 114:../../source/src/FWlib/src/stm32f10x_rtc.c **** }
 231              		.loc 1 114 0
ARM GAS  G:\Users\Jaxb\AppData\Local\Temp\ccD75fGw.s 			page 8


 232 0074 084A     		ldr	r2, .L21
 233              	.LBE23:
 234              	.LBE22:
 162:../../source/src/FWlib/src/stm32f10x_rtc.c ****   /* Check the parameters */
 163:../../source/src/FWlib/src/stm32f10x_rtc.c ****   assert_param(IS_RTC_PRESCALER(PrescalerValue));
 164:../../source/src/FWlib/src/stm32f10x_rtc.c ****   
 165:../../source/src/FWlib/src/stm32f10x_rtc.c ****   RTC_EnterConfigMode();
 166:../../source/src/FWlib/src/stm32f10x_rtc.c ****   /* Set RTC PRESCALER MSB word */
 167:../../source/src/FWlib/src/stm32f10x_rtc.c ****   RTC->PRLH = (PrescalerValue & PRLH_MSB_MASK) >> 16;
 235              		.loc 1 167 0
 236 0076 C0F30341 		ubfx	r1, r0, #16, #4
 237              	.LBB26:
 238              	.LBB24:
 114:../../source/src/FWlib/src/stm32f10x_rtc.c **** }
 239              		.loc 1 114 0
 240 007a 9388     		ldrh	r3, [r2, #4]
 241              	.LBE24:
 242              	.LBE26:
 168:../../source/src/FWlib/src/stm32f10x_rtc.c ****   /* Set RTC PRESCALER LSB word */
 169:../../source/src/FWlib/src/stm32f10x_rtc.c ****   RTC->PRLL = (PrescalerValue & RTC_LSB_MASK);
 243              		.loc 1 169 0
 244 007c 80B2     		uxth	r0, r0
 245              	.LVL9:
 246              	.LBB27:
 247              	.LBB25:
 114:../../source/src/FWlib/src/stm32f10x_rtc.c **** }
 248              		.loc 1 114 0
 249 007e 43F01003 		orr	r3, r3, #16
 250 0082 9380     		strh	r3, [r2, #4]	@ movhi
 251              	.LBE25:
 252              	.LBE27:
 167:../../source/src/FWlib/src/stm32f10x_rtc.c ****   /* Set RTC PRESCALER LSB word */
 253              		.loc 1 167 0
 254 0084 1181     		strh	r1, [r2, #8]	@ movhi
 255              		.loc 1 169 0
 256 0086 9081     		strh	r0, [r2, #12]	@ movhi
 257              	.LBB28:
 258              	.LBB29:
 125:../../source/src/FWlib/src/stm32f10x_rtc.c **** }
 259              		.loc 1 125 0
 260 0088 9388     		ldrh	r3, [r2, #4]
 261 008a 23F01003 		bic	r3, r3, #16
 262 008e 1B04     		lsls	r3, r3, #16
 263 0090 1B0C     		lsrs	r3, r3, #16
 264 0092 9380     		strh	r3, [r2, #4]	@ movhi
 265              	.LBE29:
 266              	.LBE28:
 170:../../source/src/FWlib/src/stm32f10x_rtc.c ****   RTC_ExitConfigMode();
 171:../../source/src/FWlib/src/stm32f10x_rtc.c **** }
 267              		.loc 1 171 0
 268 0094 7047     		bx	lr
 269              	.L22:
 270 0096 00BF     		.align	2
 271              	.L21:
 272 0098 00280040 		.word	1073752064
 273              		.cfi_endproc
 274              	.LFE34:
ARM GAS  G:\Users\Jaxb\AppData\Local\Temp\ccD75fGw.s 			page 9


 275              		.size	RTC_SetPrescaler, .-RTC_SetPrescaler
 276              		.align	1
 277              		.p2align 2,,3
 278              		.global	RTC_SetAlarm
 279              		.syntax unified
 280              		.thumb
 281              		.thumb_func
 282              		.fpu softvfp
 283              		.type	RTC_SetAlarm, %function
 284              	RTC_SetAlarm:
 285              	.LFB35:
 172:../../source/src/FWlib/src/stm32f10x_rtc.c **** 
 173:../../source/src/FWlib/src/stm32f10x_rtc.c **** /**
 174:../../source/src/FWlib/src/stm32f10x_rtc.c ****   * @brief  Sets the RTC alarm value.
 175:../../source/src/FWlib/src/stm32f10x_rtc.c ****   * @param  AlarmValue: RTC alarm new value.
 176:../../source/src/FWlib/src/stm32f10x_rtc.c ****   * @retval None
 177:../../source/src/FWlib/src/stm32f10x_rtc.c ****   */
 178:../../source/src/FWlib/src/stm32f10x_rtc.c **** void RTC_SetAlarm(uint32_t AlarmValue)
 179:../../source/src/FWlib/src/stm32f10x_rtc.c **** {  
 286              		.loc 1 179 0
 287              		.cfi_startproc
 288              		@ args = 0, pretend = 0, frame = 0
 289              		@ frame_needed = 0, uses_anonymous_args = 0
 290              		@ link register save eliminated.
 291              	.LVL10:
 292              	.LBB30:
 293              	.LBB31:
 114:../../source/src/FWlib/src/stm32f10x_rtc.c **** }
 294              		.loc 1 114 0
 295 009c 074A     		ldr	r2, .L24
 296              	.LBE31:
 297              	.LBE30:
 180:../../source/src/FWlib/src/stm32f10x_rtc.c ****   RTC_EnterConfigMode();
 181:../../source/src/FWlib/src/stm32f10x_rtc.c ****   /* Set the ALARM MSB word */
 182:../../source/src/FWlib/src/stm32f10x_rtc.c ****   RTC->ALRH = AlarmValue >> 16;
 298              		.loc 1 182 0
 299 009e 010C     		lsrs	r1, r0, #16
 300              	.LBB34:
 301              	.LBB32:
 114:../../source/src/FWlib/src/stm32f10x_rtc.c **** }
 302              		.loc 1 114 0
 303 00a0 9388     		ldrh	r3, [r2, #4]
 304              	.LBE32:
 305              	.LBE34:
 183:../../source/src/FWlib/src/stm32f10x_rtc.c ****   /* Set the ALARM LSB word */
 184:../../source/src/FWlib/src/stm32f10x_rtc.c ****   RTC->ALRL = (AlarmValue & RTC_LSB_MASK);
 306              		.loc 1 184 0
 307 00a2 80B2     		uxth	r0, r0
 308              	.LVL11:
 309              	.LBB35:
 310              	.LBB33:
 114:../../source/src/FWlib/src/stm32f10x_rtc.c **** }
 311              		.loc 1 114 0
 312 00a4 43F01003 		orr	r3, r3, #16
 313 00a8 9380     		strh	r3, [r2, #4]	@ movhi
 314              	.LBE33:
 315              	.LBE35:
ARM GAS  G:\Users\Jaxb\AppData\Local\Temp\ccD75fGw.s 			page 10


 182:../../source/src/FWlib/src/stm32f10x_rtc.c ****   /* Set the ALARM LSB word */
 316              		.loc 1 182 0
 317 00aa 1184     		strh	r1, [r2, #32]	@ movhi
 318              		.loc 1 184 0
 319 00ac 9084     		strh	r0, [r2, #36]	@ movhi
 320              	.LBB36:
 321              	.LBB37:
 125:../../source/src/FWlib/src/stm32f10x_rtc.c **** }
 322              		.loc 1 125 0
 323 00ae 9388     		ldrh	r3, [r2, #4]
 324 00b0 23F01003 		bic	r3, r3, #16
 325 00b4 1B04     		lsls	r3, r3, #16
 326 00b6 1B0C     		lsrs	r3, r3, #16
 327 00b8 9380     		strh	r3, [r2, #4]	@ movhi
 328              	.LBE37:
 329              	.LBE36:
 185:../../source/src/FWlib/src/stm32f10x_rtc.c ****   RTC_ExitConfigMode();
 186:../../source/src/FWlib/src/stm32f10x_rtc.c **** }
 330              		.loc 1 186 0
 331 00ba 7047     		bx	lr
 332              	.L25:
 333              		.align	2
 334              	.L24:
 335 00bc 00280040 		.word	1073752064
 336              		.cfi_endproc
 337              	.LFE35:
 338              		.size	RTC_SetAlarm, .-RTC_SetAlarm
 339              		.align	1
 340              		.p2align 2,,3
 341              		.global	RTC_GetDivider
 342              		.syntax unified
 343              		.thumb
 344              		.thumb_func
 345              		.fpu softvfp
 346              		.type	RTC_GetDivider, %function
 347              	RTC_GetDivider:
 348              	.LFB36:
 187:../../source/src/FWlib/src/stm32f10x_rtc.c **** 
 188:../../source/src/FWlib/src/stm32f10x_rtc.c **** /**
 189:../../source/src/FWlib/src/stm32f10x_rtc.c ****   * @brief  Gets the RTC divider value.
 190:../../source/src/FWlib/src/stm32f10x_rtc.c ****   * @param  None
 191:../../source/src/FWlib/src/stm32f10x_rtc.c ****   * @retval RTC Divider value.
 192:../../source/src/FWlib/src/stm32f10x_rtc.c ****   */
 193:../../source/src/FWlib/src/stm32f10x_rtc.c **** uint32_t RTC_GetDivider(void)
 194:../../source/src/FWlib/src/stm32f10x_rtc.c **** {
 349              		.loc 1 194 0
 350              		.cfi_startproc
 351              		@ args = 0, pretend = 0, frame = 0
 352              		@ frame_needed = 0, uses_anonymous_args = 0
 353              		@ link register save eliminated.
 354              	.LVL12:
 195:../../source/src/FWlib/src/stm32f10x_rtc.c ****   uint32_t tmp = 0x00;
 196:../../source/src/FWlib/src/stm32f10x_rtc.c ****   tmp = ((uint32_t)RTC->DIVH & (uint32_t)0x000F) << 16;
 355              		.loc 1 196 0
 356 00c0 034A     		ldr	r2, .L27
 357 00c2 138A     		ldrh	r3, [r2, #16]
 197:../../source/src/FWlib/src/stm32f10x_rtc.c ****   tmp |= RTC->DIVL;
ARM GAS  G:\Users\Jaxb\AppData\Local\Temp\ccD75fGw.s 			page 11


 358              		.loc 1 197 0
 359 00c4 908A     		ldrh	r0, [r2, #20]
 196:../../source/src/FWlib/src/stm32f10x_rtc.c ****   tmp |= RTC->DIVL;
 360              		.loc 1 196 0
 361 00c6 1B04     		lsls	r3, r3, #16
 362 00c8 03F47023 		and	r3, r3, #983040
 363              	.LVL13:
 198:../../source/src/FWlib/src/stm32f10x_rtc.c ****   return tmp;
 199:../../source/src/FWlib/src/stm32f10x_rtc.c **** }
 364              		.loc 1 199 0
 365 00cc 1843     		orrs	r0, r0, r3
 366              	.LVL14:
 367 00ce 7047     		bx	lr
 368              	.L28:
 369              		.align	2
 370              	.L27:
 371 00d0 00280040 		.word	1073752064
 372              		.cfi_endproc
 373              	.LFE36:
 374              		.size	RTC_GetDivider, .-RTC_GetDivider
 375              		.align	1
 376              		.p2align 2,,3
 377              		.global	RTC_WaitForLastTask
 378              		.syntax unified
 379              		.thumb
 380              		.thumb_func
 381              		.fpu softvfp
 382              		.type	RTC_WaitForLastTask, %function
 383              	RTC_WaitForLastTask:
 384              	.LFB37:
 200:../../source/src/FWlib/src/stm32f10x_rtc.c **** 
 201:../../source/src/FWlib/src/stm32f10x_rtc.c **** /**
 202:../../source/src/FWlib/src/stm32f10x_rtc.c ****   * @brief  Waits until last write operation on RTC registers has finished.
 203:../../source/src/FWlib/src/stm32f10x_rtc.c ****   * @note   This function must be called before any write to RTC registers.
 204:../../source/src/FWlib/src/stm32f10x_rtc.c ****   * @param  None
 205:../../source/src/FWlib/src/stm32f10x_rtc.c ****   * @retval None
 206:../../source/src/FWlib/src/stm32f10x_rtc.c ****   */
 207:../../source/src/FWlib/src/stm32f10x_rtc.c **** void RTC_WaitForLastTask(void)
 208:../../source/src/FWlib/src/stm32f10x_rtc.c **** {
 385              		.loc 1 208 0
 386              		.cfi_startproc
 387              		@ args = 0, pretend = 0, frame = 0
 388              		@ frame_needed = 0, uses_anonymous_args = 0
 389              		@ link register save eliminated.
 209:../../source/src/FWlib/src/stm32f10x_rtc.c ****   /* Loop until RTOFF flag is set */
 210:../../source/src/FWlib/src/stm32f10x_rtc.c ****   while ((RTC->CRL & RTC_FLAG_RTOFF) == (uint16_t)RESET)
 390              		.loc 1 210 0
 391 00d4 024A     		ldr	r2, .L33
 392              	.L30:
 393              		.loc 1 210 0 is_stmt 0 discriminator 1
 394 00d6 9388     		ldrh	r3, [r2, #4]
 395 00d8 9B06     		lsls	r3, r3, #26
 396 00da FCD5     		bpl	.L30
 211:../../source/src/FWlib/src/stm32f10x_rtc.c ****   {
 212:../../source/src/FWlib/src/stm32f10x_rtc.c ****   }
 213:../../source/src/FWlib/src/stm32f10x_rtc.c **** }
 397              		.loc 1 213 0 is_stmt 1
ARM GAS  G:\Users\Jaxb\AppData\Local\Temp\ccD75fGw.s 			page 12


 398 00dc 7047     		bx	lr
 399              	.L34:
 400 00de 00BF     		.align	2
 401              	.L33:
 402 00e0 00280040 		.word	1073752064
 403              		.cfi_endproc
 404              	.LFE37:
 405              		.size	RTC_WaitForLastTask, .-RTC_WaitForLastTask
 406              		.align	1
 407              		.p2align 2,,3
 408              		.global	RTC_WaitForSynchro
 409              		.syntax unified
 410              		.thumb
 411              		.thumb_func
 412              		.fpu softvfp
 413              		.type	RTC_WaitForSynchro, %function
 414              	RTC_WaitForSynchro:
 415              	.LFB38:
 214:../../source/src/FWlib/src/stm32f10x_rtc.c **** 
 215:../../source/src/FWlib/src/stm32f10x_rtc.c **** /**
 216:../../source/src/FWlib/src/stm32f10x_rtc.c ****   * @brief  Waits until the RTC registers (RTC_CNT, RTC_ALR and RTC_PRL)
 217:../../source/src/FWlib/src/stm32f10x_rtc.c ****   *   are synchronized with RTC APB clock.
 218:../../source/src/FWlib/src/stm32f10x_rtc.c ****   * @note   This function must be called before any read operation after an APB reset
 219:../../source/src/FWlib/src/stm32f10x_rtc.c ****   *   or an APB clock stop.
 220:../../source/src/FWlib/src/stm32f10x_rtc.c ****   * @param  None
 221:../../source/src/FWlib/src/stm32f10x_rtc.c ****   * @retval None
 222:../../source/src/FWlib/src/stm32f10x_rtc.c ****   */
 223:../../source/src/FWlib/src/stm32f10x_rtc.c **** void RTC_WaitForSynchro(void)
 224:../../source/src/FWlib/src/stm32f10x_rtc.c **** {
 416              		.loc 1 224 0
 417              		.cfi_startproc
 418              		@ args = 0, pretend = 0, frame = 0
 419              		@ frame_needed = 0, uses_anonymous_args = 0
 420              		@ link register save eliminated.
 225:../../source/src/FWlib/src/stm32f10x_rtc.c ****   /* Clear RSF flag */
 226:../../source/src/FWlib/src/stm32f10x_rtc.c ****   RTC->CRL &= (uint16_t)~RTC_FLAG_RSF;
 421              		.loc 1 226 0
 422 00e4 0549     		ldr	r1, .L39
 227:../../source/src/FWlib/src/stm32f10x_rtc.c ****   /* Loop until RSF flag is set */
 228:../../source/src/FWlib/src/stm32f10x_rtc.c ****   while ((RTC->CRL & RTC_FLAG_RSF) == (uint16_t)RESET)
 423              		.loc 1 228 0
 424 00e6 0A46     		mov	r2, r1
 226:../../source/src/FWlib/src/stm32f10x_rtc.c ****   /* Loop until RSF flag is set */
 425              		.loc 1 226 0
 426 00e8 8B88     		ldrh	r3, [r1, #4]
 427 00ea 23F00803 		bic	r3, r3, #8
 428 00ee 1B04     		lsls	r3, r3, #16
 429 00f0 1B0C     		lsrs	r3, r3, #16
 430 00f2 8B80     		strh	r3, [r1, #4]	@ movhi
 431              	.L36:
 432              		.loc 1 228 0 discriminator 1
 433 00f4 9388     		ldrh	r3, [r2, #4]
 434 00f6 1B07     		lsls	r3, r3, #28
 435 00f8 FCD5     		bpl	.L36
 229:../../source/src/FWlib/src/stm32f10x_rtc.c ****   {
 230:../../source/src/FWlib/src/stm32f10x_rtc.c ****   }
 231:../../source/src/FWlib/src/stm32f10x_rtc.c **** }
ARM GAS  G:\Users\Jaxb\AppData\Local\Temp\ccD75fGw.s 			page 13


 436              		.loc 1 231 0
 437 00fa 7047     		bx	lr
 438              	.L40:
 439              		.align	2
 440              	.L39:
 441 00fc 00280040 		.word	1073752064
 442              		.cfi_endproc
 443              	.LFE38:
 444              		.size	RTC_WaitForSynchro, .-RTC_WaitForSynchro
 445              		.align	1
 446              		.p2align 2,,3
 447              		.global	RTC_GetFlagStatus
 448              		.syntax unified
 449              		.thumb
 450              		.thumb_func
 451              		.fpu softvfp
 452              		.type	RTC_GetFlagStatus, %function
 453              	RTC_GetFlagStatus:
 454              	.LFB39:
 232:../../source/src/FWlib/src/stm32f10x_rtc.c **** 
 233:../../source/src/FWlib/src/stm32f10x_rtc.c **** /**
 234:../../source/src/FWlib/src/stm32f10x_rtc.c ****   * @brief  Checks whether the specified RTC flag is set or not.
 235:../../source/src/FWlib/src/stm32f10x_rtc.c ****   * @param  RTC_FLAG: specifies the flag to check.
 236:../../source/src/FWlib/src/stm32f10x_rtc.c ****   *   This parameter can be one the following values:
 237:../../source/src/FWlib/src/stm32f10x_rtc.c ****   *     @arg RTC_FLAG_RTOFF: RTC Operation OFF flag
 238:../../source/src/FWlib/src/stm32f10x_rtc.c ****   *     @arg RTC_FLAG_RSF: Registers Synchronized flag
 239:../../source/src/FWlib/src/stm32f10x_rtc.c ****   *     @arg RTC_FLAG_OW: Overflow flag
 240:../../source/src/FWlib/src/stm32f10x_rtc.c ****   *     @arg RTC_FLAG_ALR: Alarm flag
 241:../../source/src/FWlib/src/stm32f10x_rtc.c ****   *     @arg RTC_FLAG_SEC: Second flag
 242:../../source/src/FWlib/src/stm32f10x_rtc.c ****   * @retval The new state of RTC_FLAG (SET or RESET).
 243:../../source/src/FWlib/src/stm32f10x_rtc.c ****   */
 244:../../source/src/FWlib/src/stm32f10x_rtc.c **** FlagStatus RTC_GetFlagStatus(uint16_t RTC_FLAG)
 245:../../source/src/FWlib/src/stm32f10x_rtc.c **** {
 455              		.loc 1 245 0
 456              		.cfi_startproc
 457              		@ args = 0, pretend = 0, frame = 0
 458              		@ frame_needed = 0, uses_anonymous_args = 0
 459              		@ link register save eliminated.
 460              	.LVL15:
 246:../../source/src/FWlib/src/stm32f10x_rtc.c ****   FlagStatus bitstatus = RESET;
 247:../../source/src/FWlib/src/stm32f10x_rtc.c ****   
 248:../../source/src/FWlib/src/stm32f10x_rtc.c ****   /* Check the parameters */
 249:../../source/src/FWlib/src/stm32f10x_rtc.c ****   assert_param(IS_RTC_GET_FLAG(RTC_FLAG)); 
 250:../../source/src/FWlib/src/stm32f10x_rtc.c ****   
 251:../../source/src/FWlib/src/stm32f10x_rtc.c ****   if ((RTC->CRL & RTC_FLAG) != (uint16_t)RESET)
 461              		.loc 1 251 0
 462 0100 034B     		ldr	r3, .L42
 463 0102 9B88     		ldrh	r3, [r3, #4]
 464              	.LVL16:
 465 0104 1842     		tst	r0, r3
 252:../../source/src/FWlib/src/stm32f10x_rtc.c ****   {
 253:../../source/src/FWlib/src/stm32f10x_rtc.c ****     bitstatus = SET;
 254:../../source/src/FWlib/src/stm32f10x_rtc.c ****   }
 255:../../source/src/FWlib/src/stm32f10x_rtc.c ****   else
 256:../../source/src/FWlib/src/stm32f10x_rtc.c ****   {
 257:../../source/src/FWlib/src/stm32f10x_rtc.c ****     bitstatus = RESET;
 258:../../source/src/FWlib/src/stm32f10x_rtc.c ****   }
ARM GAS  G:\Users\Jaxb\AppData\Local\Temp\ccD75fGw.s 			page 14


 259:../../source/src/FWlib/src/stm32f10x_rtc.c ****   return bitstatus;
 260:../../source/src/FWlib/src/stm32f10x_rtc.c **** }
 466              		.loc 1 260 0
 467 0106 14BF     		ite	ne
 468 0108 0120     		movne	r0, #1
 469              	.LVL17:
 470 010a 0020     		moveq	r0, #0
 471 010c 7047     		bx	lr
 472              	.L43:
 473 010e 00BF     		.align	2
 474              	.L42:
 475 0110 00280040 		.word	1073752064
 476              		.cfi_endproc
 477              	.LFE39:
 478              		.size	RTC_GetFlagStatus, .-RTC_GetFlagStatus
 479              		.align	1
 480              		.p2align 2,,3
 481              		.global	RTC_ClearFlag
 482              		.syntax unified
 483              		.thumb
 484              		.thumb_func
 485              		.fpu softvfp
 486              		.type	RTC_ClearFlag, %function
 487              	RTC_ClearFlag:
 488              	.LFB40:
 261:../../source/src/FWlib/src/stm32f10x_rtc.c **** 
 262:../../source/src/FWlib/src/stm32f10x_rtc.c **** /**
 263:../../source/src/FWlib/src/stm32f10x_rtc.c ****   * @brief  Clears the RTC's pending flags.
 264:../../source/src/FWlib/src/stm32f10x_rtc.c ****   * @param  RTC_FLAG: specifies the flag to clear.
 265:../../source/src/FWlib/src/stm32f10x_rtc.c ****   *   This parameter can be any combination of the following values:
 266:../../source/src/FWlib/src/stm32f10x_rtc.c ****   *     @arg RTC_FLAG_RSF: Registers Synchronized flag. This flag is cleared only after
 267:../../source/src/FWlib/src/stm32f10x_rtc.c ****   *                        an APB reset or an APB Clock stop.
 268:../../source/src/FWlib/src/stm32f10x_rtc.c ****   *     @arg RTC_FLAG_OW: Overflow flag
 269:../../source/src/FWlib/src/stm32f10x_rtc.c ****   *     @arg RTC_FLAG_ALR: Alarm flag
 270:../../source/src/FWlib/src/stm32f10x_rtc.c ****   *     @arg RTC_FLAG_SEC: Second flag
 271:../../source/src/FWlib/src/stm32f10x_rtc.c ****   * @retval None
 272:../../source/src/FWlib/src/stm32f10x_rtc.c ****   */
 273:../../source/src/FWlib/src/stm32f10x_rtc.c **** void RTC_ClearFlag(uint16_t RTC_FLAG)
 274:../../source/src/FWlib/src/stm32f10x_rtc.c **** {
 489              		.loc 1 274 0
 490              		.cfi_startproc
 491              		@ args = 0, pretend = 0, frame = 0
 492              		@ frame_needed = 0, uses_anonymous_args = 0
 493              		@ link register save eliminated.
 494              	.LVL18:
 275:../../source/src/FWlib/src/stm32f10x_rtc.c ****   /* Check the parameters */
 276:../../source/src/FWlib/src/stm32f10x_rtc.c ****   assert_param(IS_RTC_CLEAR_FLAG(RTC_FLAG)); 
 277:../../source/src/FWlib/src/stm32f10x_rtc.c ****     
 278:../../source/src/FWlib/src/stm32f10x_rtc.c ****   /* Clear the corresponding RTC flag */
 279:../../source/src/FWlib/src/stm32f10x_rtc.c ****   RTC->CRL &= (uint16_t)~RTC_FLAG;
 495              		.loc 1 279 0
 496 0114 024A     		ldr	r2, .L45
 497 0116 9388     		ldrh	r3, [r2, #4]
 498 0118 23EA0000 		bic	r0, r3, r0
 499              	.LVL19:
 500 011c 9080     		strh	r0, [r2, #4]	@ movhi
 280:../../source/src/FWlib/src/stm32f10x_rtc.c **** }
ARM GAS  G:\Users\Jaxb\AppData\Local\Temp\ccD75fGw.s 			page 15


 501              		.loc 1 280 0
 502 011e 7047     		bx	lr
 503              	.L46:
 504              		.align	2
 505              	.L45:
 506 0120 00280040 		.word	1073752064
 507              		.cfi_endproc
 508              	.LFE40:
 509              		.size	RTC_ClearFlag, .-RTC_ClearFlag
 510              		.align	1
 511              		.p2align 2,,3
 512              		.global	RTC_GetITStatus
 513              		.syntax unified
 514              		.thumb
 515              		.thumb_func
 516              		.fpu softvfp
 517              		.type	RTC_GetITStatus, %function
 518              	RTC_GetITStatus:
 519              	.LFB41:
 281:../../source/src/FWlib/src/stm32f10x_rtc.c **** 
 282:../../source/src/FWlib/src/stm32f10x_rtc.c **** /**
 283:../../source/src/FWlib/src/stm32f10x_rtc.c ****   * @brief  Checks whether the specified RTC interrupt has occurred or not.
 284:../../source/src/FWlib/src/stm32f10x_rtc.c ****   * @param  RTC_IT: specifies the RTC interrupts sources to check.
 285:../../source/src/FWlib/src/stm32f10x_rtc.c ****   *   This parameter can be one of the following values:
 286:../../source/src/FWlib/src/stm32f10x_rtc.c ****   *     @arg RTC_IT_OW: Overflow interrupt
 287:../../source/src/FWlib/src/stm32f10x_rtc.c ****   *     @arg RTC_IT_ALR: Alarm interrupt
 288:../../source/src/FWlib/src/stm32f10x_rtc.c ****   *     @arg RTC_IT_SEC: Second interrupt
 289:../../source/src/FWlib/src/stm32f10x_rtc.c ****   * @retval The new state of the RTC_IT (SET or RESET).
 290:../../source/src/FWlib/src/stm32f10x_rtc.c ****   */
 291:../../source/src/FWlib/src/stm32f10x_rtc.c **** ITStatus RTC_GetITStatus(uint16_t RTC_IT)
 292:../../source/src/FWlib/src/stm32f10x_rtc.c **** {
 520              		.loc 1 292 0
 521              		.cfi_startproc
 522              		@ args = 0, pretend = 0, frame = 0
 523              		@ frame_needed = 0, uses_anonymous_args = 0
 524              		@ link register save eliminated.
 525              	.LVL20:
 293:../../source/src/FWlib/src/stm32f10x_rtc.c ****   ITStatus bitstatus = RESET;
 294:../../source/src/FWlib/src/stm32f10x_rtc.c ****   /* Check the parameters */
 295:../../source/src/FWlib/src/stm32f10x_rtc.c ****   assert_param(IS_RTC_GET_IT(RTC_IT)); 
 296:../../source/src/FWlib/src/stm32f10x_rtc.c ****   
 297:../../source/src/FWlib/src/stm32f10x_rtc.c ****   bitstatus = (ITStatus)(RTC->CRL & RTC_IT);
 526              		.loc 1 297 0
 527 0124 064B     		ldr	r3, .L50
 528 0126 9A88     		ldrh	r2, [r3, #4]
 298:../../source/src/FWlib/src/stm32f10x_rtc.c ****   if (((RTC->CRH & RTC_IT) != (uint16_t)RESET) && (bitstatus != (uint16_t)RESET))
 529              		.loc 1 298 0
 530 0128 1B88     		ldrh	r3, [r3]
 297:../../source/src/FWlib/src/stm32f10x_rtc.c ****   if (((RTC->CRH & RTC_IT) != (uint16_t)RESET) && (bitstatus != (uint16_t)RESET))
 531              		.loc 1 297 0
 532 012a 92B2     		uxth	r2, r2
 533              	.LVL21:
 534              		.loc 1 298 0
 535 012c 0340     		ands	r3, r0, r3
 536 012e 05D0     		beq	.L49
 297:../../source/src/FWlib/src/stm32f10x_rtc.c ****   if (((RTC->CRH & RTC_IT) != (uint16_t)RESET) && (bitstatus != (uint16_t)RESET))
 537              		.loc 1 297 0 discriminator 1
ARM GAS  G:\Users\Jaxb\AppData\Local\Temp\ccD75fGw.s 			page 16


 538 0130 1040     		ands	r0, r0, r2
 539              	.LVL22:
 540              		.loc 1 298 0 discriminator 1
 541 0132 C0B2     		uxtb	r0, r0
 299:../../source/src/FWlib/src/stm32f10x_rtc.c ****   {
 300:../../source/src/FWlib/src/stm32f10x_rtc.c ****     bitstatus = SET;
 542              		.loc 1 300 0 discriminator 1
 543 0134 0030     		adds	r0, r0, #0
 544 0136 18BF     		it	ne
 545 0138 0120     		movne	r0, #1
 546 013a 7047     		bx	lr
 547              	.LVL23:
 548              	.L49:
 301:../../source/src/FWlib/src/stm32f10x_rtc.c ****   }
 302:../../source/src/FWlib/src/stm32f10x_rtc.c ****   else
 303:../../source/src/FWlib/src/stm32f10x_rtc.c ****   {
 304:../../source/src/FWlib/src/stm32f10x_rtc.c ****     bitstatus = RESET;
 549              		.loc 1 304 0
 550 013c 1846     		mov	r0, r3
 551              	.LVL24:
 305:../../source/src/FWlib/src/stm32f10x_rtc.c ****   }
 306:../../source/src/FWlib/src/stm32f10x_rtc.c ****   return bitstatus;
 307:../../source/src/FWlib/src/stm32f10x_rtc.c **** }
 552              		.loc 1 307 0
 553 013e 7047     		bx	lr
 554              	.L51:
 555              		.align	2
 556              	.L50:
 557 0140 00280040 		.word	1073752064
 558              		.cfi_endproc
 559              	.LFE41:
 560              		.size	RTC_GetITStatus, .-RTC_GetITStatus
 561              		.align	1
 562              		.p2align 2,,3
 563              		.global	RTC_ClearITPendingBit
 564              		.syntax unified
 565              		.thumb
 566              		.thumb_func
 567              		.fpu softvfp
 568              		.type	RTC_ClearITPendingBit, %function
 569              	RTC_ClearITPendingBit:
 570              	.LFB44:
 571              		.cfi_startproc
 572              		@ args = 0, pretend = 0, frame = 0
 573              		@ frame_needed = 0, uses_anonymous_args = 0
 574              		@ link register save eliminated.
 575 0144 FFF7FEBF 		b	RTC_ClearFlag
 576              		.cfi_endproc
 577              	.LFE44:
 578              		.size	RTC_ClearITPendingBit, .-RTC_ClearITPendingBit
 579              	.Letext0:
 580              		.file 2 "f:\\arm\\gcc2018\\arm-none-eabi\\include\\machine\\_default_types.h"
 581              		.file 3 "f:\\arm\\gcc2018\\arm-none-eabi\\include\\sys\\_stdint.h"
 582              		.file 4 "../../source/include/core_cm3.h"
 583              		.file 5 "../../source/include/system_stm32f10x.h"
 584              		.file 6 "../../source/include/stm32f10x.h"