ARM GAS  G:\Users\Jaxb\AppData\Local\Temp\cc3gF0EP.s 			page 1


   1              		.cpu cortex-m3
   2              		.eabi_attribute 20, 1
   3              		.eabi_attribute 21, 1
   4              		.eabi_attribute 23, 3
   5              		.eabi_attribute 24, 1
   6              		.eabi_attribute 25, 1
   7              		.eabi_attribute 26, 1
   8              		.eabi_attribute 30, 2
   9              		.eabi_attribute 34, 1
  10              		.eabi_attribute 18, 4
  11              		.file	"stm32f10x_i2c.c"
  12              		.text
  13              	.Ltext0:
  14              		.cfi_sections	.debug_frame
  15              		.align	1
  16              		.p2align 2,,3
  17              		.global	I2C_DeInit
  18              		.syntax unified
  19              		.thumb
  20              		.thumb_func
  21              		.fpu softvfp
  22              		.type	I2C_DeInit, %function
  23              	I2C_DeInit:
  24              	.LFB29:
  25              		.file 1 "../../source/src/FWlib/src/stm32f10x_i2c.c"
   1:../../source/src/FWlib/src/stm32f10x_i2c.c **** /**
   2:../../source/src/FWlib/src/stm32f10x_i2c.c ****   ******************************************************************************
   3:../../source/src/FWlib/src/stm32f10x_i2c.c ****   * @file    stm32f10x_i2c.c
   4:../../source/src/FWlib/src/stm32f10x_i2c.c ****   * @author  MCD Application Team
   5:../../source/src/FWlib/src/stm32f10x_i2c.c ****   * @version V3.5.0
   6:../../source/src/FWlib/src/stm32f10x_i2c.c ****   * @date    11-March-2011
   7:../../source/src/FWlib/src/stm32f10x_i2c.c ****   * @brief   This file provides all the I2C firmware functions.
   8:../../source/src/FWlib/src/stm32f10x_i2c.c ****   ******************************************************************************
   9:../../source/src/FWlib/src/stm32f10x_i2c.c ****   * @attention
  10:../../source/src/FWlib/src/stm32f10x_i2c.c ****   *
  11:../../source/src/FWlib/src/stm32f10x_i2c.c ****   * THE PRESENT FIRMWARE WHICH IS FOR GUIDANCE ONLY AIMS AT PROVIDING CUSTOMERS
  12:../../source/src/FWlib/src/stm32f10x_i2c.c ****   * WITH CODING INFORMATION REGARDING THEIR PRODUCTS IN ORDER FOR THEM TO SAVE
  13:../../source/src/FWlib/src/stm32f10x_i2c.c ****   * TIME. AS A RESULT, STMICROELECTRONICS SHALL NOT BE HELD LIABLE FOR ANY
  14:../../source/src/FWlib/src/stm32f10x_i2c.c ****   * DIRECT, INDIRECT OR CONSEQUENTIAL DAMAGES WITH RESPECT TO ANY CLAIMS ARISING
  15:../../source/src/FWlib/src/stm32f10x_i2c.c ****   * FROM THE CONTENT OF SUCH FIRMWARE AND/OR THE USE MADE BY CUSTOMERS OF THE
  16:../../source/src/FWlib/src/stm32f10x_i2c.c ****   * CODING INFORMATION CONTAINED HEREIN IN CONNECTION WITH THEIR PRODUCTS.
  17:../../source/src/FWlib/src/stm32f10x_i2c.c ****   *
  18:../../source/src/FWlib/src/stm32f10x_i2c.c ****   * <h2><center>&copy; COPYRIGHT 2011 STMicroelectronics</center></h2>
  19:../../source/src/FWlib/src/stm32f10x_i2c.c ****   ******************************************************************************
  20:../../source/src/FWlib/src/stm32f10x_i2c.c ****   */
  21:../../source/src/FWlib/src/stm32f10x_i2c.c **** 
  22:../../source/src/FWlib/src/stm32f10x_i2c.c **** /* Includes ------------------------------------------------------------------*/
  23:../../source/src/FWlib/src/stm32f10x_i2c.c **** #include "stm32f10x_i2c.h"
  24:../../source/src/FWlib/src/stm32f10x_i2c.c **** #include "stm32f10x_rcc.h"
  25:../../source/src/FWlib/src/stm32f10x_i2c.c **** 
  26:../../source/src/FWlib/src/stm32f10x_i2c.c **** 
  27:../../source/src/FWlib/src/stm32f10x_i2c.c **** /** @addtogroup STM32F10x_StdPeriph_Driver
  28:../../source/src/FWlib/src/stm32f10x_i2c.c ****   * @{
  29:../../source/src/FWlib/src/stm32f10x_i2c.c ****   */
  30:../../source/src/FWlib/src/stm32f10x_i2c.c **** 
  31:../../source/src/FWlib/src/stm32f10x_i2c.c **** /** @defgroup I2C 
  32:../../source/src/FWlib/src/stm32f10x_i2c.c ****   * @brief I2C driver modules
ARM GAS  G:\Users\Jaxb\AppData\Local\Temp\cc3gF0EP.s 			page 2


  33:../../source/src/FWlib/src/stm32f10x_i2c.c ****   * @{
  34:../../source/src/FWlib/src/stm32f10x_i2c.c ****   */ 
  35:../../source/src/FWlib/src/stm32f10x_i2c.c **** 
  36:../../source/src/FWlib/src/stm32f10x_i2c.c **** /** @defgroup I2C_Private_TypesDefinitions
  37:../../source/src/FWlib/src/stm32f10x_i2c.c ****   * @{
  38:../../source/src/FWlib/src/stm32f10x_i2c.c ****   */
  39:../../source/src/FWlib/src/stm32f10x_i2c.c **** 
  40:../../source/src/FWlib/src/stm32f10x_i2c.c **** /**
  41:../../source/src/FWlib/src/stm32f10x_i2c.c ****   * @}
  42:../../source/src/FWlib/src/stm32f10x_i2c.c ****   */
  43:../../source/src/FWlib/src/stm32f10x_i2c.c **** 
  44:../../source/src/FWlib/src/stm32f10x_i2c.c **** /** @defgroup I2C_Private_Defines
  45:../../source/src/FWlib/src/stm32f10x_i2c.c ****   * @{
  46:../../source/src/FWlib/src/stm32f10x_i2c.c ****   */
  47:../../source/src/FWlib/src/stm32f10x_i2c.c **** 
  48:../../source/src/FWlib/src/stm32f10x_i2c.c **** /* I2C SPE mask */
  49:../../source/src/FWlib/src/stm32f10x_i2c.c **** #define CR1_PE_Set              ((uint16_t)0x0001)
  50:../../source/src/FWlib/src/stm32f10x_i2c.c **** #define CR1_PE_Reset            ((uint16_t)0xFFFE)
  51:../../source/src/FWlib/src/stm32f10x_i2c.c **** 
  52:../../source/src/FWlib/src/stm32f10x_i2c.c **** /* I2C START mask */
  53:../../source/src/FWlib/src/stm32f10x_i2c.c **** #define CR1_START_Set           ((uint16_t)0x0100)
  54:../../source/src/FWlib/src/stm32f10x_i2c.c **** #define CR1_START_Reset         ((uint16_t)0xFEFF)
  55:../../source/src/FWlib/src/stm32f10x_i2c.c **** 
  56:../../source/src/FWlib/src/stm32f10x_i2c.c **** /* I2C STOP mask */
  57:../../source/src/FWlib/src/stm32f10x_i2c.c **** #define CR1_STOP_Set            ((uint16_t)0x0200)
  58:../../source/src/FWlib/src/stm32f10x_i2c.c **** #define CR1_STOP_Reset          ((uint16_t)0xFDFF)
  59:../../source/src/FWlib/src/stm32f10x_i2c.c **** 
  60:../../source/src/FWlib/src/stm32f10x_i2c.c **** /* I2C ACK mask */
  61:../../source/src/FWlib/src/stm32f10x_i2c.c **** #define CR1_ACK_Set             ((uint16_t)0x0400)
  62:../../source/src/FWlib/src/stm32f10x_i2c.c **** #define CR1_ACK_Reset           ((uint16_t)0xFBFF)
  63:../../source/src/FWlib/src/stm32f10x_i2c.c **** 
  64:../../source/src/FWlib/src/stm32f10x_i2c.c **** /* I2C ENGC mask */
  65:../../source/src/FWlib/src/stm32f10x_i2c.c **** #define CR1_ENGC_Set            ((uint16_t)0x0040)
  66:../../source/src/FWlib/src/stm32f10x_i2c.c **** #define CR1_ENGC_Reset          ((uint16_t)0xFFBF)
  67:../../source/src/FWlib/src/stm32f10x_i2c.c **** 
  68:../../source/src/FWlib/src/stm32f10x_i2c.c **** /* I2C SWRST mask */
  69:../../source/src/FWlib/src/stm32f10x_i2c.c **** #define CR1_SWRST_Set           ((uint16_t)0x8000)
  70:../../source/src/FWlib/src/stm32f10x_i2c.c **** #define CR1_SWRST_Reset         ((uint16_t)0x7FFF)
  71:../../source/src/FWlib/src/stm32f10x_i2c.c **** 
  72:../../source/src/FWlib/src/stm32f10x_i2c.c **** /* I2C PEC mask */
  73:../../source/src/FWlib/src/stm32f10x_i2c.c **** #define CR1_PEC_Set             ((uint16_t)0x1000)
  74:../../source/src/FWlib/src/stm32f10x_i2c.c **** #define CR1_PEC_Reset           ((uint16_t)0xEFFF)
  75:../../source/src/FWlib/src/stm32f10x_i2c.c **** 
  76:../../source/src/FWlib/src/stm32f10x_i2c.c **** /* I2C ENPEC mask */
  77:../../source/src/FWlib/src/stm32f10x_i2c.c **** #define CR1_ENPEC_Set           ((uint16_t)0x0020)
  78:../../source/src/FWlib/src/stm32f10x_i2c.c **** #define CR1_ENPEC_Reset         ((uint16_t)0xFFDF)
  79:../../source/src/FWlib/src/stm32f10x_i2c.c **** 
  80:../../source/src/FWlib/src/stm32f10x_i2c.c **** /* I2C ENARP mask */
  81:../../source/src/FWlib/src/stm32f10x_i2c.c **** #define CR1_ENARP_Set           ((uint16_t)0x0010)
  82:../../source/src/FWlib/src/stm32f10x_i2c.c **** #define CR1_ENARP_Reset         ((uint16_t)0xFFEF)
  83:../../source/src/FWlib/src/stm32f10x_i2c.c **** 
  84:../../source/src/FWlib/src/stm32f10x_i2c.c **** /* I2C NOSTRETCH mask */
  85:../../source/src/FWlib/src/stm32f10x_i2c.c **** #define CR1_NOSTRETCH_Set       ((uint16_t)0x0080)
  86:../../source/src/FWlib/src/stm32f10x_i2c.c **** #define CR1_NOSTRETCH_Reset     ((uint16_t)0xFF7F)
  87:../../source/src/FWlib/src/stm32f10x_i2c.c **** 
  88:../../source/src/FWlib/src/stm32f10x_i2c.c **** /* I2C registers Masks */
  89:../../source/src/FWlib/src/stm32f10x_i2c.c **** #define CR1_CLEAR_Mask          ((uint16_t)0xFBF5)
ARM GAS  G:\Users\Jaxb\AppData\Local\Temp\cc3gF0EP.s 			page 3


  90:../../source/src/FWlib/src/stm32f10x_i2c.c **** 
  91:../../source/src/FWlib/src/stm32f10x_i2c.c **** /* I2C DMAEN mask */
  92:../../source/src/FWlib/src/stm32f10x_i2c.c **** #define CR2_DMAEN_Set           ((uint16_t)0x0800)
  93:../../source/src/FWlib/src/stm32f10x_i2c.c **** #define CR2_DMAEN_Reset         ((uint16_t)0xF7FF)
  94:../../source/src/FWlib/src/stm32f10x_i2c.c **** 
  95:../../source/src/FWlib/src/stm32f10x_i2c.c **** /* I2C LAST mask */
  96:../../source/src/FWlib/src/stm32f10x_i2c.c **** #define CR2_LAST_Set            ((uint16_t)0x1000)
  97:../../source/src/FWlib/src/stm32f10x_i2c.c **** #define CR2_LAST_Reset          ((uint16_t)0xEFFF)
  98:../../source/src/FWlib/src/stm32f10x_i2c.c **** 
  99:../../source/src/FWlib/src/stm32f10x_i2c.c **** /* I2C FREQ mask */
 100:../../source/src/FWlib/src/stm32f10x_i2c.c **** #define CR2_FREQ_Reset          ((uint16_t)0xFFC0)
 101:../../source/src/FWlib/src/stm32f10x_i2c.c **** 
 102:../../source/src/FWlib/src/stm32f10x_i2c.c **** /* I2C ADD0 mask */
 103:../../source/src/FWlib/src/stm32f10x_i2c.c **** #define OAR1_ADD0_Set           ((uint16_t)0x0001)
 104:../../source/src/FWlib/src/stm32f10x_i2c.c **** #define OAR1_ADD0_Reset         ((uint16_t)0xFFFE)
 105:../../source/src/FWlib/src/stm32f10x_i2c.c **** 
 106:../../source/src/FWlib/src/stm32f10x_i2c.c **** /* I2C ENDUAL mask */
 107:../../source/src/FWlib/src/stm32f10x_i2c.c **** #define OAR2_ENDUAL_Set         ((uint16_t)0x0001)
 108:../../source/src/FWlib/src/stm32f10x_i2c.c **** #define OAR2_ENDUAL_Reset       ((uint16_t)0xFFFE)
 109:../../source/src/FWlib/src/stm32f10x_i2c.c **** 
 110:../../source/src/FWlib/src/stm32f10x_i2c.c **** /* I2C ADD2 mask */
 111:../../source/src/FWlib/src/stm32f10x_i2c.c **** #define OAR2_ADD2_Reset         ((uint16_t)0xFF01)
 112:../../source/src/FWlib/src/stm32f10x_i2c.c **** 
 113:../../source/src/FWlib/src/stm32f10x_i2c.c **** /* I2C F/S mask */
 114:../../source/src/FWlib/src/stm32f10x_i2c.c **** #define CCR_FS_Set              ((uint16_t)0x8000)
 115:../../source/src/FWlib/src/stm32f10x_i2c.c **** 
 116:../../source/src/FWlib/src/stm32f10x_i2c.c **** /* I2C CCR mask */
 117:../../source/src/FWlib/src/stm32f10x_i2c.c **** #define CCR_CCR_Set             ((uint16_t)0x0FFF)
 118:../../source/src/FWlib/src/stm32f10x_i2c.c **** 
 119:../../source/src/FWlib/src/stm32f10x_i2c.c **** /* I2C FLAG mask */
 120:../../source/src/FWlib/src/stm32f10x_i2c.c **** #define FLAG_Mask               ((uint32_t)0x00FFFFFF)
 121:../../source/src/FWlib/src/stm32f10x_i2c.c **** 
 122:../../source/src/FWlib/src/stm32f10x_i2c.c **** /* I2C Interrupt Enable mask */
 123:../../source/src/FWlib/src/stm32f10x_i2c.c **** #define ITEN_Mask               ((uint32_t)0x07000000)
 124:../../source/src/FWlib/src/stm32f10x_i2c.c **** 
 125:../../source/src/FWlib/src/stm32f10x_i2c.c **** /**
 126:../../source/src/FWlib/src/stm32f10x_i2c.c ****   * @}
 127:../../source/src/FWlib/src/stm32f10x_i2c.c ****   */
 128:../../source/src/FWlib/src/stm32f10x_i2c.c **** 
 129:../../source/src/FWlib/src/stm32f10x_i2c.c **** /** @defgroup I2C_Private_Macros
 130:../../source/src/FWlib/src/stm32f10x_i2c.c ****   * @{
 131:../../source/src/FWlib/src/stm32f10x_i2c.c ****   */
 132:../../source/src/FWlib/src/stm32f10x_i2c.c **** 
 133:../../source/src/FWlib/src/stm32f10x_i2c.c **** /**
 134:../../source/src/FWlib/src/stm32f10x_i2c.c ****   * @}
 135:../../source/src/FWlib/src/stm32f10x_i2c.c ****   */
 136:../../source/src/FWlib/src/stm32f10x_i2c.c **** 
 137:../../source/src/FWlib/src/stm32f10x_i2c.c **** /** @defgroup I2C_Private_Variables
 138:../../source/src/FWlib/src/stm32f10x_i2c.c ****   * @{
 139:../../source/src/FWlib/src/stm32f10x_i2c.c ****   */
 140:../../source/src/FWlib/src/stm32f10x_i2c.c **** 
 141:../../source/src/FWlib/src/stm32f10x_i2c.c **** /**
 142:../../source/src/FWlib/src/stm32f10x_i2c.c ****   * @}
 143:../../source/src/FWlib/src/stm32f10x_i2c.c ****   */
 144:../../source/src/FWlib/src/stm32f10x_i2c.c **** 
 145:../../source/src/FWlib/src/stm32f10x_i2c.c **** /** @defgroup I2C_Private_FunctionPrototypes
 146:../../source/src/FWlib/src/stm32f10x_i2c.c ****   * @{
ARM GAS  G:\Users\Jaxb\AppData\Local\Temp\cc3gF0EP.s 			page 4


 147:../../source/src/FWlib/src/stm32f10x_i2c.c ****   */
 148:../../source/src/FWlib/src/stm32f10x_i2c.c **** 
 149:../../source/src/FWlib/src/stm32f10x_i2c.c **** /**
 150:../../source/src/FWlib/src/stm32f10x_i2c.c ****   * @}
 151:../../source/src/FWlib/src/stm32f10x_i2c.c ****   */
 152:../../source/src/FWlib/src/stm32f10x_i2c.c **** 
 153:../../source/src/FWlib/src/stm32f10x_i2c.c **** /** @defgroup I2C_Private_Functions
 154:../../source/src/FWlib/src/stm32f10x_i2c.c ****   * @{
 155:../../source/src/FWlib/src/stm32f10x_i2c.c ****   */
 156:../../source/src/FWlib/src/stm32f10x_i2c.c **** 
 157:../../source/src/FWlib/src/stm32f10x_i2c.c **** /**
 158:../../source/src/FWlib/src/stm32f10x_i2c.c ****   * @brief  Deinitializes the I2Cx peripheral registers to their default reset values.
 159:../../source/src/FWlib/src/stm32f10x_i2c.c ****   * @param  I2Cx: where x can be 1 or 2 to select the I2C peripheral.
 160:../../source/src/FWlib/src/stm32f10x_i2c.c ****   * @retval None
 161:../../source/src/FWlib/src/stm32f10x_i2c.c ****   */
 162:../../source/src/FWlib/src/stm32f10x_i2c.c **** void I2C_DeInit(I2C_TypeDef* I2Cx)
 163:../../source/src/FWlib/src/stm32f10x_i2c.c **** {
  26              		.loc 1 163 0
  27              		.cfi_startproc
  28              		@ args = 0, pretend = 0, frame = 0
  29              		@ frame_needed = 0, uses_anonymous_args = 0
  30              	.LVL0:
  31 0000 08B5     		push	{r3, lr}
  32              	.LCFI0:
  33              		.cfi_def_cfa_offset 8
  34              		.cfi_offset 3, -8
  35              		.cfi_offset 14, -4
 164:../../source/src/FWlib/src/stm32f10x_i2c.c ****   /* Check the parameters */
 165:../../source/src/FWlib/src/stm32f10x_i2c.c ****   assert_param(IS_I2C_ALL_PERIPH(I2Cx));
 166:../../source/src/FWlib/src/stm32f10x_i2c.c **** 
 167:../../source/src/FWlib/src/stm32f10x_i2c.c ****   if (I2Cx == I2C1)
  36              		.loc 1 167 0
  37 0002 0D4B     		ldr	r3, .L5
 168:../../source/src/FWlib/src/stm32f10x_i2c.c ****   {
 169:../../source/src/FWlib/src/stm32f10x_i2c.c ****     /* Enable I2C1 reset state */
 170:../../source/src/FWlib/src/stm32f10x_i2c.c ****     RCC_APB1PeriphResetCmd(RCC_APB1Periph_I2C1, ENABLE);
  38              		.loc 1 170 0
  39 0004 0121     		movs	r1, #1
 167:../../source/src/FWlib/src/stm32f10x_i2c.c ****   {
  40              		.loc 1 167 0
  41 0006 9842     		cmp	r0, r3
  42 0008 0AD0     		beq	.L4
 171:../../source/src/FWlib/src/stm32f10x_i2c.c ****     /* Release I2C1 from reset state */
 172:../../source/src/FWlib/src/stm32f10x_i2c.c ****     RCC_APB1PeriphResetCmd(RCC_APB1Periph_I2C1, DISABLE);
 173:../../source/src/FWlib/src/stm32f10x_i2c.c ****   }
 174:../../source/src/FWlib/src/stm32f10x_i2c.c ****   else
 175:../../source/src/FWlib/src/stm32f10x_i2c.c ****   {
 176:../../source/src/FWlib/src/stm32f10x_i2c.c ****     /* Enable I2C2 reset state */
 177:../../source/src/FWlib/src/stm32f10x_i2c.c ****     RCC_APB1PeriphResetCmd(RCC_APB1Periph_I2C2, ENABLE);
  43              		.loc 1 177 0
  44 000a 4FF48000 		mov	r0, #4194304
  45              	.LVL1:
  46 000e FFF7FEFF 		bl	RCC_APB1PeriphResetCmd
  47              	.LVL2:
 178:../../source/src/FWlib/src/stm32f10x_i2c.c ****     /* Release I2C2 from reset state */
 179:../../source/src/FWlib/src/stm32f10x_i2c.c ****     RCC_APB1PeriphResetCmd(RCC_APB1Periph_I2C2, DISABLE);
 180:../../source/src/FWlib/src/stm32f10x_i2c.c ****   }
ARM GAS  G:\Users\Jaxb\AppData\Local\Temp\cc3gF0EP.s 			page 5


 181:../../source/src/FWlib/src/stm32f10x_i2c.c **** }
  48              		.loc 1 181 0
  49 0012 BDE80840 		pop	{r3, lr}
  50              	.LCFI1:
  51              		.cfi_remember_state
  52              		.cfi_restore 14
  53              		.cfi_restore 3
  54              		.cfi_def_cfa_offset 0
 179:../../source/src/FWlib/src/stm32f10x_i2c.c ****   }
  55              		.loc 1 179 0
  56 0016 0021     		movs	r1, #0
  57 0018 4FF48000 		mov	r0, #4194304
  58 001c FFF7FEBF 		b	RCC_APB1PeriphResetCmd
  59              	.LVL3:
  60              	.L4:
  61              	.LCFI2:
  62              		.cfi_restore_state
 170:../../source/src/FWlib/src/stm32f10x_i2c.c ****     /* Release I2C1 from reset state */
  63              		.loc 1 170 0
  64 0020 4FF40010 		mov	r0, #2097152
  65              	.LVL4:
  66 0024 FFF7FEFF 		bl	RCC_APB1PeriphResetCmd
  67              	.LVL5:
  68              		.loc 1 181 0
  69 0028 BDE80840 		pop	{r3, lr}
  70              	.LCFI3:
  71              		.cfi_restore 14
  72              		.cfi_restore 3
  73              		.cfi_def_cfa_offset 0
 172:../../source/src/FWlib/src/stm32f10x_i2c.c ****   }
  74              		.loc 1 172 0
  75 002c 0021     		movs	r1, #0
  76 002e 4FF40010 		mov	r0, #2097152
  77 0032 FFF7FEBF 		b	RCC_APB1PeriphResetCmd
  78              	.LVL6:
  79              	.L6:
  80 0036 00BF     		.align	2
  81              	.L5:
  82 0038 00540040 		.word	1073763328
  83              		.cfi_endproc
  84              	.LFE29:
  85              		.size	I2C_DeInit, .-I2C_DeInit
  86              		.align	1
  87              		.p2align 2,,3
  88              		.global	I2C_Init
  89              		.syntax unified
  90              		.thumb
  91              		.thumb_func
  92              		.fpu softvfp
  93              		.type	I2C_Init, %function
  94              	I2C_Init:
  95              	.LFB30:
 182:../../source/src/FWlib/src/stm32f10x_i2c.c **** 
 183:../../source/src/FWlib/src/stm32f10x_i2c.c **** /**
 184:../../source/src/FWlib/src/stm32f10x_i2c.c ****   * @brief  Initializes the I2Cx peripheral according to the specified 
 185:../../source/src/FWlib/src/stm32f10x_i2c.c ****   *   parameters in the I2C_InitStruct.
 186:../../source/src/FWlib/src/stm32f10x_i2c.c ****   * @param  I2Cx: where x can be 1 or 2 to select the I2C peripheral.
ARM GAS  G:\Users\Jaxb\AppData\Local\Temp\cc3gF0EP.s 			page 6


 187:../../source/src/FWlib/src/stm32f10x_i2c.c ****   * @param  I2C_InitStruct: pointer to a I2C_InitTypeDef structure that
 188:../../source/src/FWlib/src/stm32f10x_i2c.c ****   *   contains the configuration information for the specified I2C peripheral.
 189:../../source/src/FWlib/src/stm32f10x_i2c.c ****   * @retval None
 190:../../source/src/FWlib/src/stm32f10x_i2c.c ****   */
 191:../../source/src/FWlib/src/stm32f10x_i2c.c **** void I2C_Init(I2C_TypeDef* I2Cx, I2C_InitTypeDef* I2C_InitStruct)
 192:../../source/src/FWlib/src/stm32f10x_i2c.c **** {
  96              		.loc 1 192 0
  97              		.cfi_startproc
  98              		@ args = 0, pretend = 0, frame = 24
  99              		@ frame_needed = 0, uses_anonymous_args = 0
 100              	.LVL7:
 101 003c F0B5     		push	{r4, r5, r6, r7, lr}
 102              	.LCFI4:
 103              		.cfi_def_cfa_offset 20
 104              		.cfi_offset 4, -20
 105              		.cfi_offset 5, -16
 106              		.cfi_offset 6, -12
 107              		.cfi_offset 7, -8
 108              		.cfi_offset 14, -4
 109 003e 0446     		mov	r4, r0
 110 0040 0D46     		mov	r5, r1
 111 0042 87B0     		sub	sp, sp, #28
 112              	.LCFI5:
 113              		.cfi_def_cfa_offset 48
 193:../../source/src/FWlib/src/stm32f10x_i2c.c ****   uint16_t tmpreg = 0, freqrange = 0;
 194:../../source/src/FWlib/src/stm32f10x_i2c.c ****   uint16_t result = 0x04;
 195:../../source/src/FWlib/src/stm32f10x_i2c.c ****   uint32_t pclk1 = 8000000;
 196:../../source/src/FWlib/src/stm32f10x_i2c.c ****   RCC_ClocksTypeDef  rcc_clocks;
 197:../../source/src/FWlib/src/stm32f10x_i2c.c ****   /* Check the parameters */
 198:../../source/src/FWlib/src/stm32f10x_i2c.c ****   assert_param(IS_I2C_ALL_PERIPH(I2Cx));
 199:../../source/src/FWlib/src/stm32f10x_i2c.c ****   assert_param(IS_I2C_CLOCK_SPEED(I2C_InitStruct->I2C_ClockSpeed));
 200:../../source/src/FWlib/src/stm32f10x_i2c.c ****   assert_param(IS_I2C_MODE(I2C_InitStruct->I2C_Mode));
 201:../../source/src/FWlib/src/stm32f10x_i2c.c ****   assert_param(IS_I2C_DUTY_CYCLE(I2C_InitStruct->I2C_DutyCycle));
 202:../../source/src/FWlib/src/stm32f10x_i2c.c ****   assert_param(IS_I2C_OWN_ADDRESS1(I2C_InitStruct->I2C_OwnAddress1));
 203:../../source/src/FWlib/src/stm32f10x_i2c.c ****   assert_param(IS_I2C_ACK_STATE(I2C_InitStruct->I2C_Ack));
 204:../../source/src/FWlib/src/stm32f10x_i2c.c ****   assert_param(IS_I2C_ACKNOWLEDGE_ADDRESS(I2C_InitStruct->I2C_AcknowledgedAddress));
 205:../../source/src/FWlib/src/stm32f10x_i2c.c **** 
 206:../../source/src/FWlib/src/stm32f10x_i2c.c **** /*---------------------------- I2Cx CR2 Configuration ------------------------*/
 207:../../source/src/FWlib/src/stm32f10x_i2c.c ****   /* Get the I2Cx CR2 value */
 208:../../source/src/FWlib/src/stm32f10x_i2c.c ****   tmpreg = I2Cx->CR2;
 114              		.loc 1 208 0
 115 0044 8688     		ldrh	r6, [r0, #4]
 116              	.LVL8:
 209:../../source/src/FWlib/src/stm32f10x_i2c.c ****   /* Clear frequency FREQ[5:0] bits */
 210:../../source/src/FWlib/src/stm32f10x_i2c.c ****   tmpreg &= CR2_FREQ_Reset;
 211:../../source/src/FWlib/src/stm32f10x_i2c.c ****   /* Get pclk1 frequency value */
 212:../../source/src/FWlib/src/stm32f10x_i2c.c ****   RCC_GetClocksFreq(&rcc_clocks);
 117              		.loc 1 212 0
 118 0046 01A8     		add	r0, sp, #4
 119              	.LVL9:
 120 0048 FFF7FEFF 		bl	RCC_GetClocksFreq
 121              	.LVL10:
 213:../../source/src/FWlib/src/stm32f10x_i2c.c ****   pclk1 = rcc_clocks.PCLK1_Frequency;
 122              		.loc 1 213 0
 123 004c 0398     		ldr	r0, [sp, #12]
 214:../../source/src/FWlib/src/stm32f10x_i2c.c ****   /* Set frequency bits depending on pclk1 value */
 215:../../source/src/FWlib/src/stm32f10x_i2c.c ****   freqrange = (uint16_t)(pclk1 / 1000000);
ARM GAS  G:\Users\Jaxb\AppData\Local\Temp\cc3gF0EP.s 			page 7


 124              		.loc 1 215 0
 125 004e 2B49     		ldr	r1, .L14
 210:../../source/src/FWlib/src/stm32f10x_i2c.c ****   /* Get pclk1 frequency value */
 126              		.loc 1 210 0
 127 0050 26F03F06 		bic	r6, r6, #63
 128              	.LVL11:
 129              		.loc 1 215 0
 130 0054 A1FB0031 		umull	r3, r1, r1, r0
 210:../../source/src/FWlib/src/stm32f10x_i2c.c ****   /* Get pclk1 frequency value */
 131              		.loc 1 210 0
 132 0058 3604     		lsls	r6, r6, #16
 133              		.loc 1 215 0
 134 005a 890C     		lsrs	r1, r1, #18
 210:../../source/src/FWlib/src/stm32f10x_i2c.c ****   /* Get pclk1 frequency value */
 135              		.loc 1 210 0
 136 005c 360C     		lsrs	r6, r6, #16
 137              	.LVL12:
 138              		.loc 1 215 0
 139 005e 8FB2     		uxth	r7, r1
 140              	.LVL13:
 216:../../source/src/FWlib/src/stm32f10x_i2c.c ****   tmpreg |= freqrange;
 141              		.loc 1 216 0
 142 0060 3E43     		orrs	r6, r6, r7
 143              	.LVL14:
 217:../../source/src/FWlib/src/stm32f10x_i2c.c ****   /* Write to I2Cx CR2 */
 218:../../source/src/FWlib/src/stm32f10x_i2c.c ****   I2Cx->CR2 = tmpreg;
 144              		.loc 1 218 0
 145 0062 A680     		strh	r6, [r4, #4]	@ movhi
 219:../../source/src/FWlib/src/stm32f10x_i2c.c **** 
 220:../../source/src/FWlib/src/stm32f10x_i2c.c **** /*---------------------------- I2Cx CCR Configuration ------------------------*/
 221:../../source/src/FWlib/src/stm32f10x_i2c.c ****   /* Disable the selected I2C peripheral to configure TRISE */
 222:../../source/src/FWlib/src/stm32f10x_i2c.c ****   I2Cx->CR1 &= CR1_PE_Reset;
 146              		.loc 1 222 0
 147 0064 2288     		ldrh	r2, [r4]
 223:../../source/src/FWlib/src/stm32f10x_i2c.c ****   /* Reset tmpreg value */
 224:../../source/src/FWlib/src/stm32f10x_i2c.c ****   /* Clear F/S, DUTY and CCR[11:0] bits */
 225:../../source/src/FWlib/src/stm32f10x_i2c.c ****   tmpreg = 0;
 226:../../source/src/FWlib/src/stm32f10x_i2c.c **** 
 227:../../source/src/FWlib/src/stm32f10x_i2c.c ****   /* Configure speed in standard mode */
 228:../../source/src/FWlib/src/stm32f10x_i2c.c ****   if (I2C_InitStruct->I2C_ClockSpeed <= 100000)
 148              		.loc 1 228 0
 149 0066 2B68     		ldr	r3, [r5]
 222:../../source/src/FWlib/src/stm32f10x_i2c.c ****   /* Reset tmpreg value */
 150              		.loc 1 222 0
 151 0068 22F00102 		bic	r2, r2, #1
 152              		.loc 1 228 0
 153 006c 244E     		ldr	r6, .L14+4
 154              	.LVL15:
 222:../../source/src/FWlib/src/stm32f10x_i2c.c ****   /* Reset tmpreg value */
 155              		.loc 1 222 0
 156 006e 1204     		lsls	r2, r2, #16
 157 0070 120C     		lsrs	r2, r2, #16
 158              		.loc 1 228 0
 159 0072 B342     		cmp	r3, r6
 222:../../source/src/FWlib/src/stm32f10x_i2c.c ****   /* Reset tmpreg value */
 160              		.loc 1 222 0
 161 0074 2280     		strh	r2, [r4]	@ movhi
ARM GAS  G:\Users\Jaxb\AppData\Local\Temp\cc3gF0EP.s 			page 8


 162              	.LVL16:
 163              		.loc 1 228 0
 164 0076 1BD8     		bhi	.L8
 229:../../source/src/FWlib/src/stm32f10x_i2c.c ****   {
 230:../../source/src/FWlib/src/stm32f10x_i2c.c ****     /* Standard mode speed calculate */
 231:../../source/src/FWlib/src/stm32f10x_i2c.c ****     result = (uint16_t)(pclk1 / (I2C_InitStruct->I2C_ClockSpeed << 1));
 165              		.loc 1 231 0
 166 0078 5B00     		lsls	r3, r3, #1
 167 007a B0FBF3F3 		udiv	r3, r0, r3
 168 007e 9BB2     		uxth	r3, r3
 169              	.LVL17:
 170 0080 042B     		cmp	r3, #4
 171 0082 38BF     		it	cc
 172 0084 0423     		movcc	r3, #4
 173              	.LVL18:
 232:../../source/src/FWlib/src/stm32f10x_i2c.c ****     /* Test if CCR value is under 0x4*/
 233:../../source/src/FWlib/src/stm32f10x_i2c.c ****     if (result < 0x04)
 234:../../source/src/FWlib/src/stm32f10x_i2c.c ****     {
 235:../../source/src/FWlib/src/stm32f10x_i2c.c ****       /* Set minimum allowed value */
 236:../../source/src/FWlib/src/stm32f10x_i2c.c ****       result = 0x04;  
 237:../../source/src/FWlib/src/stm32f10x_i2c.c ****     }
 238:../../source/src/FWlib/src/stm32f10x_i2c.c ****     /* Set speed value for standard mode */
 239:../../source/src/FWlib/src/stm32f10x_i2c.c ****     tmpreg |= result;	  
 240:../../source/src/FWlib/src/stm32f10x_i2c.c ****     /* Set Maximum Rise Time for standard mode */
 241:../../source/src/FWlib/src/stm32f10x_i2c.c ****     I2Cx->TRISE = freqrange + 1; 
 174              		.loc 1 241 0
 175 0086 0137     		adds	r7, r7, #1
 176              	.LVL19:
 177 0088 2784     		strh	r7, [r4, #32]	@ movhi
 178              	.LVL20:
 179              	.L9:
 242:../../source/src/FWlib/src/stm32f10x_i2c.c ****   }
 243:../../source/src/FWlib/src/stm32f10x_i2c.c ****   /* Configure speed in fast mode */
 244:../../source/src/FWlib/src/stm32f10x_i2c.c ****   else /*(I2C_InitStruct->I2C_ClockSpeed <= 400000)*/
 245:../../source/src/FWlib/src/stm32f10x_i2c.c ****   {
 246:../../source/src/FWlib/src/stm32f10x_i2c.c ****     if (I2C_InitStruct->I2C_DutyCycle == I2C_DutyCycle_2)
 247:../../source/src/FWlib/src/stm32f10x_i2c.c ****     {
 248:../../source/src/FWlib/src/stm32f10x_i2c.c ****       /* Fast mode speed calculate: Tlow/Thigh = 2 */
 249:../../source/src/FWlib/src/stm32f10x_i2c.c ****       result = (uint16_t)(pclk1 / (I2C_InitStruct->I2C_ClockSpeed * 3));
 250:../../source/src/FWlib/src/stm32f10x_i2c.c ****     }
 251:../../source/src/FWlib/src/stm32f10x_i2c.c ****     else /*I2C_InitStruct->I2C_DutyCycle == I2C_DutyCycle_16_9*/
 252:../../source/src/FWlib/src/stm32f10x_i2c.c ****     {
 253:../../source/src/FWlib/src/stm32f10x_i2c.c ****       /* Fast mode speed calculate: Tlow/Thigh = 16/9 */
 254:../../source/src/FWlib/src/stm32f10x_i2c.c ****       result = (uint16_t)(pclk1 / (I2C_InitStruct->I2C_ClockSpeed * 25));
 255:../../source/src/FWlib/src/stm32f10x_i2c.c ****       /* Set DUTY bit */
 256:../../source/src/FWlib/src/stm32f10x_i2c.c ****       result |= I2C_DutyCycle_16_9;
 257:../../source/src/FWlib/src/stm32f10x_i2c.c ****     }
 258:../../source/src/FWlib/src/stm32f10x_i2c.c **** 
 259:../../source/src/FWlib/src/stm32f10x_i2c.c ****     /* Test if CCR value is under 0x1*/
 260:../../source/src/FWlib/src/stm32f10x_i2c.c ****     if ((result & CCR_CCR_Set) == 0)
 261:../../source/src/FWlib/src/stm32f10x_i2c.c ****     {
 262:../../source/src/FWlib/src/stm32f10x_i2c.c ****       /* Set minimum allowed value */
 263:../../source/src/FWlib/src/stm32f10x_i2c.c ****       result |= (uint16_t)0x0001;  
 264:../../source/src/FWlib/src/stm32f10x_i2c.c ****     }
 265:../../source/src/FWlib/src/stm32f10x_i2c.c ****     /* Set speed value and set F/S bit for fast mode */
 266:../../source/src/FWlib/src/stm32f10x_i2c.c ****     tmpreg |= (uint16_t)(result | CCR_FS_Set);
 267:../../source/src/FWlib/src/stm32f10x_i2c.c ****     /* Set Maximum Rise Time for fast mode */
ARM GAS  G:\Users\Jaxb\AppData\Local\Temp\cc3gF0EP.s 			page 9


 268:../../source/src/FWlib/src/stm32f10x_i2c.c ****     I2Cx->TRISE = (uint16_t)(((freqrange * (uint16_t)300) / (uint16_t)1000) + (uint16_t)1);  
 269:../../source/src/FWlib/src/stm32f10x_i2c.c ****   }
 270:../../source/src/FWlib/src/stm32f10x_i2c.c **** 
 271:../../source/src/FWlib/src/stm32f10x_i2c.c ****   /* Write to I2Cx CCR */
 272:../../source/src/FWlib/src/stm32f10x_i2c.c ****   I2Cx->CCR = tmpreg;
 180              		.loc 1 272 0
 181 008a A383     		strh	r3, [r4, #28]	@ movhi
 273:../../source/src/FWlib/src/stm32f10x_i2c.c ****   /* Enable the selected I2C peripheral */
 274:../../source/src/FWlib/src/stm32f10x_i2c.c ****   I2Cx->CR1 |= CR1_PE_Set;
 182              		.loc 1 274 0
 183 008c 2288     		ldrh	r2, [r4]
 275:../../source/src/FWlib/src/stm32f10x_i2c.c **** 
 276:../../source/src/FWlib/src/stm32f10x_i2c.c **** /*---------------------------- I2Cx CR1 Configuration ------------------------*/
 277:../../source/src/FWlib/src/stm32f10x_i2c.c ****   /* Get the I2Cx CR1 value */
 278:../../source/src/FWlib/src/stm32f10x_i2c.c ****   tmpreg = I2Cx->CR1;
 279:../../source/src/FWlib/src/stm32f10x_i2c.c ****   /* Clear ACK, SMBTYPE and  SMBUS bits */
 280:../../source/src/FWlib/src/stm32f10x_i2c.c ****   tmpreg &= CR1_CLEAR_Mask;
 184              		.loc 1 280 0
 185 008e 1D4B     		ldr	r3, .L14+8
 186              	.LVL21:
 274:../../source/src/FWlib/src/stm32f10x_i2c.c **** 
 187              		.loc 1 274 0
 188 0090 42F00102 		orr	r2, r2, #1
 189 0094 2280     		strh	r2, [r4]	@ movhi
 190              	.LVL22:
 278:../../source/src/FWlib/src/stm32f10x_i2c.c ****   /* Clear ACK, SMBTYPE and  SMBUS bits */
 191              		.loc 1 278 0
 192 0096 2288     		ldrh	r2, [r4]
 193              	.LVL23:
 281:../../source/src/FWlib/src/stm32f10x_i2c.c ****   /* Configure I2Cx: mode and acknowledgement */
 282:../../source/src/FWlib/src/stm32f10x_i2c.c ****   /* Set SMBTYPE and SMBUS bits according to I2C_Mode value */
 283:../../source/src/FWlib/src/stm32f10x_i2c.c ****   /* Set ACK bit according to I2C_Ack value */
 284:../../source/src/FWlib/src/stm32f10x_i2c.c ****   tmpreg |= (uint16_t)((uint32_t)I2C_InitStruct->I2C_Mode | I2C_InitStruct->I2C_Ack);
 194              		.loc 1 284 0
 195 0098 A988     		ldrh	r1, [r5, #4]
 196 009a 6E89     		ldrh	r6, [r5, #10]
 285:../../source/src/FWlib/src/stm32f10x_i2c.c ****   /* Write to I2Cx CR1 */
 286:../../source/src/FWlib/src/stm32f10x_i2c.c ****   I2Cx->CR1 = tmpreg;
 287:../../source/src/FWlib/src/stm32f10x_i2c.c **** 
 288:../../source/src/FWlib/src/stm32f10x_i2c.c **** /*---------------------------- I2Cx OAR1 Configuration -----------------------*/
 289:../../source/src/FWlib/src/stm32f10x_i2c.c ****   /* Set I2Cx Own Address1 and acknowledged address */
 290:../../source/src/FWlib/src/stm32f10x_i2c.c ****   I2Cx->OAR1 = (I2C_InitStruct->I2C_AcknowledgedAddress | I2C_InitStruct->I2C_OwnAddress1);
 197              		.loc 1 290 0
 198 009c 2889     		ldrh	r0, [r5, #8]
 199              	.LVL24:
 280:../../source/src/FWlib/src/stm32f10x_i2c.c ****   /* Configure I2Cx: mode and acknowledgement */
 200              		.loc 1 280 0
 201 009e 1340     		ands	r3, r3, r2
 202              	.LVL25:
 203              		.loc 1 290 0
 204 00a0 AA89     		ldrh	r2, [r5, #12]
 284:../../source/src/FWlib/src/stm32f10x_i2c.c ****   /* Write to I2Cx CR1 */
 205              		.loc 1 284 0
 206 00a2 3143     		orrs	r1, r1, r6
 207 00a4 0B43     		orrs	r3, r3, r1
 208              	.LVL26:
 209              		.loc 1 290 0
ARM GAS  G:\Users\Jaxb\AppData\Local\Temp\cc3gF0EP.s 			page 10


 210 00a6 0243     		orrs	r2, r2, r0
 286:../../source/src/FWlib/src/stm32f10x_i2c.c **** 
 211              		.loc 1 286 0
 212 00a8 2380     		strh	r3, [r4]	@ movhi
 213              		.loc 1 290 0
 214 00aa 2281     		strh	r2, [r4, #8]	@ movhi
 291:../../source/src/FWlib/src/stm32f10x_i2c.c **** }
 215              		.loc 1 291 0
 216 00ac 07B0     		add	sp, sp, #28
 217              	.LCFI6:
 218              		.cfi_remember_state
 219              		.cfi_def_cfa_offset 20
 220              		@ sp needed
 221 00ae F0BD     		pop	{r4, r5, r6, r7, pc}
 222              	.LVL27:
 223              	.L8:
 224              	.LCFI7:
 225              		.cfi_restore_state
 246:../../source/src/FWlib/src/stm32f10x_i2c.c ****     {
 226              		.loc 1 246 0
 227 00b0 4BF6FF72 		movw	r2, #49151
 228 00b4 EE88     		ldrh	r6, [r5, #6]
 229 00b6 9642     		cmp	r6, r2
 230 00b8 1AD0     		beq	.L13
 254:../../source/src/FWlib/src/stm32f10x_i2c.c ****       /* Set DUTY bit */
 231              		.loc 1 254 0
 232 00ba 03EB8303 		add	r3, r3, r3, lsl #2
 233 00be 03EB8303 		add	r3, r3, r3, lsl #2
 234 00c2 B0FBF3F3 		udiv	r3, r0, r3
 235 00c6 9BB2     		uxth	r3, r3
 236              	.LVL28:
 256:../../source/src/FWlib/src/stm32f10x_i2c.c ****     }
 237              		.loc 1 256 0
 238 00c8 43F48043 		orr	r3, r3, #16384
 239              	.LVL29:
 240              	.L11:
 260:../../source/src/FWlib/src/stm32f10x_i2c.c ****     {
 241              		.loc 1 260 0
 242 00cc C3F30B02 		ubfx	r2, r3, #0, #12
 243 00d0 0AB9     		cbnz	r2, .L12
 263:../../source/src/FWlib/src/stm32f10x_i2c.c ****     }
 244              		.loc 1 263 0
 245 00d2 43F00103 		orr	r3, r3, #1
 246              	.LVL30:
 247              	.L12:
 268:../../source/src/FWlib/src/stm32f10x_i2c.c ****   }
 248              		.loc 1 268 0
 249 00d6 4FF49672 		mov	r2, #300
 250 00da 02FB01F1 		mul	r1, r2, r1
 251 00de 0A4A     		ldr	r2, .L14+12
 266:../../source/src/FWlib/src/stm32f10x_i2c.c ****     /* Set Maximum Rise Time for fast mode */
 252              		.loc 1 266 0
 253 00e0 43F40043 		orr	r3, r3, #32768
 254              	.LVL31:
 268:../../source/src/FWlib/src/stm32f10x_i2c.c ****   }
 255              		.loc 1 268 0
 256 00e4 A2FB0121 		umull	r2, r1, r2, r1
ARM GAS  G:\Users\Jaxb\AppData\Local\Temp\cc3gF0EP.s 			page 11


 257 00e8 8909     		lsrs	r1, r1, #6
 258 00ea 0131     		adds	r1, r1, #1
 259 00ec 2184     		strh	r1, [r4, #32]	@ movhi
 260 00ee CCE7     		b	.L9
 261              	.LVL32:
 262              	.L13:
 249:../../source/src/FWlib/src/stm32f10x_i2c.c ****     }
 263              		.loc 1 249 0
 264 00f0 03EB4303 		add	r3, r3, r3, lsl #1
 265 00f4 B0FBF3F3 		udiv	r3, r0, r3
 266 00f8 9BB2     		uxth	r3, r3
 267              	.LVL33:
 268 00fa E7E7     		b	.L11
 269              	.L15:
 270              		.align	2
 271              	.L14:
 272 00fc 83DE1B43 		.word	1125899907
 273 0100 A0860100 		.word	100000
 274 0104 F5FBFFFF 		.word	-1035
 275 0108 D34D6210 		.word	274877907
 276              		.cfi_endproc
 277              	.LFE30:
 278              		.size	I2C_Init, .-I2C_Init
 279              		.align	1
 280              		.p2align 2,,3
 281              		.global	I2C_StructInit
 282              		.syntax unified
 283              		.thumb
 284              		.thumb_func
 285              		.fpu softvfp
 286              		.type	I2C_StructInit, %function
 287              	I2C_StructInit:
 288              	.LFB31:
 292:../../source/src/FWlib/src/stm32f10x_i2c.c **** 
 293:../../source/src/FWlib/src/stm32f10x_i2c.c **** /**
 294:../../source/src/FWlib/src/stm32f10x_i2c.c ****   * @brief  Fills each I2C_InitStruct member with its default value.
 295:../../source/src/FWlib/src/stm32f10x_i2c.c ****   * @param  I2C_InitStruct: pointer to an I2C_InitTypeDef structure which will be initialized.
 296:../../source/src/FWlib/src/stm32f10x_i2c.c ****   * @retval None
 297:../../source/src/FWlib/src/stm32f10x_i2c.c ****   */
 298:../../source/src/FWlib/src/stm32f10x_i2c.c **** void I2C_StructInit(I2C_InitTypeDef* I2C_InitStruct)
 299:../../source/src/FWlib/src/stm32f10x_i2c.c **** {
 289              		.loc 1 299 0
 290              		.cfi_startproc
 291              		@ args = 0, pretend = 0, frame = 0
 292              		@ frame_needed = 0, uses_anonymous_args = 0
 293              		@ link register save eliminated.
 294              	.LVL34:
 295 010c 10B4     		push	{r4}
 296              	.LCFI8:
 297              		.cfi_def_cfa_offset 4
 298              		.cfi_offset 4, -4
 300:../../source/src/FWlib/src/stm32f10x_i2c.c **** /*---------------- Reset I2C init structure parameters values ----------------*/
 301:../../source/src/FWlib/src/stm32f10x_i2c.c ****   /* initialize the I2C_ClockSpeed member */
 302:../../source/src/FWlib/src/stm32f10x_i2c.c ****   I2C_InitStruct->I2C_ClockSpeed = 5000;
 303:../../source/src/FWlib/src/stm32f10x_i2c.c ****   /* Initialize the I2C_Mode member */
 304:../../source/src/FWlib/src/stm32f10x_i2c.c ****   I2C_InitStruct->I2C_Mode = I2C_Mode_I2C;
 305:../../source/src/FWlib/src/stm32f10x_i2c.c ****   /* Initialize the I2C_DutyCycle member */
ARM GAS  G:\Users\Jaxb\AppData\Local\Temp\cc3gF0EP.s 			page 12


 306:../../source/src/FWlib/src/stm32f10x_i2c.c ****   I2C_InitStruct->I2C_DutyCycle = I2C_DutyCycle_2;
 299              		.loc 1 306 0
 300 010e 0022     		movs	r2, #0
 302:../../source/src/FWlib/src/stm32f10x_i2c.c ****   /* Initialize the I2C_Mode member */
 301              		.loc 1 302 0
 302 0110 41F28834 		movw	r4, #5000
 307:../../source/src/FWlib/src/stm32f10x_i2c.c ****   /* Initialize the I2C_OwnAddress1 member */
 308:../../source/src/FWlib/src/stm32f10x_i2c.c ****   I2C_InitStruct->I2C_OwnAddress1 = 0;
 309:../../source/src/FWlib/src/stm32f10x_i2c.c ****   /* Initialize the I2C_Ack member */
 310:../../source/src/FWlib/src/stm32f10x_i2c.c ****   I2C_InitStruct->I2C_Ack = I2C_Ack_Disable;
 303              		.loc 1 310 0
 304 0114 4FF48043 		mov	r3, #16384
 302:../../source/src/FWlib/src/stm32f10x_i2c.c ****   /* Initialize the I2C_Mode member */
 305              		.loc 1 302 0
 306 0118 0349     		ldr	r1, .L17
 306:../../source/src/FWlib/src/stm32f10x_i2c.c ****   /* Initialize the I2C_OwnAddress1 member */
 307              		.loc 1 306 0
 308 011a 8260     		str	r2, [r0, #8]
 302:../../source/src/FWlib/src/stm32f10x_i2c.c ****   /* Initialize the I2C_Mode member */
 309              		.loc 1 302 0
 310 011c C0E90041 		strd	r4, r1, [r0]
 311              		.loc 1 310 0
 312 0120 8381     		strh	r3, [r0, #12]	@ movhi
 311:../../source/src/FWlib/src/stm32f10x_i2c.c ****   /* Initialize the I2C_AcknowledgedAddress member */
 312:../../source/src/FWlib/src/stm32f10x_i2c.c ****   I2C_InitStruct->I2C_AcknowledgedAddress = I2C_AcknowledgedAddress_7bit;
 313:../../source/src/FWlib/src/stm32f10x_i2c.c **** }
 313              		.loc 1 313 0
 314 0122 10BC     		pop	{r4}
 315              	.LCFI9:
 316              		.cfi_restore 4
 317              		.cfi_def_cfa_offset 0
 318 0124 7047     		bx	lr
 319              	.L18:
 320 0126 00BF     		.align	2
 321              	.L17:
 322 0128 0000FFBF 		.word	-1073807360
 323              		.cfi_endproc
 324              	.LFE31:
 325              		.size	I2C_StructInit, .-I2C_StructInit
 326              		.align	1
 327              		.p2align 2,,3
 328              		.global	I2C_Cmd
 329              		.syntax unified
 330              		.thumb
 331              		.thumb_func
 332              		.fpu softvfp
 333              		.type	I2C_Cmd, %function
 334              	I2C_Cmd:
 335              	.LFB32:
 314:../../source/src/FWlib/src/stm32f10x_i2c.c **** 
 315:../../source/src/FWlib/src/stm32f10x_i2c.c **** /**
 316:../../source/src/FWlib/src/stm32f10x_i2c.c ****   * @brief  Enables or disables the specified I2C peripheral.
 317:../../source/src/FWlib/src/stm32f10x_i2c.c ****   * @param  I2Cx: where x can be 1 or 2 to select the I2C peripheral.
 318:../../source/src/FWlib/src/stm32f10x_i2c.c ****   * @param  NewState: new state of the I2Cx peripheral. 
 319:../../source/src/FWlib/src/stm32f10x_i2c.c ****   *   This parameter can be: ENABLE or DISABLE.
 320:../../source/src/FWlib/src/stm32f10x_i2c.c ****   * @retval None
 321:../../source/src/FWlib/src/stm32f10x_i2c.c ****   */
ARM GAS  G:\Users\Jaxb\AppData\Local\Temp\cc3gF0EP.s 			page 13


 322:../../source/src/FWlib/src/stm32f10x_i2c.c **** void I2C_Cmd(I2C_TypeDef* I2Cx, FunctionalState NewState)
 323:../../source/src/FWlib/src/stm32f10x_i2c.c **** {
 336              		.loc 1 323 0
 337              		.cfi_startproc
 338              		@ args = 0, pretend = 0, frame = 0
 339              		@ frame_needed = 0, uses_anonymous_args = 0
 340              		@ link register save eliminated.
 341              	.LVL35:
 324:../../source/src/FWlib/src/stm32f10x_i2c.c ****   /* Check the parameters */
 325:../../source/src/FWlib/src/stm32f10x_i2c.c ****   assert_param(IS_I2C_ALL_PERIPH(I2Cx));
 326:../../source/src/FWlib/src/stm32f10x_i2c.c ****   assert_param(IS_FUNCTIONAL_STATE(NewState));
 327:../../source/src/FWlib/src/stm32f10x_i2c.c ****   if (NewState != DISABLE)
 328:../../source/src/FWlib/src/stm32f10x_i2c.c ****   {
 329:../../source/src/FWlib/src/stm32f10x_i2c.c ****     /* Enable the selected I2C peripheral */
 330:../../source/src/FWlib/src/stm32f10x_i2c.c ****     I2Cx->CR1 |= CR1_PE_Set;
 342              		.loc 1 330 0
 343 012c 0388     		ldrh	r3, [r0]
 327:../../source/src/FWlib/src/stm32f10x_i2c.c ****   {
 344              		.loc 1 327 0
 345 012e 29B9     		cbnz	r1, .L22
 331:../../source/src/FWlib/src/stm32f10x_i2c.c ****   }
 332:../../source/src/FWlib/src/stm32f10x_i2c.c ****   else
 333:../../source/src/FWlib/src/stm32f10x_i2c.c ****   {
 334:../../source/src/FWlib/src/stm32f10x_i2c.c ****     /* Disable the selected I2C peripheral */
 335:../../source/src/FWlib/src/stm32f10x_i2c.c ****     I2Cx->CR1 &= CR1_PE_Reset;
 346              		.loc 1 335 0
 347 0130 23F00103 		bic	r3, r3, #1
 348 0134 1B04     		lsls	r3, r3, #16
 349 0136 1B0C     		lsrs	r3, r3, #16
 350 0138 0380     		strh	r3, [r0]	@ movhi
 336:../../source/src/FWlib/src/stm32f10x_i2c.c ****   }
 337:../../source/src/FWlib/src/stm32f10x_i2c.c **** }
 351              		.loc 1 337 0
 352 013a 7047     		bx	lr
 353              	.L22:
 330:../../source/src/FWlib/src/stm32f10x_i2c.c ****   }
 354              		.loc 1 330 0
 355 013c 43F00103 		orr	r3, r3, #1
 356 0140 0380     		strh	r3, [r0]	@ movhi
 357 0142 7047     		bx	lr
 358              		.cfi_endproc
 359              	.LFE32:
 360              		.size	I2C_Cmd, .-I2C_Cmd
 361              		.align	1
 362              		.p2align 2,,3
 363              		.global	I2C_DMACmd
 364              		.syntax unified
 365              		.thumb
 366              		.thumb_func
 367              		.fpu softvfp
 368              		.type	I2C_DMACmd, %function
 369              	I2C_DMACmd:
 370              	.LFB33:
 338:../../source/src/FWlib/src/stm32f10x_i2c.c **** 
 339:../../source/src/FWlib/src/stm32f10x_i2c.c **** /**
 340:../../source/src/FWlib/src/stm32f10x_i2c.c ****   * @brief  Enables or disables the specified I2C DMA requests.
 341:../../source/src/FWlib/src/stm32f10x_i2c.c ****   * @param  I2Cx: where x can be 1 or 2 to select the I2C peripheral.
ARM GAS  G:\Users\Jaxb\AppData\Local\Temp\cc3gF0EP.s 			page 14


 342:../../source/src/FWlib/src/stm32f10x_i2c.c ****   * @param  NewState: new state of the I2C DMA transfer.
 343:../../source/src/FWlib/src/stm32f10x_i2c.c ****   *   This parameter can be: ENABLE or DISABLE.
 344:../../source/src/FWlib/src/stm32f10x_i2c.c ****   * @retval None
 345:../../source/src/FWlib/src/stm32f10x_i2c.c ****   */
 346:../../source/src/FWlib/src/stm32f10x_i2c.c **** void I2C_DMACmd(I2C_TypeDef* I2Cx, FunctionalState NewState)
 347:../../source/src/FWlib/src/stm32f10x_i2c.c **** {
 371              		.loc 1 347 0
 372              		.cfi_startproc
 373              		@ args = 0, pretend = 0, frame = 0
 374              		@ frame_needed = 0, uses_anonymous_args = 0
 375              		@ link register save eliminated.
 376              	.LVL36:
 348:../../source/src/FWlib/src/stm32f10x_i2c.c ****   /* Check the parameters */
 349:../../source/src/FWlib/src/stm32f10x_i2c.c ****   assert_param(IS_I2C_ALL_PERIPH(I2Cx));
 350:../../source/src/FWlib/src/stm32f10x_i2c.c ****   assert_param(IS_FUNCTIONAL_STATE(NewState));
 351:../../source/src/FWlib/src/stm32f10x_i2c.c ****   if (NewState != DISABLE)
 352:../../source/src/FWlib/src/stm32f10x_i2c.c ****   {
 353:../../source/src/FWlib/src/stm32f10x_i2c.c ****     /* Enable the selected I2C DMA requests */
 354:../../source/src/FWlib/src/stm32f10x_i2c.c ****     I2Cx->CR2 |= CR2_DMAEN_Set;
 377              		.loc 1 354 0
 378 0144 8388     		ldrh	r3, [r0, #4]
 351:../../source/src/FWlib/src/stm32f10x_i2c.c ****   {
 379              		.loc 1 351 0
 380 0146 29B9     		cbnz	r1, .L26
 355:../../source/src/FWlib/src/stm32f10x_i2c.c ****   }
 356:../../source/src/FWlib/src/stm32f10x_i2c.c ****   else
 357:../../source/src/FWlib/src/stm32f10x_i2c.c ****   {
 358:../../source/src/FWlib/src/stm32f10x_i2c.c ****     /* Disable the selected I2C DMA requests */
 359:../../source/src/FWlib/src/stm32f10x_i2c.c ****     I2Cx->CR2 &= CR2_DMAEN_Reset;
 381              		.loc 1 359 0
 382 0148 23F40063 		bic	r3, r3, #2048
 383 014c 1B04     		lsls	r3, r3, #16
 384 014e 1B0C     		lsrs	r3, r3, #16
 385 0150 8380     		strh	r3, [r0, #4]	@ movhi
 360:../../source/src/FWlib/src/stm32f10x_i2c.c ****   }
 361:../../source/src/FWlib/src/stm32f10x_i2c.c **** }
 386              		.loc 1 361 0
 387 0152 7047     		bx	lr
 388              	.L26:
 354:../../source/src/FWlib/src/stm32f10x_i2c.c ****   }
 389              		.loc 1 354 0
 390 0154 43F40063 		orr	r3, r3, #2048
 391 0158 8380     		strh	r3, [r0, #4]	@ movhi
 392 015a 7047     		bx	lr
 393              		.cfi_endproc
 394              	.LFE33:
 395              		.size	I2C_DMACmd, .-I2C_DMACmd
 396              		.align	1
 397              		.p2align 2,,3
 398              		.global	I2C_DMALastTransferCmd
 399              		.syntax unified
 400              		.thumb
 401              		.thumb_func
 402              		.fpu softvfp
 403              		.type	I2C_DMALastTransferCmd, %function
 404              	I2C_DMALastTransferCmd:
 405              	.LFB34:
ARM GAS  G:\Users\Jaxb\AppData\Local\Temp\cc3gF0EP.s 			page 15


 362:../../source/src/FWlib/src/stm32f10x_i2c.c **** 
 363:../../source/src/FWlib/src/stm32f10x_i2c.c **** /**
 364:../../source/src/FWlib/src/stm32f10x_i2c.c ****   * @brief  Specifies if the next DMA transfer will be the last one.
 365:../../source/src/FWlib/src/stm32f10x_i2c.c ****   * @param  I2Cx: where x can be 1 or 2 to select the I2C peripheral.
 366:../../source/src/FWlib/src/stm32f10x_i2c.c ****   * @param  NewState: new state of the I2C DMA last transfer.
 367:../../source/src/FWlib/src/stm32f10x_i2c.c ****   *   This parameter can be: ENABLE or DISABLE.
 368:../../source/src/FWlib/src/stm32f10x_i2c.c ****   * @retval None
 369:../../source/src/FWlib/src/stm32f10x_i2c.c ****   */
 370:../../source/src/FWlib/src/stm32f10x_i2c.c **** void I2C_DMALastTransferCmd(I2C_TypeDef* I2Cx, FunctionalState NewState)
 371:../../source/src/FWlib/src/stm32f10x_i2c.c **** {
 406              		.loc 1 371 0
 407              		.cfi_startproc
 408              		@ args = 0, pretend = 0, frame = 0
 409              		@ frame_needed = 0, uses_anonymous_args = 0
 410              		@ link register save eliminated.
 411              	.LVL37:
 372:../../source/src/FWlib/src/stm32f10x_i2c.c ****   /* Check the parameters */
 373:../../source/src/FWlib/src/stm32f10x_i2c.c ****   assert_param(IS_I2C_ALL_PERIPH(I2Cx));
 374:../../source/src/FWlib/src/stm32f10x_i2c.c ****   assert_param(IS_FUNCTIONAL_STATE(NewState));
 375:../../source/src/FWlib/src/stm32f10x_i2c.c ****   if (NewState != DISABLE)
 376:../../source/src/FWlib/src/stm32f10x_i2c.c ****   {
 377:../../source/src/FWlib/src/stm32f10x_i2c.c ****     /* Next DMA transfer is the last transfer */
 378:../../source/src/FWlib/src/stm32f10x_i2c.c ****     I2Cx->CR2 |= CR2_LAST_Set;
 412              		.loc 1 378 0
 413 015c 8388     		ldrh	r3, [r0, #4]
 375:../../source/src/FWlib/src/stm32f10x_i2c.c ****   {
 414              		.loc 1 375 0
 415 015e 29B9     		cbnz	r1, .L30
 379:../../source/src/FWlib/src/stm32f10x_i2c.c ****   }
 380:../../source/src/FWlib/src/stm32f10x_i2c.c ****   else
 381:../../source/src/FWlib/src/stm32f10x_i2c.c ****   {
 382:../../source/src/FWlib/src/stm32f10x_i2c.c ****     /* Next DMA transfer is not the last transfer */
 383:../../source/src/FWlib/src/stm32f10x_i2c.c ****     I2Cx->CR2 &= CR2_LAST_Reset;
 416              		.loc 1 383 0
 417 0160 23F48053 		bic	r3, r3, #4096
 418 0164 1B04     		lsls	r3, r3, #16
 419 0166 1B0C     		lsrs	r3, r3, #16
 420 0168 8380     		strh	r3, [r0, #4]	@ movhi
 384:../../source/src/FWlib/src/stm32f10x_i2c.c ****   }
 385:../../source/src/FWlib/src/stm32f10x_i2c.c **** }
 421              		.loc 1 385 0
 422 016a 7047     		bx	lr
 423              	.L30:
 378:../../source/src/FWlib/src/stm32f10x_i2c.c ****   }
 424              		.loc 1 378 0
 425 016c 43F48053 		orr	r3, r3, #4096
 426 0170 8380     		strh	r3, [r0, #4]	@ movhi
 427 0172 7047     		bx	lr
 428              		.cfi_endproc
 429              	.LFE34:
 430              		.size	I2C_DMALastTransferCmd, .-I2C_DMALastTransferCmd
 431              		.align	1
 432              		.p2align 2,,3
 433              		.global	I2C_GenerateSTART
 434              		.syntax unified
 435              		.thumb
 436              		.thumb_func
ARM GAS  G:\Users\Jaxb\AppData\Local\Temp\cc3gF0EP.s 			page 16


 437              		.fpu softvfp
 438              		.type	I2C_GenerateSTART, %function
 439              	I2C_GenerateSTART:
 440              	.LFB35:
 386:../../source/src/FWlib/src/stm32f10x_i2c.c **** 
 387:../../source/src/FWlib/src/stm32f10x_i2c.c **** /**
 388:../../source/src/FWlib/src/stm32f10x_i2c.c ****   * @brief  Generates I2Cx communication START condition.
 389:../../source/src/FWlib/src/stm32f10x_i2c.c ****   * @param  I2Cx: where x can be 1 or 2 to select the I2C peripheral.
 390:../../source/src/FWlib/src/stm32f10x_i2c.c ****   * @param  NewState: new state of the I2C START condition generation.
 391:../../source/src/FWlib/src/stm32f10x_i2c.c ****   *   This parameter can be: ENABLE or DISABLE.
 392:../../source/src/FWlib/src/stm32f10x_i2c.c ****   * @retval None.
 393:../../source/src/FWlib/src/stm32f10x_i2c.c ****   */
 394:../../source/src/FWlib/src/stm32f10x_i2c.c **** void I2C_GenerateSTART(I2C_TypeDef* I2Cx, FunctionalState NewState)
 395:../../source/src/FWlib/src/stm32f10x_i2c.c **** {
 441              		.loc 1 395 0
 442              		.cfi_startproc
 443              		@ args = 0, pretend = 0, frame = 0
 444              		@ frame_needed = 0, uses_anonymous_args = 0
 445              		@ link register save eliminated.
 446              	.LVL38:
 396:../../source/src/FWlib/src/stm32f10x_i2c.c ****   /* Check the parameters */
 397:../../source/src/FWlib/src/stm32f10x_i2c.c ****   assert_param(IS_I2C_ALL_PERIPH(I2Cx));
 398:../../source/src/FWlib/src/stm32f10x_i2c.c ****   assert_param(IS_FUNCTIONAL_STATE(NewState));
 399:../../source/src/FWlib/src/stm32f10x_i2c.c ****   if (NewState != DISABLE)
 400:../../source/src/FWlib/src/stm32f10x_i2c.c ****   {
 401:../../source/src/FWlib/src/stm32f10x_i2c.c ****     /* Generate a START condition */
 402:../../source/src/FWlib/src/stm32f10x_i2c.c ****     I2Cx->CR1 |= CR1_START_Set;
 447              		.loc 1 402 0
 448 0174 0388     		ldrh	r3, [r0]
 399:../../source/src/FWlib/src/stm32f10x_i2c.c ****   {
 449              		.loc 1 399 0
 450 0176 29B9     		cbnz	r1, .L34
 403:../../source/src/FWlib/src/stm32f10x_i2c.c ****   }
 404:../../source/src/FWlib/src/stm32f10x_i2c.c ****   else
 405:../../source/src/FWlib/src/stm32f10x_i2c.c ****   {
 406:../../source/src/FWlib/src/stm32f10x_i2c.c ****     /* Disable the START condition generation */
 407:../../source/src/FWlib/src/stm32f10x_i2c.c ****     I2Cx->CR1 &= CR1_START_Reset;
 451              		.loc 1 407 0
 452 0178 23F48073 		bic	r3, r3, #256
 453 017c 1B04     		lsls	r3, r3, #16
 454 017e 1B0C     		lsrs	r3, r3, #16
 455 0180 0380     		strh	r3, [r0]	@ movhi
 408:../../source/src/FWlib/src/stm32f10x_i2c.c ****   }
 409:../../source/src/FWlib/src/stm32f10x_i2c.c **** }
 456              		.loc 1 409 0
 457 0182 7047     		bx	lr
 458              	.L34:
 402:../../source/src/FWlib/src/stm32f10x_i2c.c ****   }
 459              		.loc 1 402 0
 460 0184 43F48073 		orr	r3, r3, #256
 461 0188 0380     		strh	r3, [r0]	@ movhi
 462 018a 7047     		bx	lr
 463              		.cfi_endproc
 464              	.LFE35:
 465              		.size	I2C_GenerateSTART, .-I2C_GenerateSTART
 466              		.align	1
 467              		.p2align 2,,3
ARM GAS  G:\Users\Jaxb\AppData\Local\Temp\cc3gF0EP.s 			page 17


 468              		.global	I2C_GenerateSTOP
 469              		.syntax unified
 470              		.thumb
 471              		.thumb_func
 472              		.fpu softvfp
 473              		.type	I2C_GenerateSTOP, %function
 474              	I2C_GenerateSTOP:
 475              	.LFB36:
 410:../../source/src/FWlib/src/stm32f10x_i2c.c **** 
 411:../../source/src/FWlib/src/stm32f10x_i2c.c **** /**
 412:../../source/src/FWlib/src/stm32f10x_i2c.c ****   * @brief  Generates I2Cx communication STOP condition.
 413:../../source/src/FWlib/src/stm32f10x_i2c.c ****   * @param  I2Cx: where x can be 1 or 2 to select the I2C peripheral.
 414:../../source/src/FWlib/src/stm32f10x_i2c.c ****   * @param  NewState: new state of the I2C STOP condition generation.
 415:../../source/src/FWlib/src/stm32f10x_i2c.c ****   *   This parameter can be: ENABLE or DISABLE.
 416:../../source/src/FWlib/src/stm32f10x_i2c.c ****   * @retval None.
 417:../../source/src/FWlib/src/stm32f10x_i2c.c ****   */
 418:../../source/src/FWlib/src/stm32f10x_i2c.c **** void I2C_GenerateSTOP(I2C_TypeDef* I2Cx, FunctionalState NewState)
 419:../../source/src/FWlib/src/stm32f10x_i2c.c **** {
 476              		.loc 1 419 0
 477              		.cfi_startproc
 478              		@ args = 0, pretend = 0, frame = 0
 479              		@ frame_needed = 0, uses_anonymous_args = 0
 480              		@ link register save eliminated.
 481              	.LVL39:
 420:../../source/src/FWlib/src/stm32f10x_i2c.c ****   /* Check the parameters */
 421:../../source/src/FWlib/src/stm32f10x_i2c.c ****   assert_param(IS_I2C_ALL_PERIPH(I2Cx));
 422:../../source/src/FWlib/src/stm32f10x_i2c.c ****   assert_param(IS_FUNCTIONAL_STATE(NewState));
 423:../../source/src/FWlib/src/stm32f10x_i2c.c ****   if (NewState != DISABLE)
 424:../../source/src/FWlib/src/stm32f10x_i2c.c ****   {
 425:../../source/src/FWlib/src/stm32f10x_i2c.c ****     /* Generate a STOP condition */
 426:../../source/src/FWlib/src/stm32f10x_i2c.c ****     I2Cx->CR1 |= CR1_STOP_Set;
 482              		.loc 1 426 0
 483 018c 0388     		ldrh	r3, [r0]
 423:../../source/src/FWlib/src/stm32f10x_i2c.c ****   {
 484              		.loc 1 423 0
 485 018e 29B9     		cbnz	r1, .L38
 427:../../source/src/FWlib/src/stm32f10x_i2c.c ****   }
 428:../../source/src/FWlib/src/stm32f10x_i2c.c ****   else
 429:../../source/src/FWlib/src/stm32f10x_i2c.c ****   {
 430:../../source/src/FWlib/src/stm32f10x_i2c.c ****     /* Disable the STOP condition generation */
 431:../../source/src/FWlib/src/stm32f10x_i2c.c ****     I2Cx->CR1 &= CR1_STOP_Reset;
 486              		.loc 1 431 0
 487 0190 23F40073 		bic	r3, r3, #512
 488 0194 1B04     		lsls	r3, r3, #16
 489 0196 1B0C     		lsrs	r3, r3, #16
 490 0198 0380     		strh	r3, [r0]	@ movhi
 432:../../source/src/FWlib/src/stm32f10x_i2c.c ****   }
 433:../../source/src/FWlib/src/stm32f10x_i2c.c **** }
 491              		.loc 1 433 0
 492 019a 7047     		bx	lr
 493              	.L38:
 426:../../source/src/FWlib/src/stm32f10x_i2c.c ****   }
 494              		.loc 1 426 0
 495 019c 43F40073 		orr	r3, r3, #512
 496 01a0 0380     		strh	r3, [r0]	@ movhi
 497 01a2 7047     		bx	lr
 498              		.cfi_endproc
ARM GAS  G:\Users\Jaxb\AppData\Local\Temp\cc3gF0EP.s 			page 18


 499              	.LFE36:
 500              		.size	I2C_GenerateSTOP, .-I2C_GenerateSTOP
 501              		.align	1
 502              		.p2align 2,,3
 503              		.global	I2C_AcknowledgeConfig
 504              		.syntax unified
 505              		.thumb
 506              		.thumb_func
 507              		.fpu softvfp
 508              		.type	I2C_AcknowledgeConfig, %function
 509              	I2C_AcknowledgeConfig:
 510              	.LFB37:
 434:../../source/src/FWlib/src/stm32f10x_i2c.c **** 
 435:../../source/src/FWlib/src/stm32f10x_i2c.c **** /**
 436:../../source/src/FWlib/src/stm32f10x_i2c.c ****   * @brief  Enables or disables the specified I2C acknowledge feature.
 437:../../source/src/FWlib/src/stm32f10x_i2c.c ****   * @param  I2Cx: where x can be 1 or 2 to select the I2C peripheral.
 438:../../source/src/FWlib/src/stm32f10x_i2c.c ****   * @param  NewState: new state of the I2C Acknowledgement.
 439:../../source/src/FWlib/src/stm32f10x_i2c.c ****   *   This parameter can be: ENABLE or DISABLE.
 440:../../source/src/FWlib/src/stm32f10x_i2c.c ****   * @retval None.
 441:../../source/src/FWlib/src/stm32f10x_i2c.c ****   */
 442:../../source/src/FWlib/src/stm32f10x_i2c.c **** void I2C_AcknowledgeConfig(I2C_TypeDef* I2Cx, FunctionalState NewState)
 443:../../source/src/FWlib/src/stm32f10x_i2c.c **** {
 511              		.loc 1 443 0
 512              		.cfi_startproc
 513              		@ args = 0, pretend = 0, frame = 0
 514              		@ frame_needed = 0, uses_anonymous_args = 0
 515              		@ link register save eliminated.
 516              	.LVL40:
 444:../../source/src/FWlib/src/stm32f10x_i2c.c ****   /* Check the parameters */
 445:../../source/src/FWlib/src/stm32f10x_i2c.c ****   assert_param(IS_I2C_ALL_PERIPH(I2Cx));
 446:../../source/src/FWlib/src/stm32f10x_i2c.c ****   assert_param(IS_FUNCTIONAL_STATE(NewState));
 447:../../source/src/FWlib/src/stm32f10x_i2c.c ****   if (NewState != DISABLE)
 448:../../source/src/FWlib/src/stm32f10x_i2c.c ****   {
 449:../../source/src/FWlib/src/stm32f10x_i2c.c ****     /* Enable the acknowledgement */
 450:../../source/src/FWlib/src/stm32f10x_i2c.c ****     I2Cx->CR1 |= CR1_ACK_Set;
 517              		.loc 1 450 0
 518 01a4 0388     		ldrh	r3, [r0]
 447:../../source/src/FWlib/src/stm32f10x_i2c.c ****   {
 519              		.loc 1 447 0
 520 01a6 29B9     		cbnz	r1, .L42
 451:../../source/src/FWlib/src/stm32f10x_i2c.c ****   }
 452:../../source/src/FWlib/src/stm32f10x_i2c.c ****   else
 453:../../source/src/FWlib/src/stm32f10x_i2c.c ****   {
 454:../../source/src/FWlib/src/stm32f10x_i2c.c ****     /* Disable the acknowledgement */
 455:../../source/src/FWlib/src/stm32f10x_i2c.c ****     I2Cx->CR1 &= CR1_ACK_Reset;
 521              		.loc 1 455 0
 522 01a8 23F48063 		bic	r3, r3, #1024
 523 01ac 1B04     		lsls	r3, r3, #16
 524 01ae 1B0C     		lsrs	r3, r3, #16
 525 01b0 0380     		strh	r3, [r0]	@ movhi
 456:../../source/src/FWlib/src/stm32f10x_i2c.c ****   }
 457:../../source/src/FWlib/src/stm32f10x_i2c.c **** }
 526              		.loc 1 457 0
 527 01b2 7047     		bx	lr
 528              	.L42:
 450:../../source/src/FWlib/src/stm32f10x_i2c.c ****   }
 529              		.loc 1 450 0
ARM GAS  G:\Users\Jaxb\AppData\Local\Temp\cc3gF0EP.s 			page 19


 530 01b4 43F48063 		orr	r3, r3, #1024
 531 01b8 0380     		strh	r3, [r0]	@ movhi
 532 01ba 7047     		bx	lr
 533              		.cfi_endproc
 534              	.LFE37:
 535              		.size	I2C_AcknowledgeConfig, .-I2C_AcknowledgeConfig
 536              		.align	1
 537              		.p2align 2,,3
 538              		.global	I2C_OwnAddress2Config
 539              		.syntax unified
 540              		.thumb
 541              		.thumb_func
 542              		.fpu softvfp
 543              		.type	I2C_OwnAddress2Config, %function
 544              	I2C_OwnAddress2Config:
 545              	.LFB38:
 458:../../source/src/FWlib/src/stm32f10x_i2c.c **** 
 459:../../source/src/FWlib/src/stm32f10x_i2c.c **** /**
 460:../../source/src/FWlib/src/stm32f10x_i2c.c ****   * @brief  Configures the specified I2C own address2.
 461:../../source/src/FWlib/src/stm32f10x_i2c.c ****   * @param  I2Cx: where x can be 1 or 2 to select the I2C peripheral.
 462:../../source/src/FWlib/src/stm32f10x_i2c.c ****   * @param  Address: specifies the 7bit I2C own address2.
 463:../../source/src/FWlib/src/stm32f10x_i2c.c ****   * @retval None.
 464:../../source/src/FWlib/src/stm32f10x_i2c.c ****   */
 465:../../source/src/FWlib/src/stm32f10x_i2c.c **** void I2C_OwnAddress2Config(I2C_TypeDef* I2Cx, uint8_t Address)
 466:../../source/src/FWlib/src/stm32f10x_i2c.c **** {
 546              		.loc 1 466 0
 547              		.cfi_startproc
 548              		@ args = 0, pretend = 0, frame = 0
 549              		@ frame_needed = 0, uses_anonymous_args = 0
 550              		@ link register save eliminated.
 551              	.LVL41:
 467:../../source/src/FWlib/src/stm32f10x_i2c.c ****   uint16_t tmpreg = 0;
 468:../../source/src/FWlib/src/stm32f10x_i2c.c **** 
 469:../../source/src/FWlib/src/stm32f10x_i2c.c ****   /* Check the parameters */
 470:../../source/src/FWlib/src/stm32f10x_i2c.c ****   assert_param(IS_I2C_ALL_PERIPH(I2Cx));
 471:../../source/src/FWlib/src/stm32f10x_i2c.c **** 
 472:../../source/src/FWlib/src/stm32f10x_i2c.c ****   /* Get the old register value */
 473:../../source/src/FWlib/src/stm32f10x_i2c.c ****   tmpreg = I2Cx->OAR2;
 552              		.loc 1 473 0
 553 01bc 8389     		ldrh	r3, [r0, #12]
 474:../../source/src/FWlib/src/stm32f10x_i2c.c **** 
 475:../../source/src/FWlib/src/stm32f10x_i2c.c ****   /* Reset I2Cx Own address2 bit [7:1] */
 476:../../source/src/FWlib/src/stm32f10x_i2c.c ****   tmpreg &= OAR2_ADD2_Reset;
 477:../../source/src/FWlib/src/stm32f10x_i2c.c **** 
 478:../../source/src/FWlib/src/stm32f10x_i2c.c ****   /* Set I2Cx Own address2 */
 479:../../source/src/FWlib/src/stm32f10x_i2c.c ****   tmpreg |= (uint16_t)((uint16_t)Address & (uint16_t)0x00FE);
 554              		.loc 1 479 0
 555 01be 01F0FE01 		and	r1, r1, #254
 556              	.LVL42:
 473:../../source/src/FWlib/src/stm32f10x_i2c.c **** 
 557              		.loc 1 473 0
 558 01c2 9BB2     		uxth	r3, r3
 559              	.LVL43:
 476:../../source/src/FWlib/src/stm32f10x_i2c.c **** 
 560              		.loc 1 476 0
 561 01c4 23F0FE03 		bic	r3, r3, #254
 562              	.LVL44:
ARM GAS  G:\Users\Jaxb\AppData\Local\Temp\cc3gF0EP.s 			page 20


 563              		.loc 1 479 0
 564 01c8 0B43     		orrs	r3, r3, r1
 565              	.LVL45:
 480:../../source/src/FWlib/src/stm32f10x_i2c.c **** 
 481:../../source/src/FWlib/src/stm32f10x_i2c.c ****   /* Store the new register value */
 482:../../source/src/FWlib/src/stm32f10x_i2c.c ****   I2Cx->OAR2 = tmpreg;
 566              		.loc 1 482 0
 567 01ca 8381     		strh	r3, [r0, #12]	@ movhi
 483:../../source/src/FWlib/src/stm32f10x_i2c.c **** }
 568              		.loc 1 483 0
 569 01cc 7047     		bx	lr
 570              		.cfi_endproc
 571              	.LFE38:
 572              		.size	I2C_OwnAddress2Config, .-I2C_OwnAddress2Config
 573              		.align	1
 574 01ce 00BF     		.p2align 2,,3
 575              		.global	I2C_DualAddressCmd
 576              		.syntax unified
 577              		.thumb
 578              		.thumb_func
 579              		.fpu softvfp
 580              		.type	I2C_DualAddressCmd, %function
 581              	I2C_DualAddressCmd:
 582              	.LFB39:
 484:../../source/src/FWlib/src/stm32f10x_i2c.c **** 
 485:../../source/src/FWlib/src/stm32f10x_i2c.c **** /**
 486:../../source/src/FWlib/src/stm32f10x_i2c.c ****   * @brief  Enables or disables the specified I2C dual addressing mode.
 487:../../source/src/FWlib/src/stm32f10x_i2c.c ****   * @param  I2Cx: where x can be 1 or 2 to select the I2C peripheral.
 488:../../source/src/FWlib/src/stm32f10x_i2c.c ****   * @param  NewState: new state of the I2C dual addressing mode.
 489:../../source/src/FWlib/src/stm32f10x_i2c.c ****   *   This parameter can be: ENABLE or DISABLE.
 490:../../source/src/FWlib/src/stm32f10x_i2c.c ****   * @retval None
 491:../../source/src/FWlib/src/stm32f10x_i2c.c ****   */
 492:../../source/src/FWlib/src/stm32f10x_i2c.c **** void I2C_DualAddressCmd(I2C_TypeDef* I2Cx, FunctionalState NewState)
 493:../../source/src/FWlib/src/stm32f10x_i2c.c **** {
 583              		.loc 1 493 0
 584              		.cfi_startproc
 585              		@ args = 0, pretend = 0, frame = 0
 586              		@ frame_needed = 0, uses_anonymous_args = 0
 587              		@ link register save eliminated.
 588              	.LVL46:
 494:../../source/src/FWlib/src/stm32f10x_i2c.c ****   /* Check the parameters */
 495:../../source/src/FWlib/src/stm32f10x_i2c.c ****   assert_param(IS_I2C_ALL_PERIPH(I2Cx));
 496:../../source/src/FWlib/src/stm32f10x_i2c.c ****   assert_param(IS_FUNCTIONAL_STATE(NewState));
 497:../../source/src/FWlib/src/stm32f10x_i2c.c ****   if (NewState != DISABLE)
 498:../../source/src/FWlib/src/stm32f10x_i2c.c ****   {
 499:../../source/src/FWlib/src/stm32f10x_i2c.c ****     /* Enable dual addressing mode */
 500:../../source/src/FWlib/src/stm32f10x_i2c.c ****     I2Cx->OAR2 |= OAR2_ENDUAL_Set;
 589              		.loc 1 500 0
 590 01d0 8389     		ldrh	r3, [r0, #12]
 497:../../source/src/FWlib/src/stm32f10x_i2c.c ****   {
 591              		.loc 1 497 0
 592 01d2 29B9     		cbnz	r1, .L47
 501:../../source/src/FWlib/src/stm32f10x_i2c.c ****   }
 502:../../source/src/FWlib/src/stm32f10x_i2c.c ****   else
 503:../../source/src/FWlib/src/stm32f10x_i2c.c ****   {
 504:../../source/src/FWlib/src/stm32f10x_i2c.c ****     /* Disable dual addressing mode */
 505:../../source/src/FWlib/src/stm32f10x_i2c.c ****     I2Cx->OAR2 &= OAR2_ENDUAL_Reset;
ARM GAS  G:\Users\Jaxb\AppData\Local\Temp\cc3gF0EP.s 			page 21


 593              		.loc 1 505 0
 594 01d4 23F00103 		bic	r3, r3, #1
 595 01d8 1B04     		lsls	r3, r3, #16
 596 01da 1B0C     		lsrs	r3, r3, #16
 597 01dc 8381     		strh	r3, [r0, #12]	@ movhi
 506:../../source/src/FWlib/src/stm32f10x_i2c.c ****   }
 507:../../source/src/FWlib/src/stm32f10x_i2c.c **** }
 598              		.loc 1 507 0
 599 01de 7047     		bx	lr
 600              	.L47:
 500:../../source/src/FWlib/src/stm32f10x_i2c.c ****   }
 601              		.loc 1 500 0
 602 01e0 43F00103 		orr	r3, r3, #1
 603 01e4 8381     		strh	r3, [r0, #12]	@ movhi
 604 01e6 7047     		bx	lr
 605              		.cfi_endproc
 606              	.LFE39:
 607              		.size	I2C_DualAddressCmd, .-I2C_DualAddressCmd
 608              		.align	1
 609              		.p2align 2,,3
 610              		.global	I2C_GeneralCallCmd
 611              		.syntax unified
 612              		.thumb
 613              		.thumb_func
 614              		.fpu softvfp
 615              		.type	I2C_GeneralCallCmd, %function
 616              	I2C_GeneralCallCmd:
 617              	.LFB40:
 508:../../source/src/FWlib/src/stm32f10x_i2c.c **** 
 509:../../source/src/FWlib/src/stm32f10x_i2c.c **** /**
 510:../../source/src/FWlib/src/stm32f10x_i2c.c ****   * @brief  Enables or disables the specified I2C general call feature.
 511:../../source/src/FWlib/src/stm32f10x_i2c.c ****   * @param  I2Cx: where x can be 1 or 2 to select the I2C peripheral.
 512:../../source/src/FWlib/src/stm32f10x_i2c.c ****   * @param  NewState: new state of the I2C General call.
 513:../../source/src/FWlib/src/stm32f10x_i2c.c ****   *   This parameter can be: ENABLE or DISABLE.
 514:../../source/src/FWlib/src/stm32f10x_i2c.c ****   * @retval None
 515:../../source/src/FWlib/src/stm32f10x_i2c.c ****   */
 516:../../source/src/FWlib/src/stm32f10x_i2c.c **** void I2C_GeneralCallCmd(I2C_TypeDef* I2Cx, FunctionalState NewState)
 517:../../source/src/FWlib/src/stm32f10x_i2c.c **** {
 618              		.loc 1 517 0
 619              		.cfi_startproc
 620              		@ args = 0, pretend = 0, frame = 0
 621              		@ frame_needed = 0, uses_anonymous_args = 0
 622              		@ link register save eliminated.
 623              	.LVL47:
 518:../../source/src/FWlib/src/stm32f10x_i2c.c ****   /* Check the parameters */
 519:../../source/src/FWlib/src/stm32f10x_i2c.c ****   assert_param(IS_I2C_ALL_PERIPH(I2Cx));
 520:../../source/src/FWlib/src/stm32f10x_i2c.c ****   assert_param(IS_FUNCTIONAL_STATE(NewState));
 521:../../source/src/FWlib/src/stm32f10x_i2c.c ****   if (NewState != DISABLE)
 522:../../source/src/FWlib/src/stm32f10x_i2c.c ****   {
 523:../../source/src/FWlib/src/stm32f10x_i2c.c ****     /* Enable generall call */
 524:../../source/src/FWlib/src/stm32f10x_i2c.c ****     I2Cx->CR1 |= CR1_ENGC_Set;
 624              		.loc 1 524 0
 625 01e8 0388     		ldrh	r3, [r0]
 521:../../source/src/FWlib/src/stm32f10x_i2c.c ****   {
 626              		.loc 1 521 0
 627 01ea 29B9     		cbnz	r1, .L51
 525:../../source/src/FWlib/src/stm32f10x_i2c.c ****   }
ARM GAS  G:\Users\Jaxb\AppData\Local\Temp\cc3gF0EP.s 			page 22


 526:../../source/src/FWlib/src/stm32f10x_i2c.c ****   else
 527:../../source/src/FWlib/src/stm32f10x_i2c.c ****   {
 528:../../source/src/FWlib/src/stm32f10x_i2c.c ****     /* Disable generall call */
 529:../../source/src/FWlib/src/stm32f10x_i2c.c ****     I2Cx->CR1 &= CR1_ENGC_Reset;
 628              		.loc 1 529 0
 629 01ec 23F04003 		bic	r3, r3, #64
 630 01f0 1B04     		lsls	r3, r3, #16
 631 01f2 1B0C     		lsrs	r3, r3, #16
 632 01f4 0380     		strh	r3, [r0]	@ movhi
 530:../../source/src/FWlib/src/stm32f10x_i2c.c ****   }
 531:../../source/src/FWlib/src/stm32f10x_i2c.c **** }
 633              		.loc 1 531 0
 634 01f6 7047     		bx	lr
 635              	.L51:
 524:../../source/src/FWlib/src/stm32f10x_i2c.c ****   }
 636              		.loc 1 524 0
 637 01f8 43F04003 		orr	r3, r3, #64
 638 01fc 0380     		strh	r3, [r0]	@ movhi
 639 01fe 7047     		bx	lr
 640              		.cfi_endproc
 641              	.LFE40:
 642              		.size	I2C_GeneralCallCmd, .-I2C_GeneralCallCmd
 643              		.align	1
 644              		.p2align 2,,3
 645              		.global	I2C_ITConfig
 646              		.syntax unified
 647              		.thumb
 648              		.thumb_func
 649              		.fpu softvfp
 650              		.type	I2C_ITConfig, %function
 651              	I2C_ITConfig:
 652              	.LFB41:
 532:../../source/src/FWlib/src/stm32f10x_i2c.c **** 
 533:../../source/src/FWlib/src/stm32f10x_i2c.c **** /**
 534:../../source/src/FWlib/src/stm32f10x_i2c.c ****   * @brief  Enables or disables the specified I2C interrupts.
 535:../../source/src/FWlib/src/stm32f10x_i2c.c ****   * @param  I2Cx: where x can be 1 or 2 to select the I2C peripheral.
 536:../../source/src/FWlib/src/stm32f10x_i2c.c ****   * @param  I2C_IT: specifies the I2C interrupts sources to be enabled or disabled. 
 537:../../source/src/FWlib/src/stm32f10x_i2c.c ****   *   This parameter can be any combination of the following values:
 538:../../source/src/FWlib/src/stm32f10x_i2c.c ****   *     @arg I2C_IT_BUF: Buffer interrupt mask
 539:../../source/src/FWlib/src/stm32f10x_i2c.c ****   *     @arg I2C_IT_EVT: Event interrupt mask
 540:../../source/src/FWlib/src/stm32f10x_i2c.c ****   *     @arg I2C_IT_ERR: Error interrupt mask
 541:../../source/src/FWlib/src/stm32f10x_i2c.c ****   * @param  NewState: new state of the specified I2C interrupts.
 542:../../source/src/FWlib/src/stm32f10x_i2c.c ****   *   This parameter can be: ENABLE or DISABLE.
 543:../../source/src/FWlib/src/stm32f10x_i2c.c ****   * @retval None
 544:../../source/src/FWlib/src/stm32f10x_i2c.c ****   */
 545:../../source/src/FWlib/src/stm32f10x_i2c.c **** void I2C_ITConfig(I2C_TypeDef* I2Cx, uint16_t I2C_IT, FunctionalState NewState)
 546:../../source/src/FWlib/src/stm32f10x_i2c.c **** {
 653              		.loc 1 546 0
 654              		.cfi_startproc
 655              		@ args = 0, pretend = 0, frame = 0
 656              		@ frame_needed = 0, uses_anonymous_args = 0
 657              		@ link register save eliminated.
 658              	.LVL48:
 547:../../source/src/FWlib/src/stm32f10x_i2c.c ****   /* Check the parameters */
 548:../../source/src/FWlib/src/stm32f10x_i2c.c ****   assert_param(IS_I2C_ALL_PERIPH(I2Cx));
 549:../../source/src/FWlib/src/stm32f10x_i2c.c ****   assert_param(IS_FUNCTIONAL_STATE(NewState));
 550:../../source/src/FWlib/src/stm32f10x_i2c.c ****   assert_param(IS_I2C_CONFIG_IT(I2C_IT));
ARM GAS  G:\Users\Jaxb\AppData\Local\Temp\cc3gF0EP.s 			page 23


 551:../../source/src/FWlib/src/stm32f10x_i2c.c ****   
 552:../../source/src/FWlib/src/stm32f10x_i2c.c ****   if (NewState != DISABLE)
 553:../../source/src/FWlib/src/stm32f10x_i2c.c ****   {
 554:../../source/src/FWlib/src/stm32f10x_i2c.c ****     /* Enable the selected I2C interrupts */
 555:../../source/src/FWlib/src/stm32f10x_i2c.c ****     I2Cx->CR2 |= I2C_IT;
 659              		.loc 1 555 0
 660 0200 8388     		ldrh	r3, [r0, #4]
 552:../../source/src/FWlib/src/stm32f10x_i2c.c ****   {
 661              		.loc 1 552 0
 662 0202 1AB9     		cbnz	r2, .L55
 556:../../source/src/FWlib/src/stm32f10x_i2c.c ****   }
 557:../../source/src/FWlib/src/stm32f10x_i2c.c ****   else
 558:../../source/src/FWlib/src/stm32f10x_i2c.c ****   {
 559:../../source/src/FWlib/src/stm32f10x_i2c.c ****     /* Disable the selected I2C interrupts */
 560:../../source/src/FWlib/src/stm32f10x_i2c.c ****     I2Cx->CR2 &= (uint16_t)~I2C_IT;
 663              		.loc 1 560 0
 664 0204 23EA0101 		bic	r1, r3, r1
 665              	.LVL49:
 666 0208 8180     		strh	r1, [r0, #4]	@ movhi
 561:../../source/src/FWlib/src/stm32f10x_i2c.c ****   }
 562:../../source/src/FWlib/src/stm32f10x_i2c.c **** }
 667              		.loc 1 562 0
 668 020a 7047     		bx	lr
 669              	.LVL50:
 670              	.L55:
 555:../../source/src/FWlib/src/stm32f10x_i2c.c ****   }
 671              		.loc 1 555 0
 672 020c 1943     		orrs	r1, r1, r3
 673              	.LVL51:
 674 020e 8180     		strh	r1, [r0, #4]	@ movhi
 675 0210 7047     		bx	lr
 676              		.cfi_endproc
 677              	.LFE41:
 678              		.size	I2C_ITConfig, .-I2C_ITConfig
 679              		.align	1
 680 0212 00BF     		.p2align 2,,3
 681              		.global	I2C_SendData
 682              		.syntax unified
 683              		.thumb
 684              		.thumb_func
 685              		.fpu softvfp
 686              		.type	I2C_SendData, %function
 687              	I2C_SendData:
 688              	.LFB42:
 563:../../source/src/FWlib/src/stm32f10x_i2c.c **** 
 564:../../source/src/FWlib/src/stm32f10x_i2c.c **** /**
 565:../../source/src/FWlib/src/stm32f10x_i2c.c ****   * @brief  Sends a data byte through the I2Cx peripheral.
 566:../../source/src/FWlib/src/stm32f10x_i2c.c ****   * @param  I2Cx: where x can be 1 or 2 to select the I2C peripheral.
 567:../../source/src/FWlib/src/stm32f10x_i2c.c ****   * @param  Data: Byte to be transmitted..
 568:../../source/src/FWlib/src/stm32f10x_i2c.c ****   * @retval None
 569:../../source/src/FWlib/src/stm32f10x_i2c.c ****   */
 570:../../source/src/FWlib/src/stm32f10x_i2c.c **** void I2C_SendData(I2C_TypeDef* I2Cx, uint8_t Data)
 571:../../source/src/FWlib/src/stm32f10x_i2c.c **** {
 689              		.loc 1 571 0
 690              		.cfi_startproc
 691              		@ args = 0, pretend = 0, frame = 0
 692              		@ frame_needed = 0, uses_anonymous_args = 0
ARM GAS  G:\Users\Jaxb\AppData\Local\Temp\cc3gF0EP.s 			page 24


 693              		@ link register save eliminated.
 694              	.LVL52:
 572:../../source/src/FWlib/src/stm32f10x_i2c.c ****   /* Check the parameters */
 573:../../source/src/FWlib/src/stm32f10x_i2c.c ****   assert_param(IS_I2C_ALL_PERIPH(I2Cx));
 574:../../source/src/FWlib/src/stm32f10x_i2c.c ****   /* Write in the DR register the data to be sent */
 575:../../source/src/FWlib/src/stm32f10x_i2c.c ****   I2Cx->DR = Data;
 695              		.loc 1 575 0
 696 0214 0182     		strh	r1, [r0, #16]	@ movhi
 576:../../source/src/FWlib/src/stm32f10x_i2c.c **** }
 697              		.loc 1 576 0
 698 0216 7047     		bx	lr
 699              		.cfi_endproc
 700              	.LFE42:
 701              		.size	I2C_SendData, .-I2C_SendData
 702              		.align	1
 703              		.p2align 2,,3
 704              		.global	I2C_ReceiveData
 705              		.syntax unified
 706              		.thumb
 707              		.thumb_func
 708              		.fpu softvfp
 709              		.type	I2C_ReceiveData, %function
 710              	I2C_ReceiveData:
 711              	.LFB43:
 577:../../source/src/FWlib/src/stm32f10x_i2c.c **** 
 578:../../source/src/FWlib/src/stm32f10x_i2c.c **** /**
 579:../../source/src/FWlib/src/stm32f10x_i2c.c ****   * @brief  Returns the most recent received data by the I2Cx peripheral.
 580:../../source/src/FWlib/src/stm32f10x_i2c.c ****   * @param  I2Cx: where x can be 1 or 2 to select the I2C peripheral.
 581:../../source/src/FWlib/src/stm32f10x_i2c.c ****   * @retval The value of the received data.
 582:../../source/src/FWlib/src/stm32f10x_i2c.c ****   */
 583:../../source/src/FWlib/src/stm32f10x_i2c.c **** uint8_t I2C_ReceiveData(I2C_TypeDef* I2Cx)
 584:../../source/src/FWlib/src/stm32f10x_i2c.c **** {
 712              		.loc 1 584 0
 713              		.cfi_startproc
 714              		@ args = 0, pretend = 0, frame = 0
 715              		@ frame_needed = 0, uses_anonymous_args = 0
 716              		@ link register save eliminated.
 717              	.LVL53:
 585:../../source/src/FWlib/src/stm32f10x_i2c.c ****   /* Check the parameters */
 586:../../source/src/FWlib/src/stm32f10x_i2c.c ****   assert_param(IS_I2C_ALL_PERIPH(I2Cx));
 587:../../source/src/FWlib/src/stm32f10x_i2c.c ****   /* Return the data in the DR register */
 588:../../source/src/FWlib/src/stm32f10x_i2c.c ****   return (uint8_t)I2Cx->DR;
 718              		.loc 1 588 0
 719 0218 008A     		ldrh	r0, [r0, #16]
 720              	.LVL54:
 589:../../source/src/FWlib/src/stm32f10x_i2c.c **** }
 721              		.loc 1 589 0
 722 021a C0B2     		uxtb	r0, r0
 723 021c 7047     		bx	lr
 724              		.cfi_endproc
 725              	.LFE43:
 726              		.size	I2C_ReceiveData, .-I2C_ReceiveData
 727              		.align	1
 728 021e 00BF     		.p2align 2,,3
 729              		.global	I2C_Send7bitAddress
 730              		.syntax unified
 731              		.thumb
ARM GAS  G:\Users\Jaxb\AppData\Local\Temp\cc3gF0EP.s 			page 25


 732              		.thumb_func
 733              		.fpu softvfp
 734              		.type	I2C_Send7bitAddress, %function
 735              	I2C_Send7bitAddress:
 736              	.LFB44:
 590:../../source/src/FWlib/src/stm32f10x_i2c.c **** 
 591:../../source/src/FWlib/src/stm32f10x_i2c.c **** /**
 592:../../source/src/FWlib/src/stm32f10x_i2c.c ****   * @brief  Transmits the address byte to select the slave device.
 593:../../source/src/FWlib/src/stm32f10x_i2c.c ****   * @param  I2Cx: where x can be 1 or 2 to select the I2C peripheral.
 594:../../source/src/FWlib/src/stm32f10x_i2c.c ****   * @param  Address: specifies the slave address which will be transmitted
 595:../../source/src/FWlib/src/stm32f10x_i2c.c ****   * @param  I2C_Direction: specifies whether the I2C device will be a
 596:../../source/src/FWlib/src/stm32f10x_i2c.c ****   *   Transmitter or a Receiver. This parameter can be one of the following values
 597:../../source/src/FWlib/src/stm32f10x_i2c.c ****   *     @arg I2C_Direction_Transmitter: Transmitter mode
 598:../../source/src/FWlib/src/stm32f10x_i2c.c ****   *     @arg I2C_Direction_Receiver: Receiver mode
 599:../../source/src/FWlib/src/stm32f10x_i2c.c ****   * @retval None.
 600:../../source/src/FWlib/src/stm32f10x_i2c.c ****   */
 601:../../source/src/FWlib/src/stm32f10x_i2c.c **** void I2C_Send7bitAddress(I2C_TypeDef* I2Cx, uint8_t Address, uint8_t I2C_Direction)
 602:../../source/src/FWlib/src/stm32f10x_i2c.c **** {
 737              		.loc 1 602 0
 738              		.cfi_startproc
 739              		@ args = 0, pretend = 0, frame = 0
 740              		@ frame_needed = 0, uses_anonymous_args = 0
 741              		@ link register save eliminated.
 742              	.LVL55:
 603:../../source/src/FWlib/src/stm32f10x_i2c.c ****   /* Check the parameters */
 604:../../source/src/FWlib/src/stm32f10x_i2c.c ****   assert_param(IS_I2C_ALL_PERIPH(I2Cx));
 605:../../source/src/FWlib/src/stm32f10x_i2c.c ****   assert_param(IS_I2C_DIRECTION(I2C_Direction));
 606:../../source/src/FWlib/src/stm32f10x_i2c.c ****   /* Test on the direction to set/reset the read/write bit */
 607:../../source/src/FWlib/src/stm32f10x_i2c.c ****   if (I2C_Direction != I2C_Direction_Transmitter)
 743              		.loc 1 607 0
 744 0220 22B9     		cbnz	r2, .L61
 608:../../source/src/FWlib/src/stm32f10x_i2c.c ****   {
 609:../../source/src/FWlib/src/stm32f10x_i2c.c ****     /* Set the address bit0 for read */
 610:../../source/src/FWlib/src/stm32f10x_i2c.c ****     Address |= OAR1_ADD0_Set;
 611:../../source/src/FWlib/src/stm32f10x_i2c.c ****   }
 612:../../source/src/FWlib/src/stm32f10x_i2c.c ****   else
 613:../../source/src/FWlib/src/stm32f10x_i2c.c ****   {
 614:../../source/src/FWlib/src/stm32f10x_i2c.c ****     /* Reset the address bit0 for write */
 615:../../source/src/FWlib/src/stm32f10x_i2c.c ****     Address &= OAR1_ADD0_Reset;
 745              		.loc 1 615 0
 746 0222 01F0FE01 		and	r1, r1, #254
 747              	.LVL56:
 616:../../source/src/FWlib/src/stm32f10x_i2c.c ****   }
 617:../../source/src/FWlib/src/stm32f10x_i2c.c ****   /* Send the address */
 618:../../source/src/FWlib/src/stm32f10x_i2c.c ****   I2Cx->DR = Address;
 748              		.loc 1 618 0
 749 0226 89B2     		uxth	r1, r1
 750              	.LVL57:
 751 0228 0182     		strh	r1, [r0, #16]	@ movhi
 619:../../source/src/FWlib/src/stm32f10x_i2c.c **** }
 752              		.loc 1 619 0
 753 022a 7047     		bx	lr
 754              	.LVL58:
 755              	.L61:
 610:../../source/src/FWlib/src/stm32f10x_i2c.c ****   }
 756              		.loc 1 610 0
 757 022c 41F00101 		orr	r1, r1, #1
ARM GAS  G:\Users\Jaxb\AppData\Local\Temp\cc3gF0EP.s 			page 26


 758              	.LVL59:
 618:../../source/src/FWlib/src/stm32f10x_i2c.c **** }
 759              		.loc 1 618 0
 760 0230 89B2     		uxth	r1, r1
 761              	.LVL60:
 762 0232 0182     		strh	r1, [r0, #16]	@ movhi
 763              		.loc 1 619 0
 764 0234 7047     		bx	lr
 765              		.cfi_endproc
 766              	.LFE44:
 767              		.size	I2C_Send7bitAddress, .-I2C_Send7bitAddress
 768              		.align	1
 769 0236 00BF     		.p2align 2,,3
 770              		.global	I2C_ReadRegister
 771              		.syntax unified
 772              		.thumb
 773              		.thumb_func
 774              		.fpu softvfp
 775              		.type	I2C_ReadRegister, %function
 776              	I2C_ReadRegister:
 777              	.LFB45:
 620:../../source/src/FWlib/src/stm32f10x_i2c.c **** 
 621:../../source/src/FWlib/src/stm32f10x_i2c.c **** /**
 622:../../source/src/FWlib/src/stm32f10x_i2c.c ****   * @brief  Reads the specified I2C register and returns its value.
 623:../../source/src/FWlib/src/stm32f10x_i2c.c ****   * @param  I2C_Register: specifies the register to read.
 624:../../source/src/FWlib/src/stm32f10x_i2c.c ****   *   This parameter can be one of the following values:
 625:../../source/src/FWlib/src/stm32f10x_i2c.c ****   *     @arg I2C_Register_CR1:  CR1 register.
 626:../../source/src/FWlib/src/stm32f10x_i2c.c ****   *     @arg I2C_Register_CR2:   CR2 register.
 627:../../source/src/FWlib/src/stm32f10x_i2c.c ****   *     @arg I2C_Register_OAR1:  OAR1 register.
 628:../../source/src/FWlib/src/stm32f10x_i2c.c ****   *     @arg I2C_Register_OAR2:  OAR2 register.
 629:../../source/src/FWlib/src/stm32f10x_i2c.c ****   *     @arg I2C_Register_DR:    DR register.
 630:../../source/src/FWlib/src/stm32f10x_i2c.c ****   *     @arg I2C_Register_SR1:   SR1 register.
 631:../../source/src/FWlib/src/stm32f10x_i2c.c ****   *     @arg I2C_Register_SR2:   SR2 register.
 632:../../source/src/FWlib/src/stm32f10x_i2c.c ****   *     @arg I2C_Register_CCR:   CCR register.
 633:../../source/src/FWlib/src/stm32f10x_i2c.c ****   *     @arg I2C_Register_TRISE: TRISE register.
 634:../../source/src/FWlib/src/stm32f10x_i2c.c ****   * @retval The value of the read register.
 635:../../source/src/FWlib/src/stm32f10x_i2c.c ****   */
 636:../../source/src/FWlib/src/stm32f10x_i2c.c **** uint16_t I2C_ReadRegister(I2C_TypeDef* I2Cx, uint8_t I2C_Register)
 637:../../source/src/FWlib/src/stm32f10x_i2c.c **** {
 778              		.loc 1 637 0
 779              		.cfi_startproc
 780              		@ args = 0, pretend = 0, frame = 8
 781              		@ frame_needed = 0, uses_anonymous_args = 0
 782              		@ link register save eliminated.
 783              	.LVL61:
 638:../../source/src/FWlib/src/stm32f10x_i2c.c ****   __IO uint32_t tmp = 0;
 784              		.loc 1 638 0
 785 0238 0023     		movs	r3, #0
 637:../../source/src/FWlib/src/stm32f10x_i2c.c ****   __IO uint32_t tmp = 0;
 786              		.loc 1 637 0
 787 023a 82B0     		sub	sp, sp, #8
 788              	.LCFI10:
 789              		.cfi_def_cfa_offset 8
 790              		.loc 1 638 0
 791 023c 0193     		str	r3, [sp, #4]
 639:../../source/src/FWlib/src/stm32f10x_i2c.c **** 
 640:../../source/src/FWlib/src/stm32f10x_i2c.c ****   /* Check the parameters */
ARM GAS  G:\Users\Jaxb\AppData\Local\Temp\cc3gF0EP.s 			page 27


 641:../../source/src/FWlib/src/stm32f10x_i2c.c ****   assert_param(IS_I2C_ALL_PERIPH(I2Cx));
 642:../../source/src/FWlib/src/stm32f10x_i2c.c ****   assert_param(IS_I2C_REGISTER(I2C_Register));
 643:../../source/src/FWlib/src/stm32f10x_i2c.c **** 
 644:../../source/src/FWlib/src/stm32f10x_i2c.c ****   tmp = (uint32_t) I2Cx;
 792              		.loc 1 644 0
 793 023e 0190     		str	r0, [sp, #4]
 645:../../source/src/FWlib/src/stm32f10x_i2c.c ****   tmp += I2C_Register;
 794              		.loc 1 645 0
 795 0240 019B     		ldr	r3, [sp, #4]
 796 0242 1944     		add	r1, r1, r3
 797              	.LVL62:
 798 0244 0191     		str	r1, [sp, #4]
 646:../../source/src/FWlib/src/stm32f10x_i2c.c **** 
 647:../../source/src/FWlib/src/stm32f10x_i2c.c ****   /* Return the selected register value */
 648:../../source/src/FWlib/src/stm32f10x_i2c.c ****   return (*(__IO uint16_t *) tmp);
 799              		.loc 1 648 0
 800 0246 019B     		ldr	r3, [sp, #4]
 801 0248 1888     		ldrh	r0, [r3]
 802              	.LVL63:
 649:../../source/src/FWlib/src/stm32f10x_i2c.c **** }
 803              		.loc 1 649 0
 804 024a 02B0     		add	sp, sp, #8
 805              	.LCFI11:
 806              		.cfi_def_cfa_offset 0
 807              		@ sp needed
 808 024c 7047     		bx	lr
 809              		.cfi_endproc
 810              	.LFE45:
 811              		.size	I2C_ReadRegister, .-I2C_ReadRegister
 812              		.align	1
 813 024e 00BF     		.p2align 2,,3
 814              		.global	I2C_SoftwareResetCmd
 815              		.syntax unified
 816              		.thumb
 817              		.thumb_func
 818              		.fpu softvfp
 819              		.type	I2C_SoftwareResetCmd, %function
 820              	I2C_SoftwareResetCmd:
 821              	.LFB46:
 650:../../source/src/FWlib/src/stm32f10x_i2c.c **** 
 651:../../source/src/FWlib/src/stm32f10x_i2c.c **** /**
 652:../../source/src/FWlib/src/stm32f10x_i2c.c ****   * @brief  Enables or disables the specified I2C software reset.
 653:../../source/src/FWlib/src/stm32f10x_i2c.c ****   * @param  I2Cx: where x can be 1 or 2 to select the I2C peripheral.
 654:../../source/src/FWlib/src/stm32f10x_i2c.c ****   * @param  NewState: new state of the I2C software reset.
 655:../../source/src/FWlib/src/stm32f10x_i2c.c ****   *   This parameter can be: ENABLE or DISABLE.
 656:../../source/src/FWlib/src/stm32f10x_i2c.c ****   * @retval None
 657:../../source/src/FWlib/src/stm32f10x_i2c.c ****   */
 658:../../source/src/FWlib/src/stm32f10x_i2c.c **** void I2C_SoftwareResetCmd(I2C_TypeDef* I2Cx, FunctionalState NewState)
 659:../../source/src/FWlib/src/stm32f10x_i2c.c **** {
 822              		.loc 1 659 0
 823              		.cfi_startproc
 824              		@ args = 0, pretend = 0, frame = 0
 825              		@ frame_needed = 0, uses_anonymous_args = 0
 826              		@ link register save eliminated.
 827              	.LVL64:
 660:../../source/src/FWlib/src/stm32f10x_i2c.c ****   /* Check the parameters */
 661:../../source/src/FWlib/src/stm32f10x_i2c.c ****   assert_param(IS_I2C_ALL_PERIPH(I2Cx));
ARM GAS  G:\Users\Jaxb\AppData\Local\Temp\cc3gF0EP.s 			page 28


 662:../../source/src/FWlib/src/stm32f10x_i2c.c ****   assert_param(IS_FUNCTIONAL_STATE(NewState));
 663:../../source/src/FWlib/src/stm32f10x_i2c.c ****   if (NewState != DISABLE)
 664:../../source/src/FWlib/src/stm32f10x_i2c.c ****   {
 665:../../source/src/FWlib/src/stm32f10x_i2c.c ****     /* Peripheral under reset */
 666:../../source/src/FWlib/src/stm32f10x_i2c.c ****     I2Cx->CR1 |= CR1_SWRST_Set;
 828              		.loc 1 666 0
 829 0250 0388     		ldrh	r3, [r0]
 663:../../source/src/FWlib/src/stm32f10x_i2c.c ****   {
 830              		.loc 1 663 0
 831 0252 19B9     		cbnz	r1, .L66
 667:../../source/src/FWlib/src/stm32f10x_i2c.c ****   }
 668:../../source/src/FWlib/src/stm32f10x_i2c.c ****   else
 669:../../source/src/FWlib/src/stm32f10x_i2c.c ****   {
 670:../../source/src/FWlib/src/stm32f10x_i2c.c ****     /* Peripheral not under reset */
 671:../../source/src/FWlib/src/stm32f10x_i2c.c ****     I2Cx->CR1 &= CR1_SWRST_Reset;
 832              		.loc 1 671 0
 833 0254 C3F30E03 		ubfx	r3, r3, #0, #15
 834 0258 0380     		strh	r3, [r0]	@ movhi
 672:../../source/src/FWlib/src/stm32f10x_i2c.c ****   }
 673:../../source/src/FWlib/src/stm32f10x_i2c.c **** }
 835              		.loc 1 673 0
 836 025a 7047     		bx	lr
 837              	.L66:
 666:../../source/src/FWlib/src/stm32f10x_i2c.c ****   }
 838              		.loc 1 666 0
 839 025c 43F40043 		orr	r3, r3, #32768
 840 0260 0380     		strh	r3, [r0]	@ movhi
 841 0262 7047     		bx	lr
 842              		.cfi_endproc
 843              	.LFE46:
 844              		.size	I2C_SoftwareResetCmd, .-I2C_SoftwareResetCmd
 845              		.align	1
 846              		.p2align 2,,3
 847              		.global	I2C_NACKPositionConfig
 848              		.syntax unified
 849              		.thumb
 850              		.thumb_func
 851              		.fpu softvfp
 852              		.type	I2C_NACKPositionConfig, %function
 853              	I2C_NACKPositionConfig:
 854              	.LFB47:
 674:../../source/src/FWlib/src/stm32f10x_i2c.c **** 
 675:../../source/src/FWlib/src/stm32f10x_i2c.c **** /**
 676:../../source/src/FWlib/src/stm32f10x_i2c.c ****   * @brief  Selects the specified I2C NACK position in master receiver mode.
 677:../../source/src/FWlib/src/stm32f10x_i2c.c ****   *         This function is useful in I2C Master Receiver mode when the number
 678:../../source/src/FWlib/src/stm32f10x_i2c.c ****   *         of data to be received is equal to 2. In this case, this function 
 679:../../source/src/FWlib/src/stm32f10x_i2c.c ****   *         should be called (with parameter I2C_NACKPosition_Next) before data 
 680:../../source/src/FWlib/src/stm32f10x_i2c.c ****   *         reception starts,as described in the 2-byte reception procedure 
 681:../../source/src/FWlib/src/stm32f10x_i2c.c ****   *         recommended in Reference Manual in Section: Master receiver.                
 682:../../source/src/FWlib/src/stm32f10x_i2c.c ****   * @param  I2Cx: where x can be 1 or 2 to select the I2C peripheral.
 683:../../source/src/FWlib/src/stm32f10x_i2c.c ****   * @param  I2C_NACKPosition: specifies the NACK position. 
 684:../../source/src/FWlib/src/stm32f10x_i2c.c ****   *   This parameter can be one of the following values:
 685:../../source/src/FWlib/src/stm32f10x_i2c.c ****   *     @arg I2C_NACKPosition_Next: indicates that the next byte will be the last
 686:../../source/src/FWlib/src/stm32f10x_i2c.c ****   *          received byte.  
 687:../../source/src/FWlib/src/stm32f10x_i2c.c ****   *     @arg I2C_NACKPosition_Current: indicates that current byte is the last 
 688:../../source/src/FWlib/src/stm32f10x_i2c.c ****   *          received byte.
 689:../../source/src/FWlib/src/stm32f10x_i2c.c ****   *            
ARM GAS  G:\Users\Jaxb\AppData\Local\Temp\cc3gF0EP.s 			page 29


 690:../../source/src/FWlib/src/stm32f10x_i2c.c ****   * @note    This function configures the same bit (POS) as I2C_PECPositionConfig() 
 691:../../source/src/FWlib/src/stm32f10x_i2c.c ****   *          but is intended to be used in I2C mode while I2C_PECPositionConfig() 
 692:../../source/src/FWlib/src/stm32f10x_i2c.c ****   *          is intended to used in SMBUS mode. 
 693:../../source/src/FWlib/src/stm32f10x_i2c.c ****   *            
 694:../../source/src/FWlib/src/stm32f10x_i2c.c ****   * @retval None
 695:../../source/src/FWlib/src/stm32f10x_i2c.c ****   */
 696:../../source/src/FWlib/src/stm32f10x_i2c.c **** void I2C_NACKPositionConfig(I2C_TypeDef* I2Cx, uint16_t I2C_NACKPosition)
 697:../../source/src/FWlib/src/stm32f10x_i2c.c **** {
 855              		.loc 1 697 0
 856              		.cfi_startproc
 857              		@ args = 0, pretend = 0, frame = 0
 858              		@ frame_needed = 0, uses_anonymous_args = 0
 859              		@ link register save eliminated.
 860              	.LVL65:
 698:../../source/src/FWlib/src/stm32f10x_i2c.c ****   /* Check the parameters */
 699:../../source/src/FWlib/src/stm32f10x_i2c.c ****   assert_param(IS_I2C_ALL_PERIPH(I2Cx));
 700:../../source/src/FWlib/src/stm32f10x_i2c.c ****   assert_param(IS_I2C_NACK_POSITION(I2C_NACKPosition));
 701:../../source/src/FWlib/src/stm32f10x_i2c.c ****   
 702:../../source/src/FWlib/src/stm32f10x_i2c.c ****   /* Check the input parameter */
 703:../../source/src/FWlib/src/stm32f10x_i2c.c ****   if (I2C_NACKPosition == I2C_NACKPosition_Next)
 704:../../source/src/FWlib/src/stm32f10x_i2c.c ****   {
 705:../../source/src/FWlib/src/stm32f10x_i2c.c ****     /* Next byte in shift register is the last received byte */
 706:../../source/src/FWlib/src/stm32f10x_i2c.c ****     I2Cx->CR1 |= I2C_NACKPosition_Next;
 861              		.loc 1 706 0
 862 0264 0388     		ldrh	r3, [r0]
 703:../../source/src/FWlib/src/stm32f10x_i2c.c ****   {
 863              		.loc 1 703 0
 864 0266 B1F5006F 		cmp	r1, #2048
 707:../../source/src/FWlib/src/stm32f10x_i2c.c ****   }
 708:../../source/src/FWlib/src/stm32f10x_i2c.c ****   else
 709:../../source/src/FWlib/src/stm32f10x_i2c.c ****   {
 710:../../source/src/FWlib/src/stm32f10x_i2c.c ****     /* Current byte in shift register is the last received byte */
 711:../../source/src/FWlib/src/stm32f10x_i2c.c ****     I2Cx->CR1 &= I2C_NACKPosition_Current;
 865              		.loc 1 711 0
 866 026a 1BBF     		ittet	ne
 867 026c 23F40063 		bicne	r3, r3, #2048
 868 0270 1B04     		lslne	r3, r3, #16
 706:../../source/src/FWlib/src/stm32f10x_i2c.c ****   }
 869              		.loc 1 706 0
 870 0272 43F40063 		orreq	r3, r3, #2048
 871              		.loc 1 711 0
 872 0276 1B0C     		lsrne	r3, r3, #16
 873 0278 0380     		strh	r3, [r0]	@ movhi
 712:../../source/src/FWlib/src/stm32f10x_i2c.c ****   }
 713:../../source/src/FWlib/src/stm32f10x_i2c.c **** }
 874              		.loc 1 713 0
 875 027a 7047     		bx	lr
 876              		.cfi_endproc
 877              	.LFE47:
 878              		.size	I2C_NACKPositionConfig, .-I2C_NACKPositionConfig
 879              		.align	1
 880              		.p2align 2,,3
 881              		.global	I2C_SMBusAlertConfig
 882              		.syntax unified
 883              		.thumb
 884              		.thumb_func
 885              		.fpu softvfp
ARM GAS  G:\Users\Jaxb\AppData\Local\Temp\cc3gF0EP.s 			page 30


 886              		.type	I2C_SMBusAlertConfig, %function
 887              	I2C_SMBusAlertConfig:
 888              	.LFB48:
 714:../../source/src/FWlib/src/stm32f10x_i2c.c **** 
 715:../../source/src/FWlib/src/stm32f10x_i2c.c **** /**
 716:../../source/src/FWlib/src/stm32f10x_i2c.c ****   * @brief  Drives the SMBusAlert pin high or low for the specified I2C.
 717:../../source/src/FWlib/src/stm32f10x_i2c.c ****   * @param  I2Cx: where x can be 1 or 2 to select the I2C peripheral.
 718:../../source/src/FWlib/src/stm32f10x_i2c.c ****   * @param  I2C_SMBusAlert: specifies SMBAlert pin level. 
 719:../../source/src/FWlib/src/stm32f10x_i2c.c ****   *   This parameter can be one of the following values:
 720:../../source/src/FWlib/src/stm32f10x_i2c.c ****   *     @arg I2C_SMBusAlert_Low: SMBAlert pin driven low
 721:../../source/src/FWlib/src/stm32f10x_i2c.c ****   *     @arg I2C_SMBusAlert_High: SMBAlert pin driven high
 722:../../source/src/FWlib/src/stm32f10x_i2c.c ****   * @retval None
 723:../../source/src/FWlib/src/stm32f10x_i2c.c ****   */
 724:../../source/src/FWlib/src/stm32f10x_i2c.c **** void I2C_SMBusAlertConfig(I2C_TypeDef* I2Cx, uint16_t I2C_SMBusAlert)
 725:../../source/src/FWlib/src/stm32f10x_i2c.c **** {
 889              		.loc 1 725 0
 890              		.cfi_startproc
 891              		@ args = 0, pretend = 0, frame = 0
 892              		@ frame_needed = 0, uses_anonymous_args = 0
 893              		@ link register save eliminated.
 894              	.LVL66:
 726:../../source/src/FWlib/src/stm32f10x_i2c.c ****   /* Check the parameters */
 727:../../source/src/FWlib/src/stm32f10x_i2c.c ****   assert_param(IS_I2C_ALL_PERIPH(I2Cx));
 728:../../source/src/FWlib/src/stm32f10x_i2c.c ****   assert_param(IS_I2C_SMBUS_ALERT(I2C_SMBusAlert));
 729:../../source/src/FWlib/src/stm32f10x_i2c.c ****   if (I2C_SMBusAlert == I2C_SMBusAlert_Low)
 730:../../source/src/FWlib/src/stm32f10x_i2c.c ****   {
 731:../../source/src/FWlib/src/stm32f10x_i2c.c ****     /* Drive the SMBusAlert pin Low */
 732:../../source/src/FWlib/src/stm32f10x_i2c.c ****     I2Cx->CR1 |= I2C_SMBusAlert_Low;
 895              		.loc 1 732 0
 896 027c 0388     		ldrh	r3, [r0]
 729:../../source/src/FWlib/src/stm32f10x_i2c.c ****   {
 897              		.loc 1 729 0
 898 027e B1F5005F 		cmp	r1, #8192
 733:../../source/src/FWlib/src/stm32f10x_i2c.c ****   }
 734:../../source/src/FWlib/src/stm32f10x_i2c.c ****   else
 735:../../source/src/FWlib/src/stm32f10x_i2c.c ****   {
 736:../../source/src/FWlib/src/stm32f10x_i2c.c ****     /* Drive the SMBusAlert pin High  */
 737:../../source/src/FWlib/src/stm32f10x_i2c.c ****     I2Cx->CR1 &= I2C_SMBusAlert_High;
 899              		.loc 1 737 0
 900 0282 1BBF     		ittet	ne
 901 0284 23F40053 		bicne	r3, r3, #8192
 902 0288 1B04     		lslne	r3, r3, #16
 732:../../source/src/FWlib/src/stm32f10x_i2c.c ****   }
 903              		.loc 1 732 0
 904 028a 43F40053 		orreq	r3, r3, #8192
 905              		.loc 1 737 0
 906 028e 1B0C     		lsrne	r3, r3, #16
 907 0290 0380     		strh	r3, [r0]	@ movhi
 738:../../source/src/FWlib/src/stm32f10x_i2c.c ****   }
 739:../../source/src/FWlib/src/stm32f10x_i2c.c **** }
 908              		.loc 1 739 0
 909 0292 7047     		bx	lr
 910              		.cfi_endproc
 911              	.LFE48:
 912              		.size	I2C_SMBusAlertConfig, .-I2C_SMBusAlertConfig
 913              		.align	1
 914              		.p2align 2,,3
ARM GAS  G:\Users\Jaxb\AppData\Local\Temp\cc3gF0EP.s 			page 31


 915              		.global	I2C_TransmitPEC
 916              		.syntax unified
 917              		.thumb
 918              		.thumb_func
 919              		.fpu softvfp
 920              		.type	I2C_TransmitPEC, %function
 921              	I2C_TransmitPEC:
 922              	.LFB49:
 740:../../source/src/FWlib/src/stm32f10x_i2c.c **** 
 741:../../source/src/FWlib/src/stm32f10x_i2c.c **** /**
 742:../../source/src/FWlib/src/stm32f10x_i2c.c ****   * @brief  Enables or disables the specified I2C PEC transfer.
 743:../../source/src/FWlib/src/stm32f10x_i2c.c ****   * @param  I2Cx: where x can be 1 or 2 to select the I2C peripheral.
 744:../../source/src/FWlib/src/stm32f10x_i2c.c ****   * @param  NewState: new state of the I2C PEC transmission.
 745:../../source/src/FWlib/src/stm32f10x_i2c.c ****   *   This parameter can be: ENABLE or DISABLE.
 746:../../source/src/FWlib/src/stm32f10x_i2c.c ****   * @retval None
 747:../../source/src/FWlib/src/stm32f10x_i2c.c ****   */
 748:../../source/src/FWlib/src/stm32f10x_i2c.c **** void I2C_TransmitPEC(I2C_TypeDef* I2Cx, FunctionalState NewState)
 749:../../source/src/FWlib/src/stm32f10x_i2c.c **** {
 923              		.loc 1 749 0
 924              		.cfi_startproc
 925              		@ args = 0, pretend = 0, frame = 0
 926              		@ frame_needed = 0, uses_anonymous_args = 0
 927              		@ link register save eliminated.
 928              	.LVL67:
 750:../../source/src/FWlib/src/stm32f10x_i2c.c ****   /* Check the parameters */
 751:../../source/src/FWlib/src/stm32f10x_i2c.c ****   assert_param(IS_I2C_ALL_PERIPH(I2Cx));
 752:../../source/src/FWlib/src/stm32f10x_i2c.c ****   assert_param(IS_FUNCTIONAL_STATE(NewState));
 753:../../source/src/FWlib/src/stm32f10x_i2c.c ****   if (NewState != DISABLE)
 754:../../source/src/FWlib/src/stm32f10x_i2c.c ****   {
 755:../../source/src/FWlib/src/stm32f10x_i2c.c ****     /* Enable the selected I2C PEC transmission */
 756:../../source/src/FWlib/src/stm32f10x_i2c.c ****     I2Cx->CR1 |= CR1_PEC_Set;
 929              		.loc 1 756 0
 930 0294 0388     		ldrh	r3, [r0]
 753:../../source/src/FWlib/src/stm32f10x_i2c.c ****   {
 931              		.loc 1 753 0
 932 0296 29B9     		cbnz	r1, .L76
 757:../../source/src/FWlib/src/stm32f10x_i2c.c ****   }
 758:../../source/src/FWlib/src/stm32f10x_i2c.c ****   else
 759:../../source/src/FWlib/src/stm32f10x_i2c.c ****   {
 760:../../source/src/FWlib/src/stm32f10x_i2c.c ****     /* Disable the selected I2C PEC transmission */
 761:../../source/src/FWlib/src/stm32f10x_i2c.c ****     I2Cx->CR1 &= CR1_PEC_Reset;
 933              		.loc 1 761 0
 934 0298 23F48053 		bic	r3, r3, #4096
 935 029c 1B04     		lsls	r3, r3, #16
 936 029e 1B0C     		lsrs	r3, r3, #16
 937 02a0 0380     		strh	r3, [r0]	@ movhi
 762:../../source/src/FWlib/src/stm32f10x_i2c.c ****   }
 763:../../source/src/FWlib/src/stm32f10x_i2c.c **** }
 938              		.loc 1 763 0
 939 02a2 7047     		bx	lr
 940              	.L76:
 756:../../source/src/FWlib/src/stm32f10x_i2c.c ****   }
 941              		.loc 1 756 0
 942 02a4 43F48053 		orr	r3, r3, #4096
 943 02a8 0380     		strh	r3, [r0]	@ movhi
 944 02aa 7047     		bx	lr
 945              		.cfi_endproc
ARM GAS  G:\Users\Jaxb\AppData\Local\Temp\cc3gF0EP.s 			page 32


 946              	.LFE49:
 947              		.size	I2C_TransmitPEC, .-I2C_TransmitPEC
 948              		.align	1
 949              		.p2align 2,,3
 950              		.global	I2C_PECPositionConfig
 951              		.syntax unified
 952              		.thumb
 953              		.thumb_func
 954              		.fpu softvfp
 955              		.type	I2C_PECPositionConfig, %function
 956              	I2C_PECPositionConfig:
 957              	.LFB63:
 958              		.cfi_startproc
 959              		@ args = 0, pretend = 0, frame = 0
 960              		@ frame_needed = 0, uses_anonymous_args = 0
 961              		@ link register save eliminated.
 962 02ac FFF7FEBF 		b	I2C_NACKPositionConfig
 963              		.cfi_endproc
 964              	.LFE63:
 965              		.size	I2C_PECPositionConfig, .-I2C_PECPositionConfig
 966              		.align	1
 967              		.p2align 2,,3
 968              		.global	I2C_CalculatePEC
 969              		.syntax unified
 970              		.thumb
 971              		.thumb_func
 972              		.fpu softvfp
 973              		.type	I2C_CalculatePEC, %function
 974              	I2C_CalculatePEC:
 975              	.LFB51:
 764:../../source/src/FWlib/src/stm32f10x_i2c.c **** 
 765:../../source/src/FWlib/src/stm32f10x_i2c.c **** /**
 766:../../source/src/FWlib/src/stm32f10x_i2c.c ****   * @brief  Selects the specified I2C PEC position.
 767:../../source/src/FWlib/src/stm32f10x_i2c.c ****   * @param  I2Cx: where x can be 1 or 2 to select the I2C peripheral.
 768:../../source/src/FWlib/src/stm32f10x_i2c.c ****   * @param  I2C_PECPosition: specifies the PEC position. 
 769:../../source/src/FWlib/src/stm32f10x_i2c.c ****   *   This parameter can be one of the following values:
 770:../../source/src/FWlib/src/stm32f10x_i2c.c ****   *     @arg I2C_PECPosition_Next: indicates that the next byte is PEC
 771:../../source/src/FWlib/src/stm32f10x_i2c.c ****   *     @arg I2C_PECPosition_Current: indicates that current byte is PEC
 772:../../source/src/FWlib/src/stm32f10x_i2c.c ****   *       
 773:../../source/src/FWlib/src/stm32f10x_i2c.c ****   * @note    This function configures the same bit (POS) as I2C_NACKPositionConfig()
 774:../../source/src/FWlib/src/stm32f10x_i2c.c ****   *          but is intended to be used in SMBUS mode while I2C_NACKPositionConfig() 
 775:../../source/src/FWlib/src/stm32f10x_i2c.c ****   *          is intended to used in I2C mode.
 776:../../source/src/FWlib/src/stm32f10x_i2c.c ****   *               
 777:../../source/src/FWlib/src/stm32f10x_i2c.c ****   * @retval None
 778:../../source/src/FWlib/src/stm32f10x_i2c.c ****   */
 779:../../source/src/FWlib/src/stm32f10x_i2c.c **** void I2C_PECPositionConfig(I2C_TypeDef* I2Cx, uint16_t I2C_PECPosition)
 780:../../source/src/FWlib/src/stm32f10x_i2c.c **** {
 781:../../source/src/FWlib/src/stm32f10x_i2c.c ****   /* Check the parameters */
 782:../../source/src/FWlib/src/stm32f10x_i2c.c ****   assert_param(IS_I2C_ALL_PERIPH(I2Cx));
 783:../../source/src/FWlib/src/stm32f10x_i2c.c ****   assert_param(IS_I2C_PEC_POSITION(I2C_PECPosition));
 784:../../source/src/FWlib/src/stm32f10x_i2c.c ****   if (I2C_PECPosition == I2C_PECPosition_Next)
 785:../../source/src/FWlib/src/stm32f10x_i2c.c ****   {
 786:../../source/src/FWlib/src/stm32f10x_i2c.c ****     /* Next byte in shift register is PEC */
 787:../../source/src/FWlib/src/stm32f10x_i2c.c ****     I2Cx->CR1 |= I2C_PECPosition_Next;
 788:../../source/src/FWlib/src/stm32f10x_i2c.c ****   }
 789:../../source/src/FWlib/src/stm32f10x_i2c.c ****   else
 790:../../source/src/FWlib/src/stm32f10x_i2c.c ****   {
ARM GAS  G:\Users\Jaxb\AppData\Local\Temp\cc3gF0EP.s 			page 33


 791:../../source/src/FWlib/src/stm32f10x_i2c.c ****     /* Current byte in shift register is PEC */
 792:../../source/src/FWlib/src/stm32f10x_i2c.c ****     I2Cx->CR1 &= I2C_PECPosition_Current;
 793:../../source/src/FWlib/src/stm32f10x_i2c.c ****   }
 794:../../source/src/FWlib/src/stm32f10x_i2c.c **** }
 795:../../source/src/FWlib/src/stm32f10x_i2c.c **** 
 796:../../source/src/FWlib/src/stm32f10x_i2c.c **** /**
 797:../../source/src/FWlib/src/stm32f10x_i2c.c ****   * @brief  Enables or disables the PEC value calculation of the transferred bytes.
 798:../../source/src/FWlib/src/stm32f10x_i2c.c ****   * @param  I2Cx: where x can be 1 or 2 to select the I2C peripheral.
 799:../../source/src/FWlib/src/stm32f10x_i2c.c ****   * @param  NewState: new state of the I2Cx PEC value calculation.
 800:../../source/src/FWlib/src/stm32f10x_i2c.c ****   *   This parameter can be: ENABLE or DISABLE.
 801:../../source/src/FWlib/src/stm32f10x_i2c.c ****   * @retval None
 802:../../source/src/FWlib/src/stm32f10x_i2c.c ****   */
 803:../../source/src/FWlib/src/stm32f10x_i2c.c **** void I2C_CalculatePEC(I2C_TypeDef* I2Cx, FunctionalState NewState)
 804:../../source/src/FWlib/src/stm32f10x_i2c.c **** {
 976              		.loc 1 804 0
 977              		.cfi_startproc
 978              		@ args = 0, pretend = 0, frame = 0
 979              		@ frame_needed = 0, uses_anonymous_args = 0
 980              		@ link register save eliminated.
 981              	.LVL68:
 805:../../source/src/FWlib/src/stm32f10x_i2c.c ****   /* Check the parameters */
 806:../../source/src/FWlib/src/stm32f10x_i2c.c ****   assert_param(IS_I2C_ALL_PERIPH(I2Cx));
 807:../../source/src/FWlib/src/stm32f10x_i2c.c ****   assert_param(IS_FUNCTIONAL_STATE(NewState));
 808:../../source/src/FWlib/src/stm32f10x_i2c.c ****   if (NewState != DISABLE)
 809:../../source/src/FWlib/src/stm32f10x_i2c.c ****   {
 810:../../source/src/FWlib/src/stm32f10x_i2c.c ****     /* Enable the selected I2C PEC calculation */
 811:../../source/src/FWlib/src/stm32f10x_i2c.c ****     I2Cx->CR1 |= CR1_ENPEC_Set;
 982              		.loc 1 811 0
 983 02b0 0388     		ldrh	r3, [r0]
 808:../../source/src/FWlib/src/stm32f10x_i2c.c ****   {
 984              		.loc 1 808 0
 985 02b2 29B9     		cbnz	r1, .L81
 812:../../source/src/FWlib/src/stm32f10x_i2c.c ****   }
 813:../../source/src/FWlib/src/stm32f10x_i2c.c ****   else
 814:../../source/src/FWlib/src/stm32f10x_i2c.c ****   {
 815:../../source/src/FWlib/src/stm32f10x_i2c.c ****     /* Disable the selected I2C PEC calculation */
 816:../../source/src/FWlib/src/stm32f10x_i2c.c ****     I2Cx->CR1 &= CR1_ENPEC_Reset;
 986              		.loc 1 816 0
 987 02b4 23F02003 		bic	r3, r3, #32
 988 02b8 1B04     		lsls	r3, r3, #16
 989 02ba 1B0C     		lsrs	r3, r3, #16
 990 02bc 0380     		strh	r3, [r0]	@ movhi
 817:../../source/src/FWlib/src/stm32f10x_i2c.c ****   }
 818:../../source/src/FWlib/src/stm32f10x_i2c.c **** }
 991              		.loc 1 818 0
 992 02be 7047     		bx	lr
 993              	.L81:
 811:../../source/src/FWlib/src/stm32f10x_i2c.c ****   }
 994              		.loc 1 811 0
 995 02c0 43F02003 		orr	r3, r3, #32
 996 02c4 0380     		strh	r3, [r0]	@ movhi
 997 02c6 7047     		bx	lr
 998              		.cfi_endproc
 999              	.LFE51:
 1000              		.size	I2C_CalculatePEC, .-I2C_CalculatePEC
 1001              		.align	1
 1002              		.p2align 2,,3
ARM GAS  G:\Users\Jaxb\AppData\Local\Temp\cc3gF0EP.s 			page 34


 1003              		.global	I2C_GetPEC
 1004              		.syntax unified
 1005              		.thumb
 1006              		.thumb_func
 1007              		.fpu softvfp
 1008              		.type	I2C_GetPEC, %function
 1009              	I2C_GetPEC:
 1010              	.LFB52:
 819:../../source/src/FWlib/src/stm32f10x_i2c.c **** 
 820:../../source/src/FWlib/src/stm32f10x_i2c.c **** /**
 821:../../source/src/FWlib/src/stm32f10x_i2c.c ****   * @brief  Returns the PEC value for the specified I2C.
 822:../../source/src/FWlib/src/stm32f10x_i2c.c ****   * @param  I2Cx: where x can be 1 or 2 to select the I2C peripheral.
 823:../../source/src/FWlib/src/stm32f10x_i2c.c ****   * @retval The PEC value.
 824:../../source/src/FWlib/src/stm32f10x_i2c.c ****   */
 825:../../source/src/FWlib/src/stm32f10x_i2c.c **** uint8_t I2C_GetPEC(I2C_TypeDef* I2Cx)
 826:../../source/src/FWlib/src/stm32f10x_i2c.c **** {
 1011              		.loc 1 826 0
 1012              		.cfi_startproc
 1013              		@ args = 0, pretend = 0, frame = 0
 1014              		@ frame_needed = 0, uses_anonymous_args = 0
 1015              		@ link register save eliminated.
 1016              	.LVL69:
 827:../../source/src/FWlib/src/stm32f10x_i2c.c ****   /* Check the parameters */
 828:../../source/src/FWlib/src/stm32f10x_i2c.c ****   assert_param(IS_I2C_ALL_PERIPH(I2Cx));
 829:../../source/src/FWlib/src/stm32f10x_i2c.c ****   /* Return the selected I2C PEC value */
 830:../../source/src/FWlib/src/stm32f10x_i2c.c ****   return ((I2Cx->SR2) >> 8);
 1017              		.loc 1 830 0
 1018 02c8 008B     		ldrh	r0, [r0, #24]
 1019              	.LVL70:
 831:../../source/src/FWlib/src/stm32f10x_i2c.c **** }
 1020              		.loc 1 831 0
 1021 02ca 000A     		lsrs	r0, r0, #8
 1022 02cc 7047     		bx	lr
 1023              		.cfi_endproc
 1024              	.LFE52:
 1025              		.size	I2C_GetPEC, .-I2C_GetPEC
 1026              		.align	1
 1027 02ce 00BF     		.p2align 2,,3
 1028              		.global	I2C_ARPCmd
 1029              		.syntax unified
 1030              		.thumb
 1031              		.thumb_func
 1032              		.fpu softvfp
 1033              		.type	I2C_ARPCmd, %function
 1034              	I2C_ARPCmd:
 1035              	.LFB53:
 832:../../source/src/FWlib/src/stm32f10x_i2c.c **** 
 833:../../source/src/FWlib/src/stm32f10x_i2c.c **** /**
 834:../../source/src/FWlib/src/stm32f10x_i2c.c ****   * @brief  Enables or disables the specified I2C ARP.
 835:../../source/src/FWlib/src/stm32f10x_i2c.c ****   * @param  I2Cx: where x can be 1 or 2 to select the I2C peripheral.
 836:../../source/src/FWlib/src/stm32f10x_i2c.c ****   * @param  NewState: new state of the I2Cx ARP. 
 837:../../source/src/FWlib/src/stm32f10x_i2c.c ****   *   This parameter can be: ENABLE or DISABLE.
 838:../../source/src/FWlib/src/stm32f10x_i2c.c ****   * @retval None
 839:../../source/src/FWlib/src/stm32f10x_i2c.c ****   */
 840:../../source/src/FWlib/src/stm32f10x_i2c.c **** void I2C_ARPCmd(I2C_TypeDef* I2Cx, FunctionalState NewState)
 841:../../source/src/FWlib/src/stm32f10x_i2c.c **** {
 1036              		.loc 1 841 0
ARM GAS  G:\Users\Jaxb\AppData\Local\Temp\cc3gF0EP.s 			page 35


 1037              		.cfi_startproc
 1038              		@ args = 0, pretend = 0, frame = 0
 1039              		@ frame_needed = 0, uses_anonymous_args = 0
 1040              		@ link register save eliminated.
 1041              	.LVL71:
 842:../../source/src/FWlib/src/stm32f10x_i2c.c ****   /* Check the parameters */
 843:../../source/src/FWlib/src/stm32f10x_i2c.c ****   assert_param(IS_I2C_ALL_PERIPH(I2Cx));
 844:../../source/src/FWlib/src/stm32f10x_i2c.c ****   assert_param(IS_FUNCTIONAL_STATE(NewState));
 845:../../source/src/FWlib/src/stm32f10x_i2c.c ****   if (NewState != DISABLE)
 846:../../source/src/FWlib/src/stm32f10x_i2c.c ****   {
 847:../../source/src/FWlib/src/stm32f10x_i2c.c ****     /* Enable the selected I2C ARP */
 848:../../source/src/FWlib/src/stm32f10x_i2c.c ****     I2Cx->CR1 |= CR1_ENARP_Set;
 1042              		.loc 1 848 0
 1043 02d0 0388     		ldrh	r3, [r0]
 845:../../source/src/FWlib/src/stm32f10x_i2c.c ****   {
 1044              		.loc 1 845 0
 1045 02d2 29B9     		cbnz	r1, .L86
 849:../../source/src/FWlib/src/stm32f10x_i2c.c ****   }
 850:../../source/src/FWlib/src/stm32f10x_i2c.c ****   else
 851:../../source/src/FWlib/src/stm32f10x_i2c.c ****   {
 852:../../source/src/FWlib/src/stm32f10x_i2c.c ****     /* Disable the selected I2C ARP */
 853:../../source/src/FWlib/src/stm32f10x_i2c.c ****     I2Cx->CR1 &= CR1_ENARP_Reset;
 1046              		.loc 1 853 0
 1047 02d4 23F01003 		bic	r3, r3, #16
 1048 02d8 1B04     		lsls	r3, r3, #16
 1049 02da 1B0C     		lsrs	r3, r3, #16
 1050 02dc 0380     		strh	r3, [r0]	@ movhi
 854:../../source/src/FWlib/src/stm32f10x_i2c.c ****   }
 855:../../source/src/FWlib/src/stm32f10x_i2c.c **** }
 1051              		.loc 1 855 0
 1052 02de 7047     		bx	lr
 1053              	.L86:
 848:../../source/src/FWlib/src/stm32f10x_i2c.c ****   }
 1054              		.loc 1 848 0
 1055 02e0 43F01003 		orr	r3, r3, #16
 1056 02e4 0380     		strh	r3, [r0]	@ movhi
 1057 02e6 7047     		bx	lr
 1058              		.cfi_endproc
 1059              	.LFE53:
 1060              		.size	I2C_ARPCmd, .-I2C_ARPCmd
 1061              		.align	1
 1062              		.p2align 2,,3
 1063              		.global	I2C_StretchClockCmd
 1064              		.syntax unified
 1065              		.thumb
 1066              		.thumb_func
 1067              		.fpu softvfp
 1068              		.type	I2C_StretchClockCmd, %function
 1069              	I2C_StretchClockCmd:
 1070              	.LFB54:
 856:../../source/src/FWlib/src/stm32f10x_i2c.c **** 
 857:../../source/src/FWlib/src/stm32f10x_i2c.c **** /**
 858:../../source/src/FWlib/src/stm32f10x_i2c.c ****   * @brief  Enables or disables the specified I2C Clock stretching.
 859:../../source/src/FWlib/src/stm32f10x_i2c.c ****   * @param  I2Cx: where x can be 1 or 2 to select the I2C peripheral.
 860:../../source/src/FWlib/src/stm32f10x_i2c.c ****   * @param  NewState: new state of the I2Cx Clock stretching.
 861:../../source/src/FWlib/src/stm32f10x_i2c.c ****   *   This parameter can be: ENABLE or DISABLE.
 862:../../source/src/FWlib/src/stm32f10x_i2c.c ****   * @retval None
ARM GAS  G:\Users\Jaxb\AppData\Local\Temp\cc3gF0EP.s 			page 36


 863:../../source/src/FWlib/src/stm32f10x_i2c.c ****   */
 864:../../source/src/FWlib/src/stm32f10x_i2c.c **** void I2C_StretchClockCmd(I2C_TypeDef* I2Cx, FunctionalState NewState)
 865:../../source/src/FWlib/src/stm32f10x_i2c.c **** {
 1071              		.loc 1 865 0
 1072              		.cfi_startproc
 1073              		@ args = 0, pretend = 0, frame = 0
 1074              		@ frame_needed = 0, uses_anonymous_args = 0
 1075              		@ link register save eliminated.
 1076              	.LVL72:
 866:../../source/src/FWlib/src/stm32f10x_i2c.c ****   /* Check the parameters */
 867:../../source/src/FWlib/src/stm32f10x_i2c.c ****   assert_param(IS_I2C_ALL_PERIPH(I2Cx));
 868:../../source/src/FWlib/src/stm32f10x_i2c.c ****   assert_param(IS_FUNCTIONAL_STATE(NewState));
 869:../../source/src/FWlib/src/stm32f10x_i2c.c ****   if (NewState == DISABLE)
 870:../../source/src/FWlib/src/stm32f10x_i2c.c ****   {
 871:../../source/src/FWlib/src/stm32f10x_i2c.c ****     /* Enable the selected I2C Clock stretching */
 872:../../source/src/FWlib/src/stm32f10x_i2c.c ****     I2Cx->CR1 |= CR1_NOSTRETCH_Set;
 1077              		.loc 1 872 0
 1078 02e8 0388     		ldrh	r3, [r0]
 869:../../source/src/FWlib/src/stm32f10x_i2c.c ****   {
 1079              		.loc 1 869 0
 1080 02ea 29B1     		cbz	r1, .L90
 873:../../source/src/FWlib/src/stm32f10x_i2c.c ****   }
 874:../../source/src/FWlib/src/stm32f10x_i2c.c ****   else
 875:../../source/src/FWlib/src/stm32f10x_i2c.c ****   {
 876:../../source/src/FWlib/src/stm32f10x_i2c.c ****     /* Disable the selected I2C Clock stretching */
 877:../../source/src/FWlib/src/stm32f10x_i2c.c ****     I2Cx->CR1 &= CR1_NOSTRETCH_Reset;
 1081              		.loc 1 877 0
 1082 02ec 23F08003 		bic	r3, r3, #128
 1083 02f0 1B04     		lsls	r3, r3, #16
 1084 02f2 1B0C     		lsrs	r3, r3, #16
 1085 02f4 0380     		strh	r3, [r0]	@ movhi
 878:../../source/src/FWlib/src/stm32f10x_i2c.c ****   }
 879:../../source/src/FWlib/src/stm32f10x_i2c.c **** }
 1086              		.loc 1 879 0
 1087 02f6 7047     		bx	lr
 1088              	.L90:
 872:../../source/src/FWlib/src/stm32f10x_i2c.c ****   }
 1089              		.loc 1 872 0
 1090 02f8 43F08003 		orr	r3, r3, #128
 1091 02fc 0380     		strh	r3, [r0]	@ movhi
 1092 02fe 7047     		bx	lr
 1093              		.cfi_endproc
 1094              	.LFE54:
 1095              		.size	I2C_StretchClockCmd, .-I2C_StretchClockCmd
 1096              		.align	1
 1097              		.p2align 2,,3
 1098              		.global	I2C_FastModeDutyCycleConfig
 1099              		.syntax unified
 1100              		.thumb
 1101              		.thumb_func
 1102              		.fpu softvfp
 1103              		.type	I2C_FastModeDutyCycleConfig, %function
 1104              	I2C_FastModeDutyCycleConfig:
 1105              	.LFB55:
 880:../../source/src/FWlib/src/stm32f10x_i2c.c **** 
 881:../../source/src/FWlib/src/stm32f10x_i2c.c **** /**
 882:../../source/src/FWlib/src/stm32f10x_i2c.c ****   * @brief  Selects the specified I2C fast mode duty cycle.
ARM GAS  G:\Users\Jaxb\AppData\Local\Temp\cc3gF0EP.s 			page 37


 883:../../source/src/FWlib/src/stm32f10x_i2c.c ****   * @param  I2Cx: where x can be 1 or 2 to select the I2C peripheral.
 884:../../source/src/FWlib/src/stm32f10x_i2c.c ****   * @param  I2C_DutyCycle: specifies the fast mode duty cycle.
 885:../../source/src/FWlib/src/stm32f10x_i2c.c ****   *   This parameter can be one of the following values:
 886:../../source/src/FWlib/src/stm32f10x_i2c.c ****   *     @arg I2C_DutyCycle_2: I2C fast mode Tlow/Thigh = 2
 887:../../source/src/FWlib/src/stm32f10x_i2c.c ****   *     @arg I2C_DutyCycle_16_9: I2C fast mode Tlow/Thigh = 16/9
 888:../../source/src/FWlib/src/stm32f10x_i2c.c ****   * @retval None
 889:../../source/src/FWlib/src/stm32f10x_i2c.c ****   */
 890:../../source/src/FWlib/src/stm32f10x_i2c.c **** void I2C_FastModeDutyCycleConfig(I2C_TypeDef* I2Cx, uint16_t I2C_DutyCycle)
 891:../../source/src/FWlib/src/stm32f10x_i2c.c **** {
 1106              		.loc 1 891 0
 1107              		.cfi_startproc
 1108              		@ args = 0, pretend = 0, frame = 0
 1109              		@ frame_needed = 0, uses_anonymous_args = 0
 1110              		@ link register save eliminated.
 1111              	.LVL73:
 892:../../source/src/FWlib/src/stm32f10x_i2c.c ****   /* Check the parameters */
 893:../../source/src/FWlib/src/stm32f10x_i2c.c ****   assert_param(IS_I2C_ALL_PERIPH(I2Cx));
 894:../../source/src/FWlib/src/stm32f10x_i2c.c ****   assert_param(IS_I2C_DUTY_CYCLE(I2C_DutyCycle));
 895:../../source/src/FWlib/src/stm32f10x_i2c.c ****   if (I2C_DutyCycle != I2C_DutyCycle_16_9)
 896:../../source/src/FWlib/src/stm32f10x_i2c.c ****   {
 897:../../source/src/FWlib/src/stm32f10x_i2c.c ****     /* I2C fast mode Tlow/Thigh=2 */
 898:../../source/src/FWlib/src/stm32f10x_i2c.c ****     I2Cx->CCR &= I2C_DutyCycle_2;
 1112              		.loc 1 898 0
 1113 0300 838B     		ldrh	r3, [r0, #28]
 895:../../source/src/FWlib/src/stm32f10x_i2c.c ****   {
 1114              		.loc 1 895 0
 1115 0302 B1F5804F 		cmp	r1, #16384
 1116              		.loc 1 898 0
 1117 0306 1DBF     		ittte	ne
 1118 0308 23F48043 		bicne	r3, r3, #16384
 1119 030c 1B04     		lslne	r3, r3, #16
 1120 030e 1B0C     		lsrne	r3, r3, #16
 899:../../source/src/FWlib/src/stm32f10x_i2c.c ****   }
 900:../../source/src/FWlib/src/stm32f10x_i2c.c ****   else
 901:../../source/src/FWlib/src/stm32f10x_i2c.c ****   {
 902:../../source/src/FWlib/src/stm32f10x_i2c.c ****     /* I2C fast mode Tlow/Thigh=16/9 */
 903:../../source/src/FWlib/src/stm32f10x_i2c.c ****     I2Cx->CCR |= I2C_DutyCycle_16_9;
 1121              		.loc 1 903 0
 1122 0310 43F48043 		orreq	r3, r3, #16384
 1123 0314 8383     		strh	r3, [r0, #28]	@ movhi
 904:../../source/src/FWlib/src/stm32f10x_i2c.c ****   }
 905:../../source/src/FWlib/src/stm32f10x_i2c.c **** }
 1124              		.loc 1 905 0
 1125 0316 7047     		bx	lr
 1126              		.cfi_endproc
 1127              	.LFE55:
 1128              		.size	I2C_FastModeDutyCycleConfig, .-I2C_FastModeDutyCycleConfig
 1129              		.align	1
 1130              		.p2align 2,,3
 1131              		.global	I2C_CheckEvent
 1132              		.syntax unified
 1133              		.thumb
 1134              		.thumb_func
 1135              		.fpu softvfp
 1136              		.type	I2C_CheckEvent, %function
 1137              	I2C_CheckEvent:
 1138              	.LFB56:
ARM GAS  G:\Users\Jaxb\AppData\Local\Temp\cc3gF0EP.s 			page 38


 906:../../source/src/FWlib/src/stm32f10x_i2c.c **** 
 907:../../source/src/FWlib/src/stm32f10x_i2c.c **** 
 908:../../source/src/FWlib/src/stm32f10x_i2c.c **** 
 909:../../source/src/FWlib/src/stm32f10x_i2c.c **** /**
 910:../../source/src/FWlib/src/stm32f10x_i2c.c ****  * @brief
 911:../../source/src/FWlib/src/stm32f10x_i2c.c ****  ****************************************************************************************
 912:../../source/src/FWlib/src/stm32f10x_i2c.c ****  *
 913:../../source/src/FWlib/src/stm32f10x_i2c.c ****  *                         I2C State Monitoring Functions
 914:../../source/src/FWlib/src/stm32f10x_i2c.c ****  *                       
 915:../../source/src/FWlib/src/stm32f10x_i2c.c ****  ****************************************************************************************   
 916:../../source/src/FWlib/src/stm32f10x_i2c.c ****  * This I2C driver provides three different ways for I2C state monitoring
 917:../../source/src/FWlib/src/stm32f10x_i2c.c ****  *  depending on the application requirements and constraints:
 918:../../source/src/FWlib/src/stm32f10x_i2c.c ****  *        
 919:../../source/src/FWlib/src/stm32f10x_i2c.c ****  *  
 920:../../source/src/FWlib/src/stm32f10x_i2c.c ****  * 1) Basic state monitoring:
 921:../../source/src/FWlib/src/stm32f10x_i2c.c ****  *    Using I2C_CheckEvent() function:
 922:../../source/src/FWlib/src/stm32f10x_i2c.c ****  *    It compares the status registers (SR1 and SR2) content to a given event
 923:../../source/src/FWlib/src/stm32f10x_i2c.c ****  *    (can be the combination of one or more flags).
 924:../../source/src/FWlib/src/stm32f10x_i2c.c ****  *    It returns SUCCESS if the current status includes the given flags 
 925:../../source/src/FWlib/src/stm32f10x_i2c.c ****  *    and returns ERROR if one or more flags are missing in the current status.
 926:../../source/src/FWlib/src/stm32f10x_i2c.c ****  *    - When to use:
 927:../../source/src/FWlib/src/stm32f10x_i2c.c ****  *      - This function is suitable for most applications as well as for startup 
 928:../../source/src/FWlib/src/stm32f10x_i2c.c ****  *      activity since the events are fully described in the product reference manual 
 929:../../source/src/FWlib/src/stm32f10x_i2c.c ****  *      (RM0008).
 930:../../source/src/FWlib/src/stm32f10x_i2c.c ****  *      - It is also suitable for users who need to define their own events.
 931:../../source/src/FWlib/src/stm32f10x_i2c.c ****  *    - Limitations:
 932:../../source/src/FWlib/src/stm32f10x_i2c.c ****  *      - If an error occurs (ie. error flags are set besides to the monitored flags),
 933:../../source/src/FWlib/src/stm32f10x_i2c.c ****  *        the I2C_CheckEvent() function may return SUCCESS despite the communication
 934:../../source/src/FWlib/src/stm32f10x_i2c.c ****  *        hold or corrupted real state. 
 935:../../source/src/FWlib/src/stm32f10x_i2c.c ****  *        In this case, it is advised to use error interrupts to monitor the error
 936:../../source/src/FWlib/src/stm32f10x_i2c.c ****  *        events and handle them in the interrupt IRQ handler.
 937:../../source/src/FWlib/src/stm32f10x_i2c.c ****  *        
 938:../../source/src/FWlib/src/stm32f10x_i2c.c ****  *        @note 
 939:../../source/src/FWlib/src/stm32f10x_i2c.c ****  *        For error management, it is advised to use the following functions:
 940:../../source/src/FWlib/src/stm32f10x_i2c.c ****  *          - I2C_ITConfig() to configure and enable the error interrupts (I2C_IT_ERR).
 941:../../source/src/FWlib/src/stm32f10x_i2c.c ****  *          - I2Cx_ER_IRQHandler() which is called when the error interrupt occurs.
 942:../../source/src/FWlib/src/stm32f10x_i2c.c ****  *            Where x is the peripheral instance (I2C1, I2C2 ...)
 943:../../source/src/FWlib/src/stm32f10x_i2c.c ****  *          - I2C_GetFlagStatus() or I2C_GetITStatus() to be called into I2Cx_ER_IRQHandler() 
 944:../../source/src/FWlib/src/stm32f10x_i2c.c ****  *            in order to determine which error occured.
 945:../../source/src/FWlib/src/stm32f10x_i2c.c ****  *          - I2C_ClearFlag() or I2C_ClearITPendingBit() and/or I2C_SoftwareResetCmd()
 946:../../source/src/FWlib/src/stm32f10x_i2c.c ****  *            and/or I2C_GenerateStop() in order to clear the error flag and source,
 947:../../source/src/FWlib/src/stm32f10x_i2c.c ****  *            and return to correct communication status.
 948:../../source/src/FWlib/src/stm32f10x_i2c.c ****  *            
 949:../../source/src/FWlib/src/stm32f10x_i2c.c ****  *
 950:../../source/src/FWlib/src/stm32f10x_i2c.c ****  *  2) Advanced state monitoring:
 951:../../source/src/FWlib/src/stm32f10x_i2c.c ****  *     Using the function I2C_GetLastEvent() which returns the image of both status 
 952:../../source/src/FWlib/src/stm32f10x_i2c.c ****  *     registers in a single word (uint32_t) (Status Register 2 value is shifted left 
 953:../../source/src/FWlib/src/stm32f10x_i2c.c ****  *     by 16 bits and concatenated to Status Register 1).
 954:../../source/src/FWlib/src/stm32f10x_i2c.c ****  *     - When to use:
 955:../../source/src/FWlib/src/stm32f10x_i2c.c ****  *       - This function is suitable for the same applications above but it allows to
 956:../../source/src/FWlib/src/stm32f10x_i2c.c ****  *         overcome the mentioned limitation of I2C_GetFlagStatus() function.
 957:../../source/src/FWlib/src/stm32f10x_i2c.c ****  *         The returned value could be compared to events already defined in the 
 958:../../source/src/FWlib/src/stm32f10x_i2c.c ****  *         library (stm32f10x_i2c.h) or to custom values defined by user.
 959:../../source/src/FWlib/src/stm32f10x_i2c.c ****  *       - This function is suitable when multiple flags are monitored at the same time.
 960:../../source/src/FWlib/src/stm32f10x_i2c.c ****  *       - At the opposite of I2C_CheckEvent() function, this function allows user to
 961:../../source/src/FWlib/src/stm32f10x_i2c.c ****  *         choose when an event is accepted (when all events flags are set and no 
 962:../../source/src/FWlib/src/stm32f10x_i2c.c ****  *         other flags are set or just when the needed flags are set like 
ARM GAS  G:\Users\Jaxb\AppData\Local\Temp\cc3gF0EP.s 			page 39


 963:../../source/src/FWlib/src/stm32f10x_i2c.c ****  *         I2C_CheckEvent() function).
 964:../../source/src/FWlib/src/stm32f10x_i2c.c ****  *     - Limitations:
 965:../../source/src/FWlib/src/stm32f10x_i2c.c ****  *       - User may need to define his own events.
 966:../../source/src/FWlib/src/stm32f10x_i2c.c ****  *       - Same remark concerning the error management is applicable for this 
 967:../../source/src/FWlib/src/stm32f10x_i2c.c ****  *         function if user decides to check only regular communication flags (and 
 968:../../source/src/FWlib/src/stm32f10x_i2c.c ****  *         ignores error flags).
 969:../../source/src/FWlib/src/stm32f10x_i2c.c ****  *     
 970:../../source/src/FWlib/src/stm32f10x_i2c.c ****  *
 971:../../source/src/FWlib/src/stm32f10x_i2c.c ****  *  3) Flag-based state monitoring:
 972:../../source/src/FWlib/src/stm32f10x_i2c.c ****  *     Using the function I2C_GetFlagStatus() which simply returns the status of 
 973:../../source/src/FWlib/src/stm32f10x_i2c.c ****  *     one single flag (ie. I2C_FLAG_RXNE ...). 
 974:../../source/src/FWlib/src/stm32f10x_i2c.c ****  *     - When to use:
 975:../../source/src/FWlib/src/stm32f10x_i2c.c ****  *        - This function could be used for specific applications or in debug phase.
 976:../../source/src/FWlib/src/stm32f10x_i2c.c ****  *        - It is suitable when only one flag checking is needed (most I2C events 
 977:../../source/src/FWlib/src/stm32f10x_i2c.c ****  *          are monitored through multiple flags).
 978:../../source/src/FWlib/src/stm32f10x_i2c.c ****  *     - Limitations: 
 979:../../source/src/FWlib/src/stm32f10x_i2c.c ****  *        - When calling this function, the Status register is accessed. Some flags are
 980:../../source/src/FWlib/src/stm32f10x_i2c.c ****  *          cleared when the status register is accessed. So checking the status
 981:../../source/src/FWlib/src/stm32f10x_i2c.c ****  *          of one Flag, may clear other ones.
 982:../../source/src/FWlib/src/stm32f10x_i2c.c ****  *        - Function may need to be called twice or more in order to monitor one 
 983:../../source/src/FWlib/src/stm32f10x_i2c.c ****  *          single event.
 984:../../source/src/FWlib/src/stm32f10x_i2c.c ****  *
 985:../../source/src/FWlib/src/stm32f10x_i2c.c ****  *  For detailed description of Events, please refer to section I2C_Events in 
 986:../../source/src/FWlib/src/stm32f10x_i2c.c ****  *  stm32f10x_i2c.h file.
 987:../../source/src/FWlib/src/stm32f10x_i2c.c ****  *  
 988:../../source/src/FWlib/src/stm32f10x_i2c.c ****  */
 989:../../source/src/FWlib/src/stm32f10x_i2c.c **** 
 990:../../source/src/FWlib/src/stm32f10x_i2c.c **** /**
 991:../../source/src/FWlib/src/stm32f10x_i2c.c ****  * 
 992:../../source/src/FWlib/src/stm32f10x_i2c.c ****  *  1) Basic state monitoring
 993:../../source/src/FWlib/src/stm32f10x_i2c.c ****  *******************************************************************************
 994:../../source/src/FWlib/src/stm32f10x_i2c.c ****  */
 995:../../source/src/FWlib/src/stm32f10x_i2c.c **** 
 996:../../source/src/FWlib/src/stm32f10x_i2c.c **** /**
 997:../../source/src/FWlib/src/stm32f10x_i2c.c ****   * @brief  Checks whether the last I2Cx Event is equal to the one passed
 998:../../source/src/FWlib/src/stm32f10x_i2c.c ****   *   as parameter.
 999:../../source/src/FWlib/src/stm32f10x_i2c.c ****   * @param  I2Cx: where x can be 1 or 2 to select the I2C peripheral.
1000:../../source/src/FWlib/src/stm32f10x_i2c.c ****   * @param  I2C_EVENT: specifies the event to be checked. 
1001:../../source/src/FWlib/src/stm32f10x_i2c.c ****   *   This parameter can be one of the following values:
1002:../../source/src/FWlib/src/stm32f10x_i2c.c ****   *     @arg I2C_EVENT_SLAVE_TRANSMITTER_ADDRESS_MATCHED           : EV1
1003:../../source/src/FWlib/src/stm32f10x_i2c.c ****   *     @arg I2C_EVENT_SLAVE_RECEIVER_ADDRESS_MATCHED              : EV1
1004:../../source/src/FWlib/src/stm32f10x_i2c.c ****   *     @arg I2C_EVENT_SLAVE_TRANSMITTER_SECONDADDRESS_MATCHED     : EV1
1005:../../source/src/FWlib/src/stm32f10x_i2c.c ****   *     @arg I2C_EVENT_SLAVE_RECEIVER_SECONDADDRESS_MATCHED        : EV1
1006:../../source/src/FWlib/src/stm32f10x_i2c.c ****   *     @arg I2C_EVENT_SLAVE_GENERALCALLADDRESS_MATCHED            : EV1
1007:../../source/src/FWlib/src/stm32f10x_i2c.c ****   *     @arg I2C_EVENT_SLAVE_BYTE_RECEIVED                         : EV2
1008:../../source/src/FWlib/src/stm32f10x_i2c.c ****   *     @arg (I2C_EVENT_SLAVE_BYTE_RECEIVED | I2C_FLAG_DUALF)      : EV2
1009:../../source/src/FWlib/src/stm32f10x_i2c.c ****   *     @arg (I2C_EVENT_SLAVE_BYTE_RECEIVED | I2C_FLAG_GENCALL)    : EV2
1010:../../source/src/FWlib/src/stm32f10x_i2c.c ****   *     @arg I2C_EVENT_SLAVE_BYTE_TRANSMITTED                      : EV3
1011:../../source/src/FWlib/src/stm32f10x_i2c.c ****   *     @arg (I2C_EVENT_SLAVE_BYTE_TRANSMITTED | I2C_FLAG_DUALF)   : EV3
1012:../../source/src/FWlib/src/stm32f10x_i2c.c ****   *     @arg (I2C_EVENT_SLAVE_BYTE_TRANSMITTED | I2C_FLAG_GENCALL) : EV3
1013:../../source/src/FWlib/src/stm32f10x_i2c.c ****   *     @arg I2C_EVENT_SLAVE_ACK_FAILURE                           : EV3_2
1014:../../source/src/FWlib/src/stm32f10x_i2c.c ****   *     @arg I2C_EVENT_SLAVE_STOP_DETECTED                         : EV4
1015:../../source/src/FWlib/src/stm32f10x_i2c.c ****   *     @arg I2C_EVENT_MASTER_MODE_SELECT                          : EV5
1016:../../source/src/FWlib/src/stm32f10x_i2c.c ****   *     @arg I2C_EVENT_MASTER_TRANSMITTER_MODE_SELECTED            : EV6     
1017:../../source/src/FWlib/src/stm32f10x_i2c.c ****   *     @arg I2C_EVENT_MASTER_RECEIVER_MODE_SELECTED               : EV6
1018:../../source/src/FWlib/src/stm32f10x_i2c.c ****   *     @arg I2C_EVENT_MASTER_BYTE_RECEIVED                        : EV7
1019:../../source/src/FWlib/src/stm32f10x_i2c.c ****   *     @arg I2C_EVENT_MASTER_BYTE_TRANSMITTING                    : EV8
ARM GAS  G:\Users\Jaxb\AppData\Local\Temp\cc3gF0EP.s 			page 40


1020:../../source/src/FWlib/src/stm32f10x_i2c.c ****   *     @arg I2C_EVENT_MASTER_BYTE_TRANSMITTED                     : EV8_2
1021:../../source/src/FWlib/src/stm32f10x_i2c.c ****   *     @arg I2C_EVENT_MASTER_MODE_ADDRESS10                       : EV9
1022:../../source/src/FWlib/src/stm32f10x_i2c.c ****   *     
1023:../../source/src/FWlib/src/stm32f10x_i2c.c ****   * @note: For detailed description of Events, please refer to section 
1024:../../source/src/FWlib/src/stm32f10x_i2c.c ****   *    I2C_Events in stm32f10x_i2c.h file.
1025:../../source/src/FWlib/src/stm32f10x_i2c.c ****   *    
1026:../../source/src/FWlib/src/stm32f10x_i2c.c ****   * @retval An ErrorStatus enumeration value:
1027:../../source/src/FWlib/src/stm32f10x_i2c.c ****   * - SUCCESS: Last event is equal to the I2C_EVENT
1028:../../source/src/FWlib/src/stm32f10x_i2c.c ****   * - ERROR: Last event is different from the I2C_EVENT
1029:../../source/src/FWlib/src/stm32f10x_i2c.c ****   */
1030:../../source/src/FWlib/src/stm32f10x_i2c.c **** ErrorStatus I2C_CheckEvent(I2C_TypeDef* I2Cx, uint32_t I2C_EVENT)
1031:../../source/src/FWlib/src/stm32f10x_i2c.c **** {
 1139              		.loc 1 1031 0
 1140              		.cfi_startproc
 1141              		@ args = 0, pretend = 0, frame = 0
 1142              		@ frame_needed = 0, uses_anonymous_args = 0
 1143              		@ link register save eliminated.
 1144              	.LVL74:
1032:../../source/src/FWlib/src/stm32f10x_i2c.c ****   uint32_t lastevent = 0;
1033:../../source/src/FWlib/src/stm32f10x_i2c.c ****   uint32_t flag1 = 0, flag2 = 0;
1034:../../source/src/FWlib/src/stm32f10x_i2c.c ****   ErrorStatus status = ERROR;
1035:../../source/src/FWlib/src/stm32f10x_i2c.c **** 
1036:../../source/src/FWlib/src/stm32f10x_i2c.c ****   /* Check the parameters */
1037:../../source/src/FWlib/src/stm32f10x_i2c.c ****   assert_param(IS_I2C_ALL_PERIPH(I2Cx));
1038:../../source/src/FWlib/src/stm32f10x_i2c.c ****   assert_param(IS_I2C_EVENT(I2C_EVENT));
1039:../../source/src/FWlib/src/stm32f10x_i2c.c **** 
1040:../../source/src/FWlib/src/stm32f10x_i2c.c ****   /* Read the I2Cx status register */
1041:../../source/src/FWlib/src/stm32f10x_i2c.c ****   flag1 = I2Cx->SR1;
 1145              		.loc 1 1041 0
 1146 0318 838A     		ldrh	r3, [r0, #20]
 1147              	.LVL75:
1042:../../source/src/FWlib/src/stm32f10x_i2c.c ****   flag2 = I2Cx->SR2;
 1148              		.loc 1 1042 0
 1149 031a 028B     		ldrh	r2, [r0, #24]
 1150              	.LVL76:
1043:../../source/src/FWlib/src/stm32f10x_i2c.c ****   flag2 = flag2 << 16;
1044:../../source/src/FWlib/src/stm32f10x_i2c.c **** 
1045:../../source/src/FWlib/src/stm32f10x_i2c.c ****   /* Get the last event value from I2C status register */
1046:../../source/src/FWlib/src/stm32f10x_i2c.c ****   lastevent = (flag1 | flag2) & FLAG_Mask;
1047:../../source/src/FWlib/src/stm32f10x_i2c.c **** 
1048:../../source/src/FWlib/src/stm32f10x_i2c.c ****   /* Check whether the last event contains the I2C_EVENT */
1049:../../source/src/FWlib/src/stm32f10x_i2c.c ****   if ((lastevent & I2C_EVENT) == I2C_EVENT)
 1151              		.loc 1 1049 0
 1152 031c 21F07F40 		bic	r0, r1, #-16777216
 1153              	.LVL77:
1046:../../source/src/FWlib/src/stm32f10x_i2c.c **** 
 1154              		.loc 1 1046 0
 1155 0320 43EA0243 		orr	r3, r3, r2, lsl #16
 1156              	.LVL78:
 1157              		.loc 1 1049 0
 1158 0324 1840     		ands	r0, r0, r3
1050:../../source/src/FWlib/src/stm32f10x_i2c.c ****   {
1051:../../source/src/FWlib/src/stm32f10x_i2c.c ****     /* SUCCESS: last event is equal to I2C_EVENT */
1052:../../source/src/FWlib/src/stm32f10x_i2c.c ****     status = SUCCESS;
1053:../../source/src/FWlib/src/stm32f10x_i2c.c ****   }
1054:../../source/src/FWlib/src/stm32f10x_i2c.c ****   else
1055:../../source/src/FWlib/src/stm32f10x_i2c.c ****   {
ARM GAS  G:\Users\Jaxb\AppData\Local\Temp\cc3gF0EP.s 			page 41


1056:../../source/src/FWlib/src/stm32f10x_i2c.c ****     /* ERROR: last event is different from I2C_EVENT */
1057:../../source/src/FWlib/src/stm32f10x_i2c.c ****     status = ERROR;
1058:../../source/src/FWlib/src/stm32f10x_i2c.c ****   }
1059:../../source/src/FWlib/src/stm32f10x_i2c.c ****   /* Return status */
1060:../../source/src/FWlib/src/stm32f10x_i2c.c ****   return status;
1061:../../source/src/FWlib/src/stm32f10x_i2c.c **** }
 1159              		.loc 1 1061 0
 1160 0326 401A     		subs	r0, r0, r1
 1161 0328 B0FA80F0 		clz	r0, r0
 1162 032c 4009     		lsrs	r0, r0, #5
 1163 032e 7047     		bx	lr
 1164              		.cfi_endproc
 1165              	.LFE56:
 1166              		.size	I2C_CheckEvent, .-I2C_CheckEvent
 1167              		.align	1
 1168              		.p2align 2,,3
 1169              		.global	I2C_GetLastEvent
 1170              		.syntax unified
 1171              		.thumb
 1172              		.thumb_func
 1173              		.fpu softvfp
 1174              		.type	I2C_GetLastEvent, %function
 1175              	I2C_GetLastEvent:
 1176              	.LFB57:
1062:../../source/src/FWlib/src/stm32f10x_i2c.c **** 
1063:../../source/src/FWlib/src/stm32f10x_i2c.c **** /**
1064:../../source/src/FWlib/src/stm32f10x_i2c.c ****  * 
1065:../../source/src/FWlib/src/stm32f10x_i2c.c ****  *  2) Advanced state monitoring
1066:../../source/src/FWlib/src/stm32f10x_i2c.c ****  *******************************************************************************
1067:../../source/src/FWlib/src/stm32f10x_i2c.c ****  */
1068:../../source/src/FWlib/src/stm32f10x_i2c.c **** 
1069:../../source/src/FWlib/src/stm32f10x_i2c.c **** /**
1070:../../source/src/FWlib/src/stm32f10x_i2c.c ****   * @brief  Returns the last I2Cx Event.
1071:../../source/src/FWlib/src/stm32f10x_i2c.c ****   * @param  I2Cx: where x can be 1 or 2 to select the I2C peripheral.
1072:../../source/src/FWlib/src/stm32f10x_i2c.c ****   *     
1073:../../source/src/FWlib/src/stm32f10x_i2c.c ****   * @note: For detailed description of Events, please refer to section 
1074:../../source/src/FWlib/src/stm32f10x_i2c.c ****   *    I2C_Events in stm32f10x_i2c.h file.
1075:../../source/src/FWlib/src/stm32f10x_i2c.c ****   *    
1076:../../source/src/FWlib/src/stm32f10x_i2c.c ****   * @retval The last event
1077:../../source/src/FWlib/src/stm32f10x_i2c.c ****   */
1078:../../source/src/FWlib/src/stm32f10x_i2c.c **** uint32_t I2C_GetLastEvent(I2C_TypeDef* I2Cx)
1079:../../source/src/FWlib/src/stm32f10x_i2c.c **** {
 1177              		.loc 1 1079 0
 1178              		.cfi_startproc
 1179              		@ args = 0, pretend = 0, frame = 0
 1180              		@ frame_needed = 0, uses_anonymous_args = 0
 1181              		@ link register save eliminated.
 1182              	.LVL79:
1080:../../source/src/FWlib/src/stm32f10x_i2c.c ****   uint32_t lastevent = 0;
1081:../../source/src/FWlib/src/stm32f10x_i2c.c ****   uint32_t flag1 = 0, flag2 = 0;
1082:../../source/src/FWlib/src/stm32f10x_i2c.c **** 
1083:../../source/src/FWlib/src/stm32f10x_i2c.c ****   /* Check the parameters */
1084:../../source/src/FWlib/src/stm32f10x_i2c.c ****   assert_param(IS_I2C_ALL_PERIPH(I2Cx));
1085:../../source/src/FWlib/src/stm32f10x_i2c.c **** 
1086:../../source/src/FWlib/src/stm32f10x_i2c.c ****   /* Read the I2Cx status register */
1087:../../source/src/FWlib/src/stm32f10x_i2c.c ****   flag1 = I2Cx->SR1;
 1183              		.loc 1 1087 0
ARM GAS  G:\Users\Jaxb\AppData\Local\Temp\cc3gF0EP.s 			page 42


 1184 0330 838A     		ldrh	r3, [r0, #20]
 1185              	.LVL80:
1088:../../source/src/FWlib/src/stm32f10x_i2c.c ****   flag2 = I2Cx->SR2;
 1186              		.loc 1 1088 0
 1187 0332 008B     		ldrh	r0, [r0, #24]
 1188              	.LVL81:
1089:../../source/src/FWlib/src/stm32f10x_i2c.c ****   flag2 = flag2 << 16;
1090:../../source/src/FWlib/src/stm32f10x_i2c.c **** 
1091:../../source/src/FWlib/src/stm32f10x_i2c.c ****   /* Get the last event value from I2C status register */
1092:../../source/src/FWlib/src/stm32f10x_i2c.c ****   lastevent = (flag1 | flag2) & FLAG_Mask;
 1189              		.loc 1 1092 0
 1190 0334 43EA0040 		orr	r0, r3, r0, lsl #16
 1191              	.LVL82:
1093:../../source/src/FWlib/src/stm32f10x_i2c.c **** 
1094:../../source/src/FWlib/src/stm32f10x_i2c.c ****   /* Return status */
1095:../../source/src/FWlib/src/stm32f10x_i2c.c ****   return lastevent;
1096:../../source/src/FWlib/src/stm32f10x_i2c.c **** }
 1192              		.loc 1 1096 0
 1193 0338 20F07F40 		bic	r0, r0, #-16777216
 1194 033c 7047     		bx	lr
 1195              		.cfi_endproc
 1196              	.LFE57:
 1197              		.size	I2C_GetLastEvent, .-I2C_GetLastEvent
 1198              		.align	1
 1199 033e 00BF     		.p2align 2,,3
 1200              		.global	I2C_GetFlagStatus
 1201              		.syntax unified
 1202              		.thumb
 1203              		.thumb_func
 1204              		.fpu softvfp
 1205              		.type	I2C_GetFlagStatus, %function
 1206              	I2C_GetFlagStatus:
 1207              	.LFB58:
1097:../../source/src/FWlib/src/stm32f10x_i2c.c **** 
1098:../../source/src/FWlib/src/stm32f10x_i2c.c **** /**
1099:../../source/src/FWlib/src/stm32f10x_i2c.c ****  * 
1100:../../source/src/FWlib/src/stm32f10x_i2c.c ****  *  3) Flag-based state monitoring
1101:../../source/src/FWlib/src/stm32f10x_i2c.c ****  *******************************************************************************
1102:../../source/src/FWlib/src/stm32f10x_i2c.c ****  */
1103:../../source/src/FWlib/src/stm32f10x_i2c.c **** 
1104:../../source/src/FWlib/src/stm32f10x_i2c.c **** /**
1105:../../source/src/FWlib/src/stm32f10x_i2c.c ****   * @brief  Checks whether the specified I2C flag is set or not.
1106:../../source/src/FWlib/src/stm32f10x_i2c.c ****   * @param  I2Cx: where x can be 1 or 2 to select the I2C peripheral.
1107:../../source/src/FWlib/src/stm32f10x_i2c.c ****   * @param  I2C_FLAG: specifies the flag to check. 
1108:../../source/src/FWlib/src/stm32f10x_i2c.c ****   *   This parameter can be one of the following values:
1109:../../source/src/FWlib/src/stm32f10x_i2c.c ****   *     @arg I2C_FLAG_DUALF: Dual flag (Slave mode)
1110:../../source/src/FWlib/src/stm32f10x_i2c.c ****   *     @arg I2C_FLAG_SMBHOST: SMBus host header (Slave mode)
1111:../../source/src/FWlib/src/stm32f10x_i2c.c ****   *     @arg I2C_FLAG_SMBDEFAULT: SMBus default header (Slave mode)
1112:../../source/src/FWlib/src/stm32f10x_i2c.c ****   *     @arg I2C_FLAG_GENCALL: General call header flag (Slave mode)
1113:../../source/src/FWlib/src/stm32f10x_i2c.c ****   *     @arg I2C_FLAG_TRA: Transmitter/Receiver flag
1114:../../source/src/FWlib/src/stm32f10x_i2c.c ****   *     @arg I2C_FLAG_BUSY: Bus busy flag
1115:../../source/src/FWlib/src/stm32f10x_i2c.c ****   *     @arg I2C_FLAG_MSL: Master/Slave flag
1116:../../source/src/FWlib/src/stm32f10x_i2c.c ****   *     @arg I2C_FLAG_SMBALERT: SMBus Alert flag
1117:../../source/src/FWlib/src/stm32f10x_i2c.c ****   *     @arg I2C_FLAG_TIMEOUT: Timeout or Tlow error flag
1118:../../source/src/FWlib/src/stm32f10x_i2c.c ****   *     @arg I2C_FLAG_PECERR: PEC error in reception flag
1119:../../source/src/FWlib/src/stm32f10x_i2c.c ****   *     @arg I2C_FLAG_OVR: Overrun/Underrun flag (Slave mode)
1120:../../source/src/FWlib/src/stm32f10x_i2c.c ****   *     @arg I2C_FLAG_AF: Acknowledge failure flag
ARM GAS  G:\Users\Jaxb\AppData\Local\Temp\cc3gF0EP.s 			page 43


1121:../../source/src/FWlib/src/stm32f10x_i2c.c ****   *     @arg I2C_FLAG_ARLO: Arbitration lost flag (Master mode)
1122:../../source/src/FWlib/src/stm32f10x_i2c.c ****   *     @arg I2C_FLAG_BERR: Bus error flag
1123:../../source/src/FWlib/src/stm32f10x_i2c.c ****   *     @arg I2C_FLAG_TXE: Data register empty flag (Transmitter)
1124:../../source/src/FWlib/src/stm32f10x_i2c.c ****   *     @arg I2C_FLAG_RXNE: Data register not empty (Receiver) flag
1125:../../source/src/FWlib/src/stm32f10x_i2c.c ****   *     @arg I2C_FLAG_STOPF: Stop detection flag (Slave mode)
1126:../../source/src/FWlib/src/stm32f10x_i2c.c ****   *     @arg I2C_FLAG_ADD10: 10-bit header sent flag (Master mode)
1127:../../source/src/FWlib/src/stm32f10x_i2c.c ****   *     @arg I2C_FLAG_BTF: Byte transfer finished flag
1128:../../source/src/FWlib/src/stm32f10x_i2c.c ****   *     @arg I2C_FLAG_ADDR: Address sent flag (Master mode) "ADSL"
1129:../../source/src/FWlib/src/stm32f10x_i2c.c ****   *   Address matched flag (Slave mode)"ENDA"
1130:../../source/src/FWlib/src/stm32f10x_i2c.c ****   *     @arg I2C_FLAG_SB: Start bit flag (Master mode)
1131:../../source/src/FWlib/src/stm32f10x_i2c.c ****   * @retval The new state of I2C_FLAG (SET or RESET).
1132:../../source/src/FWlib/src/stm32f10x_i2c.c ****   */
1133:../../source/src/FWlib/src/stm32f10x_i2c.c **** FlagStatus I2C_GetFlagStatus(I2C_TypeDef* I2Cx, uint32_t I2C_FLAG)
1134:../../source/src/FWlib/src/stm32f10x_i2c.c **** {
 1208              		.loc 1 1134 0
 1209              		.cfi_startproc
 1210              		@ args = 0, pretend = 0, frame = 8
 1211              		@ frame_needed = 0, uses_anonymous_args = 0
 1212              		@ link register save eliminated.
 1213              	.LVL83:
1135:../../source/src/FWlib/src/stm32f10x_i2c.c ****   FlagStatus bitstatus = RESET;
1136:../../source/src/FWlib/src/stm32f10x_i2c.c ****   __IO uint32_t i2creg = 0, i2cxbase = 0;
 1214              		.loc 1 1136 0
 1215 0340 0023     		movs	r3, #0
1134:../../source/src/FWlib/src/stm32f10x_i2c.c ****   FlagStatus bitstatus = RESET;
 1216              		.loc 1 1134 0
 1217 0342 82B0     		sub	sp, sp, #8
 1218              	.LCFI12:
 1219              		.cfi_def_cfa_offset 8
1137:../../source/src/FWlib/src/stm32f10x_i2c.c **** 
1138:../../source/src/FWlib/src/stm32f10x_i2c.c ****   /* Check the parameters */
1139:../../source/src/FWlib/src/stm32f10x_i2c.c ****   assert_param(IS_I2C_ALL_PERIPH(I2Cx));
1140:../../source/src/FWlib/src/stm32f10x_i2c.c ****   assert_param(IS_I2C_GET_FLAG(I2C_FLAG));
1141:../../source/src/FWlib/src/stm32f10x_i2c.c **** 
1142:../../source/src/FWlib/src/stm32f10x_i2c.c ****   /* Get the I2Cx peripheral base address */
1143:../../source/src/FWlib/src/stm32f10x_i2c.c ****   i2cxbase = (uint32_t)I2Cx;
1144:../../source/src/FWlib/src/stm32f10x_i2c.c ****   
1145:../../source/src/FWlib/src/stm32f10x_i2c.c ****   /* Read flag register index */
1146:../../source/src/FWlib/src/stm32f10x_i2c.c ****   i2creg = I2C_FLAG >> 28;
 1220              		.loc 1 1146 0
 1221 0344 0A0F     		lsrs	r2, r1, #28
1136:../../source/src/FWlib/src/stm32f10x_i2c.c **** 
 1222              		.loc 1 1136 0
 1223 0346 0093     		str	r3, [sp]
 1224 0348 0193     		str	r3, [sp, #4]
1143:../../source/src/FWlib/src/stm32f10x_i2c.c ****   
 1225              		.loc 1 1143 0
 1226 034a 0190     		str	r0, [sp, #4]
 1227              		.loc 1 1146 0
 1228 034c 0092     		str	r2, [sp]
1147:../../source/src/FWlib/src/stm32f10x_i2c.c ****   
1148:../../source/src/FWlib/src/stm32f10x_i2c.c ****   /* Get bit[23:0] of the flag */
1149:../../source/src/FWlib/src/stm32f10x_i2c.c ****   I2C_FLAG &= FLAG_Mask;
1150:../../source/src/FWlib/src/stm32f10x_i2c.c ****   
1151:../../source/src/FWlib/src/stm32f10x_i2c.c ****   if(i2creg != 0)
 1229              		.loc 1 1151 0
 1230 034e 009B     		ldr	r3, [sp]
ARM GAS  G:\Users\Jaxb\AppData\Local\Temp\cc3gF0EP.s 			page 44


1149:../../source/src/FWlib/src/stm32f10x_i2c.c ****   
 1231              		.loc 1 1149 0
 1232 0350 21F07F41 		bic	r1, r1, #-16777216
 1233              	.LVL84:
 1234              		.loc 1 1151 0
 1235 0354 53B1     		cbz	r3, .L97
1152:../../source/src/FWlib/src/stm32f10x_i2c.c ****   {
1153:../../source/src/FWlib/src/stm32f10x_i2c.c ****     /* Get the I2Cx SR1 register address */
1154:../../source/src/FWlib/src/stm32f10x_i2c.c ****     i2cxbase += 0x14;
 1236              		.loc 1 1154 0
 1237 0356 019B     		ldr	r3, [sp, #4]
 1238 0358 1433     		adds	r3, r3, #20
 1239 035a 0193     		str	r3, [sp, #4]
 1240              	.L98:
1155:../../source/src/FWlib/src/stm32f10x_i2c.c ****   }
1156:../../source/src/FWlib/src/stm32f10x_i2c.c ****   else
1157:../../source/src/FWlib/src/stm32f10x_i2c.c ****   {
1158:../../source/src/FWlib/src/stm32f10x_i2c.c ****     /* Flag in I2Cx SR2 Register */
1159:../../source/src/FWlib/src/stm32f10x_i2c.c ****     I2C_FLAG = (uint32_t)(I2C_FLAG >> 16);
1160:../../source/src/FWlib/src/stm32f10x_i2c.c ****     /* Get the I2Cx SR2 register address */
1161:../../source/src/FWlib/src/stm32f10x_i2c.c ****     i2cxbase += 0x18;
1162:../../source/src/FWlib/src/stm32f10x_i2c.c ****   }
1163:../../source/src/FWlib/src/stm32f10x_i2c.c ****   
1164:../../source/src/FWlib/src/stm32f10x_i2c.c ****   if(((*(__IO uint32_t *)i2cxbase) & I2C_FLAG) != (uint32_t)RESET)
 1241              		.loc 1 1164 0
 1242 035c 019B     		ldr	r3, [sp, #4]
 1243 035e 1B68     		ldr	r3, [r3]
 1244              	.LVL85:
 1245 0360 0B42     		tst	r3, r1
1165:../../source/src/FWlib/src/stm32f10x_i2c.c ****   {
1166:../../source/src/FWlib/src/stm32f10x_i2c.c ****     /* I2C_FLAG is set */
1167:../../source/src/FWlib/src/stm32f10x_i2c.c ****     bitstatus = SET;
1168:../../source/src/FWlib/src/stm32f10x_i2c.c ****   }
1169:../../source/src/FWlib/src/stm32f10x_i2c.c ****   else
1170:../../source/src/FWlib/src/stm32f10x_i2c.c ****   {
1171:../../source/src/FWlib/src/stm32f10x_i2c.c ****     /* I2C_FLAG is reset */
1172:../../source/src/FWlib/src/stm32f10x_i2c.c ****     bitstatus = RESET;
1173:../../source/src/FWlib/src/stm32f10x_i2c.c ****   }
1174:../../source/src/FWlib/src/stm32f10x_i2c.c ****   
1175:../../source/src/FWlib/src/stm32f10x_i2c.c ****   /* Return the I2C_FLAG status */
1176:../../source/src/FWlib/src/stm32f10x_i2c.c ****   return  bitstatus;
1177:../../source/src/FWlib/src/stm32f10x_i2c.c **** }
 1246              		.loc 1 1177 0
 1247 0362 14BF     		ite	ne
 1248 0364 0120     		movne	r0, #1
 1249              	.LVL86:
 1250 0366 0020     		moveq	r0, #0
 1251 0368 02B0     		add	sp, sp, #8
 1252              	.LCFI13:
 1253              		.cfi_remember_state
 1254              		.cfi_def_cfa_offset 0
 1255              		@ sp needed
 1256 036a 7047     		bx	lr
 1257              	.LVL87:
 1258              	.L97:
 1259              	.LCFI14:
 1260              		.cfi_restore_state
ARM GAS  G:\Users\Jaxb\AppData\Local\Temp\cc3gF0EP.s 			page 45


1161:../../source/src/FWlib/src/stm32f10x_i2c.c ****   }
 1261              		.loc 1 1161 0
 1262 036c 019B     		ldr	r3, [sp, #4]
1159:../../source/src/FWlib/src/stm32f10x_i2c.c ****     /* Get the I2Cx SR2 register address */
 1263              		.loc 1 1159 0
 1264 036e 090C     		lsrs	r1, r1, #16
 1265              	.LVL88:
1161:../../source/src/FWlib/src/stm32f10x_i2c.c ****   }
 1266              		.loc 1 1161 0
 1267 0370 1833     		adds	r3, r3, #24
 1268 0372 0193     		str	r3, [sp, #4]
 1269 0374 F2E7     		b	.L98
 1270              		.cfi_endproc
 1271              	.LFE58:
 1272              		.size	I2C_GetFlagStatus, .-I2C_GetFlagStatus
 1273              		.align	1
 1274 0376 00BF     		.p2align 2,,3
 1275              		.global	I2C_ClearFlag
 1276              		.syntax unified
 1277              		.thumb
 1278              		.thumb_func
 1279              		.fpu softvfp
 1280              		.type	I2C_ClearFlag, %function
 1281              	I2C_ClearFlag:
 1282              	.LFB59:
1178:../../source/src/FWlib/src/stm32f10x_i2c.c **** 
1179:../../source/src/FWlib/src/stm32f10x_i2c.c **** 
1180:../../source/src/FWlib/src/stm32f10x_i2c.c **** 
1181:../../source/src/FWlib/src/stm32f10x_i2c.c **** /**
1182:../../source/src/FWlib/src/stm32f10x_i2c.c ****   * @brief  Clears the I2Cx's pending flags.
1183:../../source/src/FWlib/src/stm32f10x_i2c.c ****   * @param  I2Cx: where x can be 1 or 2 to select the I2C peripheral.
1184:../../source/src/FWlib/src/stm32f10x_i2c.c ****   * @param  I2C_FLAG: specifies the flag to clear. 
1185:../../source/src/FWlib/src/stm32f10x_i2c.c ****   *   This parameter can be any combination of the following values:
1186:../../source/src/FWlib/src/stm32f10x_i2c.c ****   *     @arg I2C_FLAG_SMBALERT: SMBus Alert flag
1187:../../source/src/FWlib/src/stm32f10x_i2c.c ****   *     @arg I2C_FLAG_TIMEOUT: Timeout or Tlow error flag
1188:../../source/src/FWlib/src/stm32f10x_i2c.c ****   *     @arg I2C_FLAG_PECERR: PEC error in reception flag
1189:../../source/src/FWlib/src/stm32f10x_i2c.c ****   *     @arg I2C_FLAG_OVR: Overrun/Underrun flag (Slave mode)
1190:../../source/src/FWlib/src/stm32f10x_i2c.c ****   *     @arg I2C_FLAG_AF: Acknowledge failure flag
1191:../../source/src/FWlib/src/stm32f10x_i2c.c ****   *     @arg I2C_FLAG_ARLO: Arbitration lost flag (Master mode)
1192:../../source/src/FWlib/src/stm32f10x_i2c.c ****   *     @arg I2C_FLAG_BERR: Bus error flag
1193:../../source/src/FWlib/src/stm32f10x_i2c.c ****   *   
1194:../../source/src/FWlib/src/stm32f10x_i2c.c ****   * @note
1195:../../source/src/FWlib/src/stm32f10x_i2c.c ****   *   - STOPF (STOP detection) is cleared by software sequence: a read operation 
1196:../../source/src/FWlib/src/stm32f10x_i2c.c ****   *     to I2C_SR1 register (I2C_GetFlagStatus()) followed by a write operation 
1197:../../source/src/FWlib/src/stm32f10x_i2c.c ****   *     to I2C_CR1 register (I2C_Cmd() to re-enable the I2C peripheral).
1198:../../source/src/FWlib/src/stm32f10x_i2c.c ****   *   - ADD10 (10-bit header sent) is cleared by software sequence: a read 
1199:../../source/src/FWlib/src/stm32f10x_i2c.c ****   *     operation to I2C_SR1 (I2C_GetFlagStatus()) followed by writing the 
1200:../../source/src/FWlib/src/stm32f10x_i2c.c ****   *     second byte of the address in DR register.
1201:../../source/src/FWlib/src/stm32f10x_i2c.c ****   *   - BTF (Byte Transfer Finished) is cleared by software sequence: a read 
1202:../../source/src/FWlib/src/stm32f10x_i2c.c ****   *     operation to I2C_SR1 register (I2C_GetFlagStatus()) followed by a 
1203:../../source/src/FWlib/src/stm32f10x_i2c.c ****   *     read/write to I2C_DR register (I2C_SendData()).
1204:../../source/src/FWlib/src/stm32f10x_i2c.c ****   *   - ADDR (Address sent) is cleared by software sequence: a read operation to 
1205:../../source/src/FWlib/src/stm32f10x_i2c.c ****   *     I2C_SR1 register (I2C_GetFlagStatus()) followed by a read operation to 
1206:../../source/src/FWlib/src/stm32f10x_i2c.c ****   *     I2C_SR2 register ((void)(I2Cx->SR2)).
1207:../../source/src/FWlib/src/stm32f10x_i2c.c ****   *   - SB (Start Bit) is cleared software sequence: a read operation to I2C_SR1
1208:../../source/src/FWlib/src/stm32f10x_i2c.c ****   *     register (I2C_GetFlagStatus()) followed by a write operation to I2C_DR
1209:../../source/src/FWlib/src/stm32f10x_i2c.c ****   *     register  (I2C_SendData()).
ARM GAS  G:\Users\Jaxb\AppData\Local\Temp\cc3gF0EP.s 			page 46


1210:../../source/src/FWlib/src/stm32f10x_i2c.c ****   * @retval None
1211:../../source/src/FWlib/src/stm32f10x_i2c.c ****   */
1212:../../source/src/FWlib/src/stm32f10x_i2c.c **** void I2C_ClearFlag(I2C_TypeDef* I2Cx, uint32_t I2C_FLAG)
1213:../../source/src/FWlib/src/stm32f10x_i2c.c **** {
 1283              		.loc 1 1213 0
 1284              		.cfi_startproc
 1285              		@ args = 0, pretend = 0, frame = 0
 1286              		@ frame_needed = 0, uses_anonymous_args = 0
 1287              		@ link register save eliminated.
 1288              	.LVL89:
1214:../../source/src/FWlib/src/stm32f10x_i2c.c ****   uint32_t flagpos = 0;
1215:../../source/src/FWlib/src/stm32f10x_i2c.c ****   /* Check the parameters */
1216:../../source/src/FWlib/src/stm32f10x_i2c.c ****   assert_param(IS_I2C_ALL_PERIPH(I2Cx));
1217:../../source/src/FWlib/src/stm32f10x_i2c.c ****   assert_param(IS_I2C_CLEAR_FLAG(I2C_FLAG));
1218:../../source/src/FWlib/src/stm32f10x_i2c.c ****   /* Get the I2C flag position */
1219:../../source/src/FWlib/src/stm32f10x_i2c.c ****   flagpos = I2C_FLAG & FLAG_Mask;
1220:../../source/src/FWlib/src/stm32f10x_i2c.c ****   /* Clear the selected I2C flag */
1221:../../source/src/FWlib/src/stm32f10x_i2c.c ****   I2Cx->SR1 = (uint16_t)~flagpos;
 1289              		.loc 1 1221 0
 1290 0378 C943     		mvns	r1, r1
 1291              	.LVL90:
 1292 037a 89B2     		uxth	r1, r1
 1293              	.LVL91:
 1294 037c 8182     		strh	r1, [r0, #20]	@ movhi
1222:../../source/src/FWlib/src/stm32f10x_i2c.c **** }
 1295              		.loc 1 1222 0
 1296 037e 7047     		bx	lr
 1297              		.cfi_endproc
 1298              	.LFE59:
 1299              		.size	I2C_ClearFlag, .-I2C_ClearFlag
 1300              		.align	1
 1301              		.p2align 2,,3
 1302              		.global	I2C_GetITStatus
 1303              		.syntax unified
 1304              		.thumb
 1305              		.thumb_func
 1306              		.fpu softvfp
 1307              		.type	I2C_GetITStatus, %function
 1308              	I2C_GetITStatus:
 1309              	.LFB60:
1223:../../source/src/FWlib/src/stm32f10x_i2c.c **** 
1224:../../source/src/FWlib/src/stm32f10x_i2c.c **** /**
1225:../../source/src/FWlib/src/stm32f10x_i2c.c ****   * @brief  Checks whether the specified I2C interrupt has occurred or not.
1226:../../source/src/FWlib/src/stm32f10x_i2c.c ****   * @param  I2Cx: where x can be 1 or 2 to select the I2C peripheral.
1227:../../source/src/FWlib/src/stm32f10x_i2c.c ****   * @param  I2C_IT: specifies the interrupt source to check. 
1228:../../source/src/FWlib/src/stm32f10x_i2c.c ****   *   This parameter can be one of the following values:
1229:../../source/src/FWlib/src/stm32f10x_i2c.c ****   *     @arg I2C_IT_SMBALERT: SMBus Alert flag
1230:../../source/src/FWlib/src/stm32f10x_i2c.c ****   *     @arg I2C_IT_TIMEOUT: Timeout or Tlow error flag
1231:../../source/src/FWlib/src/stm32f10x_i2c.c ****   *     @arg I2C_IT_PECERR: PEC error in reception flag
1232:../../source/src/FWlib/src/stm32f10x_i2c.c ****   *     @arg I2C_IT_OVR: Overrun/Underrun flag (Slave mode)
1233:../../source/src/FWlib/src/stm32f10x_i2c.c ****   *     @arg I2C_IT_AF: Acknowledge failure flag
1234:../../source/src/FWlib/src/stm32f10x_i2c.c ****   *     @arg I2C_IT_ARLO: Arbitration lost flag (Master mode)
1235:../../source/src/FWlib/src/stm32f10x_i2c.c ****   *     @arg I2C_IT_BERR: Bus error flag
1236:../../source/src/FWlib/src/stm32f10x_i2c.c ****   *     @arg I2C_IT_TXE: Data register empty flag (Transmitter)
1237:../../source/src/FWlib/src/stm32f10x_i2c.c ****   *     @arg I2C_IT_RXNE: Data register not empty (Receiver) flag
1238:../../source/src/FWlib/src/stm32f10x_i2c.c ****   *     @arg I2C_IT_STOPF: Stop detection flag (Slave mode)
1239:../../source/src/FWlib/src/stm32f10x_i2c.c ****   *     @arg I2C_IT_ADD10: 10-bit header sent flag (Master mode)
ARM GAS  G:\Users\Jaxb\AppData\Local\Temp\cc3gF0EP.s 			page 47


1240:../../source/src/FWlib/src/stm32f10x_i2c.c ****   *     @arg I2C_IT_BTF: Byte transfer finished flag
1241:../../source/src/FWlib/src/stm32f10x_i2c.c ****   *     @arg I2C_IT_ADDR: Address sent flag (Master mode) "ADSL"
1242:../../source/src/FWlib/src/stm32f10x_i2c.c ****   *                       Address matched flag (Slave mode)"ENDAD"
1243:../../source/src/FWlib/src/stm32f10x_i2c.c ****   *     @arg I2C_IT_SB: Start bit flag (Master mode)
1244:../../source/src/FWlib/src/stm32f10x_i2c.c ****   * @retval The new state of I2C_IT (SET or RESET).
1245:../../source/src/FWlib/src/stm32f10x_i2c.c ****   */
1246:../../source/src/FWlib/src/stm32f10x_i2c.c **** ITStatus I2C_GetITStatus(I2C_TypeDef* I2Cx, uint32_t I2C_IT)
1247:../../source/src/FWlib/src/stm32f10x_i2c.c **** {
 1310              		.loc 1 1247 0
 1311              		.cfi_startproc
 1312              		@ args = 0, pretend = 0, frame = 0
 1313              		@ frame_needed = 0, uses_anonymous_args = 0
 1314              		@ link register save eliminated.
 1315              	.LVL92:
1248:../../source/src/FWlib/src/stm32f10x_i2c.c ****   ITStatus bitstatus = RESET;
1249:../../source/src/FWlib/src/stm32f10x_i2c.c ****   uint32_t enablestatus = 0;
1250:../../source/src/FWlib/src/stm32f10x_i2c.c **** 
1251:../../source/src/FWlib/src/stm32f10x_i2c.c ****   /* Check the parameters */
1252:../../source/src/FWlib/src/stm32f10x_i2c.c ****   assert_param(IS_I2C_ALL_PERIPH(I2Cx));
1253:../../source/src/FWlib/src/stm32f10x_i2c.c ****   assert_param(IS_I2C_GET_IT(I2C_IT));
1254:../../source/src/FWlib/src/stm32f10x_i2c.c **** 
1255:../../source/src/FWlib/src/stm32f10x_i2c.c ****   /* Check if the interrupt source is enabled or not */
1256:../../source/src/FWlib/src/stm32f10x_i2c.c ****   enablestatus = (uint32_t)(((I2C_IT & ITEN_Mask) >> 16) & (I2Cx->CR2)) ;
 1316              		.loc 1 1256 0
 1317 0380 8388     		ldrh	r3, [r0, #4]
1257:../../source/src/FWlib/src/stm32f10x_i2c.c ****   
1258:../../source/src/FWlib/src/stm32f10x_i2c.c ****   /* Get bit[23:0] of the flag */
1259:../../source/src/FWlib/src/stm32f10x_i2c.c ****   I2C_IT &= FLAG_Mask;
1260:../../source/src/FWlib/src/stm32f10x_i2c.c **** 
1261:../../source/src/FWlib/src/stm32f10x_i2c.c ****   /* Check the status of the specified I2C flag */
1262:../../source/src/FWlib/src/stm32f10x_i2c.c ****   if (((I2Cx->SR1 & I2C_IT) != (uint32_t)RESET) && enablestatus)
 1318              		.loc 1 1262 0
 1319 0382 808A     		ldrh	r0, [r0, #20]
 1320              	.LVL93:
1256:../../source/src/FWlib/src/stm32f10x_i2c.c ****   
 1321              		.loc 1 1256 0
 1322 0384 9BB2     		uxth	r3, r3
 1323              	.LVL94:
 1324              		.loc 1 1262 0
 1325 0386 0840     		ands	r0, r1, r0
 1326 0388 06D0     		beq	.L101
1256:../../source/src/FWlib/src/stm32f10x_i2c.c ****   
 1327              		.loc 1 1256 0 discriminator 1
 1328 038a 03F4E063 		and	r3, r3, #1792
 1329              	.LVL95:
 1330              		.loc 1 1262 0 discriminator 1
 1331 038e 13EA1143 		ands	r3, r3, r1, lsr #16
1263:../../source/src/FWlib/src/stm32f10x_i2c.c ****   {
1264:../../source/src/FWlib/src/stm32f10x_i2c.c ****     /* I2C_IT is set */
1265:../../source/src/FWlib/src/stm32f10x_i2c.c ****     bitstatus = SET;
 1332              		.loc 1 1265 0 discriminator 1
 1333 0392 14BF     		ite	ne
 1334 0394 0120     		movne	r0, #1
 1335 0396 0020     		moveq	r0, #0
 1336              	.L101:
 1337              	.LVL96:
1266:../../source/src/FWlib/src/stm32f10x_i2c.c ****   }
ARM GAS  G:\Users\Jaxb\AppData\Local\Temp\cc3gF0EP.s 			page 48


1267:../../source/src/FWlib/src/stm32f10x_i2c.c ****   else
1268:../../source/src/FWlib/src/stm32f10x_i2c.c ****   {
1269:../../source/src/FWlib/src/stm32f10x_i2c.c ****     /* I2C_IT is reset */
1270:../../source/src/FWlib/src/stm32f10x_i2c.c ****     bitstatus = RESET;
1271:../../source/src/FWlib/src/stm32f10x_i2c.c ****   }
1272:../../source/src/FWlib/src/stm32f10x_i2c.c ****   /* Return the I2C_IT status */
1273:../../source/src/FWlib/src/stm32f10x_i2c.c ****   return  bitstatus;
1274:../../source/src/FWlib/src/stm32f10x_i2c.c **** }
 1338              		.loc 1 1274 0
 1339 0398 7047     		bx	lr
 1340              		.cfi_endproc
 1341              	.LFE60:
 1342              		.size	I2C_GetITStatus, .-I2C_GetITStatus
 1343              		.align	1
 1344 039a 00BF     		.p2align 2,,3
 1345              		.global	I2C_ClearITPendingBit
 1346              		.syntax unified
 1347              		.thumb
 1348              		.thumb_func
 1349              		.fpu softvfp
 1350              		.type	I2C_ClearITPendingBit, %function
 1351              	I2C_ClearITPendingBit:
 1352              	.LFB65:
 1353              		.cfi_startproc
 1354              		@ args = 0, pretend = 0, frame = 0
 1355              		@ frame_needed = 0, uses_anonymous_args = 0
 1356              		@ link register save eliminated.
 1357 039c C943     		mvns	r1, r1
 1358 039e 89B2     		uxth	r1, r1
 1359 03a0 8182     		strh	r1, [r0, #20]	@ movhi
 1360 03a2 7047     		bx	lr
 1361              		.cfi_endproc
 1362              	.LFE65:
 1363              		.size	I2C_ClearITPendingBit, .-I2C_ClearITPendingBit
 1364              	.Letext0:
 1365              		.file 2 "f:\\arm\\gcc2018\\arm-none-eabi\\include\\machine\\_default_types.h"
 1366              		.file 3 "f:\\arm\\gcc2018\\arm-none-eabi\\include\\sys\\_stdint.h"
 1367              		.file 4 "../../source/include/core_cm3.h"
 1368              		.file 5 "../../source/include/system_stm32f10x.h"
 1369              		.file 6 "../../source/include/stm32f10x.h"
 1370              		.file 7 "../../source/src/FWlib/inc/stm32f10x_rcc.h"
 1371              		.file 8 "../../source/src/FWlib/inc/stm32f10x_i2c.h"