ARM GAS  G:\Users\Jaxb\AppData\Local\Temp\ccDzUlyB.s 			page 1


   1              		.cpu cortex-m3
   2              		.eabi_attribute 20, 1
   3              		.eabi_attribute 21, 1
   4              		.eabi_attribute 23, 3
   5              		.eabi_attribute 24, 1
   6              		.eabi_attribute 25, 1
   7              		.eabi_attribute 26, 1
   8              		.eabi_attribute 30, 2
   9              		.eabi_attribute 34, 1
  10              		.eabi_attribute 18, 4
  11              		.file	"stm32f10x_crc.c"
  12              		.text
  13              	.Ltext0:
  14              		.cfi_sections	.debug_frame
  15              		.align	1
  16              		.p2align 2,,3
  17              		.global	CRC_ResetDR
  18              		.syntax unified
  19              		.thumb
  20              		.thumb_func
  21              		.fpu softvfp
  22              		.type	CRC_ResetDR, %function
  23              	CRC_ResetDR:
  24              	.LFB29:
  25              		.file 1 "../../source/src/FWlib/src/stm32f10x_crc.c"
   1:../../source/src/FWlib/src/stm32f10x_crc.c **** /**
   2:../../source/src/FWlib/src/stm32f10x_crc.c ****   ******************************************************************************
   3:../../source/src/FWlib/src/stm32f10x_crc.c ****   * @file    stm32f10x_crc.c
   4:../../source/src/FWlib/src/stm32f10x_crc.c ****   * @author  MCD Application Team
   5:../../source/src/FWlib/src/stm32f10x_crc.c ****   * @version V3.5.0
   6:../../source/src/FWlib/src/stm32f10x_crc.c ****   * @date    11-March-2011
   7:../../source/src/FWlib/src/stm32f10x_crc.c ****   * @brief   This file provides all the CRC firmware functions.
   8:../../source/src/FWlib/src/stm32f10x_crc.c ****   ******************************************************************************
   9:../../source/src/FWlib/src/stm32f10x_crc.c ****   * @attention
  10:../../source/src/FWlib/src/stm32f10x_crc.c ****   *
  11:../../source/src/FWlib/src/stm32f10x_crc.c ****   * THE PRESENT FIRMWARE WHICH IS FOR GUIDANCE ONLY AIMS AT PROVIDING CUSTOMERS
  12:../../source/src/FWlib/src/stm32f10x_crc.c ****   * WITH CODING INFORMATION REGARDING THEIR PRODUCTS IN ORDER FOR THEM TO SAVE
  13:../../source/src/FWlib/src/stm32f10x_crc.c ****   * TIME. AS A RESULT, STMICROELECTRONICS SHALL NOT BE HELD LIABLE FOR ANY
  14:../../source/src/FWlib/src/stm32f10x_crc.c ****   * DIRECT, INDIRECT OR CONSEQUENTIAL DAMAGES WITH RESPECT TO ANY CLAIMS ARISING
  15:../../source/src/FWlib/src/stm32f10x_crc.c ****   * FROM THE CONTENT OF SUCH FIRMWARE AND/OR THE USE MADE BY CUSTOMERS OF THE
  16:../../source/src/FWlib/src/stm32f10x_crc.c ****   * CODING INFORMATION CONTAINED HEREIN IN CONNECTION WITH THEIR PRODUCTS.
  17:../../source/src/FWlib/src/stm32f10x_crc.c ****   *
  18:../../source/src/FWlib/src/stm32f10x_crc.c ****   * <h2><center>&copy; COPYRIGHT 2011 STMicroelectronics</center></h2>
  19:../../source/src/FWlib/src/stm32f10x_crc.c ****   ******************************************************************************
  20:../../source/src/FWlib/src/stm32f10x_crc.c ****   */
  21:../../source/src/FWlib/src/stm32f10x_crc.c **** 
  22:../../source/src/FWlib/src/stm32f10x_crc.c **** /* Includes ------------------------------------------------------------------*/
  23:../../source/src/FWlib/src/stm32f10x_crc.c **** #include "stm32f10x_crc.h"
  24:../../source/src/FWlib/src/stm32f10x_crc.c **** 
  25:../../source/src/FWlib/src/stm32f10x_crc.c **** /** @addtogroup STM32F10x_StdPeriph_Driver
  26:../../source/src/FWlib/src/stm32f10x_crc.c ****   * @{
  27:../../source/src/FWlib/src/stm32f10x_crc.c ****   */
  28:../../source/src/FWlib/src/stm32f10x_crc.c **** 
  29:../../source/src/FWlib/src/stm32f10x_crc.c **** /** @defgroup CRC 
  30:../../source/src/FWlib/src/stm32f10x_crc.c ****   * @brief CRC driver modules
  31:../../source/src/FWlib/src/stm32f10x_crc.c ****   * @{
  32:../../source/src/FWlib/src/stm32f10x_crc.c ****   */
ARM GAS  G:\Users\Jaxb\AppData\Local\Temp\ccDzUlyB.s 			page 2


  33:../../source/src/FWlib/src/stm32f10x_crc.c **** 
  34:../../source/src/FWlib/src/stm32f10x_crc.c **** /** @defgroup CRC_Private_TypesDefinitions
  35:../../source/src/FWlib/src/stm32f10x_crc.c ****   * @{
  36:../../source/src/FWlib/src/stm32f10x_crc.c ****   */
  37:../../source/src/FWlib/src/stm32f10x_crc.c **** 
  38:../../source/src/FWlib/src/stm32f10x_crc.c **** /**
  39:../../source/src/FWlib/src/stm32f10x_crc.c ****   * @}
  40:../../source/src/FWlib/src/stm32f10x_crc.c ****   */
  41:../../source/src/FWlib/src/stm32f10x_crc.c **** 
  42:../../source/src/FWlib/src/stm32f10x_crc.c **** /** @defgroup CRC_Private_Defines
  43:../../source/src/FWlib/src/stm32f10x_crc.c ****   * @{
  44:../../source/src/FWlib/src/stm32f10x_crc.c ****   */
  45:../../source/src/FWlib/src/stm32f10x_crc.c **** 
  46:../../source/src/FWlib/src/stm32f10x_crc.c **** /**
  47:../../source/src/FWlib/src/stm32f10x_crc.c ****   * @}
  48:../../source/src/FWlib/src/stm32f10x_crc.c ****   */
  49:../../source/src/FWlib/src/stm32f10x_crc.c **** 
  50:../../source/src/FWlib/src/stm32f10x_crc.c **** /** @defgroup CRC_Private_Macros
  51:../../source/src/FWlib/src/stm32f10x_crc.c ****   * @{
  52:../../source/src/FWlib/src/stm32f10x_crc.c ****   */
  53:../../source/src/FWlib/src/stm32f10x_crc.c **** 
  54:../../source/src/FWlib/src/stm32f10x_crc.c **** /**
  55:../../source/src/FWlib/src/stm32f10x_crc.c ****   * @}
  56:../../source/src/FWlib/src/stm32f10x_crc.c ****   */
  57:../../source/src/FWlib/src/stm32f10x_crc.c **** 
  58:../../source/src/FWlib/src/stm32f10x_crc.c **** /** @defgroup CRC_Private_Variables
  59:../../source/src/FWlib/src/stm32f10x_crc.c ****   * @{
  60:../../source/src/FWlib/src/stm32f10x_crc.c ****   */
  61:../../source/src/FWlib/src/stm32f10x_crc.c **** 
  62:../../source/src/FWlib/src/stm32f10x_crc.c **** /**
  63:../../source/src/FWlib/src/stm32f10x_crc.c ****   * @}
  64:../../source/src/FWlib/src/stm32f10x_crc.c ****   */
  65:../../source/src/FWlib/src/stm32f10x_crc.c **** 
  66:../../source/src/FWlib/src/stm32f10x_crc.c **** /** @defgroup CRC_Private_FunctionPrototypes
  67:../../source/src/FWlib/src/stm32f10x_crc.c ****   * @{
  68:../../source/src/FWlib/src/stm32f10x_crc.c ****   */
  69:../../source/src/FWlib/src/stm32f10x_crc.c **** 
  70:../../source/src/FWlib/src/stm32f10x_crc.c **** /**
  71:../../source/src/FWlib/src/stm32f10x_crc.c ****   * @}
  72:../../source/src/FWlib/src/stm32f10x_crc.c ****   */
  73:../../source/src/FWlib/src/stm32f10x_crc.c **** 
  74:../../source/src/FWlib/src/stm32f10x_crc.c **** /** @defgroup CRC_Private_Functions
  75:../../source/src/FWlib/src/stm32f10x_crc.c ****   * @{
  76:../../source/src/FWlib/src/stm32f10x_crc.c ****   */
  77:../../source/src/FWlib/src/stm32f10x_crc.c **** 
  78:../../source/src/FWlib/src/stm32f10x_crc.c **** /**
  79:../../source/src/FWlib/src/stm32f10x_crc.c ****   * @brief  Resets the CRC Data register (DR).
  80:../../source/src/FWlib/src/stm32f10x_crc.c ****   * @param  None
  81:../../source/src/FWlib/src/stm32f10x_crc.c ****   * @retval None
  82:../../source/src/FWlib/src/stm32f10x_crc.c ****   */
  83:../../source/src/FWlib/src/stm32f10x_crc.c **** void CRC_ResetDR(void)
  84:../../source/src/FWlib/src/stm32f10x_crc.c **** {
  26              		.loc 1 84 0
  27              		.cfi_startproc
  28              		@ args = 0, pretend = 0, frame = 0
  29              		@ frame_needed = 0, uses_anonymous_args = 0
  30              		@ link register save eliminated.
ARM GAS  G:\Users\Jaxb\AppData\Local\Temp\ccDzUlyB.s 			page 3


  85:../../source/src/FWlib/src/stm32f10x_crc.c ****   /* Reset CRC generator */
  86:../../source/src/FWlib/src/stm32f10x_crc.c ****   CRC->CR = CRC_CR_RESET;
  31              		.loc 1 86 0
  32 0000 0122     		movs	r2, #1
  33 0002 014B     		ldr	r3, .L3
  34 0004 9A60     		str	r2, [r3, #8]
  87:../../source/src/FWlib/src/stm32f10x_crc.c **** }
  35              		.loc 1 87 0
  36 0006 7047     		bx	lr
  37              	.L4:
  38              		.align	2
  39              	.L3:
  40 0008 00300240 		.word	1073885184
  41              		.cfi_endproc
  42              	.LFE29:
  43              		.size	CRC_ResetDR, .-CRC_ResetDR
  44              		.align	1
  45              		.p2align 2,,3
  46              		.global	CRC_CalcCRC
  47              		.syntax unified
  48              		.thumb
  49              		.thumb_func
  50              		.fpu softvfp
  51              		.type	CRC_CalcCRC, %function
  52              	CRC_CalcCRC:
  53              	.LFB30:
  88:../../source/src/FWlib/src/stm32f10x_crc.c **** 
  89:../../source/src/FWlib/src/stm32f10x_crc.c **** /**
  90:../../source/src/FWlib/src/stm32f10x_crc.c ****   * @brief  Computes the 32-bit CRC of a given data word(32-bit).
  91:../../source/src/FWlib/src/stm32f10x_crc.c ****   * @param  Data: data word(32-bit) to compute its CRC
  92:../../source/src/FWlib/src/stm32f10x_crc.c ****   * @retval 32-bit CRC
  93:../../source/src/FWlib/src/stm32f10x_crc.c ****   */
  94:../../source/src/FWlib/src/stm32f10x_crc.c **** uint32_t CRC_CalcCRC(uint32_t Data)
  95:../../source/src/FWlib/src/stm32f10x_crc.c **** {
  54              		.loc 1 95 0
  55              		.cfi_startproc
  56              		@ args = 0, pretend = 0, frame = 0
  57              		@ frame_needed = 0, uses_anonymous_args = 0
  58              		@ link register save eliminated.
  59              	.LVL0:
  96:../../source/src/FWlib/src/stm32f10x_crc.c ****   CRC->DR = Data;
  60              		.loc 1 96 0
  61 000c 014B     		ldr	r3, .L6
  62 000e 1860     		str	r0, [r3]
  97:../../source/src/FWlib/src/stm32f10x_crc.c ****   
  98:../../source/src/FWlib/src/stm32f10x_crc.c ****   return (CRC->DR);
  63              		.loc 1 98 0
  64 0010 1868     		ldr	r0, [r3]
  65              	.LVL1:
  99:../../source/src/FWlib/src/stm32f10x_crc.c **** }
  66              		.loc 1 99 0
  67 0012 7047     		bx	lr
  68              	.L7:
  69              		.align	2
  70              	.L6:
  71 0014 00300240 		.word	1073885184
  72              		.cfi_endproc
ARM GAS  G:\Users\Jaxb\AppData\Local\Temp\ccDzUlyB.s 			page 4


  73              	.LFE30:
  74              		.size	CRC_CalcCRC, .-CRC_CalcCRC
  75              		.align	1
  76              		.p2align 2,,3
  77              		.global	CRC_CalcBlockCRC
  78              		.syntax unified
  79              		.thumb
  80              		.thumb_func
  81              		.fpu softvfp
  82              		.type	CRC_CalcBlockCRC, %function
  83              	CRC_CalcBlockCRC:
  84              	.LFB31:
 100:../../source/src/FWlib/src/stm32f10x_crc.c **** 
 101:../../source/src/FWlib/src/stm32f10x_crc.c **** /**
 102:../../source/src/FWlib/src/stm32f10x_crc.c ****   * @brief  Computes the 32-bit CRC of a given buffer of data word(32-bit).
 103:../../source/src/FWlib/src/stm32f10x_crc.c ****   * @param  pBuffer: pointer to the buffer containing the data to be computed
 104:../../source/src/FWlib/src/stm32f10x_crc.c ****   * @param  BufferLength: length of the buffer to be computed					
 105:../../source/src/FWlib/src/stm32f10x_crc.c ****   * @retval 32-bit CRC
 106:../../source/src/FWlib/src/stm32f10x_crc.c ****   */
 107:../../source/src/FWlib/src/stm32f10x_crc.c **** uint32_t CRC_CalcBlockCRC(uint32_t pBuffer[], uint32_t BufferLength)
 108:../../source/src/FWlib/src/stm32f10x_crc.c **** {
  85              		.loc 1 108 0
  86              		.cfi_startproc
  87              		@ args = 0, pretend = 0, frame = 0
  88              		@ frame_needed = 0, uses_anonymous_args = 0
  89              		@ link register save eliminated.
  90              	.LVL2:
 109:../../source/src/FWlib/src/stm32f10x_crc.c ****   uint32_t index = 0;
 110:../../source/src/FWlib/src/stm32f10x_crc.c ****   
 111:../../source/src/FWlib/src/stm32f10x_crc.c ****   for(index = 0; index < BufferLength; index++)
  91              		.loc 1 111 0
  92 0018 41B1     		cbz	r1, .L9
  93 001a 0438     		subs	r0, r0, #4
  94              	.LVL3:
 112:../../source/src/FWlib/src/stm32f10x_crc.c ****   {
 113:../../source/src/FWlib/src/stm32f10x_crc.c ****     CRC->DR = pBuffer[index];
  95              		.loc 1 113 0
  96 001c 054A     		ldr	r2, .L15
  97 001e 00EB8101 		add	r1, r0, r1, lsl #2
  98              	.LVL4:
  99              	.L10:
 100              		.loc 1 113 0 is_stmt 0 discriminator 3
 101 0022 50F8043F 		ldr	r3, [r0, #4]!
 111:../../source/src/FWlib/src/stm32f10x_crc.c ****   {
 102              		.loc 1 111 0 is_stmt 1 discriminator 3
 103 0026 8842     		cmp	r0, r1
 104              		.loc 1 113 0 discriminator 3
 105 0028 1360     		str	r3, [r2]
 111:../../source/src/FWlib/src/stm32f10x_crc.c ****   {
 106              		.loc 1 111 0 discriminator 3
 107 002a FAD1     		bne	.L10
 108              	.L9:
 114:../../source/src/FWlib/src/stm32f10x_crc.c ****   }
 115:../../source/src/FWlib/src/stm32f10x_crc.c ****   return (CRC->DR);
 109              		.loc 1 115 0
 110 002c 014B     		ldr	r3, .L15
 111 002e 1868     		ldr	r0, [r3]
ARM GAS  G:\Users\Jaxb\AppData\Local\Temp\ccDzUlyB.s 			page 5


 116:../../source/src/FWlib/src/stm32f10x_crc.c **** }
 112              		.loc 1 116 0
 113 0030 7047     		bx	lr
 114              	.L16:
 115 0032 00BF     		.align	2
 116              	.L15:
 117 0034 00300240 		.word	1073885184
 118              		.cfi_endproc
 119              	.LFE31:
 120              		.size	CRC_CalcBlockCRC, .-CRC_CalcBlockCRC
 121              		.align	1
 122              		.p2align 2,,3
 123              		.global	CRC_GetCRC
 124              		.syntax unified
 125              		.thumb
 126              		.thumb_func
 127              		.fpu softvfp
 128              		.type	CRC_GetCRC, %function
 129              	CRC_GetCRC:
 130              	.LFB32:
 117:../../source/src/FWlib/src/stm32f10x_crc.c **** 
 118:../../source/src/FWlib/src/stm32f10x_crc.c **** /**
 119:../../source/src/FWlib/src/stm32f10x_crc.c ****   * @brief  Returns the current CRC value.
 120:../../source/src/FWlib/src/stm32f10x_crc.c ****   * @param  None
 121:../../source/src/FWlib/src/stm32f10x_crc.c ****   * @retval 32-bit CRC
 122:../../source/src/FWlib/src/stm32f10x_crc.c ****   */
 123:../../source/src/FWlib/src/stm32f10x_crc.c **** uint32_t CRC_GetCRC(void)
 124:../../source/src/FWlib/src/stm32f10x_crc.c **** {
 131              		.loc 1 124 0
 132              		.cfi_startproc
 133              		@ args = 0, pretend = 0, frame = 0
 134              		@ frame_needed = 0, uses_anonymous_args = 0
 135              		@ link register save eliminated.
 125:../../source/src/FWlib/src/stm32f10x_crc.c ****   return (CRC->DR);
 136              		.loc 1 125 0
 137 0038 014B     		ldr	r3, .L18
 138 003a 1868     		ldr	r0, [r3]
 126:../../source/src/FWlib/src/stm32f10x_crc.c **** }
 139              		.loc 1 126 0
 140 003c 7047     		bx	lr
 141              	.L19:
 142 003e 00BF     		.align	2
 143              	.L18:
 144 0040 00300240 		.word	1073885184
 145              		.cfi_endproc
 146              	.LFE32:
 147              		.size	CRC_GetCRC, .-CRC_GetCRC
 148              		.align	1
 149              		.p2align 2,,3
 150              		.global	CRC_SetIDRegister
 151              		.syntax unified
 152              		.thumb
 153              		.thumb_func
 154              		.fpu softvfp
 155              		.type	CRC_SetIDRegister, %function
 156              	CRC_SetIDRegister:
 157              	.LFB33:
ARM GAS  G:\Users\Jaxb\AppData\Local\Temp\ccDzUlyB.s 			page 6


 127:../../source/src/FWlib/src/stm32f10x_crc.c **** 
 128:../../source/src/FWlib/src/stm32f10x_crc.c **** /**
 129:../../source/src/FWlib/src/stm32f10x_crc.c ****   * @brief  Stores a 8-bit data in the Independent Data(ID) register.
 130:../../source/src/FWlib/src/stm32f10x_crc.c ****   * @param  IDValue: 8-bit value to be stored in the ID register 					
 131:../../source/src/FWlib/src/stm32f10x_crc.c ****   * @retval None
 132:../../source/src/FWlib/src/stm32f10x_crc.c ****   */
 133:../../source/src/FWlib/src/stm32f10x_crc.c **** void CRC_SetIDRegister(uint8_t IDValue)
 134:../../source/src/FWlib/src/stm32f10x_crc.c **** {
 158              		.loc 1 134 0
 159              		.cfi_startproc
 160              		@ args = 0, pretend = 0, frame = 0
 161              		@ frame_needed = 0, uses_anonymous_args = 0
 162              		@ link register save eliminated.
 163              	.LVL5:
 135:../../source/src/FWlib/src/stm32f10x_crc.c ****   CRC->IDR = IDValue;
 164              		.loc 1 135 0
 165 0044 014B     		ldr	r3, .L21
 166 0046 1871     		strb	r0, [r3, #4]
 136:../../source/src/FWlib/src/stm32f10x_crc.c **** }
 167              		.loc 1 136 0
 168 0048 7047     		bx	lr
 169              	.L22:
 170 004a 00BF     		.align	2
 171              	.L21:
 172 004c 00300240 		.word	1073885184
 173              		.cfi_endproc
 174              	.LFE33:
 175              		.size	CRC_SetIDRegister, .-CRC_SetIDRegister
 176              		.align	1
 177              		.p2align 2,,3
 178              		.global	CRC_GetIDRegister
 179              		.syntax unified
 180              		.thumb
 181              		.thumb_func
 182              		.fpu softvfp
 183              		.type	CRC_GetIDRegister, %function
 184              	CRC_GetIDRegister:
 185              	.LFB34:
 137:../../source/src/FWlib/src/stm32f10x_crc.c **** 
 138:../../source/src/FWlib/src/stm32f10x_crc.c **** /**
 139:../../source/src/FWlib/src/stm32f10x_crc.c ****   * @brief  Returns the 8-bit data stored in the Independent Data(ID) register
 140:../../source/src/FWlib/src/stm32f10x_crc.c ****   * @param  None
 141:../../source/src/FWlib/src/stm32f10x_crc.c ****   * @retval 8-bit value of the ID register 
 142:../../source/src/FWlib/src/stm32f10x_crc.c ****   */
 143:../../source/src/FWlib/src/stm32f10x_crc.c **** uint8_t CRC_GetIDRegister(void)
 144:../../source/src/FWlib/src/stm32f10x_crc.c **** {
 186              		.loc 1 144 0
 187              		.cfi_startproc
 188              		@ args = 0, pretend = 0, frame = 0
 189              		@ frame_needed = 0, uses_anonymous_args = 0
 190              		@ link register save eliminated.
 145:../../source/src/FWlib/src/stm32f10x_crc.c ****   return (CRC->IDR);
 191              		.loc 1 145 0
 192 0050 014B     		ldr	r3, .L24
 193 0052 1879     		ldrb	r0, [r3, #4]	@ zero_extendqisi2
 146:../../source/src/FWlib/src/stm32f10x_crc.c **** }
 194              		.loc 1 146 0
ARM GAS  G:\Users\Jaxb\AppData\Local\Temp\ccDzUlyB.s 			page 7


 195 0054 7047     		bx	lr
 196              	.L25:
 197 0056 00BF     		.align	2
 198              	.L24:
 199 0058 00300240 		.word	1073885184
 200              		.cfi_endproc
 201              	.LFE34:
 202              		.size	CRC_GetIDRegister, .-CRC_GetIDRegister
 203              	.Letext0:
 204              		.file 2 "f:\\arm\\gcc2018\\arm-none-eabi\\include\\machine\\_default_types.h"
 205              		.file 3 "f:\\arm\\gcc2018\\arm-none-eabi\\include\\sys\\_stdint.h"
 206              		.file 4 "../../source/include/core_cm3.h"
 207              		.file 5 "../../source/include/system_stm32f10x.h"
 208              		.file 6 "../../source/include/stm32f10x.h"