ARM GAS  G:\Users\Jaxb\AppData\Local\Temp\ccJtFoVs.s 			page 1


   1              		.cpu cortex-m3
   2              		.eabi_attribute 20, 1
   3              		.eabi_attribute 21, 1
   4              		.eabi_attribute 23, 3
   5              		.eabi_attribute 24, 1
   6              		.eabi_attribute 25, 1
   7              		.eabi_attribute 26, 1
   8              		.eabi_attribute 30, 6
   9              		.eabi_attribute 34, 1
  10              		.eabi_attribute 18, 4
  11              		.file	"stm32f10x_rtc.c"
  12              		.text
  13              	.Ltext0:
  14              		.cfi_sections	.debug_frame
  15              		.align	1
  16              		.global	RTC_ITConfig
  17              		.syntax unified
  18              		.thumb
  19              		.thumb_func
  20              		.fpu softvfp
  21              		.type	RTC_ITConfig, %function
  22              	RTC_ITConfig:
  23              	.LFB29:
  24              		.file 1 "../../source/src/FWlib/src/stm32f10x_rtc.c"
   1:../../source/src/FWlib/src/stm32f10x_rtc.c **** /**
   2:../../source/src/FWlib/src/stm32f10x_rtc.c ****   ******************************************************************************
   3:../../source/src/FWlib/src/stm32f10x_rtc.c ****   * @file    stm32f10x_rtc.c
   4:../../source/src/FWlib/src/stm32f10x_rtc.c ****   * @author  MCD Application Team
   5:../../source/src/FWlib/src/stm32f10x_rtc.c ****   * @version V3.5.0
   6:../../source/src/FWlib/src/stm32f10x_rtc.c ****   * @date    11-March-2011
   7:../../source/src/FWlib/src/stm32f10x_rtc.c ****   * @brief   This file provides all the RTC firmware functions.
   8:../../source/src/FWlib/src/stm32f10x_rtc.c ****   ******************************************************************************
   9:../../source/src/FWlib/src/stm32f10x_rtc.c ****   * @attention
  10:../../source/src/FWlib/src/stm32f10x_rtc.c ****   *
  11:../../source/src/FWlib/src/stm32f10x_rtc.c ****   * THE PRESENT FIRMWARE WHICH IS FOR GUIDANCE ONLY AIMS AT PROVIDING CUSTOMERS
  12:../../source/src/FWlib/src/stm32f10x_rtc.c ****   * WITH CODING INFORMATION REGARDING THEIR PRODUCTS IN ORDER FOR THEM TO SAVE
  13:../../source/src/FWlib/src/stm32f10x_rtc.c ****   * TIME. AS A RESULT, STMICROELECTRONICS SHALL NOT BE HELD LIABLE FOR ANY
  14:../../source/src/FWlib/src/stm32f10x_rtc.c ****   * DIRECT, INDIRECT OR CONSEQUENTIAL DAMAGES WITH RESPECT TO ANY CLAIMS ARISING
  15:../../source/src/FWlib/src/stm32f10x_rtc.c ****   * FROM THE CONTENT OF SUCH FIRMWARE AND/OR THE USE MADE BY CUSTOMERS OF THE
  16:../../source/src/FWlib/src/stm32f10x_rtc.c ****   * CODING INFORMATION CONTAINED HEREIN IN CONNECTION WITH THEIR PRODUCTS.
  17:../../source/src/FWlib/src/stm32f10x_rtc.c ****   *
  18:../../source/src/FWlib/src/stm32f10x_rtc.c ****   * <h2><center>&copy; COPYRIGHT 2011 STMicroelectronics</center></h2>
  19:../../source/src/FWlib/src/stm32f10x_rtc.c ****   ******************************************************************************
  20:../../source/src/FWlib/src/stm32f10x_rtc.c ****   */
  21:../../source/src/FWlib/src/stm32f10x_rtc.c **** 
  22:../../source/src/FWlib/src/stm32f10x_rtc.c **** /* Includes ------------------------------------------------------------------*/
  23:../../source/src/FWlib/src/stm32f10x_rtc.c **** #include "stm32f10x_rtc.h"
  24:../../source/src/FWlib/src/stm32f10x_rtc.c **** 
  25:../../source/src/FWlib/src/stm32f10x_rtc.c **** /** @addtogroup STM32F10x_StdPeriph_Driver
  26:../../source/src/FWlib/src/stm32f10x_rtc.c ****   * @{
  27:../../source/src/FWlib/src/stm32f10x_rtc.c ****   */
  28:../../source/src/FWlib/src/stm32f10x_rtc.c **** 
  29:../../source/src/FWlib/src/stm32f10x_rtc.c **** /** @defgroup RTC 
  30:../../source/src/FWlib/src/stm32f10x_rtc.c ****   * @brief RTC driver modules
  31:../../source/src/FWlib/src/stm32f10x_rtc.c ****   * @{
  32:../../source/src/FWlib/src/stm32f10x_rtc.c ****   */
  33:../../source/src/FWlib/src/stm32f10x_rtc.c **** 
ARM GAS  G:\Users\Jaxb\AppData\Local\Temp\ccJtFoVs.s 			page 2


  34:../../source/src/FWlib/src/stm32f10x_rtc.c **** /** @defgroup RTC_Private_TypesDefinitions
  35:../../source/src/FWlib/src/stm32f10x_rtc.c ****   * @{
  36:../../source/src/FWlib/src/stm32f10x_rtc.c ****   */ 
  37:../../source/src/FWlib/src/stm32f10x_rtc.c **** /**
  38:../../source/src/FWlib/src/stm32f10x_rtc.c ****   * @}
  39:../../source/src/FWlib/src/stm32f10x_rtc.c ****   */
  40:../../source/src/FWlib/src/stm32f10x_rtc.c **** 
  41:../../source/src/FWlib/src/stm32f10x_rtc.c **** /** @defgroup RTC_Private_Defines
  42:../../source/src/FWlib/src/stm32f10x_rtc.c ****   * @{
  43:../../source/src/FWlib/src/stm32f10x_rtc.c ****   */
  44:../../source/src/FWlib/src/stm32f10x_rtc.c **** #define RTC_LSB_MASK     ((uint32_t)0x0000FFFF)  /*!< RTC LSB Mask */
  45:../../source/src/FWlib/src/stm32f10x_rtc.c **** #define PRLH_MSB_MASK    ((uint32_t)0x000F0000)  /*!< RTC Prescaler MSB Mask */
  46:../../source/src/FWlib/src/stm32f10x_rtc.c **** 
  47:../../source/src/FWlib/src/stm32f10x_rtc.c **** /**
  48:../../source/src/FWlib/src/stm32f10x_rtc.c ****   * @}
  49:../../source/src/FWlib/src/stm32f10x_rtc.c ****   */
  50:../../source/src/FWlib/src/stm32f10x_rtc.c **** 
  51:../../source/src/FWlib/src/stm32f10x_rtc.c **** /** @defgroup RTC_Private_Macros
  52:../../source/src/FWlib/src/stm32f10x_rtc.c ****   * @{
  53:../../source/src/FWlib/src/stm32f10x_rtc.c ****   */
  54:../../source/src/FWlib/src/stm32f10x_rtc.c **** 
  55:../../source/src/FWlib/src/stm32f10x_rtc.c **** /**
  56:../../source/src/FWlib/src/stm32f10x_rtc.c ****   * @}
  57:../../source/src/FWlib/src/stm32f10x_rtc.c ****   */
  58:../../source/src/FWlib/src/stm32f10x_rtc.c **** 
  59:../../source/src/FWlib/src/stm32f10x_rtc.c **** /** @defgroup RTC_Private_Variables
  60:../../source/src/FWlib/src/stm32f10x_rtc.c ****   * @{
  61:../../source/src/FWlib/src/stm32f10x_rtc.c ****   */
  62:../../source/src/FWlib/src/stm32f10x_rtc.c **** 
  63:../../source/src/FWlib/src/stm32f10x_rtc.c **** /**
  64:../../source/src/FWlib/src/stm32f10x_rtc.c ****   * @}
  65:../../source/src/FWlib/src/stm32f10x_rtc.c ****   */
  66:../../source/src/FWlib/src/stm32f10x_rtc.c **** 
  67:../../source/src/FWlib/src/stm32f10x_rtc.c **** /** @defgroup RTC_Private_FunctionPrototypes
  68:../../source/src/FWlib/src/stm32f10x_rtc.c ****   * @{
  69:../../source/src/FWlib/src/stm32f10x_rtc.c ****   */
  70:../../source/src/FWlib/src/stm32f10x_rtc.c **** 
  71:../../source/src/FWlib/src/stm32f10x_rtc.c **** /**
  72:../../source/src/FWlib/src/stm32f10x_rtc.c ****   * @}
  73:../../source/src/FWlib/src/stm32f10x_rtc.c ****   */
  74:../../source/src/FWlib/src/stm32f10x_rtc.c **** 
  75:../../source/src/FWlib/src/stm32f10x_rtc.c **** /** @defgroup RTC_Private_Functions
  76:../../source/src/FWlib/src/stm32f10x_rtc.c ****   * @{
  77:../../source/src/FWlib/src/stm32f10x_rtc.c ****   */
  78:../../source/src/FWlib/src/stm32f10x_rtc.c **** 
  79:../../source/src/FWlib/src/stm32f10x_rtc.c **** /**
  80:../../source/src/FWlib/src/stm32f10x_rtc.c ****   * @brief  Enables or disables the specified RTC interrupts.
  81:../../source/src/FWlib/src/stm32f10x_rtc.c ****   * @param  RTC_IT: specifies the RTC interrupts sources to be enabled or disabled.
  82:../../source/src/FWlib/src/stm32f10x_rtc.c ****   *   This parameter can be any combination of the following values:
  83:../../source/src/FWlib/src/stm32f10x_rtc.c ****   *     @arg RTC_IT_OW: Overflow interrupt
  84:../../source/src/FWlib/src/stm32f10x_rtc.c ****   *     @arg RTC_IT_ALR: Alarm interrupt
  85:../../source/src/FWlib/src/stm32f10x_rtc.c ****   *     @arg RTC_IT_SEC: Second interrupt
  86:../../source/src/FWlib/src/stm32f10x_rtc.c ****   * @param  NewState: new state of the specified RTC interrupts.
  87:../../source/src/FWlib/src/stm32f10x_rtc.c ****   *   This parameter can be: ENABLE or DISABLE.
  88:../../source/src/FWlib/src/stm32f10x_rtc.c ****   * @retval None
  89:../../source/src/FWlib/src/stm32f10x_rtc.c ****   */
  90:../../source/src/FWlib/src/stm32f10x_rtc.c **** void RTC_ITConfig(uint16_t RTC_IT, FunctionalState NewState)
ARM GAS  G:\Users\Jaxb\AppData\Local\Temp\ccJtFoVs.s 			page 3


  91:../../source/src/FWlib/src/stm32f10x_rtc.c **** {
  25              		.loc 1 91 0
  26              		.cfi_startproc
  27              		@ args = 0, pretend = 0, frame = 8
  28              		@ frame_needed = 1, uses_anonymous_args = 0
  29              		@ link register save eliminated.
  30 0000 80B4     		push	{r7}
  31              	.LCFI0:
  32              		.cfi_def_cfa_offset 4
  33              		.cfi_offset 7, -4
  34 0002 83B0     		sub	sp, sp, #12
  35              	.LCFI1:
  36              		.cfi_def_cfa_offset 16
  37 0004 00AF     		add	r7, sp, #0
  38              	.LCFI2:
  39              		.cfi_def_cfa_register 7
  40 0006 0346     		mov	r3, r0
  41 0008 0A46     		mov	r2, r1
  42 000a FB80     		strh	r3, [r7, #6]	@ movhi
  43 000c 1346     		mov	r3, r2
  44 000e 7B71     		strb	r3, [r7, #5]
  92:../../source/src/FWlib/src/stm32f10x_rtc.c ****   /* Check the parameters */
  93:../../source/src/FWlib/src/stm32f10x_rtc.c ****   assert_param(IS_RTC_IT(RTC_IT));  
  94:../../source/src/FWlib/src/stm32f10x_rtc.c ****   assert_param(IS_FUNCTIONAL_STATE(NewState));
  95:../../source/src/FWlib/src/stm32f10x_rtc.c ****   
  96:../../source/src/FWlib/src/stm32f10x_rtc.c ****   if (NewState != DISABLE)
  45              		.loc 1 96 0
  46 0010 7B79     		ldrb	r3, [r7, #5]	@ zero_extendqisi2
  47 0012 002B     		cmp	r3, #0
  48 0014 08D0     		beq	.L2
  97:../../source/src/FWlib/src/stm32f10x_rtc.c ****   {
  98:../../source/src/FWlib/src/stm32f10x_rtc.c ****     RTC->CRH |= RTC_IT;
  49              		.loc 1 98 0
  50 0016 0C4B     		ldr	r3, .L5
  51 0018 1B88     		ldrh	r3, [r3]	@ movhi
  52 001a 9AB2     		uxth	r2, r3
  53 001c 0A49     		ldr	r1, .L5
  54 001e FB88     		ldrh	r3, [r7, #6]	@ movhi
  55 0020 1343     		orrs	r3, r3, r2
  56 0022 9BB2     		uxth	r3, r3
  57 0024 0B80     		strh	r3, [r1]	@ movhi
  99:../../source/src/FWlib/src/stm32f10x_rtc.c ****   }
 100:../../source/src/FWlib/src/stm32f10x_rtc.c ****   else
 101:../../source/src/FWlib/src/stm32f10x_rtc.c ****   {
 102:../../source/src/FWlib/src/stm32f10x_rtc.c ****     RTC->CRH &= (uint16_t)~RTC_IT;
 103:../../source/src/FWlib/src/stm32f10x_rtc.c ****   }
 104:../../source/src/FWlib/src/stm32f10x_rtc.c **** }
  58              		.loc 1 104 0
  59 0026 09E0     		b	.L4
  60              	.L2:
 102:../../source/src/FWlib/src/stm32f10x_rtc.c ****   }
  61              		.loc 1 102 0
  62 0028 074B     		ldr	r3, .L5
  63 002a 1B88     		ldrh	r3, [r3]	@ movhi
  64 002c 9AB2     		uxth	r2, r3
  65 002e FB88     		ldrh	r3, [r7, #6]	@ movhi
  66 0030 DB43     		mvns	r3, r3
ARM GAS  G:\Users\Jaxb\AppData\Local\Temp\ccJtFoVs.s 			page 4


  67 0032 9BB2     		uxth	r3, r3
  68 0034 0449     		ldr	r1, .L5
  69 0036 1340     		ands	r3, r3, r2
  70 0038 9BB2     		uxth	r3, r3
  71 003a 0B80     		strh	r3, [r1]	@ movhi
  72              	.L4:
  73              		.loc 1 104 0
  74 003c 00BF     		nop
  75 003e 0C37     		adds	r7, r7, #12
  76              	.LCFI3:
  77              		.cfi_def_cfa_offset 4
  78 0040 BD46     		mov	sp, r7
  79              	.LCFI4:
  80              		.cfi_def_cfa_register 13
  81              		@ sp needed
  82 0042 80BC     		pop	{r7}
  83              	.LCFI5:
  84              		.cfi_restore 7
  85              		.cfi_def_cfa_offset 0
  86 0044 7047     		bx	lr
  87              	.L6:
  88 0046 00BF     		.align	2
  89              	.L5:
  90 0048 00280040 		.word	1073752064
  91              		.cfi_endproc
  92              	.LFE29:
  93              		.size	RTC_ITConfig, .-RTC_ITConfig
  94              		.align	1
  95              		.global	RTC_EnterConfigMode
  96              		.syntax unified
  97              		.thumb
  98              		.thumb_func
  99              		.fpu softvfp
 100              		.type	RTC_EnterConfigMode, %function
 101              	RTC_EnterConfigMode:
 102              	.LFB30:
 105:../../source/src/FWlib/src/stm32f10x_rtc.c **** 
 106:../../source/src/FWlib/src/stm32f10x_rtc.c **** /**
 107:../../source/src/FWlib/src/stm32f10x_rtc.c ****   * @brief  Enters the RTC configuration mode.
 108:../../source/src/FWlib/src/stm32f10x_rtc.c ****   * @param  None
 109:../../source/src/FWlib/src/stm32f10x_rtc.c ****   * @retval None
 110:../../source/src/FWlib/src/stm32f10x_rtc.c ****   */
 111:../../source/src/FWlib/src/stm32f10x_rtc.c **** void RTC_EnterConfigMode(void)
 112:../../source/src/FWlib/src/stm32f10x_rtc.c **** {
 103              		.loc 1 112 0
 104              		.cfi_startproc
 105              		@ args = 0, pretend = 0, frame = 0
 106              		@ frame_needed = 1, uses_anonymous_args = 0
 107              		@ link register save eliminated.
 108 004c 80B4     		push	{r7}
 109              	.LCFI6:
 110              		.cfi_def_cfa_offset 4
 111              		.cfi_offset 7, -4
 112 004e 00AF     		add	r7, sp, #0
 113              	.LCFI7:
 114              		.cfi_def_cfa_register 7
 113:../../source/src/FWlib/src/stm32f10x_rtc.c ****   /* Set the CNF flag to enter in the Configuration Mode */
ARM GAS  G:\Users\Jaxb\AppData\Local\Temp\ccJtFoVs.s 			page 5


 114:../../source/src/FWlib/src/stm32f10x_rtc.c ****   RTC->CRL |= RTC_CRL_CNF;
 115              		.loc 1 114 0
 116 0050 054B     		ldr	r3, .L8
 117 0052 9B88     		ldrh	r3, [r3, #4]	@ movhi
 118 0054 9BB2     		uxth	r3, r3
 119 0056 044A     		ldr	r2, .L8
 120 0058 43F01003 		orr	r3, r3, #16
 121 005c 9BB2     		uxth	r3, r3
 122 005e 9380     		strh	r3, [r2, #4]	@ movhi
 115:../../source/src/FWlib/src/stm32f10x_rtc.c **** }
 123              		.loc 1 115 0
 124 0060 00BF     		nop
 125 0062 BD46     		mov	sp, r7
 126              	.LCFI8:
 127              		.cfi_def_cfa_register 13
 128              		@ sp needed
 129 0064 80BC     		pop	{r7}
 130              	.LCFI9:
 131              		.cfi_restore 7
 132              		.cfi_def_cfa_offset 0
 133 0066 7047     		bx	lr
 134              	.L9:
 135              		.align	2
 136              	.L8:
 137 0068 00280040 		.word	1073752064
 138              		.cfi_endproc
 139              	.LFE30:
 140              		.size	RTC_EnterConfigMode, .-RTC_EnterConfigMode
 141              		.align	1
 142              		.global	RTC_ExitConfigMode
 143              		.syntax unified
 144              		.thumb
 145              		.thumb_func
 146              		.fpu softvfp
 147              		.type	RTC_ExitConfigMode, %function
 148              	RTC_ExitConfigMode:
 149              	.LFB31:
 116:../../source/src/FWlib/src/stm32f10x_rtc.c **** 
 117:../../source/src/FWlib/src/stm32f10x_rtc.c **** /**
 118:../../source/src/FWlib/src/stm32f10x_rtc.c ****   * @brief  Exits from the RTC configuration mode.
 119:../../source/src/FWlib/src/stm32f10x_rtc.c ****   * @param  None
 120:../../source/src/FWlib/src/stm32f10x_rtc.c ****   * @retval None
 121:../../source/src/FWlib/src/stm32f10x_rtc.c ****   */
 122:../../source/src/FWlib/src/stm32f10x_rtc.c **** void RTC_ExitConfigMode(void)
 123:../../source/src/FWlib/src/stm32f10x_rtc.c **** {
 150              		.loc 1 123 0
 151              		.cfi_startproc
 152              		@ args = 0, pretend = 0, frame = 0
 153              		@ frame_needed = 1, uses_anonymous_args = 0
 154              		@ link register save eliminated.
 155 006c 80B4     		push	{r7}
 156              	.LCFI10:
 157              		.cfi_def_cfa_offset 4
 158              		.cfi_offset 7, -4
 159 006e 00AF     		add	r7, sp, #0
 160              	.LCFI11:
 161              		.cfi_def_cfa_register 7
ARM GAS  G:\Users\Jaxb\AppData\Local\Temp\ccJtFoVs.s 			page 6


 124:../../source/src/FWlib/src/stm32f10x_rtc.c ****   /* Reset the CNF flag to exit from the Configuration Mode */
 125:../../source/src/FWlib/src/stm32f10x_rtc.c ****   RTC->CRL &= (uint16_t)~((uint16_t)RTC_CRL_CNF); 
 162              		.loc 1 125 0
 163 0070 054B     		ldr	r3, .L11
 164 0072 9B88     		ldrh	r3, [r3, #4]	@ movhi
 165 0074 9BB2     		uxth	r3, r3
 166 0076 044A     		ldr	r2, .L11
 167 0078 23F01003 		bic	r3, r3, #16
 168 007c 9BB2     		uxth	r3, r3
 169 007e 9380     		strh	r3, [r2, #4]	@ movhi
 126:../../source/src/FWlib/src/stm32f10x_rtc.c **** }
 170              		.loc 1 126 0
 171 0080 00BF     		nop
 172 0082 BD46     		mov	sp, r7
 173              	.LCFI12:
 174              		.cfi_def_cfa_register 13
 175              		@ sp needed
 176 0084 80BC     		pop	{r7}
 177              	.LCFI13:
 178              		.cfi_restore 7
 179              		.cfi_def_cfa_offset 0
 180 0086 7047     		bx	lr
 181              	.L12:
 182              		.align	2
 183              	.L11:
 184 0088 00280040 		.word	1073752064
 185              		.cfi_endproc
 186              	.LFE31:
 187              		.size	RTC_ExitConfigMode, .-RTC_ExitConfigMode
 188              		.align	1
 189              		.global	RTC_GetCounter
 190              		.syntax unified
 191              		.thumb
 192              		.thumb_func
 193              		.fpu softvfp
 194              		.type	RTC_GetCounter, %function
 195              	RTC_GetCounter:
 196              	.LFB32:
 127:../../source/src/FWlib/src/stm32f10x_rtc.c **** 
 128:../../source/src/FWlib/src/stm32f10x_rtc.c **** /**
 129:../../source/src/FWlib/src/stm32f10x_rtc.c ****   * @brief  Gets the RTC counter value.
 130:../../source/src/FWlib/src/stm32f10x_rtc.c ****   * @param  None
 131:../../source/src/FWlib/src/stm32f10x_rtc.c ****   * @retval RTC counter value.
 132:../../source/src/FWlib/src/stm32f10x_rtc.c ****   */
 133:../../source/src/FWlib/src/stm32f10x_rtc.c **** uint32_t RTC_GetCounter(void)
 134:../../source/src/FWlib/src/stm32f10x_rtc.c **** {
 197              		.loc 1 134 0
 198              		.cfi_startproc
 199              		@ args = 0, pretend = 0, frame = 8
 200              		@ frame_needed = 1, uses_anonymous_args = 0
 201              		@ link register save eliminated.
 202 008c 80B4     		push	{r7}
 203              	.LCFI14:
 204              		.cfi_def_cfa_offset 4
 205              		.cfi_offset 7, -4
 206 008e 83B0     		sub	sp, sp, #12
 207              	.LCFI15:
ARM GAS  G:\Users\Jaxb\AppData\Local\Temp\ccJtFoVs.s 			page 7


 208              		.cfi_def_cfa_offset 16
 209 0090 00AF     		add	r7, sp, #0
 210              	.LCFI16:
 211              		.cfi_def_cfa_register 7
 135:../../source/src/FWlib/src/stm32f10x_rtc.c ****   uint16_t tmp = 0;
 212              		.loc 1 135 0
 213 0092 0023     		movs	r3, #0
 214 0094 FB80     		strh	r3, [r7, #6]	@ movhi
 136:../../source/src/FWlib/src/stm32f10x_rtc.c ****   tmp = RTC->CNTL;
 215              		.loc 1 136 0
 216 0096 074B     		ldr	r3, .L15
 217 0098 9B8B     		ldrh	r3, [r3, #28]	@ movhi
 218 009a FB80     		strh	r3, [r7, #6]	@ movhi
 137:../../source/src/FWlib/src/stm32f10x_rtc.c ****   return (((uint32_t)RTC->CNTH << 16 ) | tmp) ;
 219              		.loc 1 137 0
 220 009c 054B     		ldr	r3, .L15
 221 009e 1B8B     		ldrh	r3, [r3, #24]	@ movhi
 222 00a0 9BB2     		uxth	r3, r3
 223 00a2 1A04     		lsls	r2, r3, #16
 224 00a4 FB88     		ldrh	r3, [r7, #6]
 225 00a6 1343     		orrs	r3, r3, r2
 138:../../source/src/FWlib/src/stm32f10x_rtc.c **** }
 226              		.loc 1 138 0
 227 00a8 1846     		mov	r0, r3
 228 00aa 0C37     		adds	r7, r7, #12
 229              	.LCFI17:
 230              		.cfi_def_cfa_offset 4
 231 00ac BD46     		mov	sp, r7
 232              	.LCFI18:
 233              		.cfi_def_cfa_register 13
 234              		@ sp needed
 235 00ae 80BC     		pop	{r7}
 236              	.LCFI19:
 237              		.cfi_restore 7
 238              		.cfi_def_cfa_offset 0
 239 00b0 7047     		bx	lr
 240              	.L16:
 241 00b2 00BF     		.align	2
 242              	.L15:
 243 00b4 00280040 		.word	1073752064
 244              		.cfi_endproc
 245              	.LFE32:
 246              		.size	RTC_GetCounter, .-RTC_GetCounter
 247              		.align	1
 248              		.global	RTC_SetCounter
 249              		.syntax unified
 250              		.thumb
 251              		.thumb_func
 252              		.fpu softvfp
 253              		.type	RTC_SetCounter, %function
 254              	RTC_SetCounter:
 255              	.LFB33:
 139:../../source/src/FWlib/src/stm32f10x_rtc.c **** 
 140:../../source/src/FWlib/src/stm32f10x_rtc.c **** /**
 141:../../source/src/FWlib/src/stm32f10x_rtc.c ****   * @brief  Sets the RTC counter value.
 142:../../source/src/FWlib/src/stm32f10x_rtc.c ****   * @param  CounterValue: RTC counter new value.
 143:../../source/src/FWlib/src/stm32f10x_rtc.c ****   * @retval None
ARM GAS  G:\Users\Jaxb\AppData\Local\Temp\ccJtFoVs.s 			page 8


 144:../../source/src/FWlib/src/stm32f10x_rtc.c ****   */
 145:../../source/src/FWlib/src/stm32f10x_rtc.c **** void RTC_SetCounter(uint32_t CounterValue)
 146:../../source/src/FWlib/src/stm32f10x_rtc.c **** { 
 256              		.loc 1 146 0
 257              		.cfi_startproc
 258              		@ args = 0, pretend = 0, frame = 8
 259              		@ frame_needed = 1, uses_anonymous_args = 0
 260 00b8 80B5     		push	{r7, lr}
 261              	.LCFI20:
 262              		.cfi_def_cfa_offset 8
 263              		.cfi_offset 7, -8
 264              		.cfi_offset 14, -4
 265 00ba 82B0     		sub	sp, sp, #8
 266              	.LCFI21:
 267              		.cfi_def_cfa_offset 16
 268 00bc 00AF     		add	r7, sp, #0
 269              	.LCFI22:
 270              		.cfi_def_cfa_register 7
 271 00be 7860     		str	r0, [r7, #4]
 147:../../source/src/FWlib/src/stm32f10x_rtc.c ****   RTC_EnterConfigMode();
 272              		.loc 1 147 0
 273 00c0 FFF7FEFF 		bl	RTC_EnterConfigMode
 148:../../source/src/FWlib/src/stm32f10x_rtc.c ****   /* Set RTC COUNTER MSB word */
 149:../../source/src/FWlib/src/stm32f10x_rtc.c ****   RTC->CNTH = CounterValue >> 16;
 274              		.loc 1 149 0
 275 00c4 7B68     		ldr	r3, [r7, #4]
 276 00c6 1A0C     		lsrs	r2, r3, #16
 277 00c8 064B     		ldr	r3, .L18
 278 00ca 92B2     		uxth	r2, r2
 279 00cc 1A83     		strh	r2, [r3, #24]	@ movhi
 150:../../source/src/FWlib/src/stm32f10x_rtc.c ****   /* Set RTC COUNTER LSB word */
 151:../../source/src/FWlib/src/stm32f10x_rtc.c ****   RTC->CNTL = (CounterValue & RTC_LSB_MASK);
 280              		.loc 1 151 0
 281 00ce 054B     		ldr	r3, .L18
 282 00d0 7A68     		ldr	r2, [r7, #4]
 283 00d2 92B2     		uxth	r2, r2
 284 00d4 9A83     		strh	r2, [r3, #28]	@ movhi
 152:../../source/src/FWlib/src/stm32f10x_rtc.c ****   RTC_ExitConfigMode();
 285              		.loc 1 152 0
 286 00d6 FFF7FEFF 		bl	RTC_ExitConfigMode
 153:../../source/src/FWlib/src/stm32f10x_rtc.c **** }
 287              		.loc 1 153 0
 288 00da 00BF     		nop
 289 00dc 0837     		adds	r7, r7, #8
 290              	.LCFI23:
 291              		.cfi_def_cfa_offset 8
 292 00de BD46     		mov	sp, r7
 293              	.LCFI24:
 294              		.cfi_def_cfa_register 13
 295              		@ sp needed
 296 00e0 80BD     		pop	{r7, pc}
 297              	.L19:
 298 00e2 00BF     		.align	2
 299              	.L18:
 300 00e4 00280040 		.word	1073752064
 301              		.cfi_endproc
 302              	.LFE33:
ARM GAS  G:\Users\Jaxb\AppData\Local\Temp\ccJtFoVs.s 			page 9


 303              		.size	RTC_SetCounter, .-RTC_SetCounter
 304              		.align	1
 305              		.global	RTC_SetPrescaler
 306              		.syntax unified
 307              		.thumb
 308              		.thumb_func
 309              		.fpu softvfp
 310              		.type	RTC_SetPrescaler, %function
 311              	RTC_SetPrescaler:
 312              	.LFB34:
 154:../../source/src/FWlib/src/stm32f10x_rtc.c **** 
 155:../../source/src/FWlib/src/stm32f10x_rtc.c **** /**
 156:../../source/src/FWlib/src/stm32f10x_rtc.c ****   * @brief  Sets the RTC prescaler value.
 157:../../source/src/FWlib/src/stm32f10x_rtc.c ****   * @param  PrescalerValue: RTC prescaler new value.
 158:../../source/src/FWlib/src/stm32f10x_rtc.c ****   * @retval None
 159:../../source/src/FWlib/src/stm32f10x_rtc.c ****   */
 160:../../source/src/FWlib/src/stm32f10x_rtc.c **** void RTC_SetPrescaler(uint32_t PrescalerValue)
 161:../../source/src/FWlib/src/stm32f10x_rtc.c **** {
 313              		.loc 1 161 0
 314              		.cfi_startproc
 315              		@ args = 0, pretend = 0, frame = 8
 316              		@ frame_needed = 1, uses_anonymous_args = 0
 317 00e8 80B5     		push	{r7, lr}
 318              	.LCFI25:
 319              		.cfi_def_cfa_offset 8
 320              		.cfi_offset 7, -8
 321              		.cfi_offset 14, -4
 322 00ea 82B0     		sub	sp, sp, #8
 323              	.LCFI26:
 324              		.cfi_def_cfa_offset 16
 325 00ec 00AF     		add	r7, sp, #0
 326              	.LCFI27:
 327              		.cfi_def_cfa_register 7
 328 00ee 7860     		str	r0, [r7, #4]
 162:../../source/src/FWlib/src/stm32f10x_rtc.c ****   /* Check the parameters */
 163:../../source/src/FWlib/src/stm32f10x_rtc.c ****   assert_param(IS_RTC_PRESCALER(PrescalerValue));
 164:../../source/src/FWlib/src/stm32f10x_rtc.c ****   
 165:../../source/src/FWlib/src/stm32f10x_rtc.c ****   RTC_EnterConfigMode();
 329              		.loc 1 165 0
 330 00f0 FFF7FEFF 		bl	RTC_EnterConfigMode
 166:../../source/src/FWlib/src/stm32f10x_rtc.c ****   /* Set RTC PRESCALER MSB word */
 167:../../source/src/FWlib/src/stm32f10x_rtc.c ****   RTC->PRLH = (PrescalerValue & PRLH_MSB_MASK) >> 16;
 331              		.loc 1 167 0
 332 00f4 7B68     		ldr	r3, [r7, #4]
 333 00f6 1B0C     		lsrs	r3, r3, #16
 334 00f8 9BB2     		uxth	r3, r3
 335 00fa 074A     		ldr	r2, .L21
 336 00fc 03F00F03 		and	r3, r3, #15
 337 0100 9BB2     		uxth	r3, r3
 338 0102 1381     		strh	r3, [r2, #8]	@ movhi
 168:../../source/src/FWlib/src/stm32f10x_rtc.c ****   /* Set RTC PRESCALER LSB word */
 169:../../source/src/FWlib/src/stm32f10x_rtc.c ****   RTC->PRLL = (PrescalerValue & RTC_LSB_MASK);
 339              		.loc 1 169 0
 340 0104 044B     		ldr	r3, .L21
 341 0106 7A68     		ldr	r2, [r7, #4]
 342 0108 92B2     		uxth	r2, r2
 343 010a 9A81     		strh	r2, [r3, #12]	@ movhi
ARM GAS  G:\Users\Jaxb\AppData\Local\Temp\ccJtFoVs.s 			page 10


 170:../../source/src/FWlib/src/stm32f10x_rtc.c ****   RTC_ExitConfigMode();
 344              		.loc 1 170 0
 345 010c FFF7FEFF 		bl	RTC_ExitConfigMode
 171:../../source/src/FWlib/src/stm32f10x_rtc.c **** }
 346              		.loc 1 171 0
 347 0110 00BF     		nop
 348 0112 0837     		adds	r7, r7, #8
 349              	.LCFI28:
 350              		.cfi_def_cfa_offset 8
 351 0114 BD46     		mov	sp, r7
 352              	.LCFI29:
 353              		.cfi_def_cfa_register 13
 354              		@ sp needed
 355 0116 80BD     		pop	{r7, pc}
 356              	.L22:
 357              		.align	2
 358              	.L21:
 359 0118 00280040 		.word	1073752064
 360              		.cfi_endproc
 361              	.LFE34:
 362              		.size	RTC_SetPrescaler, .-RTC_SetPrescaler
 363              		.align	1
 364              		.global	RTC_SetAlarm
 365              		.syntax unified
 366              		.thumb
 367              		.thumb_func
 368              		.fpu softvfp
 369              		.type	RTC_SetAlarm, %function
 370              	RTC_SetAlarm:
 371              	.LFB35:
 172:../../source/src/FWlib/src/stm32f10x_rtc.c **** 
 173:../../source/src/FWlib/src/stm32f10x_rtc.c **** /**
 174:../../source/src/FWlib/src/stm32f10x_rtc.c ****   * @brief  Sets the RTC alarm value.
 175:../../source/src/FWlib/src/stm32f10x_rtc.c ****   * @param  AlarmValue: RTC alarm new value.
 176:../../source/src/FWlib/src/stm32f10x_rtc.c ****   * @retval None
 177:../../source/src/FWlib/src/stm32f10x_rtc.c ****   */
 178:../../source/src/FWlib/src/stm32f10x_rtc.c **** void RTC_SetAlarm(uint32_t AlarmValue)
 179:../../source/src/FWlib/src/stm32f10x_rtc.c **** {  
 372              		.loc 1 179 0
 373              		.cfi_startproc
 374              		@ args = 0, pretend = 0, frame = 8
 375              		@ frame_needed = 1, uses_anonymous_args = 0
 376 011c 80B5     		push	{r7, lr}
 377              	.LCFI30:
 378              		.cfi_def_cfa_offset 8
 379              		.cfi_offset 7, -8
 380              		.cfi_offset 14, -4
 381 011e 82B0     		sub	sp, sp, #8
 382              	.LCFI31:
 383              		.cfi_def_cfa_offset 16
 384 0120 00AF     		add	r7, sp, #0
 385              	.LCFI32:
 386              		.cfi_def_cfa_register 7
 387 0122 7860     		str	r0, [r7, #4]
 180:../../source/src/FWlib/src/stm32f10x_rtc.c ****   RTC_EnterConfigMode();
 388              		.loc 1 180 0
 389 0124 FFF7FEFF 		bl	RTC_EnterConfigMode
ARM GAS  G:\Users\Jaxb\AppData\Local\Temp\ccJtFoVs.s 			page 11


 181:../../source/src/FWlib/src/stm32f10x_rtc.c ****   /* Set the ALARM MSB word */
 182:../../source/src/FWlib/src/stm32f10x_rtc.c ****   RTC->ALRH = AlarmValue >> 16;
 390              		.loc 1 182 0
 391 0128 7B68     		ldr	r3, [r7, #4]
 392 012a 1A0C     		lsrs	r2, r3, #16
 393 012c 064B     		ldr	r3, .L24
 394 012e 92B2     		uxth	r2, r2
 395 0130 1A84     		strh	r2, [r3, #32]	@ movhi
 183:../../source/src/FWlib/src/stm32f10x_rtc.c ****   /* Set the ALARM LSB word */
 184:../../source/src/FWlib/src/stm32f10x_rtc.c ****   RTC->ALRL = (AlarmValue & RTC_LSB_MASK);
 396              		.loc 1 184 0
 397 0132 054B     		ldr	r3, .L24
 398 0134 7A68     		ldr	r2, [r7, #4]
 399 0136 92B2     		uxth	r2, r2
 400 0138 9A84     		strh	r2, [r3, #36]	@ movhi
 185:../../source/src/FWlib/src/stm32f10x_rtc.c ****   RTC_ExitConfigMode();
 401              		.loc 1 185 0
 402 013a FFF7FEFF 		bl	RTC_ExitConfigMode
 186:../../source/src/FWlib/src/stm32f10x_rtc.c **** }
 403              		.loc 1 186 0
 404 013e 00BF     		nop
 405 0140 0837     		adds	r7, r7, #8
 406              	.LCFI33:
 407              		.cfi_def_cfa_offset 8
 408 0142 BD46     		mov	sp, r7
 409              	.LCFI34:
 410              		.cfi_def_cfa_register 13
 411              		@ sp needed
 412 0144 80BD     		pop	{r7, pc}
 413              	.L25:
 414 0146 00BF     		.align	2
 415              	.L24:
 416 0148 00280040 		.word	1073752064
 417              		.cfi_endproc
 418              	.LFE35:
 419              		.size	RTC_SetAlarm, .-RTC_SetAlarm
 420              		.align	1
 421              		.global	RTC_GetDivider
 422              		.syntax unified
 423              		.thumb
 424              		.thumb_func
 425              		.fpu softvfp
 426              		.type	RTC_GetDivider, %function
 427              	RTC_GetDivider:
 428              	.LFB36:
 187:../../source/src/FWlib/src/stm32f10x_rtc.c **** 
 188:../../source/src/FWlib/src/stm32f10x_rtc.c **** /**
 189:../../source/src/FWlib/src/stm32f10x_rtc.c ****   * @brief  Gets the RTC divider value.
 190:../../source/src/FWlib/src/stm32f10x_rtc.c ****   * @param  None
 191:../../source/src/FWlib/src/stm32f10x_rtc.c ****   * @retval RTC Divider value.
 192:../../source/src/FWlib/src/stm32f10x_rtc.c ****   */
 193:../../source/src/FWlib/src/stm32f10x_rtc.c **** uint32_t RTC_GetDivider(void)
 194:../../source/src/FWlib/src/stm32f10x_rtc.c **** {
 429              		.loc 1 194 0
 430              		.cfi_startproc
 431              		@ args = 0, pretend = 0, frame = 8
 432              		@ frame_needed = 1, uses_anonymous_args = 0
ARM GAS  G:\Users\Jaxb\AppData\Local\Temp\ccJtFoVs.s 			page 12


 433              		@ link register save eliminated.
 434 014c 80B4     		push	{r7}
 435              	.LCFI35:
 436              		.cfi_def_cfa_offset 4
 437              		.cfi_offset 7, -4
 438 014e 83B0     		sub	sp, sp, #12
 439              	.LCFI36:
 440              		.cfi_def_cfa_offset 16
 441 0150 00AF     		add	r7, sp, #0
 442              	.LCFI37:
 443              		.cfi_def_cfa_register 7
 195:../../source/src/FWlib/src/stm32f10x_rtc.c ****   uint32_t tmp = 0x00;
 444              		.loc 1 195 0
 445 0152 0023     		movs	r3, #0
 446 0154 7B60     		str	r3, [r7, #4]
 196:../../source/src/FWlib/src/stm32f10x_rtc.c ****   tmp = ((uint32_t)RTC->DIVH & (uint32_t)0x000F) << 16;
 447              		.loc 1 196 0
 448 0156 0A4B     		ldr	r3, .L28
 449 0158 1B8A     		ldrh	r3, [r3, #16]	@ movhi
 450 015a 9BB2     		uxth	r3, r3
 451 015c 1B04     		lsls	r3, r3, #16
 452 015e 03F47023 		and	r3, r3, #983040
 453 0162 7B60     		str	r3, [r7, #4]
 197:../../source/src/FWlib/src/stm32f10x_rtc.c ****   tmp |= RTC->DIVL;
 454              		.loc 1 197 0
 455 0164 064B     		ldr	r3, .L28
 456 0166 9B8A     		ldrh	r3, [r3, #20]	@ movhi
 457 0168 9BB2     		uxth	r3, r3
 458 016a 1A46     		mov	r2, r3
 459 016c 7B68     		ldr	r3, [r7, #4]
 460 016e 1343     		orrs	r3, r3, r2
 461 0170 7B60     		str	r3, [r7, #4]
 198:../../source/src/FWlib/src/stm32f10x_rtc.c ****   return tmp;
 462              		.loc 1 198 0
 463 0172 7B68     		ldr	r3, [r7, #4]
 199:../../source/src/FWlib/src/stm32f10x_rtc.c **** }
 464              		.loc 1 199 0
 465 0174 1846     		mov	r0, r3
 466 0176 0C37     		adds	r7, r7, #12
 467              	.LCFI38:
 468              		.cfi_def_cfa_offset 4
 469 0178 BD46     		mov	sp, r7
 470              	.LCFI39:
 471              		.cfi_def_cfa_register 13
 472              		@ sp needed
 473 017a 80BC     		pop	{r7}
 474              	.LCFI40:
 475              		.cfi_restore 7
 476              		.cfi_def_cfa_offset 0
 477 017c 7047     		bx	lr
 478              	.L29:
 479 017e 00BF     		.align	2
 480              	.L28:
 481 0180 00280040 		.word	1073752064
 482              		.cfi_endproc
 483              	.LFE36:
 484              		.size	RTC_GetDivider, .-RTC_GetDivider
ARM GAS  G:\Users\Jaxb\AppData\Local\Temp\ccJtFoVs.s 			page 13


 485              		.align	1
 486              		.global	RTC_WaitForLastTask
 487              		.syntax unified
 488              		.thumb
 489              		.thumb_func
 490              		.fpu softvfp
 491              		.type	RTC_WaitForLastTask, %function
 492              	RTC_WaitForLastTask:
 493              	.LFB37:
 200:../../source/src/FWlib/src/stm32f10x_rtc.c **** 
 201:../../source/src/FWlib/src/stm32f10x_rtc.c **** /**
 202:../../source/src/FWlib/src/stm32f10x_rtc.c ****   * @brief  Waits until last write operation on RTC registers has finished.
 203:../../source/src/FWlib/src/stm32f10x_rtc.c ****   * @note   This function must be called before any write to RTC registers.
 204:../../source/src/FWlib/src/stm32f10x_rtc.c ****   * @param  None
 205:../../source/src/FWlib/src/stm32f10x_rtc.c ****   * @retval None
 206:../../source/src/FWlib/src/stm32f10x_rtc.c ****   */
 207:../../source/src/FWlib/src/stm32f10x_rtc.c **** void RTC_WaitForLastTask(void)
 208:../../source/src/FWlib/src/stm32f10x_rtc.c **** {
 494              		.loc 1 208 0
 495              		.cfi_startproc
 496              		@ args = 0, pretend = 0, frame = 0
 497              		@ frame_needed = 1, uses_anonymous_args = 0
 498              		@ link register save eliminated.
 499 0184 80B4     		push	{r7}
 500              	.LCFI41:
 501              		.cfi_def_cfa_offset 4
 502              		.cfi_offset 7, -4
 503 0186 00AF     		add	r7, sp, #0
 504              	.LCFI42:
 505              		.cfi_def_cfa_register 7
 209:../../source/src/FWlib/src/stm32f10x_rtc.c ****   /* Loop until RTOFF flag is set */
 210:../../source/src/FWlib/src/stm32f10x_rtc.c ****   while ((RTC->CRL & RTC_FLAG_RTOFF) == (uint16_t)RESET)
 506              		.loc 1 210 0
 507 0188 00BF     		nop
 508              	.L31:
 509              		.loc 1 210 0 is_stmt 0 discriminator 1
 510 018a 054B     		ldr	r3, .L32
 511 018c 9B88     		ldrh	r3, [r3, #4]	@ movhi
 512 018e 9BB2     		uxth	r3, r3
 513 0190 03F02003 		and	r3, r3, #32
 514 0194 002B     		cmp	r3, #0
 515 0196 F8D0     		beq	.L31
 211:../../source/src/FWlib/src/stm32f10x_rtc.c ****   {
 212:../../source/src/FWlib/src/stm32f10x_rtc.c ****   }
 213:../../source/src/FWlib/src/stm32f10x_rtc.c **** }
 516              		.loc 1 213 0 is_stmt 1
 517 0198 00BF     		nop
 518 019a BD46     		mov	sp, r7
 519              	.LCFI43:
 520              		.cfi_def_cfa_register 13
 521              		@ sp needed
 522 019c 80BC     		pop	{r7}
 523              	.LCFI44:
 524              		.cfi_restore 7
 525              		.cfi_def_cfa_offset 0
 526 019e 7047     		bx	lr
 527              	.L33:
ARM GAS  G:\Users\Jaxb\AppData\Local\Temp\ccJtFoVs.s 			page 14


 528              		.align	2
 529              	.L32:
 530 01a0 00280040 		.word	1073752064
 531              		.cfi_endproc
 532              	.LFE37:
 533              		.size	RTC_WaitForLastTask, .-RTC_WaitForLastTask
 534              		.align	1
 535              		.global	RTC_WaitForSynchro
 536              		.syntax unified
 537              		.thumb
 538              		.thumb_func
 539              		.fpu softvfp
 540              		.type	RTC_WaitForSynchro, %function
 541              	RTC_WaitForSynchro:
 542              	.LFB38:
 214:../../source/src/FWlib/src/stm32f10x_rtc.c **** 
 215:../../source/src/FWlib/src/stm32f10x_rtc.c **** /**
 216:../../source/src/FWlib/src/stm32f10x_rtc.c ****   * @brief  Waits until the RTC registers (RTC_CNT, RTC_ALR and RTC_PRL)
 217:../../source/src/FWlib/src/stm32f10x_rtc.c ****   *   are synchronized with RTC APB clock.
 218:../../source/src/FWlib/src/stm32f10x_rtc.c ****   * @note   This function must be called before any read operation after an APB reset
 219:../../source/src/FWlib/src/stm32f10x_rtc.c ****   *   or an APB clock stop.
 220:../../source/src/FWlib/src/stm32f10x_rtc.c ****   * @param  None
 221:../../source/src/FWlib/src/stm32f10x_rtc.c ****   * @retval None
 222:../../source/src/FWlib/src/stm32f10x_rtc.c ****   */
 223:../../source/src/FWlib/src/stm32f10x_rtc.c **** void RTC_WaitForSynchro(void)
 224:../../source/src/FWlib/src/stm32f10x_rtc.c **** {
 543              		.loc 1 224 0
 544              		.cfi_startproc
 545              		@ args = 0, pretend = 0, frame = 0
 546              		@ frame_needed = 1, uses_anonymous_args = 0
 547              		@ link register save eliminated.
 548 01a4 80B4     		push	{r7}
 549              	.LCFI45:
 550              		.cfi_def_cfa_offset 4
 551              		.cfi_offset 7, -4
 552 01a6 00AF     		add	r7, sp, #0
 553              	.LCFI46:
 554              		.cfi_def_cfa_register 7
 225:../../source/src/FWlib/src/stm32f10x_rtc.c ****   /* Clear RSF flag */
 226:../../source/src/FWlib/src/stm32f10x_rtc.c ****   RTC->CRL &= (uint16_t)~RTC_FLAG_RSF;
 555              		.loc 1 226 0
 556 01a8 094B     		ldr	r3, .L36
 557 01aa 9B88     		ldrh	r3, [r3, #4]	@ movhi
 558 01ac 9BB2     		uxth	r3, r3
 559 01ae 084A     		ldr	r2, .L36
 560 01b0 23F00803 		bic	r3, r3, #8
 561 01b4 9BB2     		uxth	r3, r3
 562 01b6 9380     		strh	r3, [r2, #4]	@ movhi
 227:../../source/src/FWlib/src/stm32f10x_rtc.c ****   /* Loop until RSF flag is set */
 228:../../source/src/FWlib/src/stm32f10x_rtc.c ****   while ((RTC->CRL & RTC_FLAG_RSF) == (uint16_t)RESET)
 563              		.loc 1 228 0
 564 01b8 00BF     		nop
 565              	.L35:
 566              		.loc 1 228 0 is_stmt 0 discriminator 1
 567 01ba 054B     		ldr	r3, .L36
 568 01bc 9B88     		ldrh	r3, [r3, #4]	@ movhi
 569 01be 9BB2     		uxth	r3, r3
ARM GAS  G:\Users\Jaxb\AppData\Local\Temp\ccJtFoVs.s 			page 15


 570 01c0 03F00803 		and	r3, r3, #8
 571 01c4 002B     		cmp	r3, #0
 572 01c6 F8D0     		beq	.L35
 229:../../source/src/FWlib/src/stm32f10x_rtc.c ****   {
 230:../../source/src/FWlib/src/stm32f10x_rtc.c ****   }
 231:../../source/src/FWlib/src/stm32f10x_rtc.c **** }
 573              		.loc 1 231 0 is_stmt 1
 574 01c8 00BF     		nop
 575 01ca BD46     		mov	sp, r7
 576              	.LCFI47:
 577              		.cfi_def_cfa_register 13
 578              		@ sp needed
 579 01cc 80BC     		pop	{r7}
 580              	.LCFI48:
 581              		.cfi_restore 7
 582              		.cfi_def_cfa_offset 0
 583 01ce 7047     		bx	lr
 584              	.L37:
 585              		.align	2
 586              	.L36:
 587 01d0 00280040 		.word	1073752064
 588              		.cfi_endproc
 589              	.LFE38:
 590              		.size	RTC_WaitForSynchro, .-RTC_WaitForSynchro
 591              		.align	1
 592              		.global	RTC_GetFlagStatus
 593              		.syntax unified
 594              		.thumb
 595              		.thumb_func
 596              		.fpu softvfp
 597              		.type	RTC_GetFlagStatus, %function
 598              	RTC_GetFlagStatus:
 599              	.LFB39:
 232:../../source/src/FWlib/src/stm32f10x_rtc.c **** 
 233:../../source/src/FWlib/src/stm32f10x_rtc.c **** /**
 234:../../source/src/FWlib/src/stm32f10x_rtc.c ****   * @brief  Checks whether the specified RTC flag is set or not.
 235:../../source/src/FWlib/src/stm32f10x_rtc.c ****   * @param  RTC_FLAG: specifies the flag to check.
 236:../../source/src/FWlib/src/stm32f10x_rtc.c ****   *   This parameter can be one the following values:
 237:../../source/src/FWlib/src/stm32f10x_rtc.c ****   *     @arg RTC_FLAG_RTOFF: RTC Operation OFF flag
 238:../../source/src/FWlib/src/stm32f10x_rtc.c ****   *     @arg RTC_FLAG_RSF: Registers Synchronized flag
 239:../../source/src/FWlib/src/stm32f10x_rtc.c ****   *     @arg RTC_FLAG_OW: Overflow flag
 240:../../source/src/FWlib/src/stm32f10x_rtc.c ****   *     @arg RTC_FLAG_ALR: Alarm flag
 241:../../source/src/FWlib/src/stm32f10x_rtc.c ****   *     @arg RTC_FLAG_SEC: Second flag
 242:../../source/src/FWlib/src/stm32f10x_rtc.c ****   * @retval The new state of RTC_FLAG (SET or RESET).
 243:../../source/src/FWlib/src/stm32f10x_rtc.c ****   */
 244:../../source/src/FWlib/src/stm32f10x_rtc.c **** FlagStatus RTC_GetFlagStatus(uint16_t RTC_FLAG)
 245:../../source/src/FWlib/src/stm32f10x_rtc.c **** {
 600              		.loc 1 245 0
 601              		.cfi_startproc
 602              		@ args = 0, pretend = 0, frame = 16
 603              		@ frame_needed = 1, uses_anonymous_args = 0
 604              		@ link register save eliminated.
 605 01d4 80B4     		push	{r7}
 606              	.LCFI49:
 607              		.cfi_def_cfa_offset 4
 608              		.cfi_offset 7, -4
 609 01d6 85B0     		sub	sp, sp, #20
ARM GAS  G:\Users\Jaxb\AppData\Local\Temp\ccJtFoVs.s 			page 16


 610              	.LCFI50:
 611              		.cfi_def_cfa_offset 24
 612 01d8 00AF     		add	r7, sp, #0
 613              	.LCFI51:
 614              		.cfi_def_cfa_register 7
 615 01da 0346     		mov	r3, r0
 616 01dc FB80     		strh	r3, [r7, #6]	@ movhi
 246:../../source/src/FWlib/src/stm32f10x_rtc.c ****   FlagStatus bitstatus = RESET;
 617              		.loc 1 246 0
 618 01de 0023     		movs	r3, #0
 619 01e0 FB73     		strb	r3, [r7, #15]
 247:../../source/src/FWlib/src/stm32f10x_rtc.c ****   
 248:../../source/src/FWlib/src/stm32f10x_rtc.c ****   /* Check the parameters */
 249:../../source/src/FWlib/src/stm32f10x_rtc.c ****   assert_param(IS_RTC_GET_FLAG(RTC_FLAG)); 
 250:../../source/src/FWlib/src/stm32f10x_rtc.c ****   
 251:../../source/src/FWlib/src/stm32f10x_rtc.c ****   if ((RTC->CRL & RTC_FLAG) != (uint16_t)RESET)
 620              		.loc 1 251 0
 621 01e2 094B     		ldr	r3, .L42
 622 01e4 9B88     		ldrh	r3, [r3, #4]	@ movhi
 623 01e6 9AB2     		uxth	r2, r3
 624 01e8 FB88     		ldrh	r3, [r7, #6]	@ movhi
 625 01ea 1340     		ands	r3, r3, r2
 626 01ec 9BB2     		uxth	r3, r3
 627 01ee 002B     		cmp	r3, #0
 628 01f0 02D0     		beq	.L39
 252:../../source/src/FWlib/src/stm32f10x_rtc.c ****   {
 253:../../source/src/FWlib/src/stm32f10x_rtc.c ****     bitstatus = SET;
 629              		.loc 1 253 0
 630 01f2 0123     		movs	r3, #1
 631 01f4 FB73     		strb	r3, [r7, #15]
 632 01f6 01E0     		b	.L40
 633              	.L39:
 254:../../source/src/FWlib/src/stm32f10x_rtc.c ****   }
 255:../../source/src/FWlib/src/stm32f10x_rtc.c ****   else
 256:../../source/src/FWlib/src/stm32f10x_rtc.c ****   {
 257:../../source/src/FWlib/src/stm32f10x_rtc.c ****     bitstatus = RESET;
 634              		.loc 1 257 0
 635 01f8 0023     		movs	r3, #0
 636 01fa FB73     		strb	r3, [r7, #15]
 637              	.L40:
 258:../../source/src/FWlib/src/stm32f10x_rtc.c ****   }
 259:../../source/src/FWlib/src/stm32f10x_rtc.c ****   return bitstatus;
 638              		.loc 1 259 0
 639 01fc FB7B     		ldrb	r3, [r7, #15]	@ zero_extendqisi2
 260:../../source/src/FWlib/src/stm32f10x_rtc.c **** }
 640              		.loc 1 260 0
 641 01fe 1846     		mov	r0, r3
 642 0200 1437     		adds	r7, r7, #20
 643              	.LCFI52:
 644              		.cfi_def_cfa_offset 4
 645 0202 BD46     		mov	sp, r7
 646              	.LCFI53:
 647              		.cfi_def_cfa_register 13
 648              		@ sp needed
 649 0204 80BC     		pop	{r7}
 650              	.LCFI54:
 651              		.cfi_restore 7
ARM GAS  G:\Users\Jaxb\AppData\Local\Temp\ccJtFoVs.s 			page 17


 652              		.cfi_def_cfa_offset 0
 653 0206 7047     		bx	lr
 654              	.L43:
 655              		.align	2
 656              	.L42:
 657 0208 00280040 		.word	1073752064
 658              		.cfi_endproc
 659              	.LFE39:
 660              		.size	RTC_GetFlagStatus, .-RTC_GetFlagStatus
 661              		.align	1
 662              		.global	RTC_ClearFlag
 663              		.syntax unified
 664              		.thumb
 665              		.thumb_func
 666              		.fpu softvfp
 667              		.type	RTC_ClearFlag, %function
 668              	RTC_ClearFlag:
 669              	.LFB40:
 261:../../source/src/FWlib/src/stm32f10x_rtc.c **** 
 262:../../source/src/FWlib/src/stm32f10x_rtc.c **** /**
 263:../../source/src/FWlib/src/stm32f10x_rtc.c ****   * @brief  Clears the RTC's pending flags.
 264:../../source/src/FWlib/src/stm32f10x_rtc.c ****   * @param  RTC_FLAG: specifies the flag to clear.
 265:../../source/src/FWlib/src/stm32f10x_rtc.c ****   *   This parameter can be any combination of the following values:
 266:../../source/src/FWlib/src/stm32f10x_rtc.c ****   *     @arg RTC_FLAG_RSF: Registers Synchronized flag. This flag is cleared only after
 267:../../source/src/FWlib/src/stm32f10x_rtc.c ****   *                        an APB reset or an APB Clock stop.
 268:../../source/src/FWlib/src/stm32f10x_rtc.c ****   *     @arg RTC_FLAG_OW: Overflow flag
 269:../../source/src/FWlib/src/stm32f10x_rtc.c ****   *     @arg RTC_FLAG_ALR: Alarm flag
 270:../../source/src/FWlib/src/stm32f10x_rtc.c ****   *     @arg RTC_FLAG_SEC: Second flag
 271:../../source/src/FWlib/src/stm32f10x_rtc.c ****   * @retval None
 272:../../source/src/FWlib/src/stm32f10x_rtc.c ****   */
 273:../../source/src/FWlib/src/stm32f10x_rtc.c **** void RTC_ClearFlag(uint16_t RTC_FLAG)
 274:../../source/src/FWlib/src/stm32f10x_rtc.c **** {
 670              		.loc 1 274 0
 671              		.cfi_startproc
 672              		@ args = 0, pretend = 0, frame = 8
 673              		@ frame_needed = 1, uses_anonymous_args = 0
 674              		@ link register save eliminated.
 675 020c 80B4     		push	{r7}
 676              	.LCFI55:
 677              		.cfi_def_cfa_offset 4
 678              		.cfi_offset 7, -4
 679 020e 83B0     		sub	sp, sp, #12
 680              	.LCFI56:
 681              		.cfi_def_cfa_offset 16
 682 0210 00AF     		add	r7, sp, #0
 683              	.LCFI57:
 684              		.cfi_def_cfa_register 7
 685 0212 0346     		mov	r3, r0
 686 0214 FB80     		strh	r3, [r7, #6]	@ movhi
 275:../../source/src/FWlib/src/stm32f10x_rtc.c ****   /* Check the parameters */
 276:../../source/src/FWlib/src/stm32f10x_rtc.c ****   assert_param(IS_RTC_CLEAR_FLAG(RTC_FLAG)); 
 277:../../source/src/FWlib/src/stm32f10x_rtc.c ****     
 278:../../source/src/FWlib/src/stm32f10x_rtc.c ****   /* Clear the corresponding RTC flag */
 279:../../source/src/FWlib/src/stm32f10x_rtc.c ****   RTC->CRL &= (uint16_t)~RTC_FLAG;
 687              		.loc 1 279 0
 688 0216 074B     		ldr	r3, .L45
 689 0218 9B88     		ldrh	r3, [r3, #4]	@ movhi
ARM GAS  G:\Users\Jaxb\AppData\Local\Temp\ccJtFoVs.s 			page 18


 690 021a 9AB2     		uxth	r2, r3
 691 021c FB88     		ldrh	r3, [r7, #6]	@ movhi
 692 021e DB43     		mvns	r3, r3
 693 0220 9BB2     		uxth	r3, r3
 694 0222 0449     		ldr	r1, .L45
 695 0224 1340     		ands	r3, r3, r2
 696 0226 9BB2     		uxth	r3, r3
 697 0228 8B80     		strh	r3, [r1, #4]	@ movhi
 280:../../source/src/FWlib/src/stm32f10x_rtc.c **** }
 698              		.loc 1 280 0
 699 022a 00BF     		nop
 700 022c 0C37     		adds	r7, r7, #12
 701              	.LCFI58:
 702              		.cfi_def_cfa_offset 4
 703 022e BD46     		mov	sp, r7
 704              	.LCFI59:
 705              		.cfi_def_cfa_register 13
 706              		@ sp needed
 707 0230 80BC     		pop	{r7}
 708              	.LCFI60:
 709              		.cfi_restore 7
 710              		.cfi_def_cfa_offset 0
 711 0232 7047     		bx	lr
 712              	.L46:
 713              		.align	2
 714              	.L45:
 715 0234 00280040 		.word	1073752064
 716              		.cfi_endproc
 717              	.LFE40:
 718              		.size	RTC_ClearFlag, .-RTC_ClearFlag
 719              		.align	1
 720              		.global	RTC_GetITStatus
 721              		.syntax unified
 722              		.thumb
 723              		.thumb_func
 724              		.fpu softvfp
 725              		.type	RTC_GetITStatus, %function
 726              	RTC_GetITStatus:
 727              	.LFB41:
 281:../../source/src/FWlib/src/stm32f10x_rtc.c **** 
 282:../../source/src/FWlib/src/stm32f10x_rtc.c **** /**
 283:../../source/src/FWlib/src/stm32f10x_rtc.c ****   * @brief  Checks whether the specified RTC interrupt has occurred or not.
 284:../../source/src/FWlib/src/stm32f10x_rtc.c ****   * @param  RTC_IT: specifies the RTC interrupts sources to check.
 285:../../source/src/FWlib/src/stm32f10x_rtc.c ****   *   This parameter can be one of the following values:
 286:../../source/src/FWlib/src/stm32f10x_rtc.c ****   *     @arg RTC_IT_OW: Overflow interrupt
 287:../../source/src/FWlib/src/stm32f10x_rtc.c ****   *     @arg RTC_IT_ALR: Alarm interrupt
 288:../../source/src/FWlib/src/stm32f10x_rtc.c ****   *     @arg RTC_IT_SEC: Second interrupt
 289:../../source/src/FWlib/src/stm32f10x_rtc.c ****   * @retval The new state of the RTC_IT (SET or RESET).
 290:../../source/src/FWlib/src/stm32f10x_rtc.c ****   */
 291:../../source/src/FWlib/src/stm32f10x_rtc.c **** ITStatus RTC_GetITStatus(uint16_t RTC_IT)
 292:../../source/src/FWlib/src/stm32f10x_rtc.c **** {
 728              		.loc 1 292 0
 729              		.cfi_startproc
 730              		@ args = 0, pretend = 0, frame = 16
 731              		@ frame_needed = 1, uses_anonymous_args = 0
 732              		@ link register save eliminated.
 733 0238 80B4     		push	{r7}
ARM GAS  G:\Users\Jaxb\AppData\Local\Temp\ccJtFoVs.s 			page 19


 734              	.LCFI61:
 735              		.cfi_def_cfa_offset 4
 736              		.cfi_offset 7, -4
 737 023a 85B0     		sub	sp, sp, #20
 738              	.LCFI62:
 739              		.cfi_def_cfa_offset 24
 740 023c 00AF     		add	r7, sp, #0
 741              	.LCFI63:
 742              		.cfi_def_cfa_register 7
 743 023e 0346     		mov	r3, r0
 744 0240 FB80     		strh	r3, [r7, #6]	@ movhi
 293:../../source/src/FWlib/src/stm32f10x_rtc.c ****   ITStatus bitstatus = RESET;
 745              		.loc 1 293 0
 746 0242 0023     		movs	r3, #0
 747 0244 FB73     		strb	r3, [r7, #15]
 294:../../source/src/FWlib/src/stm32f10x_rtc.c ****   /* Check the parameters */
 295:../../source/src/FWlib/src/stm32f10x_rtc.c ****   assert_param(IS_RTC_GET_IT(RTC_IT)); 
 296:../../source/src/FWlib/src/stm32f10x_rtc.c ****   
 297:../../source/src/FWlib/src/stm32f10x_rtc.c ****   bitstatus = (ITStatus)(RTC->CRL & RTC_IT);
 748              		.loc 1 297 0
 749 0246 0F4B     		ldr	r3, .L51
 750 0248 9B88     		ldrh	r3, [r3, #4]	@ movhi
 751 024a 9BB2     		uxth	r3, r3
 752 024c DAB2     		uxtb	r2, r3
 753 024e FB88     		ldrh	r3, [r7, #6]	@ movhi
 754 0250 DBB2     		uxtb	r3, r3
 755 0252 1340     		ands	r3, r3, r2
 756 0254 FB73     		strb	r3, [r7, #15]
 298:../../source/src/FWlib/src/stm32f10x_rtc.c ****   if (((RTC->CRH & RTC_IT) != (uint16_t)RESET) && (bitstatus != (uint16_t)RESET))
 757              		.loc 1 298 0
 758 0256 0B4B     		ldr	r3, .L51
 759 0258 1B88     		ldrh	r3, [r3]	@ movhi
 760 025a 9AB2     		uxth	r2, r3
 761 025c FB88     		ldrh	r3, [r7, #6]	@ movhi
 762 025e 1340     		ands	r3, r3, r2
 763 0260 9BB2     		uxth	r3, r3
 764 0262 002B     		cmp	r3, #0
 765 0264 05D0     		beq	.L48
 766              		.loc 1 298 0 is_stmt 0 discriminator 1
 767 0266 FB7B     		ldrb	r3, [r7, #15]	@ zero_extendqisi2
 768 0268 002B     		cmp	r3, #0
 769 026a 02D0     		beq	.L48
 299:../../source/src/FWlib/src/stm32f10x_rtc.c ****   {
 300:../../source/src/FWlib/src/stm32f10x_rtc.c ****     bitstatus = SET;
 770              		.loc 1 300 0 is_stmt 1
 771 026c 0123     		movs	r3, #1
 772 026e FB73     		strb	r3, [r7, #15]
 773 0270 01E0     		b	.L49
 774              	.L48:
 301:../../source/src/FWlib/src/stm32f10x_rtc.c ****   }
 302:../../source/src/FWlib/src/stm32f10x_rtc.c ****   else
 303:../../source/src/FWlib/src/stm32f10x_rtc.c ****   {
 304:../../source/src/FWlib/src/stm32f10x_rtc.c ****     bitstatus = RESET;
 775              		.loc 1 304 0
 776 0272 0023     		movs	r3, #0
 777 0274 FB73     		strb	r3, [r7, #15]
 778              	.L49:
ARM GAS  G:\Users\Jaxb\AppData\Local\Temp\ccJtFoVs.s 			page 20


 305:../../source/src/FWlib/src/stm32f10x_rtc.c ****   }
 306:../../source/src/FWlib/src/stm32f10x_rtc.c ****   return bitstatus;
 779              		.loc 1 306 0
 780 0276 FB7B     		ldrb	r3, [r7, #15]	@ zero_extendqisi2
 307:../../source/src/FWlib/src/stm32f10x_rtc.c **** }
 781              		.loc 1 307 0
 782 0278 1846     		mov	r0, r3
 783 027a 1437     		adds	r7, r7, #20
 784              	.LCFI64:
 785              		.cfi_def_cfa_offset 4
 786 027c BD46     		mov	sp, r7
 787              	.LCFI65:
 788              		.cfi_def_cfa_register 13
 789              		@ sp needed
 790 027e 80BC     		pop	{r7}
 791              	.LCFI66:
 792              		.cfi_restore 7
 793              		.cfi_def_cfa_offset 0
 794 0280 7047     		bx	lr
 795              	.L52:
 796 0282 00BF     		.align	2
 797              	.L51:
 798 0284 00280040 		.word	1073752064
 799              		.cfi_endproc
 800              	.LFE41:
 801              		.size	RTC_GetITStatus, .-RTC_GetITStatus
 802              		.align	1
 803              		.global	RTC_ClearITPendingBit
 804              		.syntax unified
 805              		.thumb
 806              		.thumb_func
 807              		.fpu softvfp
 808              		.type	RTC_ClearITPendingBit, %function
 809              	RTC_ClearITPendingBit:
 810              	.LFB42:
 308:../../source/src/FWlib/src/stm32f10x_rtc.c **** 
 309:../../source/src/FWlib/src/stm32f10x_rtc.c **** /**
 310:../../source/src/FWlib/src/stm32f10x_rtc.c ****   * @brief  Clears the RTC's interrupt pending bits.
 311:../../source/src/FWlib/src/stm32f10x_rtc.c ****   * @param  RTC_IT: specifies the interrupt pending bit to clear.
 312:../../source/src/FWlib/src/stm32f10x_rtc.c ****   *   This parameter can be any combination of the following values:
 313:../../source/src/FWlib/src/stm32f10x_rtc.c ****   *     @arg RTC_IT_OW: Overflow interrupt
 314:../../source/src/FWlib/src/stm32f10x_rtc.c ****   *     @arg RTC_IT_ALR: Alarm interrupt
 315:../../source/src/FWlib/src/stm32f10x_rtc.c ****   *     @arg RTC_IT_SEC: Second interrupt
 316:../../source/src/FWlib/src/stm32f10x_rtc.c ****   * @retval None
 317:../../source/src/FWlib/src/stm32f10x_rtc.c ****   */
 318:../../source/src/FWlib/src/stm32f10x_rtc.c **** void RTC_ClearITPendingBit(uint16_t RTC_IT)
 319:../../source/src/FWlib/src/stm32f10x_rtc.c **** {
 811              		.loc 1 319 0
 812              		.cfi_startproc
 813              		@ args = 0, pretend = 0, frame = 8
 814              		@ frame_needed = 1, uses_anonymous_args = 0
 815              		@ link register save eliminated.
 816 0288 80B4     		push	{r7}
 817              	.LCFI67:
 818              		.cfi_def_cfa_offset 4
 819              		.cfi_offset 7, -4
 820 028a 83B0     		sub	sp, sp, #12
ARM GAS  G:\Users\Jaxb\AppData\Local\Temp\ccJtFoVs.s 			page 21


 821              	.LCFI68:
 822              		.cfi_def_cfa_offset 16
 823 028c 00AF     		add	r7, sp, #0
 824              	.LCFI69:
 825              		.cfi_def_cfa_register 7
 826 028e 0346     		mov	r3, r0
 827 0290 FB80     		strh	r3, [r7, #6]	@ movhi
 320:../../source/src/FWlib/src/stm32f10x_rtc.c ****   /* Check the parameters */
 321:../../source/src/FWlib/src/stm32f10x_rtc.c ****   assert_param(IS_RTC_IT(RTC_IT));  
 322:../../source/src/FWlib/src/stm32f10x_rtc.c ****   
 323:../../source/src/FWlib/src/stm32f10x_rtc.c ****   /* Clear the corresponding RTC pending bit */
 324:../../source/src/FWlib/src/stm32f10x_rtc.c ****   RTC->CRL &= (uint16_t)~RTC_IT;
 828              		.loc 1 324 0
 829 0292 074B     		ldr	r3, .L54
 830 0294 9B88     		ldrh	r3, [r3, #4]	@ movhi
 831 0296 9AB2     		uxth	r2, r3
 832 0298 FB88     		ldrh	r3, [r7, #6]	@ movhi
 833 029a DB43     		mvns	r3, r3
 834 029c 9BB2     		uxth	r3, r3
 835 029e 0449     		ldr	r1, .L54
 836 02a0 1340     		ands	r3, r3, r2
 837 02a2 9BB2     		uxth	r3, r3
 838 02a4 8B80     		strh	r3, [r1, #4]	@ movhi
 325:../../source/src/FWlib/src/stm32f10x_rtc.c **** }
 839              		.loc 1 325 0
 840 02a6 00BF     		nop
 841 02a8 0C37     		adds	r7, r7, #12
 842              	.LCFI70:
 843              		.cfi_def_cfa_offset 4
 844 02aa BD46     		mov	sp, r7
 845              	.LCFI71:
 846              		.cfi_def_cfa_register 13
 847              		@ sp needed
 848 02ac 80BC     		pop	{r7}
 849              	.LCFI72:
 850              		.cfi_restore 7
 851              		.cfi_def_cfa_offset 0
 852 02ae 7047     		bx	lr
 853              	.L55:
 854              		.align	2
 855              	.L54:
 856 02b0 00280040 		.word	1073752064
 857              		.cfi_endproc
 858              	.LFE42:
 859              		.size	RTC_ClearITPendingBit, .-RTC_ClearITPendingBit
 860              	.Letext0:
 861              		.file 2 "f:\\arm\\gcc2018\\arm-none-eabi\\include\\machine\\_default_types.h"
 862              		.file 3 "f:\\arm\\gcc2018\\arm-none-eabi\\include\\sys\\_stdint.h"
 863              		.file 4 "../../source/include/core_cm3.h"
 864              		.file 5 "../../source/include/system_stm32f10x.h"
 865              		.file 6 "../../source/include/stm32f10x.h"
 866              		.section	.debug_info,"",%progbits
 867              	.Ldebug_info0:
 868 0000 9A040000 		.4byte	0x49a
 869 0004 0200     		.2byte	0x2
 870 0006 00000000 		.4byte	.Ldebug_abbrev0
 871 000a 04       		.byte	0x4
ARM GAS  G:\Users\Jaxb\AppData\Local\Temp\ccJtFoVs.s 			page 22


 872 000b 01       		.uleb128 0x1
 873 000c 10030000 		.4byte	.LASF62
 874 0010 0C       		.byte	0xc
 875 0011 5F000000 		.4byte	.LASF63
 876 0015 13010000 		.4byte	.LASF64
 877 0019 00000000 		.4byte	.Ltext0
 878 001d B4020000 		.4byte	.Letext0
 879 0021 00000000 		.4byte	.Ldebug_line0
 880 0025 02       		.uleb128 0x2
 881 0026 01       		.byte	0x1
 882 0027 06       		.byte	0x6
 883 0028 E5000000 		.4byte	.LASF0
 884 002c 03       		.uleb128 0x3
 885 002d 61010000 		.4byte	.LASF3
 886 0031 02       		.byte	0x2
 887 0032 2B       		.byte	0x2b
 888 0033 37000000 		.4byte	0x37
 889 0037 02       		.uleb128 0x2
 890 0038 01       		.byte	0x1
 891 0039 08       		.byte	0x8
 892 003a 89010000 		.4byte	.LASF1
 893 003e 02       		.uleb128 0x2
 894 003f 02       		.byte	0x2
 895 0040 05       		.byte	0x5
 896 0041 A3000000 		.4byte	.LASF2
 897 0045 03       		.uleb128 0x3
 898 0046 98000000 		.4byte	.LASF4
 899 004a 02       		.byte	0x2
 900 004b 39       		.byte	0x39
 901 004c 50000000 		.4byte	0x50
 902 0050 02       		.uleb128 0x2
 903 0051 02       		.byte	0x2
 904 0052 07       		.byte	0x7
 905 0053 15020000 		.4byte	.LASF5
 906 0057 02       		.uleb128 0x2
 907 0058 04       		.byte	0x4
 908 0059 05       		.byte	0x5
 909 005a 58010000 		.4byte	.LASF6
 910 005e 03       		.uleb128 0x3
 911 005f 54000000 		.4byte	.LASF7
 912 0063 02       		.byte	0x2
 913 0064 4F       		.byte	0x4f
 914 0065 69000000 		.4byte	0x69
 915 0069 02       		.uleb128 0x2
 916 006a 04       		.byte	0x4
 917 006b 07       		.byte	0x7
 918 006c F8010000 		.4byte	.LASF8
 919 0070 02       		.uleb128 0x2
 920 0071 08       		.byte	0x8
 921 0072 05       		.byte	0x5
 922 0073 41010000 		.4byte	.LASF9
 923 0077 02       		.uleb128 0x2
 924 0078 08       		.byte	0x8
 925 0079 07       		.byte	0x7
 926 007a C2010000 		.4byte	.LASF10
 927 007e 04       		.uleb128 0x4
 928 007f 04       		.byte	0x4
ARM GAS  G:\Users\Jaxb\AppData\Local\Temp\ccJtFoVs.s 			page 23


 929 0080 05       		.byte	0x5
 930 0081 696E7400 		.ascii	"int\000"
 931 0085 05       		.uleb128 0x5
 932 0086 7E000000 		.4byte	0x7e
 933 008a 02       		.uleb128 0x2
 934 008b 04       		.byte	0x4
 935 008c 07       		.byte	0x7
 936 008d E2010000 		.4byte	.LASF11
 937 0091 03       		.uleb128 0x3
 938 0092 AD000000 		.4byte	.LASF12
 939 0096 03       		.byte	0x3
 940 0097 18       		.byte	0x18
 941 0098 2C000000 		.4byte	0x2c
 942 009c 03       		.uleb128 0x3
 943 009d EF010000 		.4byte	.LASF13
 944 00a1 03       		.byte	0x3
 945 00a2 24       		.byte	0x24
 946 00a3 45000000 		.4byte	0x45
 947 00a7 05       		.uleb128 0x5
 948 00a8 9C000000 		.4byte	0x9c
 949 00ac 03       		.uleb128 0x3
 950 00ad D9010000 		.4byte	.LASF14
 951 00b1 03       		.byte	0x3
 952 00b2 30       		.byte	0x30
 953 00b3 5E000000 		.4byte	0x5e
 954 00b7 06       		.uleb128 0x6
 955 00b8 C2030000 		.4byte	.LASF15
 956 00bc 04       		.byte	0x4
 957 00bd CE06     		.2byte	0x6ce
 958 00bf 85000000 		.4byte	0x85
 959 00c3 01       		.byte	0x1
 960 00c4 01       		.byte	0x1
 961 00c5 07       		.uleb128 0x7
 962 00c6 3B020000 		.4byte	.LASF16
 963 00ca 05       		.byte	0x5
 964 00cb 35       		.byte	0x35
 965 00cc AC000000 		.4byte	0xac
 966 00d0 01       		.byte	0x1
 967 00d1 01       		.byte	0x1
 968 00d2 08       		.uleb128 0x8
 969 00d3 07       		.byte	0x7
 970 00d4 01       		.byte	0x1
 971 00d5 37000000 		.4byte	0x37
 972 00d9 06       		.byte	0x6
 973 00da 0702     		.2byte	0x207
 974 00dc ED000000 		.4byte	0xed
 975 00e0 09       		.uleb128 0x9
 976 00e1 F6020000 		.4byte	.LASF17
 977 00e5 00       		.byte	0
 978 00e6 0A       		.uleb128 0xa
 979 00e7 53455400 		.ascii	"SET\000"
 980 00eb 01       		.byte	0x1
 981 00ec 00       		.byte	0
 982 00ed 0B       		.uleb128 0xb
 983 00ee CF030000 		.4byte	.LASF18
 984 00f2 06       		.byte	0x6
 985 00f3 0702     		.2byte	0x207
ARM GAS  G:\Users\Jaxb\AppData\Local\Temp\ccJtFoVs.s 			page 24


 986 00f5 D2000000 		.4byte	0xd2
 987 00f9 0B       		.uleb128 0xb
 988 00fa 4F010000 		.4byte	.LASF19
 989 00fe 06       		.byte	0x6
 990 00ff 0702     		.2byte	0x207
 991 0101 D2000000 		.4byte	0xd2
 992 0105 08       		.uleb128 0x8
 993 0106 07       		.byte	0x7
 994 0107 01       		.byte	0x1
 995 0108 37000000 		.4byte	0x37
 996 010c 06       		.byte	0x6
 997 010d 0902     		.2byte	0x209
 998 010f 20010000 		.4byte	0x120
 999 0113 09       		.uleb128 0x9
 1000 0114 C7000000 		.4byte	.LASF20
 1001 0118 00       		.byte	0
 1002 0119 09       		.uleb128 0x9
 1003 011a DA030000 		.4byte	.LASF21
 1004 011e 01       		.byte	0x1
 1005 011f 00       		.byte	0
 1006 0120 0B       		.uleb128 0xb
 1007 0121 CD020000 		.4byte	.LASF22
 1008 0125 06       		.byte	0x6
 1009 0126 0902     		.2byte	0x209
 1010 0128 05010000 		.4byte	0x105
 1011 012c 0C       		.uleb128 0xc
 1012 012d 28       		.byte	0x28
 1013 012e 06       		.byte	0x6
 1014 012f 5004     		.2byte	0x450
 1015 0131 62020000 		.4byte	0x262
 1016 0135 0D       		.uleb128 0xd
 1017 0136 43524800 		.ascii	"CRH\000"
 1018 013a 06       		.byte	0x6
 1019 013b 5204     		.2byte	0x452
 1020 013d A7000000 		.4byte	0xa7
 1021 0141 02       		.byte	0x2
 1022 0142 23       		.byte	0x23
 1023 0143 00       		.uleb128 0
 1024 0144 0E       		.uleb128 0xe
 1025 0145 5C020000 		.4byte	.LASF23
 1026 0149 06       		.byte	0x6
 1027 014a 5304     		.2byte	0x453
 1028 014c 9C000000 		.4byte	0x9c
 1029 0150 02       		.byte	0x2
 1030 0151 23       		.byte	0x23
 1031 0152 02       		.uleb128 0x2
 1032 0153 0D       		.uleb128 0xd
 1033 0154 43524C00 		.ascii	"CRL\000"
 1034 0158 06       		.byte	0x6
 1035 0159 5404     		.2byte	0x454
 1036 015b A7000000 		.4byte	0xa7
 1037 015f 02       		.byte	0x2
 1038 0160 23       		.byte	0x23
 1039 0161 04       		.uleb128 0x4
 1040 0162 0E       		.uleb128 0xe
 1041 0163 66020000 		.4byte	.LASF24
 1042 0167 06       		.byte	0x6
ARM GAS  G:\Users\Jaxb\AppData\Local\Temp\ccJtFoVs.s 			page 25


 1043 0168 5504     		.2byte	0x455
 1044 016a 9C000000 		.4byte	0x9c
 1045 016e 02       		.byte	0x2
 1046 016f 23       		.byte	0x23
 1047 0170 06       		.uleb128 0x6
 1048 0171 0E       		.uleb128 0xe
 1049 0172 A9010000 		.4byte	.LASF25
 1050 0176 06       		.byte	0x6
 1051 0177 5604     		.2byte	0x456
 1052 0179 A7000000 		.4byte	0xa7
 1053 017d 02       		.byte	0x2
 1054 017e 23       		.byte	0x23
 1055 017f 08       		.uleb128 0x8
 1056 0180 0E       		.uleb128 0xe
 1057 0181 70020000 		.4byte	.LASF26
 1058 0185 06       		.byte	0x6
 1059 0186 5704     		.2byte	0x457
 1060 0188 9C000000 		.4byte	0x9c
 1061 018c 02       		.byte	0x2
 1062 018d 23       		.byte	0x23
 1063 018e 0A       		.uleb128 0xa
 1064 018f 0E       		.uleb128 0xe
 1065 0190 AE010000 		.4byte	.LASF27
 1066 0194 06       		.byte	0x6
 1067 0195 5804     		.2byte	0x458
 1068 0197 A7000000 		.4byte	0xa7
 1069 019b 02       		.byte	0x2
 1070 019c 23       		.byte	0x23
 1071 019d 0C       		.uleb128 0xc
 1072 019e 0E       		.uleb128 0xe
 1073 019f 7A020000 		.4byte	.LASF28
 1074 01a3 06       		.byte	0x6
 1075 01a4 5904     		.2byte	0x459
 1076 01a6 9C000000 		.4byte	0x9c
 1077 01aa 02       		.byte	0x2
 1078 01ab 23       		.byte	0x23
 1079 01ac 0E       		.uleb128 0xe
 1080 01ad 0E       		.uleb128 0xe
 1081 01ae 1E000000 		.4byte	.LASF29
 1082 01b2 06       		.byte	0x6
 1083 01b3 5A04     		.2byte	0x45a
 1084 01b5 A7000000 		.4byte	0xa7
 1085 01b9 02       		.byte	0x2
 1086 01ba 23       		.byte	0x23
 1087 01bb 10       		.uleb128 0x10
 1088 01bc 0E       		.uleb128 0xe
 1089 01bd 84020000 		.4byte	.LASF30
 1090 01c1 06       		.byte	0x6
 1091 01c2 5B04     		.2byte	0x45b
 1092 01c4 9C000000 		.4byte	0x9c
 1093 01c8 02       		.byte	0x2
 1094 01c9 23       		.byte	0x23
 1095 01ca 12       		.uleb128 0x12
 1096 01cb 0E       		.uleb128 0xe
 1097 01cc 23000000 		.4byte	.LASF31
 1098 01d0 06       		.byte	0x6
 1099 01d1 5C04     		.2byte	0x45c
ARM GAS  G:\Users\Jaxb\AppData\Local\Temp\ccJtFoVs.s 			page 26


 1100 01d3 A7000000 		.4byte	0xa7
 1101 01d7 02       		.byte	0x2
 1102 01d8 23       		.byte	0x23
 1103 01d9 14       		.uleb128 0x14
 1104 01da 0E       		.uleb128 0xe
 1105 01db 8E020000 		.4byte	.LASF32
 1106 01df 06       		.byte	0x6
 1107 01e0 5D04     		.2byte	0x45d
 1108 01e2 9C000000 		.4byte	0x9c
 1109 01e6 02       		.byte	0x2
 1110 01e7 23       		.byte	0x23
 1111 01e8 16       		.uleb128 0x16
 1112 01e9 0E       		.uleb128 0xe
 1113 01ea 57020000 		.4byte	.LASF33
 1114 01ee 06       		.byte	0x6
 1115 01ef 5E04     		.2byte	0x45e
 1116 01f1 A7000000 		.4byte	0xa7
 1117 01f5 02       		.byte	0x2
 1118 01f6 23       		.byte	0x23
 1119 01f7 18       		.uleb128 0x18
 1120 01f8 0E       		.uleb128 0xe
 1121 01f9 98020000 		.4byte	.LASF34
 1122 01fd 06       		.byte	0x6
 1123 01fe 5F04     		.2byte	0x45f
 1124 0200 9C000000 		.4byte	0x9c
 1125 0204 02       		.byte	0x2
 1126 0205 23       		.byte	0x23
 1127 0206 1A       		.uleb128 0x1a
 1128 0207 0E       		.uleb128 0xe
 1129 0208 F1020000 		.4byte	.LASF35
 1130 020c 06       		.byte	0x6
 1131 020d 6004     		.2byte	0x460
 1132 020f A7000000 		.4byte	0xa7
 1133 0213 02       		.byte	0x2
 1134 0214 23       		.byte	0x23
 1135 0215 1C       		.uleb128 0x1c
 1136 0216 0E       		.uleb128 0xe
 1137 0217 C3020000 		.4byte	.LASF36
 1138 021b 06       		.byte	0x6
 1139 021c 6104     		.2byte	0x461
 1140 021e 9C000000 		.4byte	0x9c
 1141 0222 02       		.byte	0x2
 1142 0223 23       		.byte	0x23
 1143 0224 1E       		.uleb128 0x1e
 1144 0225 0E       		.uleb128 0xe
 1145 0226 0B030000 		.4byte	.LASF37
 1146 022a 06       		.byte	0x6
 1147 022b 6204     		.2byte	0x462
 1148 022d A7000000 		.4byte	0xa7
 1149 0231 02       		.byte	0x2
 1150 0232 23       		.byte	0x23
 1151 0233 20       		.uleb128 0x20
 1152 0234 0E       		.uleb128 0xe
 1153 0235 AF020000 		.4byte	.LASF38
 1154 0239 06       		.byte	0x6
 1155 023a 6304     		.2byte	0x463
 1156 023c 9C000000 		.4byte	0x9c
ARM GAS  G:\Users\Jaxb\AppData\Local\Temp\ccJtFoVs.s 			page 27


 1157 0240 02       		.byte	0x2
 1158 0241 23       		.byte	0x23
 1159 0242 22       		.uleb128 0x22
 1160 0243 0E       		.uleb128 0xe
 1161 0244 B6030000 		.4byte	.LASF39
 1162 0248 06       		.byte	0x6
 1163 0249 6404     		.2byte	0x464
 1164 024b A7000000 		.4byte	0xa7
 1165 024f 02       		.byte	0x2
 1166 0250 23       		.byte	0x23
 1167 0251 24       		.uleb128 0x24
 1168 0252 0E       		.uleb128 0xe
 1169 0253 B9020000 		.4byte	.LASF40
 1170 0257 06       		.byte	0x6
 1171 0258 6504     		.2byte	0x465
 1172 025a 9C000000 		.4byte	0x9c
 1173 025e 02       		.byte	0x2
 1174 025f 23       		.byte	0x23
 1175 0260 26       		.uleb128 0x26
 1176 0261 00       		.byte	0
 1177 0262 0B       		.uleb128 0xb
 1178 0263 4B020000 		.4byte	.LASF41
 1179 0267 06       		.byte	0x6
 1180 0268 6604     		.2byte	0x466
 1181 026a 2C010000 		.4byte	0x12c
 1182 026e 0F       		.uleb128 0xf
 1183 026f 01       		.byte	0x1
 1184 0270 CF000000 		.4byte	.LASF43
 1185 0274 01       		.byte	0x1
 1186 0275 3E01     		.2byte	0x13e
 1187 0277 01       		.byte	0x1
 1188 0278 88020000 		.4byte	.LFB42
 1189 027c B4020000 		.4byte	.LFE42
 1190 0280 00000000 		.4byte	.LLST13
 1191 0284 01       		.byte	0x1
 1192 0285 99020000 		.4byte	0x299
 1193 0289 10       		.uleb128 0x10
 1194 028a BB030000 		.4byte	.LASF42
 1195 028e 01       		.byte	0x1
 1196 028f 3E01     		.2byte	0x13e
 1197 0291 9C000000 		.4byte	0x9c
 1198 0295 02       		.byte	0x2
 1199 0296 91       		.byte	0x91
 1200 0297 76       		.sleb128 -10
 1201 0298 00       		.byte	0
 1202 0299 11       		.uleb128 0x11
 1203 029a 01       		.byte	0x1
 1204 029b 35000000 		.4byte	.LASF46
 1205 029f 01       		.byte	0x1
 1206 02a0 2301     		.2byte	0x123
 1207 02a2 01       		.byte	0x1
 1208 02a3 F9000000 		.4byte	0xf9
 1209 02a7 38020000 		.4byte	.LFB41
 1210 02ab 88020000 		.4byte	.LFE41
 1211 02af 5C000000 		.4byte	.LLST12
 1212 02b3 01       		.byte	0x1
 1213 02b4 D7020000 		.4byte	0x2d7
ARM GAS  G:\Users\Jaxb\AppData\Local\Temp\ccJtFoVs.s 			page 28


 1214 02b8 10       		.uleb128 0x10
 1215 02b9 BB030000 		.4byte	.LASF42
 1216 02bd 01       		.byte	0x1
 1217 02be 2301     		.2byte	0x123
 1218 02c0 9C000000 		.4byte	0x9c
 1219 02c4 02       		.byte	0x2
 1220 02c5 91       		.byte	0x91
 1221 02c6 6E       		.sleb128 -18
 1222 02c7 12       		.uleb128 0x12
 1223 02c8 7F010000 		.4byte	.LASF48
 1224 02cc 01       		.byte	0x1
 1225 02cd 2501     		.2byte	0x125
 1226 02cf F9000000 		.4byte	0xf9
 1227 02d3 02       		.byte	0x2
 1228 02d4 91       		.byte	0x91
 1229 02d5 77       		.sleb128 -9
 1230 02d6 00       		.byte	0
 1231 02d7 0F       		.uleb128 0xf
 1232 02d8 01       		.byte	0x1
 1233 02d9 8A000000 		.4byte	.LASF44
 1234 02dd 01       		.byte	0x1
 1235 02de 1101     		.2byte	0x111
 1236 02e0 01       		.byte	0x1
 1237 02e1 0C020000 		.4byte	.LFB40
 1238 02e5 38020000 		.4byte	.LFE40
 1239 02e9 B8000000 		.4byte	.LLST11
 1240 02ed 01       		.byte	0x1
 1241 02ee 02030000 		.4byte	0x302
 1242 02f2 10       		.uleb128 0x10
 1243 02f3 B5000000 		.4byte	.LASF45
 1244 02f7 01       		.byte	0x1
 1245 02f8 1101     		.2byte	0x111
 1246 02fa 9C000000 		.4byte	0x9c
 1247 02fe 02       		.byte	0x2
 1248 02ff 91       		.byte	0x91
 1249 0300 76       		.sleb128 -10
 1250 0301 00       		.byte	0
 1251 0302 13       		.uleb128 0x13
 1252 0303 01       		.byte	0x1
 1253 0304 97010000 		.4byte	.LASF47
 1254 0308 01       		.byte	0x1
 1255 0309 F4       		.byte	0xf4
 1256 030a 01       		.byte	0x1
 1257 030b ED000000 		.4byte	0xed
 1258 030f D4010000 		.4byte	.LFB39
 1259 0313 0C020000 		.4byte	.LFE39
 1260 0317 14010000 		.4byte	.LLST10
 1261 031b 01       		.byte	0x1
 1262 031c 3D030000 		.4byte	0x33d
 1263 0320 14       		.uleb128 0x14
 1264 0321 B5000000 		.4byte	.LASF45
 1265 0325 01       		.byte	0x1
 1266 0326 F4       		.byte	0xf4
 1267 0327 9C000000 		.4byte	0x9c
 1268 032b 02       		.byte	0x2
 1269 032c 91       		.byte	0x91
 1270 032d 6E       		.sleb128 -18
ARM GAS  G:\Users\Jaxb\AppData\Local\Temp\ccJtFoVs.s 			page 29


 1271 032e 15       		.uleb128 0x15
 1272 032f 7F010000 		.4byte	.LASF48
 1273 0333 01       		.byte	0x1
 1274 0334 F6       		.byte	0xf6
 1275 0335 ED000000 		.4byte	0xed
 1276 0339 02       		.byte	0x2
 1277 033a 91       		.byte	0x91
 1278 033b 77       		.sleb128 -9
 1279 033c 00       		.byte	0
 1280 033d 16       		.uleb128 0x16
 1281 033e 01       		.byte	0x1
 1282 033f F1000000 		.4byte	.LASF49
 1283 0343 01       		.byte	0x1
 1284 0344 DF       		.byte	0xdf
 1285 0345 01       		.byte	0x1
 1286 0346 A4010000 		.4byte	.LFB38
 1287 034a D4010000 		.4byte	.LFE38
 1288 034e 70010000 		.4byte	.LLST9
 1289 0352 01       		.byte	0x1
 1290 0353 16       		.uleb128 0x16
 1291 0354 01       		.byte	0x1
 1292 0355 6B010000 		.4byte	.LASF50
 1293 0359 01       		.byte	0x1
 1294 035a CF       		.byte	0xcf
 1295 035b 01       		.byte	0x1
 1296 035c 84010000 		.4byte	.LFB37
 1297 0360 A4010000 		.4byte	.LFE37
 1298 0364 B4010000 		.4byte	.LLST8
 1299 0368 01       		.byte	0x1
 1300 0369 13       		.uleb128 0x13
 1301 036a 01       		.byte	0x1
 1302 036b 04010000 		.4byte	.LASF51
 1303 036f 01       		.byte	0x1
 1304 0370 C1       		.byte	0xc1
 1305 0371 01       		.byte	0x1
 1306 0372 AC000000 		.4byte	0xac
 1307 0376 4C010000 		.4byte	.LFB36
 1308 037a 84010000 		.4byte	.LFE36
 1309 037e F8010000 		.4byte	.LLST7
 1310 0382 01       		.byte	0x1
 1311 0383 96030000 		.4byte	0x396
 1312 0387 17       		.uleb128 0x17
 1313 0388 746D7000 		.ascii	"tmp\000"
 1314 038c 01       		.byte	0x1
 1315 038d C3       		.byte	0xc3
 1316 038e AC000000 		.4byte	0xac
 1317 0392 02       		.byte	0x2
 1318 0393 91       		.byte	0x91
 1319 0394 74       		.sleb128 -12
 1320 0395 00       		.byte	0
 1321 0396 18       		.uleb128 0x18
 1322 0397 01       		.byte	0x1
 1323 0398 A2020000 		.4byte	.LASF52
 1324 039c 01       		.byte	0x1
 1325 039d B2       		.byte	0xb2
 1326 039e 01       		.byte	0x1
 1327 039f 1C010000 		.4byte	.LFB35
ARM GAS  G:\Users\Jaxb\AppData\Local\Temp\ccJtFoVs.s 			page 30


 1328 03a3 4C010000 		.4byte	.LFE35
 1329 03a7 54020000 		.4byte	.LLST6
 1330 03ab 01       		.byte	0x1
 1331 03ac BF030000 		.4byte	0x3bf
 1332 03b0 14       		.uleb128 0x14
 1333 03b1 0A020000 		.4byte	.LASF53
 1334 03b5 01       		.byte	0x1
 1335 03b6 B2       		.byte	0xb2
 1336 03b7 AC000000 		.4byte	0xac
 1337 03bb 02       		.byte	0x2
 1338 03bc 91       		.byte	0x91
 1339 03bd 74       		.sleb128 -12
 1340 03be 00       		.byte	0
 1341 03bf 18       		.uleb128 0x18
 1342 03c0 01       		.byte	0x1
 1343 03c1 00000000 		.4byte	.LASF54
 1344 03c5 01       		.byte	0x1
 1345 03c6 A0       		.byte	0xa0
 1346 03c7 01       		.byte	0x1
 1347 03c8 E8000000 		.4byte	.LFB34
 1348 03cc 1C010000 		.4byte	.LFE34
 1349 03d0 A4020000 		.4byte	.LLST5
 1350 03d4 01       		.byte	0x1
 1351 03d5 E8030000 		.4byte	0x3e8
 1352 03d9 14       		.uleb128 0x14
 1353 03da B3010000 		.4byte	.LASF55
 1354 03de 01       		.byte	0x1
 1355 03df A0       		.byte	0xa0
 1356 03e0 AC000000 		.4byte	0xac
 1357 03e4 02       		.byte	0x2
 1358 03e5 91       		.byte	0x91
 1359 03e6 74       		.sleb128 -12
 1360 03e7 00       		.byte	0
 1361 03e8 18       		.uleb128 0x18
 1362 03e9 01       		.byte	0x1
 1363 03ea 45000000 		.4byte	.LASF56
 1364 03ee 01       		.byte	0x1
 1365 03ef 91       		.byte	0x91
 1366 03f0 01       		.byte	0x1
 1367 03f1 B8000000 		.4byte	.LFB33
 1368 03f5 E8000000 		.4byte	.LFE33
 1369 03f9 F4020000 		.4byte	.LLST4
 1370 03fd 01       		.byte	0x1
 1371 03fe 11040000 		.4byte	0x411
 1372 0402 14       		.uleb128 0x14
 1373 0403 28000000 		.4byte	.LASF57
 1374 0407 01       		.byte	0x1
 1375 0408 91       		.byte	0x91
 1376 0409 AC000000 		.4byte	0xac
 1377 040d 02       		.byte	0x2
 1378 040e 91       		.byte	0x91
 1379 040f 74       		.sleb128 -12
 1380 0410 00       		.byte	0
 1381 0411 13       		.uleb128 0x13
 1382 0412 01       		.byte	0x1
 1383 0413 FC020000 		.4byte	.LASF58
 1384 0417 01       		.byte	0x1
ARM GAS  G:\Users\Jaxb\AppData\Local\Temp\ccJtFoVs.s 			page 31


 1385 0418 85       		.byte	0x85
 1386 0419 01       		.byte	0x1
 1387 041a AC000000 		.4byte	0xac
 1388 041e 8C000000 		.4byte	.LFB32
 1389 0422 B8000000 		.4byte	.LFE32
 1390 0426 44030000 		.4byte	.LLST3
 1391 042a 01       		.byte	0x1
 1392 042b 3E040000 		.4byte	0x43e
 1393 042f 17       		.uleb128 0x17
 1394 0430 746D7000 		.ascii	"tmp\000"
 1395 0434 01       		.byte	0x1
 1396 0435 87       		.byte	0x87
 1397 0436 9C000000 		.4byte	0x9c
 1398 043a 02       		.byte	0x2
 1399 043b 91       		.byte	0x91
 1400 043c 76       		.sleb128 -10
 1401 043d 00       		.byte	0
 1402 043e 16       		.uleb128 0x16
 1403 043f 01       		.byte	0x1
 1404 0440 28020000 		.4byte	.LASF59
 1405 0444 01       		.byte	0x1
 1406 0445 7A       		.byte	0x7a
 1407 0446 01       		.byte	0x1
 1408 0447 6C000000 		.4byte	.LFB31
 1409 044b 8C000000 		.4byte	.LFE31
 1410 044f A0030000 		.4byte	.LLST2
 1411 0453 01       		.byte	0x1
 1412 0454 16       		.uleb128 0x16
 1413 0455 01       		.byte	0x1
 1414 0456 DD020000 		.4byte	.LASF60
 1415 045a 01       		.byte	0x1
 1416 045b 6F       		.byte	0x6f
 1417 045c 01       		.byte	0x1
 1418 045d 4C000000 		.4byte	.LFB30
 1419 0461 6C000000 		.4byte	.LFE30
 1420 0465 E4030000 		.4byte	.LLST1
 1421 0469 01       		.byte	0x1
 1422 046a 19       		.uleb128 0x19
 1423 046b 01       		.byte	0x1
 1424 046c 11000000 		.4byte	.LASF65
 1425 0470 01       		.byte	0x1
 1426 0471 5A       		.byte	0x5a
 1427 0472 01       		.byte	0x1
 1428 0473 00000000 		.4byte	.LFB29
 1429 0477 4C000000 		.4byte	.LFE29
 1430 047b 28040000 		.4byte	.LLST0
 1431 047f 01       		.byte	0x1
 1432 0480 14       		.uleb128 0x14
 1433 0481 BB030000 		.4byte	.LASF42
 1434 0485 01       		.byte	0x1
 1435 0486 5A       		.byte	0x5a
 1436 0487 9C000000 		.4byte	0x9c
 1437 048b 02       		.byte	0x2
 1438 048c 91       		.byte	0x91
 1439 048d 76       		.sleb128 -10
 1440 048e 14       		.uleb128 0x14
 1441 048f BE000000 		.4byte	.LASF61
ARM GAS  G:\Users\Jaxb\AppData\Local\Temp\ccJtFoVs.s 			page 32


 1442 0493 01       		.byte	0x1
 1443 0494 5A       		.byte	0x5a
 1444 0495 20010000 		.4byte	0x120
 1445 0499 02       		.byte	0x2
 1446 049a 91       		.byte	0x91
 1447 049b 75       		.sleb128 -11
 1448 049c 00       		.byte	0
 1449 049d 00       		.byte	0
 1450              		.section	.debug_abbrev,"",%progbits
 1451              	.Ldebug_abbrev0:
 1452 0000 01       		.uleb128 0x1
 1453 0001 11       		.uleb128 0x11
 1454 0002 01       		.byte	0x1
 1455 0003 25       		.uleb128 0x25
 1456 0004 0E       		.uleb128 0xe
 1457 0005 13       		.uleb128 0x13
 1458 0006 0B       		.uleb128 0xb
 1459 0007 03       		.uleb128 0x3
 1460 0008 0E       		.uleb128 0xe
 1461 0009 1B       		.uleb128 0x1b
 1462 000a 0E       		.uleb128 0xe
 1463 000b 11       		.uleb128 0x11
 1464 000c 01       		.uleb128 0x1
 1465 000d 12       		.uleb128 0x12
 1466 000e 01       		.uleb128 0x1
 1467 000f 10       		.uleb128 0x10
 1468 0010 06       		.uleb128 0x6
 1469 0011 00       		.byte	0
 1470 0012 00       		.byte	0
 1471 0013 02       		.uleb128 0x2
 1472 0014 24       		.uleb128 0x24
 1473 0015 00       		.byte	0
 1474 0016 0B       		.uleb128 0xb
 1475 0017 0B       		.uleb128 0xb
 1476 0018 3E       		.uleb128 0x3e
 1477 0019 0B       		.uleb128 0xb
 1478 001a 03       		.uleb128 0x3
 1479 001b 0E       		.uleb128 0xe
 1480 001c 00       		.byte	0
 1481 001d 00       		.byte	0
 1482 001e 03       		.uleb128 0x3
 1483 001f 16       		.uleb128 0x16
 1484 0020 00       		.byte	0
 1485 0021 03       		.uleb128 0x3
 1486 0022 0E       		.uleb128 0xe
 1487 0023 3A       		.uleb128 0x3a
 1488 0024 0B       		.uleb128 0xb
 1489 0025 3B       		.uleb128 0x3b
 1490 0026 0B       		.uleb128 0xb
 1491 0027 49       		.uleb128 0x49
 1492 0028 13       		.uleb128 0x13
 1493 0029 00       		.byte	0
 1494 002a 00       		.byte	0
 1495 002b 04       		.uleb128 0x4
 1496 002c 24       		.uleb128 0x24
 1497 002d 00       		.byte	0
 1498 002e 0B       		.uleb128 0xb
ARM GAS  G:\Users\Jaxb\AppData\Local\Temp\ccJtFoVs.s 			page 33


 1499 002f 0B       		.uleb128 0xb
 1500 0030 3E       		.uleb128 0x3e
 1501 0031 0B       		.uleb128 0xb
 1502 0032 03       		.uleb128 0x3
 1503 0033 08       		.uleb128 0x8
 1504 0034 00       		.byte	0
 1505 0035 00       		.byte	0
 1506 0036 05       		.uleb128 0x5
 1507 0037 35       		.uleb128 0x35
 1508 0038 00       		.byte	0
 1509 0039 49       		.uleb128 0x49
 1510 003a 13       		.uleb128 0x13
 1511 003b 00       		.byte	0
 1512 003c 00       		.byte	0
 1513 003d 06       		.uleb128 0x6
 1514 003e 34       		.uleb128 0x34
 1515 003f 00       		.byte	0
 1516 0040 03       		.uleb128 0x3
 1517 0041 0E       		.uleb128 0xe
 1518 0042 3A       		.uleb128 0x3a
 1519 0043 0B       		.uleb128 0xb
 1520 0044 3B       		.uleb128 0x3b
 1521 0045 05       		.uleb128 0x5
 1522 0046 49       		.uleb128 0x49
 1523 0047 13       		.uleb128 0x13
 1524 0048 3F       		.uleb128 0x3f
 1525 0049 0C       		.uleb128 0xc
 1526 004a 3C       		.uleb128 0x3c
 1527 004b 0C       		.uleb128 0xc
 1528 004c 00       		.byte	0
 1529 004d 00       		.byte	0
 1530 004e 07       		.uleb128 0x7
 1531 004f 34       		.uleb128 0x34
 1532 0050 00       		.byte	0
 1533 0051 03       		.uleb128 0x3
 1534 0052 0E       		.uleb128 0xe
 1535 0053 3A       		.uleb128 0x3a
 1536 0054 0B       		.uleb128 0xb
 1537 0055 3B       		.uleb128 0x3b
 1538 0056 0B       		.uleb128 0xb
 1539 0057 49       		.uleb128 0x49
 1540 0058 13       		.uleb128 0x13
 1541 0059 3F       		.uleb128 0x3f
 1542 005a 0C       		.uleb128 0xc
 1543 005b 3C       		.uleb128 0x3c
 1544 005c 0C       		.uleb128 0xc
 1545 005d 00       		.byte	0
 1546 005e 00       		.byte	0
 1547 005f 08       		.uleb128 0x8
 1548 0060 04       		.uleb128 0x4
 1549 0061 01       		.byte	0x1
 1550 0062 3E       		.uleb128 0x3e
 1551 0063 0B       		.uleb128 0xb
 1552 0064 0B       		.uleb128 0xb
 1553 0065 0B       		.uleb128 0xb
 1554 0066 49       		.uleb128 0x49
 1555 0067 13       		.uleb128 0x13
ARM GAS  G:\Users\Jaxb\AppData\Local\Temp\ccJtFoVs.s 			page 34


 1556 0068 3A       		.uleb128 0x3a
 1557 0069 0B       		.uleb128 0xb
 1558 006a 3B       		.uleb128 0x3b
 1559 006b 05       		.uleb128 0x5
 1560 006c 01       		.uleb128 0x1
 1561 006d 13       		.uleb128 0x13
 1562 006e 00       		.byte	0
 1563 006f 00       		.byte	0
 1564 0070 09       		.uleb128 0x9
 1565 0071 28       		.uleb128 0x28
 1566 0072 00       		.byte	0
 1567 0073 03       		.uleb128 0x3
 1568 0074 0E       		.uleb128 0xe
 1569 0075 1C       		.uleb128 0x1c
 1570 0076 0B       		.uleb128 0xb
 1571 0077 00       		.byte	0
 1572 0078 00       		.byte	0
 1573 0079 0A       		.uleb128 0xa
 1574 007a 28       		.uleb128 0x28
 1575 007b 00       		.byte	0
 1576 007c 03       		.uleb128 0x3
 1577 007d 08       		.uleb128 0x8
 1578 007e 1C       		.uleb128 0x1c
 1579 007f 0B       		.uleb128 0xb
 1580 0080 00       		.byte	0
 1581 0081 00       		.byte	0
 1582 0082 0B       		.uleb128 0xb
 1583 0083 16       		.uleb128 0x16
 1584 0084 00       		.byte	0
 1585 0085 03       		.uleb128 0x3
 1586 0086 0E       		.uleb128 0xe
 1587 0087 3A       		.uleb128 0x3a
 1588 0088 0B       		.uleb128 0xb
 1589 0089 3B       		.uleb128 0x3b
 1590 008a 05       		.uleb128 0x5
 1591 008b 49       		.uleb128 0x49
 1592 008c 13       		.uleb128 0x13
 1593 008d 00       		.byte	0
 1594 008e 00       		.byte	0
 1595 008f 0C       		.uleb128 0xc
 1596 0090 13       		.uleb128 0x13
 1597 0091 01       		.byte	0x1
 1598 0092 0B       		.uleb128 0xb
 1599 0093 0B       		.uleb128 0xb
 1600 0094 3A       		.uleb128 0x3a
 1601 0095 0B       		.uleb128 0xb
 1602 0096 3B       		.uleb128 0x3b
 1603 0097 05       		.uleb128 0x5
 1604 0098 01       		.uleb128 0x1
 1605 0099 13       		.uleb128 0x13
 1606 009a 00       		.byte	0
 1607 009b 00       		.byte	0
 1608 009c 0D       		.uleb128 0xd
 1609 009d 0D       		.uleb128 0xd
 1610 009e 00       		.byte	0
 1611 009f 03       		.uleb128 0x3
 1612 00a0 08       		.uleb128 0x8
ARM GAS  G:\Users\Jaxb\AppData\Local\Temp\ccJtFoVs.s 			page 35


 1613 00a1 3A       		.uleb128 0x3a
 1614 00a2 0B       		.uleb128 0xb
 1615 00a3 3B       		.uleb128 0x3b
 1616 00a4 05       		.uleb128 0x5
 1617 00a5 49       		.uleb128 0x49
 1618 00a6 13       		.uleb128 0x13
 1619 00a7 38       		.uleb128 0x38
 1620 00a8 0A       		.uleb128 0xa
 1621 00a9 00       		.byte	0
 1622 00aa 00       		.byte	0
 1623 00ab 0E       		.uleb128 0xe
 1624 00ac 0D       		.uleb128 0xd
 1625 00ad 00       		.byte	0
 1626 00ae 03       		.uleb128 0x3
 1627 00af 0E       		.uleb128 0xe
 1628 00b0 3A       		.uleb128 0x3a
 1629 00b1 0B       		.uleb128 0xb
 1630 00b2 3B       		.uleb128 0x3b
 1631 00b3 05       		.uleb128 0x5
 1632 00b4 49       		.uleb128 0x49
 1633 00b5 13       		.uleb128 0x13
 1634 00b6 38       		.uleb128 0x38
 1635 00b7 0A       		.uleb128 0xa
 1636 00b8 00       		.byte	0
 1637 00b9 00       		.byte	0
 1638 00ba 0F       		.uleb128 0xf
 1639 00bb 2E       		.uleb128 0x2e
 1640 00bc 01       		.byte	0x1
 1641 00bd 3F       		.uleb128 0x3f
 1642 00be 0C       		.uleb128 0xc
 1643 00bf 03       		.uleb128 0x3
 1644 00c0 0E       		.uleb128 0xe
 1645 00c1 3A       		.uleb128 0x3a
 1646 00c2 0B       		.uleb128 0xb
 1647 00c3 3B       		.uleb128 0x3b
 1648 00c4 05       		.uleb128 0x5
 1649 00c5 27       		.uleb128 0x27
 1650 00c6 0C       		.uleb128 0xc
 1651 00c7 11       		.uleb128 0x11
 1652 00c8 01       		.uleb128 0x1
 1653 00c9 12       		.uleb128 0x12
 1654 00ca 01       		.uleb128 0x1
 1655 00cb 40       		.uleb128 0x40
 1656 00cc 06       		.uleb128 0x6
 1657 00cd 9742     		.uleb128 0x2117
 1658 00cf 0C       		.uleb128 0xc
 1659 00d0 01       		.uleb128 0x1
 1660 00d1 13       		.uleb128 0x13
 1661 00d2 00       		.byte	0
 1662 00d3 00       		.byte	0
 1663 00d4 10       		.uleb128 0x10
 1664 00d5 05       		.uleb128 0x5
 1665 00d6 00       		.byte	0
 1666 00d7 03       		.uleb128 0x3
 1667 00d8 0E       		.uleb128 0xe
 1668 00d9 3A       		.uleb128 0x3a
 1669 00da 0B       		.uleb128 0xb
ARM GAS  G:\Users\Jaxb\AppData\Local\Temp\ccJtFoVs.s 			page 36


 1670 00db 3B       		.uleb128 0x3b
 1671 00dc 05       		.uleb128 0x5
 1672 00dd 49       		.uleb128 0x49
 1673 00de 13       		.uleb128 0x13
 1674 00df 02       		.uleb128 0x2
 1675 00e0 0A       		.uleb128 0xa
 1676 00e1 00       		.byte	0
 1677 00e2 00       		.byte	0
 1678 00e3 11       		.uleb128 0x11
 1679 00e4 2E       		.uleb128 0x2e
 1680 00e5 01       		.byte	0x1
 1681 00e6 3F       		.uleb128 0x3f
 1682 00e7 0C       		.uleb128 0xc
 1683 00e8 03       		.uleb128 0x3
 1684 00e9 0E       		.uleb128 0xe
 1685 00ea 3A       		.uleb128 0x3a
 1686 00eb 0B       		.uleb128 0xb
 1687 00ec 3B       		.uleb128 0x3b
 1688 00ed 05       		.uleb128 0x5
 1689 00ee 27       		.uleb128 0x27
 1690 00ef 0C       		.uleb128 0xc
 1691 00f0 49       		.uleb128 0x49
 1692 00f1 13       		.uleb128 0x13
 1693 00f2 11       		.uleb128 0x11
 1694 00f3 01       		.uleb128 0x1
 1695 00f4 12       		.uleb128 0x12
 1696 00f5 01       		.uleb128 0x1
 1697 00f6 40       		.uleb128 0x40
 1698 00f7 06       		.uleb128 0x6
 1699 00f8 9742     		.uleb128 0x2117
 1700 00fa 0C       		.uleb128 0xc
 1701 00fb 01       		.uleb128 0x1
 1702 00fc 13       		.uleb128 0x13
 1703 00fd 00       		.byte	0
 1704 00fe 00       		.byte	0
 1705 00ff 12       		.uleb128 0x12
 1706 0100 34       		.uleb128 0x34
 1707 0101 00       		.byte	0
 1708 0102 03       		.uleb128 0x3
 1709 0103 0E       		.uleb128 0xe
 1710 0104 3A       		.uleb128 0x3a
 1711 0105 0B       		.uleb128 0xb
 1712 0106 3B       		.uleb128 0x3b
 1713 0107 05       		.uleb128 0x5
 1714 0108 49       		.uleb128 0x49
 1715 0109 13       		.uleb128 0x13
 1716 010a 02       		.uleb128 0x2
 1717 010b 0A       		.uleb128 0xa
 1718 010c 00       		.byte	0
 1719 010d 00       		.byte	0
 1720 010e 13       		.uleb128 0x13
 1721 010f 2E       		.uleb128 0x2e
 1722 0110 01       		.byte	0x1
 1723 0111 3F       		.uleb128 0x3f
 1724 0112 0C       		.uleb128 0xc
 1725 0113 03       		.uleb128 0x3
 1726 0114 0E       		.uleb128 0xe
ARM GAS  G:\Users\Jaxb\AppData\Local\Temp\ccJtFoVs.s 			page 37


 1727 0115 3A       		.uleb128 0x3a
 1728 0116 0B       		.uleb128 0xb
 1729 0117 3B       		.uleb128 0x3b
 1730 0118 0B       		.uleb128 0xb
 1731 0119 27       		.uleb128 0x27
 1732 011a 0C       		.uleb128 0xc
 1733 011b 49       		.uleb128 0x49
 1734 011c 13       		.uleb128 0x13
 1735 011d 11       		.uleb128 0x11
 1736 011e 01       		.uleb128 0x1
 1737 011f 12       		.uleb128 0x12
 1738 0120 01       		.uleb128 0x1
 1739 0121 40       		.uleb128 0x40
 1740 0122 06       		.uleb128 0x6
 1741 0123 9742     		.uleb128 0x2117
 1742 0125 0C       		.uleb128 0xc
 1743 0126 01       		.uleb128 0x1
 1744 0127 13       		.uleb128 0x13
 1745 0128 00       		.byte	0
 1746 0129 00       		.byte	0
 1747 012a 14       		.uleb128 0x14
 1748 012b 05       		.uleb128 0x5
 1749 012c 00       		.byte	0
 1750 012d 03       		.uleb128 0x3
 1751 012e 0E       		.uleb128 0xe
 1752 012f 3A       		.uleb128 0x3a
 1753 0130 0B       		.uleb128 0xb
 1754 0131 3B       		.uleb128 0x3b
 1755 0132 0B       		.uleb128 0xb
 1756 0133 49       		.uleb128 0x49
 1757 0134 13       		.uleb128 0x13
 1758 0135 02       		.uleb128 0x2
 1759 0136 0A       		.uleb128 0xa
 1760 0137 00       		.byte	0
 1761 0138 00       		.byte	0
 1762 0139 15       		.uleb128 0x15
 1763 013a 34       		.uleb128 0x34
 1764 013b 00       		.byte	0
 1765 013c 03       		.uleb128 0x3
 1766 013d 0E       		.uleb128 0xe
 1767 013e 3A       		.uleb128 0x3a
 1768 013f 0B       		.uleb128 0xb
 1769 0140 3B       		.uleb128 0x3b
 1770 0141 0B       		.uleb128 0xb
 1771 0142 49       		.uleb128 0x49
 1772 0143 13       		.uleb128 0x13
 1773 0144 02       		.uleb128 0x2
 1774 0145 0A       		.uleb128 0xa
 1775 0146 00       		.byte	0
 1776 0147 00       		.byte	0
 1777 0148 16       		.uleb128 0x16
 1778 0149 2E       		.uleb128 0x2e
 1779 014a 00       		.byte	0
 1780 014b 3F       		.uleb128 0x3f
 1781 014c 0C       		.uleb128 0xc
 1782 014d 03       		.uleb128 0x3
 1783 014e 0E       		.uleb128 0xe
ARM GAS  G:\Users\Jaxb\AppData\Local\Temp\ccJtFoVs.s 			page 38


 1784 014f 3A       		.uleb128 0x3a
 1785 0150 0B       		.uleb128 0xb
 1786 0151 3B       		.uleb128 0x3b
 1787 0152 0B       		.uleb128 0xb
 1788 0153 27       		.uleb128 0x27
 1789 0154 0C       		.uleb128 0xc
 1790 0155 11       		.uleb128 0x11
 1791 0156 01       		.uleb128 0x1
 1792 0157 12       		.uleb128 0x12
 1793 0158 01       		.uleb128 0x1
 1794 0159 40       		.uleb128 0x40
 1795 015a 06       		.uleb128 0x6
 1796 015b 9742     		.uleb128 0x2117
 1797 015d 0C       		.uleb128 0xc
 1798 015e 00       		.byte	0
 1799 015f 00       		.byte	0
 1800 0160 17       		.uleb128 0x17
 1801 0161 34       		.uleb128 0x34
 1802 0162 00       		.byte	0
 1803 0163 03       		.uleb128 0x3
 1804 0164 08       		.uleb128 0x8
 1805 0165 3A       		.uleb128 0x3a
 1806 0166 0B       		.uleb128 0xb
 1807 0167 3B       		.uleb128 0x3b
 1808 0168 0B       		.uleb128 0xb
 1809 0169 49       		.uleb128 0x49
 1810 016a 13       		.uleb128 0x13
 1811 016b 02       		.uleb128 0x2
 1812 016c 0A       		.uleb128 0xa
 1813 016d 00       		.byte	0
 1814 016e 00       		.byte	0
 1815 016f 18       		.uleb128 0x18
 1816 0170 2E       		.uleb128 0x2e
 1817 0171 01       		.byte	0x1
 1818 0172 3F       		.uleb128 0x3f
 1819 0173 0C       		.uleb128 0xc
 1820 0174 03       		.uleb128 0x3
 1821 0175 0E       		.uleb128 0xe
 1822 0176 3A       		.uleb128 0x3a
 1823 0177 0B       		.uleb128 0xb
 1824 0178 3B       		.uleb128 0x3b
 1825 0179 0B       		.uleb128 0xb
 1826 017a 27       		.uleb128 0x27
 1827 017b 0C       		.uleb128 0xc
 1828 017c 11       		.uleb128 0x11
 1829 017d 01       		.uleb128 0x1
 1830 017e 12       		.uleb128 0x12
 1831 017f 01       		.uleb128 0x1
 1832 0180 40       		.uleb128 0x40
 1833 0181 06       		.uleb128 0x6
 1834 0182 9642     		.uleb128 0x2116
 1835 0184 0C       		.uleb128 0xc
 1836 0185 01       		.uleb128 0x1
 1837 0186 13       		.uleb128 0x13
 1838 0187 00       		.byte	0
 1839 0188 00       		.byte	0
 1840 0189 19       		.uleb128 0x19
ARM GAS  G:\Users\Jaxb\AppData\Local\Temp\ccJtFoVs.s 			page 39


 1841 018a 2E       		.uleb128 0x2e
 1842 018b 01       		.byte	0x1
 1843 018c 3F       		.uleb128 0x3f
 1844 018d 0C       		.uleb128 0xc
 1845 018e 03       		.uleb128 0x3
 1846 018f 0E       		.uleb128 0xe
 1847 0190 3A       		.uleb128 0x3a
 1848 0191 0B       		.uleb128 0xb
 1849 0192 3B       		.uleb128 0x3b
 1850 0193 0B       		.uleb128 0xb
 1851 0194 27       		.uleb128 0x27
 1852 0195 0C       		.uleb128 0xc
 1853 0196 11       		.uleb128 0x11
 1854 0197 01       		.uleb128 0x1
 1855 0198 12       		.uleb128 0x12
 1856 0199 01       		.uleb128 0x1
 1857 019a 40       		.uleb128 0x40
 1858 019b 06       		.uleb128 0x6
 1859 019c 9742     		.uleb128 0x2117
 1860 019e 0C       		.uleb128 0xc
 1861 019f 00       		.byte	0
 1862 01a0 00       		.byte	0
 1863 01a1 00       		.byte	0
 1864              		.section	.debug_loc,"",%progbits
 1865              	.Ldebug_loc0:
 1866              	.LLST13:
 1867 0000 88020000 		.4byte	.LFB42-.Ltext0
 1868 0004 8A020000 		.4byte	.LCFI67-.Ltext0
 1869 0008 0200     		.2byte	0x2
 1870 000a 7D       		.byte	0x7d
 1871 000b 00       		.sleb128 0
 1872 000c 8A020000 		.4byte	.LCFI67-.Ltext0
 1873 0010 8C020000 		.4byte	.LCFI68-.Ltext0
 1874 0014 0200     		.2byte	0x2
 1875 0016 7D       		.byte	0x7d
 1876 0017 04       		.sleb128 4
 1877 0018 8C020000 		.4byte	.LCFI68-.Ltext0
 1878 001c 8E020000 		.4byte	.LCFI69-.Ltext0
 1879 0020 0200     		.2byte	0x2
 1880 0022 7D       		.byte	0x7d
 1881 0023 10       		.sleb128 16
 1882 0024 8E020000 		.4byte	.LCFI69-.Ltext0
 1883 0028 AA020000 		.4byte	.LCFI70-.Ltext0
 1884 002c 0200     		.2byte	0x2
 1885 002e 77       		.byte	0x77
 1886 002f 10       		.sleb128 16
 1887 0030 AA020000 		.4byte	.LCFI70-.Ltext0
 1888 0034 AC020000 		.4byte	.LCFI71-.Ltext0
 1889 0038 0200     		.2byte	0x2
 1890 003a 77       		.byte	0x77
 1891 003b 04       		.sleb128 4
 1892 003c AC020000 		.4byte	.LCFI71-.Ltext0
 1893 0040 AE020000 		.4byte	.LCFI72-.Ltext0
 1894 0044 0200     		.2byte	0x2
 1895 0046 7D       		.byte	0x7d
 1896 0047 04       		.sleb128 4
 1897 0048 AE020000 		.4byte	.LCFI72-.Ltext0
ARM GAS  G:\Users\Jaxb\AppData\Local\Temp\ccJtFoVs.s 			page 40


 1898 004c B4020000 		.4byte	.LFE42-.Ltext0
 1899 0050 0200     		.2byte	0x2
 1900 0052 7D       		.byte	0x7d
 1901 0053 00       		.sleb128 0
 1902 0054 00000000 		.4byte	0
 1903 0058 00000000 		.4byte	0
 1904              	.LLST12:
 1905 005c 38020000 		.4byte	.LFB41-.Ltext0
 1906 0060 3A020000 		.4byte	.LCFI61-.Ltext0
 1907 0064 0200     		.2byte	0x2
 1908 0066 7D       		.byte	0x7d
 1909 0067 00       		.sleb128 0
 1910 0068 3A020000 		.4byte	.LCFI61-.Ltext0
 1911 006c 3C020000 		.4byte	.LCFI62-.Ltext0
 1912 0070 0200     		.2byte	0x2
 1913 0072 7D       		.byte	0x7d
 1914 0073 04       		.sleb128 4
 1915 0074 3C020000 		.4byte	.LCFI62-.Ltext0
 1916 0078 3E020000 		.4byte	.LCFI63-.Ltext0
 1917 007c 0200     		.2byte	0x2
 1918 007e 7D       		.byte	0x7d
 1919 007f 18       		.sleb128 24
 1920 0080 3E020000 		.4byte	.LCFI63-.Ltext0
 1921 0084 7C020000 		.4byte	.LCFI64-.Ltext0
 1922 0088 0200     		.2byte	0x2
 1923 008a 77       		.byte	0x77
 1924 008b 18       		.sleb128 24
 1925 008c 7C020000 		.4byte	.LCFI64-.Ltext0
 1926 0090 7E020000 		.4byte	.LCFI65-.Ltext0
 1927 0094 0200     		.2byte	0x2
 1928 0096 77       		.byte	0x77
 1929 0097 04       		.sleb128 4
 1930 0098 7E020000 		.4byte	.LCFI65-.Ltext0
 1931 009c 80020000 		.4byte	.LCFI66-.Ltext0
 1932 00a0 0200     		.2byte	0x2
 1933 00a2 7D       		.byte	0x7d
 1934 00a3 04       		.sleb128 4
 1935 00a4 80020000 		.4byte	.LCFI66-.Ltext0
 1936 00a8 88020000 		.4byte	.LFE41-.Ltext0
 1937 00ac 0200     		.2byte	0x2
 1938 00ae 7D       		.byte	0x7d
 1939 00af 00       		.sleb128 0
 1940 00b0 00000000 		.4byte	0
 1941 00b4 00000000 		.4byte	0
 1942              	.LLST11:
 1943 00b8 0C020000 		.4byte	.LFB40-.Ltext0
 1944 00bc 0E020000 		.4byte	.LCFI55-.Ltext0
 1945 00c0 0200     		.2byte	0x2
 1946 00c2 7D       		.byte	0x7d
 1947 00c3 00       		.sleb128 0
 1948 00c4 0E020000 		.4byte	.LCFI55-.Ltext0
 1949 00c8 10020000 		.4byte	.LCFI56-.Ltext0
 1950 00cc 0200     		.2byte	0x2
 1951 00ce 7D       		.byte	0x7d
 1952 00cf 04       		.sleb128 4
 1953 00d0 10020000 		.4byte	.LCFI56-.Ltext0
 1954 00d4 12020000 		.4byte	.LCFI57-.Ltext0
ARM GAS  G:\Users\Jaxb\AppData\Local\Temp\ccJtFoVs.s 			page 41


 1955 00d8 0200     		.2byte	0x2
 1956 00da 7D       		.byte	0x7d
 1957 00db 10       		.sleb128 16
 1958 00dc 12020000 		.4byte	.LCFI57-.Ltext0
 1959 00e0 2E020000 		.4byte	.LCFI58-.Ltext0
 1960 00e4 0200     		.2byte	0x2
 1961 00e6 77       		.byte	0x77
 1962 00e7 10       		.sleb128 16
 1963 00e8 2E020000 		.4byte	.LCFI58-.Ltext0
 1964 00ec 30020000 		.4byte	.LCFI59-.Ltext0
 1965 00f0 0200     		.2byte	0x2
 1966 00f2 77       		.byte	0x77
 1967 00f3 04       		.sleb128 4
 1968 00f4 30020000 		.4byte	.LCFI59-.Ltext0
 1969 00f8 32020000 		.4byte	.LCFI60-.Ltext0
 1970 00fc 0200     		.2byte	0x2
 1971 00fe 7D       		.byte	0x7d
 1972 00ff 04       		.sleb128 4
 1973 0100 32020000 		.4byte	.LCFI60-.Ltext0
 1974 0104 38020000 		.4byte	.LFE40-.Ltext0
 1975 0108 0200     		.2byte	0x2
 1976 010a 7D       		.byte	0x7d
 1977 010b 00       		.sleb128 0
 1978 010c 00000000 		.4byte	0
 1979 0110 00000000 		.4byte	0
 1980              	.LLST10:
 1981 0114 D4010000 		.4byte	.LFB39-.Ltext0
 1982 0118 D6010000 		.4byte	.LCFI49-.Ltext0
 1983 011c 0200     		.2byte	0x2
 1984 011e 7D       		.byte	0x7d
 1985 011f 00       		.sleb128 0
 1986 0120 D6010000 		.4byte	.LCFI49-.Ltext0
 1987 0124 D8010000 		.4byte	.LCFI50-.Ltext0
 1988 0128 0200     		.2byte	0x2
 1989 012a 7D       		.byte	0x7d
 1990 012b 04       		.sleb128 4
 1991 012c D8010000 		.4byte	.LCFI50-.Ltext0
 1992 0130 DA010000 		.4byte	.LCFI51-.Ltext0
 1993 0134 0200     		.2byte	0x2
 1994 0136 7D       		.byte	0x7d
 1995 0137 18       		.sleb128 24
 1996 0138 DA010000 		.4byte	.LCFI51-.Ltext0
 1997 013c 02020000 		.4byte	.LCFI52-.Ltext0
 1998 0140 0200     		.2byte	0x2
 1999 0142 77       		.byte	0x77
 2000 0143 18       		.sleb128 24
 2001 0144 02020000 		.4byte	.LCFI52-.Ltext0
 2002 0148 04020000 		.4byte	.LCFI53-.Ltext0
 2003 014c 0200     		.2byte	0x2
 2004 014e 77       		.byte	0x77
 2005 014f 04       		.sleb128 4
 2006 0150 04020000 		.4byte	.LCFI53-.Ltext0
 2007 0154 06020000 		.4byte	.LCFI54-.Ltext0
 2008 0158 0200     		.2byte	0x2
 2009 015a 7D       		.byte	0x7d
 2010 015b 04       		.sleb128 4
 2011 015c 06020000 		.4byte	.LCFI54-.Ltext0
ARM GAS  G:\Users\Jaxb\AppData\Local\Temp\ccJtFoVs.s 			page 42


 2012 0160 0C020000 		.4byte	.LFE39-.Ltext0
 2013 0164 0200     		.2byte	0x2
 2014 0166 7D       		.byte	0x7d
 2015 0167 00       		.sleb128 0
 2016 0168 00000000 		.4byte	0
 2017 016c 00000000 		.4byte	0
 2018              	.LLST9:
 2019 0170 A4010000 		.4byte	.LFB38-.Ltext0
 2020 0174 A6010000 		.4byte	.LCFI45-.Ltext0
 2021 0178 0200     		.2byte	0x2
 2022 017a 7D       		.byte	0x7d
 2023 017b 00       		.sleb128 0
 2024 017c A6010000 		.4byte	.LCFI45-.Ltext0
 2025 0180 A8010000 		.4byte	.LCFI46-.Ltext0
 2026 0184 0200     		.2byte	0x2
 2027 0186 7D       		.byte	0x7d
 2028 0187 04       		.sleb128 4
 2029 0188 A8010000 		.4byte	.LCFI46-.Ltext0
 2030 018c CC010000 		.4byte	.LCFI47-.Ltext0
 2031 0190 0200     		.2byte	0x2
 2032 0192 77       		.byte	0x77
 2033 0193 04       		.sleb128 4
 2034 0194 CC010000 		.4byte	.LCFI47-.Ltext0
 2035 0198 CE010000 		.4byte	.LCFI48-.Ltext0
 2036 019c 0200     		.2byte	0x2
 2037 019e 7D       		.byte	0x7d
 2038 019f 04       		.sleb128 4
 2039 01a0 CE010000 		.4byte	.LCFI48-.Ltext0
 2040 01a4 D4010000 		.4byte	.LFE38-.Ltext0
 2041 01a8 0200     		.2byte	0x2
 2042 01aa 7D       		.byte	0x7d
 2043 01ab 00       		.sleb128 0
 2044 01ac 00000000 		.4byte	0
 2045 01b0 00000000 		.4byte	0
 2046              	.LLST8:
 2047 01b4 84010000 		.4byte	.LFB37-.Ltext0
 2048 01b8 86010000 		.4byte	.LCFI41-.Ltext0
 2049 01bc 0200     		.2byte	0x2
 2050 01be 7D       		.byte	0x7d
 2051 01bf 00       		.sleb128 0
 2052 01c0 86010000 		.4byte	.LCFI41-.Ltext0
 2053 01c4 88010000 		.4byte	.LCFI42-.Ltext0
 2054 01c8 0200     		.2byte	0x2
 2055 01ca 7D       		.byte	0x7d
 2056 01cb 04       		.sleb128 4
 2057 01cc 88010000 		.4byte	.LCFI42-.Ltext0
 2058 01d0 9C010000 		.4byte	.LCFI43-.Ltext0
 2059 01d4 0200     		.2byte	0x2
 2060 01d6 77       		.byte	0x77
 2061 01d7 04       		.sleb128 4
 2062 01d8 9C010000 		.4byte	.LCFI43-.Ltext0
 2063 01dc 9E010000 		.4byte	.LCFI44-.Ltext0
 2064 01e0 0200     		.2byte	0x2
 2065 01e2 7D       		.byte	0x7d
 2066 01e3 04       		.sleb128 4
 2067 01e4 9E010000 		.4byte	.LCFI44-.Ltext0
 2068 01e8 A4010000 		.4byte	.LFE37-.Ltext0
ARM GAS  G:\Users\Jaxb\AppData\Local\Temp\ccJtFoVs.s 			page 43


 2069 01ec 0200     		.2byte	0x2
 2070 01ee 7D       		.byte	0x7d
 2071 01ef 00       		.sleb128 0
 2072 01f0 00000000 		.4byte	0
 2073 01f4 00000000 		.4byte	0
 2074              	.LLST7:
 2075 01f8 4C010000 		.4byte	.LFB36-.Ltext0
 2076 01fc 4E010000 		.4byte	.LCFI35-.Ltext0
 2077 0200 0200     		.2byte	0x2
 2078 0202 7D       		.byte	0x7d
 2079 0203 00       		.sleb128 0
 2080 0204 4E010000 		.4byte	.LCFI35-.Ltext0
 2081 0208 50010000 		.4byte	.LCFI36-.Ltext0
 2082 020c 0200     		.2byte	0x2
 2083 020e 7D       		.byte	0x7d
 2084 020f 04       		.sleb128 4
 2085 0210 50010000 		.4byte	.LCFI36-.Ltext0
 2086 0214 52010000 		.4byte	.LCFI37-.Ltext0
 2087 0218 0200     		.2byte	0x2
 2088 021a 7D       		.byte	0x7d
 2089 021b 10       		.sleb128 16
 2090 021c 52010000 		.4byte	.LCFI37-.Ltext0
 2091 0220 78010000 		.4byte	.LCFI38-.Ltext0
 2092 0224 0200     		.2byte	0x2
 2093 0226 77       		.byte	0x77
 2094 0227 10       		.sleb128 16
 2095 0228 78010000 		.4byte	.LCFI38-.Ltext0
 2096 022c 7A010000 		.4byte	.LCFI39-.Ltext0
 2097 0230 0200     		.2byte	0x2
 2098 0232 77       		.byte	0x77
 2099 0233 04       		.sleb128 4
 2100 0234 7A010000 		.4byte	.LCFI39-.Ltext0
 2101 0238 7C010000 		.4byte	.LCFI40-.Ltext0
 2102 023c 0200     		.2byte	0x2
 2103 023e 7D       		.byte	0x7d
 2104 023f 04       		.sleb128 4
 2105 0240 7C010000 		.4byte	.LCFI40-.Ltext0
 2106 0244 84010000 		.4byte	.LFE36-.Ltext0
 2107 0248 0200     		.2byte	0x2
 2108 024a 7D       		.byte	0x7d
 2109 024b 00       		.sleb128 0
 2110 024c 00000000 		.4byte	0
 2111 0250 00000000 		.4byte	0
 2112              	.LLST6:
 2113 0254 1C010000 		.4byte	.LFB35-.Ltext0
 2114 0258 1E010000 		.4byte	.LCFI30-.Ltext0
 2115 025c 0200     		.2byte	0x2
 2116 025e 7D       		.byte	0x7d
 2117 025f 00       		.sleb128 0
 2118 0260 1E010000 		.4byte	.LCFI30-.Ltext0
 2119 0264 20010000 		.4byte	.LCFI31-.Ltext0
 2120 0268 0200     		.2byte	0x2
 2121 026a 7D       		.byte	0x7d
 2122 026b 08       		.sleb128 8
 2123 026c 20010000 		.4byte	.LCFI31-.Ltext0
 2124 0270 22010000 		.4byte	.LCFI32-.Ltext0
 2125 0274 0200     		.2byte	0x2
ARM GAS  G:\Users\Jaxb\AppData\Local\Temp\ccJtFoVs.s 			page 44


 2126 0276 7D       		.byte	0x7d
 2127 0277 10       		.sleb128 16
 2128 0278 22010000 		.4byte	.LCFI32-.Ltext0
 2129 027c 42010000 		.4byte	.LCFI33-.Ltext0
 2130 0280 0200     		.2byte	0x2
 2131 0282 77       		.byte	0x77
 2132 0283 10       		.sleb128 16
 2133 0284 42010000 		.4byte	.LCFI33-.Ltext0
 2134 0288 44010000 		.4byte	.LCFI34-.Ltext0
 2135 028c 0200     		.2byte	0x2
 2136 028e 77       		.byte	0x77
 2137 028f 08       		.sleb128 8
 2138 0290 44010000 		.4byte	.LCFI34-.Ltext0
 2139 0294 4C010000 		.4byte	.LFE35-.Ltext0
 2140 0298 0200     		.2byte	0x2
 2141 029a 7D       		.byte	0x7d
 2142 029b 08       		.sleb128 8
 2143 029c 00000000 		.4byte	0
 2144 02a0 00000000 		.4byte	0
 2145              	.LLST5:
 2146 02a4 E8000000 		.4byte	.LFB34-.Ltext0
 2147 02a8 EA000000 		.4byte	.LCFI25-.Ltext0
 2148 02ac 0200     		.2byte	0x2
 2149 02ae 7D       		.byte	0x7d
 2150 02af 00       		.sleb128 0
 2151 02b0 EA000000 		.4byte	.LCFI25-.Ltext0
 2152 02b4 EC000000 		.4byte	.LCFI26-.Ltext0
 2153 02b8 0200     		.2byte	0x2
 2154 02ba 7D       		.byte	0x7d
 2155 02bb 08       		.sleb128 8
 2156 02bc EC000000 		.4byte	.LCFI26-.Ltext0
 2157 02c0 EE000000 		.4byte	.LCFI27-.Ltext0
 2158 02c4 0200     		.2byte	0x2
 2159 02c6 7D       		.byte	0x7d
 2160 02c7 10       		.sleb128 16
 2161 02c8 EE000000 		.4byte	.LCFI27-.Ltext0
 2162 02cc 14010000 		.4byte	.LCFI28-.Ltext0
 2163 02d0 0200     		.2byte	0x2
 2164 02d2 77       		.byte	0x77
 2165 02d3 10       		.sleb128 16
 2166 02d4 14010000 		.4byte	.LCFI28-.Ltext0
 2167 02d8 16010000 		.4byte	.LCFI29-.Ltext0
 2168 02dc 0200     		.2byte	0x2
 2169 02de 77       		.byte	0x77
 2170 02df 08       		.sleb128 8
 2171 02e0 16010000 		.4byte	.LCFI29-.Ltext0
 2172 02e4 1C010000 		.4byte	.LFE34-.Ltext0
 2173 02e8 0200     		.2byte	0x2
 2174 02ea 7D       		.byte	0x7d
 2175 02eb 08       		.sleb128 8
 2176 02ec 00000000 		.4byte	0
 2177 02f0 00000000 		.4byte	0
 2178              	.LLST4:
 2179 02f4 B8000000 		.4byte	.LFB33-.Ltext0
 2180 02f8 BA000000 		.4byte	.LCFI20-.Ltext0
 2181 02fc 0200     		.2byte	0x2
 2182 02fe 7D       		.byte	0x7d
ARM GAS  G:\Users\Jaxb\AppData\Local\Temp\ccJtFoVs.s 			page 45


 2183 02ff 00       		.sleb128 0
 2184 0300 BA000000 		.4byte	.LCFI20-.Ltext0
 2185 0304 BC000000 		.4byte	.LCFI21-.Ltext0
 2186 0308 0200     		.2byte	0x2
 2187 030a 7D       		.byte	0x7d
 2188 030b 08       		.sleb128 8
 2189 030c BC000000 		.4byte	.LCFI21-.Ltext0
 2190 0310 BE000000 		.4byte	.LCFI22-.Ltext0
 2191 0314 0200     		.2byte	0x2
 2192 0316 7D       		.byte	0x7d
 2193 0317 10       		.sleb128 16
 2194 0318 BE000000 		.4byte	.LCFI22-.Ltext0
 2195 031c DE000000 		.4byte	.LCFI23-.Ltext0
 2196 0320 0200     		.2byte	0x2
 2197 0322 77       		.byte	0x77
 2198 0323 10       		.sleb128 16
 2199 0324 DE000000 		.4byte	.LCFI23-.Ltext0
 2200 0328 E0000000 		.4byte	.LCFI24-.Ltext0
 2201 032c 0200     		.2byte	0x2
 2202 032e 77       		.byte	0x77
 2203 032f 08       		.sleb128 8
 2204 0330 E0000000 		.4byte	.LCFI24-.Ltext0
 2205 0334 E8000000 		.4byte	.LFE33-.Ltext0
 2206 0338 0200     		.2byte	0x2
 2207 033a 7D       		.byte	0x7d
 2208 033b 08       		.sleb128 8
 2209 033c 00000000 		.4byte	0
 2210 0340 00000000 		.4byte	0
 2211              	.LLST3:
 2212 0344 8C000000 		.4byte	.LFB32-.Ltext0
 2213 0348 8E000000 		.4byte	.LCFI14-.Ltext0
 2214 034c 0200     		.2byte	0x2
 2215 034e 7D       		.byte	0x7d
 2216 034f 00       		.sleb128 0
 2217 0350 8E000000 		.4byte	.LCFI14-.Ltext0
 2218 0354 90000000 		.4byte	.LCFI15-.Ltext0
 2219 0358 0200     		.2byte	0x2
 2220 035a 7D       		.byte	0x7d
 2221 035b 04       		.sleb128 4
 2222 035c 90000000 		.4byte	.LCFI15-.Ltext0
 2223 0360 92000000 		.4byte	.LCFI16-.Ltext0
 2224 0364 0200     		.2byte	0x2
 2225 0366 7D       		.byte	0x7d
 2226 0367 10       		.sleb128 16
 2227 0368 92000000 		.4byte	.LCFI16-.Ltext0
 2228 036c AC000000 		.4byte	.LCFI17-.Ltext0
 2229 0370 0200     		.2byte	0x2
 2230 0372 77       		.byte	0x77
 2231 0373 10       		.sleb128 16
 2232 0374 AC000000 		.4byte	.LCFI17-.Ltext0
 2233 0378 AE000000 		.4byte	.LCFI18-.Ltext0
 2234 037c 0200     		.2byte	0x2
 2235 037e 77       		.byte	0x77
 2236 037f 04       		.sleb128 4
 2237 0380 AE000000 		.4byte	.LCFI18-.Ltext0
 2238 0384 B0000000 		.4byte	.LCFI19-.Ltext0
 2239 0388 0200     		.2byte	0x2
ARM GAS  G:\Users\Jaxb\AppData\Local\Temp\ccJtFoVs.s 			page 46


 2240 038a 7D       		.byte	0x7d
 2241 038b 04       		.sleb128 4
 2242 038c B0000000 		.4byte	.LCFI19-.Ltext0
 2243 0390 B8000000 		.4byte	.LFE32-.Ltext0
 2244 0394 0200     		.2byte	0x2
 2245 0396 7D       		.byte	0x7d
 2246 0397 00       		.sleb128 0
 2247 0398 00000000 		.4byte	0
 2248 039c 00000000 		.4byte	0
 2249              	.LLST2:
 2250 03a0 6C000000 		.4byte	.LFB31-.Ltext0
 2251 03a4 6E000000 		.4byte	.LCFI10-.Ltext0
 2252 03a8 0200     		.2byte	0x2
 2253 03aa 7D       		.byte	0x7d
 2254 03ab 00       		.sleb128 0
 2255 03ac 6E000000 		.4byte	.LCFI10-.Ltext0
 2256 03b0 70000000 		.4byte	.LCFI11-.Ltext0
 2257 03b4 0200     		.2byte	0x2
 2258 03b6 7D       		.byte	0x7d
 2259 03b7 04       		.sleb128 4
 2260 03b8 70000000 		.4byte	.LCFI11-.Ltext0
 2261 03bc 84000000 		.4byte	.LCFI12-.Ltext0
 2262 03c0 0200     		.2byte	0x2
 2263 03c2 77       		.byte	0x77
 2264 03c3 04       		.sleb128 4
 2265 03c4 84000000 		.4byte	.LCFI12-.Ltext0
 2266 03c8 86000000 		.4byte	.LCFI13-.Ltext0
 2267 03cc 0200     		.2byte	0x2
 2268 03ce 7D       		.byte	0x7d
 2269 03cf 04       		.sleb128 4
 2270 03d0 86000000 		.4byte	.LCFI13-.Ltext0
 2271 03d4 8C000000 		.4byte	.LFE31-.Ltext0
 2272 03d8 0200     		.2byte	0x2
 2273 03da 7D       		.byte	0x7d
 2274 03db 00       		.sleb128 0
 2275 03dc 00000000 		.4byte	0
 2276 03e0 00000000 		.4byte	0
 2277              	.LLST1:
 2278 03e4 4C000000 		.4byte	.LFB30-.Ltext0
 2279 03e8 4E000000 		.4byte	.LCFI6-.Ltext0
 2280 03ec 0200     		.2byte	0x2
 2281 03ee 7D       		.byte	0x7d
 2282 03ef 00       		.sleb128 0
 2283 03f0 4E000000 		.4byte	.LCFI6-.Ltext0
 2284 03f4 50000000 		.4byte	.LCFI7-.Ltext0
 2285 03f8 0200     		.2byte	0x2
 2286 03fa 7D       		.byte	0x7d
 2287 03fb 04       		.sleb128 4
 2288 03fc 50000000 		.4byte	.LCFI7-.Ltext0
 2289 0400 64000000 		.4byte	.LCFI8-.Ltext0
 2290 0404 0200     		.2byte	0x2
 2291 0406 77       		.byte	0x77
 2292 0407 04       		.sleb128 4
 2293 0408 64000000 		.4byte	.LCFI8-.Ltext0
 2294 040c 66000000 		.4byte	.LCFI9-.Ltext0
 2295 0410 0200     		.2byte	0x2
 2296 0412 7D       		.byte	0x7d
ARM GAS  G:\Users\Jaxb\AppData\Local\Temp\ccJtFoVs.s 			page 47


 2297 0413 04       		.sleb128 4
 2298 0414 66000000 		.4byte	.LCFI9-.Ltext0
 2299 0418 6C000000 		.4byte	.LFE30-.Ltext0
 2300 041c 0200     		.2byte	0x2
 2301 041e 7D       		.byte	0x7d
 2302 041f 00       		.sleb128 0
 2303 0420 00000000 		.4byte	0
 2304 0424 00000000 		.4byte	0
 2305              	.LLST0:
 2306 0428 00000000 		.4byte	.LFB29-.Ltext0
 2307 042c 02000000 		.4byte	.LCFI0-.Ltext0
 2308 0430 0200     		.2byte	0x2
 2309 0432 7D       		.byte	0x7d
 2310 0433 00       		.sleb128 0
 2311 0434 02000000 		.4byte	.LCFI0-.Ltext0
 2312 0438 04000000 		.4byte	.LCFI1-.Ltext0
 2313 043c 0200     		.2byte	0x2
 2314 043e 7D       		.byte	0x7d
 2315 043f 04       		.sleb128 4
 2316 0440 04000000 		.4byte	.LCFI1-.Ltext0
 2317 0444 06000000 		.4byte	.LCFI2-.Ltext0
 2318 0448 0200     		.2byte	0x2
 2319 044a 7D       		.byte	0x7d
 2320 044b 10       		.sleb128 16
 2321 044c 06000000 		.4byte	.LCFI2-.Ltext0
 2322 0450 40000000 		.4byte	.LCFI3-.Ltext0
 2323 0454 0200     		.2byte	0x2
 2324 0456 77       		.byte	0x77
 2325 0457 10       		.sleb128 16
 2326 0458 40000000 		.4byte	.LCFI3-.Ltext0
 2327 045c 42000000 		.4byte	.LCFI4-.Ltext0
 2328 0460 0200     		.2byte	0x2
 2329 0462 77       		.byte	0x77
 2330 0463 04       		.sleb128 4
 2331 0464 42000000 		.4byte	.LCFI4-.Ltext0
 2332 0468 44000000 		.4byte	.LCFI5-.Ltext0
 2333 046c 0200     		.2byte	0x2
 2334 046e 7D       		.byte	0x7d
 2335 046f 04       		.sleb128 4
 2336 0470 44000000 		.4byte	.LCFI5-.Ltext0
 2337 0474 4C000000 		.4byte	.LFE29-.Ltext0
 2338 0478 0200     		.2byte	0x2
 2339 047a 7D       		.byte	0x7d
 2340 047b 00       		.sleb128 0
 2341 047c 00000000 		.4byte	0
 2342 0480 00000000 		.4byte	0
 2343              		.section	.debug_aranges,"",%progbits
 2344 0000 1C000000 		.4byte	0x1c
 2345 0004 0200     		.2byte	0x2
 2346 0006 00000000 		.4byte	.Ldebug_info0
 2347 000a 04       		.byte	0x4
 2348 000b 00       		.byte	0
 2349 000c 0000     		.2byte	0
 2350 000e 0000     		.2byte	0
 2351 0010 00000000 		.4byte	.Ltext0
 2352 0014 B4020000 		.4byte	.Letext0-.Ltext0
 2353 0018 00000000 		.4byte	0
ARM GAS  G:\Users\Jaxb\AppData\Local\Temp\ccJtFoVs.s 			page 48


 2354 001c 00000000 		.4byte	0
 2355              		.section	.debug_line,"",%progbits
 2356              	.Ldebug_line0:
 2357 0000 7B010000 		.section	.debug_str,"MS",%progbits,1
 2357      02000001 
 2357      00000201 
 2357      FB0E0D00 
 2357      01010101 
 2358              	.LASF54:
 2359 0000 5254435F 		.ascii	"RTC_SetPrescaler\000"
 2359      53657450 
 2359      72657363 
 2359      616C6572 
 2359      00
 2360              	.LASF65:
 2361 0011 5254435F 		.ascii	"RTC_ITConfig\000"
 2361      4954436F 
 2361      6E666967 
 2361      00
 2362              	.LASF29:
 2363 001e 44495648 		.ascii	"DIVH\000"
 2363      00
 2364              	.LASF31:
 2365 0023 4449564C 		.ascii	"DIVL\000"
 2365      00
 2366              	.LASF57:
 2367 0028 436F756E 		.ascii	"CounterValue\000"
 2367      74657256 
 2367      616C7565 
 2367      00
 2368              	.LASF46:
 2369 0035 5254435F 		.ascii	"RTC_GetITStatus\000"
 2369      47657449 
 2369      54537461 
 2369      74757300 
 2370              	.LASF56:
 2371 0045 5254435F 		.ascii	"RTC_SetCounter\000"
 2371      53657443 
 2371      6F756E74 
 2371      657200
 2372              	.LASF7:
 2373 0054 5F5F7569 		.ascii	"__uint32_t\000"
 2373      6E743332 
 2373      5F7400
 2374              	.LASF63:
 2375 005f 2E2E2F2E 		.ascii	"../../source/src/FWlib/src/stm32f10x_rtc.c\000"
 2375      2E2F736F 
 2375      75726365 
 2375      2F737263 
 2375      2F46576C 
 2376              	.LASF44:
 2377 008a 5254435F 		.ascii	"RTC_ClearFlag\000"
 2377      436C6561 
 2377      72466C61 
 2377      6700
 2378              	.LASF4:
 2379 0098 5F5F7569 		.ascii	"__uint16_t\000"
ARM GAS  G:\Users\Jaxb\AppData\Local\Temp\ccJtFoVs.s 			page 49


 2379      6E743136 
 2379      5F7400
 2380              	.LASF2:
 2381 00a3 73686F72 		.ascii	"short int\000"
 2381      7420696E 
 2381      7400
 2382              	.LASF12:
 2383 00ad 75696E74 		.ascii	"uint8_t\000"
 2383      385F7400 
 2384              	.LASF45:
 2385 00b5 5254435F 		.ascii	"RTC_FLAG\000"
 2385      464C4147 
 2385      00
 2386              	.LASF61:
 2387 00be 4E657753 		.ascii	"NewState\000"
 2387      74617465 
 2387      00
 2388              	.LASF20:
 2389 00c7 44495341 		.ascii	"DISABLE\000"
 2389      424C4500 
 2390              	.LASF43:
 2391 00cf 5254435F 		.ascii	"RTC_ClearITPendingBit\000"
 2391      436C6561 
 2391      72495450 
 2391      656E6469 
 2391      6E674269 
 2392              	.LASF0:
 2393 00e5 7369676E 		.ascii	"signed char\000"
 2393      65642063 
 2393      68617200 
 2394              	.LASF49:
 2395 00f1 5254435F 		.ascii	"RTC_WaitForSynchro\000"
 2395      57616974 
 2395      466F7253 
 2395      796E6368 
 2395      726F00
 2396              	.LASF51:
 2397 0104 5254435F 		.ascii	"RTC_GetDivider\000"
 2397      47657444 
 2397      69766964 
 2397      657200
 2398              	.LASF64:
 2399 0113 463A5C6B 		.ascii	"F:\\kaka\\KAKAOS\\C\\windows\\Project\\RVMDK\243\250"
 2399      616B615C 
 2399      4B414B41 
 2399      4F535C43 
 2399      5C77696E 
 2400 013b 757635A3 		.ascii	"uv5\243\251\000"
 2400      A900
 2401              	.LASF9:
 2402 0141 6C6F6E67 		.ascii	"long long int\000"
 2402      206C6F6E 
 2402      6720696E 
 2402      7400
 2403              	.LASF19:
 2404 014f 49545374 		.ascii	"ITStatus\000"
 2404      61747573 
ARM GAS  G:\Users\Jaxb\AppData\Local\Temp\ccJtFoVs.s 			page 50


 2404      00
 2405              	.LASF6:
 2406 0158 6C6F6E67 		.ascii	"long int\000"
 2406      20696E74 
 2406      00
 2407              	.LASF3:
 2408 0161 5F5F7569 		.ascii	"__uint8_t\000"
 2408      6E74385F 
 2408      7400
 2409              	.LASF50:
 2410 016b 5254435F 		.ascii	"RTC_WaitForLastTask\000"
 2410      57616974 
 2410      466F724C 
 2410      61737454 
 2410      61736B00 
 2411              	.LASF48:
 2412 017f 62697473 		.ascii	"bitstatus\000"
 2412      74617475 
 2412      7300
 2413              	.LASF1:
 2414 0189 756E7369 		.ascii	"unsigned char\000"
 2414      676E6564 
 2414      20636861 
 2414      7200
 2415              	.LASF47:
 2416 0197 5254435F 		.ascii	"RTC_GetFlagStatus\000"
 2416      47657446 
 2416      6C616753 
 2416      74617475 
 2416      7300
 2417              	.LASF25:
 2418 01a9 50524C48 		.ascii	"PRLH\000"
 2418      00
 2419              	.LASF27:
 2420 01ae 50524C4C 		.ascii	"PRLL\000"
 2420      00
 2421              	.LASF55:
 2422 01b3 50726573 		.ascii	"PrescalerValue\000"
 2422      63616C65 
 2422      7256616C 
 2422      756500
 2423              	.LASF10:
 2424 01c2 6C6F6E67 		.ascii	"long long unsigned int\000"
 2424      206C6F6E 
 2424      6720756E 
 2424      7369676E 
 2424      65642069 
 2425              	.LASF14:
 2426 01d9 75696E74 		.ascii	"uint32_t\000"
 2426      33325F74 
 2426      00
 2427              	.LASF11:
 2428 01e2 756E7369 		.ascii	"unsigned int\000"
 2428      676E6564 
 2428      20696E74 
 2428      00
 2429              	.LASF13:
ARM GAS  G:\Users\Jaxb\AppData\Local\Temp\ccJtFoVs.s 			page 51


 2430 01ef 75696E74 		.ascii	"uint16_t\000"
 2430      31365F74 
 2430      00
 2431              	.LASF8:
 2432 01f8 6C6F6E67 		.ascii	"long unsigned int\000"
 2432      20756E73 
 2432      69676E65 
 2432      6420696E 
 2432      7400
 2433              	.LASF53:
 2434 020a 416C6172 		.ascii	"AlarmValue\000"
 2434      6D56616C 
 2434      756500
 2435              	.LASF5:
 2436 0215 73686F72 		.ascii	"short unsigned int\000"
 2436      7420756E 
 2436      7369676E 
 2436      65642069 
 2436      6E7400
 2437              	.LASF59:
 2438 0228 5254435F 		.ascii	"RTC_ExitConfigMode\000"
 2438      45786974 
 2438      436F6E66 
 2438      69674D6F 
 2438      646500
 2439              	.LASF16:
 2440 023b 53797374 		.ascii	"SystemCoreClock\000"
 2440      656D436F 
 2440      7265436C 
 2440      6F636B00 
 2441              	.LASF41:
 2442 024b 5254435F 		.ascii	"RTC_TypeDef\000"
 2442      54797065 
 2442      44656600 
 2443              	.LASF33:
 2444 0257 434E5448 		.ascii	"CNTH\000"
 2444      00
 2445              	.LASF23:
 2446 025c 52455345 		.ascii	"RESERVED0\000"
 2446      52564544 
 2446      3000
 2447              	.LASF24:
 2448 0266 52455345 		.ascii	"RESERVED1\000"
 2448      52564544 
 2448      3100
 2449              	.LASF26:
 2450 0270 52455345 		.ascii	"RESERVED2\000"
 2450      52564544 
 2450      3200
 2451              	.LASF28:
 2452 027a 52455345 		.ascii	"RESERVED3\000"
 2452      52564544 
 2452      3300
 2453              	.LASF30:
 2454 0284 52455345 		.ascii	"RESERVED4\000"
 2454      52564544 
 2454      3400
ARM GAS  G:\Users\Jaxb\AppData\Local\Temp\ccJtFoVs.s 			page 52


 2455              	.LASF32:
 2456 028e 52455345 		.ascii	"RESERVED5\000"
 2456      52564544 
 2456      3500
 2457              	.LASF34:
 2458 0298 52455345 		.ascii	"RESERVED6\000"
 2458      52564544 
 2458      3600
 2459              	.LASF52:
 2460 02a2 5254435F 		.ascii	"RTC_SetAlarm\000"
 2460      53657441 
 2460      6C61726D 
 2460      00
 2461              	.LASF38:
 2462 02af 52455345 		.ascii	"RESERVED8\000"
 2462      52564544 
 2462      3800
 2463              	.LASF40:
 2464 02b9 52455345 		.ascii	"RESERVED9\000"
 2464      52564544 
 2464      3900
 2465              	.LASF36:
 2466 02c3 52455345 		.ascii	"RESERVED7\000"
 2466      52564544 
 2466      3700
 2467              	.LASF22:
 2468 02cd 46756E63 		.ascii	"FunctionalState\000"
 2468      74696F6E 
 2468      616C5374 
 2468      61746500 
 2469              	.LASF60:
 2470 02dd 5254435F 		.ascii	"RTC_EnterConfigMode\000"
 2470      456E7465 
 2470      72436F6E 
 2470      6669674D 
 2470      6F646500 
 2471              	.LASF35:
 2472 02f1 434E544C 		.ascii	"CNTL\000"
 2472      00
 2473              	.LASF17:
 2474 02f6 52455345 		.ascii	"RESET\000"
 2474      5400
 2475              	.LASF58:
 2476 02fc 5254435F 		.ascii	"RTC_GetCounter\000"
 2476      47657443 
 2476      6F756E74 
 2476      657200
 2477              	.LASF37:
 2478 030b 414C5248 		.ascii	"ALRH\000"
 2478      00
 2479              	.LASF62:
 2480 0310 474E5520 		.ascii	"GNU C11 7.3.1 20180622 (release) [ARM/embedded-7-br"
 2480      43313120 
 2480      372E332E 
 2480      31203230 
 2480      31383036 
 2481 0343 616E6368 		.ascii	"anch revision 261907] -mcpu=cortex-m3 -mthumb -mapc"
ARM GAS  G:\Users\Jaxb\AppData\Local\Temp\ccJtFoVs.s 			page 53


 2481      20726576 
 2481      6973696F 
 2481      6E203236 
 2481      31393037 
 2482 0376 732D6672 		.ascii	"s-frame -mthumb-interwork -mcpu=cortex-m3 -mthumb -"
 2482      616D6520 
 2482      2D6D7468 
 2482      756D622D 
 2482      696E7465 
 2483 03a9 67647761 		.ascii	"gdwarf-2 -O0\000"
 2483      72662D32 
 2483      202D4F30 
 2483      00
 2484              	.LASF39:
 2485 03b6 414C524C 		.ascii	"ALRL\000"
 2485      00
 2486              	.LASF42:
 2487 03bb 5254435F 		.ascii	"RTC_IT\000"
 2487      495400
 2488              	.LASF15:
 2489 03c2 49544D5F 		.ascii	"ITM_RxBuffer\000"
 2489      52784275 
 2489      66666572 
 2489      00
 2490              	.LASF18:
 2491 03cf 466C6167 		.ascii	"FlagStatus\000"
 2491      53746174 
 2491      757300
 2492              	.LASF21:
 2493 03da 454E4142 		.ascii	"ENABLE\000"
 2493      4C4500
 2494              		.ident	"GCC: (GNU Tools for Arm Embedded Processors 7-2018-q2-update) 7.3.1 20180622 (release) [AR
ARM GAS  G:\Users\Jaxb\AppData\Local\Temp\ccJtFoVs.s 			page 54


DEFINED SYMBOLS
                            *ABS*:00000000 stm32f10x_rtc.c
G:\Users\Jaxb\AppData\Local\Temp\ccJtFoVs.s:15     .text:00000000 $t
G:\Users\Jaxb\AppData\Local\Temp\ccJtFoVs.s:22     .text:00000000 RTC_ITConfig
G:\Users\Jaxb\AppData\Local\Temp\ccJtFoVs.s:90     .text:00000048 $d
G:\Users\Jaxb\AppData\Local\Temp\ccJtFoVs.s:94     .text:0000004c $t
G:\Users\Jaxb\AppData\Local\Temp\ccJtFoVs.s:101    .text:0000004c RTC_EnterConfigMode
G:\Users\Jaxb\AppData\Local\Temp\ccJtFoVs.s:137    .text:00000068 $d
G:\Users\Jaxb\AppData\Local\Temp\ccJtFoVs.s:141    .text:0000006c $t
G:\Users\Jaxb\AppData\Local\Temp\ccJtFoVs.s:148    .text:0000006c RTC_ExitConfigMode
G:\Users\Jaxb\AppData\Local\Temp\ccJtFoVs.s:184    .text:00000088 $d
G:\Users\Jaxb\AppData\Local\Temp\ccJtFoVs.s:188    .text:0000008c $t
G:\Users\Jaxb\AppData\Local\Temp\ccJtFoVs.s:195    .text:0000008c RTC_GetCounter
G:\Users\Jaxb\AppData\Local\Temp\ccJtFoVs.s:243    .text:000000b4 $d
G:\Users\Jaxb\AppData\Local\Temp\ccJtFoVs.s:247    .text:000000b8 $t
G:\Users\Jaxb\AppData\Local\Temp\ccJtFoVs.s:254    .text:000000b8 RTC_SetCounter
G:\Users\Jaxb\AppData\Local\Temp\ccJtFoVs.s:300    .text:000000e4 $d
G:\Users\Jaxb\AppData\Local\Temp\ccJtFoVs.s:304    .text:000000e8 $t
G:\Users\Jaxb\AppData\Local\Temp\ccJtFoVs.s:311    .text:000000e8 RTC_SetPrescaler
G:\Users\Jaxb\AppData\Local\Temp\ccJtFoVs.s:359    .text:00000118 $d
G:\Users\Jaxb\AppData\Local\Temp\ccJtFoVs.s:363    .text:0000011c $t
G:\Users\Jaxb\AppData\Local\Temp\ccJtFoVs.s:370    .text:0000011c RTC_SetAlarm
G:\Users\Jaxb\AppData\Local\Temp\ccJtFoVs.s:416    .text:00000148 $d
G:\Users\Jaxb\AppData\Local\Temp\ccJtFoVs.s:420    .text:0000014c $t
G:\Users\Jaxb\AppData\Local\Temp\ccJtFoVs.s:427    .text:0000014c RTC_GetDivider
G:\Users\Jaxb\AppData\Local\Temp\ccJtFoVs.s:481    .text:00000180 $d
G:\Users\Jaxb\AppData\Local\Temp\ccJtFoVs.s:485    .text:00000184 $t
G:\Users\Jaxb\AppData\Local\Temp\ccJtFoVs.s:492    .text:00000184 RTC_WaitForLastTask
G:\Users\Jaxb\AppData\Local\Temp\ccJtFoVs.s:530    .text:000001a0 $d
G:\Users\Jaxb\AppData\Local\Temp\ccJtFoVs.s:534    .text:000001a4 $t
G:\Users\Jaxb\AppData\Local\Temp\ccJtFoVs.s:541    .text:000001a4 RTC_WaitForSynchro
G:\Users\Jaxb\AppData\Local\Temp\ccJtFoVs.s:587    .text:000001d0 $d
G:\Users\Jaxb\AppData\Local\Temp\ccJtFoVs.s:591    .text:000001d4 $t
G:\Users\Jaxb\AppData\Local\Temp\ccJtFoVs.s:598    .text:000001d4 RTC_GetFlagStatus
G:\Users\Jaxb\AppData\Local\Temp\ccJtFoVs.s:657    .text:00000208 $d
G:\Users\Jaxb\AppData\Local\Temp\ccJtFoVs.s:661    .text:0000020c $t
G:\Users\Jaxb\AppData\Local\Temp\ccJtFoVs.s:668    .text:0000020c RTC_ClearFlag
G:\Users\Jaxb\AppData\Local\Temp\ccJtFoVs.s:715    .text:00000234 $d
G:\Users\Jaxb\AppData\Local\Temp\ccJtFoVs.s:719    .text:00000238 $t
G:\Users\Jaxb\AppData\Local\Temp\ccJtFoVs.s:726    .text:00000238 RTC_GetITStatus
G:\Users\Jaxb\AppData\Local\Temp\ccJtFoVs.s:798    .text:00000284 $d
G:\Users\Jaxb\AppData\Local\Temp\ccJtFoVs.s:802    .text:00000288 $t
G:\Users\Jaxb\AppData\Local\Temp\ccJtFoVs.s:809    .text:00000288 RTC_ClearITPendingBit
G:\Users\Jaxb\AppData\Local\Temp\ccJtFoVs.s:856    .text:000002b0 $d

NO UNDEFINED SYMBOLS
