ARM GAS  G:\Users\Jaxb\AppData\Local\Temp\ccfyFrti.s 			page 1


   1              		.cpu cortex-m3
   2              		.eabi_attribute 20, 1
   3              		.eabi_attribute 21, 1
   4              		.eabi_attribute 23, 3
   5              		.eabi_attribute 24, 1
   6              		.eabi_attribute 25, 1
   7              		.eabi_attribute 26, 1
   8              		.eabi_attribute 30, 6
   9              		.eabi_attribute 34, 1
  10              		.eabi_attribute 18, 4
  11              		.file	"stm32_bsp.c"
  12              		.text
  13              	.Ltext0:
  14              		.cfi_sections	.debug_frame
  15              		.section	.rodata
  16              		.align	2
  17              		.type	para1, %object
  18              		.size	para1, 12
  19              	para1:
  20 0000 01000000 		.word	1
  21 0004 00000020 		.word	536870912
  22 0008 40000000 		.word	64
  23              		.align	2
  24              		.type	para2, %object
  25              		.size	para2, 12
  26              	para2:
  27 000c 02000000 		.word	2
  28 0010 00000068 		.word	1744830464
  29 0014 00040000 		.word	1024
  30              		.align	2
  31              	.LC0:
  32 0018 55534152 		.ascii	"USART1\000"
  32      543100
  33 001f 00       		.align	2
  34              	.LC1:
  35 0020 5352414D 		.ascii	"SRAM\000"
  35      00
  36 0025 000000   		.align	2
  37              	.LC2:
  38 0028 55534152 		.ascii	"USART2\000"
  38      543200
  39 002f 00       		.align	2
  40              	.LC3:
  41 0030 66697273 		.ascii	"first mem\000"
  41      74206D65 
  41      6D00
  42 003a 0000     		.align	2
  43              	.LC4:
  44 003c 7365636F 		.ascii	"second mem\000"
  44      6E64206D 
  44      656D00
  45 0047 00       		.align	2
  46              		.type	device_array, %object
  47              		.size	device_array, 100
  48              	device_array:
  49 0048 18000000 		.word	.LC0
  50 004c 00000000 		.word	0
ARM GAS  G:\Users\Jaxb\AppData\Local\Temp\ccfyFrti.s 			page 2


  51 0050 00       		.byte	0
  52 0051 000000   		.space	3
  53 0054 00000000 		.word	USART_Config
  54 0058 00000000 		.space	4
  55 005c 20000000 		.word	.LC1
  56 0060 00000000 		.word	0
  57 0064 00       		.byte	0
  58 0065 000000   		.space	3
  59 0068 00000000 		.word	FSMC_SRAM_Init
  60 006c 00000000 		.space	4
  61 0070 28000000 		.word	.LC2
  62 0074 00000000 		.word	0
  63 0078 00       		.byte	0
  64 0079 000000   		.space	3
  65 007c 00000000 		.word	USART2_Config
  66 0080 00000000 		.space	4
  67 0084 30000000 		.word	.LC3
  68 0088 00000000 		.word	0
  69 008c 01       		.byte	1
  70 008d 000000   		.space	3
  71 0090 00000000 		.word	buddy_init
  72 0094 00000000 		.word	para1
  73 0098 3C000000 		.word	.LC4
  74 009c 00000000 		.word	0
  75 00a0 01       		.byte	1
  76 00a1 000000   		.space	3
  77 00a4 00000000 		.word	buddy_init
  78 00a8 0C000000 		.word	para2
  79              		.text
  80              		.align	1
  81              		.global	ka_putchar
  82              		.syntax unified
  83              		.thumb
  84              		.thumb_func
  85              		.fpu softvfp
  86              		.type	ka_putchar, %function
  87              	ka_putchar:
  88              	.LFB33:
  89              		.file 1 "../../source/src/kernel/OS_CPU/bsp/stm32_bsp.c"
   1:../../source/src/kernel/OS_CPU/bsp/stm32_bsp.c **** #include <bsp.h>
   2:../../source/src/kernel/OS_CPU/bsp/stm32_bsp.c **** #include <buddy.h>
   3:../../source/src/kernel/OS_CPU/bsp/stm32_bsp.c **** #include <bsp_usart.h>
   4:../../source/src/kernel/OS_CPU/bsp/stm32_bsp.c **** #include <sram.h>
   5:../../source/src/kernel/OS_CPU/bsp/stm32_bsp.c **** #include <myMicroLIB.h>
   6:../../source/src/kernel/OS_CPU/bsp/stm32_bsp.c **** 
   7:../../source/src/kernel/OS_CPU/bsp/stm32_bsp.c **** static const struct dev_mem_para para1 = {
   8:../../source/src/kernel/OS_CPU/bsp/stm32_bsp.c **** 	.start = (void *)0x20000000,
   9:../../source/src/kernel/OS_CPU/bsp/stm32_bsp.c **** 	.size = 64, // KB
  10:../../source/src/kernel/OS_CPU/bsp/stm32_bsp.c **** 	.prio = 1,
  11:../../source/src/kernel/OS_CPU/bsp/stm32_bsp.c **** };
  12:../../source/src/kernel/OS_CPU/bsp/stm32_bsp.c **** 
  13:../../source/src/kernel/OS_CPU/bsp/stm32_bsp.c **** static const struct dev_mem_para para2 = {
  14:../../source/src/kernel/OS_CPU/bsp/stm32_bsp.c **** 	.start = (void *)0x68000000,
  15:../../source/src/kernel/OS_CPU/bsp/stm32_bsp.c **** 	.size = 1024, //KB
  16:../../source/src/kernel/OS_CPU/bsp/stm32_bsp.c **** 	.prio = 2,
  17:../../source/src/kernel/OS_CPU/bsp/stm32_bsp.c **** };
  18:../../source/src/kernel/OS_CPU/bsp/stm32_bsp.c **** 
ARM GAS  G:\Users\Jaxb\AppData\Local\Temp\ccfyFrti.s 			page 3


  19:../../source/src/kernel/OS_CPU/bsp/stm32_bsp.c **** static const struct device device_array[] = {
  20:../../source/src/kernel/OS_CPU/bsp/stm32_bsp.c **** 
  21:../../source/src/kernel/OS_CPU/bsp/stm32_bsp.c **** 	{
  22:../../source/src/kernel/OS_CPU/bsp/stm32_bsp.c **** 		.head.dev_name = "USART1",
  23:../../source/src/kernel/OS_CPU/bsp/stm32_bsp.c **** 		.head.dev_info = NULL,
  24:../../source/src/kernel/OS_CPU/bsp/stm32_bsp.c **** 		.head.type = DEV_NORMAL,
  25:../../source/src/kernel/OS_CPU/bsp/stm32_bsp.c **** 		.u.normal.init_fun = USART_Config,
  26:../../source/src/kernel/OS_CPU/bsp/stm32_bsp.c **** 	},
  27:../../source/src/kernel/OS_CPU/bsp/stm32_bsp.c **** 
  28:../../source/src/kernel/OS_CPU/bsp/stm32_bsp.c **** 	{
  29:../../source/src/kernel/OS_CPU/bsp/stm32_bsp.c **** 		.head.dev_name = "SRAM",
  30:../../source/src/kernel/OS_CPU/bsp/stm32_bsp.c **** 		.head.dev_info = NULL,
  31:../../source/src/kernel/OS_CPU/bsp/stm32_bsp.c **** 		.head.type = DEV_NORMAL,
  32:../../source/src/kernel/OS_CPU/bsp/stm32_bsp.c **** 		.u.normal.init_fun = FSMC_SRAM_Init,
  33:../../source/src/kernel/OS_CPU/bsp/stm32_bsp.c **** 	},
  34:../../source/src/kernel/OS_CPU/bsp/stm32_bsp.c **** 
  35:../../source/src/kernel/OS_CPU/bsp/stm32_bsp.c **** 	{
  36:../../source/src/kernel/OS_CPU/bsp/stm32_bsp.c **** 		.head.dev_name = "USART2",
  37:../../source/src/kernel/OS_CPU/bsp/stm32_bsp.c **** 		.head.dev_info = NULL,
  38:../../source/src/kernel/OS_CPU/bsp/stm32_bsp.c **** 		.head.type = DEV_NORMAL,
  39:../../source/src/kernel/OS_CPU/bsp/stm32_bsp.c **** 		.u.normal.init_fun = USART2_Config,
  40:../../source/src/kernel/OS_CPU/bsp/stm32_bsp.c **** 	},
  41:../../source/src/kernel/OS_CPU/bsp/stm32_bsp.c **** 
  42:../../source/src/kernel/OS_CPU/bsp/stm32_bsp.c **** 	{	
  43:../../source/src/kernel/OS_CPU/bsp/stm32_bsp.c **** 		.head.dev_name = "first mem",
  44:../../source/src/kernel/OS_CPU/bsp/stm32_bsp.c **** 		.head.dev_info = NULL,
  45:../../source/src/kernel/OS_CPU/bsp/stm32_bsp.c **** 		.head.type = DEV_MEM,
  46:../../source/src/kernel/OS_CPU/bsp/stm32_bsp.c **** 		.u.mem.init_fun = buddy_init,
  47:../../source/src/kernel/OS_CPU/bsp/stm32_bsp.c **** 		.u.mem.para = &para1,
  48:../../source/src/kernel/OS_CPU/bsp/stm32_bsp.c **** 	},
  49:../../source/src/kernel/OS_CPU/bsp/stm32_bsp.c **** 
  50:../../source/src/kernel/OS_CPU/bsp/stm32_bsp.c **** 	{	
  51:../../source/src/kernel/OS_CPU/bsp/stm32_bsp.c **** 		.head.dev_name = "second mem",
  52:../../source/src/kernel/OS_CPU/bsp/stm32_bsp.c **** 		.head.dev_info = NULL,
  53:../../source/src/kernel/OS_CPU/bsp/stm32_bsp.c **** 		.head.type = DEV_MEM,
  54:../../source/src/kernel/OS_CPU/bsp/stm32_bsp.c **** 		.u.mem.init_fun = buddy_init,
  55:../../source/src/kernel/OS_CPU/bsp/stm32_bsp.c **** 		.u.mem.para = &para2,
  56:../../source/src/kernel/OS_CPU/bsp/stm32_bsp.c **** 	}
  57:../../source/src/kernel/OS_CPU/bsp/stm32_bsp.c **** 	
  58:../../source/src/kernel/OS_CPU/bsp/stm32_bsp.c **** };
  59:../../source/src/kernel/OS_CPU/bsp/stm32_bsp.c **** 
  60:../../source/src/kernel/OS_CPU/bsp/stm32_bsp.c **** void ka_putchar(const char ch)  
  61:../../source/src/kernel/OS_CPU/bsp/stm32_bsp.c **** {
  90              		.loc 1 61 0
  91              		.cfi_startproc
  92              		@ args = 0, pretend = 0, frame = 8
  93              		@ frame_needed = 1, uses_anonymous_args = 0
  94 0000 80B5     		push	{r7, lr}
  95              	.LCFI0:
  96              		.cfi_def_cfa_offset 8
  97              		.cfi_offset 7, -8
  98              		.cfi_offset 14, -4
  99 0002 82B0     		sub	sp, sp, #8
 100              	.LCFI1:
 101              		.cfi_def_cfa_offset 16
 102 0004 00AF     		add	r7, sp, #0
 103              	.LCFI2:
ARM GAS  G:\Users\Jaxb\AppData\Local\Temp\ccfyFrti.s 			page 4


 104              		.cfi_def_cfa_register 7
 105 0006 0346     		mov	r3, r0
 106 0008 FB71     		strb	r3, [r7, #7]
  62:../../source/src/kernel/OS_CPU/bsp/stm32_bsp.c **** 	USART_SendData(DEBUG_USARTx,ch);
 107              		.loc 1 62 0
 108 000a FB79     		ldrb	r3, [r7, #7]	@ zero_extendqisi2
 109 000c 9BB2     		uxth	r3, r3
 110 000e 1946     		mov	r1, r3
 111 0010 0748     		ldr	r0, .L3
 112 0012 FFF7FEFF 		bl	USART_SendData
  63:../../source/src/kernel/OS_CPU/bsp/stm32_bsp.c **** 	while (USART_GetFlagStatus(DEBUG_USARTx, USART_FLAG_TXE) == RESET);
 113              		.loc 1 63 0
 114 0016 00BF     		nop
 115              	.L2:
 116              		.loc 1 63 0 is_stmt 0 discriminator 1
 117 0018 8021     		movs	r1, #128
 118 001a 0548     		ldr	r0, .L3
 119 001c FFF7FEFF 		bl	USART_GetFlagStatus
 120 0020 0346     		mov	r3, r0
 121 0022 002B     		cmp	r3, #0
 122 0024 F8D0     		beq	.L2
  64:../../source/src/kernel/OS_CPU/bsp/stm32_bsp.c **** }
 123              		.loc 1 64 0 is_stmt 1
 124 0026 00BF     		nop
 125 0028 0837     		adds	r7, r7, #8
 126              	.LCFI3:
 127              		.cfi_def_cfa_offset 8
 128 002a BD46     		mov	sp, r7
 129              	.LCFI4:
 130              		.cfi_def_cfa_register 13
 131              		@ sp needed
 132 002c 80BD     		pop	{r7, pc}
 133              	.L4:
 134 002e 00BF     		.align	2
 135              	.L3:
 136 0030 00380140 		.word	1073821696
 137              		.cfi_endproc
 138              	.LFE33:
 139              		.size	ka_putchar, .-ka_putchar
 140              		.align	1
 141              		.global	bsp_init
 142              		.syntax unified
 143              		.thumb
 144              		.thumb_func
 145              		.fpu softvfp
 146              		.type	bsp_init, %function
 147              	bsp_init:
 148              	.LFB34:
  65:../../source/src/kernel/OS_CPU/bsp/stm32_bsp.c **** 
  66:../../source/src/kernel/OS_CPU/bsp/stm32_bsp.c **** void bsp_init(void)
  67:../../source/src/kernel/OS_CPU/bsp/stm32_bsp.c **** {
 149              		.loc 1 67 0
 150              		.cfi_startproc
 151              		@ args = 0, pretend = 0, frame = 0
 152              		@ frame_needed = 1, uses_anonymous_args = 0
 153 0034 80B5     		push	{r7, lr}
 154              	.LCFI5:
ARM GAS  G:\Users\Jaxb\AppData\Local\Temp\ccfyFrti.s 			page 5


 155              		.cfi_def_cfa_offset 8
 156              		.cfi_offset 7, -8
 157              		.cfi_offset 14, -4
 158 0036 00AF     		add	r7, sp, #0
 159              	.LCFI6:
 160              		.cfi_def_cfa_register 7
  68:../../source/src/kernel/OS_CPU/bsp/stm32_bsp.c **** 	USART_Config();
 161              		.loc 1 68 0
 162 0038 FFF7FEFF 		bl	USART_Config
  69:../../source/src/kernel/OS_CPU/bsp/stm32_bsp.c **** 	_bsp_init(device_array,sizeof(device_array)/sizeof(struct device));
 163              		.loc 1 69 0
 164 003c 0521     		movs	r1, #5
 165 003e 0248     		ldr	r0, .L6
 166 0040 FFF7FEFF 		bl	_bsp_init
  70:../../source/src/kernel/OS_CPU/bsp/stm32_bsp.c **** }
 167              		.loc 1 70 0
 168 0044 00BF     		nop
 169 0046 80BD     		pop	{r7, pc}
 170              	.L7:
 171              		.align	2
 172              	.L6:
 173 0048 48000000 		.word	device_array
 174              		.cfi_endproc
 175              	.LFE34:
 176              		.size	bsp_init, .-bsp_init
 177              	.Letext0:
 178              		.file 2 "../../source/include/os_core/bsp.h"
 179              		.file 3 "../../source/include/os_cpu/kakaosstdint.h"
 180              		.file 4 "f:\\arm\\gcc2018\\arm-none-eabi\\include\\machine\\_default_types.h"
 181              		.file 5 "f:\\arm\\gcc2018\\arm-none-eabi\\include\\sys\\_stdint.h"
 182              		.file 6 "../../source/include/core_cm3.h"
 183              		.file 7 "../../source/include/system_stm32f10x.h"
 184              		.file 8 "../../source/include/stm32f10x.h"