ARM GAS  G:\Users\Jaxb\AppData\Local\Temp\cc9tYvdI.s 			page 1


   1              		.cpu cortex-m3
   2              		.eabi_attribute 20, 1
   3              		.eabi_attribute 21, 1
   4              		.eabi_attribute 23, 3
   5              		.eabi_attribute 24, 1
   6              		.eabi_attribute 25, 1
   7              		.eabi_attribute 26, 1
   8              		.eabi_attribute 30, 2
   9              		.eabi_attribute 34, 1
  10              		.eabi_attribute 18, 4
  11              		.file	"stm32f10x_cec.c"
  12              		.text
  13              	.Ltext0:
  14              		.cfi_sections	.debug_frame
  15              		.align	1
  16              		.p2align 2,,3
  17              		.global	CEC_DeInit
  18              		.syntax unified
  19              		.thumb
  20              		.thumb_func
  21              		.fpu softvfp
  22              		.type	CEC_DeInit, %function
  23              	CEC_DeInit:
  24              	.LFB29:
  25              		.file 1 "../../source/src/FWlib/src/stm32f10x_cec.c"
   1:../../source/src/FWlib/src/stm32f10x_cec.c **** /**
   2:../../source/src/FWlib/src/stm32f10x_cec.c ****   ******************************************************************************
   3:../../source/src/FWlib/src/stm32f10x_cec.c ****   * @file    stm32f10x_cec.c
   4:../../source/src/FWlib/src/stm32f10x_cec.c ****   * @author  MCD Application Team
   5:../../source/src/FWlib/src/stm32f10x_cec.c ****   * @version V3.5.0
   6:../../source/src/FWlib/src/stm32f10x_cec.c ****   * @date    11-March-2011
   7:../../source/src/FWlib/src/stm32f10x_cec.c ****   * @brief   This file provides all the CEC firmware functions.
   8:../../source/src/FWlib/src/stm32f10x_cec.c ****   ******************************************************************************
   9:../../source/src/FWlib/src/stm32f10x_cec.c ****   * @attention
  10:../../source/src/FWlib/src/stm32f10x_cec.c ****   *
  11:../../source/src/FWlib/src/stm32f10x_cec.c ****   * THE PRESENT FIRMWARE WHICH IS FOR GUIDANCE ONLY AIMS AT PROVIDING CUSTOMERS
  12:../../source/src/FWlib/src/stm32f10x_cec.c ****   * WITH CODING INFORMATION REGARDING THEIR PRODUCTS IN ORDER FOR THEM TO SAVE
  13:../../source/src/FWlib/src/stm32f10x_cec.c ****   * TIME. AS A RESULT, STMICROELECTRONICS SHALL NOT BE HELD LIABLE FOR ANY
  14:../../source/src/FWlib/src/stm32f10x_cec.c ****   * DIRECT, INDIRECT OR CONSEQUENTIAL DAMAGES WITH RESPECT TO ANY CLAIMS ARISING
  15:../../source/src/FWlib/src/stm32f10x_cec.c ****   * FROM THE CONTENT OF SUCH FIRMWARE AND/OR THE USE MADE BY CUSTOMERS OF THE
  16:../../source/src/FWlib/src/stm32f10x_cec.c ****   * CODING INFORMATION CONTAINED HEREIN IN CONNECTION WITH THEIR PRODUCTS.
  17:../../source/src/FWlib/src/stm32f10x_cec.c ****   *
  18:../../source/src/FWlib/src/stm32f10x_cec.c ****   * <h2><center>&copy; COPYRIGHT 2011 STMicroelectronics</center></h2>
  19:../../source/src/FWlib/src/stm32f10x_cec.c ****   ******************************************************************************
  20:../../source/src/FWlib/src/stm32f10x_cec.c ****   */
  21:../../source/src/FWlib/src/stm32f10x_cec.c **** 
  22:../../source/src/FWlib/src/stm32f10x_cec.c **** /* Includes ------------------------------------------------------------------*/
  23:../../source/src/FWlib/src/stm32f10x_cec.c **** #include "stm32f10x_cec.h"
  24:../../source/src/FWlib/src/stm32f10x_cec.c **** #include "stm32f10x_rcc.h"
  25:../../source/src/FWlib/src/stm32f10x_cec.c **** 
  26:../../source/src/FWlib/src/stm32f10x_cec.c **** /** @addtogroup STM32F10x_StdPeriph_Driver
  27:../../source/src/FWlib/src/stm32f10x_cec.c ****   * @{
  28:../../source/src/FWlib/src/stm32f10x_cec.c ****   */
  29:../../source/src/FWlib/src/stm32f10x_cec.c **** 
  30:../../source/src/FWlib/src/stm32f10x_cec.c **** /** @defgroup CEC 
  31:../../source/src/FWlib/src/stm32f10x_cec.c ****   * @brief CEC driver modules
  32:../../source/src/FWlib/src/stm32f10x_cec.c ****   * @{
ARM GAS  G:\Users\Jaxb\AppData\Local\Temp\cc9tYvdI.s 			page 2


  33:../../source/src/FWlib/src/stm32f10x_cec.c ****   */
  34:../../source/src/FWlib/src/stm32f10x_cec.c **** 
  35:../../source/src/FWlib/src/stm32f10x_cec.c **** /** @defgroup CEC_Private_TypesDefinitions
  36:../../source/src/FWlib/src/stm32f10x_cec.c ****   * @{
  37:../../source/src/FWlib/src/stm32f10x_cec.c ****   */
  38:../../source/src/FWlib/src/stm32f10x_cec.c **** 
  39:../../source/src/FWlib/src/stm32f10x_cec.c **** /**
  40:../../source/src/FWlib/src/stm32f10x_cec.c ****   * @}
  41:../../source/src/FWlib/src/stm32f10x_cec.c ****   */
  42:../../source/src/FWlib/src/stm32f10x_cec.c **** 
  43:../../source/src/FWlib/src/stm32f10x_cec.c **** 
  44:../../source/src/FWlib/src/stm32f10x_cec.c **** /** @defgroup CEC_Private_Defines
  45:../../source/src/FWlib/src/stm32f10x_cec.c ****   * @{
  46:../../source/src/FWlib/src/stm32f10x_cec.c ****   */ 
  47:../../source/src/FWlib/src/stm32f10x_cec.c **** 
  48:../../source/src/FWlib/src/stm32f10x_cec.c **** /* ------------ CEC registers bit address in the alias region ----------- */
  49:../../source/src/FWlib/src/stm32f10x_cec.c **** #define CEC_OFFSET                (CEC_BASE - PERIPH_BASE)
  50:../../source/src/FWlib/src/stm32f10x_cec.c **** 
  51:../../source/src/FWlib/src/stm32f10x_cec.c **** /* --- CFGR Register ---*/
  52:../../source/src/FWlib/src/stm32f10x_cec.c **** 
  53:../../source/src/FWlib/src/stm32f10x_cec.c **** /* Alias word address of PE bit */
  54:../../source/src/FWlib/src/stm32f10x_cec.c **** #define CFGR_OFFSET                 (CEC_OFFSET + 0x00)
  55:../../source/src/FWlib/src/stm32f10x_cec.c **** #define PE_BitNumber                0x00
  56:../../source/src/FWlib/src/stm32f10x_cec.c **** #define CFGR_PE_BB                  (PERIPH_BB_BASE + (CFGR_OFFSET * 32) + (PE_BitNumber * 4))
  57:../../source/src/FWlib/src/stm32f10x_cec.c **** 
  58:../../source/src/FWlib/src/stm32f10x_cec.c **** /* Alias word address of IE bit */
  59:../../source/src/FWlib/src/stm32f10x_cec.c **** #define IE_BitNumber                0x01
  60:../../source/src/FWlib/src/stm32f10x_cec.c **** #define CFGR_IE_BB                  (PERIPH_BB_BASE + (CFGR_OFFSET * 32) + (IE_BitNumber * 4))
  61:../../source/src/FWlib/src/stm32f10x_cec.c **** 
  62:../../source/src/FWlib/src/stm32f10x_cec.c **** /* --- CSR Register ---*/
  63:../../source/src/FWlib/src/stm32f10x_cec.c **** 
  64:../../source/src/FWlib/src/stm32f10x_cec.c **** /* Alias word address of TSOM bit */
  65:../../source/src/FWlib/src/stm32f10x_cec.c **** #define CSR_OFFSET                  (CEC_OFFSET + 0x10)
  66:../../source/src/FWlib/src/stm32f10x_cec.c **** #define TSOM_BitNumber              0x00
  67:../../source/src/FWlib/src/stm32f10x_cec.c **** #define CSR_TSOM_BB                 (PERIPH_BB_BASE + (CSR_OFFSET * 32) + (TSOM_BitNumber * 4))
  68:../../source/src/FWlib/src/stm32f10x_cec.c **** 
  69:../../source/src/FWlib/src/stm32f10x_cec.c **** /* Alias word address of TEOM bit */
  70:../../source/src/FWlib/src/stm32f10x_cec.c **** #define TEOM_BitNumber              0x01
  71:../../source/src/FWlib/src/stm32f10x_cec.c **** #define CSR_TEOM_BB                 (PERIPH_BB_BASE + (CSR_OFFSET * 32) + (TEOM_BitNumber * 4))
  72:../../source/src/FWlib/src/stm32f10x_cec.c ****   
  73:../../source/src/FWlib/src/stm32f10x_cec.c **** #define CFGR_CLEAR_Mask            (uint8_t)(0xF3)        /* CFGR register Mask */
  74:../../source/src/FWlib/src/stm32f10x_cec.c **** #define FLAG_Mask                  ((uint32_t)0x00FFFFFF) /* CEC FLAG mask */
  75:../../source/src/FWlib/src/stm32f10x_cec.c ****  
  76:../../source/src/FWlib/src/stm32f10x_cec.c **** /**
  77:../../source/src/FWlib/src/stm32f10x_cec.c ****   * @}
  78:../../source/src/FWlib/src/stm32f10x_cec.c ****   */ 
  79:../../source/src/FWlib/src/stm32f10x_cec.c **** 
  80:../../source/src/FWlib/src/stm32f10x_cec.c **** 
  81:../../source/src/FWlib/src/stm32f10x_cec.c **** /** @defgroup CEC_Private_Macros
  82:../../source/src/FWlib/src/stm32f10x_cec.c ****   * @{
  83:../../source/src/FWlib/src/stm32f10x_cec.c ****   */ 
  84:../../source/src/FWlib/src/stm32f10x_cec.c **** 
  85:../../source/src/FWlib/src/stm32f10x_cec.c **** /**
  86:../../source/src/FWlib/src/stm32f10x_cec.c ****   * @}
  87:../../source/src/FWlib/src/stm32f10x_cec.c ****   */ 
  88:../../source/src/FWlib/src/stm32f10x_cec.c **** 
  89:../../source/src/FWlib/src/stm32f10x_cec.c **** 
ARM GAS  G:\Users\Jaxb\AppData\Local\Temp\cc9tYvdI.s 			page 3


  90:../../source/src/FWlib/src/stm32f10x_cec.c **** /** @defgroup CEC_Private_Variables
  91:../../source/src/FWlib/src/stm32f10x_cec.c ****   * @{
  92:../../source/src/FWlib/src/stm32f10x_cec.c ****   */ 
  93:../../source/src/FWlib/src/stm32f10x_cec.c **** 
  94:../../source/src/FWlib/src/stm32f10x_cec.c **** /**
  95:../../source/src/FWlib/src/stm32f10x_cec.c ****   * @}
  96:../../source/src/FWlib/src/stm32f10x_cec.c ****   */ 
  97:../../source/src/FWlib/src/stm32f10x_cec.c **** 
  98:../../source/src/FWlib/src/stm32f10x_cec.c **** 
  99:../../source/src/FWlib/src/stm32f10x_cec.c **** /** @defgroup CEC_Private_FunctionPrototypes
 100:../../source/src/FWlib/src/stm32f10x_cec.c ****   * @{
 101:../../source/src/FWlib/src/stm32f10x_cec.c ****   */
 102:../../source/src/FWlib/src/stm32f10x_cec.c ****  
 103:../../source/src/FWlib/src/stm32f10x_cec.c **** /**
 104:../../source/src/FWlib/src/stm32f10x_cec.c ****   * @}
 105:../../source/src/FWlib/src/stm32f10x_cec.c ****   */ 
 106:../../source/src/FWlib/src/stm32f10x_cec.c **** 
 107:../../source/src/FWlib/src/stm32f10x_cec.c **** 
 108:../../source/src/FWlib/src/stm32f10x_cec.c **** /** @defgroup CEC_Private_Functions
 109:../../source/src/FWlib/src/stm32f10x_cec.c ****   * @{
 110:../../source/src/FWlib/src/stm32f10x_cec.c ****   */ 
 111:../../source/src/FWlib/src/stm32f10x_cec.c **** 
 112:../../source/src/FWlib/src/stm32f10x_cec.c **** /**
 113:../../source/src/FWlib/src/stm32f10x_cec.c ****   * @brief  Deinitializes the CEC peripheral registers to their default reset 
 114:../../source/src/FWlib/src/stm32f10x_cec.c ****   *         values.
 115:../../source/src/FWlib/src/stm32f10x_cec.c ****   * @param  None
 116:../../source/src/FWlib/src/stm32f10x_cec.c ****   * @retval None
 117:../../source/src/FWlib/src/stm32f10x_cec.c ****   */
 118:../../source/src/FWlib/src/stm32f10x_cec.c **** void CEC_DeInit(void)
 119:../../source/src/FWlib/src/stm32f10x_cec.c **** {
  26              		.loc 1 119 0
  27              		.cfi_startproc
  28              		@ args = 0, pretend = 0, frame = 0
  29              		@ frame_needed = 0, uses_anonymous_args = 0
  30 0000 08B5     		push	{r3, lr}
  31              	.LCFI0:
  32              		.cfi_def_cfa_offset 8
  33              		.cfi_offset 3, -8
  34              		.cfi_offset 14, -4
 120:../../source/src/FWlib/src/stm32f10x_cec.c ****   /* Enable CEC reset state */
 121:../../source/src/FWlib/src/stm32f10x_cec.c ****   RCC_APB1PeriphResetCmd(RCC_APB1Periph_CEC, ENABLE);  
  35              		.loc 1 121 0
  36 0002 0121     		movs	r1, #1
  37 0004 4FF08040 		mov	r0, #1073741824
  38 0008 FFF7FEFF 		bl	RCC_APB1PeriphResetCmd
  39              	.LVL0:
 122:../../source/src/FWlib/src/stm32f10x_cec.c ****   /* Release CEC from reset state */
 123:../../source/src/FWlib/src/stm32f10x_cec.c ****   RCC_APB1PeriphResetCmd(RCC_APB1Periph_CEC, DISABLE); 
 124:../../source/src/FWlib/src/stm32f10x_cec.c **** }
  40              		.loc 1 124 0
  41 000c BDE80840 		pop	{r3, lr}
  42              	.LCFI1:
  43              		.cfi_restore 14
  44              		.cfi_restore 3
  45              		.cfi_def_cfa_offset 0
 123:../../source/src/FWlib/src/stm32f10x_cec.c **** }
  46              		.loc 1 123 0
ARM GAS  G:\Users\Jaxb\AppData\Local\Temp\cc9tYvdI.s 			page 4


  47 0010 0021     		movs	r1, #0
  48 0012 4FF08040 		mov	r0, #1073741824
  49 0016 FFF7FEBF 		b	RCC_APB1PeriphResetCmd
  50              	.LVL1:
  51              		.cfi_endproc
  52              	.LFE29:
  53              		.size	CEC_DeInit, .-CEC_DeInit
  54              		.align	1
  55 001a 00BF     		.p2align 2,,3
  56              		.global	CEC_Init
  57              		.syntax unified
  58              		.thumb
  59              		.thumb_func
  60              		.fpu softvfp
  61              		.type	CEC_Init, %function
  62              	CEC_Init:
  63              	.LFB30:
 125:../../source/src/FWlib/src/stm32f10x_cec.c **** 
 126:../../source/src/FWlib/src/stm32f10x_cec.c **** 
 127:../../source/src/FWlib/src/stm32f10x_cec.c **** /**
 128:../../source/src/FWlib/src/stm32f10x_cec.c ****   * @brief  Initializes the CEC peripheral according to the specified 
 129:../../source/src/FWlib/src/stm32f10x_cec.c ****   *         parameters in the CEC_InitStruct.
 130:../../source/src/FWlib/src/stm32f10x_cec.c ****   * @param  CEC_InitStruct: pointer to an CEC_InitTypeDef structure that
 131:../../source/src/FWlib/src/stm32f10x_cec.c ****   *         contains the configuration information for the specified
 132:../../source/src/FWlib/src/stm32f10x_cec.c ****   *         CEC peripheral.
 133:../../source/src/FWlib/src/stm32f10x_cec.c ****   * @retval None
 134:../../source/src/FWlib/src/stm32f10x_cec.c ****   */
 135:../../source/src/FWlib/src/stm32f10x_cec.c **** void CEC_Init(CEC_InitTypeDef* CEC_InitStruct)
 136:../../source/src/FWlib/src/stm32f10x_cec.c **** {
  64              		.loc 1 136 0
  65              		.cfi_startproc
  66              		@ args = 0, pretend = 0, frame = 0
  67              		@ frame_needed = 0, uses_anonymous_args = 0
  68              		@ link register save eliminated.
  69              	.LVL2:
 137:../../source/src/FWlib/src/stm32f10x_cec.c ****   uint16_t tmpreg = 0;
 138:../../source/src/FWlib/src/stm32f10x_cec.c ****  
 139:../../source/src/FWlib/src/stm32f10x_cec.c ****   /* Check the parameters */
 140:../../source/src/FWlib/src/stm32f10x_cec.c ****   assert_param(IS_CEC_BIT_TIMING_ERROR_MODE(CEC_InitStruct->CEC_BitTimingMode)); 
 141:../../source/src/FWlib/src/stm32f10x_cec.c ****   assert_param(IS_CEC_BIT_PERIOD_ERROR_MODE(CEC_InitStruct->CEC_BitPeriodMode));
 142:../../source/src/FWlib/src/stm32f10x_cec.c ****      
 143:../../source/src/FWlib/src/stm32f10x_cec.c ****   /*---------------------------- CEC CFGR Configuration -----------------*/
 144:../../source/src/FWlib/src/stm32f10x_cec.c ****   /* Get the CEC CFGR value */
 145:../../source/src/FWlib/src/stm32f10x_cec.c ****   tmpreg = CEC->CFGR;
  70              		.loc 1 145 0
  71 001c 0449     		ldr	r1, .L4
 146:../../source/src/FWlib/src/stm32f10x_cec.c ****   
 147:../../source/src/FWlib/src/stm32f10x_cec.c ****   /* Clear BTEM and BPEM bits */
 148:../../source/src/FWlib/src/stm32f10x_cec.c ****   tmpreg &= CFGR_CLEAR_Mask;
 149:../../source/src/FWlib/src/stm32f10x_cec.c ****   
 150:../../source/src/FWlib/src/stm32f10x_cec.c ****   /* Configure CEC: Bit Timing Error and Bit Period Error */
 151:../../source/src/FWlib/src/stm32f10x_cec.c ****   tmpreg |= (uint16_t)(CEC_InitStruct->CEC_BitTimingMode | CEC_InitStruct->CEC_BitPeriodMode);
  72              		.loc 1 151 0
  73 001e 0288     		ldrh	r2, [r0]
 145:../../source/src/FWlib/src/stm32f10x_cec.c ****   
  74              		.loc 1 145 0
  75 0020 0B68     		ldr	r3, [r1]
ARM GAS  G:\Users\Jaxb\AppData\Local\Temp\cc9tYvdI.s 			page 5


  76              	.LVL3:
  77              		.loc 1 151 0
  78 0022 4088     		ldrh	r0, [r0, #2]
  79              	.LVL4:
 148:../../source/src/FWlib/src/stm32f10x_cec.c ****   
  80              		.loc 1 148 0
  81 0024 03F0F303 		and	r3, r3, #243
  82              	.LVL5:
  83              		.loc 1 151 0
  84 0028 0243     		orrs	r2, r2, r0
 152:../../source/src/FWlib/src/stm32f10x_cec.c **** 
 153:../../source/src/FWlib/src/stm32f10x_cec.c ****   /* Write to CEC CFGR  register*/
 154:../../source/src/FWlib/src/stm32f10x_cec.c ****   CEC->CFGR = tmpreg;
  85              		.loc 1 154 0
  86 002a 1343     		orrs	r3, r3, r2
  87              	.LVL6:
  88 002c 0B60     		str	r3, [r1]
 155:../../source/src/FWlib/src/stm32f10x_cec.c ****   
 156:../../source/src/FWlib/src/stm32f10x_cec.c **** }
  89              		.loc 1 156 0
  90 002e 7047     		bx	lr
  91              	.L5:
  92              		.align	2
  93              	.L4:
  94 0030 00780040 		.word	1073772544
  95              		.cfi_endproc
  96              	.LFE30:
  97              		.size	CEC_Init, .-CEC_Init
  98              		.align	1
  99              		.p2align 2,,3
 100              		.global	CEC_Cmd
 101              		.syntax unified
 102              		.thumb
 103              		.thumb_func
 104              		.fpu softvfp
 105              		.type	CEC_Cmd, %function
 106              	CEC_Cmd:
 107              	.LFB31:
 157:../../source/src/FWlib/src/stm32f10x_cec.c **** 
 158:../../source/src/FWlib/src/stm32f10x_cec.c **** /**
 159:../../source/src/FWlib/src/stm32f10x_cec.c ****   * @brief  Enables or disables the specified CEC peripheral.
 160:../../source/src/FWlib/src/stm32f10x_cec.c ****   * @param  NewState: new state of the CEC peripheral. 
 161:../../source/src/FWlib/src/stm32f10x_cec.c ****   *     This parameter can be: ENABLE or DISABLE.
 162:../../source/src/FWlib/src/stm32f10x_cec.c ****   * @retval None
 163:../../source/src/FWlib/src/stm32f10x_cec.c ****   */
 164:../../source/src/FWlib/src/stm32f10x_cec.c **** void CEC_Cmd(FunctionalState NewState)
 165:../../source/src/FWlib/src/stm32f10x_cec.c **** {
 108              		.loc 1 165 0
 109              		.cfi_startproc
 110              		@ args = 0, pretend = 0, frame = 0
 111              		@ frame_needed = 0, uses_anonymous_args = 0
 112              		@ link register save eliminated.
 113              	.LVL7:
 166:../../source/src/FWlib/src/stm32f10x_cec.c ****   /* Check the parameters */
 167:../../source/src/FWlib/src/stm32f10x_cec.c ****   assert_param(IS_FUNCTIONAL_STATE(NewState));
 168:../../source/src/FWlib/src/stm32f10x_cec.c **** 
 169:../../source/src/FWlib/src/stm32f10x_cec.c ****   *(__IO uint32_t *) CFGR_PE_BB = (uint32_t)NewState;
ARM GAS  G:\Users\Jaxb\AppData\Local\Temp\cc9tYvdI.s 			page 6


 114              		.loc 1 169 0
 115 0034 034B     		ldr	r3, .L10
 116 0036 1860     		str	r0, [r3]
 170:../../source/src/FWlib/src/stm32f10x_cec.c **** 
 171:../../source/src/FWlib/src/stm32f10x_cec.c ****   if(NewState == DISABLE)
 117              		.loc 1 171 0
 118 0038 18B9     		cbnz	r0, .L6
 172:../../source/src/FWlib/src/stm32f10x_cec.c ****   {
 173:../../source/src/FWlib/src/stm32f10x_cec.c ****     /* Wait until the PE bit is cleared by hardware (Idle Line detected) */
 174:../../source/src/FWlib/src/stm32f10x_cec.c ****     while((CEC->CFGR & CEC_CFGR_PE) != (uint32_t)RESET)
 119              		.loc 1 174 0
 120 003a 034A     		ldr	r2, .L10+4
 121              	.L8:
 122              		.loc 1 174 0 is_stmt 0 discriminator 1
 123 003c 1368     		ldr	r3, [r2]
 124 003e DB07     		lsls	r3, r3, #31
 125 0040 FCD4     		bmi	.L8
 126              	.L6:
 175:../../source/src/FWlib/src/stm32f10x_cec.c ****     {
 176:../../source/src/FWlib/src/stm32f10x_cec.c ****     }  
 177:../../source/src/FWlib/src/stm32f10x_cec.c ****   }  
 178:../../source/src/FWlib/src/stm32f10x_cec.c **** }
 127              		.loc 1 178 0 is_stmt 1
 128 0042 7047     		bx	lr
 129              	.L11:
 130              		.align	2
 131              	.L10:
 132 0044 00000F42 		.word	1108279296
 133 0048 00780040 		.word	1073772544
 134              		.cfi_endproc
 135              	.LFE31:
 136              		.size	CEC_Cmd, .-CEC_Cmd
 137              		.align	1
 138              		.p2align 2,,3
 139              		.global	CEC_ITConfig
 140              		.syntax unified
 141              		.thumb
 142              		.thumb_func
 143              		.fpu softvfp
 144              		.type	CEC_ITConfig, %function
 145              	CEC_ITConfig:
 146              	.LFB32:
 179:../../source/src/FWlib/src/stm32f10x_cec.c **** 
 180:../../source/src/FWlib/src/stm32f10x_cec.c **** /**
 181:../../source/src/FWlib/src/stm32f10x_cec.c ****   * @brief  Enables or disables the CEC interrupt.
 182:../../source/src/FWlib/src/stm32f10x_cec.c ****   * @param  NewState: new state of the CEC interrupt.
 183:../../source/src/FWlib/src/stm32f10x_cec.c ****   *   This parameter can be: ENABLE or DISABLE.
 184:../../source/src/FWlib/src/stm32f10x_cec.c ****   * @retval None
 185:../../source/src/FWlib/src/stm32f10x_cec.c ****   */
 186:../../source/src/FWlib/src/stm32f10x_cec.c **** void CEC_ITConfig(FunctionalState NewState)
 187:../../source/src/FWlib/src/stm32f10x_cec.c **** {
 147              		.loc 1 187 0
 148              		.cfi_startproc
 149              		@ args = 0, pretend = 0, frame = 0
 150              		@ frame_needed = 0, uses_anonymous_args = 0
 151              		@ link register save eliminated.
 152              	.LVL8:
ARM GAS  G:\Users\Jaxb\AppData\Local\Temp\cc9tYvdI.s 			page 7


 188:../../source/src/FWlib/src/stm32f10x_cec.c ****   /* Check the parameters */
 189:../../source/src/FWlib/src/stm32f10x_cec.c ****   assert_param(IS_FUNCTIONAL_STATE(NewState));
 190:../../source/src/FWlib/src/stm32f10x_cec.c **** 
 191:../../source/src/FWlib/src/stm32f10x_cec.c ****   *(__IO uint32_t *) CFGR_IE_BB = (uint32_t)NewState;
 153              		.loc 1 191 0
 154 004c 014B     		ldr	r3, .L13
 155 004e 1860     		str	r0, [r3]
 192:../../source/src/FWlib/src/stm32f10x_cec.c **** }
 156              		.loc 1 192 0
 157 0050 7047     		bx	lr
 158              	.L14:
 159 0052 00BF     		.align	2
 160              	.L13:
 161 0054 04000F42 		.word	1108279300
 162              		.cfi_endproc
 163              	.LFE32:
 164              		.size	CEC_ITConfig, .-CEC_ITConfig
 165              		.align	1
 166              		.p2align 2,,3
 167              		.global	CEC_OwnAddressConfig
 168              		.syntax unified
 169              		.thumb
 170              		.thumb_func
 171              		.fpu softvfp
 172              		.type	CEC_OwnAddressConfig, %function
 173              	CEC_OwnAddressConfig:
 174              	.LFB33:
 193:../../source/src/FWlib/src/stm32f10x_cec.c **** 
 194:../../source/src/FWlib/src/stm32f10x_cec.c **** /**
 195:../../source/src/FWlib/src/stm32f10x_cec.c ****   * @brief  Defines the Own Address of the CEC device.
 196:../../source/src/FWlib/src/stm32f10x_cec.c ****   * @param  CEC_OwnAddress: The CEC own address
 197:../../source/src/FWlib/src/stm32f10x_cec.c ****   * @retval None
 198:../../source/src/FWlib/src/stm32f10x_cec.c ****   */
 199:../../source/src/FWlib/src/stm32f10x_cec.c **** void CEC_OwnAddressConfig(uint8_t CEC_OwnAddress)
 200:../../source/src/FWlib/src/stm32f10x_cec.c **** {
 175              		.loc 1 200 0
 176              		.cfi_startproc
 177              		@ args = 0, pretend = 0, frame = 0
 178              		@ frame_needed = 0, uses_anonymous_args = 0
 179              		@ link register save eliminated.
 180              	.LVL9:
 201:../../source/src/FWlib/src/stm32f10x_cec.c ****   /* Check the parameters */
 202:../../source/src/FWlib/src/stm32f10x_cec.c ****   assert_param(IS_CEC_ADDRESS(CEC_OwnAddress));
 203:../../source/src/FWlib/src/stm32f10x_cec.c **** 
 204:../../source/src/FWlib/src/stm32f10x_cec.c ****   /* Set the CEC own address */
 205:../../source/src/FWlib/src/stm32f10x_cec.c ****   CEC->OAR = CEC_OwnAddress;
 181              		.loc 1 205 0
 182 0058 014B     		ldr	r3, .L16
 183 005a 5860     		str	r0, [r3, #4]
 206:../../source/src/FWlib/src/stm32f10x_cec.c **** }
 184              		.loc 1 206 0
 185 005c 7047     		bx	lr
 186              	.L17:
 187 005e 00BF     		.align	2
 188              	.L16:
 189 0060 00780040 		.word	1073772544
 190              		.cfi_endproc
ARM GAS  G:\Users\Jaxb\AppData\Local\Temp\cc9tYvdI.s 			page 8


 191              	.LFE33:
 192              		.size	CEC_OwnAddressConfig, .-CEC_OwnAddressConfig
 193              		.align	1
 194              		.p2align 2,,3
 195              		.global	CEC_SetPrescaler
 196              		.syntax unified
 197              		.thumb
 198              		.thumb_func
 199              		.fpu softvfp
 200              		.type	CEC_SetPrescaler, %function
 201              	CEC_SetPrescaler:
 202              	.LFB34:
 207:../../source/src/FWlib/src/stm32f10x_cec.c **** 
 208:../../source/src/FWlib/src/stm32f10x_cec.c **** /**
 209:../../source/src/FWlib/src/stm32f10x_cec.c ****   * @brief  Sets the CEC prescaler value.
 210:../../source/src/FWlib/src/stm32f10x_cec.c ****   * @param  CEC_Prescaler: CEC prescaler new value
 211:../../source/src/FWlib/src/stm32f10x_cec.c ****   * @retval None
 212:../../source/src/FWlib/src/stm32f10x_cec.c ****   */
 213:../../source/src/FWlib/src/stm32f10x_cec.c **** void CEC_SetPrescaler(uint16_t CEC_Prescaler)
 214:../../source/src/FWlib/src/stm32f10x_cec.c **** {
 203              		.loc 1 214 0
 204              		.cfi_startproc
 205              		@ args = 0, pretend = 0, frame = 0
 206              		@ frame_needed = 0, uses_anonymous_args = 0
 207              		@ link register save eliminated.
 208              	.LVL10:
 215:../../source/src/FWlib/src/stm32f10x_cec.c ****   /* Check the parameters */
 216:../../source/src/FWlib/src/stm32f10x_cec.c ****   assert_param(IS_CEC_PRESCALER(CEC_Prescaler));
 217:../../source/src/FWlib/src/stm32f10x_cec.c **** 
 218:../../source/src/FWlib/src/stm32f10x_cec.c ****   /* Set the  Prescaler value*/
 219:../../source/src/FWlib/src/stm32f10x_cec.c ****   CEC->PRES = CEC_Prescaler;
 209              		.loc 1 219 0
 210 0064 014B     		ldr	r3, .L19
 211 0066 9860     		str	r0, [r3, #8]
 220:../../source/src/FWlib/src/stm32f10x_cec.c **** }
 212              		.loc 1 220 0
 213 0068 7047     		bx	lr
 214              	.L20:
 215 006a 00BF     		.align	2
 216              	.L19:
 217 006c 00780040 		.word	1073772544
 218              		.cfi_endproc
 219              	.LFE34:
 220              		.size	CEC_SetPrescaler, .-CEC_SetPrescaler
 221              		.align	1
 222              		.p2align 2,,3
 223              		.global	CEC_SendDataByte
 224              		.syntax unified
 225              		.thumb
 226              		.thumb_func
 227              		.fpu softvfp
 228              		.type	CEC_SendDataByte, %function
 229              	CEC_SendDataByte:
 230              	.LFB35:
 221:../../source/src/FWlib/src/stm32f10x_cec.c **** 
 222:../../source/src/FWlib/src/stm32f10x_cec.c **** /**
 223:../../source/src/FWlib/src/stm32f10x_cec.c ****   * @brief  Transmits single data through the CEC peripheral.
ARM GAS  G:\Users\Jaxb\AppData\Local\Temp\cc9tYvdI.s 			page 9


 224:../../source/src/FWlib/src/stm32f10x_cec.c ****   * @param  Data: the data to transmit.
 225:../../source/src/FWlib/src/stm32f10x_cec.c ****   * @retval None
 226:../../source/src/FWlib/src/stm32f10x_cec.c ****   */
 227:../../source/src/FWlib/src/stm32f10x_cec.c **** void CEC_SendDataByte(uint8_t Data)
 228:../../source/src/FWlib/src/stm32f10x_cec.c **** {  
 231              		.loc 1 228 0
 232              		.cfi_startproc
 233              		@ args = 0, pretend = 0, frame = 0
 234              		@ frame_needed = 0, uses_anonymous_args = 0
 235              		@ link register save eliminated.
 236              	.LVL11:
 229:../../source/src/FWlib/src/stm32f10x_cec.c ****   /* Transmit Data */
 230:../../source/src/FWlib/src/stm32f10x_cec.c ****   CEC->TXD = Data ;
 237              		.loc 1 230 0
 238 0070 014B     		ldr	r3, .L22
 239 0072 5861     		str	r0, [r3, #20]
 231:../../source/src/FWlib/src/stm32f10x_cec.c **** }
 240              		.loc 1 231 0
 241 0074 7047     		bx	lr
 242              	.L23:
 243 0076 00BF     		.align	2
 244              	.L22:
 245 0078 00780040 		.word	1073772544
 246              		.cfi_endproc
 247              	.LFE35:
 248              		.size	CEC_SendDataByte, .-CEC_SendDataByte
 249              		.align	1
 250              		.p2align 2,,3
 251              		.global	CEC_ReceiveDataByte
 252              		.syntax unified
 253              		.thumb
 254              		.thumb_func
 255              		.fpu softvfp
 256              		.type	CEC_ReceiveDataByte, %function
 257              	CEC_ReceiveDataByte:
 258              	.LFB36:
 232:../../source/src/FWlib/src/stm32f10x_cec.c **** 
 233:../../source/src/FWlib/src/stm32f10x_cec.c **** 
 234:../../source/src/FWlib/src/stm32f10x_cec.c **** /**
 235:../../source/src/FWlib/src/stm32f10x_cec.c ****   * @brief  Returns the most recent received data by the CEC peripheral.
 236:../../source/src/FWlib/src/stm32f10x_cec.c ****   * @param  None
 237:../../source/src/FWlib/src/stm32f10x_cec.c ****   * @retval The received data.
 238:../../source/src/FWlib/src/stm32f10x_cec.c ****   */
 239:../../source/src/FWlib/src/stm32f10x_cec.c **** uint8_t CEC_ReceiveDataByte(void)
 240:../../source/src/FWlib/src/stm32f10x_cec.c **** {
 259              		.loc 1 240 0
 260              		.cfi_startproc
 261              		@ args = 0, pretend = 0, frame = 0
 262              		@ frame_needed = 0, uses_anonymous_args = 0
 263              		@ link register save eliminated.
 241:../../source/src/FWlib/src/stm32f10x_cec.c ****   /* Receive Data */
 242:../../source/src/FWlib/src/stm32f10x_cec.c ****   return (uint8_t)(CEC->RXD);
 264              		.loc 1 242 0
 265 007c 014B     		ldr	r3, .L25
 266 007e 9869     		ldr	r0, [r3, #24]
 243:../../source/src/FWlib/src/stm32f10x_cec.c **** }
 267              		.loc 1 243 0
ARM GAS  G:\Users\Jaxb\AppData\Local\Temp\cc9tYvdI.s 			page 10


 268 0080 C0B2     		uxtb	r0, r0
 269 0082 7047     		bx	lr
 270              	.L26:
 271              		.align	2
 272              	.L25:
 273 0084 00780040 		.word	1073772544
 274              		.cfi_endproc
 275              	.LFE36:
 276              		.size	CEC_ReceiveDataByte, .-CEC_ReceiveDataByte
 277              		.align	1
 278              		.p2align 2,,3
 279              		.global	CEC_StartOfMessage
 280              		.syntax unified
 281              		.thumb
 282              		.thumb_func
 283              		.fpu softvfp
 284              		.type	CEC_StartOfMessage, %function
 285              	CEC_StartOfMessage:
 286              	.LFB37:
 244:../../source/src/FWlib/src/stm32f10x_cec.c **** 
 245:../../source/src/FWlib/src/stm32f10x_cec.c **** /**
 246:../../source/src/FWlib/src/stm32f10x_cec.c ****   * @brief  Starts a new message.
 247:../../source/src/FWlib/src/stm32f10x_cec.c ****   * @param  None
 248:../../source/src/FWlib/src/stm32f10x_cec.c ****   * @retval None
 249:../../source/src/FWlib/src/stm32f10x_cec.c ****   */
 250:../../source/src/FWlib/src/stm32f10x_cec.c **** void CEC_StartOfMessage(void)
 251:../../source/src/FWlib/src/stm32f10x_cec.c **** {  
 287              		.loc 1 251 0
 288              		.cfi_startproc
 289              		@ args = 0, pretend = 0, frame = 0
 290              		@ frame_needed = 0, uses_anonymous_args = 0
 291              		@ link register save eliminated.
 252:../../source/src/FWlib/src/stm32f10x_cec.c ****   /* Starts of new message */
 253:../../source/src/FWlib/src/stm32f10x_cec.c ****   *(__IO uint32_t *) CSR_TSOM_BB = (uint32_t)0x1;
 292              		.loc 1 253 0
 293 0088 0122     		movs	r2, #1
 294 008a 014B     		ldr	r3, .L28
 295 008c 1A60     		str	r2, [r3]
 254:../../source/src/FWlib/src/stm32f10x_cec.c **** }
 296              		.loc 1 254 0
 297 008e 7047     		bx	lr
 298              	.L29:
 299              		.align	2
 300              	.L28:
 301 0090 00020F42 		.word	1108279808
 302              		.cfi_endproc
 303              	.LFE37:
 304              		.size	CEC_StartOfMessage, .-CEC_StartOfMessage
 305              		.align	1
 306              		.p2align 2,,3
 307              		.global	CEC_EndOfMessageCmd
 308              		.syntax unified
 309              		.thumb
 310              		.thumb_func
 311              		.fpu softvfp
 312              		.type	CEC_EndOfMessageCmd, %function
 313              	CEC_EndOfMessageCmd:
ARM GAS  G:\Users\Jaxb\AppData\Local\Temp\cc9tYvdI.s 			page 11


 314              	.LFB38:
 255:../../source/src/FWlib/src/stm32f10x_cec.c **** 
 256:../../source/src/FWlib/src/stm32f10x_cec.c **** /**
 257:../../source/src/FWlib/src/stm32f10x_cec.c ****   * @brief  Transmits message with or without an EOM bit.
 258:../../source/src/FWlib/src/stm32f10x_cec.c ****   * @param  NewState: new state of the CEC Tx End Of Message. 
 259:../../source/src/FWlib/src/stm32f10x_cec.c ****   *     This parameter can be: ENABLE or DISABLE.
 260:../../source/src/FWlib/src/stm32f10x_cec.c ****   * @retval None
 261:../../source/src/FWlib/src/stm32f10x_cec.c ****   */
 262:../../source/src/FWlib/src/stm32f10x_cec.c **** void CEC_EndOfMessageCmd(FunctionalState NewState)
 263:../../source/src/FWlib/src/stm32f10x_cec.c **** {   
 315              		.loc 1 263 0
 316              		.cfi_startproc
 317              		@ args = 0, pretend = 0, frame = 0
 318              		@ frame_needed = 0, uses_anonymous_args = 0
 319              		@ link register save eliminated.
 320              	.LVL12:
 264:../../source/src/FWlib/src/stm32f10x_cec.c ****   /* Check the parameters */
 265:../../source/src/FWlib/src/stm32f10x_cec.c ****   assert_param(IS_FUNCTIONAL_STATE(NewState));
 266:../../source/src/FWlib/src/stm32f10x_cec.c ****   
 267:../../source/src/FWlib/src/stm32f10x_cec.c ****   /* The data byte will be transmitted with or without an EOM bit*/
 268:../../source/src/FWlib/src/stm32f10x_cec.c ****   *(__IO uint32_t *) CSR_TEOM_BB = (uint32_t)NewState;
 321              		.loc 1 268 0
 322 0094 014B     		ldr	r3, .L31
 323 0096 1860     		str	r0, [r3]
 269:../../source/src/FWlib/src/stm32f10x_cec.c **** }
 324              		.loc 1 269 0
 325 0098 7047     		bx	lr
 326              	.L32:
 327 009a 00BF     		.align	2
 328              	.L31:
 329 009c 04020F42 		.word	1108279812
 330              		.cfi_endproc
 331              	.LFE38:
 332              		.size	CEC_EndOfMessageCmd, .-CEC_EndOfMessageCmd
 333              		.align	1
 334              		.p2align 2,,3
 335              		.global	CEC_GetFlagStatus
 336              		.syntax unified
 337              		.thumb
 338              		.thumb_func
 339              		.fpu softvfp
 340              		.type	CEC_GetFlagStatus, %function
 341              	CEC_GetFlagStatus:
 342              	.LFB39:
 270:../../source/src/FWlib/src/stm32f10x_cec.c **** 
 271:../../source/src/FWlib/src/stm32f10x_cec.c **** /**
 272:../../source/src/FWlib/src/stm32f10x_cec.c ****   * @brief  Gets the CEC flag status
 273:../../source/src/FWlib/src/stm32f10x_cec.c ****   * @param  CEC_FLAG: specifies the CEC flag to check. 
 274:../../source/src/FWlib/src/stm32f10x_cec.c ****   *   This parameter can be one of the following values:
 275:../../source/src/FWlib/src/stm32f10x_cec.c ****   *     @arg CEC_FLAG_BTE: Bit Timing Error
 276:../../source/src/FWlib/src/stm32f10x_cec.c ****   *     @arg CEC_FLAG_BPE: Bit Period Error
 277:../../source/src/FWlib/src/stm32f10x_cec.c ****   *     @arg CEC_FLAG_RBTFE: Rx Block Transfer Finished Error
 278:../../source/src/FWlib/src/stm32f10x_cec.c ****   *     @arg CEC_FLAG_SBE: Start Bit Error
 279:../../source/src/FWlib/src/stm32f10x_cec.c ****   *     @arg CEC_FLAG_ACKE: Block Acknowledge Error
 280:../../source/src/FWlib/src/stm32f10x_cec.c ****   *     @arg CEC_FLAG_LINE: Line Error
 281:../../source/src/FWlib/src/stm32f10x_cec.c ****   *     @arg CEC_FLAG_TBTFE: Tx Block Transfer Finished Error
 282:../../source/src/FWlib/src/stm32f10x_cec.c ****   *     @arg CEC_FLAG_TEOM: Tx End Of Message 
ARM GAS  G:\Users\Jaxb\AppData\Local\Temp\cc9tYvdI.s 			page 12


 283:../../source/src/FWlib/src/stm32f10x_cec.c ****   *     @arg CEC_FLAG_TERR: Tx Error
 284:../../source/src/FWlib/src/stm32f10x_cec.c ****   *     @arg CEC_FLAG_TBTRF: Tx Byte Transfer Request or Block Transfer Finished
 285:../../source/src/FWlib/src/stm32f10x_cec.c ****   *     @arg CEC_FLAG_RSOM: Rx Start Of Message
 286:../../source/src/FWlib/src/stm32f10x_cec.c ****   *     @arg CEC_FLAG_REOM: Rx End Of Message
 287:../../source/src/FWlib/src/stm32f10x_cec.c ****   *     @arg CEC_FLAG_RERR: Rx Error
 288:../../source/src/FWlib/src/stm32f10x_cec.c ****   *     @arg CEC_FLAG_RBTF: Rx Byte/Block Transfer Finished
 289:../../source/src/FWlib/src/stm32f10x_cec.c ****   * @retval The new state of CEC_FLAG (SET or RESET)
 290:../../source/src/FWlib/src/stm32f10x_cec.c ****   */
 291:../../source/src/FWlib/src/stm32f10x_cec.c **** FlagStatus CEC_GetFlagStatus(uint32_t CEC_FLAG) 
 292:../../source/src/FWlib/src/stm32f10x_cec.c **** {
 343              		.loc 1 292 0
 344              		.cfi_startproc
 345              		@ args = 0, pretend = 0, frame = 0
 346              		@ frame_needed = 0, uses_anonymous_args = 0
 347              		@ link register save eliminated.
 348              	.LVL13:
 293:../../source/src/FWlib/src/stm32f10x_cec.c ****   FlagStatus bitstatus = RESET;
 294:../../source/src/FWlib/src/stm32f10x_cec.c ****   uint32_t cecreg = 0, cecbase = 0;
 295:../../source/src/FWlib/src/stm32f10x_cec.c ****   
 296:../../source/src/FWlib/src/stm32f10x_cec.c ****   /* Check the parameters */
 297:../../source/src/FWlib/src/stm32f10x_cec.c ****   assert_param(IS_CEC_GET_FLAG(CEC_FLAG));
 298:../../source/src/FWlib/src/stm32f10x_cec.c ****  
 299:../../source/src/FWlib/src/stm32f10x_cec.c ****   /* Get the CEC peripheral base address */
 300:../../source/src/FWlib/src/stm32f10x_cec.c ****   cecbase = (uint32_t)(CEC_BASE);
 301:../../source/src/FWlib/src/stm32f10x_cec.c ****   
 302:../../source/src/FWlib/src/stm32f10x_cec.c ****   /* Read flag register index */
 303:../../source/src/FWlib/src/stm32f10x_cec.c ****   cecreg = CEC_FLAG >> 28;
 304:../../source/src/FWlib/src/stm32f10x_cec.c ****   
 305:../../source/src/FWlib/src/stm32f10x_cec.c ****   /* Get bit[23:0] of the flag */
 306:../../source/src/FWlib/src/stm32f10x_cec.c ****   CEC_FLAG &= FLAG_Mask;
 307:../../source/src/FWlib/src/stm32f10x_cec.c ****   
 308:../../source/src/FWlib/src/stm32f10x_cec.c ****   if(cecreg != 0)
 349              		.loc 1 308 0
 350 00a0 020F     		lsrs	r2, r0, #28
 351 00a2 14BF     		ite	ne
 352 00a4 054A     		ldrne	r2, .L36
 353 00a6 064A     		ldreq	r2, .L36+4
 306:../../source/src/FWlib/src/stm32f10x_cec.c ****   
 354              		.loc 1 306 0
 355 00a8 20F07F43 		bic	r3, r0, #-16777216
 356              	.LVL14:
 309:../../source/src/FWlib/src/stm32f10x_cec.c ****   {
 310:../../source/src/FWlib/src/stm32f10x_cec.c ****     /* Flag in CEC ESR Register */
 311:../../source/src/FWlib/src/stm32f10x_cec.c ****     CEC_FLAG = (uint32_t)(CEC_FLAG >> 16);
 312:../../source/src/FWlib/src/stm32f10x_cec.c ****     
 313:../../source/src/FWlib/src/stm32f10x_cec.c ****     /* Get the CEC ESR register address */
 314:../../source/src/FWlib/src/stm32f10x_cec.c ****     cecbase += 0xC;
 315:../../source/src/FWlib/src/stm32f10x_cec.c ****   }
 316:../../source/src/FWlib/src/stm32f10x_cec.c ****   else
 317:../../source/src/FWlib/src/stm32f10x_cec.c ****   {
 318:../../source/src/FWlib/src/stm32f10x_cec.c ****     /* Get the CEC CSR register address */
 319:../../source/src/FWlib/src/stm32f10x_cec.c ****     cecbase += 0x10;
 320:../../source/src/FWlib/src/stm32f10x_cec.c ****   }
 321:../../source/src/FWlib/src/stm32f10x_cec.c ****   
 322:../../source/src/FWlib/src/stm32f10x_cec.c ****   if(((*(__IO uint32_t *)cecbase) & CEC_FLAG) != (uint32_t)RESET)
 357              		.loc 1 322 0
 358 00ac 1268     		ldr	r2, [r2]
ARM GAS  G:\Users\Jaxb\AppData\Local\Temp\cc9tYvdI.s 			page 13


 311:../../source/src/FWlib/src/stm32f10x_cec.c ****     
 359              		.loc 1 311 0
 360 00ae 18BF     		it	ne
 361 00b0 1B0C     		lsrne	r3, r3, #16
 362              	.LVL15:
 363              		.loc 1 322 0
 364 00b2 1A42     		tst	r2, r3
 323:../../source/src/FWlib/src/stm32f10x_cec.c ****   {
 324:../../source/src/FWlib/src/stm32f10x_cec.c ****     /* CEC_FLAG is set */
 325:../../source/src/FWlib/src/stm32f10x_cec.c ****     bitstatus = SET;
 326:../../source/src/FWlib/src/stm32f10x_cec.c ****   }
 327:../../source/src/FWlib/src/stm32f10x_cec.c ****   else
 328:../../source/src/FWlib/src/stm32f10x_cec.c ****   {
 329:../../source/src/FWlib/src/stm32f10x_cec.c ****     /* CEC_FLAG is reset */
 330:../../source/src/FWlib/src/stm32f10x_cec.c ****     bitstatus = RESET;
 331:../../source/src/FWlib/src/stm32f10x_cec.c ****   }
 332:../../source/src/FWlib/src/stm32f10x_cec.c ****   
 333:../../source/src/FWlib/src/stm32f10x_cec.c ****   /* Return the CEC_FLAG status */
 334:../../source/src/FWlib/src/stm32f10x_cec.c ****   return  bitstatus;
 335:../../source/src/FWlib/src/stm32f10x_cec.c **** }
 365              		.loc 1 335 0
 366 00b4 14BF     		ite	ne
 367 00b6 0120     		movne	r0, #1
 368              	.LVL16:
 369 00b8 0020     		moveq	r0, #0
 370 00ba 7047     		bx	lr
 371              	.L37:
 372              		.align	2
 373              	.L36:
 374 00bc 0C780040 		.word	1073772556
 375 00c0 10780040 		.word	1073772560
 376              		.cfi_endproc
 377              	.LFE39:
 378              		.size	CEC_GetFlagStatus, .-CEC_GetFlagStatus
 379              		.align	1
 380              		.p2align 2,,3
 381              		.global	CEC_ClearFlag
 382              		.syntax unified
 383              		.thumb
 384              		.thumb_func
 385              		.fpu softvfp
 386              		.type	CEC_ClearFlag, %function
 387              	CEC_ClearFlag:
 388              	.LFB40:
 336:../../source/src/FWlib/src/stm32f10x_cec.c **** 
 337:../../source/src/FWlib/src/stm32f10x_cec.c **** /**
 338:../../source/src/FWlib/src/stm32f10x_cec.c ****   * @brief  Clears the CEC's pending flags.
 339:../../source/src/FWlib/src/stm32f10x_cec.c ****   * @param  CEC_FLAG: specifies the flag to clear. 
 340:../../source/src/FWlib/src/stm32f10x_cec.c ****   *   This parameter can be any combination of the following values:
 341:../../source/src/FWlib/src/stm32f10x_cec.c ****   *     @arg CEC_FLAG_TERR: Tx Error
 342:../../source/src/FWlib/src/stm32f10x_cec.c ****   *     @arg CEC_FLAG_TBTRF: Tx Byte Transfer Request or Block Transfer Finished
 343:../../source/src/FWlib/src/stm32f10x_cec.c ****   *     @arg CEC_FLAG_RSOM: Rx Start Of Message
 344:../../source/src/FWlib/src/stm32f10x_cec.c ****   *     @arg CEC_FLAG_REOM: Rx End Of Message
 345:../../source/src/FWlib/src/stm32f10x_cec.c ****   *     @arg CEC_FLAG_RERR: Rx Error
 346:../../source/src/FWlib/src/stm32f10x_cec.c ****   *     @arg CEC_FLAG_RBTF: Rx Byte/Block Transfer Finished
 347:../../source/src/FWlib/src/stm32f10x_cec.c ****   * @retval None
 348:../../source/src/FWlib/src/stm32f10x_cec.c ****   */
ARM GAS  G:\Users\Jaxb\AppData\Local\Temp\cc9tYvdI.s 			page 14


 349:../../source/src/FWlib/src/stm32f10x_cec.c **** void CEC_ClearFlag(uint32_t CEC_FLAG)
 350:../../source/src/FWlib/src/stm32f10x_cec.c **** { 
 389              		.loc 1 350 0
 390              		.cfi_startproc
 391              		@ args = 0, pretend = 0, frame = 0
 392              		@ frame_needed = 0, uses_anonymous_args = 0
 393              		@ link register save eliminated.
 394              	.LVL17:
 351:../../source/src/FWlib/src/stm32f10x_cec.c ****   uint32_t tmp = 0x0;
 352:../../source/src/FWlib/src/stm32f10x_cec.c ****   
 353:../../source/src/FWlib/src/stm32f10x_cec.c ****   /* Check the parameters */
 354:../../source/src/FWlib/src/stm32f10x_cec.c ****   assert_param(IS_CEC_CLEAR_FLAG(CEC_FLAG));
 355:../../source/src/FWlib/src/stm32f10x_cec.c **** 
 356:../../source/src/FWlib/src/stm32f10x_cec.c ****   tmp = CEC->CSR & 0x2;
 357:../../source/src/FWlib/src/stm32f10x_cec.c ****        
 358:../../source/src/FWlib/src/stm32f10x_cec.c ****   /* Clear the selected CEC flags */
 359:../../source/src/FWlib/src/stm32f10x_cec.c ****   CEC->CSR &= (uint32_t)(((~(uint32_t)CEC_FLAG) & 0xFFFFFFFC) | tmp);
 395              		.loc 1 359 0
 396 00c4 C043     		mvns	r0, r0
 397              	.LVL18:
 356:../../source/src/FWlib/src/stm32f10x_cec.c ****        
 398              		.loc 1 356 0
 399 00c6 054B     		ldr	r3, .L39
 400              		.loc 1 359 0
 401 00c8 20F00300 		bic	r0, r0, #3
 402              	.LVL19:
 356:../../source/src/FWlib/src/stm32f10x_cec.c ****        
 403              		.loc 1 356 0
 404 00cc 1A69     		ldr	r2, [r3, #16]
 405              	.LVL20:
 406              		.loc 1 359 0
 407 00ce 1969     		ldr	r1, [r3, #16]
 356:../../source/src/FWlib/src/stm32f10x_cec.c ****        
 408              		.loc 1 356 0
 409 00d0 02F00202 		and	r2, r2, #2
 410              	.LVL21:
 411              		.loc 1 359 0
 412 00d4 1043     		orrs	r0, r0, r2
 413 00d6 0840     		ands	r0, r0, r1
 414 00d8 1861     		str	r0, [r3, #16]
 360:../../source/src/FWlib/src/stm32f10x_cec.c **** }
 415              		.loc 1 360 0
 416 00da 7047     		bx	lr
 417              	.L40:
 418              		.align	2
 419              	.L39:
 420 00dc 00780040 		.word	1073772544
 421              		.cfi_endproc
 422              	.LFE40:
 423              		.size	CEC_ClearFlag, .-CEC_ClearFlag
 424              		.align	1
 425              		.p2align 2,,3
 426              		.global	CEC_GetITStatus
 427              		.syntax unified
 428              		.thumb
 429              		.thumb_func
 430              		.fpu softvfp
ARM GAS  G:\Users\Jaxb\AppData\Local\Temp\cc9tYvdI.s 			page 15


 431              		.type	CEC_GetITStatus, %function
 432              	CEC_GetITStatus:
 433              	.LFB41:
 361:../../source/src/FWlib/src/stm32f10x_cec.c **** 
 362:../../source/src/FWlib/src/stm32f10x_cec.c **** /**
 363:../../source/src/FWlib/src/stm32f10x_cec.c ****   * @brief  Checks whether the specified CEC interrupt has occurred or not.
 364:../../source/src/FWlib/src/stm32f10x_cec.c ****   * @param  CEC_IT: specifies the CEC interrupt source to check. 
 365:../../source/src/FWlib/src/stm32f10x_cec.c ****   *   This parameter can be one of the following values:
 366:../../source/src/FWlib/src/stm32f10x_cec.c ****   *     @arg CEC_IT_TERR: Tx Error
 367:../../source/src/FWlib/src/stm32f10x_cec.c ****   *     @arg CEC_IT_TBTF: Tx Block Transfer Finished
 368:../../source/src/FWlib/src/stm32f10x_cec.c ****   *     @arg CEC_IT_RERR: Rx Error
 369:../../source/src/FWlib/src/stm32f10x_cec.c ****   *     @arg CEC_IT_RBTF: Rx Block Transfer Finished
 370:../../source/src/FWlib/src/stm32f10x_cec.c ****   * @retval The new state of CEC_IT (SET or RESET).
 371:../../source/src/FWlib/src/stm32f10x_cec.c ****   */
 372:../../source/src/FWlib/src/stm32f10x_cec.c **** ITStatus CEC_GetITStatus(uint8_t CEC_IT)
 373:../../source/src/FWlib/src/stm32f10x_cec.c **** {
 434              		.loc 1 373 0
 435              		.cfi_startproc
 436              		@ args = 0, pretend = 0, frame = 0
 437              		@ frame_needed = 0, uses_anonymous_args = 0
 438              		@ link register save eliminated.
 439              	.LVL22:
 374:../../source/src/FWlib/src/stm32f10x_cec.c ****   ITStatus bitstatus = RESET;
 375:../../source/src/FWlib/src/stm32f10x_cec.c ****   uint32_t enablestatus = 0;
 376:../../source/src/FWlib/src/stm32f10x_cec.c ****   
 377:../../source/src/FWlib/src/stm32f10x_cec.c ****   /* Check the parameters */
 378:../../source/src/FWlib/src/stm32f10x_cec.c ****    assert_param(IS_CEC_GET_IT(CEC_IT));
 379:../../source/src/FWlib/src/stm32f10x_cec.c ****    
 380:../../source/src/FWlib/src/stm32f10x_cec.c ****   /* Get the CEC IT enable bit status */
 381:../../source/src/FWlib/src/stm32f10x_cec.c ****   enablestatus = (CEC->CFGR & (uint8_t)CEC_CFGR_IE) ;
 440              		.loc 1 381 0
 441 00e0 034A     		ldr	r2, .L44
 442 00e2 1168     		ldr	r1, [r2]
 443              	.LVL23:
 382:../../source/src/FWlib/src/stm32f10x_cec.c ****   
 383:../../source/src/FWlib/src/stm32f10x_cec.c ****   /* Check the status of the specified CEC interrupt */
 384:../../source/src/FWlib/src/stm32f10x_cec.c ****   if (((CEC->CSR & CEC_IT) != (uint32_t)RESET) && enablestatus)
 444              		.loc 1 384 0
 445 00e4 1369     		ldr	r3, [r2, #16]
 446 00e6 1840     		ands	r0, r0, r3
 447              	.LVL24:
 385:../../source/src/FWlib/src/stm32f10x_cec.c ****   {
 386:../../source/src/FWlib/src/stm32f10x_cec.c ****     /* CEC_IT is set */
 387:../../source/src/FWlib/src/stm32f10x_cec.c ****     bitstatus = SET;
 448              		.loc 1 387 0
 449 00e8 18BF     		it	ne
 450 00ea C1F34000 		ubfxne	r0, r1, #1, #1
 451              	.LVL25:
 388:../../source/src/FWlib/src/stm32f10x_cec.c ****   }
 389:../../source/src/FWlib/src/stm32f10x_cec.c ****   else
 390:../../source/src/FWlib/src/stm32f10x_cec.c ****   {
 391:../../source/src/FWlib/src/stm32f10x_cec.c ****     /* CEC_IT is reset */
 392:../../source/src/FWlib/src/stm32f10x_cec.c ****     bitstatus = RESET;
 393:../../source/src/FWlib/src/stm32f10x_cec.c ****   }
 394:../../source/src/FWlib/src/stm32f10x_cec.c ****   /* Return the CEC_IT status */
 395:../../source/src/FWlib/src/stm32f10x_cec.c ****   return  bitstatus;
 396:../../source/src/FWlib/src/stm32f10x_cec.c **** }
ARM GAS  G:\Users\Jaxb\AppData\Local\Temp\cc9tYvdI.s 			page 16


 452              		.loc 1 396 0
 453 00ee 7047     		bx	lr
 454              	.L45:
 455              		.align	2
 456              	.L44:
 457 00f0 00780040 		.word	1073772544
 458              		.cfi_endproc
 459              	.LFE41:
 460              		.size	CEC_GetITStatus, .-CEC_GetITStatus
 461              		.align	1
 462              		.p2align 2,,3
 463              		.global	CEC_ClearITPendingBit
 464              		.syntax unified
 465              		.thumb
 466              		.thumb_func
 467              		.fpu softvfp
 468              		.type	CEC_ClearITPendingBit, %function
 469              	CEC_ClearITPendingBit:
 470              	.LFB42:
 397:../../source/src/FWlib/src/stm32f10x_cec.c **** 
 398:../../source/src/FWlib/src/stm32f10x_cec.c **** /**
 399:../../source/src/FWlib/src/stm32f10x_cec.c ****   * @brief  Clears the CEC's interrupt pending bits.
 400:../../source/src/FWlib/src/stm32f10x_cec.c ****   * @param  CEC_IT: specifies the CEC interrupt pending bit to clear.
 401:../../source/src/FWlib/src/stm32f10x_cec.c ****   *   This parameter can be any combination of the following values:
 402:../../source/src/FWlib/src/stm32f10x_cec.c ****   *     @arg CEC_IT_TERR: Tx Error
 403:../../source/src/FWlib/src/stm32f10x_cec.c ****   *     @arg CEC_IT_TBTF: Tx Block Transfer Finished
 404:../../source/src/FWlib/src/stm32f10x_cec.c ****   *     @arg CEC_IT_RERR: Rx Error
 405:../../source/src/FWlib/src/stm32f10x_cec.c ****   *     @arg CEC_IT_RBTF: Rx Block Transfer Finished
 406:../../source/src/FWlib/src/stm32f10x_cec.c ****   * @retval None
 407:../../source/src/FWlib/src/stm32f10x_cec.c ****   */
 408:../../source/src/FWlib/src/stm32f10x_cec.c **** void CEC_ClearITPendingBit(uint16_t CEC_IT)
 409:../../source/src/FWlib/src/stm32f10x_cec.c **** {
 471              		.loc 1 409 0
 472              		.cfi_startproc
 473              		@ args = 0, pretend = 0, frame = 0
 474              		@ frame_needed = 0, uses_anonymous_args = 0
 475              		@ link register save eliminated.
 476              	.LVL26:
 410:../../source/src/FWlib/src/stm32f10x_cec.c ****   uint32_t tmp = 0x0;
 411:../../source/src/FWlib/src/stm32f10x_cec.c ****   
 412:../../source/src/FWlib/src/stm32f10x_cec.c ****   /* Check the parameters */
 413:../../source/src/FWlib/src/stm32f10x_cec.c ****   assert_param(IS_CEC_GET_IT(CEC_IT));
 414:../../source/src/FWlib/src/stm32f10x_cec.c ****   
 415:../../source/src/FWlib/src/stm32f10x_cec.c ****   tmp = CEC->CSR & 0x2;
 416:../../source/src/FWlib/src/stm32f10x_cec.c ****   
 417:../../source/src/FWlib/src/stm32f10x_cec.c ****   /* Clear the selected CEC interrupt pending bits */
 418:../../source/src/FWlib/src/stm32f10x_cec.c ****   CEC->CSR &= (uint32_t)(((~(uint32_t)CEC_IT) & 0xFFFFFFFC) | tmp);
 477              		.loc 1 418 0
 478 00f4 C043     		mvns	r0, r0
 479              	.LVL27:
 415:../../source/src/FWlib/src/stm32f10x_cec.c ****   
 480              		.loc 1 415 0
 481 00f6 054B     		ldr	r3, .L47
 482              		.loc 1 418 0
 483 00f8 20F00300 		bic	r0, r0, #3
 415:../../source/src/FWlib/src/stm32f10x_cec.c ****   
 484              		.loc 1 415 0
ARM GAS  G:\Users\Jaxb\AppData\Local\Temp\cc9tYvdI.s 			page 17


 485 00fc 1A69     		ldr	r2, [r3, #16]
 486              	.LVL28:
 487              		.loc 1 418 0
 488 00fe 1969     		ldr	r1, [r3, #16]
 415:../../source/src/FWlib/src/stm32f10x_cec.c ****   
 489              		.loc 1 415 0
 490 0100 02F00202 		and	r2, r2, #2
 491              	.LVL29:
 492              		.loc 1 418 0
 493 0104 1043     		orrs	r0, r0, r2
 494 0106 0840     		ands	r0, r0, r1
 495 0108 1861     		str	r0, [r3, #16]
 419:../../source/src/FWlib/src/stm32f10x_cec.c **** }
 496              		.loc 1 419 0
 497 010a 7047     		bx	lr
 498              	.L48:
 499              		.align	2
 500              	.L47:
 501 010c 00780040 		.word	1073772544
 502              		.cfi_endproc
 503              	.LFE42:
 504              		.size	CEC_ClearITPendingBit, .-CEC_ClearITPendingBit
 505              	.Letext0:
 506              		.file 2 "f:\\arm\\gcc2018\\arm-none-eabi\\include\\machine\\_default_types.h"
 507              		.file 3 "f:\\arm\\gcc2018\\arm-none-eabi\\include\\sys\\_stdint.h"
 508              		.file 4 "../../source/include/core_cm3.h"
 509              		.file 5 "../../source/include/system_stm32f10x.h"
 510              		.file 6 "../../source/include/stm32f10x.h"
 511              		.file 7 "../../source/src/FWlib/inc/stm32f10x_cec.h"
 512              		.file 8 "../../source/src/FWlib/inc/stm32f10x_rcc.h"