ARM GAS  G:\Users\Jaxb\AppData\Local\Temp\ccDzUlyB.s 			page 1


   1              		.cpu cortex-m3
   2              		.eabi_attribute 20, 1
   3              		.eabi_attribute 21, 1
   4              		.eabi_attribute 23, 3
   5              		.eabi_attribute 24, 1
   6              		.eabi_attribute 25, 1
   7              		.eabi_attribute 26, 1
   8              		.eabi_attribute 30, 2
   9              		.eabi_attribute 34, 1
  10              		.eabi_attribute 18, 4
  11              		.file	"stm32f10x_crc.c"
  12              		.text
  13              	.Ltext0:
  14              		.cfi_sections	.debug_frame
  15              		.align	1
  16              		.p2align 2,,3
  17              		.global	CRC_ResetDR
  18              		.syntax unified
  19              		.thumb
  20              		.thumb_func
  21              		.fpu softvfp
  22              		.type	CRC_ResetDR, %function
  23              	CRC_ResetDR:
  24              	.LFB29:
  25              		.file 1 "../../source/src/FWlib/src/stm32f10x_crc.c"
   1:../../source/src/FWlib/src/stm32f10x_crc.c **** /**
   2:../../source/src/FWlib/src/stm32f10x_crc.c ****   ******************************************************************************
   3:../../source/src/FWlib/src/stm32f10x_crc.c ****   * @file    stm32f10x_crc.c
   4:../../source/src/FWlib/src/stm32f10x_crc.c ****   * @author  MCD Application Team
   5:../../source/src/FWlib/src/stm32f10x_crc.c ****   * @version V3.5.0
   6:../../source/src/FWlib/src/stm32f10x_crc.c ****   * @date    11-March-2011
   7:../../source/src/FWlib/src/stm32f10x_crc.c ****   * @brief   This file provides all the CRC firmware functions.
   8:../../source/src/FWlib/src/stm32f10x_crc.c ****   ******************************************************************************
   9:../../source/src/FWlib/src/stm32f10x_crc.c ****   * @attention
  10:../../source/src/FWlib/src/stm32f10x_crc.c ****   *
  11:../../source/src/FWlib/src/stm32f10x_crc.c ****   * THE PRESENT FIRMWARE WHICH IS FOR GUIDANCE ONLY AIMS AT PROVIDING CUSTOMERS
  12:../../source/src/FWlib/src/stm32f10x_crc.c ****   * WITH CODING INFORMATION REGARDING THEIR PRODUCTS IN ORDER FOR THEM TO SAVE
  13:../../source/src/FWlib/src/stm32f10x_crc.c ****   * TIME. AS A RESULT, STMICROELECTRONICS SHALL NOT BE HELD LIABLE FOR ANY
  14:../../source/src/FWlib/src/stm32f10x_crc.c ****   * DIRECT, INDIRECT OR CONSEQUENTIAL DAMAGES WITH RESPECT TO ANY CLAIMS ARISING
  15:../../source/src/FWlib/src/stm32f10x_crc.c ****   * FROM THE CONTENT OF SUCH FIRMWARE AND/OR THE USE MADE BY CUSTOMERS OF THE
  16:../../source/src/FWlib/src/stm32f10x_crc.c ****   * CODING INFORMATION CONTAINED HEREIN IN CONNECTION WITH THEIR PRODUCTS.
  17:../../source/src/FWlib/src/stm32f10x_crc.c ****   *
  18:../../source/src/FWlib/src/stm32f10x_crc.c ****   * <h2><center>&copy; COPYRIGHT 2011 STMicroelectronics</center></h2>
  19:../../source/src/FWlib/src/stm32f10x_crc.c ****   ******************************************************************************
  20:../../source/src/FWlib/src/stm32f10x_crc.c ****   */
  21:../../source/src/FWlib/src/stm32f10x_crc.c **** 
  22:../../source/src/FWlib/src/stm32f10x_crc.c **** /* Includes ------------------------------------------------------------------*/
  23:../../source/src/FWlib/src/stm32f10x_crc.c **** #include "stm32f10x_crc.h"
  24:../../source/src/FWlib/src/stm32f10x_crc.c **** 
  25:../../source/src/FWlib/src/stm32f10x_crc.c **** /** @addtogroup STM32F10x_StdPeriph_Driver
  26:../../source/src/FWlib/src/stm32f10x_crc.c ****   * @{
  27:../../source/src/FWlib/src/stm32f10x_crc.c ****   */
  28:../../source/src/FWlib/src/stm32f10x_crc.c **** 
  29:../../source/src/FWlib/src/stm32f10x_crc.c **** /** @defgroup CRC 
  30:../../source/src/FWlib/src/stm32f10x_crc.c ****   * @brief CRC driver modules
  31:../../source/src/FWlib/src/stm32f10x_crc.c ****   * @{
  32:../../source/src/FWlib/src/stm32f10x_crc.c ****   */
ARM GAS  G:\Users\Jaxb\AppData\Local\Temp\ccDzUlyB.s 			page 2


  33:../../source/src/FWlib/src/stm32f10x_crc.c **** 
  34:../../source/src/FWlib/src/stm32f10x_crc.c **** /** @defgroup CRC_Private_TypesDefinitions
  35:../../source/src/FWlib/src/stm32f10x_crc.c ****   * @{
  36:../../source/src/FWlib/src/stm32f10x_crc.c ****   */
  37:../../source/src/FWlib/src/stm32f10x_crc.c **** 
  38:../../source/src/FWlib/src/stm32f10x_crc.c **** /**
  39:../../source/src/FWlib/src/stm32f10x_crc.c ****   * @}
  40:../../source/src/FWlib/src/stm32f10x_crc.c ****   */
  41:../../source/src/FWlib/src/stm32f10x_crc.c **** 
  42:../../source/src/FWlib/src/stm32f10x_crc.c **** /** @defgroup CRC_Private_Defines
  43:../../source/src/FWlib/src/stm32f10x_crc.c ****   * @{
  44:../../source/src/FWlib/src/stm32f10x_crc.c ****   */
  45:../../source/src/FWlib/src/stm32f10x_crc.c **** 
  46:../../source/src/FWlib/src/stm32f10x_crc.c **** /**
  47:../../source/src/FWlib/src/stm32f10x_crc.c ****   * @}
  48:../../source/src/FWlib/src/stm32f10x_crc.c ****   */
  49:../../source/src/FWlib/src/stm32f10x_crc.c **** 
  50:../../source/src/FWlib/src/stm32f10x_crc.c **** /** @defgroup CRC_Private_Macros
  51:../../source/src/FWlib/src/stm32f10x_crc.c ****   * @{
  52:../../source/src/FWlib/src/stm32f10x_crc.c ****   */
  53:../../source/src/FWlib/src/stm32f10x_crc.c **** 
  54:../../source/src/FWlib/src/stm32f10x_crc.c **** /**
  55:../../source/src/FWlib/src/stm32f10x_crc.c ****   * @}
  56:../../source/src/FWlib/src/stm32f10x_crc.c ****   */
  57:../../source/src/FWlib/src/stm32f10x_crc.c **** 
  58:../../source/src/FWlib/src/stm32f10x_crc.c **** /** @defgroup CRC_Private_Variables
  59:../../source/src/FWlib/src/stm32f10x_crc.c ****   * @{
  60:../../source/src/FWlib/src/stm32f10x_crc.c ****   */
  61:../../source/src/FWlib/src/stm32f10x_crc.c **** 
  62:../../source/src/FWlib/src/stm32f10x_crc.c **** /**
  63:../../source/src/FWlib/src/stm32f10x_crc.c ****   * @}
  64:../../source/src/FWlib/src/stm32f10x_crc.c ****   */
  65:../../source/src/FWlib/src/stm32f10x_crc.c **** 
  66:../../source/src/FWlib/src/stm32f10x_crc.c **** /** @defgroup CRC_Private_FunctionPrototypes
  67:../../source/src/FWlib/src/stm32f10x_crc.c ****   * @{
  68:../../source/src/FWlib/src/stm32f10x_crc.c ****   */
  69:../../source/src/FWlib/src/stm32f10x_crc.c **** 
  70:../../source/src/FWlib/src/stm32f10x_crc.c **** /**
  71:../../source/src/FWlib/src/stm32f10x_crc.c ****   * @}
  72:../../source/src/FWlib/src/stm32f10x_crc.c ****   */
  73:../../source/src/FWlib/src/stm32f10x_crc.c **** 
  74:../../source/src/FWlib/src/stm32f10x_crc.c **** /** @defgroup CRC_Private_Functions
  75:../../source/src/FWlib/src/stm32f10x_crc.c ****   * @{
  76:../../source/src/FWlib/src/stm32f10x_crc.c ****   */
  77:../../source/src/FWlib/src/stm32f10x_crc.c **** 
  78:../../source/src/FWlib/src/stm32f10x_crc.c **** /**
  79:../../source/src/FWlib/src/stm32f10x_crc.c ****   * @brief  Resets the CRC Data register (DR).
  80:../../source/src/FWlib/src/stm32f10x_crc.c ****   * @param  None
  81:../../source/src/FWlib/src/stm32f10x_crc.c ****   * @retval None
  82:../../source/src/FWlib/src/stm32f10x_crc.c ****   */
  83:../../source/src/FWlib/src/stm32f10x_crc.c **** void CRC_ResetDR(void)
  84:../../source/src/FWlib/src/stm32f10x_crc.c **** {
  26              		.loc 1 84 0
  27              		.cfi_startproc
  28              		@ args = 0, pretend = 0, frame = 0
  29              		@ frame_needed = 0, uses_anonymous_args = 0
  30              		@ link register save eliminated.
ARM GAS  G:\Users\Jaxb\AppData\Local\Temp\ccDzUlyB.s 			page 3


  85:../../source/src/FWlib/src/stm32f10x_crc.c ****   /* Reset CRC generator */
  86:../../source/src/FWlib/src/stm32f10x_crc.c ****   CRC->CR = CRC_CR_RESET;
  31              		.loc 1 86 0
  32 0000 0122     		movs	r2, #1
  33 0002 014B     		ldr	r3, .L3
  34 0004 9A60     		str	r2, [r3, #8]
  87:../../source/src/FWlib/src/stm32f10x_crc.c **** }
  35              		.loc 1 87 0
  36 0006 7047     		bx	lr
  37              	.L4:
  38              		.align	2
  39              	.L3:
  40 0008 00300240 		.word	1073885184
  41              		.cfi_endproc
  42              	.LFE29:
  43              		.size	CRC_ResetDR, .-CRC_ResetDR
  44              		.align	1
  45              		.p2align 2,,3
  46              		.global	CRC_CalcCRC
  47              		.syntax unified
  48              		.thumb
  49              		.thumb_func
  50              		.fpu softvfp
  51              		.type	CRC_CalcCRC, %function
  52              	CRC_CalcCRC:
  53              	.LFB30:
  88:../../source/src/FWlib/src/stm32f10x_crc.c **** 
  89:../../source/src/FWlib/src/stm32f10x_crc.c **** /**
  90:../../source/src/FWlib/src/stm32f10x_crc.c ****   * @brief  Computes the 32-bit CRC of a given data word(32-bit).
  91:../../source/src/FWlib/src/stm32f10x_crc.c ****   * @param  Data: data word(32-bit) to compute its CRC
  92:../../source/src/FWlib/src/stm32f10x_crc.c ****   * @retval 32-bit CRC
  93:../../source/src/FWlib/src/stm32f10x_crc.c ****   */
  94:../../source/src/FWlib/src/stm32f10x_crc.c **** uint32_t CRC_CalcCRC(uint32_t Data)
  95:../../source/src/FWlib/src/stm32f10x_crc.c **** {
  54              		.loc 1 95 0
  55              		.cfi_startproc
  56              		@ args = 0, pretend = 0, frame = 0
  57              		@ frame_needed = 0, uses_anonymous_args = 0
  58              		@ link register save eliminated.
  59              	.LVL0:
  96:../../source/src/FWlib/src/stm32f10x_crc.c ****   CRC->DR = Data;
  60              		.loc 1 96 0
  61 000c 014B     		ldr	r3, .L6
  62 000e 1860     		str	r0, [r3]
  97:../../source/src/FWlib/src/stm32f10x_crc.c ****   
  98:../../source/src/FWlib/src/stm32f10x_crc.c ****   return (CRC->DR);
  63              		.loc 1 98 0
  64 0010 1868     		ldr	r0, [r3]
  65              	.LVL1:
  99:../../source/src/FWlib/src/stm32f10x_crc.c **** }
  66              		.loc 1 99 0
  67 0012 7047     		bx	lr
  68              	.L7:
  69              		.align	2
  70              	.L6:
  71 0014 00300240 		.word	1073885184
  72              		.cfi_endproc
ARM GAS  G:\Users\Jaxb\AppData\Local\Temp\ccDzUlyB.s 			page 4


  73              	.LFE30:
  74              		.size	CRC_CalcCRC, .-CRC_CalcCRC
  75              		.align	1
  76              		.p2align 2,,3
  77              		.global	CRC_CalcBlockCRC
  78              		.syntax unified
  79              		.thumb
  80              		.thumb_func
  81              		.fpu softvfp
  82              		.type	CRC_CalcBlockCRC, %function
  83              	CRC_CalcBlockCRC:
  84              	.LFB31:
 100:../../source/src/FWlib/src/stm32f10x_crc.c **** 
 101:../../source/src/FWlib/src/stm32f10x_crc.c **** /**
 102:../../source/src/FWlib/src/stm32f10x_crc.c ****   * @brief  Computes the 32-bit CRC of a given buffer of data word(32-bit).
 103:../../source/src/FWlib/src/stm32f10x_crc.c ****   * @param  pBuffer: pointer to the buffer containing the data to be computed
 104:../../source/src/FWlib/src/stm32f10x_crc.c ****   * @param  BufferLength: length of the buffer to be computed					
 105:../../source/src/FWlib/src/stm32f10x_crc.c ****   * @retval 32-bit CRC
 106:../../source/src/FWlib/src/stm32f10x_crc.c ****   */
 107:../../source/src/FWlib/src/stm32f10x_crc.c **** uint32_t CRC_CalcBlockCRC(uint32_t pBuffer[], uint32_t BufferLength)
 108:../../source/src/FWlib/src/stm32f10x_crc.c **** {
  85              		.loc 1 108 0
  86              		.cfi_startproc
  87              		@ args = 0, pretend = 0, frame = 0
  88              		@ frame_needed = 0, uses_anonymous_args = 0
  89              		@ link register save eliminated.
  90              	.LVL2:
 109:../../source/src/FWlib/src/stm32f10x_crc.c ****   uint32_t index = 0;
 110:../../source/src/FWlib/src/stm32f10x_crc.c ****   
 111:../../source/src/FWlib/src/stm32f10x_crc.c ****   for(index = 0; index < BufferLength; index++)
  91              		.loc 1 111 0
  92 0018 41B1     		cbz	r1, .L9
  93 001a 0438     		subs	r0, r0, #4
  94              	.LVL3:
 112:../../source/src/FWlib/src/stm32f10x_crc.c ****   {
 113:../../source/src/FWlib/src/stm32f10x_crc.c ****     CRC->DR = pBuffer[index];
  95              		.loc 1 113 0
  96 001c 054A     		ldr	r2, .L15
  97 001e 00EB8101 		add	r1, r0, r1, lsl #2
  98              	.LVL4:
  99              	.L10:
 100              		.loc 1 113 0 is_stmt 0 discriminator 3
 101 0022 50F8043F 		ldr	r3, [r0, #4]!
 111:../../source/src/FWlib/src/stm32f10x_crc.c ****   {
 102              		.loc 1 111 0 is_stmt 1 discriminator 3
 103 0026 8842     		cmp	r0, r1
 104              		.loc 1 113 0 discriminator 3
 105 0028 1360     		str	r3, [r2]
 111:../../source/src/FWlib/src/stm32f10x_crc.c ****   {
 106              		.loc 1 111 0 discriminator 3
 107 002a FAD1     		bne	.L10
 108              	.L9:
 114:../../source/src/FWlib/src/stm32f10x_crc.c ****   }
 115:../../source/src/FWlib/src/stm32f10x_crc.c ****   return (CRC->DR);
 109              		.loc 1 115 0
 110 002c 014B     		ldr	r3, .L15
 111 002e 1868     		ldr	r0, [r3]
ARM GAS  G:\Users\Jaxb\AppData\Local\Temp\ccDzUlyB.s 			page 5


 116:../../source/src/FWlib/src/stm32f10x_crc.c **** }
 112              		.loc 1 116 0
 113 0030 7047     		bx	lr
 114              	.L16:
 115 0032 00BF     		.align	2
 116              	.L15:
 117 0034 00300240 		.word	1073885184
 118              		.cfi_endproc
 119              	.LFE31:
 120              		.size	CRC_CalcBlockCRC, .-CRC_CalcBlockCRC
 121              		.align	1
 122              		.p2align 2,,3
 123              		.global	CRC_GetCRC
 124              		.syntax unified
 125              		.thumb
 126              		.thumb_func
 127              		.fpu softvfp
 128              		.type	CRC_GetCRC, %function
 129              	CRC_GetCRC:
 130              	.LFB32:
 117:../../source/src/FWlib/src/stm32f10x_crc.c **** 
 118:../../source/src/FWlib/src/stm32f10x_crc.c **** /**
 119:../../source/src/FWlib/src/stm32f10x_crc.c ****   * @brief  Returns the current CRC value.
 120:../../source/src/FWlib/src/stm32f10x_crc.c ****   * @param  None
 121:../../source/src/FWlib/src/stm32f10x_crc.c ****   * @retval 32-bit CRC
 122:../../source/src/FWlib/src/stm32f10x_crc.c ****   */
 123:../../source/src/FWlib/src/stm32f10x_crc.c **** uint32_t CRC_GetCRC(void)
 124:../../source/src/FWlib/src/stm32f10x_crc.c **** {
 131              		.loc 1 124 0
 132              		.cfi_startproc
 133              		@ args = 0, pretend = 0, frame = 0
 134              		@ frame_needed = 0, uses_anonymous_args = 0
 135              		@ link register save eliminated.
 125:../../source/src/FWlib/src/stm32f10x_crc.c ****   return (CRC->DR);
 136              		.loc 1 125 0
 137 0038 014B     		ldr	r3, .L18
 138 003a 1868     		ldr	r0, [r3]
 126:../../source/src/FWlib/src/stm32f10x_crc.c **** }
 139              		.loc 1 126 0
 140 003c 7047     		bx	lr
 141              	.L19:
 142 003e 00BF     		.align	2
 143              	.L18:
 144 0040 00300240 		.word	1073885184
 145              		.cfi_endproc
 146              	.LFE32:
 147              		.size	CRC_GetCRC, .-CRC_GetCRC
 148              		.align	1
 149              		.p2align 2,,3
 150              		.global	CRC_SetIDRegister
 151              		.syntax unified
 152              		.thumb
 153              		.thumb_func
 154              		.fpu softvfp
 155              		.type	CRC_SetIDRegister, %function
 156              	CRC_SetIDRegister:
 157              	.LFB33:
ARM GAS  G:\Users\Jaxb\AppData\Local\Temp\ccDzUlyB.s 			page 6


 127:../../source/src/FWlib/src/stm32f10x_crc.c **** 
 128:../../source/src/FWlib/src/stm32f10x_crc.c **** /**
 129:../../source/src/FWlib/src/stm32f10x_crc.c ****   * @brief  Stores a 8-bit data in the Independent Data(ID) register.
 130:../../source/src/FWlib/src/stm32f10x_crc.c ****   * @param  IDValue: 8-bit value to be stored in the ID register 					
 131:../../source/src/FWlib/src/stm32f10x_crc.c ****   * @retval None
 132:../../source/src/FWlib/src/stm32f10x_crc.c ****   */
 133:../../source/src/FWlib/src/stm32f10x_crc.c **** void CRC_SetIDRegister(uint8_t IDValue)
 134:../../source/src/FWlib/src/stm32f10x_crc.c **** {
 158              		.loc 1 134 0
 159              		.cfi_startproc
 160              		@ args = 0, pretend = 0, frame = 0
 161              		@ frame_needed = 0, uses_anonymous_args = 0
 162              		@ link register save eliminated.
 163              	.LVL5:
 135:../../source/src/FWlib/src/stm32f10x_crc.c ****   CRC->IDR = IDValue;
 164              		.loc 1 135 0
 165 0044 014B     		ldr	r3, .L21
 166 0046 1871     		strb	r0, [r3, #4]
 136:../../source/src/FWlib/src/stm32f10x_crc.c **** }
 167              		.loc 1 136 0
 168 0048 7047     		bx	lr
 169              	.L22:
 170 004a 00BF     		.align	2
 171              	.L21:
 172 004c 00300240 		.word	1073885184
 173              		.cfi_endproc
 174              	.LFE33:
 175              		.size	CRC_SetIDRegister, .-CRC_SetIDRegister
 176              		.align	1
 177              		.p2align 2,,3
 178              		.global	CRC_GetIDRegister
 179              		.syntax unified
 180              		.thumb
 181              		.thumb_func
 182              		.fpu softvfp
 183              		.type	CRC_GetIDRegister, %function
 184              	CRC_GetIDRegister:
 185              	.LFB34:
 137:../../source/src/FWlib/src/stm32f10x_crc.c **** 
 138:../../source/src/FWlib/src/stm32f10x_crc.c **** /**
 139:../../source/src/FWlib/src/stm32f10x_crc.c ****   * @brief  Returns the 8-bit data stored in the Independent Data(ID) register
 140:../../source/src/FWlib/src/stm32f10x_crc.c ****   * @param  None
 141:../../source/src/FWlib/src/stm32f10x_crc.c ****   * @retval 8-bit value of the ID register 
 142:../../source/src/FWlib/src/stm32f10x_crc.c ****   */
 143:../../source/src/FWlib/src/stm32f10x_crc.c **** uint8_t CRC_GetIDRegister(void)
 144:../../source/src/FWlib/src/stm32f10x_crc.c **** {
 186              		.loc 1 144 0
 187              		.cfi_startproc
 188              		@ args = 0, pretend = 0, frame = 0
 189              		@ frame_needed = 0, uses_anonymous_args = 0
 190              		@ link register save eliminated.
 145:../../source/src/FWlib/src/stm32f10x_crc.c ****   return (CRC->IDR);
 191              		.loc 1 145 0
 192 0050 014B     		ldr	r3, .L24
 193 0052 1879     		ldrb	r0, [r3, #4]	@ zero_extendqisi2
 146:../../source/src/FWlib/src/stm32f10x_crc.c **** }
 194              		.loc 1 146 0
ARM GAS  G:\Users\Jaxb\AppData\Local\Temp\ccDzUlyB.s 			page 7


 195 0054 7047     		bx	lr
 196              	.L25:
 197 0056 00BF     		.align	2
 198              	.L24:
 199 0058 00300240 		.word	1073885184
 200              		.cfi_endproc
 201              	.LFE34:
 202              		.size	CRC_GetIDRegister, .-CRC_GetIDRegister
 203              	.Letext0:
 204              		.file 2 "f:\\arm\\gcc2018\\arm-none-eabi\\include\\machine\\_default_types.h"
 205              		.file 3 "f:\\arm\\gcc2018\\arm-none-eabi\\include\\sys\\_stdint.h"
 206              		.file 4 "../../source/include/core_cm3.h"
 207              		.file 5 "../../source/include/system_stm32f10x.h"
 208              		.file 6 "../../source/include/stm32f10x.h"
 209              		.section	.debug_info,"",%progbits
 210              	.Ldebug_info0:
 211 0000 1F020000 		.4byte	0x21f
 212 0004 0200     		.2byte	0x2
 213 0006 00000000 		.4byte	.Ldebug_abbrev0
 214 000a 04       		.byte	0x4
 215 000b 01       		.uleb128 0x1
 216 000c 88010000 		.4byte	.LASF28
 217 0010 0C       		.byte	0xc
 218 0011 D9000000 		.4byte	.LASF29
 219 0015 4C020000 		.4byte	.LASF30
 220 0019 00000000 		.4byte	.Ltext0
 221 001d 5C000000 		.4byte	.Letext0
 222 0021 00000000 		.4byte	.Ldebug_line0
 223 0025 02       		.uleb128 0x2
 224 0026 01       		.byte	0x1
 225 0027 06       		.byte	0x6
 226 0028 2E020000 		.4byte	.LASF0
 227 002c 03       		.uleb128 0x3
 228 002d 00000000 		.4byte	.LASF3
 229 0031 02       		.byte	0x2
 230 0032 2B       		.byte	0x2b
 231 0033 37000000 		.4byte	0x37
 232 0037 02       		.uleb128 0x2
 233 0038 01       		.byte	0x1
 234 0039 08       		.byte	0x8
 235 003a 35000000 		.4byte	.LASF1
 236 003e 02       		.uleb128 0x2
 237 003f 02       		.byte	0x2
 238 0040 05       		.byte	0x5
 239 0041 56010000 		.4byte	.LASF2
 240 0045 03       		.uleb128 0x3
 241 0046 81000000 		.4byte	.LASF4
 242 004a 02       		.byte	0x2
 243 004b 39       		.byte	0x39
 244 004c 50000000 		.4byte	0x50
 245 0050 02       		.uleb128 0x2
 246 0051 02       		.byte	0x2
 247 0052 07       		.byte	0x7
 248 0053 55000000 		.4byte	.LASF5
 249 0057 02       		.uleb128 0x2
 250 0058 04       		.byte	0x4
 251 0059 05       		.byte	0x5
ARM GAS  G:\Users\Jaxb\AppData\Local\Temp\ccDzUlyB.s 			page 8


 252 005a 7F010000 		.4byte	.LASF6
 253 005e 03       		.uleb128 0x3
 254 005f 91000000 		.4byte	.LASF7
 255 0063 02       		.byte	0x2
 256 0064 4F       		.byte	0x4f
 257 0065 69000000 		.4byte	0x69
 258 0069 02       		.uleb128 0x2
 259 006a 04       		.byte	0x4
 260 006b 07       		.byte	0x7
 261 006c 43000000 		.4byte	.LASF8
 262 0070 02       		.uleb128 0x2
 263 0071 08       		.byte	0x8
 264 0072 05       		.byte	0x5
 265 0073 20010000 		.4byte	.LASF9
 266 0077 02       		.uleb128 0x2
 267 0078 08       		.byte	0x8
 268 0079 07       		.byte	0x7
 269 007a BA000000 		.4byte	.LASF10
 270 007e 04       		.uleb128 0x4
 271 007f 04       		.byte	0x4
 272 0080 05       		.byte	0x5
 273 0081 696E7400 		.ascii	"int\000"
 274 0085 05       		.uleb128 0x5
 275 0086 7E000000 		.4byte	0x7e
 276 008a 02       		.uleb128 0x2
 277 008b 04       		.byte	0x4
 278 008c 07       		.byte	0x7
 279 008d AD000000 		.4byte	.LASF11
 280 0091 03       		.uleb128 0x3
 281 0092 D1000000 		.4byte	.LASF12
 282 0096 03       		.byte	0x3
 283 0097 18       		.byte	0x18
 284 0098 2C000000 		.4byte	0x2c
 285 009c 05       		.uleb128 0x5
 286 009d 91000000 		.4byte	0x91
 287 00a1 03       		.uleb128 0x3
 288 00a2 6D010000 		.4byte	.LASF13
 289 00a6 03       		.byte	0x3
 290 00a7 24       		.byte	0x24
 291 00a8 45000000 		.4byte	0x45
 292 00ac 03       		.uleb128 0x3
 293 00ad 76010000 		.4byte	.LASF14
 294 00b1 03       		.byte	0x3
 295 00b2 30       		.byte	0x30
 296 00b3 5E000000 		.4byte	0x5e
 297 00b7 05       		.uleb128 0x5
 298 00b8 AC000000 		.4byte	0xac
 299 00bc 06       		.uleb128 0x6
 300 00bd 74000000 		.4byte	.LASF15
 301 00c1 04       		.byte	0x4
 302 00c2 CE06     		.2byte	0x6ce
 303 00c4 85000000 		.4byte	0x85
 304 00c8 01       		.byte	0x1
 305 00c9 01       		.byte	0x1
 306 00ca 07       		.uleb128 0x7
 307 00cb 2E010000 		.4byte	.LASF16
 308 00cf 05       		.byte	0x5
ARM GAS  G:\Users\Jaxb\AppData\Local\Temp\ccDzUlyB.s 			page 9


 309 00d0 35       		.byte	0x35
 310 00d1 AC000000 		.4byte	0xac
 311 00d5 01       		.byte	0x1
 312 00d6 01       		.byte	0x1
 313 00d7 08       		.uleb128 0x8
 314 00d8 0C       		.byte	0xc
 315 00d9 06       		.byte	0x6
 316 00da EF02     		.2byte	0x2ef
 317 00dc 2A010000 		.4byte	0x12a
 318 00e0 09       		.uleb128 0x9
 319 00e1 445200   		.ascii	"DR\000"
 320 00e4 06       		.byte	0x6
 321 00e5 F102     		.2byte	0x2f1
 322 00e7 B7000000 		.4byte	0xb7
 323 00eb 02       		.byte	0x2
 324 00ec 23       		.byte	0x23
 325 00ed 00       		.uleb128 0
 326 00ee 09       		.uleb128 0x9
 327 00ef 49445200 		.ascii	"IDR\000"
 328 00f3 06       		.byte	0x6
 329 00f4 F202     		.2byte	0x2f2
 330 00f6 9C000000 		.4byte	0x9c
 331 00fa 02       		.byte	0x2
 332 00fb 23       		.byte	0x23
 333 00fc 04       		.uleb128 0x4
 334 00fd 0A       		.uleb128 0xa
 335 00fe 15000000 		.4byte	.LASF17
 336 0102 06       		.byte	0x6
 337 0103 F302     		.2byte	0x2f3
 338 0105 91000000 		.4byte	0x91
 339 0109 02       		.byte	0x2
 340 010a 23       		.byte	0x23
 341 010b 05       		.uleb128 0x5
 342 010c 0A       		.uleb128 0xa
 343 010d 1F000000 		.4byte	.LASF18
 344 0111 06       		.byte	0x6
 345 0112 F402     		.2byte	0x2f4
 346 0114 A1000000 		.4byte	0xa1
 347 0118 02       		.byte	0x2
 348 0119 23       		.byte	0x23
 349 011a 06       		.uleb128 0x6
 350 011b 09       		.uleb128 0x9
 351 011c 435200   		.ascii	"CR\000"
 352 011f 06       		.byte	0x6
 353 0120 F502     		.2byte	0x2f5
 354 0122 B7000000 		.4byte	0xb7
 355 0126 02       		.byte	0x2
 356 0127 23       		.byte	0x23
 357 0128 08       		.uleb128 0x8
 358 0129 00       		.byte	0
 359 012a 0B       		.uleb128 0xb
 360 012b 68000000 		.4byte	.LASF19
 361 012f 06       		.byte	0x6
 362 0130 F602     		.2byte	0x2f6
 363 0132 D7000000 		.4byte	0xd7
 364 0136 0C       		.uleb128 0xc
 365 0137 01       		.byte	0x1
ARM GAS  G:\Users\Jaxb\AppData\Local\Temp\ccDzUlyB.s 			page 10


 366 0138 44010000 		.4byte	.LASF20
 367 013c 01       		.byte	0x1
 368 013d 8F       		.byte	0x8f
 369 013e 01       		.byte	0x1
 370 013f 91000000 		.4byte	0x91
 371 0143 50000000 		.4byte	.LFB34
 372 0147 5C000000 		.4byte	.LFE34
 373 014b 02       		.byte	0x2
 374 014c 7D       		.byte	0x7d
 375 014d 00       		.sleb128 0
 376 014e 01       		.byte	0x1
 377 014f 0D       		.uleb128 0xd
 378 0150 01       		.byte	0x1
 379 0151 3A020000 		.4byte	.LASF31
 380 0155 01       		.byte	0x1
 381 0156 85       		.byte	0x85
 382 0157 01       		.byte	0x1
 383 0158 44000000 		.4byte	.LFB33
 384 015c 50000000 		.4byte	.LFE33
 385 0160 02       		.byte	0x2
 386 0161 7D       		.byte	0x7d
 387 0162 00       		.sleb128 0
 388 0163 01       		.byte	0x1
 389 0164 76010000 		.4byte	0x176
 390 0168 0E       		.uleb128 0xe
 391 0169 18010000 		.4byte	.LASF22
 392 016d 01       		.byte	0x1
 393 016e 85       		.byte	0x85
 394 016f 91000000 		.4byte	0x91
 395 0173 01       		.byte	0x1
 396 0174 50       		.byte	0x50
 397 0175 00       		.byte	0
 398 0176 0C       		.uleb128 0xc
 399 0177 01       		.byte	0x1
 400 0178 0A000000 		.4byte	.LASF21
 401 017c 01       		.byte	0x1
 402 017d 7B       		.byte	0x7b
 403 017e 01       		.byte	0x1
 404 017f AC000000 		.4byte	0xac
 405 0183 38000000 		.4byte	.LFB32
 406 0187 44000000 		.4byte	.LFE32
 407 018b 02       		.byte	0x2
 408 018c 7D       		.byte	0x7d
 409 018d 00       		.sleb128 0
 410 018e 01       		.byte	0x1
 411 018f 0F       		.uleb128 0xf
 412 0190 01       		.byte	0x1
 413 0191 9C000000 		.4byte	.LASF25
 414 0195 01       		.byte	0x1
 415 0196 6B       		.byte	0x6b
 416 0197 01       		.byte	0x1
 417 0198 AC000000 		.4byte	0xac
 418 019c 18000000 		.4byte	.LFB31
 419 01a0 38000000 		.4byte	.LFE31
 420 01a4 02       		.byte	0x2
 421 01a5 7D       		.byte	0x7d
 422 01a6 00       		.sleb128 0
ARM GAS  G:\Users\Jaxb\AppData\Local\Temp\ccDzUlyB.s 			page 11


 423 01a7 01       		.byte	0x1
 424 01a8 DA010000 		.4byte	0x1da
 425 01ac 10       		.uleb128 0x10
 426 01ad 04010000 		.4byte	.LASF23
 427 01b1 01       		.byte	0x1
 428 01b2 6B       		.byte	0x6b
 429 01b3 DA010000 		.4byte	0x1da
 430 01b7 00000000 		.4byte	.LLST1
 431 01bb 10       		.uleb128 0x10
 432 01bc 60010000 		.4byte	.LASF24
 433 01c0 01       		.byte	0x1
 434 01c1 6B       		.byte	0x6b
 435 01c2 AC000000 		.4byte	0xac
 436 01c6 2E000000 		.4byte	.LLST2
 437 01ca 11       		.uleb128 0x11
 438 01cb 3E010000 		.4byte	.LASF32
 439 01cf 01       		.byte	0x1
 440 01d0 6D       		.byte	0x6d
 441 01d1 AC000000 		.4byte	0xac
 442 01d5 4F000000 		.4byte	.LLST3
 443 01d9 00       		.byte	0
 444 01da 12       		.uleb128 0x12
 445 01db 04       		.byte	0x4
 446 01dc AC000000 		.4byte	0xac
 447 01e0 0F       		.uleb128 0xf
 448 01e1 01       		.byte	0x1
 449 01e2 29000000 		.4byte	.LASF26
 450 01e6 01       		.byte	0x1
 451 01e7 5E       		.byte	0x5e
 452 01e8 01       		.byte	0x1
 453 01e9 AC000000 		.4byte	0xac
 454 01ed 0C000000 		.4byte	.LFB30
 455 01f1 18000000 		.4byte	.LFE30
 456 01f5 02       		.byte	0x2
 457 01f6 7D       		.byte	0x7d
 458 01f7 00       		.sleb128 0
 459 01f8 01       		.byte	0x1
 460 01f9 0D020000 		.4byte	0x20d
 461 01fd 10       		.uleb128 0x10
 462 01fe 8C000000 		.4byte	.LASF27
 463 0202 01       		.byte	0x1
 464 0203 5E       		.byte	0x5e
 465 0204 AC000000 		.4byte	0xac
 466 0208 63000000 		.4byte	.LLST0
 467 020c 00       		.byte	0
 468 020d 13       		.uleb128 0x13
 469 020e 01       		.byte	0x1
 470 020f 0C010000 		.4byte	.LASF33
 471 0213 01       		.byte	0x1
 472 0214 53       		.byte	0x53
 473 0215 01       		.byte	0x1
 474 0216 00000000 		.4byte	.LFB29
 475 021a 0C000000 		.4byte	.LFE29
 476 021e 02       		.byte	0x2
 477 021f 7D       		.byte	0x7d
 478 0220 00       		.sleb128 0
 479 0221 01       		.byte	0x1
ARM GAS  G:\Users\Jaxb\AppData\Local\Temp\ccDzUlyB.s 			page 12


 480 0222 00       		.byte	0
 481              		.section	.debug_abbrev,"",%progbits
 482              	.Ldebug_abbrev0:
 483 0000 01       		.uleb128 0x1
 484 0001 11       		.uleb128 0x11
 485 0002 01       		.byte	0x1
 486 0003 25       		.uleb128 0x25
 487 0004 0E       		.uleb128 0xe
 488 0005 13       		.uleb128 0x13
 489 0006 0B       		.uleb128 0xb
 490 0007 03       		.uleb128 0x3
 491 0008 0E       		.uleb128 0xe
 492 0009 1B       		.uleb128 0x1b
 493 000a 0E       		.uleb128 0xe
 494 000b 11       		.uleb128 0x11
 495 000c 01       		.uleb128 0x1
 496 000d 12       		.uleb128 0x12
 497 000e 01       		.uleb128 0x1
 498 000f 10       		.uleb128 0x10
 499 0010 06       		.uleb128 0x6
 500 0011 00       		.byte	0
 501 0012 00       		.byte	0
 502 0013 02       		.uleb128 0x2
 503 0014 24       		.uleb128 0x24
 504 0015 00       		.byte	0
 505 0016 0B       		.uleb128 0xb
 506 0017 0B       		.uleb128 0xb
 507 0018 3E       		.uleb128 0x3e
 508 0019 0B       		.uleb128 0xb
 509 001a 03       		.uleb128 0x3
 510 001b 0E       		.uleb128 0xe
 511 001c 00       		.byte	0
 512 001d 00       		.byte	0
 513 001e 03       		.uleb128 0x3
 514 001f 16       		.uleb128 0x16
 515 0020 00       		.byte	0
 516 0021 03       		.uleb128 0x3
 517 0022 0E       		.uleb128 0xe
 518 0023 3A       		.uleb128 0x3a
 519 0024 0B       		.uleb128 0xb
 520 0025 3B       		.uleb128 0x3b
 521 0026 0B       		.uleb128 0xb
 522 0027 49       		.uleb128 0x49
 523 0028 13       		.uleb128 0x13
 524 0029 00       		.byte	0
 525 002a 00       		.byte	0
 526 002b 04       		.uleb128 0x4
 527 002c 24       		.uleb128 0x24
 528 002d 00       		.byte	0
 529 002e 0B       		.uleb128 0xb
 530 002f 0B       		.uleb128 0xb
 531 0030 3E       		.uleb128 0x3e
 532 0031 0B       		.uleb128 0xb
 533 0032 03       		.uleb128 0x3
 534 0033 08       		.uleb128 0x8
 535 0034 00       		.byte	0
 536 0035 00       		.byte	0
ARM GAS  G:\Users\Jaxb\AppData\Local\Temp\ccDzUlyB.s 			page 13


 537 0036 05       		.uleb128 0x5
 538 0037 35       		.uleb128 0x35
 539 0038 00       		.byte	0
 540 0039 49       		.uleb128 0x49
 541 003a 13       		.uleb128 0x13
 542 003b 00       		.byte	0
 543 003c 00       		.byte	0
 544 003d 06       		.uleb128 0x6
 545 003e 34       		.uleb128 0x34
 546 003f 00       		.byte	0
 547 0040 03       		.uleb128 0x3
 548 0041 0E       		.uleb128 0xe
 549 0042 3A       		.uleb128 0x3a
 550 0043 0B       		.uleb128 0xb
 551 0044 3B       		.uleb128 0x3b
 552 0045 05       		.uleb128 0x5
 553 0046 49       		.uleb128 0x49
 554 0047 13       		.uleb128 0x13
 555 0048 3F       		.uleb128 0x3f
 556 0049 0C       		.uleb128 0xc
 557 004a 3C       		.uleb128 0x3c
 558 004b 0C       		.uleb128 0xc
 559 004c 00       		.byte	0
 560 004d 00       		.byte	0
 561 004e 07       		.uleb128 0x7
 562 004f 34       		.uleb128 0x34
 563 0050 00       		.byte	0
 564 0051 03       		.uleb128 0x3
 565 0052 0E       		.uleb128 0xe
 566 0053 3A       		.uleb128 0x3a
 567 0054 0B       		.uleb128 0xb
 568 0055 3B       		.uleb128 0x3b
 569 0056 0B       		.uleb128 0xb
 570 0057 49       		.uleb128 0x49
 571 0058 13       		.uleb128 0x13
 572 0059 3F       		.uleb128 0x3f
 573 005a 0C       		.uleb128 0xc
 574 005b 3C       		.uleb128 0x3c
 575 005c 0C       		.uleb128 0xc
 576 005d 00       		.byte	0
 577 005e 00       		.byte	0
 578 005f 08       		.uleb128 0x8
 579 0060 13       		.uleb128 0x13
 580 0061 01       		.byte	0x1
 581 0062 0B       		.uleb128 0xb
 582 0063 0B       		.uleb128 0xb
 583 0064 3A       		.uleb128 0x3a
 584 0065 0B       		.uleb128 0xb
 585 0066 3B       		.uleb128 0x3b
 586 0067 05       		.uleb128 0x5
 587 0068 01       		.uleb128 0x1
 588 0069 13       		.uleb128 0x13
 589 006a 00       		.byte	0
 590 006b 00       		.byte	0
 591 006c 09       		.uleb128 0x9
 592 006d 0D       		.uleb128 0xd
 593 006e 00       		.byte	0
ARM GAS  G:\Users\Jaxb\AppData\Local\Temp\ccDzUlyB.s 			page 14


 594 006f 03       		.uleb128 0x3
 595 0070 08       		.uleb128 0x8
 596 0071 3A       		.uleb128 0x3a
 597 0072 0B       		.uleb128 0xb
 598 0073 3B       		.uleb128 0x3b
 599 0074 05       		.uleb128 0x5
 600 0075 49       		.uleb128 0x49
 601 0076 13       		.uleb128 0x13
 602 0077 38       		.uleb128 0x38
 603 0078 0A       		.uleb128 0xa
 604 0079 00       		.byte	0
 605 007a 00       		.byte	0
 606 007b 0A       		.uleb128 0xa
 607 007c 0D       		.uleb128 0xd
 608 007d 00       		.byte	0
 609 007e 03       		.uleb128 0x3
 610 007f 0E       		.uleb128 0xe
 611 0080 3A       		.uleb128 0x3a
 612 0081 0B       		.uleb128 0xb
 613 0082 3B       		.uleb128 0x3b
 614 0083 05       		.uleb128 0x5
 615 0084 49       		.uleb128 0x49
 616 0085 13       		.uleb128 0x13
 617 0086 38       		.uleb128 0x38
 618 0087 0A       		.uleb128 0xa
 619 0088 00       		.byte	0
 620 0089 00       		.byte	0
 621 008a 0B       		.uleb128 0xb
 622 008b 16       		.uleb128 0x16
 623 008c 00       		.byte	0
 624 008d 03       		.uleb128 0x3
 625 008e 0E       		.uleb128 0xe
 626 008f 3A       		.uleb128 0x3a
 627 0090 0B       		.uleb128 0xb
 628 0091 3B       		.uleb128 0x3b
 629 0092 05       		.uleb128 0x5
 630 0093 49       		.uleb128 0x49
 631 0094 13       		.uleb128 0x13
 632 0095 00       		.byte	0
 633 0096 00       		.byte	0
 634 0097 0C       		.uleb128 0xc
 635 0098 2E       		.uleb128 0x2e
 636 0099 00       		.byte	0
 637 009a 3F       		.uleb128 0x3f
 638 009b 0C       		.uleb128 0xc
 639 009c 03       		.uleb128 0x3
 640 009d 0E       		.uleb128 0xe
 641 009e 3A       		.uleb128 0x3a
 642 009f 0B       		.uleb128 0xb
 643 00a0 3B       		.uleb128 0x3b
 644 00a1 0B       		.uleb128 0xb
 645 00a2 27       		.uleb128 0x27
 646 00a3 0C       		.uleb128 0xc
 647 00a4 49       		.uleb128 0x49
 648 00a5 13       		.uleb128 0x13
 649 00a6 11       		.uleb128 0x11
 650 00a7 01       		.uleb128 0x1
ARM GAS  G:\Users\Jaxb\AppData\Local\Temp\ccDzUlyB.s 			page 15


 651 00a8 12       		.uleb128 0x12
 652 00a9 01       		.uleb128 0x1
 653 00aa 40       		.uleb128 0x40
 654 00ab 0A       		.uleb128 0xa
 655 00ac 9742     		.uleb128 0x2117
 656 00ae 0C       		.uleb128 0xc
 657 00af 00       		.byte	0
 658 00b0 00       		.byte	0
 659 00b1 0D       		.uleb128 0xd
 660 00b2 2E       		.uleb128 0x2e
 661 00b3 01       		.byte	0x1
 662 00b4 3F       		.uleb128 0x3f
 663 00b5 0C       		.uleb128 0xc
 664 00b6 03       		.uleb128 0x3
 665 00b7 0E       		.uleb128 0xe
 666 00b8 3A       		.uleb128 0x3a
 667 00b9 0B       		.uleb128 0xb
 668 00ba 3B       		.uleb128 0x3b
 669 00bb 0B       		.uleb128 0xb
 670 00bc 27       		.uleb128 0x27
 671 00bd 0C       		.uleb128 0xc
 672 00be 11       		.uleb128 0x11
 673 00bf 01       		.uleb128 0x1
 674 00c0 12       		.uleb128 0x12
 675 00c1 01       		.uleb128 0x1
 676 00c2 40       		.uleb128 0x40
 677 00c3 0A       		.uleb128 0xa
 678 00c4 9742     		.uleb128 0x2117
 679 00c6 0C       		.uleb128 0xc
 680 00c7 01       		.uleb128 0x1
 681 00c8 13       		.uleb128 0x13
 682 00c9 00       		.byte	0
 683 00ca 00       		.byte	0
 684 00cb 0E       		.uleb128 0xe
 685 00cc 05       		.uleb128 0x5
 686 00cd 00       		.byte	0
 687 00ce 03       		.uleb128 0x3
 688 00cf 0E       		.uleb128 0xe
 689 00d0 3A       		.uleb128 0x3a
 690 00d1 0B       		.uleb128 0xb
 691 00d2 3B       		.uleb128 0x3b
 692 00d3 0B       		.uleb128 0xb
 693 00d4 49       		.uleb128 0x49
 694 00d5 13       		.uleb128 0x13
 695 00d6 02       		.uleb128 0x2
 696 00d7 0A       		.uleb128 0xa
 697 00d8 00       		.byte	0
 698 00d9 00       		.byte	0
 699 00da 0F       		.uleb128 0xf
 700 00db 2E       		.uleb128 0x2e
 701 00dc 01       		.byte	0x1
 702 00dd 3F       		.uleb128 0x3f
 703 00de 0C       		.uleb128 0xc
 704 00df 03       		.uleb128 0x3
 705 00e0 0E       		.uleb128 0xe
 706 00e1 3A       		.uleb128 0x3a
 707 00e2 0B       		.uleb128 0xb
ARM GAS  G:\Users\Jaxb\AppData\Local\Temp\ccDzUlyB.s 			page 16


 708 00e3 3B       		.uleb128 0x3b
 709 00e4 0B       		.uleb128 0xb
 710 00e5 27       		.uleb128 0x27
 711 00e6 0C       		.uleb128 0xc
 712 00e7 49       		.uleb128 0x49
 713 00e8 13       		.uleb128 0x13
 714 00e9 11       		.uleb128 0x11
 715 00ea 01       		.uleb128 0x1
 716 00eb 12       		.uleb128 0x12
 717 00ec 01       		.uleb128 0x1
 718 00ed 40       		.uleb128 0x40
 719 00ee 0A       		.uleb128 0xa
 720 00ef 9742     		.uleb128 0x2117
 721 00f1 0C       		.uleb128 0xc
 722 00f2 01       		.uleb128 0x1
 723 00f3 13       		.uleb128 0x13
 724 00f4 00       		.byte	0
 725 00f5 00       		.byte	0
 726 00f6 10       		.uleb128 0x10
 727 00f7 05       		.uleb128 0x5
 728 00f8 00       		.byte	0
 729 00f9 03       		.uleb128 0x3
 730 00fa 0E       		.uleb128 0xe
 731 00fb 3A       		.uleb128 0x3a
 732 00fc 0B       		.uleb128 0xb
 733 00fd 3B       		.uleb128 0x3b
 734 00fe 0B       		.uleb128 0xb
 735 00ff 49       		.uleb128 0x49
 736 0100 13       		.uleb128 0x13
 737 0101 02       		.uleb128 0x2
 738 0102 06       		.uleb128 0x6
 739 0103 00       		.byte	0
 740 0104 00       		.byte	0
 741 0105 11       		.uleb128 0x11
 742 0106 34       		.uleb128 0x34
 743 0107 00       		.byte	0
 744 0108 03       		.uleb128 0x3
 745 0109 0E       		.uleb128 0xe
 746 010a 3A       		.uleb128 0x3a
 747 010b 0B       		.uleb128 0xb
 748 010c 3B       		.uleb128 0x3b
 749 010d 0B       		.uleb128 0xb
 750 010e 49       		.uleb128 0x49
 751 010f 13       		.uleb128 0x13
 752 0110 02       		.uleb128 0x2
 753 0111 06       		.uleb128 0x6
 754 0112 00       		.byte	0
 755 0113 00       		.byte	0
 756 0114 12       		.uleb128 0x12
 757 0115 0F       		.uleb128 0xf
 758 0116 00       		.byte	0
 759 0117 0B       		.uleb128 0xb
 760 0118 0B       		.uleb128 0xb
 761 0119 49       		.uleb128 0x49
 762 011a 13       		.uleb128 0x13
 763 011b 00       		.byte	0
 764 011c 00       		.byte	0
ARM GAS  G:\Users\Jaxb\AppData\Local\Temp\ccDzUlyB.s 			page 17


 765 011d 13       		.uleb128 0x13
 766 011e 2E       		.uleb128 0x2e
 767 011f 00       		.byte	0
 768 0120 3F       		.uleb128 0x3f
 769 0121 0C       		.uleb128 0xc
 770 0122 03       		.uleb128 0x3
 771 0123 0E       		.uleb128 0xe
 772 0124 3A       		.uleb128 0x3a
 773 0125 0B       		.uleb128 0xb
 774 0126 3B       		.uleb128 0x3b
 775 0127 0B       		.uleb128 0xb
 776 0128 27       		.uleb128 0x27
 777 0129 0C       		.uleb128 0xc
 778 012a 11       		.uleb128 0x11
 779 012b 01       		.uleb128 0x1
 780 012c 12       		.uleb128 0x12
 781 012d 01       		.uleb128 0x1
 782 012e 40       		.uleb128 0x40
 783 012f 0A       		.uleb128 0xa
 784 0130 9742     		.uleb128 0x2117
 785 0132 0C       		.uleb128 0xc
 786 0133 00       		.byte	0
 787 0134 00       		.byte	0
 788 0135 00       		.byte	0
 789              		.section	.debug_loc,"",%progbits
 790              	.Ldebug_loc0:
 791              	.LLST1:
 792 0000 18000000 		.4byte	.LVL2-.Ltext0
 793 0004 1C000000 		.4byte	.LVL3-.Ltext0
 794 0008 0100     		.2byte	0x1
 795 000a 50       		.byte	0x50
 796 000b 1C000000 		.4byte	.LVL3-.Ltext0
 797 000f 22000000 		.4byte	.LVL4-.Ltext0
 798 0013 0300     		.2byte	0x3
 799 0015 70       		.byte	0x70
 800 0016 04       		.sleb128 4
 801 0017 9F       		.byte	0x9f
 802 0018 22000000 		.4byte	.LVL4-.Ltext0
 803 001c 38000000 		.4byte	.LFE31-.Ltext0
 804 0020 0400     		.2byte	0x4
 805 0022 F3       		.byte	0xf3
 806 0023 01       		.uleb128 0x1
 807 0024 50       		.byte	0x50
 808 0025 9F       		.byte	0x9f
 809 0026 00000000 		.4byte	0
 810 002a 00000000 		.4byte	0
 811              	.LLST2:
 812 002e 18000000 		.4byte	.LVL2-.Ltext0
 813 0032 22000000 		.4byte	.LVL4-.Ltext0
 814 0036 0100     		.2byte	0x1
 815 0038 51       		.byte	0x51
 816 0039 22000000 		.4byte	.LVL4-.Ltext0
 817 003d 38000000 		.4byte	.LFE31-.Ltext0
 818 0041 0400     		.2byte	0x4
 819 0043 F3       		.byte	0xf3
 820 0044 01       		.uleb128 0x1
 821 0045 51       		.byte	0x51
ARM GAS  G:\Users\Jaxb\AppData\Local\Temp\ccDzUlyB.s 			page 18


 822 0046 9F       		.byte	0x9f
 823 0047 00000000 		.4byte	0
 824 004b 00000000 		.4byte	0
 825              	.LLST3:
 826 004f 18000000 		.4byte	.LVL2-.Ltext0
 827 0053 22000000 		.4byte	.LVL4-.Ltext0
 828 0057 0200     		.2byte	0x2
 829 0059 30       		.byte	0x30
 830 005a 9F       		.byte	0x9f
 831 005b 00000000 		.4byte	0
 832 005f 00000000 		.4byte	0
 833              	.LLST0:
 834 0063 0C000000 		.4byte	.LVL0-.Ltext0
 835 0067 12000000 		.4byte	.LVL1-.Ltext0
 836 006b 0100     		.2byte	0x1
 837 006d 50       		.byte	0x50
 838 006e 12000000 		.4byte	.LVL1-.Ltext0
 839 0072 18000000 		.4byte	.LFE30-.Ltext0
 840 0076 0200     		.2byte	0x2
 841 0078 73       		.byte	0x73
 842 0079 00       		.sleb128 0
 843 007a 00000000 		.4byte	0
 844 007e 00000000 		.4byte	0
 845              		.section	.debug_aranges,"",%progbits
 846 0000 1C000000 		.4byte	0x1c
 847 0004 0200     		.2byte	0x2
 848 0006 00000000 		.4byte	.Ldebug_info0
 849 000a 04       		.byte	0x4
 850 000b 00       		.byte	0
 851 000c 0000     		.2byte	0
 852 000e 0000     		.2byte	0
 853 0010 00000000 		.4byte	.Ltext0
 854 0014 5C000000 		.4byte	.Letext0-.Ltext0
 855 0018 00000000 		.4byte	0
 856 001c 00000000 		.4byte	0
 857              		.section	.debug_line,"",%progbits
 858              	.Ldebug_line0:
 859 0000 42010000 		.section	.debug_str,"MS",%progbits,1
 859      02000001 
 859      00000201 
 859      FB0E0D00 
 859      01010101 
 860              	.LASF3:
 861 0000 5F5F7569 		.ascii	"__uint8_t\000"
 861      6E74385F 
 861      7400
 862              	.LASF21:
 863 000a 4352435F 		.ascii	"CRC_GetCRC\000"
 863      47657443 
 863      524300
 864              	.LASF17:
 865 0015 52455345 		.ascii	"RESERVED0\000"
 865      52564544 
 865      3000
 866              	.LASF18:
 867 001f 52455345 		.ascii	"RESERVED1\000"
 867      52564544 
ARM GAS  G:\Users\Jaxb\AppData\Local\Temp\ccDzUlyB.s 			page 19


 867      3100
 868              	.LASF26:
 869 0029 4352435F 		.ascii	"CRC_CalcCRC\000"
 869      43616C63 
 869      43524300 
 870              	.LASF1:
 871 0035 756E7369 		.ascii	"unsigned char\000"
 871      676E6564 
 871      20636861 
 871      7200
 872              	.LASF8:
 873 0043 6C6F6E67 		.ascii	"long unsigned int\000"
 873      20756E73 
 873      69676E65 
 873      6420696E 
 873      7400
 874              	.LASF5:
 875 0055 73686F72 		.ascii	"short unsigned int\000"
 875      7420756E 
 875      7369676E 
 875      65642069 
 875      6E7400
 876              	.LASF19:
 877 0068 4352435F 		.ascii	"CRC_TypeDef\000"
 877      54797065 
 877      44656600 
 878              	.LASF15:
 879 0074 49544D5F 		.ascii	"ITM_RxBuffer\000"
 879      52784275 
 879      66666572 
 879      00
 880              	.LASF4:
 881 0081 5F5F7569 		.ascii	"__uint16_t\000"
 881      6E743136 
 881      5F7400
 882              	.LASF27:
 883 008c 44617461 		.ascii	"Data\000"
 883      00
 884              	.LASF7:
 885 0091 5F5F7569 		.ascii	"__uint32_t\000"
 885      6E743332 
 885      5F7400
 886              	.LASF25:
 887 009c 4352435F 		.ascii	"CRC_CalcBlockCRC\000"
 887      43616C63 
 887      426C6F63 
 887      6B435243 
 887      00
 888              	.LASF11:
 889 00ad 756E7369 		.ascii	"unsigned int\000"
 889      676E6564 
 889      20696E74 
 889      00
 890              	.LASF10:
 891 00ba 6C6F6E67 		.ascii	"long long unsigned int\000"
 891      206C6F6E 
 891      6720756E 
ARM GAS  G:\Users\Jaxb\AppData\Local\Temp\ccDzUlyB.s 			page 20


 891      7369676E 
 891      65642069 
 892              	.LASF12:
 893 00d1 75696E74 		.ascii	"uint8_t\000"
 893      385F7400 
 894              	.LASF29:
 895 00d9 2E2E2F2E 		.ascii	"../../source/src/FWlib/src/stm32f10x_crc.c\000"
 895      2E2F736F 
 895      75726365 
 895      2F737263 
 895      2F46576C 
 896              	.LASF23:
 897 0104 70427566 		.ascii	"pBuffer\000"
 897      66657200 
 898              	.LASF33:
 899 010c 4352435F 		.ascii	"CRC_ResetDR\000"
 899      52657365 
 899      74445200 
 900              	.LASF22:
 901 0118 49445661 		.ascii	"IDValue\000"
 901      6C756500 
 902              	.LASF9:
 903 0120 6C6F6E67 		.ascii	"long long int\000"
 903      206C6F6E 
 903      6720696E 
 903      7400
 904              	.LASF16:
 905 012e 53797374 		.ascii	"SystemCoreClock\000"
 905      656D436F 
 905      7265436C 
 905      6F636B00 
 906              	.LASF32:
 907 013e 696E6465 		.ascii	"index\000"
 907      7800
 908              	.LASF20:
 909 0144 4352435F 		.ascii	"CRC_GetIDRegister\000"
 909      47657449 
 909      44526567 
 909      69737465 
 909      7200
 910              	.LASF2:
 911 0156 73686F72 		.ascii	"short int\000"
 911      7420696E 
 911      7400
 912              	.LASF24:
 913 0160 42756666 		.ascii	"BufferLength\000"
 913      65724C65 
 913      6E677468 
 913      00
 914              	.LASF13:
 915 016d 75696E74 		.ascii	"uint16_t\000"
 915      31365F74 
 915      00
 916              	.LASF14:
 917 0176 75696E74 		.ascii	"uint32_t\000"
 917      33325F74 
 917      00
ARM GAS  G:\Users\Jaxb\AppData\Local\Temp\ccDzUlyB.s 			page 21


 918              	.LASF6:
 919 017f 6C6F6E67 		.ascii	"long int\000"
 919      20696E74 
 919      00
 920              	.LASF28:
 921 0188 474E5520 		.ascii	"GNU C11 7.3.1 20180622 (release) [ARM/embedded-7-br"
 921      43313120 
 921      372E332E 
 921      31203230 
 921      31383036 
 922 01bb 616E6368 		.ascii	"anch revision 261907] -mcpu=cortex-m3 -mthumb -mapc"
 922      20726576 
 922      6973696F 
 922      6E203236 
 922      31393037 
 923 01ee 732D6672 		.ascii	"s-frame -mthumb-interwork -mcpu=cortex-m3 -mthumb -"
 923      616D6520 
 923      2D6D7468 
 923      756D622D 
 923      696E7465 
 924 0221 67647761 		.ascii	"gdwarf-2 -O2\000"
 924      72662D32 
 924      202D4F32 
 924      00
 925              	.LASF0:
 926 022e 7369676E 		.ascii	"signed char\000"
 926      65642063 
 926      68617200 
 927              	.LASF31:
 928 023a 4352435F 		.ascii	"CRC_SetIDRegister\000"
 928      53657449 
 928      44526567 
 928      69737465 
 928      7200
 929              	.LASF30:
 930 024c 473A5C55 		.ascii	"G:\\Users\\Jaxb\\Desktop\\KAKAOS-0.07  2019.2.21  f"
 930      73657273 
 930      5C4A6178 
 930      625C4465 
 930      736B746F 
 931 027b 6F722067 		.ascii	"or gcc\\Project\\RVMDK\243\250uv5\243\251\000"
 931      63635C50 
 931      726F6A65 
 931      63745C52 
 931      564D444B 
 932              		.ident	"GCC: (GNU Tools for Arm Embedded Processors 7-2018-q2-update) 7.3.1 20180622 (release) [AR
ARM GAS  G:\Users\Jaxb\AppData\Local\Temp\ccDzUlyB.s 			page 22


DEFINED SYMBOLS
                            *ABS*:00000000 stm32f10x_crc.c
G:\Users\Jaxb\AppData\Local\Temp\ccDzUlyB.s:15     .text:00000000 $t
G:\Users\Jaxb\AppData\Local\Temp\ccDzUlyB.s:23     .text:00000000 CRC_ResetDR
G:\Users\Jaxb\AppData\Local\Temp\ccDzUlyB.s:40     .text:00000008 $d
G:\Users\Jaxb\AppData\Local\Temp\ccDzUlyB.s:44     .text:0000000c $t
G:\Users\Jaxb\AppData\Local\Temp\ccDzUlyB.s:52     .text:0000000c CRC_CalcCRC
G:\Users\Jaxb\AppData\Local\Temp\ccDzUlyB.s:71     .text:00000014 $d
G:\Users\Jaxb\AppData\Local\Temp\ccDzUlyB.s:75     .text:00000018 $t
G:\Users\Jaxb\AppData\Local\Temp\ccDzUlyB.s:83     .text:00000018 CRC_CalcBlockCRC
G:\Users\Jaxb\AppData\Local\Temp\ccDzUlyB.s:117    .text:00000034 $d
G:\Users\Jaxb\AppData\Local\Temp\ccDzUlyB.s:121    .text:00000038 $t
G:\Users\Jaxb\AppData\Local\Temp\ccDzUlyB.s:129    .text:00000038 CRC_GetCRC
G:\Users\Jaxb\AppData\Local\Temp\ccDzUlyB.s:144    .text:00000040 $d
G:\Users\Jaxb\AppData\Local\Temp\ccDzUlyB.s:148    .text:00000044 $t
G:\Users\Jaxb\AppData\Local\Temp\ccDzUlyB.s:156    .text:00000044 CRC_SetIDRegister
G:\Users\Jaxb\AppData\Local\Temp\ccDzUlyB.s:172    .text:0000004c $d
G:\Users\Jaxb\AppData\Local\Temp\ccDzUlyB.s:176    .text:00000050 $t
G:\Users\Jaxb\AppData\Local\Temp\ccDzUlyB.s:184    .text:00000050 CRC_GetIDRegister
G:\Users\Jaxb\AppData\Local\Temp\ccDzUlyB.s:199    .text:00000058 $d

NO UNDEFINED SYMBOLS
