ARM GAS  G:\Users\Jaxb\AppData\Local\Temp\ccSNtDmO.s 			page 1


   1              		.cpu cortex-m3
   2              		.eabi_attribute 20, 1
   3              		.eabi_attribute 21, 1
   4              		.eabi_attribute 23, 3
   5              		.eabi_attribute 24, 1
   6              		.eabi_attribute 25, 1
   7              		.eabi_attribute 26, 1
   8              		.eabi_attribute 30, 2
   9              		.eabi_attribute 34, 1
  10              		.eabi_attribute 18, 4
  11              		.file	"stm32f10x_iwdg.c"
  12              		.text
  13              	.Ltext0:
  14              		.cfi_sections	.debug_frame
  15              		.align	1
  16              		.p2align 2,,3
  17              		.global	IWDG_WriteAccessCmd
  18              		.syntax unified
  19              		.thumb
  20              		.thumb_func
  21              		.fpu softvfp
  22              		.type	IWDG_WriteAccessCmd, %function
  23              	IWDG_WriteAccessCmd:
  24              	.LFB29:
  25              		.file 1 "../../source/src/FWlib/src/stm32f10x_iwdg.c"
   1:../../source/src/FWlib/src/stm32f10x_iwdg.c **** /**
   2:../../source/src/FWlib/src/stm32f10x_iwdg.c ****   ******************************************************************************
   3:../../source/src/FWlib/src/stm32f10x_iwdg.c ****   * @file    stm32f10x_iwdg.c
   4:../../source/src/FWlib/src/stm32f10x_iwdg.c ****   * @author  MCD Application Team
   5:../../source/src/FWlib/src/stm32f10x_iwdg.c ****   * @version V3.5.0
   6:../../source/src/FWlib/src/stm32f10x_iwdg.c ****   * @date    11-March-2011
   7:../../source/src/FWlib/src/stm32f10x_iwdg.c ****   * @brief   This file provides all the IWDG firmware functions.
   8:../../source/src/FWlib/src/stm32f10x_iwdg.c ****   ******************************************************************************
   9:../../source/src/FWlib/src/stm32f10x_iwdg.c ****   * @attention
  10:../../source/src/FWlib/src/stm32f10x_iwdg.c ****   *
  11:../../source/src/FWlib/src/stm32f10x_iwdg.c ****   * THE PRESENT FIRMWARE WHICH IS FOR GUIDANCE ONLY AIMS AT PROVIDING CUSTOMERS
  12:../../source/src/FWlib/src/stm32f10x_iwdg.c ****   * WITH CODING INFORMATION REGARDING THEIR PRODUCTS IN ORDER FOR THEM TO SAVE
  13:../../source/src/FWlib/src/stm32f10x_iwdg.c ****   * TIME. AS A RESULT, STMICROELECTRONICS SHALL NOT BE HELD LIABLE FOR ANY
  14:../../source/src/FWlib/src/stm32f10x_iwdg.c ****   * DIRECT, INDIRECT OR CONSEQUENTIAL DAMAGES WITH RESPECT TO ANY CLAIMS ARISING
  15:../../source/src/FWlib/src/stm32f10x_iwdg.c ****   * FROM THE CONTENT OF SUCH FIRMWARE AND/OR THE USE MADE BY CUSTOMERS OF THE
  16:../../source/src/FWlib/src/stm32f10x_iwdg.c ****   * CODING INFORMATION CONTAINED HEREIN IN CONNECTION WITH THEIR PRODUCTS.
  17:../../source/src/FWlib/src/stm32f10x_iwdg.c ****   *
  18:../../source/src/FWlib/src/stm32f10x_iwdg.c ****   * <h2><center>&copy; COPYRIGHT 2011 STMicroelectronics</center></h2>
  19:../../source/src/FWlib/src/stm32f10x_iwdg.c ****   ******************************************************************************
  20:../../source/src/FWlib/src/stm32f10x_iwdg.c ****   */
  21:../../source/src/FWlib/src/stm32f10x_iwdg.c **** 
  22:../../source/src/FWlib/src/stm32f10x_iwdg.c **** /* Includes ------------------------------------------------------------------*/
  23:../../source/src/FWlib/src/stm32f10x_iwdg.c **** #include "stm32f10x_iwdg.h"
  24:../../source/src/FWlib/src/stm32f10x_iwdg.c **** 
  25:../../source/src/FWlib/src/stm32f10x_iwdg.c **** /** @addtogroup STM32F10x_StdPeriph_Driver
  26:../../source/src/FWlib/src/stm32f10x_iwdg.c ****   * @{
  27:../../source/src/FWlib/src/stm32f10x_iwdg.c ****   */
  28:../../source/src/FWlib/src/stm32f10x_iwdg.c **** 
  29:../../source/src/FWlib/src/stm32f10x_iwdg.c **** /** @defgroup IWDG 
  30:../../source/src/FWlib/src/stm32f10x_iwdg.c ****   * @brief IWDG driver modules
  31:../../source/src/FWlib/src/stm32f10x_iwdg.c ****   * @{
  32:../../source/src/FWlib/src/stm32f10x_iwdg.c ****   */ 
ARM GAS  G:\Users\Jaxb\AppData\Local\Temp\ccSNtDmO.s 			page 2


  33:../../source/src/FWlib/src/stm32f10x_iwdg.c **** 
  34:../../source/src/FWlib/src/stm32f10x_iwdg.c **** /** @defgroup IWDG_Private_TypesDefinitions
  35:../../source/src/FWlib/src/stm32f10x_iwdg.c ****   * @{
  36:../../source/src/FWlib/src/stm32f10x_iwdg.c ****   */
  37:../../source/src/FWlib/src/stm32f10x_iwdg.c **** 
  38:../../source/src/FWlib/src/stm32f10x_iwdg.c **** /**
  39:../../source/src/FWlib/src/stm32f10x_iwdg.c ****   * @}
  40:../../source/src/FWlib/src/stm32f10x_iwdg.c ****   */
  41:../../source/src/FWlib/src/stm32f10x_iwdg.c **** 
  42:../../source/src/FWlib/src/stm32f10x_iwdg.c **** /** @defgroup IWDG_Private_Defines
  43:../../source/src/FWlib/src/stm32f10x_iwdg.c ****   * @{
  44:../../source/src/FWlib/src/stm32f10x_iwdg.c ****   */ 
  45:../../source/src/FWlib/src/stm32f10x_iwdg.c **** 
  46:../../source/src/FWlib/src/stm32f10x_iwdg.c **** /* ---------------------- IWDG registers bit mask ----------------------------*/
  47:../../source/src/FWlib/src/stm32f10x_iwdg.c **** 
  48:../../source/src/FWlib/src/stm32f10x_iwdg.c **** /* KR register bit mask */
  49:../../source/src/FWlib/src/stm32f10x_iwdg.c **** #define KR_KEY_Reload    ((uint16_t)0xAAAA)
  50:../../source/src/FWlib/src/stm32f10x_iwdg.c **** #define KR_KEY_Enable    ((uint16_t)0xCCCC)
  51:../../source/src/FWlib/src/stm32f10x_iwdg.c **** 
  52:../../source/src/FWlib/src/stm32f10x_iwdg.c **** /**
  53:../../source/src/FWlib/src/stm32f10x_iwdg.c ****   * @}
  54:../../source/src/FWlib/src/stm32f10x_iwdg.c ****   */ 
  55:../../source/src/FWlib/src/stm32f10x_iwdg.c **** 
  56:../../source/src/FWlib/src/stm32f10x_iwdg.c **** /** @defgroup IWDG_Private_Macros
  57:../../source/src/FWlib/src/stm32f10x_iwdg.c ****   * @{
  58:../../source/src/FWlib/src/stm32f10x_iwdg.c ****   */
  59:../../source/src/FWlib/src/stm32f10x_iwdg.c **** 
  60:../../source/src/FWlib/src/stm32f10x_iwdg.c **** /**
  61:../../source/src/FWlib/src/stm32f10x_iwdg.c ****   * @}
  62:../../source/src/FWlib/src/stm32f10x_iwdg.c ****   */
  63:../../source/src/FWlib/src/stm32f10x_iwdg.c **** 
  64:../../source/src/FWlib/src/stm32f10x_iwdg.c **** /** @defgroup IWDG_Private_Variables
  65:../../source/src/FWlib/src/stm32f10x_iwdg.c ****   * @{
  66:../../source/src/FWlib/src/stm32f10x_iwdg.c ****   */
  67:../../source/src/FWlib/src/stm32f10x_iwdg.c **** 
  68:../../source/src/FWlib/src/stm32f10x_iwdg.c **** /**
  69:../../source/src/FWlib/src/stm32f10x_iwdg.c ****   * @}
  70:../../source/src/FWlib/src/stm32f10x_iwdg.c ****   */
  71:../../source/src/FWlib/src/stm32f10x_iwdg.c **** 
  72:../../source/src/FWlib/src/stm32f10x_iwdg.c **** /** @defgroup IWDG_Private_FunctionPrototypes
  73:../../source/src/FWlib/src/stm32f10x_iwdg.c ****   * @{
  74:../../source/src/FWlib/src/stm32f10x_iwdg.c ****   */
  75:../../source/src/FWlib/src/stm32f10x_iwdg.c **** 
  76:../../source/src/FWlib/src/stm32f10x_iwdg.c **** /**
  77:../../source/src/FWlib/src/stm32f10x_iwdg.c ****   * @}
  78:../../source/src/FWlib/src/stm32f10x_iwdg.c ****   */
  79:../../source/src/FWlib/src/stm32f10x_iwdg.c **** 
  80:../../source/src/FWlib/src/stm32f10x_iwdg.c **** /** @defgroup IWDG_Private_Functions
  81:../../source/src/FWlib/src/stm32f10x_iwdg.c ****   * @{
  82:../../source/src/FWlib/src/stm32f10x_iwdg.c ****   */
  83:../../source/src/FWlib/src/stm32f10x_iwdg.c **** 
  84:../../source/src/FWlib/src/stm32f10x_iwdg.c **** /**
  85:../../source/src/FWlib/src/stm32f10x_iwdg.c ****   * @brief  Enables or disables write access to IWDG_PR and IWDG_RLR registers.
  86:../../source/src/FWlib/src/stm32f10x_iwdg.c ****   * @param  IWDG_WriteAccess: new state of write access to IWDG_PR and IWDG_RLR registers.
  87:../../source/src/FWlib/src/stm32f10x_iwdg.c ****   *   This parameter can be one of the following values:
  88:../../source/src/FWlib/src/stm32f10x_iwdg.c ****   *     @arg IWDG_WriteAccess_Enable: Enable write access to IWDG_PR and IWDG_RLR registers
  89:../../source/src/FWlib/src/stm32f10x_iwdg.c ****   *     @arg IWDG_WriteAccess_Disable: Disable write access to IWDG_PR and IWDG_RLR registers
ARM GAS  G:\Users\Jaxb\AppData\Local\Temp\ccSNtDmO.s 			page 3


  90:../../source/src/FWlib/src/stm32f10x_iwdg.c ****   * @retval None
  91:../../source/src/FWlib/src/stm32f10x_iwdg.c ****   */
  92:../../source/src/FWlib/src/stm32f10x_iwdg.c **** void IWDG_WriteAccessCmd(uint16_t IWDG_WriteAccess)
  93:../../source/src/FWlib/src/stm32f10x_iwdg.c **** {
  26              		.loc 1 93 0
  27              		.cfi_startproc
  28              		@ args = 0, pretend = 0, frame = 0
  29              		@ frame_needed = 0, uses_anonymous_args = 0
  30              		@ link register save eliminated.
  31              	.LVL0:
  94:../../source/src/FWlib/src/stm32f10x_iwdg.c ****   /* Check the parameters */
  95:../../source/src/FWlib/src/stm32f10x_iwdg.c ****   assert_param(IS_IWDG_WRITE_ACCESS(IWDG_WriteAccess));
  96:../../source/src/FWlib/src/stm32f10x_iwdg.c ****   IWDG->KR = IWDG_WriteAccess;
  32              		.loc 1 96 0
  33 0000 014B     		ldr	r3, .L3
  34 0002 1860     		str	r0, [r3]
  97:../../source/src/FWlib/src/stm32f10x_iwdg.c **** }
  35              		.loc 1 97 0
  36 0004 7047     		bx	lr
  37              	.L4:
  38 0006 00BF     		.align	2
  39              	.L3:
  40 0008 00300040 		.word	1073754112
  41              		.cfi_endproc
  42              	.LFE29:
  43              		.size	IWDG_WriteAccessCmd, .-IWDG_WriteAccessCmd
  44              		.align	1
  45              		.p2align 2,,3
  46              		.global	IWDG_SetPrescaler
  47              		.syntax unified
  48              		.thumb
  49              		.thumb_func
  50              		.fpu softvfp
  51              		.type	IWDG_SetPrescaler, %function
  52              	IWDG_SetPrescaler:
  53              	.LFB30:
  98:../../source/src/FWlib/src/stm32f10x_iwdg.c **** 
  99:../../source/src/FWlib/src/stm32f10x_iwdg.c **** /**
 100:../../source/src/FWlib/src/stm32f10x_iwdg.c ****   * @brief  Sets IWDG Prescaler value.
 101:../../source/src/FWlib/src/stm32f10x_iwdg.c ****   * @param  IWDG_Prescaler: specifies the IWDG Prescaler value.
 102:../../source/src/FWlib/src/stm32f10x_iwdg.c ****   *   This parameter can be one of the following values:
 103:../../source/src/FWlib/src/stm32f10x_iwdg.c ****   *     @arg IWDG_Prescaler_4: IWDG prescaler set to 4
 104:../../source/src/FWlib/src/stm32f10x_iwdg.c ****   *     @arg IWDG_Prescaler_8: IWDG prescaler set to 8
 105:../../source/src/FWlib/src/stm32f10x_iwdg.c ****   *     @arg IWDG_Prescaler_16: IWDG prescaler set to 16
 106:../../source/src/FWlib/src/stm32f10x_iwdg.c ****   *     @arg IWDG_Prescaler_32: IWDG prescaler set to 32
 107:../../source/src/FWlib/src/stm32f10x_iwdg.c ****   *     @arg IWDG_Prescaler_64: IWDG prescaler set to 64
 108:../../source/src/FWlib/src/stm32f10x_iwdg.c ****   *     @arg IWDG_Prescaler_128: IWDG prescaler set to 128
 109:../../source/src/FWlib/src/stm32f10x_iwdg.c ****   *     @arg IWDG_Prescaler_256: IWDG prescaler set to 256
 110:../../source/src/FWlib/src/stm32f10x_iwdg.c ****   * @retval None
 111:../../source/src/FWlib/src/stm32f10x_iwdg.c ****   */
 112:../../source/src/FWlib/src/stm32f10x_iwdg.c **** void IWDG_SetPrescaler(uint8_t IWDG_Prescaler)
 113:../../source/src/FWlib/src/stm32f10x_iwdg.c **** {
  54              		.loc 1 113 0
  55              		.cfi_startproc
  56              		@ args = 0, pretend = 0, frame = 0
  57              		@ frame_needed = 0, uses_anonymous_args = 0
  58              		@ link register save eliminated.
ARM GAS  G:\Users\Jaxb\AppData\Local\Temp\ccSNtDmO.s 			page 4


  59              	.LVL1:
 114:../../source/src/FWlib/src/stm32f10x_iwdg.c ****   /* Check the parameters */
 115:../../source/src/FWlib/src/stm32f10x_iwdg.c ****   assert_param(IS_IWDG_PRESCALER(IWDG_Prescaler));
 116:../../source/src/FWlib/src/stm32f10x_iwdg.c ****   IWDG->PR = IWDG_Prescaler;
  60              		.loc 1 116 0
  61 000c 014B     		ldr	r3, .L6
  62 000e 5860     		str	r0, [r3, #4]
 117:../../source/src/FWlib/src/stm32f10x_iwdg.c **** }
  63              		.loc 1 117 0
  64 0010 7047     		bx	lr
  65              	.L7:
  66 0012 00BF     		.align	2
  67              	.L6:
  68 0014 00300040 		.word	1073754112
  69              		.cfi_endproc
  70              	.LFE30:
  71              		.size	IWDG_SetPrescaler, .-IWDG_SetPrescaler
  72              		.align	1
  73              		.p2align 2,,3
  74              		.global	IWDG_SetReload
  75              		.syntax unified
  76              		.thumb
  77              		.thumb_func
  78              		.fpu softvfp
  79              		.type	IWDG_SetReload, %function
  80              	IWDG_SetReload:
  81              	.LFB31:
 118:../../source/src/FWlib/src/stm32f10x_iwdg.c **** 
 119:../../source/src/FWlib/src/stm32f10x_iwdg.c **** /**
 120:../../source/src/FWlib/src/stm32f10x_iwdg.c ****   * @brief  Sets IWDG Reload value.
 121:../../source/src/FWlib/src/stm32f10x_iwdg.c ****   * @param  Reload: specifies the IWDG Reload value.
 122:../../source/src/FWlib/src/stm32f10x_iwdg.c ****   *   This parameter must be a number between 0 and 0x0FFF.
 123:../../source/src/FWlib/src/stm32f10x_iwdg.c ****   * @retval None
 124:../../source/src/FWlib/src/stm32f10x_iwdg.c ****   */
 125:../../source/src/FWlib/src/stm32f10x_iwdg.c **** void IWDG_SetReload(uint16_t Reload)
 126:../../source/src/FWlib/src/stm32f10x_iwdg.c **** {
  82              		.loc 1 126 0
  83              		.cfi_startproc
  84              		@ args = 0, pretend = 0, frame = 0
  85              		@ frame_needed = 0, uses_anonymous_args = 0
  86              		@ link register save eliminated.
  87              	.LVL2:
 127:../../source/src/FWlib/src/stm32f10x_iwdg.c ****   /* Check the parameters */
 128:../../source/src/FWlib/src/stm32f10x_iwdg.c ****   assert_param(IS_IWDG_RELOAD(Reload));
 129:../../source/src/FWlib/src/stm32f10x_iwdg.c ****   IWDG->RLR = Reload;
  88              		.loc 1 129 0
  89 0018 014B     		ldr	r3, .L9
  90 001a 9860     		str	r0, [r3, #8]
 130:../../source/src/FWlib/src/stm32f10x_iwdg.c **** }
  91              		.loc 1 130 0
  92 001c 7047     		bx	lr
  93              	.L10:
  94 001e 00BF     		.align	2
  95              	.L9:
  96 0020 00300040 		.word	1073754112
  97              		.cfi_endproc
  98              	.LFE31:
ARM GAS  G:\Users\Jaxb\AppData\Local\Temp\ccSNtDmO.s 			page 5


  99              		.size	IWDG_SetReload, .-IWDG_SetReload
 100              		.align	1
 101              		.p2align 2,,3
 102              		.global	IWDG_ReloadCounter
 103              		.syntax unified
 104              		.thumb
 105              		.thumb_func
 106              		.fpu softvfp
 107              		.type	IWDG_ReloadCounter, %function
 108              	IWDG_ReloadCounter:
 109              	.LFB32:
 131:../../source/src/FWlib/src/stm32f10x_iwdg.c **** 
 132:../../source/src/FWlib/src/stm32f10x_iwdg.c **** /**
 133:../../source/src/FWlib/src/stm32f10x_iwdg.c ****   * @brief  Reloads IWDG counter with value defined in the reload register
 134:../../source/src/FWlib/src/stm32f10x_iwdg.c ****   *   (write access to IWDG_PR and IWDG_RLR registers disabled).
 135:../../source/src/FWlib/src/stm32f10x_iwdg.c ****   * @param  None
 136:../../source/src/FWlib/src/stm32f10x_iwdg.c ****   * @retval None
 137:../../source/src/FWlib/src/stm32f10x_iwdg.c ****   */
 138:../../source/src/FWlib/src/stm32f10x_iwdg.c **** void IWDG_ReloadCounter(void)
 139:../../source/src/FWlib/src/stm32f10x_iwdg.c **** {
 110              		.loc 1 139 0
 111              		.cfi_startproc
 112              		@ args = 0, pretend = 0, frame = 0
 113              		@ frame_needed = 0, uses_anonymous_args = 0
 114              		@ link register save eliminated.
 140:../../source/src/FWlib/src/stm32f10x_iwdg.c ****   IWDG->KR = KR_KEY_Reload;
 115              		.loc 1 140 0
 116 0024 4AF6AA22 		movw	r2, #43690
 117 0028 014B     		ldr	r3, .L12
 118 002a 1A60     		str	r2, [r3]
 141:../../source/src/FWlib/src/stm32f10x_iwdg.c **** }
 119              		.loc 1 141 0
 120 002c 7047     		bx	lr
 121              	.L13:
 122 002e 00BF     		.align	2
 123              	.L12:
 124 0030 00300040 		.word	1073754112
 125              		.cfi_endproc
 126              	.LFE32:
 127              		.size	IWDG_ReloadCounter, .-IWDG_ReloadCounter
 128              		.align	1
 129              		.p2align 2,,3
 130              		.global	IWDG_Enable
 131              		.syntax unified
 132              		.thumb
 133              		.thumb_func
 134              		.fpu softvfp
 135              		.type	IWDG_Enable, %function
 136              	IWDG_Enable:
 137              	.LFB33:
 142:../../source/src/FWlib/src/stm32f10x_iwdg.c **** 
 143:../../source/src/FWlib/src/stm32f10x_iwdg.c **** /**
 144:../../source/src/FWlib/src/stm32f10x_iwdg.c ****   * @brief  Enables IWDG (write access to IWDG_PR and IWDG_RLR registers disabled).
 145:../../source/src/FWlib/src/stm32f10x_iwdg.c ****   * @param  None
 146:../../source/src/FWlib/src/stm32f10x_iwdg.c ****   * @retval None
 147:../../source/src/FWlib/src/stm32f10x_iwdg.c ****   */
 148:../../source/src/FWlib/src/stm32f10x_iwdg.c **** void IWDG_Enable(void)
ARM GAS  G:\Users\Jaxb\AppData\Local\Temp\ccSNtDmO.s 			page 6


 149:../../source/src/FWlib/src/stm32f10x_iwdg.c **** {
 138              		.loc 1 149 0
 139              		.cfi_startproc
 140              		@ args = 0, pretend = 0, frame = 0
 141              		@ frame_needed = 0, uses_anonymous_args = 0
 142              		@ link register save eliminated.
 150:../../source/src/FWlib/src/stm32f10x_iwdg.c ****   IWDG->KR = KR_KEY_Enable;
 143              		.loc 1 150 0
 144 0034 4CF6CC42 		movw	r2, #52428
 145 0038 014B     		ldr	r3, .L15
 146 003a 1A60     		str	r2, [r3]
 151:../../source/src/FWlib/src/stm32f10x_iwdg.c **** }
 147              		.loc 1 151 0
 148 003c 7047     		bx	lr
 149              	.L16:
 150 003e 00BF     		.align	2
 151              	.L15:
 152 0040 00300040 		.word	1073754112
 153              		.cfi_endproc
 154              	.LFE33:
 155              		.size	IWDG_Enable, .-IWDG_Enable
 156              		.align	1
 157              		.p2align 2,,3
 158              		.global	IWDG_GetFlagStatus
 159              		.syntax unified
 160              		.thumb
 161              		.thumb_func
 162              		.fpu softvfp
 163              		.type	IWDG_GetFlagStatus, %function
 164              	IWDG_GetFlagStatus:
 165              	.LFB34:
 152:../../source/src/FWlib/src/stm32f10x_iwdg.c **** 
 153:../../source/src/FWlib/src/stm32f10x_iwdg.c **** /**
 154:../../source/src/FWlib/src/stm32f10x_iwdg.c ****   * @brief  Checks whether the specified IWDG flag is set or not.
 155:../../source/src/FWlib/src/stm32f10x_iwdg.c ****   * @param  IWDG_FLAG: specifies the flag to check.
 156:../../source/src/FWlib/src/stm32f10x_iwdg.c ****   *   This parameter can be one of the following values:
 157:../../source/src/FWlib/src/stm32f10x_iwdg.c ****   *     @arg IWDG_FLAG_PVU: Prescaler Value Update on going
 158:../../source/src/FWlib/src/stm32f10x_iwdg.c ****   *     @arg IWDG_FLAG_RVU: Reload Value Update on going
 159:../../source/src/FWlib/src/stm32f10x_iwdg.c ****   * @retval The new state of IWDG_FLAG (SET or RESET).
 160:../../source/src/FWlib/src/stm32f10x_iwdg.c ****   */
 161:../../source/src/FWlib/src/stm32f10x_iwdg.c **** FlagStatus IWDG_GetFlagStatus(uint16_t IWDG_FLAG)
 162:../../source/src/FWlib/src/stm32f10x_iwdg.c **** {
 166              		.loc 1 162 0
 167              		.cfi_startproc
 168              		@ args = 0, pretend = 0, frame = 0
 169              		@ frame_needed = 0, uses_anonymous_args = 0
 170              		@ link register save eliminated.
 171              	.LVL3:
 163:../../source/src/FWlib/src/stm32f10x_iwdg.c ****   FlagStatus bitstatus = RESET;
 164:../../source/src/FWlib/src/stm32f10x_iwdg.c ****   /* Check the parameters */
 165:../../source/src/FWlib/src/stm32f10x_iwdg.c ****   assert_param(IS_IWDG_FLAG(IWDG_FLAG));
 166:../../source/src/FWlib/src/stm32f10x_iwdg.c ****   if ((IWDG->SR & IWDG_FLAG) != (uint32_t)RESET)
 172              		.loc 1 166 0
 173 0044 034B     		ldr	r3, .L18
 174 0046 DB68     		ldr	r3, [r3, #12]
 175              	.LVL4:
 176 0048 1842     		tst	r0, r3
ARM GAS  G:\Users\Jaxb\AppData\Local\Temp\ccSNtDmO.s 			page 7


 167:../../source/src/FWlib/src/stm32f10x_iwdg.c ****   {
 168:../../source/src/FWlib/src/stm32f10x_iwdg.c ****     bitstatus = SET;
 169:../../source/src/FWlib/src/stm32f10x_iwdg.c ****   }
 170:../../source/src/FWlib/src/stm32f10x_iwdg.c ****   else
 171:../../source/src/FWlib/src/stm32f10x_iwdg.c ****   {
 172:../../source/src/FWlib/src/stm32f10x_iwdg.c ****     bitstatus = RESET;
 173:../../source/src/FWlib/src/stm32f10x_iwdg.c ****   }
 174:../../source/src/FWlib/src/stm32f10x_iwdg.c ****   /* Return the flag status */
 175:../../source/src/FWlib/src/stm32f10x_iwdg.c ****   return bitstatus;
 176:../../source/src/FWlib/src/stm32f10x_iwdg.c **** }
 177              		.loc 1 176 0
 178 004a 14BF     		ite	ne
 179 004c 0120     		movne	r0, #1
 180              	.LVL5:
 181 004e 0020     		moveq	r0, #0
 182 0050 7047     		bx	lr
 183              	.L19:
 184 0052 00BF     		.align	2
 185              	.L18:
 186 0054 00300040 		.word	1073754112
 187              		.cfi_endproc
 188              	.LFE34:
 189              		.size	IWDG_GetFlagStatus, .-IWDG_GetFlagStatus
 190              	.Letext0:
 191              		.file 2 "f:\\arm\\gcc2018\\arm-none-eabi\\include\\machine\\_default_types.h"
 192              		.file 3 "f:\\arm\\gcc2018\\arm-none-eabi\\include\\sys\\_stdint.h"
 193              		.file 4 "../../source/include/core_cm3.h"
 194              		.file 5 "../../source/include/system_stm32f10x.h"
 195              		.file 6 "../../source/include/stm32f10x.h"