ARM GAS  G:\Users\Jaxb\AppData\Local\Temp\ccbq8auC.s 			page 1


   1              		.cpu cortex-m3
   2              		.eabi_attribute 20, 1
   3              		.eabi_attribute 21, 1
   4              		.eabi_attribute 23, 3
   5              		.eabi_attribute 24, 1
   6              		.eabi_attribute 25, 1
   7              		.eabi_attribute 26, 1
   8              		.eabi_attribute 30, 6
   9              		.eabi_attribute 34, 1
  10              		.eabi_attribute 18, 4
  11              		.file	"stm32f10x_fsmc.c"
  12              		.text
  13              	.Ltext0:
  14              		.cfi_sections	.debug_frame
  15              		.align	1
  16              		.global	FSMC_NORSRAMDeInit
  17              		.syntax unified
  18              		.thumb
  19              		.thumb_func
  20              		.fpu softvfp
  21              		.type	FSMC_NORSRAMDeInit, %function
  22              	FSMC_NORSRAMDeInit:
  23              	.LFB29:
  24              		.file 1 "../../source/src/FWlib/src/stm32f10x_fsmc.c"
   1:../../source/src/FWlib/src/stm32f10x_fsmc.c **** /**
   2:../../source/src/FWlib/src/stm32f10x_fsmc.c ****   ******************************************************************************
   3:../../source/src/FWlib/src/stm32f10x_fsmc.c ****   * @file    stm32f10x_fsmc.c
   4:../../source/src/FWlib/src/stm32f10x_fsmc.c ****   * @author  MCD Application Team
   5:../../source/src/FWlib/src/stm32f10x_fsmc.c ****   * @version V3.5.0
   6:../../source/src/FWlib/src/stm32f10x_fsmc.c ****   * @date    11-March-2011
   7:../../source/src/FWlib/src/stm32f10x_fsmc.c ****   * @brief   This file provides all the FSMC firmware functions.
   8:../../source/src/FWlib/src/stm32f10x_fsmc.c ****   ******************************************************************************
   9:../../source/src/FWlib/src/stm32f10x_fsmc.c ****   * @attention
  10:../../source/src/FWlib/src/stm32f10x_fsmc.c ****   *
  11:../../source/src/FWlib/src/stm32f10x_fsmc.c ****   * THE PRESENT FIRMWARE WHICH IS FOR GUIDANCE ONLY AIMS AT PROVIDING CUSTOMERS
  12:../../source/src/FWlib/src/stm32f10x_fsmc.c ****   * WITH CODING INFORMATION REGARDING THEIR PRODUCTS IN ORDER FOR THEM TO SAVE
  13:../../source/src/FWlib/src/stm32f10x_fsmc.c ****   * TIME. AS A RESULT, STMICROELECTRONICS SHALL NOT BE HELD LIABLE FOR ANY
  14:../../source/src/FWlib/src/stm32f10x_fsmc.c ****   * DIRECT, INDIRECT OR CONSEQUENTIAL DAMAGES WITH RESPECT TO ANY CLAIMS ARISING
  15:../../source/src/FWlib/src/stm32f10x_fsmc.c ****   * FROM THE CONTENT OF SUCH FIRMWARE AND/OR THE USE MADE BY CUSTOMERS OF THE
  16:../../source/src/FWlib/src/stm32f10x_fsmc.c ****   * CODING INFORMATION CONTAINED HEREIN IN CONNECTION WITH THEIR PRODUCTS.
  17:../../source/src/FWlib/src/stm32f10x_fsmc.c ****   *
  18:../../source/src/FWlib/src/stm32f10x_fsmc.c ****   * <h2><center>&copy; COPYRIGHT 2011 STMicroelectronics</center></h2>
  19:../../source/src/FWlib/src/stm32f10x_fsmc.c ****   ******************************************************************************
  20:../../source/src/FWlib/src/stm32f10x_fsmc.c ****   */
  21:../../source/src/FWlib/src/stm32f10x_fsmc.c **** 
  22:../../source/src/FWlib/src/stm32f10x_fsmc.c **** /* Includes ------------------------------------------------------------------*/
  23:../../source/src/FWlib/src/stm32f10x_fsmc.c **** #include "stm32f10x_fsmc.h"
  24:../../source/src/FWlib/src/stm32f10x_fsmc.c **** #include "stm32f10x_rcc.h"
  25:../../source/src/FWlib/src/stm32f10x_fsmc.c **** 
  26:../../source/src/FWlib/src/stm32f10x_fsmc.c **** /** @addtogroup STM32F10x_StdPeriph_Driver
  27:../../source/src/FWlib/src/stm32f10x_fsmc.c ****   * @{
  28:../../source/src/FWlib/src/stm32f10x_fsmc.c ****   */
  29:../../source/src/FWlib/src/stm32f10x_fsmc.c **** 
  30:../../source/src/FWlib/src/stm32f10x_fsmc.c **** /** @defgroup FSMC 
  31:../../source/src/FWlib/src/stm32f10x_fsmc.c ****   * @brief FSMC driver modules
  32:../../source/src/FWlib/src/stm32f10x_fsmc.c ****   * @{
  33:../../source/src/FWlib/src/stm32f10x_fsmc.c ****   */ 
ARM GAS  G:\Users\Jaxb\AppData\Local\Temp\ccbq8auC.s 			page 2


  34:../../source/src/FWlib/src/stm32f10x_fsmc.c **** 
  35:../../source/src/FWlib/src/stm32f10x_fsmc.c **** /** @defgroup FSMC_Private_TypesDefinitions
  36:../../source/src/FWlib/src/stm32f10x_fsmc.c ****   * @{
  37:../../source/src/FWlib/src/stm32f10x_fsmc.c ****   */ 
  38:../../source/src/FWlib/src/stm32f10x_fsmc.c **** /**
  39:../../source/src/FWlib/src/stm32f10x_fsmc.c ****   * @}
  40:../../source/src/FWlib/src/stm32f10x_fsmc.c ****   */
  41:../../source/src/FWlib/src/stm32f10x_fsmc.c **** 
  42:../../source/src/FWlib/src/stm32f10x_fsmc.c **** /** @defgroup FSMC_Private_Defines
  43:../../source/src/FWlib/src/stm32f10x_fsmc.c ****   * @{
  44:../../source/src/FWlib/src/stm32f10x_fsmc.c ****   */
  45:../../source/src/FWlib/src/stm32f10x_fsmc.c **** 
  46:../../source/src/FWlib/src/stm32f10x_fsmc.c **** /* --------------------- FSMC registers bit mask ---------------------------- */
  47:../../source/src/FWlib/src/stm32f10x_fsmc.c **** 
  48:../../source/src/FWlib/src/stm32f10x_fsmc.c **** /* FSMC BCRx Mask */
  49:../../source/src/FWlib/src/stm32f10x_fsmc.c **** #define BCR_MBKEN_Set                       ((uint32_t)0x00000001)
  50:../../source/src/FWlib/src/stm32f10x_fsmc.c **** #define BCR_MBKEN_Reset                     ((uint32_t)0x000FFFFE)
  51:../../source/src/FWlib/src/stm32f10x_fsmc.c **** #define BCR_FACCEN_Set                      ((uint32_t)0x00000040)
  52:../../source/src/FWlib/src/stm32f10x_fsmc.c **** 
  53:../../source/src/FWlib/src/stm32f10x_fsmc.c **** /* FSMC PCRx Mask */
  54:../../source/src/FWlib/src/stm32f10x_fsmc.c **** #define PCR_PBKEN_Set                       ((uint32_t)0x00000004)
  55:../../source/src/FWlib/src/stm32f10x_fsmc.c **** #define PCR_PBKEN_Reset                     ((uint32_t)0x000FFFFB)
  56:../../source/src/FWlib/src/stm32f10x_fsmc.c **** #define PCR_ECCEN_Set                       ((uint32_t)0x00000040)
  57:../../source/src/FWlib/src/stm32f10x_fsmc.c **** #define PCR_ECCEN_Reset                     ((uint32_t)0x000FFFBF)
  58:../../source/src/FWlib/src/stm32f10x_fsmc.c **** #define PCR_MemoryType_NAND                 ((uint32_t)0x00000008)
  59:../../source/src/FWlib/src/stm32f10x_fsmc.c **** /**
  60:../../source/src/FWlib/src/stm32f10x_fsmc.c ****   * @}
  61:../../source/src/FWlib/src/stm32f10x_fsmc.c ****   */
  62:../../source/src/FWlib/src/stm32f10x_fsmc.c **** 
  63:../../source/src/FWlib/src/stm32f10x_fsmc.c **** /** @defgroup FSMC_Private_Macros
  64:../../source/src/FWlib/src/stm32f10x_fsmc.c ****   * @{
  65:../../source/src/FWlib/src/stm32f10x_fsmc.c ****   */
  66:../../source/src/FWlib/src/stm32f10x_fsmc.c **** 
  67:../../source/src/FWlib/src/stm32f10x_fsmc.c **** /**
  68:../../source/src/FWlib/src/stm32f10x_fsmc.c ****   * @}
  69:../../source/src/FWlib/src/stm32f10x_fsmc.c ****   */
  70:../../source/src/FWlib/src/stm32f10x_fsmc.c **** 
  71:../../source/src/FWlib/src/stm32f10x_fsmc.c **** /** @defgroup FSMC_Private_Variables
  72:../../source/src/FWlib/src/stm32f10x_fsmc.c ****   * @{
  73:../../source/src/FWlib/src/stm32f10x_fsmc.c ****   */
  74:../../source/src/FWlib/src/stm32f10x_fsmc.c **** 
  75:../../source/src/FWlib/src/stm32f10x_fsmc.c **** /**
  76:../../source/src/FWlib/src/stm32f10x_fsmc.c ****   * @}
  77:../../source/src/FWlib/src/stm32f10x_fsmc.c ****   */
  78:../../source/src/FWlib/src/stm32f10x_fsmc.c **** 
  79:../../source/src/FWlib/src/stm32f10x_fsmc.c **** /** @defgroup FSMC_Private_FunctionPrototypes
  80:../../source/src/FWlib/src/stm32f10x_fsmc.c ****   * @{
  81:../../source/src/FWlib/src/stm32f10x_fsmc.c ****   */
  82:../../source/src/FWlib/src/stm32f10x_fsmc.c **** 
  83:../../source/src/FWlib/src/stm32f10x_fsmc.c **** /**
  84:../../source/src/FWlib/src/stm32f10x_fsmc.c ****   * @}
  85:../../source/src/FWlib/src/stm32f10x_fsmc.c ****   */
  86:../../source/src/FWlib/src/stm32f10x_fsmc.c **** 
  87:../../source/src/FWlib/src/stm32f10x_fsmc.c **** /** @defgroup FSMC_Private_Functions
  88:../../source/src/FWlib/src/stm32f10x_fsmc.c ****   * @{
  89:../../source/src/FWlib/src/stm32f10x_fsmc.c ****   */
  90:../../source/src/FWlib/src/stm32f10x_fsmc.c **** 
ARM GAS  G:\Users\Jaxb\AppData\Local\Temp\ccbq8auC.s 			page 3


  91:../../source/src/FWlib/src/stm32f10x_fsmc.c **** /**
  92:../../source/src/FWlib/src/stm32f10x_fsmc.c ****   * @brief  Deinitializes the FSMC NOR/SRAM Banks registers to their default 
  93:../../source/src/FWlib/src/stm32f10x_fsmc.c ****   *         reset values.
  94:../../source/src/FWlib/src/stm32f10x_fsmc.c ****   * @param  FSMC_Bank: specifies the FSMC Bank to be used
  95:../../source/src/FWlib/src/stm32f10x_fsmc.c ****   *   This parameter can be one of the following values:
  96:../../source/src/FWlib/src/stm32f10x_fsmc.c ****   *     @arg FSMC_Bank1_NORSRAM1: FSMC Bank1 NOR/SRAM1  
  97:../../source/src/FWlib/src/stm32f10x_fsmc.c ****   *     @arg FSMC_Bank1_NORSRAM2: FSMC Bank1 NOR/SRAM2 
  98:../../source/src/FWlib/src/stm32f10x_fsmc.c ****   *     @arg FSMC_Bank1_NORSRAM3: FSMC Bank1 NOR/SRAM3 
  99:../../source/src/FWlib/src/stm32f10x_fsmc.c ****   *     @arg FSMC_Bank1_NORSRAM4: FSMC Bank1 NOR/SRAM4 
 100:../../source/src/FWlib/src/stm32f10x_fsmc.c ****   * @retval None
 101:../../source/src/FWlib/src/stm32f10x_fsmc.c ****   */
 102:../../source/src/FWlib/src/stm32f10x_fsmc.c **** void FSMC_NORSRAMDeInit(uint32_t FSMC_Bank)
 103:../../source/src/FWlib/src/stm32f10x_fsmc.c **** {
  25              		.loc 1 103 0
  26              		.cfi_startproc
  27              		@ args = 0, pretend = 0, frame = 8
  28              		@ frame_needed = 1, uses_anonymous_args = 0
  29              		@ link register save eliminated.
  30 0000 80B4     		push	{r7}
  31              	.LCFI0:
  32              		.cfi_def_cfa_offset 4
  33              		.cfi_offset 7, -4
  34 0002 83B0     		sub	sp, sp, #12
  35              	.LCFI1:
  36              		.cfi_def_cfa_offset 16
  37 0004 00AF     		add	r7, sp, #0
  38              	.LCFI2:
  39              		.cfi_def_cfa_register 7
  40 0006 7860     		str	r0, [r7, #4]
 104:../../source/src/FWlib/src/stm32f10x_fsmc.c ****   /* Check the parameter */
 105:../../source/src/FWlib/src/stm32f10x_fsmc.c ****   assert_param(IS_FSMC_NORSRAM_BANK(FSMC_Bank));
 106:../../source/src/FWlib/src/stm32f10x_fsmc.c ****   
 107:../../source/src/FWlib/src/stm32f10x_fsmc.c ****   /* FSMC_Bank1_NORSRAM1 */
 108:../../source/src/FWlib/src/stm32f10x_fsmc.c ****   if(FSMC_Bank == FSMC_Bank1_NORSRAM1)
  41              		.loc 1 108 0
  42 0008 7B68     		ldr	r3, [r7, #4]
  43 000a 002B     		cmp	r3, #0
  44 000c 07D1     		bne	.L2
 109:../../source/src/FWlib/src/stm32f10x_fsmc.c ****   {
 110:../../source/src/FWlib/src/stm32f10x_fsmc.c ****     FSMC_Bank1->BTCR[FSMC_Bank] = 0x000030DB;    
  45              		.loc 1 110 0
  46 000e 4FF02042 		mov	r2, #-1610612736
  47 0012 7B68     		ldr	r3, [r7, #4]
  48 0014 43F2DB01 		movw	r1, #12507
  49 0018 42F82310 		str	r1, [r2, r3, lsl #2]
  50 001c 06E0     		b	.L3
  51              	.L2:
 111:../../source/src/FWlib/src/stm32f10x_fsmc.c ****   }
 112:../../source/src/FWlib/src/stm32f10x_fsmc.c ****   /* FSMC_Bank1_NORSRAM2,  FSMC_Bank1_NORSRAM3 or FSMC_Bank1_NORSRAM4 */
 113:../../source/src/FWlib/src/stm32f10x_fsmc.c ****   else
 114:../../source/src/FWlib/src/stm32f10x_fsmc.c ****   {   
 115:../../source/src/FWlib/src/stm32f10x_fsmc.c ****     FSMC_Bank1->BTCR[FSMC_Bank] = 0x000030D2; 
  52              		.loc 1 115 0
  53 001e 4FF02042 		mov	r2, #-1610612736
  54 0022 7B68     		ldr	r3, [r7, #4]
  55 0024 43F2D201 		movw	r1, #12498
  56 0028 42F82310 		str	r1, [r2, r3, lsl #2]
ARM GAS  G:\Users\Jaxb\AppData\Local\Temp\ccbq8auC.s 			page 4


  57              	.L3:
 116:../../source/src/FWlib/src/stm32f10x_fsmc.c ****   }
 117:../../source/src/FWlib/src/stm32f10x_fsmc.c ****   FSMC_Bank1->BTCR[FSMC_Bank + 1] = 0x0FFFFFFF;
  58              		.loc 1 117 0
  59 002c 4FF02042 		mov	r2, #-1610612736
  60 0030 7B68     		ldr	r3, [r7, #4]
  61 0032 0133     		adds	r3, r3, #1
  62 0034 6FF07041 		mvn	r1, #-268435456
  63 0038 42F82310 		str	r1, [r2, r3, lsl #2]
 118:../../source/src/FWlib/src/stm32f10x_fsmc.c ****   FSMC_Bank1E->BWTR[FSMC_Bank] = 0x0FFFFFFF;  
  64              		.loc 1 118 0
  65 003c 054A     		ldr	r2, .L4
  66 003e 7B68     		ldr	r3, [r7, #4]
  67 0040 6FF07041 		mvn	r1, #-268435456
  68 0044 42F82310 		str	r1, [r2, r3, lsl #2]
 119:../../source/src/FWlib/src/stm32f10x_fsmc.c **** }
  69              		.loc 1 119 0
  70 0048 00BF     		nop
  71 004a 0C37     		adds	r7, r7, #12
  72              	.LCFI3:
  73              		.cfi_def_cfa_offset 4
  74 004c BD46     		mov	sp, r7
  75              	.LCFI4:
  76              		.cfi_def_cfa_register 13
  77              		@ sp needed
  78 004e 80BC     		pop	{r7}
  79              	.LCFI5:
  80              		.cfi_restore 7
  81              		.cfi_def_cfa_offset 0
  82 0050 7047     		bx	lr
  83              	.L5:
  84 0052 00BF     		.align	2
  85              	.L4:
  86 0054 040100A0 		.word	-1610612476
  87              		.cfi_endproc
  88              	.LFE29:
  89              		.size	FSMC_NORSRAMDeInit, .-FSMC_NORSRAMDeInit
  90              		.align	1
  91              		.global	FSMC_NANDDeInit
  92              		.syntax unified
  93              		.thumb
  94              		.thumb_func
  95              		.fpu softvfp
  96              		.type	FSMC_NANDDeInit, %function
  97              	FSMC_NANDDeInit:
  98              	.LFB30:
 120:../../source/src/FWlib/src/stm32f10x_fsmc.c **** 
 121:../../source/src/FWlib/src/stm32f10x_fsmc.c **** /**
 122:../../source/src/FWlib/src/stm32f10x_fsmc.c ****   * @brief  Deinitializes the FSMC NAND Banks registers to their default reset values.
 123:../../source/src/FWlib/src/stm32f10x_fsmc.c ****   * @param  FSMC_Bank: specifies the FSMC Bank to be used
 124:../../source/src/FWlib/src/stm32f10x_fsmc.c ****   *   This parameter can be one of the following values:
 125:../../source/src/FWlib/src/stm32f10x_fsmc.c ****   *     @arg FSMC_Bank2_NAND: FSMC Bank2 NAND 
 126:../../source/src/FWlib/src/stm32f10x_fsmc.c ****   *     @arg FSMC_Bank3_NAND: FSMC Bank3 NAND 
 127:../../source/src/FWlib/src/stm32f10x_fsmc.c ****   * @retval None
 128:../../source/src/FWlib/src/stm32f10x_fsmc.c ****   */
 129:../../source/src/FWlib/src/stm32f10x_fsmc.c **** void FSMC_NANDDeInit(uint32_t FSMC_Bank)
 130:../../source/src/FWlib/src/stm32f10x_fsmc.c **** {
ARM GAS  G:\Users\Jaxb\AppData\Local\Temp\ccbq8auC.s 			page 5


  99              		.loc 1 130 0
 100              		.cfi_startproc
 101              		@ args = 0, pretend = 0, frame = 8
 102              		@ frame_needed = 1, uses_anonymous_args = 0
 103              		@ link register save eliminated.
 104 0058 80B4     		push	{r7}
 105              	.LCFI6:
 106              		.cfi_def_cfa_offset 4
 107              		.cfi_offset 7, -4
 108 005a 83B0     		sub	sp, sp, #12
 109              	.LCFI7:
 110              		.cfi_def_cfa_offset 16
 111 005c 00AF     		add	r7, sp, #0
 112              	.LCFI8:
 113              		.cfi_def_cfa_register 7
 114 005e 7860     		str	r0, [r7, #4]
 131:../../source/src/FWlib/src/stm32f10x_fsmc.c ****   /* Check the parameter */
 132:../../source/src/FWlib/src/stm32f10x_fsmc.c ****   assert_param(IS_FSMC_NAND_BANK(FSMC_Bank));
 133:../../source/src/FWlib/src/stm32f10x_fsmc.c ****   
 134:../../source/src/FWlib/src/stm32f10x_fsmc.c ****   if(FSMC_Bank == FSMC_Bank2_NAND)
 115              		.loc 1 134 0
 116 0060 7B68     		ldr	r3, [r7, #4]
 117 0062 102B     		cmp	r3, #16
 118 0064 0ED1     		bne	.L7
 135:../../source/src/FWlib/src/stm32f10x_fsmc.c ****   {
 136:../../source/src/FWlib/src/stm32f10x_fsmc.c ****     /* Set the FSMC_Bank2 registers to their reset values */
 137:../../source/src/FWlib/src/stm32f10x_fsmc.c ****     FSMC_Bank2->PCR2 = 0x00000018;
 119              		.loc 1 137 0
 120 0066 114B     		ldr	r3, .L10
 121 0068 1822     		movs	r2, #24
 122 006a 1A60     		str	r2, [r3]
 138:../../source/src/FWlib/src/stm32f10x_fsmc.c ****     FSMC_Bank2->SR2 = 0x00000040;
 123              		.loc 1 138 0
 124 006c 0F4B     		ldr	r3, .L10
 125 006e 4022     		movs	r2, #64
 126 0070 5A60     		str	r2, [r3, #4]
 139:../../source/src/FWlib/src/stm32f10x_fsmc.c ****     FSMC_Bank2->PMEM2 = 0xFCFCFCFC;
 127              		.loc 1 139 0
 128 0072 0E4B     		ldr	r3, .L10
 129 0074 4FF0FC32 		mov	r2, #-50529028
 130 0078 9A60     		str	r2, [r3, #8]
 140:../../source/src/FWlib/src/stm32f10x_fsmc.c ****     FSMC_Bank2->PATT2 = 0xFCFCFCFC;  
 131              		.loc 1 140 0
 132 007a 0C4B     		ldr	r3, .L10
 133 007c 4FF0FC32 		mov	r2, #-50529028
 134 0080 DA60     		str	r2, [r3, #12]
 141:../../source/src/FWlib/src/stm32f10x_fsmc.c ****   }
 142:../../source/src/FWlib/src/stm32f10x_fsmc.c ****   /* FSMC_Bank3_NAND */  
 143:../../source/src/FWlib/src/stm32f10x_fsmc.c ****   else
 144:../../source/src/FWlib/src/stm32f10x_fsmc.c ****   {
 145:../../source/src/FWlib/src/stm32f10x_fsmc.c ****     /* Set the FSMC_Bank3 registers to their reset values */
 146:../../source/src/FWlib/src/stm32f10x_fsmc.c ****     FSMC_Bank3->PCR3 = 0x00000018;
 147:../../source/src/FWlib/src/stm32f10x_fsmc.c ****     FSMC_Bank3->SR3 = 0x00000040;
 148:../../source/src/FWlib/src/stm32f10x_fsmc.c ****     FSMC_Bank3->PMEM3 = 0xFCFCFCFC;
 149:../../source/src/FWlib/src/stm32f10x_fsmc.c ****     FSMC_Bank3->PATT3 = 0xFCFCFCFC; 
 150:../../source/src/FWlib/src/stm32f10x_fsmc.c ****   }  
 151:../../source/src/FWlib/src/stm32f10x_fsmc.c **** }
ARM GAS  G:\Users\Jaxb\AppData\Local\Temp\ccbq8auC.s 			page 6


 135              		.loc 1 151 0
 136 0082 0DE0     		b	.L9
 137              	.L7:
 146:../../source/src/FWlib/src/stm32f10x_fsmc.c ****     FSMC_Bank3->SR3 = 0x00000040;
 138              		.loc 1 146 0
 139 0084 0A4B     		ldr	r3, .L10+4
 140 0086 1822     		movs	r2, #24
 141 0088 1A60     		str	r2, [r3]
 147:../../source/src/FWlib/src/stm32f10x_fsmc.c ****     FSMC_Bank3->PMEM3 = 0xFCFCFCFC;
 142              		.loc 1 147 0
 143 008a 094B     		ldr	r3, .L10+4
 144 008c 4022     		movs	r2, #64
 145 008e 5A60     		str	r2, [r3, #4]
 148:../../source/src/FWlib/src/stm32f10x_fsmc.c ****     FSMC_Bank3->PATT3 = 0xFCFCFCFC; 
 146              		.loc 1 148 0
 147 0090 074B     		ldr	r3, .L10+4
 148 0092 4FF0FC32 		mov	r2, #-50529028
 149 0096 9A60     		str	r2, [r3, #8]
 149:../../source/src/FWlib/src/stm32f10x_fsmc.c ****   }  
 150              		.loc 1 149 0
 151 0098 054B     		ldr	r3, .L10+4
 152 009a 4FF0FC32 		mov	r2, #-50529028
 153 009e DA60     		str	r2, [r3, #12]
 154              	.L9:
 155              		.loc 1 151 0
 156 00a0 00BF     		nop
 157 00a2 0C37     		adds	r7, r7, #12
 158              	.LCFI9:
 159              		.cfi_def_cfa_offset 4
 160 00a4 BD46     		mov	sp, r7
 161              	.LCFI10:
 162              		.cfi_def_cfa_register 13
 163              		@ sp needed
 164 00a6 80BC     		pop	{r7}
 165              	.LCFI11:
 166              		.cfi_restore 7
 167              		.cfi_def_cfa_offset 0
 168 00a8 7047     		bx	lr
 169              	.L11:
 170 00aa 00BF     		.align	2
 171              	.L10:
 172 00ac 600000A0 		.word	-1610612640
 173 00b0 800000A0 		.word	-1610612608
 174              		.cfi_endproc
 175              	.LFE30:
 176              		.size	FSMC_NANDDeInit, .-FSMC_NANDDeInit
 177              		.align	1
 178              		.global	FSMC_PCCARDDeInit
 179              		.syntax unified
 180              		.thumb
 181              		.thumb_func
 182              		.fpu softvfp
 183              		.type	FSMC_PCCARDDeInit, %function
 184              	FSMC_PCCARDDeInit:
 185              	.LFB31:
 152:../../source/src/FWlib/src/stm32f10x_fsmc.c **** 
 153:../../source/src/FWlib/src/stm32f10x_fsmc.c **** /**
ARM GAS  G:\Users\Jaxb\AppData\Local\Temp\ccbq8auC.s 			page 7


 154:../../source/src/FWlib/src/stm32f10x_fsmc.c ****   * @brief  Deinitializes the FSMC PCCARD Bank registers to their default reset values.
 155:../../source/src/FWlib/src/stm32f10x_fsmc.c ****   * @param  None                       
 156:../../source/src/FWlib/src/stm32f10x_fsmc.c ****   * @retval None
 157:../../source/src/FWlib/src/stm32f10x_fsmc.c ****   */
 158:../../source/src/FWlib/src/stm32f10x_fsmc.c **** void FSMC_PCCARDDeInit(void)
 159:../../source/src/FWlib/src/stm32f10x_fsmc.c **** {
 186              		.loc 1 159 0
 187              		.cfi_startproc
 188              		@ args = 0, pretend = 0, frame = 0
 189              		@ frame_needed = 1, uses_anonymous_args = 0
 190              		@ link register save eliminated.
 191 00b4 80B4     		push	{r7}
 192              	.LCFI12:
 193              		.cfi_def_cfa_offset 4
 194              		.cfi_offset 7, -4
 195 00b6 00AF     		add	r7, sp, #0
 196              	.LCFI13:
 197              		.cfi_def_cfa_register 7
 160:../../source/src/FWlib/src/stm32f10x_fsmc.c ****   /* Set the FSMC_Bank4 registers to their reset values */
 161:../../source/src/FWlib/src/stm32f10x_fsmc.c ****   FSMC_Bank4->PCR4 = 0x00000018; 
 198              		.loc 1 161 0
 199 00b8 0A4B     		ldr	r3, .L13
 200 00ba 1822     		movs	r2, #24
 201 00bc 1A60     		str	r2, [r3]
 162:../../source/src/FWlib/src/stm32f10x_fsmc.c ****   FSMC_Bank4->SR4 = 0x00000000;	
 202              		.loc 1 162 0
 203 00be 094B     		ldr	r3, .L13
 204 00c0 0022     		movs	r2, #0
 205 00c2 5A60     		str	r2, [r3, #4]
 163:../../source/src/FWlib/src/stm32f10x_fsmc.c ****   FSMC_Bank4->PMEM4 = 0xFCFCFCFC;
 206              		.loc 1 163 0
 207 00c4 074B     		ldr	r3, .L13
 208 00c6 4FF0FC32 		mov	r2, #-50529028
 209 00ca 9A60     		str	r2, [r3, #8]
 164:../../source/src/FWlib/src/stm32f10x_fsmc.c ****   FSMC_Bank4->PATT4 = 0xFCFCFCFC;
 210              		.loc 1 164 0
 211 00cc 054B     		ldr	r3, .L13
 212 00ce 4FF0FC32 		mov	r2, #-50529028
 213 00d2 DA60     		str	r2, [r3, #12]
 165:../../source/src/FWlib/src/stm32f10x_fsmc.c ****   FSMC_Bank4->PIO4 = 0xFCFCFCFC;
 214              		.loc 1 165 0
 215 00d4 034B     		ldr	r3, .L13
 216 00d6 4FF0FC32 		mov	r2, #-50529028
 217 00da 1A61     		str	r2, [r3, #16]
 166:../../source/src/FWlib/src/stm32f10x_fsmc.c **** }
 218              		.loc 1 166 0
 219 00dc 00BF     		nop
 220 00de BD46     		mov	sp, r7
 221              	.LCFI14:
 222              		.cfi_def_cfa_register 13
 223              		@ sp needed
 224 00e0 80BC     		pop	{r7}
 225              	.LCFI15:
 226              		.cfi_restore 7
 227              		.cfi_def_cfa_offset 0
 228 00e2 7047     		bx	lr
 229              	.L14:
ARM GAS  G:\Users\Jaxb\AppData\Local\Temp\ccbq8auC.s 			page 8


 230              		.align	2
 231              	.L13:
 232 00e4 A00000A0 		.word	-1610612576
 233              		.cfi_endproc
 234              	.LFE31:
 235              		.size	FSMC_PCCARDDeInit, .-FSMC_PCCARDDeInit
 236              		.align	1
 237              		.global	FSMC_NORSRAMInit
 238              		.syntax unified
 239              		.thumb
 240              		.thumb_func
 241              		.fpu softvfp
 242              		.type	FSMC_NORSRAMInit, %function
 243              	FSMC_NORSRAMInit:
 244              	.LFB32:
 167:../../source/src/FWlib/src/stm32f10x_fsmc.c **** 
 168:../../source/src/FWlib/src/stm32f10x_fsmc.c **** /**
 169:../../source/src/FWlib/src/stm32f10x_fsmc.c ****   * @brief  Initializes the FSMC NOR/SRAM Banks according to the specified
 170:../../source/src/FWlib/src/stm32f10x_fsmc.c ****   *         parameters in the FSMC_NORSRAMInitStruct.
 171:../../source/src/FWlib/src/stm32f10x_fsmc.c ****   * @param  FSMC_NORSRAMInitStruct : pointer to a FSMC_NORSRAMInitTypeDef
 172:../../source/src/FWlib/src/stm32f10x_fsmc.c ****   *         structure that contains the configuration information for 
 173:../../source/src/FWlib/src/stm32f10x_fsmc.c ****   *        the FSMC NOR/SRAM specified Banks.                       
 174:../../source/src/FWlib/src/stm32f10x_fsmc.c ****   * @retval None
 175:../../source/src/FWlib/src/stm32f10x_fsmc.c ****   */
 176:../../source/src/FWlib/src/stm32f10x_fsmc.c **** void FSMC_NORSRAMInit(FSMC_NORSRAMInitTypeDef* FSMC_NORSRAMInitStruct)
 177:../../source/src/FWlib/src/stm32f10x_fsmc.c **** { 
 245              		.loc 1 177 0
 246              		.cfi_startproc
 247              		@ args = 0, pretend = 0, frame = 8
 248              		@ frame_needed = 1, uses_anonymous_args = 0
 249              		@ link register save eliminated.
 250 00e8 80B4     		push	{r7}
 251              	.LCFI16:
 252              		.cfi_def_cfa_offset 4
 253              		.cfi_offset 7, -4
 254 00ea 83B0     		sub	sp, sp, #12
 255              	.LCFI17:
 256              		.cfi_def_cfa_offset 16
 257 00ec 00AF     		add	r7, sp, #0
 258              	.LCFI18:
 259              		.cfi_def_cfa_register 7
 260 00ee 7860     		str	r0, [r7, #4]
 178:../../source/src/FWlib/src/stm32f10x_fsmc.c ****   /* Check the parameters */
 179:../../source/src/FWlib/src/stm32f10x_fsmc.c ****   assert_param(IS_FSMC_NORSRAM_BANK(FSMC_NORSRAMInitStruct->FSMC_Bank));
 180:../../source/src/FWlib/src/stm32f10x_fsmc.c ****   assert_param(IS_FSMC_MUX(FSMC_NORSRAMInitStruct->FSMC_DataAddressMux));
 181:../../source/src/FWlib/src/stm32f10x_fsmc.c ****   assert_param(IS_FSMC_MEMORY(FSMC_NORSRAMInitStruct->FSMC_MemoryType));
 182:../../source/src/FWlib/src/stm32f10x_fsmc.c ****   assert_param(IS_FSMC_MEMORY_WIDTH(FSMC_NORSRAMInitStruct->FSMC_MemoryDataWidth));
 183:../../source/src/FWlib/src/stm32f10x_fsmc.c ****   assert_param(IS_FSMC_BURSTMODE(FSMC_NORSRAMInitStruct->FSMC_BurstAccessMode));
 184:../../source/src/FWlib/src/stm32f10x_fsmc.c ****   assert_param(IS_FSMC_ASYNWAIT(FSMC_NORSRAMInitStruct->FSMC_AsynchronousWait));
 185:../../source/src/FWlib/src/stm32f10x_fsmc.c ****   assert_param(IS_FSMC_WAIT_POLARITY(FSMC_NORSRAMInitStruct->FSMC_WaitSignalPolarity));
 186:../../source/src/FWlib/src/stm32f10x_fsmc.c ****   assert_param(IS_FSMC_WRAP_MODE(FSMC_NORSRAMInitStruct->FSMC_WrapMode));
 187:../../source/src/FWlib/src/stm32f10x_fsmc.c ****   assert_param(IS_FSMC_WAIT_SIGNAL_ACTIVE(FSMC_NORSRAMInitStruct->FSMC_WaitSignalActive));
 188:../../source/src/FWlib/src/stm32f10x_fsmc.c ****   assert_param(IS_FSMC_WRITE_OPERATION(FSMC_NORSRAMInitStruct->FSMC_WriteOperation));
 189:../../source/src/FWlib/src/stm32f10x_fsmc.c ****   assert_param(IS_FSMC_WAITE_SIGNAL(FSMC_NORSRAMInitStruct->FSMC_WaitSignal));
 190:../../source/src/FWlib/src/stm32f10x_fsmc.c ****   assert_param(IS_FSMC_EXTENDED_MODE(FSMC_NORSRAMInitStruct->FSMC_ExtendedMode));
 191:../../source/src/FWlib/src/stm32f10x_fsmc.c ****   assert_param(IS_FSMC_WRITE_BURST(FSMC_NORSRAMInitStruct->FSMC_WriteBurst));  
 192:../../source/src/FWlib/src/stm32f10x_fsmc.c ****   assert_param(IS_FSMC_ADDRESS_SETUP_TIME(FSMC_NORSRAMInitStruct->FSMC_ReadWriteTimingStruct->FSMC_
ARM GAS  G:\Users\Jaxb\AppData\Local\Temp\ccbq8auC.s 			page 9


 193:../../source/src/FWlib/src/stm32f10x_fsmc.c ****   assert_param(IS_FSMC_ADDRESS_HOLD_TIME(FSMC_NORSRAMInitStruct->FSMC_ReadWriteTimingStruct->FSMC_A
 194:../../source/src/FWlib/src/stm32f10x_fsmc.c ****   assert_param(IS_FSMC_DATASETUP_TIME(FSMC_NORSRAMInitStruct->FSMC_ReadWriteTimingStruct->FSMC_Data
 195:../../source/src/FWlib/src/stm32f10x_fsmc.c ****   assert_param(IS_FSMC_TURNAROUND_TIME(FSMC_NORSRAMInitStruct->FSMC_ReadWriteTimingStruct->FSMC_Bus
 196:../../source/src/FWlib/src/stm32f10x_fsmc.c ****   assert_param(IS_FSMC_CLK_DIV(FSMC_NORSRAMInitStruct->FSMC_ReadWriteTimingStruct->FSMC_CLKDivision
 197:../../source/src/FWlib/src/stm32f10x_fsmc.c ****   assert_param(IS_FSMC_DATA_LATENCY(FSMC_NORSRAMInitStruct->FSMC_ReadWriteTimingStruct->FSMC_DataLa
 198:../../source/src/FWlib/src/stm32f10x_fsmc.c ****   assert_param(IS_FSMC_ACCESS_MODE(FSMC_NORSRAMInitStruct->FSMC_ReadWriteTimingStruct->FSMC_AccessM
 199:../../source/src/FWlib/src/stm32f10x_fsmc.c ****   
 200:../../source/src/FWlib/src/stm32f10x_fsmc.c ****   /* Bank1 NOR/SRAM control register configuration */ 
 201:../../source/src/FWlib/src/stm32f10x_fsmc.c ****   FSMC_Bank1->BTCR[FSMC_NORSRAMInitStruct->FSMC_Bank] = 
 202:../../source/src/FWlib/src/stm32f10x_fsmc.c ****             (uint32_t)FSMC_NORSRAMInitStruct->FSMC_DataAddressMux |
 261              		.loc 1 202 0
 262 00f0 7B68     		ldr	r3, [r7, #4]
 263 00f2 5A68     		ldr	r2, [r3, #4]
 203:../../source/src/FWlib/src/stm32f10x_fsmc.c ****             FSMC_NORSRAMInitStruct->FSMC_MemoryType |
 264              		.loc 1 203 0
 265 00f4 7B68     		ldr	r3, [r7, #4]
 266 00f6 9B68     		ldr	r3, [r3, #8]
 202:../../source/src/FWlib/src/stm32f10x_fsmc.c ****             FSMC_NORSRAMInitStruct->FSMC_MemoryType |
 267              		.loc 1 202 0
 268 00f8 1A43     		orrs	r2, r2, r3
 204:../../source/src/FWlib/src/stm32f10x_fsmc.c ****             FSMC_NORSRAMInitStruct->FSMC_MemoryDataWidth |
 269              		.loc 1 204 0
 270 00fa 7B68     		ldr	r3, [r7, #4]
 271 00fc DB68     		ldr	r3, [r3, #12]
 203:../../source/src/FWlib/src/stm32f10x_fsmc.c ****             FSMC_NORSRAMInitStruct->FSMC_MemoryType |
 272              		.loc 1 203 0
 273 00fe 1A43     		orrs	r2, r2, r3
 205:../../source/src/FWlib/src/stm32f10x_fsmc.c ****             FSMC_NORSRAMInitStruct->FSMC_BurstAccessMode |
 274              		.loc 1 205 0
 275 0100 7B68     		ldr	r3, [r7, #4]
 276 0102 1B69     		ldr	r3, [r3, #16]
 204:../../source/src/FWlib/src/stm32f10x_fsmc.c ****             FSMC_NORSRAMInitStruct->FSMC_MemoryDataWidth |
 277              		.loc 1 204 0
 278 0104 1A43     		orrs	r2, r2, r3
 206:../../source/src/FWlib/src/stm32f10x_fsmc.c ****             FSMC_NORSRAMInitStruct->FSMC_AsynchronousWait |
 279              		.loc 1 206 0
 280 0106 7B68     		ldr	r3, [r7, #4]
 281 0108 5B69     		ldr	r3, [r3, #20]
 205:../../source/src/FWlib/src/stm32f10x_fsmc.c ****             FSMC_NORSRAMInitStruct->FSMC_BurstAccessMode |
 282              		.loc 1 205 0
 283 010a 1A43     		orrs	r2, r2, r3
 207:../../source/src/FWlib/src/stm32f10x_fsmc.c ****             FSMC_NORSRAMInitStruct->FSMC_WaitSignalPolarity |
 284              		.loc 1 207 0
 285 010c 7B68     		ldr	r3, [r7, #4]
 286 010e 9B69     		ldr	r3, [r3, #24]
 206:../../source/src/FWlib/src/stm32f10x_fsmc.c ****             FSMC_NORSRAMInitStruct->FSMC_AsynchronousWait |
 287              		.loc 1 206 0
 288 0110 1A43     		orrs	r2, r2, r3
 208:../../source/src/FWlib/src/stm32f10x_fsmc.c ****             FSMC_NORSRAMInitStruct->FSMC_WrapMode |
 289              		.loc 1 208 0
 290 0112 7B68     		ldr	r3, [r7, #4]
 291 0114 DB69     		ldr	r3, [r3, #28]
 207:../../source/src/FWlib/src/stm32f10x_fsmc.c ****             FSMC_NORSRAMInitStruct->FSMC_WaitSignalPolarity |
 292              		.loc 1 207 0
 293 0116 1A43     		orrs	r2, r2, r3
 209:../../source/src/FWlib/src/stm32f10x_fsmc.c ****             FSMC_NORSRAMInitStruct->FSMC_WaitSignalActive |
 294              		.loc 1 209 0
ARM GAS  G:\Users\Jaxb\AppData\Local\Temp\ccbq8auC.s 			page 10


 295 0118 7B68     		ldr	r3, [r7, #4]
 296 011a 1B6A     		ldr	r3, [r3, #32]
 208:../../source/src/FWlib/src/stm32f10x_fsmc.c ****             FSMC_NORSRAMInitStruct->FSMC_WrapMode |
 297              		.loc 1 208 0
 298 011c 1A43     		orrs	r2, r2, r3
 210:../../source/src/FWlib/src/stm32f10x_fsmc.c ****             FSMC_NORSRAMInitStruct->FSMC_WriteOperation |
 299              		.loc 1 210 0
 300 011e 7B68     		ldr	r3, [r7, #4]
 301 0120 5B6A     		ldr	r3, [r3, #36]
 209:../../source/src/FWlib/src/stm32f10x_fsmc.c ****             FSMC_NORSRAMInitStruct->FSMC_WaitSignalActive |
 302              		.loc 1 209 0
 303 0122 1A43     		orrs	r2, r2, r3
 211:../../source/src/FWlib/src/stm32f10x_fsmc.c ****             FSMC_NORSRAMInitStruct->FSMC_WaitSignal |
 304              		.loc 1 211 0
 305 0124 7B68     		ldr	r3, [r7, #4]
 306 0126 9B6A     		ldr	r3, [r3, #40]
 210:../../source/src/FWlib/src/stm32f10x_fsmc.c ****             FSMC_NORSRAMInitStruct->FSMC_WriteOperation |
 307              		.loc 1 210 0
 308 0128 1A43     		orrs	r2, r2, r3
 212:../../source/src/FWlib/src/stm32f10x_fsmc.c ****             FSMC_NORSRAMInitStruct->FSMC_ExtendedMode |
 309              		.loc 1 212 0
 310 012a 7B68     		ldr	r3, [r7, #4]
 311 012c DB6A     		ldr	r3, [r3, #44]
 211:../../source/src/FWlib/src/stm32f10x_fsmc.c ****             FSMC_NORSRAMInitStruct->FSMC_WaitSignal |
 312              		.loc 1 211 0
 313 012e 42EA0301 		orr	r1, r2, r3
 213:../../source/src/FWlib/src/stm32f10x_fsmc.c ****             FSMC_NORSRAMInitStruct->FSMC_WriteBurst;
 314              		.loc 1 213 0
 315 0132 7B68     		ldr	r3, [r7, #4]
 316 0134 1A6B     		ldr	r2, [r3, #48]
 201:../../source/src/FWlib/src/stm32f10x_fsmc.c ****             (uint32_t)FSMC_NORSRAMInitStruct->FSMC_DataAddressMux |
 317              		.loc 1 201 0
 318 0136 4FF02040 		mov	r0, #-1610612736
 319 013a 7B68     		ldr	r3, [r7, #4]
 320 013c 1B68     		ldr	r3, [r3]
 212:../../source/src/FWlib/src/stm32f10x_fsmc.c ****             FSMC_NORSRAMInitStruct->FSMC_ExtendedMode |
 321              		.loc 1 212 0
 322 013e 0A43     		orrs	r2, r2, r1
 201:../../source/src/FWlib/src/stm32f10x_fsmc.c ****             (uint32_t)FSMC_NORSRAMInitStruct->FSMC_DataAddressMux |
 323              		.loc 1 201 0
 324 0140 40F82320 		str	r2, [r0, r3, lsl #2]
 214:../../source/src/FWlib/src/stm32f10x_fsmc.c **** 
 215:../../source/src/FWlib/src/stm32f10x_fsmc.c ****   if(FSMC_NORSRAMInitStruct->FSMC_MemoryType == FSMC_MemoryType_NOR)
 325              		.loc 1 215 0
 326 0144 7B68     		ldr	r3, [r7, #4]
 327 0146 9B68     		ldr	r3, [r3, #8]
 328 0148 082B     		cmp	r3, #8
 329 014a 0DD1     		bne	.L16
 216:../../source/src/FWlib/src/stm32f10x_fsmc.c ****   {
 217:../../source/src/FWlib/src/stm32f10x_fsmc.c ****     FSMC_Bank1->BTCR[FSMC_NORSRAMInitStruct->FSMC_Bank] |= (uint32_t)BCR_FACCEN_Set;
 330              		.loc 1 217 0
 331 014c 4FF02042 		mov	r2, #-1610612736
 332 0150 7B68     		ldr	r3, [r7, #4]
 333 0152 1B68     		ldr	r3, [r3]
 334 0154 52F82320 		ldr	r2, [r2, r3, lsl #2]
 335 0158 4FF02041 		mov	r1, #-1610612736
 336 015c 7B68     		ldr	r3, [r7, #4]
ARM GAS  G:\Users\Jaxb\AppData\Local\Temp\ccbq8auC.s 			page 11


 337 015e 1B68     		ldr	r3, [r3]
 338 0160 42F04002 		orr	r2, r2, #64
 339 0164 41F82320 		str	r2, [r1, r3, lsl #2]
 340              	.L16:
 218:../../source/src/FWlib/src/stm32f10x_fsmc.c ****   }
 219:../../source/src/FWlib/src/stm32f10x_fsmc.c ****   
 220:../../source/src/FWlib/src/stm32f10x_fsmc.c ****   /* Bank1 NOR/SRAM timing register configuration */
 221:../../source/src/FWlib/src/stm32f10x_fsmc.c ****   FSMC_Bank1->BTCR[FSMC_NORSRAMInitStruct->FSMC_Bank+1] = 
 222:../../source/src/FWlib/src/stm32f10x_fsmc.c ****             (uint32_t)FSMC_NORSRAMInitStruct->FSMC_ReadWriteTimingStruct->FSMC_AddressSetupTime |
 341              		.loc 1 222 0
 342 0168 7B68     		ldr	r3, [r7, #4]
 343 016a 5B6B     		ldr	r3, [r3, #52]
 344 016c 1A68     		ldr	r2, [r3]
 223:../../source/src/FWlib/src/stm32f10x_fsmc.c ****             (FSMC_NORSRAMInitStruct->FSMC_ReadWriteTimingStruct->FSMC_AddressHoldTime << 4) |
 345              		.loc 1 223 0
 346 016e 7B68     		ldr	r3, [r7, #4]
 347 0170 5B6B     		ldr	r3, [r3, #52]
 348 0172 5B68     		ldr	r3, [r3, #4]
 349 0174 1B01     		lsls	r3, r3, #4
 222:../../source/src/FWlib/src/stm32f10x_fsmc.c ****             (FSMC_NORSRAMInitStruct->FSMC_ReadWriteTimingStruct->FSMC_AddressHoldTime << 4) |
 350              		.loc 1 222 0
 351 0176 1A43     		orrs	r2, r2, r3
 224:../../source/src/FWlib/src/stm32f10x_fsmc.c ****             (FSMC_NORSRAMInitStruct->FSMC_ReadWriteTimingStruct->FSMC_DataSetupTime << 8) |
 352              		.loc 1 224 0
 353 0178 7B68     		ldr	r3, [r7, #4]
 354 017a 5B6B     		ldr	r3, [r3, #52]
 355 017c 9B68     		ldr	r3, [r3, #8]
 356 017e 1B02     		lsls	r3, r3, #8
 223:../../source/src/FWlib/src/stm32f10x_fsmc.c ****             (FSMC_NORSRAMInitStruct->FSMC_ReadWriteTimingStruct->FSMC_AddressHoldTime << 4) |
 357              		.loc 1 223 0
 358 0180 1A43     		orrs	r2, r2, r3
 225:../../source/src/FWlib/src/stm32f10x_fsmc.c ****             (FSMC_NORSRAMInitStruct->FSMC_ReadWriteTimingStruct->FSMC_BusTurnAroundDuration << 16) 
 359              		.loc 1 225 0
 360 0182 7B68     		ldr	r3, [r7, #4]
 361 0184 5B6B     		ldr	r3, [r3, #52]
 362 0186 DB68     		ldr	r3, [r3, #12]
 363 0188 1B04     		lsls	r3, r3, #16
 224:../../source/src/FWlib/src/stm32f10x_fsmc.c ****             (FSMC_NORSRAMInitStruct->FSMC_ReadWriteTimingStruct->FSMC_DataSetupTime << 8) |
 364              		.loc 1 224 0
 365 018a 1A43     		orrs	r2, r2, r3
 226:../../source/src/FWlib/src/stm32f10x_fsmc.c ****             (FSMC_NORSRAMInitStruct->FSMC_ReadWriteTimingStruct->FSMC_CLKDivision << 20) |
 366              		.loc 1 226 0
 367 018c 7B68     		ldr	r3, [r7, #4]
 368 018e 5B6B     		ldr	r3, [r3, #52]
 369 0190 1B69     		ldr	r3, [r3, #16]
 370 0192 1B05     		lsls	r3, r3, #20
 225:../../source/src/FWlib/src/stm32f10x_fsmc.c ****             (FSMC_NORSRAMInitStruct->FSMC_ReadWriteTimingStruct->FSMC_BusTurnAroundDuration << 16) 
 371              		.loc 1 225 0
 372 0194 1A43     		orrs	r2, r2, r3
 227:../../source/src/FWlib/src/stm32f10x_fsmc.c ****             (FSMC_NORSRAMInitStruct->FSMC_ReadWriteTimingStruct->FSMC_DataLatency << 24) |
 373              		.loc 1 227 0
 374 0196 7B68     		ldr	r3, [r7, #4]
 375 0198 5B6B     		ldr	r3, [r3, #52]
 376 019a 5B69     		ldr	r3, [r3, #20]
 377 019c 1B06     		lsls	r3, r3, #24
 226:../../source/src/FWlib/src/stm32f10x_fsmc.c ****             (FSMC_NORSRAMInitStruct->FSMC_ReadWriteTimingStruct->FSMC_CLKDivision << 20) |
 378              		.loc 1 226 0
ARM GAS  G:\Users\Jaxb\AppData\Local\Temp\ccbq8auC.s 			page 12


 379 019e 42EA0301 		orr	r1, r2, r3
 228:../../source/src/FWlib/src/stm32f10x_fsmc.c ****              FSMC_NORSRAMInitStruct->FSMC_ReadWriteTimingStruct->FSMC_AccessMode;
 380              		.loc 1 228 0
 381 01a2 7B68     		ldr	r3, [r7, #4]
 382 01a4 5B6B     		ldr	r3, [r3, #52]
 383 01a6 9A69     		ldr	r2, [r3, #24]
 221:../../source/src/FWlib/src/stm32f10x_fsmc.c ****             (uint32_t)FSMC_NORSRAMInitStruct->FSMC_ReadWriteTimingStruct->FSMC_AddressSetupTime |
 384              		.loc 1 221 0
 385 01a8 4FF02040 		mov	r0, #-1610612736
 386 01ac 7B68     		ldr	r3, [r7, #4]
 387 01ae 1B68     		ldr	r3, [r3]
 388 01b0 0133     		adds	r3, r3, #1
 227:../../source/src/FWlib/src/stm32f10x_fsmc.c ****             (FSMC_NORSRAMInitStruct->FSMC_ReadWriteTimingStruct->FSMC_DataLatency << 24) |
 389              		.loc 1 227 0
 390 01b2 0A43     		orrs	r2, r2, r1
 221:../../source/src/FWlib/src/stm32f10x_fsmc.c ****             (uint32_t)FSMC_NORSRAMInitStruct->FSMC_ReadWriteTimingStruct->FSMC_AddressSetupTime |
 391              		.loc 1 221 0
 392 01b4 40F82320 		str	r2, [r0, r3, lsl #2]
 229:../../source/src/FWlib/src/stm32f10x_fsmc.c ****             
 230:../../source/src/FWlib/src/stm32f10x_fsmc.c ****     
 231:../../source/src/FWlib/src/stm32f10x_fsmc.c ****   /* Bank1 NOR/SRAM timing register for write configuration, if extended mode is used */
 232:../../source/src/FWlib/src/stm32f10x_fsmc.c ****   if(FSMC_NORSRAMInitStruct->FSMC_ExtendedMode == FSMC_ExtendedMode_Enable)
 393              		.loc 1 232 0
 394 01b8 7B68     		ldr	r3, [r7, #4]
 395 01ba DB6A     		ldr	r3, [r3, #44]
 396 01bc B3F5804F 		cmp	r3, #16384
 397 01c0 21D1     		bne	.L17
 233:../../source/src/FWlib/src/stm32f10x_fsmc.c ****   {
 234:../../source/src/FWlib/src/stm32f10x_fsmc.c ****     assert_param(IS_FSMC_ADDRESS_SETUP_TIME(FSMC_NORSRAMInitStruct->FSMC_WriteTimingStruct->FSMC_Ad
 235:../../source/src/FWlib/src/stm32f10x_fsmc.c ****     assert_param(IS_FSMC_ADDRESS_HOLD_TIME(FSMC_NORSRAMInitStruct->FSMC_WriteTimingStruct->FSMC_Add
 236:../../source/src/FWlib/src/stm32f10x_fsmc.c ****     assert_param(IS_FSMC_DATASETUP_TIME(FSMC_NORSRAMInitStruct->FSMC_WriteTimingStruct->FSMC_DataSe
 237:../../source/src/FWlib/src/stm32f10x_fsmc.c ****     assert_param(IS_FSMC_CLK_DIV(FSMC_NORSRAMInitStruct->FSMC_WriteTimingStruct->FSMC_CLKDivision))
 238:../../source/src/FWlib/src/stm32f10x_fsmc.c ****     assert_param(IS_FSMC_DATA_LATENCY(FSMC_NORSRAMInitStruct->FSMC_WriteTimingStruct->FSMC_DataLate
 239:../../source/src/FWlib/src/stm32f10x_fsmc.c ****     assert_param(IS_FSMC_ACCESS_MODE(FSMC_NORSRAMInitStruct->FSMC_WriteTimingStruct->FSMC_AccessMod
 240:../../source/src/FWlib/src/stm32f10x_fsmc.c ****     FSMC_Bank1E->BWTR[FSMC_NORSRAMInitStruct->FSMC_Bank] = 
 241:../../source/src/FWlib/src/stm32f10x_fsmc.c ****               (uint32_t)FSMC_NORSRAMInitStruct->FSMC_WriteTimingStruct->FSMC_AddressSetupTime |
 398              		.loc 1 241 0
 399 01c2 7B68     		ldr	r3, [r7, #4]
 400 01c4 9B6B     		ldr	r3, [r3, #56]
 401 01c6 1A68     		ldr	r2, [r3]
 242:../../source/src/FWlib/src/stm32f10x_fsmc.c ****               (FSMC_NORSRAMInitStruct->FSMC_WriteTimingStruct->FSMC_AddressHoldTime << 4 )|
 402              		.loc 1 242 0
 403 01c8 7B68     		ldr	r3, [r7, #4]
 404 01ca 9B6B     		ldr	r3, [r3, #56]
 405 01cc 5B68     		ldr	r3, [r3, #4]
 406 01ce 1B01     		lsls	r3, r3, #4
 241:../../source/src/FWlib/src/stm32f10x_fsmc.c ****               (FSMC_NORSRAMInitStruct->FSMC_WriteTimingStruct->FSMC_AddressHoldTime << 4 )|
 407              		.loc 1 241 0
 408 01d0 1A43     		orrs	r2, r2, r3
 243:../../source/src/FWlib/src/stm32f10x_fsmc.c ****               (FSMC_NORSRAMInitStruct->FSMC_WriteTimingStruct->FSMC_DataSetupTime << 8) |
 409              		.loc 1 243 0
 410 01d2 7B68     		ldr	r3, [r7, #4]
 411 01d4 9B6B     		ldr	r3, [r3, #56]
 412 01d6 9B68     		ldr	r3, [r3, #8]
 413 01d8 1B02     		lsls	r3, r3, #8
 242:../../source/src/FWlib/src/stm32f10x_fsmc.c ****               (FSMC_NORSRAMInitStruct->FSMC_WriteTimingStruct->FSMC_AddressHoldTime << 4 )|
 414              		.loc 1 242 0
ARM GAS  G:\Users\Jaxb\AppData\Local\Temp\ccbq8auC.s 			page 13


 415 01da 1A43     		orrs	r2, r2, r3
 244:../../source/src/FWlib/src/stm32f10x_fsmc.c ****               (FSMC_NORSRAMInitStruct->FSMC_WriteTimingStruct->FSMC_CLKDivision << 20) |
 416              		.loc 1 244 0
 417 01dc 7B68     		ldr	r3, [r7, #4]
 418 01de 9B6B     		ldr	r3, [r3, #56]
 419 01e0 1B69     		ldr	r3, [r3, #16]
 420 01e2 1B05     		lsls	r3, r3, #20
 243:../../source/src/FWlib/src/stm32f10x_fsmc.c ****               (FSMC_NORSRAMInitStruct->FSMC_WriteTimingStruct->FSMC_DataSetupTime << 8) |
 421              		.loc 1 243 0
 422 01e4 1A43     		orrs	r2, r2, r3
 245:../../source/src/FWlib/src/stm32f10x_fsmc.c ****               (FSMC_NORSRAMInitStruct->FSMC_WriteTimingStruct->FSMC_DataLatency << 24) |
 423              		.loc 1 245 0
 424 01e6 7B68     		ldr	r3, [r7, #4]
 425 01e8 9B6B     		ldr	r3, [r3, #56]
 426 01ea 5B69     		ldr	r3, [r3, #20]
 427 01ec 1B06     		lsls	r3, r3, #24
 244:../../source/src/FWlib/src/stm32f10x_fsmc.c ****               (FSMC_NORSRAMInitStruct->FSMC_WriteTimingStruct->FSMC_CLKDivision << 20) |
 428              		.loc 1 244 0
 429 01ee 42EA0301 		orr	r1, r2, r3
 246:../../source/src/FWlib/src/stm32f10x_fsmc.c ****                FSMC_NORSRAMInitStruct->FSMC_WriteTimingStruct->FSMC_AccessMode;
 430              		.loc 1 246 0
 431 01f2 7B68     		ldr	r3, [r7, #4]
 432 01f4 9B6B     		ldr	r3, [r3, #56]
 433 01f6 9A69     		ldr	r2, [r3, #24]
 240:../../source/src/FWlib/src/stm32f10x_fsmc.c ****               (uint32_t)FSMC_NORSRAMInitStruct->FSMC_WriteTimingStruct->FSMC_AddressSetupTime |
 434              		.loc 1 240 0
 435 01f8 0948     		ldr	r0, .L20
 436 01fa 7B68     		ldr	r3, [r7, #4]
 437 01fc 1B68     		ldr	r3, [r3]
 245:../../source/src/FWlib/src/stm32f10x_fsmc.c ****               (FSMC_NORSRAMInitStruct->FSMC_WriteTimingStruct->FSMC_DataLatency << 24) |
 438              		.loc 1 245 0
 439 01fe 0A43     		orrs	r2, r2, r1
 240:../../source/src/FWlib/src/stm32f10x_fsmc.c ****               (uint32_t)FSMC_NORSRAMInitStruct->FSMC_WriteTimingStruct->FSMC_AddressSetupTime |
 440              		.loc 1 240 0
 441 0200 40F82320 		str	r2, [r0, r3, lsl #2]
 247:../../source/src/FWlib/src/stm32f10x_fsmc.c ****   }
 248:../../source/src/FWlib/src/stm32f10x_fsmc.c ****   else
 249:../../source/src/FWlib/src/stm32f10x_fsmc.c ****   {
 250:../../source/src/FWlib/src/stm32f10x_fsmc.c ****     FSMC_Bank1E->BWTR[FSMC_NORSRAMInitStruct->FSMC_Bank] = 0x0FFFFFFF;
 251:../../source/src/FWlib/src/stm32f10x_fsmc.c ****   }
 252:../../source/src/FWlib/src/stm32f10x_fsmc.c **** }
 442              		.loc 1 252 0
 443 0204 06E0     		b	.L19
 444              	.L17:
 250:../../source/src/FWlib/src/stm32f10x_fsmc.c ****   }
 445              		.loc 1 250 0
 446 0206 064A     		ldr	r2, .L20
 447 0208 7B68     		ldr	r3, [r7, #4]
 448 020a 1B68     		ldr	r3, [r3]
 449 020c 6FF07041 		mvn	r1, #-268435456
 450 0210 42F82310 		str	r1, [r2, r3, lsl #2]
 451              	.L19:
 452              		.loc 1 252 0
 453 0214 00BF     		nop
 454 0216 0C37     		adds	r7, r7, #12
 455              	.LCFI19:
 456              		.cfi_def_cfa_offset 4
ARM GAS  G:\Users\Jaxb\AppData\Local\Temp\ccbq8auC.s 			page 14


 457 0218 BD46     		mov	sp, r7
 458              	.LCFI20:
 459              		.cfi_def_cfa_register 13
 460              		@ sp needed
 461 021a 80BC     		pop	{r7}
 462              	.LCFI21:
 463              		.cfi_restore 7
 464              		.cfi_def_cfa_offset 0
 465 021c 7047     		bx	lr
 466              	.L21:
 467 021e 00BF     		.align	2
 468              	.L20:
 469 0220 040100A0 		.word	-1610612476
 470              		.cfi_endproc
 471              	.LFE32:
 472              		.size	FSMC_NORSRAMInit, .-FSMC_NORSRAMInit
 473              		.align	1
 474              		.global	FSMC_NANDInit
 475              		.syntax unified
 476              		.thumb
 477              		.thumb_func
 478              		.fpu softvfp
 479              		.type	FSMC_NANDInit, %function
 480              	FSMC_NANDInit:
 481              	.LFB33:
 253:../../source/src/FWlib/src/stm32f10x_fsmc.c **** 
 254:../../source/src/FWlib/src/stm32f10x_fsmc.c **** /**
 255:../../source/src/FWlib/src/stm32f10x_fsmc.c ****   * @brief  Initializes the FSMC NAND Banks according to the specified 
 256:../../source/src/FWlib/src/stm32f10x_fsmc.c ****   *         parameters in the FSMC_NANDInitStruct.
 257:../../source/src/FWlib/src/stm32f10x_fsmc.c ****   * @param  FSMC_NANDInitStruct : pointer to a FSMC_NANDInitTypeDef 
 258:../../source/src/FWlib/src/stm32f10x_fsmc.c ****   *         structure that contains the configuration information for the FSMC 
 259:../../source/src/FWlib/src/stm32f10x_fsmc.c ****   *         NAND specified Banks.                       
 260:../../source/src/FWlib/src/stm32f10x_fsmc.c ****   * @retval None
 261:../../source/src/FWlib/src/stm32f10x_fsmc.c ****   */
 262:../../source/src/FWlib/src/stm32f10x_fsmc.c **** void FSMC_NANDInit(FSMC_NANDInitTypeDef* FSMC_NANDInitStruct)
 263:../../source/src/FWlib/src/stm32f10x_fsmc.c **** {
 482              		.loc 1 263 0
 483              		.cfi_startproc
 484              		@ args = 0, pretend = 0, frame = 24
 485              		@ frame_needed = 1, uses_anonymous_args = 0
 486              		@ link register save eliminated.
 487 0224 80B4     		push	{r7}
 488              	.LCFI22:
 489              		.cfi_def_cfa_offset 4
 490              		.cfi_offset 7, -4
 491 0226 87B0     		sub	sp, sp, #28
 492              	.LCFI23:
 493              		.cfi_def_cfa_offset 32
 494 0228 00AF     		add	r7, sp, #0
 495              	.LCFI24:
 496              		.cfi_def_cfa_register 7
 497 022a 7860     		str	r0, [r7, #4]
 264:../../source/src/FWlib/src/stm32f10x_fsmc.c ****   uint32_t tmppcr = 0x00000000, tmppmem = 0x00000000, tmppatt = 0x00000000; 
 498              		.loc 1 264 0
 499 022c 0023     		movs	r3, #0
 500 022e 7B61     		str	r3, [r7, #20]
 501 0230 0023     		movs	r3, #0
ARM GAS  G:\Users\Jaxb\AppData\Local\Temp\ccbq8auC.s 			page 15


 502 0232 3B61     		str	r3, [r7, #16]
 503 0234 0023     		movs	r3, #0
 504 0236 FB60     		str	r3, [r7, #12]
 265:../../source/src/FWlib/src/stm32f10x_fsmc.c ****     
 266:../../source/src/FWlib/src/stm32f10x_fsmc.c ****   /* Check the parameters */
 267:../../source/src/FWlib/src/stm32f10x_fsmc.c ****   assert_param( IS_FSMC_NAND_BANK(FSMC_NANDInitStruct->FSMC_Bank));
 268:../../source/src/FWlib/src/stm32f10x_fsmc.c ****   assert_param( IS_FSMC_WAIT_FEATURE(FSMC_NANDInitStruct->FSMC_Waitfeature));
 269:../../source/src/FWlib/src/stm32f10x_fsmc.c ****   assert_param( IS_FSMC_MEMORY_WIDTH(FSMC_NANDInitStruct->FSMC_MemoryDataWidth));
 270:../../source/src/FWlib/src/stm32f10x_fsmc.c ****   assert_param( IS_FSMC_ECC_STATE(FSMC_NANDInitStruct->FSMC_ECC));
 271:../../source/src/FWlib/src/stm32f10x_fsmc.c ****   assert_param( IS_FSMC_ECCPAGE_SIZE(FSMC_NANDInitStruct->FSMC_ECCPageSize));
 272:../../source/src/FWlib/src/stm32f10x_fsmc.c ****   assert_param( IS_FSMC_TCLR_TIME(FSMC_NANDInitStruct->FSMC_TCLRSetupTime));
 273:../../source/src/FWlib/src/stm32f10x_fsmc.c ****   assert_param( IS_FSMC_TAR_TIME(FSMC_NANDInitStruct->FSMC_TARSetupTime));
 274:../../source/src/FWlib/src/stm32f10x_fsmc.c ****   assert_param(IS_FSMC_SETUP_TIME(FSMC_NANDInitStruct->FSMC_CommonSpaceTimingStruct->FSMC_SetupTime
 275:../../source/src/FWlib/src/stm32f10x_fsmc.c ****   assert_param(IS_FSMC_WAIT_TIME(FSMC_NANDInitStruct->FSMC_CommonSpaceTimingStruct->FSMC_WaitSetupT
 276:../../source/src/FWlib/src/stm32f10x_fsmc.c ****   assert_param(IS_FSMC_HOLD_TIME(FSMC_NANDInitStruct->FSMC_CommonSpaceTimingStruct->FSMC_HoldSetupT
 277:../../source/src/FWlib/src/stm32f10x_fsmc.c ****   assert_param(IS_FSMC_HIZ_TIME(FSMC_NANDInitStruct->FSMC_CommonSpaceTimingStruct->FSMC_HiZSetupTim
 278:../../source/src/FWlib/src/stm32f10x_fsmc.c ****   assert_param(IS_FSMC_SETUP_TIME(FSMC_NANDInitStruct->FSMC_AttributeSpaceTimingStruct->FSMC_SetupT
 279:../../source/src/FWlib/src/stm32f10x_fsmc.c ****   assert_param(IS_FSMC_WAIT_TIME(FSMC_NANDInitStruct->FSMC_AttributeSpaceTimingStruct->FSMC_WaitSet
 280:../../source/src/FWlib/src/stm32f10x_fsmc.c ****   assert_param(IS_FSMC_HOLD_TIME(FSMC_NANDInitStruct->FSMC_AttributeSpaceTimingStruct->FSMC_HoldSet
 281:../../source/src/FWlib/src/stm32f10x_fsmc.c ****   assert_param(IS_FSMC_HIZ_TIME(FSMC_NANDInitStruct->FSMC_AttributeSpaceTimingStruct->FSMC_HiZSetup
 282:../../source/src/FWlib/src/stm32f10x_fsmc.c ****   
 283:../../source/src/FWlib/src/stm32f10x_fsmc.c ****   /* Set the tmppcr value according to FSMC_NANDInitStruct parameters */
 284:../../source/src/FWlib/src/stm32f10x_fsmc.c ****   tmppcr = (uint32_t)FSMC_NANDInitStruct->FSMC_Waitfeature |
 505              		.loc 1 284 0
 506 0238 7B68     		ldr	r3, [r7, #4]
 507 023a 5A68     		ldr	r2, [r3, #4]
 285:../../source/src/FWlib/src/stm32f10x_fsmc.c ****             PCR_MemoryType_NAND |
 286:../../source/src/FWlib/src/stm32f10x_fsmc.c ****             FSMC_NANDInitStruct->FSMC_MemoryDataWidth |
 508              		.loc 1 286 0
 509 023c 7B68     		ldr	r3, [r7, #4]
 510 023e 9B68     		ldr	r3, [r3, #8]
 285:../../source/src/FWlib/src/stm32f10x_fsmc.c ****             PCR_MemoryType_NAND |
 511              		.loc 1 285 0
 512 0240 1A43     		orrs	r2, r2, r3
 287:../../source/src/FWlib/src/stm32f10x_fsmc.c ****             FSMC_NANDInitStruct->FSMC_ECC |
 513              		.loc 1 287 0
 514 0242 7B68     		ldr	r3, [r7, #4]
 515 0244 DB68     		ldr	r3, [r3, #12]
 286:../../source/src/FWlib/src/stm32f10x_fsmc.c ****             FSMC_NANDInitStruct->FSMC_ECC |
 516              		.loc 1 286 0
 517 0246 1A43     		orrs	r2, r2, r3
 288:../../source/src/FWlib/src/stm32f10x_fsmc.c ****             FSMC_NANDInitStruct->FSMC_ECCPageSize |
 518              		.loc 1 288 0
 519 0248 7B68     		ldr	r3, [r7, #4]
 520 024a 1B69     		ldr	r3, [r3, #16]
 287:../../source/src/FWlib/src/stm32f10x_fsmc.c ****             FSMC_NANDInitStruct->FSMC_ECC |
 521              		.loc 1 287 0
 522 024c 1A43     		orrs	r2, r2, r3
 289:../../source/src/FWlib/src/stm32f10x_fsmc.c ****             (FSMC_NANDInitStruct->FSMC_TCLRSetupTime << 9 )|
 523              		.loc 1 289 0
 524 024e 7B68     		ldr	r3, [r7, #4]
 525 0250 5B69     		ldr	r3, [r3, #20]
 526 0252 5B02     		lsls	r3, r3, #9
 288:../../source/src/FWlib/src/stm32f10x_fsmc.c ****             FSMC_NANDInitStruct->FSMC_ECCPageSize |
 527              		.loc 1 288 0
 528 0254 1A43     		orrs	r2, r2, r3
 290:../../source/src/FWlib/src/stm32f10x_fsmc.c ****             (FSMC_NANDInitStruct->FSMC_TARSetupTime << 13);
ARM GAS  G:\Users\Jaxb\AppData\Local\Temp\ccbq8auC.s 			page 16


 529              		.loc 1 290 0
 530 0256 7B68     		ldr	r3, [r7, #4]
 531 0258 9B69     		ldr	r3, [r3, #24]
 532 025a 5B03     		lsls	r3, r3, #13
 289:../../source/src/FWlib/src/stm32f10x_fsmc.c ****             (FSMC_NANDInitStruct->FSMC_TCLRSetupTime << 9 )|
 533              		.loc 1 289 0
 534 025c 1343     		orrs	r3, r3, r2
 284:../../source/src/FWlib/src/stm32f10x_fsmc.c ****             PCR_MemoryType_NAND |
 535              		.loc 1 284 0
 536 025e 43F00803 		orr	r3, r3, #8
 537 0262 7B61     		str	r3, [r7, #20]
 291:../../source/src/FWlib/src/stm32f10x_fsmc.c ****             
 292:../../source/src/FWlib/src/stm32f10x_fsmc.c ****   /* Set tmppmem value according to FSMC_CommonSpaceTimingStructure parameters */
 293:../../source/src/FWlib/src/stm32f10x_fsmc.c ****   tmppmem = (uint32_t)FSMC_NANDInitStruct->FSMC_CommonSpaceTimingStruct->FSMC_SetupTime |
 538              		.loc 1 293 0
 539 0264 7B68     		ldr	r3, [r7, #4]
 540 0266 DB69     		ldr	r3, [r3, #28]
 541 0268 1A68     		ldr	r2, [r3]
 294:../../source/src/FWlib/src/stm32f10x_fsmc.c ****             (FSMC_NANDInitStruct->FSMC_CommonSpaceTimingStruct->FSMC_WaitSetupTime << 8) |
 542              		.loc 1 294 0
 543 026a 7B68     		ldr	r3, [r7, #4]
 544 026c DB69     		ldr	r3, [r3, #28]
 545 026e 5B68     		ldr	r3, [r3, #4]
 546 0270 1B02     		lsls	r3, r3, #8
 293:../../source/src/FWlib/src/stm32f10x_fsmc.c ****             (FSMC_NANDInitStruct->FSMC_CommonSpaceTimingStruct->FSMC_WaitSetupTime << 8) |
 547              		.loc 1 293 0
 548 0272 1A43     		orrs	r2, r2, r3
 295:../../source/src/FWlib/src/stm32f10x_fsmc.c ****             (FSMC_NANDInitStruct->FSMC_CommonSpaceTimingStruct->FSMC_HoldSetupTime << 16)|
 549              		.loc 1 295 0
 550 0274 7B68     		ldr	r3, [r7, #4]
 551 0276 DB69     		ldr	r3, [r3, #28]
 552 0278 9B68     		ldr	r3, [r3, #8]
 553 027a 1B04     		lsls	r3, r3, #16
 294:../../source/src/FWlib/src/stm32f10x_fsmc.c ****             (FSMC_NANDInitStruct->FSMC_CommonSpaceTimingStruct->FSMC_WaitSetupTime << 8) |
 554              		.loc 1 294 0
 555 027c 1A43     		orrs	r2, r2, r3
 296:../../source/src/FWlib/src/stm32f10x_fsmc.c ****             (FSMC_NANDInitStruct->FSMC_CommonSpaceTimingStruct->FSMC_HiZSetupTime << 24); 
 556              		.loc 1 296 0
 557 027e 7B68     		ldr	r3, [r7, #4]
 558 0280 DB69     		ldr	r3, [r3, #28]
 559 0282 DB68     		ldr	r3, [r3, #12]
 560 0284 1B06     		lsls	r3, r3, #24
 293:../../source/src/FWlib/src/stm32f10x_fsmc.c ****             (FSMC_NANDInitStruct->FSMC_CommonSpaceTimingStruct->FSMC_WaitSetupTime << 8) |
 561              		.loc 1 293 0
 562 0286 1343     		orrs	r3, r3, r2
 563 0288 3B61     		str	r3, [r7, #16]
 297:../../source/src/FWlib/src/stm32f10x_fsmc.c ****             
 298:../../source/src/FWlib/src/stm32f10x_fsmc.c ****   /* Set tmppatt value according to FSMC_AttributeSpaceTimingStructure parameters */
 299:../../source/src/FWlib/src/stm32f10x_fsmc.c ****   tmppatt = (uint32_t)FSMC_NANDInitStruct->FSMC_AttributeSpaceTimingStruct->FSMC_SetupTime |
 564              		.loc 1 299 0
 565 028a 7B68     		ldr	r3, [r7, #4]
 566 028c 1B6A     		ldr	r3, [r3, #32]
 567 028e 1A68     		ldr	r2, [r3]
 300:../../source/src/FWlib/src/stm32f10x_fsmc.c ****             (FSMC_NANDInitStruct->FSMC_AttributeSpaceTimingStruct->FSMC_WaitSetupTime << 8) |
 568              		.loc 1 300 0
 569 0290 7B68     		ldr	r3, [r7, #4]
 570 0292 1B6A     		ldr	r3, [r3, #32]
ARM GAS  G:\Users\Jaxb\AppData\Local\Temp\ccbq8auC.s 			page 17


 571 0294 5B68     		ldr	r3, [r3, #4]
 572 0296 1B02     		lsls	r3, r3, #8
 299:../../source/src/FWlib/src/stm32f10x_fsmc.c ****             (FSMC_NANDInitStruct->FSMC_AttributeSpaceTimingStruct->FSMC_WaitSetupTime << 8) |
 573              		.loc 1 299 0
 574 0298 1A43     		orrs	r2, r2, r3
 301:../../source/src/FWlib/src/stm32f10x_fsmc.c ****             (FSMC_NANDInitStruct->FSMC_AttributeSpaceTimingStruct->FSMC_HoldSetupTime << 16)|
 575              		.loc 1 301 0
 576 029a 7B68     		ldr	r3, [r7, #4]
 577 029c 1B6A     		ldr	r3, [r3, #32]
 578 029e 9B68     		ldr	r3, [r3, #8]
 579 02a0 1B04     		lsls	r3, r3, #16
 300:../../source/src/FWlib/src/stm32f10x_fsmc.c ****             (FSMC_NANDInitStruct->FSMC_AttributeSpaceTimingStruct->FSMC_WaitSetupTime << 8) |
 580              		.loc 1 300 0
 581 02a2 1A43     		orrs	r2, r2, r3
 302:../../source/src/FWlib/src/stm32f10x_fsmc.c ****             (FSMC_NANDInitStruct->FSMC_AttributeSpaceTimingStruct->FSMC_HiZSetupTime << 24);
 582              		.loc 1 302 0
 583 02a4 7B68     		ldr	r3, [r7, #4]
 584 02a6 1B6A     		ldr	r3, [r3, #32]
 585 02a8 DB68     		ldr	r3, [r3, #12]
 586 02aa 1B06     		lsls	r3, r3, #24
 299:../../source/src/FWlib/src/stm32f10x_fsmc.c ****             (FSMC_NANDInitStruct->FSMC_AttributeSpaceTimingStruct->FSMC_WaitSetupTime << 8) |
 587              		.loc 1 299 0
 588 02ac 1343     		orrs	r3, r3, r2
 589 02ae FB60     		str	r3, [r7, #12]
 303:../../source/src/FWlib/src/stm32f10x_fsmc.c ****   
 304:../../source/src/FWlib/src/stm32f10x_fsmc.c ****   if(FSMC_NANDInitStruct->FSMC_Bank == FSMC_Bank2_NAND)
 590              		.loc 1 304 0
 591 02b0 7B68     		ldr	r3, [r7, #4]
 592 02b2 1B68     		ldr	r3, [r3]
 593 02b4 102B     		cmp	r3, #16
 594 02b6 09D1     		bne	.L23
 305:../../source/src/FWlib/src/stm32f10x_fsmc.c ****   {
 306:../../source/src/FWlib/src/stm32f10x_fsmc.c ****     /* FSMC_Bank2_NAND registers configuration */
 307:../../source/src/FWlib/src/stm32f10x_fsmc.c ****     FSMC_Bank2->PCR2 = tmppcr;
 595              		.loc 1 307 0
 596 02b8 0B4A     		ldr	r2, .L26
 597 02ba 7B69     		ldr	r3, [r7, #20]
 598 02bc 1360     		str	r3, [r2]
 308:../../source/src/FWlib/src/stm32f10x_fsmc.c ****     FSMC_Bank2->PMEM2 = tmppmem;
 599              		.loc 1 308 0
 600 02be 0A4A     		ldr	r2, .L26
 601 02c0 3B69     		ldr	r3, [r7, #16]
 602 02c2 9360     		str	r3, [r2, #8]
 309:../../source/src/FWlib/src/stm32f10x_fsmc.c ****     FSMC_Bank2->PATT2 = tmppatt;
 603              		.loc 1 309 0
 604 02c4 084A     		ldr	r2, .L26
 605 02c6 FB68     		ldr	r3, [r7, #12]
 606 02c8 D360     		str	r3, [r2, #12]
 310:../../source/src/FWlib/src/stm32f10x_fsmc.c ****   }
 311:../../source/src/FWlib/src/stm32f10x_fsmc.c ****   else
 312:../../source/src/FWlib/src/stm32f10x_fsmc.c ****   {
 313:../../source/src/FWlib/src/stm32f10x_fsmc.c ****     /* FSMC_Bank3_NAND registers configuration */
 314:../../source/src/FWlib/src/stm32f10x_fsmc.c ****     FSMC_Bank3->PCR3 = tmppcr;
 315:../../source/src/FWlib/src/stm32f10x_fsmc.c ****     FSMC_Bank3->PMEM3 = tmppmem;
 316:../../source/src/FWlib/src/stm32f10x_fsmc.c ****     FSMC_Bank3->PATT3 = tmppatt;
 317:../../source/src/FWlib/src/stm32f10x_fsmc.c ****   }
 318:../../source/src/FWlib/src/stm32f10x_fsmc.c **** }
ARM GAS  G:\Users\Jaxb\AppData\Local\Temp\ccbq8auC.s 			page 18


 607              		.loc 1 318 0
 608 02ca 08E0     		b	.L25
 609              	.L23:
 314:../../source/src/FWlib/src/stm32f10x_fsmc.c ****     FSMC_Bank3->PMEM3 = tmppmem;
 610              		.loc 1 314 0
 611 02cc 074A     		ldr	r2, .L26+4
 612 02ce 7B69     		ldr	r3, [r7, #20]
 613 02d0 1360     		str	r3, [r2]
 315:../../source/src/FWlib/src/stm32f10x_fsmc.c ****     FSMC_Bank3->PATT3 = tmppatt;
 614              		.loc 1 315 0
 615 02d2 064A     		ldr	r2, .L26+4
 616 02d4 3B69     		ldr	r3, [r7, #16]
 617 02d6 9360     		str	r3, [r2, #8]
 316:../../source/src/FWlib/src/stm32f10x_fsmc.c ****   }
 618              		.loc 1 316 0
 619 02d8 044A     		ldr	r2, .L26+4
 620 02da FB68     		ldr	r3, [r7, #12]
 621 02dc D360     		str	r3, [r2, #12]
 622              	.L25:
 623              		.loc 1 318 0
 624 02de 00BF     		nop
 625 02e0 1C37     		adds	r7, r7, #28
 626              	.LCFI25:
 627              		.cfi_def_cfa_offset 4
 628 02e2 BD46     		mov	sp, r7
 629              	.LCFI26:
 630              		.cfi_def_cfa_register 13
 631              		@ sp needed
 632 02e4 80BC     		pop	{r7}
 633              	.LCFI27:
 634              		.cfi_restore 7
 635              		.cfi_def_cfa_offset 0
 636 02e6 7047     		bx	lr
 637              	.L27:
 638              		.align	2
 639              	.L26:
 640 02e8 600000A0 		.word	-1610612640
 641 02ec 800000A0 		.word	-1610612608
 642              		.cfi_endproc
 643              	.LFE33:
 644              		.size	FSMC_NANDInit, .-FSMC_NANDInit
 645              		.align	1
 646              		.global	FSMC_PCCARDInit
 647              		.syntax unified
 648              		.thumb
 649              		.thumb_func
 650              		.fpu softvfp
 651              		.type	FSMC_PCCARDInit, %function
 652              	FSMC_PCCARDInit:
 653              	.LFB34:
 319:../../source/src/FWlib/src/stm32f10x_fsmc.c **** 
 320:../../source/src/FWlib/src/stm32f10x_fsmc.c **** /**
 321:../../source/src/FWlib/src/stm32f10x_fsmc.c ****   * @brief  Initializes the FSMC PCCARD Bank according to the specified 
 322:../../source/src/FWlib/src/stm32f10x_fsmc.c ****   *         parameters in the FSMC_PCCARDInitStruct.
 323:../../source/src/FWlib/src/stm32f10x_fsmc.c ****   * @param  FSMC_PCCARDInitStruct : pointer to a FSMC_PCCARDInitTypeDef
 324:../../source/src/FWlib/src/stm32f10x_fsmc.c ****   *         structure that contains the configuration information for the FSMC 
 325:../../source/src/FWlib/src/stm32f10x_fsmc.c ****   *         PCCARD Bank.                       
ARM GAS  G:\Users\Jaxb\AppData\Local\Temp\ccbq8auC.s 			page 19


 326:../../source/src/FWlib/src/stm32f10x_fsmc.c ****   * @retval None
 327:../../source/src/FWlib/src/stm32f10x_fsmc.c ****   */
 328:../../source/src/FWlib/src/stm32f10x_fsmc.c **** void FSMC_PCCARDInit(FSMC_PCCARDInitTypeDef* FSMC_PCCARDInitStruct)
 329:../../source/src/FWlib/src/stm32f10x_fsmc.c **** {
 654              		.loc 1 329 0
 655              		.cfi_startproc
 656              		@ args = 0, pretend = 0, frame = 8
 657              		@ frame_needed = 1, uses_anonymous_args = 0
 658              		@ link register save eliminated.
 659 02f0 80B4     		push	{r7}
 660              	.LCFI28:
 661              		.cfi_def_cfa_offset 4
 662              		.cfi_offset 7, -4
 663 02f2 83B0     		sub	sp, sp, #12
 664              	.LCFI29:
 665              		.cfi_def_cfa_offset 16
 666 02f4 00AF     		add	r7, sp, #0
 667              	.LCFI30:
 668              		.cfi_def_cfa_register 7
 669 02f6 7860     		str	r0, [r7, #4]
 330:../../source/src/FWlib/src/stm32f10x_fsmc.c ****   /* Check the parameters */
 331:../../source/src/FWlib/src/stm32f10x_fsmc.c ****   assert_param(IS_FSMC_WAIT_FEATURE(FSMC_PCCARDInitStruct->FSMC_Waitfeature));
 332:../../source/src/FWlib/src/stm32f10x_fsmc.c ****   assert_param(IS_FSMC_TCLR_TIME(FSMC_PCCARDInitStruct->FSMC_TCLRSetupTime));
 333:../../source/src/FWlib/src/stm32f10x_fsmc.c ****   assert_param(IS_FSMC_TAR_TIME(FSMC_PCCARDInitStruct->FSMC_TARSetupTime));
 334:../../source/src/FWlib/src/stm32f10x_fsmc.c ****  
 335:../../source/src/FWlib/src/stm32f10x_fsmc.c ****   assert_param(IS_FSMC_SETUP_TIME(FSMC_PCCARDInitStruct->FSMC_CommonSpaceTimingStruct->FSMC_SetupTi
 336:../../source/src/FWlib/src/stm32f10x_fsmc.c ****   assert_param(IS_FSMC_WAIT_TIME(FSMC_PCCARDInitStruct->FSMC_CommonSpaceTimingStruct->FSMC_WaitSetu
 337:../../source/src/FWlib/src/stm32f10x_fsmc.c ****   assert_param(IS_FSMC_HOLD_TIME(FSMC_PCCARDInitStruct->FSMC_CommonSpaceTimingStruct->FSMC_HoldSetu
 338:../../source/src/FWlib/src/stm32f10x_fsmc.c ****   assert_param(IS_FSMC_HIZ_TIME(FSMC_PCCARDInitStruct->FSMC_CommonSpaceTimingStruct->FSMC_HiZSetupT
 339:../../source/src/FWlib/src/stm32f10x_fsmc.c ****   
 340:../../source/src/FWlib/src/stm32f10x_fsmc.c ****   assert_param(IS_FSMC_SETUP_TIME(FSMC_PCCARDInitStruct->FSMC_AttributeSpaceTimingStruct->FSMC_Setu
 341:../../source/src/FWlib/src/stm32f10x_fsmc.c ****   assert_param(IS_FSMC_WAIT_TIME(FSMC_PCCARDInitStruct->FSMC_AttributeSpaceTimingStruct->FSMC_WaitS
 342:../../source/src/FWlib/src/stm32f10x_fsmc.c ****   assert_param(IS_FSMC_HOLD_TIME(FSMC_PCCARDInitStruct->FSMC_AttributeSpaceTimingStruct->FSMC_HoldS
 343:../../source/src/FWlib/src/stm32f10x_fsmc.c ****   assert_param(IS_FSMC_HIZ_TIME(FSMC_PCCARDInitStruct->FSMC_AttributeSpaceTimingStruct->FSMC_HiZSet
 344:../../source/src/FWlib/src/stm32f10x_fsmc.c ****   assert_param(IS_FSMC_SETUP_TIME(FSMC_PCCARDInitStruct->FSMC_IOSpaceTimingStruct->FSMC_SetupTime))
 345:../../source/src/FWlib/src/stm32f10x_fsmc.c ****   assert_param(IS_FSMC_WAIT_TIME(FSMC_PCCARDInitStruct->FSMC_IOSpaceTimingStruct->FSMC_WaitSetupTim
 346:../../source/src/FWlib/src/stm32f10x_fsmc.c ****   assert_param(IS_FSMC_HOLD_TIME(FSMC_PCCARDInitStruct->FSMC_IOSpaceTimingStruct->FSMC_HoldSetupTim
 347:../../source/src/FWlib/src/stm32f10x_fsmc.c ****   assert_param(IS_FSMC_HIZ_TIME(FSMC_PCCARDInitStruct->FSMC_IOSpaceTimingStruct->FSMC_HiZSetupTime)
 348:../../source/src/FWlib/src/stm32f10x_fsmc.c ****   
 349:../../source/src/FWlib/src/stm32f10x_fsmc.c ****   /* Set the PCR4 register value according to FSMC_PCCARDInitStruct parameters */
 350:../../source/src/FWlib/src/stm32f10x_fsmc.c ****   FSMC_Bank4->PCR4 = (uint32_t)FSMC_PCCARDInitStruct->FSMC_Waitfeature |
 670              		.loc 1 350 0
 671 02f8 7B68     		ldr	r3, [r7, #4]
 672 02fa 1A68     		ldr	r2, [r3]
 351:../../source/src/FWlib/src/stm32f10x_fsmc.c ****                      FSMC_MemoryDataWidth_16b |  
 352:../../source/src/FWlib/src/stm32f10x_fsmc.c ****                      (FSMC_PCCARDInitStruct->FSMC_TCLRSetupTime << 9) |
 673              		.loc 1 352 0
 674 02fc 7B68     		ldr	r3, [r7, #4]
 675 02fe 5B68     		ldr	r3, [r3, #4]
 676 0300 5B02     		lsls	r3, r3, #9
 351:../../source/src/FWlib/src/stm32f10x_fsmc.c ****                      FSMC_MemoryDataWidth_16b |  
 677              		.loc 1 351 0
 678 0302 1A43     		orrs	r2, r2, r3
 353:../../source/src/FWlib/src/stm32f10x_fsmc.c ****                      (FSMC_PCCARDInitStruct->FSMC_TARSetupTime << 13);
 679              		.loc 1 353 0
 680 0304 7B68     		ldr	r3, [r7, #4]
 681 0306 9B68     		ldr	r3, [r3, #8]
ARM GAS  G:\Users\Jaxb\AppData\Local\Temp\ccbq8auC.s 			page 20


 682 0308 5B03     		lsls	r3, r3, #13
 352:../../source/src/FWlib/src/stm32f10x_fsmc.c ****                      (FSMC_PCCARDInitStruct->FSMC_TARSetupTime << 13);
 683              		.loc 1 352 0
 684 030a 1343     		orrs	r3, r3, r2
 350:../../source/src/FWlib/src/stm32f10x_fsmc.c ****                      FSMC_MemoryDataWidth_16b |  
 685              		.loc 1 350 0
 686 030c 224A     		ldr	r2, .L29
 352:../../source/src/FWlib/src/stm32f10x_fsmc.c ****                      (FSMC_PCCARDInitStruct->FSMC_TARSetupTime << 13);
 687              		.loc 1 352 0
 688 030e 43F01003 		orr	r3, r3, #16
 350:../../source/src/FWlib/src/stm32f10x_fsmc.c ****                      FSMC_MemoryDataWidth_16b |  
 689              		.loc 1 350 0
 690 0312 1360     		str	r3, [r2]
 354:../../source/src/FWlib/src/stm32f10x_fsmc.c ****             
 355:../../source/src/FWlib/src/stm32f10x_fsmc.c ****   /* Set PMEM4 register value according to FSMC_CommonSpaceTimingStructure parameters */
 356:../../source/src/FWlib/src/stm32f10x_fsmc.c ****   FSMC_Bank4->PMEM4 = (uint32_t)FSMC_PCCARDInitStruct->FSMC_CommonSpaceTimingStruct->FSMC_SetupTime
 691              		.loc 1 356 0
 692 0314 7B68     		ldr	r3, [r7, #4]
 693 0316 DB68     		ldr	r3, [r3, #12]
 694 0318 1A68     		ldr	r2, [r3]
 357:../../source/src/FWlib/src/stm32f10x_fsmc.c ****                       (FSMC_PCCARDInitStruct->FSMC_CommonSpaceTimingStruct->FSMC_WaitSetupTime << 8
 695              		.loc 1 357 0
 696 031a 7B68     		ldr	r3, [r7, #4]
 697 031c DB68     		ldr	r3, [r3, #12]
 698 031e 5B68     		ldr	r3, [r3, #4]
 699 0320 1B02     		lsls	r3, r3, #8
 356:../../source/src/FWlib/src/stm32f10x_fsmc.c ****                       (FSMC_PCCARDInitStruct->FSMC_CommonSpaceTimingStruct->FSMC_WaitSetupTime << 8
 700              		.loc 1 356 0
 701 0322 1A43     		orrs	r2, r2, r3
 358:../../source/src/FWlib/src/stm32f10x_fsmc.c ****                       (FSMC_PCCARDInitStruct->FSMC_CommonSpaceTimingStruct->FSMC_HoldSetupTime << 1
 702              		.loc 1 358 0
 703 0324 7B68     		ldr	r3, [r7, #4]
 704 0326 DB68     		ldr	r3, [r3, #12]
 705 0328 9B68     		ldr	r3, [r3, #8]
 706 032a 1B04     		lsls	r3, r3, #16
 357:../../source/src/FWlib/src/stm32f10x_fsmc.c ****                       (FSMC_PCCARDInitStruct->FSMC_CommonSpaceTimingStruct->FSMC_WaitSetupTime << 8
 707              		.loc 1 357 0
 708 032c 1A43     		orrs	r2, r2, r3
 359:../../source/src/FWlib/src/stm32f10x_fsmc.c ****                       (FSMC_PCCARDInitStruct->FSMC_CommonSpaceTimingStruct->FSMC_HiZSetupTime << 24
 709              		.loc 1 359 0
 710 032e 7B68     		ldr	r3, [r7, #4]
 711 0330 DB68     		ldr	r3, [r3, #12]
 712 0332 DB68     		ldr	r3, [r3, #12]
 713 0334 1B06     		lsls	r3, r3, #24
 356:../../source/src/FWlib/src/stm32f10x_fsmc.c ****                       (FSMC_PCCARDInitStruct->FSMC_CommonSpaceTimingStruct->FSMC_WaitSetupTime << 8
 714              		.loc 1 356 0
 715 0336 1849     		ldr	r1, .L29
 358:../../source/src/FWlib/src/stm32f10x_fsmc.c ****                       (FSMC_PCCARDInitStruct->FSMC_CommonSpaceTimingStruct->FSMC_HoldSetupTime << 1
 716              		.loc 1 358 0
 717 0338 1343     		orrs	r3, r3, r2
 356:../../source/src/FWlib/src/stm32f10x_fsmc.c ****                       (FSMC_PCCARDInitStruct->FSMC_CommonSpaceTimingStruct->FSMC_WaitSetupTime << 8
 718              		.loc 1 356 0
 719 033a 8B60     		str	r3, [r1, #8]
 360:../../source/src/FWlib/src/stm32f10x_fsmc.c ****             
 361:../../source/src/FWlib/src/stm32f10x_fsmc.c ****   /* Set PATT4 register value according to FSMC_AttributeSpaceTimingStructure parameters */
 362:../../source/src/FWlib/src/stm32f10x_fsmc.c ****   FSMC_Bank4->PATT4 = (uint32_t)FSMC_PCCARDInitStruct->FSMC_AttributeSpaceTimingStruct->FSMC_SetupT
 720              		.loc 1 362 0
ARM GAS  G:\Users\Jaxb\AppData\Local\Temp\ccbq8auC.s 			page 21


 721 033c 7B68     		ldr	r3, [r7, #4]
 722 033e 1B69     		ldr	r3, [r3, #16]
 723 0340 1A68     		ldr	r2, [r3]
 363:../../source/src/FWlib/src/stm32f10x_fsmc.c ****                       (FSMC_PCCARDInitStruct->FSMC_AttributeSpaceTimingStruct->FSMC_WaitSetupTime <
 724              		.loc 1 363 0
 725 0342 7B68     		ldr	r3, [r7, #4]
 726 0344 1B69     		ldr	r3, [r3, #16]
 727 0346 5B68     		ldr	r3, [r3, #4]
 728 0348 1B02     		lsls	r3, r3, #8
 362:../../source/src/FWlib/src/stm32f10x_fsmc.c ****                       (FSMC_PCCARDInitStruct->FSMC_AttributeSpaceTimingStruct->FSMC_WaitSetupTime <
 729              		.loc 1 362 0
 730 034a 1A43     		orrs	r2, r2, r3
 364:../../source/src/FWlib/src/stm32f10x_fsmc.c ****                       (FSMC_PCCARDInitStruct->FSMC_AttributeSpaceTimingStruct->FSMC_HoldSetupTime <
 731              		.loc 1 364 0
 732 034c 7B68     		ldr	r3, [r7, #4]
 733 034e 1B69     		ldr	r3, [r3, #16]
 734 0350 9B68     		ldr	r3, [r3, #8]
 735 0352 1B04     		lsls	r3, r3, #16
 363:../../source/src/FWlib/src/stm32f10x_fsmc.c ****                       (FSMC_PCCARDInitStruct->FSMC_AttributeSpaceTimingStruct->FSMC_WaitSetupTime <
 736              		.loc 1 363 0
 737 0354 1A43     		orrs	r2, r2, r3
 365:../../source/src/FWlib/src/stm32f10x_fsmc.c ****                       (FSMC_PCCARDInitStruct->FSMC_AttributeSpaceTimingStruct->FSMC_HiZSetupTime <<
 738              		.loc 1 365 0
 739 0356 7B68     		ldr	r3, [r7, #4]
 740 0358 1B69     		ldr	r3, [r3, #16]
 741 035a DB68     		ldr	r3, [r3, #12]
 742 035c 1B06     		lsls	r3, r3, #24
 362:../../source/src/FWlib/src/stm32f10x_fsmc.c ****                       (FSMC_PCCARDInitStruct->FSMC_AttributeSpaceTimingStruct->FSMC_WaitSetupTime <
 743              		.loc 1 362 0
 744 035e 0E49     		ldr	r1, .L29
 364:../../source/src/FWlib/src/stm32f10x_fsmc.c ****                       (FSMC_PCCARDInitStruct->FSMC_AttributeSpaceTimingStruct->FSMC_HoldSetupTime <
 745              		.loc 1 364 0
 746 0360 1343     		orrs	r3, r3, r2
 362:../../source/src/FWlib/src/stm32f10x_fsmc.c ****                       (FSMC_PCCARDInitStruct->FSMC_AttributeSpaceTimingStruct->FSMC_WaitSetupTime <
 747              		.loc 1 362 0
 748 0362 CB60     		str	r3, [r1, #12]
 366:../../source/src/FWlib/src/stm32f10x_fsmc.c ****             
 367:../../source/src/FWlib/src/stm32f10x_fsmc.c ****   /* Set PIO4 register value according to FSMC_IOSpaceTimingStructure parameters */
 368:../../source/src/FWlib/src/stm32f10x_fsmc.c ****   FSMC_Bank4->PIO4 = (uint32_t)FSMC_PCCARDInitStruct->FSMC_IOSpaceTimingStruct->FSMC_SetupTime |
 749              		.loc 1 368 0
 750 0364 7B68     		ldr	r3, [r7, #4]
 751 0366 5B69     		ldr	r3, [r3, #20]
 752 0368 1A68     		ldr	r2, [r3]
 369:../../source/src/FWlib/src/stm32f10x_fsmc.c ****                      (FSMC_PCCARDInitStruct->FSMC_IOSpaceTimingStruct->FSMC_WaitSetupTime << 8) |
 753              		.loc 1 369 0
 754 036a 7B68     		ldr	r3, [r7, #4]
 755 036c 5B69     		ldr	r3, [r3, #20]
 756 036e 5B68     		ldr	r3, [r3, #4]
 757 0370 1B02     		lsls	r3, r3, #8
 368:../../source/src/FWlib/src/stm32f10x_fsmc.c ****                      (FSMC_PCCARDInitStruct->FSMC_IOSpaceTimingStruct->FSMC_WaitSetupTime << 8) |
 758              		.loc 1 368 0
 759 0372 1A43     		orrs	r2, r2, r3
 370:../../source/src/FWlib/src/stm32f10x_fsmc.c ****                      (FSMC_PCCARDInitStruct->FSMC_IOSpaceTimingStruct->FSMC_HoldSetupTime << 16)|
 760              		.loc 1 370 0
 761 0374 7B68     		ldr	r3, [r7, #4]
 762 0376 5B69     		ldr	r3, [r3, #20]
 763 0378 9B68     		ldr	r3, [r3, #8]
ARM GAS  G:\Users\Jaxb\AppData\Local\Temp\ccbq8auC.s 			page 22


 764 037a 1B04     		lsls	r3, r3, #16
 369:../../source/src/FWlib/src/stm32f10x_fsmc.c ****                      (FSMC_PCCARDInitStruct->FSMC_IOSpaceTimingStruct->FSMC_WaitSetupTime << 8) |
 765              		.loc 1 369 0
 766 037c 1A43     		orrs	r2, r2, r3
 371:../../source/src/FWlib/src/stm32f10x_fsmc.c ****                      (FSMC_PCCARDInitStruct->FSMC_IOSpaceTimingStruct->FSMC_HiZSetupTime << 24);   
 767              		.loc 1 371 0
 768 037e 7B68     		ldr	r3, [r7, #4]
 769 0380 5B69     		ldr	r3, [r3, #20]
 770 0382 DB68     		ldr	r3, [r3, #12]
 771 0384 1B06     		lsls	r3, r3, #24
 368:../../source/src/FWlib/src/stm32f10x_fsmc.c ****                      (FSMC_PCCARDInitStruct->FSMC_IOSpaceTimingStruct->FSMC_WaitSetupTime << 8) |
 772              		.loc 1 368 0
 773 0386 0449     		ldr	r1, .L29
 370:../../source/src/FWlib/src/stm32f10x_fsmc.c ****                      (FSMC_PCCARDInitStruct->FSMC_IOSpaceTimingStruct->FSMC_HoldSetupTime << 16)|
 774              		.loc 1 370 0
 775 0388 1343     		orrs	r3, r3, r2
 368:../../source/src/FWlib/src/stm32f10x_fsmc.c ****                      (FSMC_PCCARDInitStruct->FSMC_IOSpaceTimingStruct->FSMC_WaitSetupTime << 8) |
 776              		.loc 1 368 0
 777 038a 0B61     		str	r3, [r1, #16]
 372:../../source/src/FWlib/src/stm32f10x_fsmc.c **** }
 778              		.loc 1 372 0
 779 038c 00BF     		nop
 780 038e 0C37     		adds	r7, r7, #12
 781              	.LCFI31:
 782              		.cfi_def_cfa_offset 4
 783 0390 BD46     		mov	sp, r7
 784              	.LCFI32:
 785              		.cfi_def_cfa_register 13
 786              		@ sp needed
 787 0392 80BC     		pop	{r7}
 788              	.LCFI33:
 789              		.cfi_restore 7
 790              		.cfi_def_cfa_offset 0
 791 0394 7047     		bx	lr
 792              	.L30:
 793 0396 00BF     		.align	2
 794              	.L29:
 795 0398 A00000A0 		.word	-1610612576
 796              		.cfi_endproc
 797              	.LFE34:
 798              		.size	FSMC_PCCARDInit, .-FSMC_PCCARDInit
 799              		.align	1
 800              		.global	FSMC_NORSRAMStructInit
 801              		.syntax unified
 802              		.thumb
 803              		.thumb_func
 804              		.fpu softvfp
 805              		.type	FSMC_NORSRAMStructInit, %function
 806              	FSMC_NORSRAMStructInit:
 807              	.LFB35:
 373:../../source/src/FWlib/src/stm32f10x_fsmc.c **** 
 374:../../source/src/FWlib/src/stm32f10x_fsmc.c **** /**
 375:../../source/src/FWlib/src/stm32f10x_fsmc.c ****   * @brief  Fills each FSMC_NORSRAMInitStruct member with its default value.
 376:../../source/src/FWlib/src/stm32f10x_fsmc.c ****   * @param  FSMC_NORSRAMInitStruct: pointer to a FSMC_NORSRAMInitTypeDef 
 377:../../source/src/FWlib/src/stm32f10x_fsmc.c ****   *         structure which will be initialized.
 378:../../source/src/FWlib/src/stm32f10x_fsmc.c ****   * @retval None
 379:../../source/src/FWlib/src/stm32f10x_fsmc.c ****   */
ARM GAS  G:\Users\Jaxb\AppData\Local\Temp\ccbq8auC.s 			page 23


 380:../../source/src/FWlib/src/stm32f10x_fsmc.c **** void FSMC_NORSRAMStructInit(FSMC_NORSRAMInitTypeDef* FSMC_NORSRAMInitStruct)
 381:../../source/src/FWlib/src/stm32f10x_fsmc.c **** {  
 808              		.loc 1 381 0
 809              		.cfi_startproc
 810              		@ args = 0, pretend = 0, frame = 8
 811              		@ frame_needed = 1, uses_anonymous_args = 0
 812              		@ link register save eliminated.
 813 039c 80B4     		push	{r7}
 814              	.LCFI34:
 815              		.cfi_def_cfa_offset 4
 816              		.cfi_offset 7, -4
 817 039e 83B0     		sub	sp, sp, #12
 818              	.LCFI35:
 819              		.cfi_def_cfa_offset 16
 820 03a0 00AF     		add	r7, sp, #0
 821              	.LCFI36:
 822              		.cfi_def_cfa_register 7
 823 03a2 7860     		str	r0, [r7, #4]
 382:../../source/src/FWlib/src/stm32f10x_fsmc.c ****   /* Reset NOR/SRAM Init structure parameters values */
 383:../../source/src/FWlib/src/stm32f10x_fsmc.c ****   FSMC_NORSRAMInitStruct->FSMC_Bank = FSMC_Bank1_NORSRAM1;
 824              		.loc 1 383 0
 825 03a4 7B68     		ldr	r3, [r7, #4]
 826 03a6 0022     		movs	r2, #0
 827 03a8 1A60     		str	r2, [r3]
 384:../../source/src/FWlib/src/stm32f10x_fsmc.c ****   FSMC_NORSRAMInitStruct->FSMC_DataAddressMux = FSMC_DataAddressMux_Enable;
 828              		.loc 1 384 0
 829 03aa 7B68     		ldr	r3, [r7, #4]
 830 03ac 0222     		movs	r2, #2
 831 03ae 5A60     		str	r2, [r3, #4]
 385:../../source/src/FWlib/src/stm32f10x_fsmc.c ****   FSMC_NORSRAMInitStruct->FSMC_MemoryType = FSMC_MemoryType_SRAM;
 832              		.loc 1 385 0
 833 03b0 7B68     		ldr	r3, [r7, #4]
 834 03b2 0022     		movs	r2, #0
 835 03b4 9A60     		str	r2, [r3, #8]
 386:../../source/src/FWlib/src/stm32f10x_fsmc.c ****   FSMC_NORSRAMInitStruct->FSMC_MemoryDataWidth = FSMC_MemoryDataWidth_8b;
 836              		.loc 1 386 0
 837 03b6 7B68     		ldr	r3, [r7, #4]
 838 03b8 0022     		movs	r2, #0
 839 03ba DA60     		str	r2, [r3, #12]
 387:../../source/src/FWlib/src/stm32f10x_fsmc.c ****   FSMC_NORSRAMInitStruct->FSMC_BurstAccessMode = FSMC_BurstAccessMode_Disable;
 840              		.loc 1 387 0
 841 03bc 7B68     		ldr	r3, [r7, #4]
 842 03be 0022     		movs	r2, #0
 843 03c0 1A61     		str	r2, [r3, #16]
 388:../../source/src/FWlib/src/stm32f10x_fsmc.c ****   FSMC_NORSRAMInitStruct->FSMC_AsynchronousWait = FSMC_AsynchronousWait_Disable;
 844              		.loc 1 388 0
 845 03c2 7B68     		ldr	r3, [r7, #4]
 846 03c4 0022     		movs	r2, #0
 847 03c6 5A61     		str	r2, [r3, #20]
 389:../../source/src/FWlib/src/stm32f10x_fsmc.c ****   FSMC_NORSRAMInitStruct->FSMC_WaitSignalPolarity = FSMC_WaitSignalPolarity_Low;
 848              		.loc 1 389 0
 849 03c8 7B68     		ldr	r3, [r7, #4]
 850 03ca 0022     		movs	r2, #0
 851 03cc 9A61     		str	r2, [r3, #24]
 390:../../source/src/FWlib/src/stm32f10x_fsmc.c ****   FSMC_NORSRAMInitStruct->FSMC_WrapMode = FSMC_WrapMode_Disable;
 852              		.loc 1 390 0
 853 03ce 7B68     		ldr	r3, [r7, #4]
ARM GAS  G:\Users\Jaxb\AppData\Local\Temp\ccbq8auC.s 			page 24


 854 03d0 0022     		movs	r2, #0
 855 03d2 DA61     		str	r2, [r3, #28]
 391:../../source/src/FWlib/src/stm32f10x_fsmc.c ****   FSMC_NORSRAMInitStruct->FSMC_WaitSignalActive = FSMC_WaitSignalActive_BeforeWaitState;
 856              		.loc 1 391 0
 857 03d4 7B68     		ldr	r3, [r7, #4]
 858 03d6 0022     		movs	r2, #0
 859 03d8 1A62     		str	r2, [r3, #32]
 392:../../source/src/FWlib/src/stm32f10x_fsmc.c ****   FSMC_NORSRAMInitStruct->FSMC_WriteOperation = FSMC_WriteOperation_Enable;
 860              		.loc 1 392 0
 861 03da 7B68     		ldr	r3, [r7, #4]
 862 03dc 4FF48052 		mov	r2, #4096
 863 03e0 5A62     		str	r2, [r3, #36]
 393:../../source/src/FWlib/src/stm32f10x_fsmc.c ****   FSMC_NORSRAMInitStruct->FSMC_WaitSignal = FSMC_WaitSignal_Enable;
 864              		.loc 1 393 0
 865 03e2 7B68     		ldr	r3, [r7, #4]
 866 03e4 4FF40052 		mov	r2, #8192
 867 03e8 9A62     		str	r2, [r3, #40]
 394:../../source/src/FWlib/src/stm32f10x_fsmc.c ****   FSMC_NORSRAMInitStruct->FSMC_ExtendedMode = FSMC_ExtendedMode_Disable;
 868              		.loc 1 394 0
 869 03ea 7B68     		ldr	r3, [r7, #4]
 870 03ec 0022     		movs	r2, #0
 871 03ee DA62     		str	r2, [r3, #44]
 395:../../source/src/FWlib/src/stm32f10x_fsmc.c ****   FSMC_NORSRAMInitStruct->FSMC_WriteBurst = FSMC_WriteBurst_Disable;
 872              		.loc 1 395 0
 873 03f0 7B68     		ldr	r3, [r7, #4]
 874 03f2 0022     		movs	r2, #0
 875 03f4 1A63     		str	r2, [r3, #48]
 396:../../source/src/FWlib/src/stm32f10x_fsmc.c ****   FSMC_NORSRAMInitStruct->FSMC_ReadWriteTimingStruct->FSMC_AddressSetupTime = 0xF;
 876              		.loc 1 396 0
 877 03f6 7B68     		ldr	r3, [r7, #4]
 878 03f8 5B6B     		ldr	r3, [r3, #52]
 879 03fa 0F22     		movs	r2, #15
 880 03fc 1A60     		str	r2, [r3]
 397:../../source/src/FWlib/src/stm32f10x_fsmc.c ****   FSMC_NORSRAMInitStruct->FSMC_ReadWriteTimingStruct->FSMC_AddressHoldTime = 0xF;
 881              		.loc 1 397 0
 882 03fe 7B68     		ldr	r3, [r7, #4]
 883 0400 5B6B     		ldr	r3, [r3, #52]
 884 0402 0F22     		movs	r2, #15
 885 0404 5A60     		str	r2, [r3, #4]
 398:../../source/src/FWlib/src/stm32f10x_fsmc.c ****   FSMC_NORSRAMInitStruct->FSMC_ReadWriteTimingStruct->FSMC_DataSetupTime = 0xFF;
 886              		.loc 1 398 0
 887 0406 7B68     		ldr	r3, [r7, #4]
 888 0408 5B6B     		ldr	r3, [r3, #52]
 889 040a FF22     		movs	r2, #255
 890 040c 9A60     		str	r2, [r3, #8]
 399:../../source/src/FWlib/src/stm32f10x_fsmc.c ****   FSMC_NORSRAMInitStruct->FSMC_ReadWriteTimingStruct->FSMC_BusTurnAroundDuration = 0xF;
 891              		.loc 1 399 0
 892 040e 7B68     		ldr	r3, [r7, #4]
 893 0410 5B6B     		ldr	r3, [r3, #52]
 894 0412 0F22     		movs	r2, #15
 895 0414 DA60     		str	r2, [r3, #12]
 400:../../source/src/FWlib/src/stm32f10x_fsmc.c ****   FSMC_NORSRAMInitStruct->FSMC_ReadWriteTimingStruct->FSMC_CLKDivision = 0xF;
 896              		.loc 1 400 0
 897 0416 7B68     		ldr	r3, [r7, #4]
 898 0418 5B6B     		ldr	r3, [r3, #52]
 899 041a 0F22     		movs	r2, #15
 900 041c 1A61     		str	r2, [r3, #16]
ARM GAS  G:\Users\Jaxb\AppData\Local\Temp\ccbq8auC.s 			page 25


 401:../../source/src/FWlib/src/stm32f10x_fsmc.c ****   FSMC_NORSRAMInitStruct->FSMC_ReadWriteTimingStruct->FSMC_DataLatency = 0xF;
 901              		.loc 1 401 0
 902 041e 7B68     		ldr	r3, [r7, #4]
 903 0420 5B6B     		ldr	r3, [r3, #52]
 904 0422 0F22     		movs	r2, #15
 905 0424 5A61     		str	r2, [r3, #20]
 402:../../source/src/FWlib/src/stm32f10x_fsmc.c ****   FSMC_NORSRAMInitStruct->FSMC_ReadWriteTimingStruct->FSMC_AccessMode = FSMC_AccessMode_A; 
 906              		.loc 1 402 0
 907 0426 7B68     		ldr	r3, [r7, #4]
 908 0428 5B6B     		ldr	r3, [r3, #52]
 909 042a 0022     		movs	r2, #0
 910 042c 9A61     		str	r2, [r3, #24]
 403:../../source/src/FWlib/src/stm32f10x_fsmc.c ****   FSMC_NORSRAMInitStruct->FSMC_WriteTimingStruct->FSMC_AddressSetupTime = 0xF;
 911              		.loc 1 403 0
 912 042e 7B68     		ldr	r3, [r7, #4]
 913 0430 9B6B     		ldr	r3, [r3, #56]
 914 0432 0F22     		movs	r2, #15
 915 0434 1A60     		str	r2, [r3]
 404:../../source/src/FWlib/src/stm32f10x_fsmc.c ****   FSMC_NORSRAMInitStruct->FSMC_WriteTimingStruct->FSMC_AddressHoldTime = 0xF;
 916              		.loc 1 404 0
 917 0436 7B68     		ldr	r3, [r7, #4]
 918 0438 9B6B     		ldr	r3, [r3, #56]
 919 043a 0F22     		movs	r2, #15
 920 043c 5A60     		str	r2, [r3, #4]
 405:../../source/src/FWlib/src/stm32f10x_fsmc.c ****   FSMC_NORSRAMInitStruct->FSMC_WriteTimingStruct->FSMC_DataSetupTime = 0xFF;
 921              		.loc 1 405 0
 922 043e 7B68     		ldr	r3, [r7, #4]
 923 0440 9B6B     		ldr	r3, [r3, #56]
 924 0442 FF22     		movs	r2, #255
 925 0444 9A60     		str	r2, [r3, #8]
 406:../../source/src/FWlib/src/stm32f10x_fsmc.c ****   FSMC_NORSRAMInitStruct->FSMC_WriteTimingStruct->FSMC_BusTurnAroundDuration = 0xF;
 926              		.loc 1 406 0
 927 0446 7B68     		ldr	r3, [r7, #4]
 928 0448 9B6B     		ldr	r3, [r3, #56]
 929 044a 0F22     		movs	r2, #15
 930 044c DA60     		str	r2, [r3, #12]
 407:../../source/src/FWlib/src/stm32f10x_fsmc.c ****   FSMC_NORSRAMInitStruct->FSMC_WriteTimingStruct->FSMC_CLKDivision = 0xF;
 931              		.loc 1 407 0
 932 044e 7B68     		ldr	r3, [r7, #4]
 933 0450 9B6B     		ldr	r3, [r3, #56]
 934 0452 0F22     		movs	r2, #15
 935 0454 1A61     		str	r2, [r3, #16]
 408:../../source/src/FWlib/src/stm32f10x_fsmc.c ****   FSMC_NORSRAMInitStruct->FSMC_WriteTimingStruct->FSMC_DataLatency = 0xF;
 936              		.loc 1 408 0
 937 0456 7B68     		ldr	r3, [r7, #4]
 938 0458 9B6B     		ldr	r3, [r3, #56]
 939 045a 0F22     		movs	r2, #15
 940 045c 5A61     		str	r2, [r3, #20]
 409:../../source/src/FWlib/src/stm32f10x_fsmc.c ****   FSMC_NORSRAMInitStruct->FSMC_WriteTimingStruct->FSMC_AccessMode = FSMC_AccessMode_A;
 941              		.loc 1 409 0
 942 045e 7B68     		ldr	r3, [r7, #4]
 943 0460 9B6B     		ldr	r3, [r3, #56]
 944 0462 0022     		movs	r2, #0
 945 0464 9A61     		str	r2, [r3, #24]
 410:../../source/src/FWlib/src/stm32f10x_fsmc.c **** }
 946              		.loc 1 410 0
 947 0466 00BF     		nop
ARM GAS  G:\Users\Jaxb\AppData\Local\Temp\ccbq8auC.s 			page 26


 948 0468 0C37     		adds	r7, r7, #12
 949              	.LCFI37:
 950              		.cfi_def_cfa_offset 4
 951 046a BD46     		mov	sp, r7
 952              	.LCFI38:
 953              		.cfi_def_cfa_register 13
 954              		@ sp needed
 955 046c 80BC     		pop	{r7}
 956              	.LCFI39:
 957              		.cfi_restore 7
 958              		.cfi_def_cfa_offset 0
 959 046e 7047     		bx	lr
 960              		.cfi_endproc
 961              	.LFE35:
 962              		.size	FSMC_NORSRAMStructInit, .-FSMC_NORSRAMStructInit
 963              		.align	1
 964              		.global	FSMC_NANDStructInit
 965              		.syntax unified
 966              		.thumb
 967              		.thumb_func
 968              		.fpu softvfp
 969              		.type	FSMC_NANDStructInit, %function
 970              	FSMC_NANDStructInit:
 971              	.LFB36:
 411:../../source/src/FWlib/src/stm32f10x_fsmc.c **** 
 412:../../source/src/FWlib/src/stm32f10x_fsmc.c **** /**
 413:../../source/src/FWlib/src/stm32f10x_fsmc.c ****   * @brief  Fills each FSMC_NANDInitStruct member with its default value.
 414:../../source/src/FWlib/src/stm32f10x_fsmc.c ****   * @param  FSMC_NANDInitStruct: pointer to a FSMC_NANDInitTypeDef 
 415:../../source/src/FWlib/src/stm32f10x_fsmc.c ****   *         structure which will be initialized.
 416:../../source/src/FWlib/src/stm32f10x_fsmc.c ****   * @retval None
 417:../../source/src/FWlib/src/stm32f10x_fsmc.c ****   */
 418:../../source/src/FWlib/src/stm32f10x_fsmc.c **** void FSMC_NANDStructInit(FSMC_NANDInitTypeDef* FSMC_NANDInitStruct)
 419:../../source/src/FWlib/src/stm32f10x_fsmc.c **** { 
 972              		.loc 1 419 0
 973              		.cfi_startproc
 974              		@ args = 0, pretend = 0, frame = 8
 975              		@ frame_needed = 1, uses_anonymous_args = 0
 976              		@ link register save eliminated.
 977 0470 80B4     		push	{r7}
 978              	.LCFI40:
 979              		.cfi_def_cfa_offset 4
 980              		.cfi_offset 7, -4
 981 0472 83B0     		sub	sp, sp, #12
 982              	.LCFI41:
 983              		.cfi_def_cfa_offset 16
 984 0474 00AF     		add	r7, sp, #0
 985              	.LCFI42:
 986              		.cfi_def_cfa_register 7
 987 0476 7860     		str	r0, [r7, #4]
 420:../../source/src/FWlib/src/stm32f10x_fsmc.c ****   /* Reset NAND Init structure parameters values */
 421:../../source/src/FWlib/src/stm32f10x_fsmc.c ****   FSMC_NANDInitStruct->FSMC_Bank = FSMC_Bank2_NAND;
 988              		.loc 1 421 0
 989 0478 7B68     		ldr	r3, [r7, #4]
 990 047a 1022     		movs	r2, #16
 991 047c 1A60     		str	r2, [r3]
 422:../../source/src/FWlib/src/stm32f10x_fsmc.c ****   FSMC_NANDInitStruct->FSMC_Waitfeature = FSMC_Waitfeature_Disable;
 992              		.loc 1 422 0
ARM GAS  G:\Users\Jaxb\AppData\Local\Temp\ccbq8auC.s 			page 27


 993 047e 7B68     		ldr	r3, [r7, #4]
 994 0480 0022     		movs	r2, #0
 995 0482 5A60     		str	r2, [r3, #4]
 423:../../source/src/FWlib/src/stm32f10x_fsmc.c ****   FSMC_NANDInitStruct->FSMC_MemoryDataWidth = FSMC_MemoryDataWidth_8b;
 996              		.loc 1 423 0
 997 0484 7B68     		ldr	r3, [r7, #4]
 998 0486 0022     		movs	r2, #0
 999 0488 9A60     		str	r2, [r3, #8]
 424:../../source/src/FWlib/src/stm32f10x_fsmc.c ****   FSMC_NANDInitStruct->FSMC_ECC = FSMC_ECC_Disable;
 1000              		.loc 1 424 0
 1001 048a 7B68     		ldr	r3, [r7, #4]
 1002 048c 0022     		movs	r2, #0
 1003 048e DA60     		str	r2, [r3, #12]
 425:../../source/src/FWlib/src/stm32f10x_fsmc.c ****   FSMC_NANDInitStruct->FSMC_ECCPageSize = FSMC_ECCPageSize_256Bytes;
 1004              		.loc 1 425 0
 1005 0490 7B68     		ldr	r3, [r7, #4]
 1006 0492 0022     		movs	r2, #0
 1007 0494 1A61     		str	r2, [r3, #16]
 426:../../source/src/FWlib/src/stm32f10x_fsmc.c ****   FSMC_NANDInitStruct->FSMC_TCLRSetupTime = 0x0;
 1008              		.loc 1 426 0
 1009 0496 7B68     		ldr	r3, [r7, #4]
 1010 0498 0022     		movs	r2, #0
 1011 049a 5A61     		str	r2, [r3, #20]
 427:../../source/src/FWlib/src/stm32f10x_fsmc.c ****   FSMC_NANDInitStruct->FSMC_TARSetupTime = 0x0;
 1012              		.loc 1 427 0
 1013 049c 7B68     		ldr	r3, [r7, #4]
 1014 049e 0022     		movs	r2, #0
 1015 04a0 9A61     		str	r2, [r3, #24]
 428:../../source/src/FWlib/src/stm32f10x_fsmc.c ****   FSMC_NANDInitStruct->FSMC_CommonSpaceTimingStruct->FSMC_SetupTime = 0xFC;
 1016              		.loc 1 428 0
 1017 04a2 7B68     		ldr	r3, [r7, #4]
 1018 04a4 DB69     		ldr	r3, [r3, #28]
 1019 04a6 FC22     		movs	r2, #252
 1020 04a8 1A60     		str	r2, [r3]
 429:../../source/src/FWlib/src/stm32f10x_fsmc.c ****   FSMC_NANDInitStruct->FSMC_CommonSpaceTimingStruct->FSMC_WaitSetupTime = 0xFC;
 1021              		.loc 1 429 0
 1022 04aa 7B68     		ldr	r3, [r7, #4]
 1023 04ac DB69     		ldr	r3, [r3, #28]
 1024 04ae FC22     		movs	r2, #252
 1025 04b0 5A60     		str	r2, [r3, #4]
 430:../../source/src/FWlib/src/stm32f10x_fsmc.c ****   FSMC_NANDInitStruct->FSMC_CommonSpaceTimingStruct->FSMC_HoldSetupTime = 0xFC;
 1026              		.loc 1 430 0
 1027 04b2 7B68     		ldr	r3, [r7, #4]
 1028 04b4 DB69     		ldr	r3, [r3, #28]
 1029 04b6 FC22     		movs	r2, #252
 1030 04b8 9A60     		str	r2, [r3, #8]
 431:../../source/src/FWlib/src/stm32f10x_fsmc.c ****   FSMC_NANDInitStruct->FSMC_CommonSpaceTimingStruct->FSMC_HiZSetupTime = 0xFC;
 1031              		.loc 1 431 0
 1032 04ba 7B68     		ldr	r3, [r7, #4]
 1033 04bc DB69     		ldr	r3, [r3, #28]
 1034 04be FC22     		movs	r2, #252
 1035 04c0 DA60     		str	r2, [r3, #12]
 432:../../source/src/FWlib/src/stm32f10x_fsmc.c ****   FSMC_NANDInitStruct->FSMC_AttributeSpaceTimingStruct->FSMC_SetupTime = 0xFC;
 1036              		.loc 1 432 0
 1037 04c2 7B68     		ldr	r3, [r7, #4]
 1038 04c4 1B6A     		ldr	r3, [r3, #32]
 1039 04c6 FC22     		movs	r2, #252
ARM GAS  G:\Users\Jaxb\AppData\Local\Temp\ccbq8auC.s 			page 28


 1040 04c8 1A60     		str	r2, [r3]
 433:../../source/src/FWlib/src/stm32f10x_fsmc.c ****   FSMC_NANDInitStruct->FSMC_AttributeSpaceTimingStruct->FSMC_WaitSetupTime = 0xFC;
 1041              		.loc 1 433 0
 1042 04ca 7B68     		ldr	r3, [r7, #4]
 1043 04cc 1B6A     		ldr	r3, [r3, #32]
 1044 04ce FC22     		movs	r2, #252
 1045 04d0 5A60     		str	r2, [r3, #4]
 434:../../source/src/FWlib/src/stm32f10x_fsmc.c ****   FSMC_NANDInitStruct->FSMC_AttributeSpaceTimingStruct->FSMC_HoldSetupTime = 0xFC;
 1046              		.loc 1 434 0
 1047 04d2 7B68     		ldr	r3, [r7, #4]
 1048 04d4 1B6A     		ldr	r3, [r3, #32]
 1049 04d6 FC22     		movs	r2, #252
 1050 04d8 9A60     		str	r2, [r3, #8]
 435:../../source/src/FWlib/src/stm32f10x_fsmc.c ****   FSMC_NANDInitStruct->FSMC_AttributeSpaceTimingStruct->FSMC_HiZSetupTime = 0xFC;	  
 1051              		.loc 1 435 0
 1052 04da 7B68     		ldr	r3, [r7, #4]
 1053 04dc 1B6A     		ldr	r3, [r3, #32]
 1054 04de FC22     		movs	r2, #252
 1055 04e0 DA60     		str	r2, [r3, #12]
 436:../../source/src/FWlib/src/stm32f10x_fsmc.c **** }
 1056              		.loc 1 436 0
 1057 04e2 00BF     		nop
 1058 04e4 0C37     		adds	r7, r7, #12
 1059              	.LCFI43:
 1060              		.cfi_def_cfa_offset 4
 1061 04e6 BD46     		mov	sp, r7
 1062              	.LCFI44:
 1063              		.cfi_def_cfa_register 13
 1064              		@ sp needed
 1065 04e8 80BC     		pop	{r7}
 1066              	.LCFI45:
 1067              		.cfi_restore 7
 1068              		.cfi_def_cfa_offset 0
 1069 04ea 7047     		bx	lr
 1070              		.cfi_endproc
 1071              	.LFE36:
 1072              		.size	FSMC_NANDStructInit, .-FSMC_NANDStructInit
 1073              		.align	1
 1074              		.global	FSMC_PCCARDStructInit
 1075              		.syntax unified
 1076              		.thumb
 1077              		.thumb_func
 1078              		.fpu softvfp
 1079              		.type	FSMC_PCCARDStructInit, %function
 1080              	FSMC_PCCARDStructInit:
 1081              	.LFB37:
 437:../../source/src/FWlib/src/stm32f10x_fsmc.c **** 
 438:../../source/src/FWlib/src/stm32f10x_fsmc.c **** /**
 439:../../source/src/FWlib/src/stm32f10x_fsmc.c ****   * @brief  Fills each FSMC_PCCARDInitStruct member with its default value.
 440:../../source/src/FWlib/src/stm32f10x_fsmc.c ****   * @param  FSMC_PCCARDInitStruct: pointer to a FSMC_PCCARDInitTypeDef 
 441:../../source/src/FWlib/src/stm32f10x_fsmc.c ****   *         structure which will be initialized.
 442:../../source/src/FWlib/src/stm32f10x_fsmc.c ****   * @retval None
 443:../../source/src/FWlib/src/stm32f10x_fsmc.c ****   */
 444:../../source/src/FWlib/src/stm32f10x_fsmc.c **** void FSMC_PCCARDStructInit(FSMC_PCCARDInitTypeDef* FSMC_PCCARDInitStruct)
 445:../../source/src/FWlib/src/stm32f10x_fsmc.c **** {
 1082              		.loc 1 445 0
 1083              		.cfi_startproc
ARM GAS  G:\Users\Jaxb\AppData\Local\Temp\ccbq8auC.s 			page 29


 1084              		@ args = 0, pretend = 0, frame = 8
 1085              		@ frame_needed = 1, uses_anonymous_args = 0
 1086              		@ link register save eliminated.
 1087 04ec 80B4     		push	{r7}
 1088              	.LCFI46:
 1089              		.cfi_def_cfa_offset 4
 1090              		.cfi_offset 7, -4
 1091 04ee 83B0     		sub	sp, sp, #12
 1092              	.LCFI47:
 1093              		.cfi_def_cfa_offset 16
 1094 04f0 00AF     		add	r7, sp, #0
 1095              	.LCFI48:
 1096              		.cfi_def_cfa_register 7
 1097 04f2 7860     		str	r0, [r7, #4]
 446:../../source/src/FWlib/src/stm32f10x_fsmc.c ****   /* Reset PCCARD Init structure parameters values */
 447:../../source/src/FWlib/src/stm32f10x_fsmc.c ****   FSMC_PCCARDInitStruct->FSMC_Waitfeature = FSMC_Waitfeature_Disable;
 1098              		.loc 1 447 0
 1099 04f4 7B68     		ldr	r3, [r7, #4]
 1100 04f6 0022     		movs	r2, #0
 1101 04f8 1A60     		str	r2, [r3]
 448:../../source/src/FWlib/src/stm32f10x_fsmc.c ****   FSMC_PCCARDInitStruct->FSMC_TCLRSetupTime = 0x0;
 1102              		.loc 1 448 0
 1103 04fa 7B68     		ldr	r3, [r7, #4]
 1104 04fc 0022     		movs	r2, #0
 1105 04fe 5A60     		str	r2, [r3, #4]
 449:../../source/src/FWlib/src/stm32f10x_fsmc.c ****   FSMC_PCCARDInitStruct->FSMC_TARSetupTime = 0x0;
 1106              		.loc 1 449 0
 1107 0500 7B68     		ldr	r3, [r7, #4]
 1108 0502 0022     		movs	r2, #0
 1109 0504 9A60     		str	r2, [r3, #8]
 450:../../source/src/FWlib/src/stm32f10x_fsmc.c ****   FSMC_PCCARDInitStruct->FSMC_CommonSpaceTimingStruct->FSMC_SetupTime = 0xFC;
 1110              		.loc 1 450 0
 1111 0506 7B68     		ldr	r3, [r7, #4]
 1112 0508 DB68     		ldr	r3, [r3, #12]
 1113 050a FC22     		movs	r2, #252
 1114 050c 1A60     		str	r2, [r3]
 451:../../source/src/FWlib/src/stm32f10x_fsmc.c ****   FSMC_PCCARDInitStruct->FSMC_CommonSpaceTimingStruct->FSMC_WaitSetupTime = 0xFC;
 1115              		.loc 1 451 0
 1116 050e 7B68     		ldr	r3, [r7, #4]
 1117 0510 DB68     		ldr	r3, [r3, #12]
 1118 0512 FC22     		movs	r2, #252
 1119 0514 5A60     		str	r2, [r3, #4]
 452:../../source/src/FWlib/src/stm32f10x_fsmc.c ****   FSMC_PCCARDInitStruct->FSMC_CommonSpaceTimingStruct->FSMC_HoldSetupTime = 0xFC;
 1120              		.loc 1 452 0
 1121 0516 7B68     		ldr	r3, [r7, #4]
 1122 0518 DB68     		ldr	r3, [r3, #12]
 1123 051a FC22     		movs	r2, #252
 1124 051c 9A60     		str	r2, [r3, #8]
 453:../../source/src/FWlib/src/stm32f10x_fsmc.c ****   FSMC_PCCARDInitStruct->FSMC_CommonSpaceTimingStruct->FSMC_HiZSetupTime = 0xFC;
 1125              		.loc 1 453 0
 1126 051e 7B68     		ldr	r3, [r7, #4]
 1127 0520 DB68     		ldr	r3, [r3, #12]
 1128 0522 FC22     		movs	r2, #252
 1129 0524 DA60     		str	r2, [r3, #12]
 454:../../source/src/FWlib/src/stm32f10x_fsmc.c ****   FSMC_PCCARDInitStruct->FSMC_AttributeSpaceTimingStruct->FSMC_SetupTime = 0xFC;
 1130              		.loc 1 454 0
 1131 0526 7B68     		ldr	r3, [r7, #4]
ARM GAS  G:\Users\Jaxb\AppData\Local\Temp\ccbq8auC.s 			page 30


 1132 0528 1B69     		ldr	r3, [r3, #16]
 1133 052a FC22     		movs	r2, #252
 1134 052c 1A60     		str	r2, [r3]
 455:../../source/src/FWlib/src/stm32f10x_fsmc.c ****   FSMC_PCCARDInitStruct->FSMC_AttributeSpaceTimingStruct->FSMC_WaitSetupTime = 0xFC;
 1135              		.loc 1 455 0
 1136 052e 7B68     		ldr	r3, [r7, #4]
 1137 0530 1B69     		ldr	r3, [r3, #16]
 1138 0532 FC22     		movs	r2, #252
 1139 0534 5A60     		str	r2, [r3, #4]
 456:../../source/src/FWlib/src/stm32f10x_fsmc.c ****   FSMC_PCCARDInitStruct->FSMC_AttributeSpaceTimingStruct->FSMC_HoldSetupTime = 0xFC;
 1140              		.loc 1 456 0
 1141 0536 7B68     		ldr	r3, [r7, #4]
 1142 0538 1B69     		ldr	r3, [r3, #16]
 1143 053a FC22     		movs	r2, #252
 1144 053c 9A60     		str	r2, [r3, #8]
 457:../../source/src/FWlib/src/stm32f10x_fsmc.c ****   FSMC_PCCARDInitStruct->FSMC_AttributeSpaceTimingStruct->FSMC_HiZSetupTime = 0xFC;	
 1145              		.loc 1 457 0
 1146 053e 7B68     		ldr	r3, [r7, #4]
 1147 0540 1B69     		ldr	r3, [r3, #16]
 1148 0542 FC22     		movs	r2, #252
 1149 0544 DA60     		str	r2, [r3, #12]
 458:../../source/src/FWlib/src/stm32f10x_fsmc.c ****   FSMC_PCCARDInitStruct->FSMC_IOSpaceTimingStruct->FSMC_SetupTime = 0xFC;
 1150              		.loc 1 458 0
 1151 0546 7B68     		ldr	r3, [r7, #4]
 1152 0548 5B69     		ldr	r3, [r3, #20]
 1153 054a FC22     		movs	r2, #252
 1154 054c 1A60     		str	r2, [r3]
 459:../../source/src/FWlib/src/stm32f10x_fsmc.c ****   FSMC_PCCARDInitStruct->FSMC_IOSpaceTimingStruct->FSMC_WaitSetupTime = 0xFC;
 1155              		.loc 1 459 0
 1156 054e 7B68     		ldr	r3, [r7, #4]
 1157 0550 5B69     		ldr	r3, [r3, #20]
 1158 0552 FC22     		movs	r2, #252
 1159 0554 5A60     		str	r2, [r3, #4]
 460:../../source/src/FWlib/src/stm32f10x_fsmc.c ****   FSMC_PCCARDInitStruct->FSMC_IOSpaceTimingStruct->FSMC_HoldSetupTime = 0xFC;
 1160              		.loc 1 460 0
 1161 0556 7B68     		ldr	r3, [r7, #4]
 1162 0558 5B69     		ldr	r3, [r3, #20]
 1163 055a FC22     		movs	r2, #252
 1164 055c 9A60     		str	r2, [r3, #8]
 461:../../source/src/FWlib/src/stm32f10x_fsmc.c ****   FSMC_PCCARDInitStruct->FSMC_IOSpaceTimingStruct->FSMC_HiZSetupTime = 0xFC;
 1165              		.loc 1 461 0
 1166 055e 7B68     		ldr	r3, [r7, #4]
 1167 0560 5B69     		ldr	r3, [r3, #20]
 1168 0562 FC22     		movs	r2, #252
 1169 0564 DA60     		str	r2, [r3, #12]
 462:../../source/src/FWlib/src/stm32f10x_fsmc.c **** }
 1170              		.loc 1 462 0
 1171 0566 00BF     		nop
 1172 0568 0C37     		adds	r7, r7, #12
 1173              	.LCFI49:
 1174              		.cfi_def_cfa_offset 4
 1175 056a BD46     		mov	sp, r7
 1176              	.LCFI50:
 1177              		.cfi_def_cfa_register 13
 1178              		@ sp needed
 1179 056c 80BC     		pop	{r7}
 1180              	.LCFI51:
ARM GAS  G:\Users\Jaxb\AppData\Local\Temp\ccbq8auC.s 			page 31


 1181              		.cfi_restore 7
 1182              		.cfi_def_cfa_offset 0
 1183 056e 7047     		bx	lr
 1184              		.cfi_endproc
 1185              	.LFE37:
 1186              		.size	FSMC_PCCARDStructInit, .-FSMC_PCCARDStructInit
 1187              		.align	1
 1188              		.global	FSMC_NORSRAMCmd
 1189              		.syntax unified
 1190              		.thumb
 1191              		.thumb_func
 1192              		.fpu softvfp
 1193              		.type	FSMC_NORSRAMCmd, %function
 1194              	FSMC_NORSRAMCmd:
 1195              	.LFB38:
 463:../../source/src/FWlib/src/stm32f10x_fsmc.c **** 
 464:../../source/src/FWlib/src/stm32f10x_fsmc.c **** /**
 465:../../source/src/FWlib/src/stm32f10x_fsmc.c ****   * @brief  Enables or disables the specified NOR/SRAM Memory Bank.
 466:../../source/src/FWlib/src/stm32f10x_fsmc.c ****   * @param  FSMC_Bank: specifies the FSMC Bank to be used
 467:../../source/src/FWlib/src/stm32f10x_fsmc.c ****   *   This parameter can be one of the following values:
 468:../../source/src/FWlib/src/stm32f10x_fsmc.c ****   *     @arg FSMC_Bank1_NORSRAM1: FSMC Bank1 NOR/SRAM1  
 469:../../source/src/FWlib/src/stm32f10x_fsmc.c ****   *     @arg FSMC_Bank1_NORSRAM2: FSMC Bank1 NOR/SRAM2 
 470:../../source/src/FWlib/src/stm32f10x_fsmc.c ****   *     @arg FSMC_Bank1_NORSRAM3: FSMC Bank1 NOR/SRAM3 
 471:../../source/src/FWlib/src/stm32f10x_fsmc.c ****   *     @arg FSMC_Bank1_NORSRAM4: FSMC Bank1 NOR/SRAM4 
 472:../../source/src/FWlib/src/stm32f10x_fsmc.c ****   * @param  NewState: new state of the FSMC_Bank. This parameter can be: ENABLE or DISABLE.
 473:../../source/src/FWlib/src/stm32f10x_fsmc.c ****   * @retval None
 474:../../source/src/FWlib/src/stm32f10x_fsmc.c ****   */
 475:../../source/src/FWlib/src/stm32f10x_fsmc.c **** void FSMC_NORSRAMCmd(uint32_t FSMC_Bank, FunctionalState NewState)
 476:../../source/src/FWlib/src/stm32f10x_fsmc.c **** {
 1196              		.loc 1 476 0
 1197              		.cfi_startproc
 1198              		@ args = 0, pretend = 0, frame = 8
 1199              		@ frame_needed = 1, uses_anonymous_args = 0
 1200              		@ link register save eliminated.
 1201 0570 80B4     		push	{r7}
 1202              	.LCFI52:
 1203              		.cfi_def_cfa_offset 4
 1204              		.cfi_offset 7, -4
 1205 0572 83B0     		sub	sp, sp, #12
 1206              	.LCFI53:
 1207              		.cfi_def_cfa_offset 16
 1208 0574 00AF     		add	r7, sp, #0
 1209              	.LCFI54:
 1210              		.cfi_def_cfa_register 7
 1211 0576 7860     		str	r0, [r7, #4]
 1212 0578 0B46     		mov	r3, r1
 1213 057a FB70     		strb	r3, [r7, #3]
 477:../../source/src/FWlib/src/stm32f10x_fsmc.c ****   assert_param(IS_FSMC_NORSRAM_BANK(FSMC_Bank));
 478:../../source/src/FWlib/src/stm32f10x_fsmc.c ****   assert_param(IS_FUNCTIONAL_STATE(NewState));
 479:../../source/src/FWlib/src/stm32f10x_fsmc.c ****   
 480:../../source/src/FWlib/src/stm32f10x_fsmc.c ****   if (NewState != DISABLE)
 1214              		.loc 1 480 0
 1215 057c FB78     		ldrb	r3, [r7, #3]	@ zero_extendqisi2
 1216 057e 002B     		cmp	r3, #0
 1217 0580 0CD0     		beq	.L35
 481:../../source/src/FWlib/src/stm32f10x_fsmc.c ****   {
 482:../../source/src/FWlib/src/stm32f10x_fsmc.c ****     /* Enable the selected NOR/SRAM Bank by setting the PBKEN bit in the BCRx register */
ARM GAS  G:\Users\Jaxb\AppData\Local\Temp\ccbq8auC.s 			page 32


 483:../../source/src/FWlib/src/stm32f10x_fsmc.c ****     FSMC_Bank1->BTCR[FSMC_Bank] |= BCR_MBKEN_Set;
 1218              		.loc 1 483 0
 1219 0582 4FF02042 		mov	r2, #-1610612736
 1220 0586 7B68     		ldr	r3, [r7, #4]
 1221 0588 52F82330 		ldr	r3, [r2, r3, lsl #2]
 1222 058c 4FF02041 		mov	r1, #-1610612736
 1223 0590 43F00102 		orr	r2, r3, #1
 1224 0594 7B68     		ldr	r3, [r7, #4]
 1225 0596 41F82320 		str	r2, [r1, r3, lsl #2]
 484:../../source/src/FWlib/src/stm32f10x_fsmc.c ****   }
 485:../../source/src/FWlib/src/stm32f10x_fsmc.c ****   else
 486:../../source/src/FWlib/src/stm32f10x_fsmc.c ****   {
 487:../../source/src/FWlib/src/stm32f10x_fsmc.c ****     /* Disable the selected NOR/SRAM Bank by clearing the PBKEN bit in the BCRx register */
 488:../../source/src/FWlib/src/stm32f10x_fsmc.c ****     FSMC_Bank1->BTCR[FSMC_Bank] &= BCR_MBKEN_Reset;
 489:../../source/src/FWlib/src/stm32f10x_fsmc.c ****   }
 490:../../source/src/FWlib/src/stm32f10x_fsmc.c **** }
 1226              		.loc 1 490 0
 1227 059a 0BE0     		b	.L37
 1228              	.L35:
 488:../../source/src/FWlib/src/stm32f10x_fsmc.c ****   }
 1229              		.loc 1 488 0
 1230 059c 4FF02042 		mov	r2, #-1610612736
 1231 05a0 7B68     		ldr	r3, [r7, #4]
 1232 05a2 52F82320 		ldr	r2, [r2, r3, lsl #2]
 1233 05a6 4FF02041 		mov	r1, #-1610612736
 1234 05aa 054B     		ldr	r3, .L38
 1235 05ac 1340     		ands	r3, r3, r2
 1236 05ae 7A68     		ldr	r2, [r7, #4]
 1237 05b0 41F82230 		str	r3, [r1, r2, lsl #2]
 1238              	.L37:
 1239              		.loc 1 490 0
 1240 05b4 00BF     		nop
 1241 05b6 0C37     		adds	r7, r7, #12
 1242              	.LCFI55:
 1243              		.cfi_def_cfa_offset 4
 1244 05b8 BD46     		mov	sp, r7
 1245              	.LCFI56:
 1246              		.cfi_def_cfa_register 13
 1247              		@ sp needed
 1248 05ba 80BC     		pop	{r7}
 1249              	.LCFI57:
 1250              		.cfi_restore 7
 1251              		.cfi_def_cfa_offset 0
 1252 05bc 7047     		bx	lr
 1253              	.L39:
 1254 05be 00BF     		.align	2
 1255              	.L38:
 1256 05c0 FEFF0F00 		.word	1048574
 1257              		.cfi_endproc
 1258              	.LFE38:
 1259              		.size	FSMC_NORSRAMCmd, .-FSMC_NORSRAMCmd
 1260              		.align	1
 1261              		.global	FSMC_NANDCmd
 1262              		.syntax unified
 1263              		.thumb
 1264              		.thumb_func
 1265              		.fpu softvfp
ARM GAS  G:\Users\Jaxb\AppData\Local\Temp\ccbq8auC.s 			page 33


 1266              		.type	FSMC_NANDCmd, %function
 1267              	FSMC_NANDCmd:
 1268              	.LFB39:
 491:../../source/src/FWlib/src/stm32f10x_fsmc.c **** 
 492:../../source/src/FWlib/src/stm32f10x_fsmc.c **** /**
 493:../../source/src/FWlib/src/stm32f10x_fsmc.c ****   * @brief  Enables or disables the specified NAND Memory Bank.
 494:../../source/src/FWlib/src/stm32f10x_fsmc.c ****   * @param  FSMC_Bank: specifies the FSMC Bank to be used
 495:../../source/src/FWlib/src/stm32f10x_fsmc.c ****   *   This parameter can be one of the following values:
 496:../../source/src/FWlib/src/stm32f10x_fsmc.c ****   *     @arg FSMC_Bank2_NAND: FSMC Bank2 NAND 
 497:../../source/src/FWlib/src/stm32f10x_fsmc.c ****   *     @arg FSMC_Bank3_NAND: FSMC Bank3 NAND
 498:../../source/src/FWlib/src/stm32f10x_fsmc.c ****   * @param  NewState: new state of the FSMC_Bank. This parameter can be: ENABLE or DISABLE.
 499:../../source/src/FWlib/src/stm32f10x_fsmc.c ****   * @retval None
 500:../../source/src/FWlib/src/stm32f10x_fsmc.c ****   */
 501:../../source/src/FWlib/src/stm32f10x_fsmc.c **** void FSMC_NANDCmd(uint32_t FSMC_Bank, FunctionalState NewState)
 502:../../source/src/FWlib/src/stm32f10x_fsmc.c **** {
 1269              		.loc 1 502 0
 1270              		.cfi_startproc
 1271              		@ args = 0, pretend = 0, frame = 8
 1272              		@ frame_needed = 1, uses_anonymous_args = 0
 1273              		@ link register save eliminated.
 1274 05c4 80B4     		push	{r7}
 1275              	.LCFI58:
 1276              		.cfi_def_cfa_offset 4
 1277              		.cfi_offset 7, -4
 1278 05c6 83B0     		sub	sp, sp, #12
 1279              	.LCFI59:
 1280              		.cfi_def_cfa_offset 16
 1281 05c8 00AF     		add	r7, sp, #0
 1282              	.LCFI60:
 1283              		.cfi_def_cfa_register 7
 1284 05ca 7860     		str	r0, [r7, #4]
 1285 05cc 0B46     		mov	r3, r1
 1286 05ce FB70     		strb	r3, [r7, #3]
 503:../../source/src/FWlib/src/stm32f10x_fsmc.c ****   assert_param(IS_FSMC_NAND_BANK(FSMC_Bank));
 504:../../source/src/FWlib/src/stm32f10x_fsmc.c ****   assert_param(IS_FUNCTIONAL_STATE(NewState));
 505:../../source/src/FWlib/src/stm32f10x_fsmc.c ****   
 506:../../source/src/FWlib/src/stm32f10x_fsmc.c ****   if (NewState != DISABLE)
 1287              		.loc 1 506 0
 1288 05d0 FB78     		ldrb	r3, [r7, #3]	@ zero_extendqisi2
 1289 05d2 002B     		cmp	r3, #0
 1290 05d4 10D0     		beq	.L41
 507:../../source/src/FWlib/src/stm32f10x_fsmc.c ****   {
 508:../../source/src/FWlib/src/stm32f10x_fsmc.c ****     /* Enable the selected NAND Bank by setting the PBKEN bit in the PCRx register */
 509:../../source/src/FWlib/src/stm32f10x_fsmc.c ****     if(FSMC_Bank == FSMC_Bank2_NAND)
 1291              		.loc 1 509 0
 1292 05d6 7B68     		ldr	r3, [r7, #4]
 1293 05d8 102B     		cmp	r3, #16
 1294 05da 06D1     		bne	.L42
 510:../../source/src/FWlib/src/stm32f10x_fsmc.c ****     {
 511:../../source/src/FWlib/src/stm32f10x_fsmc.c ****       FSMC_Bank2->PCR2 |= PCR_PBKEN_Set;
 1295              		.loc 1 511 0
 1296 05dc 114B     		ldr	r3, .L47
 1297 05de 1B68     		ldr	r3, [r3]
 1298 05e0 104A     		ldr	r2, .L47
 1299 05e2 43F00403 		orr	r3, r3, #4
 1300 05e6 1360     		str	r3, [r2]
 512:../../source/src/FWlib/src/stm32f10x_fsmc.c ****     }
ARM GAS  G:\Users\Jaxb\AppData\Local\Temp\ccbq8auC.s 			page 34


 513:../../source/src/FWlib/src/stm32f10x_fsmc.c ****     else
 514:../../source/src/FWlib/src/stm32f10x_fsmc.c ****     {
 515:../../source/src/FWlib/src/stm32f10x_fsmc.c ****       FSMC_Bank3->PCR3 |= PCR_PBKEN_Set;
 516:../../source/src/FWlib/src/stm32f10x_fsmc.c ****     }
 517:../../source/src/FWlib/src/stm32f10x_fsmc.c ****   }
 518:../../source/src/FWlib/src/stm32f10x_fsmc.c ****   else
 519:../../source/src/FWlib/src/stm32f10x_fsmc.c ****   {
 520:../../source/src/FWlib/src/stm32f10x_fsmc.c ****     /* Disable the selected NAND Bank by clearing the PBKEN bit in the PCRx register */
 521:../../source/src/FWlib/src/stm32f10x_fsmc.c ****     if(FSMC_Bank == FSMC_Bank2_NAND)
 522:../../source/src/FWlib/src/stm32f10x_fsmc.c ****     {
 523:../../source/src/FWlib/src/stm32f10x_fsmc.c ****       FSMC_Bank2->PCR2 &= PCR_PBKEN_Reset;
 524:../../source/src/FWlib/src/stm32f10x_fsmc.c ****     }
 525:../../source/src/FWlib/src/stm32f10x_fsmc.c ****     else
 526:../../source/src/FWlib/src/stm32f10x_fsmc.c ****     {
 527:../../source/src/FWlib/src/stm32f10x_fsmc.c ****       FSMC_Bank3->PCR3 &= PCR_PBKEN_Reset;
 528:../../source/src/FWlib/src/stm32f10x_fsmc.c ****     }
 529:../../source/src/FWlib/src/stm32f10x_fsmc.c ****   }
 530:../../source/src/FWlib/src/stm32f10x_fsmc.c **** }
 1301              		.loc 1 530 0
 1302 05e8 16E0     		b	.L46
 1303              	.L42:
 515:../../source/src/FWlib/src/stm32f10x_fsmc.c ****     }
 1304              		.loc 1 515 0
 1305 05ea 0F4B     		ldr	r3, .L47+4
 1306 05ec 1B68     		ldr	r3, [r3]
 1307 05ee 0E4A     		ldr	r2, .L47+4
 1308 05f0 43F00403 		orr	r3, r3, #4
 1309 05f4 1360     		str	r3, [r2]
 1310              		.loc 1 530 0
 1311 05f6 0FE0     		b	.L46
 1312              	.L41:
 521:../../source/src/FWlib/src/stm32f10x_fsmc.c ****     {
 1313              		.loc 1 521 0
 1314 05f8 7B68     		ldr	r3, [r7, #4]
 1315 05fa 102B     		cmp	r3, #16
 1316 05fc 06D1     		bne	.L45
 523:../../source/src/FWlib/src/stm32f10x_fsmc.c ****     }
 1317              		.loc 1 523 0
 1318 05fe 094B     		ldr	r3, .L47
 1319 0600 1A68     		ldr	r2, [r3]
 1320 0602 0849     		ldr	r1, .L47
 1321 0604 094B     		ldr	r3, .L47+8
 1322 0606 1340     		ands	r3, r3, r2
 1323 0608 0B60     		str	r3, [r1]
 1324              		.loc 1 530 0
 1325 060a 05E0     		b	.L46
 1326              	.L45:
 527:../../source/src/FWlib/src/stm32f10x_fsmc.c ****     }
 1327              		.loc 1 527 0
 1328 060c 064B     		ldr	r3, .L47+4
 1329 060e 1A68     		ldr	r2, [r3]
 1330 0610 0549     		ldr	r1, .L47+4
 1331 0612 064B     		ldr	r3, .L47+8
 1332 0614 1340     		ands	r3, r3, r2
 1333 0616 0B60     		str	r3, [r1]
 1334              	.L46:
 1335              		.loc 1 530 0
ARM GAS  G:\Users\Jaxb\AppData\Local\Temp\ccbq8auC.s 			page 35


 1336 0618 00BF     		nop
 1337 061a 0C37     		adds	r7, r7, #12
 1338              	.LCFI61:
 1339              		.cfi_def_cfa_offset 4
 1340 061c BD46     		mov	sp, r7
 1341              	.LCFI62:
 1342              		.cfi_def_cfa_register 13
 1343              		@ sp needed
 1344 061e 80BC     		pop	{r7}
 1345              	.LCFI63:
 1346              		.cfi_restore 7
 1347              		.cfi_def_cfa_offset 0
 1348 0620 7047     		bx	lr
 1349              	.L48:
 1350 0622 00BF     		.align	2
 1351              	.L47:
 1352 0624 600000A0 		.word	-1610612640
 1353 0628 800000A0 		.word	-1610612608
 1354 062c FBFF0F00 		.word	1048571
 1355              		.cfi_endproc
 1356              	.LFE39:
 1357              		.size	FSMC_NANDCmd, .-FSMC_NANDCmd
 1358              		.align	1
 1359              		.global	FSMC_PCCARDCmd
 1360              		.syntax unified
 1361              		.thumb
 1362              		.thumb_func
 1363              		.fpu softvfp
 1364              		.type	FSMC_PCCARDCmd, %function
 1365              	FSMC_PCCARDCmd:
 1366              	.LFB40:
 531:../../source/src/FWlib/src/stm32f10x_fsmc.c **** 
 532:../../source/src/FWlib/src/stm32f10x_fsmc.c **** /**
 533:../../source/src/FWlib/src/stm32f10x_fsmc.c ****   * @brief  Enables or disables the PCCARD Memory Bank.
 534:../../source/src/FWlib/src/stm32f10x_fsmc.c ****   * @param  NewState: new state of the PCCARD Memory Bank.  
 535:../../source/src/FWlib/src/stm32f10x_fsmc.c ****   *   This parameter can be: ENABLE or DISABLE.
 536:../../source/src/FWlib/src/stm32f10x_fsmc.c ****   * @retval None
 537:../../source/src/FWlib/src/stm32f10x_fsmc.c ****   */
 538:../../source/src/FWlib/src/stm32f10x_fsmc.c **** void FSMC_PCCARDCmd(FunctionalState NewState)
 539:../../source/src/FWlib/src/stm32f10x_fsmc.c **** {
 1367              		.loc 1 539 0
 1368              		.cfi_startproc
 1369              		@ args = 0, pretend = 0, frame = 8
 1370              		@ frame_needed = 1, uses_anonymous_args = 0
 1371              		@ link register save eliminated.
 1372 0630 80B4     		push	{r7}
 1373              	.LCFI64:
 1374              		.cfi_def_cfa_offset 4
 1375              		.cfi_offset 7, -4
 1376 0632 83B0     		sub	sp, sp, #12
 1377              	.LCFI65:
 1378              		.cfi_def_cfa_offset 16
 1379 0634 00AF     		add	r7, sp, #0
 1380              	.LCFI66:
 1381              		.cfi_def_cfa_register 7
 1382 0636 0346     		mov	r3, r0
 1383 0638 FB71     		strb	r3, [r7, #7]
ARM GAS  G:\Users\Jaxb\AppData\Local\Temp\ccbq8auC.s 			page 36


 540:../../source/src/FWlib/src/stm32f10x_fsmc.c ****   assert_param(IS_FUNCTIONAL_STATE(NewState));
 541:../../source/src/FWlib/src/stm32f10x_fsmc.c ****   
 542:../../source/src/FWlib/src/stm32f10x_fsmc.c ****   if (NewState != DISABLE)
 1384              		.loc 1 542 0
 1385 063a FB79     		ldrb	r3, [r7, #7]	@ zero_extendqisi2
 1386 063c 002B     		cmp	r3, #0
 1387 063e 06D0     		beq	.L50
 543:../../source/src/FWlib/src/stm32f10x_fsmc.c ****   {
 544:../../source/src/FWlib/src/stm32f10x_fsmc.c ****     /* Enable the PCCARD Bank by setting the PBKEN bit in the PCR4 register */
 545:../../source/src/FWlib/src/stm32f10x_fsmc.c ****     FSMC_Bank4->PCR4 |= PCR_PBKEN_Set;
 1388              		.loc 1 545 0
 1389 0640 084B     		ldr	r3, .L53
 1390 0642 1B68     		ldr	r3, [r3]
 1391 0644 074A     		ldr	r2, .L53
 1392 0646 43F00403 		orr	r3, r3, #4
 1393 064a 1360     		str	r3, [r2]
 546:../../source/src/FWlib/src/stm32f10x_fsmc.c ****   }
 547:../../source/src/FWlib/src/stm32f10x_fsmc.c ****   else
 548:../../source/src/FWlib/src/stm32f10x_fsmc.c ****   {
 549:../../source/src/FWlib/src/stm32f10x_fsmc.c ****     /* Disable the PCCARD Bank by clearing the PBKEN bit in the PCR4 register */
 550:../../source/src/FWlib/src/stm32f10x_fsmc.c ****     FSMC_Bank4->PCR4 &= PCR_PBKEN_Reset;
 551:../../source/src/FWlib/src/stm32f10x_fsmc.c ****   }
 552:../../source/src/FWlib/src/stm32f10x_fsmc.c **** }
 1394              		.loc 1 552 0
 1395 064c 05E0     		b	.L52
 1396              	.L50:
 550:../../source/src/FWlib/src/stm32f10x_fsmc.c ****   }
 1397              		.loc 1 550 0
 1398 064e 054B     		ldr	r3, .L53
 1399 0650 1A68     		ldr	r2, [r3]
 1400 0652 0449     		ldr	r1, .L53
 1401 0654 044B     		ldr	r3, .L53+4
 1402 0656 1340     		ands	r3, r3, r2
 1403 0658 0B60     		str	r3, [r1]
 1404              	.L52:
 1405              		.loc 1 552 0
 1406 065a 00BF     		nop
 1407 065c 0C37     		adds	r7, r7, #12
 1408              	.LCFI67:
 1409              		.cfi_def_cfa_offset 4
 1410 065e BD46     		mov	sp, r7
 1411              	.LCFI68:
 1412              		.cfi_def_cfa_register 13
 1413              		@ sp needed
 1414 0660 80BC     		pop	{r7}
 1415              	.LCFI69:
 1416              		.cfi_restore 7
 1417              		.cfi_def_cfa_offset 0
 1418 0662 7047     		bx	lr
 1419              	.L54:
 1420              		.align	2
 1421              	.L53:
 1422 0664 A00000A0 		.word	-1610612576
 1423 0668 FBFF0F00 		.word	1048571
 1424              		.cfi_endproc
 1425              	.LFE40:
 1426              		.size	FSMC_PCCARDCmd, .-FSMC_PCCARDCmd
ARM GAS  G:\Users\Jaxb\AppData\Local\Temp\ccbq8auC.s 			page 37


 1427              		.align	1
 1428              		.global	FSMC_NANDECCCmd
 1429              		.syntax unified
 1430              		.thumb
 1431              		.thumb_func
 1432              		.fpu softvfp
 1433              		.type	FSMC_NANDECCCmd, %function
 1434              	FSMC_NANDECCCmd:
 1435              	.LFB41:
 553:../../source/src/FWlib/src/stm32f10x_fsmc.c **** 
 554:../../source/src/FWlib/src/stm32f10x_fsmc.c **** /**
 555:../../source/src/FWlib/src/stm32f10x_fsmc.c ****   * @brief  Enables or disables the FSMC NAND ECC feature.
 556:../../source/src/FWlib/src/stm32f10x_fsmc.c ****   * @param  FSMC_Bank: specifies the FSMC Bank to be used
 557:../../source/src/FWlib/src/stm32f10x_fsmc.c ****   *   This parameter can be one of the following values:
 558:../../source/src/FWlib/src/stm32f10x_fsmc.c ****   *     @arg FSMC_Bank2_NAND: FSMC Bank2 NAND 
 559:../../source/src/FWlib/src/stm32f10x_fsmc.c ****   *     @arg FSMC_Bank3_NAND: FSMC Bank3 NAND
 560:../../source/src/FWlib/src/stm32f10x_fsmc.c ****   * @param  NewState: new state of the FSMC NAND ECC feature.  
 561:../../source/src/FWlib/src/stm32f10x_fsmc.c ****   *   This parameter can be: ENABLE or DISABLE.
 562:../../source/src/FWlib/src/stm32f10x_fsmc.c ****   * @retval None
 563:../../source/src/FWlib/src/stm32f10x_fsmc.c ****   */
 564:../../source/src/FWlib/src/stm32f10x_fsmc.c **** void FSMC_NANDECCCmd(uint32_t FSMC_Bank, FunctionalState NewState)
 565:../../source/src/FWlib/src/stm32f10x_fsmc.c **** {
 1436              		.loc 1 565 0
 1437              		.cfi_startproc
 1438              		@ args = 0, pretend = 0, frame = 8
 1439              		@ frame_needed = 1, uses_anonymous_args = 0
 1440              		@ link register save eliminated.
 1441 066c 80B4     		push	{r7}
 1442              	.LCFI70:
 1443              		.cfi_def_cfa_offset 4
 1444              		.cfi_offset 7, -4
 1445 066e 83B0     		sub	sp, sp, #12
 1446              	.LCFI71:
 1447              		.cfi_def_cfa_offset 16
 1448 0670 00AF     		add	r7, sp, #0
 1449              	.LCFI72:
 1450              		.cfi_def_cfa_register 7
 1451 0672 7860     		str	r0, [r7, #4]
 1452 0674 0B46     		mov	r3, r1
 1453 0676 FB70     		strb	r3, [r7, #3]
 566:../../source/src/FWlib/src/stm32f10x_fsmc.c ****   assert_param(IS_FSMC_NAND_BANK(FSMC_Bank));
 567:../../source/src/FWlib/src/stm32f10x_fsmc.c ****   assert_param(IS_FUNCTIONAL_STATE(NewState));
 568:../../source/src/FWlib/src/stm32f10x_fsmc.c ****   
 569:../../source/src/FWlib/src/stm32f10x_fsmc.c ****   if (NewState != DISABLE)
 1454              		.loc 1 569 0
 1455 0678 FB78     		ldrb	r3, [r7, #3]	@ zero_extendqisi2
 1456 067a 002B     		cmp	r3, #0
 1457 067c 10D0     		beq	.L56
 570:../../source/src/FWlib/src/stm32f10x_fsmc.c ****   {
 571:../../source/src/FWlib/src/stm32f10x_fsmc.c ****     /* Enable the selected NAND Bank ECC function by setting the ECCEN bit in the PCRx register */
 572:../../source/src/FWlib/src/stm32f10x_fsmc.c ****     if(FSMC_Bank == FSMC_Bank2_NAND)
 1458              		.loc 1 572 0
 1459 067e 7B68     		ldr	r3, [r7, #4]
 1460 0680 102B     		cmp	r3, #16
 1461 0682 06D1     		bne	.L57
 573:../../source/src/FWlib/src/stm32f10x_fsmc.c ****     {
 574:../../source/src/FWlib/src/stm32f10x_fsmc.c ****       FSMC_Bank2->PCR2 |= PCR_ECCEN_Set;
ARM GAS  G:\Users\Jaxb\AppData\Local\Temp\ccbq8auC.s 			page 38


 1462              		.loc 1 574 0
 1463 0684 114B     		ldr	r3, .L62
 1464 0686 1B68     		ldr	r3, [r3]
 1465 0688 104A     		ldr	r2, .L62
 1466 068a 43F04003 		orr	r3, r3, #64
 1467 068e 1360     		str	r3, [r2]
 575:../../source/src/FWlib/src/stm32f10x_fsmc.c ****     }
 576:../../source/src/FWlib/src/stm32f10x_fsmc.c ****     else
 577:../../source/src/FWlib/src/stm32f10x_fsmc.c ****     {
 578:../../source/src/FWlib/src/stm32f10x_fsmc.c ****       FSMC_Bank3->PCR3 |= PCR_ECCEN_Set;
 579:../../source/src/FWlib/src/stm32f10x_fsmc.c ****     }
 580:../../source/src/FWlib/src/stm32f10x_fsmc.c ****   }
 581:../../source/src/FWlib/src/stm32f10x_fsmc.c ****   else
 582:../../source/src/FWlib/src/stm32f10x_fsmc.c ****   {
 583:../../source/src/FWlib/src/stm32f10x_fsmc.c ****     /* Disable the selected NAND Bank ECC function by clearing the ECCEN bit in the PCRx register *
 584:../../source/src/FWlib/src/stm32f10x_fsmc.c ****     if(FSMC_Bank == FSMC_Bank2_NAND)
 585:../../source/src/FWlib/src/stm32f10x_fsmc.c ****     {
 586:../../source/src/FWlib/src/stm32f10x_fsmc.c ****       FSMC_Bank2->PCR2 &= PCR_ECCEN_Reset;
 587:../../source/src/FWlib/src/stm32f10x_fsmc.c ****     }
 588:../../source/src/FWlib/src/stm32f10x_fsmc.c ****     else
 589:../../source/src/FWlib/src/stm32f10x_fsmc.c ****     {
 590:../../source/src/FWlib/src/stm32f10x_fsmc.c ****       FSMC_Bank3->PCR3 &= PCR_ECCEN_Reset;
 591:../../source/src/FWlib/src/stm32f10x_fsmc.c ****     }
 592:../../source/src/FWlib/src/stm32f10x_fsmc.c ****   }
 593:../../source/src/FWlib/src/stm32f10x_fsmc.c **** }
 1468              		.loc 1 593 0
 1469 0690 16E0     		b	.L61
 1470              	.L57:
 578:../../source/src/FWlib/src/stm32f10x_fsmc.c ****     }
 1471              		.loc 1 578 0
 1472 0692 0F4B     		ldr	r3, .L62+4
 1473 0694 1B68     		ldr	r3, [r3]
 1474 0696 0E4A     		ldr	r2, .L62+4
 1475 0698 43F04003 		orr	r3, r3, #64
 1476 069c 1360     		str	r3, [r2]
 1477              		.loc 1 593 0
 1478 069e 0FE0     		b	.L61
 1479              	.L56:
 584:../../source/src/FWlib/src/stm32f10x_fsmc.c ****     {
 1480              		.loc 1 584 0
 1481 06a0 7B68     		ldr	r3, [r7, #4]
 1482 06a2 102B     		cmp	r3, #16
 1483 06a4 06D1     		bne	.L60
 586:../../source/src/FWlib/src/stm32f10x_fsmc.c ****     }
 1484              		.loc 1 586 0
 1485 06a6 094B     		ldr	r3, .L62
 1486 06a8 1A68     		ldr	r2, [r3]
 1487 06aa 0849     		ldr	r1, .L62
 1488 06ac 094B     		ldr	r3, .L62+8
 1489 06ae 1340     		ands	r3, r3, r2
 1490 06b0 0B60     		str	r3, [r1]
 1491              		.loc 1 593 0
 1492 06b2 05E0     		b	.L61
 1493              	.L60:
 590:../../source/src/FWlib/src/stm32f10x_fsmc.c ****     }
 1494              		.loc 1 590 0
 1495 06b4 064B     		ldr	r3, .L62+4
ARM GAS  G:\Users\Jaxb\AppData\Local\Temp\ccbq8auC.s 			page 39


 1496 06b6 1A68     		ldr	r2, [r3]
 1497 06b8 0549     		ldr	r1, .L62+4
 1498 06ba 064B     		ldr	r3, .L62+8
 1499 06bc 1340     		ands	r3, r3, r2
 1500 06be 0B60     		str	r3, [r1]
 1501              	.L61:
 1502              		.loc 1 593 0
 1503 06c0 00BF     		nop
 1504 06c2 0C37     		adds	r7, r7, #12
 1505              	.LCFI73:
 1506              		.cfi_def_cfa_offset 4
 1507 06c4 BD46     		mov	sp, r7
 1508              	.LCFI74:
 1509              		.cfi_def_cfa_register 13
 1510              		@ sp needed
 1511 06c6 80BC     		pop	{r7}
 1512              	.LCFI75:
 1513              		.cfi_restore 7
 1514              		.cfi_def_cfa_offset 0
 1515 06c8 7047     		bx	lr
 1516              	.L63:
 1517 06ca 00BF     		.align	2
 1518              	.L62:
 1519 06cc 600000A0 		.word	-1610612640
 1520 06d0 800000A0 		.word	-1610612608
 1521 06d4 BFFF0F00 		.word	1048511
 1522              		.cfi_endproc
 1523              	.LFE41:
 1524              		.size	FSMC_NANDECCCmd, .-FSMC_NANDECCCmd
 1525              		.align	1
 1526              		.global	FSMC_GetECC
 1527              		.syntax unified
 1528              		.thumb
 1529              		.thumb_func
 1530              		.fpu softvfp
 1531              		.type	FSMC_GetECC, %function
 1532              	FSMC_GetECC:
 1533              	.LFB42:
 594:../../source/src/FWlib/src/stm32f10x_fsmc.c **** 
 595:../../source/src/FWlib/src/stm32f10x_fsmc.c **** /**
 596:../../source/src/FWlib/src/stm32f10x_fsmc.c ****   * @brief  Returns the error correction code register value.
 597:../../source/src/FWlib/src/stm32f10x_fsmc.c ****   * @param  FSMC_Bank: specifies the FSMC Bank to be used
 598:../../source/src/FWlib/src/stm32f10x_fsmc.c ****   *   This parameter can be one of the following values:
 599:../../source/src/FWlib/src/stm32f10x_fsmc.c ****   *     @arg FSMC_Bank2_NAND: FSMC Bank2 NAND 
 600:../../source/src/FWlib/src/stm32f10x_fsmc.c ****   *     @arg FSMC_Bank3_NAND: FSMC Bank3 NAND
 601:../../source/src/FWlib/src/stm32f10x_fsmc.c ****   * @retval The Error Correction Code (ECC) value.
 602:../../source/src/FWlib/src/stm32f10x_fsmc.c ****   */
 603:../../source/src/FWlib/src/stm32f10x_fsmc.c **** uint32_t FSMC_GetECC(uint32_t FSMC_Bank)
 604:../../source/src/FWlib/src/stm32f10x_fsmc.c **** {
 1534              		.loc 1 604 0
 1535              		.cfi_startproc
 1536              		@ args = 0, pretend = 0, frame = 16
 1537              		@ frame_needed = 1, uses_anonymous_args = 0
 1538              		@ link register save eliminated.
 1539 06d8 80B4     		push	{r7}
 1540              	.LCFI76:
 1541              		.cfi_def_cfa_offset 4
ARM GAS  G:\Users\Jaxb\AppData\Local\Temp\ccbq8auC.s 			page 40


 1542              		.cfi_offset 7, -4
 1543 06da 85B0     		sub	sp, sp, #20
 1544              	.LCFI77:
 1545              		.cfi_def_cfa_offset 24
 1546 06dc 00AF     		add	r7, sp, #0
 1547              	.LCFI78:
 1548              		.cfi_def_cfa_register 7
 1549 06de 7860     		str	r0, [r7, #4]
 605:../../source/src/FWlib/src/stm32f10x_fsmc.c ****   uint32_t eccval = 0x00000000;
 1550              		.loc 1 605 0
 1551 06e0 0023     		movs	r3, #0
 1552 06e2 FB60     		str	r3, [r7, #12]
 606:../../source/src/FWlib/src/stm32f10x_fsmc.c ****   
 607:../../source/src/FWlib/src/stm32f10x_fsmc.c ****   if(FSMC_Bank == FSMC_Bank2_NAND)
 1553              		.loc 1 607 0
 1554 06e4 7B68     		ldr	r3, [r7, #4]
 1555 06e6 102B     		cmp	r3, #16
 1556 06e8 03D1     		bne	.L65
 608:../../source/src/FWlib/src/stm32f10x_fsmc.c ****   {
 609:../../source/src/FWlib/src/stm32f10x_fsmc.c ****     /* Get the ECCR2 register value */
 610:../../source/src/FWlib/src/stm32f10x_fsmc.c ****     eccval = FSMC_Bank2->ECCR2;
 1557              		.loc 1 610 0
 1558 06ea 064B     		ldr	r3, .L68
 1559 06ec 5B69     		ldr	r3, [r3, #20]
 1560 06ee FB60     		str	r3, [r7, #12]
 1561 06f0 02E0     		b	.L66
 1562              	.L65:
 611:../../source/src/FWlib/src/stm32f10x_fsmc.c ****   }
 612:../../source/src/FWlib/src/stm32f10x_fsmc.c ****   else
 613:../../source/src/FWlib/src/stm32f10x_fsmc.c ****   {
 614:../../source/src/FWlib/src/stm32f10x_fsmc.c ****     /* Get the ECCR3 register value */
 615:../../source/src/FWlib/src/stm32f10x_fsmc.c ****     eccval = FSMC_Bank3->ECCR3;
 1563              		.loc 1 615 0
 1564 06f2 054B     		ldr	r3, .L68+4
 1565 06f4 5B69     		ldr	r3, [r3, #20]
 1566 06f6 FB60     		str	r3, [r7, #12]
 1567              	.L66:
 616:../../source/src/FWlib/src/stm32f10x_fsmc.c ****   }
 617:../../source/src/FWlib/src/stm32f10x_fsmc.c ****   /* Return the error correction code value */
 618:../../source/src/FWlib/src/stm32f10x_fsmc.c ****   return(eccval);
 1568              		.loc 1 618 0
 1569 06f8 FB68     		ldr	r3, [r7, #12]
 619:../../source/src/FWlib/src/stm32f10x_fsmc.c **** }
 1570              		.loc 1 619 0
 1571 06fa 1846     		mov	r0, r3
 1572 06fc 1437     		adds	r7, r7, #20
 1573              	.LCFI79:
 1574              		.cfi_def_cfa_offset 4
 1575 06fe BD46     		mov	sp, r7
 1576              	.LCFI80:
 1577              		.cfi_def_cfa_register 13
 1578              		@ sp needed
 1579 0700 80BC     		pop	{r7}
 1580              	.LCFI81:
 1581              		.cfi_restore 7
 1582              		.cfi_def_cfa_offset 0
 1583 0702 7047     		bx	lr
ARM GAS  G:\Users\Jaxb\AppData\Local\Temp\ccbq8auC.s 			page 41


 1584              	.L69:
 1585              		.align	2
 1586              	.L68:
 1587 0704 600000A0 		.word	-1610612640
 1588 0708 800000A0 		.word	-1610612608
 1589              		.cfi_endproc
 1590              	.LFE42:
 1591              		.size	FSMC_GetECC, .-FSMC_GetECC
 1592              		.align	1
 1593              		.global	FSMC_ITConfig
 1594              		.syntax unified
 1595              		.thumb
 1596              		.thumb_func
 1597              		.fpu softvfp
 1598              		.type	FSMC_ITConfig, %function
 1599              	FSMC_ITConfig:
 1600              	.LFB43:
 620:../../source/src/FWlib/src/stm32f10x_fsmc.c **** 
 621:../../source/src/FWlib/src/stm32f10x_fsmc.c **** /**
 622:../../source/src/FWlib/src/stm32f10x_fsmc.c ****   * @brief  Enables or disables the specified FSMC interrupts.
 623:../../source/src/FWlib/src/stm32f10x_fsmc.c ****   * @param  FSMC_Bank: specifies the FSMC Bank to be used
 624:../../source/src/FWlib/src/stm32f10x_fsmc.c ****   *   This parameter can be one of the following values:
 625:../../source/src/FWlib/src/stm32f10x_fsmc.c ****   *     @arg FSMC_Bank2_NAND: FSMC Bank2 NAND 
 626:../../source/src/FWlib/src/stm32f10x_fsmc.c ****   *     @arg FSMC_Bank3_NAND: FSMC Bank3 NAND
 627:../../source/src/FWlib/src/stm32f10x_fsmc.c ****   *     @arg FSMC_Bank4_PCCARD: FSMC Bank4 PCCARD
 628:../../source/src/FWlib/src/stm32f10x_fsmc.c ****   * @param  FSMC_IT: specifies the FSMC interrupt sources to be enabled or disabled.
 629:../../source/src/FWlib/src/stm32f10x_fsmc.c ****   *   This parameter can be any combination of the following values:
 630:../../source/src/FWlib/src/stm32f10x_fsmc.c ****   *     @arg FSMC_IT_RisingEdge: Rising edge detection interrupt. 
 631:../../source/src/FWlib/src/stm32f10x_fsmc.c ****   *     @arg FSMC_IT_Level: Level edge detection interrupt.
 632:../../source/src/FWlib/src/stm32f10x_fsmc.c ****   *     @arg FSMC_IT_FallingEdge: Falling edge detection interrupt.
 633:../../source/src/FWlib/src/stm32f10x_fsmc.c ****   * @param  NewState: new state of the specified FSMC interrupts.
 634:../../source/src/FWlib/src/stm32f10x_fsmc.c ****   *   This parameter can be: ENABLE or DISABLE.
 635:../../source/src/FWlib/src/stm32f10x_fsmc.c ****   * @retval None
 636:../../source/src/FWlib/src/stm32f10x_fsmc.c ****   */
 637:../../source/src/FWlib/src/stm32f10x_fsmc.c **** void FSMC_ITConfig(uint32_t FSMC_Bank, uint32_t FSMC_IT, FunctionalState NewState)
 638:../../source/src/FWlib/src/stm32f10x_fsmc.c **** {
 1601              		.loc 1 638 0
 1602              		.cfi_startproc
 1603              		@ args = 0, pretend = 0, frame = 16
 1604              		@ frame_needed = 1, uses_anonymous_args = 0
 1605              		@ link register save eliminated.
 1606 070c 80B4     		push	{r7}
 1607              	.LCFI82:
 1608              		.cfi_def_cfa_offset 4
 1609              		.cfi_offset 7, -4
 1610 070e 85B0     		sub	sp, sp, #20
 1611              	.LCFI83:
 1612              		.cfi_def_cfa_offset 24
 1613 0710 00AF     		add	r7, sp, #0
 1614              	.LCFI84:
 1615              		.cfi_def_cfa_register 7
 1616 0712 F860     		str	r0, [r7, #12]
 1617 0714 B960     		str	r1, [r7, #8]
 1618 0716 1346     		mov	r3, r2
 1619 0718 FB71     		strb	r3, [r7, #7]
 639:../../source/src/FWlib/src/stm32f10x_fsmc.c ****   assert_param(IS_FSMC_IT_BANK(FSMC_Bank));
 640:../../source/src/FWlib/src/stm32f10x_fsmc.c ****   assert_param(IS_FSMC_IT(FSMC_IT));	
ARM GAS  G:\Users\Jaxb\AppData\Local\Temp\ccbq8auC.s 			page 42


 641:../../source/src/FWlib/src/stm32f10x_fsmc.c ****   assert_param(IS_FUNCTIONAL_STATE(NewState));
 642:../../source/src/FWlib/src/stm32f10x_fsmc.c ****   
 643:../../source/src/FWlib/src/stm32f10x_fsmc.c ****   if (NewState != DISABLE)
 1620              		.loc 1 643 0
 1621 071a FB79     		ldrb	r3, [r7, #7]	@ zero_extendqisi2
 1622 071c 002B     		cmp	r3, #0
 1623 071e 1BD0     		beq	.L71
 644:../../source/src/FWlib/src/stm32f10x_fsmc.c ****   {
 645:../../source/src/FWlib/src/stm32f10x_fsmc.c ****     /* Enable the selected FSMC_Bank2 interrupts */
 646:../../source/src/FWlib/src/stm32f10x_fsmc.c ****     if(FSMC_Bank == FSMC_Bank2_NAND)
 1624              		.loc 1 646 0
 1625 0720 FB68     		ldr	r3, [r7, #12]
 1626 0722 102B     		cmp	r3, #16
 1627 0724 06D1     		bne	.L72
 647:../../source/src/FWlib/src/stm32f10x_fsmc.c ****     {
 648:../../source/src/FWlib/src/stm32f10x_fsmc.c ****       FSMC_Bank2->SR2 |= FSMC_IT;
 1628              		.loc 1 648 0
 1629 0726 1E4B     		ldr	r3, .L79
 1630 0728 5A68     		ldr	r2, [r3, #4]
 1631 072a 1D49     		ldr	r1, .L79
 1632 072c BB68     		ldr	r3, [r7, #8]
 1633 072e 1343     		orrs	r3, r3, r2
 1634 0730 4B60     		str	r3, [r1, #4]
 649:../../source/src/FWlib/src/stm32f10x_fsmc.c ****     }
 650:../../source/src/FWlib/src/stm32f10x_fsmc.c ****     /* Enable the selected FSMC_Bank3 interrupts */
 651:../../source/src/FWlib/src/stm32f10x_fsmc.c ****     else if (FSMC_Bank == FSMC_Bank3_NAND)
 652:../../source/src/FWlib/src/stm32f10x_fsmc.c ****     {
 653:../../source/src/FWlib/src/stm32f10x_fsmc.c ****       FSMC_Bank3->SR3 |= FSMC_IT;
 654:../../source/src/FWlib/src/stm32f10x_fsmc.c ****     }
 655:../../source/src/FWlib/src/stm32f10x_fsmc.c ****     /* Enable the selected FSMC_Bank4 interrupts */
 656:../../source/src/FWlib/src/stm32f10x_fsmc.c ****     else
 657:../../source/src/FWlib/src/stm32f10x_fsmc.c ****     {
 658:../../source/src/FWlib/src/stm32f10x_fsmc.c ****       FSMC_Bank4->SR4 |= FSMC_IT;    
 659:../../source/src/FWlib/src/stm32f10x_fsmc.c ****     }
 660:../../source/src/FWlib/src/stm32f10x_fsmc.c ****   }
 661:../../source/src/FWlib/src/stm32f10x_fsmc.c ****   else
 662:../../source/src/FWlib/src/stm32f10x_fsmc.c ****   {
 663:../../source/src/FWlib/src/stm32f10x_fsmc.c ****     /* Disable the selected FSMC_Bank2 interrupts */
 664:../../source/src/FWlib/src/stm32f10x_fsmc.c ****     if(FSMC_Bank == FSMC_Bank2_NAND)
 665:../../source/src/FWlib/src/stm32f10x_fsmc.c ****     {
 666:../../source/src/FWlib/src/stm32f10x_fsmc.c ****       
 667:../../source/src/FWlib/src/stm32f10x_fsmc.c ****       FSMC_Bank2->SR2 &= (uint32_t)~FSMC_IT;
 668:../../source/src/FWlib/src/stm32f10x_fsmc.c ****     }
 669:../../source/src/FWlib/src/stm32f10x_fsmc.c ****     /* Disable the selected FSMC_Bank3 interrupts */
 670:../../source/src/FWlib/src/stm32f10x_fsmc.c ****     else if (FSMC_Bank == FSMC_Bank3_NAND)
 671:../../source/src/FWlib/src/stm32f10x_fsmc.c ****     {
 672:../../source/src/FWlib/src/stm32f10x_fsmc.c ****       FSMC_Bank3->SR3 &= (uint32_t)~FSMC_IT;
 673:../../source/src/FWlib/src/stm32f10x_fsmc.c ****     }
 674:../../source/src/FWlib/src/stm32f10x_fsmc.c ****     /* Disable the selected FSMC_Bank4 interrupts */
 675:../../source/src/FWlib/src/stm32f10x_fsmc.c ****     else
 676:../../source/src/FWlib/src/stm32f10x_fsmc.c ****     {
 677:../../source/src/FWlib/src/stm32f10x_fsmc.c ****       FSMC_Bank4->SR4 &= (uint32_t)~FSMC_IT;    
 678:../../source/src/FWlib/src/stm32f10x_fsmc.c ****     }
 679:../../source/src/FWlib/src/stm32f10x_fsmc.c ****   }
 680:../../source/src/FWlib/src/stm32f10x_fsmc.c **** }
 1635              		.loc 1 680 0
 1636 0732 2FE0     		b	.L78
ARM GAS  G:\Users\Jaxb\AppData\Local\Temp\ccbq8auC.s 			page 43


 1637              	.L72:
 651:../../source/src/FWlib/src/stm32f10x_fsmc.c ****     {
 1638              		.loc 1 651 0
 1639 0734 FB68     		ldr	r3, [r7, #12]
 1640 0736 B3F5807F 		cmp	r3, #256
 1641 073a 06D1     		bne	.L74
 653:../../source/src/FWlib/src/stm32f10x_fsmc.c ****     }
 1642              		.loc 1 653 0
 1643 073c 194B     		ldr	r3, .L79+4
 1644 073e 5A68     		ldr	r2, [r3, #4]
 1645 0740 1849     		ldr	r1, .L79+4
 1646 0742 BB68     		ldr	r3, [r7, #8]
 1647 0744 1343     		orrs	r3, r3, r2
 1648 0746 4B60     		str	r3, [r1, #4]
 1649              		.loc 1 680 0
 1650 0748 24E0     		b	.L78
 1651              	.L74:
 658:../../source/src/FWlib/src/stm32f10x_fsmc.c ****     }
 1652              		.loc 1 658 0
 1653 074a 174B     		ldr	r3, .L79+8
 1654 074c 5A68     		ldr	r2, [r3, #4]
 1655 074e 1649     		ldr	r1, .L79+8
 1656 0750 BB68     		ldr	r3, [r7, #8]
 1657 0752 1343     		orrs	r3, r3, r2
 1658 0754 4B60     		str	r3, [r1, #4]
 1659              		.loc 1 680 0
 1660 0756 1DE0     		b	.L78
 1661              	.L71:
 664:../../source/src/FWlib/src/stm32f10x_fsmc.c ****     {
 1662              		.loc 1 664 0
 1663 0758 FB68     		ldr	r3, [r7, #12]
 1664 075a 102B     		cmp	r3, #16
 1665 075c 07D1     		bne	.L76
 667:../../source/src/FWlib/src/stm32f10x_fsmc.c ****     }
 1666              		.loc 1 667 0
 1667 075e 104B     		ldr	r3, .L79
 1668 0760 5A68     		ldr	r2, [r3, #4]
 1669 0762 BB68     		ldr	r3, [r7, #8]
 1670 0764 DB43     		mvns	r3, r3
 1671 0766 0E49     		ldr	r1, .L79
 1672 0768 1340     		ands	r3, r3, r2
 1673 076a 4B60     		str	r3, [r1, #4]
 1674              		.loc 1 680 0
 1675 076c 12E0     		b	.L78
 1676              	.L76:
 670:../../source/src/FWlib/src/stm32f10x_fsmc.c ****     {
 1677              		.loc 1 670 0
 1678 076e FB68     		ldr	r3, [r7, #12]
 1679 0770 B3F5807F 		cmp	r3, #256
 1680 0774 07D1     		bne	.L77
 672:../../source/src/FWlib/src/stm32f10x_fsmc.c ****     }
 1681              		.loc 1 672 0
 1682 0776 0B4B     		ldr	r3, .L79+4
 1683 0778 5A68     		ldr	r2, [r3, #4]
 1684 077a BB68     		ldr	r3, [r7, #8]
 1685 077c DB43     		mvns	r3, r3
 1686 077e 0949     		ldr	r1, .L79+4
ARM GAS  G:\Users\Jaxb\AppData\Local\Temp\ccbq8auC.s 			page 44


 1687 0780 1340     		ands	r3, r3, r2
 1688 0782 4B60     		str	r3, [r1, #4]
 1689              		.loc 1 680 0
 1690 0784 06E0     		b	.L78
 1691              	.L77:
 677:../../source/src/FWlib/src/stm32f10x_fsmc.c ****     }
 1692              		.loc 1 677 0
 1693 0786 084B     		ldr	r3, .L79+8
 1694 0788 5A68     		ldr	r2, [r3, #4]
 1695 078a BB68     		ldr	r3, [r7, #8]
 1696 078c DB43     		mvns	r3, r3
 1697 078e 0649     		ldr	r1, .L79+8
 1698 0790 1340     		ands	r3, r3, r2
 1699 0792 4B60     		str	r3, [r1, #4]
 1700              	.L78:
 1701              		.loc 1 680 0
 1702 0794 00BF     		nop
 1703 0796 1437     		adds	r7, r7, #20
 1704              	.LCFI85:
 1705              		.cfi_def_cfa_offset 4
 1706 0798 BD46     		mov	sp, r7
 1707              	.LCFI86:
 1708              		.cfi_def_cfa_register 13
 1709              		@ sp needed
 1710 079a 80BC     		pop	{r7}
 1711              	.LCFI87:
 1712              		.cfi_restore 7
 1713              		.cfi_def_cfa_offset 0
 1714 079c 7047     		bx	lr
 1715              	.L80:
 1716 079e 00BF     		.align	2
 1717              	.L79:
 1718 07a0 600000A0 		.word	-1610612640
 1719 07a4 800000A0 		.word	-1610612608
 1720 07a8 A00000A0 		.word	-1610612576
 1721              		.cfi_endproc
 1722              	.LFE43:
 1723              		.size	FSMC_ITConfig, .-FSMC_ITConfig
 1724              		.align	1
 1725              		.global	FSMC_GetFlagStatus
 1726              		.syntax unified
 1727              		.thumb
 1728              		.thumb_func
 1729              		.fpu softvfp
 1730              		.type	FSMC_GetFlagStatus, %function
 1731              	FSMC_GetFlagStatus:
 1732              	.LFB44:
 681:../../source/src/FWlib/src/stm32f10x_fsmc.c **** 
 682:../../source/src/FWlib/src/stm32f10x_fsmc.c **** /**
 683:../../source/src/FWlib/src/stm32f10x_fsmc.c ****   * @brief  Checks whether the specified FSMC flag is set or not.
 684:../../source/src/FWlib/src/stm32f10x_fsmc.c ****   * @param  FSMC_Bank: specifies the FSMC Bank to be used
 685:../../source/src/FWlib/src/stm32f10x_fsmc.c ****   *   This parameter can be one of the following values:
 686:../../source/src/FWlib/src/stm32f10x_fsmc.c ****   *     @arg FSMC_Bank2_NAND: FSMC Bank2 NAND 
 687:../../source/src/FWlib/src/stm32f10x_fsmc.c ****   *     @arg FSMC_Bank3_NAND: FSMC Bank3 NAND
 688:../../source/src/FWlib/src/stm32f10x_fsmc.c ****   *     @arg FSMC_Bank4_PCCARD: FSMC Bank4 PCCARD
 689:../../source/src/FWlib/src/stm32f10x_fsmc.c ****   * @param  FSMC_FLAG: specifies the flag to check.
 690:../../source/src/FWlib/src/stm32f10x_fsmc.c ****   *   This parameter can be one of the following values:
ARM GAS  G:\Users\Jaxb\AppData\Local\Temp\ccbq8auC.s 			page 45


 691:../../source/src/FWlib/src/stm32f10x_fsmc.c ****   *     @arg FSMC_FLAG_RisingEdge: Rising egde detection Flag.
 692:../../source/src/FWlib/src/stm32f10x_fsmc.c ****   *     @arg FSMC_FLAG_Level: Level detection Flag.
 693:../../source/src/FWlib/src/stm32f10x_fsmc.c ****   *     @arg FSMC_FLAG_FallingEdge: Falling egde detection Flag.
 694:../../source/src/FWlib/src/stm32f10x_fsmc.c ****   *     @arg FSMC_FLAG_FEMPT: Fifo empty Flag. 
 695:../../source/src/FWlib/src/stm32f10x_fsmc.c ****   * @retval The new state of FSMC_FLAG (SET or RESET).
 696:../../source/src/FWlib/src/stm32f10x_fsmc.c ****   */
 697:../../source/src/FWlib/src/stm32f10x_fsmc.c **** FlagStatus FSMC_GetFlagStatus(uint32_t FSMC_Bank, uint32_t FSMC_FLAG)
 698:../../source/src/FWlib/src/stm32f10x_fsmc.c **** {
 1733              		.loc 1 698 0
 1734              		.cfi_startproc
 1735              		@ args = 0, pretend = 0, frame = 16
 1736              		@ frame_needed = 1, uses_anonymous_args = 0
 1737              		@ link register save eliminated.
 1738 07ac 80B4     		push	{r7}
 1739              	.LCFI88:
 1740              		.cfi_def_cfa_offset 4
 1741              		.cfi_offset 7, -4
 1742 07ae 85B0     		sub	sp, sp, #20
 1743              	.LCFI89:
 1744              		.cfi_def_cfa_offset 24
 1745 07b0 00AF     		add	r7, sp, #0
 1746              	.LCFI90:
 1747              		.cfi_def_cfa_register 7
 1748 07b2 7860     		str	r0, [r7, #4]
 1749 07b4 3960     		str	r1, [r7]
 699:../../source/src/FWlib/src/stm32f10x_fsmc.c ****   FlagStatus bitstatus = RESET;
 1750              		.loc 1 699 0
 1751 07b6 0023     		movs	r3, #0
 1752 07b8 FB73     		strb	r3, [r7, #15]
 700:../../source/src/FWlib/src/stm32f10x_fsmc.c ****   uint32_t tmpsr = 0x00000000;
 1753              		.loc 1 700 0
 1754 07ba 0023     		movs	r3, #0
 1755 07bc BB60     		str	r3, [r7, #8]
 701:../../source/src/FWlib/src/stm32f10x_fsmc.c ****   
 702:../../source/src/FWlib/src/stm32f10x_fsmc.c ****   /* Check the parameters */
 703:../../source/src/FWlib/src/stm32f10x_fsmc.c ****   assert_param(IS_FSMC_GETFLAG_BANK(FSMC_Bank));
 704:../../source/src/FWlib/src/stm32f10x_fsmc.c ****   assert_param(IS_FSMC_GET_FLAG(FSMC_FLAG));
 705:../../source/src/FWlib/src/stm32f10x_fsmc.c ****   
 706:../../source/src/FWlib/src/stm32f10x_fsmc.c ****   if(FSMC_Bank == FSMC_Bank2_NAND)
 1756              		.loc 1 706 0
 1757 07be 7B68     		ldr	r3, [r7, #4]
 1758 07c0 102B     		cmp	r3, #16
 1759 07c2 03D1     		bne	.L82
 707:../../source/src/FWlib/src/stm32f10x_fsmc.c ****   {
 708:../../source/src/FWlib/src/stm32f10x_fsmc.c ****     tmpsr = FSMC_Bank2->SR2;
 1760              		.loc 1 708 0
 1761 07c4 0F4B     		ldr	r3, .L88
 1762 07c6 5B68     		ldr	r3, [r3, #4]
 1763 07c8 BB60     		str	r3, [r7, #8]
 1764 07ca 0AE0     		b	.L83
 1765              	.L82:
 709:../../source/src/FWlib/src/stm32f10x_fsmc.c ****   }  
 710:../../source/src/FWlib/src/stm32f10x_fsmc.c ****   else if(FSMC_Bank == FSMC_Bank3_NAND)
 1766              		.loc 1 710 0
 1767 07cc 7B68     		ldr	r3, [r7, #4]
 1768 07ce B3F5807F 		cmp	r3, #256
 1769 07d2 03D1     		bne	.L84
ARM GAS  G:\Users\Jaxb\AppData\Local\Temp\ccbq8auC.s 			page 46


 711:../../source/src/FWlib/src/stm32f10x_fsmc.c ****   {
 712:../../source/src/FWlib/src/stm32f10x_fsmc.c ****     tmpsr = FSMC_Bank3->SR3;
 1770              		.loc 1 712 0
 1771 07d4 0C4B     		ldr	r3, .L88+4
 1772 07d6 5B68     		ldr	r3, [r3, #4]
 1773 07d8 BB60     		str	r3, [r7, #8]
 1774 07da 02E0     		b	.L83
 1775              	.L84:
 713:../../source/src/FWlib/src/stm32f10x_fsmc.c ****   }
 714:../../source/src/FWlib/src/stm32f10x_fsmc.c ****   /* FSMC_Bank4_PCCARD*/
 715:../../source/src/FWlib/src/stm32f10x_fsmc.c ****   else
 716:../../source/src/FWlib/src/stm32f10x_fsmc.c ****   {
 717:../../source/src/FWlib/src/stm32f10x_fsmc.c ****     tmpsr = FSMC_Bank4->SR4;
 1776              		.loc 1 717 0
 1777 07dc 0B4B     		ldr	r3, .L88+8
 1778 07de 5B68     		ldr	r3, [r3, #4]
 1779 07e0 BB60     		str	r3, [r7, #8]
 1780              	.L83:
 718:../../source/src/FWlib/src/stm32f10x_fsmc.c ****   } 
 719:../../source/src/FWlib/src/stm32f10x_fsmc.c ****   
 720:../../source/src/FWlib/src/stm32f10x_fsmc.c ****   /* Get the flag status */
 721:../../source/src/FWlib/src/stm32f10x_fsmc.c ****   if ((tmpsr & FSMC_FLAG) != (uint16_t)RESET )
 1781              		.loc 1 721 0
 1782 07e2 BA68     		ldr	r2, [r7, #8]
 1783 07e4 3B68     		ldr	r3, [r7]
 1784 07e6 1340     		ands	r3, r3, r2
 1785 07e8 002B     		cmp	r3, #0
 1786 07ea 02D0     		beq	.L85
 722:../../source/src/FWlib/src/stm32f10x_fsmc.c ****   {
 723:../../source/src/FWlib/src/stm32f10x_fsmc.c ****     bitstatus = SET;
 1787              		.loc 1 723 0
 1788 07ec 0123     		movs	r3, #1
 1789 07ee FB73     		strb	r3, [r7, #15]
 1790 07f0 01E0     		b	.L86
 1791              	.L85:
 724:../../source/src/FWlib/src/stm32f10x_fsmc.c ****   }
 725:../../source/src/FWlib/src/stm32f10x_fsmc.c ****   else
 726:../../source/src/FWlib/src/stm32f10x_fsmc.c ****   {
 727:../../source/src/FWlib/src/stm32f10x_fsmc.c ****     bitstatus = RESET;
 1792              		.loc 1 727 0
 1793 07f2 0023     		movs	r3, #0
 1794 07f4 FB73     		strb	r3, [r7, #15]
 1795              	.L86:
 728:../../source/src/FWlib/src/stm32f10x_fsmc.c ****   }
 729:../../source/src/FWlib/src/stm32f10x_fsmc.c ****   /* Return the flag status */
 730:../../source/src/FWlib/src/stm32f10x_fsmc.c ****   return bitstatus;
 1796              		.loc 1 730 0
 1797 07f6 FB7B     		ldrb	r3, [r7, #15]	@ zero_extendqisi2
 731:../../source/src/FWlib/src/stm32f10x_fsmc.c **** }
 1798              		.loc 1 731 0
 1799 07f8 1846     		mov	r0, r3
 1800 07fa 1437     		adds	r7, r7, #20
 1801              	.LCFI91:
 1802              		.cfi_def_cfa_offset 4
 1803 07fc BD46     		mov	sp, r7
 1804              	.LCFI92:
 1805              		.cfi_def_cfa_register 13
ARM GAS  G:\Users\Jaxb\AppData\Local\Temp\ccbq8auC.s 			page 47


 1806              		@ sp needed
 1807 07fe 80BC     		pop	{r7}
 1808              	.LCFI93:
 1809              		.cfi_restore 7
 1810              		.cfi_def_cfa_offset 0
 1811 0800 7047     		bx	lr
 1812              	.L89:
 1813 0802 00BF     		.align	2
 1814              	.L88:
 1815 0804 600000A0 		.word	-1610612640
 1816 0808 800000A0 		.word	-1610612608
 1817 080c A00000A0 		.word	-1610612576
 1818              		.cfi_endproc
 1819              	.LFE44:
 1820              		.size	FSMC_GetFlagStatus, .-FSMC_GetFlagStatus
 1821              		.align	1
 1822              		.global	FSMC_ClearFlag
 1823              		.syntax unified
 1824              		.thumb
 1825              		.thumb_func
 1826              		.fpu softvfp
 1827              		.type	FSMC_ClearFlag, %function
 1828              	FSMC_ClearFlag:
 1829              	.LFB45:
 732:../../source/src/FWlib/src/stm32f10x_fsmc.c **** 
 733:../../source/src/FWlib/src/stm32f10x_fsmc.c **** /**
 734:../../source/src/FWlib/src/stm32f10x_fsmc.c ****   * @brief  Clears the FSMC's pending flags.
 735:../../source/src/FWlib/src/stm32f10x_fsmc.c ****   * @param  FSMC_Bank: specifies the FSMC Bank to be used
 736:../../source/src/FWlib/src/stm32f10x_fsmc.c ****   *   This parameter can be one of the following values:
 737:../../source/src/FWlib/src/stm32f10x_fsmc.c ****   *     @arg FSMC_Bank2_NAND: FSMC Bank2 NAND 
 738:../../source/src/FWlib/src/stm32f10x_fsmc.c ****   *     @arg FSMC_Bank3_NAND: FSMC Bank3 NAND
 739:../../source/src/FWlib/src/stm32f10x_fsmc.c ****   *     @arg FSMC_Bank4_PCCARD: FSMC Bank4 PCCARD
 740:../../source/src/FWlib/src/stm32f10x_fsmc.c ****   * @param  FSMC_FLAG: specifies the flag to clear.
 741:../../source/src/FWlib/src/stm32f10x_fsmc.c ****   *   This parameter can be any combination of the following values:
 742:../../source/src/FWlib/src/stm32f10x_fsmc.c ****   *     @arg FSMC_FLAG_RisingEdge: Rising egde detection Flag.
 743:../../source/src/FWlib/src/stm32f10x_fsmc.c ****   *     @arg FSMC_FLAG_Level: Level detection Flag.
 744:../../source/src/FWlib/src/stm32f10x_fsmc.c ****   *     @arg FSMC_FLAG_FallingEdge: Falling egde detection Flag.
 745:../../source/src/FWlib/src/stm32f10x_fsmc.c ****   * @retval None
 746:../../source/src/FWlib/src/stm32f10x_fsmc.c ****   */
 747:../../source/src/FWlib/src/stm32f10x_fsmc.c **** void FSMC_ClearFlag(uint32_t FSMC_Bank, uint32_t FSMC_FLAG)
 748:../../source/src/FWlib/src/stm32f10x_fsmc.c **** {
 1830              		.loc 1 748 0
 1831              		.cfi_startproc
 1832              		@ args = 0, pretend = 0, frame = 8
 1833              		@ frame_needed = 1, uses_anonymous_args = 0
 1834              		@ link register save eliminated.
 1835 0810 80B4     		push	{r7}
 1836              	.LCFI94:
 1837              		.cfi_def_cfa_offset 4
 1838              		.cfi_offset 7, -4
 1839 0812 83B0     		sub	sp, sp, #12
 1840              	.LCFI95:
 1841              		.cfi_def_cfa_offset 16
 1842 0814 00AF     		add	r7, sp, #0
 1843              	.LCFI96:
 1844              		.cfi_def_cfa_register 7
 1845 0816 7860     		str	r0, [r7, #4]
ARM GAS  G:\Users\Jaxb\AppData\Local\Temp\ccbq8auC.s 			page 48


 1846 0818 3960     		str	r1, [r7]
 749:../../source/src/FWlib/src/stm32f10x_fsmc.c ****  /* Check the parameters */
 750:../../source/src/FWlib/src/stm32f10x_fsmc.c ****   assert_param(IS_FSMC_GETFLAG_BANK(FSMC_Bank));
 751:../../source/src/FWlib/src/stm32f10x_fsmc.c ****   assert_param(IS_FSMC_CLEAR_FLAG(FSMC_FLAG)) ;
 752:../../source/src/FWlib/src/stm32f10x_fsmc.c ****     
 753:../../source/src/FWlib/src/stm32f10x_fsmc.c ****   if(FSMC_Bank == FSMC_Bank2_NAND)
 1847              		.loc 1 753 0
 1848 081a 7B68     		ldr	r3, [r7, #4]
 1849 081c 102B     		cmp	r3, #16
 1850 081e 07D1     		bne	.L91
 754:../../source/src/FWlib/src/stm32f10x_fsmc.c ****   {
 755:../../source/src/FWlib/src/stm32f10x_fsmc.c ****     FSMC_Bank2->SR2 &= ~FSMC_FLAG; 
 1851              		.loc 1 755 0
 1852 0820 0F4B     		ldr	r3, .L95
 1853 0822 5A68     		ldr	r2, [r3, #4]
 1854 0824 3B68     		ldr	r3, [r7]
 1855 0826 DB43     		mvns	r3, r3
 1856 0828 0D49     		ldr	r1, .L95
 1857 082a 1340     		ands	r3, r3, r2
 1858 082c 4B60     		str	r3, [r1, #4]
 756:../../source/src/FWlib/src/stm32f10x_fsmc.c ****   }  
 757:../../source/src/FWlib/src/stm32f10x_fsmc.c ****   else if(FSMC_Bank == FSMC_Bank3_NAND)
 758:../../source/src/FWlib/src/stm32f10x_fsmc.c ****   {
 759:../../source/src/FWlib/src/stm32f10x_fsmc.c ****     FSMC_Bank3->SR3 &= ~FSMC_FLAG;
 760:../../source/src/FWlib/src/stm32f10x_fsmc.c ****   }
 761:../../source/src/FWlib/src/stm32f10x_fsmc.c ****   /* FSMC_Bank4_PCCARD*/
 762:../../source/src/FWlib/src/stm32f10x_fsmc.c ****   else
 763:../../source/src/FWlib/src/stm32f10x_fsmc.c ****   {
 764:../../source/src/FWlib/src/stm32f10x_fsmc.c ****     FSMC_Bank4->SR4 &= ~FSMC_FLAG;
 765:../../source/src/FWlib/src/stm32f10x_fsmc.c ****   }
 766:../../source/src/FWlib/src/stm32f10x_fsmc.c **** }
 1859              		.loc 1 766 0
 1860 082e 12E0     		b	.L94
 1861              	.L91:
 757:../../source/src/FWlib/src/stm32f10x_fsmc.c ****   {
 1862              		.loc 1 757 0
 1863 0830 7B68     		ldr	r3, [r7, #4]
 1864 0832 B3F5807F 		cmp	r3, #256
 1865 0836 07D1     		bne	.L93
 759:../../source/src/FWlib/src/stm32f10x_fsmc.c ****   }
 1866              		.loc 1 759 0
 1867 0838 0A4B     		ldr	r3, .L95+4
 1868 083a 5A68     		ldr	r2, [r3, #4]
 1869 083c 3B68     		ldr	r3, [r7]
 1870 083e DB43     		mvns	r3, r3
 1871 0840 0849     		ldr	r1, .L95+4
 1872 0842 1340     		ands	r3, r3, r2
 1873 0844 4B60     		str	r3, [r1, #4]
 1874              		.loc 1 766 0
 1875 0846 06E0     		b	.L94
 1876              	.L93:
 764:../../source/src/FWlib/src/stm32f10x_fsmc.c ****   }
 1877              		.loc 1 764 0
 1878 0848 074B     		ldr	r3, .L95+8
 1879 084a 5A68     		ldr	r2, [r3, #4]
 1880 084c 3B68     		ldr	r3, [r7]
 1881 084e DB43     		mvns	r3, r3
ARM GAS  G:\Users\Jaxb\AppData\Local\Temp\ccbq8auC.s 			page 49


 1882 0850 0549     		ldr	r1, .L95+8
 1883 0852 1340     		ands	r3, r3, r2
 1884 0854 4B60     		str	r3, [r1, #4]
 1885              	.L94:
 1886              		.loc 1 766 0
 1887 0856 00BF     		nop
 1888 0858 0C37     		adds	r7, r7, #12
 1889              	.LCFI97:
 1890              		.cfi_def_cfa_offset 4
 1891 085a BD46     		mov	sp, r7
 1892              	.LCFI98:
 1893              		.cfi_def_cfa_register 13
 1894              		@ sp needed
 1895 085c 80BC     		pop	{r7}
 1896              	.LCFI99:
 1897              		.cfi_restore 7
 1898              		.cfi_def_cfa_offset 0
 1899 085e 7047     		bx	lr
 1900              	.L96:
 1901              		.align	2
 1902              	.L95:
 1903 0860 600000A0 		.word	-1610612640
 1904 0864 800000A0 		.word	-1610612608
 1905 0868 A00000A0 		.word	-1610612576
 1906              		.cfi_endproc
 1907              	.LFE45:
 1908              		.size	FSMC_ClearFlag, .-FSMC_ClearFlag
 1909              		.align	1
 1910              		.global	FSMC_GetITStatus
 1911              		.syntax unified
 1912              		.thumb
 1913              		.thumb_func
 1914              		.fpu softvfp
 1915              		.type	FSMC_GetITStatus, %function
 1916              	FSMC_GetITStatus:
 1917              	.LFB46:
 767:../../source/src/FWlib/src/stm32f10x_fsmc.c **** 
 768:../../source/src/FWlib/src/stm32f10x_fsmc.c **** /**
 769:../../source/src/FWlib/src/stm32f10x_fsmc.c ****   * @brief  Checks whether the specified FSMC interrupt has occurred or not.
 770:../../source/src/FWlib/src/stm32f10x_fsmc.c ****   * @param  FSMC_Bank: specifies the FSMC Bank to be used
 771:../../source/src/FWlib/src/stm32f10x_fsmc.c ****   *   This parameter can be one of the following values:
 772:../../source/src/FWlib/src/stm32f10x_fsmc.c ****   *     @arg FSMC_Bank2_NAND: FSMC Bank2 NAND 
 773:../../source/src/FWlib/src/stm32f10x_fsmc.c ****   *     @arg FSMC_Bank3_NAND: FSMC Bank3 NAND
 774:../../source/src/FWlib/src/stm32f10x_fsmc.c ****   *     @arg FSMC_Bank4_PCCARD: FSMC Bank4 PCCARD
 775:../../source/src/FWlib/src/stm32f10x_fsmc.c ****   * @param  FSMC_IT: specifies the FSMC interrupt source to check.
 776:../../source/src/FWlib/src/stm32f10x_fsmc.c ****   *   This parameter can be one of the following values:
 777:../../source/src/FWlib/src/stm32f10x_fsmc.c ****   *     @arg FSMC_IT_RisingEdge: Rising edge detection interrupt. 
 778:../../source/src/FWlib/src/stm32f10x_fsmc.c ****   *     @arg FSMC_IT_Level: Level edge detection interrupt.
 779:../../source/src/FWlib/src/stm32f10x_fsmc.c ****   *     @arg FSMC_IT_FallingEdge: Falling edge detection interrupt. 
 780:../../source/src/FWlib/src/stm32f10x_fsmc.c ****   * @retval The new state of FSMC_IT (SET or RESET).
 781:../../source/src/FWlib/src/stm32f10x_fsmc.c ****   */
 782:../../source/src/FWlib/src/stm32f10x_fsmc.c **** ITStatus FSMC_GetITStatus(uint32_t FSMC_Bank, uint32_t FSMC_IT)
 783:../../source/src/FWlib/src/stm32f10x_fsmc.c **** {
 1918              		.loc 1 783 0
 1919              		.cfi_startproc
 1920              		@ args = 0, pretend = 0, frame = 24
 1921              		@ frame_needed = 1, uses_anonymous_args = 0
ARM GAS  G:\Users\Jaxb\AppData\Local\Temp\ccbq8auC.s 			page 50


 1922              		@ link register save eliminated.
 1923 086c 80B4     		push	{r7}
 1924              	.LCFI100:
 1925              		.cfi_def_cfa_offset 4
 1926              		.cfi_offset 7, -4
 1927 086e 87B0     		sub	sp, sp, #28
 1928              	.LCFI101:
 1929              		.cfi_def_cfa_offset 32
 1930 0870 00AF     		add	r7, sp, #0
 1931              	.LCFI102:
 1932              		.cfi_def_cfa_register 7
 1933 0872 7860     		str	r0, [r7, #4]
 1934 0874 3960     		str	r1, [r7]
 784:../../source/src/FWlib/src/stm32f10x_fsmc.c ****   ITStatus bitstatus = RESET;
 1935              		.loc 1 784 0
 1936 0876 0023     		movs	r3, #0
 1937 0878 FB75     		strb	r3, [r7, #23]
 785:../../source/src/FWlib/src/stm32f10x_fsmc.c ****   uint32_t tmpsr = 0x0, itstatus = 0x0, itenable = 0x0; 
 1938              		.loc 1 785 0
 1939 087a 0023     		movs	r3, #0
 1940 087c 3B61     		str	r3, [r7, #16]
 1941 087e 0023     		movs	r3, #0
 1942 0880 FB60     		str	r3, [r7, #12]
 1943 0882 0023     		movs	r3, #0
 1944 0884 BB60     		str	r3, [r7, #8]
 786:../../source/src/FWlib/src/stm32f10x_fsmc.c ****   
 787:../../source/src/FWlib/src/stm32f10x_fsmc.c ****   /* Check the parameters */
 788:../../source/src/FWlib/src/stm32f10x_fsmc.c ****   assert_param(IS_FSMC_IT_BANK(FSMC_Bank));
 789:../../source/src/FWlib/src/stm32f10x_fsmc.c ****   assert_param(IS_FSMC_GET_IT(FSMC_IT));
 790:../../source/src/FWlib/src/stm32f10x_fsmc.c ****   
 791:../../source/src/FWlib/src/stm32f10x_fsmc.c ****   if(FSMC_Bank == FSMC_Bank2_NAND)
 1945              		.loc 1 791 0
 1946 0886 7B68     		ldr	r3, [r7, #4]
 1947 0888 102B     		cmp	r3, #16
 1948 088a 03D1     		bne	.L98
 792:../../source/src/FWlib/src/stm32f10x_fsmc.c ****   {
 793:../../source/src/FWlib/src/stm32f10x_fsmc.c ****     tmpsr = FSMC_Bank2->SR2;
 1949              		.loc 1 793 0
 1950 088c 144B     		ldr	r3, .L104
 1951 088e 5B68     		ldr	r3, [r3, #4]
 1952 0890 3B61     		str	r3, [r7, #16]
 1953 0892 0AE0     		b	.L99
 1954              	.L98:
 794:../../source/src/FWlib/src/stm32f10x_fsmc.c ****   }  
 795:../../source/src/FWlib/src/stm32f10x_fsmc.c ****   else if(FSMC_Bank == FSMC_Bank3_NAND)
 1955              		.loc 1 795 0
 1956 0894 7B68     		ldr	r3, [r7, #4]
 1957 0896 B3F5807F 		cmp	r3, #256
 1958 089a 03D1     		bne	.L100
 796:../../source/src/FWlib/src/stm32f10x_fsmc.c ****   {
 797:../../source/src/FWlib/src/stm32f10x_fsmc.c ****     tmpsr = FSMC_Bank3->SR3;
 1959              		.loc 1 797 0
 1960 089c 114B     		ldr	r3, .L104+4
 1961 089e 5B68     		ldr	r3, [r3, #4]
 1962 08a0 3B61     		str	r3, [r7, #16]
 1963 08a2 02E0     		b	.L99
 1964              	.L100:
ARM GAS  G:\Users\Jaxb\AppData\Local\Temp\ccbq8auC.s 			page 51


 798:../../source/src/FWlib/src/stm32f10x_fsmc.c ****   }
 799:../../source/src/FWlib/src/stm32f10x_fsmc.c ****   /* FSMC_Bank4_PCCARD*/
 800:../../source/src/FWlib/src/stm32f10x_fsmc.c ****   else
 801:../../source/src/FWlib/src/stm32f10x_fsmc.c ****   {
 802:../../source/src/FWlib/src/stm32f10x_fsmc.c ****     tmpsr = FSMC_Bank4->SR4;
 1965              		.loc 1 802 0
 1966 08a4 104B     		ldr	r3, .L104+8
 1967 08a6 5B68     		ldr	r3, [r3, #4]
 1968 08a8 3B61     		str	r3, [r7, #16]
 1969              	.L99:
 803:../../source/src/FWlib/src/stm32f10x_fsmc.c ****   } 
 804:../../source/src/FWlib/src/stm32f10x_fsmc.c ****   
 805:../../source/src/FWlib/src/stm32f10x_fsmc.c ****   itstatus = tmpsr & FSMC_IT;
 1970              		.loc 1 805 0
 1971 08aa 3A69     		ldr	r2, [r7, #16]
 1972 08ac 3B68     		ldr	r3, [r7]
 1973 08ae 1340     		ands	r3, r3, r2
 1974 08b0 FB60     		str	r3, [r7, #12]
 806:../../source/src/FWlib/src/stm32f10x_fsmc.c ****   
 807:../../source/src/FWlib/src/stm32f10x_fsmc.c ****   itenable = tmpsr & (FSMC_IT >> 3);
 1975              		.loc 1 807 0
 1976 08b2 3B68     		ldr	r3, [r7]
 1977 08b4 DB08     		lsrs	r3, r3, #3
 1978 08b6 3A69     		ldr	r2, [r7, #16]
 1979 08b8 1340     		ands	r3, r3, r2
 1980 08ba BB60     		str	r3, [r7, #8]
 808:../../source/src/FWlib/src/stm32f10x_fsmc.c ****   if ((itstatus != (uint32_t)RESET)  && (itenable != (uint32_t)RESET))
 1981              		.loc 1 808 0
 1982 08bc FB68     		ldr	r3, [r7, #12]
 1983 08be 002B     		cmp	r3, #0
 1984 08c0 05D0     		beq	.L101
 1985              		.loc 1 808 0 is_stmt 0 discriminator 1
 1986 08c2 BB68     		ldr	r3, [r7, #8]
 1987 08c4 002B     		cmp	r3, #0
 1988 08c6 02D0     		beq	.L101
 809:../../source/src/FWlib/src/stm32f10x_fsmc.c ****   {
 810:../../source/src/FWlib/src/stm32f10x_fsmc.c ****     bitstatus = SET;
 1989              		.loc 1 810 0 is_stmt 1
 1990 08c8 0123     		movs	r3, #1
 1991 08ca FB75     		strb	r3, [r7, #23]
 1992 08cc 01E0     		b	.L102
 1993              	.L101:
 811:../../source/src/FWlib/src/stm32f10x_fsmc.c ****   }
 812:../../source/src/FWlib/src/stm32f10x_fsmc.c ****   else
 813:../../source/src/FWlib/src/stm32f10x_fsmc.c ****   {
 814:../../source/src/FWlib/src/stm32f10x_fsmc.c ****     bitstatus = RESET;
 1994              		.loc 1 814 0
 1995 08ce 0023     		movs	r3, #0
 1996 08d0 FB75     		strb	r3, [r7, #23]
 1997              	.L102:
 815:../../source/src/FWlib/src/stm32f10x_fsmc.c ****   }
 816:../../source/src/FWlib/src/stm32f10x_fsmc.c ****   return bitstatus; 
 1998              		.loc 1 816 0
 1999 08d2 FB7D     		ldrb	r3, [r7, #23]	@ zero_extendqisi2
 817:../../source/src/FWlib/src/stm32f10x_fsmc.c **** }
 2000              		.loc 1 817 0
 2001 08d4 1846     		mov	r0, r3
ARM GAS  G:\Users\Jaxb\AppData\Local\Temp\ccbq8auC.s 			page 52


 2002 08d6 1C37     		adds	r7, r7, #28
 2003              	.LCFI103:
 2004              		.cfi_def_cfa_offset 4
 2005 08d8 BD46     		mov	sp, r7
 2006              	.LCFI104:
 2007              		.cfi_def_cfa_register 13
 2008              		@ sp needed
 2009 08da 80BC     		pop	{r7}
 2010              	.LCFI105:
 2011              		.cfi_restore 7
 2012              		.cfi_def_cfa_offset 0
 2013 08dc 7047     		bx	lr
 2014              	.L105:
 2015 08de 00BF     		.align	2
 2016              	.L104:
 2017 08e0 600000A0 		.word	-1610612640
 2018 08e4 800000A0 		.word	-1610612608
 2019 08e8 A00000A0 		.word	-1610612576
 2020              		.cfi_endproc
 2021              	.LFE46:
 2022              		.size	FSMC_GetITStatus, .-FSMC_GetITStatus
 2023              		.align	1
 2024              		.global	FSMC_ClearITPendingBit
 2025              		.syntax unified
 2026              		.thumb
 2027              		.thumb_func
 2028              		.fpu softvfp
 2029              		.type	FSMC_ClearITPendingBit, %function
 2030              	FSMC_ClearITPendingBit:
 2031              	.LFB47:
 818:../../source/src/FWlib/src/stm32f10x_fsmc.c **** 
 819:../../source/src/FWlib/src/stm32f10x_fsmc.c **** /**
 820:../../source/src/FWlib/src/stm32f10x_fsmc.c ****   * @brief  Clears the FSMC's interrupt pending bits.
 821:../../source/src/FWlib/src/stm32f10x_fsmc.c ****   * @param  FSMC_Bank: specifies the FSMC Bank to be used
 822:../../source/src/FWlib/src/stm32f10x_fsmc.c ****   *   This parameter can be one of the following values:
 823:../../source/src/FWlib/src/stm32f10x_fsmc.c ****   *     @arg FSMC_Bank2_NAND: FSMC Bank2 NAND 
 824:../../source/src/FWlib/src/stm32f10x_fsmc.c ****   *     @arg FSMC_Bank3_NAND: FSMC Bank3 NAND
 825:../../source/src/FWlib/src/stm32f10x_fsmc.c ****   *     @arg FSMC_Bank4_PCCARD: FSMC Bank4 PCCARD
 826:../../source/src/FWlib/src/stm32f10x_fsmc.c ****   * @param  FSMC_IT: specifies the interrupt pending bit to clear.
 827:../../source/src/FWlib/src/stm32f10x_fsmc.c ****   *   This parameter can be any combination of the following values:
 828:../../source/src/FWlib/src/stm32f10x_fsmc.c ****   *     @arg FSMC_IT_RisingEdge: Rising edge detection interrupt. 
 829:../../source/src/FWlib/src/stm32f10x_fsmc.c ****   *     @arg FSMC_IT_Level: Level edge detection interrupt.
 830:../../source/src/FWlib/src/stm32f10x_fsmc.c ****   *     @arg FSMC_IT_FallingEdge: Falling edge detection interrupt.
 831:../../source/src/FWlib/src/stm32f10x_fsmc.c ****   * @retval None
 832:../../source/src/FWlib/src/stm32f10x_fsmc.c ****   */
 833:../../source/src/FWlib/src/stm32f10x_fsmc.c **** void FSMC_ClearITPendingBit(uint32_t FSMC_Bank, uint32_t FSMC_IT)
 834:../../source/src/FWlib/src/stm32f10x_fsmc.c **** {
 2032              		.loc 1 834 0
 2033              		.cfi_startproc
 2034              		@ args = 0, pretend = 0, frame = 8
 2035              		@ frame_needed = 1, uses_anonymous_args = 0
 2036              		@ link register save eliminated.
 2037 08ec 80B4     		push	{r7}
 2038              	.LCFI106:
 2039              		.cfi_def_cfa_offset 4
 2040              		.cfi_offset 7, -4
 2041 08ee 83B0     		sub	sp, sp, #12
ARM GAS  G:\Users\Jaxb\AppData\Local\Temp\ccbq8auC.s 			page 53


 2042              	.LCFI107:
 2043              		.cfi_def_cfa_offset 16
 2044 08f0 00AF     		add	r7, sp, #0
 2045              	.LCFI108:
 2046              		.cfi_def_cfa_register 7
 2047 08f2 7860     		str	r0, [r7, #4]
 2048 08f4 3960     		str	r1, [r7]
 835:../../source/src/FWlib/src/stm32f10x_fsmc.c ****   /* Check the parameters */
 836:../../source/src/FWlib/src/stm32f10x_fsmc.c ****   assert_param(IS_FSMC_IT_BANK(FSMC_Bank));
 837:../../source/src/FWlib/src/stm32f10x_fsmc.c ****   assert_param(IS_FSMC_IT(FSMC_IT));
 838:../../source/src/FWlib/src/stm32f10x_fsmc.c ****     
 839:../../source/src/FWlib/src/stm32f10x_fsmc.c ****   if(FSMC_Bank == FSMC_Bank2_NAND)
 2049              		.loc 1 839 0
 2050 08f6 7B68     		ldr	r3, [r7, #4]
 2051 08f8 102B     		cmp	r3, #16
 2052 08fa 08D1     		bne	.L107
 840:../../source/src/FWlib/src/stm32f10x_fsmc.c ****   {
 841:../../source/src/FWlib/src/stm32f10x_fsmc.c ****     FSMC_Bank2->SR2 &= ~(FSMC_IT >> 3); 
 2053              		.loc 1 841 0
 2054 08fc 114B     		ldr	r3, .L111
 2055 08fe 5A68     		ldr	r2, [r3, #4]
 2056 0900 3B68     		ldr	r3, [r7]
 2057 0902 DB08     		lsrs	r3, r3, #3
 2058 0904 DB43     		mvns	r3, r3
 2059 0906 0F49     		ldr	r1, .L111
 2060 0908 1340     		ands	r3, r3, r2
 2061 090a 4B60     		str	r3, [r1, #4]
 842:../../source/src/FWlib/src/stm32f10x_fsmc.c ****   }  
 843:../../source/src/FWlib/src/stm32f10x_fsmc.c ****   else if(FSMC_Bank == FSMC_Bank3_NAND)
 844:../../source/src/FWlib/src/stm32f10x_fsmc.c ****   {
 845:../../source/src/FWlib/src/stm32f10x_fsmc.c ****     FSMC_Bank3->SR3 &= ~(FSMC_IT >> 3);
 846:../../source/src/FWlib/src/stm32f10x_fsmc.c ****   }
 847:../../source/src/FWlib/src/stm32f10x_fsmc.c ****   /* FSMC_Bank4_PCCARD*/
 848:../../source/src/FWlib/src/stm32f10x_fsmc.c ****   else
 849:../../source/src/FWlib/src/stm32f10x_fsmc.c ****   {
 850:../../source/src/FWlib/src/stm32f10x_fsmc.c ****     FSMC_Bank4->SR4 &= ~(FSMC_IT >> 3);
 851:../../source/src/FWlib/src/stm32f10x_fsmc.c ****   }
 852:../../source/src/FWlib/src/stm32f10x_fsmc.c **** }
 2062              		.loc 1 852 0
 2063 090c 14E0     		b	.L110
 2064              	.L107:
 843:../../source/src/FWlib/src/stm32f10x_fsmc.c ****   {
 2065              		.loc 1 843 0
 2066 090e 7B68     		ldr	r3, [r7, #4]
 2067 0910 B3F5807F 		cmp	r3, #256
 2068 0914 08D1     		bne	.L109
 845:../../source/src/FWlib/src/stm32f10x_fsmc.c ****   }
 2069              		.loc 1 845 0
 2070 0916 0C4B     		ldr	r3, .L111+4
 2071 0918 5A68     		ldr	r2, [r3, #4]
 2072 091a 3B68     		ldr	r3, [r7]
 2073 091c DB08     		lsrs	r3, r3, #3
 2074 091e DB43     		mvns	r3, r3
 2075 0920 0949     		ldr	r1, .L111+4
 2076 0922 1340     		ands	r3, r3, r2
 2077 0924 4B60     		str	r3, [r1, #4]
 2078              		.loc 1 852 0
ARM GAS  G:\Users\Jaxb\AppData\Local\Temp\ccbq8auC.s 			page 54


 2079 0926 07E0     		b	.L110
 2080              	.L109:
 850:../../source/src/FWlib/src/stm32f10x_fsmc.c ****   }
 2081              		.loc 1 850 0
 2082 0928 084B     		ldr	r3, .L111+8
 2083 092a 5A68     		ldr	r2, [r3, #4]
 2084 092c 3B68     		ldr	r3, [r7]
 2085 092e DB08     		lsrs	r3, r3, #3
 2086 0930 DB43     		mvns	r3, r3
 2087 0932 0649     		ldr	r1, .L111+8
 2088 0934 1340     		ands	r3, r3, r2
 2089 0936 4B60     		str	r3, [r1, #4]
 2090              	.L110:
 2091              		.loc 1 852 0
 2092 0938 00BF     		nop
 2093 093a 0C37     		adds	r7, r7, #12
 2094              	.LCFI109:
 2095              		.cfi_def_cfa_offset 4
 2096 093c BD46     		mov	sp, r7
 2097              	.LCFI110:
 2098              		.cfi_def_cfa_register 13
 2099              		@ sp needed
 2100 093e 80BC     		pop	{r7}
 2101              	.LCFI111:
 2102              		.cfi_restore 7
 2103              		.cfi_def_cfa_offset 0
 2104 0940 7047     		bx	lr
 2105              	.L112:
 2106 0942 00BF     		.align	2
 2107              	.L111:
 2108 0944 600000A0 		.word	-1610612640
 2109 0948 800000A0 		.word	-1610612608
 2110 094c A00000A0 		.word	-1610612576
 2111              		.cfi_endproc
 2112              	.LFE47:
 2113              		.size	FSMC_ClearITPendingBit, .-FSMC_ClearITPendingBit
 2114              	.Letext0:
 2115              		.file 2 "f:\\arm\\gcc2018\\arm-none-eabi\\include\\machine\\_default_types.h"
 2116              		.file 3 "f:\\arm\\gcc2018\\arm-none-eabi\\include\\sys\\_stdint.h"
 2117              		.file 4 "../../source/include/core_cm3.h"
 2118              		.file 5 "../../source/include/system_stm32f10x.h"
 2119              		.file 6 "../../source/include/stm32f10x.h"
 2120              		.file 7 "../../source/src/FWlib/inc/stm32f10x_fsmc.h"
 2121              		.section	.debug_info,"",%progbits
 2122              	.Ldebug_info0:
 2123 0000 C3090000 		.4byte	0x9c3
 2124 0004 0200     		.2byte	0x2
 2125 0006 00000000 		.4byte	.Ldebug_abbrev0
 2126 000a 04       		.byte	0x4
 2127 000b 01       		.uleb128 0x1
 2128 000c B2060000 		.4byte	.LASF111
 2129 0010 0C       		.byte	0xc
 2130 0011 97000000 		.4byte	.LASF112
 2131 0015 3C020000 		.4byte	.LASF113
 2132 0019 00000000 		.4byte	.Ltext0
 2133 001d 50090000 		.4byte	.Letext0
 2134 0021 00000000 		.4byte	.Ldebug_line0
ARM GAS  G:\Users\Jaxb\AppData\Local\Temp\ccbq8auC.s 			page 55


 2135 0025 02       		.uleb128 0x2
 2136 0026 01       		.byte	0x1
 2137 0027 06       		.byte	0x6
 2138 0028 9D030000 		.4byte	.LASF0
 2139 002c 02       		.uleb128 0x2
 2140 002d 01       		.byte	0x1
 2141 002e 08       		.byte	0x8
 2142 002f 58030000 		.4byte	.LASF1
 2143 0033 02       		.uleb128 0x2
 2144 0034 02       		.byte	0x2
 2145 0035 05       		.byte	0x5
 2146 0036 4A010000 		.4byte	.LASF2
 2147 003a 03       		.uleb128 0x3
 2148 003b 28010000 		.4byte	.LASF5
 2149 003f 02       		.byte	0x2
 2150 0040 39       		.byte	0x39
 2151 0041 45000000 		.4byte	0x45
 2152 0045 02       		.uleb128 0x2
 2153 0046 02       		.byte	0x2
 2154 0047 07       		.byte	0x7
 2155 0048 F0050000 		.4byte	.LASF3
 2156 004c 02       		.uleb128 0x2
 2157 004d 04       		.byte	0x4
 2158 004e 05       		.byte	0x5
 2159 004f A9020000 		.4byte	.LASF4
 2160 0053 03       		.uleb128 0x3
 2161 0054 0A010000 		.4byte	.LASF6
 2162 0058 02       		.byte	0x2
 2163 0059 4F       		.byte	0x4f
 2164 005a 5E000000 		.4byte	0x5e
 2165 005e 02       		.uleb128 0x2
 2166 005f 04       		.byte	0x4
 2167 0060 07       		.byte	0x7
 2168 0061 AE050000 		.4byte	.LASF7
 2169 0065 02       		.uleb128 0x2
 2170 0066 08       		.byte	0x8
 2171 0067 05       		.byte	0x5
 2172 0068 6A020000 		.4byte	.LASF8
 2173 006c 02       		.uleb128 0x2
 2174 006d 08       		.byte	0x8
 2175 006e 07       		.byte	0x7
 2176 006f A9030000 		.4byte	.LASF9
 2177 0073 04       		.uleb128 0x4
 2178 0074 04       		.byte	0x4
 2179 0075 05       		.byte	0x5
 2180 0076 696E7400 		.ascii	"int\000"
 2181 007a 05       		.uleb128 0x5
 2182 007b 73000000 		.4byte	0x73
 2183 007f 02       		.uleb128 0x2
 2184 0080 04       		.byte	0x4
 2185 0081 07       		.byte	0x7
 2186 0082 E0030000 		.4byte	.LASF10
 2187 0086 03       		.uleb128 0x3
 2188 0087 BE040000 		.4byte	.LASF11
 2189 008b 03       		.byte	0x3
 2190 008c 24       		.byte	0x24
 2191 008d 3A000000 		.4byte	0x3a
ARM GAS  G:\Users\Jaxb\AppData\Local\Temp\ccbq8auC.s 			page 56


 2192 0091 03       		.uleb128 0x3
 2193 0092 C0030000 		.4byte	.LASF12
 2194 0096 03       		.byte	0x3
 2195 0097 30       		.byte	0x30
 2196 0098 53000000 		.4byte	0x53
 2197 009c 05       		.uleb128 0x5
 2198 009d 91000000 		.4byte	0x91
 2199 00a1 06       		.uleb128 0x6
 2200 00a2 9C000000 		.4byte	0x9c
 2201 00a6 B1000000 		.4byte	0xb1
 2202 00aa 07       		.uleb128 0x7
 2203 00ab 7F000000 		.4byte	0x7f
 2204 00af 07       		.byte	0x7
 2205 00b0 00       		.byte	0
 2206 00b1 05       		.uleb128 0x5
 2207 00b2 A1000000 		.4byte	0xa1
 2208 00b6 08       		.uleb128 0x8
 2209 00b7 6D070000 		.4byte	.LASF13
 2210 00bb 04       		.byte	0x4
 2211 00bc CE06     		.2byte	0x6ce
 2212 00be 7A000000 		.4byte	0x7a
 2213 00c2 01       		.byte	0x1
 2214 00c3 01       		.byte	0x1
 2215 00c4 09       		.uleb128 0x9
 2216 00c5 1C050000 		.4byte	.LASF14
 2217 00c9 05       		.byte	0x5
 2218 00ca 35       		.byte	0x35
 2219 00cb 91000000 		.4byte	0x91
 2220 00cf 01       		.byte	0x1
 2221 00d0 01       		.byte	0x1
 2222 00d1 0A       		.uleb128 0xa
 2223 00d2 07       		.byte	0x7
 2224 00d3 01       		.byte	0x1
 2225 00d4 2C000000 		.4byte	0x2c
 2226 00d8 06       		.byte	0x6
 2227 00d9 0702     		.2byte	0x207
 2228 00db EC000000 		.4byte	0xec
 2229 00df 0B       		.uleb128 0xb
 2230 00e0 3D060000 		.4byte	.LASF15
 2231 00e4 00       		.byte	0
 2232 00e5 0C       		.uleb128 0xc
 2233 00e6 53455400 		.ascii	"SET\000"
 2234 00ea 01       		.byte	0x1
 2235 00eb 00       		.byte	0
 2236 00ec 0D       		.uleb128 0xd
 2237 00ed 86070000 		.4byte	.LASF16
 2238 00f1 06       		.byte	0x6
 2239 00f2 0702     		.2byte	0x207
 2240 00f4 D1000000 		.4byte	0xd1
 2241 00f8 0D       		.uleb128 0xd
 2242 00f9 A0020000 		.4byte	.LASF17
 2243 00fd 06       		.byte	0x6
 2244 00fe 0702     		.2byte	0x207
 2245 0100 D1000000 		.4byte	0xd1
 2246 0104 0A       		.uleb128 0xa
 2247 0105 07       		.byte	0x7
 2248 0106 01       		.byte	0x1
ARM GAS  G:\Users\Jaxb\AppData\Local\Temp\ccbq8auC.s 			page 57


 2249 0107 2C000000 		.4byte	0x2c
 2250 010b 06       		.byte	0x6
 2251 010c 0902     		.2byte	0x209
 2252 010e 1F010000 		.4byte	0x11f
 2253 0112 0B       		.uleb128 0xb
 2254 0113 BC020000 		.4byte	.LASF18
 2255 0117 00       		.byte	0
 2256 0118 0B       		.uleb128 0xb
 2257 0119 A9070000 		.4byte	.LASF19
 2258 011d 01       		.byte	0x1
 2259 011e 00       		.byte	0
 2260 011f 0D       		.uleb128 0xd
 2261 0120 E0050000 		.4byte	.LASF20
 2262 0124 06       		.byte	0x6
 2263 0125 0902     		.2byte	0x209
 2264 0127 04010000 		.4byte	0x104
 2265 012b 0E       		.uleb128 0xe
 2266 012c 20       		.byte	0x20
 2267 012d 06       		.byte	0x6
 2268 012e AE03     		.2byte	0x3ae
 2269 0130 44010000 		.4byte	0x144
 2270 0134 0F       		.uleb128 0xf
 2271 0135 5F000000 		.4byte	.LASF22
 2272 0139 06       		.byte	0x6
 2273 013a B003     		.2byte	0x3b0
 2274 013c B1000000 		.4byte	0xb1
 2275 0140 02       		.byte	0x2
 2276 0141 23       		.byte	0x23
 2277 0142 00       		.uleb128 0
 2278 0143 00       		.byte	0
 2279 0144 0D       		.uleb128 0xd
 2280 0145 D8020000 		.4byte	.LASF21
 2281 0149 06       		.byte	0x6
 2282 014a B103     		.2byte	0x3b1
 2283 014c 2B010000 		.4byte	0x12b
 2284 0150 0E       		.uleb128 0xe
 2285 0151 1C       		.byte	0x1c
 2286 0152 06       		.byte	0x6
 2287 0153 B703     		.2byte	0x3b7
 2288 0155 69010000 		.4byte	0x169
 2289 0159 0F       		.uleb128 0xf
 2290 015a 2E030000 		.4byte	.LASF23
 2291 015e 06       		.byte	0x6
 2292 015f B903     		.2byte	0x3b9
 2293 0161 79010000 		.4byte	0x179
 2294 0165 02       		.byte	0x2
 2295 0166 23       		.byte	0x23
 2296 0167 00       		.uleb128 0
 2297 0168 00       		.byte	0
 2298 0169 06       		.uleb128 0x6
 2299 016a 9C000000 		.4byte	0x9c
 2300 016e 79010000 		.4byte	0x179
 2301 0172 07       		.uleb128 0x7
 2302 0173 7F000000 		.4byte	0x7f
 2303 0177 06       		.byte	0x6
 2304 0178 00       		.byte	0
 2305 0179 05       		.uleb128 0x5
ARM GAS  G:\Users\Jaxb\AppData\Local\Temp\ccbq8auC.s 			page 58


 2306 017a 69010000 		.4byte	0x169
 2307 017e 0D       		.uleb128 0xd
 2308 017f C4020000 		.4byte	.LASF24
 2309 0183 06       		.byte	0x6
 2310 0184 BA03     		.2byte	0x3ba
 2311 0186 50010000 		.4byte	0x150
 2312 018a 0E       		.uleb128 0xe
 2313 018b 18       		.byte	0x18
 2314 018c 06       		.byte	0x6
 2315 018d C003     		.2byte	0x3c0
 2316 018f EE010000 		.4byte	0x1ee
 2317 0193 0F       		.uleb128 0xf
 2318 0194 80050000 		.4byte	.LASF25
 2319 0198 06       		.byte	0x6
 2320 0199 C203     		.2byte	0x3c2
 2321 019b 9C000000 		.4byte	0x9c
 2322 019f 02       		.byte	0x2
 2323 01a0 23       		.byte	0x23
 2324 01a1 00       		.uleb128 0
 2325 01a2 10       		.uleb128 0x10
 2326 01a3 53523200 		.ascii	"SR2\000"
 2327 01a7 06       		.byte	0x6
 2328 01a8 C303     		.2byte	0x3c3
 2329 01aa 9C000000 		.4byte	0x9c
 2330 01ae 02       		.byte	0x2
 2331 01af 23       		.byte	0x23
 2332 01b0 04       		.uleb128 0x4
 2333 01b1 0F       		.uleb128 0xf
 2334 01b2 2B060000 		.4byte	.LASF26
 2335 01b6 06       		.byte	0x6
 2336 01b7 C403     		.2byte	0x3c4
 2337 01b9 9C000000 		.4byte	0x9c
 2338 01bd 02       		.byte	0x2
 2339 01be 23       		.byte	0x23
 2340 01bf 08       		.uleb128 0x8
 2341 01c0 0F       		.uleb128 0xf
 2342 01c1 43060000 		.4byte	.LASF27
 2343 01c5 06       		.byte	0x6
 2344 01c6 C503     		.2byte	0x3c5
 2345 01c8 9C000000 		.4byte	0x9c
 2346 01cc 02       		.byte	0x2
 2347 01cd 23       		.byte	0x23
 2348 01ce 0C       		.uleb128 0xc
 2349 01cf 0F       		.uleb128 0xf
 2350 01d0 12050000 		.4byte	.LASF28
 2351 01d4 06       		.byte	0x6
 2352 01d5 C603     		.2byte	0x3c6
 2353 01d7 91000000 		.4byte	0x91
 2354 01db 02       		.byte	0x2
 2355 01dc 23       		.byte	0x23
 2356 01dd 10       		.uleb128 0x10
 2357 01de 0F       		.uleb128 0xf
 2358 01df 7A070000 		.4byte	.LASF29
 2359 01e3 06       		.byte	0x6
 2360 01e4 C703     		.2byte	0x3c7
 2361 01e6 9C000000 		.4byte	0x9c
 2362 01ea 02       		.byte	0x2
ARM GAS  G:\Users\Jaxb\AppData\Local\Temp\ccbq8auC.s 			page 59


 2363 01eb 23       		.byte	0x23
 2364 01ec 14       		.uleb128 0x14
 2365 01ed 00       		.byte	0
 2366 01ee 0D       		.uleb128 0xd
 2367 01ef 01040000 		.4byte	.LASF30
 2368 01f3 06       		.byte	0x6
 2369 01f4 C803     		.2byte	0x3c8
 2370 01f6 8A010000 		.4byte	0x18a
 2371 01fa 0E       		.uleb128 0xe
 2372 01fb 18       		.byte	0x18
 2373 01fc 06       		.byte	0x6
 2374 01fd CE03     		.2byte	0x3ce
 2375 01ff 5E020000 		.4byte	0x25e
 2376 0203 0F       		.uleb128 0xf
 2377 0204 C9030000 		.4byte	.LASF31
 2378 0208 06       		.byte	0x6
 2379 0209 D003     		.2byte	0x3d0
 2380 020b 9C000000 		.4byte	0x9c
 2381 020f 02       		.byte	0x2
 2382 0210 23       		.byte	0x23
 2383 0211 00       		.uleb128 0
 2384 0212 10       		.uleb128 0x10
 2385 0213 53523300 		.ascii	"SR3\000"
 2386 0217 06       		.byte	0x6
 2387 0218 D103     		.2byte	0x3d1
 2388 021a 9C000000 		.4byte	0x9c
 2389 021e 02       		.byte	0x2
 2390 021f 23       		.byte	0x23
 2391 0220 04       		.uleb128 0x4
 2392 0221 0F       		.uleb128 0xf
 2393 0222 31060000 		.4byte	.LASF32
 2394 0226 06       		.byte	0x6
 2395 0227 D203     		.2byte	0x3d2
 2396 0229 9C000000 		.4byte	0x9c
 2397 022d 02       		.byte	0x2
 2398 022e 23       		.byte	0x23
 2399 022f 08       		.uleb128 0x8
 2400 0230 0F       		.uleb128 0xf
 2401 0231 49060000 		.4byte	.LASF33
 2402 0235 06       		.byte	0x6
 2403 0236 D303     		.2byte	0x3d3
 2404 0238 9C000000 		.4byte	0x9c
 2405 023c 02       		.byte	0x2
 2406 023d 23       		.byte	0x23
 2407 023e 0C       		.uleb128 0xc
 2408 023f 0F       		.uleb128 0xf
 2409 0240 12050000 		.4byte	.LASF28
 2410 0244 06       		.byte	0x6
 2411 0245 D403     		.2byte	0x3d4
 2412 0247 91000000 		.4byte	0x91
 2413 024b 02       		.byte	0x2
 2414 024c 23       		.byte	0x23
 2415 024d 10       		.uleb128 0x10
 2416 024e 0F       		.uleb128 0xf
 2417 024f 80070000 		.4byte	.LASF34
 2418 0253 06       		.byte	0x6
 2419 0254 D503     		.2byte	0x3d5
ARM GAS  G:\Users\Jaxb\AppData\Local\Temp\ccbq8auC.s 			page 60


 2420 0256 9C000000 		.4byte	0x9c
 2421 025a 02       		.byte	0x2
 2422 025b 23       		.byte	0x23
 2423 025c 14       		.uleb128 0x14
 2424 025d 00       		.byte	0
 2425 025e 0D       		.uleb128 0xd
 2426 025f 6E040000 		.4byte	.LASF35
 2427 0263 06       		.byte	0x6
 2428 0264 D603     		.2byte	0x3d6
 2429 0266 FA010000 		.4byte	0x1fa
 2430 026a 0E       		.uleb128 0xe
 2431 026b 14       		.byte	0x14
 2432 026c 06       		.byte	0x6
 2433 026d DC03     		.2byte	0x3dc
 2434 026f BF020000 		.4byte	0x2bf
 2435 0273 0F       		.uleb128 0xf
 2436 0274 99050000 		.4byte	.LASF36
 2437 0278 06       		.byte	0x6
 2438 0279 DE03     		.2byte	0x3de
 2439 027b 9C000000 		.4byte	0x9c
 2440 027f 02       		.byte	0x2
 2441 0280 23       		.byte	0x23
 2442 0281 00       		.uleb128 0
 2443 0282 10       		.uleb128 0x10
 2444 0283 53523400 		.ascii	"SR4\000"
 2445 0287 06       		.byte	0x6
 2446 0288 DF03     		.2byte	0x3df
 2447 028a 9C000000 		.4byte	0x9c
 2448 028e 02       		.byte	0x2
 2449 028f 23       		.byte	0x23
 2450 0290 04       		.uleb128 0x4
 2451 0291 0F       		.uleb128 0xf
 2452 0292 37060000 		.4byte	.LASF37
 2453 0296 06       		.byte	0x6
 2454 0297 E003     		.2byte	0x3e0
 2455 0299 9C000000 		.4byte	0x9c
 2456 029d 02       		.byte	0x2
 2457 029e 23       		.byte	0x23
 2458 029f 08       		.uleb128 0x8
 2459 02a0 0F       		.uleb128 0xf
 2460 02a1 7A050000 		.4byte	.LASF38
 2461 02a5 06       		.byte	0x6
 2462 02a6 E103     		.2byte	0x3e1
 2463 02a8 9C000000 		.4byte	0x9c
 2464 02ac 02       		.byte	0x2
 2465 02ad 23       		.byte	0x23
 2466 02ae 0C       		.uleb128 0xc
 2467 02af 0F       		.uleb128 0xf
 2468 02b0 B5010000 		.4byte	.LASF39
 2469 02b4 06       		.byte	0x6
 2470 02b5 E203     		.2byte	0x3e2
 2471 02b7 9C000000 		.4byte	0x9c
 2472 02bb 02       		.byte	0x2
 2473 02bc 23       		.byte	0x23
 2474 02bd 10       		.uleb128 0x10
 2475 02be 00       		.byte	0
 2476 02bf 0D       		.uleb128 0xd
ARM GAS  G:\Users\Jaxb\AppData\Local\Temp\ccbq8auC.s 			page 61


 2477 02c0 AB040000 		.4byte	.LASF40
 2478 02c4 06       		.byte	0x6
 2479 02c5 E303     		.2byte	0x3e3
 2480 02c7 6A020000 		.4byte	0x26a
 2481 02cb 11       		.uleb128 0x11
 2482 02cc 1C       		.byte	0x1c
 2483 02cd 07       		.byte	0x7
 2484 02ce 32       		.byte	0x32
 2485 02cf 36030000 		.4byte	0x336
 2486 02d3 12       		.uleb128 0x12
 2487 02d4 72010000 		.4byte	.LASF41
 2488 02d8 07       		.byte	0x7
 2489 02d9 34       		.byte	0x34
 2490 02da 91000000 		.4byte	0x91
 2491 02de 02       		.byte	0x2
 2492 02df 23       		.byte	0x23
 2493 02e0 00       		.uleb128 0
 2494 02e1 12       		.uleb128 0x12
 2495 02e2 FA020000 		.4byte	.LASF42
 2496 02e6 07       		.byte	0x7
 2497 02e7 39       		.byte	0x39
 2498 02e8 91000000 		.4byte	0x91
 2499 02ec 02       		.byte	0x2
 2500 02ed 23       		.byte	0x23
 2501 02ee 04       		.uleb128 0x4
 2502 02ef 12       		.uleb128 0x12
 2503 02f0 27040000 		.4byte	.LASF43
 2504 02f4 07       		.byte	0x7
 2505 02f5 3E       		.byte	0x3e
 2506 02f6 91000000 		.4byte	0x91
 2507 02fa 02       		.byte	0x2
 2508 02fb 23       		.byte	0x23
 2509 02fc 08       		.uleb128 0x8
 2510 02fd 12       		.uleb128 0x12
 2511 02fe D1000000 		.4byte	.LASF44
 2512 0302 07       		.byte	0x7
 2513 0303 43       		.byte	0x43
 2514 0304 91000000 		.4byte	0x91
 2515 0308 02       		.byte	0x2
 2516 0309 23       		.byte	0x23
 2517 030a 0C       		.uleb128 0xc
 2518 030b 12       		.uleb128 0x12
 2519 030c 1A060000 		.4byte	.LASF45
 2520 0310 07       		.byte	0x7
 2521 0311 48       		.byte	0x48
 2522 0312 91000000 		.4byte	0x91
 2523 0316 02       		.byte	0x2
 2524 0317 23       		.byte	0x23
 2525 0318 10       		.uleb128 0x10
 2526 0319 12       		.uleb128 0x12
 2527 031a 47030000 		.4byte	.LASF46
 2528 031e 07       		.byte	0x7
 2529 031f 4C       		.byte	0x4c
 2530 0320 91000000 		.4byte	0x91
 2531 0324 02       		.byte	0x2
 2532 0325 23       		.byte	0x23
 2533 0326 14       		.uleb128 0x14
ARM GAS  G:\Users\Jaxb\AppData\Local\Temp\ccbq8auC.s 			page 62


 2534 0327 12       		.uleb128 0x12
 2535 0328 1E030000 		.4byte	.LASF47
 2536 032c 07       		.byte	0x7
 2537 032d 54       		.byte	0x54
 2538 032e 91000000 		.4byte	0x91
 2539 0332 02       		.byte	0x2
 2540 0333 23       		.byte	0x23
 2541 0334 18       		.uleb128 0x18
 2542 0335 00       		.byte	0
 2543 0336 03       		.uleb128 0x3
 2544 0337 66030000 		.4byte	.LASF48
 2545 033b 07       		.byte	0x7
 2546 033c 56       		.byte	0x56
 2547 033d CB020000 		.4byte	0x2cb
 2548 0341 11       		.uleb128 0x11
 2549 0342 3C       		.byte	0x3c
 2550 0343 07       		.byte	0x7
 2551 0344 5C       		.byte	0x5c
 2552 0345 1C040000 		.4byte	0x41c
 2553 0349 12       		.uleb128 0x12
 2554 034a 64000000 		.4byte	.LASF49
 2555 034e 07       		.byte	0x7
 2556 034f 5E       		.byte	0x5e
 2557 0350 91000000 		.4byte	0x91
 2558 0354 02       		.byte	0x2
 2559 0355 23       		.byte	0x23
 2560 0356 00       		.uleb128 0
 2561 0357 12       		.uleb128 0x12
 2562 0358 85050000 		.4byte	.LASF50
 2563 035c 07       		.byte	0x7
 2564 035d 61       		.byte	0x61
 2565 035e 91000000 		.4byte	0x91
 2566 0362 02       		.byte	0x2
 2567 0363 23       		.byte	0x23
 2568 0364 04       		.uleb128 0x4
 2569 0365 12       		.uleb128 0x12
 2570 0366 33010000 		.4byte	.LASF51
 2571 036a 07       		.byte	0x7
 2572 036b 65       		.byte	0x65
 2573 036c 91000000 		.4byte	0x91
 2574 0370 02       		.byte	0x2
 2575 0371 23       		.byte	0x23
 2576 0372 08       		.uleb128 0x8
 2577 0373 12       		.uleb128 0x12
 2578 0374 8B020000 		.4byte	.LASF52
 2579 0378 07       		.byte	0x7
 2580 0379 69       		.byte	0x69
 2581 037a 91000000 		.4byte	0x91
 2582 037e 02       		.byte	0x2
 2583 037f 23       		.byte	0x23
 2584 0380 0C       		.uleb128 0xc
 2585 0381 12       		.uleb128 0x12
 2586 0382 58070000 		.4byte	.LASF53
 2587 0386 07       		.byte	0x7
 2588 0387 6C       		.byte	0x6c
 2589 0388 91000000 		.4byte	0x91
 2590 038c 02       		.byte	0x2
ARM GAS  G:\Users\Jaxb\AppData\Local\Temp\ccbq8auC.s 			page 63


 2591 038d 23       		.byte	0x23
 2592 038e 10       		.uleb128 0x10
 2593 038f 12       		.uleb128 0x12
 2594 0390 EC000000 		.4byte	.LASF54
 2595 0394 07       		.byte	0x7
 2596 0395 70       		.byte	0x70
 2597 0396 91000000 		.4byte	0x91
 2598 039a 02       		.byte	0x2
 2599 039b 23       		.byte	0x23
 2600 039c 14       		.uleb128 0x14
 2601 039d 12       		.uleb128 0x12
 2602 039e 91070000 		.4byte	.LASF55
 2603 03a2 07       		.byte	0x7
 2604 03a3 74       		.byte	0x74
 2605 03a4 91000000 		.4byte	0x91
 2606 03a8 02       		.byte	0x2
 2607 03a9 23       		.byte	0x23
 2608 03aa 18       		.uleb128 0x18
 2609 03ab 12       		.uleb128 0x12
 2610 03ac 16000000 		.4byte	.LASF56
 2611 03b0 07       		.byte	0x7
 2612 03b1 78       		.byte	0x78
 2613 03b2 91000000 		.4byte	0x91
 2614 03b6 02       		.byte	0x2
 2615 03b7 23       		.byte	0x23
 2616 03b8 1C       		.uleb128 0x1c
 2617 03b9 12       		.uleb128 0x12
 2618 03ba 00000000 		.4byte	.LASF57
 2619 03be 07       		.byte	0x7
 2620 03bf 7C       		.byte	0x7c
 2621 03c0 91000000 		.4byte	0x91
 2622 03c4 02       		.byte	0x2
 2623 03c5 23       		.byte	0x23
 2624 03c6 20       		.uleb128 0x20
 2625 03c7 12       		.uleb128 0x12
 2626 03c8 ED030000 		.4byte	.LASF58
 2627 03cc 07       		.byte	0x7
 2628 03cd 81       		.byte	0x81
 2629 03ce 91000000 		.4byte	0x91
 2630 03d2 02       		.byte	0x2
 2631 03d3 23       		.byte	0x23
 2632 03d4 24       		.uleb128 0x24
 2633 03d5 12       		.uleb128 0x12
 2634 03d6 2C050000 		.4byte	.LASF59
 2635 03da 07       		.byte	0x7
 2636 03db 84       		.byte	0x84
 2637 03dc 91000000 		.4byte	0x91
 2638 03e0 02       		.byte	0x2
 2639 03e1 23       		.byte	0x23
 2640 03e2 28       		.uleb128 0x28
 2641 03e3 12       		.uleb128 0x12
 2642 03e4 CE030000 		.4byte	.LASF60
 2643 03e8 07       		.byte	0x7
 2644 03e9 88       		.byte	0x88
 2645 03ea 91000000 		.4byte	0x91
 2646 03ee 02       		.byte	0x2
 2647 03ef 23       		.byte	0x23
ARM GAS  G:\Users\Jaxb\AppData\Local\Temp\ccbq8auC.s 			page 64


 2648 03f0 2C       		.uleb128 0x2c
 2649 03f1 12       		.uleb128 0x12
 2650 03f2 C0050000 		.4byte	.LASF61
 2651 03f6 07       		.byte	0x7
 2652 03f7 8B       		.byte	0x8b
 2653 03f8 91000000 		.4byte	0x91
 2654 03fc 02       		.byte	0x2
 2655 03fd 23       		.byte	0x23
 2656 03fe 30       		.uleb128 0x30
 2657 03ff 12       		.uleb128 0x12
 2658 0400 3A040000 		.4byte	.LASF62
 2659 0404 07       		.byte	0x7
 2660 0405 8E       		.byte	0x8e
 2661 0406 1C040000 		.4byte	0x41c
 2662 040a 02       		.byte	0x2
 2663 040b 23       		.byte	0x23
 2664 040c 34       		.uleb128 0x34
 2665 040d 12       		.uleb128 0x12
 2666 040e 03060000 		.4byte	.LASF63
 2667 0412 07       		.byte	0x7
 2668 0413 90       		.byte	0x90
 2669 0414 1C040000 		.4byte	0x41c
 2670 0418 02       		.byte	0x2
 2671 0419 23       		.byte	0x23
 2672 041a 38       		.uleb128 0x38
 2673 041b 00       		.byte	0
 2674 041c 13       		.uleb128 0x13
 2675 041d 04       		.byte	0x4
 2676 041e 36030000 		.4byte	0x336
 2677 0422 03       		.uleb128 0x3
 2678 0423 DB040000 		.4byte	.LASF64
 2679 0427 07       		.byte	0x7
 2680 0428 91       		.byte	0x91
 2681 0429 41030000 		.4byte	0x341
 2682 042d 11       		.uleb128 0x11
 2683 042e 10       		.byte	0x10
 2684 042f 07       		.byte	0x7
 2685 0430 97       		.byte	0x97
 2686 0431 6E040000 		.4byte	0x46e
 2687 0435 12       		.uleb128 0x12
 2688 0436 0F030000 		.4byte	.LASF65
 2689 043a 07       		.byte	0x7
 2690 043b 99       		.byte	0x99
 2691 043c 91000000 		.4byte	0x91
 2692 0440 02       		.byte	0x2
 2693 0441 23       		.byte	0x23
 2694 0442 00       		.uleb128 0
 2695 0443 12       		.uleb128 0x12
 2696 0444 78020000 		.4byte	.LASF66
 2697 0448 07       		.byte	0x7
 2698 0449 9F       		.byte	0x9f
 2699 044a 91000000 		.4byte	0x91
 2700 044e 02       		.byte	0x2
 2701 044f 23       		.byte	0x23
 2702 0450 04       		.uleb128 0x4
 2703 0451 12       		.uleb128 0x12
 2704 0452 7C000000 		.4byte	.LASF67
ARM GAS  G:\Users\Jaxb\AppData\Local\Temp\ccbq8auC.s 			page 65


 2705 0456 07       		.byte	0x7
 2706 0457 A5       		.byte	0xa5
 2707 0458 91000000 		.4byte	0x91
 2708 045c 02       		.byte	0x2
 2709 045d 23       		.byte	0x23
 2710 045e 08       		.uleb128 0x8
 2711 045f 12       		.uleb128 0x12
 2712 0460 54010000 		.4byte	.LASF68
 2713 0464 07       		.byte	0x7
 2714 0465 AC       		.byte	0xac
 2715 0466 91000000 		.4byte	0x91
 2716 046a 02       		.byte	0x2
 2717 046b 23       		.byte	0x23
 2718 046c 0C       		.uleb128 0xc
 2719 046d 00       		.byte	0
 2720 046e 03       		.uleb128 0x3
 2721 046f 1A020000 		.4byte	.LASF69
 2722 0473 07       		.byte	0x7
 2723 0474 B1       		.byte	0xb1
 2724 0475 2D040000 		.4byte	0x42d
 2725 0479 11       		.uleb128 0x11
 2726 047a 24       		.byte	0x24
 2727 047b 07       		.byte	0x7
 2728 047c B7       		.byte	0xb7
 2729 047d 00050000 		.4byte	0x500
 2730 0481 12       		.uleb128 0x12
 2731 0482 64000000 		.4byte	.LASF49
 2732 0486 07       		.byte	0x7
 2733 0487 B9       		.byte	0xb9
 2734 0488 91000000 		.4byte	0x91
 2735 048c 02       		.byte	0x2
 2736 048d 23       		.byte	0x23
 2737 048e 00       		.uleb128 0
 2738 048f 12       		.uleb128 0x12
 2739 0490 3D000000 		.4byte	.LASF70
 2740 0494 07       		.byte	0x7
 2741 0495 BC       		.byte	0xbc
 2742 0496 91000000 		.4byte	0x91
 2743 049a 02       		.byte	0x2
 2744 049b 23       		.byte	0x23
 2745 049c 04       		.uleb128 0x4
 2746 049d 12       		.uleb128 0x12
 2747 049e 8B020000 		.4byte	.LASF52
 2748 04a2 07       		.byte	0x7
 2749 04a3 BF       		.byte	0xbf
 2750 04a4 91000000 		.4byte	0x91
 2751 04a8 02       		.byte	0x2
 2752 04a9 23       		.byte	0x23
 2753 04aa 08       		.uleb128 0x8
 2754 04ab 12       		.uleb128 0x12
 2755 04ac 84030000 		.4byte	.LASF71
 2756 04b0 07       		.byte	0x7
 2757 04b1 C2       		.byte	0xc2
 2758 04b2 91000000 		.4byte	0x91
 2759 04b6 02       		.byte	0x2
 2760 04b7 23       		.byte	0x23
 2761 04b8 0C       		.uleb128 0xc
ARM GAS  G:\Users\Jaxb\AppData\Local\Temp\ccbq8auC.s 			page 66


 2762 04b9 12       		.uleb128 0x12
 2763 04ba 4E000000 		.4byte	.LASF72
 2764 04be 07       		.byte	0x7
 2765 04bf C5       		.byte	0xc5
 2766 04c0 91000000 		.4byte	0x91
 2767 04c4 02       		.byte	0x2
 2768 04c5 23       		.byte	0x23
 2769 04c6 10       		.uleb128 0x10
 2770 04c7 12       		.uleb128 0x12
 2771 04c8 15010000 		.4byte	.LASF73
 2772 04cc 07       		.byte	0x7
 2773 04cd C8       		.byte	0xc8
 2774 04ce 91000000 		.4byte	0x91
 2775 04d2 02       		.byte	0x2
 2776 04d3 23       		.byte	0x23
 2777 04d4 14       		.uleb128 0x14
 2778 04d5 12       		.uleb128 0x12
 2779 04d6 F3040000 		.4byte	.LASF74
 2780 04da 07       		.byte	0x7
 2781 04db CC       		.byte	0xcc
 2782 04dc 91000000 		.4byte	0x91
 2783 04e0 02       		.byte	0x2
 2784 04e1 23       		.byte	0x23
 2785 04e2 18       		.uleb128 0x18
 2786 04e3 12       		.uleb128 0x12
 2787 04e4 4F060000 		.4byte	.LASF75
 2788 04e8 07       		.byte	0x7
 2789 04e9 D0       		.byte	0xd0
 2790 04ea 00050000 		.4byte	0x500
 2791 04ee 02       		.byte	0x2
 2792 04ef 23       		.byte	0x23
 2793 04f0 1C       		.uleb128 0x1c
 2794 04f1 12       		.uleb128 0x12
 2795 04f2 92060000 		.4byte	.LASF76
 2796 04f6 07       		.byte	0x7
 2797 04f7 D2       		.byte	0xd2
 2798 04f8 00050000 		.4byte	0x500
 2799 04fc 02       		.byte	0x2
 2800 04fd 23       		.byte	0x23
 2801 04fe 20       		.uleb128 0x20
 2802 04ff 00       		.byte	0
 2803 0500 13       		.uleb128 0x13
 2804 0501 04       		.byte	0x4
 2805 0502 6E040000 		.4byte	0x46e
 2806 0506 03       		.uleb128 0x3
 2807 0507 7D060000 		.4byte	.LASF77
 2808 050b 07       		.byte	0x7
 2809 050c D3       		.byte	0xd3
 2810 050d 79040000 		.4byte	0x479
 2811 0511 11       		.uleb128 0x11
 2812 0512 18       		.byte	0x18
 2813 0513 07       		.byte	0x7
 2814 0514 D9       		.byte	0xd9
 2815 0515 6E050000 		.4byte	0x56e
 2816 0519 12       		.uleb128 0x12
 2817 051a 3D000000 		.4byte	.LASF70
 2818 051e 07       		.byte	0x7
ARM GAS  G:\Users\Jaxb\AppData\Local\Temp\ccbq8auC.s 			page 67


 2819 051f DB       		.byte	0xdb
 2820 0520 91000000 		.4byte	0x91
 2821 0524 02       		.byte	0x2
 2822 0525 23       		.byte	0x23
 2823 0526 00       		.uleb128 0
 2824 0527 12       		.uleb128 0x12
 2825 0528 15010000 		.4byte	.LASF73
 2826 052c 07       		.byte	0x7
 2827 052d DE       		.byte	0xde
 2828 052e 91000000 		.4byte	0x91
 2829 0532 02       		.byte	0x2
 2830 0533 23       		.byte	0x23
 2831 0534 04       		.uleb128 0x4
 2832 0535 12       		.uleb128 0x12
 2833 0536 F3040000 		.4byte	.LASF74
 2834 053a 07       		.byte	0x7
 2835 053b E2       		.byte	0xe2
 2836 053c 91000000 		.4byte	0x91
 2837 0540 02       		.byte	0x2
 2838 0541 23       		.byte	0x23
 2839 0542 08       		.uleb128 0x8
 2840 0543 12       		.uleb128 0x12
 2841 0544 4F060000 		.4byte	.LASF75
 2842 0548 07       		.byte	0x7
 2843 0549 E7       		.byte	0xe7
 2844 054a 00050000 		.4byte	0x500
 2845 054e 02       		.byte	0x2
 2846 054f 23       		.byte	0x23
 2847 0550 0C       		.uleb128 0xc
 2848 0551 12       		.uleb128 0x12
 2849 0552 92060000 		.4byte	.LASF76
 2850 0556 07       		.byte	0x7
 2851 0557 E9       		.byte	0xe9
 2852 0558 00050000 		.4byte	0x500
 2853 055c 02       		.byte	0x2
 2854 055d 23       		.byte	0x23
 2855 055e 10       		.uleb128 0x10
 2856 055f 12       		.uleb128 0x12
 2857 0560 55040000 		.4byte	.LASF78
 2858 0564 07       		.byte	0x7
 2859 0565 EB       		.byte	0xeb
 2860 0566 00050000 		.4byte	0x500
 2861 056a 02       		.byte	0x2
 2862 056b 23       		.byte	0x23
 2863 056c 14       		.uleb128 0x14
 2864 056d 00       		.byte	0
 2865 056e 03       		.uleb128 0x3
 2866 056f 88010000 		.4byte	.LASF79
 2867 0573 07       		.byte	0x7
 2868 0574 EC       		.byte	0xec
 2869 0575 11050000 		.4byte	0x511
 2870 0579 14       		.uleb128 0x14
 2871 057a 01       		.byte	0x1
 2872 057b 3C050000 		.4byte	.LASF85
 2873 057f 01       		.byte	0x1
 2874 0580 4103     		.2byte	0x341
 2875 0582 01       		.byte	0x1
ARM GAS  G:\Users\Jaxb\AppData\Local\Temp\ccbq8auC.s 			page 68


 2876 0583 EC080000 		.4byte	.LFB47
 2877 0587 50090000 		.4byte	.LFE47
 2878 058b 00000000 		.4byte	.LLST18
 2879 058f 01       		.byte	0x1
 2880 0590 B3050000 		.4byte	0x5b3
 2881 0594 15       		.uleb128 0x15
 2882 0595 64000000 		.4byte	.LASF49
 2883 0599 01       		.byte	0x1
 2884 059a 4103     		.2byte	0x341
 2885 059c 91000000 		.4byte	0x91
 2886 05a0 02       		.byte	0x2
 2887 05a1 91       		.byte	0x91
 2888 05a2 74       		.sleb128 -12
 2889 05a3 15       		.uleb128 0x15
 2890 05a4 8F000000 		.4byte	.LASF80
 2891 05a8 01       		.byte	0x1
 2892 05a9 4103     		.2byte	0x341
 2893 05ab 91000000 		.4byte	0x91
 2894 05af 02       		.byte	0x2
 2895 05b0 91       		.byte	0x91
 2896 05b1 70       		.sleb128 -16
 2897 05b2 00       		.byte	0
 2898 05b3 16       		.uleb128 0x16
 2899 05b4 01       		.byte	0x1
 2900 05b5 24000000 		.4byte	.LASF88
 2901 05b9 01       		.byte	0x1
 2902 05ba 0E03     		.2byte	0x30e
 2903 05bc 01       		.byte	0x1
 2904 05bd F8000000 		.4byte	0xf8
 2905 05c1 6C080000 		.4byte	.LFB46
 2906 05c5 EC080000 		.4byte	.LFE46
 2907 05c9 5C000000 		.4byte	.LLST17
 2908 05cd 01       		.byte	0x1
 2909 05ce 2D060000 		.4byte	0x62d
 2910 05d2 15       		.uleb128 0x15
 2911 05d3 64000000 		.4byte	.LASF49
 2912 05d7 01       		.byte	0x1
 2913 05d8 0E03     		.2byte	0x30e
 2914 05da 91000000 		.4byte	0x91
 2915 05de 02       		.byte	0x2
 2916 05df 91       		.byte	0x91
 2917 05e0 64       		.sleb128 -28
 2918 05e1 15       		.uleb128 0x15
 2919 05e2 8F000000 		.4byte	.LASF80
 2920 05e6 01       		.byte	0x1
 2921 05e7 0E03     		.2byte	0x30e
 2922 05e9 91000000 		.4byte	0x91
 2923 05ed 02       		.byte	0x2
 2924 05ee 91       		.byte	0x91
 2925 05ef 60       		.sleb128 -32
 2926 05f0 17       		.uleb128 0x17
 2927 05f1 B2020000 		.4byte	.LASF81
 2928 05f5 01       		.byte	0x1
 2929 05f6 1003     		.2byte	0x310
 2930 05f8 F8000000 		.4byte	0xf8
 2931 05fc 02       		.byte	0x2
 2932 05fd 91       		.byte	0x91
ARM GAS  G:\Users\Jaxb\AppData\Local\Temp\ccbq8auC.s 			page 69


 2933 05fe 77       		.sleb128 -9
 2934 05ff 17       		.uleb128 0x17
 2935 0600 05050000 		.4byte	.LASF82
 2936 0604 01       		.byte	0x1
 2937 0605 1103     		.2byte	0x311
 2938 0607 91000000 		.4byte	0x91
 2939 060b 02       		.byte	0x2
 2940 060c 91       		.byte	0x91
 2941 060d 70       		.sleb128 -16
 2942 060e 17       		.uleb128 0x17
 2943 060f B0070000 		.4byte	.LASF83
 2944 0613 01       		.byte	0x1
 2945 0614 1103     		.2byte	0x311
 2946 0616 91000000 		.4byte	0x91
 2947 061a 02       		.byte	0x2
 2948 061b 91       		.byte	0x91
 2949 061c 6C       		.sleb128 -20
 2950 061d 17       		.uleb128 0x17
 2951 061e 81040000 		.4byte	.LASF84
 2952 0622 01       		.byte	0x1
 2953 0623 1103     		.2byte	0x311
 2954 0625 91000000 		.4byte	0x91
 2955 0629 02       		.byte	0x2
 2956 062a 91       		.byte	0x91
 2957 062b 68       		.sleb128 -24
 2958 062c 00       		.byte	0
 2959 062d 14       		.uleb128 0x14
 2960 062e 01       		.byte	0x1
 2961 062f 8A040000 		.4byte	.LASF86
 2962 0633 01       		.byte	0x1
 2963 0634 EB02     		.2byte	0x2eb
 2964 0636 01       		.byte	0x1
 2965 0637 10080000 		.4byte	.LFB45
 2966 063b 6C080000 		.4byte	.LFE45
 2967 063f B8000000 		.4byte	.LLST16
 2968 0643 01       		.byte	0x1
 2969 0644 67060000 		.4byte	0x667
 2970 0648 15       		.uleb128 0x15
 2971 0649 64000000 		.4byte	.LASF49
 2972 064d 01       		.byte	0x1
 2973 064e EB02     		.2byte	0x2eb
 2974 0650 91000000 		.4byte	0x91
 2975 0654 02       		.byte	0x2
 2976 0655 91       		.byte	0x91
 2977 0656 74       		.sleb128 -12
 2978 0657 15       		.uleb128 0x15
 2979 0658 D0010000 		.4byte	.LASF87
 2980 065c 01       		.byte	0x1
 2981 065d EB02     		.2byte	0x2eb
 2982 065f 91000000 		.4byte	0x91
 2983 0663 02       		.byte	0x2
 2984 0664 91       		.byte	0x91
 2985 0665 70       		.sleb128 -16
 2986 0666 00       		.byte	0
 2987 0667 16       		.uleb128 0x16
 2988 0668 01       		.byte	0x1
 2989 0669 14040000 		.4byte	.LASF89
ARM GAS  G:\Users\Jaxb\AppData\Local\Temp\ccbq8auC.s 			page 70


 2990 066d 01       		.byte	0x1
 2991 066e B902     		.2byte	0x2b9
 2992 0670 01       		.byte	0x1
 2993 0671 EC000000 		.4byte	0xec
 2994 0675 AC070000 		.4byte	.LFB44
 2995 0679 10080000 		.4byte	.LFE44
 2996 067d 14010000 		.4byte	.LLST15
 2997 0681 01       		.byte	0x1
 2998 0682 C3060000 		.4byte	0x6c3
 2999 0686 15       		.uleb128 0x15
 3000 0687 64000000 		.4byte	.LASF49
 3001 068b 01       		.byte	0x1
 3002 068c B902     		.2byte	0x2b9
 3003 068e 91000000 		.4byte	0x91
 3004 0692 02       		.byte	0x2
 3005 0693 91       		.byte	0x91
 3006 0694 6C       		.sleb128 -20
 3007 0695 15       		.uleb128 0x15
 3008 0696 D0010000 		.4byte	.LASF87
 3009 069a 01       		.byte	0x1
 3010 069b B902     		.2byte	0x2b9
 3011 069d 91000000 		.4byte	0x91
 3012 06a1 02       		.byte	0x2
 3013 06a2 91       		.byte	0x91
 3014 06a3 68       		.sleb128 -24
 3015 06a4 17       		.uleb128 0x17
 3016 06a5 B2020000 		.4byte	.LASF81
 3017 06a9 01       		.byte	0x1
 3018 06aa BB02     		.2byte	0x2bb
 3019 06ac EC000000 		.4byte	0xec
 3020 06b0 02       		.byte	0x2
 3021 06b1 91       		.byte	0x91
 3022 06b2 77       		.sleb128 -9
 3023 06b3 17       		.uleb128 0x17
 3024 06b4 05050000 		.4byte	.LASF82
 3025 06b8 01       		.byte	0x1
 3026 06b9 BC02     		.2byte	0x2bc
 3027 06bb 91000000 		.4byte	0x91
 3028 06bf 02       		.byte	0x2
 3029 06c0 91       		.byte	0x91
 3030 06c1 70       		.sleb128 -16
 3031 06c2 00       		.byte	0
 3032 06c3 14       		.uleb128 0x14
 3033 06c4 01       		.byte	0x1
 3034 06c5 6E000000 		.4byte	.LASF90
 3035 06c9 01       		.byte	0x1
 3036 06ca 7D02     		.2byte	0x27d
 3037 06cc 01       		.byte	0x1
 3038 06cd 0C070000 		.4byte	.LFB43
 3039 06d1 AC070000 		.4byte	.LFE43
 3040 06d5 70010000 		.4byte	.LLST14
 3041 06d9 01       		.byte	0x1
 3042 06da 0C070000 		.4byte	0x70c
 3043 06de 15       		.uleb128 0x15
 3044 06df 64000000 		.4byte	.LASF49
 3045 06e3 01       		.byte	0x1
 3046 06e4 7D02     		.2byte	0x27d
ARM GAS  G:\Users\Jaxb\AppData\Local\Temp\ccbq8auC.s 			page 71


 3047 06e6 91000000 		.4byte	0x91
 3048 06ea 02       		.byte	0x2
 3049 06eb 91       		.byte	0x91
 3050 06ec 74       		.sleb128 -12
 3051 06ed 15       		.uleb128 0x15
 3052 06ee 8F000000 		.4byte	.LASF80
 3053 06f2 01       		.byte	0x1
 3054 06f3 7D02     		.2byte	0x27d
 3055 06f5 91000000 		.4byte	0x91
 3056 06f9 02       		.byte	0x2
 3057 06fa 91       		.byte	0x91
 3058 06fb 70       		.sleb128 -16
 3059 06fc 15       		.uleb128 0x15
 3060 06fd C7010000 		.4byte	.LASF91
 3061 0701 01       		.byte	0x1
 3062 0702 7D02     		.2byte	0x27d
 3063 0704 1F010000 		.4byte	0x11f
 3064 0708 02       		.byte	0x2
 3065 0709 91       		.byte	0x91
 3066 070a 6F       		.sleb128 -17
 3067 070b 00       		.byte	0
 3068 070c 16       		.uleb128 0x16
 3069 070d 01       		.byte	0x1
 3070 070e 66010000 		.4byte	.LASF92
 3071 0712 01       		.byte	0x1
 3072 0713 5B02     		.2byte	0x25b
 3073 0715 01       		.byte	0x1
 3074 0716 91000000 		.4byte	0x91
 3075 071a D8060000 		.4byte	.LFB42
 3076 071e 0C070000 		.4byte	.LFE42
 3077 0722 CC010000 		.4byte	.LLST13
 3078 0726 01       		.byte	0x1
 3079 0727 4A070000 		.4byte	0x74a
 3080 072b 15       		.uleb128 0x15
 3081 072c 64000000 		.4byte	.LASF49
 3082 0730 01       		.byte	0x1
 3083 0731 5B02     		.2byte	0x25b
 3084 0733 91000000 		.4byte	0x91
 3085 0737 02       		.byte	0x2
 3086 0738 91       		.byte	0x91
 3087 0739 6C       		.sleb128 -20
 3088 073a 17       		.uleb128 0x17
 3089 073b 0B050000 		.4byte	.LASF93
 3090 073f 01       		.byte	0x1
 3091 0740 5D02     		.2byte	0x25d
 3092 0742 91000000 		.4byte	0x91
 3093 0746 02       		.byte	0x2
 3094 0747 91       		.byte	0x91
 3095 0748 74       		.sleb128 -12
 3096 0749 00       		.byte	0
 3097 074a 14       		.uleb128 0x14
 3098 074b 01       		.byte	0x1
 3099 074c D0050000 		.4byte	.LASF94
 3100 0750 01       		.byte	0x1
 3101 0751 3402     		.2byte	0x234
 3102 0753 01       		.byte	0x1
 3103 0754 6C060000 		.4byte	.LFB41
ARM GAS  G:\Users\Jaxb\AppData\Local\Temp\ccbq8auC.s 			page 72


 3104 0758 D8060000 		.4byte	.LFE41
 3105 075c 28020000 		.4byte	.LLST12
 3106 0760 01       		.byte	0x1
 3107 0761 84070000 		.4byte	0x784
 3108 0765 15       		.uleb128 0x15
 3109 0766 64000000 		.4byte	.LASF49
 3110 076a 01       		.byte	0x1
 3111 076b 3402     		.2byte	0x234
 3112 076d 91000000 		.4byte	0x91
 3113 0771 02       		.byte	0x2
 3114 0772 91       		.byte	0x91
 3115 0773 74       		.sleb128 -12
 3116 0774 15       		.uleb128 0x15
 3117 0775 C7010000 		.4byte	.LASF91
 3118 0779 01       		.byte	0x1
 3119 077a 3402     		.2byte	0x234
 3120 077c 1F010000 		.4byte	0x11f
 3121 0780 02       		.byte	0x2
 3122 0781 91       		.byte	0x91
 3123 0782 73       		.sleb128 -13
 3124 0783 00       		.byte	0
 3125 0784 14       		.uleb128 0x14
 3126 0785 01       		.byte	0x1
 3127 0786 EB020000 		.4byte	.LASF95
 3128 078a 01       		.byte	0x1
 3129 078b 1A02     		.2byte	0x21a
 3130 078d 01       		.byte	0x1
 3131 078e 30060000 		.4byte	.LFB40
 3132 0792 6C060000 		.4byte	.LFE40
 3133 0796 84020000 		.4byte	.LLST11
 3134 079a 01       		.byte	0x1
 3135 079b AF070000 		.4byte	0x7af
 3136 079f 15       		.uleb128 0x15
 3137 07a0 C7010000 		.4byte	.LASF91
 3138 07a4 01       		.byte	0x1
 3139 07a5 1A02     		.2byte	0x21a
 3140 07a7 1F010000 		.4byte	0x11f
 3141 07ab 02       		.byte	0x2
 3142 07ac 91       		.byte	0x91
 3143 07ad 77       		.sleb128 -9
 3144 07ae 00       		.byte	0
 3145 07af 14       		.uleb128 0x14
 3146 07b0 01       		.byte	0x1
 3147 07b1 BA010000 		.4byte	.LASF96
 3148 07b5 01       		.byte	0x1
 3149 07b6 F501     		.2byte	0x1f5
 3150 07b8 01       		.byte	0x1
 3151 07b9 C4050000 		.4byte	.LFB39
 3152 07bd 30060000 		.4byte	.LFE39
 3153 07c1 E0020000 		.4byte	.LLST10
 3154 07c5 01       		.byte	0x1
 3155 07c6 E9070000 		.4byte	0x7e9
 3156 07ca 15       		.uleb128 0x15
 3157 07cb 64000000 		.4byte	.LASF49
 3158 07cf 01       		.byte	0x1
 3159 07d0 F501     		.2byte	0x1f5
 3160 07d2 91000000 		.4byte	0x91
ARM GAS  G:\Users\Jaxb\AppData\Local\Temp\ccbq8auC.s 			page 73


 3161 07d6 02       		.byte	0x2
 3162 07d7 91       		.byte	0x91
 3163 07d8 74       		.sleb128 -12
 3164 07d9 15       		.uleb128 0x15
 3165 07da C7010000 		.4byte	.LASF91
 3166 07de 01       		.byte	0x1
 3167 07df F501     		.2byte	0x1f5
 3168 07e1 1F010000 		.4byte	0x11f
 3169 07e5 02       		.byte	0x2
 3170 07e6 91       		.byte	0x91
 3171 07e7 73       		.sleb128 -13
 3172 07e8 00       		.byte	0
 3173 07e9 14       		.uleb128 0x14
 3174 07ea 01       		.byte	0x1
 3175 07eb 9E050000 		.4byte	.LASF97
 3176 07ef 01       		.byte	0x1
 3177 07f0 DB01     		.2byte	0x1db
 3178 07f2 01       		.byte	0x1
 3179 07f3 70050000 		.4byte	.LFB38
 3180 07f7 C4050000 		.4byte	.LFE38
 3181 07fb 3C030000 		.4byte	.LLST9
 3182 07ff 01       		.byte	0x1
 3183 0800 23080000 		.4byte	0x823
 3184 0804 15       		.uleb128 0x15
 3185 0805 64000000 		.4byte	.LASF49
 3186 0809 01       		.byte	0x1
 3187 080a DB01     		.2byte	0x1db
 3188 080c 91000000 		.4byte	0x91
 3189 0810 02       		.byte	0x2
 3190 0811 91       		.byte	0x91
 3191 0812 74       		.sleb128 -12
 3192 0813 15       		.uleb128 0x15
 3193 0814 C7010000 		.4byte	.LASF91
 3194 0818 01       		.byte	0x1
 3195 0819 DB01     		.2byte	0x1db
 3196 081b 1F010000 		.4byte	0x11f
 3197 081f 02       		.byte	0x2
 3198 0820 91       		.byte	0x91
 3199 0821 73       		.sleb128 -13
 3200 0822 00       		.byte	0
 3201 0823 14       		.uleb128 0x14
 3202 0824 01       		.byte	0x1
 3203 0825 9F010000 		.4byte	.LASF98
 3204 0829 01       		.byte	0x1
 3205 082a BC01     		.2byte	0x1bc
 3206 082c 01       		.byte	0x1
 3207 082d EC040000 		.4byte	.LFB37
 3208 0831 70050000 		.4byte	.LFE37
 3209 0835 98030000 		.4byte	.LLST8
 3210 0839 01       		.byte	0x1
 3211 083a 4E080000 		.4byte	0x84e
 3212 083e 15       		.uleb128 0x15
 3213 083f 04020000 		.4byte	.LASF99
 3214 0843 01       		.byte	0x1
 3215 0844 BC01     		.2byte	0x1bc
 3216 0846 4E080000 		.4byte	0x84e
 3217 084a 02       		.byte	0x2
ARM GAS  G:\Users\Jaxb\AppData\Local\Temp\ccbq8auC.s 			page 74


 3218 084b 91       		.byte	0x91
 3219 084c 74       		.sleb128 -12
 3220 084d 00       		.byte	0
 3221 084e 13       		.uleb128 0x13
 3222 084f 04       		.byte	0x4
 3223 0850 6E050000 		.4byte	0x56e
 3224 0854 14       		.uleb128 0x14
 3225 0855 01       		.byte	0x1
 3226 0856 33030000 		.4byte	.LASF100
 3227 085a 01       		.byte	0x1
 3228 085b A201     		.2byte	0x1a2
 3229 085d 01       		.byte	0x1
 3230 085e 70040000 		.4byte	.LFB36
 3231 0862 EC040000 		.4byte	.LFE36
 3232 0866 F4030000 		.4byte	.LLST7
 3233 086a 01       		.byte	0x1
 3234 086b 7F080000 		.4byte	0x87f
 3235 086f 15       		.uleb128 0x15
 3236 0870 C7040000 		.4byte	.LASF101
 3237 0874 01       		.byte	0x1
 3238 0875 A201     		.2byte	0x1a2
 3239 0877 7F080000 		.4byte	0x87f
 3240 087b 02       		.byte	0x2
 3241 087c 91       		.byte	0x91
 3242 087d 74       		.sleb128 -12
 3243 087e 00       		.byte	0
 3244 087f 13       		.uleb128 0x13
 3245 0880 04       		.byte	0x4
 3246 0881 06050000 		.4byte	0x506
 3247 0885 14       		.uleb128 0x14
 3248 0886 01       		.byte	0x1
 3249 0887 ED010000 		.4byte	.LASF102
 3250 088b 01       		.byte	0x1
 3251 088c 7C01     		.2byte	0x17c
 3252 088e 01       		.byte	0x1
 3253 088f 9C030000 		.4byte	.LFB35
 3254 0893 70040000 		.4byte	.LFE35
 3255 0897 50040000 		.4byte	.LLST6
 3256 089b 01       		.byte	0x1
 3257 089c B0080000 		.4byte	0x8b0
 3258 08a0 15       		.uleb128 0x15
 3259 08a1 53050000 		.4byte	.LASF103
 3260 08a5 01       		.byte	0x1
 3261 08a6 7C01     		.2byte	0x17c
 3262 08a8 B0080000 		.4byte	0x8b0
 3263 08ac 02       		.byte	0x2
 3264 08ad 91       		.byte	0x91
 3265 08ae 74       		.sleb128 -12
 3266 08af 00       		.byte	0
 3267 08b0 13       		.uleb128 0x13
 3268 08b1 04       		.byte	0x4
 3269 08b2 22040000 		.4byte	0x422
 3270 08b6 14       		.uleb128 0x14
 3271 08b7 01       		.byte	0x1
 3272 08b8 8D030000 		.4byte	.LASF104
 3273 08bc 01       		.byte	0x1
 3274 08bd 4801     		.2byte	0x148
ARM GAS  G:\Users\Jaxb\AppData\Local\Temp\ccbq8auC.s 			page 75


 3275 08bf 01       		.byte	0x1
 3276 08c0 F0020000 		.4byte	.LFB34
 3277 08c4 9C030000 		.4byte	.LFE34
 3278 08c8 AC040000 		.4byte	.LLST5
 3279 08cc 01       		.byte	0x1
 3280 08cd E1080000 		.4byte	0x8e1
 3281 08d1 15       		.uleb128 0x15
 3282 08d2 04020000 		.4byte	.LASF99
 3283 08d6 01       		.byte	0x1
 3284 08d7 4801     		.2byte	0x148
 3285 08d9 4E080000 		.4byte	0x84e
 3286 08dd 02       		.byte	0x2
 3287 08de 91       		.byte	0x91
 3288 08df 74       		.sleb128 -12
 3289 08e0 00       		.byte	0
 3290 08e1 14       		.uleb128 0x14
 3291 08e2 01       		.byte	0x1
 3292 08e3 C3000000 		.4byte	.LASF105
 3293 08e7 01       		.byte	0x1
 3294 08e8 0601     		.2byte	0x106
 3295 08ea 01       		.byte	0x1
 3296 08eb 24020000 		.4byte	.LFB33
 3297 08ef F0020000 		.4byte	.LFE33
 3298 08f3 08050000 		.4byte	.LLST4
 3299 08f7 01       		.byte	0x1
 3300 08f8 39090000 		.4byte	0x939
 3301 08fc 15       		.uleb128 0x15
 3302 08fd C7040000 		.4byte	.LASF101
 3303 0901 01       		.byte	0x1
 3304 0902 0601     		.2byte	0x106
 3305 0904 7F080000 		.4byte	0x87f
 3306 0908 02       		.byte	0x2
 3307 0909 91       		.byte	0x91
 3308 090a 64       		.sleb128 -28
 3309 090b 17       		.uleb128 0x17
 3310 090c 43010000 		.4byte	.LASF106
 3311 0910 01       		.byte	0x1
 3312 0911 0801     		.2byte	0x108
 3313 0913 91000000 		.4byte	0x91
 3314 0917 02       		.byte	0x2
 3315 0918 91       		.byte	0x91
 3316 0919 74       		.sleb128 -12
 3317 091a 17       		.uleb128 0x17
 3318 091b 35000000 		.4byte	.LASF107
 3319 091f 01       		.byte	0x1
 3320 0920 0801     		.2byte	0x108
 3321 0922 91000000 		.4byte	0x91
 3322 0926 02       		.byte	0x2
 3323 0927 91       		.byte	0x91
 3324 0928 70       		.sleb128 -16
 3325 0929 17       		.uleb128 0x17
 3326 092a 02010000 		.4byte	.LASF108
 3327 092e 01       		.byte	0x1
 3328 092f 0801     		.2byte	0x108
 3329 0931 91000000 		.4byte	0x91
 3330 0935 02       		.byte	0x2
 3331 0936 91       		.byte	0x91
ARM GAS  G:\Users\Jaxb\AppData\Local\Temp\ccbq8auC.s 			page 76


 3332 0937 6C       		.sleb128 -20
 3333 0938 00       		.byte	0
 3334 0939 18       		.uleb128 0x18
 3335 093a 01       		.byte	0x1
 3336 093b 6C060000 		.4byte	.LASF109
 3337 093f 01       		.byte	0x1
 3338 0940 B0       		.byte	0xb0
 3339 0941 01       		.byte	0x1
 3340 0942 E8000000 		.4byte	.LFB32
 3341 0946 24020000 		.4byte	.LFE32
 3342 094a 64050000 		.4byte	.LLST3
 3343 094e 01       		.byte	0x1
 3344 094f 62090000 		.4byte	0x962
 3345 0953 19       		.uleb128 0x19
 3346 0954 53050000 		.4byte	.LASF103
 3347 0958 01       		.byte	0x1
 3348 0959 B0       		.byte	0xb0
 3349 095a B0080000 		.4byte	0x8b0
 3350 095e 02       		.byte	0x2
 3351 095f 91       		.byte	0x91
 3352 0960 74       		.sleb128 -12
 3353 0961 00       		.byte	0
 3354 0962 1A       		.uleb128 0x1a
 3355 0963 01       		.byte	0x1
 3356 0964 99040000 		.4byte	.LASF114
 3357 0968 01       		.byte	0x1
 3358 0969 9E       		.byte	0x9e
 3359 096a 01       		.byte	0x1
 3360 096b B4000000 		.4byte	.LFB31
 3361 096f E8000000 		.4byte	.LFE31
 3362 0973 C0050000 		.4byte	.LLST2
 3363 0977 01       		.byte	0x1
 3364 0978 18       		.uleb128 0x18
 3365 0979 01       		.byte	0x1
 3366 097a 6A050000 		.4byte	.LASF110
 3367 097e 01       		.byte	0x1
 3368 097f 81       		.byte	0x81
 3369 0980 01       		.byte	0x1
 3370 0981 58000000 		.4byte	.LFB30
 3371 0985 B4000000 		.4byte	.LFE30
 3372 0989 04060000 		.4byte	.LLST1
 3373 098d 01       		.byte	0x1
 3374 098e A1090000 		.4byte	0x9a1
 3375 0992 19       		.uleb128 0x19
 3376 0993 64000000 		.4byte	.LASF49
 3377 0997 01       		.byte	0x1
 3378 0998 81       		.byte	0x81
 3379 0999 91000000 		.4byte	0x91
 3380 099d 02       		.byte	0x2
 3381 099e 91       		.byte	0x91
 3382 099f 74       		.sleb128 -12
 3383 09a0 00       		.byte	0
 3384 09a1 1B       		.uleb128 0x1b
 3385 09a2 01       		.byte	0x1
 3386 09a3 DA010000 		.4byte	.LASF115
 3387 09a7 01       		.byte	0x1
 3388 09a8 66       		.byte	0x66
ARM GAS  G:\Users\Jaxb\AppData\Local\Temp\ccbq8auC.s 			page 77


 3389 09a9 01       		.byte	0x1
 3390 09aa 00000000 		.4byte	.LFB29
 3391 09ae 58000000 		.4byte	.LFE29
 3392 09b2 60060000 		.4byte	.LLST0
 3393 09b6 01       		.byte	0x1
 3394 09b7 19       		.uleb128 0x19
 3395 09b8 64000000 		.4byte	.LASF49
 3396 09bc 01       		.byte	0x1
 3397 09bd 66       		.byte	0x66
 3398 09be 91000000 		.4byte	0x91
 3399 09c2 02       		.byte	0x2
 3400 09c3 91       		.byte	0x91
 3401 09c4 74       		.sleb128 -12
 3402 09c5 00       		.byte	0
 3403 09c6 00       		.byte	0
 3404              		.section	.debug_abbrev,"",%progbits
 3405              	.Ldebug_abbrev0:
 3406 0000 01       		.uleb128 0x1
 3407 0001 11       		.uleb128 0x11
 3408 0002 01       		.byte	0x1
 3409 0003 25       		.uleb128 0x25
 3410 0004 0E       		.uleb128 0xe
 3411 0005 13       		.uleb128 0x13
 3412 0006 0B       		.uleb128 0xb
 3413 0007 03       		.uleb128 0x3
 3414 0008 0E       		.uleb128 0xe
 3415 0009 1B       		.uleb128 0x1b
 3416 000a 0E       		.uleb128 0xe
 3417 000b 11       		.uleb128 0x11
 3418 000c 01       		.uleb128 0x1
 3419 000d 12       		.uleb128 0x12
 3420 000e 01       		.uleb128 0x1
 3421 000f 10       		.uleb128 0x10
 3422 0010 06       		.uleb128 0x6
 3423 0011 00       		.byte	0
 3424 0012 00       		.byte	0
 3425 0013 02       		.uleb128 0x2
 3426 0014 24       		.uleb128 0x24
 3427 0015 00       		.byte	0
 3428 0016 0B       		.uleb128 0xb
 3429 0017 0B       		.uleb128 0xb
 3430 0018 3E       		.uleb128 0x3e
 3431 0019 0B       		.uleb128 0xb
 3432 001a 03       		.uleb128 0x3
 3433 001b 0E       		.uleb128 0xe
 3434 001c 00       		.byte	0
 3435 001d 00       		.byte	0
 3436 001e 03       		.uleb128 0x3
 3437 001f 16       		.uleb128 0x16
 3438 0020 00       		.byte	0
 3439 0021 03       		.uleb128 0x3
 3440 0022 0E       		.uleb128 0xe
 3441 0023 3A       		.uleb128 0x3a
 3442 0024 0B       		.uleb128 0xb
 3443 0025 3B       		.uleb128 0x3b
 3444 0026 0B       		.uleb128 0xb
 3445 0027 49       		.uleb128 0x49
ARM GAS  G:\Users\Jaxb\AppData\Local\Temp\ccbq8auC.s 			page 78


 3446 0028 13       		.uleb128 0x13
 3447 0029 00       		.byte	0
 3448 002a 00       		.byte	0
 3449 002b 04       		.uleb128 0x4
 3450 002c 24       		.uleb128 0x24
 3451 002d 00       		.byte	0
 3452 002e 0B       		.uleb128 0xb
 3453 002f 0B       		.uleb128 0xb
 3454 0030 3E       		.uleb128 0x3e
 3455 0031 0B       		.uleb128 0xb
 3456 0032 03       		.uleb128 0x3
 3457 0033 08       		.uleb128 0x8
 3458 0034 00       		.byte	0
 3459 0035 00       		.byte	0
 3460 0036 05       		.uleb128 0x5
 3461 0037 35       		.uleb128 0x35
 3462 0038 00       		.byte	0
 3463 0039 49       		.uleb128 0x49
 3464 003a 13       		.uleb128 0x13
 3465 003b 00       		.byte	0
 3466 003c 00       		.byte	0
 3467 003d 06       		.uleb128 0x6
 3468 003e 01       		.uleb128 0x1
 3469 003f 01       		.byte	0x1
 3470 0040 49       		.uleb128 0x49
 3471 0041 13       		.uleb128 0x13
 3472 0042 01       		.uleb128 0x1
 3473 0043 13       		.uleb128 0x13
 3474 0044 00       		.byte	0
 3475 0045 00       		.byte	0
 3476 0046 07       		.uleb128 0x7
 3477 0047 21       		.uleb128 0x21
 3478 0048 00       		.byte	0
 3479 0049 49       		.uleb128 0x49
 3480 004a 13       		.uleb128 0x13
 3481 004b 2F       		.uleb128 0x2f
 3482 004c 0B       		.uleb128 0xb
 3483 004d 00       		.byte	0
 3484 004e 00       		.byte	0
 3485 004f 08       		.uleb128 0x8
 3486 0050 34       		.uleb128 0x34
 3487 0051 00       		.byte	0
 3488 0052 03       		.uleb128 0x3
 3489 0053 0E       		.uleb128 0xe
 3490 0054 3A       		.uleb128 0x3a
 3491 0055 0B       		.uleb128 0xb
 3492 0056 3B       		.uleb128 0x3b
 3493 0057 05       		.uleb128 0x5
 3494 0058 49       		.uleb128 0x49
 3495 0059 13       		.uleb128 0x13
 3496 005a 3F       		.uleb128 0x3f
 3497 005b 0C       		.uleb128 0xc
 3498 005c 3C       		.uleb128 0x3c
 3499 005d 0C       		.uleb128 0xc
 3500 005e 00       		.byte	0
 3501 005f 00       		.byte	0
 3502 0060 09       		.uleb128 0x9
ARM GAS  G:\Users\Jaxb\AppData\Local\Temp\ccbq8auC.s 			page 79


 3503 0061 34       		.uleb128 0x34
 3504 0062 00       		.byte	0
 3505 0063 03       		.uleb128 0x3
 3506 0064 0E       		.uleb128 0xe
 3507 0065 3A       		.uleb128 0x3a
 3508 0066 0B       		.uleb128 0xb
 3509 0067 3B       		.uleb128 0x3b
 3510 0068 0B       		.uleb128 0xb
 3511 0069 49       		.uleb128 0x49
 3512 006a 13       		.uleb128 0x13
 3513 006b 3F       		.uleb128 0x3f
 3514 006c 0C       		.uleb128 0xc
 3515 006d 3C       		.uleb128 0x3c
 3516 006e 0C       		.uleb128 0xc
 3517 006f 00       		.byte	0
 3518 0070 00       		.byte	0
 3519 0071 0A       		.uleb128 0xa
 3520 0072 04       		.uleb128 0x4
 3521 0073 01       		.byte	0x1
 3522 0074 3E       		.uleb128 0x3e
 3523 0075 0B       		.uleb128 0xb
 3524 0076 0B       		.uleb128 0xb
 3525 0077 0B       		.uleb128 0xb
 3526 0078 49       		.uleb128 0x49
 3527 0079 13       		.uleb128 0x13
 3528 007a 3A       		.uleb128 0x3a
 3529 007b 0B       		.uleb128 0xb
 3530 007c 3B       		.uleb128 0x3b
 3531 007d 05       		.uleb128 0x5
 3532 007e 01       		.uleb128 0x1
 3533 007f 13       		.uleb128 0x13
 3534 0080 00       		.byte	0
 3535 0081 00       		.byte	0
 3536 0082 0B       		.uleb128 0xb
 3537 0083 28       		.uleb128 0x28
 3538 0084 00       		.byte	0
 3539 0085 03       		.uleb128 0x3
 3540 0086 0E       		.uleb128 0xe
 3541 0087 1C       		.uleb128 0x1c
 3542 0088 0B       		.uleb128 0xb
 3543 0089 00       		.byte	0
 3544 008a 00       		.byte	0
 3545 008b 0C       		.uleb128 0xc
 3546 008c 28       		.uleb128 0x28
 3547 008d 00       		.byte	0
 3548 008e 03       		.uleb128 0x3
 3549 008f 08       		.uleb128 0x8
 3550 0090 1C       		.uleb128 0x1c
 3551 0091 0B       		.uleb128 0xb
 3552 0092 00       		.byte	0
 3553 0093 00       		.byte	0
 3554 0094 0D       		.uleb128 0xd
 3555 0095 16       		.uleb128 0x16
 3556 0096 00       		.byte	0
 3557 0097 03       		.uleb128 0x3
 3558 0098 0E       		.uleb128 0xe
 3559 0099 3A       		.uleb128 0x3a
ARM GAS  G:\Users\Jaxb\AppData\Local\Temp\ccbq8auC.s 			page 80


 3560 009a 0B       		.uleb128 0xb
 3561 009b 3B       		.uleb128 0x3b
 3562 009c 05       		.uleb128 0x5
 3563 009d 49       		.uleb128 0x49
 3564 009e 13       		.uleb128 0x13
 3565 009f 00       		.byte	0
 3566 00a0 00       		.byte	0
 3567 00a1 0E       		.uleb128 0xe
 3568 00a2 13       		.uleb128 0x13
 3569 00a3 01       		.byte	0x1
 3570 00a4 0B       		.uleb128 0xb
 3571 00a5 0B       		.uleb128 0xb
 3572 00a6 3A       		.uleb128 0x3a
 3573 00a7 0B       		.uleb128 0xb
 3574 00a8 3B       		.uleb128 0x3b
 3575 00a9 05       		.uleb128 0x5
 3576 00aa 01       		.uleb128 0x1
 3577 00ab 13       		.uleb128 0x13
 3578 00ac 00       		.byte	0
 3579 00ad 00       		.byte	0
 3580 00ae 0F       		.uleb128 0xf
 3581 00af 0D       		.uleb128 0xd
 3582 00b0 00       		.byte	0
 3583 00b1 03       		.uleb128 0x3
 3584 00b2 0E       		.uleb128 0xe
 3585 00b3 3A       		.uleb128 0x3a
 3586 00b4 0B       		.uleb128 0xb
 3587 00b5 3B       		.uleb128 0x3b
 3588 00b6 05       		.uleb128 0x5
 3589 00b7 49       		.uleb128 0x49
 3590 00b8 13       		.uleb128 0x13
 3591 00b9 38       		.uleb128 0x38
 3592 00ba 0A       		.uleb128 0xa
 3593 00bb 00       		.byte	0
 3594 00bc 00       		.byte	0
 3595 00bd 10       		.uleb128 0x10
 3596 00be 0D       		.uleb128 0xd
 3597 00bf 00       		.byte	0
 3598 00c0 03       		.uleb128 0x3
 3599 00c1 08       		.uleb128 0x8
 3600 00c2 3A       		.uleb128 0x3a
 3601 00c3 0B       		.uleb128 0xb
 3602 00c4 3B       		.uleb128 0x3b
 3603 00c5 05       		.uleb128 0x5
 3604 00c6 49       		.uleb128 0x49
 3605 00c7 13       		.uleb128 0x13
 3606 00c8 38       		.uleb128 0x38
 3607 00c9 0A       		.uleb128 0xa
 3608 00ca 00       		.byte	0
 3609 00cb 00       		.byte	0
 3610 00cc 11       		.uleb128 0x11
 3611 00cd 13       		.uleb128 0x13
 3612 00ce 01       		.byte	0x1
 3613 00cf 0B       		.uleb128 0xb
 3614 00d0 0B       		.uleb128 0xb
 3615 00d1 3A       		.uleb128 0x3a
 3616 00d2 0B       		.uleb128 0xb
ARM GAS  G:\Users\Jaxb\AppData\Local\Temp\ccbq8auC.s 			page 81


 3617 00d3 3B       		.uleb128 0x3b
 3618 00d4 0B       		.uleb128 0xb
 3619 00d5 01       		.uleb128 0x1
 3620 00d6 13       		.uleb128 0x13
 3621 00d7 00       		.byte	0
 3622 00d8 00       		.byte	0
 3623 00d9 12       		.uleb128 0x12
 3624 00da 0D       		.uleb128 0xd
 3625 00db 00       		.byte	0
 3626 00dc 03       		.uleb128 0x3
 3627 00dd 0E       		.uleb128 0xe
 3628 00de 3A       		.uleb128 0x3a
 3629 00df 0B       		.uleb128 0xb
 3630 00e0 3B       		.uleb128 0x3b
 3631 00e1 0B       		.uleb128 0xb
 3632 00e2 49       		.uleb128 0x49
 3633 00e3 13       		.uleb128 0x13
 3634 00e4 38       		.uleb128 0x38
 3635 00e5 0A       		.uleb128 0xa
 3636 00e6 00       		.byte	0
 3637 00e7 00       		.byte	0
 3638 00e8 13       		.uleb128 0x13
 3639 00e9 0F       		.uleb128 0xf
 3640 00ea 00       		.byte	0
 3641 00eb 0B       		.uleb128 0xb
 3642 00ec 0B       		.uleb128 0xb
 3643 00ed 49       		.uleb128 0x49
 3644 00ee 13       		.uleb128 0x13
 3645 00ef 00       		.byte	0
 3646 00f0 00       		.byte	0
 3647 00f1 14       		.uleb128 0x14
 3648 00f2 2E       		.uleb128 0x2e
 3649 00f3 01       		.byte	0x1
 3650 00f4 3F       		.uleb128 0x3f
 3651 00f5 0C       		.uleb128 0xc
 3652 00f6 03       		.uleb128 0x3
 3653 00f7 0E       		.uleb128 0xe
 3654 00f8 3A       		.uleb128 0x3a
 3655 00f9 0B       		.uleb128 0xb
 3656 00fa 3B       		.uleb128 0x3b
 3657 00fb 05       		.uleb128 0x5
 3658 00fc 27       		.uleb128 0x27
 3659 00fd 0C       		.uleb128 0xc
 3660 00fe 11       		.uleb128 0x11
 3661 00ff 01       		.uleb128 0x1
 3662 0100 12       		.uleb128 0x12
 3663 0101 01       		.uleb128 0x1
 3664 0102 40       		.uleb128 0x40
 3665 0103 06       		.uleb128 0x6
 3666 0104 9742     		.uleb128 0x2117
 3667 0106 0C       		.uleb128 0xc
 3668 0107 01       		.uleb128 0x1
 3669 0108 13       		.uleb128 0x13
 3670 0109 00       		.byte	0
 3671 010a 00       		.byte	0
 3672 010b 15       		.uleb128 0x15
 3673 010c 05       		.uleb128 0x5
ARM GAS  G:\Users\Jaxb\AppData\Local\Temp\ccbq8auC.s 			page 82


 3674 010d 00       		.byte	0
 3675 010e 03       		.uleb128 0x3
 3676 010f 0E       		.uleb128 0xe
 3677 0110 3A       		.uleb128 0x3a
 3678 0111 0B       		.uleb128 0xb
 3679 0112 3B       		.uleb128 0x3b
 3680 0113 05       		.uleb128 0x5
 3681 0114 49       		.uleb128 0x49
 3682 0115 13       		.uleb128 0x13
 3683 0116 02       		.uleb128 0x2
 3684 0117 0A       		.uleb128 0xa
 3685 0118 00       		.byte	0
 3686 0119 00       		.byte	0
 3687 011a 16       		.uleb128 0x16
 3688 011b 2E       		.uleb128 0x2e
 3689 011c 01       		.byte	0x1
 3690 011d 3F       		.uleb128 0x3f
 3691 011e 0C       		.uleb128 0xc
 3692 011f 03       		.uleb128 0x3
 3693 0120 0E       		.uleb128 0xe
 3694 0121 3A       		.uleb128 0x3a
 3695 0122 0B       		.uleb128 0xb
 3696 0123 3B       		.uleb128 0x3b
 3697 0124 05       		.uleb128 0x5
 3698 0125 27       		.uleb128 0x27
 3699 0126 0C       		.uleb128 0xc
 3700 0127 49       		.uleb128 0x49
 3701 0128 13       		.uleb128 0x13
 3702 0129 11       		.uleb128 0x11
 3703 012a 01       		.uleb128 0x1
 3704 012b 12       		.uleb128 0x12
 3705 012c 01       		.uleb128 0x1
 3706 012d 40       		.uleb128 0x40
 3707 012e 06       		.uleb128 0x6
 3708 012f 9742     		.uleb128 0x2117
 3709 0131 0C       		.uleb128 0xc
 3710 0132 01       		.uleb128 0x1
 3711 0133 13       		.uleb128 0x13
 3712 0134 00       		.byte	0
 3713 0135 00       		.byte	0
 3714 0136 17       		.uleb128 0x17
 3715 0137 34       		.uleb128 0x34
 3716 0138 00       		.byte	0
 3717 0139 03       		.uleb128 0x3
 3718 013a 0E       		.uleb128 0xe
 3719 013b 3A       		.uleb128 0x3a
 3720 013c 0B       		.uleb128 0xb
 3721 013d 3B       		.uleb128 0x3b
 3722 013e 05       		.uleb128 0x5
 3723 013f 49       		.uleb128 0x49
 3724 0140 13       		.uleb128 0x13
 3725 0141 02       		.uleb128 0x2
 3726 0142 0A       		.uleb128 0xa
 3727 0143 00       		.byte	0
 3728 0144 00       		.byte	0
 3729 0145 18       		.uleb128 0x18
 3730 0146 2E       		.uleb128 0x2e
ARM GAS  G:\Users\Jaxb\AppData\Local\Temp\ccbq8auC.s 			page 83


 3731 0147 01       		.byte	0x1
 3732 0148 3F       		.uleb128 0x3f
 3733 0149 0C       		.uleb128 0xc
 3734 014a 03       		.uleb128 0x3
 3735 014b 0E       		.uleb128 0xe
 3736 014c 3A       		.uleb128 0x3a
 3737 014d 0B       		.uleb128 0xb
 3738 014e 3B       		.uleb128 0x3b
 3739 014f 0B       		.uleb128 0xb
 3740 0150 27       		.uleb128 0x27
 3741 0151 0C       		.uleb128 0xc
 3742 0152 11       		.uleb128 0x11
 3743 0153 01       		.uleb128 0x1
 3744 0154 12       		.uleb128 0x12
 3745 0155 01       		.uleb128 0x1
 3746 0156 40       		.uleb128 0x40
 3747 0157 06       		.uleb128 0x6
 3748 0158 9742     		.uleb128 0x2117
 3749 015a 0C       		.uleb128 0xc
 3750 015b 01       		.uleb128 0x1
 3751 015c 13       		.uleb128 0x13
 3752 015d 00       		.byte	0
 3753 015e 00       		.byte	0
 3754 015f 19       		.uleb128 0x19
 3755 0160 05       		.uleb128 0x5
 3756 0161 00       		.byte	0
 3757 0162 03       		.uleb128 0x3
 3758 0163 0E       		.uleb128 0xe
 3759 0164 3A       		.uleb128 0x3a
 3760 0165 0B       		.uleb128 0xb
 3761 0166 3B       		.uleb128 0x3b
 3762 0167 0B       		.uleb128 0xb
 3763 0168 49       		.uleb128 0x49
 3764 0169 13       		.uleb128 0x13
 3765 016a 02       		.uleb128 0x2
 3766 016b 0A       		.uleb128 0xa
 3767 016c 00       		.byte	0
 3768 016d 00       		.byte	0
 3769 016e 1A       		.uleb128 0x1a
 3770 016f 2E       		.uleb128 0x2e
 3771 0170 00       		.byte	0
 3772 0171 3F       		.uleb128 0x3f
 3773 0172 0C       		.uleb128 0xc
 3774 0173 03       		.uleb128 0x3
 3775 0174 0E       		.uleb128 0xe
 3776 0175 3A       		.uleb128 0x3a
 3777 0176 0B       		.uleb128 0xb
 3778 0177 3B       		.uleb128 0x3b
 3779 0178 0B       		.uleb128 0xb
 3780 0179 27       		.uleb128 0x27
 3781 017a 0C       		.uleb128 0xc
 3782 017b 11       		.uleb128 0x11
 3783 017c 01       		.uleb128 0x1
 3784 017d 12       		.uleb128 0x12
 3785 017e 01       		.uleb128 0x1
 3786 017f 40       		.uleb128 0x40
 3787 0180 06       		.uleb128 0x6
ARM GAS  G:\Users\Jaxb\AppData\Local\Temp\ccbq8auC.s 			page 84


 3788 0181 9742     		.uleb128 0x2117
 3789 0183 0C       		.uleb128 0xc
 3790 0184 00       		.byte	0
 3791 0185 00       		.byte	0
 3792 0186 1B       		.uleb128 0x1b
 3793 0187 2E       		.uleb128 0x2e
 3794 0188 01       		.byte	0x1
 3795 0189 3F       		.uleb128 0x3f
 3796 018a 0C       		.uleb128 0xc
 3797 018b 03       		.uleb128 0x3
 3798 018c 0E       		.uleb128 0xe
 3799 018d 3A       		.uleb128 0x3a
 3800 018e 0B       		.uleb128 0xb
 3801 018f 3B       		.uleb128 0x3b
 3802 0190 0B       		.uleb128 0xb
 3803 0191 27       		.uleb128 0x27
 3804 0192 0C       		.uleb128 0xc
 3805 0193 11       		.uleb128 0x11
 3806 0194 01       		.uleb128 0x1
 3807 0195 12       		.uleb128 0x12
 3808 0196 01       		.uleb128 0x1
 3809 0197 40       		.uleb128 0x40
 3810 0198 06       		.uleb128 0x6
 3811 0199 9742     		.uleb128 0x2117
 3812 019b 0C       		.uleb128 0xc
 3813 019c 00       		.byte	0
 3814 019d 00       		.byte	0
 3815 019e 00       		.byte	0
 3816              		.section	.debug_loc,"",%progbits
 3817              	.Ldebug_loc0:
 3818              	.LLST18:
 3819 0000 EC080000 		.4byte	.LFB47-.Ltext0
 3820 0004 EE080000 		.4byte	.LCFI106-.Ltext0
 3821 0008 0200     		.2byte	0x2
 3822 000a 7D       		.byte	0x7d
 3823 000b 00       		.sleb128 0
 3824 000c EE080000 		.4byte	.LCFI106-.Ltext0
 3825 0010 F0080000 		.4byte	.LCFI107-.Ltext0
 3826 0014 0200     		.2byte	0x2
 3827 0016 7D       		.byte	0x7d
 3828 0017 04       		.sleb128 4
 3829 0018 F0080000 		.4byte	.LCFI107-.Ltext0
 3830 001c F2080000 		.4byte	.LCFI108-.Ltext0
 3831 0020 0200     		.2byte	0x2
 3832 0022 7D       		.byte	0x7d
 3833 0023 10       		.sleb128 16
 3834 0024 F2080000 		.4byte	.LCFI108-.Ltext0
 3835 0028 3C090000 		.4byte	.LCFI109-.Ltext0
 3836 002c 0200     		.2byte	0x2
 3837 002e 77       		.byte	0x77
 3838 002f 10       		.sleb128 16
 3839 0030 3C090000 		.4byte	.LCFI109-.Ltext0
 3840 0034 3E090000 		.4byte	.LCFI110-.Ltext0
 3841 0038 0200     		.2byte	0x2
 3842 003a 77       		.byte	0x77
 3843 003b 04       		.sleb128 4
 3844 003c 3E090000 		.4byte	.LCFI110-.Ltext0
ARM GAS  G:\Users\Jaxb\AppData\Local\Temp\ccbq8auC.s 			page 85


 3845 0040 40090000 		.4byte	.LCFI111-.Ltext0
 3846 0044 0200     		.2byte	0x2
 3847 0046 7D       		.byte	0x7d
 3848 0047 04       		.sleb128 4
 3849 0048 40090000 		.4byte	.LCFI111-.Ltext0
 3850 004c 50090000 		.4byte	.LFE47-.Ltext0
 3851 0050 0200     		.2byte	0x2
 3852 0052 7D       		.byte	0x7d
 3853 0053 00       		.sleb128 0
 3854 0054 00000000 		.4byte	0
 3855 0058 00000000 		.4byte	0
 3856              	.LLST17:
 3857 005c 6C080000 		.4byte	.LFB46-.Ltext0
 3858 0060 6E080000 		.4byte	.LCFI100-.Ltext0
 3859 0064 0200     		.2byte	0x2
 3860 0066 7D       		.byte	0x7d
 3861 0067 00       		.sleb128 0
 3862 0068 6E080000 		.4byte	.LCFI100-.Ltext0
 3863 006c 70080000 		.4byte	.LCFI101-.Ltext0
 3864 0070 0200     		.2byte	0x2
 3865 0072 7D       		.byte	0x7d
 3866 0073 04       		.sleb128 4
 3867 0074 70080000 		.4byte	.LCFI101-.Ltext0
 3868 0078 72080000 		.4byte	.LCFI102-.Ltext0
 3869 007c 0200     		.2byte	0x2
 3870 007e 7D       		.byte	0x7d
 3871 007f 20       		.sleb128 32
 3872 0080 72080000 		.4byte	.LCFI102-.Ltext0
 3873 0084 D8080000 		.4byte	.LCFI103-.Ltext0
 3874 0088 0200     		.2byte	0x2
 3875 008a 77       		.byte	0x77
 3876 008b 20       		.sleb128 32
 3877 008c D8080000 		.4byte	.LCFI103-.Ltext0
 3878 0090 DA080000 		.4byte	.LCFI104-.Ltext0
 3879 0094 0200     		.2byte	0x2
 3880 0096 77       		.byte	0x77
 3881 0097 04       		.sleb128 4
 3882 0098 DA080000 		.4byte	.LCFI104-.Ltext0
 3883 009c DC080000 		.4byte	.LCFI105-.Ltext0
 3884 00a0 0200     		.2byte	0x2
 3885 00a2 7D       		.byte	0x7d
 3886 00a3 04       		.sleb128 4
 3887 00a4 DC080000 		.4byte	.LCFI105-.Ltext0
 3888 00a8 EC080000 		.4byte	.LFE46-.Ltext0
 3889 00ac 0200     		.2byte	0x2
 3890 00ae 7D       		.byte	0x7d
 3891 00af 00       		.sleb128 0
 3892 00b0 00000000 		.4byte	0
 3893 00b4 00000000 		.4byte	0
 3894              	.LLST16:
 3895 00b8 10080000 		.4byte	.LFB45-.Ltext0
 3896 00bc 12080000 		.4byte	.LCFI94-.Ltext0
 3897 00c0 0200     		.2byte	0x2
 3898 00c2 7D       		.byte	0x7d
 3899 00c3 00       		.sleb128 0
 3900 00c4 12080000 		.4byte	.LCFI94-.Ltext0
 3901 00c8 14080000 		.4byte	.LCFI95-.Ltext0
ARM GAS  G:\Users\Jaxb\AppData\Local\Temp\ccbq8auC.s 			page 86


 3902 00cc 0200     		.2byte	0x2
 3903 00ce 7D       		.byte	0x7d
 3904 00cf 04       		.sleb128 4
 3905 00d0 14080000 		.4byte	.LCFI95-.Ltext0
 3906 00d4 16080000 		.4byte	.LCFI96-.Ltext0
 3907 00d8 0200     		.2byte	0x2
 3908 00da 7D       		.byte	0x7d
 3909 00db 10       		.sleb128 16
 3910 00dc 16080000 		.4byte	.LCFI96-.Ltext0
 3911 00e0 5A080000 		.4byte	.LCFI97-.Ltext0
 3912 00e4 0200     		.2byte	0x2
 3913 00e6 77       		.byte	0x77
 3914 00e7 10       		.sleb128 16
 3915 00e8 5A080000 		.4byte	.LCFI97-.Ltext0
 3916 00ec 5C080000 		.4byte	.LCFI98-.Ltext0
 3917 00f0 0200     		.2byte	0x2
 3918 00f2 77       		.byte	0x77
 3919 00f3 04       		.sleb128 4
 3920 00f4 5C080000 		.4byte	.LCFI98-.Ltext0
 3921 00f8 5E080000 		.4byte	.LCFI99-.Ltext0
 3922 00fc 0200     		.2byte	0x2
 3923 00fe 7D       		.byte	0x7d
 3924 00ff 04       		.sleb128 4
 3925 0100 5E080000 		.4byte	.LCFI99-.Ltext0
 3926 0104 6C080000 		.4byte	.LFE45-.Ltext0
 3927 0108 0200     		.2byte	0x2
 3928 010a 7D       		.byte	0x7d
 3929 010b 00       		.sleb128 0
 3930 010c 00000000 		.4byte	0
 3931 0110 00000000 		.4byte	0
 3932              	.LLST15:
 3933 0114 AC070000 		.4byte	.LFB44-.Ltext0
 3934 0118 AE070000 		.4byte	.LCFI88-.Ltext0
 3935 011c 0200     		.2byte	0x2
 3936 011e 7D       		.byte	0x7d
 3937 011f 00       		.sleb128 0
 3938 0120 AE070000 		.4byte	.LCFI88-.Ltext0
 3939 0124 B0070000 		.4byte	.LCFI89-.Ltext0
 3940 0128 0200     		.2byte	0x2
 3941 012a 7D       		.byte	0x7d
 3942 012b 04       		.sleb128 4
 3943 012c B0070000 		.4byte	.LCFI89-.Ltext0
 3944 0130 B2070000 		.4byte	.LCFI90-.Ltext0
 3945 0134 0200     		.2byte	0x2
 3946 0136 7D       		.byte	0x7d
 3947 0137 18       		.sleb128 24
 3948 0138 B2070000 		.4byte	.LCFI90-.Ltext0
 3949 013c FC070000 		.4byte	.LCFI91-.Ltext0
 3950 0140 0200     		.2byte	0x2
 3951 0142 77       		.byte	0x77
 3952 0143 18       		.sleb128 24
 3953 0144 FC070000 		.4byte	.LCFI91-.Ltext0
 3954 0148 FE070000 		.4byte	.LCFI92-.Ltext0
 3955 014c 0200     		.2byte	0x2
 3956 014e 77       		.byte	0x77
 3957 014f 04       		.sleb128 4
 3958 0150 FE070000 		.4byte	.LCFI92-.Ltext0
ARM GAS  G:\Users\Jaxb\AppData\Local\Temp\ccbq8auC.s 			page 87


 3959 0154 00080000 		.4byte	.LCFI93-.Ltext0
 3960 0158 0200     		.2byte	0x2
 3961 015a 7D       		.byte	0x7d
 3962 015b 04       		.sleb128 4
 3963 015c 00080000 		.4byte	.LCFI93-.Ltext0
 3964 0160 10080000 		.4byte	.LFE44-.Ltext0
 3965 0164 0200     		.2byte	0x2
 3966 0166 7D       		.byte	0x7d
 3967 0167 00       		.sleb128 0
 3968 0168 00000000 		.4byte	0
 3969 016c 00000000 		.4byte	0
 3970              	.LLST14:
 3971 0170 0C070000 		.4byte	.LFB43-.Ltext0
 3972 0174 0E070000 		.4byte	.LCFI82-.Ltext0
 3973 0178 0200     		.2byte	0x2
 3974 017a 7D       		.byte	0x7d
 3975 017b 00       		.sleb128 0
 3976 017c 0E070000 		.4byte	.LCFI82-.Ltext0
 3977 0180 10070000 		.4byte	.LCFI83-.Ltext0
 3978 0184 0200     		.2byte	0x2
 3979 0186 7D       		.byte	0x7d
 3980 0187 04       		.sleb128 4
 3981 0188 10070000 		.4byte	.LCFI83-.Ltext0
 3982 018c 12070000 		.4byte	.LCFI84-.Ltext0
 3983 0190 0200     		.2byte	0x2
 3984 0192 7D       		.byte	0x7d
 3985 0193 18       		.sleb128 24
 3986 0194 12070000 		.4byte	.LCFI84-.Ltext0
 3987 0198 98070000 		.4byte	.LCFI85-.Ltext0
 3988 019c 0200     		.2byte	0x2
 3989 019e 77       		.byte	0x77
 3990 019f 18       		.sleb128 24
 3991 01a0 98070000 		.4byte	.LCFI85-.Ltext0
 3992 01a4 9A070000 		.4byte	.LCFI86-.Ltext0
 3993 01a8 0200     		.2byte	0x2
 3994 01aa 77       		.byte	0x77
 3995 01ab 04       		.sleb128 4
 3996 01ac 9A070000 		.4byte	.LCFI86-.Ltext0
 3997 01b0 9C070000 		.4byte	.LCFI87-.Ltext0
 3998 01b4 0200     		.2byte	0x2
 3999 01b6 7D       		.byte	0x7d
 4000 01b7 04       		.sleb128 4
 4001 01b8 9C070000 		.4byte	.LCFI87-.Ltext0
 4002 01bc AC070000 		.4byte	.LFE43-.Ltext0
 4003 01c0 0200     		.2byte	0x2
 4004 01c2 7D       		.byte	0x7d
 4005 01c3 00       		.sleb128 0
 4006 01c4 00000000 		.4byte	0
 4007 01c8 00000000 		.4byte	0
 4008              	.LLST13:
 4009 01cc D8060000 		.4byte	.LFB42-.Ltext0
 4010 01d0 DA060000 		.4byte	.LCFI76-.Ltext0
 4011 01d4 0200     		.2byte	0x2
 4012 01d6 7D       		.byte	0x7d
 4013 01d7 00       		.sleb128 0
 4014 01d8 DA060000 		.4byte	.LCFI76-.Ltext0
 4015 01dc DC060000 		.4byte	.LCFI77-.Ltext0
ARM GAS  G:\Users\Jaxb\AppData\Local\Temp\ccbq8auC.s 			page 88


 4016 01e0 0200     		.2byte	0x2
 4017 01e2 7D       		.byte	0x7d
 4018 01e3 04       		.sleb128 4
 4019 01e4 DC060000 		.4byte	.LCFI77-.Ltext0
 4020 01e8 DE060000 		.4byte	.LCFI78-.Ltext0
 4021 01ec 0200     		.2byte	0x2
 4022 01ee 7D       		.byte	0x7d
 4023 01ef 18       		.sleb128 24
 4024 01f0 DE060000 		.4byte	.LCFI78-.Ltext0
 4025 01f4 FE060000 		.4byte	.LCFI79-.Ltext0
 4026 01f8 0200     		.2byte	0x2
 4027 01fa 77       		.byte	0x77
 4028 01fb 18       		.sleb128 24
 4029 01fc FE060000 		.4byte	.LCFI79-.Ltext0
 4030 0200 00070000 		.4byte	.LCFI80-.Ltext0
 4031 0204 0200     		.2byte	0x2
 4032 0206 77       		.byte	0x77
 4033 0207 04       		.sleb128 4
 4034 0208 00070000 		.4byte	.LCFI80-.Ltext0
 4035 020c 02070000 		.4byte	.LCFI81-.Ltext0
 4036 0210 0200     		.2byte	0x2
 4037 0212 7D       		.byte	0x7d
 4038 0213 04       		.sleb128 4
 4039 0214 02070000 		.4byte	.LCFI81-.Ltext0
 4040 0218 0C070000 		.4byte	.LFE42-.Ltext0
 4041 021c 0200     		.2byte	0x2
 4042 021e 7D       		.byte	0x7d
 4043 021f 00       		.sleb128 0
 4044 0220 00000000 		.4byte	0
 4045 0224 00000000 		.4byte	0
 4046              	.LLST12:
 4047 0228 6C060000 		.4byte	.LFB41-.Ltext0
 4048 022c 6E060000 		.4byte	.LCFI70-.Ltext0
 4049 0230 0200     		.2byte	0x2
 4050 0232 7D       		.byte	0x7d
 4051 0233 00       		.sleb128 0
 4052 0234 6E060000 		.4byte	.LCFI70-.Ltext0
 4053 0238 70060000 		.4byte	.LCFI71-.Ltext0
 4054 023c 0200     		.2byte	0x2
 4055 023e 7D       		.byte	0x7d
 4056 023f 04       		.sleb128 4
 4057 0240 70060000 		.4byte	.LCFI71-.Ltext0
 4058 0244 72060000 		.4byte	.LCFI72-.Ltext0
 4059 0248 0200     		.2byte	0x2
 4060 024a 7D       		.byte	0x7d
 4061 024b 10       		.sleb128 16
 4062 024c 72060000 		.4byte	.LCFI72-.Ltext0
 4063 0250 C4060000 		.4byte	.LCFI73-.Ltext0
 4064 0254 0200     		.2byte	0x2
 4065 0256 77       		.byte	0x77
 4066 0257 10       		.sleb128 16
 4067 0258 C4060000 		.4byte	.LCFI73-.Ltext0
 4068 025c C6060000 		.4byte	.LCFI74-.Ltext0
 4069 0260 0200     		.2byte	0x2
 4070 0262 77       		.byte	0x77
 4071 0263 04       		.sleb128 4
 4072 0264 C6060000 		.4byte	.LCFI74-.Ltext0
ARM GAS  G:\Users\Jaxb\AppData\Local\Temp\ccbq8auC.s 			page 89


 4073 0268 C8060000 		.4byte	.LCFI75-.Ltext0
 4074 026c 0200     		.2byte	0x2
 4075 026e 7D       		.byte	0x7d
 4076 026f 04       		.sleb128 4
 4077 0270 C8060000 		.4byte	.LCFI75-.Ltext0
 4078 0274 D8060000 		.4byte	.LFE41-.Ltext0
 4079 0278 0200     		.2byte	0x2
 4080 027a 7D       		.byte	0x7d
 4081 027b 00       		.sleb128 0
 4082 027c 00000000 		.4byte	0
 4083 0280 00000000 		.4byte	0
 4084              	.LLST11:
 4085 0284 30060000 		.4byte	.LFB40-.Ltext0
 4086 0288 32060000 		.4byte	.LCFI64-.Ltext0
 4087 028c 0200     		.2byte	0x2
 4088 028e 7D       		.byte	0x7d
 4089 028f 00       		.sleb128 0
 4090 0290 32060000 		.4byte	.LCFI64-.Ltext0
 4091 0294 34060000 		.4byte	.LCFI65-.Ltext0
 4092 0298 0200     		.2byte	0x2
 4093 029a 7D       		.byte	0x7d
 4094 029b 04       		.sleb128 4
 4095 029c 34060000 		.4byte	.LCFI65-.Ltext0
 4096 02a0 36060000 		.4byte	.LCFI66-.Ltext0
 4097 02a4 0200     		.2byte	0x2
 4098 02a6 7D       		.byte	0x7d
 4099 02a7 10       		.sleb128 16
 4100 02a8 36060000 		.4byte	.LCFI66-.Ltext0
 4101 02ac 5E060000 		.4byte	.LCFI67-.Ltext0
 4102 02b0 0200     		.2byte	0x2
 4103 02b2 77       		.byte	0x77
 4104 02b3 10       		.sleb128 16
 4105 02b4 5E060000 		.4byte	.LCFI67-.Ltext0
 4106 02b8 60060000 		.4byte	.LCFI68-.Ltext0
 4107 02bc 0200     		.2byte	0x2
 4108 02be 77       		.byte	0x77
 4109 02bf 04       		.sleb128 4
 4110 02c0 60060000 		.4byte	.LCFI68-.Ltext0
 4111 02c4 62060000 		.4byte	.LCFI69-.Ltext0
 4112 02c8 0200     		.2byte	0x2
 4113 02ca 7D       		.byte	0x7d
 4114 02cb 04       		.sleb128 4
 4115 02cc 62060000 		.4byte	.LCFI69-.Ltext0
 4116 02d0 6C060000 		.4byte	.LFE40-.Ltext0
 4117 02d4 0200     		.2byte	0x2
 4118 02d6 7D       		.byte	0x7d
 4119 02d7 00       		.sleb128 0
 4120 02d8 00000000 		.4byte	0
 4121 02dc 00000000 		.4byte	0
 4122              	.LLST10:
 4123 02e0 C4050000 		.4byte	.LFB39-.Ltext0
 4124 02e4 C6050000 		.4byte	.LCFI58-.Ltext0
 4125 02e8 0200     		.2byte	0x2
 4126 02ea 7D       		.byte	0x7d
 4127 02eb 00       		.sleb128 0
 4128 02ec C6050000 		.4byte	.LCFI58-.Ltext0
 4129 02f0 C8050000 		.4byte	.LCFI59-.Ltext0
ARM GAS  G:\Users\Jaxb\AppData\Local\Temp\ccbq8auC.s 			page 90


 4130 02f4 0200     		.2byte	0x2
 4131 02f6 7D       		.byte	0x7d
 4132 02f7 04       		.sleb128 4
 4133 02f8 C8050000 		.4byte	.LCFI59-.Ltext0
 4134 02fc CA050000 		.4byte	.LCFI60-.Ltext0
 4135 0300 0200     		.2byte	0x2
 4136 0302 7D       		.byte	0x7d
 4137 0303 10       		.sleb128 16
 4138 0304 CA050000 		.4byte	.LCFI60-.Ltext0
 4139 0308 1C060000 		.4byte	.LCFI61-.Ltext0
 4140 030c 0200     		.2byte	0x2
 4141 030e 77       		.byte	0x77
 4142 030f 10       		.sleb128 16
 4143 0310 1C060000 		.4byte	.LCFI61-.Ltext0
 4144 0314 1E060000 		.4byte	.LCFI62-.Ltext0
 4145 0318 0200     		.2byte	0x2
 4146 031a 77       		.byte	0x77
 4147 031b 04       		.sleb128 4
 4148 031c 1E060000 		.4byte	.LCFI62-.Ltext0
 4149 0320 20060000 		.4byte	.LCFI63-.Ltext0
 4150 0324 0200     		.2byte	0x2
 4151 0326 7D       		.byte	0x7d
 4152 0327 04       		.sleb128 4
 4153 0328 20060000 		.4byte	.LCFI63-.Ltext0
 4154 032c 30060000 		.4byte	.LFE39-.Ltext0
 4155 0330 0200     		.2byte	0x2
 4156 0332 7D       		.byte	0x7d
 4157 0333 00       		.sleb128 0
 4158 0334 00000000 		.4byte	0
 4159 0338 00000000 		.4byte	0
 4160              	.LLST9:
 4161 033c 70050000 		.4byte	.LFB38-.Ltext0
 4162 0340 72050000 		.4byte	.LCFI52-.Ltext0
 4163 0344 0200     		.2byte	0x2
 4164 0346 7D       		.byte	0x7d
 4165 0347 00       		.sleb128 0
 4166 0348 72050000 		.4byte	.LCFI52-.Ltext0
 4167 034c 74050000 		.4byte	.LCFI53-.Ltext0
 4168 0350 0200     		.2byte	0x2
 4169 0352 7D       		.byte	0x7d
 4170 0353 04       		.sleb128 4
 4171 0354 74050000 		.4byte	.LCFI53-.Ltext0
 4172 0358 76050000 		.4byte	.LCFI54-.Ltext0
 4173 035c 0200     		.2byte	0x2
 4174 035e 7D       		.byte	0x7d
 4175 035f 10       		.sleb128 16
 4176 0360 76050000 		.4byte	.LCFI54-.Ltext0
 4177 0364 B8050000 		.4byte	.LCFI55-.Ltext0
 4178 0368 0200     		.2byte	0x2
 4179 036a 77       		.byte	0x77
 4180 036b 10       		.sleb128 16
 4181 036c B8050000 		.4byte	.LCFI55-.Ltext0
 4182 0370 BA050000 		.4byte	.LCFI56-.Ltext0
 4183 0374 0200     		.2byte	0x2
 4184 0376 77       		.byte	0x77
 4185 0377 04       		.sleb128 4
 4186 0378 BA050000 		.4byte	.LCFI56-.Ltext0
ARM GAS  G:\Users\Jaxb\AppData\Local\Temp\ccbq8auC.s 			page 91


 4187 037c BC050000 		.4byte	.LCFI57-.Ltext0
 4188 0380 0200     		.2byte	0x2
 4189 0382 7D       		.byte	0x7d
 4190 0383 04       		.sleb128 4
 4191 0384 BC050000 		.4byte	.LCFI57-.Ltext0
 4192 0388 C4050000 		.4byte	.LFE38-.Ltext0
 4193 038c 0200     		.2byte	0x2
 4194 038e 7D       		.byte	0x7d
 4195 038f 00       		.sleb128 0
 4196 0390 00000000 		.4byte	0
 4197 0394 00000000 		.4byte	0
 4198              	.LLST8:
 4199 0398 EC040000 		.4byte	.LFB37-.Ltext0
 4200 039c EE040000 		.4byte	.LCFI46-.Ltext0
 4201 03a0 0200     		.2byte	0x2
 4202 03a2 7D       		.byte	0x7d
 4203 03a3 00       		.sleb128 0
 4204 03a4 EE040000 		.4byte	.LCFI46-.Ltext0
 4205 03a8 F0040000 		.4byte	.LCFI47-.Ltext0
 4206 03ac 0200     		.2byte	0x2
 4207 03ae 7D       		.byte	0x7d
 4208 03af 04       		.sleb128 4
 4209 03b0 F0040000 		.4byte	.LCFI47-.Ltext0
 4210 03b4 F2040000 		.4byte	.LCFI48-.Ltext0
 4211 03b8 0200     		.2byte	0x2
 4212 03ba 7D       		.byte	0x7d
 4213 03bb 10       		.sleb128 16
 4214 03bc F2040000 		.4byte	.LCFI48-.Ltext0
 4215 03c0 6A050000 		.4byte	.LCFI49-.Ltext0
 4216 03c4 0200     		.2byte	0x2
 4217 03c6 77       		.byte	0x77
 4218 03c7 10       		.sleb128 16
 4219 03c8 6A050000 		.4byte	.LCFI49-.Ltext0
 4220 03cc 6C050000 		.4byte	.LCFI50-.Ltext0
 4221 03d0 0200     		.2byte	0x2
 4222 03d2 77       		.byte	0x77
 4223 03d3 04       		.sleb128 4
 4224 03d4 6C050000 		.4byte	.LCFI50-.Ltext0
 4225 03d8 6E050000 		.4byte	.LCFI51-.Ltext0
 4226 03dc 0200     		.2byte	0x2
 4227 03de 7D       		.byte	0x7d
 4228 03df 04       		.sleb128 4
 4229 03e0 6E050000 		.4byte	.LCFI51-.Ltext0
 4230 03e4 70050000 		.4byte	.LFE37-.Ltext0
 4231 03e8 0200     		.2byte	0x2
 4232 03ea 7D       		.byte	0x7d
 4233 03eb 00       		.sleb128 0
 4234 03ec 00000000 		.4byte	0
 4235 03f0 00000000 		.4byte	0
 4236              	.LLST7:
 4237 03f4 70040000 		.4byte	.LFB36-.Ltext0
 4238 03f8 72040000 		.4byte	.LCFI40-.Ltext0
 4239 03fc 0200     		.2byte	0x2
 4240 03fe 7D       		.byte	0x7d
 4241 03ff 00       		.sleb128 0
 4242 0400 72040000 		.4byte	.LCFI40-.Ltext0
 4243 0404 74040000 		.4byte	.LCFI41-.Ltext0
ARM GAS  G:\Users\Jaxb\AppData\Local\Temp\ccbq8auC.s 			page 92


 4244 0408 0200     		.2byte	0x2
 4245 040a 7D       		.byte	0x7d
 4246 040b 04       		.sleb128 4
 4247 040c 74040000 		.4byte	.LCFI41-.Ltext0
 4248 0410 76040000 		.4byte	.LCFI42-.Ltext0
 4249 0414 0200     		.2byte	0x2
 4250 0416 7D       		.byte	0x7d
 4251 0417 10       		.sleb128 16
 4252 0418 76040000 		.4byte	.LCFI42-.Ltext0
 4253 041c E6040000 		.4byte	.LCFI43-.Ltext0
 4254 0420 0200     		.2byte	0x2
 4255 0422 77       		.byte	0x77
 4256 0423 10       		.sleb128 16
 4257 0424 E6040000 		.4byte	.LCFI43-.Ltext0
 4258 0428 E8040000 		.4byte	.LCFI44-.Ltext0
 4259 042c 0200     		.2byte	0x2
 4260 042e 77       		.byte	0x77
 4261 042f 04       		.sleb128 4
 4262 0430 E8040000 		.4byte	.LCFI44-.Ltext0
 4263 0434 EA040000 		.4byte	.LCFI45-.Ltext0
 4264 0438 0200     		.2byte	0x2
 4265 043a 7D       		.byte	0x7d
 4266 043b 04       		.sleb128 4
 4267 043c EA040000 		.4byte	.LCFI45-.Ltext0
 4268 0440 EC040000 		.4byte	.LFE36-.Ltext0
 4269 0444 0200     		.2byte	0x2
 4270 0446 7D       		.byte	0x7d
 4271 0447 00       		.sleb128 0
 4272 0448 00000000 		.4byte	0
 4273 044c 00000000 		.4byte	0
 4274              	.LLST6:
 4275 0450 9C030000 		.4byte	.LFB35-.Ltext0
 4276 0454 9E030000 		.4byte	.LCFI34-.Ltext0
 4277 0458 0200     		.2byte	0x2
 4278 045a 7D       		.byte	0x7d
 4279 045b 00       		.sleb128 0
 4280 045c 9E030000 		.4byte	.LCFI34-.Ltext0
 4281 0460 A0030000 		.4byte	.LCFI35-.Ltext0
 4282 0464 0200     		.2byte	0x2
 4283 0466 7D       		.byte	0x7d
 4284 0467 04       		.sleb128 4
 4285 0468 A0030000 		.4byte	.LCFI35-.Ltext0
 4286 046c A2030000 		.4byte	.LCFI36-.Ltext0
 4287 0470 0200     		.2byte	0x2
 4288 0472 7D       		.byte	0x7d
 4289 0473 10       		.sleb128 16
 4290 0474 A2030000 		.4byte	.LCFI36-.Ltext0
 4291 0478 6A040000 		.4byte	.LCFI37-.Ltext0
 4292 047c 0200     		.2byte	0x2
 4293 047e 77       		.byte	0x77
 4294 047f 10       		.sleb128 16
 4295 0480 6A040000 		.4byte	.LCFI37-.Ltext0
 4296 0484 6C040000 		.4byte	.LCFI38-.Ltext0
 4297 0488 0200     		.2byte	0x2
 4298 048a 77       		.byte	0x77
 4299 048b 04       		.sleb128 4
 4300 048c 6C040000 		.4byte	.LCFI38-.Ltext0
ARM GAS  G:\Users\Jaxb\AppData\Local\Temp\ccbq8auC.s 			page 93


 4301 0490 6E040000 		.4byte	.LCFI39-.Ltext0
 4302 0494 0200     		.2byte	0x2
 4303 0496 7D       		.byte	0x7d
 4304 0497 04       		.sleb128 4
 4305 0498 6E040000 		.4byte	.LCFI39-.Ltext0
 4306 049c 70040000 		.4byte	.LFE35-.Ltext0
 4307 04a0 0200     		.2byte	0x2
 4308 04a2 7D       		.byte	0x7d
 4309 04a3 00       		.sleb128 0
 4310 04a4 00000000 		.4byte	0
 4311 04a8 00000000 		.4byte	0
 4312              	.LLST5:
 4313 04ac F0020000 		.4byte	.LFB34-.Ltext0
 4314 04b0 F2020000 		.4byte	.LCFI28-.Ltext0
 4315 04b4 0200     		.2byte	0x2
 4316 04b6 7D       		.byte	0x7d
 4317 04b7 00       		.sleb128 0
 4318 04b8 F2020000 		.4byte	.LCFI28-.Ltext0
 4319 04bc F4020000 		.4byte	.LCFI29-.Ltext0
 4320 04c0 0200     		.2byte	0x2
 4321 04c2 7D       		.byte	0x7d
 4322 04c3 04       		.sleb128 4
 4323 04c4 F4020000 		.4byte	.LCFI29-.Ltext0
 4324 04c8 F6020000 		.4byte	.LCFI30-.Ltext0
 4325 04cc 0200     		.2byte	0x2
 4326 04ce 7D       		.byte	0x7d
 4327 04cf 10       		.sleb128 16
 4328 04d0 F6020000 		.4byte	.LCFI30-.Ltext0
 4329 04d4 90030000 		.4byte	.LCFI31-.Ltext0
 4330 04d8 0200     		.2byte	0x2
 4331 04da 77       		.byte	0x77
 4332 04db 10       		.sleb128 16
 4333 04dc 90030000 		.4byte	.LCFI31-.Ltext0
 4334 04e0 92030000 		.4byte	.LCFI32-.Ltext0
 4335 04e4 0200     		.2byte	0x2
 4336 04e6 77       		.byte	0x77
 4337 04e7 04       		.sleb128 4
 4338 04e8 92030000 		.4byte	.LCFI32-.Ltext0
 4339 04ec 94030000 		.4byte	.LCFI33-.Ltext0
 4340 04f0 0200     		.2byte	0x2
 4341 04f2 7D       		.byte	0x7d
 4342 04f3 04       		.sleb128 4
 4343 04f4 94030000 		.4byte	.LCFI33-.Ltext0
 4344 04f8 9C030000 		.4byte	.LFE34-.Ltext0
 4345 04fc 0200     		.2byte	0x2
 4346 04fe 7D       		.byte	0x7d
 4347 04ff 00       		.sleb128 0
 4348 0500 00000000 		.4byte	0
 4349 0504 00000000 		.4byte	0
 4350              	.LLST4:
 4351 0508 24020000 		.4byte	.LFB33-.Ltext0
 4352 050c 26020000 		.4byte	.LCFI22-.Ltext0
 4353 0510 0200     		.2byte	0x2
 4354 0512 7D       		.byte	0x7d
 4355 0513 00       		.sleb128 0
 4356 0514 26020000 		.4byte	.LCFI22-.Ltext0
 4357 0518 28020000 		.4byte	.LCFI23-.Ltext0
ARM GAS  G:\Users\Jaxb\AppData\Local\Temp\ccbq8auC.s 			page 94


 4358 051c 0200     		.2byte	0x2
 4359 051e 7D       		.byte	0x7d
 4360 051f 04       		.sleb128 4
 4361 0520 28020000 		.4byte	.LCFI23-.Ltext0
 4362 0524 2A020000 		.4byte	.LCFI24-.Ltext0
 4363 0528 0200     		.2byte	0x2
 4364 052a 7D       		.byte	0x7d
 4365 052b 20       		.sleb128 32
 4366 052c 2A020000 		.4byte	.LCFI24-.Ltext0
 4367 0530 E2020000 		.4byte	.LCFI25-.Ltext0
 4368 0534 0200     		.2byte	0x2
 4369 0536 77       		.byte	0x77
 4370 0537 20       		.sleb128 32
 4371 0538 E2020000 		.4byte	.LCFI25-.Ltext0
 4372 053c E4020000 		.4byte	.LCFI26-.Ltext0
 4373 0540 0200     		.2byte	0x2
 4374 0542 77       		.byte	0x77
 4375 0543 04       		.sleb128 4
 4376 0544 E4020000 		.4byte	.LCFI26-.Ltext0
 4377 0548 E6020000 		.4byte	.LCFI27-.Ltext0
 4378 054c 0200     		.2byte	0x2
 4379 054e 7D       		.byte	0x7d
 4380 054f 04       		.sleb128 4
 4381 0550 E6020000 		.4byte	.LCFI27-.Ltext0
 4382 0554 F0020000 		.4byte	.LFE33-.Ltext0
 4383 0558 0200     		.2byte	0x2
 4384 055a 7D       		.byte	0x7d
 4385 055b 00       		.sleb128 0
 4386 055c 00000000 		.4byte	0
 4387 0560 00000000 		.4byte	0
 4388              	.LLST3:
 4389 0564 E8000000 		.4byte	.LFB32-.Ltext0
 4390 0568 EA000000 		.4byte	.LCFI16-.Ltext0
 4391 056c 0200     		.2byte	0x2
 4392 056e 7D       		.byte	0x7d
 4393 056f 00       		.sleb128 0
 4394 0570 EA000000 		.4byte	.LCFI16-.Ltext0
 4395 0574 EC000000 		.4byte	.LCFI17-.Ltext0
 4396 0578 0200     		.2byte	0x2
 4397 057a 7D       		.byte	0x7d
 4398 057b 04       		.sleb128 4
 4399 057c EC000000 		.4byte	.LCFI17-.Ltext0
 4400 0580 EE000000 		.4byte	.LCFI18-.Ltext0
 4401 0584 0200     		.2byte	0x2
 4402 0586 7D       		.byte	0x7d
 4403 0587 10       		.sleb128 16
 4404 0588 EE000000 		.4byte	.LCFI18-.Ltext0
 4405 058c 18020000 		.4byte	.LCFI19-.Ltext0
 4406 0590 0200     		.2byte	0x2
 4407 0592 77       		.byte	0x77
 4408 0593 10       		.sleb128 16
 4409 0594 18020000 		.4byte	.LCFI19-.Ltext0
 4410 0598 1A020000 		.4byte	.LCFI20-.Ltext0
 4411 059c 0200     		.2byte	0x2
 4412 059e 77       		.byte	0x77
 4413 059f 04       		.sleb128 4
 4414 05a0 1A020000 		.4byte	.LCFI20-.Ltext0
ARM GAS  G:\Users\Jaxb\AppData\Local\Temp\ccbq8auC.s 			page 95


 4415 05a4 1C020000 		.4byte	.LCFI21-.Ltext0
 4416 05a8 0200     		.2byte	0x2
 4417 05aa 7D       		.byte	0x7d
 4418 05ab 04       		.sleb128 4
 4419 05ac 1C020000 		.4byte	.LCFI21-.Ltext0
 4420 05b0 24020000 		.4byte	.LFE32-.Ltext0
 4421 05b4 0200     		.2byte	0x2
 4422 05b6 7D       		.byte	0x7d
 4423 05b7 00       		.sleb128 0
 4424 05b8 00000000 		.4byte	0
 4425 05bc 00000000 		.4byte	0
 4426              	.LLST2:
 4427 05c0 B4000000 		.4byte	.LFB31-.Ltext0
 4428 05c4 B6000000 		.4byte	.LCFI12-.Ltext0
 4429 05c8 0200     		.2byte	0x2
 4430 05ca 7D       		.byte	0x7d
 4431 05cb 00       		.sleb128 0
 4432 05cc B6000000 		.4byte	.LCFI12-.Ltext0
 4433 05d0 B8000000 		.4byte	.LCFI13-.Ltext0
 4434 05d4 0200     		.2byte	0x2
 4435 05d6 7D       		.byte	0x7d
 4436 05d7 04       		.sleb128 4
 4437 05d8 B8000000 		.4byte	.LCFI13-.Ltext0
 4438 05dc E0000000 		.4byte	.LCFI14-.Ltext0
 4439 05e0 0200     		.2byte	0x2
 4440 05e2 77       		.byte	0x77
 4441 05e3 04       		.sleb128 4
 4442 05e4 E0000000 		.4byte	.LCFI14-.Ltext0
 4443 05e8 E2000000 		.4byte	.LCFI15-.Ltext0
 4444 05ec 0200     		.2byte	0x2
 4445 05ee 7D       		.byte	0x7d
 4446 05ef 04       		.sleb128 4
 4447 05f0 E2000000 		.4byte	.LCFI15-.Ltext0
 4448 05f4 E8000000 		.4byte	.LFE31-.Ltext0
 4449 05f8 0200     		.2byte	0x2
 4450 05fa 7D       		.byte	0x7d
 4451 05fb 00       		.sleb128 0
 4452 05fc 00000000 		.4byte	0
 4453 0600 00000000 		.4byte	0
 4454              	.LLST1:
 4455 0604 58000000 		.4byte	.LFB30-.Ltext0
 4456 0608 5A000000 		.4byte	.LCFI6-.Ltext0
 4457 060c 0200     		.2byte	0x2
 4458 060e 7D       		.byte	0x7d
 4459 060f 00       		.sleb128 0
 4460 0610 5A000000 		.4byte	.LCFI6-.Ltext0
 4461 0614 5C000000 		.4byte	.LCFI7-.Ltext0
 4462 0618 0200     		.2byte	0x2
 4463 061a 7D       		.byte	0x7d
 4464 061b 04       		.sleb128 4
 4465 061c 5C000000 		.4byte	.LCFI7-.Ltext0
 4466 0620 5E000000 		.4byte	.LCFI8-.Ltext0
 4467 0624 0200     		.2byte	0x2
 4468 0626 7D       		.byte	0x7d
 4469 0627 10       		.sleb128 16
 4470 0628 5E000000 		.4byte	.LCFI8-.Ltext0
 4471 062c A4000000 		.4byte	.LCFI9-.Ltext0
ARM GAS  G:\Users\Jaxb\AppData\Local\Temp\ccbq8auC.s 			page 96


 4472 0630 0200     		.2byte	0x2
 4473 0632 77       		.byte	0x77
 4474 0633 10       		.sleb128 16
 4475 0634 A4000000 		.4byte	.LCFI9-.Ltext0
 4476 0638 A6000000 		.4byte	.LCFI10-.Ltext0
 4477 063c 0200     		.2byte	0x2
 4478 063e 77       		.byte	0x77
 4479 063f 04       		.sleb128 4
 4480 0640 A6000000 		.4byte	.LCFI10-.Ltext0
 4481 0644 A8000000 		.4byte	.LCFI11-.Ltext0
 4482 0648 0200     		.2byte	0x2
 4483 064a 7D       		.byte	0x7d
 4484 064b 04       		.sleb128 4
 4485 064c A8000000 		.4byte	.LCFI11-.Ltext0
 4486 0650 B4000000 		.4byte	.LFE30-.Ltext0
 4487 0654 0200     		.2byte	0x2
 4488 0656 7D       		.byte	0x7d
 4489 0657 00       		.sleb128 0
 4490 0658 00000000 		.4byte	0
 4491 065c 00000000 		.4byte	0
 4492              	.LLST0:
 4493 0660 00000000 		.4byte	.LFB29-.Ltext0
 4494 0664 02000000 		.4byte	.LCFI0-.Ltext0
 4495 0668 0200     		.2byte	0x2
 4496 066a 7D       		.byte	0x7d
 4497 066b 00       		.sleb128 0
 4498 066c 02000000 		.4byte	.LCFI0-.Ltext0
 4499 0670 04000000 		.4byte	.LCFI1-.Ltext0
 4500 0674 0200     		.2byte	0x2
 4501 0676 7D       		.byte	0x7d
 4502 0677 04       		.sleb128 4
 4503 0678 04000000 		.4byte	.LCFI1-.Ltext0
 4504 067c 06000000 		.4byte	.LCFI2-.Ltext0
 4505 0680 0200     		.2byte	0x2
 4506 0682 7D       		.byte	0x7d
 4507 0683 10       		.sleb128 16
 4508 0684 06000000 		.4byte	.LCFI2-.Ltext0
 4509 0688 4C000000 		.4byte	.LCFI3-.Ltext0
 4510 068c 0200     		.2byte	0x2
 4511 068e 77       		.byte	0x77
 4512 068f 10       		.sleb128 16
 4513 0690 4C000000 		.4byte	.LCFI3-.Ltext0
 4514 0694 4E000000 		.4byte	.LCFI4-.Ltext0
 4515 0698 0200     		.2byte	0x2
 4516 069a 77       		.byte	0x77
 4517 069b 04       		.sleb128 4
 4518 069c 4E000000 		.4byte	.LCFI4-.Ltext0
 4519 06a0 50000000 		.4byte	.LCFI5-.Ltext0
 4520 06a4 0200     		.2byte	0x2
 4521 06a6 7D       		.byte	0x7d
 4522 06a7 04       		.sleb128 4
 4523 06a8 50000000 		.4byte	.LCFI5-.Ltext0
 4524 06ac 58000000 		.4byte	.LFE29-.Ltext0
 4525 06b0 0200     		.2byte	0x2
 4526 06b2 7D       		.byte	0x7d
 4527 06b3 00       		.sleb128 0
 4528 06b4 00000000 		.4byte	0
ARM GAS  G:\Users\Jaxb\AppData\Local\Temp\ccbq8auC.s 			page 97


 4529 06b8 00000000 		.4byte	0
 4530              		.section	.debug_aranges,"",%progbits
 4531 0000 1C000000 		.4byte	0x1c
 4532 0004 0200     		.2byte	0x2
 4533 0006 00000000 		.4byte	.Ldebug_info0
 4534 000a 04       		.byte	0x4
 4535 000b 00       		.byte	0
 4536 000c 0000     		.2byte	0
 4537 000e 0000     		.2byte	0
 4538 0010 00000000 		.4byte	.Ltext0
 4539 0014 50090000 		.4byte	.Letext0-.Ltext0
 4540 0018 00000000 		.4byte	0
 4541 001c 00000000 		.4byte	0
 4542              		.section	.debug_line,"",%progbits
 4543              	.Ldebug_line0:
 4544 0000 00030000 		.section	.debug_str,"MS",%progbits,1
 4544      02003001 
 4544      00000201 
 4544      FB0E0D00 
 4544      01010101 
 4545              	.LASF57:
 4546 0000 46534D43 		.ascii	"FSMC_WaitSignalActive\000"
 4546      5F576169 
 4546      74536967 
 4546      6E616C41 
 4546      63746976 
 4547              	.LASF56:
 4548 0016 46534D43 		.ascii	"FSMC_WrapMode\000"
 4548      5F577261 
 4548      704D6F64 
 4548      6500
 4549              	.LASF88:
 4550 0024 46534D43 		.ascii	"FSMC_GetITStatus\000"
 4550      5F476574 
 4550      49545374 
 4550      61747573 
 4550      00
 4551              	.LASF107:
 4552 0035 746D7070 		.ascii	"tmppmem\000"
 4552      6D656D00 
 4553              	.LASF70:
 4554 003d 46534D43 		.ascii	"FSMC_Waitfeature\000"
 4554      5F576169 
 4554      74666561 
 4554      74757265 
 4554      00
 4555              	.LASF72:
 4556 004e 46534D43 		.ascii	"FSMC_ECCPageSize\000"
 4556      5F454343 
 4556      50616765 
 4556      53697A65 
 4556      00
 4557              	.LASF22:
 4558 005f 42544352 		.ascii	"BTCR\000"
 4558      00
 4559              	.LASF49:
 4560 0064 46534D43 		.ascii	"FSMC_Bank\000"
ARM GAS  G:\Users\Jaxb\AppData\Local\Temp\ccbq8auC.s 			page 98


 4560      5F42616E 
 4560      6B00
 4561              	.LASF90:
 4562 006e 46534D43 		.ascii	"FSMC_ITConfig\000"
 4562      5F495443 
 4562      6F6E6669 
 4562      6700
 4563              	.LASF67:
 4564 007c 46534D43 		.ascii	"FSMC_HoldSetupTime\000"
 4564      5F486F6C 
 4564      64536574 
 4564      75705469 
 4564      6D6500
 4565              	.LASF80:
 4566 008f 46534D43 		.ascii	"FSMC_IT\000"
 4566      5F495400 
 4567              	.LASF112:
 4568 0097 2E2E2F2E 		.ascii	"../../source/src/FWlib/src/stm32f10x_fsmc.c\000"
 4568      2E2F736F 
 4568      75726365 
 4568      2F737263 
 4568      2F46576C 
 4569              	.LASF105:
 4570 00c3 46534D43 		.ascii	"FSMC_NANDInit\000"
 4570      5F4E414E 
 4570      44496E69 
 4570      7400
 4571              	.LASF44:
 4572 00d1 46534D43 		.ascii	"FSMC_BusTurnAroundDuration\000"
 4572      5F427573 
 4572      5475726E 
 4572      41726F75 
 4572      6E644475 
 4573              	.LASF54:
 4574 00ec 46534D43 		.ascii	"FSMC_AsynchronousWait\000"
 4574      5F417379 
 4574      6E636872 
 4574      6F6E6F75 
 4574      73576169 
 4575              	.LASF108:
 4576 0102 746D7070 		.ascii	"tmppatt\000"
 4576      61747400 
 4577              	.LASF6:
 4578 010a 5F5F7569 		.ascii	"__uint32_t\000"
 4578      6E743332 
 4578      5F7400
 4579              	.LASF73:
 4580 0115 46534D43 		.ascii	"FSMC_TCLRSetupTime\000"
 4580      5F54434C 
 4580      52536574 
 4580      75705469 
 4580      6D6500
 4581              	.LASF5:
 4582 0128 5F5F7569 		.ascii	"__uint16_t\000"
 4582      6E743136 
 4582      5F7400
 4583              	.LASF51:
ARM GAS  G:\Users\Jaxb\AppData\Local\Temp\ccbq8auC.s 			page 99


 4584 0133 46534D43 		.ascii	"FSMC_MemoryType\000"
 4584      5F4D656D 
 4584      6F727954 
 4584      79706500 
 4585              	.LASF106:
 4586 0143 746D7070 		.ascii	"tmppcr\000"
 4586      637200
 4587              	.LASF2:
 4588 014a 73686F72 		.ascii	"short int\000"
 4588      7420696E 
 4588      7400
 4589              	.LASF68:
 4590 0154 46534D43 		.ascii	"FSMC_HiZSetupTime\000"
 4590      5F48695A 
 4590      53657475 
 4590      7054696D 
 4590      6500
 4591              	.LASF92:
 4592 0166 46534D43 		.ascii	"FSMC_GetECC\000"
 4592      5F476574 
 4592      45434300 
 4593              	.LASF41:
 4594 0172 46534D43 		.ascii	"FSMC_AddressSetupTime\000"
 4594      5F416464 
 4594      72657373 
 4594      53657475 
 4594      7054696D 
 4595              	.LASF79:
 4596 0188 46534D43 		.ascii	"FSMC_PCCARDInitTypeDef\000"
 4596      5F504343 
 4596      41524449 
 4596      6E697454 
 4596      79706544 
 4597              	.LASF98:
 4598 019f 46534D43 		.ascii	"FSMC_PCCARDStructInit\000"
 4598      5F504343 
 4598      41524453 
 4598      74727563 
 4598      74496E69 
 4599              	.LASF39:
 4600 01b5 50494F34 		.ascii	"PIO4\000"
 4600      00
 4601              	.LASF96:
 4602 01ba 46534D43 		.ascii	"FSMC_NANDCmd\000"
 4602      5F4E414E 
 4602      44436D64 
 4602      00
 4603              	.LASF91:
 4604 01c7 4E657753 		.ascii	"NewState\000"
 4604      74617465 
 4604      00
 4605              	.LASF87:
 4606 01d0 46534D43 		.ascii	"FSMC_FLAG\000"
 4606      5F464C41 
 4606      4700
 4607              	.LASF115:
 4608 01da 46534D43 		.ascii	"FSMC_NORSRAMDeInit\000"
ARM GAS  G:\Users\Jaxb\AppData\Local\Temp\ccbq8auC.s 			page 100


 4608      5F4E4F52 
 4608      5352414D 
 4608      4465496E 
 4608      697400
 4609              	.LASF102:
 4610 01ed 46534D43 		.ascii	"FSMC_NORSRAMStructInit\000"
 4610      5F4E4F52 
 4610      5352414D 
 4610      53747275 
 4610      6374496E 
 4611              	.LASF99:
 4612 0204 46534D43 		.ascii	"FSMC_PCCARDInitStruct\000"
 4612      5F504343 
 4612      41524449 
 4612      6E697453 
 4612      74727563 
 4613              	.LASF69:
 4614 021a 46534D43 		.ascii	"FSMC_NAND_PCCARDTimingInitTypeDef\000"
 4614      5F4E414E 
 4614      445F5043 
 4614      43415244 
 4614      54696D69 
 4615              	.LASF113:
 4616 023c 463A5C6B 		.ascii	"F:\\kaka\\KAKAOS\\C\\windows\\Project\\RVMDK\243\250"
 4616      616B615C 
 4616      4B414B41 
 4616      4F535C43 
 4616      5C77696E 
 4617 0264 757635A3 		.ascii	"uv5\243\251\000"
 4617      A900
 4618              	.LASF8:
 4619 026a 6C6F6E67 		.ascii	"long long int\000"
 4619      206C6F6E 
 4619      6720696E 
 4619      7400
 4620              	.LASF66:
 4621 0278 46534D43 		.ascii	"FSMC_WaitSetupTime\000"
 4621      5F576169 
 4621      74536574 
 4621      75705469 
 4621      6D6500
 4622              	.LASF52:
 4623 028b 46534D43 		.ascii	"FSMC_MemoryDataWidth\000"
 4623      5F4D656D 
 4623      6F727944 
 4623      61746157 
 4623      69647468 
 4624              	.LASF17:
 4625 02a0 49545374 		.ascii	"ITStatus\000"
 4625      61747573 
 4625      00
 4626              	.LASF4:
 4627 02a9 6C6F6E67 		.ascii	"long int\000"
 4627      20696E74 
 4627      00
 4628              	.LASF81:
 4629 02b2 62697473 		.ascii	"bitstatus\000"
ARM GAS  G:\Users\Jaxb\AppData\Local\Temp\ccbq8auC.s 			page 101


 4629      74617475 
 4629      7300
 4630              	.LASF18:
 4631 02bc 44495341 		.ascii	"DISABLE\000"
 4631      424C4500 
 4632              	.LASF24:
 4633 02c4 46534D43 		.ascii	"FSMC_Bank1E_TypeDef\000"
 4633      5F42616E 
 4633      6B31455F 
 4633      54797065 
 4633      44656600 
 4634              	.LASF21:
 4635 02d8 46534D43 		.ascii	"FSMC_Bank1_TypeDef\000"
 4635      5F42616E 
 4635      6B315F54 
 4635      79706544 
 4635      656600
 4636              	.LASF95:
 4637 02eb 46534D43 		.ascii	"FSMC_PCCARDCmd\000"
 4637      5F504343 
 4637      41524443 
 4637      6D6400
 4638              	.LASF42:
 4639 02fa 46534D43 		.ascii	"FSMC_AddressHoldTime\000"
 4639      5F416464 
 4639      72657373 
 4639      486F6C64 
 4639      54696D65 
 4640              	.LASF65:
 4641 030f 46534D43 		.ascii	"FSMC_SetupTime\000"
 4641      5F536574 
 4641      75705469 
 4641      6D6500
 4642              	.LASF47:
 4643 031e 46534D43 		.ascii	"FSMC_AccessMode\000"
 4643      5F416363 
 4643      6573734D 
 4643      6F646500 
 4644              	.LASF23:
 4645 032e 42575452 		.ascii	"BWTR\000"
 4645      00
 4646              	.LASF100:
 4647 0333 46534D43 		.ascii	"FSMC_NANDStructInit\000"
 4647      5F4E414E 
 4647      44537472 
 4647      75637449 
 4647      6E697400 
 4648              	.LASF46:
 4649 0347 46534D43 		.ascii	"FSMC_DataLatency\000"
 4649      5F446174 
 4649      614C6174 
 4649      656E6379 
 4649      00
 4650              	.LASF1:
 4651 0358 756E7369 		.ascii	"unsigned char\000"
 4651      676E6564 
 4651      20636861 
ARM GAS  G:\Users\Jaxb\AppData\Local\Temp\ccbq8auC.s 			page 102


 4651      7200
 4652              	.LASF48:
 4653 0366 46534D43 		.ascii	"FSMC_NORSRAMTimingInitTypeDef\000"
 4653      5F4E4F52 
 4653      5352414D 
 4653      54696D69 
 4653      6E67496E 
 4654              	.LASF71:
 4655 0384 46534D43 		.ascii	"FSMC_ECC\000"
 4655      5F454343 
 4655      00
 4656              	.LASF104:
 4657 038d 46534D43 		.ascii	"FSMC_PCCARDInit\000"
 4657      5F504343 
 4657      41524449 
 4657      6E697400 
 4658              	.LASF0:
 4659 039d 7369676E 		.ascii	"signed char\000"
 4659      65642063 
 4659      68617200 
 4660              	.LASF9:
 4661 03a9 6C6F6E67 		.ascii	"long long unsigned int\000"
 4661      206C6F6E 
 4661      6720756E 
 4661      7369676E 
 4661      65642069 
 4662              	.LASF12:
 4663 03c0 75696E74 		.ascii	"uint32_t\000"
 4663      33325F74 
 4663      00
 4664              	.LASF31:
 4665 03c9 50435233 		.ascii	"PCR3\000"
 4665      00
 4666              	.LASF60:
 4667 03ce 46534D43 		.ascii	"FSMC_ExtendedMode\000"
 4667      5F457874 
 4667      656E6465 
 4667      644D6F64 
 4667      6500
 4668              	.LASF10:
 4669 03e0 756E7369 		.ascii	"unsigned int\000"
 4669      676E6564 
 4669      20696E74 
 4669      00
 4670              	.LASF58:
 4671 03ed 46534D43 		.ascii	"FSMC_WriteOperation\000"
 4671      5F577269 
 4671      74654F70 
 4671      65726174 
 4671      696F6E00 
 4672              	.LASF30:
 4673 0401 46534D43 		.ascii	"FSMC_Bank2_TypeDef\000"
 4673      5F42616E 
 4673      6B325F54 
 4673      79706544 
 4673      656600
 4674              	.LASF89:
ARM GAS  G:\Users\Jaxb\AppData\Local\Temp\ccbq8auC.s 			page 103


 4675 0414 46534D43 		.ascii	"FSMC_GetFlagStatus\000"
 4675      5F476574 
 4675      466C6167 
 4675      53746174 
 4675      757300
 4676              	.LASF43:
 4677 0427 46534D43 		.ascii	"FSMC_DataSetupTime\000"
 4677      5F446174 
 4677      61536574 
 4677      75705469 
 4677      6D6500
 4678              	.LASF62:
 4679 043a 46534D43 		.ascii	"FSMC_ReadWriteTimingStruct\000"
 4679      5F526561 
 4679      64577269 
 4679      74655469 
 4679      6D696E67 
 4680              	.LASF78:
 4681 0455 46534D43 		.ascii	"FSMC_IOSpaceTimingStruct\000"
 4681      5F494F53 
 4681      70616365 
 4681      54696D69 
 4681      6E675374 
 4682              	.LASF35:
 4683 046e 46534D43 		.ascii	"FSMC_Bank3_TypeDef\000"
 4683      5F42616E 
 4683      6B335F54 
 4683      79706544 
 4683      656600
 4684              	.LASF84:
 4685 0481 6974656E 		.ascii	"itenable\000"
 4685      61626C65 
 4685      00
 4686              	.LASF86:
 4687 048a 46534D43 		.ascii	"FSMC_ClearFlag\000"
 4687      5F436C65 
 4687      6172466C 
 4687      616700
 4688              	.LASF114:
 4689 0499 46534D43 		.ascii	"FSMC_PCCARDDeInit\000"
 4689      5F504343 
 4689      41524444 
 4689      65496E69 
 4689      7400
 4690              	.LASF40:
 4691 04ab 46534D43 		.ascii	"FSMC_Bank4_TypeDef\000"
 4691      5F42616E 
 4691      6B345F54 
 4691      79706544 
 4691      656600
 4692              	.LASF11:
 4693 04be 75696E74 		.ascii	"uint16_t\000"
 4693      31365F74 
 4693      00
 4694              	.LASF101:
 4695 04c7 46534D43 		.ascii	"FSMC_NANDInitStruct\000"
 4695      5F4E414E 
ARM GAS  G:\Users\Jaxb\AppData\Local\Temp\ccbq8auC.s 			page 104


 4695      44496E69 
 4695      74537472 
 4695      75637400 
 4696              	.LASF64:
 4697 04db 46534D43 		.ascii	"FSMC_NORSRAMInitTypeDef\000"
 4697      5F4E4F52 
 4697      5352414D 
 4697      496E6974 
 4697      54797065 
 4698              	.LASF74:
 4699 04f3 46534D43 		.ascii	"FSMC_TARSetupTime\000"
 4699      5F544152 
 4699      53657475 
 4699      7054696D 
 4699      6500
 4700              	.LASF82:
 4701 0505 746D7073 		.ascii	"tmpsr\000"
 4701      7200
 4702              	.LASF93:
 4703 050b 65636376 		.ascii	"eccval\000"
 4703      616C00
 4704              	.LASF28:
 4705 0512 52455345 		.ascii	"RESERVED0\000"
 4705      52564544 
 4705      3000
 4706              	.LASF14:
 4707 051c 53797374 		.ascii	"SystemCoreClock\000"
 4707      656D436F 
 4707      7265436C 
 4707      6F636B00 
 4708              	.LASF59:
 4709 052c 46534D43 		.ascii	"FSMC_WaitSignal\000"
 4709      5F576169 
 4709      74536967 
 4709      6E616C00 
 4710              	.LASF85:
 4711 053c 46534D43 		.ascii	"FSMC_ClearITPendingBit\000"
 4711      5F436C65 
 4711      61724954 
 4711      50656E64 
 4711      696E6742 
 4712              	.LASF103:
 4713 0553 46534D43 		.ascii	"FSMC_NORSRAMInitStruct\000"
 4713      5F4E4F52 
 4713      5352414D 
 4713      496E6974 
 4713      53747275 
 4714              	.LASF110:
 4715 056a 46534D43 		.ascii	"FSMC_NANDDeInit\000"
 4715      5F4E414E 
 4715      44446549 
 4715      6E697400 
 4716              	.LASF38:
 4717 057a 50415454 		.ascii	"PATT4\000"
 4717      3400
 4718              	.LASF25:
 4719 0580 50435232 		.ascii	"PCR2\000"
ARM GAS  G:\Users\Jaxb\AppData\Local\Temp\ccbq8auC.s 			page 105


 4719      00
 4720              	.LASF50:
 4721 0585 46534D43 		.ascii	"FSMC_DataAddressMux\000"
 4721      5F446174 
 4721      61416464 
 4721      72657373 
 4721      4D757800 
 4722              	.LASF36:
 4723 0599 50435234 		.ascii	"PCR4\000"
 4723      00
 4724              	.LASF97:
 4725 059e 46534D43 		.ascii	"FSMC_NORSRAMCmd\000"
 4725      5F4E4F52 
 4725      5352414D 
 4725      436D6400 
 4726              	.LASF7:
 4727 05ae 6C6F6E67 		.ascii	"long unsigned int\000"
 4727      20756E73 
 4727      69676E65 
 4727      6420696E 
 4727      7400
 4728              	.LASF61:
 4729 05c0 46534D43 		.ascii	"FSMC_WriteBurst\000"
 4729      5F577269 
 4729      74654275 
 4729      72737400 
 4730              	.LASF94:
 4731 05d0 46534D43 		.ascii	"FSMC_NANDECCCmd\000"
 4731      5F4E414E 
 4731      44454343 
 4731      436D6400 
 4732              	.LASF20:
 4733 05e0 46756E63 		.ascii	"FunctionalState\000"
 4733      74696F6E 
 4733      616C5374 
 4733      61746500 
 4734              	.LASF3:
 4735 05f0 73686F72 		.ascii	"short unsigned int\000"
 4735      7420756E 
 4735      7369676E 
 4735      65642069 
 4735      6E7400
 4736              	.LASF63:
 4737 0603 46534D43 		.ascii	"FSMC_WriteTimingStruct\000"
 4737      5F577269 
 4737      74655469 
 4737      6D696E67 
 4737      53747275 
 4738              	.LASF45:
 4739 061a 46534D43 		.ascii	"FSMC_CLKDivision\000"
 4739      5F434C4B 
 4739      44697669 
 4739      73696F6E 
 4739      00
 4740              	.LASF26:
 4741 062b 504D454D 		.ascii	"PMEM2\000"
 4741      3200
ARM GAS  G:\Users\Jaxb\AppData\Local\Temp\ccbq8auC.s 			page 106


 4742              	.LASF32:
 4743 0631 504D454D 		.ascii	"PMEM3\000"
 4743      3300
 4744              	.LASF37:
 4745 0637 504D454D 		.ascii	"PMEM4\000"
 4745      3400
 4746              	.LASF15:
 4747 063d 52455345 		.ascii	"RESET\000"
 4747      5400
 4748              	.LASF27:
 4749 0643 50415454 		.ascii	"PATT2\000"
 4749      3200
 4750              	.LASF33:
 4751 0649 50415454 		.ascii	"PATT3\000"
 4751      3300
 4752              	.LASF75:
 4753 064f 46534D43 		.ascii	"FSMC_CommonSpaceTimingStruct\000"
 4753      5F436F6D 
 4753      6D6F6E53 
 4753      70616365 
 4753      54696D69 
 4754              	.LASF109:
 4755 066c 46534D43 		.ascii	"FSMC_NORSRAMInit\000"
 4755      5F4E4F52 
 4755      5352414D 
 4755      496E6974 
 4755      00
 4756              	.LASF77:
 4757 067d 46534D43 		.ascii	"FSMC_NANDInitTypeDef\000"
 4757      5F4E414E 
 4757      44496E69 
 4757      74547970 
 4757      65446566 
 4758              	.LASF76:
 4759 0692 46534D43 		.ascii	"FSMC_AttributeSpaceTimingStruct\000"
 4759      5F417474 
 4759      72696275 
 4759      74655370 
 4759      61636554 
 4760              	.LASF111:
 4761 06b2 474E5520 		.ascii	"GNU C11 7.3.1 20180622 (release) [ARM/embedded-7-br"
 4761      43313120 
 4761      372E332E 
 4761      31203230 
 4761      31383036 
 4762 06e5 616E6368 		.ascii	"anch revision 261907] -mcpu=cortex-m3 -mthumb -mapc"
 4762      20726576 
 4762      6973696F 
 4762      6E203236 
 4762      31393037 
 4763 0718 732D6672 		.ascii	"s-frame -mthumb-interwork -mcpu=cortex-m3 -mthumb -"
 4763      616D6520 
 4763      2D6D7468 
 4763      756D622D 
 4763      696E7465 
 4764 074b 67647761 		.ascii	"gdwarf-2 -O0\000"
 4764      72662D32 
ARM GAS  G:\Users\Jaxb\AppData\Local\Temp\ccbq8auC.s 			page 107


 4764      202D4F30 
 4764      00
 4765              	.LASF53:
 4766 0758 46534D43 		.ascii	"FSMC_BurstAccessMode\000"
 4766      5F427572 
 4766      73744163 
 4766      63657373 
 4766      4D6F6465 
 4767              	.LASF13:
 4768 076d 49544D5F 		.ascii	"ITM_RxBuffer\000"
 4768      52784275 
 4768      66666572 
 4768      00
 4769              	.LASF29:
 4770 077a 45434352 		.ascii	"ECCR2\000"
 4770      3200
 4771              	.LASF34:
 4772 0780 45434352 		.ascii	"ECCR3\000"
 4772      3300
 4773              	.LASF16:
 4774 0786 466C6167 		.ascii	"FlagStatus\000"
 4774      53746174 
 4774      757300
 4775              	.LASF55:
 4776 0791 46534D43 		.ascii	"FSMC_WaitSignalPolarity\000"
 4776      5F576169 
 4776      74536967 
 4776      6E616C50 
 4776      6F6C6172 
 4777              	.LASF19:
 4778 07a9 454E4142 		.ascii	"ENABLE\000"
 4778      4C4500
 4779              	.LASF83:
 4780 07b0 69747374 		.ascii	"itstatus\000"
 4780      61747573 
 4780      00
 4781              		.ident	"GCC: (GNU Tools for Arm Embedded Processors 7-2018-q2-update) 7.3.1 20180622 (release) [AR
ARM GAS  G:\Users\Jaxb\AppData\Local\Temp\ccbq8auC.s 			page 108


DEFINED SYMBOLS
                            *ABS*:00000000 stm32f10x_fsmc.c
G:\Users\Jaxb\AppData\Local\Temp\ccbq8auC.s:15     .text:00000000 $t
G:\Users\Jaxb\AppData\Local\Temp\ccbq8auC.s:22     .text:00000000 FSMC_NORSRAMDeInit
G:\Users\Jaxb\AppData\Local\Temp\ccbq8auC.s:86     .text:00000054 $d
G:\Users\Jaxb\AppData\Local\Temp\ccbq8auC.s:90     .text:00000058 $t
G:\Users\Jaxb\AppData\Local\Temp\ccbq8auC.s:97     .text:00000058 FSMC_NANDDeInit
G:\Users\Jaxb\AppData\Local\Temp\ccbq8auC.s:172    .text:000000ac $d
G:\Users\Jaxb\AppData\Local\Temp\ccbq8auC.s:177    .text:000000b4 $t
G:\Users\Jaxb\AppData\Local\Temp\ccbq8auC.s:184    .text:000000b4 FSMC_PCCARDDeInit
G:\Users\Jaxb\AppData\Local\Temp\ccbq8auC.s:232    .text:000000e4 $d
G:\Users\Jaxb\AppData\Local\Temp\ccbq8auC.s:236    .text:000000e8 $t
G:\Users\Jaxb\AppData\Local\Temp\ccbq8auC.s:243    .text:000000e8 FSMC_NORSRAMInit
G:\Users\Jaxb\AppData\Local\Temp\ccbq8auC.s:469    .text:00000220 $d
G:\Users\Jaxb\AppData\Local\Temp\ccbq8auC.s:473    .text:00000224 $t
G:\Users\Jaxb\AppData\Local\Temp\ccbq8auC.s:480    .text:00000224 FSMC_NANDInit
G:\Users\Jaxb\AppData\Local\Temp\ccbq8auC.s:640    .text:000002e8 $d
G:\Users\Jaxb\AppData\Local\Temp\ccbq8auC.s:645    .text:000002f0 $t
G:\Users\Jaxb\AppData\Local\Temp\ccbq8auC.s:652    .text:000002f0 FSMC_PCCARDInit
G:\Users\Jaxb\AppData\Local\Temp\ccbq8auC.s:795    .text:00000398 $d
G:\Users\Jaxb\AppData\Local\Temp\ccbq8auC.s:799    .text:0000039c $t
G:\Users\Jaxb\AppData\Local\Temp\ccbq8auC.s:806    .text:0000039c FSMC_NORSRAMStructInit
G:\Users\Jaxb\AppData\Local\Temp\ccbq8auC.s:970    .text:00000470 FSMC_NANDStructInit
G:\Users\Jaxb\AppData\Local\Temp\ccbq8auC.s:1080   .text:000004ec FSMC_PCCARDStructInit
G:\Users\Jaxb\AppData\Local\Temp\ccbq8auC.s:1194   .text:00000570 FSMC_NORSRAMCmd
G:\Users\Jaxb\AppData\Local\Temp\ccbq8auC.s:1256   .text:000005c0 $d
G:\Users\Jaxb\AppData\Local\Temp\ccbq8auC.s:1260   .text:000005c4 $t
G:\Users\Jaxb\AppData\Local\Temp\ccbq8auC.s:1267   .text:000005c4 FSMC_NANDCmd
G:\Users\Jaxb\AppData\Local\Temp\ccbq8auC.s:1352   .text:00000624 $d
G:\Users\Jaxb\AppData\Local\Temp\ccbq8auC.s:1358   .text:00000630 $t
G:\Users\Jaxb\AppData\Local\Temp\ccbq8auC.s:1365   .text:00000630 FSMC_PCCARDCmd
G:\Users\Jaxb\AppData\Local\Temp\ccbq8auC.s:1422   .text:00000664 $d
G:\Users\Jaxb\AppData\Local\Temp\ccbq8auC.s:1427   .text:0000066c $t
G:\Users\Jaxb\AppData\Local\Temp\ccbq8auC.s:1434   .text:0000066c FSMC_NANDECCCmd
G:\Users\Jaxb\AppData\Local\Temp\ccbq8auC.s:1519   .text:000006cc $d
G:\Users\Jaxb\AppData\Local\Temp\ccbq8auC.s:1525   .text:000006d8 $t
G:\Users\Jaxb\AppData\Local\Temp\ccbq8auC.s:1532   .text:000006d8 FSMC_GetECC
G:\Users\Jaxb\AppData\Local\Temp\ccbq8auC.s:1587   .text:00000704 $d
G:\Users\Jaxb\AppData\Local\Temp\ccbq8auC.s:1592   .text:0000070c $t
G:\Users\Jaxb\AppData\Local\Temp\ccbq8auC.s:1599   .text:0000070c FSMC_ITConfig
G:\Users\Jaxb\AppData\Local\Temp\ccbq8auC.s:1718   .text:000007a0 $d
G:\Users\Jaxb\AppData\Local\Temp\ccbq8auC.s:1724   .text:000007ac $t
G:\Users\Jaxb\AppData\Local\Temp\ccbq8auC.s:1731   .text:000007ac FSMC_GetFlagStatus
G:\Users\Jaxb\AppData\Local\Temp\ccbq8auC.s:1815   .text:00000804 $d
G:\Users\Jaxb\AppData\Local\Temp\ccbq8auC.s:1821   .text:00000810 $t
G:\Users\Jaxb\AppData\Local\Temp\ccbq8auC.s:1828   .text:00000810 FSMC_ClearFlag
G:\Users\Jaxb\AppData\Local\Temp\ccbq8auC.s:1903   .text:00000860 $d
G:\Users\Jaxb\AppData\Local\Temp\ccbq8auC.s:1909   .text:0000086c $t
G:\Users\Jaxb\AppData\Local\Temp\ccbq8auC.s:1916   .text:0000086c FSMC_GetITStatus
G:\Users\Jaxb\AppData\Local\Temp\ccbq8auC.s:2017   .text:000008e0 $d
G:\Users\Jaxb\AppData\Local\Temp\ccbq8auC.s:2023   .text:000008ec $t
G:\Users\Jaxb\AppData\Local\Temp\ccbq8auC.s:2030   .text:000008ec FSMC_ClearITPendingBit
G:\Users\Jaxb\AppData\Local\Temp\ccbq8auC.s:2108   .text:00000944 $d

NO UNDEFINED SYMBOLS
