ARM GAS  G:\Users\Jaxb\AppData\Local\Temp\ccclxmrG.s 			page 1


   1              		.cpu cortex-m3
   2              		.eabi_attribute 20, 1
   3              		.eabi_attribute 21, 1
   4              		.eabi_attribute 23, 3
   5              		.eabi_attribute 24, 1
   6              		.eabi_attribute 25, 1
   7              		.eabi_attribute 26, 1
   8              		.eabi_attribute 30, 2
   9              		.eabi_attribute 34, 1
  10              		.eabi_attribute 18, 4
  11              		.file	"stm32f10x_adc.c"
  12              		.text
  13              	.Ltext0:
  14              		.cfi_sections	.debug_frame
  15              		.align	1
  16              		.p2align 2,,3
  17              		.global	ADC_DeInit
  18              		.syntax unified
  19              		.thumb
  20              		.thumb_func
  21              		.fpu softvfp
  22              		.type	ADC_DeInit, %function
  23              	ADC_DeInit:
  24              	.LFB29:
  25              		.file 1 "../../source/src/FWlib/src/stm32f10x_adc.c"
   1:../../source/src/FWlib/src/stm32f10x_adc.c **** /**
   2:../../source/src/FWlib/src/stm32f10x_adc.c ****   ******************************************************************************
   3:../../source/src/FWlib/src/stm32f10x_adc.c ****   * @file    stm32f10x_adc.c
   4:../../source/src/FWlib/src/stm32f10x_adc.c ****   * @author  MCD Application Team
   5:../../source/src/FWlib/src/stm32f10x_adc.c ****   * @version V3.5.0
   6:../../source/src/FWlib/src/stm32f10x_adc.c ****   * @date    11-March-2011
   7:../../source/src/FWlib/src/stm32f10x_adc.c ****   * @brief   This file provides all the ADC firmware functions.
   8:../../source/src/FWlib/src/stm32f10x_adc.c ****   ******************************************************************************
   9:../../source/src/FWlib/src/stm32f10x_adc.c ****   * @attention
  10:../../source/src/FWlib/src/stm32f10x_adc.c ****   *
  11:../../source/src/FWlib/src/stm32f10x_adc.c ****   * THE PRESENT FIRMWARE WHICH IS FOR GUIDANCE ONLY AIMS AT PROVIDING CUSTOMERS
  12:../../source/src/FWlib/src/stm32f10x_adc.c ****   * WITH CODING INFORMATION REGARDING THEIR PRODUCTS IN ORDER FOR THEM TO SAVE
  13:../../source/src/FWlib/src/stm32f10x_adc.c ****   * TIME. AS A RESULT, STMICROELECTRONICS SHALL NOT BE HELD LIABLE FOR ANY
  14:../../source/src/FWlib/src/stm32f10x_adc.c ****   * DIRECT, INDIRECT OR CONSEQUENTIAL DAMAGES WITH RESPECT TO ANY CLAIMS ARISING
  15:../../source/src/FWlib/src/stm32f10x_adc.c ****   * FROM THE CONTENT OF SUCH FIRMWARE AND/OR THE USE MADE BY CUSTOMERS OF THE
  16:../../source/src/FWlib/src/stm32f10x_adc.c ****   * CODING INFORMATION CONTAINED HEREIN IN CONNECTION WITH THEIR PRODUCTS.
  17:../../source/src/FWlib/src/stm32f10x_adc.c ****   *
  18:../../source/src/FWlib/src/stm32f10x_adc.c ****   * <h2><center>&copy; COPYRIGHT 2011 STMicroelectronics</center></h2>
  19:../../source/src/FWlib/src/stm32f10x_adc.c ****   ******************************************************************************
  20:../../source/src/FWlib/src/stm32f10x_adc.c ****   */
  21:../../source/src/FWlib/src/stm32f10x_adc.c **** 
  22:../../source/src/FWlib/src/stm32f10x_adc.c **** /* Includes ------------------------------------------------------------------*/
  23:../../source/src/FWlib/src/stm32f10x_adc.c **** #include "stm32f10x_adc.h"
  24:../../source/src/FWlib/src/stm32f10x_adc.c **** #include "stm32f10x_rcc.h"
  25:../../source/src/FWlib/src/stm32f10x_adc.c **** 
  26:../../source/src/FWlib/src/stm32f10x_adc.c **** /** @addtogroup STM32F10x_StdPeriph_Driver
  27:../../source/src/FWlib/src/stm32f10x_adc.c ****   * @{
  28:../../source/src/FWlib/src/stm32f10x_adc.c ****   */
  29:../../source/src/FWlib/src/stm32f10x_adc.c **** 
  30:../../source/src/FWlib/src/stm32f10x_adc.c **** /** @defgroup ADC 
  31:../../source/src/FWlib/src/stm32f10x_adc.c ****   * @brief ADC driver modules
  32:../../source/src/FWlib/src/stm32f10x_adc.c ****   * @{
ARM GAS  G:\Users\Jaxb\AppData\Local\Temp\ccclxmrG.s 			page 2


  33:../../source/src/FWlib/src/stm32f10x_adc.c ****   */
  34:../../source/src/FWlib/src/stm32f10x_adc.c **** 
  35:../../source/src/FWlib/src/stm32f10x_adc.c **** /** @defgroup ADC_Private_TypesDefinitions
  36:../../source/src/FWlib/src/stm32f10x_adc.c ****   * @{
  37:../../source/src/FWlib/src/stm32f10x_adc.c ****   */
  38:../../source/src/FWlib/src/stm32f10x_adc.c **** 
  39:../../source/src/FWlib/src/stm32f10x_adc.c **** /**
  40:../../source/src/FWlib/src/stm32f10x_adc.c ****   * @}
  41:../../source/src/FWlib/src/stm32f10x_adc.c ****   */
  42:../../source/src/FWlib/src/stm32f10x_adc.c **** 
  43:../../source/src/FWlib/src/stm32f10x_adc.c **** /** @defgroup ADC_Private_Defines
  44:../../source/src/FWlib/src/stm32f10x_adc.c ****   * @{
  45:../../source/src/FWlib/src/stm32f10x_adc.c ****   */
  46:../../source/src/FWlib/src/stm32f10x_adc.c **** 
  47:../../source/src/FWlib/src/stm32f10x_adc.c **** /* ADC DISCNUM mask */
  48:../../source/src/FWlib/src/stm32f10x_adc.c **** #define CR1_DISCNUM_Reset           ((uint32_t)0xFFFF1FFF)
  49:../../source/src/FWlib/src/stm32f10x_adc.c **** 
  50:../../source/src/FWlib/src/stm32f10x_adc.c **** /* ADC DISCEN mask */
  51:../../source/src/FWlib/src/stm32f10x_adc.c **** #define CR1_DISCEN_Set              ((uint32_t)0x00000800)
  52:../../source/src/FWlib/src/stm32f10x_adc.c **** #define CR1_DISCEN_Reset            ((uint32_t)0xFFFFF7FF)
  53:../../source/src/FWlib/src/stm32f10x_adc.c **** 
  54:../../source/src/FWlib/src/stm32f10x_adc.c **** /* ADC JAUTO mask */
  55:../../source/src/FWlib/src/stm32f10x_adc.c **** #define CR1_JAUTO_Set               ((uint32_t)0x00000400)
  56:../../source/src/FWlib/src/stm32f10x_adc.c **** #define CR1_JAUTO_Reset             ((uint32_t)0xFFFFFBFF)
  57:../../source/src/FWlib/src/stm32f10x_adc.c **** 
  58:../../source/src/FWlib/src/stm32f10x_adc.c **** /* ADC JDISCEN mask */
  59:../../source/src/FWlib/src/stm32f10x_adc.c **** #define CR1_JDISCEN_Set             ((uint32_t)0x00001000)
  60:../../source/src/FWlib/src/stm32f10x_adc.c **** #define CR1_JDISCEN_Reset           ((uint32_t)0xFFFFEFFF)
  61:../../source/src/FWlib/src/stm32f10x_adc.c **** 
  62:../../source/src/FWlib/src/stm32f10x_adc.c **** /* ADC AWDCH mask */
  63:../../source/src/FWlib/src/stm32f10x_adc.c **** #define CR1_AWDCH_Reset             ((uint32_t)0xFFFFFFE0)
  64:../../source/src/FWlib/src/stm32f10x_adc.c **** 
  65:../../source/src/FWlib/src/stm32f10x_adc.c **** /* ADC Analog watchdog enable mode mask */
  66:../../source/src/FWlib/src/stm32f10x_adc.c **** #define CR1_AWDMode_Reset           ((uint32_t)0xFF3FFDFF)
  67:../../source/src/FWlib/src/stm32f10x_adc.c **** 
  68:../../source/src/FWlib/src/stm32f10x_adc.c **** /* CR1 register Mask */
  69:../../source/src/FWlib/src/stm32f10x_adc.c **** #define CR1_CLEAR_Mask              ((uint32_t)0xFFF0FEFF)
  70:../../source/src/FWlib/src/stm32f10x_adc.c **** 
  71:../../source/src/FWlib/src/stm32f10x_adc.c **** /* ADC ADON mask */
  72:../../source/src/FWlib/src/stm32f10x_adc.c **** #define CR2_ADON_Set                ((uint32_t)0x00000001)
  73:../../source/src/FWlib/src/stm32f10x_adc.c **** #define CR2_ADON_Reset              ((uint32_t)0xFFFFFFFE)
  74:../../source/src/FWlib/src/stm32f10x_adc.c **** 
  75:../../source/src/FWlib/src/stm32f10x_adc.c **** /* ADC DMA mask */
  76:../../source/src/FWlib/src/stm32f10x_adc.c **** #define CR2_DMA_Set                 ((uint32_t)0x00000100)
  77:../../source/src/FWlib/src/stm32f10x_adc.c **** #define CR2_DMA_Reset               ((uint32_t)0xFFFFFEFF)
  78:../../source/src/FWlib/src/stm32f10x_adc.c **** 
  79:../../source/src/FWlib/src/stm32f10x_adc.c **** /* ADC RSTCAL mask */
  80:../../source/src/FWlib/src/stm32f10x_adc.c **** #define CR2_RSTCAL_Set              ((uint32_t)0x00000008)
  81:../../source/src/FWlib/src/stm32f10x_adc.c **** 
  82:../../source/src/FWlib/src/stm32f10x_adc.c **** /* ADC CAL mask */
  83:../../source/src/FWlib/src/stm32f10x_adc.c **** #define CR2_CAL_Set                 ((uint32_t)0x00000004)
  84:../../source/src/FWlib/src/stm32f10x_adc.c **** 
  85:../../source/src/FWlib/src/stm32f10x_adc.c **** /* ADC SWSTART mask */
  86:../../source/src/FWlib/src/stm32f10x_adc.c **** #define CR2_SWSTART_Set             ((uint32_t)0x00400000)
  87:../../source/src/FWlib/src/stm32f10x_adc.c **** 
  88:../../source/src/FWlib/src/stm32f10x_adc.c **** /* ADC EXTTRIG mask */
  89:../../source/src/FWlib/src/stm32f10x_adc.c **** #define CR2_EXTTRIG_Set             ((uint32_t)0x00100000)
ARM GAS  G:\Users\Jaxb\AppData\Local\Temp\ccclxmrG.s 			page 3


  90:../../source/src/FWlib/src/stm32f10x_adc.c **** #define CR2_EXTTRIG_Reset           ((uint32_t)0xFFEFFFFF)
  91:../../source/src/FWlib/src/stm32f10x_adc.c **** 
  92:../../source/src/FWlib/src/stm32f10x_adc.c **** /* ADC Software start mask */
  93:../../source/src/FWlib/src/stm32f10x_adc.c **** #define CR2_EXTTRIG_SWSTART_Set     ((uint32_t)0x00500000)
  94:../../source/src/FWlib/src/stm32f10x_adc.c **** #define CR2_EXTTRIG_SWSTART_Reset   ((uint32_t)0xFFAFFFFF)
  95:../../source/src/FWlib/src/stm32f10x_adc.c **** 
  96:../../source/src/FWlib/src/stm32f10x_adc.c **** /* ADC JEXTSEL mask */
  97:../../source/src/FWlib/src/stm32f10x_adc.c **** #define CR2_JEXTSEL_Reset           ((uint32_t)0xFFFF8FFF)
  98:../../source/src/FWlib/src/stm32f10x_adc.c **** 
  99:../../source/src/FWlib/src/stm32f10x_adc.c **** /* ADC JEXTTRIG mask */
 100:../../source/src/FWlib/src/stm32f10x_adc.c **** #define CR2_JEXTTRIG_Set            ((uint32_t)0x00008000)
 101:../../source/src/FWlib/src/stm32f10x_adc.c **** #define CR2_JEXTTRIG_Reset          ((uint32_t)0xFFFF7FFF)
 102:../../source/src/FWlib/src/stm32f10x_adc.c **** 
 103:../../source/src/FWlib/src/stm32f10x_adc.c **** /* ADC JSWSTART mask */
 104:../../source/src/FWlib/src/stm32f10x_adc.c **** #define CR2_JSWSTART_Set            ((uint32_t)0x00200000)
 105:../../source/src/FWlib/src/stm32f10x_adc.c **** 
 106:../../source/src/FWlib/src/stm32f10x_adc.c **** /* ADC injected software start mask */
 107:../../source/src/FWlib/src/stm32f10x_adc.c **** #define CR2_JEXTTRIG_JSWSTART_Set   ((uint32_t)0x00208000)
 108:../../source/src/FWlib/src/stm32f10x_adc.c **** #define CR2_JEXTTRIG_JSWSTART_Reset ((uint32_t)0xFFDF7FFF)
 109:../../source/src/FWlib/src/stm32f10x_adc.c **** 
 110:../../source/src/FWlib/src/stm32f10x_adc.c **** /* ADC TSPD mask */
 111:../../source/src/FWlib/src/stm32f10x_adc.c **** #define CR2_TSVREFE_Set             ((uint32_t)0x00800000)
 112:../../source/src/FWlib/src/stm32f10x_adc.c **** #define CR2_TSVREFE_Reset           ((uint32_t)0xFF7FFFFF)
 113:../../source/src/FWlib/src/stm32f10x_adc.c **** 
 114:../../source/src/FWlib/src/stm32f10x_adc.c **** /* CR2 register Mask */
 115:../../source/src/FWlib/src/stm32f10x_adc.c **** #define CR2_CLEAR_Mask              ((uint32_t)0xFFF1F7FD)
 116:../../source/src/FWlib/src/stm32f10x_adc.c **** 
 117:../../source/src/FWlib/src/stm32f10x_adc.c **** /* ADC SQx mask */
 118:../../source/src/FWlib/src/stm32f10x_adc.c **** #define SQR3_SQ_Set                 ((uint32_t)0x0000001F)
 119:../../source/src/FWlib/src/stm32f10x_adc.c **** #define SQR2_SQ_Set                 ((uint32_t)0x0000001F)
 120:../../source/src/FWlib/src/stm32f10x_adc.c **** #define SQR1_SQ_Set                 ((uint32_t)0x0000001F)
 121:../../source/src/FWlib/src/stm32f10x_adc.c **** 
 122:../../source/src/FWlib/src/stm32f10x_adc.c **** /* SQR1 register Mask */
 123:../../source/src/FWlib/src/stm32f10x_adc.c **** #define SQR1_CLEAR_Mask             ((uint32_t)0xFF0FFFFF)
 124:../../source/src/FWlib/src/stm32f10x_adc.c **** 
 125:../../source/src/FWlib/src/stm32f10x_adc.c **** /* ADC JSQx mask */
 126:../../source/src/FWlib/src/stm32f10x_adc.c **** #define JSQR_JSQ_Set                ((uint32_t)0x0000001F)
 127:../../source/src/FWlib/src/stm32f10x_adc.c **** 
 128:../../source/src/FWlib/src/stm32f10x_adc.c **** /* ADC JL mask */
 129:../../source/src/FWlib/src/stm32f10x_adc.c **** #define JSQR_JL_Set                 ((uint32_t)0x00300000)
 130:../../source/src/FWlib/src/stm32f10x_adc.c **** #define JSQR_JL_Reset               ((uint32_t)0xFFCFFFFF)
 131:../../source/src/FWlib/src/stm32f10x_adc.c **** 
 132:../../source/src/FWlib/src/stm32f10x_adc.c **** /* ADC SMPx mask */
 133:../../source/src/FWlib/src/stm32f10x_adc.c **** #define SMPR1_SMP_Set               ((uint32_t)0x00000007)
 134:../../source/src/FWlib/src/stm32f10x_adc.c **** #define SMPR2_SMP_Set               ((uint32_t)0x00000007)
 135:../../source/src/FWlib/src/stm32f10x_adc.c **** 
 136:../../source/src/FWlib/src/stm32f10x_adc.c **** /* ADC JDRx registers offset */
 137:../../source/src/FWlib/src/stm32f10x_adc.c **** #define JDR_Offset                  ((uint8_t)0x28)
 138:../../source/src/FWlib/src/stm32f10x_adc.c **** 
 139:../../source/src/FWlib/src/stm32f10x_adc.c **** /* ADC1 DR register base address */
 140:../../source/src/FWlib/src/stm32f10x_adc.c **** #define DR_ADDRESS                  ((uint32_t)0x4001244C)
 141:../../source/src/FWlib/src/stm32f10x_adc.c **** 
 142:../../source/src/FWlib/src/stm32f10x_adc.c **** /**
 143:../../source/src/FWlib/src/stm32f10x_adc.c ****   * @}
 144:../../source/src/FWlib/src/stm32f10x_adc.c ****   */
 145:../../source/src/FWlib/src/stm32f10x_adc.c **** 
 146:../../source/src/FWlib/src/stm32f10x_adc.c **** /** @defgroup ADC_Private_Macros
ARM GAS  G:\Users\Jaxb\AppData\Local\Temp\ccclxmrG.s 			page 4


 147:../../source/src/FWlib/src/stm32f10x_adc.c ****   * @{
 148:../../source/src/FWlib/src/stm32f10x_adc.c ****   */
 149:../../source/src/FWlib/src/stm32f10x_adc.c **** 
 150:../../source/src/FWlib/src/stm32f10x_adc.c **** /**
 151:../../source/src/FWlib/src/stm32f10x_adc.c ****   * @}
 152:../../source/src/FWlib/src/stm32f10x_adc.c ****   */
 153:../../source/src/FWlib/src/stm32f10x_adc.c **** 
 154:../../source/src/FWlib/src/stm32f10x_adc.c **** /** @defgroup ADC_Private_Variables
 155:../../source/src/FWlib/src/stm32f10x_adc.c ****   * @{
 156:../../source/src/FWlib/src/stm32f10x_adc.c ****   */
 157:../../source/src/FWlib/src/stm32f10x_adc.c **** 
 158:../../source/src/FWlib/src/stm32f10x_adc.c **** /**
 159:../../source/src/FWlib/src/stm32f10x_adc.c ****   * @}
 160:../../source/src/FWlib/src/stm32f10x_adc.c ****   */
 161:../../source/src/FWlib/src/stm32f10x_adc.c **** 
 162:../../source/src/FWlib/src/stm32f10x_adc.c **** /** @defgroup ADC_Private_FunctionPrototypes
 163:../../source/src/FWlib/src/stm32f10x_adc.c ****   * @{
 164:../../source/src/FWlib/src/stm32f10x_adc.c ****   */
 165:../../source/src/FWlib/src/stm32f10x_adc.c **** 
 166:../../source/src/FWlib/src/stm32f10x_adc.c **** /**
 167:../../source/src/FWlib/src/stm32f10x_adc.c ****   * @}
 168:../../source/src/FWlib/src/stm32f10x_adc.c ****   */
 169:../../source/src/FWlib/src/stm32f10x_adc.c **** 
 170:../../source/src/FWlib/src/stm32f10x_adc.c **** /** @defgroup ADC_Private_Functions
 171:../../source/src/FWlib/src/stm32f10x_adc.c ****   * @{
 172:../../source/src/FWlib/src/stm32f10x_adc.c ****   */
 173:../../source/src/FWlib/src/stm32f10x_adc.c **** 
 174:../../source/src/FWlib/src/stm32f10x_adc.c **** /**
 175:../../source/src/FWlib/src/stm32f10x_adc.c ****   * @brief  Deinitializes the ADCx peripheral registers to their default reset values.
 176:../../source/src/FWlib/src/stm32f10x_adc.c ****   * @param  ADCx: where x can be 1, 2 or 3 to select the ADC peripheral.
 177:../../source/src/FWlib/src/stm32f10x_adc.c ****   * @retval None
 178:../../source/src/FWlib/src/stm32f10x_adc.c ****   */
 179:../../source/src/FWlib/src/stm32f10x_adc.c **** void ADC_DeInit(ADC_TypeDef* ADCx)
 180:../../source/src/FWlib/src/stm32f10x_adc.c **** {
  26              		.loc 1 180 0
  27              		.cfi_startproc
  28              		@ args = 0, pretend = 0, frame = 0
  29              		@ frame_needed = 0, uses_anonymous_args = 0
  30              	.LVL0:
  31 0000 08B5     		push	{r3, lr}
  32              	.LCFI0:
  33              		.cfi_def_cfa_offset 8
  34              		.cfi_offset 3, -8
  35              		.cfi_offset 14, -4
 181:../../source/src/FWlib/src/stm32f10x_adc.c ****   /* Check the parameters */
 182:../../source/src/FWlib/src/stm32f10x_adc.c ****   assert_param(IS_ADC_ALL_PERIPH(ADCx));
 183:../../source/src/FWlib/src/stm32f10x_adc.c ****   
 184:../../source/src/FWlib/src/stm32f10x_adc.c ****   if (ADCx == ADC1)
  36              		.loc 1 184 0
  37 0002 174B     		ldr	r3, .L9
  38 0004 9842     		cmp	r0, r3
  39 0006 06D0     		beq	.L6
 185:../../source/src/FWlib/src/stm32f10x_adc.c ****   {
 186:../../source/src/FWlib/src/stm32f10x_adc.c ****     /* Enable ADC1 reset state */
 187:../../source/src/FWlib/src/stm32f10x_adc.c ****     RCC_APB2PeriphResetCmd(RCC_APB2Periph_ADC1, ENABLE);
 188:../../source/src/FWlib/src/stm32f10x_adc.c ****     /* Release ADC1 from reset state */
 189:../../source/src/FWlib/src/stm32f10x_adc.c ****     RCC_APB2PeriphResetCmd(RCC_APB2Periph_ADC1, DISABLE);
ARM GAS  G:\Users\Jaxb\AppData\Local\Temp\ccclxmrG.s 			page 5


 190:../../source/src/FWlib/src/stm32f10x_adc.c ****   }
 191:../../source/src/FWlib/src/stm32f10x_adc.c ****   else if (ADCx == ADC2)
  40              		.loc 1 191 0
  41 0008 164B     		ldr	r3, .L9+4
  42 000a 9842     		cmp	r0, r3
  43 000c 1BD0     		beq	.L7
 192:../../source/src/FWlib/src/stm32f10x_adc.c ****   {
 193:../../source/src/FWlib/src/stm32f10x_adc.c ****     /* Enable ADC2 reset state */
 194:../../source/src/FWlib/src/stm32f10x_adc.c ****     RCC_APB2PeriphResetCmd(RCC_APB2Periph_ADC2, ENABLE);
 195:../../source/src/FWlib/src/stm32f10x_adc.c ****     /* Release ADC2 from reset state */
 196:../../source/src/FWlib/src/stm32f10x_adc.c ****     RCC_APB2PeriphResetCmd(RCC_APB2Periph_ADC2, DISABLE);
 197:../../source/src/FWlib/src/stm32f10x_adc.c ****   }
 198:../../source/src/FWlib/src/stm32f10x_adc.c ****   else
 199:../../source/src/FWlib/src/stm32f10x_adc.c ****   {
 200:../../source/src/FWlib/src/stm32f10x_adc.c ****     if (ADCx == ADC3)
  44              		.loc 1 200 0
  45 000e 164B     		ldr	r3, .L9+8
  46 0010 9842     		cmp	r0, r3
  47 0012 0CD0     		beq	.L8
 201:../../source/src/FWlib/src/stm32f10x_adc.c ****     {
 202:../../source/src/FWlib/src/stm32f10x_adc.c ****       /* Enable ADC3 reset state */
 203:../../source/src/FWlib/src/stm32f10x_adc.c ****       RCC_APB2PeriphResetCmd(RCC_APB2Periph_ADC3, ENABLE);
 204:../../source/src/FWlib/src/stm32f10x_adc.c ****       /* Release ADC3 from reset state */
 205:../../source/src/FWlib/src/stm32f10x_adc.c ****       RCC_APB2PeriphResetCmd(RCC_APB2Periph_ADC3, DISABLE);
 206:../../source/src/FWlib/src/stm32f10x_adc.c ****     }
 207:../../source/src/FWlib/src/stm32f10x_adc.c ****   }
 208:../../source/src/FWlib/src/stm32f10x_adc.c **** }
  48              		.loc 1 208 0
  49 0014 08BD     		pop	{r3, pc}
  50              	.L6:
 187:../../source/src/FWlib/src/stm32f10x_adc.c ****     /* Release ADC1 from reset state */
  51              		.loc 1 187 0
  52 0016 0121     		movs	r1, #1
  53 0018 4FF40070 		mov	r0, #512
  54              	.LVL1:
  55 001c FFF7FEFF 		bl	RCC_APB2PeriphResetCmd
  56              	.LVL2:
  57              		.loc 1 208 0
  58 0020 BDE80840 		pop	{r3, lr}
  59              	.LCFI1:
  60              		.cfi_remember_state
  61              		.cfi_restore 14
  62              		.cfi_restore 3
  63              		.cfi_def_cfa_offset 0
 189:../../source/src/FWlib/src/stm32f10x_adc.c ****   }
  64              		.loc 1 189 0
  65 0024 0021     		movs	r1, #0
  66 0026 4FF40070 		mov	r0, #512
  67 002a FFF7FEBF 		b	RCC_APB2PeriphResetCmd
  68              	.LVL3:
  69              	.L8:
  70              	.LCFI2:
  71              		.cfi_restore_state
 203:../../source/src/FWlib/src/stm32f10x_adc.c ****       /* Release ADC3 from reset state */
  72              		.loc 1 203 0
  73 002e 0121     		movs	r1, #1
  74 0030 4FF40040 		mov	r0, #32768
ARM GAS  G:\Users\Jaxb\AppData\Local\Temp\ccclxmrG.s 			page 6


  75              	.LVL4:
  76 0034 FFF7FEFF 		bl	RCC_APB2PeriphResetCmd
  77              	.LVL5:
  78              		.loc 1 208 0
  79 0038 BDE80840 		pop	{r3, lr}
  80              	.LCFI3:
  81              		.cfi_remember_state
  82              		.cfi_restore 14
  83              		.cfi_restore 3
  84              		.cfi_def_cfa_offset 0
 205:../../source/src/FWlib/src/stm32f10x_adc.c ****     }
  85              		.loc 1 205 0
  86 003c 0021     		movs	r1, #0
  87 003e 4FF40040 		mov	r0, #32768
  88 0042 FFF7FEBF 		b	RCC_APB2PeriphResetCmd
  89              	.LVL6:
  90              	.L7:
  91              	.LCFI4:
  92              		.cfi_restore_state
 194:../../source/src/FWlib/src/stm32f10x_adc.c ****     /* Release ADC2 from reset state */
  93              		.loc 1 194 0
  94 0046 0121     		movs	r1, #1
  95 0048 4FF48060 		mov	r0, #1024
  96              	.LVL7:
  97 004c FFF7FEFF 		bl	RCC_APB2PeriphResetCmd
  98              	.LVL8:
  99              		.loc 1 208 0
 100 0050 BDE80840 		pop	{r3, lr}
 101              	.LCFI5:
 102              		.cfi_restore 14
 103              		.cfi_restore 3
 104              		.cfi_def_cfa_offset 0
 196:../../source/src/FWlib/src/stm32f10x_adc.c ****   }
 105              		.loc 1 196 0
 106 0054 0021     		movs	r1, #0
 107 0056 4FF48060 		mov	r0, #1024
 108 005a FFF7FEBF 		b	RCC_APB2PeriphResetCmd
 109              	.LVL9:
 110              	.L10:
 111 005e 00BF     		.align	2
 112              	.L9:
 113 0060 00240140 		.word	1073816576
 114 0064 00280140 		.word	1073817600
 115 0068 003C0140 		.word	1073822720
 116              		.cfi_endproc
 117              	.LFE29:
 118              		.size	ADC_DeInit, .-ADC_DeInit
 119              		.align	1
 120              		.p2align 2,,3
 121              		.global	ADC_Init
 122              		.syntax unified
 123              		.thumb
 124              		.thumb_func
 125              		.fpu softvfp
 126              		.type	ADC_Init, %function
 127              	ADC_Init:
 128              	.LFB30:
ARM GAS  G:\Users\Jaxb\AppData\Local\Temp\ccclxmrG.s 			page 7


 209:../../source/src/FWlib/src/stm32f10x_adc.c **** 
 210:../../source/src/FWlib/src/stm32f10x_adc.c **** /**
 211:../../source/src/FWlib/src/stm32f10x_adc.c ****   * @brief  Initializes the ADCx peripheral according to the specified parameters
 212:../../source/src/FWlib/src/stm32f10x_adc.c ****   *         in the ADC_InitStruct.
 213:../../source/src/FWlib/src/stm32f10x_adc.c ****   * @param  ADCx: where x can be 1, 2 or 3 to select the ADC peripheral.
 214:../../source/src/FWlib/src/stm32f10x_adc.c ****   * @param  ADC_InitStruct: pointer to an ADC_InitTypeDef structure that contains
 215:../../source/src/FWlib/src/stm32f10x_adc.c ****   *         the configuration information for the specified ADC peripheral.
 216:../../source/src/FWlib/src/stm32f10x_adc.c ****   * @retval None
 217:../../source/src/FWlib/src/stm32f10x_adc.c ****   */
 218:../../source/src/FWlib/src/stm32f10x_adc.c **** void ADC_Init(ADC_TypeDef* ADCx, ADC_InitTypeDef* ADC_InitStruct)
 219:../../source/src/FWlib/src/stm32f10x_adc.c **** {
 129              		.loc 1 219 0
 130              		.cfi_startproc
 131              		@ args = 0, pretend = 0, frame = 0
 132              		@ frame_needed = 0, uses_anonymous_args = 0
 133              		@ link register save eliminated.
 134              	.LVL10:
 220:../../source/src/FWlib/src/stm32f10x_adc.c ****   uint32_t tmpreg1 = 0;
 221:../../source/src/FWlib/src/stm32f10x_adc.c ****   uint8_t tmpreg2 = 0;
 222:../../source/src/FWlib/src/stm32f10x_adc.c ****   /* Check the parameters */
 223:../../source/src/FWlib/src/stm32f10x_adc.c ****   assert_param(IS_ADC_ALL_PERIPH(ADCx));
 224:../../source/src/FWlib/src/stm32f10x_adc.c ****   assert_param(IS_ADC_MODE(ADC_InitStruct->ADC_Mode));
 225:../../source/src/FWlib/src/stm32f10x_adc.c ****   assert_param(IS_FUNCTIONAL_STATE(ADC_InitStruct->ADC_ScanConvMode));
 226:../../source/src/FWlib/src/stm32f10x_adc.c ****   assert_param(IS_FUNCTIONAL_STATE(ADC_InitStruct->ADC_ContinuousConvMode));
 227:../../source/src/FWlib/src/stm32f10x_adc.c ****   assert_param(IS_ADC_EXT_TRIG(ADC_InitStruct->ADC_ExternalTrigConv));   
 228:../../source/src/FWlib/src/stm32f10x_adc.c ****   assert_param(IS_ADC_DATA_ALIGN(ADC_InitStruct->ADC_DataAlign)); 
 229:../../source/src/FWlib/src/stm32f10x_adc.c ****   assert_param(IS_ADC_REGULAR_LENGTH(ADC_InitStruct->ADC_NbrOfChannel));
 230:../../source/src/FWlib/src/stm32f10x_adc.c **** 
 231:../../source/src/FWlib/src/stm32f10x_adc.c ****   /*---------------------------- ADCx CR1 Configuration -----------------*/
 232:../../source/src/FWlib/src/stm32f10x_adc.c ****   /* Get the ADCx CR1 value */
 233:../../source/src/FWlib/src/stm32f10x_adc.c ****   tmpreg1 = ADCx->CR1;
 135              		.loc 1 233 0
 136 006c 4368     		ldr	r3, [r0, #4]
 137              	.LVL11:
 219:../../source/src/FWlib/src/stm32f10x_adc.c ****   uint32_t tmpreg1 = 0;
 138              		.loc 1 219 0
 139 006e 30B4     		push	{r4, r5}
 140              	.LCFI6:
 141              		.cfi_def_cfa_offset 8
 142              		.cfi_offset 4, -8
 143              		.cfi_offset 5, -4
 234:../../source/src/FWlib/src/stm32f10x_adc.c ****   /* Clear DUALMOD and SCAN bits */
 235:../../source/src/FWlib/src/stm32f10x_adc.c ****   tmpreg1 &= CR1_CLEAR_Mask;
 144              		.loc 1 235 0
 145 0070 23F47023 		bic	r3, r3, #983040
 146              	.LVL12:
 236:../../source/src/FWlib/src/stm32f10x_adc.c ****   /* Configure ADCx: Dual mode and scan conversion mode */
 237:../../source/src/FWlib/src/stm32f10x_adc.c ****   /* Set DUALMOD bits according to ADC_Mode value */
 238:../../source/src/FWlib/src/stm32f10x_adc.c ****   /* Set SCAN bit according to ADC_ScanConvMode value */
 239:../../source/src/FWlib/src/stm32f10x_adc.c ****   tmpreg1 |= (uint32_t)(ADC_InitStruct->ADC_Mode | ((uint32_t)ADC_InitStruct->ADC_ScanConvMode << 8
 147              		.loc 1 239 0
 148 0074 0C79     		ldrb	r4, [r1, #4]	@ zero_extendqisi2
 149 0076 0A68     		ldr	r2, [r1]
 235:../../source/src/FWlib/src/stm32f10x_adc.c ****   /* Configure ADCx: Dual mode and scan conversion mode */
 150              		.loc 1 235 0
 151 0078 23F48073 		bic	r3, r3, #256
 152 007c 43EA0423 		orr	r3, r3, r4, lsl #8
ARM GAS  G:\Users\Jaxb\AppData\Local\Temp\ccclxmrG.s 			page 8


 153              		.loc 1 239 0
 154 0080 1343     		orrs	r3, r3, r2
 155              	.LVL13:
 240:../../source/src/FWlib/src/stm32f10x_adc.c ****   /* Write to ADCx CR1 */
 241:../../source/src/FWlib/src/stm32f10x_adc.c ****   ADCx->CR1 = tmpreg1;
 156              		.loc 1 241 0
 157 0082 4360     		str	r3, [r0, #4]
 242:../../source/src/FWlib/src/stm32f10x_adc.c **** 
 243:../../source/src/FWlib/src/stm32f10x_adc.c ****   /*---------------------------- ADCx CR2 Configuration -----------------*/
 244:../../source/src/FWlib/src/stm32f10x_adc.c ****   /* Get the ADCx CR2 value */
 245:../../source/src/FWlib/src/stm32f10x_adc.c ****   tmpreg1 = ADCx->CR2;
 158              		.loc 1 245 0
 159 0084 8568     		ldr	r5, [r0, #8]
 160              	.LVL14:
 246:../../source/src/FWlib/src/stm32f10x_adc.c ****   /* Clear CONT, ALIGN and EXTSEL bits */
 247:../../source/src/FWlib/src/stm32f10x_adc.c ****   tmpreg1 &= CR2_CLEAR_Mask;
 161              		.loc 1 247 0
 162 0086 0A4A     		ldr	r2, .L12
 163 0088 D1E90243 		ldrd	r4, r3, [r1, #8]
 164 008c 2A40     		ands	r2, r2, r5
 165              	.LVL15:
 166 008e 2343     		orrs	r3, r3, r4
 248:../../source/src/FWlib/src/stm32f10x_adc.c ****   /* Configure ADCx: external trigger event and continuous conversion mode */
 249:../../source/src/FWlib/src/stm32f10x_adc.c ****   /* Set ALIGN bit according to ADC_DataAlign value */
 250:../../source/src/FWlib/src/stm32f10x_adc.c ****   /* Set EXTSEL bits according to ADC_ExternalTrigConv value */
 251:../../source/src/FWlib/src/stm32f10x_adc.c ****   /* Set CONT bit according to ADC_ContinuousConvMode value */
 252:../../source/src/FWlib/src/stm32f10x_adc.c ****   tmpreg1 |= (uint32_t)(ADC_InitStruct->ADC_DataAlign | ADC_InitStruct->ADC_ExternalTrigConv |
 253:../../source/src/FWlib/src/stm32f10x_adc.c ****             ((uint32_t)ADC_InitStruct->ADC_ContinuousConvMode << 1));
 167              		.loc 1 253 0
 168 0090 4C79     		ldrb	r4, [r1, #5]	@ zero_extendqisi2
 169 0092 1343     		orrs	r3, r3, r2
 252:../../source/src/FWlib/src/stm32f10x_adc.c ****             ((uint32_t)ADC_InitStruct->ADC_ContinuousConvMode << 1));
 170              		.loc 1 252 0
 171 0094 43EA4403 		orr	r3, r3, r4, lsl #1
 172              	.LVL16:
 254:../../source/src/FWlib/src/stm32f10x_adc.c ****   /* Write to ADCx CR2 */
 255:../../source/src/FWlib/src/stm32f10x_adc.c ****   ADCx->CR2 = tmpreg1;
 173              		.loc 1 255 0
 174 0098 8360     		str	r3, [r0, #8]
 256:../../source/src/FWlib/src/stm32f10x_adc.c **** 
 257:../../source/src/FWlib/src/stm32f10x_adc.c ****   /*---------------------------- ADCx SQR1 Configuration -----------------*/
 258:../../source/src/FWlib/src/stm32f10x_adc.c ****   /* Get the ADCx SQR1 value */
 259:../../source/src/FWlib/src/stm32f10x_adc.c ****   tmpreg1 = ADCx->SQR1;
 260:../../source/src/FWlib/src/stm32f10x_adc.c ****   /* Clear L bits */
 261:../../source/src/FWlib/src/stm32f10x_adc.c ****   tmpreg1 &= SQR1_CLEAR_Mask;
 262:../../source/src/FWlib/src/stm32f10x_adc.c ****   /* Configure ADCx: regular channel sequence length */
 263:../../source/src/FWlib/src/stm32f10x_adc.c ****   /* Set L bits according to ADC_NbrOfChannel value */
 264:../../source/src/FWlib/src/stm32f10x_adc.c ****   tmpreg2 |= (uint8_t) (ADC_InitStruct->ADC_NbrOfChannel - (uint8_t)1);
 175              		.loc 1 264 0
 176 009a 0A7C     		ldrb	r2, [r1, #16]	@ zero_extendqisi2
 259:../../source/src/FWlib/src/stm32f10x_adc.c ****   /* Clear L bits */
 177              		.loc 1 259 0
 178 009c C36A     		ldr	r3, [r0, #44]
 179              	.LVL17:
 180              		.loc 1 264 0
 181 009e 013A     		subs	r2, r2, #1
 265:../../source/src/FWlib/src/stm32f10x_adc.c ****   tmpreg1 |= (uint32_t)tmpreg2 << 20;
ARM GAS  G:\Users\Jaxb\AppData\Local\Temp\ccclxmrG.s 			page 9


 182              		.loc 1 265 0
 183 00a0 D2B2     		uxtb	r2, r2
 261:../../source/src/FWlib/src/stm32f10x_adc.c ****   /* Configure ADCx: regular channel sequence length */
 184              		.loc 1 261 0
 185 00a2 23F47003 		bic	r3, r3, #15728640
 186              	.LVL18:
 187              		.loc 1 265 0
 188 00a6 43EA0253 		orr	r3, r3, r2, lsl #20
 189              	.LVL19:
 266:../../source/src/FWlib/src/stm32f10x_adc.c ****   /* Write to ADCx SQR1 */
 267:../../source/src/FWlib/src/stm32f10x_adc.c ****   ADCx->SQR1 = tmpreg1;
 190              		.loc 1 267 0
 191 00aa C362     		str	r3, [r0, #44]
 192              	.LVL20:
 268:../../source/src/FWlib/src/stm32f10x_adc.c **** }
 193              		.loc 1 268 0
 194 00ac 30BC     		pop	{r4, r5}
 195              	.LCFI7:
 196              		.cfi_restore 5
 197              		.cfi_restore 4
 198              		.cfi_def_cfa_offset 0
 199 00ae 7047     		bx	lr
 200              	.L13:
 201              		.align	2
 202              	.L12:
 203 00b0 FDF7F1FF 		.word	-919555
 204              		.cfi_endproc
 205              	.LFE30:
 206              		.size	ADC_Init, .-ADC_Init
 207              		.align	1
 208              		.p2align 2,,3
 209              		.global	ADC_StructInit
 210              		.syntax unified
 211              		.thumb
 212              		.thumb_func
 213              		.fpu softvfp
 214              		.type	ADC_StructInit, %function
 215              	ADC_StructInit:
 216              	.LFB31:
 269:../../source/src/FWlib/src/stm32f10x_adc.c **** 
 270:../../source/src/FWlib/src/stm32f10x_adc.c **** /**
 271:../../source/src/FWlib/src/stm32f10x_adc.c ****   * @brief  Fills each ADC_InitStruct member with its default value.
 272:../../source/src/FWlib/src/stm32f10x_adc.c ****   * @param  ADC_InitStruct : pointer to an ADC_InitTypeDef structure which will be initialized.
 273:../../source/src/FWlib/src/stm32f10x_adc.c ****   * @retval None
 274:../../source/src/FWlib/src/stm32f10x_adc.c ****   */
 275:../../source/src/FWlib/src/stm32f10x_adc.c **** void ADC_StructInit(ADC_InitTypeDef* ADC_InitStruct)
 276:../../source/src/FWlib/src/stm32f10x_adc.c **** {
 217              		.loc 1 276 0
 218              		.cfi_startproc
 219              		@ args = 0, pretend = 0, frame = 0
 220              		@ frame_needed = 0, uses_anonymous_args = 0
 221              		@ link register save eliminated.
 222              	.LVL21:
 277:../../source/src/FWlib/src/stm32f10x_adc.c ****   /* Reset ADC init structure parameters values */
 278:../../source/src/FWlib/src/stm32f10x_adc.c ****   /* Initialize the ADC_Mode member */
 279:../../source/src/FWlib/src/stm32f10x_adc.c ****   ADC_InitStruct->ADC_Mode = ADC_Mode_Independent;
 223              		.loc 1 279 0
ARM GAS  G:\Users\Jaxb\AppData\Local\Temp\ccclxmrG.s 			page 10


 224 00b4 0023     		movs	r3, #0
 280:../../source/src/FWlib/src/stm32f10x_adc.c ****   /* initialize the ADC_ScanConvMode member */
 281:../../source/src/FWlib/src/stm32f10x_adc.c ****   ADC_InitStruct->ADC_ScanConvMode = DISABLE;
 282:../../source/src/FWlib/src/stm32f10x_adc.c ****   /* Initialize the ADC_ContinuousConvMode member */
 283:../../source/src/FWlib/src/stm32f10x_adc.c ****   ADC_InitStruct->ADC_ContinuousConvMode = DISABLE;
 284:../../source/src/FWlib/src/stm32f10x_adc.c ****   /* Initialize the ADC_ExternalTrigConv member */
 285:../../source/src/FWlib/src/stm32f10x_adc.c ****   ADC_InitStruct->ADC_ExternalTrigConv = ADC_ExternalTrigConv_T1_CC1;
 286:../../source/src/FWlib/src/stm32f10x_adc.c ****   /* Initialize the ADC_DataAlign member */
 287:../../source/src/FWlib/src/stm32f10x_adc.c ****   ADC_InitStruct->ADC_DataAlign = ADC_DataAlign_Right;
 288:../../source/src/FWlib/src/stm32f10x_adc.c ****   /* Initialize the ADC_NbrOfChannel member */
 289:../../source/src/FWlib/src/stm32f10x_adc.c ****   ADC_InitStruct->ADC_NbrOfChannel = 1;
 225              		.loc 1 289 0
 226 00b6 0122     		movs	r2, #1
 279:../../source/src/FWlib/src/stm32f10x_adc.c ****   /* initialize the ADC_ScanConvMode member */
 227              		.loc 1 279 0
 228 00b8 0360     		str	r3, [r0]
 229              		.loc 1 289 0
 230 00ba 0274     		strb	r2, [r0, #16]
 281:../../source/src/FWlib/src/stm32f10x_adc.c ****   /* Initialize the ADC_ContinuousConvMode member */
 231              		.loc 1 281 0
 232 00bc 0371     		strb	r3, [r0, #4]
 283:../../source/src/FWlib/src/stm32f10x_adc.c ****   /* Initialize the ADC_ExternalTrigConv member */
 233              		.loc 1 283 0
 234 00be 4371     		strb	r3, [r0, #5]
 287:../../source/src/FWlib/src/stm32f10x_adc.c ****   /* Initialize the ADC_NbrOfChannel member */
 235              		.loc 1 287 0
 236 00c0 C0E90233 		strd	r3, r3, [r0, #8]
 290:../../source/src/FWlib/src/stm32f10x_adc.c **** }
 237              		.loc 1 290 0
 238 00c4 7047     		bx	lr
 239              		.cfi_endproc
 240              	.LFE31:
 241              		.size	ADC_StructInit, .-ADC_StructInit
 242              		.align	1
 243 00c6 00BF     		.p2align 2,,3
 244              		.global	ADC_Cmd
 245              		.syntax unified
 246              		.thumb
 247              		.thumb_func
 248              		.fpu softvfp
 249              		.type	ADC_Cmd, %function
 250              	ADC_Cmd:
 251              	.LFB32:
 291:../../source/src/FWlib/src/stm32f10x_adc.c **** 
 292:../../source/src/FWlib/src/stm32f10x_adc.c **** /**
 293:../../source/src/FWlib/src/stm32f10x_adc.c ****   * @brief  Enables or disables the specified ADC peripheral.
 294:../../source/src/FWlib/src/stm32f10x_adc.c ****   * @param  ADCx: where x can be 1, 2 or 3 to select the ADC peripheral.
 295:../../source/src/FWlib/src/stm32f10x_adc.c ****   * @param  NewState: new state of the ADCx peripheral.
 296:../../source/src/FWlib/src/stm32f10x_adc.c ****   *   This parameter can be: ENABLE or DISABLE.
 297:../../source/src/FWlib/src/stm32f10x_adc.c ****   * @retval None
 298:../../source/src/FWlib/src/stm32f10x_adc.c ****   */
 299:../../source/src/FWlib/src/stm32f10x_adc.c **** void ADC_Cmd(ADC_TypeDef* ADCx, FunctionalState NewState)
 300:../../source/src/FWlib/src/stm32f10x_adc.c **** {
 252              		.loc 1 300 0
 253              		.cfi_startproc
 254              		@ args = 0, pretend = 0, frame = 0
 255              		@ frame_needed = 0, uses_anonymous_args = 0
ARM GAS  G:\Users\Jaxb\AppData\Local\Temp\ccclxmrG.s 			page 11


 256              		@ link register save eliminated.
 257              	.LVL22:
 301:../../source/src/FWlib/src/stm32f10x_adc.c ****   /* Check the parameters */
 302:../../source/src/FWlib/src/stm32f10x_adc.c ****   assert_param(IS_ADC_ALL_PERIPH(ADCx));
 303:../../source/src/FWlib/src/stm32f10x_adc.c ****   assert_param(IS_FUNCTIONAL_STATE(NewState));
 304:../../source/src/FWlib/src/stm32f10x_adc.c ****   if (NewState != DISABLE)
 305:../../source/src/FWlib/src/stm32f10x_adc.c ****   {
 306:../../source/src/FWlib/src/stm32f10x_adc.c ****     /* Set the ADON bit to wake up the ADC from power down mode */
 307:../../source/src/FWlib/src/stm32f10x_adc.c ****     ADCx->CR2 |= CR2_ADON_Set;
 258              		.loc 1 307 0
 259 00c8 8368     		ldr	r3, [r0, #8]
 304:../../source/src/FWlib/src/stm32f10x_adc.c ****   {
 260              		.loc 1 304 0
 261 00ca 19B9     		cbnz	r1, .L18
 308:../../source/src/FWlib/src/stm32f10x_adc.c ****   }
 309:../../source/src/FWlib/src/stm32f10x_adc.c ****   else
 310:../../source/src/FWlib/src/stm32f10x_adc.c ****   {
 311:../../source/src/FWlib/src/stm32f10x_adc.c ****     /* Disable the selected ADC peripheral */
 312:../../source/src/FWlib/src/stm32f10x_adc.c ****     ADCx->CR2 &= CR2_ADON_Reset;
 262              		.loc 1 312 0
 263 00cc 23F00103 		bic	r3, r3, #1
 264 00d0 8360     		str	r3, [r0, #8]
 313:../../source/src/FWlib/src/stm32f10x_adc.c ****   }
 314:../../source/src/FWlib/src/stm32f10x_adc.c **** }
 265              		.loc 1 314 0
 266 00d2 7047     		bx	lr
 267              	.L18:
 307:../../source/src/FWlib/src/stm32f10x_adc.c ****   }
 268              		.loc 1 307 0
 269 00d4 43F00103 		orr	r3, r3, #1
 270 00d8 8360     		str	r3, [r0, #8]
 271 00da 7047     		bx	lr
 272              		.cfi_endproc
 273              	.LFE32:
 274              		.size	ADC_Cmd, .-ADC_Cmd
 275              		.align	1
 276              		.p2align 2,,3
 277              		.global	ADC_DMACmd
 278              		.syntax unified
 279              		.thumb
 280              		.thumb_func
 281              		.fpu softvfp
 282              		.type	ADC_DMACmd, %function
 283              	ADC_DMACmd:
 284              	.LFB33:
 315:../../source/src/FWlib/src/stm32f10x_adc.c **** 
 316:../../source/src/FWlib/src/stm32f10x_adc.c **** /**
 317:../../source/src/FWlib/src/stm32f10x_adc.c ****   * @brief  Enables or disables the specified ADC DMA request.
 318:../../source/src/FWlib/src/stm32f10x_adc.c ****   * @param  ADCx: where x can be 1 or 3 to select the ADC peripheral.
 319:../../source/src/FWlib/src/stm32f10x_adc.c ****   *   Note: ADC2 hasn't a DMA capability.
 320:../../source/src/FWlib/src/stm32f10x_adc.c ****   * @param  NewState: new state of the selected ADC DMA transfer.
 321:../../source/src/FWlib/src/stm32f10x_adc.c ****   *   This parameter can be: ENABLE or DISABLE.
 322:../../source/src/FWlib/src/stm32f10x_adc.c ****   * @retval None
 323:../../source/src/FWlib/src/stm32f10x_adc.c ****   */
 324:../../source/src/FWlib/src/stm32f10x_adc.c **** void ADC_DMACmd(ADC_TypeDef* ADCx, FunctionalState NewState)
 325:../../source/src/FWlib/src/stm32f10x_adc.c **** {
 285              		.loc 1 325 0
ARM GAS  G:\Users\Jaxb\AppData\Local\Temp\ccclxmrG.s 			page 12


 286              		.cfi_startproc
 287              		@ args = 0, pretend = 0, frame = 0
 288              		@ frame_needed = 0, uses_anonymous_args = 0
 289              		@ link register save eliminated.
 290              	.LVL23:
 326:../../source/src/FWlib/src/stm32f10x_adc.c ****   /* Check the parameters */
 327:../../source/src/FWlib/src/stm32f10x_adc.c ****   assert_param(IS_ADC_DMA_PERIPH(ADCx));
 328:../../source/src/FWlib/src/stm32f10x_adc.c ****   assert_param(IS_FUNCTIONAL_STATE(NewState));
 329:../../source/src/FWlib/src/stm32f10x_adc.c ****   if (NewState != DISABLE)
 330:../../source/src/FWlib/src/stm32f10x_adc.c ****   {
 331:../../source/src/FWlib/src/stm32f10x_adc.c ****     /* Enable the selected ADC DMA request */
 332:../../source/src/FWlib/src/stm32f10x_adc.c ****     ADCx->CR2 |= CR2_DMA_Set;
 291              		.loc 1 332 0
 292 00dc 8368     		ldr	r3, [r0, #8]
 329:../../source/src/FWlib/src/stm32f10x_adc.c ****   {
 293              		.loc 1 329 0
 294 00de 19B9     		cbnz	r1, .L22
 333:../../source/src/FWlib/src/stm32f10x_adc.c ****   }
 334:../../source/src/FWlib/src/stm32f10x_adc.c ****   else
 335:../../source/src/FWlib/src/stm32f10x_adc.c ****   {
 336:../../source/src/FWlib/src/stm32f10x_adc.c ****     /* Disable the selected ADC DMA request */
 337:../../source/src/FWlib/src/stm32f10x_adc.c ****     ADCx->CR2 &= CR2_DMA_Reset;
 295              		.loc 1 337 0
 296 00e0 23F48073 		bic	r3, r3, #256
 297 00e4 8360     		str	r3, [r0, #8]
 338:../../source/src/FWlib/src/stm32f10x_adc.c ****   }
 339:../../source/src/FWlib/src/stm32f10x_adc.c **** }
 298              		.loc 1 339 0
 299 00e6 7047     		bx	lr
 300              	.L22:
 332:../../source/src/FWlib/src/stm32f10x_adc.c ****   }
 301              		.loc 1 332 0
 302 00e8 43F48073 		orr	r3, r3, #256
 303 00ec 8360     		str	r3, [r0, #8]
 304 00ee 7047     		bx	lr
 305              		.cfi_endproc
 306              	.LFE33:
 307              		.size	ADC_DMACmd, .-ADC_DMACmd
 308              		.align	1
 309              		.p2align 2,,3
 310              		.global	ADC_ITConfig
 311              		.syntax unified
 312              		.thumb
 313              		.thumb_func
 314              		.fpu softvfp
 315              		.type	ADC_ITConfig, %function
 316              	ADC_ITConfig:
 317              	.LFB34:
 340:../../source/src/FWlib/src/stm32f10x_adc.c **** 
 341:../../source/src/FWlib/src/stm32f10x_adc.c **** /**
 342:../../source/src/FWlib/src/stm32f10x_adc.c ****   * @brief  Enables or disables the specified ADC interrupts.
 343:../../source/src/FWlib/src/stm32f10x_adc.c ****   * @param  ADCx: where x can be 1, 2 or 3 to select the ADC peripheral.
 344:../../source/src/FWlib/src/stm32f10x_adc.c ****   * @param  ADC_IT: specifies the ADC interrupt sources to be enabled or disabled. 
 345:../../source/src/FWlib/src/stm32f10x_adc.c ****   *   This parameter can be any combination of the following values:
 346:../../source/src/FWlib/src/stm32f10x_adc.c ****   *     @arg ADC_IT_EOC: End of conversion interrupt mask
 347:../../source/src/FWlib/src/stm32f10x_adc.c ****   *     @arg ADC_IT_AWD: Analog watchdog interrupt mask
 348:../../source/src/FWlib/src/stm32f10x_adc.c ****   *     @arg ADC_IT_JEOC: End of injected conversion interrupt mask
ARM GAS  G:\Users\Jaxb\AppData\Local\Temp\ccclxmrG.s 			page 13


 349:../../source/src/FWlib/src/stm32f10x_adc.c ****   * @param  NewState: new state of the specified ADC interrupts.
 350:../../source/src/FWlib/src/stm32f10x_adc.c ****   *   This parameter can be: ENABLE or DISABLE.
 351:../../source/src/FWlib/src/stm32f10x_adc.c ****   * @retval None
 352:../../source/src/FWlib/src/stm32f10x_adc.c ****   */
 353:../../source/src/FWlib/src/stm32f10x_adc.c **** void ADC_ITConfig(ADC_TypeDef* ADCx, uint16_t ADC_IT, FunctionalState NewState)
 354:../../source/src/FWlib/src/stm32f10x_adc.c **** {
 318              		.loc 1 354 0
 319              		.cfi_startproc
 320              		@ args = 0, pretend = 0, frame = 0
 321              		@ frame_needed = 0, uses_anonymous_args = 0
 322              		@ link register save eliminated.
 323              	.LVL24:
 324 00f0 C9B2     		uxtb	r1, r1
 325              	.LVL25:
 355:../../source/src/FWlib/src/stm32f10x_adc.c ****   uint8_t itmask = 0;
 356:../../source/src/FWlib/src/stm32f10x_adc.c ****   /* Check the parameters */
 357:../../source/src/FWlib/src/stm32f10x_adc.c ****   assert_param(IS_ADC_ALL_PERIPH(ADCx));
 358:../../source/src/FWlib/src/stm32f10x_adc.c ****   assert_param(IS_FUNCTIONAL_STATE(NewState));
 359:../../source/src/FWlib/src/stm32f10x_adc.c ****   assert_param(IS_ADC_IT(ADC_IT));
 360:../../source/src/FWlib/src/stm32f10x_adc.c ****   /* Get the ADC IT index */
 361:../../source/src/FWlib/src/stm32f10x_adc.c ****   itmask = (uint8_t)ADC_IT;
 362:../../source/src/FWlib/src/stm32f10x_adc.c ****   if (NewState != DISABLE)
 363:../../source/src/FWlib/src/stm32f10x_adc.c ****   {
 364:../../source/src/FWlib/src/stm32f10x_adc.c ****     /* Enable the selected ADC interrupts */
 365:../../source/src/FWlib/src/stm32f10x_adc.c ****     ADCx->CR1 |= itmask;
 326              		.loc 1 365 0
 327 00f2 4368     		ldr	r3, [r0, #4]
 362:../../source/src/FWlib/src/stm32f10x_adc.c ****   {
 328              		.loc 1 362 0
 329 00f4 1AB9     		cbnz	r2, .L26
 366:../../source/src/FWlib/src/stm32f10x_adc.c ****   }
 367:../../source/src/FWlib/src/stm32f10x_adc.c ****   else
 368:../../source/src/FWlib/src/stm32f10x_adc.c ****   {
 369:../../source/src/FWlib/src/stm32f10x_adc.c ****     /* Disable the selected ADC interrupts */
 370:../../source/src/FWlib/src/stm32f10x_adc.c ****     ADCx->CR1 &= (~(uint32_t)itmask);
 330              		.loc 1 370 0
 331 00f6 23EA0101 		bic	r1, r3, r1
 332              	.LVL26:
 333 00fa 4160     		str	r1, [r0, #4]
 371:../../source/src/FWlib/src/stm32f10x_adc.c ****   }
 372:../../source/src/FWlib/src/stm32f10x_adc.c **** }
 334              		.loc 1 372 0
 335 00fc 7047     		bx	lr
 336              	.L26:
 365:../../source/src/FWlib/src/stm32f10x_adc.c ****   }
 337              		.loc 1 365 0
 338 00fe 1943     		orrs	r1, r1, r3
 339 0100 4160     		str	r1, [r0, #4]
 340 0102 7047     		bx	lr
 341              		.cfi_endproc
 342              	.LFE34:
 343              		.size	ADC_ITConfig, .-ADC_ITConfig
 344              		.align	1
 345              		.p2align 2,,3
 346              		.global	ADC_ResetCalibration
 347              		.syntax unified
 348              		.thumb
ARM GAS  G:\Users\Jaxb\AppData\Local\Temp\ccclxmrG.s 			page 14


 349              		.thumb_func
 350              		.fpu softvfp
 351              		.type	ADC_ResetCalibration, %function
 352              	ADC_ResetCalibration:
 353              	.LFB35:
 373:../../source/src/FWlib/src/stm32f10x_adc.c **** 
 374:../../source/src/FWlib/src/stm32f10x_adc.c **** /**
 375:../../source/src/FWlib/src/stm32f10x_adc.c ****   * @brief  Resets the selected ADC calibration registers.
 376:../../source/src/FWlib/src/stm32f10x_adc.c ****   * @param  ADCx: where x can be 1, 2 or 3 to select the ADC peripheral.
 377:../../source/src/FWlib/src/stm32f10x_adc.c ****   * @retval None
 378:../../source/src/FWlib/src/stm32f10x_adc.c ****   */
 379:../../source/src/FWlib/src/stm32f10x_adc.c **** void ADC_ResetCalibration(ADC_TypeDef* ADCx)
 380:../../source/src/FWlib/src/stm32f10x_adc.c **** {
 354              		.loc 1 380 0
 355              		.cfi_startproc
 356              		@ args = 0, pretend = 0, frame = 0
 357              		@ frame_needed = 0, uses_anonymous_args = 0
 358              		@ link register save eliminated.
 359              	.LVL27:
 381:../../source/src/FWlib/src/stm32f10x_adc.c ****   /* Check the parameters */
 382:../../source/src/FWlib/src/stm32f10x_adc.c ****   assert_param(IS_ADC_ALL_PERIPH(ADCx));
 383:../../source/src/FWlib/src/stm32f10x_adc.c ****   /* Resets the selected ADC calibration registers */  
 384:../../source/src/FWlib/src/stm32f10x_adc.c ****   ADCx->CR2 |= CR2_RSTCAL_Set;
 360              		.loc 1 384 0
 361 0104 8368     		ldr	r3, [r0, #8]
 362 0106 43F00803 		orr	r3, r3, #8
 363 010a 8360     		str	r3, [r0, #8]
 385:../../source/src/FWlib/src/stm32f10x_adc.c **** }
 364              		.loc 1 385 0
 365 010c 7047     		bx	lr
 366              		.cfi_endproc
 367              	.LFE35:
 368              		.size	ADC_ResetCalibration, .-ADC_ResetCalibration
 369              		.align	1
 370 010e 00BF     		.p2align 2,,3
 371              		.global	ADC_GetResetCalibrationStatus
 372              		.syntax unified
 373              		.thumb
 374              		.thumb_func
 375              		.fpu softvfp
 376              		.type	ADC_GetResetCalibrationStatus, %function
 377              	ADC_GetResetCalibrationStatus:
 378              	.LFB36:
 386:../../source/src/FWlib/src/stm32f10x_adc.c **** 
 387:../../source/src/FWlib/src/stm32f10x_adc.c **** /**
 388:../../source/src/FWlib/src/stm32f10x_adc.c ****   * @brief  Gets the selected ADC reset calibration registers status.
 389:../../source/src/FWlib/src/stm32f10x_adc.c ****   * @param  ADCx: where x can be 1, 2 or 3 to select the ADC peripheral.
 390:../../source/src/FWlib/src/stm32f10x_adc.c ****   * @retval The new state of ADC reset calibration registers (SET or RESET).
 391:../../source/src/FWlib/src/stm32f10x_adc.c ****   */
 392:../../source/src/FWlib/src/stm32f10x_adc.c **** FlagStatus ADC_GetResetCalibrationStatus(ADC_TypeDef* ADCx)
 393:../../source/src/FWlib/src/stm32f10x_adc.c **** {
 379              		.loc 1 393 0
 380              		.cfi_startproc
 381              		@ args = 0, pretend = 0, frame = 0
 382              		@ frame_needed = 0, uses_anonymous_args = 0
 383              		@ link register save eliminated.
 384              	.LVL28:
ARM GAS  G:\Users\Jaxb\AppData\Local\Temp\ccclxmrG.s 			page 15


 394:../../source/src/FWlib/src/stm32f10x_adc.c ****   FlagStatus bitstatus = RESET;
 395:../../source/src/FWlib/src/stm32f10x_adc.c ****   /* Check the parameters */
 396:../../source/src/FWlib/src/stm32f10x_adc.c ****   assert_param(IS_ADC_ALL_PERIPH(ADCx));
 397:../../source/src/FWlib/src/stm32f10x_adc.c ****   /* Check the status of RSTCAL bit */
 398:../../source/src/FWlib/src/stm32f10x_adc.c ****   if ((ADCx->CR2 & CR2_RSTCAL_Set) != (uint32_t)RESET)
 385              		.loc 1 398 0
 386 0110 8068     		ldr	r0, [r0, #8]
 387              	.LVL29:
 399:../../source/src/FWlib/src/stm32f10x_adc.c ****   {
 400:../../source/src/FWlib/src/stm32f10x_adc.c ****     /* RSTCAL bit is set */
 401:../../source/src/FWlib/src/stm32f10x_adc.c ****     bitstatus = SET;
 402:../../source/src/FWlib/src/stm32f10x_adc.c ****   }
 403:../../source/src/FWlib/src/stm32f10x_adc.c ****   else
 404:../../source/src/FWlib/src/stm32f10x_adc.c ****   {
 405:../../source/src/FWlib/src/stm32f10x_adc.c ****     /* RSTCAL bit is reset */
 406:../../source/src/FWlib/src/stm32f10x_adc.c ****     bitstatus = RESET;
 407:../../source/src/FWlib/src/stm32f10x_adc.c ****   }
 408:../../source/src/FWlib/src/stm32f10x_adc.c ****   /* Return the RSTCAL bit status */
 409:../../source/src/FWlib/src/stm32f10x_adc.c ****   return  bitstatus;
 410:../../source/src/FWlib/src/stm32f10x_adc.c **** }
 388              		.loc 1 410 0
 389 0112 C0F3C000 		ubfx	r0, r0, #3, #1
 390              	.LVL30:
 391 0116 7047     		bx	lr
 392              		.cfi_endproc
 393              	.LFE36:
 394              		.size	ADC_GetResetCalibrationStatus, .-ADC_GetResetCalibrationStatus
 395              		.align	1
 396              		.p2align 2,,3
 397              		.global	ADC_StartCalibration
 398              		.syntax unified
 399              		.thumb
 400              		.thumb_func
 401              		.fpu softvfp
 402              		.type	ADC_StartCalibration, %function
 403              	ADC_StartCalibration:
 404              	.LFB37:
 411:../../source/src/FWlib/src/stm32f10x_adc.c **** 
 412:../../source/src/FWlib/src/stm32f10x_adc.c **** /**
 413:../../source/src/FWlib/src/stm32f10x_adc.c ****   * @brief  Starts the selected ADC calibration process.
 414:../../source/src/FWlib/src/stm32f10x_adc.c ****   * @param  ADCx: where x can be 1, 2 or 3 to select the ADC peripheral.
 415:../../source/src/FWlib/src/stm32f10x_adc.c ****   * @retval None
 416:../../source/src/FWlib/src/stm32f10x_adc.c ****   */
 417:../../source/src/FWlib/src/stm32f10x_adc.c **** void ADC_StartCalibration(ADC_TypeDef* ADCx)
 418:../../source/src/FWlib/src/stm32f10x_adc.c **** {
 405              		.loc 1 418 0
 406              		.cfi_startproc
 407              		@ args = 0, pretend = 0, frame = 0
 408              		@ frame_needed = 0, uses_anonymous_args = 0
 409              		@ link register save eliminated.
 410              	.LVL31:
 419:../../source/src/FWlib/src/stm32f10x_adc.c ****   /* Check the parameters */
 420:../../source/src/FWlib/src/stm32f10x_adc.c ****   assert_param(IS_ADC_ALL_PERIPH(ADCx));
 421:../../source/src/FWlib/src/stm32f10x_adc.c ****   /* Enable the selected ADC calibration process */  
 422:../../source/src/FWlib/src/stm32f10x_adc.c ****   ADCx->CR2 |= CR2_CAL_Set;
 411              		.loc 1 422 0
 412 0118 8368     		ldr	r3, [r0, #8]
ARM GAS  G:\Users\Jaxb\AppData\Local\Temp\ccclxmrG.s 			page 16


 413 011a 43F00403 		orr	r3, r3, #4
 414 011e 8360     		str	r3, [r0, #8]
 423:../../source/src/FWlib/src/stm32f10x_adc.c **** }
 415              		.loc 1 423 0
 416 0120 7047     		bx	lr
 417              		.cfi_endproc
 418              	.LFE37:
 419              		.size	ADC_StartCalibration, .-ADC_StartCalibration
 420              		.align	1
 421 0122 00BF     		.p2align 2,,3
 422              		.global	ADC_GetCalibrationStatus
 423              		.syntax unified
 424              		.thumb
 425              		.thumb_func
 426              		.fpu softvfp
 427              		.type	ADC_GetCalibrationStatus, %function
 428              	ADC_GetCalibrationStatus:
 429              	.LFB38:
 424:../../source/src/FWlib/src/stm32f10x_adc.c **** 
 425:../../source/src/FWlib/src/stm32f10x_adc.c **** /**
 426:../../source/src/FWlib/src/stm32f10x_adc.c ****   * @brief  Gets the selected ADC calibration status.
 427:../../source/src/FWlib/src/stm32f10x_adc.c ****   * @param  ADCx: where x can be 1, 2 or 3 to select the ADC peripheral.
 428:../../source/src/FWlib/src/stm32f10x_adc.c ****   * @retval The new state of ADC calibration (SET or RESET).
 429:../../source/src/FWlib/src/stm32f10x_adc.c ****   */
 430:../../source/src/FWlib/src/stm32f10x_adc.c **** FlagStatus ADC_GetCalibrationStatus(ADC_TypeDef* ADCx)
 431:../../source/src/FWlib/src/stm32f10x_adc.c **** {
 430              		.loc 1 431 0
 431              		.cfi_startproc
 432              		@ args = 0, pretend = 0, frame = 0
 433              		@ frame_needed = 0, uses_anonymous_args = 0
 434              		@ link register save eliminated.
 435              	.LVL32:
 432:../../source/src/FWlib/src/stm32f10x_adc.c ****   FlagStatus bitstatus = RESET;
 433:../../source/src/FWlib/src/stm32f10x_adc.c ****   /* Check the parameters */
 434:../../source/src/FWlib/src/stm32f10x_adc.c ****   assert_param(IS_ADC_ALL_PERIPH(ADCx));
 435:../../source/src/FWlib/src/stm32f10x_adc.c ****   /* Check the status of CAL bit */
 436:../../source/src/FWlib/src/stm32f10x_adc.c ****   if ((ADCx->CR2 & CR2_CAL_Set) != (uint32_t)RESET)
 436              		.loc 1 436 0
 437 0124 8068     		ldr	r0, [r0, #8]
 438              	.LVL33:
 437:../../source/src/FWlib/src/stm32f10x_adc.c ****   {
 438:../../source/src/FWlib/src/stm32f10x_adc.c ****     /* CAL bit is set: calibration on going */
 439:../../source/src/FWlib/src/stm32f10x_adc.c ****     bitstatus = SET;
 440:../../source/src/FWlib/src/stm32f10x_adc.c ****   }
 441:../../source/src/FWlib/src/stm32f10x_adc.c ****   else
 442:../../source/src/FWlib/src/stm32f10x_adc.c ****   {
 443:../../source/src/FWlib/src/stm32f10x_adc.c ****     /* CAL bit is reset: end of calibration */
 444:../../source/src/FWlib/src/stm32f10x_adc.c ****     bitstatus = RESET;
 445:../../source/src/FWlib/src/stm32f10x_adc.c ****   }
 446:../../source/src/FWlib/src/stm32f10x_adc.c ****   /* Return the CAL bit status */
 447:../../source/src/FWlib/src/stm32f10x_adc.c ****   return  bitstatus;
 448:../../source/src/FWlib/src/stm32f10x_adc.c **** }
 439              		.loc 1 448 0
 440 0126 C0F38000 		ubfx	r0, r0, #2, #1
 441              	.LVL34:
 442 012a 7047     		bx	lr
 443              		.cfi_endproc
ARM GAS  G:\Users\Jaxb\AppData\Local\Temp\ccclxmrG.s 			page 17


 444              	.LFE38:
 445              		.size	ADC_GetCalibrationStatus, .-ADC_GetCalibrationStatus
 446              		.align	1
 447              		.p2align 2,,3
 448              		.global	ADC_SoftwareStartConvCmd
 449              		.syntax unified
 450              		.thumb
 451              		.thumb_func
 452              		.fpu softvfp
 453              		.type	ADC_SoftwareStartConvCmd, %function
 454              	ADC_SoftwareStartConvCmd:
 455              	.LFB39:
 449:../../source/src/FWlib/src/stm32f10x_adc.c **** 
 450:../../source/src/FWlib/src/stm32f10x_adc.c **** /**
 451:../../source/src/FWlib/src/stm32f10x_adc.c ****   * @brief  Enables or disables the selected ADC software start conversion .
 452:../../source/src/FWlib/src/stm32f10x_adc.c ****   * @param  ADCx: where x can be 1, 2 or 3 to select the ADC peripheral.
 453:../../source/src/FWlib/src/stm32f10x_adc.c ****   * @param  NewState: new state of the selected ADC software start conversion.
 454:../../source/src/FWlib/src/stm32f10x_adc.c ****   *   This parameter can be: ENABLE or DISABLE.
 455:../../source/src/FWlib/src/stm32f10x_adc.c ****   * @retval None
 456:../../source/src/FWlib/src/stm32f10x_adc.c ****   */
 457:../../source/src/FWlib/src/stm32f10x_adc.c **** void ADC_SoftwareStartConvCmd(ADC_TypeDef* ADCx, FunctionalState NewState)
 458:../../source/src/FWlib/src/stm32f10x_adc.c **** {
 456              		.loc 1 458 0
 457              		.cfi_startproc
 458              		@ args = 0, pretend = 0, frame = 0
 459              		@ frame_needed = 0, uses_anonymous_args = 0
 460              		@ link register save eliminated.
 461              	.LVL35:
 459:../../source/src/FWlib/src/stm32f10x_adc.c ****   /* Check the parameters */
 460:../../source/src/FWlib/src/stm32f10x_adc.c ****   assert_param(IS_ADC_ALL_PERIPH(ADCx));
 461:../../source/src/FWlib/src/stm32f10x_adc.c ****   assert_param(IS_FUNCTIONAL_STATE(NewState));
 462:../../source/src/FWlib/src/stm32f10x_adc.c ****   if (NewState != DISABLE)
 463:../../source/src/FWlib/src/stm32f10x_adc.c ****   {
 464:../../source/src/FWlib/src/stm32f10x_adc.c ****     /* Enable the selected ADC conversion on external event and start the selected
 465:../../source/src/FWlib/src/stm32f10x_adc.c ****        ADC conversion */
 466:../../source/src/FWlib/src/stm32f10x_adc.c ****     ADCx->CR2 |= CR2_EXTTRIG_SWSTART_Set;
 462              		.loc 1 466 0
 463 012c 8368     		ldr	r3, [r0, #8]
 462:../../source/src/FWlib/src/stm32f10x_adc.c ****   {
 464              		.loc 1 462 0
 465 012e 19B9     		cbnz	r1, .L34
 467:../../source/src/FWlib/src/stm32f10x_adc.c ****   }
 468:../../source/src/FWlib/src/stm32f10x_adc.c ****   else
 469:../../source/src/FWlib/src/stm32f10x_adc.c ****   {
 470:../../source/src/FWlib/src/stm32f10x_adc.c ****     /* Disable the selected ADC conversion on external event and stop the selected
 471:../../source/src/FWlib/src/stm32f10x_adc.c ****        ADC conversion */
 472:../../source/src/FWlib/src/stm32f10x_adc.c ****     ADCx->CR2 &= CR2_EXTTRIG_SWSTART_Reset;
 466              		.loc 1 472 0
 467 0130 23F4A003 		bic	r3, r3, #5242880
 468 0134 8360     		str	r3, [r0, #8]
 473:../../source/src/FWlib/src/stm32f10x_adc.c ****   }
 474:../../source/src/FWlib/src/stm32f10x_adc.c **** }
 469              		.loc 1 474 0
 470 0136 7047     		bx	lr
 471              	.L34:
 466:../../source/src/FWlib/src/stm32f10x_adc.c ****   }
 472              		.loc 1 466 0
ARM GAS  G:\Users\Jaxb\AppData\Local\Temp\ccclxmrG.s 			page 18


 473 0138 43F4A003 		orr	r3, r3, #5242880
 474 013c 8360     		str	r3, [r0, #8]
 475 013e 7047     		bx	lr
 476              		.cfi_endproc
 477              	.LFE39:
 478              		.size	ADC_SoftwareStartConvCmd, .-ADC_SoftwareStartConvCmd
 479              		.align	1
 480              		.p2align 2,,3
 481              		.global	ADC_GetSoftwareStartConvStatus
 482              		.syntax unified
 483              		.thumb
 484              		.thumb_func
 485              		.fpu softvfp
 486              		.type	ADC_GetSoftwareStartConvStatus, %function
 487              	ADC_GetSoftwareStartConvStatus:
 488              	.LFB40:
 475:../../source/src/FWlib/src/stm32f10x_adc.c **** 
 476:../../source/src/FWlib/src/stm32f10x_adc.c **** /**
 477:../../source/src/FWlib/src/stm32f10x_adc.c ****   * @brief  Gets the selected ADC Software start conversion Status.
 478:../../source/src/FWlib/src/stm32f10x_adc.c ****   * @param  ADCx: where x can be 1, 2 or 3 to select the ADC peripheral.
 479:../../source/src/FWlib/src/stm32f10x_adc.c ****   * @retval The new state of ADC software start conversion (SET or RESET).
 480:../../source/src/FWlib/src/stm32f10x_adc.c ****   */
 481:../../source/src/FWlib/src/stm32f10x_adc.c **** FlagStatus ADC_GetSoftwareStartConvStatus(ADC_TypeDef* ADCx)
 482:../../source/src/FWlib/src/stm32f10x_adc.c **** {
 489              		.loc 1 482 0
 490              		.cfi_startproc
 491              		@ args = 0, pretend = 0, frame = 0
 492              		@ frame_needed = 0, uses_anonymous_args = 0
 493              		@ link register save eliminated.
 494              	.LVL36:
 483:../../source/src/FWlib/src/stm32f10x_adc.c ****   FlagStatus bitstatus = RESET;
 484:../../source/src/FWlib/src/stm32f10x_adc.c ****   /* Check the parameters */
 485:../../source/src/FWlib/src/stm32f10x_adc.c ****   assert_param(IS_ADC_ALL_PERIPH(ADCx));
 486:../../source/src/FWlib/src/stm32f10x_adc.c ****   /* Check the status of SWSTART bit */
 487:../../source/src/FWlib/src/stm32f10x_adc.c ****   if ((ADCx->CR2 & CR2_SWSTART_Set) != (uint32_t)RESET)
 495              		.loc 1 487 0
 496 0140 8068     		ldr	r0, [r0, #8]
 497              	.LVL37:
 488:../../source/src/FWlib/src/stm32f10x_adc.c ****   {
 489:../../source/src/FWlib/src/stm32f10x_adc.c ****     /* SWSTART bit is set */
 490:../../source/src/FWlib/src/stm32f10x_adc.c ****     bitstatus = SET;
 491:../../source/src/FWlib/src/stm32f10x_adc.c ****   }
 492:../../source/src/FWlib/src/stm32f10x_adc.c ****   else
 493:../../source/src/FWlib/src/stm32f10x_adc.c ****   {
 494:../../source/src/FWlib/src/stm32f10x_adc.c ****     /* SWSTART bit is reset */
 495:../../source/src/FWlib/src/stm32f10x_adc.c ****     bitstatus = RESET;
 496:../../source/src/FWlib/src/stm32f10x_adc.c ****   }
 497:../../source/src/FWlib/src/stm32f10x_adc.c ****   /* Return the SWSTART bit status */
 498:../../source/src/FWlib/src/stm32f10x_adc.c ****   return  bitstatus;
 499:../../source/src/FWlib/src/stm32f10x_adc.c **** }
 498              		.loc 1 499 0
 499 0142 C0F38050 		ubfx	r0, r0, #22, #1
 500              	.LVL38:
 501 0146 7047     		bx	lr
 502              		.cfi_endproc
 503              	.LFE40:
 504              		.size	ADC_GetSoftwareStartConvStatus, .-ADC_GetSoftwareStartConvStatus
ARM GAS  G:\Users\Jaxb\AppData\Local\Temp\ccclxmrG.s 			page 19


 505              		.align	1
 506              		.p2align 2,,3
 507              		.global	ADC_DiscModeChannelCountConfig
 508              		.syntax unified
 509              		.thumb
 510              		.thumb_func
 511              		.fpu softvfp
 512              		.type	ADC_DiscModeChannelCountConfig, %function
 513              	ADC_DiscModeChannelCountConfig:
 514              	.LFB41:
 500:../../source/src/FWlib/src/stm32f10x_adc.c **** 
 501:../../source/src/FWlib/src/stm32f10x_adc.c **** /**
 502:../../source/src/FWlib/src/stm32f10x_adc.c ****   * @brief  Configures the discontinuous mode for the selected ADC regular
 503:../../source/src/FWlib/src/stm32f10x_adc.c ****   *         group channel.
 504:../../source/src/FWlib/src/stm32f10x_adc.c ****   * @param  ADCx: where x can be 1, 2 or 3 to select the ADC peripheral.
 505:../../source/src/FWlib/src/stm32f10x_adc.c ****   * @param  Number: specifies the discontinuous mode regular channel
 506:../../source/src/FWlib/src/stm32f10x_adc.c ****   *         count value. This number must be between 1 and 8.
 507:../../source/src/FWlib/src/stm32f10x_adc.c ****   * @retval None
 508:../../source/src/FWlib/src/stm32f10x_adc.c ****   */
 509:../../source/src/FWlib/src/stm32f10x_adc.c **** void ADC_DiscModeChannelCountConfig(ADC_TypeDef* ADCx, uint8_t Number)
 510:../../source/src/FWlib/src/stm32f10x_adc.c **** {
 515              		.loc 1 510 0
 516              		.cfi_startproc
 517              		@ args = 0, pretend = 0, frame = 0
 518              		@ frame_needed = 0, uses_anonymous_args = 0
 519              		@ link register save eliminated.
 520              	.LVL39:
 511:../../source/src/FWlib/src/stm32f10x_adc.c ****   uint32_t tmpreg1 = 0;
 512:../../source/src/FWlib/src/stm32f10x_adc.c ****   uint32_t tmpreg2 = 0;
 513:../../source/src/FWlib/src/stm32f10x_adc.c ****   /* Check the parameters */
 514:../../source/src/FWlib/src/stm32f10x_adc.c ****   assert_param(IS_ADC_ALL_PERIPH(ADCx));
 515:../../source/src/FWlib/src/stm32f10x_adc.c ****   assert_param(IS_ADC_REGULAR_DISC_NUMBER(Number));
 516:../../source/src/FWlib/src/stm32f10x_adc.c ****   /* Get the old register value */
 517:../../source/src/FWlib/src/stm32f10x_adc.c ****   tmpreg1 = ADCx->CR1;
 521              		.loc 1 517 0
 522 0148 4368     		ldr	r3, [r0, #4]
 523              	.LVL40:
 518:../../source/src/FWlib/src/stm32f10x_adc.c ****   /* Clear the old discontinuous mode channel count */
 519:../../source/src/FWlib/src/stm32f10x_adc.c ****   tmpreg1 &= CR1_DISCNUM_Reset;
 520:../../source/src/FWlib/src/stm32f10x_adc.c ****   /* Set the discontinuous mode channel count */
 521:../../source/src/FWlib/src/stm32f10x_adc.c ****   tmpreg2 = Number - 1;
 524              		.loc 1 521 0
 525 014a 0139     		subs	r1, r1, #1
 526              	.LVL41:
 519:../../source/src/FWlib/src/stm32f10x_adc.c ****   /* Set the discontinuous mode channel count */
 527              		.loc 1 519 0
 528 014c 23F46043 		bic	r3, r3, #57344
 529              	.LVL42:
 522:../../source/src/FWlib/src/stm32f10x_adc.c ****   tmpreg1 |= tmpreg2 << 13;
 530              		.loc 1 522 0
 531 0150 43EA4133 		orr	r3, r3, r1, lsl #13
 532              	.LVL43:
 523:../../source/src/FWlib/src/stm32f10x_adc.c ****   /* Store the new register value */
 524:../../source/src/FWlib/src/stm32f10x_adc.c ****   ADCx->CR1 = tmpreg1;
 533              		.loc 1 524 0
 534 0154 4360     		str	r3, [r0, #4]
 525:../../source/src/FWlib/src/stm32f10x_adc.c **** }
ARM GAS  G:\Users\Jaxb\AppData\Local\Temp\ccclxmrG.s 			page 20


 535              		.loc 1 525 0
 536 0156 7047     		bx	lr
 537              		.cfi_endproc
 538              	.LFE41:
 539              		.size	ADC_DiscModeChannelCountConfig, .-ADC_DiscModeChannelCountConfig
 540              		.align	1
 541              		.p2align 2,,3
 542              		.global	ADC_DiscModeCmd
 543              		.syntax unified
 544              		.thumb
 545              		.thumb_func
 546              		.fpu softvfp
 547              		.type	ADC_DiscModeCmd, %function
 548              	ADC_DiscModeCmd:
 549              	.LFB42:
 526:../../source/src/FWlib/src/stm32f10x_adc.c **** 
 527:../../source/src/FWlib/src/stm32f10x_adc.c **** /**
 528:../../source/src/FWlib/src/stm32f10x_adc.c ****   * @brief  Enables or disables the discontinuous mode on regular group
 529:../../source/src/FWlib/src/stm32f10x_adc.c ****   *         channel for the specified ADC
 530:../../source/src/FWlib/src/stm32f10x_adc.c ****   * @param  ADCx: where x can be 1, 2 or 3 to select the ADC peripheral.
 531:../../source/src/FWlib/src/stm32f10x_adc.c ****   * @param  NewState: new state of the selected ADC discontinuous mode
 532:../../source/src/FWlib/src/stm32f10x_adc.c ****   *         on regular group channel.
 533:../../source/src/FWlib/src/stm32f10x_adc.c ****   *         This parameter can be: ENABLE or DISABLE.
 534:../../source/src/FWlib/src/stm32f10x_adc.c ****   * @retval None
 535:../../source/src/FWlib/src/stm32f10x_adc.c ****   */
 536:../../source/src/FWlib/src/stm32f10x_adc.c **** void ADC_DiscModeCmd(ADC_TypeDef* ADCx, FunctionalState NewState)
 537:../../source/src/FWlib/src/stm32f10x_adc.c **** {
 550              		.loc 1 537 0
 551              		.cfi_startproc
 552              		@ args = 0, pretend = 0, frame = 0
 553              		@ frame_needed = 0, uses_anonymous_args = 0
 554              		@ link register save eliminated.
 555              	.LVL44:
 538:../../source/src/FWlib/src/stm32f10x_adc.c ****   /* Check the parameters */
 539:../../source/src/FWlib/src/stm32f10x_adc.c ****   assert_param(IS_ADC_ALL_PERIPH(ADCx));
 540:../../source/src/FWlib/src/stm32f10x_adc.c ****   assert_param(IS_FUNCTIONAL_STATE(NewState));
 541:../../source/src/FWlib/src/stm32f10x_adc.c ****   if (NewState != DISABLE)
 542:../../source/src/FWlib/src/stm32f10x_adc.c ****   {
 543:../../source/src/FWlib/src/stm32f10x_adc.c ****     /* Enable the selected ADC regular discontinuous mode */
 544:../../source/src/FWlib/src/stm32f10x_adc.c ****     ADCx->CR1 |= CR1_DISCEN_Set;
 556              		.loc 1 544 0
 557 0158 4368     		ldr	r3, [r0, #4]
 541:../../source/src/FWlib/src/stm32f10x_adc.c ****   {
 558              		.loc 1 541 0
 559 015a 19B9     		cbnz	r1, .L40
 545:../../source/src/FWlib/src/stm32f10x_adc.c ****   }
 546:../../source/src/FWlib/src/stm32f10x_adc.c ****   else
 547:../../source/src/FWlib/src/stm32f10x_adc.c ****   {
 548:../../source/src/FWlib/src/stm32f10x_adc.c ****     /* Disable the selected ADC regular discontinuous mode */
 549:../../source/src/FWlib/src/stm32f10x_adc.c ****     ADCx->CR1 &= CR1_DISCEN_Reset;
 560              		.loc 1 549 0
 561 015c 23F40063 		bic	r3, r3, #2048
 562 0160 4360     		str	r3, [r0, #4]
 550:../../source/src/FWlib/src/stm32f10x_adc.c ****   }
 551:../../source/src/FWlib/src/stm32f10x_adc.c **** }
 563              		.loc 1 551 0
 564 0162 7047     		bx	lr
ARM GAS  G:\Users\Jaxb\AppData\Local\Temp\ccclxmrG.s 			page 21


 565              	.L40:
 544:../../source/src/FWlib/src/stm32f10x_adc.c ****   }
 566              		.loc 1 544 0
 567 0164 43F40063 		orr	r3, r3, #2048
 568 0168 4360     		str	r3, [r0, #4]
 569 016a 7047     		bx	lr
 570              		.cfi_endproc
 571              	.LFE42:
 572              		.size	ADC_DiscModeCmd, .-ADC_DiscModeCmd
 573              		.align	1
 574              		.p2align 2,,3
 575              		.global	ADC_RegularChannelConfig
 576              		.syntax unified
 577              		.thumb
 578              		.thumb_func
 579              		.fpu softvfp
 580              		.type	ADC_RegularChannelConfig, %function
 581              	ADC_RegularChannelConfig:
 582              	.LFB43:
 552:../../source/src/FWlib/src/stm32f10x_adc.c **** 
 553:../../source/src/FWlib/src/stm32f10x_adc.c **** /**
 554:../../source/src/FWlib/src/stm32f10x_adc.c ****   * @brief  Configures for the selected ADC regular channel its corresponding
 555:../../source/src/FWlib/src/stm32f10x_adc.c ****   *         rank in the sequencer and its sample time.
 556:../../source/src/FWlib/src/stm32f10x_adc.c ****   * @param  ADCx: where x can be 1, 2 or 3 to select the ADC peripheral.
 557:../../source/src/FWlib/src/stm32f10x_adc.c ****   * @param  ADC_Channel: the ADC channel to configure. 
 558:../../source/src/FWlib/src/stm32f10x_adc.c ****   *   This parameter can be one of the following values:
 559:../../source/src/FWlib/src/stm32f10x_adc.c ****   *     @arg ADC_Channel_0: ADC Channel0 selected
 560:../../source/src/FWlib/src/stm32f10x_adc.c ****   *     @arg ADC_Channel_1: ADC Channel1 selected
 561:../../source/src/FWlib/src/stm32f10x_adc.c ****   *     @arg ADC_Channel_2: ADC Channel2 selected
 562:../../source/src/FWlib/src/stm32f10x_adc.c ****   *     @arg ADC_Channel_3: ADC Channel3 selected
 563:../../source/src/FWlib/src/stm32f10x_adc.c ****   *     @arg ADC_Channel_4: ADC Channel4 selected
 564:../../source/src/FWlib/src/stm32f10x_adc.c ****   *     @arg ADC_Channel_5: ADC Channel5 selected
 565:../../source/src/FWlib/src/stm32f10x_adc.c ****   *     @arg ADC_Channel_6: ADC Channel6 selected
 566:../../source/src/FWlib/src/stm32f10x_adc.c ****   *     @arg ADC_Channel_7: ADC Channel7 selected
 567:../../source/src/FWlib/src/stm32f10x_adc.c ****   *     @arg ADC_Channel_8: ADC Channel8 selected
 568:../../source/src/FWlib/src/stm32f10x_adc.c ****   *     @arg ADC_Channel_9: ADC Channel9 selected
 569:../../source/src/FWlib/src/stm32f10x_adc.c ****   *     @arg ADC_Channel_10: ADC Channel10 selected
 570:../../source/src/FWlib/src/stm32f10x_adc.c ****   *     @arg ADC_Channel_11: ADC Channel11 selected
 571:../../source/src/FWlib/src/stm32f10x_adc.c ****   *     @arg ADC_Channel_12: ADC Channel12 selected
 572:../../source/src/FWlib/src/stm32f10x_adc.c ****   *     @arg ADC_Channel_13: ADC Channel13 selected
 573:../../source/src/FWlib/src/stm32f10x_adc.c ****   *     @arg ADC_Channel_14: ADC Channel14 selected
 574:../../source/src/FWlib/src/stm32f10x_adc.c ****   *     @arg ADC_Channel_15: ADC Channel15 selected
 575:../../source/src/FWlib/src/stm32f10x_adc.c ****   *     @arg ADC_Channel_16: ADC Channel16 selected
 576:../../source/src/FWlib/src/stm32f10x_adc.c ****   *     @arg ADC_Channel_17: ADC Channel17 selected
 577:../../source/src/FWlib/src/stm32f10x_adc.c ****   * @param  Rank: The rank in the regular group sequencer. This parameter must be between 1 to 16.
 578:../../source/src/FWlib/src/stm32f10x_adc.c ****   * @param  ADC_SampleTime: The sample time value to be set for the selected channel. 
 579:../../source/src/FWlib/src/stm32f10x_adc.c ****   *   This parameter can be one of the following values:
 580:../../source/src/FWlib/src/stm32f10x_adc.c ****   *     @arg ADC_SampleTime_1Cycles5: Sample time equal to 1.5 cycles
 581:../../source/src/FWlib/src/stm32f10x_adc.c ****   *     @arg ADC_SampleTime_7Cycles5: Sample time equal to 7.5 cycles
 582:../../source/src/FWlib/src/stm32f10x_adc.c ****   *     @arg ADC_SampleTime_13Cycles5: Sample time equal to 13.5 cycles
 583:../../source/src/FWlib/src/stm32f10x_adc.c ****   *     @arg ADC_SampleTime_28Cycles5: Sample time equal to 28.5 cycles	
 584:../../source/src/FWlib/src/stm32f10x_adc.c ****   *     @arg ADC_SampleTime_41Cycles5: Sample time equal to 41.5 cycles	
 585:../../source/src/FWlib/src/stm32f10x_adc.c ****   *     @arg ADC_SampleTime_55Cycles5: Sample time equal to 55.5 cycles	
 586:../../source/src/FWlib/src/stm32f10x_adc.c ****   *     @arg ADC_SampleTime_71Cycles5: Sample time equal to 71.5 cycles	
 587:../../source/src/FWlib/src/stm32f10x_adc.c ****   *     @arg ADC_SampleTime_239Cycles5: Sample time equal to 239.5 cycles	
 588:../../source/src/FWlib/src/stm32f10x_adc.c ****   * @retval None
 589:../../source/src/FWlib/src/stm32f10x_adc.c ****   */
ARM GAS  G:\Users\Jaxb\AppData\Local\Temp\ccclxmrG.s 			page 22


 590:../../source/src/FWlib/src/stm32f10x_adc.c **** void ADC_RegularChannelConfig(ADC_TypeDef* ADCx, uint8_t ADC_Channel, uint8_t Rank, uint8_t ADC_Sam
 591:../../source/src/FWlib/src/stm32f10x_adc.c **** {
 583              		.loc 1 591 0
 584              		.cfi_startproc
 585              		@ args = 0, pretend = 0, frame = 0
 586              		@ frame_needed = 0, uses_anonymous_args = 0
 587              		@ link register save eliminated.
 588              	.LVL45:
 592:../../source/src/FWlib/src/stm32f10x_adc.c ****   uint32_t tmpreg1 = 0, tmpreg2 = 0;
 593:../../source/src/FWlib/src/stm32f10x_adc.c ****   /* Check the parameters */
 594:../../source/src/FWlib/src/stm32f10x_adc.c ****   assert_param(IS_ADC_ALL_PERIPH(ADCx));
 595:../../source/src/FWlib/src/stm32f10x_adc.c ****   assert_param(IS_ADC_CHANNEL(ADC_Channel));
 596:../../source/src/FWlib/src/stm32f10x_adc.c ****   assert_param(IS_ADC_REGULAR_RANK(Rank));
 597:../../source/src/FWlib/src/stm32f10x_adc.c ****   assert_param(IS_ADC_SAMPLE_TIME(ADC_SampleTime));
 598:../../source/src/FWlib/src/stm32f10x_adc.c ****   /* if ADC_Channel_10 ... ADC_Channel_17 is selected */
 599:../../source/src/FWlib/src/stm32f10x_adc.c ****   if (ADC_Channel > ADC_Channel_9)
 589              		.loc 1 599 0
 590 016c 0929     		cmp	r1, #9
 591:../../source/src/FWlib/src/stm32f10x_adc.c ****   uint32_t tmpreg1 = 0, tmpreg2 = 0;
 591              		.loc 1 591 0
 592 016e 70B4     		push	{r4, r5, r6}
 593              	.LCFI8:
 594              		.cfi_def_cfa_offset 12
 595              		.cfi_offset 4, -12
 596              		.cfi_offset 5, -8
 597              		.cfi_offset 6, -4
 598              		.loc 1 599 0
 599 0170 1DD9     		bls	.L42
 600:../../source/src/FWlib/src/stm32f10x_adc.c ****   {
 601:../../source/src/FWlib/src/stm32f10x_adc.c ****     /* Get the old register value */
 602:../../source/src/FWlib/src/stm32f10x_adc.c ****     tmpreg1 = ADCx->SMPR1;
 603:../../source/src/FWlib/src/stm32f10x_adc.c ****     /* Calculate the mask to clear */
 604:../../source/src/FWlib/src/stm32f10x_adc.c ****     tmpreg2 = SMPR1_SMP_Set << (3 * (ADC_Channel - 10));
 600              		.loc 1 604 0
 601 0172 0726     		movs	r6, #7
 602 0174 A1F10A04 		sub	r4, r1, #10
 603 0178 04EB4404 		add	r4, r4, r4, lsl #1
 602:../../source/src/FWlib/src/stm32f10x_adc.c ****     /* Calculate the mask to clear */
 604              		.loc 1 602 0
 605 017c C568     		ldr	r5, [r0, #12]
 606              	.LVL46:
 607              		.loc 1 604 0
 608 017e A640     		lsls	r6, r6, r4
 609              	.LVL47:
 605:../../source/src/FWlib/src/stm32f10x_adc.c ****     /* Clear the old channel sample time */
 606:../../source/src/FWlib/src/stm32f10x_adc.c ****     tmpreg1 &= ~tmpreg2;
 607:../../source/src/FWlib/src/stm32f10x_adc.c ****     /* Calculate the mask to set */
 608:../../source/src/FWlib/src/stm32f10x_adc.c ****     tmpreg2 = (uint32_t)ADC_SampleTime << (3 * (ADC_Channel - 10));
 610              		.loc 1 608 0
 611 0180 A340     		lsls	r3, r3, r4
 612              	.LVL48:
 606:../../source/src/FWlib/src/stm32f10x_adc.c ****     /* Calculate the mask to set */
 613              		.loc 1 606 0
 614 0182 25EA0604 		bic	r4, r5, r6
 615              	.LVL49:
 609:../../source/src/FWlib/src/stm32f10x_adc.c ****     /* Set the new channel sample time */
 610:../../source/src/FWlib/src/stm32f10x_adc.c ****     tmpreg1 |= tmpreg2;
ARM GAS  G:\Users\Jaxb\AppData\Local\Temp\ccclxmrG.s 			page 23


 616              		.loc 1 610 0
 617 0186 2343     		orrs	r3, r3, r4
 618              	.LVL50:
 611:../../source/src/FWlib/src/stm32f10x_adc.c ****     /* Store the new register value */
 612:../../source/src/FWlib/src/stm32f10x_adc.c ****     ADCx->SMPR1 = tmpreg1;
 613:../../source/src/FWlib/src/stm32f10x_adc.c ****   }
 614:../../source/src/FWlib/src/stm32f10x_adc.c ****   else /* ADC_Channel include in ADC_Channel_[0..9] */
 615:../../source/src/FWlib/src/stm32f10x_adc.c ****   {
 616:../../source/src/FWlib/src/stm32f10x_adc.c ****     /* Get the old register value */
 617:../../source/src/FWlib/src/stm32f10x_adc.c ****     tmpreg1 = ADCx->SMPR2;
 618:../../source/src/FWlib/src/stm32f10x_adc.c ****     /* Calculate the mask to clear */
 619:../../source/src/FWlib/src/stm32f10x_adc.c ****     tmpreg2 = SMPR2_SMP_Set << (3 * ADC_Channel);
 620:../../source/src/FWlib/src/stm32f10x_adc.c ****     /* Clear the old channel sample time */
 621:../../source/src/FWlib/src/stm32f10x_adc.c ****     tmpreg1 &= ~tmpreg2;
 622:../../source/src/FWlib/src/stm32f10x_adc.c ****     /* Calculate the mask to set */
 623:../../source/src/FWlib/src/stm32f10x_adc.c ****     tmpreg2 = (uint32_t)ADC_SampleTime << (3 * ADC_Channel);
 624:../../source/src/FWlib/src/stm32f10x_adc.c ****     /* Set the new channel sample time */
 625:../../source/src/FWlib/src/stm32f10x_adc.c ****     tmpreg1 |= tmpreg2;
 626:../../source/src/FWlib/src/stm32f10x_adc.c ****     /* Store the new register value */
 627:../../source/src/FWlib/src/stm32f10x_adc.c ****     ADCx->SMPR2 = tmpreg1;
 628:../../source/src/FWlib/src/stm32f10x_adc.c ****   }
 629:../../source/src/FWlib/src/stm32f10x_adc.c ****   /* For Rank 1 to 6 */
 630:../../source/src/FWlib/src/stm32f10x_adc.c ****   if (Rank < 7)
 619              		.loc 1 630 0
 620 0188 062A     		cmp	r2, #6
 612:../../source/src/FWlib/src/stm32f10x_adc.c ****   }
 621              		.loc 1 612 0
 622 018a C360     		str	r3, [r0, #12]
 631:../../source/src/FWlib/src/stm32f10x_adc.c ****   {
 632:../../source/src/FWlib/src/stm32f10x_adc.c ****     /* Get the old register value */
 633:../../source/src/FWlib/src/stm32f10x_adc.c ****     tmpreg1 = ADCx->SQR3;
 634:../../source/src/FWlib/src/stm32f10x_adc.c ****     /* Calculate the mask to clear */
 635:../../source/src/FWlib/src/stm32f10x_adc.c ****     tmpreg2 = SQR3_SQ_Set << (5 * (Rank - 1));
 623              		.loc 1 635 0
 624 018c 4FF01F04 		mov	r4, #31
 630:../../source/src/FWlib/src/stm32f10x_adc.c ****   {
 625              		.loc 1 630 0
 626 0190 1BD9     		bls	.L47
 627              	.L44:
 636:../../source/src/FWlib/src/stm32f10x_adc.c ****     /* Clear the old SQx bits for the selected rank */
 637:../../source/src/FWlib/src/stm32f10x_adc.c ****     tmpreg1 &= ~tmpreg2;
 638:../../source/src/FWlib/src/stm32f10x_adc.c ****     /* Calculate the mask to set */
 639:../../source/src/FWlib/src/stm32f10x_adc.c ****     tmpreg2 = (uint32_t)ADC_Channel << (5 * (Rank - 1));
 640:../../source/src/FWlib/src/stm32f10x_adc.c ****     /* Set the SQx bits for the selected rank */
 641:../../source/src/FWlib/src/stm32f10x_adc.c ****     tmpreg1 |= tmpreg2;
 642:../../source/src/FWlib/src/stm32f10x_adc.c ****     /* Store the new register value */
 643:../../source/src/FWlib/src/stm32f10x_adc.c ****     ADCx->SQR3 = tmpreg1;
 644:../../source/src/FWlib/src/stm32f10x_adc.c ****   }
 645:../../source/src/FWlib/src/stm32f10x_adc.c ****   /* For Rank 7 to 12 */
 646:../../source/src/FWlib/src/stm32f10x_adc.c ****   else if (Rank < 13)
 628              		.loc 1 646 0
 629 0192 0C2A     		cmp	r2, #12
 630 0194 25D9     		bls	.L48
 647:../../source/src/FWlib/src/stm32f10x_adc.c ****   {
 648:../../source/src/FWlib/src/stm32f10x_adc.c ****     /* Get the old register value */
 649:../../source/src/FWlib/src/stm32f10x_adc.c ****     tmpreg1 = ADCx->SQR2;
 650:../../source/src/FWlib/src/stm32f10x_adc.c ****     /* Calculate the mask to clear */
ARM GAS  G:\Users\Jaxb\AppData\Local\Temp\ccclxmrG.s 			page 24


 651:../../source/src/FWlib/src/stm32f10x_adc.c ****     tmpreg2 = SQR2_SQ_Set << (5 * (Rank - 7));
 652:../../source/src/FWlib/src/stm32f10x_adc.c ****     /* Clear the old SQx bits for the selected rank */
 653:../../source/src/FWlib/src/stm32f10x_adc.c ****     tmpreg1 &= ~tmpreg2;
 654:../../source/src/FWlib/src/stm32f10x_adc.c ****     /* Calculate the mask to set */
 655:../../source/src/FWlib/src/stm32f10x_adc.c ****     tmpreg2 = (uint32_t)ADC_Channel << (5 * (Rank - 7));
 656:../../source/src/FWlib/src/stm32f10x_adc.c ****     /* Set the SQx bits for the selected rank */
 657:../../source/src/FWlib/src/stm32f10x_adc.c ****     tmpreg1 |= tmpreg2;
 658:../../source/src/FWlib/src/stm32f10x_adc.c ****     /* Store the new register value */
 659:../../source/src/FWlib/src/stm32f10x_adc.c ****     ADCx->SQR2 = tmpreg1;
 660:../../source/src/FWlib/src/stm32f10x_adc.c ****   }
 661:../../source/src/FWlib/src/stm32f10x_adc.c ****   /* For Rank 13 to 16 */
 662:../../source/src/FWlib/src/stm32f10x_adc.c ****   else
 663:../../source/src/FWlib/src/stm32f10x_adc.c ****   {
 664:../../source/src/FWlib/src/stm32f10x_adc.c ****     /* Get the old register value */
 665:../../source/src/FWlib/src/stm32f10x_adc.c ****     tmpreg1 = ADCx->SQR1;
 666:../../source/src/FWlib/src/stm32f10x_adc.c ****     /* Calculate the mask to clear */
 667:../../source/src/FWlib/src/stm32f10x_adc.c ****     tmpreg2 = SQR1_SQ_Set << (5 * (Rank - 13));
 631              		.loc 1 667 0
 632 0196 0D3A     		subs	r2, r2, #13
 633              	.LVL51:
 634 0198 02EB8202 		add	r2, r2, r2, lsl #2
 665:../../source/src/FWlib/src/stm32f10x_adc.c ****     /* Calculate the mask to clear */
 635              		.loc 1 665 0
 636 019c C36A     		ldr	r3, [r0, #44]
 637              	.LVL52:
 638              		.loc 1 667 0
 639 019e 9440     		lsls	r4, r4, r2
 668:../../source/src/FWlib/src/stm32f10x_adc.c ****     /* Clear the old SQx bits for the selected rank */
 669:../../source/src/FWlib/src/stm32f10x_adc.c ****     tmpreg1 &= ~tmpreg2;
 670:../../source/src/FWlib/src/stm32f10x_adc.c ****     /* Calculate the mask to set */
 671:../../source/src/FWlib/src/stm32f10x_adc.c ****     tmpreg2 = (uint32_t)ADC_Channel << (5 * (Rank - 13));
 640              		.loc 1 671 0
 641 01a0 9140     		lsls	r1, r1, r2
 642              	.LVL53:
 669:../../source/src/FWlib/src/stm32f10x_adc.c ****     /* Calculate the mask to set */
 643              		.loc 1 669 0
 644 01a2 23EA0402 		bic	r2, r3, r4
 645              	.LVL54:
 672:../../source/src/FWlib/src/stm32f10x_adc.c ****     /* Set the SQx bits for the selected rank */
 673:../../source/src/FWlib/src/stm32f10x_adc.c ****     tmpreg1 |= tmpreg2;
 646              		.loc 1 673 0
 647 01a6 1143     		orrs	r1, r1, r2
 648              	.LVL55:
 674:../../source/src/FWlib/src/stm32f10x_adc.c ****     /* Store the new register value */
 675:../../source/src/FWlib/src/stm32f10x_adc.c ****     ADCx->SQR1 = tmpreg1;
 649              		.loc 1 675 0
 650 01a8 C162     		str	r1, [r0, #44]
 676:../../source/src/FWlib/src/stm32f10x_adc.c ****   }
 677:../../source/src/FWlib/src/stm32f10x_adc.c **** }
 651              		.loc 1 677 0
 652 01aa 70BC     		pop	{r4, r5, r6}
 653              	.LCFI9:
 654              		.cfi_remember_state
 655              		.cfi_restore 6
 656              		.cfi_restore 5
 657              		.cfi_restore 4
 658              		.cfi_def_cfa_offset 0
ARM GAS  G:\Users\Jaxb\AppData\Local\Temp\ccclxmrG.s 			page 25


 659 01ac 7047     		bx	lr
 660              	.LVL56:
 661              	.L42:
 662              	.LCFI10:
 663              		.cfi_restore_state
 619:../../source/src/FWlib/src/stm32f10x_adc.c ****     /* Clear the old channel sample time */
 664              		.loc 1 619 0
 665 01ae 0725     		movs	r5, #7
 666 01b0 01EB4106 		add	r6, r1, r1, lsl #1
 617:../../source/src/FWlib/src/stm32f10x_adc.c ****     /* Calculate the mask to clear */
 667              		.loc 1 617 0
 668 01b4 0469     		ldr	r4, [r0, #16]
 669              	.LVL57:
 619:../../source/src/FWlib/src/stm32f10x_adc.c ****     /* Clear the old channel sample time */
 670              		.loc 1 619 0
 671 01b6 B540     		lsls	r5, r5, r6
 672              	.LVL58:
 621:../../source/src/FWlib/src/stm32f10x_adc.c ****     /* Calculate the mask to set */
 673              		.loc 1 621 0
 674 01b8 24EA0504 		bic	r4, r4, r5
 675              	.LVL59:
 623:../../source/src/FWlib/src/stm32f10x_adc.c ****     /* Set the new channel sample time */
 676              		.loc 1 623 0
 677 01bc B340     		lsls	r3, r3, r6
 678              	.LVL60:
 625:../../source/src/FWlib/src/stm32f10x_adc.c ****     /* Store the new register value */
 679              		.loc 1 625 0
 680 01be 2343     		orrs	r3, r3, r4
 681              	.LVL61:
 630:../../source/src/FWlib/src/stm32f10x_adc.c ****   {
 682              		.loc 1 630 0
 683 01c0 062A     		cmp	r2, #6
 627:../../source/src/FWlib/src/stm32f10x_adc.c ****   }
 684              		.loc 1 627 0
 685 01c2 0361     		str	r3, [r0, #16]
 635:../../source/src/FWlib/src/stm32f10x_adc.c ****     /* Clear the old SQx bits for the selected rank */
 686              		.loc 1 635 0
 687 01c4 4FF01F04 		mov	r4, #31
 630:../../source/src/FWlib/src/stm32f10x_adc.c ****   {
 688              		.loc 1 630 0
 689 01c8 E3D8     		bhi	.L44
 690              	.L47:
 635:../../source/src/FWlib/src/stm32f10x_adc.c ****     /* Clear the old SQx bits for the selected rank */
 691              		.loc 1 635 0
 692 01ca 013A     		subs	r2, r2, #1
 693              	.LVL62:
 694 01cc 02EB8202 		add	r2, r2, r2, lsl #2
 633:../../source/src/FWlib/src/stm32f10x_adc.c ****     /* Calculate the mask to clear */
 695              		.loc 1 633 0
 696 01d0 436B     		ldr	r3, [r0, #52]
 697              	.LVL63:
 635:../../source/src/FWlib/src/stm32f10x_adc.c ****     /* Clear the old SQx bits for the selected rank */
 698              		.loc 1 635 0
 699 01d2 9440     		lsls	r4, r4, r2
 639:../../source/src/FWlib/src/stm32f10x_adc.c ****     /* Set the SQx bits for the selected rank */
 700              		.loc 1 639 0
 701 01d4 9140     		lsls	r1, r1, r2
ARM GAS  G:\Users\Jaxb\AppData\Local\Temp\ccclxmrG.s 			page 26


 702              	.LVL64:
 637:../../source/src/FWlib/src/stm32f10x_adc.c ****     /* Calculate the mask to set */
 703              		.loc 1 637 0
 704 01d6 23EA0402 		bic	r2, r3, r4
 705              	.LVL65:
 641:../../source/src/FWlib/src/stm32f10x_adc.c ****     /* Store the new register value */
 706              		.loc 1 641 0
 707 01da 1143     		orrs	r1, r1, r2
 708              	.LVL66:
 643:../../source/src/FWlib/src/stm32f10x_adc.c ****   }
 709              		.loc 1 643 0
 710 01dc 4163     		str	r1, [r0, #52]
 711              		.loc 1 677 0
 712 01de 70BC     		pop	{r4, r5, r6}
 713              	.LCFI11:
 714              		.cfi_remember_state
 715              		.cfi_restore 6
 716              		.cfi_restore 5
 717              		.cfi_restore 4
 718              		.cfi_def_cfa_offset 0
 719 01e0 7047     		bx	lr
 720              	.LVL67:
 721              	.L48:
 722              	.LCFI12:
 723              		.cfi_restore_state
 651:../../source/src/FWlib/src/stm32f10x_adc.c ****     /* Clear the old SQx bits for the selected rank */
 724              		.loc 1 651 0
 725 01e2 073A     		subs	r2, r2, #7
 726              	.LVL68:
 727 01e4 02EB8202 		add	r2, r2, r2, lsl #2
 649:../../source/src/FWlib/src/stm32f10x_adc.c ****     /* Calculate the mask to clear */
 728              		.loc 1 649 0
 729 01e8 036B     		ldr	r3, [r0, #48]
 730              	.LVL69:
 651:../../source/src/FWlib/src/stm32f10x_adc.c ****     /* Clear the old SQx bits for the selected rank */
 731              		.loc 1 651 0
 732 01ea 9440     		lsls	r4, r4, r2
 655:../../source/src/FWlib/src/stm32f10x_adc.c ****     /* Set the SQx bits for the selected rank */
 733              		.loc 1 655 0
 734 01ec 9140     		lsls	r1, r1, r2
 735              	.LVL70:
 653:../../source/src/FWlib/src/stm32f10x_adc.c ****     /* Calculate the mask to set */
 736              		.loc 1 653 0
 737 01ee 23EA0402 		bic	r2, r3, r4
 738              	.LVL71:
 657:../../source/src/FWlib/src/stm32f10x_adc.c ****     /* Store the new register value */
 739              		.loc 1 657 0
 740 01f2 1143     		orrs	r1, r1, r2
 741              	.LVL72:
 659:../../source/src/FWlib/src/stm32f10x_adc.c ****   }
 742              		.loc 1 659 0
 743 01f4 0163     		str	r1, [r0, #48]
 744              		.loc 1 677 0
 745 01f6 70BC     		pop	{r4, r5, r6}
 746              	.LCFI13:
 747              		.cfi_restore 6
 748              		.cfi_restore 5
ARM GAS  G:\Users\Jaxb\AppData\Local\Temp\ccclxmrG.s 			page 27


 749              		.cfi_restore 4
 750              		.cfi_def_cfa_offset 0
 751 01f8 7047     		bx	lr
 752              		.cfi_endproc
 753              	.LFE43:
 754              		.size	ADC_RegularChannelConfig, .-ADC_RegularChannelConfig
 755              		.align	1
 756 01fa 00BF     		.p2align 2,,3
 757              		.global	ADC_ExternalTrigConvCmd
 758              		.syntax unified
 759              		.thumb
 760              		.thumb_func
 761              		.fpu softvfp
 762              		.type	ADC_ExternalTrigConvCmd, %function
 763              	ADC_ExternalTrigConvCmd:
 764              	.LFB44:
 678:../../source/src/FWlib/src/stm32f10x_adc.c **** 
 679:../../source/src/FWlib/src/stm32f10x_adc.c **** /**
 680:../../source/src/FWlib/src/stm32f10x_adc.c ****   * @brief  Enables or disables the ADCx conversion through external trigger.
 681:../../source/src/FWlib/src/stm32f10x_adc.c ****   * @param  ADCx: where x can be 1, 2 or 3 to select the ADC peripheral.
 682:../../source/src/FWlib/src/stm32f10x_adc.c ****   * @param  NewState: new state of the selected ADC external trigger start of conversion.
 683:../../source/src/FWlib/src/stm32f10x_adc.c ****   *   This parameter can be: ENABLE or DISABLE.
 684:../../source/src/FWlib/src/stm32f10x_adc.c ****   * @retval None
 685:../../source/src/FWlib/src/stm32f10x_adc.c ****   */
 686:../../source/src/FWlib/src/stm32f10x_adc.c **** void ADC_ExternalTrigConvCmd(ADC_TypeDef* ADCx, FunctionalState NewState)
 687:../../source/src/FWlib/src/stm32f10x_adc.c **** {
 765              		.loc 1 687 0
 766              		.cfi_startproc
 767              		@ args = 0, pretend = 0, frame = 0
 768              		@ frame_needed = 0, uses_anonymous_args = 0
 769              		@ link register save eliminated.
 770              	.LVL73:
 688:../../source/src/FWlib/src/stm32f10x_adc.c ****   /* Check the parameters */
 689:../../source/src/FWlib/src/stm32f10x_adc.c ****   assert_param(IS_ADC_ALL_PERIPH(ADCx));
 690:../../source/src/FWlib/src/stm32f10x_adc.c ****   assert_param(IS_FUNCTIONAL_STATE(NewState));
 691:../../source/src/FWlib/src/stm32f10x_adc.c ****   if (NewState != DISABLE)
 692:../../source/src/FWlib/src/stm32f10x_adc.c ****   {
 693:../../source/src/FWlib/src/stm32f10x_adc.c ****     /* Enable the selected ADC conversion on external event */
 694:../../source/src/FWlib/src/stm32f10x_adc.c ****     ADCx->CR2 |= CR2_EXTTRIG_Set;
 771              		.loc 1 694 0
 772 01fc 8368     		ldr	r3, [r0, #8]
 691:../../source/src/FWlib/src/stm32f10x_adc.c ****   {
 773              		.loc 1 691 0
 774 01fe 19B9     		cbnz	r1, .L52
 695:../../source/src/FWlib/src/stm32f10x_adc.c ****   }
 696:../../source/src/FWlib/src/stm32f10x_adc.c ****   else
 697:../../source/src/FWlib/src/stm32f10x_adc.c ****   {
 698:../../source/src/FWlib/src/stm32f10x_adc.c ****     /* Disable the selected ADC conversion on external event */
 699:../../source/src/FWlib/src/stm32f10x_adc.c ****     ADCx->CR2 &= CR2_EXTTRIG_Reset;
 775              		.loc 1 699 0
 776 0200 23F48013 		bic	r3, r3, #1048576
 777 0204 8360     		str	r3, [r0, #8]
 700:../../source/src/FWlib/src/stm32f10x_adc.c ****   }
 701:../../source/src/FWlib/src/stm32f10x_adc.c **** }
 778              		.loc 1 701 0
 779 0206 7047     		bx	lr
 780              	.L52:
ARM GAS  G:\Users\Jaxb\AppData\Local\Temp\ccclxmrG.s 			page 28


 694:../../source/src/FWlib/src/stm32f10x_adc.c ****   }
 781              		.loc 1 694 0
 782 0208 43F48013 		orr	r3, r3, #1048576
 783 020c 8360     		str	r3, [r0, #8]
 784 020e 7047     		bx	lr
 785              		.cfi_endproc
 786              	.LFE44:
 787              		.size	ADC_ExternalTrigConvCmd, .-ADC_ExternalTrigConvCmd
 788              		.align	1
 789              		.p2align 2,,3
 790              		.global	ADC_GetConversionValue
 791              		.syntax unified
 792              		.thumb
 793              		.thumb_func
 794              		.fpu softvfp
 795              		.type	ADC_GetConversionValue, %function
 796              	ADC_GetConversionValue:
 797              	.LFB45:
 702:../../source/src/FWlib/src/stm32f10x_adc.c **** 
 703:../../source/src/FWlib/src/stm32f10x_adc.c **** /**
 704:../../source/src/FWlib/src/stm32f10x_adc.c ****   * @brief  Returns the last ADCx conversion result data for regular channel.
 705:../../source/src/FWlib/src/stm32f10x_adc.c ****   * @param  ADCx: where x can be 1, 2 or 3 to select the ADC peripheral.
 706:../../source/src/FWlib/src/stm32f10x_adc.c ****   * @retval The Data conversion value.
 707:../../source/src/FWlib/src/stm32f10x_adc.c ****   */
 708:../../source/src/FWlib/src/stm32f10x_adc.c **** uint16_t ADC_GetConversionValue(ADC_TypeDef* ADCx)
 709:../../source/src/FWlib/src/stm32f10x_adc.c **** {
 798              		.loc 1 709 0
 799              		.cfi_startproc
 800              		@ args = 0, pretend = 0, frame = 0
 801              		@ frame_needed = 0, uses_anonymous_args = 0
 802              		@ link register save eliminated.
 803              	.LVL74:
 710:../../source/src/FWlib/src/stm32f10x_adc.c ****   /* Check the parameters */
 711:../../source/src/FWlib/src/stm32f10x_adc.c ****   assert_param(IS_ADC_ALL_PERIPH(ADCx));
 712:../../source/src/FWlib/src/stm32f10x_adc.c ****   /* Return the selected ADC conversion value */
 713:../../source/src/FWlib/src/stm32f10x_adc.c ****   return (uint16_t) ADCx->DR;
 804              		.loc 1 713 0
 805 0210 C06C     		ldr	r0, [r0, #76]
 806              	.LVL75:
 714:../../source/src/FWlib/src/stm32f10x_adc.c **** }
 807              		.loc 1 714 0
 808 0212 80B2     		uxth	r0, r0
 809 0214 7047     		bx	lr
 810              		.cfi_endproc
 811              	.LFE45:
 812              		.size	ADC_GetConversionValue, .-ADC_GetConversionValue
 813              		.align	1
 814 0216 00BF     		.p2align 2,,3
 815              		.global	ADC_GetDualModeConversionValue
 816              		.syntax unified
 817              		.thumb
 818              		.thumb_func
 819              		.fpu softvfp
 820              		.type	ADC_GetDualModeConversionValue, %function
 821              	ADC_GetDualModeConversionValue:
 822              	.LFB46:
 715:../../source/src/FWlib/src/stm32f10x_adc.c **** 
ARM GAS  G:\Users\Jaxb\AppData\Local\Temp\ccclxmrG.s 			page 29


 716:../../source/src/FWlib/src/stm32f10x_adc.c **** /**
 717:../../source/src/FWlib/src/stm32f10x_adc.c ****   * @brief  Returns the last ADC1 and ADC2 conversion result data in dual mode.
 718:../../source/src/FWlib/src/stm32f10x_adc.c ****   * @retval The Data conversion value.
 719:../../source/src/FWlib/src/stm32f10x_adc.c ****   */
 720:../../source/src/FWlib/src/stm32f10x_adc.c **** uint32_t ADC_GetDualModeConversionValue(void)
 721:../../source/src/FWlib/src/stm32f10x_adc.c **** {
 823              		.loc 1 721 0
 824              		.cfi_startproc
 825              		@ args = 0, pretend = 0, frame = 0
 826              		@ frame_needed = 0, uses_anonymous_args = 0
 827              		@ link register save eliminated.
 722:../../source/src/FWlib/src/stm32f10x_adc.c ****   /* Return the dual mode conversion value */
 723:../../source/src/FWlib/src/stm32f10x_adc.c ****   return (*(__IO uint32_t *) DR_ADDRESS);
 828              		.loc 1 723 0
 829 0218 014B     		ldr	r3, .L55
 830 021a 1868     		ldr	r0, [r3]
 724:../../source/src/FWlib/src/stm32f10x_adc.c **** }
 831              		.loc 1 724 0
 832 021c 7047     		bx	lr
 833              	.L56:
 834 021e 00BF     		.align	2
 835              	.L55:
 836 0220 4C240140 		.word	1073816652
 837              		.cfi_endproc
 838              	.LFE46:
 839              		.size	ADC_GetDualModeConversionValue, .-ADC_GetDualModeConversionValue
 840              		.align	1
 841              		.p2align 2,,3
 842              		.global	ADC_AutoInjectedConvCmd
 843              		.syntax unified
 844              		.thumb
 845              		.thumb_func
 846              		.fpu softvfp
 847              		.type	ADC_AutoInjectedConvCmd, %function
 848              	ADC_AutoInjectedConvCmd:
 849              	.LFB47:
 725:../../source/src/FWlib/src/stm32f10x_adc.c **** 
 726:../../source/src/FWlib/src/stm32f10x_adc.c **** /**
 727:../../source/src/FWlib/src/stm32f10x_adc.c ****   * @brief  Enables or disables the selected ADC automatic injected group
 728:../../source/src/FWlib/src/stm32f10x_adc.c ****   *         conversion after regular one.
 729:../../source/src/FWlib/src/stm32f10x_adc.c ****   * @param  ADCx: where x can be 1, 2 or 3 to select the ADC peripheral.
 730:../../source/src/FWlib/src/stm32f10x_adc.c ****   * @param  NewState: new state of the selected ADC auto injected conversion
 731:../../source/src/FWlib/src/stm32f10x_adc.c ****   *   This parameter can be: ENABLE or DISABLE.
 732:../../source/src/FWlib/src/stm32f10x_adc.c ****   * @retval None
 733:../../source/src/FWlib/src/stm32f10x_adc.c ****   */
 734:../../source/src/FWlib/src/stm32f10x_adc.c **** void ADC_AutoInjectedConvCmd(ADC_TypeDef* ADCx, FunctionalState NewState)
 735:../../source/src/FWlib/src/stm32f10x_adc.c **** {
 850              		.loc 1 735 0
 851              		.cfi_startproc
 852              		@ args = 0, pretend = 0, frame = 0
 853              		@ frame_needed = 0, uses_anonymous_args = 0
 854              		@ link register save eliminated.
 855              	.LVL76:
 736:../../source/src/FWlib/src/stm32f10x_adc.c ****   /* Check the parameters */
 737:../../source/src/FWlib/src/stm32f10x_adc.c ****   assert_param(IS_ADC_ALL_PERIPH(ADCx));
 738:../../source/src/FWlib/src/stm32f10x_adc.c ****   assert_param(IS_FUNCTIONAL_STATE(NewState));
 739:../../source/src/FWlib/src/stm32f10x_adc.c ****   if (NewState != DISABLE)
ARM GAS  G:\Users\Jaxb\AppData\Local\Temp\ccclxmrG.s 			page 30


 740:../../source/src/FWlib/src/stm32f10x_adc.c ****   {
 741:../../source/src/FWlib/src/stm32f10x_adc.c ****     /* Enable the selected ADC automatic injected group conversion */
 742:../../source/src/FWlib/src/stm32f10x_adc.c ****     ADCx->CR1 |= CR1_JAUTO_Set;
 856              		.loc 1 742 0
 857 0224 4368     		ldr	r3, [r0, #4]
 739:../../source/src/FWlib/src/stm32f10x_adc.c ****   {
 858              		.loc 1 739 0
 859 0226 19B9     		cbnz	r1, .L60
 743:../../source/src/FWlib/src/stm32f10x_adc.c ****   }
 744:../../source/src/FWlib/src/stm32f10x_adc.c ****   else
 745:../../source/src/FWlib/src/stm32f10x_adc.c ****   {
 746:../../source/src/FWlib/src/stm32f10x_adc.c ****     /* Disable the selected ADC automatic injected group conversion */
 747:../../source/src/FWlib/src/stm32f10x_adc.c ****     ADCx->CR1 &= CR1_JAUTO_Reset;
 860              		.loc 1 747 0
 861 0228 23F48063 		bic	r3, r3, #1024
 862 022c 4360     		str	r3, [r0, #4]
 748:../../source/src/FWlib/src/stm32f10x_adc.c ****   }
 749:../../source/src/FWlib/src/stm32f10x_adc.c **** }
 863              		.loc 1 749 0
 864 022e 7047     		bx	lr
 865              	.L60:
 742:../../source/src/FWlib/src/stm32f10x_adc.c ****   }
 866              		.loc 1 742 0
 867 0230 43F48063 		orr	r3, r3, #1024
 868 0234 4360     		str	r3, [r0, #4]
 869 0236 7047     		bx	lr
 870              		.cfi_endproc
 871              	.LFE47:
 872              		.size	ADC_AutoInjectedConvCmd, .-ADC_AutoInjectedConvCmd
 873              		.align	1
 874              		.p2align 2,,3
 875              		.global	ADC_InjectedDiscModeCmd
 876              		.syntax unified
 877              		.thumb
 878              		.thumb_func
 879              		.fpu softvfp
 880              		.type	ADC_InjectedDiscModeCmd, %function
 881              	ADC_InjectedDiscModeCmd:
 882              	.LFB48:
 750:../../source/src/FWlib/src/stm32f10x_adc.c **** 
 751:../../source/src/FWlib/src/stm32f10x_adc.c **** /**
 752:../../source/src/FWlib/src/stm32f10x_adc.c ****   * @brief  Enables or disables the discontinuous mode for injected group
 753:../../source/src/FWlib/src/stm32f10x_adc.c ****   *         channel for the specified ADC
 754:../../source/src/FWlib/src/stm32f10x_adc.c ****   * @param  ADCx: where x can be 1, 2 or 3 to select the ADC peripheral.
 755:../../source/src/FWlib/src/stm32f10x_adc.c ****   * @param  NewState: new state of the selected ADC discontinuous mode
 756:../../source/src/FWlib/src/stm32f10x_adc.c ****   *         on injected group channel.
 757:../../source/src/FWlib/src/stm32f10x_adc.c ****   *   This parameter can be: ENABLE or DISABLE.
 758:../../source/src/FWlib/src/stm32f10x_adc.c ****   * @retval None
 759:../../source/src/FWlib/src/stm32f10x_adc.c ****   */
 760:../../source/src/FWlib/src/stm32f10x_adc.c **** void ADC_InjectedDiscModeCmd(ADC_TypeDef* ADCx, FunctionalState NewState)
 761:../../source/src/FWlib/src/stm32f10x_adc.c **** {
 883              		.loc 1 761 0
 884              		.cfi_startproc
 885              		@ args = 0, pretend = 0, frame = 0
 886              		@ frame_needed = 0, uses_anonymous_args = 0
 887              		@ link register save eliminated.
 888              	.LVL77:
ARM GAS  G:\Users\Jaxb\AppData\Local\Temp\ccclxmrG.s 			page 31


 762:../../source/src/FWlib/src/stm32f10x_adc.c ****   /* Check the parameters */
 763:../../source/src/FWlib/src/stm32f10x_adc.c ****   assert_param(IS_ADC_ALL_PERIPH(ADCx));
 764:../../source/src/FWlib/src/stm32f10x_adc.c ****   assert_param(IS_FUNCTIONAL_STATE(NewState));
 765:../../source/src/FWlib/src/stm32f10x_adc.c ****   if (NewState != DISABLE)
 766:../../source/src/FWlib/src/stm32f10x_adc.c ****   {
 767:../../source/src/FWlib/src/stm32f10x_adc.c ****     /* Enable the selected ADC injected discontinuous mode */
 768:../../source/src/FWlib/src/stm32f10x_adc.c ****     ADCx->CR1 |= CR1_JDISCEN_Set;
 889              		.loc 1 768 0
 890 0238 4368     		ldr	r3, [r0, #4]
 765:../../source/src/FWlib/src/stm32f10x_adc.c ****   {
 891              		.loc 1 765 0
 892 023a 19B9     		cbnz	r1, .L64
 769:../../source/src/FWlib/src/stm32f10x_adc.c ****   }
 770:../../source/src/FWlib/src/stm32f10x_adc.c ****   else
 771:../../source/src/FWlib/src/stm32f10x_adc.c ****   {
 772:../../source/src/FWlib/src/stm32f10x_adc.c ****     /* Disable the selected ADC injected discontinuous mode */
 773:../../source/src/FWlib/src/stm32f10x_adc.c ****     ADCx->CR1 &= CR1_JDISCEN_Reset;
 893              		.loc 1 773 0
 894 023c 23F48053 		bic	r3, r3, #4096
 895 0240 4360     		str	r3, [r0, #4]
 774:../../source/src/FWlib/src/stm32f10x_adc.c ****   }
 775:../../source/src/FWlib/src/stm32f10x_adc.c **** }
 896              		.loc 1 775 0
 897 0242 7047     		bx	lr
 898              	.L64:
 768:../../source/src/FWlib/src/stm32f10x_adc.c ****   }
 899              		.loc 1 768 0
 900 0244 43F48053 		orr	r3, r3, #4096
 901 0248 4360     		str	r3, [r0, #4]
 902 024a 7047     		bx	lr
 903              		.cfi_endproc
 904              	.LFE48:
 905              		.size	ADC_InjectedDiscModeCmd, .-ADC_InjectedDiscModeCmd
 906              		.align	1
 907              		.p2align 2,,3
 908              		.global	ADC_ExternalTrigInjectedConvConfig
 909              		.syntax unified
 910              		.thumb
 911              		.thumb_func
 912              		.fpu softvfp
 913              		.type	ADC_ExternalTrigInjectedConvConfig, %function
 914              	ADC_ExternalTrigInjectedConvConfig:
 915              	.LFB49:
 776:../../source/src/FWlib/src/stm32f10x_adc.c **** 
 777:../../source/src/FWlib/src/stm32f10x_adc.c **** /**
 778:../../source/src/FWlib/src/stm32f10x_adc.c ****   * @brief  Configures the ADCx external trigger for injected channels conversion.
 779:../../source/src/FWlib/src/stm32f10x_adc.c ****   * @param  ADCx: where x can be 1, 2 or 3 to select the ADC peripheral.
 780:../../source/src/FWlib/src/stm32f10x_adc.c ****   * @param  ADC_ExternalTrigInjecConv: specifies the ADC trigger to start injected conversion. 
 781:../../source/src/FWlib/src/stm32f10x_adc.c ****   *   This parameter can be one of the following values:
 782:../../source/src/FWlib/src/stm32f10x_adc.c ****   *     @arg ADC_ExternalTrigInjecConv_T1_TRGO: Timer1 TRGO event selected (for ADC1, ADC2 and ADC3
 783:../../source/src/FWlib/src/stm32f10x_adc.c ****   *     @arg ADC_ExternalTrigInjecConv_T1_CC4: Timer1 capture compare4 selected (for ADC1, ADC2 and
 784:../../source/src/FWlib/src/stm32f10x_adc.c ****   *     @arg ADC_ExternalTrigInjecConv_T2_TRGO: Timer2 TRGO event selected (for ADC1 and ADC2)
 785:../../source/src/FWlib/src/stm32f10x_adc.c ****   *     @arg ADC_ExternalTrigInjecConv_T2_CC1: Timer2 capture compare1 selected (for ADC1 and ADC2)
 786:../../source/src/FWlib/src/stm32f10x_adc.c ****   *     @arg ADC_ExternalTrigInjecConv_T3_CC4: Timer3 capture compare4 selected (for ADC1 and ADC2)
 787:../../source/src/FWlib/src/stm32f10x_adc.c ****   *     @arg ADC_ExternalTrigInjecConv_T4_TRGO: Timer4 TRGO event selected (for ADC1 and ADC2)
 788:../../source/src/FWlib/src/stm32f10x_adc.c ****   *     @arg ADC_ExternalTrigInjecConv_Ext_IT15_TIM8_CC4: External interrupt line 15 or Timer8
 789:../../source/src/FWlib/src/stm32f10x_adc.c ****   *                                                       capture compare4 event selected (for ADC1
ARM GAS  G:\Users\Jaxb\AppData\Local\Temp\ccclxmrG.s 			page 32


 790:../../source/src/FWlib/src/stm32f10x_adc.c ****   *     @arg ADC_ExternalTrigInjecConv_T4_CC3: Timer4 capture compare3 selected (for ADC3 only)
 791:../../source/src/FWlib/src/stm32f10x_adc.c ****   *     @arg ADC_ExternalTrigInjecConv_T8_CC2: Timer8 capture compare2 selected (for ADC3 only)    
 792:../../source/src/FWlib/src/stm32f10x_adc.c ****   *     @arg ADC_ExternalTrigInjecConv_T8_CC4: Timer8 capture compare4 selected (for ADC3 only)
 793:../../source/src/FWlib/src/stm32f10x_adc.c ****   *     @arg ADC_ExternalTrigInjecConv_T5_TRGO: Timer5 TRGO event selected (for ADC3 only)         
 794:../../source/src/FWlib/src/stm32f10x_adc.c ****   *     @arg ADC_ExternalTrigInjecConv_T5_CC4: Timer5 capture compare4 selected (for ADC3 only)    
 795:../../source/src/FWlib/src/stm32f10x_adc.c ****   *     @arg ADC_ExternalTrigInjecConv_None: Injected conversion started by software and not
 796:../../source/src/FWlib/src/stm32f10x_adc.c ****   *                                          by external trigger (for ADC1, ADC2 and ADC3)
 797:../../source/src/FWlib/src/stm32f10x_adc.c ****   * @retval None
 798:../../source/src/FWlib/src/stm32f10x_adc.c ****   */
 799:../../source/src/FWlib/src/stm32f10x_adc.c **** void ADC_ExternalTrigInjectedConvConfig(ADC_TypeDef* ADCx, uint32_t ADC_ExternalTrigInjecConv)
 800:../../source/src/FWlib/src/stm32f10x_adc.c **** {
 916              		.loc 1 800 0
 917              		.cfi_startproc
 918              		@ args = 0, pretend = 0, frame = 0
 919              		@ frame_needed = 0, uses_anonymous_args = 0
 920              		@ link register save eliminated.
 921              	.LVL78:
 801:../../source/src/FWlib/src/stm32f10x_adc.c ****   uint32_t tmpreg = 0;
 802:../../source/src/FWlib/src/stm32f10x_adc.c ****   /* Check the parameters */
 803:../../source/src/FWlib/src/stm32f10x_adc.c ****   assert_param(IS_ADC_ALL_PERIPH(ADCx));
 804:../../source/src/FWlib/src/stm32f10x_adc.c ****   assert_param(IS_ADC_EXT_INJEC_TRIG(ADC_ExternalTrigInjecConv));
 805:../../source/src/FWlib/src/stm32f10x_adc.c ****   /* Get the old register value */
 806:../../source/src/FWlib/src/stm32f10x_adc.c ****   tmpreg = ADCx->CR2;
 922              		.loc 1 806 0
 923 024c 8368     		ldr	r3, [r0, #8]
 924              	.LVL79:
 807:../../source/src/FWlib/src/stm32f10x_adc.c ****   /* Clear the old external event selection for injected group */
 808:../../source/src/FWlib/src/stm32f10x_adc.c ****   tmpreg &= CR2_JEXTSEL_Reset;
 925              		.loc 1 808 0
 926 024e 23F4E043 		bic	r3, r3, #28672
 927              	.LVL80:
 809:../../source/src/FWlib/src/stm32f10x_adc.c ****   /* Set the external event selection for injected group */
 810:../../source/src/FWlib/src/stm32f10x_adc.c ****   tmpreg |= ADC_ExternalTrigInjecConv;
 928              		.loc 1 810 0
 929 0252 1943     		orrs	r1, r1, r3
 930              	.LVL81:
 811:../../source/src/FWlib/src/stm32f10x_adc.c ****   /* Store the new register value */
 812:../../source/src/FWlib/src/stm32f10x_adc.c ****   ADCx->CR2 = tmpreg;
 931              		.loc 1 812 0
 932 0254 8160     		str	r1, [r0, #8]
 813:../../source/src/FWlib/src/stm32f10x_adc.c **** }
 933              		.loc 1 813 0
 934 0256 7047     		bx	lr
 935              		.cfi_endproc
 936              	.LFE49:
 937              		.size	ADC_ExternalTrigInjectedConvConfig, .-ADC_ExternalTrigInjectedConvConfig
 938              		.align	1
 939              		.p2align 2,,3
 940              		.global	ADC_ExternalTrigInjectedConvCmd
 941              		.syntax unified
 942              		.thumb
 943              		.thumb_func
 944              		.fpu softvfp
 945              		.type	ADC_ExternalTrigInjectedConvCmd, %function
 946              	ADC_ExternalTrigInjectedConvCmd:
 947              	.LFB50:
 814:../../source/src/FWlib/src/stm32f10x_adc.c **** 
ARM GAS  G:\Users\Jaxb\AppData\Local\Temp\ccclxmrG.s 			page 33


 815:../../source/src/FWlib/src/stm32f10x_adc.c **** /**
 816:../../source/src/FWlib/src/stm32f10x_adc.c ****   * @brief  Enables or disables the ADCx injected channels conversion through
 817:../../source/src/FWlib/src/stm32f10x_adc.c ****   *         external trigger
 818:../../source/src/FWlib/src/stm32f10x_adc.c ****   * @param  ADCx: where x can be 1, 2 or 3 to select the ADC peripheral.
 819:../../source/src/FWlib/src/stm32f10x_adc.c ****   * @param  NewState: new state of the selected ADC external trigger start of
 820:../../source/src/FWlib/src/stm32f10x_adc.c ****   *         injected conversion.
 821:../../source/src/FWlib/src/stm32f10x_adc.c ****   *   This parameter can be: ENABLE or DISABLE.
 822:../../source/src/FWlib/src/stm32f10x_adc.c ****   * @retval None
 823:../../source/src/FWlib/src/stm32f10x_adc.c ****   */
 824:../../source/src/FWlib/src/stm32f10x_adc.c **** void ADC_ExternalTrigInjectedConvCmd(ADC_TypeDef* ADCx, FunctionalState NewState)
 825:../../source/src/FWlib/src/stm32f10x_adc.c **** {
 948              		.loc 1 825 0
 949              		.cfi_startproc
 950              		@ args = 0, pretend = 0, frame = 0
 951              		@ frame_needed = 0, uses_anonymous_args = 0
 952              		@ link register save eliminated.
 953              	.LVL82:
 826:../../source/src/FWlib/src/stm32f10x_adc.c ****   /* Check the parameters */
 827:../../source/src/FWlib/src/stm32f10x_adc.c ****   assert_param(IS_ADC_ALL_PERIPH(ADCx));
 828:../../source/src/FWlib/src/stm32f10x_adc.c ****   assert_param(IS_FUNCTIONAL_STATE(NewState));
 829:../../source/src/FWlib/src/stm32f10x_adc.c ****   if (NewState != DISABLE)
 830:../../source/src/FWlib/src/stm32f10x_adc.c ****   {
 831:../../source/src/FWlib/src/stm32f10x_adc.c ****     /* Enable the selected ADC external event selection for injected group */
 832:../../source/src/FWlib/src/stm32f10x_adc.c ****     ADCx->CR2 |= CR2_JEXTTRIG_Set;
 954              		.loc 1 832 0
 955 0258 8368     		ldr	r3, [r0, #8]
 829:../../source/src/FWlib/src/stm32f10x_adc.c ****   {
 956              		.loc 1 829 0
 957 025a 19B9     		cbnz	r1, .L69
 833:../../source/src/FWlib/src/stm32f10x_adc.c ****   }
 834:../../source/src/FWlib/src/stm32f10x_adc.c ****   else
 835:../../source/src/FWlib/src/stm32f10x_adc.c ****   {
 836:../../source/src/FWlib/src/stm32f10x_adc.c ****     /* Disable the selected ADC external event selection for injected group */
 837:../../source/src/FWlib/src/stm32f10x_adc.c ****     ADCx->CR2 &= CR2_JEXTTRIG_Reset;
 958              		.loc 1 837 0
 959 025c 23F40043 		bic	r3, r3, #32768
 960 0260 8360     		str	r3, [r0, #8]
 838:../../source/src/FWlib/src/stm32f10x_adc.c ****   }
 839:../../source/src/FWlib/src/stm32f10x_adc.c **** }
 961              		.loc 1 839 0
 962 0262 7047     		bx	lr
 963              	.L69:
 832:../../source/src/FWlib/src/stm32f10x_adc.c ****   }
 964              		.loc 1 832 0
 965 0264 43F40043 		orr	r3, r3, #32768
 966 0268 8360     		str	r3, [r0, #8]
 967 026a 7047     		bx	lr
 968              		.cfi_endproc
 969              	.LFE50:
 970              		.size	ADC_ExternalTrigInjectedConvCmd, .-ADC_ExternalTrigInjectedConvCmd
 971              		.align	1
 972              		.p2align 2,,3
 973              		.global	ADC_SoftwareStartInjectedConvCmd
 974              		.syntax unified
 975              		.thumb
 976              		.thumb_func
 977              		.fpu softvfp
ARM GAS  G:\Users\Jaxb\AppData\Local\Temp\ccclxmrG.s 			page 34


 978              		.type	ADC_SoftwareStartInjectedConvCmd, %function
 979              	ADC_SoftwareStartInjectedConvCmd:
 980              	.LFB51:
 840:../../source/src/FWlib/src/stm32f10x_adc.c **** 
 841:../../source/src/FWlib/src/stm32f10x_adc.c **** /**
 842:../../source/src/FWlib/src/stm32f10x_adc.c ****   * @brief  Enables or disables the selected ADC start of the injected 
 843:../../source/src/FWlib/src/stm32f10x_adc.c ****   *         channels conversion.
 844:../../source/src/FWlib/src/stm32f10x_adc.c ****   * @param  ADCx: where x can be 1, 2 or 3 to select the ADC peripheral.
 845:../../source/src/FWlib/src/stm32f10x_adc.c ****   * @param  NewState: new state of the selected ADC software start injected conversion.
 846:../../source/src/FWlib/src/stm32f10x_adc.c ****   *   This parameter can be: ENABLE or DISABLE.
 847:../../source/src/FWlib/src/stm32f10x_adc.c ****   * @retval None
 848:../../source/src/FWlib/src/stm32f10x_adc.c ****   */
 849:../../source/src/FWlib/src/stm32f10x_adc.c **** void ADC_SoftwareStartInjectedConvCmd(ADC_TypeDef* ADCx, FunctionalState NewState)
 850:../../source/src/FWlib/src/stm32f10x_adc.c **** {
 981              		.loc 1 850 0
 982              		.cfi_startproc
 983              		@ args = 0, pretend = 0, frame = 0
 984              		@ frame_needed = 0, uses_anonymous_args = 0
 985              		@ link register save eliminated.
 986              	.LVL83:
 851:../../source/src/FWlib/src/stm32f10x_adc.c ****   /* Check the parameters */
 852:../../source/src/FWlib/src/stm32f10x_adc.c ****   assert_param(IS_ADC_ALL_PERIPH(ADCx));
 853:../../source/src/FWlib/src/stm32f10x_adc.c ****   assert_param(IS_FUNCTIONAL_STATE(NewState));
 854:../../source/src/FWlib/src/stm32f10x_adc.c ****   if (NewState != DISABLE)
 855:../../source/src/FWlib/src/stm32f10x_adc.c ****   {
 856:../../source/src/FWlib/src/stm32f10x_adc.c ****     /* Enable the selected ADC conversion for injected group on external event and start the select
 857:../../source/src/FWlib/src/stm32f10x_adc.c ****        ADC injected conversion */
 858:../../source/src/FWlib/src/stm32f10x_adc.c ****     ADCx->CR2 |= CR2_JEXTTRIG_JSWSTART_Set;
 987              		.loc 1 858 0
 988 026c 8368     		ldr	r3, [r0, #8]
 854:../../source/src/FWlib/src/stm32f10x_adc.c ****   {
 989              		.loc 1 854 0
 990 026e 19B9     		cbnz	r1, .L73
 859:../../source/src/FWlib/src/stm32f10x_adc.c ****   }
 860:../../source/src/FWlib/src/stm32f10x_adc.c ****   else
 861:../../source/src/FWlib/src/stm32f10x_adc.c ****   {
 862:../../source/src/FWlib/src/stm32f10x_adc.c ****     /* Disable the selected ADC conversion on external event for injected group and stop the select
 863:../../source/src/FWlib/src/stm32f10x_adc.c ****        ADC injected conversion */
 864:../../source/src/FWlib/src/stm32f10x_adc.c ****     ADCx->CR2 &= CR2_JEXTTRIG_JSWSTART_Reset;
 991              		.loc 1 864 0
 992 0270 23F40213 		bic	r3, r3, #2129920
 993 0274 8360     		str	r3, [r0, #8]
 865:../../source/src/FWlib/src/stm32f10x_adc.c ****   }
 866:../../source/src/FWlib/src/stm32f10x_adc.c **** }
 994              		.loc 1 866 0
 995 0276 7047     		bx	lr
 996              	.L73:
 858:../../source/src/FWlib/src/stm32f10x_adc.c ****   }
 997              		.loc 1 858 0
 998 0278 43F40213 		orr	r3, r3, #2129920
 999 027c 8360     		str	r3, [r0, #8]
 1000 027e 7047     		bx	lr
 1001              		.cfi_endproc
 1002              	.LFE51:
 1003              		.size	ADC_SoftwareStartInjectedConvCmd, .-ADC_SoftwareStartInjectedConvCmd
 1004              		.align	1
 1005              		.p2align 2,,3
ARM GAS  G:\Users\Jaxb\AppData\Local\Temp\ccclxmrG.s 			page 35


 1006              		.global	ADC_GetSoftwareStartInjectedConvCmdStatus
 1007              		.syntax unified
 1008              		.thumb
 1009              		.thumb_func
 1010              		.fpu softvfp
 1011              		.type	ADC_GetSoftwareStartInjectedConvCmdStatus, %function
 1012              	ADC_GetSoftwareStartInjectedConvCmdStatus:
 1013              	.LFB52:
 867:../../source/src/FWlib/src/stm32f10x_adc.c **** 
 868:../../source/src/FWlib/src/stm32f10x_adc.c **** /**
 869:../../source/src/FWlib/src/stm32f10x_adc.c ****   * @brief  Gets the selected ADC Software start injected conversion Status.
 870:../../source/src/FWlib/src/stm32f10x_adc.c ****   * @param  ADCx: where x can be 1, 2 or 3 to select the ADC peripheral.
 871:../../source/src/FWlib/src/stm32f10x_adc.c ****   * @retval The new state of ADC software start injected conversion (SET or RESET).
 872:../../source/src/FWlib/src/stm32f10x_adc.c ****   */
 873:../../source/src/FWlib/src/stm32f10x_adc.c **** FlagStatus ADC_GetSoftwareStartInjectedConvCmdStatus(ADC_TypeDef* ADCx)
 874:../../source/src/FWlib/src/stm32f10x_adc.c **** {
 1014              		.loc 1 874 0
 1015              		.cfi_startproc
 1016              		@ args = 0, pretend = 0, frame = 0
 1017              		@ frame_needed = 0, uses_anonymous_args = 0
 1018              		@ link register save eliminated.
 1019              	.LVL84:
 875:../../source/src/FWlib/src/stm32f10x_adc.c ****   FlagStatus bitstatus = RESET;
 876:../../source/src/FWlib/src/stm32f10x_adc.c ****   /* Check the parameters */
 877:../../source/src/FWlib/src/stm32f10x_adc.c ****   assert_param(IS_ADC_ALL_PERIPH(ADCx));
 878:../../source/src/FWlib/src/stm32f10x_adc.c ****   /* Check the status of JSWSTART bit */
 879:../../source/src/FWlib/src/stm32f10x_adc.c ****   if ((ADCx->CR2 & CR2_JSWSTART_Set) != (uint32_t)RESET)
 1020              		.loc 1 879 0
 1021 0280 8068     		ldr	r0, [r0, #8]
 1022              	.LVL85:
 880:../../source/src/FWlib/src/stm32f10x_adc.c ****   {
 881:../../source/src/FWlib/src/stm32f10x_adc.c ****     /* JSWSTART bit is set */
 882:../../source/src/FWlib/src/stm32f10x_adc.c ****     bitstatus = SET;
 883:../../source/src/FWlib/src/stm32f10x_adc.c ****   }
 884:../../source/src/FWlib/src/stm32f10x_adc.c ****   else
 885:../../source/src/FWlib/src/stm32f10x_adc.c ****   {
 886:../../source/src/FWlib/src/stm32f10x_adc.c ****     /* JSWSTART bit is reset */
 887:../../source/src/FWlib/src/stm32f10x_adc.c ****     bitstatus = RESET;
 888:../../source/src/FWlib/src/stm32f10x_adc.c ****   }
 889:../../source/src/FWlib/src/stm32f10x_adc.c ****   /* Return the JSWSTART bit status */
 890:../../source/src/FWlib/src/stm32f10x_adc.c ****   return  bitstatus;
 891:../../source/src/FWlib/src/stm32f10x_adc.c **** }
 1023              		.loc 1 891 0
 1024 0282 C0F34050 		ubfx	r0, r0, #21, #1
 1025              	.LVL86:
 1026 0286 7047     		bx	lr
 1027              		.cfi_endproc
 1028              	.LFE52:
 1029              		.size	ADC_GetSoftwareStartInjectedConvCmdStatus, .-ADC_GetSoftwareStartInjectedConvCmdStatus
 1030              		.align	1
 1031              		.p2align 2,,3
 1032              		.global	ADC_InjectedChannelConfig
 1033              		.syntax unified
 1034              		.thumb
 1035              		.thumb_func
 1036              		.fpu softvfp
 1037              		.type	ADC_InjectedChannelConfig, %function
ARM GAS  G:\Users\Jaxb\AppData\Local\Temp\ccclxmrG.s 			page 36


 1038              	ADC_InjectedChannelConfig:
 1039              	.LFB53:
 892:../../source/src/FWlib/src/stm32f10x_adc.c **** 
 893:../../source/src/FWlib/src/stm32f10x_adc.c **** /**
 894:../../source/src/FWlib/src/stm32f10x_adc.c ****   * @brief  Configures for the selected ADC injected channel its corresponding
 895:../../source/src/FWlib/src/stm32f10x_adc.c ****   *         rank in the sequencer and its sample time.
 896:../../source/src/FWlib/src/stm32f10x_adc.c ****   * @param  ADCx: where x can be 1, 2 or 3 to select the ADC peripheral.
 897:../../source/src/FWlib/src/stm32f10x_adc.c ****   * @param  ADC_Channel: the ADC channel to configure. 
 898:../../source/src/FWlib/src/stm32f10x_adc.c ****   *   This parameter can be one of the following values:
 899:../../source/src/FWlib/src/stm32f10x_adc.c ****   *     @arg ADC_Channel_0: ADC Channel0 selected
 900:../../source/src/FWlib/src/stm32f10x_adc.c ****   *     @arg ADC_Channel_1: ADC Channel1 selected
 901:../../source/src/FWlib/src/stm32f10x_adc.c ****   *     @arg ADC_Channel_2: ADC Channel2 selected
 902:../../source/src/FWlib/src/stm32f10x_adc.c ****   *     @arg ADC_Channel_3: ADC Channel3 selected
 903:../../source/src/FWlib/src/stm32f10x_adc.c ****   *     @arg ADC_Channel_4: ADC Channel4 selected
 904:../../source/src/FWlib/src/stm32f10x_adc.c ****   *     @arg ADC_Channel_5: ADC Channel5 selected
 905:../../source/src/FWlib/src/stm32f10x_adc.c ****   *     @arg ADC_Channel_6: ADC Channel6 selected
 906:../../source/src/FWlib/src/stm32f10x_adc.c ****   *     @arg ADC_Channel_7: ADC Channel7 selected
 907:../../source/src/FWlib/src/stm32f10x_adc.c ****   *     @arg ADC_Channel_8: ADC Channel8 selected
 908:../../source/src/FWlib/src/stm32f10x_adc.c ****   *     @arg ADC_Channel_9: ADC Channel9 selected
 909:../../source/src/FWlib/src/stm32f10x_adc.c ****   *     @arg ADC_Channel_10: ADC Channel10 selected
 910:../../source/src/FWlib/src/stm32f10x_adc.c ****   *     @arg ADC_Channel_11: ADC Channel11 selected
 911:../../source/src/FWlib/src/stm32f10x_adc.c ****   *     @arg ADC_Channel_12: ADC Channel12 selected
 912:../../source/src/FWlib/src/stm32f10x_adc.c ****   *     @arg ADC_Channel_13: ADC Channel13 selected
 913:../../source/src/FWlib/src/stm32f10x_adc.c ****   *     @arg ADC_Channel_14: ADC Channel14 selected
 914:../../source/src/FWlib/src/stm32f10x_adc.c ****   *     @arg ADC_Channel_15: ADC Channel15 selected
 915:../../source/src/FWlib/src/stm32f10x_adc.c ****   *     @arg ADC_Channel_16: ADC Channel16 selected
 916:../../source/src/FWlib/src/stm32f10x_adc.c ****   *     @arg ADC_Channel_17: ADC Channel17 selected
 917:../../source/src/FWlib/src/stm32f10x_adc.c ****   * @param  Rank: The rank in the injected group sequencer. This parameter must be between 1 and 4.
 918:../../source/src/FWlib/src/stm32f10x_adc.c ****   * @param  ADC_SampleTime: The sample time value to be set for the selected channel. 
 919:../../source/src/FWlib/src/stm32f10x_adc.c ****   *   This parameter can be one of the following values:
 920:../../source/src/FWlib/src/stm32f10x_adc.c ****   *     @arg ADC_SampleTime_1Cycles5: Sample time equal to 1.5 cycles
 921:../../source/src/FWlib/src/stm32f10x_adc.c ****   *     @arg ADC_SampleTime_7Cycles5: Sample time equal to 7.5 cycles
 922:../../source/src/FWlib/src/stm32f10x_adc.c ****   *     @arg ADC_SampleTime_13Cycles5: Sample time equal to 13.5 cycles
 923:../../source/src/FWlib/src/stm32f10x_adc.c ****   *     @arg ADC_SampleTime_28Cycles5: Sample time equal to 28.5 cycles	
 924:../../source/src/FWlib/src/stm32f10x_adc.c ****   *     @arg ADC_SampleTime_41Cycles5: Sample time equal to 41.5 cycles	
 925:../../source/src/FWlib/src/stm32f10x_adc.c ****   *     @arg ADC_SampleTime_55Cycles5: Sample time equal to 55.5 cycles	
 926:../../source/src/FWlib/src/stm32f10x_adc.c ****   *     @arg ADC_SampleTime_71Cycles5: Sample time equal to 71.5 cycles	
 927:../../source/src/FWlib/src/stm32f10x_adc.c ****   *     @arg ADC_SampleTime_239Cycles5: Sample time equal to 239.5 cycles	
 928:../../source/src/FWlib/src/stm32f10x_adc.c ****   * @retval None
 929:../../source/src/FWlib/src/stm32f10x_adc.c ****   */
 930:../../source/src/FWlib/src/stm32f10x_adc.c **** void ADC_InjectedChannelConfig(ADC_TypeDef* ADCx, uint8_t ADC_Channel, uint8_t Rank, uint8_t ADC_Sa
 931:../../source/src/FWlib/src/stm32f10x_adc.c **** {
 1040              		.loc 1 931 0
 1041              		.cfi_startproc
 1042              		@ args = 0, pretend = 0, frame = 0
 1043              		@ frame_needed = 0, uses_anonymous_args = 0
 1044              		@ link register save eliminated.
 1045              	.LVL87:
 932:../../source/src/FWlib/src/stm32f10x_adc.c ****   uint32_t tmpreg1 = 0, tmpreg2 = 0, tmpreg3 = 0;
 933:../../source/src/FWlib/src/stm32f10x_adc.c ****   /* Check the parameters */
 934:../../source/src/FWlib/src/stm32f10x_adc.c ****   assert_param(IS_ADC_ALL_PERIPH(ADCx));
 935:../../source/src/FWlib/src/stm32f10x_adc.c ****   assert_param(IS_ADC_CHANNEL(ADC_Channel));
 936:../../source/src/FWlib/src/stm32f10x_adc.c ****   assert_param(IS_ADC_INJECTED_RANK(Rank));
 937:../../source/src/FWlib/src/stm32f10x_adc.c ****   assert_param(IS_ADC_SAMPLE_TIME(ADC_SampleTime));
 938:../../source/src/FWlib/src/stm32f10x_adc.c ****   /* if ADC_Channel_10 ... ADC_Channel_17 is selected */
 939:../../source/src/FWlib/src/stm32f10x_adc.c ****   if (ADC_Channel > ADC_Channel_9)
 1046              		.loc 1 939 0
ARM GAS  G:\Users\Jaxb\AppData\Local\Temp\ccclxmrG.s 			page 37


 1047 0288 0929     		cmp	r1, #9
 931:../../source/src/FWlib/src/stm32f10x_adc.c ****   uint32_t tmpreg1 = 0, tmpreg2 = 0, tmpreg3 = 0;
 1048              		.loc 1 931 0
 1049 028a 70B4     		push	{r4, r5, r6}
 1050              	.LCFI14:
 1051              		.cfi_def_cfa_offset 12
 1052              		.cfi_offset 4, -12
 1053              		.cfi_offset 5, -8
 1054              		.cfi_offset 6, -4
 1055              		.loc 1 939 0
 1056 028c 1AD8     		bhi	.L78
 940:../../source/src/FWlib/src/stm32f10x_adc.c ****   {
 941:../../source/src/FWlib/src/stm32f10x_adc.c ****     /* Get the old register value */
 942:../../source/src/FWlib/src/stm32f10x_adc.c ****     tmpreg1 = ADCx->SMPR1;
 943:../../source/src/FWlib/src/stm32f10x_adc.c ****     /* Calculate the mask to clear */
 944:../../source/src/FWlib/src/stm32f10x_adc.c ****     tmpreg2 = SMPR1_SMP_Set << (3*(ADC_Channel - 10));
 945:../../source/src/FWlib/src/stm32f10x_adc.c ****     /* Clear the old channel sample time */
 946:../../source/src/FWlib/src/stm32f10x_adc.c ****     tmpreg1 &= ~tmpreg2;
 947:../../source/src/FWlib/src/stm32f10x_adc.c ****     /* Calculate the mask to set */
 948:../../source/src/FWlib/src/stm32f10x_adc.c ****     tmpreg2 = (uint32_t)ADC_SampleTime << (3*(ADC_Channel - 10));
 949:../../source/src/FWlib/src/stm32f10x_adc.c ****     /* Set the new channel sample time */
 950:../../source/src/FWlib/src/stm32f10x_adc.c ****     tmpreg1 |= tmpreg2;
 951:../../source/src/FWlib/src/stm32f10x_adc.c ****     /* Store the new register value */
 952:../../source/src/FWlib/src/stm32f10x_adc.c ****     ADCx->SMPR1 = tmpreg1;
 953:../../source/src/FWlib/src/stm32f10x_adc.c ****   }
 954:../../source/src/FWlib/src/stm32f10x_adc.c ****   else /* ADC_Channel include in ADC_Channel_[0..9] */
 955:../../source/src/FWlib/src/stm32f10x_adc.c ****   {
 956:../../source/src/FWlib/src/stm32f10x_adc.c ****     /* Get the old register value */
 957:../../source/src/FWlib/src/stm32f10x_adc.c ****     tmpreg1 = ADCx->SMPR2;
 958:../../source/src/FWlib/src/stm32f10x_adc.c ****     /* Calculate the mask to clear */
 959:../../source/src/FWlib/src/stm32f10x_adc.c ****     tmpreg2 = SMPR2_SMP_Set << (3 * ADC_Channel);
 1057              		.loc 1 959 0
 1058 028e 0725     		movs	r5, #7
 1059 0290 01EB4106 		add	r6, r1, r1, lsl #1
 957:../../source/src/FWlib/src/stm32f10x_adc.c ****     /* Calculate the mask to clear */
 1060              		.loc 1 957 0
 1061 0294 0469     		ldr	r4, [r0, #16]
 1062              	.LVL88:
 1063              		.loc 1 959 0
 1064 0296 B540     		lsls	r5, r5, r6
 1065              	.LVL89:
 960:../../source/src/FWlib/src/stm32f10x_adc.c ****     /* Clear the old channel sample time */
 961:../../source/src/FWlib/src/stm32f10x_adc.c ****     tmpreg1 &= ~tmpreg2;
 962:../../source/src/FWlib/src/stm32f10x_adc.c ****     /* Calculate the mask to set */
 963:../../source/src/FWlib/src/stm32f10x_adc.c ****     tmpreg2 = (uint32_t)ADC_SampleTime << (3 * ADC_Channel);
 1066              		.loc 1 963 0
 1067 0298 B340     		lsls	r3, r3, r6
 1068              	.LVL90:
 961:../../source/src/FWlib/src/stm32f10x_adc.c ****     /* Calculate the mask to set */
 1069              		.loc 1 961 0
 1070 029a 24EA0504 		bic	r4, r4, r5
 1071              	.LVL91:
 964:../../source/src/FWlib/src/stm32f10x_adc.c ****     /* Set the new channel sample time */
 965:../../source/src/FWlib/src/stm32f10x_adc.c ****     tmpreg1 |= tmpreg2;
 1072              		.loc 1 965 0
 1073 029e 2343     		orrs	r3, r3, r4
 1074              	.LVL92:
ARM GAS  G:\Users\Jaxb\AppData\Local\Temp\ccclxmrG.s 			page 38


 966:../../source/src/FWlib/src/stm32f10x_adc.c ****     /* Store the new register value */
 967:../../source/src/FWlib/src/stm32f10x_adc.c ****     ADCx->SMPR2 = tmpreg1;
 1075              		.loc 1 967 0
 1076 02a0 0361     		str	r3, [r0, #16]
 1077              	.L77:
 968:../../source/src/FWlib/src/stm32f10x_adc.c ****   }
 969:../../source/src/FWlib/src/stm32f10x_adc.c ****   /* Rank configuration */
 970:../../source/src/FWlib/src/stm32f10x_adc.c ****   /* Get the old register value */
 971:../../source/src/FWlib/src/stm32f10x_adc.c ****   tmpreg1 = ADCx->JSQR;
 972:../../source/src/FWlib/src/stm32f10x_adc.c ****   /* Get JL value: Number = JL+1 */
 973:../../source/src/FWlib/src/stm32f10x_adc.c ****   tmpreg3 =  (tmpreg1 & JSQR_JL_Set)>> 20;
 974:../../source/src/FWlib/src/stm32f10x_adc.c ****   /* Calculate the mask to clear: ((Rank-1)+(4-JL-1)) */
 975:../../source/src/FWlib/src/stm32f10x_adc.c ****   tmpreg2 = JSQR_JSQ_Set << (5 * (uint8_t)((Rank + 3) - (tmpreg3 + 1)));
 1078              		.loc 1 975 0
 1079 02a2 1F24     		movs	r4, #31
 971:../../source/src/FWlib/src/stm32f10x_adc.c ****   /* Get JL value: Number = JL+1 */
 1080              		.loc 1 971 0
 1081 02a4 836B     		ldr	r3, [r0, #56]
 1082              	.LVL93:
 1083              		.loc 1 975 0
 1084 02a6 0232     		adds	r2, r2, #2
 1085              	.LVL94:
 973:../../source/src/FWlib/src/stm32f10x_adc.c ****   /* Calculate the mask to clear: ((Rank-1)+(4-JL-1)) */
 1086              		.loc 1 973 0
 1087 02a8 C3F30155 		ubfx	r5, r3, #20, #2
 1088              		.loc 1 975 0
 1089 02ac 521B     		subs	r2, r2, r5
 1090 02ae D2B2     		uxtb	r2, r2
 1091 02b0 02EB8202 		add	r2, r2, r2, lsl #2
 1092              	.LVL95:
 1093 02b4 9440     		lsls	r4, r4, r2
 1094              	.LVL96:
 976:../../source/src/FWlib/src/stm32f10x_adc.c ****   /* Clear the old JSQx bits for the selected rank */
 977:../../source/src/FWlib/src/stm32f10x_adc.c ****   tmpreg1 &= ~tmpreg2;
 1095              		.loc 1 977 0
 1096 02b6 23EA0403 		bic	r3, r3, r4
 1097              	.LVL97:
 978:../../source/src/FWlib/src/stm32f10x_adc.c ****   /* Calculate the mask to set: ((Rank-1)+(4-JL-1)) */
 979:../../source/src/FWlib/src/stm32f10x_adc.c ****   tmpreg2 = (uint32_t)ADC_Channel << (5 * (uint8_t)((Rank + 3) - (tmpreg3 + 1)));
 1098              		.loc 1 979 0
 1099 02ba 9140     		lsls	r1, r1, r2
 1100              	.LVL98:
 980:../../source/src/FWlib/src/stm32f10x_adc.c ****   /* Set the JSQx bits for the selected rank */
 981:../../source/src/FWlib/src/stm32f10x_adc.c ****   tmpreg1 |= tmpreg2;
 1101              		.loc 1 981 0
 1102 02bc 1943     		orrs	r1, r1, r3
 1103              	.LVL99:
 982:../../source/src/FWlib/src/stm32f10x_adc.c ****   /* Store the new register value */
 983:../../source/src/FWlib/src/stm32f10x_adc.c ****   ADCx->JSQR = tmpreg1;
 1104              		.loc 1 983 0
 1105 02be 8163     		str	r1, [r0, #56]
 984:../../source/src/FWlib/src/stm32f10x_adc.c **** }
 1106              		.loc 1 984 0
 1107 02c0 70BC     		pop	{r4, r5, r6}
 1108              	.LCFI15:
 1109              		.cfi_remember_state
 1110              		.cfi_restore 6
ARM GAS  G:\Users\Jaxb\AppData\Local\Temp\ccclxmrG.s 			page 39


 1111              		.cfi_restore 5
 1112              		.cfi_restore 4
 1113              		.cfi_def_cfa_offset 0
 1114 02c2 7047     		bx	lr
 1115              	.LVL100:
 1116              	.L78:
 1117              	.LCFI16:
 1118              		.cfi_restore_state
 944:../../source/src/FWlib/src/stm32f10x_adc.c ****     /* Clear the old channel sample time */
 1119              		.loc 1 944 0
 1120 02c4 0726     		movs	r6, #7
 1121 02c6 A1F10A04 		sub	r4, r1, #10
 1122 02ca 04EB4404 		add	r4, r4, r4, lsl #1
 942:../../source/src/FWlib/src/stm32f10x_adc.c ****     /* Calculate the mask to clear */
 1123              		.loc 1 942 0
 1124 02ce C568     		ldr	r5, [r0, #12]
 1125              	.LVL101:
 944:../../source/src/FWlib/src/stm32f10x_adc.c ****     /* Clear the old channel sample time */
 1126              		.loc 1 944 0
 1127 02d0 A640     		lsls	r6, r6, r4
 1128              	.LVL102:
 948:../../source/src/FWlib/src/stm32f10x_adc.c ****     /* Set the new channel sample time */
 1129              		.loc 1 948 0
 1130 02d2 A340     		lsls	r3, r3, r4
 1131              	.LVL103:
 946:../../source/src/FWlib/src/stm32f10x_adc.c ****     /* Calculate the mask to set */
 1132              		.loc 1 946 0
 1133 02d4 25EA0604 		bic	r4, r5, r6
 1134              	.LVL104:
 950:../../source/src/FWlib/src/stm32f10x_adc.c ****     /* Store the new register value */
 1135              		.loc 1 950 0
 1136 02d8 2343     		orrs	r3, r3, r4
 1137              	.LVL105:
 952:../../source/src/FWlib/src/stm32f10x_adc.c ****   }
 1138              		.loc 1 952 0
 1139 02da C360     		str	r3, [r0, #12]
 1140 02dc E1E7     		b	.L77
 1141              		.cfi_endproc
 1142              	.LFE53:
 1143              		.size	ADC_InjectedChannelConfig, .-ADC_InjectedChannelConfig
 1144              		.align	1
 1145 02de 00BF     		.p2align 2,,3
 1146              		.global	ADC_InjectedSequencerLengthConfig
 1147              		.syntax unified
 1148              		.thumb
 1149              		.thumb_func
 1150              		.fpu softvfp
 1151              		.type	ADC_InjectedSequencerLengthConfig, %function
 1152              	ADC_InjectedSequencerLengthConfig:
 1153              	.LFB54:
 985:../../source/src/FWlib/src/stm32f10x_adc.c **** 
 986:../../source/src/FWlib/src/stm32f10x_adc.c **** /**
 987:../../source/src/FWlib/src/stm32f10x_adc.c ****   * @brief  Configures the sequencer length for injected channels
 988:../../source/src/FWlib/src/stm32f10x_adc.c ****   * @param  ADCx: where x can be 1, 2 or 3 to select the ADC peripheral.
 989:../../source/src/FWlib/src/stm32f10x_adc.c ****   * @param  Length: The sequencer length. 
 990:../../source/src/FWlib/src/stm32f10x_adc.c ****   *   This parameter must be a number between 1 to 4.
 991:../../source/src/FWlib/src/stm32f10x_adc.c ****   * @retval None
ARM GAS  G:\Users\Jaxb\AppData\Local\Temp\ccclxmrG.s 			page 40


 992:../../source/src/FWlib/src/stm32f10x_adc.c ****   */
 993:../../source/src/FWlib/src/stm32f10x_adc.c **** void ADC_InjectedSequencerLengthConfig(ADC_TypeDef* ADCx, uint8_t Length)
 994:../../source/src/FWlib/src/stm32f10x_adc.c **** {
 1154              		.loc 1 994 0
 1155              		.cfi_startproc
 1156              		@ args = 0, pretend = 0, frame = 0
 1157              		@ frame_needed = 0, uses_anonymous_args = 0
 1158              		@ link register save eliminated.
 1159              	.LVL106:
 995:../../source/src/FWlib/src/stm32f10x_adc.c ****   uint32_t tmpreg1 = 0;
 996:../../source/src/FWlib/src/stm32f10x_adc.c ****   uint32_t tmpreg2 = 0;
 997:../../source/src/FWlib/src/stm32f10x_adc.c ****   /* Check the parameters */
 998:../../source/src/FWlib/src/stm32f10x_adc.c ****   assert_param(IS_ADC_ALL_PERIPH(ADCx));
 999:../../source/src/FWlib/src/stm32f10x_adc.c ****   assert_param(IS_ADC_INJECTED_LENGTH(Length));
1000:../../source/src/FWlib/src/stm32f10x_adc.c ****   
1001:../../source/src/FWlib/src/stm32f10x_adc.c ****   /* Get the old register value */
1002:../../source/src/FWlib/src/stm32f10x_adc.c ****   tmpreg1 = ADCx->JSQR;
 1160              		.loc 1 1002 0
 1161 02e0 836B     		ldr	r3, [r0, #56]
 1162              	.LVL107:
1003:../../source/src/FWlib/src/stm32f10x_adc.c ****   /* Clear the old injected sequnence lenght JL bits */
1004:../../source/src/FWlib/src/stm32f10x_adc.c ****   tmpreg1 &= JSQR_JL_Reset;
1005:../../source/src/FWlib/src/stm32f10x_adc.c ****   /* Set the injected sequnence lenght JL bits */
1006:../../source/src/FWlib/src/stm32f10x_adc.c ****   tmpreg2 = Length - 1; 
 1163              		.loc 1 1006 0
 1164 02e2 0139     		subs	r1, r1, #1
 1165              	.LVL108:
1004:../../source/src/FWlib/src/stm32f10x_adc.c ****   /* Set the injected sequnence lenght JL bits */
 1166              		.loc 1 1004 0
 1167 02e4 23F44013 		bic	r3, r3, #3145728
 1168              	.LVL109:
1007:../../source/src/FWlib/src/stm32f10x_adc.c ****   tmpreg1 |= tmpreg2 << 20;
 1169              		.loc 1 1007 0
 1170 02e8 43EA0153 		orr	r3, r3, r1, lsl #20
 1171              	.LVL110:
1008:../../source/src/FWlib/src/stm32f10x_adc.c ****   /* Store the new register value */
1009:../../source/src/FWlib/src/stm32f10x_adc.c ****   ADCx->JSQR = tmpreg1;
 1172              		.loc 1 1009 0
 1173 02ec 8363     		str	r3, [r0, #56]
1010:../../source/src/FWlib/src/stm32f10x_adc.c **** }
 1174              		.loc 1 1010 0
 1175 02ee 7047     		bx	lr
 1176              		.cfi_endproc
 1177              	.LFE54:
 1178              		.size	ADC_InjectedSequencerLengthConfig, .-ADC_InjectedSequencerLengthConfig
 1179              		.align	1
 1180              		.p2align 2,,3
 1181              		.global	ADC_SetInjectedOffset
 1182              		.syntax unified
 1183              		.thumb
 1184              		.thumb_func
 1185              		.fpu softvfp
 1186              		.type	ADC_SetInjectedOffset, %function
 1187              	ADC_SetInjectedOffset:
 1188              	.LFB55:
1011:../../source/src/FWlib/src/stm32f10x_adc.c **** 
1012:../../source/src/FWlib/src/stm32f10x_adc.c **** /**
ARM GAS  G:\Users\Jaxb\AppData\Local\Temp\ccclxmrG.s 			page 41


1013:../../source/src/FWlib/src/stm32f10x_adc.c ****   * @brief  Set the injected channels conversion value offset
1014:../../source/src/FWlib/src/stm32f10x_adc.c ****   * @param  ADCx: where x can be 1, 2 or 3 to select the ADC peripheral.
1015:../../source/src/FWlib/src/stm32f10x_adc.c ****   * @param  ADC_InjectedChannel: the ADC injected channel to set its offset. 
1016:../../source/src/FWlib/src/stm32f10x_adc.c ****   *   This parameter can be one of the following values:
1017:../../source/src/FWlib/src/stm32f10x_adc.c ****   *     @arg ADC_InjectedChannel_1: Injected Channel1 selected
1018:../../source/src/FWlib/src/stm32f10x_adc.c ****   *     @arg ADC_InjectedChannel_2: Injected Channel2 selected
1019:../../source/src/FWlib/src/stm32f10x_adc.c ****   *     @arg ADC_InjectedChannel_3: Injected Channel3 selected
1020:../../source/src/FWlib/src/stm32f10x_adc.c ****   *     @arg ADC_InjectedChannel_4: Injected Channel4 selected
1021:../../source/src/FWlib/src/stm32f10x_adc.c ****   * @param  Offset: the offset value for the selected ADC injected channel
1022:../../source/src/FWlib/src/stm32f10x_adc.c ****   *   This parameter must be a 12bit value.
1023:../../source/src/FWlib/src/stm32f10x_adc.c ****   * @retval None
1024:../../source/src/FWlib/src/stm32f10x_adc.c ****   */
1025:../../source/src/FWlib/src/stm32f10x_adc.c **** void ADC_SetInjectedOffset(ADC_TypeDef* ADCx, uint8_t ADC_InjectedChannel, uint16_t Offset)
1026:../../source/src/FWlib/src/stm32f10x_adc.c **** {
 1189              		.loc 1 1026 0
 1190              		.cfi_startproc
 1191              		@ args = 0, pretend = 0, frame = 8
 1192              		@ frame_needed = 0, uses_anonymous_args = 0
 1193              		@ link register save eliminated.
 1194              	.LVL111:
1027:../../source/src/FWlib/src/stm32f10x_adc.c ****   __IO uint32_t tmp = 0;
 1195              		.loc 1 1027 0
 1196 02f0 0023     		movs	r3, #0
1026:../../source/src/FWlib/src/stm32f10x_adc.c ****   __IO uint32_t tmp = 0;
 1197              		.loc 1 1026 0
 1198 02f2 82B0     		sub	sp, sp, #8
 1199              	.LCFI17:
 1200              		.cfi_def_cfa_offset 8
 1201              		.loc 1 1027 0
 1202 02f4 0193     		str	r3, [sp, #4]
1028:../../source/src/FWlib/src/stm32f10x_adc.c ****   
1029:../../source/src/FWlib/src/stm32f10x_adc.c ****   /* Check the parameters */
1030:../../source/src/FWlib/src/stm32f10x_adc.c ****   assert_param(IS_ADC_ALL_PERIPH(ADCx));
1031:../../source/src/FWlib/src/stm32f10x_adc.c ****   assert_param(IS_ADC_INJECTED_CHANNEL(ADC_InjectedChannel));
1032:../../source/src/FWlib/src/stm32f10x_adc.c ****   assert_param(IS_ADC_OFFSET(Offset));  
1033:../../source/src/FWlib/src/stm32f10x_adc.c ****   
1034:../../source/src/FWlib/src/stm32f10x_adc.c ****   tmp = (uint32_t)ADCx;
 1203              		.loc 1 1034 0
 1204 02f6 0190     		str	r0, [sp, #4]
1035:../../source/src/FWlib/src/stm32f10x_adc.c ****   tmp += ADC_InjectedChannel;
 1205              		.loc 1 1035 0
 1206 02f8 019B     		ldr	r3, [sp, #4]
 1207 02fa 1944     		add	r1, r1, r3
 1208              	.LVL112:
 1209 02fc 0191     		str	r1, [sp, #4]
1036:../../source/src/FWlib/src/stm32f10x_adc.c ****   
1037:../../source/src/FWlib/src/stm32f10x_adc.c ****   /* Set the selected injected channel data offset */
1038:../../source/src/FWlib/src/stm32f10x_adc.c ****   *(__IO uint32_t *) tmp = (uint32_t)Offset;
 1210              		.loc 1 1038 0
 1211 02fe 019B     		ldr	r3, [sp, #4]
 1212 0300 1A60     		str	r2, [r3]
1039:../../source/src/FWlib/src/stm32f10x_adc.c **** }
 1213              		.loc 1 1039 0
 1214 0302 02B0     		add	sp, sp, #8
 1215              	.LCFI18:
 1216              		.cfi_def_cfa_offset 0
 1217              		@ sp needed
ARM GAS  G:\Users\Jaxb\AppData\Local\Temp\ccclxmrG.s 			page 42


 1218 0304 7047     		bx	lr
 1219              		.cfi_endproc
 1220              	.LFE55:
 1221              		.size	ADC_SetInjectedOffset, .-ADC_SetInjectedOffset
 1222              		.align	1
 1223 0306 00BF     		.p2align 2,,3
 1224              		.global	ADC_GetInjectedConversionValue
 1225              		.syntax unified
 1226              		.thumb
 1227              		.thumb_func
 1228              		.fpu softvfp
 1229              		.type	ADC_GetInjectedConversionValue, %function
 1230              	ADC_GetInjectedConversionValue:
 1231              	.LFB56:
1040:../../source/src/FWlib/src/stm32f10x_adc.c **** 
1041:../../source/src/FWlib/src/stm32f10x_adc.c **** /**
1042:../../source/src/FWlib/src/stm32f10x_adc.c ****   * @brief  Returns the ADC injected channel conversion result
1043:../../source/src/FWlib/src/stm32f10x_adc.c ****   * @param  ADCx: where x can be 1, 2 or 3 to select the ADC peripheral.
1044:../../source/src/FWlib/src/stm32f10x_adc.c ****   * @param  ADC_InjectedChannel: the converted ADC injected channel.
1045:../../source/src/FWlib/src/stm32f10x_adc.c ****   *   This parameter can be one of the following values:
1046:../../source/src/FWlib/src/stm32f10x_adc.c ****   *     @arg ADC_InjectedChannel_1: Injected Channel1 selected
1047:../../source/src/FWlib/src/stm32f10x_adc.c ****   *     @arg ADC_InjectedChannel_2: Injected Channel2 selected
1048:../../source/src/FWlib/src/stm32f10x_adc.c ****   *     @arg ADC_InjectedChannel_3: Injected Channel3 selected
1049:../../source/src/FWlib/src/stm32f10x_adc.c ****   *     @arg ADC_InjectedChannel_4: Injected Channel4 selected
1050:../../source/src/FWlib/src/stm32f10x_adc.c ****   * @retval The Data conversion value.
1051:../../source/src/FWlib/src/stm32f10x_adc.c ****   */
1052:../../source/src/FWlib/src/stm32f10x_adc.c **** uint16_t ADC_GetInjectedConversionValue(ADC_TypeDef* ADCx, uint8_t ADC_InjectedChannel)
1053:../../source/src/FWlib/src/stm32f10x_adc.c **** {
 1232              		.loc 1 1053 0
 1233              		.cfi_startproc
 1234              		@ args = 0, pretend = 0, frame = 8
 1235              		@ frame_needed = 0, uses_anonymous_args = 0
 1236              		@ link register save eliminated.
 1237              	.LVL113:
1054:../../source/src/FWlib/src/stm32f10x_adc.c ****   __IO uint32_t tmp = 0;
 1238              		.loc 1 1054 0
 1239 0308 0023     		movs	r3, #0
1053:../../source/src/FWlib/src/stm32f10x_adc.c ****   __IO uint32_t tmp = 0;
 1240              		.loc 1 1053 0
 1241 030a 82B0     		sub	sp, sp, #8
 1242              	.LCFI19:
 1243              		.cfi_def_cfa_offset 8
 1244              		.loc 1 1054 0
 1245 030c 0193     		str	r3, [sp, #4]
1055:../../source/src/FWlib/src/stm32f10x_adc.c ****   
1056:../../source/src/FWlib/src/stm32f10x_adc.c ****   /* Check the parameters */
1057:../../source/src/FWlib/src/stm32f10x_adc.c ****   assert_param(IS_ADC_ALL_PERIPH(ADCx));
1058:../../source/src/FWlib/src/stm32f10x_adc.c ****   assert_param(IS_ADC_INJECTED_CHANNEL(ADC_InjectedChannel));
1059:../../source/src/FWlib/src/stm32f10x_adc.c **** 
1060:../../source/src/FWlib/src/stm32f10x_adc.c ****   tmp = (uint32_t)ADCx;
 1246              		.loc 1 1060 0
 1247 030e 0190     		str	r0, [sp, #4]
1061:../../source/src/FWlib/src/stm32f10x_adc.c ****   tmp += ADC_InjectedChannel + JDR_Offset;
 1248              		.loc 1 1061 0
 1249 0310 019B     		ldr	r3, [sp, #4]
 1250 0312 2833     		adds	r3, r3, #40
 1251 0314 1944     		add	r1, r1, r3
ARM GAS  G:\Users\Jaxb\AppData\Local\Temp\ccclxmrG.s 			page 43


 1252              	.LVL114:
 1253 0316 0191     		str	r1, [sp, #4]
1062:../../source/src/FWlib/src/stm32f10x_adc.c ****   
1063:../../source/src/FWlib/src/stm32f10x_adc.c ****   /* Returns the selected injected channel conversion data value */
1064:../../source/src/FWlib/src/stm32f10x_adc.c ****   return (uint16_t) (*(__IO uint32_t*)  tmp);   
 1254              		.loc 1 1064 0
 1255 0318 019B     		ldr	r3, [sp, #4]
 1256 031a 1868     		ldr	r0, [r3]
 1257              	.LVL115:
1065:../../source/src/FWlib/src/stm32f10x_adc.c **** }
 1258              		.loc 1 1065 0
 1259 031c 80B2     		uxth	r0, r0
 1260 031e 02B0     		add	sp, sp, #8
 1261              	.LCFI20:
 1262              		.cfi_def_cfa_offset 0
 1263              		@ sp needed
 1264 0320 7047     		bx	lr
 1265              		.cfi_endproc
 1266              	.LFE56:
 1267              		.size	ADC_GetInjectedConversionValue, .-ADC_GetInjectedConversionValue
 1268              		.align	1
 1269 0322 00BF     		.p2align 2,,3
 1270              		.global	ADC_AnalogWatchdogCmd
 1271              		.syntax unified
 1272              		.thumb
 1273              		.thumb_func
 1274              		.fpu softvfp
 1275              		.type	ADC_AnalogWatchdogCmd, %function
 1276              	ADC_AnalogWatchdogCmd:
 1277              	.LFB57:
1066:../../source/src/FWlib/src/stm32f10x_adc.c **** 
1067:../../source/src/FWlib/src/stm32f10x_adc.c **** /**
1068:../../source/src/FWlib/src/stm32f10x_adc.c ****   * @brief  Enables or disables the analog watchdog on single/all regular
1069:../../source/src/FWlib/src/stm32f10x_adc.c ****   *         or injected channels
1070:../../source/src/FWlib/src/stm32f10x_adc.c ****   * @param  ADCx: where x can be 1, 2 or 3 to select the ADC peripheral.
1071:../../source/src/FWlib/src/stm32f10x_adc.c ****   * @param  ADC_AnalogWatchdog: the ADC analog watchdog configuration.
1072:../../source/src/FWlib/src/stm32f10x_adc.c ****   *   This parameter can be one of the following values:
1073:../../source/src/FWlib/src/stm32f10x_adc.c ****   *     @arg ADC_AnalogWatchdog_SingleRegEnable: Analog watchdog on a single regular channel
1074:../../source/src/FWlib/src/stm32f10x_adc.c ****   *     @arg ADC_AnalogWatchdog_SingleInjecEnable: Analog watchdog on a single injected channel
1075:../../source/src/FWlib/src/stm32f10x_adc.c ****   *     @arg ADC_AnalogWatchdog_SingleRegOrInjecEnable: Analog watchdog on a single regular or inje
1076:../../source/src/FWlib/src/stm32f10x_adc.c ****   *     @arg ADC_AnalogWatchdog_AllRegEnable: Analog watchdog on  all regular channel
1077:../../source/src/FWlib/src/stm32f10x_adc.c ****   *     @arg ADC_AnalogWatchdog_AllInjecEnable: Analog watchdog on  all injected channel
1078:../../source/src/FWlib/src/stm32f10x_adc.c ****   *     @arg ADC_AnalogWatchdog_AllRegAllInjecEnable: Analog watchdog on all regular and injected c
1079:../../source/src/FWlib/src/stm32f10x_adc.c ****   *     @arg ADC_AnalogWatchdog_None: No channel guarded by the analog watchdog
1080:../../source/src/FWlib/src/stm32f10x_adc.c ****   * @retval None	  
1081:../../source/src/FWlib/src/stm32f10x_adc.c ****   */
1082:../../source/src/FWlib/src/stm32f10x_adc.c **** void ADC_AnalogWatchdogCmd(ADC_TypeDef* ADCx, uint32_t ADC_AnalogWatchdog)
1083:../../source/src/FWlib/src/stm32f10x_adc.c **** {
 1278              		.loc 1 1083 0
 1279              		.cfi_startproc
 1280              		@ args = 0, pretend = 0, frame = 0
 1281              		@ frame_needed = 0, uses_anonymous_args = 0
 1282              		@ link register save eliminated.
 1283              	.LVL116:
1084:../../source/src/FWlib/src/stm32f10x_adc.c ****   uint32_t tmpreg = 0;
1085:../../source/src/FWlib/src/stm32f10x_adc.c ****   /* Check the parameters */
1086:../../source/src/FWlib/src/stm32f10x_adc.c ****   assert_param(IS_ADC_ALL_PERIPH(ADCx));
ARM GAS  G:\Users\Jaxb\AppData\Local\Temp\ccclxmrG.s 			page 44


1087:../../source/src/FWlib/src/stm32f10x_adc.c ****   assert_param(IS_ADC_ANALOG_WATCHDOG(ADC_AnalogWatchdog));
1088:../../source/src/FWlib/src/stm32f10x_adc.c ****   /* Get the old register value */
1089:../../source/src/FWlib/src/stm32f10x_adc.c ****   tmpreg = ADCx->CR1;
 1284              		.loc 1 1089 0
 1285 0324 4368     		ldr	r3, [r0, #4]
 1286              	.LVL117:
1090:../../source/src/FWlib/src/stm32f10x_adc.c ****   /* Clear AWDEN, AWDENJ and AWDSGL bits */
1091:../../source/src/FWlib/src/stm32f10x_adc.c ****   tmpreg &= CR1_AWDMode_Reset;
 1287              		.loc 1 1091 0
 1288 0326 23F44003 		bic	r3, r3, #12582912
 1289              	.LVL118:
 1290 032a 23F40073 		bic	r3, r3, #512
 1291              	.LVL119:
1092:../../source/src/FWlib/src/stm32f10x_adc.c ****   /* Set the analog watchdog enable mode */
1093:../../source/src/FWlib/src/stm32f10x_adc.c ****   tmpreg |= ADC_AnalogWatchdog;
 1292              		.loc 1 1093 0
 1293 032e 1943     		orrs	r1, r1, r3
 1294              	.LVL120:
1094:../../source/src/FWlib/src/stm32f10x_adc.c ****   /* Store the new register value */
1095:../../source/src/FWlib/src/stm32f10x_adc.c ****   ADCx->CR1 = tmpreg;
 1295              		.loc 1 1095 0
 1296 0330 4160     		str	r1, [r0, #4]
1096:../../source/src/FWlib/src/stm32f10x_adc.c **** }
 1297              		.loc 1 1096 0
 1298 0332 7047     		bx	lr
 1299              		.cfi_endproc
 1300              	.LFE57:
 1301              		.size	ADC_AnalogWatchdogCmd, .-ADC_AnalogWatchdogCmd
 1302              		.align	1
 1303              		.p2align 2,,3
 1304              		.global	ADC_AnalogWatchdogThresholdsConfig
 1305              		.syntax unified
 1306              		.thumb
 1307              		.thumb_func
 1308              		.fpu softvfp
 1309              		.type	ADC_AnalogWatchdogThresholdsConfig, %function
 1310              	ADC_AnalogWatchdogThresholdsConfig:
 1311              	.LFB58:
1097:../../source/src/FWlib/src/stm32f10x_adc.c **** 
1098:../../source/src/FWlib/src/stm32f10x_adc.c **** /**
1099:../../source/src/FWlib/src/stm32f10x_adc.c ****   * @brief  Configures the high and low thresholds of the analog watchdog.
1100:../../source/src/FWlib/src/stm32f10x_adc.c ****   * @param  ADCx: where x can be 1, 2 or 3 to select the ADC peripheral.
1101:../../source/src/FWlib/src/stm32f10x_adc.c ****   * @param  HighThreshold: the ADC analog watchdog High threshold value.
1102:../../source/src/FWlib/src/stm32f10x_adc.c ****   *   This parameter must be a 12bit value.
1103:../../source/src/FWlib/src/stm32f10x_adc.c ****   * @param  LowThreshold: the ADC analog watchdog Low threshold value.
1104:../../source/src/FWlib/src/stm32f10x_adc.c ****   *   This parameter must be a 12bit value.
1105:../../source/src/FWlib/src/stm32f10x_adc.c ****   * @retval None
1106:../../source/src/FWlib/src/stm32f10x_adc.c ****   */
1107:../../source/src/FWlib/src/stm32f10x_adc.c **** void ADC_AnalogWatchdogThresholdsConfig(ADC_TypeDef* ADCx, uint16_t HighThreshold,
1108:../../source/src/FWlib/src/stm32f10x_adc.c ****                                         uint16_t LowThreshold)
1109:../../source/src/FWlib/src/stm32f10x_adc.c **** {
 1312              		.loc 1 1109 0
 1313              		.cfi_startproc
 1314              		@ args = 0, pretend = 0, frame = 0
 1315              		@ frame_needed = 0, uses_anonymous_args = 0
 1316              		@ link register save eliminated.
 1317              	.LVL121:
ARM GAS  G:\Users\Jaxb\AppData\Local\Temp\ccclxmrG.s 			page 45


1110:../../source/src/FWlib/src/stm32f10x_adc.c ****   /* Check the parameters */
1111:../../source/src/FWlib/src/stm32f10x_adc.c ****   assert_param(IS_ADC_ALL_PERIPH(ADCx));
1112:../../source/src/FWlib/src/stm32f10x_adc.c ****   assert_param(IS_ADC_THRESHOLD(HighThreshold));
1113:../../source/src/FWlib/src/stm32f10x_adc.c ****   assert_param(IS_ADC_THRESHOLD(LowThreshold));
1114:../../source/src/FWlib/src/stm32f10x_adc.c ****   /* Set the ADCx high threshold */
1115:../../source/src/FWlib/src/stm32f10x_adc.c ****   ADCx->HTR = HighThreshold;
 1318              		.loc 1 1115 0
 1319 0334 4162     		str	r1, [r0, #36]
1116:../../source/src/FWlib/src/stm32f10x_adc.c ****   /* Set the ADCx low threshold */
1117:../../source/src/FWlib/src/stm32f10x_adc.c ****   ADCx->LTR = LowThreshold;
 1320              		.loc 1 1117 0
 1321 0336 8262     		str	r2, [r0, #40]
1118:../../source/src/FWlib/src/stm32f10x_adc.c **** }
 1322              		.loc 1 1118 0
 1323 0338 7047     		bx	lr
 1324              		.cfi_endproc
 1325              	.LFE58:
 1326              		.size	ADC_AnalogWatchdogThresholdsConfig, .-ADC_AnalogWatchdogThresholdsConfig
 1327              		.align	1
 1328 033a 00BF     		.p2align 2,,3
 1329              		.global	ADC_AnalogWatchdogSingleChannelConfig
 1330              		.syntax unified
 1331              		.thumb
 1332              		.thumb_func
 1333              		.fpu softvfp
 1334              		.type	ADC_AnalogWatchdogSingleChannelConfig, %function
 1335              	ADC_AnalogWatchdogSingleChannelConfig:
 1336              	.LFB59:
1119:../../source/src/FWlib/src/stm32f10x_adc.c **** 
1120:../../source/src/FWlib/src/stm32f10x_adc.c **** /**
1121:../../source/src/FWlib/src/stm32f10x_adc.c ****   * @brief  Configures the analog watchdog guarded single channel
1122:../../source/src/FWlib/src/stm32f10x_adc.c ****   * @param  ADCx: where x can be 1, 2 or 3 to select the ADC peripheral.
1123:../../source/src/FWlib/src/stm32f10x_adc.c ****   * @param  ADC_Channel: the ADC channel to configure for the analog watchdog. 
1124:../../source/src/FWlib/src/stm32f10x_adc.c ****   *   This parameter can be one of the following values:
1125:../../source/src/FWlib/src/stm32f10x_adc.c ****   *     @arg ADC_Channel_0: ADC Channel0 selected
1126:../../source/src/FWlib/src/stm32f10x_adc.c ****   *     @arg ADC_Channel_1: ADC Channel1 selected
1127:../../source/src/FWlib/src/stm32f10x_adc.c ****   *     @arg ADC_Channel_2: ADC Channel2 selected
1128:../../source/src/FWlib/src/stm32f10x_adc.c ****   *     @arg ADC_Channel_3: ADC Channel3 selected
1129:../../source/src/FWlib/src/stm32f10x_adc.c ****   *     @arg ADC_Channel_4: ADC Channel4 selected
1130:../../source/src/FWlib/src/stm32f10x_adc.c ****   *     @arg ADC_Channel_5: ADC Channel5 selected
1131:../../source/src/FWlib/src/stm32f10x_adc.c ****   *     @arg ADC_Channel_6: ADC Channel6 selected
1132:../../source/src/FWlib/src/stm32f10x_adc.c ****   *     @arg ADC_Channel_7: ADC Channel7 selected
1133:../../source/src/FWlib/src/stm32f10x_adc.c ****   *     @arg ADC_Channel_8: ADC Channel8 selected
1134:../../source/src/FWlib/src/stm32f10x_adc.c ****   *     @arg ADC_Channel_9: ADC Channel9 selected
1135:../../source/src/FWlib/src/stm32f10x_adc.c ****   *     @arg ADC_Channel_10: ADC Channel10 selected
1136:../../source/src/FWlib/src/stm32f10x_adc.c ****   *     @arg ADC_Channel_11: ADC Channel11 selected
1137:../../source/src/FWlib/src/stm32f10x_adc.c ****   *     @arg ADC_Channel_12: ADC Channel12 selected
1138:../../source/src/FWlib/src/stm32f10x_adc.c ****   *     @arg ADC_Channel_13: ADC Channel13 selected
1139:../../source/src/FWlib/src/stm32f10x_adc.c ****   *     @arg ADC_Channel_14: ADC Channel14 selected
1140:../../source/src/FWlib/src/stm32f10x_adc.c ****   *     @arg ADC_Channel_15: ADC Channel15 selected
1141:../../source/src/FWlib/src/stm32f10x_adc.c ****   *     @arg ADC_Channel_16: ADC Channel16 selected
1142:../../source/src/FWlib/src/stm32f10x_adc.c ****   *     @arg ADC_Channel_17: ADC Channel17 selected
1143:../../source/src/FWlib/src/stm32f10x_adc.c ****   * @retval None
1144:../../source/src/FWlib/src/stm32f10x_adc.c ****   */
1145:../../source/src/FWlib/src/stm32f10x_adc.c **** void ADC_AnalogWatchdogSingleChannelConfig(ADC_TypeDef* ADCx, uint8_t ADC_Channel)
1146:../../source/src/FWlib/src/stm32f10x_adc.c **** {
 1337              		.loc 1 1146 0
ARM GAS  G:\Users\Jaxb\AppData\Local\Temp\ccclxmrG.s 			page 46


 1338              		.cfi_startproc
 1339              		@ args = 0, pretend = 0, frame = 0
 1340              		@ frame_needed = 0, uses_anonymous_args = 0
 1341              		@ link register save eliminated.
 1342              	.LVL122:
1147:../../source/src/FWlib/src/stm32f10x_adc.c ****   uint32_t tmpreg = 0;
1148:../../source/src/FWlib/src/stm32f10x_adc.c ****   /* Check the parameters */
1149:../../source/src/FWlib/src/stm32f10x_adc.c ****   assert_param(IS_ADC_ALL_PERIPH(ADCx));
1150:../../source/src/FWlib/src/stm32f10x_adc.c ****   assert_param(IS_ADC_CHANNEL(ADC_Channel));
1151:../../source/src/FWlib/src/stm32f10x_adc.c ****   /* Get the old register value */
1152:../../source/src/FWlib/src/stm32f10x_adc.c ****   tmpreg = ADCx->CR1;
 1343              		.loc 1 1152 0
 1344 033c 4368     		ldr	r3, [r0, #4]
 1345              	.LVL123:
1153:../../source/src/FWlib/src/stm32f10x_adc.c ****   /* Clear the Analog watchdog channel select bits */
1154:../../source/src/FWlib/src/stm32f10x_adc.c ****   tmpreg &= CR1_AWDCH_Reset;
 1346              		.loc 1 1154 0
 1347 033e 23F01F03 		bic	r3, r3, #31
 1348              	.LVL124:
1155:../../source/src/FWlib/src/stm32f10x_adc.c ****   /* Set the Analog watchdog channel */
1156:../../source/src/FWlib/src/stm32f10x_adc.c ****   tmpreg |= ADC_Channel;
 1349              		.loc 1 1156 0
 1350 0342 1943     		orrs	r1, r1, r3
 1351              	.LVL125:
1157:../../source/src/FWlib/src/stm32f10x_adc.c ****   /* Store the new register value */
1158:../../source/src/FWlib/src/stm32f10x_adc.c ****   ADCx->CR1 = tmpreg;
 1352              		.loc 1 1158 0
 1353 0344 4160     		str	r1, [r0, #4]
1159:../../source/src/FWlib/src/stm32f10x_adc.c **** }
 1354              		.loc 1 1159 0
 1355 0346 7047     		bx	lr
 1356              		.cfi_endproc
 1357              	.LFE59:
 1358              		.size	ADC_AnalogWatchdogSingleChannelConfig, .-ADC_AnalogWatchdogSingleChannelConfig
 1359              		.align	1
 1360              		.p2align 2,,3
 1361              		.global	ADC_TempSensorVrefintCmd
 1362              		.syntax unified
 1363              		.thumb
 1364              		.thumb_func
 1365              		.fpu softvfp
 1366              		.type	ADC_TempSensorVrefintCmd, %function
 1367              	ADC_TempSensorVrefintCmd:
 1368              	.LFB60:
1160:../../source/src/FWlib/src/stm32f10x_adc.c **** 
1161:../../source/src/FWlib/src/stm32f10x_adc.c **** /**
1162:../../source/src/FWlib/src/stm32f10x_adc.c ****   * @brief  Enables or disables the temperature sensor and Vrefint channel.
1163:../../source/src/FWlib/src/stm32f10x_adc.c ****   * @param  NewState: new state of the temperature sensor.
1164:../../source/src/FWlib/src/stm32f10x_adc.c ****   *   This parameter can be: ENABLE or DISABLE.
1165:../../source/src/FWlib/src/stm32f10x_adc.c ****   * @retval None
1166:../../source/src/FWlib/src/stm32f10x_adc.c ****   */
1167:../../source/src/FWlib/src/stm32f10x_adc.c **** void ADC_TempSensorVrefintCmd(FunctionalState NewState)
1168:../../source/src/FWlib/src/stm32f10x_adc.c **** {
 1369              		.loc 1 1168 0
 1370              		.cfi_startproc
 1371              		@ args = 0, pretend = 0, frame = 0
 1372              		@ frame_needed = 0, uses_anonymous_args = 0
ARM GAS  G:\Users\Jaxb\AppData\Local\Temp\ccclxmrG.s 			page 47


 1373              		@ link register save eliminated.
 1374              	.LVL126:
1169:../../source/src/FWlib/src/stm32f10x_adc.c ****   /* Check the parameters */
1170:../../source/src/FWlib/src/stm32f10x_adc.c ****   assert_param(IS_FUNCTIONAL_STATE(NewState));
1171:../../source/src/FWlib/src/stm32f10x_adc.c ****   if (NewState != DISABLE)
1172:../../source/src/FWlib/src/stm32f10x_adc.c ****   {
1173:../../source/src/FWlib/src/stm32f10x_adc.c ****     /* Enable the temperature sensor and Vrefint channel*/
1174:../../source/src/FWlib/src/stm32f10x_adc.c ****     ADC1->CR2 |= CR2_TSVREFE_Set;
 1375              		.loc 1 1174 0
 1376 0348 054A     		ldr	r2, .L89
 1377 034a 9368     		ldr	r3, [r2, #8]
1171:../../source/src/FWlib/src/stm32f10x_adc.c ****   {
 1378              		.loc 1 1171 0
 1379 034c 18B9     		cbnz	r0, .L88
1175:../../source/src/FWlib/src/stm32f10x_adc.c ****   }
1176:../../source/src/FWlib/src/stm32f10x_adc.c ****   else
1177:../../source/src/FWlib/src/stm32f10x_adc.c ****   {
1178:../../source/src/FWlib/src/stm32f10x_adc.c ****     /* Disable the temperature sensor and Vrefint channel*/
1179:../../source/src/FWlib/src/stm32f10x_adc.c ****     ADC1->CR2 &= CR2_TSVREFE_Reset;
 1380              		.loc 1 1179 0
 1381 034e 23F40003 		bic	r3, r3, #8388608
 1382 0352 9360     		str	r3, [r2, #8]
1180:../../source/src/FWlib/src/stm32f10x_adc.c ****   }
1181:../../source/src/FWlib/src/stm32f10x_adc.c **** }
 1383              		.loc 1 1181 0
 1384 0354 7047     		bx	lr
 1385              	.L88:
1174:../../source/src/FWlib/src/stm32f10x_adc.c ****   }
 1386              		.loc 1 1174 0
 1387 0356 43F40003 		orr	r3, r3, #8388608
 1388 035a 9360     		str	r3, [r2, #8]
 1389 035c 7047     		bx	lr
 1390              	.L90:
 1391 035e 00BF     		.align	2
 1392              	.L89:
 1393 0360 00240140 		.word	1073816576
 1394              		.cfi_endproc
 1395              	.LFE60:
 1396              		.size	ADC_TempSensorVrefintCmd, .-ADC_TempSensorVrefintCmd
 1397              		.align	1
 1398              		.p2align 2,,3
 1399              		.global	ADC_GetFlagStatus
 1400              		.syntax unified
 1401              		.thumb
 1402              		.thumb_func
 1403              		.fpu softvfp
 1404              		.type	ADC_GetFlagStatus, %function
 1405              	ADC_GetFlagStatus:
 1406              	.LFB61:
1182:../../source/src/FWlib/src/stm32f10x_adc.c **** 
1183:../../source/src/FWlib/src/stm32f10x_adc.c **** /**
1184:../../source/src/FWlib/src/stm32f10x_adc.c ****   * @brief  Checks whether the specified ADC flag is set or not.
1185:../../source/src/FWlib/src/stm32f10x_adc.c ****   * @param  ADCx: where x can be 1, 2 or 3 to select the ADC peripheral.
1186:../../source/src/FWlib/src/stm32f10x_adc.c ****   * @param  ADC_FLAG: specifies the flag to check. 
1187:../../source/src/FWlib/src/stm32f10x_adc.c ****   *   This parameter can be one of the following values:
1188:../../source/src/FWlib/src/stm32f10x_adc.c ****   *     @arg ADC_FLAG_AWD: Analog watchdog flag
1189:../../source/src/FWlib/src/stm32f10x_adc.c ****   *     @arg ADC_FLAG_EOC: End of conversion flag
ARM GAS  G:\Users\Jaxb\AppData\Local\Temp\ccclxmrG.s 			page 48


1190:../../source/src/FWlib/src/stm32f10x_adc.c ****   *     @arg ADC_FLAG_JEOC: End of injected group conversion flag
1191:../../source/src/FWlib/src/stm32f10x_adc.c ****   *     @arg ADC_FLAG_JSTRT: Start of injected group conversion flag
1192:../../source/src/FWlib/src/stm32f10x_adc.c ****   *     @arg ADC_FLAG_STRT: Start of regular group conversion flag
1193:../../source/src/FWlib/src/stm32f10x_adc.c ****   * @retval The new state of ADC_FLAG (SET or RESET).
1194:../../source/src/FWlib/src/stm32f10x_adc.c ****   */
1195:../../source/src/FWlib/src/stm32f10x_adc.c **** FlagStatus ADC_GetFlagStatus(ADC_TypeDef* ADCx, uint8_t ADC_FLAG)
1196:../../source/src/FWlib/src/stm32f10x_adc.c **** {
 1407              		.loc 1 1196 0
 1408              		.cfi_startproc
 1409              		@ args = 0, pretend = 0, frame = 0
 1410              		@ frame_needed = 0, uses_anonymous_args = 0
 1411              		@ link register save eliminated.
 1412              	.LVL127:
1197:../../source/src/FWlib/src/stm32f10x_adc.c ****   FlagStatus bitstatus = RESET;
1198:../../source/src/FWlib/src/stm32f10x_adc.c ****   /* Check the parameters */
1199:../../source/src/FWlib/src/stm32f10x_adc.c ****   assert_param(IS_ADC_ALL_PERIPH(ADCx));
1200:../../source/src/FWlib/src/stm32f10x_adc.c ****   assert_param(IS_ADC_GET_FLAG(ADC_FLAG));
1201:../../source/src/FWlib/src/stm32f10x_adc.c ****   /* Check the status of the specified ADC flag */
1202:../../source/src/FWlib/src/stm32f10x_adc.c ****   if ((ADCx->SR & ADC_FLAG) != (uint8_t)RESET)
 1413              		.loc 1 1202 0
 1414 0364 0368     		ldr	r3, [r0]
 1415              	.LVL128:
 1416 0366 1942     		tst	r1, r3
1203:../../source/src/FWlib/src/stm32f10x_adc.c ****   {
1204:../../source/src/FWlib/src/stm32f10x_adc.c ****     /* ADC_FLAG is set */
1205:../../source/src/FWlib/src/stm32f10x_adc.c ****     bitstatus = SET;
1206:../../source/src/FWlib/src/stm32f10x_adc.c ****   }
1207:../../source/src/FWlib/src/stm32f10x_adc.c ****   else
1208:../../source/src/FWlib/src/stm32f10x_adc.c ****   {
1209:../../source/src/FWlib/src/stm32f10x_adc.c ****     /* ADC_FLAG is reset */
1210:../../source/src/FWlib/src/stm32f10x_adc.c ****     bitstatus = RESET;
1211:../../source/src/FWlib/src/stm32f10x_adc.c ****   }
1212:../../source/src/FWlib/src/stm32f10x_adc.c ****   /* Return the ADC_FLAG status */
1213:../../source/src/FWlib/src/stm32f10x_adc.c ****   return  bitstatus;
1214:../../source/src/FWlib/src/stm32f10x_adc.c **** }
 1417              		.loc 1 1214 0
 1418 0368 14BF     		ite	ne
 1419 036a 0120     		movne	r0, #1
 1420              	.LVL129:
 1421 036c 0020     		moveq	r0, #0
 1422 036e 7047     		bx	lr
 1423              		.cfi_endproc
 1424              	.LFE61:
 1425              		.size	ADC_GetFlagStatus, .-ADC_GetFlagStatus
 1426              		.align	1
 1427              		.p2align 2,,3
 1428              		.global	ADC_ClearFlag
 1429              		.syntax unified
 1430              		.thumb
 1431              		.thumb_func
 1432              		.fpu softvfp
 1433              		.type	ADC_ClearFlag, %function
 1434              	ADC_ClearFlag:
 1435              	.LFB62:
1215:../../source/src/FWlib/src/stm32f10x_adc.c **** 
1216:../../source/src/FWlib/src/stm32f10x_adc.c **** /**
1217:../../source/src/FWlib/src/stm32f10x_adc.c ****   * @brief  Clears the ADCx's pending flags.
ARM GAS  G:\Users\Jaxb\AppData\Local\Temp\ccclxmrG.s 			page 49


1218:../../source/src/FWlib/src/stm32f10x_adc.c ****   * @param  ADCx: where x can be 1, 2 or 3 to select the ADC peripheral.
1219:../../source/src/FWlib/src/stm32f10x_adc.c ****   * @param  ADC_FLAG: specifies the flag to clear. 
1220:../../source/src/FWlib/src/stm32f10x_adc.c ****   *   This parameter can be any combination of the following values:
1221:../../source/src/FWlib/src/stm32f10x_adc.c ****   *     @arg ADC_FLAG_AWD: Analog watchdog flag
1222:../../source/src/FWlib/src/stm32f10x_adc.c ****   *     @arg ADC_FLAG_EOC: End of conversion flag
1223:../../source/src/FWlib/src/stm32f10x_adc.c ****   *     @arg ADC_FLAG_JEOC: End of injected group conversion flag
1224:../../source/src/FWlib/src/stm32f10x_adc.c ****   *     @arg ADC_FLAG_JSTRT: Start of injected group conversion flag
1225:../../source/src/FWlib/src/stm32f10x_adc.c ****   *     @arg ADC_FLAG_STRT: Start of regular group conversion flag
1226:../../source/src/FWlib/src/stm32f10x_adc.c ****   * @retval None
1227:../../source/src/FWlib/src/stm32f10x_adc.c ****   */
1228:../../source/src/FWlib/src/stm32f10x_adc.c **** void ADC_ClearFlag(ADC_TypeDef* ADCx, uint8_t ADC_FLAG)
1229:../../source/src/FWlib/src/stm32f10x_adc.c **** {
 1436              		.loc 1 1229 0
 1437              		.cfi_startproc
 1438              		@ args = 0, pretend = 0, frame = 0
 1439              		@ frame_needed = 0, uses_anonymous_args = 0
 1440              		@ link register save eliminated.
 1441              	.LVL130:
1230:../../source/src/FWlib/src/stm32f10x_adc.c ****   /* Check the parameters */
1231:../../source/src/FWlib/src/stm32f10x_adc.c ****   assert_param(IS_ADC_ALL_PERIPH(ADCx));
1232:../../source/src/FWlib/src/stm32f10x_adc.c ****   assert_param(IS_ADC_CLEAR_FLAG(ADC_FLAG));
1233:../../source/src/FWlib/src/stm32f10x_adc.c ****   /* Clear the selected ADC flags */
1234:../../source/src/FWlib/src/stm32f10x_adc.c ****   ADCx->SR = ~(uint32_t)ADC_FLAG;
 1442              		.loc 1 1234 0
 1443 0370 C943     		mvns	r1, r1
 1444              	.LVL131:
 1445 0372 0160     		str	r1, [r0]
1235:../../source/src/FWlib/src/stm32f10x_adc.c **** }
 1446              		.loc 1 1235 0
 1447 0374 7047     		bx	lr
 1448              		.cfi_endproc
 1449              	.LFE62:
 1450              		.size	ADC_ClearFlag, .-ADC_ClearFlag
 1451              		.align	1
 1452 0376 00BF     		.p2align 2,,3
 1453              		.global	ADC_GetITStatus
 1454              		.syntax unified
 1455              		.thumb
 1456              		.thumb_func
 1457              		.fpu softvfp
 1458              		.type	ADC_GetITStatus, %function
 1459              	ADC_GetITStatus:
 1460              	.LFB63:
1236:../../source/src/FWlib/src/stm32f10x_adc.c **** 
1237:../../source/src/FWlib/src/stm32f10x_adc.c **** /**
1238:../../source/src/FWlib/src/stm32f10x_adc.c ****   * @brief  Checks whether the specified ADC interrupt has occurred or not.
1239:../../source/src/FWlib/src/stm32f10x_adc.c ****   * @param  ADCx: where x can be 1, 2 or 3 to select the ADC peripheral.
1240:../../source/src/FWlib/src/stm32f10x_adc.c ****   * @param  ADC_IT: specifies the ADC interrupt source to check. 
1241:../../source/src/FWlib/src/stm32f10x_adc.c ****   *   This parameter can be one of the following values:
1242:../../source/src/FWlib/src/stm32f10x_adc.c ****   *     @arg ADC_IT_EOC: End of conversion interrupt mask
1243:../../source/src/FWlib/src/stm32f10x_adc.c ****   *     @arg ADC_IT_AWD: Analog watchdog interrupt mask
1244:../../source/src/FWlib/src/stm32f10x_adc.c ****   *     @arg ADC_IT_JEOC: End of injected conversion interrupt mask
1245:../../source/src/FWlib/src/stm32f10x_adc.c ****   * @retval The new state of ADC_IT (SET or RESET).
1246:../../source/src/FWlib/src/stm32f10x_adc.c ****   */
1247:../../source/src/FWlib/src/stm32f10x_adc.c **** ITStatus ADC_GetITStatus(ADC_TypeDef* ADCx, uint16_t ADC_IT)
1248:../../source/src/FWlib/src/stm32f10x_adc.c **** {
 1461              		.loc 1 1248 0
ARM GAS  G:\Users\Jaxb\AppData\Local\Temp\ccclxmrG.s 			page 50


 1462              		.cfi_startproc
 1463              		@ args = 0, pretend = 0, frame = 0
 1464              		@ frame_needed = 0, uses_anonymous_args = 0
 1465              		@ link register save eliminated.
 1466              	.LVL132:
1249:../../source/src/FWlib/src/stm32f10x_adc.c ****   ITStatus bitstatus = RESET;
1250:../../source/src/FWlib/src/stm32f10x_adc.c ****   uint32_t itmask = 0, enablestatus = 0;
1251:../../source/src/FWlib/src/stm32f10x_adc.c ****   /* Check the parameters */
1252:../../source/src/FWlib/src/stm32f10x_adc.c ****   assert_param(IS_ADC_ALL_PERIPH(ADCx));
1253:../../source/src/FWlib/src/stm32f10x_adc.c ****   assert_param(IS_ADC_GET_IT(ADC_IT));
1254:../../source/src/FWlib/src/stm32f10x_adc.c ****   /* Get the ADC IT index */
1255:../../source/src/FWlib/src/stm32f10x_adc.c ****   itmask = ADC_IT >> 8;
1256:../../source/src/FWlib/src/stm32f10x_adc.c ****   /* Get the ADC_IT enable bit status */
1257:../../source/src/FWlib/src/stm32f10x_adc.c ****   enablestatus = (ADCx->CR1 & (uint8_t)ADC_IT) ;
 1467              		.loc 1 1257 0
 1468 0378 4368     		ldr	r3, [r0, #4]
 1469              	.LVL133:
1258:../../source/src/FWlib/src/stm32f10x_adc.c ****   /* Check the status of the specified ADC interrupt */
1259:../../source/src/FWlib/src/stm32f10x_adc.c ****   if (((ADCx->SR & itmask) != (uint32_t)RESET) && enablestatus)
 1470              		.loc 1 1259 0
 1471 037a 0068     		ldr	r0, [r0]
 1472              	.LVL134:
 1473 037c 10EA1120 		ands	r0, r0, r1, lsr #8
 1474 0380 04D0     		beq	.L94
1257:../../source/src/FWlib/src/stm32f10x_adc.c ****   /* Check the status of the specified ADC interrupt */
 1475              		.loc 1 1257 0 discriminator 1
 1476 0382 C9B2     		uxtb	r1, r1
 1477              	.LVL135:
 1478              		.loc 1 1259 0 discriminator 1
 1479 0384 1942     		tst	r1, r3
1260:../../source/src/FWlib/src/stm32f10x_adc.c ****   {
1261:../../source/src/FWlib/src/stm32f10x_adc.c ****     /* ADC_IT is set */
1262:../../source/src/FWlib/src/stm32f10x_adc.c ****     bitstatus = SET;
 1480              		.loc 1 1262 0 discriminator 1
 1481 0386 14BF     		ite	ne
 1482 0388 0120     		movne	r0, #1
 1483 038a 0020     		moveq	r0, #0
 1484              	.LVL136:
 1485              	.L94:
1263:../../source/src/FWlib/src/stm32f10x_adc.c ****   }
1264:../../source/src/FWlib/src/stm32f10x_adc.c ****   else
1265:../../source/src/FWlib/src/stm32f10x_adc.c ****   {
1266:../../source/src/FWlib/src/stm32f10x_adc.c ****     /* ADC_IT is reset */
1267:../../source/src/FWlib/src/stm32f10x_adc.c ****     bitstatus = RESET;
1268:../../source/src/FWlib/src/stm32f10x_adc.c ****   }
1269:../../source/src/FWlib/src/stm32f10x_adc.c ****   /* Return the ADC_IT status */
1270:../../source/src/FWlib/src/stm32f10x_adc.c ****   return  bitstatus;
1271:../../source/src/FWlib/src/stm32f10x_adc.c **** }
 1486              		.loc 1 1271 0
 1487 038c 7047     		bx	lr
 1488              		.cfi_endproc
 1489              	.LFE63:
 1490              		.size	ADC_GetITStatus, .-ADC_GetITStatus
 1491              		.align	1
 1492 038e 00BF     		.p2align 2,,3
 1493              		.global	ADC_ClearITPendingBit
 1494              		.syntax unified
ARM GAS  G:\Users\Jaxb\AppData\Local\Temp\ccclxmrG.s 			page 51


 1495              		.thumb
 1496              		.thumb_func
 1497              		.fpu softvfp
 1498              		.type	ADC_ClearITPendingBit, %function
 1499              	ADC_ClearITPendingBit:
 1500              	.LFB64:
1272:../../source/src/FWlib/src/stm32f10x_adc.c **** 
1273:../../source/src/FWlib/src/stm32f10x_adc.c **** /**
1274:../../source/src/FWlib/src/stm32f10x_adc.c ****   * @brief  Clears the ADCx's interrupt pending bits.
1275:../../source/src/FWlib/src/stm32f10x_adc.c ****   * @param  ADCx: where x can be 1, 2 or 3 to select the ADC peripheral.
1276:../../source/src/FWlib/src/stm32f10x_adc.c ****   * @param  ADC_IT: specifies the ADC interrupt pending bit to clear.
1277:../../source/src/FWlib/src/stm32f10x_adc.c ****   *   This parameter can be any combination of the following values:
1278:../../source/src/FWlib/src/stm32f10x_adc.c ****   *     @arg ADC_IT_EOC: End of conversion interrupt mask
1279:../../source/src/FWlib/src/stm32f10x_adc.c ****   *     @arg ADC_IT_AWD: Analog watchdog interrupt mask
1280:../../source/src/FWlib/src/stm32f10x_adc.c ****   *     @arg ADC_IT_JEOC: End of injected conversion interrupt mask
1281:../../source/src/FWlib/src/stm32f10x_adc.c ****   * @retval None
1282:../../source/src/FWlib/src/stm32f10x_adc.c ****   */
1283:../../source/src/FWlib/src/stm32f10x_adc.c **** void ADC_ClearITPendingBit(ADC_TypeDef* ADCx, uint16_t ADC_IT)
1284:../../source/src/FWlib/src/stm32f10x_adc.c **** {
 1501              		.loc 1 1284 0
 1502              		.cfi_startproc
 1503              		@ args = 0, pretend = 0, frame = 0
 1504              		@ frame_needed = 0, uses_anonymous_args = 0
 1505              		@ link register save eliminated.
 1506              	.LVL137:
1285:../../source/src/FWlib/src/stm32f10x_adc.c ****   uint8_t itmask = 0;
1286:../../source/src/FWlib/src/stm32f10x_adc.c ****   /* Check the parameters */
1287:../../source/src/FWlib/src/stm32f10x_adc.c ****   assert_param(IS_ADC_ALL_PERIPH(ADCx));
1288:../../source/src/FWlib/src/stm32f10x_adc.c ****   assert_param(IS_ADC_IT(ADC_IT));
1289:../../source/src/FWlib/src/stm32f10x_adc.c ****   /* Get the ADC IT index */
1290:../../source/src/FWlib/src/stm32f10x_adc.c ****   itmask = (uint8_t)(ADC_IT >> 8);
1291:../../source/src/FWlib/src/stm32f10x_adc.c ****   /* Clear the selected ADC interrupt pending bits */
1292:../../source/src/FWlib/src/stm32f10x_adc.c ****   ADCx->SR = ~(uint32_t)itmask;
 1507              		.loc 1 1292 0
 1508 0390 6FEA1121 		mvn	r1, r1, lsr #8
 1509              	.LVL138:
 1510 0394 0160     		str	r1, [r0]
1293:../../source/src/FWlib/src/stm32f10x_adc.c **** }
 1511              		.loc 1 1293 0
 1512 0396 7047     		bx	lr
 1513              		.cfi_endproc
 1514              	.LFE64:
 1515              		.size	ADC_ClearITPendingBit, .-ADC_ClearITPendingBit
 1516              	.Letext0:
 1517              		.file 2 "f:\\arm\\gcc2018\\arm-none-eabi\\include\\machine\\_default_types.h"
 1518              		.file 3 "f:\\arm\\gcc2018\\arm-none-eabi\\include\\sys\\_stdint.h"
 1519              		.file 4 "../../source/include/core_cm3.h"
 1520              		.file 5 "../../source/include/system_stm32f10x.h"
 1521              		.file 6 "../../source/include/stm32f10x.h"
 1522              		.file 7 "../../source/src/FWlib/inc/stm32f10x_adc.h"
 1523              		.file 8 "../../source/src/FWlib/inc/stm32f10x_rcc.h"