ARM GAS  G:\Users\Jaxb\AppData\Local\Temp\ccMZN3nA.s 			page 1


   1              		.cpu cortex-m3
   2              		.eabi_attribute 20, 1
   3              		.eabi_attribute 21, 1
   4              		.eabi_attribute 23, 3
   5              		.eabi_attribute 24, 1
   6              		.eabi_attribute 25, 1
   7              		.eabi_attribute 26, 1
   8              		.eabi_attribute 30, 2
   9              		.eabi_attribute 34, 1
  10              		.eabi_attribute 18, 4
  11              		.file	"stm32f10x_wwdg.c"
  12              		.text
  13              	.Ltext0:
  14              		.cfi_sections	.debug_frame
  15              		.align	1
  16              		.p2align 2,,3
  17              		.global	WWDG_DeInit
  18              		.syntax unified
  19              		.thumb
  20              		.thumb_func
  21              		.fpu softvfp
  22              		.type	WWDG_DeInit, %function
  23              	WWDG_DeInit:
  24              	.LFB29:
  25              		.file 1 "../../source/src/FWlib/src/stm32f10x_wwdg.c"
   1:../../source/src/FWlib/src/stm32f10x_wwdg.c **** /**
   2:../../source/src/FWlib/src/stm32f10x_wwdg.c ****   ******************************************************************************
   3:../../source/src/FWlib/src/stm32f10x_wwdg.c ****   * @file    stm32f10x_wwdg.c
   4:../../source/src/FWlib/src/stm32f10x_wwdg.c ****   * @author  MCD Application Team
   5:../../source/src/FWlib/src/stm32f10x_wwdg.c ****   * @version V3.5.0
   6:../../source/src/FWlib/src/stm32f10x_wwdg.c ****   * @date    11-March-2011
   7:../../source/src/FWlib/src/stm32f10x_wwdg.c ****   * @brief   This file provides all the WWDG firmware functions.
   8:../../source/src/FWlib/src/stm32f10x_wwdg.c ****   ******************************************************************************
   9:../../source/src/FWlib/src/stm32f10x_wwdg.c ****   * @attention
  10:../../source/src/FWlib/src/stm32f10x_wwdg.c ****   *
  11:../../source/src/FWlib/src/stm32f10x_wwdg.c ****   * THE PRESENT FIRMWARE WHICH IS FOR GUIDANCE ONLY AIMS AT PROVIDING CUSTOMERS
  12:../../source/src/FWlib/src/stm32f10x_wwdg.c ****   * WITH CODING INFORMATION REGARDING THEIR PRODUCTS IN ORDER FOR THEM TO SAVE
  13:../../source/src/FWlib/src/stm32f10x_wwdg.c ****   * TIME. AS A RESULT, STMICROELECTRONICS SHALL NOT BE HELD LIABLE FOR ANY
  14:../../source/src/FWlib/src/stm32f10x_wwdg.c ****   * DIRECT, INDIRECT OR CONSEQUENTIAL DAMAGES WITH RESPECT TO ANY CLAIMS ARISING
  15:../../source/src/FWlib/src/stm32f10x_wwdg.c ****   * FROM THE CONTENT OF SUCH FIRMWARE AND/OR THE USE MADE BY CUSTOMERS OF THE
  16:../../source/src/FWlib/src/stm32f10x_wwdg.c ****   * CODING INFORMATION CONTAINED HEREIN IN CONNECTION WITH THEIR PRODUCTS.
  17:../../source/src/FWlib/src/stm32f10x_wwdg.c ****   *
  18:../../source/src/FWlib/src/stm32f10x_wwdg.c ****   * <h2><center>&copy; COPYRIGHT 2011 STMicroelectronics</center></h2>
  19:../../source/src/FWlib/src/stm32f10x_wwdg.c ****   ******************************************************************************
  20:../../source/src/FWlib/src/stm32f10x_wwdg.c ****   */
  21:../../source/src/FWlib/src/stm32f10x_wwdg.c **** 
  22:../../source/src/FWlib/src/stm32f10x_wwdg.c **** /* Includes ------------------------------------------------------------------*/
  23:../../source/src/FWlib/src/stm32f10x_wwdg.c **** #include "stm32f10x_wwdg.h"
  24:../../source/src/FWlib/src/stm32f10x_wwdg.c **** #include "stm32f10x_rcc.h"
  25:../../source/src/FWlib/src/stm32f10x_wwdg.c **** 
  26:../../source/src/FWlib/src/stm32f10x_wwdg.c **** /** @addtogroup STM32F10x_StdPeriph_Driver
  27:../../source/src/FWlib/src/stm32f10x_wwdg.c ****   * @{
  28:../../source/src/FWlib/src/stm32f10x_wwdg.c ****   */
  29:../../source/src/FWlib/src/stm32f10x_wwdg.c **** 
  30:../../source/src/FWlib/src/stm32f10x_wwdg.c **** /** @defgroup WWDG 
  31:../../source/src/FWlib/src/stm32f10x_wwdg.c ****   * @brief WWDG driver modules
  32:../../source/src/FWlib/src/stm32f10x_wwdg.c ****   * @{
ARM GAS  G:\Users\Jaxb\AppData\Local\Temp\ccMZN3nA.s 			page 2


  33:../../source/src/FWlib/src/stm32f10x_wwdg.c ****   */
  34:../../source/src/FWlib/src/stm32f10x_wwdg.c **** 
  35:../../source/src/FWlib/src/stm32f10x_wwdg.c **** /** @defgroup WWDG_Private_TypesDefinitions
  36:../../source/src/FWlib/src/stm32f10x_wwdg.c ****   * @{
  37:../../source/src/FWlib/src/stm32f10x_wwdg.c ****   */
  38:../../source/src/FWlib/src/stm32f10x_wwdg.c **** 
  39:../../source/src/FWlib/src/stm32f10x_wwdg.c **** /**
  40:../../source/src/FWlib/src/stm32f10x_wwdg.c ****   * @}
  41:../../source/src/FWlib/src/stm32f10x_wwdg.c ****   */
  42:../../source/src/FWlib/src/stm32f10x_wwdg.c **** 
  43:../../source/src/FWlib/src/stm32f10x_wwdg.c **** /** @defgroup WWDG_Private_Defines
  44:../../source/src/FWlib/src/stm32f10x_wwdg.c ****   * @{
  45:../../source/src/FWlib/src/stm32f10x_wwdg.c ****   */
  46:../../source/src/FWlib/src/stm32f10x_wwdg.c **** 
  47:../../source/src/FWlib/src/stm32f10x_wwdg.c **** /* ----------- WWDG registers bit address in the alias region ----------- */
  48:../../source/src/FWlib/src/stm32f10x_wwdg.c **** #define WWDG_OFFSET       (WWDG_BASE - PERIPH_BASE)
  49:../../source/src/FWlib/src/stm32f10x_wwdg.c **** 
  50:../../source/src/FWlib/src/stm32f10x_wwdg.c **** /* Alias word address of EWI bit */
  51:../../source/src/FWlib/src/stm32f10x_wwdg.c **** #define CFR_OFFSET        (WWDG_OFFSET + 0x04)
  52:../../source/src/FWlib/src/stm32f10x_wwdg.c **** #define EWI_BitNumber     0x09
  53:../../source/src/FWlib/src/stm32f10x_wwdg.c **** #define CFR_EWI_BB        (PERIPH_BB_BASE + (CFR_OFFSET * 32) + (EWI_BitNumber * 4))
  54:../../source/src/FWlib/src/stm32f10x_wwdg.c **** 
  55:../../source/src/FWlib/src/stm32f10x_wwdg.c **** /* --------------------- WWDG registers bit mask ------------------------ */
  56:../../source/src/FWlib/src/stm32f10x_wwdg.c **** 
  57:../../source/src/FWlib/src/stm32f10x_wwdg.c **** /* CR register bit mask */
  58:../../source/src/FWlib/src/stm32f10x_wwdg.c **** #define CR_WDGA_Set       ((uint32_t)0x00000080)
  59:../../source/src/FWlib/src/stm32f10x_wwdg.c **** 
  60:../../source/src/FWlib/src/stm32f10x_wwdg.c **** /* CFR register bit mask */
  61:../../source/src/FWlib/src/stm32f10x_wwdg.c **** #define CFR_WDGTB_Mask    ((uint32_t)0xFFFFFE7F)
  62:../../source/src/FWlib/src/stm32f10x_wwdg.c **** #define CFR_W_Mask        ((uint32_t)0xFFFFFF80)
  63:../../source/src/FWlib/src/stm32f10x_wwdg.c **** #define BIT_Mask          ((uint8_t)0x7F)
  64:../../source/src/FWlib/src/stm32f10x_wwdg.c **** 
  65:../../source/src/FWlib/src/stm32f10x_wwdg.c **** /**
  66:../../source/src/FWlib/src/stm32f10x_wwdg.c ****   * @}
  67:../../source/src/FWlib/src/stm32f10x_wwdg.c ****   */
  68:../../source/src/FWlib/src/stm32f10x_wwdg.c **** 
  69:../../source/src/FWlib/src/stm32f10x_wwdg.c **** /** @defgroup WWDG_Private_Macros
  70:../../source/src/FWlib/src/stm32f10x_wwdg.c ****   * @{
  71:../../source/src/FWlib/src/stm32f10x_wwdg.c ****   */
  72:../../source/src/FWlib/src/stm32f10x_wwdg.c **** 
  73:../../source/src/FWlib/src/stm32f10x_wwdg.c **** /**
  74:../../source/src/FWlib/src/stm32f10x_wwdg.c ****   * @}
  75:../../source/src/FWlib/src/stm32f10x_wwdg.c ****   */
  76:../../source/src/FWlib/src/stm32f10x_wwdg.c **** 
  77:../../source/src/FWlib/src/stm32f10x_wwdg.c **** /** @defgroup WWDG_Private_Variables
  78:../../source/src/FWlib/src/stm32f10x_wwdg.c ****   * @{
  79:../../source/src/FWlib/src/stm32f10x_wwdg.c ****   */
  80:../../source/src/FWlib/src/stm32f10x_wwdg.c **** 
  81:../../source/src/FWlib/src/stm32f10x_wwdg.c **** /**
  82:../../source/src/FWlib/src/stm32f10x_wwdg.c ****   * @}
  83:../../source/src/FWlib/src/stm32f10x_wwdg.c ****   */
  84:../../source/src/FWlib/src/stm32f10x_wwdg.c **** 
  85:../../source/src/FWlib/src/stm32f10x_wwdg.c **** /** @defgroup WWDG_Private_FunctionPrototypes
  86:../../source/src/FWlib/src/stm32f10x_wwdg.c ****   * @{
  87:../../source/src/FWlib/src/stm32f10x_wwdg.c ****   */
  88:../../source/src/FWlib/src/stm32f10x_wwdg.c **** 
  89:../../source/src/FWlib/src/stm32f10x_wwdg.c **** /**
ARM GAS  G:\Users\Jaxb\AppData\Local\Temp\ccMZN3nA.s 			page 3


  90:../../source/src/FWlib/src/stm32f10x_wwdg.c ****   * @}
  91:../../source/src/FWlib/src/stm32f10x_wwdg.c ****   */
  92:../../source/src/FWlib/src/stm32f10x_wwdg.c **** 
  93:../../source/src/FWlib/src/stm32f10x_wwdg.c **** /** @defgroup WWDG_Private_Functions
  94:../../source/src/FWlib/src/stm32f10x_wwdg.c ****   * @{
  95:../../source/src/FWlib/src/stm32f10x_wwdg.c ****   */
  96:../../source/src/FWlib/src/stm32f10x_wwdg.c **** 
  97:../../source/src/FWlib/src/stm32f10x_wwdg.c **** /**
  98:../../source/src/FWlib/src/stm32f10x_wwdg.c ****   * @brief  Deinitializes the WWDG peripheral registers to their default reset values.
  99:../../source/src/FWlib/src/stm32f10x_wwdg.c ****   * @param  None
 100:../../source/src/FWlib/src/stm32f10x_wwdg.c ****   * @retval None
 101:../../source/src/FWlib/src/stm32f10x_wwdg.c ****   */
 102:../../source/src/FWlib/src/stm32f10x_wwdg.c **** void WWDG_DeInit(void)
 103:../../source/src/FWlib/src/stm32f10x_wwdg.c **** {
  26              		.loc 1 103 0
  27              		.cfi_startproc
  28              		@ args = 0, pretend = 0, frame = 0
  29              		@ frame_needed = 0, uses_anonymous_args = 0
  30 0000 08B5     		push	{r3, lr}
  31              	.LCFI0:
  32              		.cfi_def_cfa_offset 8
  33              		.cfi_offset 3, -8
  34              		.cfi_offset 14, -4
 104:../../source/src/FWlib/src/stm32f10x_wwdg.c ****   RCC_APB1PeriphResetCmd(RCC_APB1Periph_WWDG, ENABLE);
  35              		.loc 1 104 0
  36 0002 0121     		movs	r1, #1
  37 0004 4FF40060 		mov	r0, #2048
  38 0008 FFF7FEFF 		bl	RCC_APB1PeriphResetCmd
  39              	.LVL0:
 105:../../source/src/FWlib/src/stm32f10x_wwdg.c ****   RCC_APB1PeriphResetCmd(RCC_APB1Periph_WWDG, DISABLE);
 106:../../source/src/FWlib/src/stm32f10x_wwdg.c **** }
  40              		.loc 1 106 0
  41 000c BDE80840 		pop	{r3, lr}
  42              	.LCFI1:
  43              		.cfi_restore 14
  44              		.cfi_restore 3
  45              		.cfi_def_cfa_offset 0
 105:../../source/src/FWlib/src/stm32f10x_wwdg.c ****   RCC_APB1PeriphResetCmd(RCC_APB1Periph_WWDG, DISABLE);
  46              		.loc 1 105 0
  47 0010 0021     		movs	r1, #0
  48 0012 4FF40060 		mov	r0, #2048
  49 0016 FFF7FEBF 		b	RCC_APB1PeriphResetCmd
  50              	.LVL1:
  51              		.cfi_endproc
  52              	.LFE29:
  53              		.size	WWDG_DeInit, .-WWDG_DeInit
  54              		.align	1
  55 001a 00BF     		.p2align 2,,3
  56              		.global	WWDG_SetPrescaler
  57              		.syntax unified
  58              		.thumb
  59              		.thumb_func
  60              		.fpu softvfp
  61              		.type	WWDG_SetPrescaler, %function
  62              	WWDG_SetPrescaler:
  63              	.LFB30:
 107:../../source/src/FWlib/src/stm32f10x_wwdg.c **** 
ARM GAS  G:\Users\Jaxb\AppData\Local\Temp\ccMZN3nA.s 			page 4


 108:../../source/src/FWlib/src/stm32f10x_wwdg.c **** /**
 109:../../source/src/FWlib/src/stm32f10x_wwdg.c ****   * @brief  Sets the WWDG Prescaler.
 110:../../source/src/FWlib/src/stm32f10x_wwdg.c ****   * @param  WWDG_Prescaler: specifies the WWDG Prescaler.
 111:../../source/src/FWlib/src/stm32f10x_wwdg.c ****   *   This parameter can be one of the following values:
 112:../../source/src/FWlib/src/stm32f10x_wwdg.c ****   *     @arg WWDG_Prescaler_1: WWDG counter clock = (PCLK1/4096)/1
 113:../../source/src/FWlib/src/stm32f10x_wwdg.c ****   *     @arg WWDG_Prescaler_2: WWDG counter clock = (PCLK1/4096)/2
 114:../../source/src/FWlib/src/stm32f10x_wwdg.c ****   *     @arg WWDG_Prescaler_4: WWDG counter clock = (PCLK1/4096)/4
 115:../../source/src/FWlib/src/stm32f10x_wwdg.c ****   *     @arg WWDG_Prescaler_8: WWDG counter clock = (PCLK1/4096)/8
 116:../../source/src/FWlib/src/stm32f10x_wwdg.c ****   * @retval None
 117:../../source/src/FWlib/src/stm32f10x_wwdg.c ****   */
 118:../../source/src/FWlib/src/stm32f10x_wwdg.c **** void WWDG_SetPrescaler(uint32_t WWDG_Prescaler)
 119:../../source/src/FWlib/src/stm32f10x_wwdg.c **** {
  64              		.loc 1 119 0
  65              		.cfi_startproc
  66              		@ args = 0, pretend = 0, frame = 0
  67              		@ frame_needed = 0, uses_anonymous_args = 0
  68              		@ link register save eliminated.
  69              	.LVL2:
 120:../../source/src/FWlib/src/stm32f10x_wwdg.c ****   uint32_t tmpreg = 0;
 121:../../source/src/FWlib/src/stm32f10x_wwdg.c ****   /* Check the parameters */
 122:../../source/src/FWlib/src/stm32f10x_wwdg.c ****   assert_param(IS_WWDG_PRESCALER(WWDG_Prescaler));
 123:../../source/src/FWlib/src/stm32f10x_wwdg.c ****   /* Clear WDGTB[1:0] bits */
 124:../../source/src/FWlib/src/stm32f10x_wwdg.c ****   tmpreg = WWDG->CFR & CFR_WDGTB_Mask;
  70              		.loc 1 124 0
  71 001c 034A     		ldr	r2, .L4
  72 001e 5368     		ldr	r3, [r2, #4]
  73 0020 23F4C073 		bic	r3, r3, #384
  74              	.LVL3:
 125:../../source/src/FWlib/src/stm32f10x_wwdg.c ****   /* Set WDGTB[1:0] bits according to WWDG_Prescaler value */
 126:../../source/src/FWlib/src/stm32f10x_wwdg.c ****   tmpreg |= WWDG_Prescaler;
  75              		.loc 1 126 0
  76 0024 1843     		orrs	r0, r0, r3
  77              	.LVL4:
 127:../../source/src/FWlib/src/stm32f10x_wwdg.c ****   /* Store the new value */
 128:../../source/src/FWlib/src/stm32f10x_wwdg.c ****   WWDG->CFR = tmpreg;
  78              		.loc 1 128 0
  79 0026 5060     		str	r0, [r2, #4]
 129:../../source/src/FWlib/src/stm32f10x_wwdg.c **** }
  80              		.loc 1 129 0
  81 0028 7047     		bx	lr
  82              	.L5:
  83 002a 00BF     		.align	2
  84              	.L4:
  85 002c 002C0040 		.word	1073753088
  86              		.cfi_endproc
  87              	.LFE30:
  88              		.size	WWDG_SetPrescaler, .-WWDG_SetPrescaler
  89              		.align	1
  90              		.p2align 2,,3
  91              		.global	WWDG_SetWindowValue
  92              		.syntax unified
  93              		.thumb
  94              		.thumb_func
  95              		.fpu softvfp
  96              		.type	WWDG_SetWindowValue, %function
  97              	WWDG_SetWindowValue:
  98              	.LFB31:
ARM GAS  G:\Users\Jaxb\AppData\Local\Temp\ccMZN3nA.s 			page 5


 130:../../source/src/FWlib/src/stm32f10x_wwdg.c **** 
 131:../../source/src/FWlib/src/stm32f10x_wwdg.c **** /**
 132:../../source/src/FWlib/src/stm32f10x_wwdg.c ****   * @brief  Sets the WWDG window value.
 133:../../source/src/FWlib/src/stm32f10x_wwdg.c ****   * @param  WindowValue: specifies the window value to be compared to the downcounter.
 134:../../source/src/FWlib/src/stm32f10x_wwdg.c ****   *   This parameter value must be lower than 0x80.
 135:../../source/src/FWlib/src/stm32f10x_wwdg.c ****   * @retval None
 136:../../source/src/FWlib/src/stm32f10x_wwdg.c ****   */
 137:../../source/src/FWlib/src/stm32f10x_wwdg.c **** void WWDG_SetWindowValue(uint8_t WindowValue)
 138:../../source/src/FWlib/src/stm32f10x_wwdg.c **** {
  99              		.loc 1 138 0
 100              		.cfi_startproc
 101              		@ args = 0, pretend = 0, frame = 8
 102              		@ frame_needed = 0, uses_anonymous_args = 0
 103              		@ link register save eliminated.
 104              	.LVL5:
 139:../../source/src/FWlib/src/stm32f10x_wwdg.c ****   __IO uint32_t tmpreg = 0;
 105              		.loc 1 139 0
 106 0030 0023     		movs	r3, #0
 138:../../source/src/FWlib/src/stm32f10x_wwdg.c ****   __IO uint32_t tmpreg = 0;
 107              		.loc 1 138 0
 108 0032 82B0     		sub	sp, sp, #8
 109              	.LCFI2:
 110              		.cfi_def_cfa_offset 8
 140:../../source/src/FWlib/src/stm32f10x_wwdg.c **** 
 141:../../source/src/FWlib/src/stm32f10x_wwdg.c ****   /* Check the parameters */
 142:../../source/src/FWlib/src/stm32f10x_wwdg.c ****   assert_param(IS_WWDG_WINDOW_VALUE(WindowValue));
 143:../../source/src/FWlib/src/stm32f10x_wwdg.c ****   /* Clear W[6:0] bits */
 144:../../source/src/FWlib/src/stm32f10x_wwdg.c **** 
 145:../../source/src/FWlib/src/stm32f10x_wwdg.c ****   tmpreg = WWDG->CFR & CFR_W_Mask;
 111              		.loc 1 145 0
 112 0034 074A     		ldr	r2, .L7
 139:../../source/src/FWlib/src/stm32f10x_wwdg.c **** 
 113              		.loc 1 139 0
 114 0036 0193     		str	r3, [sp, #4]
 115              		.loc 1 145 0
 116 0038 5368     		ldr	r3, [r2, #4]
 146:../../source/src/FWlib/src/stm32f10x_wwdg.c **** 
 147:../../source/src/FWlib/src/stm32f10x_wwdg.c ****   /* Set W[6:0] bits according to WindowValue value */
 148:../../source/src/FWlib/src/stm32f10x_wwdg.c ****   tmpreg |= WindowValue & (uint32_t) BIT_Mask;
 117              		.loc 1 148 0
 118 003a 00F07F00 		and	r0, r0, #127
 119              	.LVL6:
 145:../../source/src/FWlib/src/stm32f10x_wwdg.c **** 
 120              		.loc 1 145 0
 121 003e 23F07F03 		bic	r3, r3, #127
 122 0042 0193     		str	r3, [sp, #4]
 123              		.loc 1 148 0
 124 0044 019B     		ldr	r3, [sp, #4]
 125 0046 1843     		orrs	r0, r0, r3
 126 0048 0190     		str	r0, [sp, #4]
 149:../../source/src/FWlib/src/stm32f10x_wwdg.c **** 
 150:../../source/src/FWlib/src/stm32f10x_wwdg.c ****   /* Store the new value */
 151:../../source/src/FWlib/src/stm32f10x_wwdg.c ****   WWDG->CFR = tmpreg;
 127              		.loc 1 151 0
 128 004a 019B     		ldr	r3, [sp, #4]
 129 004c 5360     		str	r3, [r2, #4]
 152:../../source/src/FWlib/src/stm32f10x_wwdg.c **** }
ARM GAS  G:\Users\Jaxb\AppData\Local\Temp\ccMZN3nA.s 			page 6


 130              		.loc 1 152 0
 131 004e 02B0     		add	sp, sp, #8
 132              	.LCFI3:
 133              		.cfi_def_cfa_offset 0
 134              		@ sp needed
 135 0050 7047     		bx	lr
 136              	.L8:
 137 0052 00BF     		.align	2
 138              	.L7:
 139 0054 002C0040 		.word	1073753088
 140              		.cfi_endproc
 141              	.LFE31:
 142              		.size	WWDG_SetWindowValue, .-WWDG_SetWindowValue
 143              		.align	1
 144              		.p2align 2,,3
 145              		.global	WWDG_EnableIT
 146              		.syntax unified
 147              		.thumb
 148              		.thumb_func
 149              		.fpu softvfp
 150              		.type	WWDG_EnableIT, %function
 151              	WWDG_EnableIT:
 152              	.LFB32:
 153:../../source/src/FWlib/src/stm32f10x_wwdg.c **** 
 154:../../source/src/FWlib/src/stm32f10x_wwdg.c **** /**
 155:../../source/src/FWlib/src/stm32f10x_wwdg.c ****   * @brief  Enables the WWDG Early Wakeup interrupt(EWI).
 156:../../source/src/FWlib/src/stm32f10x_wwdg.c ****   * @param  None
 157:../../source/src/FWlib/src/stm32f10x_wwdg.c ****   * @retval None
 158:../../source/src/FWlib/src/stm32f10x_wwdg.c ****   */
 159:../../source/src/FWlib/src/stm32f10x_wwdg.c **** void WWDG_EnableIT(void)
 160:../../source/src/FWlib/src/stm32f10x_wwdg.c **** {
 153              		.loc 1 160 0
 154              		.cfi_startproc
 155              		@ args = 0, pretend = 0, frame = 0
 156              		@ frame_needed = 0, uses_anonymous_args = 0
 157              		@ link register save eliminated.
 161:../../source/src/FWlib/src/stm32f10x_wwdg.c ****   *(__IO uint32_t *) CFR_EWI_BB = (uint32_t)ENABLE;
 158              		.loc 1 161 0
 159 0058 0122     		movs	r2, #1
 160 005a 014B     		ldr	r3, .L10
 161 005c 1A60     		str	r2, [r3]
 162:../../source/src/FWlib/src/stm32f10x_wwdg.c **** }
 162              		.loc 1 162 0
 163 005e 7047     		bx	lr
 164              	.L11:
 165              		.align	2
 166              	.L10:
 167 0060 A4800542 		.word	1107656868
 168              		.cfi_endproc
 169              	.LFE32:
 170              		.size	WWDG_EnableIT, .-WWDG_EnableIT
 171              		.align	1
 172              		.p2align 2,,3
 173              		.global	WWDG_SetCounter
 174              		.syntax unified
 175              		.thumb
 176              		.thumb_func
ARM GAS  G:\Users\Jaxb\AppData\Local\Temp\ccMZN3nA.s 			page 7


 177              		.fpu softvfp
 178              		.type	WWDG_SetCounter, %function
 179              	WWDG_SetCounter:
 180              	.LFB33:
 163:../../source/src/FWlib/src/stm32f10x_wwdg.c **** 
 164:../../source/src/FWlib/src/stm32f10x_wwdg.c **** /**
 165:../../source/src/FWlib/src/stm32f10x_wwdg.c ****   * @brief  Sets the WWDG counter value.
 166:../../source/src/FWlib/src/stm32f10x_wwdg.c ****   * @param  Counter: specifies the watchdog counter value.
 167:../../source/src/FWlib/src/stm32f10x_wwdg.c ****   *   This parameter must be a number between 0x40 and 0x7F.
 168:../../source/src/FWlib/src/stm32f10x_wwdg.c ****   * @retval None
 169:../../source/src/FWlib/src/stm32f10x_wwdg.c ****   */
 170:../../source/src/FWlib/src/stm32f10x_wwdg.c **** void WWDG_SetCounter(uint8_t Counter)
 171:../../source/src/FWlib/src/stm32f10x_wwdg.c **** {
 181              		.loc 1 171 0
 182              		.cfi_startproc
 183              		@ args = 0, pretend = 0, frame = 0
 184              		@ frame_needed = 0, uses_anonymous_args = 0
 185              		@ link register save eliminated.
 186              	.LVL7:
 172:../../source/src/FWlib/src/stm32f10x_wwdg.c ****   /* Check the parameters */
 173:../../source/src/FWlib/src/stm32f10x_wwdg.c ****   assert_param(IS_WWDG_COUNTER(Counter));
 174:../../source/src/FWlib/src/stm32f10x_wwdg.c ****   /* Write to T[6:0] bits to configure the counter value, no need to do
 175:../../source/src/FWlib/src/stm32f10x_wwdg.c ****      a read-modify-write; writing a 0 to WDGA bit does nothing */
 176:../../source/src/FWlib/src/stm32f10x_wwdg.c ****   WWDG->CR = Counter & BIT_Mask;
 187              		.loc 1 176 0
 188 0064 024B     		ldr	r3, .L13
 189 0066 00F07F00 		and	r0, r0, #127
 190              	.LVL8:
 191 006a 1860     		str	r0, [r3]
 177:../../source/src/FWlib/src/stm32f10x_wwdg.c **** }
 192              		.loc 1 177 0
 193 006c 7047     		bx	lr
 194              	.L14:
 195 006e 00BF     		.align	2
 196              	.L13:
 197 0070 002C0040 		.word	1073753088
 198              		.cfi_endproc
 199              	.LFE33:
 200              		.size	WWDG_SetCounter, .-WWDG_SetCounter
 201              		.align	1
 202              		.p2align 2,,3
 203              		.global	WWDG_Enable
 204              		.syntax unified
 205              		.thumb
 206              		.thumb_func
 207              		.fpu softvfp
 208              		.type	WWDG_Enable, %function
 209              	WWDG_Enable:
 210              	.LFB34:
 178:../../source/src/FWlib/src/stm32f10x_wwdg.c **** 
 179:../../source/src/FWlib/src/stm32f10x_wwdg.c **** /**
 180:../../source/src/FWlib/src/stm32f10x_wwdg.c ****   * @brief  Enables WWDG and load the counter value.                  
 181:../../source/src/FWlib/src/stm32f10x_wwdg.c ****   * @param  Counter: specifies the watchdog counter value.
 182:../../source/src/FWlib/src/stm32f10x_wwdg.c ****   *   This parameter must be a number between 0x40 and 0x7F.
 183:../../source/src/FWlib/src/stm32f10x_wwdg.c ****   * @retval None
 184:../../source/src/FWlib/src/stm32f10x_wwdg.c ****   */
 185:../../source/src/FWlib/src/stm32f10x_wwdg.c **** void WWDG_Enable(uint8_t Counter)
ARM GAS  G:\Users\Jaxb\AppData\Local\Temp\ccMZN3nA.s 			page 8


 186:../../source/src/FWlib/src/stm32f10x_wwdg.c **** {
 211              		.loc 1 186 0
 212              		.cfi_startproc
 213              		@ args = 0, pretend = 0, frame = 0
 214              		@ frame_needed = 0, uses_anonymous_args = 0
 215              		@ link register save eliminated.
 216              	.LVL9:
 187:../../source/src/FWlib/src/stm32f10x_wwdg.c ****   /* Check the parameters */
 188:../../source/src/FWlib/src/stm32f10x_wwdg.c ****   assert_param(IS_WWDG_COUNTER(Counter));
 189:../../source/src/FWlib/src/stm32f10x_wwdg.c ****   WWDG->CR = CR_WDGA_Set | Counter;
 217              		.loc 1 189 0
 218 0074 024B     		ldr	r3, .L16
 219 0076 40F08000 		orr	r0, r0, #128
 220              	.LVL10:
 221 007a 1860     		str	r0, [r3]
 190:../../source/src/FWlib/src/stm32f10x_wwdg.c **** }
 222              		.loc 1 190 0
 223 007c 7047     		bx	lr
 224              	.L17:
 225 007e 00BF     		.align	2
 226              	.L16:
 227 0080 002C0040 		.word	1073753088
 228              		.cfi_endproc
 229              	.LFE34:
 230              		.size	WWDG_Enable, .-WWDG_Enable
 231              		.align	1
 232              		.p2align 2,,3
 233              		.global	WWDG_GetFlagStatus
 234              		.syntax unified
 235              		.thumb
 236              		.thumb_func
 237              		.fpu softvfp
 238              		.type	WWDG_GetFlagStatus, %function
 239              	WWDG_GetFlagStatus:
 240              	.LFB35:
 191:../../source/src/FWlib/src/stm32f10x_wwdg.c **** 
 192:../../source/src/FWlib/src/stm32f10x_wwdg.c **** /**
 193:../../source/src/FWlib/src/stm32f10x_wwdg.c ****   * @brief  Checks whether the Early Wakeup interrupt flag is set or not.
 194:../../source/src/FWlib/src/stm32f10x_wwdg.c ****   * @param  None
 195:../../source/src/FWlib/src/stm32f10x_wwdg.c ****   * @retval The new state of the Early Wakeup interrupt flag (SET or RESET)
 196:../../source/src/FWlib/src/stm32f10x_wwdg.c ****   */
 197:../../source/src/FWlib/src/stm32f10x_wwdg.c **** FlagStatus WWDG_GetFlagStatus(void)
 198:../../source/src/FWlib/src/stm32f10x_wwdg.c **** {
 241              		.loc 1 198 0
 242              		.cfi_startproc
 243              		@ args = 0, pretend = 0, frame = 0
 244              		@ frame_needed = 0, uses_anonymous_args = 0
 245              		@ link register save eliminated.
 199:../../source/src/FWlib/src/stm32f10x_wwdg.c ****   return (FlagStatus)(WWDG->SR);
 246              		.loc 1 199 0
 247 0084 014B     		ldr	r3, .L19
 248 0086 9868     		ldr	r0, [r3, #8]
 200:../../source/src/FWlib/src/stm32f10x_wwdg.c **** }
 249              		.loc 1 200 0
 250 0088 C0B2     		uxtb	r0, r0
 251 008a 7047     		bx	lr
 252              	.L20:
ARM GAS  G:\Users\Jaxb\AppData\Local\Temp\ccMZN3nA.s 			page 9


 253              		.align	2
 254              	.L19:
 255 008c 002C0040 		.word	1073753088
 256              		.cfi_endproc
 257              	.LFE35:
 258              		.size	WWDG_GetFlagStatus, .-WWDG_GetFlagStatus
 259              		.align	1
 260              		.p2align 2,,3
 261              		.global	WWDG_ClearFlag
 262              		.syntax unified
 263              		.thumb
 264              		.thumb_func
 265              		.fpu softvfp
 266              		.type	WWDG_ClearFlag, %function
 267              	WWDG_ClearFlag:
 268              	.LFB36:
 201:../../source/src/FWlib/src/stm32f10x_wwdg.c **** 
 202:../../source/src/FWlib/src/stm32f10x_wwdg.c **** /**
 203:../../source/src/FWlib/src/stm32f10x_wwdg.c ****   * @brief  Clears Early Wakeup interrupt flag.
 204:../../source/src/FWlib/src/stm32f10x_wwdg.c ****   * @param  None
 205:../../source/src/FWlib/src/stm32f10x_wwdg.c ****   * @retval None
 206:../../source/src/FWlib/src/stm32f10x_wwdg.c ****   */
 207:../../source/src/FWlib/src/stm32f10x_wwdg.c **** void WWDG_ClearFlag(void)
 208:../../source/src/FWlib/src/stm32f10x_wwdg.c **** {
 269              		.loc 1 208 0
 270              		.cfi_startproc
 271              		@ args = 0, pretend = 0, frame = 0
 272              		@ frame_needed = 0, uses_anonymous_args = 0
 273              		@ link register save eliminated.
 209:../../source/src/FWlib/src/stm32f10x_wwdg.c ****   WWDG->SR = (uint32_t)RESET;
 274              		.loc 1 209 0
 275 0090 0022     		movs	r2, #0
 276 0092 014B     		ldr	r3, .L22
 277 0094 9A60     		str	r2, [r3, #8]
 210:../../source/src/FWlib/src/stm32f10x_wwdg.c **** }
 278              		.loc 1 210 0
 279 0096 7047     		bx	lr
 280              	.L23:
 281              		.align	2
 282              	.L22:
 283 0098 002C0040 		.word	1073753088
 284              		.cfi_endproc
 285              	.LFE36:
 286              		.size	WWDG_ClearFlag, .-WWDG_ClearFlag
 287              	.Letext0:
 288              		.file 2 "f:\\arm\\gcc2018\\arm-none-eabi\\include\\machine\\_default_types.h"
 289              		.file 3 "f:\\arm\\gcc2018\\arm-none-eabi\\include\\sys\\_stdint.h"
 290              		.file 4 "../../source/include/core_cm3.h"
 291              		.file 5 "../../source/include/system_stm32f10x.h"
 292              		.file 6 "../../source/include/stm32f10x.h"
 293              		.file 7 "../../source/src/FWlib/inc/stm32f10x_rcc.h"