ARM GAS  G:\Users\Jaxb\AppData\Local\Temp\ccSQWSCJ.s 			page 1


   1              		.cpu cortex-m3
   2              		.eabi_attribute 20, 1
   3              		.eabi_attribute 21, 1
   4              		.eabi_attribute 23, 3
   5              		.eabi_attribute 24, 1
   6              		.eabi_attribute 25, 1
   7              		.eabi_attribute 26, 1
   8              		.eabi_attribute 30, 6
   9              		.eabi_attribute 34, 1
  10              		.eabi_attribute 18, 4
  11              		.file	"stm32f10x_tim.c"
  12              		.text
  13              	.Ltext0:
  14              		.cfi_sections	.debug_frame
  15              		.align	1
  16              		.global	TIM_DeInit
  17              		.syntax unified
  18              		.thumb
  19              		.thumb_func
  20              		.fpu softvfp
  21              		.type	TIM_DeInit, %function
  22              	TIM_DeInit:
  23              	.LFB29:
  24              		.file 1 "../../source/src/FWlib/src/stm32f10x_tim.c"
   1:../../source/src/FWlib/src/stm32f10x_tim.c **** /**
   2:../../source/src/FWlib/src/stm32f10x_tim.c ****   ******************************************************************************
   3:../../source/src/FWlib/src/stm32f10x_tim.c ****   * @file    stm32f10x_tim.c
   4:../../source/src/FWlib/src/stm32f10x_tim.c ****   * @author  MCD Application Team
   5:../../source/src/FWlib/src/stm32f10x_tim.c ****   * @version V3.5.0
   6:../../source/src/FWlib/src/stm32f10x_tim.c ****   * @date    11-March-2011
   7:../../source/src/FWlib/src/stm32f10x_tim.c ****   * @brief   This file provides all the TIM firmware functions.
   8:../../source/src/FWlib/src/stm32f10x_tim.c ****   ******************************************************************************
   9:../../source/src/FWlib/src/stm32f10x_tim.c ****   * @attention
  10:../../source/src/FWlib/src/stm32f10x_tim.c ****   *
  11:../../source/src/FWlib/src/stm32f10x_tim.c ****   * THE PRESENT FIRMWARE WHICH IS FOR GUIDANCE ONLY AIMS AT PROVIDING CUSTOMERS
  12:../../source/src/FWlib/src/stm32f10x_tim.c ****   * WITH CODING INFORMATION REGARDING THEIR PRODUCTS IN ORDER FOR THEM TO SAVE
  13:../../source/src/FWlib/src/stm32f10x_tim.c ****   * TIME. AS A RESULT, STMICROELECTRONICS SHALL NOT BE HELD LIABLE FOR ANY
  14:../../source/src/FWlib/src/stm32f10x_tim.c ****   * DIRECT, INDIRECT OR CONSEQUENTIAL DAMAGES WITH RESPECT TO ANY CLAIMS ARISING
  15:../../source/src/FWlib/src/stm32f10x_tim.c ****   * FROM THE CONTENT OF SUCH FIRMWARE AND/OR THE USE MADE BY CUSTOMERS OF THE
  16:../../source/src/FWlib/src/stm32f10x_tim.c ****   * CODING INFORMATION CONTAINED HEREIN IN CONNECTION WITH THEIR PRODUCTS.
  17:../../source/src/FWlib/src/stm32f10x_tim.c ****   *
  18:../../source/src/FWlib/src/stm32f10x_tim.c ****   * <h2><center>&copy; COPYRIGHT 2011 STMicroelectronics</center></h2>
  19:../../source/src/FWlib/src/stm32f10x_tim.c ****   ******************************************************************************
  20:../../source/src/FWlib/src/stm32f10x_tim.c ****   */
  21:../../source/src/FWlib/src/stm32f10x_tim.c **** 
  22:../../source/src/FWlib/src/stm32f10x_tim.c **** /* Includes ------------------------------------------------------------------*/
  23:../../source/src/FWlib/src/stm32f10x_tim.c **** #include "stm32f10x_tim.h"
  24:../../source/src/FWlib/src/stm32f10x_tim.c **** #include "stm32f10x_rcc.h"
  25:../../source/src/FWlib/src/stm32f10x_tim.c **** 
  26:../../source/src/FWlib/src/stm32f10x_tim.c **** /** @addtogroup STM32F10x_StdPeriph_Driver
  27:../../source/src/FWlib/src/stm32f10x_tim.c ****   * @{
  28:../../source/src/FWlib/src/stm32f10x_tim.c ****   */
  29:../../source/src/FWlib/src/stm32f10x_tim.c **** 
  30:../../source/src/FWlib/src/stm32f10x_tim.c **** /** @defgroup TIM 
  31:../../source/src/FWlib/src/stm32f10x_tim.c ****   * @brief TIM driver modules
  32:../../source/src/FWlib/src/stm32f10x_tim.c ****   * @{
  33:../../source/src/FWlib/src/stm32f10x_tim.c ****   */
ARM GAS  G:\Users\Jaxb\AppData\Local\Temp\ccSQWSCJ.s 			page 2


  34:../../source/src/FWlib/src/stm32f10x_tim.c **** 
  35:../../source/src/FWlib/src/stm32f10x_tim.c **** /** @defgroup TIM_Private_TypesDefinitions
  36:../../source/src/FWlib/src/stm32f10x_tim.c ****   * @{
  37:../../source/src/FWlib/src/stm32f10x_tim.c ****   */
  38:../../source/src/FWlib/src/stm32f10x_tim.c **** 
  39:../../source/src/FWlib/src/stm32f10x_tim.c **** /**
  40:../../source/src/FWlib/src/stm32f10x_tim.c ****   * @}
  41:../../source/src/FWlib/src/stm32f10x_tim.c ****   */
  42:../../source/src/FWlib/src/stm32f10x_tim.c **** 
  43:../../source/src/FWlib/src/stm32f10x_tim.c **** /** @defgroup TIM_Private_Defines
  44:../../source/src/FWlib/src/stm32f10x_tim.c ****   * @{
  45:../../source/src/FWlib/src/stm32f10x_tim.c ****   */
  46:../../source/src/FWlib/src/stm32f10x_tim.c **** 
  47:../../source/src/FWlib/src/stm32f10x_tim.c **** /* ---------------------- TIM registers bit mask ------------------------ */
  48:../../source/src/FWlib/src/stm32f10x_tim.c **** #define SMCR_ETR_Mask               ((uint16_t)0x00FF) 
  49:../../source/src/FWlib/src/stm32f10x_tim.c **** #define CCMR_Offset                 ((uint16_t)0x0018)
  50:../../source/src/FWlib/src/stm32f10x_tim.c **** #define CCER_CCE_Set                ((uint16_t)0x0001)  
  51:../../source/src/FWlib/src/stm32f10x_tim.c **** #define	CCER_CCNE_Set               ((uint16_t)0x0004) 
  52:../../source/src/FWlib/src/stm32f10x_tim.c **** 
  53:../../source/src/FWlib/src/stm32f10x_tim.c **** /**
  54:../../source/src/FWlib/src/stm32f10x_tim.c ****   * @}
  55:../../source/src/FWlib/src/stm32f10x_tim.c ****   */
  56:../../source/src/FWlib/src/stm32f10x_tim.c **** 
  57:../../source/src/FWlib/src/stm32f10x_tim.c **** /** @defgroup TIM_Private_Macros
  58:../../source/src/FWlib/src/stm32f10x_tim.c ****   * @{
  59:../../source/src/FWlib/src/stm32f10x_tim.c ****   */
  60:../../source/src/FWlib/src/stm32f10x_tim.c **** 
  61:../../source/src/FWlib/src/stm32f10x_tim.c **** /**
  62:../../source/src/FWlib/src/stm32f10x_tim.c ****   * @}
  63:../../source/src/FWlib/src/stm32f10x_tim.c ****   */
  64:../../source/src/FWlib/src/stm32f10x_tim.c **** 
  65:../../source/src/FWlib/src/stm32f10x_tim.c **** /** @defgroup TIM_Private_Variables
  66:../../source/src/FWlib/src/stm32f10x_tim.c ****   * @{
  67:../../source/src/FWlib/src/stm32f10x_tim.c ****   */
  68:../../source/src/FWlib/src/stm32f10x_tim.c **** 
  69:../../source/src/FWlib/src/stm32f10x_tim.c **** /**
  70:../../source/src/FWlib/src/stm32f10x_tim.c ****   * @}
  71:../../source/src/FWlib/src/stm32f10x_tim.c ****   */
  72:../../source/src/FWlib/src/stm32f10x_tim.c **** 
  73:../../source/src/FWlib/src/stm32f10x_tim.c **** /** @defgroup TIM_Private_FunctionPrototypes
  74:../../source/src/FWlib/src/stm32f10x_tim.c ****   * @{
  75:../../source/src/FWlib/src/stm32f10x_tim.c ****   */
  76:../../source/src/FWlib/src/stm32f10x_tim.c **** 
  77:../../source/src/FWlib/src/stm32f10x_tim.c **** static void TI1_Config(TIM_TypeDef* TIMx, uint16_t TIM_ICPolarity, uint16_t TIM_ICSelection,
  78:../../source/src/FWlib/src/stm32f10x_tim.c ****                        uint16_t TIM_ICFilter);
  79:../../source/src/FWlib/src/stm32f10x_tim.c **** static void TI2_Config(TIM_TypeDef* TIMx, uint16_t TIM_ICPolarity, uint16_t TIM_ICSelection,
  80:../../source/src/FWlib/src/stm32f10x_tim.c ****                        uint16_t TIM_ICFilter);
  81:../../source/src/FWlib/src/stm32f10x_tim.c **** static void TI3_Config(TIM_TypeDef* TIMx, uint16_t TIM_ICPolarity, uint16_t TIM_ICSelection,
  82:../../source/src/FWlib/src/stm32f10x_tim.c ****                        uint16_t TIM_ICFilter);
  83:../../source/src/FWlib/src/stm32f10x_tim.c **** static void TI4_Config(TIM_TypeDef* TIMx, uint16_t TIM_ICPolarity, uint16_t TIM_ICSelection,
  84:../../source/src/FWlib/src/stm32f10x_tim.c ****                        uint16_t TIM_ICFilter);
  85:../../source/src/FWlib/src/stm32f10x_tim.c **** /**
  86:../../source/src/FWlib/src/stm32f10x_tim.c ****   * @}
  87:../../source/src/FWlib/src/stm32f10x_tim.c ****   */
  88:../../source/src/FWlib/src/stm32f10x_tim.c **** 
  89:../../source/src/FWlib/src/stm32f10x_tim.c **** /** @defgroup TIM_Private_Macros
  90:../../source/src/FWlib/src/stm32f10x_tim.c ****   * @{
ARM GAS  G:\Users\Jaxb\AppData\Local\Temp\ccSQWSCJ.s 			page 3


  91:../../source/src/FWlib/src/stm32f10x_tim.c ****   */
  92:../../source/src/FWlib/src/stm32f10x_tim.c **** 
  93:../../source/src/FWlib/src/stm32f10x_tim.c **** /**
  94:../../source/src/FWlib/src/stm32f10x_tim.c ****   * @}
  95:../../source/src/FWlib/src/stm32f10x_tim.c ****   */
  96:../../source/src/FWlib/src/stm32f10x_tim.c **** 
  97:../../source/src/FWlib/src/stm32f10x_tim.c **** /** @defgroup TIM_Private_Variables
  98:../../source/src/FWlib/src/stm32f10x_tim.c ****   * @{
  99:../../source/src/FWlib/src/stm32f10x_tim.c ****   */
 100:../../source/src/FWlib/src/stm32f10x_tim.c **** 
 101:../../source/src/FWlib/src/stm32f10x_tim.c **** /**
 102:../../source/src/FWlib/src/stm32f10x_tim.c ****   * @}
 103:../../source/src/FWlib/src/stm32f10x_tim.c ****   */
 104:../../source/src/FWlib/src/stm32f10x_tim.c **** 
 105:../../source/src/FWlib/src/stm32f10x_tim.c **** /** @defgroup TIM_Private_FunctionPrototypes
 106:../../source/src/FWlib/src/stm32f10x_tim.c ****   * @{
 107:../../source/src/FWlib/src/stm32f10x_tim.c ****   */
 108:../../source/src/FWlib/src/stm32f10x_tim.c **** 
 109:../../source/src/FWlib/src/stm32f10x_tim.c **** /**
 110:../../source/src/FWlib/src/stm32f10x_tim.c ****   * @}
 111:../../source/src/FWlib/src/stm32f10x_tim.c ****   */
 112:../../source/src/FWlib/src/stm32f10x_tim.c **** 
 113:../../source/src/FWlib/src/stm32f10x_tim.c **** /** @defgroup TIM_Private_Functions
 114:../../source/src/FWlib/src/stm32f10x_tim.c ****   * @{
 115:../../source/src/FWlib/src/stm32f10x_tim.c ****   */
 116:../../source/src/FWlib/src/stm32f10x_tim.c **** 
 117:../../source/src/FWlib/src/stm32f10x_tim.c **** /**
 118:../../source/src/FWlib/src/stm32f10x_tim.c ****   * @brief  Deinitializes the TIMx peripheral registers to their default reset values.
 119:../../source/src/FWlib/src/stm32f10x_tim.c ****   * @param  TIMx: where x can be 1 to 17 to select the TIM peripheral.
 120:../../source/src/FWlib/src/stm32f10x_tim.c ****   * @retval None
 121:../../source/src/FWlib/src/stm32f10x_tim.c ****   */
 122:../../source/src/FWlib/src/stm32f10x_tim.c **** void TIM_DeInit(TIM_TypeDef* TIMx)
 123:../../source/src/FWlib/src/stm32f10x_tim.c **** {
  25              		.loc 1 123 0
  26              		.cfi_startproc
  27              		@ args = 0, pretend = 0, frame = 8
  28              		@ frame_needed = 1, uses_anonymous_args = 0
  29 0000 80B5     		push	{r7, lr}
  30              	.LCFI0:
  31              		.cfi_def_cfa_offset 8
  32              		.cfi_offset 7, -8
  33              		.cfi_offset 14, -4
  34 0002 82B0     		sub	sp, sp, #8
  35              	.LCFI1:
  36              		.cfi_def_cfa_offset 16
  37 0004 00AF     		add	r7, sp, #0
  38              	.LCFI2:
  39              		.cfi_def_cfa_register 7
  40 0006 7860     		str	r0, [r7, #4]
 124:../../source/src/FWlib/src/stm32f10x_tim.c ****   /* Check the parameters */
 125:../../source/src/FWlib/src/stm32f10x_tim.c ****   assert_param(IS_TIM_ALL_PERIPH(TIMx)); 
 126:../../source/src/FWlib/src/stm32f10x_tim.c ****  
 127:../../source/src/FWlib/src/stm32f10x_tim.c ****   if (TIMx == TIM1)
  41              		.loc 1 127 0
  42 0008 7B68     		ldr	r3, [r7, #4]
  43 000a 784A     		ldr	r2, .L20
  44 000c 9342     		cmp	r3, r2
ARM GAS  G:\Users\Jaxb\AppData\Local\Temp\ccSQWSCJ.s 			page 4


  45 000e 0AD1     		bne	.L2
 128:../../source/src/FWlib/src/stm32f10x_tim.c ****   {
 129:../../source/src/FWlib/src/stm32f10x_tim.c ****     RCC_APB2PeriphResetCmd(RCC_APB2Periph_TIM1, ENABLE);
  46              		.loc 1 129 0
  47 0010 0121     		movs	r1, #1
  48 0012 4FF40060 		mov	r0, #2048
  49 0016 FFF7FEFF 		bl	RCC_APB2PeriphResetCmd
 130:../../source/src/FWlib/src/stm32f10x_tim.c ****     RCC_APB2PeriphResetCmd(RCC_APB2Periph_TIM1, DISABLE);  
  50              		.loc 1 130 0
  51 001a 0021     		movs	r1, #0
  52 001c 4FF40060 		mov	r0, #2048
  53 0020 FFF7FEFF 		bl	RCC_APB2PeriphResetCmd
 131:../../source/src/FWlib/src/stm32f10x_tim.c ****   }     
 132:../../source/src/FWlib/src/stm32f10x_tim.c ****   else if (TIMx == TIM2)
 133:../../source/src/FWlib/src/stm32f10x_tim.c ****   {
 134:../../source/src/FWlib/src/stm32f10x_tim.c ****     RCC_APB1PeriphResetCmd(RCC_APB1Periph_TIM2, ENABLE);
 135:../../source/src/FWlib/src/stm32f10x_tim.c ****     RCC_APB1PeriphResetCmd(RCC_APB1Periph_TIM2, DISABLE);
 136:../../source/src/FWlib/src/stm32f10x_tim.c ****   }
 137:../../source/src/FWlib/src/stm32f10x_tim.c ****   else if (TIMx == TIM3)
 138:../../source/src/FWlib/src/stm32f10x_tim.c ****   {
 139:../../source/src/FWlib/src/stm32f10x_tim.c ****     RCC_APB1PeriphResetCmd(RCC_APB1Periph_TIM3, ENABLE);
 140:../../source/src/FWlib/src/stm32f10x_tim.c ****     RCC_APB1PeriphResetCmd(RCC_APB1Periph_TIM3, DISABLE);
 141:../../source/src/FWlib/src/stm32f10x_tim.c ****   }
 142:../../source/src/FWlib/src/stm32f10x_tim.c ****   else if (TIMx == TIM4)
 143:../../source/src/FWlib/src/stm32f10x_tim.c ****   {
 144:../../source/src/FWlib/src/stm32f10x_tim.c ****     RCC_APB1PeriphResetCmd(RCC_APB1Periph_TIM4, ENABLE);
 145:../../source/src/FWlib/src/stm32f10x_tim.c ****     RCC_APB1PeriphResetCmd(RCC_APB1Periph_TIM4, DISABLE);
 146:../../source/src/FWlib/src/stm32f10x_tim.c ****   } 
 147:../../source/src/FWlib/src/stm32f10x_tim.c ****   else if (TIMx == TIM5)
 148:../../source/src/FWlib/src/stm32f10x_tim.c ****   {
 149:../../source/src/FWlib/src/stm32f10x_tim.c ****     RCC_APB1PeriphResetCmd(RCC_APB1Periph_TIM5, ENABLE);
 150:../../source/src/FWlib/src/stm32f10x_tim.c ****     RCC_APB1PeriphResetCmd(RCC_APB1Periph_TIM5, DISABLE);
 151:../../source/src/FWlib/src/stm32f10x_tim.c ****   } 
 152:../../source/src/FWlib/src/stm32f10x_tim.c ****   else if (TIMx == TIM6)
 153:../../source/src/FWlib/src/stm32f10x_tim.c ****   {
 154:../../source/src/FWlib/src/stm32f10x_tim.c ****     RCC_APB1PeriphResetCmd(RCC_APB1Periph_TIM6, ENABLE);
 155:../../source/src/FWlib/src/stm32f10x_tim.c ****     RCC_APB1PeriphResetCmd(RCC_APB1Periph_TIM6, DISABLE);
 156:../../source/src/FWlib/src/stm32f10x_tim.c ****   } 
 157:../../source/src/FWlib/src/stm32f10x_tim.c ****   else if (TIMx == TIM7)
 158:../../source/src/FWlib/src/stm32f10x_tim.c ****   {
 159:../../source/src/FWlib/src/stm32f10x_tim.c ****     RCC_APB1PeriphResetCmd(RCC_APB1Periph_TIM7, ENABLE);
 160:../../source/src/FWlib/src/stm32f10x_tim.c ****     RCC_APB1PeriphResetCmd(RCC_APB1Periph_TIM7, DISABLE);
 161:../../source/src/FWlib/src/stm32f10x_tim.c ****   } 
 162:../../source/src/FWlib/src/stm32f10x_tim.c ****   else if (TIMx == TIM8)
 163:../../source/src/FWlib/src/stm32f10x_tim.c ****   {
 164:../../source/src/FWlib/src/stm32f10x_tim.c ****     RCC_APB2PeriphResetCmd(RCC_APB2Periph_TIM8, ENABLE);
 165:../../source/src/FWlib/src/stm32f10x_tim.c ****     RCC_APB2PeriphResetCmd(RCC_APB2Periph_TIM8, DISABLE);
 166:../../source/src/FWlib/src/stm32f10x_tim.c ****   }
 167:../../source/src/FWlib/src/stm32f10x_tim.c ****   else if (TIMx == TIM9)
 168:../../source/src/FWlib/src/stm32f10x_tim.c ****   {      
 169:../../source/src/FWlib/src/stm32f10x_tim.c ****     RCC_APB2PeriphResetCmd(RCC_APB2Periph_TIM9, ENABLE);
 170:../../source/src/FWlib/src/stm32f10x_tim.c ****     RCC_APB2PeriphResetCmd(RCC_APB2Periph_TIM9, DISABLE);  
 171:../../source/src/FWlib/src/stm32f10x_tim.c ****    }  
 172:../../source/src/FWlib/src/stm32f10x_tim.c ****   else if (TIMx == TIM10)
 173:../../source/src/FWlib/src/stm32f10x_tim.c ****   {      
 174:../../source/src/FWlib/src/stm32f10x_tim.c ****     RCC_APB2PeriphResetCmd(RCC_APB2Periph_TIM10, ENABLE);
 175:../../source/src/FWlib/src/stm32f10x_tim.c ****     RCC_APB2PeriphResetCmd(RCC_APB2Periph_TIM10, DISABLE);  
ARM GAS  G:\Users\Jaxb\AppData\Local\Temp\ccSQWSCJ.s 			page 5


 176:../../source/src/FWlib/src/stm32f10x_tim.c ****   }  
 177:../../source/src/FWlib/src/stm32f10x_tim.c ****   else if (TIMx == TIM11) 
 178:../../source/src/FWlib/src/stm32f10x_tim.c ****   {     
 179:../../source/src/FWlib/src/stm32f10x_tim.c ****     RCC_APB2PeriphResetCmd(RCC_APB2Periph_TIM11, ENABLE);
 180:../../source/src/FWlib/src/stm32f10x_tim.c ****     RCC_APB2PeriphResetCmd(RCC_APB2Periph_TIM11, DISABLE);  
 181:../../source/src/FWlib/src/stm32f10x_tim.c ****   }  
 182:../../source/src/FWlib/src/stm32f10x_tim.c ****   else if (TIMx == TIM12)
 183:../../source/src/FWlib/src/stm32f10x_tim.c ****   {      
 184:../../source/src/FWlib/src/stm32f10x_tim.c ****     RCC_APB1PeriphResetCmd(RCC_APB1Periph_TIM12, ENABLE);
 185:../../source/src/FWlib/src/stm32f10x_tim.c ****     RCC_APB1PeriphResetCmd(RCC_APB1Periph_TIM12, DISABLE);  
 186:../../source/src/FWlib/src/stm32f10x_tim.c ****   }  
 187:../../source/src/FWlib/src/stm32f10x_tim.c ****   else if (TIMx == TIM13) 
 188:../../source/src/FWlib/src/stm32f10x_tim.c ****   {       
 189:../../source/src/FWlib/src/stm32f10x_tim.c ****     RCC_APB1PeriphResetCmd(RCC_APB1Periph_TIM13, ENABLE);
 190:../../source/src/FWlib/src/stm32f10x_tim.c ****     RCC_APB1PeriphResetCmd(RCC_APB1Periph_TIM13, DISABLE);  
 191:../../source/src/FWlib/src/stm32f10x_tim.c ****   }
 192:../../source/src/FWlib/src/stm32f10x_tim.c ****   else if (TIMx == TIM14) 
 193:../../source/src/FWlib/src/stm32f10x_tim.c ****   {       
 194:../../source/src/FWlib/src/stm32f10x_tim.c ****     RCC_APB1PeriphResetCmd(RCC_APB1Periph_TIM14, ENABLE);
 195:../../source/src/FWlib/src/stm32f10x_tim.c ****     RCC_APB1PeriphResetCmd(RCC_APB1Periph_TIM14, DISABLE);  
 196:../../source/src/FWlib/src/stm32f10x_tim.c ****   }        
 197:../../source/src/FWlib/src/stm32f10x_tim.c ****   else if (TIMx == TIM15)
 198:../../source/src/FWlib/src/stm32f10x_tim.c ****   {
 199:../../source/src/FWlib/src/stm32f10x_tim.c ****     RCC_APB2PeriphResetCmd(RCC_APB2Periph_TIM15, ENABLE);
 200:../../source/src/FWlib/src/stm32f10x_tim.c ****     RCC_APB2PeriphResetCmd(RCC_APB2Periph_TIM15, DISABLE);
 201:../../source/src/FWlib/src/stm32f10x_tim.c ****   } 
 202:../../source/src/FWlib/src/stm32f10x_tim.c ****   else if (TIMx == TIM16)
 203:../../source/src/FWlib/src/stm32f10x_tim.c ****   {
 204:../../source/src/FWlib/src/stm32f10x_tim.c ****     RCC_APB2PeriphResetCmd(RCC_APB2Periph_TIM16, ENABLE);
 205:../../source/src/FWlib/src/stm32f10x_tim.c ****     RCC_APB2PeriphResetCmd(RCC_APB2Periph_TIM16, DISABLE);
 206:../../source/src/FWlib/src/stm32f10x_tim.c ****   } 
 207:../../source/src/FWlib/src/stm32f10x_tim.c ****   else
 208:../../source/src/FWlib/src/stm32f10x_tim.c ****   {
 209:../../source/src/FWlib/src/stm32f10x_tim.c ****     if (TIMx == TIM17)
 210:../../source/src/FWlib/src/stm32f10x_tim.c ****     {
 211:../../source/src/FWlib/src/stm32f10x_tim.c ****       RCC_APB2PeriphResetCmd(RCC_APB2Periph_TIM17, ENABLE);
 212:../../source/src/FWlib/src/stm32f10x_tim.c ****       RCC_APB2PeriphResetCmd(RCC_APB2Periph_TIM17, DISABLE);
 213:../../source/src/FWlib/src/stm32f10x_tim.c ****     }  
 214:../../source/src/FWlib/src/stm32f10x_tim.c ****   }
 215:../../source/src/FWlib/src/stm32f10x_tim.c **** }
  54              		.loc 1 215 0
  55 0024 DEE0     		b	.L19
  56              	.L2:
 132:../../source/src/FWlib/src/stm32f10x_tim.c ****   {
  57              		.loc 1 132 0
  58 0026 7B68     		ldr	r3, [r7, #4]
  59 0028 B3F1804F 		cmp	r3, #1073741824
  60 002c 08D1     		bne	.L4
 134:../../source/src/FWlib/src/stm32f10x_tim.c ****     RCC_APB1PeriphResetCmd(RCC_APB1Periph_TIM2, DISABLE);
  61              		.loc 1 134 0
  62 002e 0121     		movs	r1, #1
  63 0030 0120     		movs	r0, #1
  64 0032 FFF7FEFF 		bl	RCC_APB1PeriphResetCmd
 135:../../source/src/FWlib/src/stm32f10x_tim.c ****   }
  65              		.loc 1 135 0
  66 0036 0021     		movs	r1, #0
  67 0038 0120     		movs	r0, #1
ARM GAS  G:\Users\Jaxb\AppData\Local\Temp\ccSQWSCJ.s 			page 6


  68 003a FFF7FEFF 		bl	RCC_APB1PeriphResetCmd
  69              		.loc 1 215 0
  70 003e D1E0     		b	.L19
  71              	.L4:
 137:../../source/src/FWlib/src/stm32f10x_tim.c ****   {
  72              		.loc 1 137 0
  73 0040 7B68     		ldr	r3, [r7, #4]
  74 0042 6B4A     		ldr	r2, .L20+4
  75 0044 9342     		cmp	r3, r2
  76 0046 08D1     		bne	.L5
 139:../../source/src/FWlib/src/stm32f10x_tim.c ****     RCC_APB1PeriphResetCmd(RCC_APB1Periph_TIM3, DISABLE);
  77              		.loc 1 139 0
  78 0048 0121     		movs	r1, #1
  79 004a 0220     		movs	r0, #2
  80 004c FFF7FEFF 		bl	RCC_APB1PeriphResetCmd
 140:../../source/src/FWlib/src/stm32f10x_tim.c ****   }
  81              		.loc 1 140 0
  82 0050 0021     		movs	r1, #0
  83 0052 0220     		movs	r0, #2
  84 0054 FFF7FEFF 		bl	RCC_APB1PeriphResetCmd
  85              		.loc 1 215 0
  86 0058 C4E0     		b	.L19
  87              	.L5:
 142:../../source/src/FWlib/src/stm32f10x_tim.c ****   {
  88              		.loc 1 142 0
  89 005a 7B68     		ldr	r3, [r7, #4]
  90 005c 654A     		ldr	r2, .L20+8
  91 005e 9342     		cmp	r3, r2
  92 0060 08D1     		bne	.L6
 144:../../source/src/FWlib/src/stm32f10x_tim.c ****     RCC_APB1PeriphResetCmd(RCC_APB1Periph_TIM4, DISABLE);
  93              		.loc 1 144 0
  94 0062 0121     		movs	r1, #1
  95 0064 0420     		movs	r0, #4
  96 0066 FFF7FEFF 		bl	RCC_APB1PeriphResetCmd
 145:../../source/src/FWlib/src/stm32f10x_tim.c ****   } 
  97              		.loc 1 145 0
  98 006a 0021     		movs	r1, #0
  99 006c 0420     		movs	r0, #4
 100 006e FFF7FEFF 		bl	RCC_APB1PeriphResetCmd
 101              		.loc 1 215 0
 102 0072 B7E0     		b	.L19
 103              	.L6:
 147:../../source/src/FWlib/src/stm32f10x_tim.c ****   {
 104              		.loc 1 147 0
 105 0074 7B68     		ldr	r3, [r7, #4]
 106 0076 604A     		ldr	r2, .L20+12
 107 0078 9342     		cmp	r3, r2
 108 007a 08D1     		bne	.L7
 149:../../source/src/FWlib/src/stm32f10x_tim.c ****     RCC_APB1PeriphResetCmd(RCC_APB1Periph_TIM5, DISABLE);
 109              		.loc 1 149 0
 110 007c 0121     		movs	r1, #1
 111 007e 0820     		movs	r0, #8
 112 0080 FFF7FEFF 		bl	RCC_APB1PeriphResetCmd
 150:../../source/src/FWlib/src/stm32f10x_tim.c ****   } 
 113              		.loc 1 150 0
 114 0084 0021     		movs	r1, #0
 115 0086 0820     		movs	r0, #8
ARM GAS  G:\Users\Jaxb\AppData\Local\Temp\ccSQWSCJ.s 			page 7


 116 0088 FFF7FEFF 		bl	RCC_APB1PeriphResetCmd
 117              		.loc 1 215 0
 118 008c AAE0     		b	.L19
 119              	.L7:
 152:../../source/src/FWlib/src/stm32f10x_tim.c ****   {
 120              		.loc 1 152 0
 121 008e 7B68     		ldr	r3, [r7, #4]
 122 0090 5A4A     		ldr	r2, .L20+16
 123 0092 9342     		cmp	r3, r2
 124 0094 08D1     		bne	.L8
 154:../../source/src/FWlib/src/stm32f10x_tim.c ****     RCC_APB1PeriphResetCmd(RCC_APB1Periph_TIM6, DISABLE);
 125              		.loc 1 154 0
 126 0096 0121     		movs	r1, #1
 127 0098 1020     		movs	r0, #16
 128 009a FFF7FEFF 		bl	RCC_APB1PeriphResetCmd
 155:../../source/src/FWlib/src/stm32f10x_tim.c ****   } 
 129              		.loc 1 155 0
 130 009e 0021     		movs	r1, #0
 131 00a0 1020     		movs	r0, #16
 132 00a2 FFF7FEFF 		bl	RCC_APB1PeriphResetCmd
 133              		.loc 1 215 0
 134 00a6 9DE0     		b	.L19
 135              	.L8:
 157:../../source/src/FWlib/src/stm32f10x_tim.c ****   {
 136              		.loc 1 157 0
 137 00a8 7B68     		ldr	r3, [r7, #4]
 138 00aa 554A     		ldr	r2, .L20+20
 139 00ac 9342     		cmp	r3, r2
 140 00ae 08D1     		bne	.L9
 159:../../source/src/FWlib/src/stm32f10x_tim.c ****     RCC_APB1PeriphResetCmd(RCC_APB1Periph_TIM7, DISABLE);
 141              		.loc 1 159 0
 142 00b0 0121     		movs	r1, #1
 143 00b2 2020     		movs	r0, #32
 144 00b4 FFF7FEFF 		bl	RCC_APB1PeriphResetCmd
 160:../../source/src/FWlib/src/stm32f10x_tim.c ****   } 
 145              		.loc 1 160 0
 146 00b8 0021     		movs	r1, #0
 147 00ba 2020     		movs	r0, #32
 148 00bc FFF7FEFF 		bl	RCC_APB1PeriphResetCmd
 149              		.loc 1 215 0
 150 00c0 90E0     		b	.L19
 151              	.L9:
 162:../../source/src/FWlib/src/stm32f10x_tim.c ****   {
 152              		.loc 1 162 0
 153 00c2 7B68     		ldr	r3, [r7, #4]
 154 00c4 4F4A     		ldr	r2, .L20+24
 155 00c6 9342     		cmp	r3, r2
 156 00c8 0AD1     		bne	.L10
 164:../../source/src/FWlib/src/stm32f10x_tim.c ****     RCC_APB2PeriphResetCmd(RCC_APB2Periph_TIM8, DISABLE);
 157              		.loc 1 164 0
 158 00ca 0121     		movs	r1, #1
 159 00cc 4FF40050 		mov	r0, #8192
 160 00d0 FFF7FEFF 		bl	RCC_APB2PeriphResetCmd
 165:../../source/src/FWlib/src/stm32f10x_tim.c ****   }
 161              		.loc 1 165 0
 162 00d4 0021     		movs	r1, #0
 163 00d6 4FF40050 		mov	r0, #8192
ARM GAS  G:\Users\Jaxb\AppData\Local\Temp\ccSQWSCJ.s 			page 8


 164 00da FFF7FEFF 		bl	RCC_APB2PeriphResetCmd
 165              		.loc 1 215 0
 166 00de 81E0     		b	.L19
 167              	.L10:
 167:../../source/src/FWlib/src/stm32f10x_tim.c ****   {      
 168              		.loc 1 167 0
 169 00e0 7B68     		ldr	r3, [r7, #4]
 170 00e2 494A     		ldr	r2, .L20+28
 171 00e4 9342     		cmp	r3, r2
 172 00e6 0AD1     		bne	.L11
 169:../../source/src/FWlib/src/stm32f10x_tim.c ****     RCC_APB2PeriphResetCmd(RCC_APB2Periph_TIM9, DISABLE);  
 173              		.loc 1 169 0
 174 00e8 0121     		movs	r1, #1
 175 00ea 4FF40020 		mov	r0, #524288
 176 00ee FFF7FEFF 		bl	RCC_APB2PeriphResetCmd
 170:../../source/src/FWlib/src/stm32f10x_tim.c ****    }  
 177              		.loc 1 170 0
 178 00f2 0021     		movs	r1, #0
 179 00f4 4FF40020 		mov	r0, #524288
 180 00f8 FFF7FEFF 		bl	RCC_APB2PeriphResetCmd
 181              		.loc 1 215 0
 182 00fc 72E0     		b	.L19
 183              	.L11:
 172:../../source/src/FWlib/src/stm32f10x_tim.c ****   {      
 184              		.loc 1 172 0
 185 00fe 7B68     		ldr	r3, [r7, #4]
 186 0100 424A     		ldr	r2, .L20+32
 187 0102 9342     		cmp	r3, r2
 188 0104 0AD1     		bne	.L12
 174:../../source/src/FWlib/src/stm32f10x_tim.c ****     RCC_APB2PeriphResetCmd(RCC_APB2Periph_TIM10, DISABLE);  
 189              		.loc 1 174 0
 190 0106 0121     		movs	r1, #1
 191 0108 4FF48010 		mov	r0, #1048576
 192 010c FFF7FEFF 		bl	RCC_APB2PeriphResetCmd
 175:../../source/src/FWlib/src/stm32f10x_tim.c ****   }  
 193              		.loc 1 175 0
 194 0110 0021     		movs	r1, #0
 195 0112 4FF48010 		mov	r0, #1048576
 196 0116 FFF7FEFF 		bl	RCC_APB2PeriphResetCmd
 197              		.loc 1 215 0
 198 011a 63E0     		b	.L19
 199              	.L12:
 177:../../source/src/FWlib/src/stm32f10x_tim.c ****   {     
 200              		.loc 1 177 0
 201 011c 7B68     		ldr	r3, [r7, #4]
 202 011e 3C4A     		ldr	r2, .L20+36
 203 0120 9342     		cmp	r3, r2
 204 0122 0AD1     		bne	.L13
 179:../../source/src/FWlib/src/stm32f10x_tim.c ****     RCC_APB2PeriphResetCmd(RCC_APB2Periph_TIM11, DISABLE);  
 205              		.loc 1 179 0
 206 0124 0121     		movs	r1, #1
 207 0126 4FF40010 		mov	r0, #2097152
 208 012a FFF7FEFF 		bl	RCC_APB2PeriphResetCmd
 180:../../source/src/FWlib/src/stm32f10x_tim.c ****   }  
 209              		.loc 1 180 0
 210 012e 0021     		movs	r1, #0
 211 0130 4FF40010 		mov	r0, #2097152
ARM GAS  G:\Users\Jaxb\AppData\Local\Temp\ccSQWSCJ.s 			page 9


 212 0134 FFF7FEFF 		bl	RCC_APB2PeriphResetCmd
 213              		.loc 1 215 0
 214 0138 54E0     		b	.L19
 215              	.L13:
 182:../../source/src/FWlib/src/stm32f10x_tim.c ****   {      
 216              		.loc 1 182 0
 217 013a 7B68     		ldr	r3, [r7, #4]
 218 013c 354A     		ldr	r2, .L20+40
 219 013e 9342     		cmp	r3, r2
 220 0140 08D1     		bne	.L14
 184:../../source/src/FWlib/src/stm32f10x_tim.c ****     RCC_APB1PeriphResetCmd(RCC_APB1Periph_TIM12, DISABLE);  
 221              		.loc 1 184 0
 222 0142 0121     		movs	r1, #1
 223 0144 4020     		movs	r0, #64
 224 0146 FFF7FEFF 		bl	RCC_APB1PeriphResetCmd
 185:../../source/src/FWlib/src/stm32f10x_tim.c ****   }  
 225              		.loc 1 185 0
 226 014a 0021     		movs	r1, #0
 227 014c 4020     		movs	r0, #64
 228 014e FFF7FEFF 		bl	RCC_APB1PeriphResetCmd
 229              		.loc 1 215 0
 230 0152 47E0     		b	.L19
 231              	.L14:
 187:../../source/src/FWlib/src/stm32f10x_tim.c ****   {       
 232              		.loc 1 187 0
 233 0154 7B68     		ldr	r3, [r7, #4]
 234 0156 304A     		ldr	r2, .L20+44
 235 0158 9342     		cmp	r3, r2
 236 015a 08D1     		bne	.L15
 189:../../source/src/FWlib/src/stm32f10x_tim.c ****     RCC_APB1PeriphResetCmd(RCC_APB1Periph_TIM13, DISABLE);  
 237              		.loc 1 189 0
 238 015c 0121     		movs	r1, #1
 239 015e 8020     		movs	r0, #128
 240 0160 FFF7FEFF 		bl	RCC_APB1PeriphResetCmd
 190:../../source/src/FWlib/src/stm32f10x_tim.c ****   }
 241              		.loc 1 190 0
 242 0164 0021     		movs	r1, #0
 243 0166 8020     		movs	r0, #128
 244 0168 FFF7FEFF 		bl	RCC_APB1PeriphResetCmd
 245              		.loc 1 215 0
 246 016c 3AE0     		b	.L19
 247              	.L15:
 192:../../source/src/FWlib/src/stm32f10x_tim.c ****   {       
 248              		.loc 1 192 0
 249 016e 7B68     		ldr	r3, [r7, #4]
 250 0170 2A4A     		ldr	r2, .L20+48
 251 0172 9342     		cmp	r3, r2
 252 0174 0AD1     		bne	.L16
 194:../../source/src/FWlib/src/stm32f10x_tim.c ****     RCC_APB1PeriphResetCmd(RCC_APB1Periph_TIM14, DISABLE);  
 253              		.loc 1 194 0
 254 0176 0121     		movs	r1, #1
 255 0178 4FF48070 		mov	r0, #256
 256 017c FFF7FEFF 		bl	RCC_APB1PeriphResetCmd
 195:../../source/src/FWlib/src/stm32f10x_tim.c ****   }        
 257              		.loc 1 195 0
 258 0180 0021     		movs	r1, #0
 259 0182 4FF48070 		mov	r0, #256
ARM GAS  G:\Users\Jaxb\AppData\Local\Temp\ccSQWSCJ.s 			page 10


 260 0186 FFF7FEFF 		bl	RCC_APB1PeriphResetCmd
 261              		.loc 1 215 0
 262 018a 2BE0     		b	.L19
 263              	.L16:
 197:../../source/src/FWlib/src/stm32f10x_tim.c ****   {
 264              		.loc 1 197 0
 265 018c 7B68     		ldr	r3, [r7, #4]
 266 018e 244A     		ldr	r2, .L20+52
 267 0190 9342     		cmp	r3, r2
 268 0192 0AD1     		bne	.L17
 199:../../source/src/FWlib/src/stm32f10x_tim.c ****     RCC_APB2PeriphResetCmd(RCC_APB2Periph_TIM15, DISABLE);
 269              		.loc 1 199 0
 270 0194 0121     		movs	r1, #1
 271 0196 4FF48030 		mov	r0, #65536
 272 019a FFF7FEFF 		bl	RCC_APB2PeriphResetCmd
 200:../../source/src/FWlib/src/stm32f10x_tim.c ****   } 
 273              		.loc 1 200 0
 274 019e 0021     		movs	r1, #0
 275 01a0 4FF48030 		mov	r0, #65536
 276 01a4 FFF7FEFF 		bl	RCC_APB2PeriphResetCmd
 277              		.loc 1 215 0
 278 01a8 1CE0     		b	.L19
 279              	.L17:
 202:../../source/src/FWlib/src/stm32f10x_tim.c ****   {
 280              		.loc 1 202 0
 281 01aa 7B68     		ldr	r3, [r7, #4]
 282 01ac 1D4A     		ldr	r2, .L20+56
 283 01ae 9342     		cmp	r3, r2
 284 01b0 0AD1     		bne	.L18
 204:../../source/src/FWlib/src/stm32f10x_tim.c ****     RCC_APB2PeriphResetCmd(RCC_APB2Periph_TIM16, DISABLE);
 285              		.loc 1 204 0
 286 01b2 0121     		movs	r1, #1
 287 01b4 4FF40030 		mov	r0, #131072
 288 01b8 FFF7FEFF 		bl	RCC_APB2PeriphResetCmd
 205:../../source/src/FWlib/src/stm32f10x_tim.c ****   } 
 289              		.loc 1 205 0
 290 01bc 0021     		movs	r1, #0
 291 01be 4FF40030 		mov	r0, #131072
 292 01c2 FFF7FEFF 		bl	RCC_APB2PeriphResetCmd
 293              		.loc 1 215 0
 294 01c6 0DE0     		b	.L19
 295              	.L18:
 209:../../source/src/FWlib/src/stm32f10x_tim.c ****     {
 296              		.loc 1 209 0
 297 01c8 7B68     		ldr	r3, [r7, #4]
 298 01ca 174A     		ldr	r2, .L20+60
 299 01cc 9342     		cmp	r3, r2
 300 01ce 09D1     		bne	.L19
 211:../../source/src/FWlib/src/stm32f10x_tim.c ****       RCC_APB2PeriphResetCmd(RCC_APB2Periph_TIM17, DISABLE);
 301              		.loc 1 211 0
 302 01d0 0121     		movs	r1, #1
 303 01d2 4FF48020 		mov	r0, #262144
 304 01d6 FFF7FEFF 		bl	RCC_APB2PeriphResetCmd
 212:../../source/src/FWlib/src/stm32f10x_tim.c ****     }  
 305              		.loc 1 212 0
 306 01da 0021     		movs	r1, #0
 307 01dc 4FF48020 		mov	r0, #262144
ARM GAS  G:\Users\Jaxb\AppData\Local\Temp\ccSQWSCJ.s 			page 11


 308 01e0 FFF7FEFF 		bl	RCC_APB2PeriphResetCmd
 309              	.L19:
 310              		.loc 1 215 0
 311 01e4 00BF     		nop
 312 01e6 0837     		adds	r7, r7, #8
 313              	.LCFI3:
 314              		.cfi_def_cfa_offset 8
 315 01e8 BD46     		mov	sp, r7
 316              	.LCFI4:
 317              		.cfi_def_cfa_register 13
 318              		@ sp needed
 319 01ea 80BD     		pop	{r7, pc}
 320              	.L21:
 321              		.align	2
 322              	.L20:
 323 01ec 002C0140 		.word	1073818624
 324 01f0 00040040 		.word	1073742848
 325 01f4 00080040 		.word	1073743872
 326 01f8 000C0040 		.word	1073744896
 327 01fc 00100040 		.word	1073745920
 328 0200 00140040 		.word	1073746944
 329 0204 00340140 		.word	1073820672
 330 0208 004C0140 		.word	1073826816
 331 020c 00500140 		.word	1073827840
 332 0210 00540140 		.word	1073828864
 333 0214 00180040 		.word	1073747968
 334 0218 001C0040 		.word	1073748992
 335 021c 00200040 		.word	1073750016
 336 0220 00400140 		.word	1073823744
 337 0224 00440140 		.word	1073824768
 338 0228 00480140 		.word	1073825792
 339              		.cfi_endproc
 340              	.LFE29:
 341              		.size	TIM_DeInit, .-TIM_DeInit
 342              		.align	1
 343              		.global	TIM_TimeBaseInit
 344              		.syntax unified
 345              		.thumb
 346              		.thumb_func
 347              		.fpu softvfp
 348              		.type	TIM_TimeBaseInit, %function
 349              	TIM_TimeBaseInit:
 350              	.LFB30:
 216:../../source/src/FWlib/src/stm32f10x_tim.c **** 
 217:../../source/src/FWlib/src/stm32f10x_tim.c **** /**
 218:../../source/src/FWlib/src/stm32f10x_tim.c ****   * @brief  Initializes the TIMx Time Base Unit peripheral according to 
 219:../../source/src/FWlib/src/stm32f10x_tim.c ****   *         the specified parameters in the TIM_TimeBaseInitStruct.
 220:../../source/src/FWlib/src/stm32f10x_tim.c ****   * @param  TIMx: where x can be 1 to 17 to select the TIM peripheral.
 221:../../source/src/FWlib/src/stm32f10x_tim.c ****   * @param  TIM_TimeBaseInitStruct: pointer to a TIM_TimeBaseInitTypeDef
 222:../../source/src/FWlib/src/stm32f10x_tim.c ****   *         structure that contains the configuration information for the 
 223:../../source/src/FWlib/src/stm32f10x_tim.c ****   *         specified TIM peripheral.
 224:../../source/src/FWlib/src/stm32f10x_tim.c ****   * @retval None
 225:../../source/src/FWlib/src/stm32f10x_tim.c ****   */
 226:../../source/src/FWlib/src/stm32f10x_tim.c **** void TIM_TimeBaseInit(TIM_TypeDef* TIMx, TIM_TimeBaseInitTypeDef* TIM_TimeBaseInitStruct)
 227:../../source/src/FWlib/src/stm32f10x_tim.c **** {
 351              		.loc 1 227 0
 352              		.cfi_startproc
ARM GAS  G:\Users\Jaxb\AppData\Local\Temp\ccSQWSCJ.s 			page 12


 353              		@ args = 0, pretend = 0, frame = 16
 354              		@ frame_needed = 1, uses_anonymous_args = 0
 355              		@ link register save eliminated.
 356 022c 80B4     		push	{r7}
 357              	.LCFI5:
 358              		.cfi_def_cfa_offset 4
 359              		.cfi_offset 7, -4
 360 022e 85B0     		sub	sp, sp, #20
 361              	.LCFI6:
 362              		.cfi_def_cfa_offset 24
 363 0230 00AF     		add	r7, sp, #0
 364              	.LCFI7:
 365              		.cfi_def_cfa_register 7
 366 0232 7860     		str	r0, [r7, #4]
 367 0234 3960     		str	r1, [r7]
 228:../../source/src/FWlib/src/stm32f10x_tim.c ****   uint16_t tmpcr1 = 0;
 368              		.loc 1 228 0
 369 0236 0023     		movs	r3, #0
 370 0238 FB81     		strh	r3, [r7, #14]	@ movhi
 229:../../source/src/FWlib/src/stm32f10x_tim.c **** 
 230:../../source/src/FWlib/src/stm32f10x_tim.c ****   /* Check the parameters */
 231:../../source/src/FWlib/src/stm32f10x_tim.c ****   assert_param(IS_TIM_ALL_PERIPH(TIMx)); 
 232:../../source/src/FWlib/src/stm32f10x_tim.c ****   assert_param(IS_TIM_COUNTER_MODE(TIM_TimeBaseInitStruct->TIM_CounterMode));
 233:../../source/src/FWlib/src/stm32f10x_tim.c ****   assert_param(IS_TIM_CKD_DIV(TIM_TimeBaseInitStruct->TIM_ClockDivision));
 234:../../source/src/FWlib/src/stm32f10x_tim.c **** 
 235:../../source/src/FWlib/src/stm32f10x_tim.c ****   tmpcr1 = TIMx->CR1;  
 371              		.loc 1 235 0
 372 023a 7B68     		ldr	r3, [r7, #4]
 373 023c 1B88     		ldrh	r3, [r3]	@ movhi
 374 023e FB81     		strh	r3, [r7, #14]	@ movhi
 236:../../source/src/FWlib/src/stm32f10x_tim.c **** 
 237:../../source/src/FWlib/src/stm32f10x_tim.c ****   if((TIMx == TIM1) || (TIMx == TIM8)|| (TIMx == TIM2) || (TIMx == TIM3)||
 375              		.loc 1 237 0
 376 0240 7B68     		ldr	r3, [r7, #4]
 377 0242 2E4A     		ldr	r2, .L28
 378 0244 9342     		cmp	r3, r2
 379 0246 13D0     		beq	.L23
 380              		.loc 1 237 0 is_stmt 0 discriminator 1
 381 0248 7B68     		ldr	r3, [r7, #4]
 382 024a 2D4A     		ldr	r2, .L28+4
 383 024c 9342     		cmp	r3, r2
 384 024e 0FD0     		beq	.L23
 385              		.loc 1 237 0 discriminator 2
 386 0250 7B68     		ldr	r3, [r7, #4]
 387 0252 B3F1804F 		cmp	r3, #1073741824
 388 0256 0BD0     		beq	.L23
 389              		.loc 1 237 0 discriminator 3
 390 0258 7B68     		ldr	r3, [r7, #4]
 391 025a 2A4A     		ldr	r2, .L28+8
 392 025c 9342     		cmp	r3, r2
 393 025e 07D0     		beq	.L23
 394              		.loc 1 237 0 discriminator 4
 395 0260 7B68     		ldr	r3, [r7, #4]
 396 0262 294A     		ldr	r2, .L28+12
 397 0264 9342     		cmp	r3, r2
 398 0266 03D0     		beq	.L23
 238:../../source/src/FWlib/src/stm32f10x_tim.c ****      (TIMx == TIM4) || (TIMx == TIM5)) 
ARM GAS  G:\Users\Jaxb\AppData\Local\Temp\ccSQWSCJ.s 			page 13


 399              		.loc 1 238 0 is_stmt 1
 400 0268 7B68     		ldr	r3, [r7, #4]
 401 026a 284A     		ldr	r2, .L28+16
 402 026c 9342     		cmp	r3, r2
 403 026e 08D1     		bne	.L24
 404              	.L23:
 239:../../source/src/FWlib/src/stm32f10x_tim.c ****   {
 240:../../source/src/FWlib/src/stm32f10x_tim.c ****     /* Select the Counter Mode */
 241:../../source/src/FWlib/src/stm32f10x_tim.c ****     tmpcr1 &= (uint16_t)(~((uint16_t)(TIM_CR1_DIR | TIM_CR1_CMS)));
 405              		.loc 1 241 0
 406 0270 FB89     		ldrh	r3, [r7, #14]	@ movhi
 407 0272 23F07003 		bic	r3, r3, #112
 408 0276 FB81     		strh	r3, [r7, #14]	@ movhi
 242:../../source/src/FWlib/src/stm32f10x_tim.c ****     tmpcr1 |= (uint32_t)TIM_TimeBaseInitStruct->TIM_CounterMode;
 409              		.loc 1 242 0
 410 0278 3B68     		ldr	r3, [r7]
 411 027a 5A88     		ldrh	r2, [r3, #2]
 412 027c FB89     		ldrh	r3, [r7, #14]	@ movhi
 413 027e 1343     		orrs	r3, r3, r2
 414 0280 FB81     		strh	r3, [r7, #14]	@ movhi
 415              	.L24:
 243:../../source/src/FWlib/src/stm32f10x_tim.c ****   }
 244:../../source/src/FWlib/src/stm32f10x_tim.c ****  
 245:../../source/src/FWlib/src/stm32f10x_tim.c ****   if((TIMx != TIM6) && (TIMx != TIM7))
 416              		.loc 1 245 0
 417 0282 7B68     		ldr	r3, [r7, #4]
 418 0284 224A     		ldr	r2, .L28+20
 419 0286 9342     		cmp	r3, r2
 420 0288 0CD0     		beq	.L25
 421              		.loc 1 245 0 is_stmt 0 discriminator 1
 422 028a 7B68     		ldr	r3, [r7, #4]
 423 028c 214A     		ldr	r2, .L28+24
 424 028e 9342     		cmp	r3, r2
 425 0290 08D0     		beq	.L25
 246:../../source/src/FWlib/src/stm32f10x_tim.c ****   {
 247:../../source/src/FWlib/src/stm32f10x_tim.c ****     /* Set the clock division */
 248:../../source/src/FWlib/src/stm32f10x_tim.c ****     tmpcr1 &= (uint16_t)(~((uint16_t)TIM_CR1_CKD));
 426              		.loc 1 248 0 is_stmt 1
 427 0292 FB89     		ldrh	r3, [r7, #14]	@ movhi
 428 0294 23F44073 		bic	r3, r3, #768
 429 0298 FB81     		strh	r3, [r7, #14]	@ movhi
 249:../../source/src/FWlib/src/stm32f10x_tim.c ****     tmpcr1 |= (uint32_t)TIM_TimeBaseInitStruct->TIM_ClockDivision;
 430              		.loc 1 249 0
 431 029a 3B68     		ldr	r3, [r7]
 432 029c DA88     		ldrh	r2, [r3, #6]
 433 029e FB89     		ldrh	r3, [r7, #14]	@ movhi
 434 02a0 1343     		orrs	r3, r3, r2
 435 02a2 FB81     		strh	r3, [r7, #14]	@ movhi
 436              	.L25:
 250:../../source/src/FWlib/src/stm32f10x_tim.c ****   }
 251:../../source/src/FWlib/src/stm32f10x_tim.c **** 
 252:../../source/src/FWlib/src/stm32f10x_tim.c ****   TIMx->CR1 = tmpcr1;
 437              		.loc 1 252 0
 438 02a4 7B68     		ldr	r3, [r7, #4]
 439 02a6 FA89     		ldrh	r2, [r7, #14]	@ movhi
 440 02a8 1A80     		strh	r2, [r3]	@ movhi
 253:../../source/src/FWlib/src/stm32f10x_tim.c **** 
ARM GAS  G:\Users\Jaxb\AppData\Local\Temp\ccSQWSCJ.s 			page 14


 254:../../source/src/FWlib/src/stm32f10x_tim.c ****   /* Set the Autoreload value */
 255:../../source/src/FWlib/src/stm32f10x_tim.c ****   TIMx->ARR = TIM_TimeBaseInitStruct->TIM_Period ;
 441              		.loc 1 255 0
 442 02aa 3B68     		ldr	r3, [r7]
 443 02ac 9A88     		ldrh	r2, [r3, #4]
 444 02ae 7B68     		ldr	r3, [r7, #4]
 445 02b0 9A85     		strh	r2, [r3, #44]	@ movhi
 256:../../source/src/FWlib/src/stm32f10x_tim.c ****  
 257:../../source/src/FWlib/src/stm32f10x_tim.c ****   /* Set the Prescaler value */
 258:../../source/src/FWlib/src/stm32f10x_tim.c ****   TIMx->PSC = TIM_TimeBaseInitStruct->TIM_Prescaler;
 446              		.loc 1 258 0
 447 02b2 3B68     		ldr	r3, [r7]
 448 02b4 1A88     		ldrh	r2, [r3]
 449 02b6 7B68     		ldr	r3, [r7, #4]
 450 02b8 1A85     		strh	r2, [r3, #40]	@ movhi
 259:../../source/src/FWlib/src/stm32f10x_tim.c ****     
 260:../../source/src/FWlib/src/stm32f10x_tim.c ****   if ((TIMx == TIM1) || (TIMx == TIM8)|| (TIMx == TIM15)|| (TIMx == TIM16) || (TIMx == TIM17))  
 451              		.loc 1 260 0
 452 02ba 7B68     		ldr	r3, [r7, #4]
 453 02bc 0F4A     		ldr	r2, .L28
 454 02be 9342     		cmp	r3, r2
 455 02c0 0FD0     		beq	.L26
 456              		.loc 1 260 0 is_stmt 0 discriminator 1
 457 02c2 7B68     		ldr	r3, [r7, #4]
 458 02c4 0E4A     		ldr	r2, .L28+4
 459 02c6 9342     		cmp	r3, r2
 460 02c8 0BD0     		beq	.L26
 461              		.loc 1 260 0 discriminator 2
 462 02ca 7B68     		ldr	r3, [r7, #4]
 463 02cc 124A     		ldr	r2, .L28+28
 464 02ce 9342     		cmp	r3, r2
 465 02d0 07D0     		beq	.L26
 466              		.loc 1 260 0 discriminator 3
 467 02d2 7B68     		ldr	r3, [r7, #4]
 468 02d4 114A     		ldr	r2, .L28+32
 469 02d6 9342     		cmp	r3, r2
 470 02d8 03D0     		beq	.L26
 471              		.loc 1 260 0 discriminator 4
 472 02da 7B68     		ldr	r3, [r7, #4]
 473 02dc 104A     		ldr	r2, .L28+36
 474 02de 9342     		cmp	r3, r2
 475 02e0 04D1     		bne	.L27
 476              	.L26:
 261:../../source/src/FWlib/src/stm32f10x_tim.c ****   {
 262:../../source/src/FWlib/src/stm32f10x_tim.c ****     /* Set the Repetition Counter value */
 263:../../source/src/FWlib/src/stm32f10x_tim.c ****     TIMx->RCR = TIM_TimeBaseInitStruct->TIM_RepetitionCounter;
 477              		.loc 1 263 0 is_stmt 1
 478 02e2 3B68     		ldr	r3, [r7]
 479 02e4 1B7A     		ldrb	r3, [r3, #8]	@ zero_extendqisi2
 480 02e6 9AB2     		uxth	r2, r3
 481 02e8 7B68     		ldr	r3, [r7, #4]
 482 02ea 1A86     		strh	r2, [r3, #48]	@ movhi
 483              	.L27:
 264:../../source/src/FWlib/src/stm32f10x_tim.c ****   }
 265:../../source/src/FWlib/src/stm32f10x_tim.c **** 
 266:../../source/src/FWlib/src/stm32f10x_tim.c ****   /* Generate an update event to reload the Prescaler and the Repetition counter
 267:../../source/src/FWlib/src/stm32f10x_tim.c ****      values immediately */
ARM GAS  G:\Users\Jaxb\AppData\Local\Temp\ccSQWSCJ.s 			page 15


 268:../../source/src/FWlib/src/stm32f10x_tim.c ****   TIMx->EGR = TIM_PSCReloadMode_Immediate;           
 484              		.loc 1 268 0
 485 02ec 7B68     		ldr	r3, [r7, #4]
 486 02ee 0122     		movs	r2, #1
 487 02f0 9A82     		strh	r2, [r3, #20]	@ movhi
 269:../../source/src/FWlib/src/stm32f10x_tim.c **** }
 488              		.loc 1 269 0
 489 02f2 00BF     		nop
 490 02f4 1437     		adds	r7, r7, #20
 491              	.LCFI8:
 492              		.cfi_def_cfa_offset 4
 493 02f6 BD46     		mov	sp, r7
 494              	.LCFI9:
 495              		.cfi_def_cfa_register 13
 496              		@ sp needed
 497 02f8 80BC     		pop	{r7}
 498              	.LCFI10:
 499              		.cfi_restore 7
 500              		.cfi_def_cfa_offset 0
 501 02fa 7047     		bx	lr
 502              	.L29:
 503              		.align	2
 504              	.L28:
 505 02fc 002C0140 		.word	1073818624
 506 0300 00340140 		.word	1073820672
 507 0304 00040040 		.word	1073742848
 508 0308 00080040 		.word	1073743872
 509 030c 000C0040 		.word	1073744896
 510 0310 00100040 		.word	1073745920
 511 0314 00140040 		.word	1073746944
 512 0318 00400140 		.word	1073823744
 513 031c 00440140 		.word	1073824768
 514 0320 00480140 		.word	1073825792
 515              		.cfi_endproc
 516              	.LFE30:
 517              		.size	TIM_TimeBaseInit, .-TIM_TimeBaseInit
 518              		.align	1
 519              		.global	TIM_OC1Init
 520              		.syntax unified
 521              		.thumb
 522              		.thumb_func
 523              		.fpu softvfp
 524              		.type	TIM_OC1Init, %function
 525              	TIM_OC1Init:
 526              	.LFB31:
 270:../../source/src/FWlib/src/stm32f10x_tim.c **** 
 271:../../source/src/FWlib/src/stm32f10x_tim.c **** /**
 272:../../source/src/FWlib/src/stm32f10x_tim.c ****   * @brief  Initializes the TIMx Channel1 according to the specified
 273:../../source/src/FWlib/src/stm32f10x_tim.c ****   *         parameters in the TIM_OCInitStruct.
 274:../../source/src/FWlib/src/stm32f10x_tim.c ****   * @param  TIMx: where x can be  1 to 17 except 6 and 7 to select the TIM peripheral.
 275:../../source/src/FWlib/src/stm32f10x_tim.c ****   * @param  TIM_OCInitStruct: pointer to a TIM_OCInitTypeDef structure
 276:../../source/src/FWlib/src/stm32f10x_tim.c ****   *         that contains the configuration information for the specified TIM peripheral.
 277:../../source/src/FWlib/src/stm32f10x_tim.c ****   * @retval None
 278:../../source/src/FWlib/src/stm32f10x_tim.c ****   */
 279:../../source/src/FWlib/src/stm32f10x_tim.c **** void TIM_OC1Init(TIM_TypeDef* TIMx, TIM_OCInitTypeDef* TIM_OCInitStruct)
 280:../../source/src/FWlib/src/stm32f10x_tim.c **** {
 527              		.loc 1 280 0
ARM GAS  G:\Users\Jaxb\AppData\Local\Temp\ccSQWSCJ.s 			page 16


 528              		.cfi_startproc
 529              		@ args = 0, pretend = 0, frame = 16
 530              		@ frame_needed = 1, uses_anonymous_args = 0
 531              		@ link register save eliminated.
 532 0324 80B4     		push	{r7}
 533              	.LCFI11:
 534              		.cfi_def_cfa_offset 4
 535              		.cfi_offset 7, -4
 536 0326 85B0     		sub	sp, sp, #20
 537              	.LCFI12:
 538              		.cfi_def_cfa_offset 24
 539 0328 00AF     		add	r7, sp, #0
 540              	.LCFI13:
 541              		.cfi_def_cfa_register 7
 542 032a 7860     		str	r0, [r7, #4]
 543 032c 3960     		str	r1, [r7]
 281:../../source/src/FWlib/src/stm32f10x_tim.c ****   uint16_t tmpccmrx = 0, tmpccer = 0, tmpcr2 = 0;
 544              		.loc 1 281 0
 545 032e 0023     		movs	r3, #0
 546 0330 7B81     		strh	r3, [r7, #10]	@ movhi
 547 0332 0023     		movs	r3, #0
 548 0334 FB81     		strh	r3, [r7, #14]	@ movhi
 549 0336 0023     		movs	r3, #0
 550 0338 BB81     		strh	r3, [r7, #12]	@ movhi
 282:../../source/src/FWlib/src/stm32f10x_tim.c ****    
 283:../../source/src/FWlib/src/stm32f10x_tim.c ****   /* Check the parameters */
 284:../../source/src/FWlib/src/stm32f10x_tim.c ****   assert_param(IS_TIM_LIST8_PERIPH(TIMx));
 285:../../source/src/FWlib/src/stm32f10x_tim.c ****   assert_param(IS_TIM_OC_MODE(TIM_OCInitStruct->TIM_OCMode));
 286:../../source/src/FWlib/src/stm32f10x_tim.c ****   assert_param(IS_TIM_OUTPUT_STATE(TIM_OCInitStruct->TIM_OutputState));
 287:../../source/src/FWlib/src/stm32f10x_tim.c ****   assert_param(IS_TIM_OC_POLARITY(TIM_OCInitStruct->TIM_OCPolarity));   
 288:../../source/src/FWlib/src/stm32f10x_tim.c ****  /* Disable the Channel 1: Reset the CC1E Bit */
 289:../../source/src/FWlib/src/stm32f10x_tim.c ****   TIMx->CCER &= (uint16_t)(~(uint16_t)TIM_CCER_CC1E);
 551              		.loc 1 289 0
 552 033a 7B68     		ldr	r3, [r7, #4]
 553 033c 1B8C     		ldrh	r3, [r3, #32]	@ movhi
 554 033e 9BB2     		uxth	r3, r3
 555 0340 23F00103 		bic	r3, r3, #1
 556 0344 9AB2     		uxth	r2, r3
 557 0346 7B68     		ldr	r3, [r7, #4]
 558 0348 1A84     		strh	r2, [r3, #32]	@ movhi
 290:../../source/src/FWlib/src/stm32f10x_tim.c ****   /* Get the TIMx CCER register value */
 291:../../source/src/FWlib/src/stm32f10x_tim.c ****   tmpccer = TIMx->CCER;
 559              		.loc 1 291 0
 560 034a 7B68     		ldr	r3, [r7, #4]
 561 034c 1B8C     		ldrh	r3, [r3, #32]	@ movhi
 562 034e FB81     		strh	r3, [r7, #14]	@ movhi
 292:../../source/src/FWlib/src/stm32f10x_tim.c ****   /* Get the TIMx CR2 register value */
 293:../../source/src/FWlib/src/stm32f10x_tim.c ****   tmpcr2 =  TIMx->CR2;
 563              		.loc 1 293 0
 564 0350 7B68     		ldr	r3, [r7, #4]
 565 0352 9B88     		ldrh	r3, [r3, #4]	@ movhi
 566 0354 BB81     		strh	r3, [r7, #12]	@ movhi
 294:../../source/src/FWlib/src/stm32f10x_tim.c ****   
 295:../../source/src/FWlib/src/stm32f10x_tim.c ****   /* Get the TIMx CCMR1 register value */
 296:../../source/src/FWlib/src/stm32f10x_tim.c ****   tmpccmrx = TIMx->CCMR1;
 567              		.loc 1 296 0
 568 0356 7B68     		ldr	r3, [r7, #4]
ARM GAS  G:\Users\Jaxb\AppData\Local\Temp\ccSQWSCJ.s 			page 17


 569 0358 1B8B     		ldrh	r3, [r3, #24]	@ movhi
 570 035a 7B81     		strh	r3, [r7, #10]	@ movhi
 297:../../source/src/FWlib/src/stm32f10x_tim.c ****     
 298:../../source/src/FWlib/src/stm32f10x_tim.c ****   /* Reset the Output Compare Mode Bits */
 299:../../source/src/FWlib/src/stm32f10x_tim.c ****   tmpccmrx &= (uint16_t)(~((uint16_t)TIM_CCMR1_OC1M));
 571              		.loc 1 299 0
 572 035c 7B89     		ldrh	r3, [r7, #10]	@ movhi
 573 035e 23F07003 		bic	r3, r3, #112
 574 0362 7B81     		strh	r3, [r7, #10]	@ movhi
 300:../../source/src/FWlib/src/stm32f10x_tim.c ****   tmpccmrx &= (uint16_t)(~((uint16_t)TIM_CCMR1_CC1S));
 575              		.loc 1 300 0
 576 0364 7B89     		ldrh	r3, [r7, #10]	@ movhi
 577 0366 23F00303 		bic	r3, r3, #3
 578 036a 7B81     		strh	r3, [r7, #10]	@ movhi
 301:../../source/src/FWlib/src/stm32f10x_tim.c **** 
 302:../../source/src/FWlib/src/stm32f10x_tim.c ****   /* Select the Output Compare Mode */
 303:../../source/src/FWlib/src/stm32f10x_tim.c ****   tmpccmrx |= TIM_OCInitStruct->TIM_OCMode;
 579              		.loc 1 303 0
 580 036c 3B68     		ldr	r3, [r7]
 581 036e 1A88     		ldrh	r2, [r3]
 582 0370 7B89     		ldrh	r3, [r7, #10]	@ movhi
 583 0372 1343     		orrs	r3, r3, r2
 584 0374 7B81     		strh	r3, [r7, #10]	@ movhi
 304:../../source/src/FWlib/src/stm32f10x_tim.c ****   
 305:../../source/src/FWlib/src/stm32f10x_tim.c ****   /* Reset the Output Polarity level */
 306:../../source/src/FWlib/src/stm32f10x_tim.c ****   tmpccer &= (uint16_t)(~((uint16_t)TIM_CCER_CC1P));
 585              		.loc 1 306 0
 586 0376 FB89     		ldrh	r3, [r7, #14]	@ movhi
 587 0378 23F00203 		bic	r3, r3, #2
 588 037c FB81     		strh	r3, [r7, #14]	@ movhi
 307:../../source/src/FWlib/src/stm32f10x_tim.c ****   /* Set the Output Compare Polarity */
 308:../../source/src/FWlib/src/stm32f10x_tim.c ****   tmpccer |= TIM_OCInitStruct->TIM_OCPolarity;
 589              		.loc 1 308 0
 590 037e 3B68     		ldr	r3, [r7]
 591 0380 1A89     		ldrh	r2, [r3, #8]
 592 0382 FB89     		ldrh	r3, [r7, #14]	@ movhi
 593 0384 1343     		orrs	r3, r3, r2
 594 0386 FB81     		strh	r3, [r7, #14]	@ movhi
 309:../../source/src/FWlib/src/stm32f10x_tim.c ****   
 310:../../source/src/FWlib/src/stm32f10x_tim.c ****   /* Set the Output State */
 311:../../source/src/FWlib/src/stm32f10x_tim.c ****   tmpccer |= TIM_OCInitStruct->TIM_OutputState;
 595              		.loc 1 311 0
 596 0388 3B68     		ldr	r3, [r7]
 597 038a 5A88     		ldrh	r2, [r3, #2]
 598 038c FB89     		ldrh	r3, [r7, #14]	@ movhi
 599 038e 1343     		orrs	r3, r3, r2
 600 0390 FB81     		strh	r3, [r7, #14]	@ movhi
 312:../../source/src/FWlib/src/stm32f10x_tim.c ****     
 313:../../source/src/FWlib/src/stm32f10x_tim.c ****   if((TIMx == TIM1) || (TIMx == TIM8)|| (TIMx == TIM15)||
 601              		.loc 1 313 0
 602 0392 7B68     		ldr	r3, [r7, #4]
 603 0394 244A     		ldr	r2, .L33
 604 0396 9342     		cmp	r3, r2
 605 0398 0FD0     		beq	.L31
 606              		.loc 1 313 0 is_stmt 0 discriminator 1
 607 039a 7B68     		ldr	r3, [r7, #4]
 608 039c 234A     		ldr	r2, .L33+4
ARM GAS  G:\Users\Jaxb\AppData\Local\Temp\ccSQWSCJ.s 			page 18


 609 039e 9342     		cmp	r3, r2
 610 03a0 0BD0     		beq	.L31
 611              		.loc 1 313 0 discriminator 2
 612 03a2 7B68     		ldr	r3, [r7, #4]
 613 03a4 224A     		ldr	r2, .L33+8
 614 03a6 9342     		cmp	r3, r2
 615 03a8 07D0     		beq	.L31
 616              		.loc 1 313 0 discriminator 3
 617 03aa 7B68     		ldr	r3, [r7, #4]
 618 03ac 214A     		ldr	r2, .L33+12
 619 03ae 9342     		cmp	r3, r2
 620 03b0 03D0     		beq	.L31
 314:../../source/src/FWlib/src/stm32f10x_tim.c ****      (TIMx == TIM16)|| (TIMx == TIM17))
 621              		.loc 1 314 0 is_stmt 1
 622 03b2 7B68     		ldr	r3, [r7, #4]
 623 03b4 204A     		ldr	r2, .L33+16
 624 03b6 9342     		cmp	r3, r2
 625 03b8 23D1     		bne	.L32
 626              	.L31:
 315:../../source/src/FWlib/src/stm32f10x_tim.c ****   {
 316:../../source/src/FWlib/src/stm32f10x_tim.c ****     assert_param(IS_TIM_OUTPUTN_STATE(TIM_OCInitStruct->TIM_OutputNState));
 317:../../source/src/FWlib/src/stm32f10x_tim.c ****     assert_param(IS_TIM_OCN_POLARITY(TIM_OCInitStruct->TIM_OCNPolarity));
 318:../../source/src/FWlib/src/stm32f10x_tim.c ****     assert_param(IS_TIM_OCNIDLE_STATE(TIM_OCInitStruct->TIM_OCNIdleState));
 319:../../source/src/FWlib/src/stm32f10x_tim.c ****     assert_param(IS_TIM_OCIDLE_STATE(TIM_OCInitStruct->TIM_OCIdleState));
 320:../../source/src/FWlib/src/stm32f10x_tim.c ****     
 321:../../source/src/FWlib/src/stm32f10x_tim.c ****     /* Reset the Output N Polarity level */
 322:../../source/src/FWlib/src/stm32f10x_tim.c ****     tmpccer &= (uint16_t)(~((uint16_t)TIM_CCER_CC1NP));
 627              		.loc 1 322 0
 628 03ba FB89     		ldrh	r3, [r7, #14]	@ movhi
 629 03bc 23F00803 		bic	r3, r3, #8
 630 03c0 FB81     		strh	r3, [r7, #14]	@ movhi
 323:../../source/src/FWlib/src/stm32f10x_tim.c ****     /* Set the Output N Polarity */
 324:../../source/src/FWlib/src/stm32f10x_tim.c ****     tmpccer |= TIM_OCInitStruct->TIM_OCNPolarity;
 631              		.loc 1 324 0
 632 03c2 3B68     		ldr	r3, [r7]
 633 03c4 5A89     		ldrh	r2, [r3, #10]
 634 03c6 FB89     		ldrh	r3, [r7, #14]	@ movhi
 635 03c8 1343     		orrs	r3, r3, r2
 636 03ca FB81     		strh	r3, [r7, #14]	@ movhi
 325:../../source/src/FWlib/src/stm32f10x_tim.c ****     
 326:../../source/src/FWlib/src/stm32f10x_tim.c ****     /* Reset the Output N State */
 327:../../source/src/FWlib/src/stm32f10x_tim.c ****     tmpccer &= (uint16_t)(~((uint16_t)TIM_CCER_CC1NE));    
 637              		.loc 1 327 0
 638 03cc FB89     		ldrh	r3, [r7, #14]	@ movhi
 639 03ce 23F00403 		bic	r3, r3, #4
 640 03d2 FB81     		strh	r3, [r7, #14]	@ movhi
 328:../../source/src/FWlib/src/stm32f10x_tim.c ****     /* Set the Output N State */
 329:../../source/src/FWlib/src/stm32f10x_tim.c ****     tmpccer |= TIM_OCInitStruct->TIM_OutputNState;
 641              		.loc 1 329 0
 642 03d4 3B68     		ldr	r3, [r7]
 643 03d6 9A88     		ldrh	r2, [r3, #4]
 644 03d8 FB89     		ldrh	r3, [r7, #14]	@ movhi
 645 03da 1343     		orrs	r3, r3, r2
 646 03dc FB81     		strh	r3, [r7, #14]	@ movhi
 330:../../source/src/FWlib/src/stm32f10x_tim.c ****     
 331:../../source/src/FWlib/src/stm32f10x_tim.c ****     /* Reset the Output Compare and Output Compare N IDLE State */
 332:../../source/src/FWlib/src/stm32f10x_tim.c ****     tmpcr2 &= (uint16_t)(~((uint16_t)TIM_CR2_OIS1));
ARM GAS  G:\Users\Jaxb\AppData\Local\Temp\ccSQWSCJ.s 			page 19


 647              		.loc 1 332 0
 648 03de BB89     		ldrh	r3, [r7, #12]	@ movhi
 649 03e0 23F48073 		bic	r3, r3, #256
 650 03e4 BB81     		strh	r3, [r7, #12]	@ movhi
 333:../../source/src/FWlib/src/stm32f10x_tim.c ****     tmpcr2 &= (uint16_t)(~((uint16_t)TIM_CR2_OIS1N));
 651              		.loc 1 333 0
 652 03e6 BB89     		ldrh	r3, [r7, #12]	@ movhi
 653 03e8 23F40073 		bic	r3, r3, #512
 654 03ec BB81     		strh	r3, [r7, #12]	@ movhi
 334:../../source/src/FWlib/src/stm32f10x_tim.c ****     
 335:../../source/src/FWlib/src/stm32f10x_tim.c ****     /* Set the Output Idle state */
 336:../../source/src/FWlib/src/stm32f10x_tim.c ****     tmpcr2 |= TIM_OCInitStruct->TIM_OCIdleState;
 655              		.loc 1 336 0
 656 03ee 3B68     		ldr	r3, [r7]
 657 03f0 9A89     		ldrh	r2, [r3, #12]
 658 03f2 BB89     		ldrh	r3, [r7, #12]	@ movhi
 659 03f4 1343     		orrs	r3, r3, r2
 660 03f6 BB81     		strh	r3, [r7, #12]	@ movhi
 337:../../source/src/FWlib/src/stm32f10x_tim.c ****     /* Set the Output N Idle state */
 338:../../source/src/FWlib/src/stm32f10x_tim.c ****     tmpcr2 |= TIM_OCInitStruct->TIM_OCNIdleState;
 661              		.loc 1 338 0
 662 03f8 3B68     		ldr	r3, [r7]
 663 03fa DA89     		ldrh	r2, [r3, #14]
 664 03fc BB89     		ldrh	r3, [r7, #12]	@ movhi
 665 03fe 1343     		orrs	r3, r3, r2
 666 0400 BB81     		strh	r3, [r7, #12]	@ movhi
 667              	.L32:
 339:../../source/src/FWlib/src/stm32f10x_tim.c ****   }
 340:../../source/src/FWlib/src/stm32f10x_tim.c ****   /* Write to TIMx CR2 */
 341:../../source/src/FWlib/src/stm32f10x_tim.c ****   TIMx->CR2 = tmpcr2;
 668              		.loc 1 341 0
 669 0402 7B68     		ldr	r3, [r7, #4]
 670 0404 BA89     		ldrh	r2, [r7, #12]	@ movhi
 671 0406 9A80     		strh	r2, [r3, #4]	@ movhi
 342:../../source/src/FWlib/src/stm32f10x_tim.c ****   
 343:../../source/src/FWlib/src/stm32f10x_tim.c ****   /* Write to TIMx CCMR1 */
 344:../../source/src/FWlib/src/stm32f10x_tim.c ****   TIMx->CCMR1 = tmpccmrx;
 672              		.loc 1 344 0
 673 0408 7B68     		ldr	r3, [r7, #4]
 674 040a 7A89     		ldrh	r2, [r7, #10]	@ movhi
 675 040c 1A83     		strh	r2, [r3, #24]	@ movhi
 345:../../source/src/FWlib/src/stm32f10x_tim.c **** 
 346:../../source/src/FWlib/src/stm32f10x_tim.c ****   /* Set the Capture Compare Register value */
 347:../../source/src/FWlib/src/stm32f10x_tim.c ****   TIMx->CCR1 = TIM_OCInitStruct->TIM_Pulse; 
 676              		.loc 1 347 0
 677 040e 3B68     		ldr	r3, [r7]
 678 0410 DA88     		ldrh	r2, [r3, #6]
 679 0412 7B68     		ldr	r3, [r7, #4]
 680 0414 9A86     		strh	r2, [r3, #52]	@ movhi
 348:../../source/src/FWlib/src/stm32f10x_tim.c ****  
 349:../../source/src/FWlib/src/stm32f10x_tim.c ****   /* Write to TIMx CCER */
 350:../../source/src/FWlib/src/stm32f10x_tim.c ****   TIMx->CCER = tmpccer;
 681              		.loc 1 350 0
 682 0416 7B68     		ldr	r3, [r7, #4]
 683 0418 FA89     		ldrh	r2, [r7, #14]	@ movhi
 684 041a 1A84     		strh	r2, [r3, #32]	@ movhi
 351:../../source/src/FWlib/src/stm32f10x_tim.c **** }
ARM GAS  G:\Users\Jaxb\AppData\Local\Temp\ccSQWSCJ.s 			page 20


 685              		.loc 1 351 0
 686 041c 00BF     		nop
 687 041e 1437     		adds	r7, r7, #20
 688              	.LCFI14:
 689              		.cfi_def_cfa_offset 4
 690 0420 BD46     		mov	sp, r7
 691              	.LCFI15:
 692              		.cfi_def_cfa_register 13
 693              		@ sp needed
 694 0422 80BC     		pop	{r7}
 695              	.LCFI16:
 696              		.cfi_restore 7
 697              		.cfi_def_cfa_offset 0
 698 0424 7047     		bx	lr
 699              	.L34:
 700 0426 00BF     		.align	2
 701              	.L33:
 702 0428 002C0140 		.word	1073818624
 703 042c 00340140 		.word	1073820672
 704 0430 00400140 		.word	1073823744
 705 0434 00440140 		.word	1073824768
 706 0438 00480140 		.word	1073825792
 707              		.cfi_endproc
 708              	.LFE31:
 709              		.size	TIM_OC1Init, .-TIM_OC1Init
 710              		.align	1
 711              		.global	TIM_OC2Init
 712              		.syntax unified
 713              		.thumb
 714              		.thumb_func
 715              		.fpu softvfp
 716              		.type	TIM_OC2Init, %function
 717              	TIM_OC2Init:
 718              	.LFB32:
 352:../../source/src/FWlib/src/stm32f10x_tim.c **** 
 353:../../source/src/FWlib/src/stm32f10x_tim.c **** /**
 354:../../source/src/FWlib/src/stm32f10x_tim.c ****   * @brief  Initializes the TIMx Channel2 according to the specified
 355:../../source/src/FWlib/src/stm32f10x_tim.c ****   *         parameters in the TIM_OCInitStruct.
 356:../../source/src/FWlib/src/stm32f10x_tim.c ****   * @param  TIMx: where x can be  1, 2, 3, 4, 5, 8, 9, 12 or 15 to select 
 357:../../source/src/FWlib/src/stm32f10x_tim.c ****   *         the TIM peripheral.
 358:../../source/src/FWlib/src/stm32f10x_tim.c ****   * @param  TIM_OCInitStruct: pointer to a TIM_OCInitTypeDef structure
 359:../../source/src/FWlib/src/stm32f10x_tim.c ****   *         that contains the configuration information for the specified TIM peripheral.
 360:../../source/src/FWlib/src/stm32f10x_tim.c ****   * @retval None
 361:../../source/src/FWlib/src/stm32f10x_tim.c ****   */
 362:../../source/src/FWlib/src/stm32f10x_tim.c **** void TIM_OC2Init(TIM_TypeDef* TIMx, TIM_OCInitTypeDef* TIM_OCInitStruct)
 363:../../source/src/FWlib/src/stm32f10x_tim.c **** {
 719              		.loc 1 363 0
 720              		.cfi_startproc
 721              		@ args = 0, pretend = 0, frame = 16
 722              		@ frame_needed = 1, uses_anonymous_args = 0
 723              		@ link register save eliminated.
 724 043c 80B4     		push	{r7}
 725              	.LCFI17:
 726              		.cfi_def_cfa_offset 4
 727              		.cfi_offset 7, -4
 728 043e 85B0     		sub	sp, sp, #20
 729              	.LCFI18:
ARM GAS  G:\Users\Jaxb\AppData\Local\Temp\ccSQWSCJ.s 			page 21


 730              		.cfi_def_cfa_offset 24
 731 0440 00AF     		add	r7, sp, #0
 732              	.LCFI19:
 733              		.cfi_def_cfa_register 7
 734 0442 7860     		str	r0, [r7, #4]
 735 0444 3960     		str	r1, [r7]
 364:../../source/src/FWlib/src/stm32f10x_tim.c ****   uint16_t tmpccmrx = 0, tmpccer = 0, tmpcr2 = 0;
 736              		.loc 1 364 0
 737 0446 0023     		movs	r3, #0
 738 0448 7B81     		strh	r3, [r7, #10]	@ movhi
 739 044a 0023     		movs	r3, #0
 740 044c FB81     		strh	r3, [r7, #14]	@ movhi
 741 044e 0023     		movs	r3, #0
 742 0450 BB81     		strh	r3, [r7, #12]	@ movhi
 365:../../source/src/FWlib/src/stm32f10x_tim.c ****    
 366:../../source/src/FWlib/src/stm32f10x_tim.c ****   /* Check the parameters */
 367:../../source/src/FWlib/src/stm32f10x_tim.c ****   assert_param(IS_TIM_LIST6_PERIPH(TIMx)); 
 368:../../source/src/FWlib/src/stm32f10x_tim.c ****   assert_param(IS_TIM_OC_MODE(TIM_OCInitStruct->TIM_OCMode));
 369:../../source/src/FWlib/src/stm32f10x_tim.c ****   assert_param(IS_TIM_OUTPUT_STATE(TIM_OCInitStruct->TIM_OutputState));
 370:../../source/src/FWlib/src/stm32f10x_tim.c ****   assert_param(IS_TIM_OC_POLARITY(TIM_OCInitStruct->TIM_OCPolarity));   
 371:../../source/src/FWlib/src/stm32f10x_tim.c ****    /* Disable the Channel 2: Reset the CC2E Bit */
 372:../../source/src/FWlib/src/stm32f10x_tim.c ****   TIMx->CCER &= (uint16_t)(~((uint16_t)TIM_CCER_CC2E));
 743              		.loc 1 372 0
 744 0452 7B68     		ldr	r3, [r7, #4]
 745 0454 1B8C     		ldrh	r3, [r3, #32]	@ movhi
 746 0456 9BB2     		uxth	r3, r3
 747 0458 23F01003 		bic	r3, r3, #16
 748 045c 9AB2     		uxth	r2, r3
 749 045e 7B68     		ldr	r3, [r7, #4]
 750 0460 1A84     		strh	r2, [r3, #32]	@ movhi
 373:../../source/src/FWlib/src/stm32f10x_tim.c ****   
 374:../../source/src/FWlib/src/stm32f10x_tim.c ****   /* Get the TIMx CCER register value */  
 375:../../source/src/FWlib/src/stm32f10x_tim.c ****   tmpccer = TIMx->CCER;
 751              		.loc 1 375 0
 752 0462 7B68     		ldr	r3, [r7, #4]
 753 0464 1B8C     		ldrh	r3, [r3, #32]	@ movhi
 754 0466 FB81     		strh	r3, [r7, #14]	@ movhi
 376:../../source/src/FWlib/src/stm32f10x_tim.c ****   /* Get the TIMx CR2 register value */
 377:../../source/src/FWlib/src/stm32f10x_tim.c ****   tmpcr2 =  TIMx->CR2;
 755              		.loc 1 377 0
 756 0468 7B68     		ldr	r3, [r7, #4]
 757 046a 9B88     		ldrh	r3, [r3, #4]	@ movhi
 758 046c BB81     		strh	r3, [r7, #12]	@ movhi
 378:../../source/src/FWlib/src/stm32f10x_tim.c ****   
 379:../../source/src/FWlib/src/stm32f10x_tim.c ****   /* Get the TIMx CCMR1 register value */
 380:../../source/src/FWlib/src/stm32f10x_tim.c ****   tmpccmrx = TIMx->CCMR1;
 759              		.loc 1 380 0
 760 046e 7B68     		ldr	r3, [r7, #4]
 761 0470 1B8B     		ldrh	r3, [r3, #24]	@ movhi
 762 0472 7B81     		strh	r3, [r7, #10]	@ movhi
 381:../../source/src/FWlib/src/stm32f10x_tim.c ****     
 382:../../source/src/FWlib/src/stm32f10x_tim.c ****   /* Reset the Output Compare mode and Capture/Compare selection Bits */
 383:../../source/src/FWlib/src/stm32f10x_tim.c ****   tmpccmrx &= (uint16_t)(~((uint16_t)TIM_CCMR1_OC2M));
 763              		.loc 1 383 0
 764 0474 7B89     		ldrh	r3, [r7, #10]	@ movhi
 765 0476 23F4E043 		bic	r3, r3, #28672
 766 047a 7B81     		strh	r3, [r7, #10]	@ movhi
ARM GAS  G:\Users\Jaxb\AppData\Local\Temp\ccSQWSCJ.s 			page 22


 384:../../source/src/FWlib/src/stm32f10x_tim.c ****   tmpccmrx &= (uint16_t)(~((uint16_t)TIM_CCMR1_CC2S));
 767              		.loc 1 384 0
 768 047c 7B89     		ldrh	r3, [r7, #10]	@ movhi
 769 047e 23F44073 		bic	r3, r3, #768
 770 0482 7B81     		strh	r3, [r7, #10]	@ movhi
 385:../../source/src/FWlib/src/stm32f10x_tim.c ****   
 386:../../source/src/FWlib/src/stm32f10x_tim.c ****   /* Select the Output Compare Mode */
 387:../../source/src/FWlib/src/stm32f10x_tim.c ****   tmpccmrx |= (uint16_t)(TIM_OCInitStruct->TIM_OCMode << 8);
 771              		.loc 1 387 0
 772 0484 3B68     		ldr	r3, [r7]
 773 0486 1B88     		ldrh	r3, [r3]
 774 0488 1B02     		lsls	r3, r3, #8
 775 048a 9AB2     		uxth	r2, r3
 776 048c 7B89     		ldrh	r3, [r7, #10]	@ movhi
 777 048e 1343     		orrs	r3, r3, r2
 778 0490 7B81     		strh	r3, [r7, #10]	@ movhi
 388:../../source/src/FWlib/src/stm32f10x_tim.c ****   
 389:../../source/src/FWlib/src/stm32f10x_tim.c ****   /* Reset the Output Polarity level */
 390:../../source/src/FWlib/src/stm32f10x_tim.c ****   tmpccer &= (uint16_t)(~((uint16_t)TIM_CCER_CC2P));
 779              		.loc 1 390 0
 780 0492 FB89     		ldrh	r3, [r7, #14]	@ movhi
 781 0494 23F02003 		bic	r3, r3, #32
 782 0498 FB81     		strh	r3, [r7, #14]	@ movhi
 391:../../source/src/FWlib/src/stm32f10x_tim.c ****   /* Set the Output Compare Polarity */
 392:../../source/src/FWlib/src/stm32f10x_tim.c ****   tmpccer |= (uint16_t)(TIM_OCInitStruct->TIM_OCPolarity << 4);
 783              		.loc 1 392 0
 784 049a 3B68     		ldr	r3, [r7]
 785 049c 1B89     		ldrh	r3, [r3, #8]
 786 049e 1B01     		lsls	r3, r3, #4
 787 04a0 9AB2     		uxth	r2, r3
 788 04a2 FB89     		ldrh	r3, [r7, #14]	@ movhi
 789 04a4 1343     		orrs	r3, r3, r2
 790 04a6 FB81     		strh	r3, [r7, #14]	@ movhi
 393:../../source/src/FWlib/src/stm32f10x_tim.c ****   
 394:../../source/src/FWlib/src/stm32f10x_tim.c ****   /* Set the Output State */
 395:../../source/src/FWlib/src/stm32f10x_tim.c ****   tmpccer |= (uint16_t)(TIM_OCInitStruct->TIM_OutputState << 4);
 791              		.loc 1 395 0
 792 04a8 3B68     		ldr	r3, [r7]
 793 04aa 5B88     		ldrh	r3, [r3, #2]
 794 04ac 1B01     		lsls	r3, r3, #4
 795 04ae 9AB2     		uxth	r2, r3
 796 04b0 FB89     		ldrh	r3, [r7, #14]	@ movhi
 797 04b2 1343     		orrs	r3, r3, r2
 798 04b4 FB81     		strh	r3, [r7, #14]	@ movhi
 396:../../source/src/FWlib/src/stm32f10x_tim.c ****     
 397:../../source/src/FWlib/src/stm32f10x_tim.c ****   if((TIMx == TIM1) || (TIMx == TIM8))
 799              		.loc 1 397 0
 800 04b6 7B68     		ldr	r3, [r7, #4]
 801 04b8 224A     		ldr	r2, .L38
 802 04ba 9342     		cmp	r3, r2
 803 04bc 03D0     		beq	.L36
 804              		.loc 1 397 0 is_stmt 0 discriminator 1
 805 04be 7B68     		ldr	r3, [r7, #4]
 806 04c0 214A     		ldr	r2, .L38+4
 807 04c2 9342     		cmp	r3, r2
 808 04c4 2BD1     		bne	.L37
 809              	.L36:
ARM GAS  G:\Users\Jaxb\AppData\Local\Temp\ccSQWSCJ.s 			page 23


 398:../../source/src/FWlib/src/stm32f10x_tim.c ****   {
 399:../../source/src/FWlib/src/stm32f10x_tim.c ****     assert_param(IS_TIM_OUTPUTN_STATE(TIM_OCInitStruct->TIM_OutputNState));
 400:../../source/src/FWlib/src/stm32f10x_tim.c ****     assert_param(IS_TIM_OCN_POLARITY(TIM_OCInitStruct->TIM_OCNPolarity));
 401:../../source/src/FWlib/src/stm32f10x_tim.c ****     assert_param(IS_TIM_OCNIDLE_STATE(TIM_OCInitStruct->TIM_OCNIdleState));
 402:../../source/src/FWlib/src/stm32f10x_tim.c ****     assert_param(IS_TIM_OCIDLE_STATE(TIM_OCInitStruct->TIM_OCIdleState));
 403:../../source/src/FWlib/src/stm32f10x_tim.c ****     
 404:../../source/src/FWlib/src/stm32f10x_tim.c ****     /* Reset the Output N Polarity level */
 405:../../source/src/FWlib/src/stm32f10x_tim.c ****     tmpccer &= (uint16_t)(~((uint16_t)TIM_CCER_CC2NP));
 810              		.loc 1 405 0 is_stmt 1
 811 04c6 FB89     		ldrh	r3, [r7, #14]	@ movhi
 812 04c8 23F08003 		bic	r3, r3, #128
 813 04cc FB81     		strh	r3, [r7, #14]	@ movhi
 406:../../source/src/FWlib/src/stm32f10x_tim.c ****     /* Set the Output N Polarity */
 407:../../source/src/FWlib/src/stm32f10x_tim.c ****     tmpccer |= (uint16_t)(TIM_OCInitStruct->TIM_OCNPolarity << 4);
 814              		.loc 1 407 0
 815 04ce 3B68     		ldr	r3, [r7]
 816 04d0 5B89     		ldrh	r3, [r3, #10]
 817 04d2 1B01     		lsls	r3, r3, #4
 818 04d4 9AB2     		uxth	r2, r3
 819 04d6 FB89     		ldrh	r3, [r7, #14]	@ movhi
 820 04d8 1343     		orrs	r3, r3, r2
 821 04da FB81     		strh	r3, [r7, #14]	@ movhi
 408:../../source/src/FWlib/src/stm32f10x_tim.c ****     
 409:../../source/src/FWlib/src/stm32f10x_tim.c ****     /* Reset the Output N State */
 410:../../source/src/FWlib/src/stm32f10x_tim.c ****     tmpccer &= (uint16_t)(~((uint16_t)TIM_CCER_CC2NE));    
 822              		.loc 1 410 0
 823 04dc FB89     		ldrh	r3, [r7, #14]	@ movhi
 824 04de 23F04003 		bic	r3, r3, #64
 825 04e2 FB81     		strh	r3, [r7, #14]	@ movhi
 411:../../source/src/FWlib/src/stm32f10x_tim.c ****     /* Set the Output N State */
 412:../../source/src/FWlib/src/stm32f10x_tim.c ****     tmpccer |= (uint16_t)(TIM_OCInitStruct->TIM_OutputNState << 4);
 826              		.loc 1 412 0
 827 04e4 3B68     		ldr	r3, [r7]
 828 04e6 9B88     		ldrh	r3, [r3, #4]
 829 04e8 1B01     		lsls	r3, r3, #4
 830 04ea 9AB2     		uxth	r2, r3
 831 04ec FB89     		ldrh	r3, [r7, #14]	@ movhi
 832 04ee 1343     		orrs	r3, r3, r2
 833 04f0 FB81     		strh	r3, [r7, #14]	@ movhi
 413:../../source/src/FWlib/src/stm32f10x_tim.c ****     
 414:../../source/src/FWlib/src/stm32f10x_tim.c ****     /* Reset the Output Compare and Output Compare N IDLE State */
 415:../../source/src/FWlib/src/stm32f10x_tim.c ****     tmpcr2 &= (uint16_t)(~((uint16_t)TIM_CR2_OIS2));
 834              		.loc 1 415 0
 835 04f2 BB89     		ldrh	r3, [r7, #12]	@ movhi
 836 04f4 23F48063 		bic	r3, r3, #1024
 837 04f8 BB81     		strh	r3, [r7, #12]	@ movhi
 416:../../source/src/FWlib/src/stm32f10x_tim.c ****     tmpcr2 &= (uint16_t)(~((uint16_t)TIM_CR2_OIS2N));
 838              		.loc 1 416 0
 839 04fa BB89     		ldrh	r3, [r7, #12]	@ movhi
 840 04fc 23F40063 		bic	r3, r3, #2048
 841 0500 BB81     		strh	r3, [r7, #12]	@ movhi
 417:../../source/src/FWlib/src/stm32f10x_tim.c ****     
 418:../../source/src/FWlib/src/stm32f10x_tim.c ****     /* Set the Output Idle state */
 419:../../source/src/FWlib/src/stm32f10x_tim.c ****     tmpcr2 |= (uint16_t)(TIM_OCInitStruct->TIM_OCIdleState << 2);
 842              		.loc 1 419 0
 843 0502 3B68     		ldr	r3, [r7]
 844 0504 9B89     		ldrh	r3, [r3, #12]
ARM GAS  G:\Users\Jaxb\AppData\Local\Temp\ccSQWSCJ.s 			page 24


 845 0506 9B00     		lsls	r3, r3, #2
 846 0508 9AB2     		uxth	r2, r3
 847 050a BB89     		ldrh	r3, [r7, #12]	@ movhi
 848 050c 1343     		orrs	r3, r3, r2
 849 050e BB81     		strh	r3, [r7, #12]	@ movhi
 420:../../source/src/FWlib/src/stm32f10x_tim.c ****     /* Set the Output N Idle state */
 421:../../source/src/FWlib/src/stm32f10x_tim.c ****     tmpcr2 |= (uint16_t)(TIM_OCInitStruct->TIM_OCNIdleState << 2);
 850              		.loc 1 421 0
 851 0510 3B68     		ldr	r3, [r7]
 852 0512 DB89     		ldrh	r3, [r3, #14]
 853 0514 9B00     		lsls	r3, r3, #2
 854 0516 9AB2     		uxth	r2, r3
 855 0518 BB89     		ldrh	r3, [r7, #12]	@ movhi
 856 051a 1343     		orrs	r3, r3, r2
 857 051c BB81     		strh	r3, [r7, #12]	@ movhi
 858              	.L37:
 422:../../source/src/FWlib/src/stm32f10x_tim.c ****   }
 423:../../source/src/FWlib/src/stm32f10x_tim.c ****   /* Write to TIMx CR2 */
 424:../../source/src/FWlib/src/stm32f10x_tim.c ****   TIMx->CR2 = tmpcr2;
 859              		.loc 1 424 0
 860 051e 7B68     		ldr	r3, [r7, #4]
 861 0520 BA89     		ldrh	r2, [r7, #12]	@ movhi
 862 0522 9A80     		strh	r2, [r3, #4]	@ movhi
 425:../../source/src/FWlib/src/stm32f10x_tim.c ****   
 426:../../source/src/FWlib/src/stm32f10x_tim.c ****   /* Write to TIMx CCMR1 */
 427:../../source/src/FWlib/src/stm32f10x_tim.c ****   TIMx->CCMR1 = tmpccmrx;
 863              		.loc 1 427 0
 864 0524 7B68     		ldr	r3, [r7, #4]
 865 0526 7A89     		ldrh	r2, [r7, #10]	@ movhi
 866 0528 1A83     		strh	r2, [r3, #24]	@ movhi
 428:../../source/src/FWlib/src/stm32f10x_tim.c **** 
 429:../../source/src/FWlib/src/stm32f10x_tim.c ****   /* Set the Capture Compare Register value */
 430:../../source/src/FWlib/src/stm32f10x_tim.c ****   TIMx->CCR2 = TIM_OCInitStruct->TIM_Pulse;
 867              		.loc 1 430 0
 868 052a 3B68     		ldr	r3, [r7]
 869 052c DA88     		ldrh	r2, [r3, #6]
 870 052e 7B68     		ldr	r3, [r7, #4]
 871 0530 1A87     		strh	r2, [r3, #56]	@ movhi
 431:../../source/src/FWlib/src/stm32f10x_tim.c ****   
 432:../../source/src/FWlib/src/stm32f10x_tim.c ****   /* Write to TIMx CCER */
 433:../../source/src/FWlib/src/stm32f10x_tim.c ****   TIMx->CCER = tmpccer;
 872              		.loc 1 433 0
 873 0532 7B68     		ldr	r3, [r7, #4]
 874 0534 FA89     		ldrh	r2, [r7, #14]	@ movhi
 875 0536 1A84     		strh	r2, [r3, #32]	@ movhi
 434:../../source/src/FWlib/src/stm32f10x_tim.c **** }
 876              		.loc 1 434 0
 877 0538 00BF     		nop
 878 053a 1437     		adds	r7, r7, #20
 879              	.LCFI20:
 880              		.cfi_def_cfa_offset 4
 881 053c BD46     		mov	sp, r7
 882              	.LCFI21:
 883              		.cfi_def_cfa_register 13
 884              		@ sp needed
 885 053e 80BC     		pop	{r7}
 886              	.LCFI22:
ARM GAS  G:\Users\Jaxb\AppData\Local\Temp\ccSQWSCJ.s 			page 25


 887              		.cfi_restore 7
 888              		.cfi_def_cfa_offset 0
 889 0540 7047     		bx	lr
 890              	.L39:
 891 0542 00BF     		.align	2
 892              	.L38:
 893 0544 002C0140 		.word	1073818624
 894 0548 00340140 		.word	1073820672
 895              		.cfi_endproc
 896              	.LFE32:
 897              		.size	TIM_OC2Init, .-TIM_OC2Init
 898              		.align	1
 899              		.global	TIM_OC3Init
 900              		.syntax unified
 901              		.thumb
 902              		.thumb_func
 903              		.fpu softvfp
 904              		.type	TIM_OC3Init, %function
 905              	TIM_OC3Init:
 906              	.LFB33:
 435:../../source/src/FWlib/src/stm32f10x_tim.c **** 
 436:../../source/src/FWlib/src/stm32f10x_tim.c **** /**
 437:../../source/src/FWlib/src/stm32f10x_tim.c ****   * @brief  Initializes the TIMx Channel3 according to the specified
 438:../../source/src/FWlib/src/stm32f10x_tim.c ****   *         parameters in the TIM_OCInitStruct.
 439:../../source/src/FWlib/src/stm32f10x_tim.c ****   * @param  TIMx: where x can be  1, 2, 3, 4, 5 or 8 to select the TIM peripheral.
 440:../../source/src/FWlib/src/stm32f10x_tim.c ****   * @param  TIM_OCInitStruct: pointer to a TIM_OCInitTypeDef structure
 441:../../source/src/FWlib/src/stm32f10x_tim.c ****   *         that contains the configuration information for the specified TIM peripheral.
 442:../../source/src/FWlib/src/stm32f10x_tim.c ****   * @retval None
 443:../../source/src/FWlib/src/stm32f10x_tim.c ****   */
 444:../../source/src/FWlib/src/stm32f10x_tim.c **** void TIM_OC3Init(TIM_TypeDef* TIMx, TIM_OCInitTypeDef* TIM_OCInitStruct)
 445:../../source/src/FWlib/src/stm32f10x_tim.c **** {
 907              		.loc 1 445 0
 908              		.cfi_startproc
 909              		@ args = 0, pretend = 0, frame = 16
 910              		@ frame_needed = 1, uses_anonymous_args = 0
 911              		@ link register save eliminated.
 912 054c 80B4     		push	{r7}
 913              	.LCFI23:
 914              		.cfi_def_cfa_offset 4
 915              		.cfi_offset 7, -4
 916 054e 85B0     		sub	sp, sp, #20
 917              	.LCFI24:
 918              		.cfi_def_cfa_offset 24
 919 0550 00AF     		add	r7, sp, #0
 920              	.LCFI25:
 921              		.cfi_def_cfa_register 7
 922 0552 7860     		str	r0, [r7, #4]
 923 0554 3960     		str	r1, [r7]
 446:../../source/src/FWlib/src/stm32f10x_tim.c ****   uint16_t tmpccmrx = 0, tmpccer = 0, tmpcr2 = 0;
 924              		.loc 1 446 0
 925 0556 0023     		movs	r3, #0
 926 0558 7B81     		strh	r3, [r7, #10]	@ movhi
 927 055a 0023     		movs	r3, #0
 928 055c FB81     		strh	r3, [r7, #14]	@ movhi
 929 055e 0023     		movs	r3, #0
 930 0560 BB81     		strh	r3, [r7, #12]	@ movhi
 447:../../source/src/FWlib/src/stm32f10x_tim.c ****    
ARM GAS  G:\Users\Jaxb\AppData\Local\Temp\ccSQWSCJ.s 			page 26


 448:../../source/src/FWlib/src/stm32f10x_tim.c ****   /* Check the parameters */
 449:../../source/src/FWlib/src/stm32f10x_tim.c ****   assert_param(IS_TIM_LIST3_PERIPH(TIMx)); 
 450:../../source/src/FWlib/src/stm32f10x_tim.c ****   assert_param(IS_TIM_OC_MODE(TIM_OCInitStruct->TIM_OCMode));
 451:../../source/src/FWlib/src/stm32f10x_tim.c ****   assert_param(IS_TIM_OUTPUT_STATE(TIM_OCInitStruct->TIM_OutputState));
 452:../../source/src/FWlib/src/stm32f10x_tim.c ****   assert_param(IS_TIM_OC_POLARITY(TIM_OCInitStruct->TIM_OCPolarity));   
 453:../../source/src/FWlib/src/stm32f10x_tim.c ****   /* Disable the Channel 2: Reset the CC2E Bit */
 454:../../source/src/FWlib/src/stm32f10x_tim.c ****   TIMx->CCER &= (uint16_t)(~((uint16_t)TIM_CCER_CC3E));
 931              		.loc 1 454 0
 932 0562 7B68     		ldr	r3, [r7, #4]
 933 0564 1B8C     		ldrh	r3, [r3, #32]	@ movhi
 934 0566 9BB2     		uxth	r3, r3
 935 0568 23F48073 		bic	r3, r3, #256
 936 056c 9AB2     		uxth	r2, r3
 937 056e 7B68     		ldr	r3, [r7, #4]
 938 0570 1A84     		strh	r2, [r3, #32]	@ movhi
 455:../../source/src/FWlib/src/stm32f10x_tim.c ****   
 456:../../source/src/FWlib/src/stm32f10x_tim.c ****   /* Get the TIMx CCER register value */
 457:../../source/src/FWlib/src/stm32f10x_tim.c ****   tmpccer = TIMx->CCER;
 939              		.loc 1 457 0
 940 0572 7B68     		ldr	r3, [r7, #4]
 941 0574 1B8C     		ldrh	r3, [r3, #32]	@ movhi
 942 0576 FB81     		strh	r3, [r7, #14]	@ movhi
 458:../../source/src/FWlib/src/stm32f10x_tim.c ****   /* Get the TIMx CR2 register value */
 459:../../source/src/FWlib/src/stm32f10x_tim.c ****   tmpcr2 =  TIMx->CR2;
 943              		.loc 1 459 0
 944 0578 7B68     		ldr	r3, [r7, #4]
 945 057a 9B88     		ldrh	r3, [r3, #4]	@ movhi
 946 057c BB81     		strh	r3, [r7, #12]	@ movhi
 460:../../source/src/FWlib/src/stm32f10x_tim.c ****   
 461:../../source/src/FWlib/src/stm32f10x_tim.c ****   /* Get the TIMx CCMR2 register value */
 462:../../source/src/FWlib/src/stm32f10x_tim.c ****   tmpccmrx = TIMx->CCMR2;
 947              		.loc 1 462 0
 948 057e 7B68     		ldr	r3, [r7, #4]
 949 0580 9B8B     		ldrh	r3, [r3, #28]	@ movhi
 950 0582 7B81     		strh	r3, [r7, #10]	@ movhi
 463:../../source/src/FWlib/src/stm32f10x_tim.c ****     
 464:../../source/src/FWlib/src/stm32f10x_tim.c ****   /* Reset the Output Compare mode and Capture/Compare selection Bits */
 465:../../source/src/FWlib/src/stm32f10x_tim.c ****   tmpccmrx &= (uint16_t)(~((uint16_t)TIM_CCMR2_OC3M));
 951              		.loc 1 465 0
 952 0584 7B89     		ldrh	r3, [r7, #10]	@ movhi
 953 0586 23F07003 		bic	r3, r3, #112
 954 058a 7B81     		strh	r3, [r7, #10]	@ movhi
 466:../../source/src/FWlib/src/stm32f10x_tim.c ****   tmpccmrx &= (uint16_t)(~((uint16_t)TIM_CCMR2_CC3S));  
 955              		.loc 1 466 0
 956 058c 7B89     		ldrh	r3, [r7, #10]	@ movhi
 957 058e 23F00303 		bic	r3, r3, #3
 958 0592 7B81     		strh	r3, [r7, #10]	@ movhi
 467:../../source/src/FWlib/src/stm32f10x_tim.c ****   /* Select the Output Compare Mode */
 468:../../source/src/FWlib/src/stm32f10x_tim.c ****   tmpccmrx |= TIM_OCInitStruct->TIM_OCMode;
 959              		.loc 1 468 0
 960 0594 3B68     		ldr	r3, [r7]
 961 0596 1A88     		ldrh	r2, [r3]
 962 0598 7B89     		ldrh	r3, [r7, #10]	@ movhi
 963 059a 1343     		orrs	r3, r3, r2
 964 059c 7B81     		strh	r3, [r7, #10]	@ movhi
 469:../../source/src/FWlib/src/stm32f10x_tim.c ****   
 470:../../source/src/FWlib/src/stm32f10x_tim.c ****   /* Reset the Output Polarity level */
ARM GAS  G:\Users\Jaxb\AppData\Local\Temp\ccSQWSCJ.s 			page 27


 471:../../source/src/FWlib/src/stm32f10x_tim.c ****   tmpccer &= (uint16_t)(~((uint16_t)TIM_CCER_CC3P));
 965              		.loc 1 471 0
 966 059e FB89     		ldrh	r3, [r7, #14]	@ movhi
 967 05a0 23F40073 		bic	r3, r3, #512
 968 05a4 FB81     		strh	r3, [r7, #14]	@ movhi
 472:../../source/src/FWlib/src/stm32f10x_tim.c ****   /* Set the Output Compare Polarity */
 473:../../source/src/FWlib/src/stm32f10x_tim.c ****   tmpccer |= (uint16_t)(TIM_OCInitStruct->TIM_OCPolarity << 8);
 969              		.loc 1 473 0
 970 05a6 3B68     		ldr	r3, [r7]
 971 05a8 1B89     		ldrh	r3, [r3, #8]
 972 05aa 1B02     		lsls	r3, r3, #8
 973 05ac 9AB2     		uxth	r2, r3
 974 05ae FB89     		ldrh	r3, [r7, #14]	@ movhi
 975 05b0 1343     		orrs	r3, r3, r2
 976 05b2 FB81     		strh	r3, [r7, #14]	@ movhi
 474:../../source/src/FWlib/src/stm32f10x_tim.c ****   
 475:../../source/src/FWlib/src/stm32f10x_tim.c ****   /* Set the Output State */
 476:../../source/src/FWlib/src/stm32f10x_tim.c ****   tmpccer |= (uint16_t)(TIM_OCInitStruct->TIM_OutputState << 8);
 977              		.loc 1 476 0
 978 05b4 3B68     		ldr	r3, [r7]
 979 05b6 5B88     		ldrh	r3, [r3, #2]
 980 05b8 1B02     		lsls	r3, r3, #8
 981 05ba 9AB2     		uxth	r2, r3
 982 05bc FB89     		ldrh	r3, [r7, #14]	@ movhi
 983 05be 1343     		orrs	r3, r3, r2
 984 05c0 FB81     		strh	r3, [r7, #14]	@ movhi
 477:../../source/src/FWlib/src/stm32f10x_tim.c ****     
 478:../../source/src/FWlib/src/stm32f10x_tim.c ****   if((TIMx == TIM1) || (TIMx == TIM8))
 985              		.loc 1 478 0
 986 05c2 7B68     		ldr	r3, [r7, #4]
 987 05c4 224A     		ldr	r2, .L43
 988 05c6 9342     		cmp	r3, r2
 989 05c8 03D0     		beq	.L41
 990              		.loc 1 478 0 is_stmt 0 discriminator 1
 991 05ca 7B68     		ldr	r3, [r7, #4]
 992 05cc 214A     		ldr	r2, .L43+4
 993 05ce 9342     		cmp	r3, r2
 994 05d0 2BD1     		bne	.L42
 995              	.L41:
 479:../../source/src/FWlib/src/stm32f10x_tim.c ****   {
 480:../../source/src/FWlib/src/stm32f10x_tim.c ****     assert_param(IS_TIM_OUTPUTN_STATE(TIM_OCInitStruct->TIM_OutputNState));
 481:../../source/src/FWlib/src/stm32f10x_tim.c ****     assert_param(IS_TIM_OCN_POLARITY(TIM_OCInitStruct->TIM_OCNPolarity));
 482:../../source/src/FWlib/src/stm32f10x_tim.c ****     assert_param(IS_TIM_OCNIDLE_STATE(TIM_OCInitStruct->TIM_OCNIdleState));
 483:../../source/src/FWlib/src/stm32f10x_tim.c ****     assert_param(IS_TIM_OCIDLE_STATE(TIM_OCInitStruct->TIM_OCIdleState));
 484:../../source/src/FWlib/src/stm32f10x_tim.c ****     
 485:../../source/src/FWlib/src/stm32f10x_tim.c ****     /* Reset the Output N Polarity level */
 486:../../source/src/FWlib/src/stm32f10x_tim.c ****     tmpccer &= (uint16_t)(~((uint16_t)TIM_CCER_CC3NP));
 996              		.loc 1 486 0 is_stmt 1
 997 05d2 FB89     		ldrh	r3, [r7, #14]	@ movhi
 998 05d4 23F40063 		bic	r3, r3, #2048
 999 05d8 FB81     		strh	r3, [r7, #14]	@ movhi
 487:../../source/src/FWlib/src/stm32f10x_tim.c ****     /* Set the Output N Polarity */
 488:../../source/src/FWlib/src/stm32f10x_tim.c ****     tmpccer |= (uint16_t)(TIM_OCInitStruct->TIM_OCNPolarity << 8);
 1000              		.loc 1 488 0
 1001 05da 3B68     		ldr	r3, [r7]
 1002 05dc 5B89     		ldrh	r3, [r3, #10]
 1003 05de 1B02     		lsls	r3, r3, #8
ARM GAS  G:\Users\Jaxb\AppData\Local\Temp\ccSQWSCJ.s 			page 28


 1004 05e0 9AB2     		uxth	r2, r3
 1005 05e2 FB89     		ldrh	r3, [r7, #14]	@ movhi
 1006 05e4 1343     		orrs	r3, r3, r2
 1007 05e6 FB81     		strh	r3, [r7, #14]	@ movhi
 489:../../source/src/FWlib/src/stm32f10x_tim.c ****     /* Reset the Output N State */
 490:../../source/src/FWlib/src/stm32f10x_tim.c ****     tmpccer &= (uint16_t)(~((uint16_t)TIM_CCER_CC3NE));
 1008              		.loc 1 490 0
 1009 05e8 FB89     		ldrh	r3, [r7, #14]	@ movhi
 1010 05ea 23F48063 		bic	r3, r3, #1024
 1011 05ee FB81     		strh	r3, [r7, #14]	@ movhi
 491:../../source/src/FWlib/src/stm32f10x_tim.c ****     
 492:../../source/src/FWlib/src/stm32f10x_tim.c ****     /* Set the Output N State */
 493:../../source/src/FWlib/src/stm32f10x_tim.c ****     tmpccer |= (uint16_t)(TIM_OCInitStruct->TIM_OutputNState << 8);
 1012              		.loc 1 493 0
 1013 05f0 3B68     		ldr	r3, [r7]
 1014 05f2 9B88     		ldrh	r3, [r3, #4]
 1015 05f4 1B02     		lsls	r3, r3, #8
 1016 05f6 9AB2     		uxth	r2, r3
 1017 05f8 FB89     		ldrh	r3, [r7, #14]	@ movhi
 1018 05fa 1343     		orrs	r3, r3, r2
 1019 05fc FB81     		strh	r3, [r7, #14]	@ movhi
 494:../../source/src/FWlib/src/stm32f10x_tim.c ****     /* Reset the Output Compare and Output Compare N IDLE State */
 495:../../source/src/FWlib/src/stm32f10x_tim.c ****     tmpcr2 &= (uint16_t)(~((uint16_t)TIM_CR2_OIS3));
 1020              		.loc 1 495 0
 1021 05fe BB89     		ldrh	r3, [r7, #12]	@ movhi
 1022 0600 23F48053 		bic	r3, r3, #4096
 1023 0604 BB81     		strh	r3, [r7, #12]	@ movhi
 496:../../source/src/FWlib/src/stm32f10x_tim.c ****     tmpcr2 &= (uint16_t)(~((uint16_t)TIM_CR2_OIS3N));
 1024              		.loc 1 496 0
 1025 0606 BB89     		ldrh	r3, [r7, #12]	@ movhi
 1026 0608 23F40053 		bic	r3, r3, #8192
 1027 060c BB81     		strh	r3, [r7, #12]	@ movhi
 497:../../source/src/FWlib/src/stm32f10x_tim.c ****     /* Set the Output Idle state */
 498:../../source/src/FWlib/src/stm32f10x_tim.c ****     tmpcr2 |= (uint16_t)(TIM_OCInitStruct->TIM_OCIdleState << 4);
 1028              		.loc 1 498 0
 1029 060e 3B68     		ldr	r3, [r7]
 1030 0610 9B89     		ldrh	r3, [r3, #12]
 1031 0612 1B01     		lsls	r3, r3, #4
 1032 0614 9AB2     		uxth	r2, r3
 1033 0616 BB89     		ldrh	r3, [r7, #12]	@ movhi
 1034 0618 1343     		orrs	r3, r3, r2
 1035 061a BB81     		strh	r3, [r7, #12]	@ movhi
 499:../../source/src/FWlib/src/stm32f10x_tim.c ****     /* Set the Output N Idle state */
 500:../../source/src/FWlib/src/stm32f10x_tim.c ****     tmpcr2 |= (uint16_t)(TIM_OCInitStruct->TIM_OCNIdleState << 4);
 1036              		.loc 1 500 0
 1037 061c 3B68     		ldr	r3, [r7]
 1038 061e DB89     		ldrh	r3, [r3, #14]
 1039 0620 1B01     		lsls	r3, r3, #4
 1040 0622 9AB2     		uxth	r2, r3
 1041 0624 BB89     		ldrh	r3, [r7, #12]	@ movhi
 1042 0626 1343     		orrs	r3, r3, r2
 1043 0628 BB81     		strh	r3, [r7, #12]	@ movhi
 1044              	.L42:
 501:../../source/src/FWlib/src/stm32f10x_tim.c ****   }
 502:../../source/src/FWlib/src/stm32f10x_tim.c ****   /* Write to TIMx CR2 */
 503:../../source/src/FWlib/src/stm32f10x_tim.c ****   TIMx->CR2 = tmpcr2;
 1045              		.loc 1 503 0
ARM GAS  G:\Users\Jaxb\AppData\Local\Temp\ccSQWSCJ.s 			page 29


 1046 062a 7B68     		ldr	r3, [r7, #4]
 1047 062c BA89     		ldrh	r2, [r7, #12]	@ movhi
 1048 062e 9A80     		strh	r2, [r3, #4]	@ movhi
 504:../../source/src/FWlib/src/stm32f10x_tim.c ****   
 505:../../source/src/FWlib/src/stm32f10x_tim.c ****   /* Write to TIMx CCMR2 */
 506:../../source/src/FWlib/src/stm32f10x_tim.c ****   TIMx->CCMR2 = tmpccmrx;
 1049              		.loc 1 506 0
 1050 0630 7B68     		ldr	r3, [r7, #4]
 1051 0632 7A89     		ldrh	r2, [r7, #10]	@ movhi
 1052 0634 9A83     		strh	r2, [r3, #28]	@ movhi
 507:../../source/src/FWlib/src/stm32f10x_tim.c **** 
 508:../../source/src/FWlib/src/stm32f10x_tim.c ****   /* Set the Capture Compare Register value */
 509:../../source/src/FWlib/src/stm32f10x_tim.c ****   TIMx->CCR3 = TIM_OCInitStruct->TIM_Pulse;
 1053              		.loc 1 509 0
 1054 0636 3B68     		ldr	r3, [r7]
 1055 0638 DA88     		ldrh	r2, [r3, #6]
 1056 063a 7B68     		ldr	r3, [r7, #4]
 1057 063c 9A87     		strh	r2, [r3, #60]	@ movhi
 510:../../source/src/FWlib/src/stm32f10x_tim.c ****   
 511:../../source/src/FWlib/src/stm32f10x_tim.c ****   /* Write to TIMx CCER */
 512:../../source/src/FWlib/src/stm32f10x_tim.c ****   TIMx->CCER = tmpccer;
 1058              		.loc 1 512 0
 1059 063e 7B68     		ldr	r3, [r7, #4]
 1060 0640 FA89     		ldrh	r2, [r7, #14]	@ movhi
 1061 0642 1A84     		strh	r2, [r3, #32]	@ movhi
 513:../../source/src/FWlib/src/stm32f10x_tim.c **** }
 1062              		.loc 1 513 0
 1063 0644 00BF     		nop
 1064 0646 1437     		adds	r7, r7, #20
 1065              	.LCFI26:
 1066              		.cfi_def_cfa_offset 4
 1067 0648 BD46     		mov	sp, r7
 1068              	.LCFI27:
 1069              		.cfi_def_cfa_register 13
 1070              		@ sp needed
 1071 064a 80BC     		pop	{r7}
 1072              	.LCFI28:
 1073              		.cfi_restore 7
 1074              		.cfi_def_cfa_offset 0
 1075 064c 7047     		bx	lr
 1076              	.L44:
 1077 064e 00BF     		.align	2
 1078              	.L43:
 1079 0650 002C0140 		.word	1073818624
 1080 0654 00340140 		.word	1073820672
 1081              		.cfi_endproc
 1082              	.LFE33:
 1083              		.size	TIM_OC3Init, .-TIM_OC3Init
 1084              		.align	1
 1085              		.global	TIM_OC4Init
 1086              		.syntax unified
 1087              		.thumb
 1088              		.thumb_func
 1089              		.fpu softvfp
 1090              		.type	TIM_OC4Init, %function
 1091              	TIM_OC4Init:
 1092              	.LFB34:
ARM GAS  G:\Users\Jaxb\AppData\Local\Temp\ccSQWSCJ.s 			page 30


 514:../../source/src/FWlib/src/stm32f10x_tim.c **** 
 515:../../source/src/FWlib/src/stm32f10x_tim.c **** /**
 516:../../source/src/FWlib/src/stm32f10x_tim.c ****   * @brief  Initializes the TIMx Channel4 according to the specified
 517:../../source/src/FWlib/src/stm32f10x_tim.c ****   *         parameters in the TIM_OCInitStruct.
 518:../../source/src/FWlib/src/stm32f10x_tim.c ****   * @param  TIMx: where x can be  1, 2, 3, 4, 5 or 8 to select the TIM peripheral.
 519:../../source/src/FWlib/src/stm32f10x_tim.c ****   * @param  TIM_OCInitStruct: pointer to a TIM_OCInitTypeDef structure
 520:../../source/src/FWlib/src/stm32f10x_tim.c ****   *         that contains the configuration information for the specified TIM peripheral.
 521:../../source/src/FWlib/src/stm32f10x_tim.c ****   * @retval None
 522:../../source/src/FWlib/src/stm32f10x_tim.c ****   */
 523:../../source/src/FWlib/src/stm32f10x_tim.c **** void TIM_OC4Init(TIM_TypeDef* TIMx, TIM_OCInitTypeDef* TIM_OCInitStruct)
 524:../../source/src/FWlib/src/stm32f10x_tim.c **** {
 1093              		.loc 1 524 0
 1094              		.cfi_startproc
 1095              		@ args = 0, pretend = 0, frame = 16
 1096              		@ frame_needed = 1, uses_anonymous_args = 0
 1097              		@ link register save eliminated.
 1098 0658 80B4     		push	{r7}
 1099              	.LCFI29:
 1100              		.cfi_def_cfa_offset 4
 1101              		.cfi_offset 7, -4
 1102 065a 85B0     		sub	sp, sp, #20
 1103              	.LCFI30:
 1104              		.cfi_def_cfa_offset 24
 1105 065c 00AF     		add	r7, sp, #0
 1106              	.LCFI31:
 1107              		.cfi_def_cfa_register 7
 1108 065e 7860     		str	r0, [r7, #4]
 1109 0660 3960     		str	r1, [r7]
 525:../../source/src/FWlib/src/stm32f10x_tim.c ****   uint16_t tmpccmrx = 0, tmpccer = 0, tmpcr2 = 0;
 1110              		.loc 1 525 0
 1111 0662 0023     		movs	r3, #0
 1112 0664 BB81     		strh	r3, [r7, #12]	@ movhi
 1113 0666 0023     		movs	r3, #0
 1114 0668 7B81     		strh	r3, [r7, #10]	@ movhi
 1115 066a 0023     		movs	r3, #0
 1116 066c FB81     		strh	r3, [r7, #14]	@ movhi
 526:../../source/src/FWlib/src/stm32f10x_tim.c ****    
 527:../../source/src/FWlib/src/stm32f10x_tim.c ****   /* Check the parameters */
 528:../../source/src/FWlib/src/stm32f10x_tim.c ****   assert_param(IS_TIM_LIST3_PERIPH(TIMx)); 
 529:../../source/src/FWlib/src/stm32f10x_tim.c ****   assert_param(IS_TIM_OC_MODE(TIM_OCInitStruct->TIM_OCMode));
 530:../../source/src/FWlib/src/stm32f10x_tim.c ****   assert_param(IS_TIM_OUTPUT_STATE(TIM_OCInitStruct->TIM_OutputState));
 531:../../source/src/FWlib/src/stm32f10x_tim.c ****   assert_param(IS_TIM_OC_POLARITY(TIM_OCInitStruct->TIM_OCPolarity));   
 532:../../source/src/FWlib/src/stm32f10x_tim.c ****   /* Disable the Channel 2: Reset the CC4E Bit */
 533:../../source/src/FWlib/src/stm32f10x_tim.c ****   TIMx->CCER &= (uint16_t)(~((uint16_t)TIM_CCER_CC4E));
 1117              		.loc 1 533 0
 1118 066e 7B68     		ldr	r3, [r7, #4]
 1119 0670 1B8C     		ldrh	r3, [r3, #32]	@ movhi
 1120 0672 9BB2     		uxth	r3, r3
 1121 0674 23F48053 		bic	r3, r3, #4096
 1122 0678 9AB2     		uxth	r2, r3
 1123 067a 7B68     		ldr	r3, [r7, #4]
 1124 067c 1A84     		strh	r2, [r3, #32]	@ movhi
 534:../../source/src/FWlib/src/stm32f10x_tim.c ****   
 535:../../source/src/FWlib/src/stm32f10x_tim.c ****   /* Get the TIMx CCER register value */
 536:../../source/src/FWlib/src/stm32f10x_tim.c ****   tmpccer = TIMx->CCER;
 1125              		.loc 1 536 0
 1126 067e 7B68     		ldr	r3, [r7, #4]
ARM GAS  G:\Users\Jaxb\AppData\Local\Temp\ccSQWSCJ.s 			page 31


 1127 0680 1B8C     		ldrh	r3, [r3, #32]	@ movhi
 1128 0682 7B81     		strh	r3, [r7, #10]	@ movhi
 537:../../source/src/FWlib/src/stm32f10x_tim.c ****   /* Get the TIMx CR2 register value */
 538:../../source/src/FWlib/src/stm32f10x_tim.c ****   tmpcr2 =  TIMx->CR2;
 1129              		.loc 1 538 0
 1130 0684 7B68     		ldr	r3, [r7, #4]
 1131 0686 9B88     		ldrh	r3, [r3, #4]	@ movhi
 1132 0688 FB81     		strh	r3, [r7, #14]	@ movhi
 539:../../source/src/FWlib/src/stm32f10x_tim.c ****   
 540:../../source/src/FWlib/src/stm32f10x_tim.c ****   /* Get the TIMx CCMR2 register value */
 541:../../source/src/FWlib/src/stm32f10x_tim.c ****   tmpccmrx = TIMx->CCMR2;
 1133              		.loc 1 541 0
 1134 068a 7B68     		ldr	r3, [r7, #4]
 1135 068c 9B8B     		ldrh	r3, [r3, #28]	@ movhi
 1136 068e BB81     		strh	r3, [r7, #12]	@ movhi
 542:../../source/src/FWlib/src/stm32f10x_tim.c ****     
 543:../../source/src/FWlib/src/stm32f10x_tim.c ****   /* Reset the Output Compare mode and Capture/Compare selection Bits */
 544:../../source/src/FWlib/src/stm32f10x_tim.c ****   tmpccmrx &= (uint16_t)(~((uint16_t)TIM_CCMR2_OC4M));
 1137              		.loc 1 544 0
 1138 0690 BB89     		ldrh	r3, [r7, #12]	@ movhi
 1139 0692 23F4E043 		bic	r3, r3, #28672
 1140 0696 BB81     		strh	r3, [r7, #12]	@ movhi
 545:../../source/src/FWlib/src/stm32f10x_tim.c ****   tmpccmrx &= (uint16_t)(~((uint16_t)TIM_CCMR2_CC4S));
 1141              		.loc 1 545 0
 1142 0698 BB89     		ldrh	r3, [r7, #12]	@ movhi
 1143 069a 23F44073 		bic	r3, r3, #768
 1144 069e BB81     		strh	r3, [r7, #12]	@ movhi
 546:../../source/src/FWlib/src/stm32f10x_tim.c ****   
 547:../../source/src/FWlib/src/stm32f10x_tim.c ****   /* Select the Output Compare Mode */
 548:../../source/src/FWlib/src/stm32f10x_tim.c ****   tmpccmrx |= (uint16_t)(TIM_OCInitStruct->TIM_OCMode << 8);
 1145              		.loc 1 548 0
 1146 06a0 3B68     		ldr	r3, [r7]
 1147 06a2 1B88     		ldrh	r3, [r3]
 1148 06a4 1B02     		lsls	r3, r3, #8
 1149 06a6 9AB2     		uxth	r2, r3
 1150 06a8 BB89     		ldrh	r3, [r7, #12]	@ movhi
 1151 06aa 1343     		orrs	r3, r3, r2
 1152 06ac BB81     		strh	r3, [r7, #12]	@ movhi
 549:../../source/src/FWlib/src/stm32f10x_tim.c ****   
 550:../../source/src/FWlib/src/stm32f10x_tim.c ****   /* Reset the Output Polarity level */
 551:../../source/src/FWlib/src/stm32f10x_tim.c ****   tmpccer &= (uint16_t)(~((uint16_t)TIM_CCER_CC4P));
 1153              		.loc 1 551 0
 1154 06ae 7B89     		ldrh	r3, [r7, #10]	@ movhi
 1155 06b0 23F40053 		bic	r3, r3, #8192
 1156 06b4 7B81     		strh	r3, [r7, #10]	@ movhi
 552:../../source/src/FWlib/src/stm32f10x_tim.c ****   /* Set the Output Compare Polarity */
 553:../../source/src/FWlib/src/stm32f10x_tim.c ****   tmpccer |= (uint16_t)(TIM_OCInitStruct->TIM_OCPolarity << 12);
 1157              		.loc 1 553 0
 1158 06b6 3B68     		ldr	r3, [r7]
 1159 06b8 1B89     		ldrh	r3, [r3, #8]
 1160 06ba 1B03     		lsls	r3, r3, #12
 1161 06bc 9AB2     		uxth	r2, r3
 1162 06be 7B89     		ldrh	r3, [r7, #10]	@ movhi
 1163 06c0 1343     		orrs	r3, r3, r2
 1164 06c2 7B81     		strh	r3, [r7, #10]	@ movhi
 554:../../source/src/FWlib/src/stm32f10x_tim.c ****   
 555:../../source/src/FWlib/src/stm32f10x_tim.c ****   /* Set the Output State */
ARM GAS  G:\Users\Jaxb\AppData\Local\Temp\ccSQWSCJ.s 			page 32


 556:../../source/src/FWlib/src/stm32f10x_tim.c ****   tmpccer |= (uint16_t)(TIM_OCInitStruct->TIM_OutputState << 12);
 1165              		.loc 1 556 0
 1166 06c4 3B68     		ldr	r3, [r7]
 1167 06c6 5B88     		ldrh	r3, [r3, #2]
 1168 06c8 1B03     		lsls	r3, r3, #12
 1169 06ca 9AB2     		uxth	r2, r3
 1170 06cc 7B89     		ldrh	r3, [r7, #10]	@ movhi
 1171 06ce 1343     		orrs	r3, r3, r2
 1172 06d0 7B81     		strh	r3, [r7, #10]	@ movhi
 557:../../source/src/FWlib/src/stm32f10x_tim.c ****     
 558:../../source/src/FWlib/src/stm32f10x_tim.c ****   if((TIMx == TIM1) || (TIMx == TIM8))
 1173              		.loc 1 558 0
 1174 06d2 7B68     		ldr	r3, [r7, #4]
 1175 06d4 124A     		ldr	r2, .L48
 1176 06d6 9342     		cmp	r3, r2
 1177 06d8 03D0     		beq	.L46
 1178              		.loc 1 558 0 is_stmt 0 discriminator 1
 1179 06da 7B68     		ldr	r3, [r7, #4]
 1180 06dc 114A     		ldr	r2, .L48+4
 1181 06de 9342     		cmp	r3, r2
 1182 06e0 0AD1     		bne	.L47
 1183              	.L46:
 559:../../source/src/FWlib/src/stm32f10x_tim.c ****   {
 560:../../source/src/FWlib/src/stm32f10x_tim.c ****     assert_param(IS_TIM_OCIDLE_STATE(TIM_OCInitStruct->TIM_OCIdleState));
 561:../../source/src/FWlib/src/stm32f10x_tim.c ****     /* Reset the Output Compare IDLE State */
 562:../../source/src/FWlib/src/stm32f10x_tim.c ****     tmpcr2 &= (uint16_t)(~((uint16_t)TIM_CR2_OIS4));
 1184              		.loc 1 562 0 is_stmt 1
 1185 06e2 FB89     		ldrh	r3, [r7, #14]	@ movhi
 1186 06e4 23F48043 		bic	r3, r3, #16384
 1187 06e8 FB81     		strh	r3, [r7, #14]	@ movhi
 563:../../source/src/FWlib/src/stm32f10x_tim.c ****     /* Set the Output Idle state */
 564:../../source/src/FWlib/src/stm32f10x_tim.c ****     tmpcr2 |= (uint16_t)(TIM_OCInitStruct->TIM_OCIdleState << 6);
 1188              		.loc 1 564 0
 1189 06ea 3B68     		ldr	r3, [r7]
 1190 06ec 9B89     		ldrh	r3, [r3, #12]
 1191 06ee 9B01     		lsls	r3, r3, #6
 1192 06f0 9AB2     		uxth	r2, r3
 1193 06f2 FB89     		ldrh	r3, [r7, #14]	@ movhi
 1194 06f4 1343     		orrs	r3, r3, r2
 1195 06f6 FB81     		strh	r3, [r7, #14]	@ movhi
 1196              	.L47:
 565:../../source/src/FWlib/src/stm32f10x_tim.c ****   }
 566:../../source/src/FWlib/src/stm32f10x_tim.c ****   /* Write to TIMx CR2 */
 567:../../source/src/FWlib/src/stm32f10x_tim.c ****   TIMx->CR2 = tmpcr2;
 1197              		.loc 1 567 0
 1198 06f8 7B68     		ldr	r3, [r7, #4]
 1199 06fa FA89     		ldrh	r2, [r7, #14]	@ movhi
 1200 06fc 9A80     		strh	r2, [r3, #4]	@ movhi
 568:../../source/src/FWlib/src/stm32f10x_tim.c ****   
 569:../../source/src/FWlib/src/stm32f10x_tim.c ****   /* Write to TIMx CCMR2 */  
 570:../../source/src/FWlib/src/stm32f10x_tim.c ****   TIMx->CCMR2 = tmpccmrx;
 1201              		.loc 1 570 0
 1202 06fe 7B68     		ldr	r3, [r7, #4]
 1203 0700 BA89     		ldrh	r2, [r7, #12]	@ movhi
 1204 0702 9A83     		strh	r2, [r3, #28]	@ movhi
 571:../../source/src/FWlib/src/stm32f10x_tim.c **** 
 572:../../source/src/FWlib/src/stm32f10x_tim.c ****   /* Set the Capture Compare Register value */
ARM GAS  G:\Users\Jaxb\AppData\Local\Temp\ccSQWSCJ.s 			page 33


 573:../../source/src/FWlib/src/stm32f10x_tim.c ****   TIMx->CCR4 = TIM_OCInitStruct->TIM_Pulse;
 1205              		.loc 1 573 0
 1206 0704 3B68     		ldr	r3, [r7]
 1207 0706 DA88     		ldrh	r2, [r3, #6]
 1208 0708 7B68     		ldr	r3, [r7, #4]
 1209 070a A3F84020 		strh	r2, [r3, #64]	@ movhi
 574:../../source/src/FWlib/src/stm32f10x_tim.c ****   
 575:../../source/src/FWlib/src/stm32f10x_tim.c ****   /* Write to TIMx CCER */
 576:../../source/src/FWlib/src/stm32f10x_tim.c ****   TIMx->CCER = tmpccer;
 1210              		.loc 1 576 0
 1211 070e 7B68     		ldr	r3, [r7, #4]
 1212 0710 7A89     		ldrh	r2, [r7, #10]	@ movhi
 1213 0712 1A84     		strh	r2, [r3, #32]	@ movhi
 577:../../source/src/FWlib/src/stm32f10x_tim.c **** }
 1214              		.loc 1 577 0
 1215 0714 00BF     		nop
 1216 0716 1437     		adds	r7, r7, #20
 1217              	.LCFI32:
 1218              		.cfi_def_cfa_offset 4
 1219 0718 BD46     		mov	sp, r7
 1220              	.LCFI33:
 1221              		.cfi_def_cfa_register 13
 1222              		@ sp needed
 1223 071a 80BC     		pop	{r7}
 1224              	.LCFI34:
 1225              		.cfi_restore 7
 1226              		.cfi_def_cfa_offset 0
 1227 071c 7047     		bx	lr
 1228              	.L49:
 1229 071e 00BF     		.align	2
 1230              	.L48:
 1231 0720 002C0140 		.word	1073818624
 1232 0724 00340140 		.word	1073820672
 1233              		.cfi_endproc
 1234              	.LFE34:
 1235              		.size	TIM_OC4Init, .-TIM_OC4Init
 1236              		.align	1
 1237              		.global	TIM_ICInit
 1238              		.syntax unified
 1239              		.thumb
 1240              		.thumb_func
 1241              		.fpu softvfp
 1242              		.type	TIM_ICInit, %function
 1243              	TIM_ICInit:
 1244              	.LFB35:
 578:../../source/src/FWlib/src/stm32f10x_tim.c **** 
 579:../../source/src/FWlib/src/stm32f10x_tim.c **** /**
 580:../../source/src/FWlib/src/stm32f10x_tim.c ****   * @brief  Initializes the TIM peripheral according to the specified
 581:../../source/src/FWlib/src/stm32f10x_tim.c ****   *         parameters in the TIM_ICInitStruct.
 582:../../source/src/FWlib/src/stm32f10x_tim.c ****   * @param  TIMx: where x can be  1 to 17 except 6 and 7 to select the TIM peripheral.
 583:../../source/src/FWlib/src/stm32f10x_tim.c ****   * @param  TIM_ICInitStruct: pointer to a TIM_ICInitTypeDef structure
 584:../../source/src/FWlib/src/stm32f10x_tim.c ****   *         that contains the configuration information for the specified TIM peripheral.
 585:../../source/src/FWlib/src/stm32f10x_tim.c ****   * @retval None
 586:../../source/src/FWlib/src/stm32f10x_tim.c ****   */
 587:../../source/src/FWlib/src/stm32f10x_tim.c **** void TIM_ICInit(TIM_TypeDef* TIMx, TIM_ICInitTypeDef* TIM_ICInitStruct)
 588:../../source/src/FWlib/src/stm32f10x_tim.c **** {
 1245              		.loc 1 588 0
ARM GAS  G:\Users\Jaxb\AppData\Local\Temp\ccSQWSCJ.s 			page 34


 1246              		.cfi_startproc
 1247              		@ args = 0, pretend = 0, frame = 8
 1248              		@ frame_needed = 1, uses_anonymous_args = 0
 1249 0728 80B5     		push	{r7, lr}
 1250              	.LCFI35:
 1251              		.cfi_def_cfa_offset 8
 1252              		.cfi_offset 7, -8
 1253              		.cfi_offset 14, -4
 1254 072a 82B0     		sub	sp, sp, #8
 1255              	.LCFI36:
 1256              		.cfi_def_cfa_offset 16
 1257 072c 00AF     		add	r7, sp, #0
 1258              	.LCFI37:
 1259              		.cfi_def_cfa_register 7
 1260 072e 7860     		str	r0, [r7, #4]
 1261 0730 3960     		str	r1, [r7]
 589:../../source/src/FWlib/src/stm32f10x_tim.c ****   /* Check the parameters */
 590:../../source/src/FWlib/src/stm32f10x_tim.c ****   assert_param(IS_TIM_CHANNEL(TIM_ICInitStruct->TIM_Channel));  
 591:../../source/src/FWlib/src/stm32f10x_tim.c ****   assert_param(IS_TIM_IC_SELECTION(TIM_ICInitStruct->TIM_ICSelection));
 592:../../source/src/FWlib/src/stm32f10x_tim.c ****   assert_param(IS_TIM_IC_PRESCALER(TIM_ICInitStruct->TIM_ICPrescaler));
 593:../../source/src/FWlib/src/stm32f10x_tim.c ****   assert_param(IS_TIM_IC_FILTER(TIM_ICInitStruct->TIM_ICFilter));
 594:../../source/src/FWlib/src/stm32f10x_tim.c ****   
 595:../../source/src/FWlib/src/stm32f10x_tim.c ****   if((TIMx == TIM1) || (TIMx == TIM8) || (TIMx == TIM2) || (TIMx == TIM3) ||
 596:../../source/src/FWlib/src/stm32f10x_tim.c ****      (TIMx == TIM4) ||(TIMx == TIM5))
 597:../../source/src/FWlib/src/stm32f10x_tim.c ****   {
 598:../../source/src/FWlib/src/stm32f10x_tim.c ****     assert_param(IS_TIM_IC_POLARITY(TIM_ICInitStruct->TIM_ICPolarity));
 599:../../source/src/FWlib/src/stm32f10x_tim.c ****   }
 600:../../source/src/FWlib/src/stm32f10x_tim.c ****   else
 601:../../source/src/FWlib/src/stm32f10x_tim.c ****   {
 602:../../source/src/FWlib/src/stm32f10x_tim.c ****     assert_param(IS_TIM_IC_POLARITY_LITE(TIM_ICInitStruct->TIM_ICPolarity));
 603:../../source/src/FWlib/src/stm32f10x_tim.c ****   }
 604:../../source/src/FWlib/src/stm32f10x_tim.c ****   if (TIM_ICInitStruct->TIM_Channel == TIM_Channel_1)
 1262              		.loc 1 604 0
 1263 0732 3B68     		ldr	r3, [r7]
 1264 0734 1B88     		ldrh	r3, [r3]
 1265 0736 002B     		cmp	r3, #0
 1266 0738 0FD1     		bne	.L51
 605:../../source/src/FWlib/src/stm32f10x_tim.c ****   {
 606:../../source/src/FWlib/src/stm32f10x_tim.c ****     assert_param(IS_TIM_LIST8_PERIPH(TIMx));
 607:../../source/src/FWlib/src/stm32f10x_tim.c ****     /* TI1 Configuration */
 608:../../source/src/FWlib/src/stm32f10x_tim.c ****     TI1_Config(TIMx, TIM_ICInitStruct->TIM_ICPolarity,
 1267              		.loc 1 608 0
 1268 073a 3B68     		ldr	r3, [r7]
 1269 073c 5988     		ldrh	r1, [r3, #2]
 1270 073e 3B68     		ldr	r3, [r7]
 1271 0740 9A88     		ldrh	r2, [r3, #4]
 1272 0742 3B68     		ldr	r3, [r7]
 1273 0744 1B89     		ldrh	r3, [r3, #8]
 1274 0746 7868     		ldr	r0, [r7, #4]
 1275 0748 01F046F9 		bl	TI1_Config
 609:../../source/src/FWlib/src/stm32f10x_tim.c ****                TIM_ICInitStruct->TIM_ICSelection,
 610:../../source/src/FWlib/src/stm32f10x_tim.c ****                TIM_ICInitStruct->TIM_ICFilter);
 611:../../source/src/FWlib/src/stm32f10x_tim.c ****     /* Set the Input Capture Prescaler value */
 612:../../source/src/FWlib/src/stm32f10x_tim.c ****     TIM_SetIC1Prescaler(TIMx, TIM_ICInitStruct->TIM_ICPrescaler);
 1276              		.loc 1 612 0
 1277 074c 3B68     		ldr	r3, [r7]
 1278 074e DB88     		ldrh	r3, [r3, #6]
ARM GAS  G:\Users\Jaxb\AppData\Local\Temp\ccSQWSCJ.s 			page 35


 1279 0750 1946     		mov	r1, r3
 1280 0752 7868     		ldr	r0, [r7, #4]
 1281 0754 FFF7FEFF 		bl	TIM_SetIC1Prescaler
 613:../../source/src/FWlib/src/stm32f10x_tim.c ****   }
 614:../../source/src/FWlib/src/stm32f10x_tim.c ****   else if (TIM_ICInitStruct->TIM_Channel == TIM_Channel_2)
 615:../../source/src/FWlib/src/stm32f10x_tim.c ****   {
 616:../../source/src/FWlib/src/stm32f10x_tim.c ****     assert_param(IS_TIM_LIST6_PERIPH(TIMx));
 617:../../source/src/FWlib/src/stm32f10x_tim.c ****     /* TI2 Configuration */
 618:../../source/src/FWlib/src/stm32f10x_tim.c ****     TI2_Config(TIMx, TIM_ICInitStruct->TIM_ICPolarity,
 619:../../source/src/FWlib/src/stm32f10x_tim.c ****                TIM_ICInitStruct->TIM_ICSelection,
 620:../../source/src/FWlib/src/stm32f10x_tim.c ****                TIM_ICInitStruct->TIM_ICFilter);
 621:../../source/src/FWlib/src/stm32f10x_tim.c ****     /* Set the Input Capture Prescaler value */
 622:../../source/src/FWlib/src/stm32f10x_tim.c ****     TIM_SetIC2Prescaler(TIMx, TIM_ICInitStruct->TIM_ICPrescaler);
 623:../../source/src/FWlib/src/stm32f10x_tim.c ****   }
 624:../../source/src/FWlib/src/stm32f10x_tim.c ****   else if (TIM_ICInitStruct->TIM_Channel == TIM_Channel_3)
 625:../../source/src/FWlib/src/stm32f10x_tim.c ****   {
 626:../../source/src/FWlib/src/stm32f10x_tim.c ****     assert_param(IS_TIM_LIST3_PERIPH(TIMx));
 627:../../source/src/FWlib/src/stm32f10x_tim.c ****     /* TI3 Configuration */
 628:../../source/src/FWlib/src/stm32f10x_tim.c ****     TI3_Config(TIMx,  TIM_ICInitStruct->TIM_ICPolarity,
 629:../../source/src/FWlib/src/stm32f10x_tim.c ****                TIM_ICInitStruct->TIM_ICSelection,
 630:../../source/src/FWlib/src/stm32f10x_tim.c ****                TIM_ICInitStruct->TIM_ICFilter);
 631:../../source/src/FWlib/src/stm32f10x_tim.c ****     /* Set the Input Capture Prescaler value */
 632:../../source/src/FWlib/src/stm32f10x_tim.c ****     TIM_SetIC3Prescaler(TIMx, TIM_ICInitStruct->TIM_ICPrescaler);
 633:../../source/src/FWlib/src/stm32f10x_tim.c ****   }
 634:../../source/src/FWlib/src/stm32f10x_tim.c ****   else
 635:../../source/src/FWlib/src/stm32f10x_tim.c ****   {
 636:../../source/src/FWlib/src/stm32f10x_tim.c ****     assert_param(IS_TIM_LIST3_PERIPH(TIMx));
 637:../../source/src/FWlib/src/stm32f10x_tim.c ****     /* TI4 Configuration */
 638:../../source/src/FWlib/src/stm32f10x_tim.c ****     TI4_Config(TIMx, TIM_ICInitStruct->TIM_ICPolarity,
 639:../../source/src/FWlib/src/stm32f10x_tim.c ****                TIM_ICInitStruct->TIM_ICSelection,
 640:../../source/src/FWlib/src/stm32f10x_tim.c ****                TIM_ICInitStruct->TIM_ICFilter);
 641:../../source/src/FWlib/src/stm32f10x_tim.c ****     /* Set the Input Capture Prescaler value */
 642:../../source/src/FWlib/src/stm32f10x_tim.c ****     TIM_SetIC4Prescaler(TIMx, TIM_ICInitStruct->TIM_ICPrescaler);
 643:../../source/src/FWlib/src/stm32f10x_tim.c ****   }
 644:../../source/src/FWlib/src/stm32f10x_tim.c **** }
 1282              		.loc 1 644 0
 1283 0758 36E0     		b	.L55
 1284              	.L51:
 614:../../source/src/FWlib/src/stm32f10x_tim.c ****   {
 1285              		.loc 1 614 0
 1286 075a 3B68     		ldr	r3, [r7]
 1287 075c 1B88     		ldrh	r3, [r3]
 1288 075e 042B     		cmp	r3, #4
 1289 0760 0FD1     		bne	.L53
 618:../../source/src/FWlib/src/stm32f10x_tim.c ****                TIM_ICInitStruct->TIM_ICSelection,
 1290              		.loc 1 618 0
 1291 0762 3B68     		ldr	r3, [r7]
 1292 0764 5988     		ldrh	r1, [r3, #2]
 1293 0766 3B68     		ldr	r3, [r7]
 1294 0768 9A88     		ldrh	r2, [r3, #4]
 1295 076a 3B68     		ldr	r3, [r7]
 1296 076c 1B89     		ldrh	r3, [r3, #8]
 1297 076e 7868     		ldr	r0, [r7, #4]
 1298 0770 01F0A2F9 		bl	TI2_Config
 622:../../source/src/FWlib/src/stm32f10x_tim.c ****   }
 1299              		.loc 1 622 0
 1300 0774 3B68     		ldr	r3, [r7]
ARM GAS  G:\Users\Jaxb\AppData\Local\Temp\ccSQWSCJ.s 			page 36


 1301 0776 DB88     		ldrh	r3, [r3, #6]
 1302 0778 1946     		mov	r1, r3
 1303 077a 7868     		ldr	r0, [r7, #4]
 1304 077c FFF7FEFF 		bl	TIM_SetIC2Prescaler
 1305              		.loc 1 644 0
 1306 0780 22E0     		b	.L55
 1307              	.L53:
 624:../../source/src/FWlib/src/stm32f10x_tim.c ****   {
 1308              		.loc 1 624 0
 1309 0782 3B68     		ldr	r3, [r7]
 1310 0784 1B88     		ldrh	r3, [r3]
 1311 0786 082B     		cmp	r3, #8
 1312 0788 0FD1     		bne	.L54
 628:../../source/src/FWlib/src/stm32f10x_tim.c ****                TIM_ICInitStruct->TIM_ICSelection,
 1313              		.loc 1 628 0
 1314 078a 3B68     		ldr	r3, [r7]
 1315 078c 5988     		ldrh	r1, [r3, #2]
 1316 078e 3B68     		ldr	r3, [r7]
 1317 0790 9A88     		ldrh	r2, [r3, #4]
 1318 0792 3B68     		ldr	r3, [r7]
 1319 0794 1B89     		ldrh	r3, [r3, #8]
 1320 0796 7868     		ldr	r0, [r7, #4]
 1321 0798 01F008FA 		bl	TI3_Config
 632:../../source/src/FWlib/src/stm32f10x_tim.c ****   }
 1322              		.loc 1 632 0
 1323 079c 3B68     		ldr	r3, [r7]
 1324 079e DB88     		ldrh	r3, [r3, #6]
 1325 07a0 1946     		mov	r1, r3
 1326 07a2 7868     		ldr	r0, [r7, #4]
 1327 07a4 FFF7FEFF 		bl	TIM_SetIC3Prescaler
 1328              		.loc 1 644 0
 1329 07a8 0EE0     		b	.L55
 1330              	.L54:
 638:../../source/src/FWlib/src/stm32f10x_tim.c ****                TIM_ICInitStruct->TIM_ICSelection,
 1331              		.loc 1 638 0
 1332 07aa 3B68     		ldr	r3, [r7]
 1333 07ac 5988     		ldrh	r1, [r3, #2]
 1334 07ae 3B68     		ldr	r3, [r7]
 1335 07b0 9A88     		ldrh	r2, [r3, #4]
 1336 07b2 3B68     		ldr	r3, [r7]
 1337 07b4 1B89     		ldrh	r3, [r3, #8]
 1338 07b6 7868     		ldr	r0, [r7, #4]
 1339 07b8 01F06EFA 		bl	TI4_Config
 642:../../source/src/FWlib/src/stm32f10x_tim.c ****   }
 1340              		.loc 1 642 0
 1341 07bc 3B68     		ldr	r3, [r7]
 1342 07be DB88     		ldrh	r3, [r3, #6]
 1343 07c0 1946     		mov	r1, r3
 1344 07c2 7868     		ldr	r0, [r7, #4]
 1345 07c4 FFF7FEFF 		bl	TIM_SetIC4Prescaler
 1346              	.L55:
 1347              		.loc 1 644 0
 1348 07c8 00BF     		nop
 1349 07ca 0837     		adds	r7, r7, #8
 1350              	.LCFI38:
 1351              		.cfi_def_cfa_offset 8
 1352 07cc BD46     		mov	sp, r7
ARM GAS  G:\Users\Jaxb\AppData\Local\Temp\ccSQWSCJ.s 			page 37


 1353              	.LCFI39:
 1354              		.cfi_def_cfa_register 13
 1355              		@ sp needed
 1356 07ce 80BD     		pop	{r7, pc}
 1357              		.cfi_endproc
 1358              	.LFE35:
 1359              		.size	TIM_ICInit, .-TIM_ICInit
 1360              		.align	1
 1361              		.global	TIM_PWMIConfig
 1362              		.syntax unified
 1363              		.thumb
 1364              		.thumb_func
 1365              		.fpu softvfp
 1366              		.type	TIM_PWMIConfig, %function
 1367              	TIM_PWMIConfig:
 1368              	.LFB36:
 645:../../source/src/FWlib/src/stm32f10x_tim.c **** 
 646:../../source/src/FWlib/src/stm32f10x_tim.c **** /**
 647:../../source/src/FWlib/src/stm32f10x_tim.c ****   * @brief  Configures the TIM peripheral according to the specified
 648:../../source/src/FWlib/src/stm32f10x_tim.c ****   *         parameters in the TIM_ICInitStruct to measure an external PWM signal.
 649:../../source/src/FWlib/src/stm32f10x_tim.c ****   * @param  TIMx: where x can be  1, 2, 3, 4, 5, 8, 9, 12 or 15 to select the TIM peripheral.
 650:../../source/src/FWlib/src/stm32f10x_tim.c ****   * @param  TIM_ICInitStruct: pointer to a TIM_ICInitTypeDef structure
 651:../../source/src/FWlib/src/stm32f10x_tim.c ****   *         that contains the configuration information for the specified TIM peripheral.
 652:../../source/src/FWlib/src/stm32f10x_tim.c ****   * @retval None
 653:../../source/src/FWlib/src/stm32f10x_tim.c ****   */
 654:../../source/src/FWlib/src/stm32f10x_tim.c **** void TIM_PWMIConfig(TIM_TypeDef* TIMx, TIM_ICInitTypeDef* TIM_ICInitStruct)
 655:../../source/src/FWlib/src/stm32f10x_tim.c **** {
 1369              		.loc 1 655 0
 1370              		.cfi_startproc
 1371              		@ args = 0, pretend = 0, frame = 16
 1372              		@ frame_needed = 1, uses_anonymous_args = 0
 1373 07d0 80B5     		push	{r7, lr}
 1374              	.LCFI40:
 1375              		.cfi_def_cfa_offset 8
 1376              		.cfi_offset 7, -8
 1377              		.cfi_offset 14, -4
 1378 07d2 84B0     		sub	sp, sp, #16
 1379              	.LCFI41:
 1380              		.cfi_def_cfa_offset 24
 1381 07d4 00AF     		add	r7, sp, #0
 1382              	.LCFI42:
 1383              		.cfi_def_cfa_register 7
 1384 07d6 7860     		str	r0, [r7, #4]
 1385 07d8 3960     		str	r1, [r7]
 656:../../source/src/FWlib/src/stm32f10x_tim.c ****   uint16_t icoppositepolarity = TIM_ICPolarity_Rising;
 1386              		.loc 1 656 0
 1387 07da 0023     		movs	r3, #0
 1388 07dc FB81     		strh	r3, [r7, #14]	@ movhi
 657:../../source/src/FWlib/src/stm32f10x_tim.c ****   uint16_t icoppositeselection = TIM_ICSelection_DirectTI;
 1389              		.loc 1 657 0
 1390 07de 0123     		movs	r3, #1
 1391 07e0 BB81     		strh	r3, [r7, #12]	@ movhi
 658:../../source/src/FWlib/src/stm32f10x_tim.c ****   /* Check the parameters */
 659:../../source/src/FWlib/src/stm32f10x_tim.c ****   assert_param(IS_TIM_LIST6_PERIPH(TIMx));
 660:../../source/src/FWlib/src/stm32f10x_tim.c ****   /* Select the Opposite Input Polarity */
 661:../../source/src/FWlib/src/stm32f10x_tim.c ****   if (TIM_ICInitStruct->TIM_ICPolarity == TIM_ICPolarity_Rising)
 1392              		.loc 1 661 0
ARM GAS  G:\Users\Jaxb\AppData\Local\Temp\ccSQWSCJ.s 			page 38


 1393 07e2 3B68     		ldr	r3, [r7]
 1394 07e4 5B88     		ldrh	r3, [r3, #2]
 1395 07e6 002B     		cmp	r3, #0
 1396 07e8 02D1     		bne	.L57
 662:../../source/src/FWlib/src/stm32f10x_tim.c ****   {
 663:../../source/src/FWlib/src/stm32f10x_tim.c ****     icoppositepolarity = TIM_ICPolarity_Falling;
 1397              		.loc 1 663 0
 1398 07ea 0223     		movs	r3, #2
 1399 07ec FB81     		strh	r3, [r7, #14]	@ movhi
 1400 07ee 01E0     		b	.L58
 1401              	.L57:
 664:../../source/src/FWlib/src/stm32f10x_tim.c ****   }
 665:../../source/src/FWlib/src/stm32f10x_tim.c ****   else
 666:../../source/src/FWlib/src/stm32f10x_tim.c ****   {
 667:../../source/src/FWlib/src/stm32f10x_tim.c ****     icoppositepolarity = TIM_ICPolarity_Rising;
 1402              		.loc 1 667 0
 1403 07f0 0023     		movs	r3, #0
 1404 07f2 FB81     		strh	r3, [r7, #14]	@ movhi
 1405              	.L58:
 668:../../source/src/FWlib/src/stm32f10x_tim.c ****   }
 669:../../source/src/FWlib/src/stm32f10x_tim.c ****   /* Select the Opposite Input */
 670:../../source/src/FWlib/src/stm32f10x_tim.c ****   if (TIM_ICInitStruct->TIM_ICSelection == TIM_ICSelection_DirectTI)
 1406              		.loc 1 670 0
 1407 07f4 3B68     		ldr	r3, [r7]
 1408 07f6 9B88     		ldrh	r3, [r3, #4]
 1409 07f8 012B     		cmp	r3, #1
 1410 07fa 02D1     		bne	.L59
 671:../../source/src/FWlib/src/stm32f10x_tim.c ****   {
 672:../../source/src/FWlib/src/stm32f10x_tim.c ****     icoppositeselection = TIM_ICSelection_IndirectTI;
 1411              		.loc 1 672 0
 1412 07fc 0223     		movs	r3, #2
 1413 07fe BB81     		strh	r3, [r7, #12]	@ movhi
 1414 0800 01E0     		b	.L60
 1415              	.L59:
 673:../../source/src/FWlib/src/stm32f10x_tim.c ****   }
 674:../../source/src/FWlib/src/stm32f10x_tim.c ****   else
 675:../../source/src/FWlib/src/stm32f10x_tim.c ****   {
 676:../../source/src/FWlib/src/stm32f10x_tim.c ****     icoppositeselection = TIM_ICSelection_DirectTI;
 1416              		.loc 1 676 0
 1417 0802 0123     		movs	r3, #1
 1418 0804 BB81     		strh	r3, [r7, #12]	@ movhi
 1419              	.L60:
 677:../../source/src/FWlib/src/stm32f10x_tim.c ****   }
 678:../../source/src/FWlib/src/stm32f10x_tim.c ****   if (TIM_ICInitStruct->TIM_Channel == TIM_Channel_1)
 1420              		.loc 1 678 0
 1421 0806 3B68     		ldr	r3, [r7]
 1422 0808 1B88     		ldrh	r3, [r3]
 1423 080a 002B     		cmp	r3, #0
 1424 080c 1CD1     		bne	.L61
 679:../../source/src/FWlib/src/stm32f10x_tim.c ****   {
 680:../../source/src/FWlib/src/stm32f10x_tim.c ****     /* TI1 Configuration */
 681:../../source/src/FWlib/src/stm32f10x_tim.c ****     TI1_Config(TIMx, TIM_ICInitStruct->TIM_ICPolarity, TIM_ICInitStruct->TIM_ICSelection,
 1425              		.loc 1 681 0
 1426 080e 3B68     		ldr	r3, [r7]
 1427 0810 5988     		ldrh	r1, [r3, #2]
 1428 0812 3B68     		ldr	r3, [r7]
 1429 0814 9A88     		ldrh	r2, [r3, #4]
ARM GAS  G:\Users\Jaxb\AppData\Local\Temp\ccSQWSCJ.s 			page 39


 1430 0816 3B68     		ldr	r3, [r7]
 1431 0818 1B89     		ldrh	r3, [r3, #8]
 1432 081a 7868     		ldr	r0, [r7, #4]
 1433 081c 01F0DCF8 		bl	TI1_Config
 682:../../source/src/FWlib/src/stm32f10x_tim.c ****                TIM_ICInitStruct->TIM_ICFilter);
 683:../../source/src/FWlib/src/stm32f10x_tim.c ****     /* Set the Input Capture Prescaler value */
 684:../../source/src/FWlib/src/stm32f10x_tim.c ****     TIM_SetIC1Prescaler(TIMx, TIM_ICInitStruct->TIM_ICPrescaler);
 1434              		.loc 1 684 0
 1435 0820 3B68     		ldr	r3, [r7]
 1436 0822 DB88     		ldrh	r3, [r3, #6]
 1437 0824 1946     		mov	r1, r3
 1438 0826 7868     		ldr	r0, [r7, #4]
 1439 0828 FFF7FEFF 		bl	TIM_SetIC1Prescaler
 685:../../source/src/FWlib/src/stm32f10x_tim.c ****     /* TI2 Configuration */
 686:../../source/src/FWlib/src/stm32f10x_tim.c ****     TI2_Config(TIMx, icoppositepolarity, icoppositeselection, TIM_ICInitStruct->TIM_ICFilter);
 1440              		.loc 1 686 0
 1441 082c 3B68     		ldr	r3, [r7]
 1442 082e 1B89     		ldrh	r3, [r3, #8]
 1443 0830 BA89     		ldrh	r2, [r7, #12]
 1444 0832 F989     		ldrh	r1, [r7, #14]
 1445 0834 7868     		ldr	r0, [r7, #4]
 1446 0836 01F03FF9 		bl	TI2_Config
 687:../../source/src/FWlib/src/stm32f10x_tim.c ****     /* Set the Input Capture Prescaler value */
 688:../../source/src/FWlib/src/stm32f10x_tim.c ****     TIM_SetIC2Prescaler(TIMx, TIM_ICInitStruct->TIM_ICPrescaler);
 1447              		.loc 1 688 0
 1448 083a 3B68     		ldr	r3, [r7]
 1449 083c DB88     		ldrh	r3, [r3, #6]
 1450 083e 1946     		mov	r1, r3
 1451 0840 7868     		ldr	r0, [r7, #4]
 1452 0842 FFF7FEFF 		bl	TIM_SetIC2Prescaler
 689:../../source/src/FWlib/src/stm32f10x_tim.c ****   }
 690:../../source/src/FWlib/src/stm32f10x_tim.c ****   else
 691:../../source/src/FWlib/src/stm32f10x_tim.c ****   { 
 692:../../source/src/FWlib/src/stm32f10x_tim.c ****     /* TI2 Configuration */
 693:../../source/src/FWlib/src/stm32f10x_tim.c ****     TI2_Config(TIMx, TIM_ICInitStruct->TIM_ICPolarity, TIM_ICInitStruct->TIM_ICSelection,
 694:../../source/src/FWlib/src/stm32f10x_tim.c ****                TIM_ICInitStruct->TIM_ICFilter);
 695:../../source/src/FWlib/src/stm32f10x_tim.c ****     /* Set the Input Capture Prescaler value */
 696:../../source/src/FWlib/src/stm32f10x_tim.c ****     TIM_SetIC2Prescaler(TIMx, TIM_ICInitStruct->TIM_ICPrescaler);
 697:../../source/src/FWlib/src/stm32f10x_tim.c ****     /* TI1 Configuration */
 698:../../source/src/FWlib/src/stm32f10x_tim.c ****     TI1_Config(TIMx, icoppositepolarity, icoppositeselection, TIM_ICInitStruct->TIM_ICFilter);
 699:../../source/src/FWlib/src/stm32f10x_tim.c ****     /* Set the Input Capture Prescaler value */
 700:../../source/src/FWlib/src/stm32f10x_tim.c ****     TIM_SetIC1Prescaler(TIMx, TIM_ICInitStruct->TIM_ICPrescaler);
 701:../../source/src/FWlib/src/stm32f10x_tim.c ****   }
 702:../../source/src/FWlib/src/stm32f10x_tim.c **** }
 1453              		.loc 1 702 0
 1454 0846 1BE0     		b	.L63
 1455              	.L61:
 693:../../source/src/FWlib/src/stm32f10x_tim.c ****                TIM_ICInitStruct->TIM_ICFilter);
 1456              		.loc 1 693 0
 1457 0848 3B68     		ldr	r3, [r7]
 1458 084a 5988     		ldrh	r1, [r3, #2]
 1459 084c 3B68     		ldr	r3, [r7]
 1460 084e 9A88     		ldrh	r2, [r3, #4]
 1461 0850 3B68     		ldr	r3, [r7]
 1462 0852 1B89     		ldrh	r3, [r3, #8]
 1463 0854 7868     		ldr	r0, [r7, #4]
 1464 0856 01F02FF9 		bl	TI2_Config
ARM GAS  G:\Users\Jaxb\AppData\Local\Temp\ccSQWSCJ.s 			page 40


 696:../../source/src/FWlib/src/stm32f10x_tim.c ****     /* TI1 Configuration */
 1465              		.loc 1 696 0
 1466 085a 3B68     		ldr	r3, [r7]
 1467 085c DB88     		ldrh	r3, [r3, #6]
 1468 085e 1946     		mov	r1, r3
 1469 0860 7868     		ldr	r0, [r7, #4]
 1470 0862 FFF7FEFF 		bl	TIM_SetIC2Prescaler
 698:../../source/src/FWlib/src/stm32f10x_tim.c ****     /* Set the Input Capture Prescaler value */
 1471              		.loc 1 698 0
 1472 0866 3B68     		ldr	r3, [r7]
 1473 0868 1B89     		ldrh	r3, [r3, #8]
 1474 086a BA89     		ldrh	r2, [r7, #12]
 1475 086c F989     		ldrh	r1, [r7, #14]
 1476 086e 7868     		ldr	r0, [r7, #4]
 1477 0870 01F0B2F8 		bl	TI1_Config
 700:../../source/src/FWlib/src/stm32f10x_tim.c ****   }
 1478              		.loc 1 700 0
 1479 0874 3B68     		ldr	r3, [r7]
 1480 0876 DB88     		ldrh	r3, [r3, #6]
 1481 0878 1946     		mov	r1, r3
 1482 087a 7868     		ldr	r0, [r7, #4]
 1483 087c FFF7FEFF 		bl	TIM_SetIC1Prescaler
 1484              	.L63:
 1485              		.loc 1 702 0
 1486 0880 00BF     		nop
 1487 0882 1037     		adds	r7, r7, #16
 1488              	.LCFI43:
 1489              		.cfi_def_cfa_offset 8
 1490 0884 BD46     		mov	sp, r7
 1491              	.LCFI44:
 1492              		.cfi_def_cfa_register 13
 1493              		@ sp needed
 1494 0886 80BD     		pop	{r7, pc}
 1495              		.cfi_endproc
 1496              	.LFE36:
 1497              		.size	TIM_PWMIConfig, .-TIM_PWMIConfig
 1498              		.align	1
 1499              		.global	TIM_BDTRConfig
 1500              		.syntax unified
 1501              		.thumb
 1502              		.thumb_func
 1503              		.fpu softvfp
 1504              		.type	TIM_BDTRConfig, %function
 1505              	TIM_BDTRConfig:
 1506              	.LFB37:
 703:../../source/src/FWlib/src/stm32f10x_tim.c **** 
 704:../../source/src/FWlib/src/stm32f10x_tim.c **** /**
 705:../../source/src/FWlib/src/stm32f10x_tim.c ****   * @brief  Configures the: Break feature, dead time, Lock level, the OSSI,
 706:../../source/src/FWlib/src/stm32f10x_tim.c ****   *         the OSSR State and the AOE(automatic output enable).
 707:../../source/src/FWlib/src/stm32f10x_tim.c ****   * @param  TIMx: where x can be  1 or 8 to select the TIM 
 708:../../source/src/FWlib/src/stm32f10x_tim.c ****   * @param  TIM_BDTRInitStruct: pointer to a TIM_BDTRInitTypeDef structure that
 709:../../source/src/FWlib/src/stm32f10x_tim.c ****   *         contains the BDTR Register configuration  information for the TIM peripheral.
 710:../../source/src/FWlib/src/stm32f10x_tim.c ****   * @retval None
 711:../../source/src/FWlib/src/stm32f10x_tim.c ****   */
 712:../../source/src/FWlib/src/stm32f10x_tim.c **** void TIM_BDTRConfig(TIM_TypeDef* TIMx, TIM_BDTRInitTypeDef *TIM_BDTRInitStruct)
 713:../../source/src/FWlib/src/stm32f10x_tim.c **** {
 1507              		.loc 1 713 0
ARM GAS  G:\Users\Jaxb\AppData\Local\Temp\ccSQWSCJ.s 			page 41


 1508              		.cfi_startproc
 1509              		@ args = 0, pretend = 0, frame = 8
 1510              		@ frame_needed = 1, uses_anonymous_args = 0
 1511              		@ link register save eliminated.
 1512 0888 80B4     		push	{r7}
 1513              	.LCFI45:
 1514              		.cfi_def_cfa_offset 4
 1515              		.cfi_offset 7, -4
 1516 088a 83B0     		sub	sp, sp, #12
 1517              	.LCFI46:
 1518              		.cfi_def_cfa_offset 16
 1519 088c 00AF     		add	r7, sp, #0
 1520              	.LCFI47:
 1521              		.cfi_def_cfa_register 7
 1522 088e 7860     		str	r0, [r7, #4]
 1523 0890 3960     		str	r1, [r7]
 714:../../source/src/FWlib/src/stm32f10x_tim.c ****   /* Check the parameters */
 715:../../source/src/FWlib/src/stm32f10x_tim.c ****   assert_param(IS_TIM_LIST2_PERIPH(TIMx));
 716:../../source/src/FWlib/src/stm32f10x_tim.c ****   assert_param(IS_TIM_OSSR_STATE(TIM_BDTRInitStruct->TIM_OSSRState));
 717:../../source/src/FWlib/src/stm32f10x_tim.c ****   assert_param(IS_TIM_OSSI_STATE(TIM_BDTRInitStruct->TIM_OSSIState));
 718:../../source/src/FWlib/src/stm32f10x_tim.c ****   assert_param(IS_TIM_LOCK_LEVEL(TIM_BDTRInitStruct->TIM_LOCKLevel));
 719:../../source/src/FWlib/src/stm32f10x_tim.c ****   assert_param(IS_TIM_BREAK_STATE(TIM_BDTRInitStruct->TIM_Break));
 720:../../source/src/FWlib/src/stm32f10x_tim.c ****   assert_param(IS_TIM_BREAK_POLARITY(TIM_BDTRInitStruct->TIM_BreakPolarity));
 721:../../source/src/FWlib/src/stm32f10x_tim.c ****   assert_param(IS_TIM_AUTOMATIC_OUTPUT_STATE(TIM_BDTRInitStruct->TIM_AutomaticOutput));
 722:../../source/src/FWlib/src/stm32f10x_tim.c ****   /* Set the Lock level, the Break enable Bit and the Ploarity, the OSSR State,
 723:../../source/src/FWlib/src/stm32f10x_tim.c ****      the OSSI State, the dead time value and the Automatic Output Enable Bit */
 724:../../source/src/FWlib/src/stm32f10x_tim.c ****   TIMx->BDTR = (uint32_t)TIM_BDTRInitStruct->TIM_OSSRState | TIM_BDTRInitStruct->TIM_OSSIState |
 1524              		.loc 1 724 0
 1525 0892 3B68     		ldr	r3, [r7]
 1526 0894 1A88     		ldrh	r2, [r3]
 1527 0896 3B68     		ldr	r3, [r7]
 1528 0898 5B88     		ldrh	r3, [r3, #2]
 1529 089a 1343     		orrs	r3, r3, r2
 1530 089c 9AB2     		uxth	r2, r3
 725:../../source/src/FWlib/src/stm32f10x_tim.c ****              TIM_BDTRInitStruct->TIM_LOCKLevel | TIM_BDTRInitStruct->TIM_DeadTime |
 1531              		.loc 1 725 0
 1532 089e 3B68     		ldr	r3, [r7]
 1533 08a0 9B88     		ldrh	r3, [r3, #4]
 724:../../source/src/FWlib/src/stm32f10x_tim.c ****              TIM_BDTRInitStruct->TIM_LOCKLevel | TIM_BDTRInitStruct->TIM_DeadTime |
 1534              		.loc 1 724 0
 1535 08a2 1343     		orrs	r3, r3, r2
 1536 08a4 9AB2     		uxth	r2, r3
 1537              		.loc 1 725 0
 1538 08a6 3B68     		ldr	r3, [r7]
 1539 08a8 DB88     		ldrh	r3, [r3, #6]
 724:../../source/src/FWlib/src/stm32f10x_tim.c ****              TIM_BDTRInitStruct->TIM_LOCKLevel | TIM_BDTRInitStruct->TIM_DeadTime |
 1540              		.loc 1 724 0
 1541 08aa 1343     		orrs	r3, r3, r2
 1542 08ac 9AB2     		uxth	r2, r3
 726:../../source/src/FWlib/src/stm32f10x_tim.c ****              TIM_BDTRInitStruct->TIM_Break | TIM_BDTRInitStruct->TIM_BreakPolarity |
 1543              		.loc 1 726 0
 1544 08ae 3B68     		ldr	r3, [r7]
 1545 08b0 1B89     		ldrh	r3, [r3, #8]
 724:../../source/src/FWlib/src/stm32f10x_tim.c ****              TIM_BDTRInitStruct->TIM_LOCKLevel | TIM_BDTRInitStruct->TIM_DeadTime |
 1546              		.loc 1 724 0
 1547 08b2 1343     		orrs	r3, r3, r2
 1548 08b4 9AB2     		uxth	r2, r3
ARM GAS  G:\Users\Jaxb\AppData\Local\Temp\ccSQWSCJ.s 			page 42


 1549              		.loc 1 726 0
 1550 08b6 3B68     		ldr	r3, [r7]
 1551 08b8 5B89     		ldrh	r3, [r3, #10]
 724:../../source/src/FWlib/src/stm32f10x_tim.c ****              TIM_BDTRInitStruct->TIM_LOCKLevel | TIM_BDTRInitStruct->TIM_DeadTime |
 1552              		.loc 1 724 0
 1553 08ba 1343     		orrs	r3, r3, r2
 1554 08bc 9AB2     		uxth	r2, r3
 727:../../source/src/FWlib/src/stm32f10x_tim.c ****              TIM_BDTRInitStruct->TIM_AutomaticOutput;
 1555              		.loc 1 727 0
 1556 08be 3B68     		ldr	r3, [r7]
 1557 08c0 9B89     		ldrh	r3, [r3, #12]
 724:../../source/src/FWlib/src/stm32f10x_tim.c ****              TIM_BDTRInitStruct->TIM_LOCKLevel | TIM_BDTRInitStruct->TIM_DeadTime |
 1558              		.loc 1 724 0
 1559 08c2 1343     		orrs	r3, r3, r2
 1560 08c4 9AB2     		uxth	r2, r3
 1561 08c6 7B68     		ldr	r3, [r7, #4]
 1562 08c8 A3F84420 		strh	r2, [r3, #68]	@ movhi
 728:../../source/src/FWlib/src/stm32f10x_tim.c **** }
 1563              		.loc 1 728 0
 1564 08cc 00BF     		nop
 1565 08ce 0C37     		adds	r7, r7, #12
 1566              	.LCFI48:
 1567              		.cfi_def_cfa_offset 4
 1568 08d0 BD46     		mov	sp, r7
 1569              	.LCFI49:
 1570              		.cfi_def_cfa_register 13
 1571              		@ sp needed
 1572 08d2 80BC     		pop	{r7}
 1573              	.LCFI50:
 1574              		.cfi_restore 7
 1575              		.cfi_def_cfa_offset 0
 1576 08d4 7047     		bx	lr
 1577              		.cfi_endproc
 1578              	.LFE37:
 1579              		.size	TIM_BDTRConfig, .-TIM_BDTRConfig
 1580              		.align	1
 1581              		.global	TIM_TimeBaseStructInit
 1582              		.syntax unified
 1583              		.thumb
 1584              		.thumb_func
 1585              		.fpu softvfp
 1586              		.type	TIM_TimeBaseStructInit, %function
 1587              	TIM_TimeBaseStructInit:
 1588              	.LFB38:
 729:../../source/src/FWlib/src/stm32f10x_tim.c **** 
 730:../../source/src/FWlib/src/stm32f10x_tim.c **** /**
 731:../../source/src/FWlib/src/stm32f10x_tim.c ****   * @brief  Fills each TIM_TimeBaseInitStruct member with its default value.
 732:../../source/src/FWlib/src/stm32f10x_tim.c ****   * @param  TIM_TimeBaseInitStruct : pointer to a TIM_TimeBaseInitTypeDef
 733:../../source/src/FWlib/src/stm32f10x_tim.c ****   *         structure which will be initialized.
 734:../../source/src/FWlib/src/stm32f10x_tim.c ****   * @retval None
 735:../../source/src/FWlib/src/stm32f10x_tim.c ****   */
 736:../../source/src/FWlib/src/stm32f10x_tim.c **** void TIM_TimeBaseStructInit(TIM_TimeBaseInitTypeDef* TIM_TimeBaseInitStruct)
 737:../../source/src/FWlib/src/stm32f10x_tim.c **** {
 1589              		.loc 1 737 0
 1590              		.cfi_startproc
 1591              		@ args = 0, pretend = 0, frame = 8
 1592              		@ frame_needed = 1, uses_anonymous_args = 0
ARM GAS  G:\Users\Jaxb\AppData\Local\Temp\ccSQWSCJ.s 			page 43


 1593              		@ link register save eliminated.
 1594 08d6 80B4     		push	{r7}
 1595              	.LCFI51:
 1596              		.cfi_def_cfa_offset 4
 1597              		.cfi_offset 7, -4
 1598 08d8 83B0     		sub	sp, sp, #12
 1599              	.LCFI52:
 1600              		.cfi_def_cfa_offset 16
 1601 08da 00AF     		add	r7, sp, #0
 1602              	.LCFI53:
 1603              		.cfi_def_cfa_register 7
 1604 08dc 7860     		str	r0, [r7, #4]
 738:../../source/src/FWlib/src/stm32f10x_tim.c ****   /* Set the default configuration */
 739:../../source/src/FWlib/src/stm32f10x_tim.c ****   TIM_TimeBaseInitStruct->TIM_Period = 0xFFFF;
 1605              		.loc 1 739 0
 1606 08de 7B68     		ldr	r3, [r7, #4]
 1607 08e0 4FF6FF72 		movw	r2, #65535
 1608 08e4 9A80     		strh	r2, [r3, #4]	@ movhi
 740:../../source/src/FWlib/src/stm32f10x_tim.c ****   TIM_TimeBaseInitStruct->TIM_Prescaler = 0x0000;
 1609              		.loc 1 740 0
 1610 08e6 7B68     		ldr	r3, [r7, #4]
 1611 08e8 0022     		movs	r2, #0
 1612 08ea 1A80     		strh	r2, [r3]	@ movhi
 741:../../source/src/FWlib/src/stm32f10x_tim.c ****   TIM_TimeBaseInitStruct->TIM_ClockDivision = TIM_CKD_DIV1;
 1613              		.loc 1 741 0
 1614 08ec 7B68     		ldr	r3, [r7, #4]
 1615 08ee 0022     		movs	r2, #0
 1616 08f0 DA80     		strh	r2, [r3, #6]	@ movhi
 742:../../source/src/FWlib/src/stm32f10x_tim.c ****   TIM_TimeBaseInitStruct->TIM_CounterMode = TIM_CounterMode_Up;
 1617              		.loc 1 742 0
 1618 08f2 7B68     		ldr	r3, [r7, #4]
 1619 08f4 0022     		movs	r2, #0
 1620 08f6 5A80     		strh	r2, [r3, #2]	@ movhi
 743:../../source/src/FWlib/src/stm32f10x_tim.c ****   TIM_TimeBaseInitStruct->TIM_RepetitionCounter = 0x0000;
 1621              		.loc 1 743 0
 1622 08f8 7B68     		ldr	r3, [r7, #4]
 1623 08fa 0022     		movs	r2, #0
 1624 08fc 1A72     		strb	r2, [r3, #8]
 744:../../source/src/FWlib/src/stm32f10x_tim.c **** }
 1625              		.loc 1 744 0
 1626 08fe 00BF     		nop
 1627 0900 0C37     		adds	r7, r7, #12
 1628              	.LCFI54:
 1629              		.cfi_def_cfa_offset 4
 1630 0902 BD46     		mov	sp, r7
 1631              	.LCFI55:
 1632              		.cfi_def_cfa_register 13
 1633              		@ sp needed
 1634 0904 80BC     		pop	{r7}
 1635              	.LCFI56:
 1636              		.cfi_restore 7
 1637              		.cfi_def_cfa_offset 0
 1638 0906 7047     		bx	lr
 1639              		.cfi_endproc
 1640              	.LFE38:
 1641              		.size	TIM_TimeBaseStructInit, .-TIM_TimeBaseStructInit
 1642              		.align	1
ARM GAS  G:\Users\Jaxb\AppData\Local\Temp\ccSQWSCJ.s 			page 44


 1643              		.global	TIM_OCStructInit
 1644              		.syntax unified
 1645              		.thumb
 1646              		.thumb_func
 1647              		.fpu softvfp
 1648              		.type	TIM_OCStructInit, %function
 1649              	TIM_OCStructInit:
 1650              	.LFB39:
 745:../../source/src/FWlib/src/stm32f10x_tim.c **** 
 746:../../source/src/FWlib/src/stm32f10x_tim.c **** /**
 747:../../source/src/FWlib/src/stm32f10x_tim.c ****   * @brief  Fills each TIM_OCInitStruct member with its default value.
 748:../../source/src/FWlib/src/stm32f10x_tim.c ****   * @param  TIM_OCInitStruct : pointer to a TIM_OCInitTypeDef structure which will
 749:../../source/src/FWlib/src/stm32f10x_tim.c ****   *         be initialized.
 750:../../source/src/FWlib/src/stm32f10x_tim.c ****   * @retval None
 751:../../source/src/FWlib/src/stm32f10x_tim.c ****   */
 752:../../source/src/FWlib/src/stm32f10x_tim.c **** void TIM_OCStructInit(TIM_OCInitTypeDef* TIM_OCInitStruct)
 753:../../source/src/FWlib/src/stm32f10x_tim.c **** {
 1651              		.loc 1 753 0
 1652              		.cfi_startproc
 1653              		@ args = 0, pretend = 0, frame = 8
 1654              		@ frame_needed = 1, uses_anonymous_args = 0
 1655              		@ link register save eliminated.
 1656 0908 80B4     		push	{r7}
 1657              	.LCFI57:
 1658              		.cfi_def_cfa_offset 4
 1659              		.cfi_offset 7, -4
 1660 090a 83B0     		sub	sp, sp, #12
 1661              	.LCFI58:
 1662              		.cfi_def_cfa_offset 16
 1663 090c 00AF     		add	r7, sp, #0
 1664              	.LCFI59:
 1665              		.cfi_def_cfa_register 7
 1666 090e 7860     		str	r0, [r7, #4]
 754:../../source/src/FWlib/src/stm32f10x_tim.c ****   /* Set the default configuration */
 755:../../source/src/FWlib/src/stm32f10x_tim.c ****   TIM_OCInitStruct->TIM_OCMode = TIM_OCMode_Timing;
 1667              		.loc 1 755 0
 1668 0910 7B68     		ldr	r3, [r7, #4]
 1669 0912 0022     		movs	r2, #0
 1670 0914 1A80     		strh	r2, [r3]	@ movhi
 756:../../source/src/FWlib/src/stm32f10x_tim.c ****   TIM_OCInitStruct->TIM_OutputState = TIM_OutputState_Disable;
 1671              		.loc 1 756 0
 1672 0916 7B68     		ldr	r3, [r7, #4]
 1673 0918 0022     		movs	r2, #0
 1674 091a 5A80     		strh	r2, [r3, #2]	@ movhi
 757:../../source/src/FWlib/src/stm32f10x_tim.c ****   TIM_OCInitStruct->TIM_OutputNState = TIM_OutputNState_Disable;
 1675              		.loc 1 757 0
 1676 091c 7B68     		ldr	r3, [r7, #4]
 1677 091e 0022     		movs	r2, #0
 1678 0920 9A80     		strh	r2, [r3, #4]	@ movhi
 758:../../source/src/FWlib/src/stm32f10x_tim.c ****   TIM_OCInitStruct->TIM_Pulse = 0x0000;
 1679              		.loc 1 758 0
 1680 0922 7B68     		ldr	r3, [r7, #4]
 1681 0924 0022     		movs	r2, #0
 1682 0926 DA80     		strh	r2, [r3, #6]	@ movhi
 759:../../source/src/FWlib/src/stm32f10x_tim.c ****   TIM_OCInitStruct->TIM_OCPolarity = TIM_OCPolarity_High;
 1683              		.loc 1 759 0
 1684 0928 7B68     		ldr	r3, [r7, #4]
ARM GAS  G:\Users\Jaxb\AppData\Local\Temp\ccSQWSCJ.s 			page 45


 1685 092a 0022     		movs	r2, #0
 1686 092c 1A81     		strh	r2, [r3, #8]	@ movhi
 760:../../source/src/FWlib/src/stm32f10x_tim.c ****   TIM_OCInitStruct->TIM_OCNPolarity = TIM_OCPolarity_High;
 1687              		.loc 1 760 0
 1688 092e 7B68     		ldr	r3, [r7, #4]
 1689 0930 0022     		movs	r2, #0
 1690 0932 5A81     		strh	r2, [r3, #10]	@ movhi
 761:../../source/src/FWlib/src/stm32f10x_tim.c ****   TIM_OCInitStruct->TIM_OCIdleState = TIM_OCIdleState_Reset;
 1691              		.loc 1 761 0
 1692 0934 7B68     		ldr	r3, [r7, #4]
 1693 0936 0022     		movs	r2, #0
 1694 0938 9A81     		strh	r2, [r3, #12]	@ movhi
 762:../../source/src/FWlib/src/stm32f10x_tim.c ****   TIM_OCInitStruct->TIM_OCNIdleState = TIM_OCNIdleState_Reset;
 1695              		.loc 1 762 0
 1696 093a 7B68     		ldr	r3, [r7, #4]
 1697 093c 0022     		movs	r2, #0
 1698 093e DA81     		strh	r2, [r3, #14]	@ movhi
 763:../../source/src/FWlib/src/stm32f10x_tim.c **** }
 1699              		.loc 1 763 0
 1700 0940 00BF     		nop
 1701 0942 0C37     		adds	r7, r7, #12
 1702              	.LCFI60:
 1703              		.cfi_def_cfa_offset 4
 1704 0944 BD46     		mov	sp, r7
 1705              	.LCFI61:
 1706              		.cfi_def_cfa_register 13
 1707              		@ sp needed
 1708 0946 80BC     		pop	{r7}
 1709              	.LCFI62:
 1710              		.cfi_restore 7
 1711              		.cfi_def_cfa_offset 0
 1712 0948 7047     		bx	lr
 1713              		.cfi_endproc
 1714              	.LFE39:
 1715              		.size	TIM_OCStructInit, .-TIM_OCStructInit
 1716              		.align	1
 1717              		.global	TIM_ICStructInit
 1718              		.syntax unified
 1719              		.thumb
 1720              		.thumb_func
 1721              		.fpu softvfp
 1722              		.type	TIM_ICStructInit, %function
 1723              	TIM_ICStructInit:
 1724              	.LFB40:
 764:../../source/src/FWlib/src/stm32f10x_tim.c **** 
 765:../../source/src/FWlib/src/stm32f10x_tim.c **** /**
 766:../../source/src/FWlib/src/stm32f10x_tim.c ****   * @brief  Fills each TIM_ICInitStruct member with its default value.
 767:../../source/src/FWlib/src/stm32f10x_tim.c ****   * @param  TIM_ICInitStruct: pointer to a TIM_ICInitTypeDef structure which will
 768:../../source/src/FWlib/src/stm32f10x_tim.c ****   *         be initialized.
 769:../../source/src/FWlib/src/stm32f10x_tim.c ****   * @retval None
 770:../../source/src/FWlib/src/stm32f10x_tim.c ****   */
 771:../../source/src/FWlib/src/stm32f10x_tim.c **** void TIM_ICStructInit(TIM_ICInitTypeDef* TIM_ICInitStruct)
 772:../../source/src/FWlib/src/stm32f10x_tim.c **** {
 1725              		.loc 1 772 0
 1726              		.cfi_startproc
 1727              		@ args = 0, pretend = 0, frame = 8
 1728              		@ frame_needed = 1, uses_anonymous_args = 0
ARM GAS  G:\Users\Jaxb\AppData\Local\Temp\ccSQWSCJ.s 			page 46


 1729              		@ link register save eliminated.
 1730 094a 80B4     		push	{r7}
 1731              	.LCFI63:
 1732              		.cfi_def_cfa_offset 4
 1733              		.cfi_offset 7, -4
 1734 094c 83B0     		sub	sp, sp, #12
 1735              	.LCFI64:
 1736              		.cfi_def_cfa_offset 16
 1737 094e 00AF     		add	r7, sp, #0
 1738              	.LCFI65:
 1739              		.cfi_def_cfa_register 7
 1740 0950 7860     		str	r0, [r7, #4]
 773:../../source/src/FWlib/src/stm32f10x_tim.c ****   /* Set the default configuration */
 774:../../source/src/FWlib/src/stm32f10x_tim.c ****   TIM_ICInitStruct->TIM_Channel = TIM_Channel_1;
 1741              		.loc 1 774 0
 1742 0952 7B68     		ldr	r3, [r7, #4]
 1743 0954 0022     		movs	r2, #0
 1744 0956 1A80     		strh	r2, [r3]	@ movhi
 775:../../source/src/FWlib/src/stm32f10x_tim.c ****   TIM_ICInitStruct->TIM_ICPolarity = TIM_ICPolarity_Rising;
 1745              		.loc 1 775 0
 1746 0958 7B68     		ldr	r3, [r7, #4]
 1747 095a 0022     		movs	r2, #0
 1748 095c 5A80     		strh	r2, [r3, #2]	@ movhi
 776:../../source/src/FWlib/src/stm32f10x_tim.c ****   TIM_ICInitStruct->TIM_ICSelection = TIM_ICSelection_DirectTI;
 1749              		.loc 1 776 0
 1750 095e 7B68     		ldr	r3, [r7, #4]
 1751 0960 0122     		movs	r2, #1
 1752 0962 9A80     		strh	r2, [r3, #4]	@ movhi
 777:../../source/src/FWlib/src/stm32f10x_tim.c ****   TIM_ICInitStruct->TIM_ICPrescaler = TIM_ICPSC_DIV1;
 1753              		.loc 1 777 0
 1754 0964 7B68     		ldr	r3, [r7, #4]
 1755 0966 0022     		movs	r2, #0
 1756 0968 DA80     		strh	r2, [r3, #6]	@ movhi
 778:../../source/src/FWlib/src/stm32f10x_tim.c ****   TIM_ICInitStruct->TIM_ICFilter = 0x00;
 1757              		.loc 1 778 0
 1758 096a 7B68     		ldr	r3, [r7, #4]
 1759 096c 0022     		movs	r2, #0
 1760 096e 1A81     		strh	r2, [r3, #8]	@ movhi
 779:../../source/src/FWlib/src/stm32f10x_tim.c **** }
 1761              		.loc 1 779 0
 1762 0970 00BF     		nop
 1763 0972 0C37     		adds	r7, r7, #12
 1764              	.LCFI66:
 1765              		.cfi_def_cfa_offset 4
 1766 0974 BD46     		mov	sp, r7
 1767              	.LCFI67:
 1768              		.cfi_def_cfa_register 13
 1769              		@ sp needed
 1770 0976 80BC     		pop	{r7}
 1771              	.LCFI68:
 1772              		.cfi_restore 7
 1773              		.cfi_def_cfa_offset 0
 1774 0978 7047     		bx	lr
 1775              		.cfi_endproc
 1776              	.LFE40:
 1777              		.size	TIM_ICStructInit, .-TIM_ICStructInit
 1778              		.align	1
ARM GAS  G:\Users\Jaxb\AppData\Local\Temp\ccSQWSCJ.s 			page 47


 1779              		.global	TIM_BDTRStructInit
 1780              		.syntax unified
 1781              		.thumb
 1782              		.thumb_func
 1783              		.fpu softvfp
 1784              		.type	TIM_BDTRStructInit, %function
 1785              	TIM_BDTRStructInit:
 1786              	.LFB41:
 780:../../source/src/FWlib/src/stm32f10x_tim.c **** 
 781:../../source/src/FWlib/src/stm32f10x_tim.c **** /**
 782:../../source/src/FWlib/src/stm32f10x_tim.c ****   * @brief  Fills each TIM_BDTRInitStruct member with its default value.
 783:../../source/src/FWlib/src/stm32f10x_tim.c ****   * @param  TIM_BDTRInitStruct: pointer to a TIM_BDTRInitTypeDef structure which
 784:../../source/src/FWlib/src/stm32f10x_tim.c ****   *         will be initialized.
 785:../../source/src/FWlib/src/stm32f10x_tim.c ****   * @retval None
 786:../../source/src/FWlib/src/stm32f10x_tim.c ****   */
 787:../../source/src/FWlib/src/stm32f10x_tim.c **** void TIM_BDTRStructInit(TIM_BDTRInitTypeDef* TIM_BDTRInitStruct)
 788:../../source/src/FWlib/src/stm32f10x_tim.c **** {
 1787              		.loc 1 788 0
 1788              		.cfi_startproc
 1789              		@ args = 0, pretend = 0, frame = 8
 1790              		@ frame_needed = 1, uses_anonymous_args = 0
 1791              		@ link register save eliminated.
 1792 097a 80B4     		push	{r7}
 1793              	.LCFI69:
 1794              		.cfi_def_cfa_offset 4
 1795              		.cfi_offset 7, -4
 1796 097c 83B0     		sub	sp, sp, #12
 1797              	.LCFI70:
 1798              		.cfi_def_cfa_offset 16
 1799 097e 00AF     		add	r7, sp, #0
 1800              	.LCFI71:
 1801              		.cfi_def_cfa_register 7
 1802 0980 7860     		str	r0, [r7, #4]
 789:../../source/src/FWlib/src/stm32f10x_tim.c ****   /* Set the default configuration */
 790:../../source/src/FWlib/src/stm32f10x_tim.c ****   TIM_BDTRInitStruct->TIM_OSSRState = TIM_OSSRState_Disable;
 1803              		.loc 1 790 0
 1804 0982 7B68     		ldr	r3, [r7, #4]
 1805 0984 0022     		movs	r2, #0
 1806 0986 1A80     		strh	r2, [r3]	@ movhi
 791:../../source/src/FWlib/src/stm32f10x_tim.c ****   TIM_BDTRInitStruct->TIM_OSSIState = TIM_OSSIState_Disable;
 1807              		.loc 1 791 0
 1808 0988 7B68     		ldr	r3, [r7, #4]
 1809 098a 0022     		movs	r2, #0
 1810 098c 5A80     		strh	r2, [r3, #2]	@ movhi
 792:../../source/src/FWlib/src/stm32f10x_tim.c ****   TIM_BDTRInitStruct->TIM_LOCKLevel = TIM_LOCKLevel_OFF;
 1811              		.loc 1 792 0
 1812 098e 7B68     		ldr	r3, [r7, #4]
 1813 0990 0022     		movs	r2, #0
 1814 0992 9A80     		strh	r2, [r3, #4]	@ movhi
 793:../../source/src/FWlib/src/stm32f10x_tim.c ****   TIM_BDTRInitStruct->TIM_DeadTime = 0x00;
 1815              		.loc 1 793 0
 1816 0994 7B68     		ldr	r3, [r7, #4]
 1817 0996 0022     		movs	r2, #0
 1818 0998 DA80     		strh	r2, [r3, #6]	@ movhi
 794:../../source/src/FWlib/src/stm32f10x_tim.c ****   TIM_BDTRInitStruct->TIM_Break = TIM_Break_Disable;
 1819              		.loc 1 794 0
 1820 099a 7B68     		ldr	r3, [r7, #4]
ARM GAS  G:\Users\Jaxb\AppData\Local\Temp\ccSQWSCJ.s 			page 48


 1821 099c 0022     		movs	r2, #0
 1822 099e 1A81     		strh	r2, [r3, #8]	@ movhi
 795:../../source/src/FWlib/src/stm32f10x_tim.c ****   TIM_BDTRInitStruct->TIM_BreakPolarity = TIM_BreakPolarity_Low;
 1823              		.loc 1 795 0
 1824 09a0 7B68     		ldr	r3, [r7, #4]
 1825 09a2 0022     		movs	r2, #0
 1826 09a4 5A81     		strh	r2, [r3, #10]	@ movhi
 796:../../source/src/FWlib/src/stm32f10x_tim.c ****   TIM_BDTRInitStruct->TIM_AutomaticOutput = TIM_AutomaticOutput_Disable;
 1827              		.loc 1 796 0
 1828 09a6 7B68     		ldr	r3, [r7, #4]
 1829 09a8 0022     		movs	r2, #0
 1830 09aa 9A81     		strh	r2, [r3, #12]	@ movhi
 797:../../source/src/FWlib/src/stm32f10x_tim.c **** }
 1831              		.loc 1 797 0
 1832 09ac 00BF     		nop
 1833 09ae 0C37     		adds	r7, r7, #12
 1834              	.LCFI72:
 1835              		.cfi_def_cfa_offset 4
 1836 09b0 BD46     		mov	sp, r7
 1837              	.LCFI73:
 1838              		.cfi_def_cfa_register 13
 1839              		@ sp needed
 1840 09b2 80BC     		pop	{r7}
 1841              	.LCFI74:
 1842              		.cfi_restore 7
 1843              		.cfi_def_cfa_offset 0
 1844 09b4 7047     		bx	lr
 1845              		.cfi_endproc
 1846              	.LFE41:
 1847              		.size	TIM_BDTRStructInit, .-TIM_BDTRStructInit
 1848              		.align	1
 1849              		.global	TIM_Cmd
 1850              		.syntax unified
 1851              		.thumb
 1852              		.thumb_func
 1853              		.fpu softvfp
 1854              		.type	TIM_Cmd, %function
 1855              	TIM_Cmd:
 1856              	.LFB42:
 798:../../source/src/FWlib/src/stm32f10x_tim.c **** 
 799:../../source/src/FWlib/src/stm32f10x_tim.c **** /**
 800:../../source/src/FWlib/src/stm32f10x_tim.c ****   * @brief  Enables or disables the specified TIM peripheral.
 801:../../source/src/FWlib/src/stm32f10x_tim.c ****   * @param  TIMx: where x can be 1 to 17 to select the TIMx peripheral.
 802:../../source/src/FWlib/src/stm32f10x_tim.c ****   * @param  NewState: new state of the TIMx peripheral.
 803:../../source/src/FWlib/src/stm32f10x_tim.c ****   *   This parameter can be: ENABLE or DISABLE.
 804:../../source/src/FWlib/src/stm32f10x_tim.c ****   * @retval None
 805:../../source/src/FWlib/src/stm32f10x_tim.c ****   */
 806:../../source/src/FWlib/src/stm32f10x_tim.c **** void TIM_Cmd(TIM_TypeDef* TIMx, FunctionalState NewState)
 807:../../source/src/FWlib/src/stm32f10x_tim.c **** {
 1857              		.loc 1 807 0
 1858              		.cfi_startproc
 1859              		@ args = 0, pretend = 0, frame = 8
 1860              		@ frame_needed = 1, uses_anonymous_args = 0
 1861              		@ link register save eliminated.
 1862 09b6 80B4     		push	{r7}
 1863              	.LCFI75:
 1864              		.cfi_def_cfa_offset 4
ARM GAS  G:\Users\Jaxb\AppData\Local\Temp\ccSQWSCJ.s 			page 49


 1865              		.cfi_offset 7, -4
 1866 09b8 83B0     		sub	sp, sp, #12
 1867              	.LCFI76:
 1868              		.cfi_def_cfa_offset 16
 1869 09ba 00AF     		add	r7, sp, #0
 1870              	.LCFI77:
 1871              		.cfi_def_cfa_register 7
 1872 09bc 7860     		str	r0, [r7, #4]
 1873 09be 0B46     		mov	r3, r1
 1874 09c0 FB70     		strb	r3, [r7, #3]
 808:../../source/src/FWlib/src/stm32f10x_tim.c ****   /* Check the parameters */
 809:../../source/src/FWlib/src/stm32f10x_tim.c ****   assert_param(IS_TIM_ALL_PERIPH(TIMx));
 810:../../source/src/FWlib/src/stm32f10x_tim.c ****   assert_param(IS_FUNCTIONAL_STATE(NewState));
 811:../../source/src/FWlib/src/stm32f10x_tim.c ****   
 812:../../source/src/FWlib/src/stm32f10x_tim.c ****   if (NewState != DISABLE)
 1875              		.loc 1 812 0
 1876 09c2 FB78     		ldrb	r3, [r7, #3]	@ zero_extendqisi2
 1877 09c4 002B     		cmp	r3, #0
 1878 09c6 08D0     		beq	.L70
 813:../../source/src/FWlib/src/stm32f10x_tim.c ****   {
 814:../../source/src/FWlib/src/stm32f10x_tim.c ****     /* Enable the TIM Counter */
 815:../../source/src/FWlib/src/stm32f10x_tim.c ****     TIMx->CR1 |= TIM_CR1_CEN;
 1879              		.loc 1 815 0
 1880 09c8 7B68     		ldr	r3, [r7, #4]
 1881 09ca 1B88     		ldrh	r3, [r3]	@ movhi
 1882 09cc 9BB2     		uxth	r3, r3
 1883 09ce 43F00103 		orr	r3, r3, #1
 1884 09d2 9AB2     		uxth	r2, r3
 1885 09d4 7B68     		ldr	r3, [r7, #4]
 1886 09d6 1A80     		strh	r2, [r3]	@ movhi
 816:../../source/src/FWlib/src/stm32f10x_tim.c ****   }
 817:../../source/src/FWlib/src/stm32f10x_tim.c ****   else
 818:../../source/src/FWlib/src/stm32f10x_tim.c ****   {
 819:../../source/src/FWlib/src/stm32f10x_tim.c ****     /* Disable the TIM Counter */
 820:../../source/src/FWlib/src/stm32f10x_tim.c ****     TIMx->CR1 &= (uint16_t)(~((uint16_t)TIM_CR1_CEN));
 821:../../source/src/FWlib/src/stm32f10x_tim.c ****   }
 822:../../source/src/FWlib/src/stm32f10x_tim.c **** }
 1887              		.loc 1 822 0
 1888 09d8 07E0     		b	.L72
 1889              	.L70:
 820:../../source/src/FWlib/src/stm32f10x_tim.c ****   }
 1890              		.loc 1 820 0
 1891 09da 7B68     		ldr	r3, [r7, #4]
 1892 09dc 1B88     		ldrh	r3, [r3]	@ movhi
 1893 09de 9BB2     		uxth	r3, r3
 1894 09e0 23F00103 		bic	r3, r3, #1
 1895 09e4 9AB2     		uxth	r2, r3
 1896 09e6 7B68     		ldr	r3, [r7, #4]
 1897 09e8 1A80     		strh	r2, [r3]	@ movhi
 1898              	.L72:
 1899              		.loc 1 822 0
 1900 09ea 00BF     		nop
 1901 09ec 0C37     		adds	r7, r7, #12
 1902              	.LCFI78:
 1903              		.cfi_def_cfa_offset 4
 1904 09ee BD46     		mov	sp, r7
 1905              	.LCFI79:
ARM GAS  G:\Users\Jaxb\AppData\Local\Temp\ccSQWSCJ.s 			page 50


 1906              		.cfi_def_cfa_register 13
 1907              		@ sp needed
 1908 09f0 80BC     		pop	{r7}
 1909              	.LCFI80:
 1910              		.cfi_restore 7
 1911              		.cfi_def_cfa_offset 0
 1912 09f2 7047     		bx	lr
 1913              		.cfi_endproc
 1914              	.LFE42:
 1915              		.size	TIM_Cmd, .-TIM_Cmd
 1916              		.align	1
 1917              		.global	TIM_CtrlPWMOutputs
 1918              		.syntax unified
 1919              		.thumb
 1920              		.thumb_func
 1921              		.fpu softvfp
 1922              		.type	TIM_CtrlPWMOutputs, %function
 1923              	TIM_CtrlPWMOutputs:
 1924              	.LFB43:
 823:../../source/src/FWlib/src/stm32f10x_tim.c **** 
 824:../../source/src/FWlib/src/stm32f10x_tim.c **** /**
 825:../../source/src/FWlib/src/stm32f10x_tim.c ****   * @brief  Enables or disables the TIM peripheral Main Outputs.
 826:../../source/src/FWlib/src/stm32f10x_tim.c ****   * @param  TIMx: where x can be 1, 8, 15, 16 or 17 to select the TIMx peripheral.
 827:../../source/src/FWlib/src/stm32f10x_tim.c ****   * @param  NewState: new state of the TIM peripheral Main Outputs.
 828:../../source/src/FWlib/src/stm32f10x_tim.c ****   *   This parameter can be: ENABLE or DISABLE.
 829:../../source/src/FWlib/src/stm32f10x_tim.c ****   * @retval None
 830:../../source/src/FWlib/src/stm32f10x_tim.c ****   */
 831:../../source/src/FWlib/src/stm32f10x_tim.c **** void TIM_CtrlPWMOutputs(TIM_TypeDef* TIMx, FunctionalState NewState)
 832:../../source/src/FWlib/src/stm32f10x_tim.c **** {
 1925              		.loc 1 832 0
 1926              		.cfi_startproc
 1927              		@ args = 0, pretend = 0, frame = 8
 1928              		@ frame_needed = 1, uses_anonymous_args = 0
 1929              		@ link register save eliminated.
 1930 09f4 80B4     		push	{r7}
 1931              	.LCFI81:
 1932              		.cfi_def_cfa_offset 4
 1933              		.cfi_offset 7, -4
 1934 09f6 83B0     		sub	sp, sp, #12
 1935              	.LCFI82:
 1936              		.cfi_def_cfa_offset 16
 1937 09f8 00AF     		add	r7, sp, #0
 1938              	.LCFI83:
 1939              		.cfi_def_cfa_register 7
 1940 09fa 7860     		str	r0, [r7, #4]
 1941 09fc 0B46     		mov	r3, r1
 1942 09fe FB70     		strb	r3, [r7, #3]
 833:../../source/src/FWlib/src/stm32f10x_tim.c ****   /* Check the parameters */
 834:../../source/src/FWlib/src/stm32f10x_tim.c ****   assert_param(IS_TIM_LIST2_PERIPH(TIMx));
 835:../../source/src/FWlib/src/stm32f10x_tim.c ****   assert_param(IS_FUNCTIONAL_STATE(NewState));
 836:../../source/src/FWlib/src/stm32f10x_tim.c ****   if (NewState != DISABLE)
 1943              		.loc 1 836 0
 1944 0a00 FB78     		ldrb	r3, [r7, #3]	@ zero_extendqisi2
 1945 0a02 002B     		cmp	r3, #0
 1946 0a04 0CD0     		beq	.L74
 837:../../source/src/FWlib/src/stm32f10x_tim.c ****   {
 838:../../source/src/FWlib/src/stm32f10x_tim.c ****     /* Enable the TIM Main Output */
ARM GAS  G:\Users\Jaxb\AppData\Local\Temp\ccSQWSCJ.s 			page 51


 839:../../source/src/FWlib/src/stm32f10x_tim.c ****     TIMx->BDTR |= TIM_BDTR_MOE;
 1947              		.loc 1 839 0
 1948 0a06 7B68     		ldr	r3, [r7, #4]
 1949 0a08 B3F84430 		ldrh	r3, [r3, #68]	@ movhi
 1950 0a0c 9BB2     		uxth	r3, r3
 1951 0a0e 6FEA4343 		mvn	r3, r3, lsl #17
 1952 0a12 6FEA5343 		mvn	r3, r3, lsr #17
 1953 0a16 9AB2     		uxth	r2, r3
 1954 0a18 7B68     		ldr	r3, [r7, #4]
 1955 0a1a A3F84420 		strh	r2, [r3, #68]	@ movhi
 840:../../source/src/FWlib/src/stm32f10x_tim.c ****   }
 841:../../source/src/FWlib/src/stm32f10x_tim.c ****   else
 842:../../source/src/FWlib/src/stm32f10x_tim.c ****   {
 843:../../source/src/FWlib/src/stm32f10x_tim.c ****     /* Disable the TIM Main Output */
 844:../../source/src/FWlib/src/stm32f10x_tim.c ****     TIMx->BDTR &= (uint16_t)(~((uint16_t)TIM_BDTR_MOE));
 845:../../source/src/FWlib/src/stm32f10x_tim.c ****   }  
 846:../../source/src/FWlib/src/stm32f10x_tim.c **** }
 1956              		.loc 1 846 0
 1957 0a1e 09E0     		b	.L76
 1958              	.L74:
 844:../../source/src/FWlib/src/stm32f10x_tim.c ****   }  
 1959              		.loc 1 844 0
 1960 0a20 7B68     		ldr	r3, [r7, #4]
 1961 0a22 B3F84430 		ldrh	r3, [r3, #68]	@ movhi
 1962 0a26 9BB2     		uxth	r3, r3
 1963 0a28 C3F30E03 		ubfx	r3, r3, #0, #15
 1964 0a2c 9AB2     		uxth	r2, r3
 1965 0a2e 7B68     		ldr	r3, [r7, #4]
 1966 0a30 A3F84420 		strh	r2, [r3, #68]	@ movhi
 1967              	.L76:
 1968              		.loc 1 846 0
 1969 0a34 00BF     		nop
 1970 0a36 0C37     		adds	r7, r7, #12
 1971              	.LCFI84:
 1972              		.cfi_def_cfa_offset 4
 1973 0a38 BD46     		mov	sp, r7
 1974              	.LCFI85:
 1975              		.cfi_def_cfa_register 13
 1976              		@ sp needed
 1977 0a3a 80BC     		pop	{r7}
 1978              	.LCFI86:
 1979              		.cfi_restore 7
 1980              		.cfi_def_cfa_offset 0
 1981 0a3c 7047     		bx	lr
 1982              		.cfi_endproc
 1983              	.LFE43:
 1984              		.size	TIM_CtrlPWMOutputs, .-TIM_CtrlPWMOutputs
 1985              		.align	1
 1986              		.global	TIM_ITConfig
 1987              		.syntax unified
 1988              		.thumb
 1989              		.thumb_func
 1990              		.fpu softvfp
 1991              		.type	TIM_ITConfig, %function
 1992              	TIM_ITConfig:
 1993              	.LFB44:
 847:../../source/src/FWlib/src/stm32f10x_tim.c **** 
ARM GAS  G:\Users\Jaxb\AppData\Local\Temp\ccSQWSCJ.s 			page 52


 848:../../source/src/FWlib/src/stm32f10x_tim.c **** /**
 849:../../source/src/FWlib/src/stm32f10x_tim.c ****   * @brief  Enables or disables the specified TIM interrupts.
 850:../../source/src/FWlib/src/stm32f10x_tim.c ****   * @param  TIMx: where x can be 1 to 17 to select the TIMx peripheral.
 851:../../source/src/FWlib/src/stm32f10x_tim.c ****   * @param  TIM_IT: specifies the TIM interrupts sources to be enabled or disabled.
 852:../../source/src/FWlib/src/stm32f10x_tim.c ****   *   This parameter can be any combination of the following values:
 853:../../source/src/FWlib/src/stm32f10x_tim.c ****   *     @arg TIM_IT_Update: TIM update Interrupt source
 854:../../source/src/FWlib/src/stm32f10x_tim.c ****   *     @arg TIM_IT_CC1: TIM Capture Compare 1 Interrupt source
 855:../../source/src/FWlib/src/stm32f10x_tim.c ****   *     @arg TIM_IT_CC2: TIM Capture Compare 2 Interrupt source
 856:../../source/src/FWlib/src/stm32f10x_tim.c ****   *     @arg TIM_IT_CC3: TIM Capture Compare 3 Interrupt source
 857:../../source/src/FWlib/src/stm32f10x_tim.c ****   *     @arg TIM_IT_CC4: TIM Capture Compare 4 Interrupt source
 858:../../source/src/FWlib/src/stm32f10x_tim.c ****   *     @arg TIM_IT_COM: TIM Commutation Interrupt source
 859:../../source/src/FWlib/src/stm32f10x_tim.c ****   *     @arg TIM_IT_Trigger: TIM Trigger Interrupt source
 860:../../source/src/FWlib/src/stm32f10x_tim.c ****   *     @arg TIM_IT_Break: TIM Break Interrupt source
 861:../../source/src/FWlib/src/stm32f10x_tim.c ****   * @note 
 862:../../source/src/FWlib/src/stm32f10x_tim.c ****   *   - TIM6 and TIM7 can only generate an update interrupt.
 863:../../source/src/FWlib/src/stm32f10x_tim.c ****   *   - TIM9, TIM12 and TIM15 can have only TIM_IT_Update, TIM_IT_CC1,
 864:../../source/src/FWlib/src/stm32f10x_tim.c ****   *      TIM_IT_CC2 or TIM_IT_Trigger. 
 865:../../source/src/FWlib/src/stm32f10x_tim.c ****   *   - TIM10, TIM11, TIM13, TIM14, TIM16 and TIM17 can have TIM_IT_Update or TIM_IT_CC1.   
 866:../../source/src/FWlib/src/stm32f10x_tim.c ****   *   - TIM_IT_Break is used only with TIM1, TIM8 and TIM15. 
 867:../../source/src/FWlib/src/stm32f10x_tim.c ****   *   - TIM_IT_COM is used only with TIM1, TIM8, TIM15, TIM16 and TIM17.    
 868:../../source/src/FWlib/src/stm32f10x_tim.c ****   * @param  NewState: new state of the TIM interrupts.
 869:../../source/src/FWlib/src/stm32f10x_tim.c ****   *   This parameter can be: ENABLE or DISABLE.
 870:../../source/src/FWlib/src/stm32f10x_tim.c ****   * @retval None
 871:../../source/src/FWlib/src/stm32f10x_tim.c ****   */
 872:../../source/src/FWlib/src/stm32f10x_tim.c **** void TIM_ITConfig(TIM_TypeDef* TIMx, uint16_t TIM_IT, FunctionalState NewState)
 873:../../source/src/FWlib/src/stm32f10x_tim.c **** {  
 1994              		.loc 1 873 0
 1995              		.cfi_startproc
 1996              		@ args = 0, pretend = 0, frame = 8
 1997              		@ frame_needed = 1, uses_anonymous_args = 0
 1998              		@ link register save eliminated.
 1999 0a3e 80B4     		push	{r7}
 2000              	.LCFI87:
 2001              		.cfi_def_cfa_offset 4
 2002              		.cfi_offset 7, -4
 2003 0a40 83B0     		sub	sp, sp, #12
 2004              	.LCFI88:
 2005              		.cfi_def_cfa_offset 16
 2006 0a42 00AF     		add	r7, sp, #0
 2007              	.LCFI89:
 2008              		.cfi_def_cfa_register 7
 2009 0a44 7860     		str	r0, [r7, #4]
 2010 0a46 0B46     		mov	r3, r1
 2011 0a48 7B80     		strh	r3, [r7, #2]	@ movhi
 2012 0a4a 1346     		mov	r3, r2
 2013 0a4c 7B70     		strb	r3, [r7, #1]
 874:../../source/src/FWlib/src/stm32f10x_tim.c ****   /* Check the parameters */
 875:../../source/src/FWlib/src/stm32f10x_tim.c ****   assert_param(IS_TIM_ALL_PERIPH(TIMx));
 876:../../source/src/FWlib/src/stm32f10x_tim.c ****   assert_param(IS_TIM_IT(TIM_IT));
 877:../../source/src/FWlib/src/stm32f10x_tim.c ****   assert_param(IS_FUNCTIONAL_STATE(NewState));
 878:../../source/src/FWlib/src/stm32f10x_tim.c ****   
 879:../../source/src/FWlib/src/stm32f10x_tim.c ****   if (NewState != DISABLE)
 2014              		.loc 1 879 0
 2015 0a4e 7B78     		ldrb	r3, [r7, #1]	@ zero_extendqisi2
 2016 0a50 002B     		cmp	r3, #0
 2017 0a52 08D0     		beq	.L78
 880:../../source/src/FWlib/src/stm32f10x_tim.c ****   {
ARM GAS  G:\Users\Jaxb\AppData\Local\Temp\ccSQWSCJ.s 			page 53


 881:../../source/src/FWlib/src/stm32f10x_tim.c ****     /* Enable the Interrupt sources */
 882:../../source/src/FWlib/src/stm32f10x_tim.c ****     TIMx->DIER |= TIM_IT;
 2018              		.loc 1 882 0
 2019 0a54 7B68     		ldr	r3, [r7, #4]
 2020 0a56 9B89     		ldrh	r3, [r3, #12]	@ movhi
 2021 0a58 9AB2     		uxth	r2, r3
 2022 0a5a 7B88     		ldrh	r3, [r7, #2]	@ movhi
 2023 0a5c 1343     		orrs	r3, r3, r2
 2024 0a5e 9AB2     		uxth	r2, r3
 2025 0a60 7B68     		ldr	r3, [r7, #4]
 2026 0a62 9A81     		strh	r2, [r3, #12]	@ movhi
 883:../../source/src/FWlib/src/stm32f10x_tim.c ****   }
 884:../../source/src/FWlib/src/stm32f10x_tim.c ****   else
 885:../../source/src/FWlib/src/stm32f10x_tim.c ****   {
 886:../../source/src/FWlib/src/stm32f10x_tim.c ****     /* Disable the Interrupt sources */
 887:../../source/src/FWlib/src/stm32f10x_tim.c ****     TIMx->DIER &= (uint16_t)~TIM_IT;
 888:../../source/src/FWlib/src/stm32f10x_tim.c ****   }
 889:../../source/src/FWlib/src/stm32f10x_tim.c **** }
 2027              		.loc 1 889 0
 2028 0a64 09E0     		b	.L80
 2029              	.L78:
 887:../../source/src/FWlib/src/stm32f10x_tim.c ****   }
 2030              		.loc 1 887 0
 2031 0a66 7B68     		ldr	r3, [r7, #4]
 2032 0a68 9B89     		ldrh	r3, [r3, #12]	@ movhi
 2033 0a6a 9AB2     		uxth	r2, r3
 2034 0a6c 7B88     		ldrh	r3, [r7, #2]	@ movhi
 2035 0a6e DB43     		mvns	r3, r3
 2036 0a70 9BB2     		uxth	r3, r3
 2037 0a72 1340     		ands	r3, r3, r2
 2038 0a74 9AB2     		uxth	r2, r3
 2039 0a76 7B68     		ldr	r3, [r7, #4]
 2040 0a78 9A81     		strh	r2, [r3, #12]	@ movhi
 2041              	.L80:
 2042              		.loc 1 889 0
 2043 0a7a 00BF     		nop
 2044 0a7c 0C37     		adds	r7, r7, #12
 2045              	.LCFI90:
 2046              		.cfi_def_cfa_offset 4
 2047 0a7e BD46     		mov	sp, r7
 2048              	.LCFI91:
 2049              		.cfi_def_cfa_register 13
 2050              		@ sp needed
 2051 0a80 80BC     		pop	{r7}
 2052              	.LCFI92:
 2053              		.cfi_restore 7
 2054              		.cfi_def_cfa_offset 0
 2055 0a82 7047     		bx	lr
 2056              		.cfi_endproc
 2057              	.LFE44:
 2058              		.size	TIM_ITConfig, .-TIM_ITConfig
 2059              		.align	1
 2060              		.global	TIM_GenerateEvent
 2061              		.syntax unified
 2062              		.thumb
 2063              		.thumb_func
 2064              		.fpu softvfp
ARM GAS  G:\Users\Jaxb\AppData\Local\Temp\ccSQWSCJ.s 			page 54


 2065              		.type	TIM_GenerateEvent, %function
 2066              	TIM_GenerateEvent:
 2067              	.LFB45:
 890:../../source/src/FWlib/src/stm32f10x_tim.c **** 
 891:../../source/src/FWlib/src/stm32f10x_tim.c **** /**
 892:../../source/src/FWlib/src/stm32f10x_tim.c ****   * @brief  Configures the TIMx event to be generate by software.
 893:../../source/src/FWlib/src/stm32f10x_tim.c ****   * @param  TIMx: where x can be 1 to 17 to select the TIM peripheral.
 894:../../source/src/FWlib/src/stm32f10x_tim.c ****   * @param  TIM_EventSource: specifies the event source.
 895:../../source/src/FWlib/src/stm32f10x_tim.c ****   *   This parameter can be one or more of the following values:	   
 896:../../source/src/FWlib/src/stm32f10x_tim.c ****   *     @arg TIM_EventSource_Update: Timer update Event source
 897:../../source/src/FWlib/src/stm32f10x_tim.c ****   *     @arg TIM_EventSource_CC1: Timer Capture Compare 1 Event source
 898:../../source/src/FWlib/src/stm32f10x_tim.c ****   *     @arg TIM_EventSource_CC2: Timer Capture Compare 2 Event source
 899:../../source/src/FWlib/src/stm32f10x_tim.c ****   *     @arg TIM_EventSource_CC3: Timer Capture Compare 3 Event source
 900:../../source/src/FWlib/src/stm32f10x_tim.c ****   *     @arg TIM_EventSource_CC4: Timer Capture Compare 4 Event source
 901:../../source/src/FWlib/src/stm32f10x_tim.c ****   *     @arg TIM_EventSource_COM: Timer COM event source  
 902:../../source/src/FWlib/src/stm32f10x_tim.c ****   *     @arg TIM_EventSource_Trigger: Timer Trigger Event source
 903:../../source/src/FWlib/src/stm32f10x_tim.c ****   *     @arg TIM_EventSource_Break: Timer Break event source
 904:../../source/src/FWlib/src/stm32f10x_tim.c ****   * @note 
 905:../../source/src/FWlib/src/stm32f10x_tim.c ****   *   - TIM6 and TIM7 can only generate an update event. 
 906:../../source/src/FWlib/src/stm32f10x_tim.c ****   *   - TIM_EventSource_COM and TIM_EventSource_Break are used only with TIM1 and TIM8.      
 907:../../source/src/FWlib/src/stm32f10x_tim.c ****   * @retval None
 908:../../source/src/FWlib/src/stm32f10x_tim.c ****   */
 909:../../source/src/FWlib/src/stm32f10x_tim.c **** void TIM_GenerateEvent(TIM_TypeDef* TIMx, uint16_t TIM_EventSource)
 910:../../source/src/FWlib/src/stm32f10x_tim.c **** { 
 2068              		.loc 1 910 0
 2069              		.cfi_startproc
 2070              		@ args = 0, pretend = 0, frame = 8
 2071              		@ frame_needed = 1, uses_anonymous_args = 0
 2072              		@ link register save eliminated.
 2073 0a84 80B4     		push	{r7}
 2074              	.LCFI93:
 2075              		.cfi_def_cfa_offset 4
 2076              		.cfi_offset 7, -4
 2077 0a86 83B0     		sub	sp, sp, #12
 2078              	.LCFI94:
 2079              		.cfi_def_cfa_offset 16
 2080 0a88 00AF     		add	r7, sp, #0
 2081              	.LCFI95:
 2082              		.cfi_def_cfa_register 7
 2083 0a8a 7860     		str	r0, [r7, #4]
 2084 0a8c 0B46     		mov	r3, r1
 2085 0a8e 7B80     		strh	r3, [r7, #2]	@ movhi
 911:../../source/src/FWlib/src/stm32f10x_tim.c ****   /* Check the parameters */
 912:../../source/src/FWlib/src/stm32f10x_tim.c ****   assert_param(IS_TIM_ALL_PERIPH(TIMx));
 913:../../source/src/FWlib/src/stm32f10x_tim.c ****   assert_param(IS_TIM_EVENT_SOURCE(TIM_EventSource));
 914:../../source/src/FWlib/src/stm32f10x_tim.c ****   
 915:../../source/src/FWlib/src/stm32f10x_tim.c ****   /* Set the event sources */
 916:../../source/src/FWlib/src/stm32f10x_tim.c ****   TIMx->EGR = TIM_EventSource;
 2086              		.loc 1 916 0
 2087 0a90 7B68     		ldr	r3, [r7, #4]
 2088 0a92 7A88     		ldrh	r2, [r7, #2]	@ movhi
 2089 0a94 9A82     		strh	r2, [r3, #20]	@ movhi
 917:../../source/src/FWlib/src/stm32f10x_tim.c **** }
 2090              		.loc 1 917 0
 2091 0a96 00BF     		nop
 2092 0a98 0C37     		adds	r7, r7, #12
 2093              	.LCFI96:
ARM GAS  G:\Users\Jaxb\AppData\Local\Temp\ccSQWSCJ.s 			page 55


 2094              		.cfi_def_cfa_offset 4
 2095 0a9a BD46     		mov	sp, r7
 2096              	.LCFI97:
 2097              		.cfi_def_cfa_register 13
 2098              		@ sp needed
 2099 0a9c 80BC     		pop	{r7}
 2100              	.LCFI98:
 2101              		.cfi_restore 7
 2102              		.cfi_def_cfa_offset 0
 2103 0a9e 7047     		bx	lr
 2104              		.cfi_endproc
 2105              	.LFE45:
 2106              		.size	TIM_GenerateEvent, .-TIM_GenerateEvent
 2107              		.align	1
 2108              		.global	TIM_DMAConfig
 2109              		.syntax unified
 2110              		.thumb
 2111              		.thumb_func
 2112              		.fpu softvfp
 2113              		.type	TIM_DMAConfig, %function
 2114              	TIM_DMAConfig:
 2115              	.LFB46:
 918:../../source/src/FWlib/src/stm32f10x_tim.c **** 
 919:../../source/src/FWlib/src/stm32f10x_tim.c **** /**
 920:../../source/src/FWlib/src/stm32f10x_tim.c ****   * @brief  Configures the TIMx's DMA interface.
 921:../../source/src/FWlib/src/stm32f10x_tim.c ****   * @param  TIMx: where x can be  1, 2, 3, 4, 5, 8, 15, 16 or 17 to select 
 922:../../source/src/FWlib/src/stm32f10x_tim.c ****   *   the TIM peripheral.
 923:../../source/src/FWlib/src/stm32f10x_tim.c ****   * @param  TIM_DMABase: DMA Base address.
 924:../../source/src/FWlib/src/stm32f10x_tim.c ****   *   This parameter can be one of the following values:
 925:../../source/src/FWlib/src/stm32f10x_tim.c ****   *     @arg TIM_DMABase_CR, TIM_DMABase_CR2, TIM_DMABase_SMCR,
 926:../../source/src/FWlib/src/stm32f10x_tim.c ****   *          TIM_DMABase_DIER, TIM1_DMABase_SR, TIM_DMABase_EGR,
 927:../../source/src/FWlib/src/stm32f10x_tim.c ****   *          TIM_DMABase_CCMR1, TIM_DMABase_CCMR2, TIM_DMABase_CCER,
 928:../../source/src/FWlib/src/stm32f10x_tim.c ****   *          TIM_DMABase_CNT, TIM_DMABase_PSC, TIM_DMABase_ARR,
 929:../../source/src/FWlib/src/stm32f10x_tim.c ****   *          TIM_DMABase_RCR, TIM_DMABase_CCR1, TIM_DMABase_CCR2,
 930:../../source/src/FWlib/src/stm32f10x_tim.c ****   *          TIM_DMABase_CCR3, TIM_DMABase_CCR4, TIM_DMABase_BDTR,
 931:../../source/src/FWlib/src/stm32f10x_tim.c ****   *          TIM_DMABase_DCR.
 932:../../source/src/FWlib/src/stm32f10x_tim.c ****   * @param  TIM_DMABurstLength: DMA Burst length.
 933:../../source/src/FWlib/src/stm32f10x_tim.c ****   *   This parameter can be one value between:
 934:../../source/src/FWlib/src/stm32f10x_tim.c ****   *   TIM_DMABurstLength_1Transfer and TIM_DMABurstLength_18Transfers.
 935:../../source/src/FWlib/src/stm32f10x_tim.c ****   * @retval None
 936:../../source/src/FWlib/src/stm32f10x_tim.c ****   */
 937:../../source/src/FWlib/src/stm32f10x_tim.c **** void TIM_DMAConfig(TIM_TypeDef* TIMx, uint16_t TIM_DMABase, uint16_t TIM_DMABurstLength)
 938:../../source/src/FWlib/src/stm32f10x_tim.c **** {
 2116              		.loc 1 938 0
 2117              		.cfi_startproc
 2118              		@ args = 0, pretend = 0, frame = 8
 2119              		@ frame_needed = 1, uses_anonymous_args = 0
 2120              		@ link register save eliminated.
 2121 0aa0 80B4     		push	{r7}
 2122              	.LCFI99:
 2123              		.cfi_def_cfa_offset 4
 2124              		.cfi_offset 7, -4
 2125 0aa2 83B0     		sub	sp, sp, #12
 2126              	.LCFI100:
 2127              		.cfi_def_cfa_offset 16
 2128 0aa4 00AF     		add	r7, sp, #0
 2129              	.LCFI101:
ARM GAS  G:\Users\Jaxb\AppData\Local\Temp\ccSQWSCJ.s 			page 56


 2130              		.cfi_def_cfa_register 7
 2131 0aa6 7860     		str	r0, [r7, #4]
 2132 0aa8 0B46     		mov	r3, r1
 2133 0aaa 7B80     		strh	r3, [r7, #2]	@ movhi
 2134 0aac 1346     		mov	r3, r2	@ movhi
 2135 0aae 3B80     		strh	r3, [r7]	@ movhi
 939:../../source/src/FWlib/src/stm32f10x_tim.c ****   /* Check the parameters */
 940:../../source/src/FWlib/src/stm32f10x_tim.c ****   assert_param(IS_TIM_LIST4_PERIPH(TIMx));
 941:../../source/src/FWlib/src/stm32f10x_tim.c ****   assert_param(IS_TIM_DMA_BASE(TIM_DMABase));
 942:../../source/src/FWlib/src/stm32f10x_tim.c ****   assert_param(IS_TIM_DMA_LENGTH(TIM_DMABurstLength));
 943:../../source/src/FWlib/src/stm32f10x_tim.c ****   /* Set the DMA Base and the DMA Burst Length */
 944:../../source/src/FWlib/src/stm32f10x_tim.c ****   TIMx->DCR = TIM_DMABase | TIM_DMABurstLength;
 2136              		.loc 1 944 0
 2137 0ab0 7A88     		ldrh	r2, [r7, #2]	@ movhi
 2138 0ab2 3B88     		ldrh	r3, [r7]	@ movhi
 2139 0ab4 1343     		orrs	r3, r3, r2
 2140 0ab6 9AB2     		uxth	r2, r3
 2141 0ab8 7B68     		ldr	r3, [r7, #4]
 2142 0aba A3F84820 		strh	r2, [r3, #72]	@ movhi
 945:../../source/src/FWlib/src/stm32f10x_tim.c **** }
 2143              		.loc 1 945 0
 2144 0abe 00BF     		nop
 2145 0ac0 0C37     		adds	r7, r7, #12
 2146              	.LCFI102:
 2147              		.cfi_def_cfa_offset 4
 2148 0ac2 BD46     		mov	sp, r7
 2149              	.LCFI103:
 2150              		.cfi_def_cfa_register 13
 2151              		@ sp needed
 2152 0ac4 80BC     		pop	{r7}
 2153              	.LCFI104:
 2154              		.cfi_restore 7
 2155              		.cfi_def_cfa_offset 0
 2156 0ac6 7047     		bx	lr
 2157              		.cfi_endproc
 2158              	.LFE46:
 2159              		.size	TIM_DMAConfig, .-TIM_DMAConfig
 2160              		.align	1
 2161              		.global	TIM_DMACmd
 2162              		.syntax unified
 2163              		.thumb
 2164              		.thumb_func
 2165              		.fpu softvfp
 2166              		.type	TIM_DMACmd, %function
 2167              	TIM_DMACmd:
 2168              	.LFB47:
 946:../../source/src/FWlib/src/stm32f10x_tim.c **** 
 947:../../source/src/FWlib/src/stm32f10x_tim.c **** /**
 948:../../source/src/FWlib/src/stm32f10x_tim.c ****   * @brief  Enables or disables the TIMx's DMA Requests.
 949:../../source/src/FWlib/src/stm32f10x_tim.c ****   * @param  TIMx: where x can be  1, 2, 3, 4, 5, 6, 7, 8, 15, 16 or 17 
 950:../../source/src/FWlib/src/stm32f10x_tim.c ****   *   to select the TIM peripheral. 
 951:../../source/src/FWlib/src/stm32f10x_tim.c ****   * @param  TIM_DMASource: specifies the DMA Request sources.
 952:../../source/src/FWlib/src/stm32f10x_tim.c ****   *   This parameter can be any combination of the following values:
 953:../../source/src/FWlib/src/stm32f10x_tim.c ****   *     @arg TIM_DMA_Update: TIM update Interrupt source
 954:../../source/src/FWlib/src/stm32f10x_tim.c ****   *     @arg TIM_DMA_CC1: TIM Capture Compare 1 DMA source
 955:../../source/src/FWlib/src/stm32f10x_tim.c ****   *     @arg TIM_DMA_CC2: TIM Capture Compare 2 DMA source
 956:../../source/src/FWlib/src/stm32f10x_tim.c ****   *     @arg TIM_DMA_CC3: TIM Capture Compare 3 DMA source
ARM GAS  G:\Users\Jaxb\AppData\Local\Temp\ccSQWSCJ.s 			page 57


 957:../../source/src/FWlib/src/stm32f10x_tim.c ****   *     @arg TIM_DMA_CC4: TIM Capture Compare 4 DMA source
 958:../../source/src/FWlib/src/stm32f10x_tim.c ****   *     @arg TIM_DMA_COM: TIM Commutation DMA source
 959:../../source/src/FWlib/src/stm32f10x_tim.c ****   *     @arg TIM_DMA_Trigger: TIM Trigger DMA source
 960:../../source/src/FWlib/src/stm32f10x_tim.c ****   * @param  NewState: new state of the DMA Request sources.
 961:../../source/src/FWlib/src/stm32f10x_tim.c ****   *   This parameter can be: ENABLE or DISABLE.
 962:../../source/src/FWlib/src/stm32f10x_tim.c ****   * @retval None
 963:../../source/src/FWlib/src/stm32f10x_tim.c ****   */
 964:../../source/src/FWlib/src/stm32f10x_tim.c **** void TIM_DMACmd(TIM_TypeDef* TIMx, uint16_t TIM_DMASource, FunctionalState NewState)
 965:../../source/src/FWlib/src/stm32f10x_tim.c **** { 
 2169              		.loc 1 965 0
 2170              		.cfi_startproc
 2171              		@ args = 0, pretend = 0, frame = 8
 2172              		@ frame_needed = 1, uses_anonymous_args = 0
 2173              		@ link register save eliminated.
 2174 0ac8 80B4     		push	{r7}
 2175              	.LCFI105:
 2176              		.cfi_def_cfa_offset 4
 2177              		.cfi_offset 7, -4
 2178 0aca 83B0     		sub	sp, sp, #12
 2179              	.LCFI106:
 2180              		.cfi_def_cfa_offset 16
 2181 0acc 00AF     		add	r7, sp, #0
 2182              	.LCFI107:
 2183              		.cfi_def_cfa_register 7
 2184 0ace 7860     		str	r0, [r7, #4]
 2185 0ad0 0B46     		mov	r3, r1
 2186 0ad2 7B80     		strh	r3, [r7, #2]	@ movhi
 2187 0ad4 1346     		mov	r3, r2
 2188 0ad6 7B70     		strb	r3, [r7, #1]
 966:../../source/src/FWlib/src/stm32f10x_tim.c ****   /* Check the parameters */
 967:../../source/src/FWlib/src/stm32f10x_tim.c ****   assert_param(IS_TIM_LIST9_PERIPH(TIMx));
 968:../../source/src/FWlib/src/stm32f10x_tim.c ****   assert_param(IS_TIM_DMA_SOURCE(TIM_DMASource));
 969:../../source/src/FWlib/src/stm32f10x_tim.c ****   assert_param(IS_FUNCTIONAL_STATE(NewState));
 970:../../source/src/FWlib/src/stm32f10x_tim.c ****   
 971:../../source/src/FWlib/src/stm32f10x_tim.c ****   if (NewState != DISABLE)
 2189              		.loc 1 971 0
 2190 0ad8 7B78     		ldrb	r3, [r7, #1]	@ zero_extendqisi2
 2191 0ada 002B     		cmp	r3, #0
 2192 0adc 08D0     		beq	.L84
 972:../../source/src/FWlib/src/stm32f10x_tim.c ****   {
 973:../../source/src/FWlib/src/stm32f10x_tim.c ****     /* Enable the DMA sources */
 974:../../source/src/FWlib/src/stm32f10x_tim.c ****     TIMx->DIER |= TIM_DMASource; 
 2193              		.loc 1 974 0
 2194 0ade 7B68     		ldr	r3, [r7, #4]
 2195 0ae0 9B89     		ldrh	r3, [r3, #12]	@ movhi
 2196 0ae2 9AB2     		uxth	r2, r3
 2197 0ae4 7B88     		ldrh	r3, [r7, #2]	@ movhi
 2198 0ae6 1343     		orrs	r3, r3, r2
 2199 0ae8 9AB2     		uxth	r2, r3
 2200 0aea 7B68     		ldr	r3, [r7, #4]
 2201 0aec 9A81     		strh	r2, [r3, #12]	@ movhi
 975:../../source/src/FWlib/src/stm32f10x_tim.c ****   }
 976:../../source/src/FWlib/src/stm32f10x_tim.c ****   else
 977:../../source/src/FWlib/src/stm32f10x_tim.c ****   {
 978:../../source/src/FWlib/src/stm32f10x_tim.c ****     /* Disable the DMA sources */
 979:../../source/src/FWlib/src/stm32f10x_tim.c ****     TIMx->DIER &= (uint16_t)~TIM_DMASource;
 980:../../source/src/FWlib/src/stm32f10x_tim.c ****   }
ARM GAS  G:\Users\Jaxb\AppData\Local\Temp\ccSQWSCJ.s 			page 58


 981:../../source/src/FWlib/src/stm32f10x_tim.c **** }
 2202              		.loc 1 981 0
 2203 0aee 09E0     		b	.L86
 2204              	.L84:
 979:../../source/src/FWlib/src/stm32f10x_tim.c ****   }
 2205              		.loc 1 979 0
 2206 0af0 7B68     		ldr	r3, [r7, #4]
 2207 0af2 9B89     		ldrh	r3, [r3, #12]	@ movhi
 2208 0af4 9AB2     		uxth	r2, r3
 2209 0af6 7B88     		ldrh	r3, [r7, #2]	@ movhi
 2210 0af8 DB43     		mvns	r3, r3
 2211 0afa 9BB2     		uxth	r3, r3
 2212 0afc 1340     		ands	r3, r3, r2
 2213 0afe 9AB2     		uxth	r2, r3
 2214 0b00 7B68     		ldr	r3, [r7, #4]
 2215 0b02 9A81     		strh	r2, [r3, #12]	@ movhi
 2216              	.L86:
 2217              		.loc 1 981 0
 2218 0b04 00BF     		nop
 2219 0b06 0C37     		adds	r7, r7, #12
 2220              	.LCFI108:
 2221              		.cfi_def_cfa_offset 4
 2222 0b08 BD46     		mov	sp, r7
 2223              	.LCFI109:
 2224              		.cfi_def_cfa_register 13
 2225              		@ sp needed
 2226 0b0a 80BC     		pop	{r7}
 2227              	.LCFI110:
 2228              		.cfi_restore 7
 2229              		.cfi_def_cfa_offset 0
 2230 0b0c 7047     		bx	lr
 2231              		.cfi_endproc
 2232              	.LFE47:
 2233              		.size	TIM_DMACmd, .-TIM_DMACmd
 2234              		.align	1
 2235              		.global	TIM_InternalClockConfig
 2236              		.syntax unified
 2237              		.thumb
 2238              		.thumb_func
 2239              		.fpu softvfp
 2240              		.type	TIM_InternalClockConfig, %function
 2241              	TIM_InternalClockConfig:
 2242              	.LFB48:
 982:../../source/src/FWlib/src/stm32f10x_tim.c **** 
 983:../../source/src/FWlib/src/stm32f10x_tim.c **** /**
 984:../../source/src/FWlib/src/stm32f10x_tim.c ****   * @brief  Configures the TIMx internal Clock
 985:../../source/src/FWlib/src/stm32f10x_tim.c ****   * @param  TIMx: where x can be  1, 2, 3, 4, 5, 8, 9, 12 or 15
 986:../../source/src/FWlib/src/stm32f10x_tim.c ****   *         to select the TIM peripheral.
 987:../../source/src/FWlib/src/stm32f10x_tim.c ****   * @retval None
 988:../../source/src/FWlib/src/stm32f10x_tim.c ****   */
 989:../../source/src/FWlib/src/stm32f10x_tim.c **** void TIM_InternalClockConfig(TIM_TypeDef* TIMx)
 990:../../source/src/FWlib/src/stm32f10x_tim.c **** {
 2243              		.loc 1 990 0
 2244              		.cfi_startproc
 2245              		@ args = 0, pretend = 0, frame = 8
 2246              		@ frame_needed = 1, uses_anonymous_args = 0
 2247              		@ link register save eliminated.
ARM GAS  G:\Users\Jaxb\AppData\Local\Temp\ccSQWSCJ.s 			page 59


 2248 0b0e 80B4     		push	{r7}
 2249              	.LCFI111:
 2250              		.cfi_def_cfa_offset 4
 2251              		.cfi_offset 7, -4
 2252 0b10 83B0     		sub	sp, sp, #12
 2253              	.LCFI112:
 2254              		.cfi_def_cfa_offset 16
 2255 0b12 00AF     		add	r7, sp, #0
 2256              	.LCFI113:
 2257              		.cfi_def_cfa_register 7
 2258 0b14 7860     		str	r0, [r7, #4]
 991:../../source/src/FWlib/src/stm32f10x_tim.c ****   /* Check the parameters */
 992:../../source/src/FWlib/src/stm32f10x_tim.c ****   assert_param(IS_TIM_LIST6_PERIPH(TIMx));
 993:../../source/src/FWlib/src/stm32f10x_tim.c ****   /* Disable slave mode to clock the prescaler directly with the internal clock */
 994:../../source/src/FWlib/src/stm32f10x_tim.c ****   TIMx->SMCR &=  (uint16_t)(~((uint16_t)TIM_SMCR_SMS));
 2259              		.loc 1 994 0
 2260 0b16 7B68     		ldr	r3, [r7, #4]
 2261 0b18 1B89     		ldrh	r3, [r3, #8]	@ movhi
 2262 0b1a 9BB2     		uxth	r3, r3
 2263 0b1c 23F00703 		bic	r3, r3, #7
 2264 0b20 9AB2     		uxth	r2, r3
 2265 0b22 7B68     		ldr	r3, [r7, #4]
 2266 0b24 1A81     		strh	r2, [r3, #8]	@ movhi
 995:../../source/src/FWlib/src/stm32f10x_tim.c **** }
 2267              		.loc 1 995 0
 2268 0b26 00BF     		nop
 2269 0b28 0C37     		adds	r7, r7, #12
 2270              	.LCFI114:
 2271              		.cfi_def_cfa_offset 4
 2272 0b2a BD46     		mov	sp, r7
 2273              	.LCFI115:
 2274              		.cfi_def_cfa_register 13
 2275              		@ sp needed
 2276 0b2c 80BC     		pop	{r7}
 2277              	.LCFI116:
 2278              		.cfi_restore 7
 2279              		.cfi_def_cfa_offset 0
 2280 0b2e 7047     		bx	lr
 2281              		.cfi_endproc
 2282              	.LFE48:
 2283              		.size	TIM_InternalClockConfig, .-TIM_InternalClockConfig
 2284              		.align	1
 2285              		.global	TIM_ITRxExternalClockConfig
 2286              		.syntax unified
 2287              		.thumb
 2288              		.thumb_func
 2289              		.fpu softvfp
 2290              		.type	TIM_ITRxExternalClockConfig, %function
 2291              	TIM_ITRxExternalClockConfig:
 2292              	.LFB49:
 996:../../source/src/FWlib/src/stm32f10x_tim.c **** 
 997:../../source/src/FWlib/src/stm32f10x_tim.c **** /**
 998:../../source/src/FWlib/src/stm32f10x_tim.c ****   * @brief  Configures the TIMx Internal Trigger as External Clock
 999:../../source/src/FWlib/src/stm32f10x_tim.c ****   * @param  TIMx: where x can be  1, 2, 3, 4, 5, 9, 12 or 15 to select the TIM peripheral.
1000:../../source/src/FWlib/src/stm32f10x_tim.c ****   * @param  TIM_ITRSource: Trigger source.
1001:../../source/src/FWlib/src/stm32f10x_tim.c ****   *   This parameter can be one of the following values:
1002:../../source/src/FWlib/src/stm32f10x_tim.c ****   * @param  TIM_TS_ITR0: Internal Trigger 0
ARM GAS  G:\Users\Jaxb\AppData\Local\Temp\ccSQWSCJ.s 			page 60


1003:../../source/src/FWlib/src/stm32f10x_tim.c ****   * @param  TIM_TS_ITR1: Internal Trigger 1
1004:../../source/src/FWlib/src/stm32f10x_tim.c ****   * @param  TIM_TS_ITR2: Internal Trigger 2
1005:../../source/src/FWlib/src/stm32f10x_tim.c ****   * @param  TIM_TS_ITR3: Internal Trigger 3
1006:../../source/src/FWlib/src/stm32f10x_tim.c ****   * @retval None
1007:../../source/src/FWlib/src/stm32f10x_tim.c ****   */
1008:../../source/src/FWlib/src/stm32f10x_tim.c **** void TIM_ITRxExternalClockConfig(TIM_TypeDef* TIMx, uint16_t TIM_InputTriggerSource)
1009:../../source/src/FWlib/src/stm32f10x_tim.c **** {
 2293              		.loc 1 1009 0
 2294              		.cfi_startproc
 2295              		@ args = 0, pretend = 0, frame = 8
 2296              		@ frame_needed = 1, uses_anonymous_args = 0
 2297 0b30 80B5     		push	{r7, lr}
 2298              	.LCFI117:
 2299              		.cfi_def_cfa_offset 8
 2300              		.cfi_offset 7, -8
 2301              		.cfi_offset 14, -4
 2302 0b32 82B0     		sub	sp, sp, #8
 2303              	.LCFI118:
 2304              		.cfi_def_cfa_offset 16
 2305 0b34 00AF     		add	r7, sp, #0
 2306              	.LCFI119:
 2307              		.cfi_def_cfa_register 7
 2308 0b36 7860     		str	r0, [r7, #4]
 2309 0b38 0B46     		mov	r3, r1
 2310 0b3a 7B80     		strh	r3, [r7, #2]	@ movhi
1010:../../source/src/FWlib/src/stm32f10x_tim.c ****   /* Check the parameters */
1011:../../source/src/FWlib/src/stm32f10x_tim.c ****   assert_param(IS_TIM_LIST6_PERIPH(TIMx));
1012:../../source/src/FWlib/src/stm32f10x_tim.c ****   assert_param(IS_TIM_INTERNAL_TRIGGER_SELECTION(TIM_InputTriggerSource));
1013:../../source/src/FWlib/src/stm32f10x_tim.c ****   /* Select the Internal Trigger */
1014:../../source/src/FWlib/src/stm32f10x_tim.c ****   TIM_SelectInputTrigger(TIMx, TIM_InputTriggerSource);
 2311              		.loc 1 1014 0
 2312 0b3c 7B88     		ldrh	r3, [r7, #2]
 2313 0b3e 1946     		mov	r1, r3
 2314 0b40 7868     		ldr	r0, [r7, #4]
 2315 0b42 FFF7FEFF 		bl	TIM_SelectInputTrigger
1015:../../source/src/FWlib/src/stm32f10x_tim.c ****   /* Select the External clock mode1 */
1016:../../source/src/FWlib/src/stm32f10x_tim.c ****   TIMx->SMCR |= TIM_SlaveMode_External1;
 2316              		.loc 1 1016 0
 2317 0b46 7B68     		ldr	r3, [r7, #4]
 2318 0b48 1B89     		ldrh	r3, [r3, #8]	@ movhi
 2319 0b4a 9BB2     		uxth	r3, r3
 2320 0b4c 43F00703 		orr	r3, r3, #7
 2321 0b50 9AB2     		uxth	r2, r3
 2322 0b52 7B68     		ldr	r3, [r7, #4]
 2323 0b54 1A81     		strh	r2, [r3, #8]	@ movhi
1017:../../source/src/FWlib/src/stm32f10x_tim.c **** }
 2324              		.loc 1 1017 0
 2325 0b56 00BF     		nop
 2326 0b58 0837     		adds	r7, r7, #8
 2327              	.LCFI120:
 2328              		.cfi_def_cfa_offset 8
 2329 0b5a BD46     		mov	sp, r7
 2330              	.LCFI121:
 2331              		.cfi_def_cfa_register 13
 2332              		@ sp needed
 2333 0b5c 80BD     		pop	{r7, pc}
 2334              		.cfi_endproc
ARM GAS  G:\Users\Jaxb\AppData\Local\Temp\ccSQWSCJ.s 			page 61


 2335              	.LFE49:
 2336              		.size	TIM_ITRxExternalClockConfig, .-TIM_ITRxExternalClockConfig
 2337              		.align	1
 2338              		.global	TIM_TIxExternalClockConfig
 2339              		.syntax unified
 2340              		.thumb
 2341              		.thumb_func
 2342              		.fpu softvfp
 2343              		.type	TIM_TIxExternalClockConfig, %function
 2344              	TIM_TIxExternalClockConfig:
 2345              	.LFB50:
1018:../../source/src/FWlib/src/stm32f10x_tim.c **** 
1019:../../source/src/FWlib/src/stm32f10x_tim.c **** /**
1020:../../source/src/FWlib/src/stm32f10x_tim.c ****   * @brief  Configures the TIMx Trigger as External Clock
1021:../../source/src/FWlib/src/stm32f10x_tim.c ****   * @param  TIMx: where x can be  1, 2, 3, 4, 5, 9, 12 or 15 to select the TIM peripheral.
1022:../../source/src/FWlib/src/stm32f10x_tim.c ****   * @param  TIM_TIxExternalCLKSource: Trigger source.
1023:../../source/src/FWlib/src/stm32f10x_tim.c ****   *   This parameter can be one of the following values:
1024:../../source/src/FWlib/src/stm32f10x_tim.c ****   *     @arg TIM_TIxExternalCLK1Source_TI1ED: TI1 Edge Detector
1025:../../source/src/FWlib/src/stm32f10x_tim.c ****   *     @arg TIM_TIxExternalCLK1Source_TI1: Filtered Timer Input 1
1026:../../source/src/FWlib/src/stm32f10x_tim.c ****   *     @arg TIM_TIxExternalCLK1Source_TI2: Filtered Timer Input 2
1027:../../source/src/FWlib/src/stm32f10x_tim.c ****   * @param  TIM_ICPolarity: specifies the TIx Polarity.
1028:../../source/src/FWlib/src/stm32f10x_tim.c ****   *   This parameter can be one of the following values:
1029:../../source/src/FWlib/src/stm32f10x_tim.c ****   *     @arg TIM_ICPolarity_Rising
1030:../../source/src/FWlib/src/stm32f10x_tim.c ****   *     @arg TIM_ICPolarity_Falling
1031:../../source/src/FWlib/src/stm32f10x_tim.c ****   * @param  ICFilter : specifies the filter value.
1032:../../source/src/FWlib/src/stm32f10x_tim.c ****   *   This parameter must be a value between 0x0 and 0xF.
1033:../../source/src/FWlib/src/stm32f10x_tim.c ****   * @retval None
1034:../../source/src/FWlib/src/stm32f10x_tim.c ****   */
1035:../../source/src/FWlib/src/stm32f10x_tim.c **** void TIM_TIxExternalClockConfig(TIM_TypeDef* TIMx, uint16_t TIM_TIxExternalCLKSource,
1036:../../source/src/FWlib/src/stm32f10x_tim.c ****                                 uint16_t TIM_ICPolarity, uint16_t ICFilter)
1037:../../source/src/FWlib/src/stm32f10x_tim.c **** {
 2346              		.loc 1 1037 0
 2347              		.cfi_startproc
 2348              		@ args = 0, pretend = 0, frame = 16
 2349              		@ frame_needed = 1, uses_anonymous_args = 0
 2350 0b5e 80B5     		push	{r7, lr}
 2351              	.LCFI122:
 2352              		.cfi_def_cfa_offset 8
 2353              		.cfi_offset 7, -8
 2354              		.cfi_offset 14, -4
 2355 0b60 84B0     		sub	sp, sp, #16
 2356              	.LCFI123:
 2357              		.cfi_def_cfa_offset 24
 2358 0b62 00AF     		add	r7, sp, #0
 2359              	.LCFI124:
 2360              		.cfi_def_cfa_register 7
 2361 0b64 F860     		str	r0, [r7, #12]
 2362 0b66 0846     		mov	r0, r1
 2363 0b68 1146     		mov	r1, r2
 2364 0b6a 1A46     		mov	r2, r3
 2365 0b6c 0346     		mov	r3, r0	@ movhi
 2366 0b6e 7B81     		strh	r3, [r7, #10]	@ movhi
 2367 0b70 0B46     		mov	r3, r1	@ movhi
 2368 0b72 3B81     		strh	r3, [r7, #8]	@ movhi
 2369 0b74 1346     		mov	r3, r2	@ movhi
 2370 0b76 FB80     		strh	r3, [r7, #6]	@ movhi
1038:../../source/src/FWlib/src/stm32f10x_tim.c ****   /* Check the parameters */
ARM GAS  G:\Users\Jaxb\AppData\Local\Temp\ccSQWSCJ.s 			page 62


1039:../../source/src/FWlib/src/stm32f10x_tim.c ****   assert_param(IS_TIM_LIST6_PERIPH(TIMx));
1040:../../source/src/FWlib/src/stm32f10x_tim.c ****   assert_param(IS_TIM_TIXCLK_SOURCE(TIM_TIxExternalCLKSource));
1041:../../source/src/FWlib/src/stm32f10x_tim.c ****   assert_param(IS_TIM_IC_POLARITY(TIM_ICPolarity));
1042:../../source/src/FWlib/src/stm32f10x_tim.c ****   assert_param(IS_TIM_IC_FILTER(ICFilter));
1043:../../source/src/FWlib/src/stm32f10x_tim.c ****   /* Configure the Timer Input Clock Source */
1044:../../source/src/FWlib/src/stm32f10x_tim.c ****   if (TIM_TIxExternalCLKSource == TIM_TIxExternalCLK1Source_TI2)
 2371              		.loc 1 1044 0
 2372 0b78 7B89     		ldrh	r3, [r7, #10]
 2373 0b7a 602B     		cmp	r3, #96
 2374 0b7c 06D1     		bne	.L90
1045:../../source/src/FWlib/src/stm32f10x_tim.c ****   {
1046:../../source/src/FWlib/src/stm32f10x_tim.c ****     TI2_Config(TIMx, TIM_ICPolarity, TIM_ICSelection_DirectTI, ICFilter);
 2375              		.loc 1 1046 0
 2376 0b7e FB88     		ldrh	r3, [r7, #6]
 2377 0b80 3989     		ldrh	r1, [r7, #8]
 2378 0b82 0122     		movs	r2, #1
 2379 0b84 F868     		ldr	r0, [r7, #12]
 2380 0b86 00F097FF 		bl	TI2_Config
 2381 0b8a 05E0     		b	.L91
 2382              	.L90:
1047:../../source/src/FWlib/src/stm32f10x_tim.c ****   }
1048:../../source/src/FWlib/src/stm32f10x_tim.c ****   else
1049:../../source/src/FWlib/src/stm32f10x_tim.c ****   {
1050:../../source/src/FWlib/src/stm32f10x_tim.c ****     TI1_Config(TIMx, TIM_ICPolarity, TIM_ICSelection_DirectTI, ICFilter);
 2383              		.loc 1 1050 0
 2384 0b8c FB88     		ldrh	r3, [r7, #6]
 2385 0b8e 3989     		ldrh	r1, [r7, #8]
 2386 0b90 0122     		movs	r2, #1
 2387 0b92 F868     		ldr	r0, [r7, #12]
 2388 0b94 00F020FF 		bl	TI1_Config
 2389              	.L91:
1051:../../source/src/FWlib/src/stm32f10x_tim.c ****   }
1052:../../source/src/FWlib/src/stm32f10x_tim.c ****   /* Select the Trigger source */
1053:../../source/src/FWlib/src/stm32f10x_tim.c ****   TIM_SelectInputTrigger(TIMx, TIM_TIxExternalCLKSource);
 2390              		.loc 1 1053 0
 2391 0b98 7B89     		ldrh	r3, [r7, #10]
 2392 0b9a 1946     		mov	r1, r3
 2393 0b9c F868     		ldr	r0, [r7, #12]
 2394 0b9e FFF7FEFF 		bl	TIM_SelectInputTrigger
1054:../../source/src/FWlib/src/stm32f10x_tim.c ****   /* Select the External clock mode1 */
1055:../../source/src/FWlib/src/stm32f10x_tim.c ****   TIMx->SMCR |= TIM_SlaveMode_External1;
 2395              		.loc 1 1055 0
 2396 0ba2 FB68     		ldr	r3, [r7, #12]
 2397 0ba4 1B89     		ldrh	r3, [r3, #8]	@ movhi
 2398 0ba6 9BB2     		uxth	r3, r3
 2399 0ba8 43F00703 		orr	r3, r3, #7
 2400 0bac 9AB2     		uxth	r2, r3
 2401 0bae FB68     		ldr	r3, [r7, #12]
 2402 0bb0 1A81     		strh	r2, [r3, #8]	@ movhi
1056:../../source/src/FWlib/src/stm32f10x_tim.c **** }
 2403              		.loc 1 1056 0
 2404 0bb2 00BF     		nop
 2405 0bb4 1037     		adds	r7, r7, #16
 2406              	.LCFI125:
 2407              		.cfi_def_cfa_offset 8
 2408 0bb6 BD46     		mov	sp, r7
 2409              	.LCFI126:
ARM GAS  G:\Users\Jaxb\AppData\Local\Temp\ccSQWSCJ.s 			page 63


 2410              		.cfi_def_cfa_register 13
 2411              		@ sp needed
 2412 0bb8 80BD     		pop	{r7, pc}
 2413              		.cfi_endproc
 2414              	.LFE50:
 2415              		.size	TIM_TIxExternalClockConfig, .-TIM_TIxExternalClockConfig
 2416              		.align	1
 2417              		.global	TIM_ETRClockMode1Config
 2418              		.syntax unified
 2419              		.thumb
 2420              		.thumb_func
 2421              		.fpu softvfp
 2422              		.type	TIM_ETRClockMode1Config, %function
 2423              	TIM_ETRClockMode1Config:
 2424              	.LFB51:
1057:../../source/src/FWlib/src/stm32f10x_tim.c **** 
1058:../../source/src/FWlib/src/stm32f10x_tim.c **** /**
1059:../../source/src/FWlib/src/stm32f10x_tim.c ****   * @brief  Configures the External clock Mode1
1060:../../source/src/FWlib/src/stm32f10x_tim.c ****   * @param  TIMx: where x can be  1, 2, 3, 4, 5 or 8 to select the TIM peripheral.
1061:../../source/src/FWlib/src/stm32f10x_tim.c ****   * @param  TIM_ExtTRGPrescaler: The external Trigger Prescaler.
1062:../../source/src/FWlib/src/stm32f10x_tim.c ****   *   This parameter can be one of the following values:
1063:../../source/src/FWlib/src/stm32f10x_tim.c ****   *     @arg TIM_ExtTRGPSC_OFF: ETRP Prescaler OFF.
1064:../../source/src/FWlib/src/stm32f10x_tim.c ****   *     @arg TIM_ExtTRGPSC_DIV2: ETRP frequency divided by 2.
1065:../../source/src/FWlib/src/stm32f10x_tim.c ****   *     @arg TIM_ExtTRGPSC_DIV4: ETRP frequency divided by 4.
1066:../../source/src/FWlib/src/stm32f10x_tim.c ****   *     @arg TIM_ExtTRGPSC_DIV8: ETRP frequency divided by 8.
1067:../../source/src/FWlib/src/stm32f10x_tim.c ****   * @param  TIM_ExtTRGPolarity: The external Trigger Polarity.
1068:../../source/src/FWlib/src/stm32f10x_tim.c ****   *   This parameter can be one of the following values:
1069:../../source/src/FWlib/src/stm32f10x_tim.c ****   *     @arg TIM_ExtTRGPolarity_Inverted: active low or falling edge active.
1070:../../source/src/FWlib/src/stm32f10x_tim.c ****   *     @arg TIM_ExtTRGPolarity_NonInverted: active high or rising edge active.
1071:../../source/src/FWlib/src/stm32f10x_tim.c ****   * @param  ExtTRGFilter: External Trigger Filter.
1072:../../source/src/FWlib/src/stm32f10x_tim.c ****   *   This parameter must be a value between 0x00 and 0x0F
1073:../../source/src/FWlib/src/stm32f10x_tim.c ****   * @retval None
1074:../../source/src/FWlib/src/stm32f10x_tim.c ****   */
1075:../../source/src/FWlib/src/stm32f10x_tim.c **** void TIM_ETRClockMode1Config(TIM_TypeDef* TIMx, uint16_t TIM_ExtTRGPrescaler, uint16_t TIM_ExtTRGPo
1076:../../source/src/FWlib/src/stm32f10x_tim.c ****                              uint16_t ExtTRGFilter)
1077:../../source/src/FWlib/src/stm32f10x_tim.c **** {
 2425              		.loc 1 1077 0
 2426              		.cfi_startproc
 2427              		@ args = 0, pretend = 0, frame = 24
 2428              		@ frame_needed = 1, uses_anonymous_args = 0
 2429 0bba 80B5     		push	{r7, lr}
 2430              	.LCFI127:
 2431              		.cfi_def_cfa_offset 8
 2432              		.cfi_offset 7, -8
 2433              		.cfi_offset 14, -4
 2434 0bbc 86B0     		sub	sp, sp, #24
 2435              	.LCFI128:
 2436              		.cfi_def_cfa_offset 32
 2437 0bbe 00AF     		add	r7, sp, #0
 2438              	.LCFI129:
 2439              		.cfi_def_cfa_register 7
 2440 0bc0 F860     		str	r0, [r7, #12]
 2441 0bc2 0846     		mov	r0, r1
 2442 0bc4 1146     		mov	r1, r2
 2443 0bc6 1A46     		mov	r2, r3
 2444 0bc8 0346     		mov	r3, r0	@ movhi
 2445 0bca 7B81     		strh	r3, [r7, #10]	@ movhi
ARM GAS  G:\Users\Jaxb\AppData\Local\Temp\ccSQWSCJ.s 			page 64


 2446 0bcc 0B46     		mov	r3, r1	@ movhi
 2447 0bce 3B81     		strh	r3, [r7, #8]	@ movhi
 2448 0bd0 1346     		mov	r3, r2	@ movhi
 2449 0bd2 FB80     		strh	r3, [r7, #6]	@ movhi
1078:../../source/src/FWlib/src/stm32f10x_tim.c ****   uint16_t tmpsmcr = 0;
 2450              		.loc 1 1078 0
 2451 0bd4 0023     		movs	r3, #0
 2452 0bd6 FB82     		strh	r3, [r7, #22]	@ movhi
1079:../../source/src/FWlib/src/stm32f10x_tim.c ****   /* Check the parameters */
1080:../../source/src/FWlib/src/stm32f10x_tim.c ****   assert_param(IS_TIM_LIST3_PERIPH(TIMx));
1081:../../source/src/FWlib/src/stm32f10x_tim.c ****   assert_param(IS_TIM_EXT_PRESCALER(TIM_ExtTRGPrescaler));
1082:../../source/src/FWlib/src/stm32f10x_tim.c ****   assert_param(IS_TIM_EXT_POLARITY(TIM_ExtTRGPolarity));
1083:../../source/src/FWlib/src/stm32f10x_tim.c ****   assert_param(IS_TIM_EXT_FILTER(ExtTRGFilter));
1084:../../source/src/FWlib/src/stm32f10x_tim.c ****   /* Configure the ETR Clock source */
1085:../../source/src/FWlib/src/stm32f10x_tim.c ****   TIM_ETRConfig(TIMx, TIM_ExtTRGPrescaler, TIM_ExtTRGPolarity, ExtTRGFilter);
 2453              		.loc 1 1085 0
 2454 0bd8 FB88     		ldrh	r3, [r7, #6]
 2455 0bda 3A89     		ldrh	r2, [r7, #8]
 2456 0bdc 7989     		ldrh	r1, [r7, #10]
 2457 0bde F868     		ldr	r0, [r7, #12]
 2458 0be0 FFF7FEFF 		bl	TIM_ETRConfig
1086:../../source/src/FWlib/src/stm32f10x_tim.c ****   
1087:../../source/src/FWlib/src/stm32f10x_tim.c ****   /* Get the TIMx SMCR register value */
1088:../../source/src/FWlib/src/stm32f10x_tim.c ****   tmpsmcr = TIMx->SMCR;
 2459              		.loc 1 1088 0
 2460 0be4 FB68     		ldr	r3, [r7, #12]
 2461 0be6 1B89     		ldrh	r3, [r3, #8]	@ movhi
 2462 0be8 FB82     		strh	r3, [r7, #22]	@ movhi
1089:../../source/src/FWlib/src/stm32f10x_tim.c ****   /* Reset the SMS Bits */
1090:../../source/src/FWlib/src/stm32f10x_tim.c ****   tmpsmcr &= (uint16_t)(~((uint16_t)TIM_SMCR_SMS));
 2463              		.loc 1 1090 0
 2464 0bea FB8A     		ldrh	r3, [r7, #22]	@ movhi
 2465 0bec 23F00703 		bic	r3, r3, #7
 2466 0bf0 FB82     		strh	r3, [r7, #22]	@ movhi
1091:../../source/src/FWlib/src/stm32f10x_tim.c ****   /* Select the External clock mode1 */
1092:../../source/src/FWlib/src/stm32f10x_tim.c ****   tmpsmcr |= TIM_SlaveMode_External1;
 2467              		.loc 1 1092 0
 2468 0bf2 FB8A     		ldrh	r3, [r7, #22]	@ movhi
 2469 0bf4 43F00703 		orr	r3, r3, #7
 2470 0bf8 FB82     		strh	r3, [r7, #22]	@ movhi
1093:../../source/src/FWlib/src/stm32f10x_tim.c ****   /* Select the Trigger selection : ETRF */
1094:../../source/src/FWlib/src/stm32f10x_tim.c ****   tmpsmcr &= (uint16_t)(~((uint16_t)TIM_SMCR_TS));
 2471              		.loc 1 1094 0
 2472 0bfa FB8A     		ldrh	r3, [r7, #22]	@ movhi
 2473 0bfc 23F07003 		bic	r3, r3, #112
 2474 0c00 FB82     		strh	r3, [r7, #22]	@ movhi
1095:../../source/src/FWlib/src/stm32f10x_tim.c ****   tmpsmcr |= TIM_TS_ETRF;
 2475              		.loc 1 1095 0
 2476 0c02 FB8A     		ldrh	r3, [r7, #22]	@ movhi
 2477 0c04 43F07003 		orr	r3, r3, #112
 2478 0c08 FB82     		strh	r3, [r7, #22]	@ movhi
1096:../../source/src/FWlib/src/stm32f10x_tim.c ****   /* Write to TIMx SMCR */
1097:../../source/src/FWlib/src/stm32f10x_tim.c ****   TIMx->SMCR = tmpsmcr;
 2479              		.loc 1 1097 0
 2480 0c0a FB68     		ldr	r3, [r7, #12]
 2481 0c0c FA8A     		ldrh	r2, [r7, #22]	@ movhi
 2482 0c0e 1A81     		strh	r2, [r3, #8]	@ movhi
ARM GAS  G:\Users\Jaxb\AppData\Local\Temp\ccSQWSCJ.s 			page 65


1098:../../source/src/FWlib/src/stm32f10x_tim.c **** }
 2483              		.loc 1 1098 0
 2484 0c10 00BF     		nop
 2485 0c12 1837     		adds	r7, r7, #24
 2486              	.LCFI130:
 2487              		.cfi_def_cfa_offset 8
 2488 0c14 BD46     		mov	sp, r7
 2489              	.LCFI131:
 2490              		.cfi_def_cfa_register 13
 2491              		@ sp needed
 2492 0c16 80BD     		pop	{r7, pc}
 2493              		.cfi_endproc
 2494              	.LFE51:
 2495              		.size	TIM_ETRClockMode1Config, .-TIM_ETRClockMode1Config
 2496              		.align	1
 2497              		.global	TIM_ETRClockMode2Config
 2498              		.syntax unified
 2499              		.thumb
 2500              		.thumb_func
 2501              		.fpu softvfp
 2502              		.type	TIM_ETRClockMode2Config, %function
 2503              	TIM_ETRClockMode2Config:
 2504              	.LFB52:
1099:../../source/src/FWlib/src/stm32f10x_tim.c **** 
1100:../../source/src/FWlib/src/stm32f10x_tim.c **** /**
1101:../../source/src/FWlib/src/stm32f10x_tim.c ****   * @brief  Configures the External clock Mode2
1102:../../source/src/FWlib/src/stm32f10x_tim.c ****   * @param  TIMx: where x can be  1, 2, 3, 4, 5 or 8 to select the TIM peripheral.
1103:../../source/src/FWlib/src/stm32f10x_tim.c ****   * @param  TIM_ExtTRGPrescaler: The external Trigger Prescaler.
1104:../../source/src/FWlib/src/stm32f10x_tim.c ****   *   This parameter can be one of the following values:
1105:../../source/src/FWlib/src/stm32f10x_tim.c ****   *     @arg TIM_ExtTRGPSC_OFF: ETRP Prescaler OFF.
1106:../../source/src/FWlib/src/stm32f10x_tim.c ****   *     @arg TIM_ExtTRGPSC_DIV2: ETRP frequency divided by 2.
1107:../../source/src/FWlib/src/stm32f10x_tim.c ****   *     @arg TIM_ExtTRGPSC_DIV4: ETRP frequency divided by 4.
1108:../../source/src/FWlib/src/stm32f10x_tim.c ****   *     @arg TIM_ExtTRGPSC_DIV8: ETRP frequency divided by 8.
1109:../../source/src/FWlib/src/stm32f10x_tim.c ****   * @param  TIM_ExtTRGPolarity: The external Trigger Polarity.
1110:../../source/src/FWlib/src/stm32f10x_tim.c ****   *   This parameter can be one of the following values:
1111:../../source/src/FWlib/src/stm32f10x_tim.c ****   *     @arg TIM_ExtTRGPolarity_Inverted: active low or falling edge active.
1112:../../source/src/FWlib/src/stm32f10x_tim.c ****   *     @arg TIM_ExtTRGPolarity_NonInverted: active high or rising edge active.
1113:../../source/src/FWlib/src/stm32f10x_tim.c ****   * @param  ExtTRGFilter: External Trigger Filter.
1114:../../source/src/FWlib/src/stm32f10x_tim.c ****   *   This parameter must be a value between 0x00 and 0x0F
1115:../../source/src/FWlib/src/stm32f10x_tim.c ****   * @retval None
1116:../../source/src/FWlib/src/stm32f10x_tim.c ****   */
1117:../../source/src/FWlib/src/stm32f10x_tim.c **** void TIM_ETRClockMode2Config(TIM_TypeDef* TIMx, uint16_t TIM_ExtTRGPrescaler, 
1118:../../source/src/FWlib/src/stm32f10x_tim.c ****                              uint16_t TIM_ExtTRGPolarity, uint16_t ExtTRGFilter)
1119:../../source/src/FWlib/src/stm32f10x_tim.c **** {
 2505              		.loc 1 1119 0
 2506              		.cfi_startproc
 2507              		@ args = 0, pretend = 0, frame = 16
 2508              		@ frame_needed = 1, uses_anonymous_args = 0
 2509 0c18 80B5     		push	{r7, lr}
 2510              	.LCFI132:
 2511              		.cfi_def_cfa_offset 8
 2512              		.cfi_offset 7, -8
 2513              		.cfi_offset 14, -4
 2514 0c1a 84B0     		sub	sp, sp, #16
 2515              	.LCFI133:
 2516              		.cfi_def_cfa_offset 24
 2517 0c1c 00AF     		add	r7, sp, #0
ARM GAS  G:\Users\Jaxb\AppData\Local\Temp\ccSQWSCJ.s 			page 66


 2518              	.LCFI134:
 2519              		.cfi_def_cfa_register 7
 2520 0c1e F860     		str	r0, [r7, #12]
 2521 0c20 0846     		mov	r0, r1
 2522 0c22 1146     		mov	r1, r2
 2523 0c24 1A46     		mov	r2, r3
 2524 0c26 0346     		mov	r3, r0	@ movhi
 2525 0c28 7B81     		strh	r3, [r7, #10]	@ movhi
 2526 0c2a 0B46     		mov	r3, r1	@ movhi
 2527 0c2c 3B81     		strh	r3, [r7, #8]	@ movhi
 2528 0c2e 1346     		mov	r3, r2	@ movhi
 2529 0c30 FB80     		strh	r3, [r7, #6]	@ movhi
1120:../../source/src/FWlib/src/stm32f10x_tim.c ****   /* Check the parameters */
1121:../../source/src/FWlib/src/stm32f10x_tim.c ****   assert_param(IS_TIM_LIST3_PERIPH(TIMx));
1122:../../source/src/FWlib/src/stm32f10x_tim.c ****   assert_param(IS_TIM_EXT_PRESCALER(TIM_ExtTRGPrescaler));
1123:../../source/src/FWlib/src/stm32f10x_tim.c ****   assert_param(IS_TIM_EXT_POLARITY(TIM_ExtTRGPolarity));
1124:../../source/src/FWlib/src/stm32f10x_tim.c ****   assert_param(IS_TIM_EXT_FILTER(ExtTRGFilter));
1125:../../source/src/FWlib/src/stm32f10x_tim.c ****   /* Configure the ETR Clock source */
1126:../../source/src/FWlib/src/stm32f10x_tim.c ****   TIM_ETRConfig(TIMx, TIM_ExtTRGPrescaler, TIM_ExtTRGPolarity, ExtTRGFilter);
 2530              		.loc 1 1126 0
 2531 0c32 FB88     		ldrh	r3, [r7, #6]
 2532 0c34 3A89     		ldrh	r2, [r7, #8]
 2533 0c36 7989     		ldrh	r1, [r7, #10]
 2534 0c38 F868     		ldr	r0, [r7, #12]
 2535 0c3a FFF7FEFF 		bl	TIM_ETRConfig
1127:../../source/src/FWlib/src/stm32f10x_tim.c ****   /* Enable the External clock mode2 */
1128:../../source/src/FWlib/src/stm32f10x_tim.c ****   TIMx->SMCR |= TIM_SMCR_ECE;
 2536              		.loc 1 1128 0
 2537 0c3e FB68     		ldr	r3, [r7, #12]
 2538 0c40 1B89     		ldrh	r3, [r3, #8]	@ movhi
 2539 0c42 9BB2     		uxth	r3, r3
 2540 0c44 43F48043 		orr	r3, r3, #16384
 2541 0c48 9AB2     		uxth	r2, r3
 2542 0c4a FB68     		ldr	r3, [r7, #12]
 2543 0c4c 1A81     		strh	r2, [r3, #8]	@ movhi
1129:../../source/src/FWlib/src/stm32f10x_tim.c **** }
 2544              		.loc 1 1129 0
 2545 0c4e 00BF     		nop
 2546 0c50 1037     		adds	r7, r7, #16
 2547              	.LCFI135:
 2548              		.cfi_def_cfa_offset 8
 2549 0c52 BD46     		mov	sp, r7
 2550              	.LCFI136:
 2551              		.cfi_def_cfa_register 13
 2552              		@ sp needed
 2553 0c54 80BD     		pop	{r7, pc}
 2554              		.cfi_endproc
 2555              	.LFE52:
 2556              		.size	TIM_ETRClockMode2Config, .-TIM_ETRClockMode2Config
 2557              		.align	1
 2558              		.global	TIM_ETRConfig
 2559              		.syntax unified
 2560              		.thumb
 2561              		.thumb_func
 2562              		.fpu softvfp
 2563              		.type	TIM_ETRConfig, %function
 2564              	TIM_ETRConfig:
ARM GAS  G:\Users\Jaxb\AppData\Local\Temp\ccSQWSCJ.s 			page 67


 2565              	.LFB53:
1130:../../source/src/FWlib/src/stm32f10x_tim.c **** 
1131:../../source/src/FWlib/src/stm32f10x_tim.c **** /**
1132:../../source/src/FWlib/src/stm32f10x_tim.c ****   * @brief  Configures the TIMx External Trigger (ETR).
1133:../../source/src/FWlib/src/stm32f10x_tim.c ****   * @param  TIMx: where x can be  1, 2, 3, 4, 5 or 8 to select the TIM peripheral.
1134:../../source/src/FWlib/src/stm32f10x_tim.c ****   * @param  TIM_ExtTRGPrescaler: The external Trigger Prescaler.
1135:../../source/src/FWlib/src/stm32f10x_tim.c ****   *   This parameter can be one of the following values:
1136:../../source/src/FWlib/src/stm32f10x_tim.c ****   *     @arg TIM_ExtTRGPSC_OFF: ETRP Prescaler OFF.
1137:../../source/src/FWlib/src/stm32f10x_tim.c ****   *     @arg TIM_ExtTRGPSC_DIV2: ETRP frequency divided by 2.
1138:../../source/src/FWlib/src/stm32f10x_tim.c ****   *     @arg TIM_ExtTRGPSC_DIV4: ETRP frequency divided by 4.
1139:../../source/src/FWlib/src/stm32f10x_tim.c ****   *     @arg TIM_ExtTRGPSC_DIV8: ETRP frequency divided by 8.
1140:../../source/src/FWlib/src/stm32f10x_tim.c ****   * @param  TIM_ExtTRGPolarity: The external Trigger Polarity.
1141:../../source/src/FWlib/src/stm32f10x_tim.c ****   *   This parameter can be one of the following values:
1142:../../source/src/FWlib/src/stm32f10x_tim.c ****   *     @arg TIM_ExtTRGPolarity_Inverted: active low or falling edge active.
1143:../../source/src/FWlib/src/stm32f10x_tim.c ****   *     @arg TIM_ExtTRGPolarity_NonInverted: active high or rising edge active.
1144:../../source/src/FWlib/src/stm32f10x_tim.c ****   * @param  ExtTRGFilter: External Trigger Filter.
1145:../../source/src/FWlib/src/stm32f10x_tim.c ****   *   This parameter must be a value between 0x00 and 0x0F
1146:../../source/src/FWlib/src/stm32f10x_tim.c ****   * @retval None
1147:../../source/src/FWlib/src/stm32f10x_tim.c ****   */
1148:../../source/src/FWlib/src/stm32f10x_tim.c **** void TIM_ETRConfig(TIM_TypeDef* TIMx, uint16_t TIM_ExtTRGPrescaler, uint16_t TIM_ExtTRGPolarity,
1149:../../source/src/FWlib/src/stm32f10x_tim.c ****                    uint16_t ExtTRGFilter)
1150:../../source/src/FWlib/src/stm32f10x_tim.c **** {
 2566              		.loc 1 1150 0
 2567              		.cfi_startproc
 2568              		@ args = 0, pretend = 0, frame = 24
 2569              		@ frame_needed = 1, uses_anonymous_args = 0
 2570              		@ link register save eliminated.
 2571 0c56 80B4     		push	{r7}
 2572              	.LCFI137:
 2573              		.cfi_def_cfa_offset 4
 2574              		.cfi_offset 7, -4
 2575 0c58 87B0     		sub	sp, sp, #28
 2576              	.LCFI138:
 2577              		.cfi_def_cfa_offset 32
 2578 0c5a 00AF     		add	r7, sp, #0
 2579              	.LCFI139:
 2580              		.cfi_def_cfa_register 7
 2581 0c5c F860     		str	r0, [r7, #12]
 2582 0c5e 0846     		mov	r0, r1
 2583 0c60 1146     		mov	r1, r2
 2584 0c62 1A46     		mov	r2, r3
 2585 0c64 0346     		mov	r3, r0	@ movhi
 2586 0c66 7B81     		strh	r3, [r7, #10]	@ movhi
 2587 0c68 0B46     		mov	r3, r1	@ movhi
 2588 0c6a 3B81     		strh	r3, [r7, #8]	@ movhi
 2589 0c6c 1346     		mov	r3, r2	@ movhi
 2590 0c6e FB80     		strh	r3, [r7, #6]	@ movhi
1151:../../source/src/FWlib/src/stm32f10x_tim.c ****   uint16_t tmpsmcr = 0;
 2591              		.loc 1 1151 0
 2592 0c70 0023     		movs	r3, #0
 2593 0c72 FB82     		strh	r3, [r7, #22]	@ movhi
1152:../../source/src/FWlib/src/stm32f10x_tim.c ****   /* Check the parameters */
1153:../../source/src/FWlib/src/stm32f10x_tim.c ****   assert_param(IS_TIM_LIST3_PERIPH(TIMx));
1154:../../source/src/FWlib/src/stm32f10x_tim.c ****   assert_param(IS_TIM_EXT_PRESCALER(TIM_ExtTRGPrescaler));
1155:../../source/src/FWlib/src/stm32f10x_tim.c ****   assert_param(IS_TIM_EXT_POLARITY(TIM_ExtTRGPolarity));
1156:../../source/src/FWlib/src/stm32f10x_tim.c ****   assert_param(IS_TIM_EXT_FILTER(ExtTRGFilter));
1157:../../source/src/FWlib/src/stm32f10x_tim.c ****   tmpsmcr = TIMx->SMCR;
ARM GAS  G:\Users\Jaxb\AppData\Local\Temp\ccSQWSCJ.s 			page 68


 2594              		.loc 1 1157 0
 2595 0c74 FB68     		ldr	r3, [r7, #12]
 2596 0c76 1B89     		ldrh	r3, [r3, #8]	@ movhi
 2597 0c78 FB82     		strh	r3, [r7, #22]	@ movhi
1158:../../source/src/FWlib/src/stm32f10x_tim.c ****   /* Reset the ETR Bits */
1159:../../source/src/FWlib/src/stm32f10x_tim.c ****   tmpsmcr &= SMCR_ETR_Mask;
 2598              		.loc 1 1159 0
 2599 0c7a FB8A     		ldrh	r3, [r7, #22]	@ movhi
 2600 0c7c DBB2     		uxtb	r3, r3
 2601 0c7e FB82     		strh	r3, [r7, #22]	@ movhi
1160:../../source/src/FWlib/src/stm32f10x_tim.c ****   /* Set the Prescaler, the Filter value and the Polarity */
1161:../../source/src/FWlib/src/stm32f10x_tim.c ****   tmpsmcr |= (uint16_t)(TIM_ExtTRGPrescaler | (uint16_t)(TIM_ExtTRGPolarity | (uint16_t)(ExtTRGFilt
 2602              		.loc 1 1161 0
 2603 0c80 FB88     		ldrh	r3, [r7, #6]	@ movhi
 2604 0c82 1B02     		lsls	r3, r3, #8
 2605 0c84 9AB2     		uxth	r2, r3
 2606 0c86 3B89     		ldrh	r3, [r7, #8]	@ movhi
 2607 0c88 1343     		orrs	r3, r3, r2
 2608 0c8a 9AB2     		uxth	r2, r3
 2609 0c8c 7B89     		ldrh	r3, [r7, #10]	@ movhi
 2610 0c8e 1343     		orrs	r3, r3, r2
 2611 0c90 9AB2     		uxth	r2, r3
 2612 0c92 FB8A     		ldrh	r3, [r7, #22]	@ movhi
 2613 0c94 1343     		orrs	r3, r3, r2
 2614 0c96 FB82     		strh	r3, [r7, #22]	@ movhi
1162:../../source/src/FWlib/src/stm32f10x_tim.c ****   /* Write to TIMx SMCR */
1163:../../source/src/FWlib/src/stm32f10x_tim.c ****   TIMx->SMCR = tmpsmcr;
 2615              		.loc 1 1163 0
 2616 0c98 FB68     		ldr	r3, [r7, #12]
 2617 0c9a FA8A     		ldrh	r2, [r7, #22]	@ movhi
 2618 0c9c 1A81     		strh	r2, [r3, #8]	@ movhi
1164:../../source/src/FWlib/src/stm32f10x_tim.c **** }
 2619              		.loc 1 1164 0
 2620 0c9e 00BF     		nop
 2621 0ca0 1C37     		adds	r7, r7, #28
 2622              	.LCFI140:
 2623              		.cfi_def_cfa_offset 4
 2624 0ca2 BD46     		mov	sp, r7
 2625              	.LCFI141:
 2626              		.cfi_def_cfa_register 13
 2627              		@ sp needed
 2628 0ca4 80BC     		pop	{r7}
 2629              	.LCFI142:
 2630              		.cfi_restore 7
 2631              		.cfi_def_cfa_offset 0
 2632 0ca6 7047     		bx	lr
 2633              		.cfi_endproc
 2634              	.LFE53:
 2635              		.size	TIM_ETRConfig, .-TIM_ETRConfig
 2636              		.align	1
 2637              		.global	TIM_PrescalerConfig
 2638              		.syntax unified
 2639              		.thumb
 2640              		.thumb_func
 2641              		.fpu softvfp
 2642              		.type	TIM_PrescalerConfig, %function
 2643              	TIM_PrescalerConfig:
ARM GAS  G:\Users\Jaxb\AppData\Local\Temp\ccSQWSCJ.s 			page 69


 2644              	.LFB54:
1165:../../source/src/FWlib/src/stm32f10x_tim.c **** 
1166:../../source/src/FWlib/src/stm32f10x_tim.c **** /**
1167:../../source/src/FWlib/src/stm32f10x_tim.c ****   * @brief  Configures the TIMx Prescaler.
1168:../../source/src/FWlib/src/stm32f10x_tim.c ****   * @param  TIMx: where x can be 1 to 17 to select the TIM peripheral.
1169:../../source/src/FWlib/src/stm32f10x_tim.c ****   * @param  Prescaler: specifies the Prescaler Register value
1170:../../source/src/FWlib/src/stm32f10x_tim.c ****   * @param  TIM_PSCReloadMode: specifies the TIM Prescaler Reload mode
1171:../../source/src/FWlib/src/stm32f10x_tim.c ****   *   This parameter can be one of the following values:
1172:../../source/src/FWlib/src/stm32f10x_tim.c ****   *     @arg TIM_PSCReloadMode_Update: The Prescaler is loaded at the update event.
1173:../../source/src/FWlib/src/stm32f10x_tim.c ****   *     @arg TIM_PSCReloadMode_Immediate: The Prescaler is loaded immediately.
1174:../../source/src/FWlib/src/stm32f10x_tim.c ****   * @retval None
1175:../../source/src/FWlib/src/stm32f10x_tim.c ****   */
1176:../../source/src/FWlib/src/stm32f10x_tim.c **** void TIM_PrescalerConfig(TIM_TypeDef* TIMx, uint16_t Prescaler, uint16_t TIM_PSCReloadMode)
1177:../../source/src/FWlib/src/stm32f10x_tim.c **** {
 2645              		.loc 1 1177 0
 2646              		.cfi_startproc
 2647              		@ args = 0, pretend = 0, frame = 8
 2648              		@ frame_needed = 1, uses_anonymous_args = 0
 2649              		@ link register save eliminated.
 2650 0ca8 80B4     		push	{r7}
 2651              	.LCFI143:
 2652              		.cfi_def_cfa_offset 4
 2653              		.cfi_offset 7, -4
 2654 0caa 83B0     		sub	sp, sp, #12
 2655              	.LCFI144:
 2656              		.cfi_def_cfa_offset 16
 2657 0cac 00AF     		add	r7, sp, #0
 2658              	.LCFI145:
 2659              		.cfi_def_cfa_register 7
 2660 0cae 7860     		str	r0, [r7, #4]
 2661 0cb0 0B46     		mov	r3, r1
 2662 0cb2 7B80     		strh	r3, [r7, #2]	@ movhi
 2663 0cb4 1346     		mov	r3, r2	@ movhi
 2664 0cb6 3B80     		strh	r3, [r7]	@ movhi
1178:../../source/src/FWlib/src/stm32f10x_tim.c ****   /* Check the parameters */
1179:../../source/src/FWlib/src/stm32f10x_tim.c ****   assert_param(IS_TIM_ALL_PERIPH(TIMx));
1180:../../source/src/FWlib/src/stm32f10x_tim.c ****   assert_param(IS_TIM_PRESCALER_RELOAD(TIM_PSCReloadMode));
1181:../../source/src/FWlib/src/stm32f10x_tim.c ****   /* Set the Prescaler value */
1182:../../source/src/FWlib/src/stm32f10x_tim.c ****   TIMx->PSC = Prescaler;
 2665              		.loc 1 1182 0
 2666 0cb8 7B68     		ldr	r3, [r7, #4]
 2667 0cba 7A88     		ldrh	r2, [r7, #2]	@ movhi
 2668 0cbc 1A85     		strh	r2, [r3, #40]	@ movhi
1183:../../source/src/FWlib/src/stm32f10x_tim.c ****   /* Set or reset the UG Bit */
1184:../../source/src/FWlib/src/stm32f10x_tim.c ****   TIMx->EGR = TIM_PSCReloadMode;
 2669              		.loc 1 1184 0
 2670 0cbe 7B68     		ldr	r3, [r7, #4]
 2671 0cc0 3A88     		ldrh	r2, [r7]	@ movhi
 2672 0cc2 9A82     		strh	r2, [r3, #20]	@ movhi
1185:../../source/src/FWlib/src/stm32f10x_tim.c **** }
 2673              		.loc 1 1185 0
 2674 0cc4 00BF     		nop
 2675 0cc6 0C37     		adds	r7, r7, #12
 2676              	.LCFI146:
 2677              		.cfi_def_cfa_offset 4
 2678 0cc8 BD46     		mov	sp, r7
 2679              	.LCFI147:
ARM GAS  G:\Users\Jaxb\AppData\Local\Temp\ccSQWSCJ.s 			page 70


 2680              		.cfi_def_cfa_register 13
 2681              		@ sp needed
 2682 0cca 80BC     		pop	{r7}
 2683              	.LCFI148:
 2684              		.cfi_restore 7
 2685              		.cfi_def_cfa_offset 0
 2686 0ccc 7047     		bx	lr
 2687              		.cfi_endproc
 2688              	.LFE54:
 2689              		.size	TIM_PrescalerConfig, .-TIM_PrescalerConfig
 2690              		.align	1
 2691              		.global	TIM_CounterModeConfig
 2692              		.syntax unified
 2693              		.thumb
 2694              		.thumb_func
 2695              		.fpu softvfp
 2696              		.type	TIM_CounterModeConfig, %function
 2697              	TIM_CounterModeConfig:
 2698              	.LFB55:
1186:../../source/src/FWlib/src/stm32f10x_tim.c **** 
1187:../../source/src/FWlib/src/stm32f10x_tim.c **** /**
1188:../../source/src/FWlib/src/stm32f10x_tim.c ****   * @brief  Specifies the TIMx Counter Mode to be used.
1189:../../source/src/FWlib/src/stm32f10x_tim.c ****   * @param  TIMx: where x can be  1, 2, 3, 4, 5 or 8 to select the TIM peripheral.
1190:../../source/src/FWlib/src/stm32f10x_tim.c ****   * @param  TIM_CounterMode: specifies the Counter Mode to be used
1191:../../source/src/FWlib/src/stm32f10x_tim.c ****   *   This parameter can be one of the following values:
1192:../../source/src/FWlib/src/stm32f10x_tim.c ****   *     @arg TIM_CounterMode_Up: TIM Up Counting Mode
1193:../../source/src/FWlib/src/stm32f10x_tim.c ****   *     @arg TIM_CounterMode_Down: TIM Down Counting Mode
1194:../../source/src/FWlib/src/stm32f10x_tim.c ****   *     @arg TIM_CounterMode_CenterAligned1: TIM Center Aligned Mode1
1195:../../source/src/FWlib/src/stm32f10x_tim.c ****   *     @arg TIM_CounterMode_CenterAligned2: TIM Center Aligned Mode2
1196:../../source/src/FWlib/src/stm32f10x_tim.c ****   *     @arg TIM_CounterMode_CenterAligned3: TIM Center Aligned Mode3
1197:../../source/src/FWlib/src/stm32f10x_tim.c ****   * @retval None
1198:../../source/src/FWlib/src/stm32f10x_tim.c ****   */
1199:../../source/src/FWlib/src/stm32f10x_tim.c **** void TIM_CounterModeConfig(TIM_TypeDef* TIMx, uint16_t TIM_CounterMode)
1200:../../source/src/FWlib/src/stm32f10x_tim.c **** {
 2699              		.loc 1 1200 0
 2700              		.cfi_startproc
 2701              		@ args = 0, pretend = 0, frame = 16
 2702              		@ frame_needed = 1, uses_anonymous_args = 0
 2703              		@ link register save eliminated.
 2704 0cce 80B4     		push	{r7}
 2705              	.LCFI149:
 2706              		.cfi_def_cfa_offset 4
 2707              		.cfi_offset 7, -4
 2708 0cd0 85B0     		sub	sp, sp, #20
 2709              	.LCFI150:
 2710              		.cfi_def_cfa_offset 24
 2711 0cd2 00AF     		add	r7, sp, #0
 2712              	.LCFI151:
 2713              		.cfi_def_cfa_register 7
 2714 0cd4 7860     		str	r0, [r7, #4]
 2715 0cd6 0B46     		mov	r3, r1
 2716 0cd8 7B80     		strh	r3, [r7, #2]	@ movhi
1201:../../source/src/FWlib/src/stm32f10x_tim.c ****   uint16_t tmpcr1 = 0;
 2717              		.loc 1 1201 0
 2718 0cda 0023     		movs	r3, #0
 2719 0cdc FB81     		strh	r3, [r7, #14]	@ movhi
1202:../../source/src/FWlib/src/stm32f10x_tim.c ****   /* Check the parameters */
ARM GAS  G:\Users\Jaxb\AppData\Local\Temp\ccSQWSCJ.s 			page 71


1203:../../source/src/FWlib/src/stm32f10x_tim.c ****   assert_param(IS_TIM_LIST3_PERIPH(TIMx));
1204:../../source/src/FWlib/src/stm32f10x_tim.c ****   assert_param(IS_TIM_COUNTER_MODE(TIM_CounterMode));
1205:../../source/src/FWlib/src/stm32f10x_tim.c ****   tmpcr1 = TIMx->CR1;
 2720              		.loc 1 1205 0
 2721 0cde 7B68     		ldr	r3, [r7, #4]
 2722 0ce0 1B88     		ldrh	r3, [r3]	@ movhi
 2723 0ce2 FB81     		strh	r3, [r7, #14]	@ movhi
1206:../../source/src/FWlib/src/stm32f10x_tim.c ****   /* Reset the CMS and DIR Bits */
1207:../../source/src/FWlib/src/stm32f10x_tim.c ****   tmpcr1 &= (uint16_t)(~((uint16_t)(TIM_CR1_DIR | TIM_CR1_CMS)));
 2724              		.loc 1 1207 0
 2725 0ce4 FB89     		ldrh	r3, [r7, #14]	@ movhi
 2726 0ce6 23F07003 		bic	r3, r3, #112
 2727 0cea FB81     		strh	r3, [r7, #14]	@ movhi
1208:../../source/src/FWlib/src/stm32f10x_tim.c ****   /* Set the Counter Mode */
1209:../../source/src/FWlib/src/stm32f10x_tim.c ****   tmpcr1 |= TIM_CounterMode;
 2728              		.loc 1 1209 0
 2729 0cec FA89     		ldrh	r2, [r7, #14]	@ movhi
 2730 0cee 7B88     		ldrh	r3, [r7, #2]	@ movhi
 2731 0cf0 1343     		orrs	r3, r3, r2
 2732 0cf2 FB81     		strh	r3, [r7, #14]	@ movhi
1210:../../source/src/FWlib/src/stm32f10x_tim.c ****   /* Write to TIMx CR1 register */
1211:../../source/src/FWlib/src/stm32f10x_tim.c ****   TIMx->CR1 = tmpcr1;
 2733              		.loc 1 1211 0
 2734 0cf4 7B68     		ldr	r3, [r7, #4]
 2735 0cf6 FA89     		ldrh	r2, [r7, #14]	@ movhi
 2736 0cf8 1A80     		strh	r2, [r3]	@ movhi
1212:../../source/src/FWlib/src/stm32f10x_tim.c **** }
 2737              		.loc 1 1212 0
 2738 0cfa 00BF     		nop
 2739 0cfc 1437     		adds	r7, r7, #20
 2740              	.LCFI152:
 2741              		.cfi_def_cfa_offset 4
 2742 0cfe BD46     		mov	sp, r7
 2743              	.LCFI153:
 2744              		.cfi_def_cfa_register 13
 2745              		@ sp needed
 2746 0d00 80BC     		pop	{r7}
 2747              	.LCFI154:
 2748              		.cfi_restore 7
 2749              		.cfi_def_cfa_offset 0
 2750 0d02 7047     		bx	lr
 2751              		.cfi_endproc
 2752              	.LFE55:
 2753              		.size	TIM_CounterModeConfig, .-TIM_CounterModeConfig
 2754              		.align	1
 2755              		.global	TIM_SelectInputTrigger
 2756              		.syntax unified
 2757              		.thumb
 2758              		.thumb_func
 2759              		.fpu softvfp
 2760              		.type	TIM_SelectInputTrigger, %function
 2761              	TIM_SelectInputTrigger:
 2762              	.LFB56:
1213:../../source/src/FWlib/src/stm32f10x_tim.c **** 
1214:../../source/src/FWlib/src/stm32f10x_tim.c **** /**
1215:../../source/src/FWlib/src/stm32f10x_tim.c ****   * @brief  Selects the Input Trigger source
1216:../../source/src/FWlib/src/stm32f10x_tim.c ****   * @param  TIMx: where x can be  1, 2, 3, 4, 5, 8, 9, 12 or 15 to select the TIM peripheral.
ARM GAS  G:\Users\Jaxb\AppData\Local\Temp\ccSQWSCJ.s 			page 72


1217:../../source/src/FWlib/src/stm32f10x_tim.c ****   * @param  TIM_InputTriggerSource: The Input Trigger source.
1218:../../source/src/FWlib/src/stm32f10x_tim.c ****   *   This parameter can be one of the following values:
1219:../../source/src/FWlib/src/stm32f10x_tim.c ****   *     @arg TIM_TS_ITR0: Internal Trigger 0
1220:../../source/src/FWlib/src/stm32f10x_tim.c ****   *     @arg TIM_TS_ITR1: Internal Trigger 1
1221:../../source/src/FWlib/src/stm32f10x_tim.c ****   *     @arg TIM_TS_ITR2: Internal Trigger 2
1222:../../source/src/FWlib/src/stm32f10x_tim.c ****   *     @arg TIM_TS_ITR3: Internal Trigger 3
1223:../../source/src/FWlib/src/stm32f10x_tim.c ****   *     @arg TIM_TS_TI1F_ED: TI1 Edge Detector
1224:../../source/src/FWlib/src/stm32f10x_tim.c ****   *     @arg TIM_TS_TI1FP1: Filtered Timer Input 1
1225:../../source/src/FWlib/src/stm32f10x_tim.c ****   *     @arg TIM_TS_TI2FP2: Filtered Timer Input 2
1226:../../source/src/FWlib/src/stm32f10x_tim.c ****   *     @arg TIM_TS_ETRF: External Trigger input
1227:../../source/src/FWlib/src/stm32f10x_tim.c ****   * @retval None
1228:../../source/src/FWlib/src/stm32f10x_tim.c ****   */
1229:../../source/src/FWlib/src/stm32f10x_tim.c **** void TIM_SelectInputTrigger(TIM_TypeDef* TIMx, uint16_t TIM_InputTriggerSource)
1230:../../source/src/FWlib/src/stm32f10x_tim.c **** {
 2763              		.loc 1 1230 0
 2764              		.cfi_startproc
 2765              		@ args = 0, pretend = 0, frame = 16
 2766              		@ frame_needed = 1, uses_anonymous_args = 0
 2767              		@ link register save eliminated.
 2768 0d04 80B4     		push	{r7}
 2769              	.LCFI155:
 2770              		.cfi_def_cfa_offset 4
 2771              		.cfi_offset 7, -4
 2772 0d06 85B0     		sub	sp, sp, #20
 2773              	.LCFI156:
 2774              		.cfi_def_cfa_offset 24
 2775 0d08 00AF     		add	r7, sp, #0
 2776              	.LCFI157:
 2777              		.cfi_def_cfa_register 7
 2778 0d0a 7860     		str	r0, [r7, #4]
 2779 0d0c 0B46     		mov	r3, r1
 2780 0d0e 7B80     		strh	r3, [r7, #2]	@ movhi
1231:../../source/src/FWlib/src/stm32f10x_tim.c ****   uint16_t tmpsmcr = 0;
 2781              		.loc 1 1231 0
 2782 0d10 0023     		movs	r3, #0
 2783 0d12 FB81     		strh	r3, [r7, #14]	@ movhi
1232:../../source/src/FWlib/src/stm32f10x_tim.c ****   /* Check the parameters */
1233:../../source/src/FWlib/src/stm32f10x_tim.c ****   assert_param(IS_TIM_LIST6_PERIPH(TIMx));
1234:../../source/src/FWlib/src/stm32f10x_tim.c ****   assert_param(IS_TIM_TRIGGER_SELECTION(TIM_InputTriggerSource));
1235:../../source/src/FWlib/src/stm32f10x_tim.c ****   /* Get the TIMx SMCR register value */
1236:../../source/src/FWlib/src/stm32f10x_tim.c ****   tmpsmcr = TIMx->SMCR;
 2784              		.loc 1 1236 0
 2785 0d14 7B68     		ldr	r3, [r7, #4]
 2786 0d16 1B89     		ldrh	r3, [r3, #8]	@ movhi
 2787 0d18 FB81     		strh	r3, [r7, #14]	@ movhi
1237:../../source/src/FWlib/src/stm32f10x_tim.c ****   /* Reset the TS Bits */
1238:../../source/src/FWlib/src/stm32f10x_tim.c ****   tmpsmcr &= (uint16_t)(~((uint16_t)TIM_SMCR_TS));
 2788              		.loc 1 1238 0
 2789 0d1a FB89     		ldrh	r3, [r7, #14]	@ movhi
 2790 0d1c 23F07003 		bic	r3, r3, #112
 2791 0d20 FB81     		strh	r3, [r7, #14]	@ movhi
1239:../../source/src/FWlib/src/stm32f10x_tim.c ****   /* Set the Input Trigger source */
1240:../../source/src/FWlib/src/stm32f10x_tim.c ****   tmpsmcr |= TIM_InputTriggerSource;
 2792              		.loc 1 1240 0
 2793 0d22 FA89     		ldrh	r2, [r7, #14]	@ movhi
 2794 0d24 7B88     		ldrh	r3, [r7, #2]	@ movhi
 2795 0d26 1343     		orrs	r3, r3, r2
ARM GAS  G:\Users\Jaxb\AppData\Local\Temp\ccSQWSCJ.s 			page 73


 2796 0d28 FB81     		strh	r3, [r7, #14]	@ movhi
1241:../../source/src/FWlib/src/stm32f10x_tim.c ****   /* Write to TIMx SMCR */
1242:../../source/src/FWlib/src/stm32f10x_tim.c ****   TIMx->SMCR = tmpsmcr;
 2797              		.loc 1 1242 0
 2798 0d2a 7B68     		ldr	r3, [r7, #4]
 2799 0d2c FA89     		ldrh	r2, [r7, #14]	@ movhi
 2800 0d2e 1A81     		strh	r2, [r3, #8]	@ movhi
1243:../../source/src/FWlib/src/stm32f10x_tim.c **** }
 2801              		.loc 1 1243 0
 2802 0d30 00BF     		nop
 2803 0d32 1437     		adds	r7, r7, #20
 2804              	.LCFI158:
 2805              		.cfi_def_cfa_offset 4
 2806 0d34 BD46     		mov	sp, r7
 2807              	.LCFI159:
 2808              		.cfi_def_cfa_register 13
 2809              		@ sp needed
 2810 0d36 80BC     		pop	{r7}
 2811              	.LCFI160:
 2812              		.cfi_restore 7
 2813              		.cfi_def_cfa_offset 0
 2814 0d38 7047     		bx	lr
 2815              		.cfi_endproc
 2816              	.LFE56:
 2817              		.size	TIM_SelectInputTrigger, .-TIM_SelectInputTrigger
 2818              		.align	1
 2819              		.global	TIM_EncoderInterfaceConfig
 2820              		.syntax unified
 2821              		.thumb
 2822              		.thumb_func
 2823              		.fpu softvfp
 2824              		.type	TIM_EncoderInterfaceConfig, %function
 2825              	TIM_EncoderInterfaceConfig:
 2826              	.LFB57:
1244:../../source/src/FWlib/src/stm32f10x_tim.c **** 
1245:../../source/src/FWlib/src/stm32f10x_tim.c **** /**
1246:../../source/src/FWlib/src/stm32f10x_tim.c ****   * @brief  Configures the TIMx Encoder Interface.
1247:../../source/src/FWlib/src/stm32f10x_tim.c ****   * @param  TIMx: where x can be  1, 2, 3, 4, 5 or 8 to select the TIM peripheral.
1248:../../source/src/FWlib/src/stm32f10x_tim.c ****   * @param  TIM_EncoderMode: specifies the TIMx Encoder Mode.
1249:../../source/src/FWlib/src/stm32f10x_tim.c ****   *   This parameter can be one of the following values:
1250:../../source/src/FWlib/src/stm32f10x_tim.c ****   *     @arg TIM_EncoderMode_TI1: Counter counts on TI1FP1 edge depending on TI2FP2 level.
1251:../../source/src/FWlib/src/stm32f10x_tim.c ****   *     @arg TIM_EncoderMode_TI2: Counter counts on TI2FP2 edge depending on TI1FP1 level.
1252:../../source/src/FWlib/src/stm32f10x_tim.c ****   *     @arg TIM_EncoderMode_TI12: Counter counts on both TI1FP1 and TI2FP2 edges depending
1253:../../source/src/FWlib/src/stm32f10x_tim.c ****   *                                on the level of the other input.
1254:../../source/src/FWlib/src/stm32f10x_tim.c ****   * @param  TIM_IC1Polarity: specifies the IC1 Polarity
1255:../../source/src/FWlib/src/stm32f10x_tim.c ****   *   This parameter can be one of the following values:
1256:../../source/src/FWlib/src/stm32f10x_tim.c ****   *     @arg TIM_ICPolarity_Falling: IC Falling edge.
1257:../../source/src/FWlib/src/stm32f10x_tim.c ****   *     @arg TIM_ICPolarity_Rising: IC Rising edge.
1258:../../source/src/FWlib/src/stm32f10x_tim.c ****   * @param  TIM_IC2Polarity: specifies the IC2 Polarity
1259:../../source/src/FWlib/src/stm32f10x_tim.c ****   *   This parameter can be one of the following values:
1260:../../source/src/FWlib/src/stm32f10x_tim.c ****   *     @arg TIM_ICPolarity_Falling: IC Falling edge.
1261:../../source/src/FWlib/src/stm32f10x_tim.c ****   *     @arg TIM_ICPolarity_Rising: IC Rising edge.
1262:../../source/src/FWlib/src/stm32f10x_tim.c ****   * @retval None
1263:../../source/src/FWlib/src/stm32f10x_tim.c ****   */
1264:../../source/src/FWlib/src/stm32f10x_tim.c **** void TIM_EncoderInterfaceConfig(TIM_TypeDef* TIMx, uint16_t TIM_EncoderMode,
1265:../../source/src/FWlib/src/stm32f10x_tim.c ****                                 uint16_t TIM_IC1Polarity, uint16_t TIM_IC2Polarity)
1266:../../source/src/FWlib/src/stm32f10x_tim.c **** {
ARM GAS  G:\Users\Jaxb\AppData\Local\Temp\ccSQWSCJ.s 			page 74


 2827              		.loc 1 1266 0
 2828              		.cfi_startproc
 2829              		@ args = 0, pretend = 0, frame = 24
 2830              		@ frame_needed = 1, uses_anonymous_args = 0
 2831              		@ link register save eliminated.
 2832 0d3a 80B4     		push	{r7}
 2833              	.LCFI161:
 2834              		.cfi_def_cfa_offset 4
 2835              		.cfi_offset 7, -4
 2836 0d3c 87B0     		sub	sp, sp, #28
 2837              	.LCFI162:
 2838              		.cfi_def_cfa_offset 32
 2839 0d3e 00AF     		add	r7, sp, #0
 2840              	.LCFI163:
 2841              		.cfi_def_cfa_register 7
 2842 0d40 F860     		str	r0, [r7, #12]
 2843 0d42 0846     		mov	r0, r1
 2844 0d44 1146     		mov	r1, r2
 2845 0d46 1A46     		mov	r2, r3
 2846 0d48 0346     		mov	r3, r0	@ movhi
 2847 0d4a 7B81     		strh	r3, [r7, #10]	@ movhi
 2848 0d4c 0B46     		mov	r3, r1	@ movhi
 2849 0d4e 3B81     		strh	r3, [r7, #8]	@ movhi
 2850 0d50 1346     		mov	r3, r2	@ movhi
 2851 0d52 FB80     		strh	r3, [r7, #6]	@ movhi
1267:../../source/src/FWlib/src/stm32f10x_tim.c ****   uint16_t tmpsmcr = 0;
 2852              		.loc 1 1267 0
 2853 0d54 0023     		movs	r3, #0
 2854 0d56 FB82     		strh	r3, [r7, #22]	@ movhi
1268:../../source/src/FWlib/src/stm32f10x_tim.c ****   uint16_t tmpccmr1 = 0;
 2855              		.loc 1 1268 0
 2856 0d58 0023     		movs	r3, #0
 2857 0d5a BB82     		strh	r3, [r7, #20]	@ movhi
1269:../../source/src/FWlib/src/stm32f10x_tim.c ****   uint16_t tmpccer = 0;
 2858              		.loc 1 1269 0
 2859 0d5c 0023     		movs	r3, #0
 2860 0d5e 7B82     		strh	r3, [r7, #18]	@ movhi
1270:../../source/src/FWlib/src/stm32f10x_tim.c ****     
1271:../../source/src/FWlib/src/stm32f10x_tim.c ****   /* Check the parameters */
1272:../../source/src/FWlib/src/stm32f10x_tim.c ****   assert_param(IS_TIM_LIST5_PERIPH(TIMx));
1273:../../source/src/FWlib/src/stm32f10x_tim.c ****   assert_param(IS_TIM_ENCODER_MODE(TIM_EncoderMode));
1274:../../source/src/FWlib/src/stm32f10x_tim.c ****   assert_param(IS_TIM_IC_POLARITY(TIM_IC1Polarity));
1275:../../source/src/FWlib/src/stm32f10x_tim.c ****   assert_param(IS_TIM_IC_POLARITY(TIM_IC2Polarity));
1276:../../source/src/FWlib/src/stm32f10x_tim.c **** 
1277:../../source/src/FWlib/src/stm32f10x_tim.c ****   /* Get the TIMx SMCR register value */
1278:../../source/src/FWlib/src/stm32f10x_tim.c ****   tmpsmcr = TIMx->SMCR;
 2861              		.loc 1 1278 0
 2862 0d60 FB68     		ldr	r3, [r7, #12]
 2863 0d62 1B89     		ldrh	r3, [r3, #8]	@ movhi
 2864 0d64 FB82     		strh	r3, [r7, #22]	@ movhi
1279:../../source/src/FWlib/src/stm32f10x_tim.c ****   
1280:../../source/src/FWlib/src/stm32f10x_tim.c ****   /* Get the TIMx CCMR1 register value */
1281:../../source/src/FWlib/src/stm32f10x_tim.c ****   tmpccmr1 = TIMx->CCMR1;
 2865              		.loc 1 1281 0
 2866 0d66 FB68     		ldr	r3, [r7, #12]
 2867 0d68 1B8B     		ldrh	r3, [r3, #24]	@ movhi
 2868 0d6a BB82     		strh	r3, [r7, #20]	@ movhi
ARM GAS  G:\Users\Jaxb\AppData\Local\Temp\ccSQWSCJ.s 			page 75


1282:../../source/src/FWlib/src/stm32f10x_tim.c ****   
1283:../../source/src/FWlib/src/stm32f10x_tim.c ****   /* Get the TIMx CCER register value */
1284:../../source/src/FWlib/src/stm32f10x_tim.c ****   tmpccer = TIMx->CCER;
 2869              		.loc 1 1284 0
 2870 0d6c FB68     		ldr	r3, [r7, #12]
 2871 0d6e 1B8C     		ldrh	r3, [r3, #32]	@ movhi
 2872 0d70 7B82     		strh	r3, [r7, #18]	@ movhi
1285:../../source/src/FWlib/src/stm32f10x_tim.c ****   
1286:../../source/src/FWlib/src/stm32f10x_tim.c ****   /* Set the encoder Mode */
1287:../../source/src/FWlib/src/stm32f10x_tim.c ****   tmpsmcr &= (uint16_t)(~((uint16_t)TIM_SMCR_SMS));
 2873              		.loc 1 1287 0
 2874 0d72 FB8A     		ldrh	r3, [r7, #22]	@ movhi
 2875 0d74 23F00703 		bic	r3, r3, #7
 2876 0d78 FB82     		strh	r3, [r7, #22]	@ movhi
1288:../../source/src/FWlib/src/stm32f10x_tim.c ****   tmpsmcr |= TIM_EncoderMode;
 2877              		.loc 1 1288 0
 2878 0d7a FA8A     		ldrh	r2, [r7, #22]	@ movhi
 2879 0d7c 7B89     		ldrh	r3, [r7, #10]	@ movhi
 2880 0d7e 1343     		orrs	r3, r3, r2
 2881 0d80 FB82     		strh	r3, [r7, #22]	@ movhi
1289:../../source/src/FWlib/src/stm32f10x_tim.c ****   
1290:../../source/src/FWlib/src/stm32f10x_tim.c ****   /* Select the Capture Compare 1 and the Capture Compare 2 as input */
1291:../../source/src/FWlib/src/stm32f10x_tim.c ****   tmpccmr1 &= (uint16_t)(((uint16_t)~((uint16_t)TIM_CCMR1_CC1S)) & (uint16_t)(~((uint16_t)TIM_CCMR1
 2882              		.loc 1 1291 0
 2883 0d82 BB8A     		ldrh	r3, [r7, #20]	@ movhi
 2884 0d84 23F44073 		bic	r3, r3, #768
 2885 0d88 23F00303 		bic	r3, r3, #3
 2886 0d8c BB82     		strh	r3, [r7, #20]	@ movhi
1292:../../source/src/FWlib/src/stm32f10x_tim.c ****   tmpccmr1 |= TIM_CCMR1_CC1S_0 | TIM_CCMR1_CC2S_0;
 2887              		.loc 1 1292 0
 2888 0d8e BB8A     		ldrh	r3, [r7, #20]	@ movhi
 2889 0d90 43F48073 		orr	r3, r3, #256
 2890 0d94 43F00103 		orr	r3, r3, #1
 2891 0d98 BB82     		strh	r3, [r7, #20]	@ movhi
1293:../../source/src/FWlib/src/stm32f10x_tim.c ****   
1294:../../source/src/FWlib/src/stm32f10x_tim.c ****   /* Set the TI1 and the TI2 Polarities */
1295:../../source/src/FWlib/src/stm32f10x_tim.c ****   tmpccer &= (uint16_t)(((uint16_t)~((uint16_t)TIM_CCER_CC1P)) & ((uint16_t)~((uint16_t)TIM_CCER_CC
 2892              		.loc 1 1295 0
 2893 0d9a 7B8A     		ldrh	r3, [r7, #18]	@ movhi
 2894 0d9c 23F02203 		bic	r3, r3, #34
 2895 0da0 7B82     		strh	r3, [r7, #18]	@ movhi
1296:../../source/src/FWlib/src/stm32f10x_tim.c ****   tmpccer |= (uint16_t)(TIM_IC1Polarity | (uint16_t)(TIM_IC2Polarity << (uint16_t)4));
 2896              		.loc 1 1296 0
 2897 0da2 FB88     		ldrh	r3, [r7, #6]	@ movhi
 2898 0da4 1B01     		lsls	r3, r3, #4
 2899 0da6 9AB2     		uxth	r2, r3
 2900 0da8 3B89     		ldrh	r3, [r7, #8]	@ movhi
 2901 0daa 1343     		orrs	r3, r3, r2
 2902 0dac 9AB2     		uxth	r2, r3
 2903 0dae 7B8A     		ldrh	r3, [r7, #18]	@ movhi
 2904 0db0 1343     		orrs	r3, r3, r2
 2905 0db2 7B82     		strh	r3, [r7, #18]	@ movhi
1297:../../source/src/FWlib/src/stm32f10x_tim.c ****   
1298:../../source/src/FWlib/src/stm32f10x_tim.c ****   /* Write to TIMx SMCR */
1299:../../source/src/FWlib/src/stm32f10x_tim.c ****   TIMx->SMCR = tmpsmcr;
 2906              		.loc 1 1299 0
 2907 0db4 FB68     		ldr	r3, [r7, #12]
ARM GAS  G:\Users\Jaxb\AppData\Local\Temp\ccSQWSCJ.s 			page 76


 2908 0db6 FA8A     		ldrh	r2, [r7, #22]	@ movhi
 2909 0db8 1A81     		strh	r2, [r3, #8]	@ movhi
1300:../../source/src/FWlib/src/stm32f10x_tim.c ****   /* Write to TIMx CCMR1 */
1301:../../source/src/FWlib/src/stm32f10x_tim.c ****   TIMx->CCMR1 = tmpccmr1;
 2910              		.loc 1 1301 0
 2911 0dba FB68     		ldr	r3, [r7, #12]
 2912 0dbc BA8A     		ldrh	r2, [r7, #20]	@ movhi
 2913 0dbe 1A83     		strh	r2, [r3, #24]	@ movhi
1302:../../source/src/FWlib/src/stm32f10x_tim.c ****   /* Write to TIMx CCER */
1303:../../source/src/FWlib/src/stm32f10x_tim.c ****   TIMx->CCER = tmpccer;
 2914              		.loc 1 1303 0
 2915 0dc0 FB68     		ldr	r3, [r7, #12]
 2916 0dc2 7A8A     		ldrh	r2, [r7, #18]	@ movhi
 2917 0dc4 1A84     		strh	r2, [r3, #32]	@ movhi
1304:../../source/src/FWlib/src/stm32f10x_tim.c **** }
 2918              		.loc 1 1304 0
 2919 0dc6 00BF     		nop
 2920 0dc8 1C37     		adds	r7, r7, #28
 2921              	.LCFI164:
 2922              		.cfi_def_cfa_offset 4
 2923 0dca BD46     		mov	sp, r7
 2924              	.LCFI165:
 2925              		.cfi_def_cfa_register 13
 2926              		@ sp needed
 2927 0dcc 80BC     		pop	{r7}
 2928              	.LCFI166:
 2929              		.cfi_restore 7
 2930              		.cfi_def_cfa_offset 0
 2931 0dce 7047     		bx	lr
 2932              		.cfi_endproc
 2933              	.LFE57:
 2934              		.size	TIM_EncoderInterfaceConfig, .-TIM_EncoderInterfaceConfig
 2935              		.align	1
 2936              		.global	TIM_ForcedOC1Config
 2937              		.syntax unified
 2938              		.thumb
 2939              		.thumb_func
 2940              		.fpu softvfp
 2941              		.type	TIM_ForcedOC1Config, %function
 2942              	TIM_ForcedOC1Config:
 2943              	.LFB58:
1305:../../source/src/FWlib/src/stm32f10x_tim.c **** 
1306:../../source/src/FWlib/src/stm32f10x_tim.c **** /**
1307:../../source/src/FWlib/src/stm32f10x_tim.c ****   * @brief  Forces the TIMx output 1 waveform to active or inactive level.
1308:../../source/src/FWlib/src/stm32f10x_tim.c ****   * @param  TIMx: where x can be  1 to 17 except 6 and 7 to select the TIM peripheral.
1309:../../source/src/FWlib/src/stm32f10x_tim.c ****   * @param  TIM_ForcedAction: specifies the forced Action to be set to the output waveform.
1310:../../source/src/FWlib/src/stm32f10x_tim.c ****   *   This parameter can be one of the following values:
1311:../../source/src/FWlib/src/stm32f10x_tim.c ****   *     @arg TIM_ForcedAction_Active: Force active level on OC1REF
1312:../../source/src/FWlib/src/stm32f10x_tim.c ****   *     @arg TIM_ForcedAction_InActive: Force inactive level on OC1REF.
1313:../../source/src/FWlib/src/stm32f10x_tim.c ****   * @retval None
1314:../../source/src/FWlib/src/stm32f10x_tim.c ****   */
1315:../../source/src/FWlib/src/stm32f10x_tim.c **** void TIM_ForcedOC1Config(TIM_TypeDef* TIMx, uint16_t TIM_ForcedAction)
1316:../../source/src/FWlib/src/stm32f10x_tim.c **** {
 2944              		.loc 1 1316 0
 2945              		.cfi_startproc
 2946              		@ args = 0, pretend = 0, frame = 16
 2947              		@ frame_needed = 1, uses_anonymous_args = 0
ARM GAS  G:\Users\Jaxb\AppData\Local\Temp\ccSQWSCJ.s 			page 77


 2948              		@ link register save eliminated.
 2949 0dd0 80B4     		push	{r7}
 2950              	.LCFI167:
 2951              		.cfi_def_cfa_offset 4
 2952              		.cfi_offset 7, -4
 2953 0dd2 85B0     		sub	sp, sp, #20
 2954              	.LCFI168:
 2955              		.cfi_def_cfa_offset 24
 2956 0dd4 00AF     		add	r7, sp, #0
 2957              	.LCFI169:
 2958              		.cfi_def_cfa_register 7
 2959 0dd6 7860     		str	r0, [r7, #4]
 2960 0dd8 0B46     		mov	r3, r1
 2961 0dda 7B80     		strh	r3, [r7, #2]	@ movhi
1317:../../source/src/FWlib/src/stm32f10x_tim.c ****   uint16_t tmpccmr1 = 0;
 2962              		.loc 1 1317 0
 2963 0ddc 0023     		movs	r3, #0
 2964 0dde FB81     		strh	r3, [r7, #14]	@ movhi
1318:../../source/src/FWlib/src/stm32f10x_tim.c ****   /* Check the parameters */
1319:../../source/src/FWlib/src/stm32f10x_tim.c ****   assert_param(IS_TIM_LIST8_PERIPH(TIMx));
1320:../../source/src/FWlib/src/stm32f10x_tim.c ****   assert_param(IS_TIM_FORCED_ACTION(TIM_ForcedAction));
1321:../../source/src/FWlib/src/stm32f10x_tim.c ****   tmpccmr1 = TIMx->CCMR1;
 2965              		.loc 1 1321 0
 2966 0de0 7B68     		ldr	r3, [r7, #4]
 2967 0de2 1B8B     		ldrh	r3, [r3, #24]	@ movhi
 2968 0de4 FB81     		strh	r3, [r7, #14]	@ movhi
1322:../../source/src/FWlib/src/stm32f10x_tim.c ****   /* Reset the OC1M Bits */
1323:../../source/src/FWlib/src/stm32f10x_tim.c ****   tmpccmr1 &= (uint16_t)~((uint16_t)TIM_CCMR1_OC1M);
 2969              		.loc 1 1323 0
 2970 0de6 FB89     		ldrh	r3, [r7, #14]	@ movhi
 2971 0de8 23F07003 		bic	r3, r3, #112
 2972 0dec FB81     		strh	r3, [r7, #14]	@ movhi
1324:../../source/src/FWlib/src/stm32f10x_tim.c ****   /* Configure The Forced output Mode */
1325:../../source/src/FWlib/src/stm32f10x_tim.c ****   tmpccmr1 |= TIM_ForcedAction;
 2973              		.loc 1 1325 0
 2974 0dee FA89     		ldrh	r2, [r7, #14]	@ movhi
 2975 0df0 7B88     		ldrh	r3, [r7, #2]	@ movhi
 2976 0df2 1343     		orrs	r3, r3, r2
 2977 0df4 FB81     		strh	r3, [r7, #14]	@ movhi
1326:../../source/src/FWlib/src/stm32f10x_tim.c ****   /* Write to TIMx CCMR1 register */
1327:../../source/src/FWlib/src/stm32f10x_tim.c ****   TIMx->CCMR1 = tmpccmr1;
 2978              		.loc 1 1327 0
 2979 0df6 7B68     		ldr	r3, [r7, #4]
 2980 0df8 FA89     		ldrh	r2, [r7, #14]	@ movhi
 2981 0dfa 1A83     		strh	r2, [r3, #24]	@ movhi
1328:../../source/src/FWlib/src/stm32f10x_tim.c **** }
 2982              		.loc 1 1328 0
 2983 0dfc 00BF     		nop
 2984 0dfe 1437     		adds	r7, r7, #20
 2985              	.LCFI170:
 2986              		.cfi_def_cfa_offset 4
 2987 0e00 BD46     		mov	sp, r7
 2988              	.LCFI171:
 2989              		.cfi_def_cfa_register 13
 2990              		@ sp needed
 2991 0e02 80BC     		pop	{r7}
 2992              	.LCFI172:
ARM GAS  G:\Users\Jaxb\AppData\Local\Temp\ccSQWSCJ.s 			page 78


 2993              		.cfi_restore 7
 2994              		.cfi_def_cfa_offset 0
 2995 0e04 7047     		bx	lr
 2996              		.cfi_endproc
 2997              	.LFE58:
 2998              		.size	TIM_ForcedOC1Config, .-TIM_ForcedOC1Config
 2999              		.align	1
 3000              		.global	TIM_ForcedOC2Config
 3001              		.syntax unified
 3002              		.thumb
 3003              		.thumb_func
 3004              		.fpu softvfp
 3005              		.type	TIM_ForcedOC2Config, %function
 3006              	TIM_ForcedOC2Config:
 3007              	.LFB59:
1329:../../source/src/FWlib/src/stm32f10x_tim.c **** 
1330:../../source/src/FWlib/src/stm32f10x_tim.c **** /**
1331:../../source/src/FWlib/src/stm32f10x_tim.c ****   * @brief  Forces the TIMx output 2 waveform to active or inactive level.
1332:../../source/src/FWlib/src/stm32f10x_tim.c ****   * @param  TIMx: where x can be  1, 2, 3, 4, 5, 8, 9, 12 or 15 to select the TIM peripheral.
1333:../../source/src/FWlib/src/stm32f10x_tim.c ****   * @param  TIM_ForcedAction: specifies the forced Action to be set to the output waveform.
1334:../../source/src/FWlib/src/stm32f10x_tim.c ****   *   This parameter can be one of the following values:
1335:../../source/src/FWlib/src/stm32f10x_tim.c ****   *     @arg TIM_ForcedAction_Active: Force active level on OC2REF
1336:../../source/src/FWlib/src/stm32f10x_tim.c ****   *     @arg TIM_ForcedAction_InActive: Force inactive level on OC2REF.
1337:../../source/src/FWlib/src/stm32f10x_tim.c ****   * @retval None
1338:../../source/src/FWlib/src/stm32f10x_tim.c ****   */
1339:../../source/src/FWlib/src/stm32f10x_tim.c **** void TIM_ForcedOC2Config(TIM_TypeDef* TIMx, uint16_t TIM_ForcedAction)
1340:../../source/src/FWlib/src/stm32f10x_tim.c **** {
 3008              		.loc 1 1340 0
 3009              		.cfi_startproc
 3010              		@ args = 0, pretend = 0, frame = 16
 3011              		@ frame_needed = 1, uses_anonymous_args = 0
 3012              		@ link register save eliminated.
 3013 0e06 80B4     		push	{r7}
 3014              	.LCFI173:
 3015              		.cfi_def_cfa_offset 4
 3016              		.cfi_offset 7, -4
 3017 0e08 85B0     		sub	sp, sp, #20
 3018              	.LCFI174:
 3019              		.cfi_def_cfa_offset 24
 3020 0e0a 00AF     		add	r7, sp, #0
 3021              	.LCFI175:
 3022              		.cfi_def_cfa_register 7
 3023 0e0c 7860     		str	r0, [r7, #4]
 3024 0e0e 0B46     		mov	r3, r1
 3025 0e10 7B80     		strh	r3, [r7, #2]	@ movhi
1341:../../source/src/FWlib/src/stm32f10x_tim.c ****   uint16_t tmpccmr1 = 0;
 3026              		.loc 1 1341 0
 3027 0e12 0023     		movs	r3, #0
 3028 0e14 FB81     		strh	r3, [r7, #14]	@ movhi
1342:../../source/src/FWlib/src/stm32f10x_tim.c ****   /* Check the parameters */
1343:../../source/src/FWlib/src/stm32f10x_tim.c ****   assert_param(IS_TIM_LIST6_PERIPH(TIMx));
1344:../../source/src/FWlib/src/stm32f10x_tim.c ****   assert_param(IS_TIM_FORCED_ACTION(TIM_ForcedAction));
1345:../../source/src/FWlib/src/stm32f10x_tim.c ****   tmpccmr1 = TIMx->CCMR1;
 3029              		.loc 1 1345 0
 3030 0e16 7B68     		ldr	r3, [r7, #4]
 3031 0e18 1B8B     		ldrh	r3, [r3, #24]	@ movhi
 3032 0e1a FB81     		strh	r3, [r7, #14]	@ movhi
ARM GAS  G:\Users\Jaxb\AppData\Local\Temp\ccSQWSCJ.s 			page 79


1346:../../source/src/FWlib/src/stm32f10x_tim.c ****   /* Reset the OC2M Bits */
1347:../../source/src/FWlib/src/stm32f10x_tim.c ****   tmpccmr1 &= (uint16_t)~((uint16_t)TIM_CCMR1_OC2M);
 3033              		.loc 1 1347 0
 3034 0e1c FB89     		ldrh	r3, [r7, #14]	@ movhi
 3035 0e1e 23F4E043 		bic	r3, r3, #28672
 3036 0e22 FB81     		strh	r3, [r7, #14]	@ movhi
1348:../../source/src/FWlib/src/stm32f10x_tim.c ****   /* Configure The Forced output Mode */
1349:../../source/src/FWlib/src/stm32f10x_tim.c ****   tmpccmr1 |= (uint16_t)(TIM_ForcedAction << 8);
 3037              		.loc 1 1349 0
 3038 0e24 7B88     		ldrh	r3, [r7, #2]	@ movhi
 3039 0e26 1B02     		lsls	r3, r3, #8
 3040 0e28 9AB2     		uxth	r2, r3
 3041 0e2a FB89     		ldrh	r3, [r7, #14]	@ movhi
 3042 0e2c 1343     		orrs	r3, r3, r2
 3043 0e2e FB81     		strh	r3, [r7, #14]	@ movhi
1350:../../source/src/FWlib/src/stm32f10x_tim.c ****   /* Write to TIMx CCMR1 register */
1351:../../source/src/FWlib/src/stm32f10x_tim.c ****   TIMx->CCMR1 = tmpccmr1;
 3044              		.loc 1 1351 0
 3045 0e30 7B68     		ldr	r3, [r7, #4]
 3046 0e32 FA89     		ldrh	r2, [r7, #14]	@ movhi
 3047 0e34 1A83     		strh	r2, [r3, #24]	@ movhi
1352:../../source/src/FWlib/src/stm32f10x_tim.c **** }
 3048              		.loc 1 1352 0
 3049 0e36 00BF     		nop
 3050 0e38 1437     		adds	r7, r7, #20
 3051              	.LCFI176:
 3052              		.cfi_def_cfa_offset 4
 3053 0e3a BD46     		mov	sp, r7
 3054              	.LCFI177:
 3055              		.cfi_def_cfa_register 13
 3056              		@ sp needed
 3057 0e3c 80BC     		pop	{r7}
 3058              	.LCFI178:
 3059              		.cfi_restore 7
 3060              		.cfi_def_cfa_offset 0
 3061 0e3e 7047     		bx	lr
 3062              		.cfi_endproc
 3063              	.LFE59:
 3064              		.size	TIM_ForcedOC2Config, .-TIM_ForcedOC2Config
 3065              		.align	1
 3066              		.global	TIM_ForcedOC3Config
 3067              		.syntax unified
 3068              		.thumb
 3069              		.thumb_func
 3070              		.fpu softvfp
 3071              		.type	TIM_ForcedOC3Config, %function
 3072              	TIM_ForcedOC3Config:
 3073              	.LFB60:
1353:../../source/src/FWlib/src/stm32f10x_tim.c **** 
1354:../../source/src/FWlib/src/stm32f10x_tim.c **** /**
1355:../../source/src/FWlib/src/stm32f10x_tim.c ****   * @brief  Forces the TIMx output 3 waveform to active or inactive level.
1356:../../source/src/FWlib/src/stm32f10x_tim.c ****   * @param  TIMx: where x can be  1, 2, 3, 4, 5 or 8 to select the TIM peripheral.
1357:../../source/src/FWlib/src/stm32f10x_tim.c ****   * @param  TIM_ForcedAction: specifies the forced Action to be set to the output waveform.
1358:../../source/src/FWlib/src/stm32f10x_tim.c ****   *   This parameter can be one of the following values:
1359:../../source/src/FWlib/src/stm32f10x_tim.c ****   *     @arg TIM_ForcedAction_Active: Force active level on OC3REF
1360:../../source/src/FWlib/src/stm32f10x_tim.c ****   *     @arg TIM_ForcedAction_InActive: Force inactive level on OC3REF.
1361:../../source/src/FWlib/src/stm32f10x_tim.c ****   * @retval None
ARM GAS  G:\Users\Jaxb\AppData\Local\Temp\ccSQWSCJ.s 			page 80


1362:../../source/src/FWlib/src/stm32f10x_tim.c ****   */
1363:../../source/src/FWlib/src/stm32f10x_tim.c **** void TIM_ForcedOC3Config(TIM_TypeDef* TIMx, uint16_t TIM_ForcedAction)
1364:../../source/src/FWlib/src/stm32f10x_tim.c **** {
 3074              		.loc 1 1364 0
 3075              		.cfi_startproc
 3076              		@ args = 0, pretend = 0, frame = 16
 3077              		@ frame_needed = 1, uses_anonymous_args = 0
 3078              		@ link register save eliminated.
 3079 0e40 80B4     		push	{r7}
 3080              	.LCFI179:
 3081              		.cfi_def_cfa_offset 4
 3082              		.cfi_offset 7, -4
 3083 0e42 85B0     		sub	sp, sp, #20
 3084              	.LCFI180:
 3085              		.cfi_def_cfa_offset 24
 3086 0e44 00AF     		add	r7, sp, #0
 3087              	.LCFI181:
 3088              		.cfi_def_cfa_register 7
 3089 0e46 7860     		str	r0, [r7, #4]
 3090 0e48 0B46     		mov	r3, r1
 3091 0e4a 7B80     		strh	r3, [r7, #2]	@ movhi
1365:../../source/src/FWlib/src/stm32f10x_tim.c ****   uint16_t tmpccmr2 = 0;
 3092              		.loc 1 1365 0
 3093 0e4c 0023     		movs	r3, #0
 3094 0e4e FB81     		strh	r3, [r7, #14]	@ movhi
1366:../../source/src/FWlib/src/stm32f10x_tim.c ****   /* Check the parameters */
1367:../../source/src/FWlib/src/stm32f10x_tim.c ****   assert_param(IS_TIM_LIST3_PERIPH(TIMx));
1368:../../source/src/FWlib/src/stm32f10x_tim.c ****   assert_param(IS_TIM_FORCED_ACTION(TIM_ForcedAction));
1369:../../source/src/FWlib/src/stm32f10x_tim.c ****   tmpccmr2 = TIMx->CCMR2;
 3095              		.loc 1 1369 0
 3096 0e50 7B68     		ldr	r3, [r7, #4]
 3097 0e52 9B8B     		ldrh	r3, [r3, #28]	@ movhi
 3098 0e54 FB81     		strh	r3, [r7, #14]	@ movhi
1370:../../source/src/FWlib/src/stm32f10x_tim.c ****   /* Reset the OC1M Bits */
1371:../../source/src/FWlib/src/stm32f10x_tim.c ****   tmpccmr2 &= (uint16_t)~((uint16_t)TIM_CCMR2_OC3M);
 3099              		.loc 1 1371 0
 3100 0e56 FB89     		ldrh	r3, [r7, #14]	@ movhi
 3101 0e58 23F07003 		bic	r3, r3, #112
 3102 0e5c FB81     		strh	r3, [r7, #14]	@ movhi
1372:../../source/src/FWlib/src/stm32f10x_tim.c ****   /* Configure The Forced output Mode */
1373:../../source/src/FWlib/src/stm32f10x_tim.c ****   tmpccmr2 |= TIM_ForcedAction;
 3103              		.loc 1 1373 0
 3104 0e5e FA89     		ldrh	r2, [r7, #14]	@ movhi
 3105 0e60 7B88     		ldrh	r3, [r7, #2]	@ movhi
 3106 0e62 1343     		orrs	r3, r3, r2
 3107 0e64 FB81     		strh	r3, [r7, #14]	@ movhi
1374:../../source/src/FWlib/src/stm32f10x_tim.c ****   /* Write to TIMx CCMR2 register */
1375:../../source/src/FWlib/src/stm32f10x_tim.c ****   TIMx->CCMR2 = tmpccmr2;
 3108              		.loc 1 1375 0
 3109 0e66 7B68     		ldr	r3, [r7, #4]
 3110 0e68 FA89     		ldrh	r2, [r7, #14]	@ movhi
 3111 0e6a 9A83     		strh	r2, [r3, #28]	@ movhi
1376:../../source/src/FWlib/src/stm32f10x_tim.c **** }
 3112              		.loc 1 1376 0
 3113 0e6c 00BF     		nop
 3114 0e6e 1437     		adds	r7, r7, #20
 3115              	.LCFI182:
ARM GAS  G:\Users\Jaxb\AppData\Local\Temp\ccSQWSCJ.s 			page 81


 3116              		.cfi_def_cfa_offset 4
 3117 0e70 BD46     		mov	sp, r7
 3118              	.LCFI183:
 3119              		.cfi_def_cfa_register 13
 3120              		@ sp needed
 3121 0e72 80BC     		pop	{r7}
 3122              	.LCFI184:
 3123              		.cfi_restore 7
 3124              		.cfi_def_cfa_offset 0
 3125 0e74 7047     		bx	lr
 3126              		.cfi_endproc
 3127              	.LFE60:
 3128              		.size	TIM_ForcedOC3Config, .-TIM_ForcedOC3Config
 3129              		.align	1
 3130              		.global	TIM_ForcedOC4Config
 3131              		.syntax unified
 3132              		.thumb
 3133              		.thumb_func
 3134              		.fpu softvfp
 3135              		.type	TIM_ForcedOC4Config, %function
 3136              	TIM_ForcedOC4Config:
 3137              	.LFB61:
1377:../../source/src/FWlib/src/stm32f10x_tim.c **** 
1378:../../source/src/FWlib/src/stm32f10x_tim.c **** /**
1379:../../source/src/FWlib/src/stm32f10x_tim.c ****   * @brief  Forces the TIMx output 4 waveform to active or inactive level.
1380:../../source/src/FWlib/src/stm32f10x_tim.c ****   * @param  TIMx: where x can be  1, 2, 3, 4, 5 or 8 to select the TIM peripheral.
1381:../../source/src/FWlib/src/stm32f10x_tim.c ****   * @param  TIM_ForcedAction: specifies the forced Action to be set to the output waveform.
1382:../../source/src/FWlib/src/stm32f10x_tim.c ****   *   This parameter can be one of the following values:
1383:../../source/src/FWlib/src/stm32f10x_tim.c ****   *     @arg TIM_ForcedAction_Active: Force active level on OC4REF
1384:../../source/src/FWlib/src/stm32f10x_tim.c ****   *     @arg TIM_ForcedAction_InActive: Force inactive level on OC4REF.
1385:../../source/src/FWlib/src/stm32f10x_tim.c ****   * @retval None
1386:../../source/src/FWlib/src/stm32f10x_tim.c ****   */
1387:../../source/src/FWlib/src/stm32f10x_tim.c **** void TIM_ForcedOC4Config(TIM_TypeDef* TIMx, uint16_t TIM_ForcedAction)
1388:../../source/src/FWlib/src/stm32f10x_tim.c **** {
 3138              		.loc 1 1388 0
 3139              		.cfi_startproc
 3140              		@ args = 0, pretend = 0, frame = 16
 3141              		@ frame_needed = 1, uses_anonymous_args = 0
 3142              		@ link register save eliminated.
 3143 0e76 80B4     		push	{r7}
 3144              	.LCFI185:
 3145              		.cfi_def_cfa_offset 4
 3146              		.cfi_offset 7, -4
 3147 0e78 85B0     		sub	sp, sp, #20
 3148              	.LCFI186:
 3149              		.cfi_def_cfa_offset 24
 3150 0e7a 00AF     		add	r7, sp, #0
 3151              	.LCFI187:
 3152              		.cfi_def_cfa_register 7
 3153 0e7c 7860     		str	r0, [r7, #4]
 3154 0e7e 0B46     		mov	r3, r1
 3155 0e80 7B80     		strh	r3, [r7, #2]	@ movhi
1389:../../source/src/FWlib/src/stm32f10x_tim.c ****   uint16_t tmpccmr2 = 0;
 3156              		.loc 1 1389 0
 3157 0e82 0023     		movs	r3, #0
 3158 0e84 FB81     		strh	r3, [r7, #14]	@ movhi
1390:../../source/src/FWlib/src/stm32f10x_tim.c ****   /* Check the parameters */
ARM GAS  G:\Users\Jaxb\AppData\Local\Temp\ccSQWSCJ.s 			page 82


1391:../../source/src/FWlib/src/stm32f10x_tim.c ****   assert_param(IS_TIM_LIST3_PERIPH(TIMx));
1392:../../source/src/FWlib/src/stm32f10x_tim.c ****   assert_param(IS_TIM_FORCED_ACTION(TIM_ForcedAction));
1393:../../source/src/FWlib/src/stm32f10x_tim.c ****   tmpccmr2 = TIMx->CCMR2;
 3159              		.loc 1 1393 0
 3160 0e86 7B68     		ldr	r3, [r7, #4]
 3161 0e88 9B8B     		ldrh	r3, [r3, #28]	@ movhi
 3162 0e8a FB81     		strh	r3, [r7, #14]	@ movhi
1394:../../source/src/FWlib/src/stm32f10x_tim.c ****   /* Reset the OC2M Bits */
1395:../../source/src/FWlib/src/stm32f10x_tim.c ****   tmpccmr2 &= (uint16_t)~((uint16_t)TIM_CCMR2_OC4M);
 3163              		.loc 1 1395 0
 3164 0e8c FB89     		ldrh	r3, [r7, #14]	@ movhi
 3165 0e8e 23F4E043 		bic	r3, r3, #28672
 3166 0e92 FB81     		strh	r3, [r7, #14]	@ movhi
1396:../../source/src/FWlib/src/stm32f10x_tim.c ****   /* Configure The Forced output Mode */
1397:../../source/src/FWlib/src/stm32f10x_tim.c ****   tmpccmr2 |= (uint16_t)(TIM_ForcedAction << 8);
 3167              		.loc 1 1397 0
 3168 0e94 7B88     		ldrh	r3, [r7, #2]	@ movhi
 3169 0e96 1B02     		lsls	r3, r3, #8
 3170 0e98 9AB2     		uxth	r2, r3
 3171 0e9a FB89     		ldrh	r3, [r7, #14]	@ movhi
 3172 0e9c 1343     		orrs	r3, r3, r2
 3173 0e9e FB81     		strh	r3, [r7, #14]	@ movhi
1398:../../source/src/FWlib/src/stm32f10x_tim.c ****   /* Write to TIMx CCMR2 register */
1399:../../source/src/FWlib/src/stm32f10x_tim.c ****   TIMx->CCMR2 = tmpccmr2;
 3174              		.loc 1 1399 0
 3175 0ea0 7B68     		ldr	r3, [r7, #4]
 3176 0ea2 FA89     		ldrh	r2, [r7, #14]	@ movhi
 3177 0ea4 9A83     		strh	r2, [r3, #28]	@ movhi
1400:../../source/src/FWlib/src/stm32f10x_tim.c **** }
 3178              		.loc 1 1400 0
 3179 0ea6 00BF     		nop
 3180 0ea8 1437     		adds	r7, r7, #20
 3181              	.LCFI188:
 3182              		.cfi_def_cfa_offset 4
 3183 0eaa BD46     		mov	sp, r7
 3184              	.LCFI189:
 3185              		.cfi_def_cfa_register 13
 3186              		@ sp needed
 3187 0eac 80BC     		pop	{r7}
 3188              	.LCFI190:
 3189              		.cfi_restore 7
 3190              		.cfi_def_cfa_offset 0
 3191 0eae 7047     		bx	lr
 3192              		.cfi_endproc
 3193              	.LFE61:
 3194              		.size	TIM_ForcedOC4Config, .-TIM_ForcedOC4Config
 3195              		.align	1
 3196              		.global	TIM_ARRPreloadConfig
 3197              		.syntax unified
 3198              		.thumb
 3199              		.thumb_func
 3200              		.fpu softvfp
 3201              		.type	TIM_ARRPreloadConfig, %function
 3202              	TIM_ARRPreloadConfig:
 3203              	.LFB62:
1401:../../source/src/FWlib/src/stm32f10x_tim.c **** 
1402:../../source/src/FWlib/src/stm32f10x_tim.c **** /**
ARM GAS  G:\Users\Jaxb\AppData\Local\Temp\ccSQWSCJ.s 			page 83


1403:../../source/src/FWlib/src/stm32f10x_tim.c ****   * @brief  Enables or disables TIMx peripheral Preload register on ARR.
1404:../../source/src/FWlib/src/stm32f10x_tim.c ****   * @param  TIMx: where x can be  1 to 17 to select the TIM peripheral.
1405:../../source/src/FWlib/src/stm32f10x_tim.c ****   * @param  NewState: new state of the TIMx peripheral Preload register
1406:../../source/src/FWlib/src/stm32f10x_tim.c ****   *   This parameter can be: ENABLE or DISABLE.
1407:../../source/src/FWlib/src/stm32f10x_tim.c ****   * @retval None
1408:../../source/src/FWlib/src/stm32f10x_tim.c ****   */
1409:../../source/src/FWlib/src/stm32f10x_tim.c **** void TIM_ARRPreloadConfig(TIM_TypeDef* TIMx, FunctionalState NewState)
1410:../../source/src/FWlib/src/stm32f10x_tim.c **** {
 3204              		.loc 1 1410 0
 3205              		.cfi_startproc
 3206              		@ args = 0, pretend = 0, frame = 8
 3207              		@ frame_needed = 1, uses_anonymous_args = 0
 3208              		@ link register save eliminated.
 3209 0eb0 80B4     		push	{r7}
 3210              	.LCFI191:
 3211              		.cfi_def_cfa_offset 4
 3212              		.cfi_offset 7, -4
 3213 0eb2 83B0     		sub	sp, sp, #12
 3214              	.LCFI192:
 3215              		.cfi_def_cfa_offset 16
 3216 0eb4 00AF     		add	r7, sp, #0
 3217              	.LCFI193:
 3218              		.cfi_def_cfa_register 7
 3219 0eb6 7860     		str	r0, [r7, #4]
 3220 0eb8 0B46     		mov	r3, r1
 3221 0eba FB70     		strb	r3, [r7, #3]
1411:../../source/src/FWlib/src/stm32f10x_tim.c ****   /* Check the parameters */
1412:../../source/src/FWlib/src/stm32f10x_tim.c ****   assert_param(IS_TIM_ALL_PERIPH(TIMx));
1413:../../source/src/FWlib/src/stm32f10x_tim.c ****   assert_param(IS_FUNCTIONAL_STATE(NewState));
1414:../../source/src/FWlib/src/stm32f10x_tim.c ****   if (NewState != DISABLE)
 3222              		.loc 1 1414 0
 3223 0ebc FB78     		ldrb	r3, [r7, #3]	@ zero_extendqisi2
 3224 0ebe 002B     		cmp	r3, #0
 3225 0ec0 08D0     		beq	.L104
1415:../../source/src/FWlib/src/stm32f10x_tim.c ****   {
1416:../../source/src/FWlib/src/stm32f10x_tim.c ****     /* Set the ARR Preload Bit */
1417:../../source/src/FWlib/src/stm32f10x_tim.c ****     TIMx->CR1 |= TIM_CR1_ARPE;
 3226              		.loc 1 1417 0
 3227 0ec2 7B68     		ldr	r3, [r7, #4]
 3228 0ec4 1B88     		ldrh	r3, [r3]	@ movhi
 3229 0ec6 9BB2     		uxth	r3, r3
 3230 0ec8 43F08003 		orr	r3, r3, #128
 3231 0ecc 9AB2     		uxth	r2, r3
 3232 0ece 7B68     		ldr	r3, [r7, #4]
 3233 0ed0 1A80     		strh	r2, [r3]	@ movhi
1418:../../source/src/FWlib/src/stm32f10x_tim.c ****   }
1419:../../source/src/FWlib/src/stm32f10x_tim.c ****   else
1420:../../source/src/FWlib/src/stm32f10x_tim.c ****   {
1421:../../source/src/FWlib/src/stm32f10x_tim.c ****     /* Reset the ARR Preload Bit */
1422:../../source/src/FWlib/src/stm32f10x_tim.c ****     TIMx->CR1 &= (uint16_t)~((uint16_t)TIM_CR1_ARPE);
1423:../../source/src/FWlib/src/stm32f10x_tim.c ****   }
1424:../../source/src/FWlib/src/stm32f10x_tim.c **** }
 3234              		.loc 1 1424 0
 3235 0ed2 07E0     		b	.L106
 3236              	.L104:
1422:../../source/src/FWlib/src/stm32f10x_tim.c ****   }
 3237              		.loc 1 1422 0
ARM GAS  G:\Users\Jaxb\AppData\Local\Temp\ccSQWSCJ.s 			page 84


 3238 0ed4 7B68     		ldr	r3, [r7, #4]
 3239 0ed6 1B88     		ldrh	r3, [r3]	@ movhi
 3240 0ed8 9BB2     		uxth	r3, r3
 3241 0eda 23F08003 		bic	r3, r3, #128
 3242 0ede 9AB2     		uxth	r2, r3
 3243 0ee0 7B68     		ldr	r3, [r7, #4]
 3244 0ee2 1A80     		strh	r2, [r3]	@ movhi
 3245              	.L106:
 3246              		.loc 1 1424 0
 3247 0ee4 00BF     		nop
 3248 0ee6 0C37     		adds	r7, r7, #12
 3249              	.LCFI194:
 3250              		.cfi_def_cfa_offset 4
 3251 0ee8 BD46     		mov	sp, r7
 3252              	.LCFI195:
 3253              		.cfi_def_cfa_register 13
 3254              		@ sp needed
 3255 0eea 80BC     		pop	{r7}
 3256              	.LCFI196:
 3257              		.cfi_restore 7
 3258              		.cfi_def_cfa_offset 0
 3259 0eec 7047     		bx	lr
 3260              		.cfi_endproc
 3261              	.LFE62:
 3262              		.size	TIM_ARRPreloadConfig, .-TIM_ARRPreloadConfig
 3263              		.align	1
 3264              		.global	TIM_SelectCOM
 3265              		.syntax unified
 3266              		.thumb
 3267              		.thumb_func
 3268              		.fpu softvfp
 3269              		.type	TIM_SelectCOM, %function
 3270              	TIM_SelectCOM:
 3271              	.LFB63:
1425:../../source/src/FWlib/src/stm32f10x_tim.c **** 
1426:../../source/src/FWlib/src/stm32f10x_tim.c **** /**
1427:../../source/src/FWlib/src/stm32f10x_tim.c ****   * @brief  Selects the TIM peripheral Commutation event.
1428:../../source/src/FWlib/src/stm32f10x_tim.c ****   * @param  TIMx: where x can be  1, 8, 15, 16 or 17 to select the TIMx peripheral
1429:../../source/src/FWlib/src/stm32f10x_tim.c ****   * @param  NewState: new state of the Commutation event.
1430:../../source/src/FWlib/src/stm32f10x_tim.c ****   *   This parameter can be: ENABLE or DISABLE.
1431:../../source/src/FWlib/src/stm32f10x_tim.c ****   * @retval None
1432:../../source/src/FWlib/src/stm32f10x_tim.c ****   */
1433:../../source/src/FWlib/src/stm32f10x_tim.c **** void TIM_SelectCOM(TIM_TypeDef* TIMx, FunctionalState NewState)
1434:../../source/src/FWlib/src/stm32f10x_tim.c **** {
 3272              		.loc 1 1434 0
 3273              		.cfi_startproc
 3274              		@ args = 0, pretend = 0, frame = 8
 3275              		@ frame_needed = 1, uses_anonymous_args = 0
 3276              		@ link register save eliminated.
 3277 0eee 80B4     		push	{r7}
 3278              	.LCFI197:
 3279              		.cfi_def_cfa_offset 4
 3280              		.cfi_offset 7, -4
 3281 0ef0 83B0     		sub	sp, sp, #12
 3282              	.LCFI198:
 3283              		.cfi_def_cfa_offset 16
 3284 0ef2 00AF     		add	r7, sp, #0
ARM GAS  G:\Users\Jaxb\AppData\Local\Temp\ccSQWSCJ.s 			page 85


 3285              	.LCFI199:
 3286              		.cfi_def_cfa_register 7
 3287 0ef4 7860     		str	r0, [r7, #4]
 3288 0ef6 0B46     		mov	r3, r1
 3289 0ef8 FB70     		strb	r3, [r7, #3]
1435:../../source/src/FWlib/src/stm32f10x_tim.c ****   /* Check the parameters */
1436:../../source/src/FWlib/src/stm32f10x_tim.c ****   assert_param(IS_TIM_LIST2_PERIPH(TIMx));
1437:../../source/src/FWlib/src/stm32f10x_tim.c ****   assert_param(IS_FUNCTIONAL_STATE(NewState));
1438:../../source/src/FWlib/src/stm32f10x_tim.c ****   if (NewState != DISABLE)
 3290              		.loc 1 1438 0
 3291 0efa FB78     		ldrb	r3, [r7, #3]	@ zero_extendqisi2
 3292 0efc 002B     		cmp	r3, #0
 3293 0efe 08D0     		beq	.L108
1439:../../source/src/FWlib/src/stm32f10x_tim.c ****   {
1440:../../source/src/FWlib/src/stm32f10x_tim.c ****     /* Set the COM Bit */
1441:../../source/src/FWlib/src/stm32f10x_tim.c ****     TIMx->CR2 |= TIM_CR2_CCUS;
 3294              		.loc 1 1441 0
 3295 0f00 7B68     		ldr	r3, [r7, #4]
 3296 0f02 9B88     		ldrh	r3, [r3, #4]	@ movhi
 3297 0f04 9BB2     		uxth	r3, r3
 3298 0f06 43F00403 		orr	r3, r3, #4
 3299 0f0a 9AB2     		uxth	r2, r3
 3300 0f0c 7B68     		ldr	r3, [r7, #4]
 3301 0f0e 9A80     		strh	r2, [r3, #4]	@ movhi
1442:../../source/src/FWlib/src/stm32f10x_tim.c ****   }
1443:../../source/src/FWlib/src/stm32f10x_tim.c ****   else
1444:../../source/src/FWlib/src/stm32f10x_tim.c ****   {
1445:../../source/src/FWlib/src/stm32f10x_tim.c ****     /* Reset the COM Bit */
1446:../../source/src/FWlib/src/stm32f10x_tim.c ****     TIMx->CR2 &= (uint16_t)~((uint16_t)TIM_CR2_CCUS);
1447:../../source/src/FWlib/src/stm32f10x_tim.c ****   }
1448:../../source/src/FWlib/src/stm32f10x_tim.c **** }
 3302              		.loc 1 1448 0
 3303 0f10 07E0     		b	.L110
 3304              	.L108:
1446:../../source/src/FWlib/src/stm32f10x_tim.c ****   }
 3305              		.loc 1 1446 0
 3306 0f12 7B68     		ldr	r3, [r7, #4]
 3307 0f14 9B88     		ldrh	r3, [r3, #4]	@ movhi
 3308 0f16 9BB2     		uxth	r3, r3
 3309 0f18 23F00403 		bic	r3, r3, #4
 3310 0f1c 9AB2     		uxth	r2, r3
 3311 0f1e 7B68     		ldr	r3, [r7, #4]
 3312 0f20 9A80     		strh	r2, [r3, #4]	@ movhi
 3313              	.L110:
 3314              		.loc 1 1448 0
 3315 0f22 00BF     		nop
 3316 0f24 0C37     		adds	r7, r7, #12
 3317              	.LCFI200:
 3318              		.cfi_def_cfa_offset 4
 3319 0f26 BD46     		mov	sp, r7
 3320              	.LCFI201:
 3321              		.cfi_def_cfa_register 13
 3322              		@ sp needed
 3323 0f28 80BC     		pop	{r7}
 3324              	.LCFI202:
 3325              		.cfi_restore 7
 3326              		.cfi_def_cfa_offset 0
ARM GAS  G:\Users\Jaxb\AppData\Local\Temp\ccSQWSCJ.s 			page 86


 3327 0f2a 7047     		bx	lr
 3328              		.cfi_endproc
 3329              	.LFE63:
 3330              		.size	TIM_SelectCOM, .-TIM_SelectCOM
 3331              		.align	1
 3332              		.global	TIM_SelectCCDMA
 3333              		.syntax unified
 3334              		.thumb
 3335              		.thumb_func
 3336              		.fpu softvfp
 3337              		.type	TIM_SelectCCDMA, %function
 3338              	TIM_SelectCCDMA:
 3339              	.LFB64:
1449:../../source/src/FWlib/src/stm32f10x_tim.c **** 
1450:../../source/src/FWlib/src/stm32f10x_tim.c **** /**
1451:../../source/src/FWlib/src/stm32f10x_tim.c ****   * @brief  Selects the TIMx peripheral Capture Compare DMA source.
1452:../../source/src/FWlib/src/stm32f10x_tim.c ****   * @param  TIMx: where x can be  1, 2, 3, 4, 5, 8, 15, 16 or 17 to select 
1453:../../source/src/FWlib/src/stm32f10x_tim.c ****   *         the TIM peripheral.
1454:../../source/src/FWlib/src/stm32f10x_tim.c ****   * @param  NewState: new state of the Capture Compare DMA source
1455:../../source/src/FWlib/src/stm32f10x_tim.c ****   *   This parameter can be: ENABLE or DISABLE.
1456:../../source/src/FWlib/src/stm32f10x_tim.c ****   * @retval None
1457:../../source/src/FWlib/src/stm32f10x_tim.c ****   */
1458:../../source/src/FWlib/src/stm32f10x_tim.c **** void TIM_SelectCCDMA(TIM_TypeDef* TIMx, FunctionalState NewState)
1459:../../source/src/FWlib/src/stm32f10x_tim.c **** {
 3340              		.loc 1 1459 0
 3341              		.cfi_startproc
 3342              		@ args = 0, pretend = 0, frame = 8
 3343              		@ frame_needed = 1, uses_anonymous_args = 0
 3344              		@ link register save eliminated.
 3345 0f2c 80B4     		push	{r7}
 3346              	.LCFI203:
 3347              		.cfi_def_cfa_offset 4
 3348              		.cfi_offset 7, -4
 3349 0f2e 83B0     		sub	sp, sp, #12
 3350              	.LCFI204:
 3351              		.cfi_def_cfa_offset 16
 3352 0f30 00AF     		add	r7, sp, #0
 3353              	.LCFI205:
 3354              		.cfi_def_cfa_register 7
 3355 0f32 7860     		str	r0, [r7, #4]
 3356 0f34 0B46     		mov	r3, r1
 3357 0f36 FB70     		strb	r3, [r7, #3]
1460:../../source/src/FWlib/src/stm32f10x_tim.c ****   /* Check the parameters */
1461:../../source/src/FWlib/src/stm32f10x_tim.c ****   assert_param(IS_TIM_LIST4_PERIPH(TIMx));
1462:../../source/src/FWlib/src/stm32f10x_tim.c ****   assert_param(IS_FUNCTIONAL_STATE(NewState));
1463:../../source/src/FWlib/src/stm32f10x_tim.c ****   if (NewState != DISABLE)
 3358              		.loc 1 1463 0
 3359 0f38 FB78     		ldrb	r3, [r7, #3]	@ zero_extendqisi2
 3360 0f3a 002B     		cmp	r3, #0
 3361 0f3c 08D0     		beq	.L112
1464:../../source/src/FWlib/src/stm32f10x_tim.c ****   {
1465:../../source/src/FWlib/src/stm32f10x_tim.c ****     /* Set the CCDS Bit */
1466:../../source/src/FWlib/src/stm32f10x_tim.c ****     TIMx->CR2 |= TIM_CR2_CCDS;
 3362              		.loc 1 1466 0
 3363 0f3e 7B68     		ldr	r3, [r7, #4]
 3364 0f40 9B88     		ldrh	r3, [r3, #4]	@ movhi
 3365 0f42 9BB2     		uxth	r3, r3
ARM GAS  G:\Users\Jaxb\AppData\Local\Temp\ccSQWSCJ.s 			page 87


 3366 0f44 43F00803 		orr	r3, r3, #8
 3367 0f48 9AB2     		uxth	r2, r3
 3368 0f4a 7B68     		ldr	r3, [r7, #4]
 3369 0f4c 9A80     		strh	r2, [r3, #4]	@ movhi
1467:../../source/src/FWlib/src/stm32f10x_tim.c ****   }
1468:../../source/src/FWlib/src/stm32f10x_tim.c ****   else
1469:../../source/src/FWlib/src/stm32f10x_tim.c ****   {
1470:../../source/src/FWlib/src/stm32f10x_tim.c ****     /* Reset the CCDS Bit */
1471:../../source/src/FWlib/src/stm32f10x_tim.c ****     TIMx->CR2 &= (uint16_t)~((uint16_t)TIM_CR2_CCDS);
1472:../../source/src/FWlib/src/stm32f10x_tim.c ****   }
1473:../../source/src/FWlib/src/stm32f10x_tim.c **** }
 3370              		.loc 1 1473 0
 3371 0f4e 07E0     		b	.L114
 3372              	.L112:
1471:../../source/src/FWlib/src/stm32f10x_tim.c ****   }
 3373              		.loc 1 1471 0
 3374 0f50 7B68     		ldr	r3, [r7, #4]
 3375 0f52 9B88     		ldrh	r3, [r3, #4]	@ movhi
 3376 0f54 9BB2     		uxth	r3, r3
 3377 0f56 23F00803 		bic	r3, r3, #8
 3378 0f5a 9AB2     		uxth	r2, r3
 3379 0f5c 7B68     		ldr	r3, [r7, #4]
 3380 0f5e 9A80     		strh	r2, [r3, #4]	@ movhi
 3381              	.L114:
 3382              		.loc 1 1473 0
 3383 0f60 00BF     		nop
 3384 0f62 0C37     		adds	r7, r7, #12
 3385              	.LCFI206:
 3386              		.cfi_def_cfa_offset 4
 3387 0f64 BD46     		mov	sp, r7
 3388              	.LCFI207:
 3389              		.cfi_def_cfa_register 13
 3390              		@ sp needed
 3391 0f66 80BC     		pop	{r7}
 3392              	.LCFI208:
 3393              		.cfi_restore 7
 3394              		.cfi_def_cfa_offset 0
 3395 0f68 7047     		bx	lr
 3396              		.cfi_endproc
 3397              	.LFE64:
 3398              		.size	TIM_SelectCCDMA, .-TIM_SelectCCDMA
 3399              		.align	1
 3400              		.global	TIM_CCPreloadControl
 3401              		.syntax unified
 3402              		.thumb
 3403              		.thumb_func
 3404              		.fpu softvfp
 3405              		.type	TIM_CCPreloadControl, %function
 3406              	TIM_CCPreloadControl:
 3407              	.LFB65:
1474:../../source/src/FWlib/src/stm32f10x_tim.c **** 
1475:../../source/src/FWlib/src/stm32f10x_tim.c **** /**
1476:../../source/src/FWlib/src/stm32f10x_tim.c ****   * @brief  Sets or Resets the TIM peripheral Capture Compare Preload Control bit.
1477:../../source/src/FWlib/src/stm32f10x_tim.c ****   * @param  TIMx: where x can be   1, 2, 3, 4, 5, 8 or 15 
1478:../../source/src/FWlib/src/stm32f10x_tim.c ****   *         to select the TIMx peripheral
1479:../../source/src/FWlib/src/stm32f10x_tim.c ****   * @param  NewState: new state of the Capture Compare Preload Control bit
1480:../../source/src/FWlib/src/stm32f10x_tim.c ****   *   This parameter can be: ENABLE or DISABLE.
ARM GAS  G:\Users\Jaxb\AppData\Local\Temp\ccSQWSCJ.s 			page 88


1481:../../source/src/FWlib/src/stm32f10x_tim.c ****   * @retval None
1482:../../source/src/FWlib/src/stm32f10x_tim.c ****   */
1483:../../source/src/FWlib/src/stm32f10x_tim.c **** void TIM_CCPreloadControl(TIM_TypeDef* TIMx, FunctionalState NewState)
1484:../../source/src/FWlib/src/stm32f10x_tim.c **** { 
 3408              		.loc 1 1484 0
 3409              		.cfi_startproc
 3410              		@ args = 0, pretend = 0, frame = 8
 3411              		@ frame_needed = 1, uses_anonymous_args = 0
 3412              		@ link register save eliminated.
 3413 0f6a 80B4     		push	{r7}
 3414              	.LCFI209:
 3415              		.cfi_def_cfa_offset 4
 3416              		.cfi_offset 7, -4
 3417 0f6c 83B0     		sub	sp, sp, #12
 3418              	.LCFI210:
 3419              		.cfi_def_cfa_offset 16
 3420 0f6e 00AF     		add	r7, sp, #0
 3421              	.LCFI211:
 3422              		.cfi_def_cfa_register 7
 3423 0f70 7860     		str	r0, [r7, #4]
 3424 0f72 0B46     		mov	r3, r1
 3425 0f74 FB70     		strb	r3, [r7, #3]
1485:../../source/src/FWlib/src/stm32f10x_tim.c ****   /* Check the parameters */
1486:../../source/src/FWlib/src/stm32f10x_tim.c ****   assert_param(IS_TIM_LIST5_PERIPH(TIMx));
1487:../../source/src/FWlib/src/stm32f10x_tim.c ****   assert_param(IS_FUNCTIONAL_STATE(NewState));
1488:../../source/src/FWlib/src/stm32f10x_tim.c ****   if (NewState != DISABLE)
 3426              		.loc 1 1488 0
 3427 0f76 FB78     		ldrb	r3, [r7, #3]	@ zero_extendqisi2
 3428 0f78 002B     		cmp	r3, #0
 3429 0f7a 08D0     		beq	.L116
1489:../../source/src/FWlib/src/stm32f10x_tim.c ****   {
1490:../../source/src/FWlib/src/stm32f10x_tim.c ****     /* Set the CCPC Bit */
1491:../../source/src/FWlib/src/stm32f10x_tim.c ****     TIMx->CR2 |= TIM_CR2_CCPC;
 3430              		.loc 1 1491 0
 3431 0f7c 7B68     		ldr	r3, [r7, #4]
 3432 0f7e 9B88     		ldrh	r3, [r3, #4]	@ movhi
 3433 0f80 9BB2     		uxth	r3, r3
 3434 0f82 43F00103 		orr	r3, r3, #1
 3435 0f86 9AB2     		uxth	r2, r3
 3436 0f88 7B68     		ldr	r3, [r7, #4]
 3437 0f8a 9A80     		strh	r2, [r3, #4]	@ movhi
1492:../../source/src/FWlib/src/stm32f10x_tim.c ****   }
1493:../../source/src/FWlib/src/stm32f10x_tim.c ****   else
1494:../../source/src/FWlib/src/stm32f10x_tim.c ****   {
1495:../../source/src/FWlib/src/stm32f10x_tim.c ****     /* Reset the CCPC Bit */
1496:../../source/src/FWlib/src/stm32f10x_tim.c ****     TIMx->CR2 &= (uint16_t)~((uint16_t)TIM_CR2_CCPC);
1497:../../source/src/FWlib/src/stm32f10x_tim.c ****   }
1498:../../source/src/FWlib/src/stm32f10x_tim.c **** }
 3438              		.loc 1 1498 0
 3439 0f8c 07E0     		b	.L118
 3440              	.L116:
1496:../../source/src/FWlib/src/stm32f10x_tim.c ****   }
 3441              		.loc 1 1496 0
 3442 0f8e 7B68     		ldr	r3, [r7, #4]
 3443 0f90 9B88     		ldrh	r3, [r3, #4]	@ movhi
 3444 0f92 9BB2     		uxth	r3, r3
 3445 0f94 23F00103 		bic	r3, r3, #1
ARM GAS  G:\Users\Jaxb\AppData\Local\Temp\ccSQWSCJ.s 			page 89


 3446 0f98 9AB2     		uxth	r2, r3
 3447 0f9a 7B68     		ldr	r3, [r7, #4]
 3448 0f9c 9A80     		strh	r2, [r3, #4]	@ movhi
 3449              	.L118:
 3450              		.loc 1 1498 0
 3451 0f9e 00BF     		nop
 3452 0fa0 0C37     		adds	r7, r7, #12
 3453              	.LCFI212:
 3454              		.cfi_def_cfa_offset 4
 3455 0fa2 BD46     		mov	sp, r7
 3456              	.LCFI213:
 3457              		.cfi_def_cfa_register 13
 3458              		@ sp needed
 3459 0fa4 80BC     		pop	{r7}
 3460              	.LCFI214:
 3461              		.cfi_restore 7
 3462              		.cfi_def_cfa_offset 0
 3463 0fa6 7047     		bx	lr
 3464              		.cfi_endproc
 3465              	.LFE65:
 3466              		.size	TIM_CCPreloadControl, .-TIM_CCPreloadControl
 3467              		.align	1
 3468              		.global	TIM_OC1PreloadConfig
 3469              		.syntax unified
 3470              		.thumb
 3471              		.thumb_func
 3472              		.fpu softvfp
 3473              		.type	TIM_OC1PreloadConfig, %function
 3474              	TIM_OC1PreloadConfig:
 3475              	.LFB66:
1499:../../source/src/FWlib/src/stm32f10x_tim.c **** 
1500:../../source/src/FWlib/src/stm32f10x_tim.c **** /**
1501:../../source/src/FWlib/src/stm32f10x_tim.c ****   * @brief  Enables or disables the TIMx peripheral Preload register on CCR1.
1502:../../source/src/FWlib/src/stm32f10x_tim.c ****   * @param  TIMx: where x can be  1 to 17 except 6 and 7 to select the TIM peripheral.
1503:../../source/src/FWlib/src/stm32f10x_tim.c ****   * @param  TIM_OCPreload: new state of the TIMx peripheral Preload register
1504:../../source/src/FWlib/src/stm32f10x_tim.c ****   *   This parameter can be one of the following values:
1505:../../source/src/FWlib/src/stm32f10x_tim.c ****   *     @arg TIM_OCPreload_Enable
1506:../../source/src/FWlib/src/stm32f10x_tim.c ****   *     @arg TIM_OCPreload_Disable
1507:../../source/src/FWlib/src/stm32f10x_tim.c ****   * @retval None
1508:../../source/src/FWlib/src/stm32f10x_tim.c ****   */
1509:../../source/src/FWlib/src/stm32f10x_tim.c **** void TIM_OC1PreloadConfig(TIM_TypeDef* TIMx, uint16_t TIM_OCPreload)
1510:../../source/src/FWlib/src/stm32f10x_tim.c **** {
 3476              		.loc 1 1510 0
 3477              		.cfi_startproc
 3478              		@ args = 0, pretend = 0, frame = 16
 3479              		@ frame_needed = 1, uses_anonymous_args = 0
 3480              		@ link register save eliminated.
 3481 0fa8 80B4     		push	{r7}
 3482              	.LCFI215:
 3483              		.cfi_def_cfa_offset 4
 3484              		.cfi_offset 7, -4
 3485 0faa 85B0     		sub	sp, sp, #20
 3486              	.LCFI216:
 3487              		.cfi_def_cfa_offset 24
 3488 0fac 00AF     		add	r7, sp, #0
 3489              	.LCFI217:
 3490              		.cfi_def_cfa_register 7
ARM GAS  G:\Users\Jaxb\AppData\Local\Temp\ccSQWSCJ.s 			page 90


 3491 0fae 7860     		str	r0, [r7, #4]
 3492 0fb0 0B46     		mov	r3, r1
 3493 0fb2 7B80     		strh	r3, [r7, #2]	@ movhi
1511:../../source/src/FWlib/src/stm32f10x_tim.c ****   uint16_t tmpccmr1 = 0;
 3494              		.loc 1 1511 0
 3495 0fb4 0023     		movs	r3, #0
 3496 0fb6 FB81     		strh	r3, [r7, #14]	@ movhi
1512:../../source/src/FWlib/src/stm32f10x_tim.c ****   /* Check the parameters */
1513:../../source/src/FWlib/src/stm32f10x_tim.c ****   assert_param(IS_TIM_LIST8_PERIPH(TIMx));
1514:../../source/src/FWlib/src/stm32f10x_tim.c ****   assert_param(IS_TIM_OCPRELOAD_STATE(TIM_OCPreload));
1515:../../source/src/FWlib/src/stm32f10x_tim.c ****   tmpccmr1 = TIMx->CCMR1;
 3497              		.loc 1 1515 0
 3498 0fb8 7B68     		ldr	r3, [r7, #4]
 3499 0fba 1B8B     		ldrh	r3, [r3, #24]	@ movhi
 3500 0fbc FB81     		strh	r3, [r7, #14]	@ movhi
1516:../../source/src/FWlib/src/stm32f10x_tim.c ****   /* Reset the OC1PE Bit */
1517:../../source/src/FWlib/src/stm32f10x_tim.c ****   tmpccmr1 &= (uint16_t)~((uint16_t)TIM_CCMR1_OC1PE);
 3501              		.loc 1 1517 0
 3502 0fbe FB89     		ldrh	r3, [r7, #14]	@ movhi
 3503 0fc0 23F00803 		bic	r3, r3, #8
 3504 0fc4 FB81     		strh	r3, [r7, #14]	@ movhi
1518:../../source/src/FWlib/src/stm32f10x_tim.c ****   /* Enable or Disable the Output Compare Preload feature */
1519:../../source/src/FWlib/src/stm32f10x_tim.c ****   tmpccmr1 |= TIM_OCPreload;
 3505              		.loc 1 1519 0
 3506 0fc6 FA89     		ldrh	r2, [r7, #14]	@ movhi
 3507 0fc8 7B88     		ldrh	r3, [r7, #2]	@ movhi
 3508 0fca 1343     		orrs	r3, r3, r2
 3509 0fcc FB81     		strh	r3, [r7, #14]	@ movhi
1520:../../source/src/FWlib/src/stm32f10x_tim.c ****   /* Write to TIMx CCMR1 register */
1521:../../source/src/FWlib/src/stm32f10x_tim.c ****   TIMx->CCMR1 = tmpccmr1;
 3510              		.loc 1 1521 0
 3511 0fce 7B68     		ldr	r3, [r7, #4]
 3512 0fd0 FA89     		ldrh	r2, [r7, #14]	@ movhi
 3513 0fd2 1A83     		strh	r2, [r3, #24]	@ movhi
1522:../../source/src/FWlib/src/stm32f10x_tim.c **** }
 3514              		.loc 1 1522 0
 3515 0fd4 00BF     		nop
 3516 0fd6 1437     		adds	r7, r7, #20
 3517              	.LCFI218:
 3518              		.cfi_def_cfa_offset 4
 3519 0fd8 BD46     		mov	sp, r7
 3520              	.LCFI219:
 3521              		.cfi_def_cfa_register 13
 3522              		@ sp needed
 3523 0fda 80BC     		pop	{r7}
 3524              	.LCFI220:
 3525              		.cfi_restore 7
 3526              		.cfi_def_cfa_offset 0
 3527 0fdc 7047     		bx	lr
 3528              		.cfi_endproc
 3529              	.LFE66:
 3530              		.size	TIM_OC1PreloadConfig, .-TIM_OC1PreloadConfig
 3531              		.align	1
 3532              		.global	TIM_OC2PreloadConfig
 3533              		.syntax unified
 3534              		.thumb
 3535              		.thumb_func
ARM GAS  G:\Users\Jaxb\AppData\Local\Temp\ccSQWSCJ.s 			page 91


 3536              		.fpu softvfp
 3537              		.type	TIM_OC2PreloadConfig, %function
 3538              	TIM_OC2PreloadConfig:
 3539              	.LFB67:
1523:../../source/src/FWlib/src/stm32f10x_tim.c **** 
1524:../../source/src/FWlib/src/stm32f10x_tim.c **** /**
1525:../../source/src/FWlib/src/stm32f10x_tim.c ****   * @brief  Enables or disables the TIMx peripheral Preload register on CCR2.
1526:../../source/src/FWlib/src/stm32f10x_tim.c ****   * @param  TIMx: where x can be  1, 2, 3, 4, 5, 8, 9, 12 or 15 to select 
1527:../../source/src/FWlib/src/stm32f10x_tim.c ****   *         the TIM peripheral.
1528:../../source/src/FWlib/src/stm32f10x_tim.c ****   * @param  TIM_OCPreload: new state of the TIMx peripheral Preload register
1529:../../source/src/FWlib/src/stm32f10x_tim.c ****   *   This parameter can be one of the following values:
1530:../../source/src/FWlib/src/stm32f10x_tim.c ****   *     @arg TIM_OCPreload_Enable
1531:../../source/src/FWlib/src/stm32f10x_tim.c ****   *     @arg TIM_OCPreload_Disable
1532:../../source/src/FWlib/src/stm32f10x_tim.c ****   * @retval None
1533:../../source/src/FWlib/src/stm32f10x_tim.c ****   */
1534:../../source/src/FWlib/src/stm32f10x_tim.c **** void TIM_OC2PreloadConfig(TIM_TypeDef* TIMx, uint16_t TIM_OCPreload)
1535:../../source/src/FWlib/src/stm32f10x_tim.c **** {
 3540              		.loc 1 1535 0
 3541              		.cfi_startproc
 3542              		@ args = 0, pretend = 0, frame = 16
 3543              		@ frame_needed = 1, uses_anonymous_args = 0
 3544              		@ link register save eliminated.
 3545 0fde 80B4     		push	{r7}
 3546              	.LCFI221:
 3547              		.cfi_def_cfa_offset 4
 3548              		.cfi_offset 7, -4
 3549 0fe0 85B0     		sub	sp, sp, #20
 3550              	.LCFI222:
 3551              		.cfi_def_cfa_offset 24
 3552 0fe2 00AF     		add	r7, sp, #0
 3553              	.LCFI223:
 3554              		.cfi_def_cfa_register 7
 3555 0fe4 7860     		str	r0, [r7, #4]
 3556 0fe6 0B46     		mov	r3, r1
 3557 0fe8 7B80     		strh	r3, [r7, #2]	@ movhi
1536:../../source/src/FWlib/src/stm32f10x_tim.c ****   uint16_t tmpccmr1 = 0;
 3558              		.loc 1 1536 0
 3559 0fea 0023     		movs	r3, #0
 3560 0fec FB81     		strh	r3, [r7, #14]	@ movhi
1537:../../source/src/FWlib/src/stm32f10x_tim.c ****   /* Check the parameters */
1538:../../source/src/FWlib/src/stm32f10x_tim.c ****   assert_param(IS_TIM_LIST6_PERIPH(TIMx));
1539:../../source/src/FWlib/src/stm32f10x_tim.c ****   assert_param(IS_TIM_OCPRELOAD_STATE(TIM_OCPreload));
1540:../../source/src/FWlib/src/stm32f10x_tim.c ****   tmpccmr1 = TIMx->CCMR1;
 3561              		.loc 1 1540 0
 3562 0fee 7B68     		ldr	r3, [r7, #4]
 3563 0ff0 1B8B     		ldrh	r3, [r3, #24]	@ movhi
 3564 0ff2 FB81     		strh	r3, [r7, #14]	@ movhi
1541:../../source/src/FWlib/src/stm32f10x_tim.c ****   /* Reset the OC2PE Bit */
1542:../../source/src/FWlib/src/stm32f10x_tim.c ****   tmpccmr1 &= (uint16_t)~((uint16_t)TIM_CCMR1_OC2PE);
 3565              		.loc 1 1542 0
 3566 0ff4 FB89     		ldrh	r3, [r7, #14]	@ movhi
 3567 0ff6 23F40063 		bic	r3, r3, #2048
 3568 0ffa FB81     		strh	r3, [r7, #14]	@ movhi
1543:../../source/src/FWlib/src/stm32f10x_tim.c ****   /* Enable or Disable the Output Compare Preload feature */
1544:../../source/src/FWlib/src/stm32f10x_tim.c ****   tmpccmr1 |= (uint16_t)(TIM_OCPreload << 8);
 3569              		.loc 1 1544 0
 3570 0ffc 7B88     		ldrh	r3, [r7, #2]	@ movhi
ARM GAS  G:\Users\Jaxb\AppData\Local\Temp\ccSQWSCJ.s 			page 92


 3571 0ffe 1B02     		lsls	r3, r3, #8
 3572 1000 9AB2     		uxth	r2, r3
 3573 1002 FB89     		ldrh	r3, [r7, #14]	@ movhi
 3574 1004 1343     		orrs	r3, r3, r2
 3575 1006 FB81     		strh	r3, [r7, #14]	@ movhi
1545:../../source/src/FWlib/src/stm32f10x_tim.c ****   /* Write to TIMx CCMR1 register */
1546:../../source/src/FWlib/src/stm32f10x_tim.c ****   TIMx->CCMR1 = tmpccmr1;
 3576              		.loc 1 1546 0
 3577 1008 7B68     		ldr	r3, [r7, #4]
 3578 100a FA89     		ldrh	r2, [r7, #14]	@ movhi
 3579 100c 1A83     		strh	r2, [r3, #24]	@ movhi
1547:../../source/src/FWlib/src/stm32f10x_tim.c **** }
 3580              		.loc 1 1547 0
 3581 100e 00BF     		nop
 3582 1010 1437     		adds	r7, r7, #20
 3583              	.LCFI224:
 3584              		.cfi_def_cfa_offset 4
 3585 1012 BD46     		mov	sp, r7
 3586              	.LCFI225:
 3587              		.cfi_def_cfa_register 13
 3588              		@ sp needed
 3589 1014 80BC     		pop	{r7}
 3590              	.LCFI226:
 3591              		.cfi_restore 7
 3592              		.cfi_def_cfa_offset 0
 3593 1016 7047     		bx	lr
 3594              		.cfi_endproc
 3595              	.LFE67:
 3596              		.size	TIM_OC2PreloadConfig, .-TIM_OC2PreloadConfig
 3597              		.align	1
 3598              		.global	TIM_OC3PreloadConfig
 3599              		.syntax unified
 3600              		.thumb
 3601              		.thumb_func
 3602              		.fpu softvfp
 3603              		.type	TIM_OC3PreloadConfig, %function
 3604              	TIM_OC3PreloadConfig:
 3605              	.LFB68:
1548:../../source/src/FWlib/src/stm32f10x_tim.c **** 
1549:../../source/src/FWlib/src/stm32f10x_tim.c **** /**
1550:../../source/src/FWlib/src/stm32f10x_tim.c ****   * @brief  Enables or disables the TIMx peripheral Preload register on CCR3.
1551:../../source/src/FWlib/src/stm32f10x_tim.c ****   * @param  TIMx: where x can be  1, 2, 3, 4, 5 or 8 to select the TIM peripheral.
1552:../../source/src/FWlib/src/stm32f10x_tim.c ****   * @param  TIM_OCPreload: new state of the TIMx peripheral Preload register
1553:../../source/src/FWlib/src/stm32f10x_tim.c ****   *   This parameter can be one of the following values:
1554:../../source/src/FWlib/src/stm32f10x_tim.c ****   *     @arg TIM_OCPreload_Enable
1555:../../source/src/FWlib/src/stm32f10x_tim.c ****   *     @arg TIM_OCPreload_Disable
1556:../../source/src/FWlib/src/stm32f10x_tim.c ****   * @retval None
1557:../../source/src/FWlib/src/stm32f10x_tim.c ****   */
1558:../../source/src/FWlib/src/stm32f10x_tim.c **** void TIM_OC3PreloadConfig(TIM_TypeDef* TIMx, uint16_t TIM_OCPreload)
1559:../../source/src/FWlib/src/stm32f10x_tim.c **** {
 3606              		.loc 1 1559 0
 3607              		.cfi_startproc
 3608              		@ args = 0, pretend = 0, frame = 16
 3609              		@ frame_needed = 1, uses_anonymous_args = 0
 3610              		@ link register save eliminated.
 3611 1018 80B4     		push	{r7}
 3612              	.LCFI227:
ARM GAS  G:\Users\Jaxb\AppData\Local\Temp\ccSQWSCJ.s 			page 93


 3613              		.cfi_def_cfa_offset 4
 3614              		.cfi_offset 7, -4
 3615 101a 85B0     		sub	sp, sp, #20
 3616              	.LCFI228:
 3617              		.cfi_def_cfa_offset 24
 3618 101c 00AF     		add	r7, sp, #0
 3619              	.LCFI229:
 3620              		.cfi_def_cfa_register 7
 3621 101e 7860     		str	r0, [r7, #4]
 3622 1020 0B46     		mov	r3, r1
 3623 1022 7B80     		strh	r3, [r7, #2]	@ movhi
1560:../../source/src/FWlib/src/stm32f10x_tim.c ****   uint16_t tmpccmr2 = 0;
 3624              		.loc 1 1560 0
 3625 1024 0023     		movs	r3, #0
 3626 1026 FB81     		strh	r3, [r7, #14]	@ movhi
1561:../../source/src/FWlib/src/stm32f10x_tim.c ****   /* Check the parameters */
1562:../../source/src/FWlib/src/stm32f10x_tim.c ****   assert_param(IS_TIM_LIST3_PERIPH(TIMx));
1563:../../source/src/FWlib/src/stm32f10x_tim.c ****   assert_param(IS_TIM_OCPRELOAD_STATE(TIM_OCPreload));
1564:../../source/src/FWlib/src/stm32f10x_tim.c ****   tmpccmr2 = TIMx->CCMR2;
 3627              		.loc 1 1564 0
 3628 1028 7B68     		ldr	r3, [r7, #4]
 3629 102a 9B8B     		ldrh	r3, [r3, #28]	@ movhi
 3630 102c FB81     		strh	r3, [r7, #14]	@ movhi
1565:../../source/src/FWlib/src/stm32f10x_tim.c ****   /* Reset the OC3PE Bit */
1566:../../source/src/FWlib/src/stm32f10x_tim.c ****   tmpccmr2 &= (uint16_t)~((uint16_t)TIM_CCMR2_OC3PE);
 3631              		.loc 1 1566 0
 3632 102e FB89     		ldrh	r3, [r7, #14]	@ movhi
 3633 1030 23F00803 		bic	r3, r3, #8
 3634 1034 FB81     		strh	r3, [r7, #14]	@ movhi
1567:../../source/src/FWlib/src/stm32f10x_tim.c ****   /* Enable or Disable the Output Compare Preload feature */
1568:../../source/src/FWlib/src/stm32f10x_tim.c ****   tmpccmr2 |= TIM_OCPreload;
 3635              		.loc 1 1568 0
 3636 1036 FA89     		ldrh	r2, [r7, #14]	@ movhi
 3637 1038 7B88     		ldrh	r3, [r7, #2]	@ movhi
 3638 103a 1343     		orrs	r3, r3, r2
 3639 103c FB81     		strh	r3, [r7, #14]	@ movhi
1569:../../source/src/FWlib/src/stm32f10x_tim.c ****   /* Write to TIMx CCMR2 register */
1570:../../source/src/FWlib/src/stm32f10x_tim.c ****   TIMx->CCMR2 = tmpccmr2;
 3640              		.loc 1 1570 0
 3641 103e 7B68     		ldr	r3, [r7, #4]
 3642 1040 FA89     		ldrh	r2, [r7, #14]	@ movhi
 3643 1042 9A83     		strh	r2, [r3, #28]	@ movhi
1571:../../source/src/FWlib/src/stm32f10x_tim.c **** }
 3644              		.loc 1 1571 0
 3645 1044 00BF     		nop
 3646 1046 1437     		adds	r7, r7, #20
 3647              	.LCFI230:
 3648              		.cfi_def_cfa_offset 4
 3649 1048 BD46     		mov	sp, r7
 3650              	.LCFI231:
 3651              		.cfi_def_cfa_register 13
 3652              		@ sp needed
 3653 104a 80BC     		pop	{r7}
 3654              	.LCFI232:
 3655              		.cfi_restore 7
 3656              		.cfi_def_cfa_offset 0
 3657 104c 7047     		bx	lr
ARM GAS  G:\Users\Jaxb\AppData\Local\Temp\ccSQWSCJ.s 			page 94


 3658              		.cfi_endproc
 3659              	.LFE68:
 3660              		.size	TIM_OC3PreloadConfig, .-TIM_OC3PreloadConfig
 3661              		.align	1
 3662              		.global	TIM_OC4PreloadConfig
 3663              		.syntax unified
 3664              		.thumb
 3665              		.thumb_func
 3666              		.fpu softvfp
 3667              		.type	TIM_OC4PreloadConfig, %function
 3668              	TIM_OC4PreloadConfig:
 3669              	.LFB69:
1572:../../source/src/FWlib/src/stm32f10x_tim.c **** 
1573:../../source/src/FWlib/src/stm32f10x_tim.c **** /**
1574:../../source/src/FWlib/src/stm32f10x_tim.c ****   * @brief  Enables or disables the TIMx peripheral Preload register on CCR4.
1575:../../source/src/FWlib/src/stm32f10x_tim.c ****   * @param  TIMx: where x can be  1, 2, 3, 4, 5 or 8 to select the TIM peripheral.
1576:../../source/src/FWlib/src/stm32f10x_tim.c ****   * @param  TIM_OCPreload: new state of the TIMx peripheral Preload register
1577:../../source/src/FWlib/src/stm32f10x_tim.c ****   *   This parameter can be one of the following values:
1578:../../source/src/FWlib/src/stm32f10x_tim.c ****   *     @arg TIM_OCPreload_Enable
1579:../../source/src/FWlib/src/stm32f10x_tim.c ****   *     @arg TIM_OCPreload_Disable
1580:../../source/src/FWlib/src/stm32f10x_tim.c ****   * @retval None
1581:../../source/src/FWlib/src/stm32f10x_tim.c ****   */
1582:../../source/src/FWlib/src/stm32f10x_tim.c **** void TIM_OC4PreloadConfig(TIM_TypeDef* TIMx, uint16_t TIM_OCPreload)
1583:../../source/src/FWlib/src/stm32f10x_tim.c **** {
 3670              		.loc 1 1583 0
 3671              		.cfi_startproc
 3672              		@ args = 0, pretend = 0, frame = 16
 3673              		@ frame_needed = 1, uses_anonymous_args = 0
 3674              		@ link register save eliminated.
 3675 104e 80B4     		push	{r7}
 3676              	.LCFI233:
 3677              		.cfi_def_cfa_offset 4
 3678              		.cfi_offset 7, -4
 3679 1050 85B0     		sub	sp, sp, #20
 3680              	.LCFI234:
 3681              		.cfi_def_cfa_offset 24
 3682 1052 00AF     		add	r7, sp, #0
 3683              	.LCFI235:
 3684              		.cfi_def_cfa_register 7
 3685 1054 7860     		str	r0, [r7, #4]
 3686 1056 0B46     		mov	r3, r1
 3687 1058 7B80     		strh	r3, [r7, #2]	@ movhi
1584:../../source/src/FWlib/src/stm32f10x_tim.c ****   uint16_t tmpccmr2 = 0;
 3688              		.loc 1 1584 0
 3689 105a 0023     		movs	r3, #0
 3690 105c FB81     		strh	r3, [r7, #14]	@ movhi
1585:../../source/src/FWlib/src/stm32f10x_tim.c ****   /* Check the parameters */
1586:../../source/src/FWlib/src/stm32f10x_tim.c ****   assert_param(IS_TIM_LIST3_PERIPH(TIMx));
1587:../../source/src/FWlib/src/stm32f10x_tim.c ****   assert_param(IS_TIM_OCPRELOAD_STATE(TIM_OCPreload));
1588:../../source/src/FWlib/src/stm32f10x_tim.c ****   tmpccmr2 = TIMx->CCMR2;
 3691              		.loc 1 1588 0
 3692 105e 7B68     		ldr	r3, [r7, #4]
 3693 1060 9B8B     		ldrh	r3, [r3, #28]	@ movhi
 3694 1062 FB81     		strh	r3, [r7, #14]	@ movhi
1589:../../source/src/FWlib/src/stm32f10x_tim.c ****   /* Reset the OC4PE Bit */
1590:../../source/src/FWlib/src/stm32f10x_tim.c ****   tmpccmr2 &= (uint16_t)~((uint16_t)TIM_CCMR2_OC4PE);
 3695              		.loc 1 1590 0
ARM GAS  G:\Users\Jaxb\AppData\Local\Temp\ccSQWSCJ.s 			page 95


 3696 1064 FB89     		ldrh	r3, [r7, #14]	@ movhi
 3697 1066 23F40063 		bic	r3, r3, #2048
 3698 106a FB81     		strh	r3, [r7, #14]	@ movhi
1591:../../source/src/FWlib/src/stm32f10x_tim.c ****   /* Enable or Disable the Output Compare Preload feature */
1592:../../source/src/FWlib/src/stm32f10x_tim.c ****   tmpccmr2 |= (uint16_t)(TIM_OCPreload << 8);
 3699              		.loc 1 1592 0
 3700 106c 7B88     		ldrh	r3, [r7, #2]	@ movhi
 3701 106e 1B02     		lsls	r3, r3, #8
 3702 1070 9AB2     		uxth	r2, r3
 3703 1072 FB89     		ldrh	r3, [r7, #14]	@ movhi
 3704 1074 1343     		orrs	r3, r3, r2
 3705 1076 FB81     		strh	r3, [r7, #14]	@ movhi
1593:../../source/src/FWlib/src/stm32f10x_tim.c ****   /* Write to TIMx CCMR2 register */
1594:../../source/src/FWlib/src/stm32f10x_tim.c ****   TIMx->CCMR2 = tmpccmr2;
 3706              		.loc 1 1594 0
 3707 1078 7B68     		ldr	r3, [r7, #4]
 3708 107a FA89     		ldrh	r2, [r7, #14]	@ movhi
 3709 107c 9A83     		strh	r2, [r3, #28]	@ movhi
1595:../../source/src/FWlib/src/stm32f10x_tim.c **** }
 3710              		.loc 1 1595 0
 3711 107e 00BF     		nop
 3712 1080 1437     		adds	r7, r7, #20
 3713              	.LCFI236:
 3714              		.cfi_def_cfa_offset 4
 3715 1082 BD46     		mov	sp, r7
 3716              	.LCFI237:
 3717              		.cfi_def_cfa_register 13
 3718              		@ sp needed
 3719 1084 80BC     		pop	{r7}
 3720              	.LCFI238:
 3721              		.cfi_restore 7
 3722              		.cfi_def_cfa_offset 0
 3723 1086 7047     		bx	lr
 3724              		.cfi_endproc
 3725              	.LFE69:
 3726              		.size	TIM_OC4PreloadConfig, .-TIM_OC4PreloadConfig
 3727              		.align	1
 3728              		.global	TIM_OC1FastConfig
 3729              		.syntax unified
 3730              		.thumb
 3731              		.thumb_func
 3732              		.fpu softvfp
 3733              		.type	TIM_OC1FastConfig, %function
 3734              	TIM_OC1FastConfig:
 3735              	.LFB70:
1596:../../source/src/FWlib/src/stm32f10x_tim.c **** 
1597:../../source/src/FWlib/src/stm32f10x_tim.c **** /**
1598:../../source/src/FWlib/src/stm32f10x_tim.c ****   * @brief  Configures the TIMx Output Compare 1 Fast feature.
1599:../../source/src/FWlib/src/stm32f10x_tim.c ****   * @param  TIMx: where x can be  1 to 17 except 6 and 7 to select the TIM peripheral.
1600:../../source/src/FWlib/src/stm32f10x_tim.c ****   * @param  TIM_OCFast: new state of the Output Compare Fast Enable Bit.
1601:../../source/src/FWlib/src/stm32f10x_tim.c ****   *   This parameter can be one of the following values:
1602:../../source/src/FWlib/src/stm32f10x_tim.c ****   *     @arg TIM_OCFast_Enable: TIM output compare fast enable
1603:../../source/src/FWlib/src/stm32f10x_tim.c ****   *     @arg TIM_OCFast_Disable: TIM output compare fast disable
1604:../../source/src/FWlib/src/stm32f10x_tim.c ****   * @retval None
1605:../../source/src/FWlib/src/stm32f10x_tim.c ****   */
1606:../../source/src/FWlib/src/stm32f10x_tim.c **** void TIM_OC1FastConfig(TIM_TypeDef* TIMx, uint16_t TIM_OCFast)
1607:../../source/src/FWlib/src/stm32f10x_tim.c **** {
ARM GAS  G:\Users\Jaxb\AppData\Local\Temp\ccSQWSCJ.s 			page 96


 3736              		.loc 1 1607 0
 3737              		.cfi_startproc
 3738              		@ args = 0, pretend = 0, frame = 16
 3739              		@ frame_needed = 1, uses_anonymous_args = 0
 3740              		@ link register save eliminated.
 3741 1088 80B4     		push	{r7}
 3742              	.LCFI239:
 3743              		.cfi_def_cfa_offset 4
 3744              		.cfi_offset 7, -4
 3745 108a 85B0     		sub	sp, sp, #20
 3746              	.LCFI240:
 3747              		.cfi_def_cfa_offset 24
 3748 108c 00AF     		add	r7, sp, #0
 3749              	.LCFI241:
 3750              		.cfi_def_cfa_register 7
 3751 108e 7860     		str	r0, [r7, #4]
 3752 1090 0B46     		mov	r3, r1
 3753 1092 7B80     		strh	r3, [r7, #2]	@ movhi
1608:../../source/src/FWlib/src/stm32f10x_tim.c ****   uint16_t tmpccmr1 = 0;
 3754              		.loc 1 1608 0
 3755 1094 0023     		movs	r3, #0
 3756 1096 FB81     		strh	r3, [r7, #14]	@ movhi
1609:../../source/src/FWlib/src/stm32f10x_tim.c ****   /* Check the parameters */
1610:../../source/src/FWlib/src/stm32f10x_tim.c ****   assert_param(IS_TIM_LIST8_PERIPH(TIMx));
1611:../../source/src/FWlib/src/stm32f10x_tim.c ****   assert_param(IS_TIM_OCFAST_STATE(TIM_OCFast));
1612:../../source/src/FWlib/src/stm32f10x_tim.c ****   /* Get the TIMx CCMR1 register value */
1613:../../source/src/FWlib/src/stm32f10x_tim.c ****   tmpccmr1 = TIMx->CCMR1;
 3757              		.loc 1 1613 0
 3758 1098 7B68     		ldr	r3, [r7, #4]
 3759 109a 1B8B     		ldrh	r3, [r3, #24]	@ movhi
 3760 109c FB81     		strh	r3, [r7, #14]	@ movhi
1614:../../source/src/FWlib/src/stm32f10x_tim.c ****   /* Reset the OC1FE Bit */
1615:../../source/src/FWlib/src/stm32f10x_tim.c ****   tmpccmr1 &= (uint16_t)~((uint16_t)TIM_CCMR1_OC1FE);
 3761              		.loc 1 1615 0
 3762 109e FB89     		ldrh	r3, [r7, #14]	@ movhi
 3763 10a0 23F00403 		bic	r3, r3, #4
 3764 10a4 FB81     		strh	r3, [r7, #14]	@ movhi
1616:../../source/src/FWlib/src/stm32f10x_tim.c ****   /* Enable or Disable the Output Compare Fast Bit */
1617:../../source/src/FWlib/src/stm32f10x_tim.c ****   tmpccmr1 |= TIM_OCFast;
 3765              		.loc 1 1617 0
 3766 10a6 FA89     		ldrh	r2, [r7, #14]	@ movhi
 3767 10a8 7B88     		ldrh	r3, [r7, #2]	@ movhi
 3768 10aa 1343     		orrs	r3, r3, r2
 3769 10ac FB81     		strh	r3, [r7, #14]	@ movhi
1618:../../source/src/FWlib/src/stm32f10x_tim.c ****   /* Write to TIMx CCMR1 */
1619:../../source/src/FWlib/src/stm32f10x_tim.c ****   TIMx->CCMR1 = tmpccmr1;
 3770              		.loc 1 1619 0
 3771 10ae 7B68     		ldr	r3, [r7, #4]
 3772 10b0 FA89     		ldrh	r2, [r7, #14]	@ movhi
 3773 10b2 1A83     		strh	r2, [r3, #24]	@ movhi
1620:../../source/src/FWlib/src/stm32f10x_tim.c **** }
 3774              		.loc 1 1620 0
 3775 10b4 00BF     		nop
 3776 10b6 1437     		adds	r7, r7, #20
 3777              	.LCFI242:
 3778              		.cfi_def_cfa_offset 4
 3779 10b8 BD46     		mov	sp, r7
ARM GAS  G:\Users\Jaxb\AppData\Local\Temp\ccSQWSCJ.s 			page 97


 3780              	.LCFI243:
 3781              		.cfi_def_cfa_register 13
 3782              		@ sp needed
 3783 10ba 80BC     		pop	{r7}
 3784              	.LCFI244:
 3785              		.cfi_restore 7
 3786              		.cfi_def_cfa_offset 0
 3787 10bc 7047     		bx	lr
 3788              		.cfi_endproc
 3789              	.LFE70:
 3790              		.size	TIM_OC1FastConfig, .-TIM_OC1FastConfig
 3791              		.align	1
 3792              		.global	TIM_OC2FastConfig
 3793              		.syntax unified
 3794              		.thumb
 3795              		.thumb_func
 3796              		.fpu softvfp
 3797              		.type	TIM_OC2FastConfig, %function
 3798              	TIM_OC2FastConfig:
 3799              	.LFB71:
1621:../../source/src/FWlib/src/stm32f10x_tim.c **** 
1622:../../source/src/FWlib/src/stm32f10x_tim.c **** /**
1623:../../source/src/FWlib/src/stm32f10x_tim.c ****   * @brief  Configures the TIMx Output Compare 2 Fast feature.
1624:../../source/src/FWlib/src/stm32f10x_tim.c ****   * @param  TIMx: where x can be  1, 2, 3, 4, 5, 8, 9, 12 or 15 to select 
1625:../../source/src/FWlib/src/stm32f10x_tim.c ****   *         the TIM peripheral.
1626:../../source/src/FWlib/src/stm32f10x_tim.c ****   * @param  TIM_OCFast: new state of the Output Compare Fast Enable Bit.
1627:../../source/src/FWlib/src/stm32f10x_tim.c ****   *   This parameter can be one of the following values:
1628:../../source/src/FWlib/src/stm32f10x_tim.c ****   *     @arg TIM_OCFast_Enable: TIM output compare fast enable
1629:../../source/src/FWlib/src/stm32f10x_tim.c ****   *     @arg TIM_OCFast_Disable: TIM output compare fast disable
1630:../../source/src/FWlib/src/stm32f10x_tim.c ****   * @retval None
1631:../../source/src/FWlib/src/stm32f10x_tim.c ****   */
1632:../../source/src/FWlib/src/stm32f10x_tim.c **** void TIM_OC2FastConfig(TIM_TypeDef* TIMx, uint16_t TIM_OCFast)
1633:../../source/src/FWlib/src/stm32f10x_tim.c **** {
 3800              		.loc 1 1633 0
 3801              		.cfi_startproc
 3802              		@ args = 0, pretend = 0, frame = 16
 3803              		@ frame_needed = 1, uses_anonymous_args = 0
 3804              		@ link register save eliminated.
 3805 10be 80B4     		push	{r7}
 3806              	.LCFI245:
 3807              		.cfi_def_cfa_offset 4
 3808              		.cfi_offset 7, -4
 3809 10c0 85B0     		sub	sp, sp, #20
 3810              	.LCFI246:
 3811              		.cfi_def_cfa_offset 24
 3812 10c2 00AF     		add	r7, sp, #0
 3813              	.LCFI247:
 3814              		.cfi_def_cfa_register 7
 3815 10c4 7860     		str	r0, [r7, #4]
 3816 10c6 0B46     		mov	r3, r1
 3817 10c8 7B80     		strh	r3, [r7, #2]	@ movhi
1634:../../source/src/FWlib/src/stm32f10x_tim.c ****   uint16_t tmpccmr1 = 0;
 3818              		.loc 1 1634 0
 3819 10ca 0023     		movs	r3, #0
 3820 10cc FB81     		strh	r3, [r7, #14]	@ movhi
1635:../../source/src/FWlib/src/stm32f10x_tim.c ****   /* Check the parameters */
1636:../../source/src/FWlib/src/stm32f10x_tim.c ****   assert_param(IS_TIM_LIST6_PERIPH(TIMx));
ARM GAS  G:\Users\Jaxb\AppData\Local\Temp\ccSQWSCJ.s 			page 98


1637:../../source/src/FWlib/src/stm32f10x_tim.c ****   assert_param(IS_TIM_OCFAST_STATE(TIM_OCFast));
1638:../../source/src/FWlib/src/stm32f10x_tim.c ****   /* Get the TIMx CCMR1 register value */
1639:../../source/src/FWlib/src/stm32f10x_tim.c ****   tmpccmr1 = TIMx->CCMR1;
 3821              		.loc 1 1639 0
 3822 10ce 7B68     		ldr	r3, [r7, #4]
 3823 10d0 1B8B     		ldrh	r3, [r3, #24]	@ movhi
 3824 10d2 FB81     		strh	r3, [r7, #14]	@ movhi
1640:../../source/src/FWlib/src/stm32f10x_tim.c ****   /* Reset the OC2FE Bit */
1641:../../source/src/FWlib/src/stm32f10x_tim.c ****   tmpccmr1 &= (uint16_t)~((uint16_t)TIM_CCMR1_OC2FE);
 3825              		.loc 1 1641 0
 3826 10d4 FB89     		ldrh	r3, [r7, #14]	@ movhi
 3827 10d6 23F48063 		bic	r3, r3, #1024
 3828 10da FB81     		strh	r3, [r7, #14]	@ movhi
1642:../../source/src/FWlib/src/stm32f10x_tim.c ****   /* Enable or Disable the Output Compare Fast Bit */
1643:../../source/src/FWlib/src/stm32f10x_tim.c ****   tmpccmr1 |= (uint16_t)(TIM_OCFast << 8);
 3829              		.loc 1 1643 0
 3830 10dc 7B88     		ldrh	r3, [r7, #2]	@ movhi
 3831 10de 1B02     		lsls	r3, r3, #8
 3832 10e0 9AB2     		uxth	r2, r3
 3833 10e2 FB89     		ldrh	r3, [r7, #14]	@ movhi
 3834 10e4 1343     		orrs	r3, r3, r2
 3835 10e6 FB81     		strh	r3, [r7, #14]	@ movhi
1644:../../source/src/FWlib/src/stm32f10x_tim.c ****   /* Write to TIMx CCMR1 */
1645:../../source/src/FWlib/src/stm32f10x_tim.c ****   TIMx->CCMR1 = tmpccmr1;
 3836              		.loc 1 1645 0
 3837 10e8 7B68     		ldr	r3, [r7, #4]
 3838 10ea FA89     		ldrh	r2, [r7, #14]	@ movhi
 3839 10ec 1A83     		strh	r2, [r3, #24]	@ movhi
1646:../../source/src/FWlib/src/stm32f10x_tim.c **** }
 3840              		.loc 1 1646 0
 3841 10ee 00BF     		nop
 3842 10f0 1437     		adds	r7, r7, #20
 3843              	.LCFI248:
 3844              		.cfi_def_cfa_offset 4
 3845 10f2 BD46     		mov	sp, r7
 3846              	.LCFI249:
 3847              		.cfi_def_cfa_register 13
 3848              		@ sp needed
 3849 10f4 80BC     		pop	{r7}
 3850              	.LCFI250:
 3851              		.cfi_restore 7
 3852              		.cfi_def_cfa_offset 0
 3853 10f6 7047     		bx	lr
 3854              		.cfi_endproc
 3855              	.LFE71:
 3856              		.size	TIM_OC2FastConfig, .-TIM_OC2FastConfig
 3857              		.align	1
 3858              		.global	TIM_OC3FastConfig
 3859              		.syntax unified
 3860              		.thumb
 3861              		.thumb_func
 3862              		.fpu softvfp
 3863              		.type	TIM_OC3FastConfig, %function
 3864              	TIM_OC3FastConfig:
 3865              	.LFB72:
1647:../../source/src/FWlib/src/stm32f10x_tim.c **** 
1648:../../source/src/FWlib/src/stm32f10x_tim.c **** /**
ARM GAS  G:\Users\Jaxb\AppData\Local\Temp\ccSQWSCJ.s 			page 99


1649:../../source/src/FWlib/src/stm32f10x_tim.c ****   * @brief  Configures the TIMx Output Compare 3 Fast feature.
1650:../../source/src/FWlib/src/stm32f10x_tim.c ****   * @param  TIMx: where x can be  1, 2, 3, 4, 5 or 8 to select the TIM peripheral.
1651:../../source/src/FWlib/src/stm32f10x_tim.c ****   * @param  TIM_OCFast: new state of the Output Compare Fast Enable Bit.
1652:../../source/src/FWlib/src/stm32f10x_tim.c ****   *   This parameter can be one of the following values:
1653:../../source/src/FWlib/src/stm32f10x_tim.c ****   *     @arg TIM_OCFast_Enable: TIM output compare fast enable
1654:../../source/src/FWlib/src/stm32f10x_tim.c ****   *     @arg TIM_OCFast_Disable: TIM output compare fast disable
1655:../../source/src/FWlib/src/stm32f10x_tim.c ****   * @retval None
1656:../../source/src/FWlib/src/stm32f10x_tim.c ****   */
1657:../../source/src/FWlib/src/stm32f10x_tim.c **** void TIM_OC3FastConfig(TIM_TypeDef* TIMx, uint16_t TIM_OCFast)
1658:../../source/src/FWlib/src/stm32f10x_tim.c **** {
 3866              		.loc 1 1658 0
 3867              		.cfi_startproc
 3868              		@ args = 0, pretend = 0, frame = 16
 3869              		@ frame_needed = 1, uses_anonymous_args = 0
 3870              		@ link register save eliminated.
 3871 10f8 80B4     		push	{r7}
 3872              	.LCFI251:
 3873              		.cfi_def_cfa_offset 4
 3874              		.cfi_offset 7, -4
 3875 10fa 85B0     		sub	sp, sp, #20
 3876              	.LCFI252:
 3877              		.cfi_def_cfa_offset 24
 3878 10fc 00AF     		add	r7, sp, #0
 3879              	.LCFI253:
 3880              		.cfi_def_cfa_register 7
 3881 10fe 7860     		str	r0, [r7, #4]
 3882 1100 0B46     		mov	r3, r1
 3883 1102 7B80     		strh	r3, [r7, #2]	@ movhi
1659:../../source/src/FWlib/src/stm32f10x_tim.c ****   uint16_t tmpccmr2 = 0;
 3884              		.loc 1 1659 0
 3885 1104 0023     		movs	r3, #0
 3886 1106 FB81     		strh	r3, [r7, #14]	@ movhi
1660:../../source/src/FWlib/src/stm32f10x_tim.c ****   /* Check the parameters */
1661:../../source/src/FWlib/src/stm32f10x_tim.c ****   assert_param(IS_TIM_LIST3_PERIPH(TIMx));
1662:../../source/src/FWlib/src/stm32f10x_tim.c ****   assert_param(IS_TIM_OCFAST_STATE(TIM_OCFast));
1663:../../source/src/FWlib/src/stm32f10x_tim.c ****   /* Get the TIMx CCMR2 register value */
1664:../../source/src/FWlib/src/stm32f10x_tim.c ****   tmpccmr2 = TIMx->CCMR2;
 3887              		.loc 1 1664 0
 3888 1108 7B68     		ldr	r3, [r7, #4]
 3889 110a 9B8B     		ldrh	r3, [r3, #28]	@ movhi
 3890 110c FB81     		strh	r3, [r7, #14]	@ movhi
1665:../../source/src/FWlib/src/stm32f10x_tim.c ****   /* Reset the OC3FE Bit */
1666:../../source/src/FWlib/src/stm32f10x_tim.c ****   tmpccmr2 &= (uint16_t)~((uint16_t)TIM_CCMR2_OC3FE);
 3891              		.loc 1 1666 0
 3892 110e FB89     		ldrh	r3, [r7, #14]	@ movhi
 3893 1110 23F00403 		bic	r3, r3, #4
 3894 1114 FB81     		strh	r3, [r7, #14]	@ movhi
1667:../../source/src/FWlib/src/stm32f10x_tim.c ****   /* Enable or Disable the Output Compare Fast Bit */
1668:../../source/src/FWlib/src/stm32f10x_tim.c ****   tmpccmr2 |= TIM_OCFast;
 3895              		.loc 1 1668 0
 3896 1116 FA89     		ldrh	r2, [r7, #14]	@ movhi
 3897 1118 7B88     		ldrh	r3, [r7, #2]	@ movhi
 3898 111a 1343     		orrs	r3, r3, r2
 3899 111c FB81     		strh	r3, [r7, #14]	@ movhi
1669:../../source/src/FWlib/src/stm32f10x_tim.c ****   /* Write to TIMx CCMR2 */
1670:../../source/src/FWlib/src/stm32f10x_tim.c ****   TIMx->CCMR2 = tmpccmr2;
 3900              		.loc 1 1670 0
ARM GAS  G:\Users\Jaxb\AppData\Local\Temp\ccSQWSCJ.s 			page 100


 3901 111e 7B68     		ldr	r3, [r7, #4]
 3902 1120 FA89     		ldrh	r2, [r7, #14]	@ movhi
 3903 1122 9A83     		strh	r2, [r3, #28]	@ movhi
1671:../../source/src/FWlib/src/stm32f10x_tim.c **** }
 3904              		.loc 1 1671 0
 3905 1124 00BF     		nop
 3906 1126 1437     		adds	r7, r7, #20
 3907              	.LCFI254:
 3908              		.cfi_def_cfa_offset 4
 3909 1128 BD46     		mov	sp, r7
 3910              	.LCFI255:
 3911              		.cfi_def_cfa_register 13
 3912              		@ sp needed
 3913 112a 80BC     		pop	{r7}
 3914              	.LCFI256:
 3915              		.cfi_restore 7
 3916              		.cfi_def_cfa_offset 0
 3917 112c 7047     		bx	lr
 3918              		.cfi_endproc
 3919              	.LFE72:
 3920              		.size	TIM_OC3FastConfig, .-TIM_OC3FastConfig
 3921              		.align	1
 3922              		.global	TIM_OC4FastConfig
 3923              		.syntax unified
 3924              		.thumb
 3925              		.thumb_func
 3926              		.fpu softvfp
 3927              		.type	TIM_OC4FastConfig, %function
 3928              	TIM_OC4FastConfig:
 3929              	.LFB73:
1672:../../source/src/FWlib/src/stm32f10x_tim.c **** 
1673:../../source/src/FWlib/src/stm32f10x_tim.c **** /**
1674:../../source/src/FWlib/src/stm32f10x_tim.c ****   * @brief  Configures the TIMx Output Compare 4 Fast feature.
1675:../../source/src/FWlib/src/stm32f10x_tim.c ****   * @param  TIMx: where x can be  1, 2, 3, 4, 5 or 8 to select the TIM peripheral.
1676:../../source/src/FWlib/src/stm32f10x_tim.c ****   * @param  TIM_OCFast: new state of the Output Compare Fast Enable Bit.
1677:../../source/src/FWlib/src/stm32f10x_tim.c ****   *   This parameter can be one of the following values:
1678:../../source/src/FWlib/src/stm32f10x_tim.c ****   *     @arg TIM_OCFast_Enable: TIM output compare fast enable
1679:../../source/src/FWlib/src/stm32f10x_tim.c ****   *     @arg TIM_OCFast_Disable: TIM output compare fast disable
1680:../../source/src/FWlib/src/stm32f10x_tim.c ****   * @retval None
1681:../../source/src/FWlib/src/stm32f10x_tim.c ****   */
1682:../../source/src/FWlib/src/stm32f10x_tim.c **** void TIM_OC4FastConfig(TIM_TypeDef* TIMx, uint16_t TIM_OCFast)
1683:../../source/src/FWlib/src/stm32f10x_tim.c **** {
 3930              		.loc 1 1683 0
 3931              		.cfi_startproc
 3932              		@ args = 0, pretend = 0, frame = 16
 3933              		@ frame_needed = 1, uses_anonymous_args = 0
 3934              		@ link register save eliminated.
 3935 112e 80B4     		push	{r7}
 3936              	.LCFI257:
 3937              		.cfi_def_cfa_offset 4
 3938              		.cfi_offset 7, -4
 3939 1130 85B0     		sub	sp, sp, #20
 3940              	.LCFI258:
 3941              		.cfi_def_cfa_offset 24
 3942 1132 00AF     		add	r7, sp, #0
 3943              	.LCFI259:
 3944              		.cfi_def_cfa_register 7
ARM GAS  G:\Users\Jaxb\AppData\Local\Temp\ccSQWSCJ.s 			page 101


 3945 1134 7860     		str	r0, [r7, #4]
 3946 1136 0B46     		mov	r3, r1
 3947 1138 7B80     		strh	r3, [r7, #2]	@ movhi
1684:../../source/src/FWlib/src/stm32f10x_tim.c ****   uint16_t tmpccmr2 = 0;
 3948              		.loc 1 1684 0
 3949 113a 0023     		movs	r3, #0
 3950 113c FB81     		strh	r3, [r7, #14]	@ movhi
1685:../../source/src/FWlib/src/stm32f10x_tim.c ****   /* Check the parameters */
1686:../../source/src/FWlib/src/stm32f10x_tim.c ****   assert_param(IS_TIM_LIST3_PERIPH(TIMx));
1687:../../source/src/FWlib/src/stm32f10x_tim.c ****   assert_param(IS_TIM_OCFAST_STATE(TIM_OCFast));
1688:../../source/src/FWlib/src/stm32f10x_tim.c ****   /* Get the TIMx CCMR2 register value */
1689:../../source/src/FWlib/src/stm32f10x_tim.c ****   tmpccmr2 = TIMx->CCMR2;
 3951              		.loc 1 1689 0
 3952 113e 7B68     		ldr	r3, [r7, #4]
 3953 1140 9B8B     		ldrh	r3, [r3, #28]	@ movhi
 3954 1142 FB81     		strh	r3, [r7, #14]	@ movhi
1690:../../source/src/FWlib/src/stm32f10x_tim.c ****   /* Reset the OC4FE Bit */
1691:../../source/src/FWlib/src/stm32f10x_tim.c ****   tmpccmr2 &= (uint16_t)~((uint16_t)TIM_CCMR2_OC4FE);
 3955              		.loc 1 1691 0
 3956 1144 FB89     		ldrh	r3, [r7, #14]	@ movhi
 3957 1146 23F48063 		bic	r3, r3, #1024
 3958 114a FB81     		strh	r3, [r7, #14]	@ movhi
1692:../../source/src/FWlib/src/stm32f10x_tim.c ****   /* Enable or Disable the Output Compare Fast Bit */
1693:../../source/src/FWlib/src/stm32f10x_tim.c ****   tmpccmr2 |= (uint16_t)(TIM_OCFast << 8);
 3959              		.loc 1 1693 0
 3960 114c 7B88     		ldrh	r3, [r7, #2]	@ movhi
 3961 114e 1B02     		lsls	r3, r3, #8
 3962 1150 9AB2     		uxth	r2, r3
 3963 1152 FB89     		ldrh	r3, [r7, #14]	@ movhi
 3964 1154 1343     		orrs	r3, r3, r2
 3965 1156 FB81     		strh	r3, [r7, #14]	@ movhi
1694:../../source/src/FWlib/src/stm32f10x_tim.c ****   /* Write to TIMx CCMR2 */
1695:../../source/src/FWlib/src/stm32f10x_tim.c ****   TIMx->CCMR2 = tmpccmr2;
 3966              		.loc 1 1695 0
 3967 1158 7B68     		ldr	r3, [r7, #4]
 3968 115a FA89     		ldrh	r2, [r7, #14]	@ movhi
 3969 115c 9A83     		strh	r2, [r3, #28]	@ movhi
1696:../../source/src/FWlib/src/stm32f10x_tim.c **** }
 3970              		.loc 1 1696 0
 3971 115e 00BF     		nop
 3972 1160 1437     		adds	r7, r7, #20
 3973              	.LCFI260:
 3974              		.cfi_def_cfa_offset 4
 3975 1162 BD46     		mov	sp, r7
 3976              	.LCFI261:
 3977              		.cfi_def_cfa_register 13
 3978              		@ sp needed
 3979 1164 80BC     		pop	{r7}
 3980              	.LCFI262:
 3981              		.cfi_restore 7
 3982              		.cfi_def_cfa_offset 0
 3983 1166 7047     		bx	lr
 3984              		.cfi_endproc
 3985              	.LFE73:
 3986              		.size	TIM_OC4FastConfig, .-TIM_OC4FastConfig
 3987              		.align	1
 3988              		.global	TIM_ClearOC1Ref
ARM GAS  G:\Users\Jaxb\AppData\Local\Temp\ccSQWSCJ.s 			page 102


 3989              		.syntax unified
 3990              		.thumb
 3991              		.thumb_func
 3992              		.fpu softvfp
 3993              		.type	TIM_ClearOC1Ref, %function
 3994              	TIM_ClearOC1Ref:
 3995              	.LFB74:
1697:../../source/src/FWlib/src/stm32f10x_tim.c **** 
1698:../../source/src/FWlib/src/stm32f10x_tim.c **** /**
1699:../../source/src/FWlib/src/stm32f10x_tim.c ****   * @brief  Clears or safeguards the OCREF1 signal on an external event
1700:../../source/src/FWlib/src/stm32f10x_tim.c ****   * @param  TIMx: where x can be  1, 2, 3, 4, 5 or 8 to select the TIM peripheral.
1701:../../source/src/FWlib/src/stm32f10x_tim.c ****   * @param  TIM_OCClear: new state of the Output Compare Clear Enable Bit.
1702:../../source/src/FWlib/src/stm32f10x_tim.c ****   *   This parameter can be one of the following values:
1703:../../source/src/FWlib/src/stm32f10x_tim.c ****   *     @arg TIM_OCClear_Enable: TIM Output clear enable
1704:../../source/src/FWlib/src/stm32f10x_tim.c ****   *     @arg TIM_OCClear_Disable: TIM Output clear disable
1705:../../source/src/FWlib/src/stm32f10x_tim.c ****   * @retval None
1706:../../source/src/FWlib/src/stm32f10x_tim.c ****   */
1707:../../source/src/FWlib/src/stm32f10x_tim.c **** void TIM_ClearOC1Ref(TIM_TypeDef* TIMx, uint16_t TIM_OCClear)
1708:../../source/src/FWlib/src/stm32f10x_tim.c **** {
 3996              		.loc 1 1708 0
 3997              		.cfi_startproc
 3998              		@ args = 0, pretend = 0, frame = 16
 3999              		@ frame_needed = 1, uses_anonymous_args = 0
 4000              		@ link register save eliminated.
 4001 1168 80B4     		push	{r7}
 4002              	.LCFI263:
 4003              		.cfi_def_cfa_offset 4
 4004              		.cfi_offset 7, -4
 4005 116a 85B0     		sub	sp, sp, #20
 4006              	.LCFI264:
 4007              		.cfi_def_cfa_offset 24
 4008 116c 00AF     		add	r7, sp, #0
 4009              	.LCFI265:
 4010              		.cfi_def_cfa_register 7
 4011 116e 7860     		str	r0, [r7, #4]
 4012 1170 0B46     		mov	r3, r1
 4013 1172 7B80     		strh	r3, [r7, #2]	@ movhi
1709:../../source/src/FWlib/src/stm32f10x_tim.c ****   uint16_t tmpccmr1 = 0;
 4014              		.loc 1 1709 0
 4015 1174 0023     		movs	r3, #0
 4016 1176 FB81     		strh	r3, [r7, #14]	@ movhi
1710:../../source/src/FWlib/src/stm32f10x_tim.c ****   /* Check the parameters */
1711:../../source/src/FWlib/src/stm32f10x_tim.c ****   assert_param(IS_TIM_LIST3_PERIPH(TIMx));
1712:../../source/src/FWlib/src/stm32f10x_tim.c ****   assert_param(IS_TIM_OCCLEAR_STATE(TIM_OCClear));
1713:../../source/src/FWlib/src/stm32f10x_tim.c **** 
1714:../../source/src/FWlib/src/stm32f10x_tim.c ****   tmpccmr1 = TIMx->CCMR1;
 4017              		.loc 1 1714 0
 4018 1178 7B68     		ldr	r3, [r7, #4]
 4019 117a 1B8B     		ldrh	r3, [r3, #24]	@ movhi
 4020 117c FB81     		strh	r3, [r7, #14]	@ movhi
1715:../../source/src/FWlib/src/stm32f10x_tim.c **** 
1716:../../source/src/FWlib/src/stm32f10x_tim.c ****   /* Reset the OC1CE Bit */
1717:../../source/src/FWlib/src/stm32f10x_tim.c ****   tmpccmr1 &= (uint16_t)~((uint16_t)TIM_CCMR1_OC1CE);
 4021              		.loc 1 1717 0
 4022 117e FB89     		ldrh	r3, [r7, #14]	@ movhi
 4023 1180 23F08003 		bic	r3, r3, #128
 4024 1184 FB81     		strh	r3, [r7, #14]	@ movhi
ARM GAS  G:\Users\Jaxb\AppData\Local\Temp\ccSQWSCJ.s 			page 103


1718:../../source/src/FWlib/src/stm32f10x_tim.c ****   /* Enable or Disable the Output Compare Clear Bit */
1719:../../source/src/FWlib/src/stm32f10x_tim.c ****   tmpccmr1 |= TIM_OCClear;
 4025              		.loc 1 1719 0
 4026 1186 FA89     		ldrh	r2, [r7, #14]	@ movhi
 4027 1188 7B88     		ldrh	r3, [r7, #2]	@ movhi
 4028 118a 1343     		orrs	r3, r3, r2
 4029 118c FB81     		strh	r3, [r7, #14]	@ movhi
1720:../../source/src/FWlib/src/stm32f10x_tim.c ****   /* Write to TIMx CCMR1 register */
1721:../../source/src/FWlib/src/stm32f10x_tim.c ****   TIMx->CCMR1 = tmpccmr1;
 4030              		.loc 1 1721 0
 4031 118e 7B68     		ldr	r3, [r7, #4]
 4032 1190 FA89     		ldrh	r2, [r7, #14]	@ movhi
 4033 1192 1A83     		strh	r2, [r3, #24]	@ movhi
1722:../../source/src/FWlib/src/stm32f10x_tim.c **** }
 4034              		.loc 1 1722 0
 4035 1194 00BF     		nop
 4036 1196 1437     		adds	r7, r7, #20
 4037              	.LCFI266:
 4038              		.cfi_def_cfa_offset 4
 4039 1198 BD46     		mov	sp, r7
 4040              	.LCFI267:
 4041              		.cfi_def_cfa_register 13
 4042              		@ sp needed
 4043 119a 80BC     		pop	{r7}
 4044              	.LCFI268:
 4045              		.cfi_restore 7
 4046              		.cfi_def_cfa_offset 0
 4047 119c 7047     		bx	lr
 4048              		.cfi_endproc
 4049              	.LFE74:
 4050              		.size	TIM_ClearOC1Ref, .-TIM_ClearOC1Ref
 4051              		.align	1
 4052              		.global	TIM_ClearOC2Ref
 4053              		.syntax unified
 4054              		.thumb
 4055              		.thumb_func
 4056              		.fpu softvfp
 4057              		.type	TIM_ClearOC2Ref, %function
 4058              	TIM_ClearOC2Ref:
 4059              	.LFB75:
1723:../../source/src/FWlib/src/stm32f10x_tim.c **** 
1724:../../source/src/FWlib/src/stm32f10x_tim.c **** /**
1725:../../source/src/FWlib/src/stm32f10x_tim.c ****   * @brief  Clears or safeguards the OCREF2 signal on an external event
1726:../../source/src/FWlib/src/stm32f10x_tim.c ****   * @param  TIMx: where x can be  1, 2, 3, 4, 5 or 8 to select the TIM peripheral.
1727:../../source/src/FWlib/src/stm32f10x_tim.c ****   * @param  TIM_OCClear: new state of the Output Compare Clear Enable Bit.
1728:../../source/src/FWlib/src/stm32f10x_tim.c ****   *   This parameter can be one of the following values:
1729:../../source/src/FWlib/src/stm32f10x_tim.c ****   *     @arg TIM_OCClear_Enable: TIM Output clear enable
1730:../../source/src/FWlib/src/stm32f10x_tim.c ****   *     @arg TIM_OCClear_Disable: TIM Output clear disable
1731:../../source/src/FWlib/src/stm32f10x_tim.c ****   * @retval None
1732:../../source/src/FWlib/src/stm32f10x_tim.c ****   */
1733:../../source/src/FWlib/src/stm32f10x_tim.c **** void TIM_ClearOC2Ref(TIM_TypeDef* TIMx, uint16_t TIM_OCClear)
1734:../../source/src/FWlib/src/stm32f10x_tim.c **** {
 4060              		.loc 1 1734 0
 4061              		.cfi_startproc
 4062              		@ args = 0, pretend = 0, frame = 16
 4063              		@ frame_needed = 1, uses_anonymous_args = 0
 4064              		@ link register save eliminated.
ARM GAS  G:\Users\Jaxb\AppData\Local\Temp\ccSQWSCJ.s 			page 104


 4065 119e 80B4     		push	{r7}
 4066              	.LCFI269:
 4067              		.cfi_def_cfa_offset 4
 4068              		.cfi_offset 7, -4
 4069 11a0 85B0     		sub	sp, sp, #20
 4070              	.LCFI270:
 4071              		.cfi_def_cfa_offset 24
 4072 11a2 00AF     		add	r7, sp, #0
 4073              	.LCFI271:
 4074              		.cfi_def_cfa_register 7
 4075 11a4 7860     		str	r0, [r7, #4]
 4076 11a6 0B46     		mov	r3, r1
 4077 11a8 7B80     		strh	r3, [r7, #2]	@ movhi
1735:../../source/src/FWlib/src/stm32f10x_tim.c ****   uint16_t tmpccmr1 = 0;
 4078              		.loc 1 1735 0
 4079 11aa 0023     		movs	r3, #0
 4080 11ac FB81     		strh	r3, [r7, #14]	@ movhi
1736:../../source/src/FWlib/src/stm32f10x_tim.c ****   /* Check the parameters */
1737:../../source/src/FWlib/src/stm32f10x_tim.c ****   assert_param(IS_TIM_LIST3_PERIPH(TIMx));
1738:../../source/src/FWlib/src/stm32f10x_tim.c ****   assert_param(IS_TIM_OCCLEAR_STATE(TIM_OCClear));
1739:../../source/src/FWlib/src/stm32f10x_tim.c ****   tmpccmr1 = TIMx->CCMR1;
 4081              		.loc 1 1739 0
 4082 11ae 7B68     		ldr	r3, [r7, #4]
 4083 11b0 1B8B     		ldrh	r3, [r3, #24]	@ movhi
 4084 11b2 FB81     		strh	r3, [r7, #14]	@ movhi
1740:../../source/src/FWlib/src/stm32f10x_tim.c ****   /* Reset the OC2CE Bit */
1741:../../source/src/FWlib/src/stm32f10x_tim.c ****   tmpccmr1 &= (uint16_t)~((uint16_t)TIM_CCMR1_OC2CE);
 4085              		.loc 1 1741 0
 4086 11b4 FB89     		ldrh	r3, [r7, #14]	@ movhi
 4087 11b6 C3F30E03 		ubfx	r3, r3, #0, #15
 4088 11ba FB81     		strh	r3, [r7, #14]	@ movhi
1742:../../source/src/FWlib/src/stm32f10x_tim.c ****   /* Enable or Disable the Output Compare Clear Bit */
1743:../../source/src/FWlib/src/stm32f10x_tim.c ****   tmpccmr1 |= (uint16_t)(TIM_OCClear << 8);
 4089              		.loc 1 1743 0
 4090 11bc 7B88     		ldrh	r3, [r7, #2]	@ movhi
 4091 11be 1B02     		lsls	r3, r3, #8
 4092 11c0 9AB2     		uxth	r2, r3
 4093 11c2 FB89     		ldrh	r3, [r7, #14]	@ movhi
 4094 11c4 1343     		orrs	r3, r3, r2
 4095 11c6 FB81     		strh	r3, [r7, #14]	@ movhi
1744:../../source/src/FWlib/src/stm32f10x_tim.c ****   /* Write to TIMx CCMR1 register */
1745:../../source/src/FWlib/src/stm32f10x_tim.c ****   TIMx->CCMR1 = tmpccmr1;
 4096              		.loc 1 1745 0
 4097 11c8 7B68     		ldr	r3, [r7, #4]
 4098 11ca FA89     		ldrh	r2, [r7, #14]	@ movhi
 4099 11cc 1A83     		strh	r2, [r3, #24]	@ movhi
1746:../../source/src/FWlib/src/stm32f10x_tim.c **** }
 4100              		.loc 1 1746 0
 4101 11ce 00BF     		nop
 4102 11d0 1437     		adds	r7, r7, #20
 4103              	.LCFI272:
 4104              		.cfi_def_cfa_offset 4
 4105 11d2 BD46     		mov	sp, r7
 4106              	.LCFI273:
 4107              		.cfi_def_cfa_register 13
 4108              		@ sp needed
 4109 11d4 80BC     		pop	{r7}
ARM GAS  G:\Users\Jaxb\AppData\Local\Temp\ccSQWSCJ.s 			page 105


 4110              	.LCFI274:
 4111              		.cfi_restore 7
 4112              		.cfi_def_cfa_offset 0
 4113 11d6 7047     		bx	lr
 4114              		.cfi_endproc
 4115              	.LFE75:
 4116              		.size	TIM_ClearOC2Ref, .-TIM_ClearOC2Ref
 4117              		.align	1
 4118              		.global	TIM_ClearOC3Ref
 4119              		.syntax unified
 4120              		.thumb
 4121              		.thumb_func
 4122              		.fpu softvfp
 4123              		.type	TIM_ClearOC3Ref, %function
 4124              	TIM_ClearOC3Ref:
 4125              	.LFB76:
1747:../../source/src/FWlib/src/stm32f10x_tim.c **** 
1748:../../source/src/FWlib/src/stm32f10x_tim.c **** /**
1749:../../source/src/FWlib/src/stm32f10x_tim.c ****   * @brief  Clears or safeguards the OCREF3 signal on an external event
1750:../../source/src/FWlib/src/stm32f10x_tim.c ****   * @param  TIMx: where x can be  1, 2, 3, 4, 5 or 8 to select the TIM peripheral.
1751:../../source/src/FWlib/src/stm32f10x_tim.c ****   * @param  TIM_OCClear: new state of the Output Compare Clear Enable Bit.
1752:../../source/src/FWlib/src/stm32f10x_tim.c ****   *   This parameter can be one of the following values:
1753:../../source/src/FWlib/src/stm32f10x_tim.c ****   *     @arg TIM_OCClear_Enable: TIM Output clear enable
1754:../../source/src/FWlib/src/stm32f10x_tim.c ****   *     @arg TIM_OCClear_Disable: TIM Output clear disable
1755:../../source/src/FWlib/src/stm32f10x_tim.c ****   * @retval None
1756:../../source/src/FWlib/src/stm32f10x_tim.c ****   */
1757:../../source/src/FWlib/src/stm32f10x_tim.c **** void TIM_ClearOC3Ref(TIM_TypeDef* TIMx, uint16_t TIM_OCClear)
1758:../../source/src/FWlib/src/stm32f10x_tim.c **** {
 4126              		.loc 1 1758 0
 4127              		.cfi_startproc
 4128              		@ args = 0, pretend = 0, frame = 16
 4129              		@ frame_needed = 1, uses_anonymous_args = 0
 4130              		@ link register save eliminated.
 4131 11d8 80B4     		push	{r7}
 4132              	.LCFI275:
 4133              		.cfi_def_cfa_offset 4
 4134              		.cfi_offset 7, -4
 4135 11da 85B0     		sub	sp, sp, #20
 4136              	.LCFI276:
 4137              		.cfi_def_cfa_offset 24
 4138 11dc 00AF     		add	r7, sp, #0
 4139              	.LCFI277:
 4140              		.cfi_def_cfa_register 7
 4141 11de 7860     		str	r0, [r7, #4]
 4142 11e0 0B46     		mov	r3, r1
 4143 11e2 7B80     		strh	r3, [r7, #2]	@ movhi
1759:../../source/src/FWlib/src/stm32f10x_tim.c ****   uint16_t tmpccmr2 = 0;
 4144              		.loc 1 1759 0
 4145 11e4 0023     		movs	r3, #0
 4146 11e6 FB81     		strh	r3, [r7, #14]	@ movhi
1760:../../source/src/FWlib/src/stm32f10x_tim.c ****   /* Check the parameters */
1761:../../source/src/FWlib/src/stm32f10x_tim.c ****   assert_param(IS_TIM_LIST3_PERIPH(TIMx));
1762:../../source/src/FWlib/src/stm32f10x_tim.c ****   assert_param(IS_TIM_OCCLEAR_STATE(TIM_OCClear));
1763:../../source/src/FWlib/src/stm32f10x_tim.c ****   tmpccmr2 = TIMx->CCMR2;
 4147              		.loc 1 1763 0
 4148 11e8 7B68     		ldr	r3, [r7, #4]
 4149 11ea 9B8B     		ldrh	r3, [r3, #28]	@ movhi
ARM GAS  G:\Users\Jaxb\AppData\Local\Temp\ccSQWSCJ.s 			page 106


 4150 11ec FB81     		strh	r3, [r7, #14]	@ movhi
1764:../../source/src/FWlib/src/stm32f10x_tim.c ****   /* Reset the OC3CE Bit */
1765:../../source/src/FWlib/src/stm32f10x_tim.c ****   tmpccmr2 &= (uint16_t)~((uint16_t)TIM_CCMR2_OC3CE);
 4151              		.loc 1 1765 0
 4152 11ee FB89     		ldrh	r3, [r7, #14]	@ movhi
 4153 11f0 23F08003 		bic	r3, r3, #128
 4154 11f4 FB81     		strh	r3, [r7, #14]	@ movhi
1766:../../source/src/FWlib/src/stm32f10x_tim.c ****   /* Enable or Disable the Output Compare Clear Bit */
1767:../../source/src/FWlib/src/stm32f10x_tim.c ****   tmpccmr2 |= TIM_OCClear;
 4155              		.loc 1 1767 0
 4156 11f6 FA89     		ldrh	r2, [r7, #14]	@ movhi
 4157 11f8 7B88     		ldrh	r3, [r7, #2]	@ movhi
 4158 11fa 1343     		orrs	r3, r3, r2
 4159 11fc FB81     		strh	r3, [r7, #14]	@ movhi
1768:../../source/src/FWlib/src/stm32f10x_tim.c ****   /* Write to TIMx CCMR2 register */
1769:../../source/src/FWlib/src/stm32f10x_tim.c ****   TIMx->CCMR2 = tmpccmr2;
 4160              		.loc 1 1769 0
 4161 11fe 7B68     		ldr	r3, [r7, #4]
 4162 1200 FA89     		ldrh	r2, [r7, #14]	@ movhi
 4163 1202 9A83     		strh	r2, [r3, #28]	@ movhi
1770:../../source/src/FWlib/src/stm32f10x_tim.c **** }
 4164              		.loc 1 1770 0
 4165 1204 00BF     		nop
 4166 1206 1437     		adds	r7, r7, #20
 4167              	.LCFI278:
 4168              		.cfi_def_cfa_offset 4
 4169 1208 BD46     		mov	sp, r7
 4170              	.LCFI279:
 4171              		.cfi_def_cfa_register 13
 4172              		@ sp needed
 4173 120a 80BC     		pop	{r7}
 4174              	.LCFI280:
 4175              		.cfi_restore 7
 4176              		.cfi_def_cfa_offset 0
 4177 120c 7047     		bx	lr
 4178              		.cfi_endproc
 4179              	.LFE76:
 4180              		.size	TIM_ClearOC3Ref, .-TIM_ClearOC3Ref
 4181              		.align	1
 4182              		.global	TIM_ClearOC4Ref
 4183              		.syntax unified
 4184              		.thumb
 4185              		.thumb_func
 4186              		.fpu softvfp
 4187              		.type	TIM_ClearOC4Ref, %function
 4188              	TIM_ClearOC4Ref:
 4189              	.LFB77:
1771:../../source/src/FWlib/src/stm32f10x_tim.c **** 
1772:../../source/src/FWlib/src/stm32f10x_tim.c **** /**
1773:../../source/src/FWlib/src/stm32f10x_tim.c ****   * @brief  Clears or safeguards the OCREF4 signal on an external event
1774:../../source/src/FWlib/src/stm32f10x_tim.c ****   * @param  TIMx: where x can be  1, 2, 3, 4, 5 or 8 to select the TIM peripheral.
1775:../../source/src/FWlib/src/stm32f10x_tim.c ****   * @param  TIM_OCClear: new state of the Output Compare Clear Enable Bit.
1776:../../source/src/FWlib/src/stm32f10x_tim.c ****   *   This parameter can be one of the following values:
1777:../../source/src/FWlib/src/stm32f10x_tim.c ****   *     @arg TIM_OCClear_Enable: TIM Output clear enable
1778:../../source/src/FWlib/src/stm32f10x_tim.c ****   *     @arg TIM_OCClear_Disable: TIM Output clear disable
1779:../../source/src/FWlib/src/stm32f10x_tim.c ****   * @retval None
1780:../../source/src/FWlib/src/stm32f10x_tim.c ****   */
ARM GAS  G:\Users\Jaxb\AppData\Local\Temp\ccSQWSCJ.s 			page 107


1781:../../source/src/FWlib/src/stm32f10x_tim.c **** void TIM_ClearOC4Ref(TIM_TypeDef* TIMx, uint16_t TIM_OCClear)
1782:../../source/src/FWlib/src/stm32f10x_tim.c **** {
 4190              		.loc 1 1782 0
 4191              		.cfi_startproc
 4192              		@ args = 0, pretend = 0, frame = 16
 4193              		@ frame_needed = 1, uses_anonymous_args = 0
 4194              		@ link register save eliminated.
 4195 120e 80B4     		push	{r7}
 4196              	.LCFI281:
 4197              		.cfi_def_cfa_offset 4
 4198              		.cfi_offset 7, -4
 4199 1210 85B0     		sub	sp, sp, #20
 4200              	.LCFI282:
 4201              		.cfi_def_cfa_offset 24
 4202 1212 00AF     		add	r7, sp, #0
 4203              	.LCFI283:
 4204              		.cfi_def_cfa_register 7
 4205 1214 7860     		str	r0, [r7, #4]
 4206 1216 0B46     		mov	r3, r1
 4207 1218 7B80     		strh	r3, [r7, #2]	@ movhi
1783:../../source/src/FWlib/src/stm32f10x_tim.c ****   uint16_t tmpccmr2 = 0;
 4208              		.loc 1 1783 0
 4209 121a 0023     		movs	r3, #0
 4210 121c FB81     		strh	r3, [r7, #14]	@ movhi
1784:../../source/src/FWlib/src/stm32f10x_tim.c ****   /* Check the parameters */
1785:../../source/src/FWlib/src/stm32f10x_tim.c ****   assert_param(IS_TIM_LIST3_PERIPH(TIMx));
1786:../../source/src/FWlib/src/stm32f10x_tim.c ****   assert_param(IS_TIM_OCCLEAR_STATE(TIM_OCClear));
1787:../../source/src/FWlib/src/stm32f10x_tim.c ****   tmpccmr2 = TIMx->CCMR2;
 4211              		.loc 1 1787 0
 4212 121e 7B68     		ldr	r3, [r7, #4]
 4213 1220 9B8B     		ldrh	r3, [r3, #28]	@ movhi
 4214 1222 FB81     		strh	r3, [r7, #14]	@ movhi
1788:../../source/src/FWlib/src/stm32f10x_tim.c ****   /* Reset the OC4CE Bit */
1789:../../source/src/FWlib/src/stm32f10x_tim.c ****   tmpccmr2 &= (uint16_t)~((uint16_t)TIM_CCMR2_OC4CE);
 4215              		.loc 1 1789 0
 4216 1224 FB89     		ldrh	r3, [r7, #14]	@ movhi
 4217 1226 C3F30E03 		ubfx	r3, r3, #0, #15
 4218 122a FB81     		strh	r3, [r7, #14]	@ movhi
1790:../../source/src/FWlib/src/stm32f10x_tim.c ****   /* Enable or Disable the Output Compare Clear Bit */
1791:../../source/src/FWlib/src/stm32f10x_tim.c ****   tmpccmr2 |= (uint16_t)(TIM_OCClear << 8);
 4219              		.loc 1 1791 0
 4220 122c 7B88     		ldrh	r3, [r7, #2]	@ movhi
 4221 122e 1B02     		lsls	r3, r3, #8
 4222 1230 9AB2     		uxth	r2, r3
 4223 1232 FB89     		ldrh	r3, [r7, #14]	@ movhi
 4224 1234 1343     		orrs	r3, r3, r2
 4225 1236 FB81     		strh	r3, [r7, #14]	@ movhi
1792:../../source/src/FWlib/src/stm32f10x_tim.c ****   /* Write to TIMx CCMR2 register */
1793:../../source/src/FWlib/src/stm32f10x_tim.c ****   TIMx->CCMR2 = tmpccmr2;
 4226              		.loc 1 1793 0
 4227 1238 7B68     		ldr	r3, [r7, #4]
 4228 123a FA89     		ldrh	r2, [r7, #14]	@ movhi
 4229 123c 9A83     		strh	r2, [r3, #28]	@ movhi
1794:../../source/src/FWlib/src/stm32f10x_tim.c **** }
 4230              		.loc 1 1794 0
 4231 123e 00BF     		nop
 4232 1240 1437     		adds	r7, r7, #20
ARM GAS  G:\Users\Jaxb\AppData\Local\Temp\ccSQWSCJ.s 			page 108


 4233              	.LCFI284:
 4234              		.cfi_def_cfa_offset 4
 4235 1242 BD46     		mov	sp, r7
 4236              	.LCFI285:
 4237              		.cfi_def_cfa_register 13
 4238              		@ sp needed
 4239 1244 80BC     		pop	{r7}
 4240              	.LCFI286:
 4241              		.cfi_restore 7
 4242              		.cfi_def_cfa_offset 0
 4243 1246 7047     		bx	lr
 4244              		.cfi_endproc
 4245              	.LFE77:
 4246              		.size	TIM_ClearOC4Ref, .-TIM_ClearOC4Ref
 4247              		.align	1
 4248              		.global	TIM_OC1PolarityConfig
 4249              		.syntax unified
 4250              		.thumb
 4251              		.thumb_func
 4252              		.fpu softvfp
 4253              		.type	TIM_OC1PolarityConfig, %function
 4254              	TIM_OC1PolarityConfig:
 4255              	.LFB78:
1795:../../source/src/FWlib/src/stm32f10x_tim.c **** 
1796:../../source/src/FWlib/src/stm32f10x_tim.c **** /**
1797:../../source/src/FWlib/src/stm32f10x_tim.c ****   * @brief  Configures the TIMx channel 1 polarity.
1798:../../source/src/FWlib/src/stm32f10x_tim.c ****   * @param  TIMx: where x can be 1 to 17 except 6 and 7 to select the TIM peripheral.
1799:../../source/src/FWlib/src/stm32f10x_tim.c ****   * @param  TIM_OCPolarity: specifies the OC1 Polarity
1800:../../source/src/FWlib/src/stm32f10x_tim.c ****   *   This parameter can be one of the following values:
1801:../../source/src/FWlib/src/stm32f10x_tim.c ****   *     @arg TIM_OCPolarity_High: Output Compare active high
1802:../../source/src/FWlib/src/stm32f10x_tim.c ****   *     @arg TIM_OCPolarity_Low: Output Compare active low
1803:../../source/src/FWlib/src/stm32f10x_tim.c ****   * @retval None
1804:../../source/src/FWlib/src/stm32f10x_tim.c ****   */
1805:../../source/src/FWlib/src/stm32f10x_tim.c **** void TIM_OC1PolarityConfig(TIM_TypeDef* TIMx, uint16_t TIM_OCPolarity)
1806:../../source/src/FWlib/src/stm32f10x_tim.c **** {
 4256              		.loc 1 1806 0
 4257              		.cfi_startproc
 4258              		@ args = 0, pretend = 0, frame = 16
 4259              		@ frame_needed = 1, uses_anonymous_args = 0
 4260              		@ link register save eliminated.
 4261 1248 80B4     		push	{r7}
 4262              	.LCFI287:
 4263              		.cfi_def_cfa_offset 4
 4264              		.cfi_offset 7, -4
 4265 124a 85B0     		sub	sp, sp, #20
 4266              	.LCFI288:
 4267              		.cfi_def_cfa_offset 24
 4268 124c 00AF     		add	r7, sp, #0
 4269              	.LCFI289:
 4270              		.cfi_def_cfa_register 7
 4271 124e 7860     		str	r0, [r7, #4]
 4272 1250 0B46     		mov	r3, r1
 4273 1252 7B80     		strh	r3, [r7, #2]	@ movhi
1807:../../source/src/FWlib/src/stm32f10x_tim.c ****   uint16_t tmpccer = 0;
 4274              		.loc 1 1807 0
 4275 1254 0023     		movs	r3, #0
 4276 1256 FB81     		strh	r3, [r7, #14]	@ movhi
ARM GAS  G:\Users\Jaxb\AppData\Local\Temp\ccSQWSCJ.s 			page 109


1808:../../source/src/FWlib/src/stm32f10x_tim.c ****   /* Check the parameters */
1809:../../source/src/FWlib/src/stm32f10x_tim.c ****   assert_param(IS_TIM_LIST8_PERIPH(TIMx));
1810:../../source/src/FWlib/src/stm32f10x_tim.c ****   assert_param(IS_TIM_OC_POLARITY(TIM_OCPolarity));
1811:../../source/src/FWlib/src/stm32f10x_tim.c ****   tmpccer = TIMx->CCER;
 4277              		.loc 1 1811 0
 4278 1258 7B68     		ldr	r3, [r7, #4]
 4279 125a 1B8C     		ldrh	r3, [r3, #32]	@ movhi
 4280 125c FB81     		strh	r3, [r7, #14]	@ movhi
1812:../../source/src/FWlib/src/stm32f10x_tim.c ****   /* Set or Reset the CC1P Bit */
1813:../../source/src/FWlib/src/stm32f10x_tim.c ****   tmpccer &= (uint16_t)~((uint16_t)TIM_CCER_CC1P);
 4281              		.loc 1 1813 0
 4282 125e FB89     		ldrh	r3, [r7, #14]	@ movhi
 4283 1260 23F00203 		bic	r3, r3, #2
 4284 1264 FB81     		strh	r3, [r7, #14]	@ movhi
1814:../../source/src/FWlib/src/stm32f10x_tim.c ****   tmpccer |= TIM_OCPolarity;
 4285              		.loc 1 1814 0
 4286 1266 FA89     		ldrh	r2, [r7, #14]	@ movhi
 4287 1268 7B88     		ldrh	r3, [r7, #2]	@ movhi
 4288 126a 1343     		orrs	r3, r3, r2
 4289 126c FB81     		strh	r3, [r7, #14]	@ movhi
1815:../../source/src/FWlib/src/stm32f10x_tim.c ****   /* Write to TIMx CCER register */
1816:../../source/src/FWlib/src/stm32f10x_tim.c ****   TIMx->CCER = tmpccer;
 4290              		.loc 1 1816 0
 4291 126e 7B68     		ldr	r3, [r7, #4]
 4292 1270 FA89     		ldrh	r2, [r7, #14]	@ movhi
 4293 1272 1A84     		strh	r2, [r3, #32]	@ movhi
1817:../../source/src/FWlib/src/stm32f10x_tim.c **** }
 4294              		.loc 1 1817 0
 4295 1274 00BF     		nop
 4296 1276 1437     		adds	r7, r7, #20
 4297              	.LCFI290:
 4298              		.cfi_def_cfa_offset 4
 4299 1278 BD46     		mov	sp, r7
 4300              	.LCFI291:
 4301              		.cfi_def_cfa_register 13
 4302              		@ sp needed
 4303 127a 80BC     		pop	{r7}
 4304              	.LCFI292:
 4305              		.cfi_restore 7
 4306              		.cfi_def_cfa_offset 0
 4307 127c 7047     		bx	lr
 4308              		.cfi_endproc
 4309              	.LFE78:
 4310              		.size	TIM_OC1PolarityConfig, .-TIM_OC1PolarityConfig
 4311              		.align	1
 4312              		.global	TIM_OC1NPolarityConfig
 4313              		.syntax unified
 4314              		.thumb
 4315              		.thumb_func
 4316              		.fpu softvfp
 4317              		.type	TIM_OC1NPolarityConfig, %function
 4318              	TIM_OC1NPolarityConfig:
 4319              	.LFB79:
1818:../../source/src/FWlib/src/stm32f10x_tim.c **** 
1819:../../source/src/FWlib/src/stm32f10x_tim.c **** /**
1820:../../source/src/FWlib/src/stm32f10x_tim.c ****   * @brief  Configures the TIMx Channel 1N polarity.
1821:../../source/src/FWlib/src/stm32f10x_tim.c ****   * @param  TIMx: where x can be 1, 8, 15, 16 or 17 to select the TIM peripheral.
ARM GAS  G:\Users\Jaxb\AppData\Local\Temp\ccSQWSCJ.s 			page 110


1822:../../source/src/FWlib/src/stm32f10x_tim.c ****   * @param  TIM_OCNPolarity: specifies the OC1N Polarity
1823:../../source/src/FWlib/src/stm32f10x_tim.c ****   *   This parameter can be one of the following values:
1824:../../source/src/FWlib/src/stm32f10x_tim.c ****   *     @arg TIM_OCNPolarity_High: Output Compare active high
1825:../../source/src/FWlib/src/stm32f10x_tim.c ****   *     @arg TIM_OCNPolarity_Low: Output Compare active low
1826:../../source/src/FWlib/src/stm32f10x_tim.c ****   * @retval None
1827:../../source/src/FWlib/src/stm32f10x_tim.c ****   */
1828:../../source/src/FWlib/src/stm32f10x_tim.c **** void TIM_OC1NPolarityConfig(TIM_TypeDef* TIMx, uint16_t TIM_OCNPolarity)
1829:../../source/src/FWlib/src/stm32f10x_tim.c **** {
 4320              		.loc 1 1829 0
 4321              		.cfi_startproc
 4322              		@ args = 0, pretend = 0, frame = 16
 4323              		@ frame_needed = 1, uses_anonymous_args = 0
 4324              		@ link register save eliminated.
 4325 127e 80B4     		push	{r7}
 4326              	.LCFI293:
 4327              		.cfi_def_cfa_offset 4
 4328              		.cfi_offset 7, -4
 4329 1280 85B0     		sub	sp, sp, #20
 4330              	.LCFI294:
 4331              		.cfi_def_cfa_offset 24
 4332 1282 00AF     		add	r7, sp, #0
 4333              	.LCFI295:
 4334              		.cfi_def_cfa_register 7
 4335 1284 7860     		str	r0, [r7, #4]
 4336 1286 0B46     		mov	r3, r1
 4337 1288 7B80     		strh	r3, [r7, #2]	@ movhi
1830:../../source/src/FWlib/src/stm32f10x_tim.c ****   uint16_t tmpccer = 0;
 4338              		.loc 1 1830 0
 4339 128a 0023     		movs	r3, #0
 4340 128c FB81     		strh	r3, [r7, #14]	@ movhi
1831:../../source/src/FWlib/src/stm32f10x_tim.c ****   /* Check the parameters */
1832:../../source/src/FWlib/src/stm32f10x_tim.c ****   assert_param(IS_TIM_LIST2_PERIPH(TIMx));
1833:../../source/src/FWlib/src/stm32f10x_tim.c ****   assert_param(IS_TIM_OCN_POLARITY(TIM_OCNPolarity));
1834:../../source/src/FWlib/src/stm32f10x_tim.c ****    
1835:../../source/src/FWlib/src/stm32f10x_tim.c ****   tmpccer = TIMx->CCER;
 4341              		.loc 1 1835 0
 4342 128e 7B68     		ldr	r3, [r7, #4]
 4343 1290 1B8C     		ldrh	r3, [r3, #32]	@ movhi
 4344 1292 FB81     		strh	r3, [r7, #14]	@ movhi
1836:../../source/src/FWlib/src/stm32f10x_tim.c ****   /* Set or Reset the CC1NP Bit */
1837:../../source/src/FWlib/src/stm32f10x_tim.c ****   tmpccer &= (uint16_t)~((uint16_t)TIM_CCER_CC1NP);
 4345              		.loc 1 1837 0
 4346 1294 FB89     		ldrh	r3, [r7, #14]	@ movhi
 4347 1296 23F00803 		bic	r3, r3, #8
 4348 129a FB81     		strh	r3, [r7, #14]	@ movhi
1838:../../source/src/FWlib/src/stm32f10x_tim.c ****   tmpccer |= TIM_OCNPolarity;
 4349              		.loc 1 1838 0
 4350 129c FA89     		ldrh	r2, [r7, #14]	@ movhi
 4351 129e 7B88     		ldrh	r3, [r7, #2]	@ movhi
 4352 12a0 1343     		orrs	r3, r3, r2
 4353 12a2 FB81     		strh	r3, [r7, #14]	@ movhi
1839:../../source/src/FWlib/src/stm32f10x_tim.c ****   /* Write to TIMx CCER register */
1840:../../source/src/FWlib/src/stm32f10x_tim.c ****   TIMx->CCER = tmpccer;
 4354              		.loc 1 1840 0
 4355 12a4 7B68     		ldr	r3, [r7, #4]
 4356 12a6 FA89     		ldrh	r2, [r7, #14]	@ movhi
 4357 12a8 1A84     		strh	r2, [r3, #32]	@ movhi
ARM GAS  G:\Users\Jaxb\AppData\Local\Temp\ccSQWSCJ.s 			page 111


1841:../../source/src/FWlib/src/stm32f10x_tim.c **** }
 4358              		.loc 1 1841 0
 4359 12aa 00BF     		nop
 4360 12ac 1437     		adds	r7, r7, #20
 4361              	.LCFI296:
 4362              		.cfi_def_cfa_offset 4
 4363 12ae BD46     		mov	sp, r7
 4364              	.LCFI297:
 4365              		.cfi_def_cfa_register 13
 4366              		@ sp needed
 4367 12b0 80BC     		pop	{r7}
 4368              	.LCFI298:
 4369              		.cfi_restore 7
 4370              		.cfi_def_cfa_offset 0
 4371 12b2 7047     		bx	lr
 4372              		.cfi_endproc
 4373              	.LFE79:
 4374              		.size	TIM_OC1NPolarityConfig, .-TIM_OC1NPolarityConfig
 4375              		.align	1
 4376              		.global	TIM_OC2PolarityConfig
 4377              		.syntax unified
 4378              		.thumb
 4379              		.thumb_func
 4380              		.fpu softvfp
 4381              		.type	TIM_OC2PolarityConfig, %function
 4382              	TIM_OC2PolarityConfig:
 4383              	.LFB80:
1842:../../source/src/FWlib/src/stm32f10x_tim.c **** 
1843:../../source/src/FWlib/src/stm32f10x_tim.c **** /**
1844:../../source/src/FWlib/src/stm32f10x_tim.c ****   * @brief  Configures the TIMx channel 2 polarity.
1845:../../source/src/FWlib/src/stm32f10x_tim.c ****   * @param  TIMx: where x can be 1, 2, 3, 4, 5, 8, 9, 12 or 15 to select the TIM peripheral.
1846:../../source/src/FWlib/src/stm32f10x_tim.c ****   * @param  TIM_OCPolarity: specifies the OC2 Polarity
1847:../../source/src/FWlib/src/stm32f10x_tim.c ****   *   This parameter can be one of the following values:
1848:../../source/src/FWlib/src/stm32f10x_tim.c ****   *     @arg TIM_OCPolarity_High: Output Compare active high
1849:../../source/src/FWlib/src/stm32f10x_tim.c ****   *     @arg TIM_OCPolarity_Low: Output Compare active low
1850:../../source/src/FWlib/src/stm32f10x_tim.c ****   * @retval None
1851:../../source/src/FWlib/src/stm32f10x_tim.c ****   */
1852:../../source/src/FWlib/src/stm32f10x_tim.c **** void TIM_OC2PolarityConfig(TIM_TypeDef* TIMx, uint16_t TIM_OCPolarity)
1853:../../source/src/FWlib/src/stm32f10x_tim.c **** {
 4384              		.loc 1 1853 0
 4385              		.cfi_startproc
 4386              		@ args = 0, pretend = 0, frame = 16
 4387              		@ frame_needed = 1, uses_anonymous_args = 0
 4388              		@ link register save eliminated.
 4389 12b4 80B4     		push	{r7}
 4390              	.LCFI299:
 4391              		.cfi_def_cfa_offset 4
 4392              		.cfi_offset 7, -4
 4393 12b6 85B0     		sub	sp, sp, #20
 4394              	.LCFI300:
 4395              		.cfi_def_cfa_offset 24
 4396 12b8 00AF     		add	r7, sp, #0
 4397              	.LCFI301:
 4398              		.cfi_def_cfa_register 7
 4399 12ba 7860     		str	r0, [r7, #4]
 4400 12bc 0B46     		mov	r3, r1
 4401 12be 7B80     		strh	r3, [r7, #2]	@ movhi
ARM GAS  G:\Users\Jaxb\AppData\Local\Temp\ccSQWSCJ.s 			page 112


1854:../../source/src/FWlib/src/stm32f10x_tim.c ****   uint16_t tmpccer = 0;
 4402              		.loc 1 1854 0
 4403 12c0 0023     		movs	r3, #0
 4404 12c2 FB81     		strh	r3, [r7, #14]	@ movhi
1855:../../source/src/FWlib/src/stm32f10x_tim.c ****   /* Check the parameters */
1856:../../source/src/FWlib/src/stm32f10x_tim.c ****   assert_param(IS_TIM_LIST6_PERIPH(TIMx));
1857:../../source/src/FWlib/src/stm32f10x_tim.c ****   assert_param(IS_TIM_OC_POLARITY(TIM_OCPolarity));
1858:../../source/src/FWlib/src/stm32f10x_tim.c ****   tmpccer = TIMx->CCER;
 4405              		.loc 1 1858 0
 4406 12c4 7B68     		ldr	r3, [r7, #4]
 4407 12c6 1B8C     		ldrh	r3, [r3, #32]	@ movhi
 4408 12c8 FB81     		strh	r3, [r7, #14]	@ movhi
1859:../../source/src/FWlib/src/stm32f10x_tim.c ****   /* Set or Reset the CC2P Bit */
1860:../../source/src/FWlib/src/stm32f10x_tim.c ****   tmpccer &= (uint16_t)~((uint16_t)TIM_CCER_CC2P);
 4409              		.loc 1 1860 0
 4410 12ca FB89     		ldrh	r3, [r7, #14]	@ movhi
 4411 12cc 23F02003 		bic	r3, r3, #32
 4412 12d0 FB81     		strh	r3, [r7, #14]	@ movhi
1861:../../source/src/FWlib/src/stm32f10x_tim.c ****   tmpccer |= (uint16_t)(TIM_OCPolarity << 4);
 4413              		.loc 1 1861 0
 4414 12d2 7B88     		ldrh	r3, [r7, #2]	@ movhi
 4415 12d4 1B01     		lsls	r3, r3, #4
 4416 12d6 9AB2     		uxth	r2, r3
 4417 12d8 FB89     		ldrh	r3, [r7, #14]	@ movhi
 4418 12da 1343     		orrs	r3, r3, r2
 4419 12dc FB81     		strh	r3, [r7, #14]	@ movhi
1862:../../source/src/FWlib/src/stm32f10x_tim.c ****   /* Write to TIMx CCER register */
1863:../../source/src/FWlib/src/stm32f10x_tim.c ****   TIMx->CCER = tmpccer;
 4420              		.loc 1 1863 0
 4421 12de 7B68     		ldr	r3, [r7, #4]
 4422 12e0 FA89     		ldrh	r2, [r7, #14]	@ movhi
 4423 12e2 1A84     		strh	r2, [r3, #32]	@ movhi
1864:../../source/src/FWlib/src/stm32f10x_tim.c **** }
 4424              		.loc 1 1864 0
 4425 12e4 00BF     		nop
 4426 12e6 1437     		adds	r7, r7, #20
 4427              	.LCFI302:
 4428              		.cfi_def_cfa_offset 4
 4429 12e8 BD46     		mov	sp, r7
 4430              	.LCFI303:
 4431              		.cfi_def_cfa_register 13
 4432              		@ sp needed
 4433 12ea 80BC     		pop	{r7}
 4434              	.LCFI304:
 4435              		.cfi_restore 7
 4436              		.cfi_def_cfa_offset 0
 4437 12ec 7047     		bx	lr
 4438              		.cfi_endproc
 4439              	.LFE80:
 4440              		.size	TIM_OC2PolarityConfig, .-TIM_OC2PolarityConfig
 4441              		.align	1
 4442              		.global	TIM_OC2NPolarityConfig
 4443              		.syntax unified
 4444              		.thumb
 4445              		.thumb_func
 4446              		.fpu softvfp
 4447              		.type	TIM_OC2NPolarityConfig, %function
ARM GAS  G:\Users\Jaxb\AppData\Local\Temp\ccSQWSCJ.s 			page 113


 4448              	TIM_OC2NPolarityConfig:
 4449              	.LFB81:
1865:../../source/src/FWlib/src/stm32f10x_tim.c **** 
1866:../../source/src/FWlib/src/stm32f10x_tim.c **** /**
1867:../../source/src/FWlib/src/stm32f10x_tim.c ****   * @brief  Configures the TIMx Channel 2N polarity.
1868:../../source/src/FWlib/src/stm32f10x_tim.c ****   * @param  TIMx: where x can be 1 or 8 to select the TIM peripheral.
1869:../../source/src/FWlib/src/stm32f10x_tim.c ****   * @param  TIM_OCNPolarity: specifies the OC2N Polarity
1870:../../source/src/FWlib/src/stm32f10x_tim.c ****   *   This parameter can be one of the following values:
1871:../../source/src/FWlib/src/stm32f10x_tim.c ****   *     @arg TIM_OCNPolarity_High: Output Compare active high
1872:../../source/src/FWlib/src/stm32f10x_tim.c ****   *     @arg TIM_OCNPolarity_Low: Output Compare active low
1873:../../source/src/FWlib/src/stm32f10x_tim.c ****   * @retval None
1874:../../source/src/FWlib/src/stm32f10x_tim.c ****   */
1875:../../source/src/FWlib/src/stm32f10x_tim.c **** void TIM_OC2NPolarityConfig(TIM_TypeDef* TIMx, uint16_t TIM_OCNPolarity)
1876:../../source/src/FWlib/src/stm32f10x_tim.c **** {
 4450              		.loc 1 1876 0
 4451              		.cfi_startproc
 4452              		@ args = 0, pretend = 0, frame = 16
 4453              		@ frame_needed = 1, uses_anonymous_args = 0
 4454              		@ link register save eliminated.
 4455 12ee 80B4     		push	{r7}
 4456              	.LCFI305:
 4457              		.cfi_def_cfa_offset 4
 4458              		.cfi_offset 7, -4
 4459 12f0 85B0     		sub	sp, sp, #20
 4460              	.LCFI306:
 4461              		.cfi_def_cfa_offset 24
 4462 12f2 00AF     		add	r7, sp, #0
 4463              	.LCFI307:
 4464              		.cfi_def_cfa_register 7
 4465 12f4 7860     		str	r0, [r7, #4]
 4466 12f6 0B46     		mov	r3, r1
 4467 12f8 7B80     		strh	r3, [r7, #2]	@ movhi
1877:../../source/src/FWlib/src/stm32f10x_tim.c ****   uint16_t tmpccer = 0;
 4468              		.loc 1 1877 0
 4469 12fa 0023     		movs	r3, #0
 4470 12fc FB81     		strh	r3, [r7, #14]	@ movhi
1878:../../source/src/FWlib/src/stm32f10x_tim.c ****   /* Check the parameters */
1879:../../source/src/FWlib/src/stm32f10x_tim.c ****   assert_param(IS_TIM_LIST1_PERIPH(TIMx));
1880:../../source/src/FWlib/src/stm32f10x_tim.c ****   assert_param(IS_TIM_OCN_POLARITY(TIM_OCNPolarity));
1881:../../source/src/FWlib/src/stm32f10x_tim.c ****   
1882:../../source/src/FWlib/src/stm32f10x_tim.c ****   tmpccer = TIMx->CCER;
 4471              		.loc 1 1882 0
 4472 12fe 7B68     		ldr	r3, [r7, #4]
 4473 1300 1B8C     		ldrh	r3, [r3, #32]	@ movhi
 4474 1302 FB81     		strh	r3, [r7, #14]	@ movhi
1883:../../source/src/FWlib/src/stm32f10x_tim.c ****   /* Set or Reset the CC2NP Bit */
1884:../../source/src/FWlib/src/stm32f10x_tim.c ****   tmpccer &= (uint16_t)~((uint16_t)TIM_CCER_CC2NP);
 4475              		.loc 1 1884 0
 4476 1304 FB89     		ldrh	r3, [r7, #14]	@ movhi
 4477 1306 23F08003 		bic	r3, r3, #128
 4478 130a FB81     		strh	r3, [r7, #14]	@ movhi
1885:../../source/src/FWlib/src/stm32f10x_tim.c ****   tmpccer |= (uint16_t)(TIM_OCNPolarity << 4);
 4479              		.loc 1 1885 0
 4480 130c 7B88     		ldrh	r3, [r7, #2]	@ movhi
 4481 130e 1B01     		lsls	r3, r3, #4
 4482 1310 9AB2     		uxth	r2, r3
 4483 1312 FB89     		ldrh	r3, [r7, #14]	@ movhi
ARM GAS  G:\Users\Jaxb\AppData\Local\Temp\ccSQWSCJ.s 			page 114


 4484 1314 1343     		orrs	r3, r3, r2
 4485 1316 FB81     		strh	r3, [r7, #14]	@ movhi
1886:../../source/src/FWlib/src/stm32f10x_tim.c ****   /* Write to TIMx CCER register */
1887:../../source/src/FWlib/src/stm32f10x_tim.c ****   TIMx->CCER = tmpccer;
 4486              		.loc 1 1887 0
 4487 1318 7B68     		ldr	r3, [r7, #4]
 4488 131a FA89     		ldrh	r2, [r7, #14]	@ movhi
 4489 131c 1A84     		strh	r2, [r3, #32]	@ movhi
1888:../../source/src/FWlib/src/stm32f10x_tim.c **** }
 4490              		.loc 1 1888 0
 4491 131e 00BF     		nop
 4492 1320 1437     		adds	r7, r7, #20
 4493              	.LCFI308:
 4494              		.cfi_def_cfa_offset 4
 4495 1322 BD46     		mov	sp, r7
 4496              	.LCFI309:
 4497              		.cfi_def_cfa_register 13
 4498              		@ sp needed
 4499 1324 80BC     		pop	{r7}
 4500              	.LCFI310:
 4501              		.cfi_restore 7
 4502              		.cfi_def_cfa_offset 0
 4503 1326 7047     		bx	lr
 4504              		.cfi_endproc
 4505              	.LFE81:
 4506              		.size	TIM_OC2NPolarityConfig, .-TIM_OC2NPolarityConfig
 4507              		.align	1
 4508              		.global	TIM_OC3PolarityConfig
 4509              		.syntax unified
 4510              		.thumb
 4511              		.thumb_func
 4512              		.fpu softvfp
 4513              		.type	TIM_OC3PolarityConfig, %function
 4514              	TIM_OC3PolarityConfig:
 4515              	.LFB82:
1889:../../source/src/FWlib/src/stm32f10x_tim.c **** 
1890:../../source/src/FWlib/src/stm32f10x_tim.c **** /**
1891:../../source/src/FWlib/src/stm32f10x_tim.c ****   * @brief  Configures the TIMx channel 3 polarity.
1892:../../source/src/FWlib/src/stm32f10x_tim.c ****   * @param  TIMx: where x can be 1, 2, 3, 4, 5 or 8 to select the TIM peripheral.
1893:../../source/src/FWlib/src/stm32f10x_tim.c ****   * @param  TIM_OCPolarity: specifies the OC3 Polarity
1894:../../source/src/FWlib/src/stm32f10x_tim.c ****   *   This parameter can be one of the following values:
1895:../../source/src/FWlib/src/stm32f10x_tim.c ****   *     @arg TIM_OCPolarity_High: Output Compare active high
1896:../../source/src/FWlib/src/stm32f10x_tim.c ****   *     @arg TIM_OCPolarity_Low: Output Compare active low
1897:../../source/src/FWlib/src/stm32f10x_tim.c ****   * @retval None
1898:../../source/src/FWlib/src/stm32f10x_tim.c ****   */
1899:../../source/src/FWlib/src/stm32f10x_tim.c **** void TIM_OC3PolarityConfig(TIM_TypeDef* TIMx, uint16_t TIM_OCPolarity)
1900:../../source/src/FWlib/src/stm32f10x_tim.c **** {
 4516              		.loc 1 1900 0
 4517              		.cfi_startproc
 4518              		@ args = 0, pretend = 0, frame = 16
 4519              		@ frame_needed = 1, uses_anonymous_args = 0
 4520              		@ link register save eliminated.
 4521 1328 80B4     		push	{r7}
 4522              	.LCFI311:
 4523              		.cfi_def_cfa_offset 4
 4524              		.cfi_offset 7, -4
 4525 132a 85B0     		sub	sp, sp, #20
ARM GAS  G:\Users\Jaxb\AppData\Local\Temp\ccSQWSCJ.s 			page 115


 4526              	.LCFI312:
 4527              		.cfi_def_cfa_offset 24
 4528 132c 00AF     		add	r7, sp, #0
 4529              	.LCFI313:
 4530              		.cfi_def_cfa_register 7
 4531 132e 7860     		str	r0, [r7, #4]
 4532 1330 0B46     		mov	r3, r1
 4533 1332 7B80     		strh	r3, [r7, #2]	@ movhi
1901:../../source/src/FWlib/src/stm32f10x_tim.c ****   uint16_t tmpccer = 0;
 4534              		.loc 1 1901 0
 4535 1334 0023     		movs	r3, #0
 4536 1336 FB81     		strh	r3, [r7, #14]	@ movhi
1902:../../source/src/FWlib/src/stm32f10x_tim.c ****   /* Check the parameters */
1903:../../source/src/FWlib/src/stm32f10x_tim.c ****   assert_param(IS_TIM_LIST3_PERIPH(TIMx));
1904:../../source/src/FWlib/src/stm32f10x_tim.c ****   assert_param(IS_TIM_OC_POLARITY(TIM_OCPolarity));
1905:../../source/src/FWlib/src/stm32f10x_tim.c ****   tmpccer = TIMx->CCER;
 4537              		.loc 1 1905 0
 4538 1338 7B68     		ldr	r3, [r7, #4]
 4539 133a 1B8C     		ldrh	r3, [r3, #32]	@ movhi
 4540 133c FB81     		strh	r3, [r7, #14]	@ movhi
1906:../../source/src/FWlib/src/stm32f10x_tim.c ****   /* Set or Reset the CC3P Bit */
1907:../../source/src/FWlib/src/stm32f10x_tim.c ****   tmpccer &= (uint16_t)~((uint16_t)TIM_CCER_CC3P);
 4541              		.loc 1 1907 0
 4542 133e FB89     		ldrh	r3, [r7, #14]	@ movhi
 4543 1340 23F40073 		bic	r3, r3, #512
 4544 1344 FB81     		strh	r3, [r7, #14]	@ movhi
1908:../../source/src/FWlib/src/stm32f10x_tim.c ****   tmpccer |= (uint16_t)(TIM_OCPolarity << 8);
 4545              		.loc 1 1908 0
 4546 1346 7B88     		ldrh	r3, [r7, #2]	@ movhi
 4547 1348 1B02     		lsls	r3, r3, #8
 4548 134a 9AB2     		uxth	r2, r3
 4549 134c FB89     		ldrh	r3, [r7, #14]	@ movhi
 4550 134e 1343     		orrs	r3, r3, r2
 4551 1350 FB81     		strh	r3, [r7, #14]	@ movhi
1909:../../source/src/FWlib/src/stm32f10x_tim.c ****   /* Write to TIMx CCER register */
1910:../../source/src/FWlib/src/stm32f10x_tim.c ****   TIMx->CCER = tmpccer;
 4552              		.loc 1 1910 0
 4553 1352 7B68     		ldr	r3, [r7, #4]
 4554 1354 FA89     		ldrh	r2, [r7, #14]	@ movhi
 4555 1356 1A84     		strh	r2, [r3, #32]	@ movhi
1911:../../source/src/FWlib/src/stm32f10x_tim.c **** }
 4556              		.loc 1 1911 0
 4557 1358 00BF     		nop
 4558 135a 1437     		adds	r7, r7, #20
 4559              	.LCFI314:
 4560              		.cfi_def_cfa_offset 4
 4561 135c BD46     		mov	sp, r7
 4562              	.LCFI315:
 4563              		.cfi_def_cfa_register 13
 4564              		@ sp needed
 4565 135e 80BC     		pop	{r7}
 4566              	.LCFI316:
 4567              		.cfi_restore 7
 4568              		.cfi_def_cfa_offset 0
 4569 1360 7047     		bx	lr
 4570              		.cfi_endproc
 4571              	.LFE82:
ARM GAS  G:\Users\Jaxb\AppData\Local\Temp\ccSQWSCJ.s 			page 116


 4572              		.size	TIM_OC3PolarityConfig, .-TIM_OC3PolarityConfig
 4573              		.align	1
 4574              		.global	TIM_OC3NPolarityConfig
 4575              		.syntax unified
 4576              		.thumb
 4577              		.thumb_func
 4578              		.fpu softvfp
 4579              		.type	TIM_OC3NPolarityConfig, %function
 4580              	TIM_OC3NPolarityConfig:
 4581              	.LFB83:
1912:../../source/src/FWlib/src/stm32f10x_tim.c **** 
1913:../../source/src/FWlib/src/stm32f10x_tim.c **** /**
1914:../../source/src/FWlib/src/stm32f10x_tim.c ****   * @brief  Configures the TIMx Channel 3N polarity.
1915:../../source/src/FWlib/src/stm32f10x_tim.c ****   * @param  TIMx: where x can be 1 or 8 to select the TIM peripheral.
1916:../../source/src/FWlib/src/stm32f10x_tim.c ****   * @param  TIM_OCNPolarity: specifies the OC3N Polarity
1917:../../source/src/FWlib/src/stm32f10x_tim.c ****   *   This parameter can be one of the following values:
1918:../../source/src/FWlib/src/stm32f10x_tim.c ****   *     @arg TIM_OCNPolarity_High: Output Compare active high
1919:../../source/src/FWlib/src/stm32f10x_tim.c ****   *     @arg TIM_OCNPolarity_Low: Output Compare active low
1920:../../source/src/FWlib/src/stm32f10x_tim.c ****   * @retval None
1921:../../source/src/FWlib/src/stm32f10x_tim.c ****   */
1922:../../source/src/FWlib/src/stm32f10x_tim.c **** void TIM_OC3NPolarityConfig(TIM_TypeDef* TIMx, uint16_t TIM_OCNPolarity)
1923:../../source/src/FWlib/src/stm32f10x_tim.c **** {
 4582              		.loc 1 1923 0
 4583              		.cfi_startproc
 4584              		@ args = 0, pretend = 0, frame = 16
 4585              		@ frame_needed = 1, uses_anonymous_args = 0
 4586              		@ link register save eliminated.
 4587 1362 80B4     		push	{r7}
 4588              	.LCFI317:
 4589              		.cfi_def_cfa_offset 4
 4590              		.cfi_offset 7, -4
 4591 1364 85B0     		sub	sp, sp, #20
 4592              	.LCFI318:
 4593              		.cfi_def_cfa_offset 24
 4594 1366 00AF     		add	r7, sp, #0
 4595              	.LCFI319:
 4596              		.cfi_def_cfa_register 7
 4597 1368 7860     		str	r0, [r7, #4]
 4598 136a 0B46     		mov	r3, r1
 4599 136c 7B80     		strh	r3, [r7, #2]	@ movhi
1924:../../source/src/FWlib/src/stm32f10x_tim.c ****   uint16_t tmpccer = 0;
 4600              		.loc 1 1924 0
 4601 136e 0023     		movs	r3, #0
 4602 1370 FB81     		strh	r3, [r7, #14]	@ movhi
1925:../../source/src/FWlib/src/stm32f10x_tim.c ****  
1926:../../source/src/FWlib/src/stm32f10x_tim.c ****   /* Check the parameters */
1927:../../source/src/FWlib/src/stm32f10x_tim.c ****   assert_param(IS_TIM_LIST1_PERIPH(TIMx));
1928:../../source/src/FWlib/src/stm32f10x_tim.c ****   assert_param(IS_TIM_OCN_POLARITY(TIM_OCNPolarity));
1929:../../source/src/FWlib/src/stm32f10x_tim.c ****     
1930:../../source/src/FWlib/src/stm32f10x_tim.c ****   tmpccer = TIMx->CCER;
 4603              		.loc 1 1930 0
 4604 1372 7B68     		ldr	r3, [r7, #4]
 4605 1374 1B8C     		ldrh	r3, [r3, #32]	@ movhi
 4606 1376 FB81     		strh	r3, [r7, #14]	@ movhi
1931:../../source/src/FWlib/src/stm32f10x_tim.c ****   /* Set or Reset the CC3NP Bit */
1932:../../source/src/FWlib/src/stm32f10x_tim.c ****   tmpccer &= (uint16_t)~((uint16_t)TIM_CCER_CC3NP);
 4607              		.loc 1 1932 0
ARM GAS  G:\Users\Jaxb\AppData\Local\Temp\ccSQWSCJ.s 			page 117


 4608 1378 FB89     		ldrh	r3, [r7, #14]	@ movhi
 4609 137a 23F40063 		bic	r3, r3, #2048
 4610 137e FB81     		strh	r3, [r7, #14]	@ movhi
1933:../../source/src/FWlib/src/stm32f10x_tim.c ****   tmpccer |= (uint16_t)(TIM_OCNPolarity << 8);
 4611              		.loc 1 1933 0
 4612 1380 7B88     		ldrh	r3, [r7, #2]	@ movhi
 4613 1382 1B02     		lsls	r3, r3, #8
 4614 1384 9AB2     		uxth	r2, r3
 4615 1386 FB89     		ldrh	r3, [r7, #14]	@ movhi
 4616 1388 1343     		orrs	r3, r3, r2
 4617 138a FB81     		strh	r3, [r7, #14]	@ movhi
1934:../../source/src/FWlib/src/stm32f10x_tim.c ****   /* Write to TIMx CCER register */
1935:../../source/src/FWlib/src/stm32f10x_tim.c ****   TIMx->CCER = tmpccer;
 4618              		.loc 1 1935 0
 4619 138c 7B68     		ldr	r3, [r7, #4]
 4620 138e FA89     		ldrh	r2, [r7, #14]	@ movhi
 4621 1390 1A84     		strh	r2, [r3, #32]	@ movhi
1936:../../source/src/FWlib/src/stm32f10x_tim.c **** }
 4622              		.loc 1 1936 0
 4623 1392 00BF     		nop
 4624 1394 1437     		adds	r7, r7, #20
 4625              	.LCFI320:
 4626              		.cfi_def_cfa_offset 4
 4627 1396 BD46     		mov	sp, r7
 4628              	.LCFI321:
 4629              		.cfi_def_cfa_register 13
 4630              		@ sp needed
 4631 1398 80BC     		pop	{r7}
 4632              	.LCFI322:
 4633              		.cfi_restore 7
 4634              		.cfi_def_cfa_offset 0
 4635 139a 7047     		bx	lr
 4636              		.cfi_endproc
 4637              	.LFE83:
 4638              		.size	TIM_OC3NPolarityConfig, .-TIM_OC3NPolarityConfig
 4639              		.align	1
 4640              		.global	TIM_OC4PolarityConfig
 4641              		.syntax unified
 4642              		.thumb
 4643              		.thumb_func
 4644              		.fpu softvfp
 4645              		.type	TIM_OC4PolarityConfig, %function
 4646              	TIM_OC4PolarityConfig:
 4647              	.LFB84:
1937:../../source/src/FWlib/src/stm32f10x_tim.c **** 
1938:../../source/src/FWlib/src/stm32f10x_tim.c **** /**
1939:../../source/src/FWlib/src/stm32f10x_tim.c ****   * @brief  Configures the TIMx channel 4 polarity.
1940:../../source/src/FWlib/src/stm32f10x_tim.c ****   * @param  TIMx: where x can be 1, 2, 3, 4, 5 or 8 to select the TIM peripheral.
1941:../../source/src/FWlib/src/stm32f10x_tim.c ****   * @param  TIM_OCPolarity: specifies the OC4 Polarity
1942:../../source/src/FWlib/src/stm32f10x_tim.c ****   *   This parameter can be one of the following values:
1943:../../source/src/FWlib/src/stm32f10x_tim.c ****   *     @arg TIM_OCPolarity_High: Output Compare active high
1944:../../source/src/FWlib/src/stm32f10x_tim.c ****   *     @arg TIM_OCPolarity_Low: Output Compare active low
1945:../../source/src/FWlib/src/stm32f10x_tim.c ****   * @retval None
1946:../../source/src/FWlib/src/stm32f10x_tim.c ****   */
1947:../../source/src/FWlib/src/stm32f10x_tim.c **** void TIM_OC4PolarityConfig(TIM_TypeDef* TIMx, uint16_t TIM_OCPolarity)
1948:../../source/src/FWlib/src/stm32f10x_tim.c **** {
 4648              		.loc 1 1948 0
ARM GAS  G:\Users\Jaxb\AppData\Local\Temp\ccSQWSCJ.s 			page 118


 4649              		.cfi_startproc
 4650              		@ args = 0, pretend = 0, frame = 16
 4651              		@ frame_needed = 1, uses_anonymous_args = 0
 4652              		@ link register save eliminated.
 4653 139c 80B4     		push	{r7}
 4654              	.LCFI323:
 4655              		.cfi_def_cfa_offset 4
 4656              		.cfi_offset 7, -4
 4657 139e 85B0     		sub	sp, sp, #20
 4658              	.LCFI324:
 4659              		.cfi_def_cfa_offset 24
 4660 13a0 00AF     		add	r7, sp, #0
 4661              	.LCFI325:
 4662              		.cfi_def_cfa_register 7
 4663 13a2 7860     		str	r0, [r7, #4]
 4664 13a4 0B46     		mov	r3, r1
 4665 13a6 7B80     		strh	r3, [r7, #2]	@ movhi
1949:../../source/src/FWlib/src/stm32f10x_tim.c ****   uint16_t tmpccer = 0;
 4666              		.loc 1 1949 0
 4667 13a8 0023     		movs	r3, #0
 4668 13aa FB81     		strh	r3, [r7, #14]	@ movhi
1950:../../source/src/FWlib/src/stm32f10x_tim.c ****   /* Check the parameters */
1951:../../source/src/FWlib/src/stm32f10x_tim.c ****   assert_param(IS_TIM_LIST3_PERIPH(TIMx));
1952:../../source/src/FWlib/src/stm32f10x_tim.c ****   assert_param(IS_TIM_OC_POLARITY(TIM_OCPolarity));
1953:../../source/src/FWlib/src/stm32f10x_tim.c ****   tmpccer = TIMx->CCER;
 4669              		.loc 1 1953 0
 4670 13ac 7B68     		ldr	r3, [r7, #4]
 4671 13ae 1B8C     		ldrh	r3, [r3, #32]	@ movhi
 4672 13b0 FB81     		strh	r3, [r7, #14]	@ movhi
1954:../../source/src/FWlib/src/stm32f10x_tim.c ****   /* Set or Reset the CC4P Bit */
1955:../../source/src/FWlib/src/stm32f10x_tim.c ****   tmpccer &= (uint16_t)~((uint16_t)TIM_CCER_CC4P);
 4673              		.loc 1 1955 0
 4674 13b2 FB89     		ldrh	r3, [r7, #14]	@ movhi
 4675 13b4 23F40053 		bic	r3, r3, #8192
 4676 13b8 FB81     		strh	r3, [r7, #14]	@ movhi
1956:../../source/src/FWlib/src/stm32f10x_tim.c ****   tmpccer |= (uint16_t)(TIM_OCPolarity << 12);
 4677              		.loc 1 1956 0
 4678 13ba 7B88     		ldrh	r3, [r7, #2]	@ movhi
 4679 13bc 1B03     		lsls	r3, r3, #12
 4680 13be 9AB2     		uxth	r2, r3
 4681 13c0 FB89     		ldrh	r3, [r7, #14]	@ movhi
 4682 13c2 1343     		orrs	r3, r3, r2
 4683 13c4 FB81     		strh	r3, [r7, #14]	@ movhi
1957:../../source/src/FWlib/src/stm32f10x_tim.c ****   /* Write to TIMx CCER register */
1958:../../source/src/FWlib/src/stm32f10x_tim.c ****   TIMx->CCER = tmpccer;
 4684              		.loc 1 1958 0
 4685 13c6 7B68     		ldr	r3, [r7, #4]
 4686 13c8 FA89     		ldrh	r2, [r7, #14]	@ movhi
 4687 13ca 1A84     		strh	r2, [r3, #32]	@ movhi
1959:../../source/src/FWlib/src/stm32f10x_tim.c **** }
 4688              		.loc 1 1959 0
 4689 13cc 00BF     		nop
 4690 13ce 1437     		adds	r7, r7, #20
 4691              	.LCFI326:
 4692              		.cfi_def_cfa_offset 4
 4693 13d0 BD46     		mov	sp, r7
 4694              	.LCFI327:
ARM GAS  G:\Users\Jaxb\AppData\Local\Temp\ccSQWSCJ.s 			page 119


 4695              		.cfi_def_cfa_register 13
 4696              		@ sp needed
 4697 13d2 80BC     		pop	{r7}
 4698              	.LCFI328:
 4699              		.cfi_restore 7
 4700              		.cfi_def_cfa_offset 0
 4701 13d4 7047     		bx	lr
 4702              		.cfi_endproc
 4703              	.LFE84:
 4704              		.size	TIM_OC4PolarityConfig, .-TIM_OC4PolarityConfig
 4705              		.align	1
 4706              		.global	TIM_CCxCmd
 4707              		.syntax unified
 4708              		.thumb
 4709              		.thumb_func
 4710              		.fpu softvfp
 4711              		.type	TIM_CCxCmd, %function
 4712              	TIM_CCxCmd:
 4713              	.LFB85:
1960:../../source/src/FWlib/src/stm32f10x_tim.c **** 
1961:../../source/src/FWlib/src/stm32f10x_tim.c **** /**
1962:../../source/src/FWlib/src/stm32f10x_tim.c ****   * @brief  Enables or disables the TIM Capture Compare Channel x.
1963:../../source/src/FWlib/src/stm32f10x_tim.c ****   * @param  TIMx: where x can be 1 to 17 except 6 and 7 to select the TIM peripheral.
1964:../../source/src/FWlib/src/stm32f10x_tim.c ****   * @param  TIM_Channel: specifies the TIM Channel
1965:../../source/src/FWlib/src/stm32f10x_tim.c ****   *   This parameter can be one of the following values:
1966:../../source/src/FWlib/src/stm32f10x_tim.c ****   *     @arg TIM_Channel_1: TIM Channel 1
1967:../../source/src/FWlib/src/stm32f10x_tim.c ****   *     @arg TIM_Channel_2: TIM Channel 2
1968:../../source/src/FWlib/src/stm32f10x_tim.c ****   *     @arg TIM_Channel_3: TIM Channel 3
1969:../../source/src/FWlib/src/stm32f10x_tim.c ****   *     @arg TIM_Channel_4: TIM Channel 4
1970:../../source/src/FWlib/src/stm32f10x_tim.c ****   * @param  TIM_CCx: specifies the TIM Channel CCxE bit new state.
1971:../../source/src/FWlib/src/stm32f10x_tim.c ****   *   This parameter can be: TIM_CCx_Enable or TIM_CCx_Disable. 
1972:../../source/src/FWlib/src/stm32f10x_tim.c ****   * @retval None
1973:../../source/src/FWlib/src/stm32f10x_tim.c ****   */
1974:../../source/src/FWlib/src/stm32f10x_tim.c **** void TIM_CCxCmd(TIM_TypeDef* TIMx, uint16_t TIM_Channel, uint16_t TIM_CCx)
1975:../../source/src/FWlib/src/stm32f10x_tim.c **** {
 4714              		.loc 1 1975 0
 4715              		.cfi_startproc
 4716              		@ args = 0, pretend = 0, frame = 16
 4717              		@ frame_needed = 1, uses_anonymous_args = 0
 4718              		@ link register save eliminated.
 4719 13d6 80B4     		push	{r7}
 4720              	.LCFI329:
 4721              		.cfi_def_cfa_offset 4
 4722              		.cfi_offset 7, -4
 4723 13d8 85B0     		sub	sp, sp, #20
 4724              	.LCFI330:
 4725              		.cfi_def_cfa_offset 24
 4726 13da 00AF     		add	r7, sp, #0
 4727              	.LCFI331:
 4728              		.cfi_def_cfa_register 7
 4729 13dc 7860     		str	r0, [r7, #4]
 4730 13de 0B46     		mov	r3, r1
 4731 13e0 7B80     		strh	r3, [r7, #2]	@ movhi
 4732 13e2 1346     		mov	r3, r2	@ movhi
 4733 13e4 3B80     		strh	r3, [r7]	@ movhi
1976:../../source/src/FWlib/src/stm32f10x_tim.c ****   uint16_t tmp = 0;
 4734              		.loc 1 1976 0
ARM GAS  G:\Users\Jaxb\AppData\Local\Temp\ccSQWSCJ.s 			page 120


 4735 13e6 0023     		movs	r3, #0
 4736 13e8 FB81     		strh	r3, [r7, #14]	@ movhi
1977:../../source/src/FWlib/src/stm32f10x_tim.c **** 
1978:../../source/src/FWlib/src/stm32f10x_tim.c ****   /* Check the parameters */
1979:../../source/src/FWlib/src/stm32f10x_tim.c ****   assert_param(IS_TIM_LIST8_PERIPH(TIMx));
1980:../../source/src/FWlib/src/stm32f10x_tim.c ****   assert_param(IS_TIM_CHANNEL(TIM_Channel));
1981:../../source/src/FWlib/src/stm32f10x_tim.c ****   assert_param(IS_TIM_CCX(TIM_CCx));
1982:../../source/src/FWlib/src/stm32f10x_tim.c **** 
1983:../../source/src/FWlib/src/stm32f10x_tim.c ****   tmp = CCER_CCE_Set << TIM_Channel;
 4737              		.loc 1 1983 0
 4738 13ea 7B88     		ldrh	r3, [r7, #2]
 4739 13ec 0122     		movs	r2, #1
 4740 13ee 02FA03F3 		lsl	r3, r2, r3
 4741 13f2 FB81     		strh	r3, [r7, #14]	@ movhi
1984:../../source/src/FWlib/src/stm32f10x_tim.c **** 
1985:../../source/src/FWlib/src/stm32f10x_tim.c ****   /* Reset the CCxE Bit */
1986:../../source/src/FWlib/src/stm32f10x_tim.c ****   TIMx->CCER &= (uint16_t)~ tmp;
 4742              		.loc 1 1986 0
 4743 13f4 7B68     		ldr	r3, [r7, #4]
 4744 13f6 1B8C     		ldrh	r3, [r3, #32]	@ movhi
 4745 13f8 9AB2     		uxth	r2, r3
 4746 13fa FB89     		ldrh	r3, [r7, #14]	@ movhi
 4747 13fc DB43     		mvns	r3, r3
 4748 13fe 9BB2     		uxth	r3, r3
 4749 1400 1340     		ands	r3, r3, r2
 4750 1402 9AB2     		uxth	r2, r3
 4751 1404 7B68     		ldr	r3, [r7, #4]
 4752 1406 1A84     		strh	r2, [r3, #32]	@ movhi
1987:../../source/src/FWlib/src/stm32f10x_tim.c **** 
1988:../../source/src/FWlib/src/stm32f10x_tim.c ****   /* Set or reset the CCxE Bit */ 
1989:../../source/src/FWlib/src/stm32f10x_tim.c ****   TIMx->CCER |=  (uint16_t)(TIM_CCx << TIM_Channel);
 4753              		.loc 1 1989 0
 4754 1408 7B68     		ldr	r3, [r7, #4]
 4755 140a 1B8C     		ldrh	r3, [r3, #32]	@ movhi
 4756 140c 9AB2     		uxth	r2, r3
 4757 140e 3988     		ldrh	r1, [r7]
 4758 1410 7B88     		ldrh	r3, [r7, #2]
 4759 1412 01FA03F3 		lsl	r3, r1, r3
 4760 1416 9BB2     		uxth	r3, r3
 4761 1418 1343     		orrs	r3, r3, r2
 4762 141a 9AB2     		uxth	r2, r3
 4763 141c 7B68     		ldr	r3, [r7, #4]
 4764 141e 1A84     		strh	r2, [r3, #32]	@ movhi
1990:../../source/src/FWlib/src/stm32f10x_tim.c **** }
 4765              		.loc 1 1990 0
 4766 1420 00BF     		nop
 4767 1422 1437     		adds	r7, r7, #20
 4768              	.LCFI332:
 4769              		.cfi_def_cfa_offset 4
 4770 1424 BD46     		mov	sp, r7
 4771              	.LCFI333:
 4772              		.cfi_def_cfa_register 13
 4773              		@ sp needed
 4774 1426 80BC     		pop	{r7}
 4775              	.LCFI334:
 4776              		.cfi_restore 7
 4777              		.cfi_def_cfa_offset 0
ARM GAS  G:\Users\Jaxb\AppData\Local\Temp\ccSQWSCJ.s 			page 121


 4778 1428 7047     		bx	lr
 4779              		.cfi_endproc
 4780              	.LFE85:
 4781              		.size	TIM_CCxCmd, .-TIM_CCxCmd
 4782              		.align	1
 4783              		.global	TIM_CCxNCmd
 4784              		.syntax unified
 4785              		.thumb
 4786              		.thumb_func
 4787              		.fpu softvfp
 4788              		.type	TIM_CCxNCmd, %function
 4789              	TIM_CCxNCmd:
 4790              	.LFB86:
1991:../../source/src/FWlib/src/stm32f10x_tim.c **** 
1992:../../source/src/FWlib/src/stm32f10x_tim.c **** /**
1993:../../source/src/FWlib/src/stm32f10x_tim.c ****   * @brief  Enables or disables the TIM Capture Compare Channel xN.
1994:../../source/src/FWlib/src/stm32f10x_tim.c ****   * @param  TIMx: where x can be 1, 8, 15, 16 or 17 to select the TIM peripheral.
1995:../../source/src/FWlib/src/stm32f10x_tim.c ****   * @param  TIM_Channel: specifies the TIM Channel
1996:../../source/src/FWlib/src/stm32f10x_tim.c ****   *   This parameter can be one of the following values:
1997:../../source/src/FWlib/src/stm32f10x_tim.c ****   *     @arg TIM_Channel_1: TIM Channel 1
1998:../../source/src/FWlib/src/stm32f10x_tim.c ****   *     @arg TIM_Channel_2: TIM Channel 2
1999:../../source/src/FWlib/src/stm32f10x_tim.c ****   *     @arg TIM_Channel_3: TIM Channel 3
2000:../../source/src/FWlib/src/stm32f10x_tim.c ****   * @param  TIM_CCxN: specifies the TIM Channel CCxNE bit new state.
2001:../../source/src/FWlib/src/stm32f10x_tim.c ****   *   This parameter can be: TIM_CCxN_Enable or TIM_CCxN_Disable. 
2002:../../source/src/FWlib/src/stm32f10x_tim.c ****   * @retval None
2003:../../source/src/FWlib/src/stm32f10x_tim.c ****   */
2004:../../source/src/FWlib/src/stm32f10x_tim.c **** void TIM_CCxNCmd(TIM_TypeDef* TIMx, uint16_t TIM_Channel, uint16_t TIM_CCxN)
2005:../../source/src/FWlib/src/stm32f10x_tim.c **** {
 4791              		.loc 1 2005 0
 4792              		.cfi_startproc
 4793              		@ args = 0, pretend = 0, frame = 16
 4794              		@ frame_needed = 1, uses_anonymous_args = 0
 4795              		@ link register save eliminated.
 4796 142a 80B4     		push	{r7}
 4797              	.LCFI335:
 4798              		.cfi_def_cfa_offset 4
 4799              		.cfi_offset 7, -4
 4800 142c 85B0     		sub	sp, sp, #20
 4801              	.LCFI336:
 4802              		.cfi_def_cfa_offset 24
 4803 142e 00AF     		add	r7, sp, #0
 4804              	.LCFI337:
 4805              		.cfi_def_cfa_register 7
 4806 1430 7860     		str	r0, [r7, #4]
 4807 1432 0B46     		mov	r3, r1
 4808 1434 7B80     		strh	r3, [r7, #2]	@ movhi
 4809 1436 1346     		mov	r3, r2	@ movhi
 4810 1438 3B80     		strh	r3, [r7]	@ movhi
2006:../../source/src/FWlib/src/stm32f10x_tim.c ****   uint16_t tmp = 0;
 4811              		.loc 1 2006 0
 4812 143a 0023     		movs	r3, #0
 4813 143c FB81     		strh	r3, [r7, #14]	@ movhi
2007:../../source/src/FWlib/src/stm32f10x_tim.c **** 
2008:../../source/src/FWlib/src/stm32f10x_tim.c ****   /* Check the parameters */
2009:../../source/src/FWlib/src/stm32f10x_tim.c ****   assert_param(IS_TIM_LIST2_PERIPH(TIMx));
2010:../../source/src/FWlib/src/stm32f10x_tim.c ****   assert_param(IS_TIM_COMPLEMENTARY_CHANNEL(TIM_Channel));
2011:../../source/src/FWlib/src/stm32f10x_tim.c ****   assert_param(IS_TIM_CCXN(TIM_CCxN));
ARM GAS  G:\Users\Jaxb\AppData\Local\Temp\ccSQWSCJ.s 			page 122


2012:../../source/src/FWlib/src/stm32f10x_tim.c **** 
2013:../../source/src/FWlib/src/stm32f10x_tim.c ****   tmp = CCER_CCNE_Set << TIM_Channel;
 4814              		.loc 1 2013 0
 4815 143e 7B88     		ldrh	r3, [r7, #2]
 4816 1440 0422     		movs	r2, #4
 4817 1442 02FA03F3 		lsl	r3, r2, r3
 4818 1446 FB81     		strh	r3, [r7, #14]	@ movhi
2014:../../source/src/FWlib/src/stm32f10x_tim.c **** 
2015:../../source/src/FWlib/src/stm32f10x_tim.c ****   /* Reset the CCxNE Bit */
2016:../../source/src/FWlib/src/stm32f10x_tim.c ****   TIMx->CCER &= (uint16_t) ~tmp;
 4819              		.loc 1 2016 0
 4820 1448 7B68     		ldr	r3, [r7, #4]
 4821 144a 1B8C     		ldrh	r3, [r3, #32]	@ movhi
 4822 144c 9AB2     		uxth	r2, r3
 4823 144e FB89     		ldrh	r3, [r7, #14]	@ movhi
 4824 1450 DB43     		mvns	r3, r3
 4825 1452 9BB2     		uxth	r3, r3
 4826 1454 1340     		ands	r3, r3, r2
 4827 1456 9AB2     		uxth	r2, r3
 4828 1458 7B68     		ldr	r3, [r7, #4]
 4829 145a 1A84     		strh	r2, [r3, #32]	@ movhi
2017:../../source/src/FWlib/src/stm32f10x_tim.c **** 
2018:../../source/src/FWlib/src/stm32f10x_tim.c ****   /* Set or reset the CCxNE Bit */ 
2019:../../source/src/FWlib/src/stm32f10x_tim.c ****   TIMx->CCER |=  (uint16_t)(TIM_CCxN << TIM_Channel);
 4830              		.loc 1 2019 0
 4831 145c 7B68     		ldr	r3, [r7, #4]
 4832 145e 1B8C     		ldrh	r3, [r3, #32]	@ movhi
 4833 1460 9AB2     		uxth	r2, r3
 4834 1462 3988     		ldrh	r1, [r7]
 4835 1464 7B88     		ldrh	r3, [r7, #2]
 4836 1466 01FA03F3 		lsl	r3, r1, r3
 4837 146a 9BB2     		uxth	r3, r3
 4838 146c 1343     		orrs	r3, r3, r2
 4839 146e 9AB2     		uxth	r2, r3
 4840 1470 7B68     		ldr	r3, [r7, #4]
 4841 1472 1A84     		strh	r2, [r3, #32]	@ movhi
2020:../../source/src/FWlib/src/stm32f10x_tim.c **** }
 4842              		.loc 1 2020 0
 4843 1474 00BF     		nop
 4844 1476 1437     		adds	r7, r7, #20
 4845              	.LCFI338:
 4846              		.cfi_def_cfa_offset 4
 4847 1478 BD46     		mov	sp, r7
 4848              	.LCFI339:
 4849              		.cfi_def_cfa_register 13
 4850              		@ sp needed
 4851 147a 80BC     		pop	{r7}
 4852              	.LCFI340:
 4853              		.cfi_restore 7
 4854              		.cfi_def_cfa_offset 0
 4855 147c 7047     		bx	lr
 4856              		.cfi_endproc
 4857              	.LFE86:
 4858              		.size	TIM_CCxNCmd, .-TIM_CCxNCmd
 4859              		.align	1
 4860              		.global	TIM_SelectOCxM
 4861              		.syntax unified
ARM GAS  G:\Users\Jaxb\AppData\Local\Temp\ccSQWSCJ.s 			page 123


 4862              		.thumb
 4863              		.thumb_func
 4864              		.fpu softvfp
 4865              		.type	TIM_SelectOCxM, %function
 4866              	TIM_SelectOCxM:
 4867              	.LFB87:
2021:../../source/src/FWlib/src/stm32f10x_tim.c **** 
2022:../../source/src/FWlib/src/stm32f10x_tim.c **** /**
2023:../../source/src/FWlib/src/stm32f10x_tim.c ****   * @brief  Selects the TIM Output Compare Mode.
2024:../../source/src/FWlib/src/stm32f10x_tim.c ****   * @note   This function disables the selected channel before changing the Output
2025:../../source/src/FWlib/src/stm32f10x_tim.c ****   *         Compare Mode.
2026:../../source/src/FWlib/src/stm32f10x_tim.c ****   *         User has to enable this channel using TIM_CCxCmd and TIM_CCxNCmd functions.
2027:../../source/src/FWlib/src/stm32f10x_tim.c ****   * @param  TIMx: where x can be 1 to 17 except 6 and 7 to select the TIM peripheral.
2028:../../source/src/FWlib/src/stm32f10x_tim.c ****   * @param  TIM_Channel: specifies the TIM Channel
2029:../../source/src/FWlib/src/stm32f10x_tim.c ****   *   This parameter can be one of the following values:
2030:../../source/src/FWlib/src/stm32f10x_tim.c ****   *     @arg TIM_Channel_1: TIM Channel 1
2031:../../source/src/FWlib/src/stm32f10x_tim.c ****   *     @arg TIM_Channel_2: TIM Channel 2
2032:../../source/src/FWlib/src/stm32f10x_tim.c ****   *     @arg TIM_Channel_3: TIM Channel 3
2033:../../source/src/FWlib/src/stm32f10x_tim.c ****   *     @arg TIM_Channel_4: TIM Channel 4
2034:../../source/src/FWlib/src/stm32f10x_tim.c ****   * @param  TIM_OCMode: specifies the TIM Output Compare Mode.
2035:../../source/src/FWlib/src/stm32f10x_tim.c ****   *   This parameter can be one of the following values:
2036:../../source/src/FWlib/src/stm32f10x_tim.c ****   *     @arg TIM_OCMode_Timing
2037:../../source/src/FWlib/src/stm32f10x_tim.c ****   *     @arg TIM_OCMode_Active
2038:../../source/src/FWlib/src/stm32f10x_tim.c ****   *     @arg TIM_OCMode_Toggle
2039:../../source/src/FWlib/src/stm32f10x_tim.c ****   *     @arg TIM_OCMode_PWM1
2040:../../source/src/FWlib/src/stm32f10x_tim.c ****   *     @arg TIM_OCMode_PWM2
2041:../../source/src/FWlib/src/stm32f10x_tim.c ****   *     @arg TIM_ForcedAction_Active
2042:../../source/src/FWlib/src/stm32f10x_tim.c ****   *     @arg TIM_ForcedAction_InActive
2043:../../source/src/FWlib/src/stm32f10x_tim.c ****   * @retval None
2044:../../source/src/FWlib/src/stm32f10x_tim.c ****   */
2045:../../source/src/FWlib/src/stm32f10x_tim.c **** void TIM_SelectOCxM(TIM_TypeDef* TIMx, uint16_t TIM_Channel, uint16_t TIM_OCMode)
2046:../../source/src/FWlib/src/stm32f10x_tim.c **** {
 4868              		.loc 1 2046 0
 4869              		.cfi_startproc
 4870              		@ args = 0, pretend = 0, frame = 16
 4871              		@ frame_needed = 1, uses_anonymous_args = 0
 4872              		@ link register save eliminated.
 4873 147e 80B4     		push	{r7}
 4874              	.LCFI341:
 4875              		.cfi_def_cfa_offset 4
 4876              		.cfi_offset 7, -4
 4877 1480 85B0     		sub	sp, sp, #20
 4878              	.LCFI342:
 4879              		.cfi_def_cfa_offset 24
 4880 1482 00AF     		add	r7, sp, #0
 4881              	.LCFI343:
 4882              		.cfi_def_cfa_register 7
 4883 1484 7860     		str	r0, [r7, #4]
 4884 1486 0B46     		mov	r3, r1
 4885 1488 7B80     		strh	r3, [r7, #2]	@ movhi
 4886 148a 1346     		mov	r3, r2	@ movhi
 4887 148c 3B80     		strh	r3, [r7]	@ movhi
2047:../../source/src/FWlib/src/stm32f10x_tim.c ****   uint32_t tmp = 0;
 4888              		.loc 1 2047 0
 4889 148e 0023     		movs	r3, #0
 4890 1490 FB60     		str	r3, [r7, #12]
2048:../../source/src/FWlib/src/stm32f10x_tim.c ****   uint16_t tmp1 = 0;
ARM GAS  G:\Users\Jaxb\AppData\Local\Temp\ccSQWSCJ.s 			page 124


 4891              		.loc 1 2048 0
 4892 1492 0023     		movs	r3, #0
 4893 1494 7B81     		strh	r3, [r7, #10]	@ movhi
2049:../../source/src/FWlib/src/stm32f10x_tim.c **** 
2050:../../source/src/FWlib/src/stm32f10x_tim.c ****   /* Check the parameters */
2051:../../source/src/FWlib/src/stm32f10x_tim.c ****   assert_param(IS_TIM_LIST8_PERIPH(TIMx));
2052:../../source/src/FWlib/src/stm32f10x_tim.c ****   assert_param(IS_TIM_CHANNEL(TIM_Channel));
2053:../../source/src/FWlib/src/stm32f10x_tim.c ****   assert_param(IS_TIM_OCM(TIM_OCMode));
2054:../../source/src/FWlib/src/stm32f10x_tim.c **** 
2055:../../source/src/FWlib/src/stm32f10x_tim.c ****   tmp = (uint32_t) TIMx;
 4894              		.loc 1 2055 0
 4895 1496 7B68     		ldr	r3, [r7, #4]
 4896 1498 FB60     		str	r3, [r7, #12]
2056:../../source/src/FWlib/src/stm32f10x_tim.c ****   tmp += CCMR_Offset;
 4897              		.loc 1 2056 0
 4898 149a FB68     		ldr	r3, [r7, #12]
 4899 149c 1833     		adds	r3, r3, #24
 4900 149e FB60     		str	r3, [r7, #12]
2057:../../source/src/FWlib/src/stm32f10x_tim.c **** 
2058:../../source/src/FWlib/src/stm32f10x_tim.c ****   tmp1 = CCER_CCE_Set << (uint16_t)TIM_Channel;
 4901              		.loc 1 2058 0
 4902 14a0 7B88     		ldrh	r3, [r7, #2]
 4903 14a2 0122     		movs	r2, #1
 4904 14a4 02FA03F3 		lsl	r3, r2, r3
 4905 14a8 7B81     		strh	r3, [r7, #10]	@ movhi
2059:../../source/src/FWlib/src/stm32f10x_tim.c **** 
2060:../../source/src/FWlib/src/stm32f10x_tim.c ****   /* Disable the Channel: Reset the CCxE Bit */
2061:../../source/src/FWlib/src/stm32f10x_tim.c ****   TIMx->CCER &= (uint16_t) ~tmp1;
 4906              		.loc 1 2061 0
 4907 14aa 7B68     		ldr	r3, [r7, #4]
 4908 14ac 1B8C     		ldrh	r3, [r3, #32]	@ movhi
 4909 14ae 9AB2     		uxth	r2, r3
 4910 14b0 7B89     		ldrh	r3, [r7, #10]	@ movhi
 4911 14b2 DB43     		mvns	r3, r3
 4912 14b4 9BB2     		uxth	r3, r3
 4913 14b6 1340     		ands	r3, r3, r2
 4914 14b8 9AB2     		uxth	r2, r3
 4915 14ba 7B68     		ldr	r3, [r7, #4]
 4916 14bc 1A84     		strh	r2, [r3, #32]	@ movhi
2062:../../source/src/FWlib/src/stm32f10x_tim.c **** 
2063:../../source/src/FWlib/src/stm32f10x_tim.c ****   if((TIM_Channel == TIM_Channel_1) ||(TIM_Channel == TIM_Channel_3))
 4917              		.loc 1 2063 0
 4918 14be 7B88     		ldrh	r3, [r7, #2]
 4919 14c0 002B     		cmp	r3, #0
 4920 14c2 02D0     		beq	.L141
 4921              		.loc 1 2063 0 is_stmt 0 discriminator 1
 4922 14c4 7B88     		ldrh	r3, [r7, #2]
 4923 14c6 082B     		cmp	r3, #8
 4924 14c8 13D1     		bne	.L142
 4925              	.L141:
2064:../../source/src/FWlib/src/stm32f10x_tim.c ****   {
2065:../../source/src/FWlib/src/stm32f10x_tim.c ****     tmp += (TIM_Channel>>1);
 4926              		.loc 1 2065 0 is_stmt 1
 4927 14ca 7B88     		ldrh	r3, [r7, #2]
 4928 14cc 5B08     		lsrs	r3, r3, #1
 4929 14ce 9BB2     		uxth	r3, r3
 4930 14d0 1A46     		mov	r2, r3
ARM GAS  G:\Users\Jaxb\AppData\Local\Temp\ccSQWSCJ.s 			page 125


 4931 14d2 FB68     		ldr	r3, [r7, #12]
 4932 14d4 1344     		add	r3, r3, r2
 4933 14d6 FB60     		str	r3, [r7, #12]
2066:../../source/src/FWlib/src/stm32f10x_tim.c **** 
2067:../../source/src/FWlib/src/stm32f10x_tim.c ****     /* Reset the OCxM bits in the CCMRx register */
2068:../../source/src/FWlib/src/stm32f10x_tim.c ****     *(__IO uint32_t *) tmp &= (uint32_t)~((uint32_t)TIM_CCMR1_OC1M);
 4934              		.loc 1 2068 0
 4935 14d8 FB68     		ldr	r3, [r7, #12]
 4936 14da 1A68     		ldr	r2, [r3]
 4937 14dc FB68     		ldr	r3, [r7, #12]
 4938 14de 22F07002 		bic	r2, r2, #112
 4939 14e2 1A60     		str	r2, [r3]
2069:../../source/src/FWlib/src/stm32f10x_tim.c ****    
2070:../../source/src/FWlib/src/stm32f10x_tim.c ****     /* Configure the OCxM bits in the CCMRx register */
2071:../../source/src/FWlib/src/stm32f10x_tim.c ****     *(__IO uint32_t *) tmp |= TIM_OCMode;
 4940              		.loc 1 2071 0
 4941 14e4 FB68     		ldr	r3, [r7, #12]
 4942 14e6 1968     		ldr	r1, [r3]
 4943 14e8 3A88     		ldrh	r2, [r7]
 4944 14ea FB68     		ldr	r3, [r7, #12]
 4945 14ec 0A43     		orrs	r2, r2, r1
 4946 14ee 1A60     		str	r2, [r3]
 4947 14f0 17E0     		b	.L143
 4948              	.L142:
2072:../../source/src/FWlib/src/stm32f10x_tim.c ****   }
2073:../../source/src/FWlib/src/stm32f10x_tim.c ****   else
2074:../../source/src/FWlib/src/stm32f10x_tim.c ****   {
2075:../../source/src/FWlib/src/stm32f10x_tim.c ****     tmp += (uint16_t)(TIM_Channel - (uint16_t)4)>> (uint16_t)1;
 4949              		.loc 1 2075 0
 4950 14f2 7B88     		ldrh	r3, [r7, #2]	@ movhi
 4951 14f4 043B     		subs	r3, r3, #4
 4952 14f6 9BB2     		uxth	r3, r3
 4953 14f8 5B08     		lsrs	r3, r3, #1
 4954 14fa 9BB2     		uxth	r3, r3
 4955 14fc 1A46     		mov	r2, r3
 4956 14fe FB68     		ldr	r3, [r7, #12]
 4957 1500 1344     		add	r3, r3, r2
 4958 1502 FB60     		str	r3, [r7, #12]
2076:../../source/src/FWlib/src/stm32f10x_tim.c **** 
2077:../../source/src/FWlib/src/stm32f10x_tim.c ****     /* Reset the OCxM bits in the CCMRx register */
2078:../../source/src/FWlib/src/stm32f10x_tim.c ****     *(__IO uint32_t *) tmp &= (uint32_t)~((uint32_t)TIM_CCMR1_OC2M);
 4959              		.loc 1 2078 0
 4960 1504 FB68     		ldr	r3, [r7, #12]
 4961 1506 1A68     		ldr	r2, [r3]
 4962 1508 FB68     		ldr	r3, [r7, #12]
 4963 150a 22F4E042 		bic	r2, r2, #28672
 4964 150e 1A60     		str	r2, [r3]
2079:../../source/src/FWlib/src/stm32f10x_tim.c ****     
2080:../../source/src/FWlib/src/stm32f10x_tim.c ****     /* Configure the OCxM bits in the CCMRx register */
2081:../../source/src/FWlib/src/stm32f10x_tim.c ****     *(__IO uint32_t *) tmp |= (uint16_t)(TIM_OCMode << 8);
 4965              		.loc 1 2081 0
 4966 1510 FB68     		ldr	r3, [r7, #12]
 4967 1512 1A68     		ldr	r2, [r3]
 4968 1514 3B88     		ldrh	r3, [r7]	@ movhi
 4969 1516 1B02     		lsls	r3, r3, #8
 4970 1518 9BB2     		uxth	r3, r3
 4971 151a 1946     		mov	r1, r3
ARM GAS  G:\Users\Jaxb\AppData\Local\Temp\ccSQWSCJ.s 			page 126


 4972 151c FB68     		ldr	r3, [r7, #12]
 4973 151e 0A43     		orrs	r2, r2, r1
 4974 1520 1A60     		str	r2, [r3]
 4975              	.L143:
2082:../../source/src/FWlib/src/stm32f10x_tim.c ****   }
2083:../../source/src/FWlib/src/stm32f10x_tim.c **** }
 4976              		.loc 1 2083 0
 4977 1522 00BF     		nop
 4978 1524 1437     		adds	r7, r7, #20
 4979              	.LCFI344:
 4980              		.cfi_def_cfa_offset 4
 4981 1526 BD46     		mov	sp, r7
 4982              	.LCFI345:
 4983              		.cfi_def_cfa_register 13
 4984              		@ sp needed
 4985 1528 80BC     		pop	{r7}
 4986              	.LCFI346:
 4987              		.cfi_restore 7
 4988              		.cfi_def_cfa_offset 0
 4989 152a 7047     		bx	lr
 4990              		.cfi_endproc
 4991              	.LFE87:
 4992              		.size	TIM_SelectOCxM, .-TIM_SelectOCxM
 4993              		.align	1
 4994              		.global	TIM_UpdateDisableConfig
 4995              		.syntax unified
 4996              		.thumb
 4997              		.thumb_func
 4998              		.fpu softvfp
 4999              		.type	TIM_UpdateDisableConfig, %function
 5000              	TIM_UpdateDisableConfig:
 5001              	.LFB88:
2084:../../source/src/FWlib/src/stm32f10x_tim.c **** 
2085:../../source/src/FWlib/src/stm32f10x_tim.c **** /**
2086:../../source/src/FWlib/src/stm32f10x_tim.c ****   * @brief  Enables or Disables the TIMx Update event.
2087:../../source/src/FWlib/src/stm32f10x_tim.c ****   * @param  TIMx: where x can be 1 to 17 to select the TIM peripheral.
2088:../../source/src/FWlib/src/stm32f10x_tim.c ****   * @param  NewState: new state of the TIMx UDIS bit
2089:../../source/src/FWlib/src/stm32f10x_tim.c ****   *   This parameter can be: ENABLE or DISABLE.
2090:../../source/src/FWlib/src/stm32f10x_tim.c ****   * @retval None
2091:../../source/src/FWlib/src/stm32f10x_tim.c ****   */
2092:../../source/src/FWlib/src/stm32f10x_tim.c **** void TIM_UpdateDisableConfig(TIM_TypeDef* TIMx, FunctionalState NewState)
2093:../../source/src/FWlib/src/stm32f10x_tim.c **** {
 5002              		.loc 1 2093 0
 5003              		.cfi_startproc
 5004              		@ args = 0, pretend = 0, frame = 8
 5005              		@ frame_needed = 1, uses_anonymous_args = 0
 5006              		@ link register save eliminated.
 5007 152c 80B4     		push	{r7}
 5008              	.LCFI347:
 5009              		.cfi_def_cfa_offset 4
 5010              		.cfi_offset 7, -4
 5011 152e 83B0     		sub	sp, sp, #12
 5012              	.LCFI348:
 5013              		.cfi_def_cfa_offset 16
 5014 1530 00AF     		add	r7, sp, #0
 5015              	.LCFI349:
 5016              		.cfi_def_cfa_register 7
ARM GAS  G:\Users\Jaxb\AppData\Local\Temp\ccSQWSCJ.s 			page 127


 5017 1532 7860     		str	r0, [r7, #4]
 5018 1534 0B46     		mov	r3, r1
 5019 1536 FB70     		strb	r3, [r7, #3]
2094:../../source/src/FWlib/src/stm32f10x_tim.c ****   /* Check the parameters */
2095:../../source/src/FWlib/src/stm32f10x_tim.c ****   assert_param(IS_TIM_ALL_PERIPH(TIMx));
2096:../../source/src/FWlib/src/stm32f10x_tim.c ****   assert_param(IS_FUNCTIONAL_STATE(NewState));
2097:../../source/src/FWlib/src/stm32f10x_tim.c ****   if (NewState != DISABLE)
 5020              		.loc 1 2097 0
 5021 1538 FB78     		ldrb	r3, [r7, #3]	@ zero_extendqisi2
 5022 153a 002B     		cmp	r3, #0
 5023 153c 08D0     		beq	.L145
2098:../../source/src/FWlib/src/stm32f10x_tim.c ****   {
2099:../../source/src/FWlib/src/stm32f10x_tim.c ****     /* Set the Update Disable Bit */
2100:../../source/src/FWlib/src/stm32f10x_tim.c ****     TIMx->CR1 |= TIM_CR1_UDIS;
 5024              		.loc 1 2100 0
 5025 153e 7B68     		ldr	r3, [r7, #4]
 5026 1540 1B88     		ldrh	r3, [r3]	@ movhi
 5027 1542 9BB2     		uxth	r3, r3
 5028 1544 43F00203 		orr	r3, r3, #2
 5029 1548 9AB2     		uxth	r2, r3
 5030 154a 7B68     		ldr	r3, [r7, #4]
 5031 154c 1A80     		strh	r2, [r3]	@ movhi
2101:../../source/src/FWlib/src/stm32f10x_tim.c ****   }
2102:../../source/src/FWlib/src/stm32f10x_tim.c ****   else
2103:../../source/src/FWlib/src/stm32f10x_tim.c ****   {
2104:../../source/src/FWlib/src/stm32f10x_tim.c ****     /* Reset the Update Disable Bit */
2105:../../source/src/FWlib/src/stm32f10x_tim.c ****     TIMx->CR1 &= (uint16_t)~((uint16_t)TIM_CR1_UDIS);
2106:../../source/src/FWlib/src/stm32f10x_tim.c ****   }
2107:../../source/src/FWlib/src/stm32f10x_tim.c **** }
 5032              		.loc 1 2107 0
 5033 154e 07E0     		b	.L147
 5034              	.L145:
2105:../../source/src/FWlib/src/stm32f10x_tim.c ****   }
 5035              		.loc 1 2105 0
 5036 1550 7B68     		ldr	r3, [r7, #4]
 5037 1552 1B88     		ldrh	r3, [r3]	@ movhi
 5038 1554 9BB2     		uxth	r3, r3
 5039 1556 23F00203 		bic	r3, r3, #2
 5040 155a 9AB2     		uxth	r2, r3
 5041 155c 7B68     		ldr	r3, [r7, #4]
 5042 155e 1A80     		strh	r2, [r3]	@ movhi
 5043              	.L147:
 5044              		.loc 1 2107 0
 5045 1560 00BF     		nop
 5046 1562 0C37     		adds	r7, r7, #12
 5047              	.LCFI350:
 5048              		.cfi_def_cfa_offset 4
 5049 1564 BD46     		mov	sp, r7
 5050              	.LCFI351:
 5051              		.cfi_def_cfa_register 13
 5052              		@ sp needed
 5053 1566 80BC     		pop	{r7}
 5054              	.LCFI352:
 5055              		.cfi_restore 7
 5056              		.cfi_def_cfa_offset 0
 5057 1568 7047     		bx	lr
 5058              		.cfi_endproc
ARM GAS  G:\Users\Jaxb\AppData\Local\Temp\ccSQWSCJ.s 			page 128


 5059              	.LFE88:
 5060              		.size	TIM_UpdateDisableConfig, .-TIM_UpdateDisableConfig
 5061              		.align	1
 5062              		.global	TIM_UpdateRequestConfig
 5063              		.syntax unified
 5064              		.thumb
 5065              		.thumb_func
 5066              		.fpu softvfp
 5067              		.type	TIM_UpdateRequestConfig, %function
 5068              	TIM_UpdateRequestConfig:
 5069              	.LFB89:
2108:../../source/src/FWlib/src/stm32f10x_tim.c **** 
2109:../../source/src/FWlib/src/stm32f10x_tim.c **** /**
2110:../../source/src/FWlib/src/stm32f10x_tim.c ****   * @brief  Configures the TIMx Update Request Interrupt source.
2111:../../source/src/FWlib/src/stm32f10x_tim.c ****   * @param  TIMx: where x can be 1 to 17 to select the TIM peripheral.
2112:../../source/src/FWlib/src/stm32f10x_tim.c ****   * @param  TIM_UpdateSource: specifies the Update source.
2113:../../source/src/FWlib/src/stm32f10x_tim.c ****   *   This parameter can be one of the following values:
2114:../../source/src/FWlib/src/stm32f10x_tim.c ****   *     @arg TIM_UpdateSource_Regular: Source of update is the counter overflow/underflow
2115:../../source/src/FWlib/src/stm32f10x_tim.c ****                                        or the setting of UG bit, or an update generation
2116:../../source/src/FWlib/src/stm32f10x_tim.c ****                                        through the slave mode controller.
2117:../../source/src/FWlib/src/stm32f10x_tim.c ****   *     @arg TIM_UpdateSource_Global: Source of update is counter overflow/underflow.
2118:../../source/src/FWlib/src/stm32f10x_tim.c ****   * @retval None
2119:../../source/src/FWlib/src/stm32f10x_tim.c ****   */
2120:../../source/src/FWlib/src/stm32f10x_tim.c **** void TIM_UpdateRequestConfig(TIM_TypeDef* TIMx, uint16_t TIM_UpdateSource)
2121:../../source/src/FWlib/src/stm32f10x_tim.c **** {
 5070              		.loc 1 2121 0
 5071              		.cfi_startproc
 5072              		@ args = 0, pretend = 0, frame = 8
 5073              		@ frame_needed = 1, uses_anonymous_args = 0
 5074              		@ link register save eliminated.
 5075 156a 80B4     		push	{r7}
 5076              	.LCFI353:
 5077              		.cfi_def_cfa_offset 4
 5078              		.cfi_offset 7, -4
 5079 156c 83B0     		sub	sp, sp, #12
 5080              	.LCFI354:
 5081              		.cfi_def_cfa_offset 16
 5082 156e 00AF     		add	r7, sp, #0
 5083              	.LCFI355:
 5084              		.cfi_def_cfa_register 7
 5085 1570 7860     		str	r0, [r7, #4]
 5086 1572 0B46     		mov	r3, r1
 5087 1574 7B80     		strh	r3, [r7, #2]	@ movhi
2122:../../source/src/FWlib/src/stm32f10x_tim.c ****   /* Check the parameters */
2123:../../source/src/FWlib/src/stm32f10x_tim.c ****   assert_param(IS_TIM_ALL_PERIPH(TIMx));
2124:../../source/src/FWlib/src/stm32f10x_tim.c ****   assert_param(IS_TIM_UPDATE_SOURCE(TIM_UpdateSource));
2125:../../source/src/FWlib/src/stm32f10x_tim.c ****   if (TIM_UpdateSource != TIM_UpdateSource_Global)
 5088              		.loc 1 2125 0
 5089 1576 7B88     		ldrh	r3, [r7, #2]
 5090 1578 002B     		cmp	r3, #0
 5091 157a 08D0     		beq	.L149
2126:../../source/src/FWlib/src/stm32f10x_tim.c ****   {
2127:../../source/src/FWlib/src/stm32f10x_tim.c ****     /* Set the URS Bit */
2128:../../source/src/FWlib/src/stm32f10x_tim.c ****     TIMx->CR1 |= TIM_CR1_URS;
 5092              		.loc 1 2128 0
 5093 157c 7B68     		ldr	r3, [r7, #4]
 5094 157e 1B88     		ldrh	r3, [r3]	@ movhi
ARM GAS  G:\Users\Jaxb\AppData\Local\Temp\ccSQWSCJ.s 			page 129


 5095 1580 9BB2     		uxth	r3, r3
 5096 1582 43F00403 		orr	r3, r3, #4
 5097 1586 9AB2     		uxth	r2, r3
 5098 1588 7B68     		ldr	r3, [r7, #4]
 5099 158a 1A80     		strh	r2, [r3]	@ movhi
2129:../../source/src/FWlib/src/stm32f10x_tim.c ****   }
2130:../../source/src/FWlib/src/stm32f10x_tim.c ****   else
2131:../../source/src/FWlib/src/stm32f10x_tim.c ****   {
2132:../../source/src/FWlib/src/stm32f10x_tim.c ****     /* Reset the URS Bit */
2133:../../source/src/FWlib/src/stm32f10x_tim.c ****     TIMx->CR1 &= (uint16_t)~((uint16_t)TIM_CR1_URS);
2134:../../source/src/FWlib/src/stm32f10x_tim.c ****   }
2135:../../source/src/FWlib/src/stm32f10x_tim.c **** }
 5100              		.loc 1 2135 0
 5101 158c 07E0     		b	.L151
 5102              	.L149:
2133:../../source/src/FWlib/src/stm32f10x_tim.c ****   }
 5103              		.loc 1 2133 0
 5104 158e 7B68     		ldr	r3, [r7, #4]
 5105 1590 1B88     		ldrh	r3, [r3]	@ movhi
 5106 1592 9BB2     		uxth	r3, r3
 5107 1594 23F00403 		bic	r3, r3, #4
 5108 1598 9AB2     		uxth	r2, r3
 5109 159a 7B68     		ldr	r3, [r7, #4]
 5110 159c 1A80     		strh	r2, [r3]	@ movhi
 5111              	.L151:
 5112              		.loc 1 2135 0
 5113 159e 00BF     		nop
 5114 15a0 0C37     		adds	r7, r7, #12
 5115              	.LCFI356:
 5116              		.cfi_def_cfa_offset 4
 5117 15a2 BD46     		mov	sp, r7
 5118              	.LCFI357:
 5119              		.cfi_def_cfa_register 13
 5120              		@ sp needed
 5121 15a4 80BC     		pop	{r7}
 5122              	.LCFI358:
 5123              		.cfi_restore 7
 5124              		.cfi_def_cfa_offset 0
 5125 15a6 7047     		bx	lr
 5126              		.cfi_endproc
 5127              	.LFE89:
 5128              		.size	TIM_UpdateRequestConfig, .-TIM_UpdateRequestConfig
 5129              		.align	1
 5130              		.global	TIM_SelectHallSensor
 5131              		.syntax unified
 5132              		.thumb
 5133              		.thumb_func
 5134              		.fpu softvfp
 5135              		.type	TIM_SelectHallSensor, %function
 5136              	TIM_SelectHallSensor:
 5137              	.LFB90:
2136:../../source/src/FWlib/src/stm32f10x_tim.c **** 
2137:../../source/src/FWlib/src/stm32f10x_tim.c **** /**
2138:../../source/src/FWlib/src/stm32f10x_tim.c ****   * @brief  Enables or disables the TIMx's Hall sensor interface.
2139:../../source/src/FWlib/src/stm32f10x_tim.c ****   * @param  TIMx: where x can be 1, 2, 3, 4, 5 or 8 to select the TIM peripheral.
2140:../../source/src/FWlib/src/stm32f10x_tim.c ****   * @param  NewState: new state of the TIMx Hall sensor interface.
2141:../../source/src/FWlib/src/stm32f10x_tim.c ****   *   This parameter can be: ENABLE or DISABLE.
ARM GAS  G:\Users\Jaxb\AppData\Local\Temp\ccSQWSCJ.s 			page 130


2142:../../source/src/FWlib/src/stm32f10x_tim.c ****   * @retval None
2143:../../source/src/FWlib/src/stm32f10x_tim.c ****   */
2144:../../source/src/FWlib/src/stm32f10x_tim.c **** void TIM_SelectHallSensor(TIM_TypeDef* TIMx, FunctionalState NewState)
2145:../../source/src/FWlib/src/stm32f10x_tim.c **** {
 5138              		.loc 1 2145 0
 5139              		.cfi_startproc
 5140              		@ args = 0, pretend = 0, frame = 8
 5141              		@ frame_needed = 1, uses_anonymous_args = 0
 5142              		@ link register save eliminated.
 5143 15a8 80B4     		push	{r7}
 5144              	.LCFI359:
 5145              		.cfi_def_cfa_offset 4
 5146              		.cfi_offset 7, -4
 5147 15aa 83B0     		sub	sp, sp, #12
 5148              	.LCFI360:
 5149              		.cfi_def_cfa_offset 16
 5150 15ac 00AF     		add	r7, sp, #0
 5151              	.LCFI361:
 5152              		.cfi_def_cfa_register 7
 5153 15ae 7860     		str	r0, [r7, #4]
 5154 15b0 0B46     		mov	r3, r1
 5155 15b2 FB70     		strb	r3, [r7, #3]
2146:../../source/src/FWlib/src/stm32f10x_tim.c ****   /* Check the parameters */
2147:../../source/src/FWlib/src/stm32f10x_tim.c ****   assert_param(IS_TIM_LIST6_PERIPH(TIMx));
2148:../../source/src/FWlib/src/stm32f10x_tim.c ****   assert_param(IS_FUNCTIONAL_STATE(NewState));
2149:../../source/src/FWlib/src/stm32f10x_tim.c ****   if (NewState != DISABLE)
 5156              		.loc 1 2149 0
 5157 15b4 FB78     		ldrb	r3, [r7, #3]	@ zero_extendqisi2
 5158 15b6 002B     		cmp	r3, #0
 5159 15b8 08D0     		beq	.L153
2150:../../source/src/FWlib/src/stm32f10x_tim.c ****   {
2151:../../source/src/FWlib/src/stm32f10x_tim.c ****     /* Set the TI1S Bit */
2152:../../source/src/FWlib/src/stm32f10x_tim.c ****     TIMx->CR2 |= TIM_CR2_TI1S;
 5160              		.loc 1 2152 0
 5161 15ba 7B68     		ldr	r3, [r7, #4]
 5162 15bc 9B88     		ldrh	r3, [r3, #4]	@ movhi
 5163 15be 9BB2     		uxth	r3, r3
 5164 15c0 43F08003 		orr	r3, r3, #128
 5165 15c4 9AB2     		uxth	r2, r3
 5166 15c6 7B68     		ldr	r3, [r7, #4]
 5167 15c8 9A80     		strh	r2, [r3, #4]	@ movhi
2153:../../source/src/FWlib/src/stm32f10x_tim.c ****   }
2154:../../source/src/FWlib/src/stm32f10x_tim.c ****   else
2155:../../source/src/FWlib/src/stm32f10x_tim.c ****   {
2156:../../source/src/FWlib/src/stm32f10x_tim.c ****     /* Reset the TI1S Bit */
2157:../../source/src/FWlib/src/stm32f10x_tim.c ****     TIMx->CR2 &= (uint16_t)~((uint16_t)TIM_CR2_TI1S);
2158:../../source/src/FWlib/src/stm32f10x_tim.c ****   }
2159:../../source/src/FWlib/src/stm32f10x_tim.c **** }
 5168              		.loc 1 2159 0
 5169 15ca 07E0     		b	.L155
 5170              	.L153:
2157:../../source/src/FWlib/src/stm32f10x_tim.c ****   }
 5171              		.loc 1 2157 0
 5172 15cc 7B68     		ldr	r3, [r7, #4]
 5173 15ce 9B88     		ldrh	r3, [r3, #4]	@ movhi
 5174 15d0 9BB2     		uxth	r3, r3
 5175 15d2 23F08003 		bic	r3, r3, #128
ARM GAS  G:\Users\Jaxb\AppData\Local\Temp\ccSQWSCJ.s 			page 131


 5176 15d6 9AB2     		uxth	r2, r3
 5177 15d8 7B68     		ldr	r3, [r7, #4]
 5178 15da 9A80     		strh	r2, [r3, #4]	@ movhi
 5179              	.L155:
 5180              		.loc 1 2159 0
 5181 15dc 00BF     		nop
 5182 15de 0C37     		adds	r7, r7, #12
 5183              	.LCFI362:
 5184              		.cfi_def_cfa_offset 4
 5185 15e0 BD46     		mov	sp, r7
 5186              	.LCFI363:
 5187              		.cfi_def_cfa_register 13
 5188              		@ sp needed
 5189 15e2 80BC     		pop	{r7}
 5190              	.LCFI364:
 5191              		.cfi_restore 7
 5192              		.cfi_def_cfa_offset 0
 5193 15e4 7047     		bx	lr
 5194              		.cfi_endproc
 5195              	.LFE90:
 5196              		.size	TIM_SelectHallSensor, .-TIM_SelectHallSensor
 5197              		.align	1
 5198              		.global	TIM_SelectOnePulseMode
 5199              		.syntax unified
 5200              		.thumb
 5201              		.thumb_func
 5202              		.fpu softvfp
 5203              		.type	TIM_SelectOnePulseMode, %function
 5204              	TIM_SelectOnePulseMode:
 5205              	.LFB91:
2160:../../source/src/FWlib/src/stm32f10x_tim.c **** 
2161:../../source/src/FWlib/src/stm32f10x_tim.c **** /**
2162:../../source/src/FWlib/src/stm32f10x_tim.c ****   * @brief  Selects the TIMx's One Pulse Mode.
2163:../../source/src/FWlib/src/stm32f10x_tim.c ****   * @param  TIMx: where x can be 1 to 17 to select the TIM peripheral.
2164:../../source/src/FWlib/src/stm32f10x_tim.c ****   * @param  TIM_OPMode: specifies the OPM Mode to be used.
2165:../../source/src/FWlib/src/stm32f10x_tim.c ****   *   This parameter can be one of the following values:
2166:../../source/src/FWlib/src/stm32f10x_tim.c ****   *     @arg TIM_OPMode_Single
2167:../../source/src/FWlib/src/stm32f10x_tim.c ****   *     @arg TIM_OPMode_Repetitive
2168:../../source/src/FWlib/src/stm32f10x_tim.c ****   * @retval None
2169:../../source/src/FWlib/src/stm32f10x_tim.c ****   */
2170:../../source/src/FWlib/src/stm32f10x_tim.c **** void TIM_SelectOnePulseMode(TIM_TypeDef* TIMx, uint16_t TIM_OPMode)
2171:../../source/src/FWlib/src/stm32f10x_tim.c **** {
 5206              		.loc 1 2171 0
 5207              		.cfi_startproc
 5208              		@ args = 0, pretend = 0, frame = 8
 5209              		@ frame_needed = 1, uses_anonymous_args = 0
 5210              		@ link register save eliminated.
 5211 15e6 80B4     		push	{r7}
 5212              	.LCFI365:
 5213              		.cfi_def_cfa_offset 4
 5214              		.cfi_offset 7, -4
 5215 15e8 83B0     		sub	sp, sp, #12
 5216              	.LCFI366:
 5217              		.cfi_def_cfa_offset 16
 5218 15ea 00AF     		add	r7, sp, #0
 5219              	.LCFI367:
 5220              		.cfi_def_cfa_register 7
ARM GAS  G:\Users\Jaxb\AppData\Local\Temp\ccSQWSCJ.s 			page 132


 5221 15ec 7860     		str	r0, [r7, #4]
 5222 15ee 0B46     		mov	r3, r1
 5223 15f0 7B80     		strh	r3, [r7, #2]	@ movhi
2172:../../source/src/FWlib/src/stm32f10x_tim.c ****   /* Check the parameters */
2173:../../source/src/FWlib/src/stm32f10x_tim.c ****   assert_param(IS_TIM_ALL_PERIPH(TIMx));
2174:../../source/src/FWlib/src/stm32f10x_tim.c ****   assert_param(IS_TIM_OPM_MODE(TIM_OPMode));
2175:../../source/src/FWlib/src/stm32f10x_tim.c ****   /* Reset the OPM Bit */
2176:../../source/src/FWlib/src/stm32f10x_tim.c ****   TIMx->CR1 &= (uint16_t)~((uint16_t)TIM_CR1_OPM);
 5224              		.loc 1 2176 0
 5225 15f2 7B68     		ldr	r3, [r7, #4]
 5226 15f4 1B88     		ldrh	r3, [r3]	@ movhi
 5227 15f6 9BB2     		uxth	r3, r3
 5228 15f8 23F00803 		bic	r3, r3, #8
 5229 15fc 9AB2     		uxth	r2, r3
 5230 15fe 7B68     		ldr	r3, [r7, #4]
 5231 1600 1A80     		strh	r2, [r3]	@ movhi
2177:../../source/src/FWlib/src/stm32f10x_tim.c ****   /* Configure the OPM Mode */
2178:../../source/src/FWlib/src/stm32f10x_tim.c ****   TIMx->CR1 |= TIM_OPMode;
 5232              		.loc 1 2178 0
 5233 1602 7B68     		ldr	r3, [r7, #4]
 5234 1604 1B88     		ldrh	r3, [r3]	@ movhi
 5235 1606 9AB2     		uxth	r2, r3
 5236 1608 7B88     		ldrh	r3, [r7, #2]	@ movhi
 5237 160a 1343     		orrs	r3, r3, r2
 5238 160c 9AB2     		uxth	r2, r3
 5239 160e 7B68     		ldr	r3, [r7, #4]
 5240 1610 1A80     		strh	r2, [r3]	@ movhi
2179:../../source/src/FWlib/src/stm32f10x_tim.c **** }
 5241              		.loc 1 2179 0
 5242 1612 00BF     		nop
 5243 1614 0C37     		adds	r7, r7, #12
 5244              	.LCFI368:
 5245              		.cfi_def_cfa_offset 4
 5246 1616 BD46     		mov	sp, r7
 5247              	.LCFI369:
 5248              		.cfi_def_cfa_register 13
 5249              		@ sp needed
 5250 1618 80BC     		pop	{r7}
 5251              	.LCFI370:
 5252              		.cfi_restore 7
 5253              		.cfi_def_cfa_offset 0
 5254 161a 7047     		bx	lr
 5255              		.cfi_endproc
 5256              	.LFE91:
 5257              		.size	TIM_SelectOnePulseMode, .-TIM_SelectOnePulseMode
 5258              		.align	1
 5259              		.global	TIM_SelectOutputTrigger
 5260              		.syntax unified
 5261              		.thumb
 5262              		.thumb_func
 5263              		.fpu softvfp
 5264              		.type	TIM_SelectOutputTrigger, %function
 5265              	TIM_SelectOutputTrigger:
 5266              	.LFB92:
2180:../../source/src/FWlib/src/stm32f10x_tim.c **** 
2181:../../source/src/FWlib/src/stm32f10x_tim.c **** /**
2182:../../source/src/FWlib/src/stm32f10x_tim.c ****   * @brief  Selects the TIMx Trigger Output Mode.
ARM GAS  G:\Users\Jaxb\AppData\Local\Temp\ccSQWSCJ.s 			page 133


2183:../../source/src/FWlib/src/stm32f10x_tim.c ****   * @param  TIMx: where x can be 1, 2, 3, 4, 5, 6, 7, 8, 9, 12 or 15 to select the TIM peripheral.
2184:../../source/src/FWlib/src/stm32f10x_tim.c ****   * @param  TIM_TRGOSource: specifies the Trigger Output source.
2185:../../source/src/FWlib/src/stm32f10x_tim.c ****   *   This paramter can be one of the following values:
2186:../../source/src/FWlib/src/stm32f10x_tim.c ****   *
2187:../../source/src/FWlib/src/stm32f10x_tim.c ****   *  - For all TIMx
2188:../../source/src/FWlib/src/stm32f10x_tim.c ****   *     @arg TIM_TRGOSource_Reset:  The UG bit in the TIM_EGR register is used as the trigger outpu
2189:../../source/src/FWlib/src/stm32f10x_tim.c ****   *     @arg TIM_TRGOSource_Enable: The Counter Enable CEN is used as the trigger output (TRGO).
2190:../../source/src/FWlib/src/stm32f10x_tim.c ****   *     @arg TIM_TRGOSource_Update: The update event is selected as the trigger output (TRGO).
2191:../../source/src/FWlib/src/stm32f10x_tim.c ****   *
2192:../../source/src/FWlib/src/stm32f10x_tim.c ****   *  - For all TIMx except TIM6 and TIM7
2193:../../source/src/FWlib/src/stm32f10x_tim.c ****   *     @arg TIM_TRGOSource_OC1: The trigger output sends a positive pulse when the CC1IF flag
2194:../../source/src/FWlib/src/stm32f10x_tim.c ****   *                              is to be set, as soon as a capture or compare match occurs (TRGO).
2195:../../source/src/FWlib/src/stm32f10x_tim.c ****   *     @arg TIM_TRGOSource_OC1Ref: OC1REF signal is used as the trigger output (TRGO).
2196:../../source/src/FWlib/src/stm32f10x_tim.c ****   *     @arg TIM_TRGOSource_OC2Ref: OC2REF signal is used as the trigger output (TRGO).
2197:../../source/src/FWlib/src/stm32f10x_tim.c ****   *     @arg TIM_TRGOSource_OC3Ref: OC3REF signal is used as the trigger output (TRGO).
2198:../../source/src/FWlib/src/stm32f10x_tim.c ****   *     @arg TIM_TRGOSource_OC4Ref: OC4REF signal is used as the trigger output (TRGO).
2199:../../source/src/FWlib/src/stm32f10x_tim.c ****   *
2200:../../source/src/FWlib/src/stm32f10x_tim.c ****   * @retval None
2201:../../source/src/FWlib/src/stm32f10x_tim.c ****   */
2202:../../source/src/FWlib/src/stm32f10x_tim.c **** void TIM_SelectOutputTrigger(TIM_TypeDef* TIMx, uint16_t TIM_TRGOSource)
2203:../../source/src/FWlib/src/stm32f10x_tim.c **** {
 5267              		.loc 1 2203 0
 5268              		.cfi_startproc
 5269              		@ args = 0, pretend = 0, frame = 8
 5270              		@ frame_needed = 1, uses_anonymous_args = 0
 5271              		@ link register save eliminated.
 5272 161c 80B4     		push	{r7}
 5273              	.LCFI371:
 5274              		.cfi_def_cfa_offset 4
 5275              		.cfi_offset 7, -4
 5276 161e 83B0     		sub	sp, sp, #12
 5277              	.LCFI372:
 5278              		.cfi_def_cfa_offset 16
 5279 1620 00AF     		add	r7, sp, #0
 5280              	.LCFI373:
 5281              		.cfi_def_cfa_register 7
 5282 1622 7860     		str	r0, [r7, #4]
 5283 1624 0B46     		mov	r3, r1
 5284 1626 7B80     		strh	r3, [r7, #2]	@ movhi
2204:../../source/src/FWlib/src/stm32f10x_tim.c ****   /* Check the parameters */
2205:../../source/src/FWlib/src/stm32f10x_tim.c ****   assert_param(IS_TIM_LIST7_PERIPH(TIMx));
2206:../../source/src/FWlib/src/stm32f10x_tim.c ****   assert_param(IS_TIM_TRGO_SOURCE(TIM_TRGOSource));
2207:../../source/src/FWlib/src/stm32f10x_tim.c ****   /* Reset the MMS Bits */
2208:../../source/src/FWlib/src/stm32f10x_tim.c ****   TIMx->CR2 &= (uint16_t)~((uint16_t)TIM_CR2_MMS);
 5285              		.loc 1 2208 0
 5286 1628 7B68     		ldr	r3, [r7, #4]
 5287 162a 9B88     		ldrh	r3, [r3, #4]	@ movhi
 5288 162c 9BB2     		uxth	r3, r3
 5289 162e 23F07003 		bic	r3, r3, #112
 5290 1632 9AB2     		uxth	r2, r3
 5291 1634 7B68     		ldr	r3, [r7, #4]
 5292 1636 9A80     		strh	r2, [r3, #4]	@ movhi
2209:../../source/src/FWlib/src/stm32f10x_tim.c ****   /* Select the TRGO source */
2210:../../source/src/FWlib/src/stm32f10x_tim.c ****   TIMx->CR2 |=  TIM_TRGOSource;
 5293              		.loc 1 2210 0
 5294 1638 7B68     		ldr	r3, [r7, #4]
 5295 163a 9B88     		ldrh	r3, [r3, #4]	@ movhi
ARM GAS  G:\Users\Jaxb\AppData\Local\Temp\ccSQWSCJ.s 			page 134


 5296 163c 9AB2     		uxth	r2, r3
 5297 163e 7B88     		ldrh	r3, [r7, #2]	@ movhi
 5298 1640 1343     		orrs	r3, r3, r2
 5299 1642 9AB2     		uxth	r2, r3
 5300 1644 7B68     		ldr	r3, [r7, #4]
 5301 1646 9A80     		strh	r2, [r3, #4]	@ movhi
2211:../../source/src/FWlib/src/stm32f10x_tim.c **** }
 5302              		.loc 1 2211 0
 5303 1648 00BF     		nop
 5304 164a 0C37     		adds	r7, r7, #12
 5305              	.LCFI374:
 5306              		.cfi_def_cfa_offset 4
 5307 164c BD46     		mov	sp, r7
 5308              	.LCFI375:
 5309              		.cfi_def_cfa_register 13
 5310              		@ sp needed
 5311 164e 80BC     		pop	{r7}
 5312              	.LCFI376:
 5313              		.cfi_restore 7
 5314              		.cfi_def_cfa_offset 0
 5315 1650 7047     		bx	lr
 5316              		.cfi_endproc
 5317              	.LFE92:
 5318              		.size	TIM_SelectOutputTrigger, .-TIM_SelectOutputTrigger
 5319              		.align	1
 5320              		.global	TIM_SelectSlaveMode
 5321              		.syntax unified
 5322              		.thumb
 5323              		.thumb_func
 5324              		.fpu softvfp
 5325              		.type	TIM_SelectSlaveMode, %function
 5326              	TIM_SelectSlaveMode:
 5327              	.LFB93:
2212:../../source/src/FWlib/src/stm32f10x_tim.c **** 
2213:../../source/src/FWlib/src/stm32f10x_tim.c **** /**
2214:../../source/src/FWlib/src/stm32f10x_tim.c ****   * @brief  Selects the TIMx Slave Mode.
2215:../../source/src/FWlib/src/stm32f10x_tim.c ****   * @param  TIMx: where x can be 1, 2, 3, 4, 5, 8, 9, 12 or 15 to select the TIM peripheral.
2216:../../source/src/FWlib/src/stm32f10x_tim.c ****   * @param  TIM_SlaveMode: specifies the Timer Slave Mode.
2217:../../source/src/FWlib/src/stm32f10x_tim.c ****   *   This parameter can be one of the following values:
2218:../../source/src/FWlib/src/stm32f10x_tim.c ****   *     @arg TIM_SlaveMode_Reset: Rising edge of the selected trigger signal (TRGI) re-initializes
2219:../../source/src/FWlib/src/stm32f10x_tim.c ****   *                               the counter and triggers an update of the registers.
2220:../../source/src/FWlib/src/stm32f10x_tim.c ****   *     @arg TIM_SlaveMode_Gated:     The counter clock is enabled when the trigger signal (TRGI) i
2221:../../source/src/FWlib/src/stm32f10x_tim.c ****   *     @arg TIM_SlaveMode_Trigger:   The counter starts at a rising edge of the trigger TRGI.
2222:../../source/src/FWlib/src/stm32f10x_tim.c ****   *     @arg TIM_SlaveMode_External1: Rising edges of the selected trigger (TRGI) clock the counter
2223:../../source/src/FWlib/src/stm32f10x_tim.c ****   * @retval None
2224:../../source/src/FWlib/src/stm32f10x_tim.c ****   */
2225:../../source/src/FWlib/src/stm32f10x_tim.c **** void TIM_SelectSlaveMode(TIM_TypeDef* TIMx, uint16_t TIM_SlaveMode)
2226:../../source/src/FWlib/src/stm32f10x_tim.c **** {
 5328              		.loc 1 2226 0
 5329              		.cfi_startproc
 5330              		@ args = 0, pretend = 0, frame = 8
 5331              		@ frame_needed = 1, uses_anonymous_args = 0
 5332              		@ link register save eliminated.
 5333 1652 80B4     		push	{r7}
 5334              	.LCFI377:
 5335              		.cfi_def_cfa_offset 4
 5336              		.cfi_offset 7, -4
ARM GAS  G:\Users\Jaxb\AppData\Local\Temp\ccSQWSCJ.s 			page 135


 5337 1654 83B0     		sub	sp, sp, #12
 5338              	.LCFI378:
 5339              		.cfi_def_cfa_offset 16
 5340 1656 00AF     		add	r7, sp, #0
 5341              	.LCFI379:
 5342              		.cfi_def_cfa_register 7
 5343 1658 7860     		str	r0, [r7, #4]
 5344 165a 0B46     		mov	r3, r1
 5345 165c 7B80     		strh	r3, [r7, #2]	@ movhi
2227:../../source/src/FWlib/src/stm32f10x_tim.c ****   /* Check the parameters */
2228:../../source/src/FWlib/src/stm32f10x_tim.c ****   assert_param(IS_TIM_LIST6_PERIPH(TIMx));
2229:../../source/src/FWlib/src/stm32f10x_tim.c ****   assert_param(IS_TIM_SLAVE_MODE(TIM_SlaveMode));
2230:../../source/src/FWlib/src/stm32f10x_tim.c ****  /* Reset the SMS Bits */
2231:../../source/src/FWlib/src/stm32f10x_tim.c ****   TIMx->SMCR &= (uint16_t)~((uint16_t)TIM_SMCR_SMS);
 5346              		.loc 1 2231 0
 5347 165e 7B68     		ldr	r3, [r7, #4]
 5348 1660 1B89     		ldrh	r3, [r3, #8]	@ movhi
 5349 1662 9BB2     		uxth	r3, r3
 5350 1664 23F00703 		bic	r3, r3, #7
 5351 1668 9AB2     		uxth	r2, r3
 5352 166a 7B68     		ldr	r3, [r7, #4]
 5353 166c 1A81     		strh	r2, [r3, #8]	@ movhi
2232:../../source/src/FWlib/src/stm32f10x_tim.c ****   /* Select the Slave Mode */
2233:../../source/src/FWlib/src/stm32f10x_tim.c ****   TIMx->SMCR |= TIM_SlaveMode;
 5354              		.loc 1 2233 0
 5355 166e 7B68     		ldr	r3, [r7, #4]
 5356 1670 1B89     		ldrh	r3, [r3, #8]	@ movhi
 5357 1672 9AB2     		uxth	r2, r3
 5358 1674 7B88     		ldrh	r3, [r7, #2]	@ movhi
 5359 1676 1343     		orrs	r3, r3, r2
 5360 1678 9AB2     		uxth	r2, r3
 5361 167a 7B68     		ldr	r3, [r7, #4]
 5362 167c 1A81     		strh	r2, [r3, #8]	@ movhi
2234:../../source/src/FWlib/src/stm32f10x_tim.c **** }
 5363              		.loc 1 2234 0
 5364 167e 00BF     		nop
 5365 1680 0C37     		adds	r7, r7, #12
 5366              	.LCFI380:
 5367              		.cfi_def_cfa_offset 4
 5368 1682 BD46     		mov	sp, r7
 5369              	.LCFI381:
 5370              		.cfi_def_cfa_register 13
 5371              		@ sp needed
 5372 1684 80BC     		pop	{r7}
 5373              	.LCFI382:
 5374              		.cfi_restore 7
 5375              		.cfi_def_cfa_offset 0
 5376 1686 7047     		bx	lr
 5377              		.cfi_endproc
 5378              	.LFE93:
 5379              		.size	TIM_SelectSlaveMode, .-TIM_SelectSlaveMode
 5380              		.align	1
 5381              		.global	TIM_SelectMasterSlaveMode
 5382              		.syntax unified
 5383              		.thumb
 5384              		.thumb_func
 5385              		.fpu softvfp
ARM GAS  G:\Users\Jaxb\AppData\Local\Temp\ccSQWSCJ.s 			page 136


 5386              		.type	TIM_SelectMasterSlaveMode, %function
 5387              	TIM_SelectMasterSlaveMode:
 5388              	.LFB94:
2235:../../source/src/FWlib/src/stm32f10x_tim.c **** 
2236:../../source/src/FWlib/src/stm32f10x_tim.c **** /**
2237:../../source/src/FWlib/src/stm32f10x_tim.c ****   * @brief  Sets or Resets the TIMx Master/Slave Mode.
2238:../../source/src/FWlib/src/stm32f10x_tim.c ****   * @param  TIMx: where x can be 1, 2, 3, 4, 5, 8, 9, 12 or 15 to select the TIM peripheral.
2239:../../source/src/FWlib/src/stm32f10x_tim.c ****   * @param  TIM_MasterSlaveMode: specifies the Timer Master Slave Mode.
2240:../../source/src/FWlib/src/stm32f10x_tim.c ****   *   This parameter can be one of the following values:
2241:../../source/src/FWlib/src/stm32f10x_tim.c ****   *     @arg TIM_MasterSlaveMode_Enable: synchronization between the current timer
2242:../../source/src/FWlib/src/stm32f10x_tim.c ****   *                                      and its slaves (through TRGO).
2243:../../source/src/FWlib/src/stm32f10x_tim.c ****   *     @arg TIM_MasterSlaveMode_Disable: No action
2244:../../source/src/FWlib/src/stm32f10x_tim.c ****   * @retval None
2245:../../source/src/FWlib/src/stm32f10x_tim.c ****   */
2246:../../source/src/FWlib/src/stm32f10x_tim.c **** void TIM_SelectMasterSlaveMode(TIM_TypeDef* TIMx, uint16_t TIM_MasterSlaveMode)
2247:../../source/src/FWlib/src/stm32f10x_tim.c **** {
 5389              		.loc 1 2247 0
 5390              		.cfi_startproc
 5391              		@ args = 0, pretend = 0, frame = 8
 5392              		@ frame_needed = 1, uses_anonymous_args = 0
 5393              		@ link register save eliminated.
 5394 1688 80B4     		push	{r7}
 5395              	.LCFI383:
 5396              		.cfi_def_cfa_offset 4
 5397              		.cfi_offset 7, -4
 5398 168a 83B0     		sub	sp, sp, #12
 5399              	.LCFI384:
 5400              		.cfi_def_cfa_offset 16
 5401 168c 00AF     		add	r7, sp, #0
 5402              	.LCFI385:
 5403              		.cfi_def_cfa_register 7
 5404 168e 7860     		str	r0, [r7, #4]
 5405 1690 0B46     		mov	r3, r1
 5406 1692 7B80     		strh	r3, [r7, #2]	@ movhi
2248:../../source/src/FWlib/src/stm32f10x_tim.c ****   /* Check the parameters */
2249:../../source/src/FWlib/src/stm32f10x_tim.c ****   assert_param(IS_TIM_LIST6_PERIPH(TIMx));
2250:../../source/src/FWlib/src/stm32f10x_tim.c ****   assert_param(IS_TIM_MSM_STATE(TIM_MasterSlaveMode));
2251:../../source/src/FWlib/src/stm32f10x_tim.c ****   /* Reset the MSM Bit */
2252:../../source/src/FWlib/src/stm32f10x_tim.c ****   TIMx->SMCR &= (uint16_t)~((uint16_t)TIM_SMCR_MSM);
 5407              		.loc 1 2252 0
 5408 1694 7B68     		ldr	r3, [r7, #4]
 5409 1696 1B89     		ldrh	r3, [r3, #8]	@ movhi
 5410 1698 9BB2     		uxth	r3, r3
 5411 169a 23F08003 		bic	r3, r3, #128
 5412 169e 9AB2     		uxth	r2, r3
 5413 16a0 7B68     		ldr	r3, [r7, #4]
 5414 16a2 1A81     		strh	r2, [r3, #8]	@ movhi
2253:../../source/src/FWlib/src/stm32f10x_tim.c ****   
2254:../../source/src/FWlib/src/stm32f10x_tim.c ****   /* Set or Reset the MSM Bit */
2255:../../source/src/FWlib/src/stm32f10x_tim.c ****   TIMx->SMCR |= TIM_MasterSlaveMode;
 5415              		.loc 1 2255 0
 5416 16a4 7B68     		ldr	r3, [r7, #4]
 5417 16a6 1B89     		ldrh	r3, [r3, #8]	@ movhi
 5418 16a8 9AB2     		uxth	r2, r3
 5419 16aa 7B88     		ldrh	r3, [r7, #2]	@ movhi
 5420 16ac 1343     		orrs	r3, r3, r2
 5421 16ae 9AB2     		uxth	r2, r3
ARM GAS  G:\Users\Jaxb\AppData\Local\Temp\ccSQWSCJ.s 			page 137


 5422 16b0 7B68     		ldr	r3, [r7, #4]
 5423 16b2 1A81     		strh	r2, [r3, #8]	@ movhi
2256:../../source/src/FWlib/src/stm32f10x_tim.c **** }
 5424              		.loc 1 2256 0
 5425 16b4 00BF     		nop
 5426 16b6 0C37     		adds	r7, r7, #12
 5427              	.LCFI386:
 5428              		.cfi_def_cfa_offset 4
 5429 16b8 BD46     		mov	sp, r7
 5430              	.LCFI387:
 5431              		.cfi_def_cfa_register 13
 5432              		@ sp needed
 5433 16ba 80BC     		pop	{r7}
 5434              	.LCFI388:
 5435              		.cfi_restore 7
 5436              		.cfi_def_cfa_offset 0
 5437 16bc 7047     		bx	lr
 5438              		.cfi_endproc
 5439              	.LFE94:
 5440              		.size	TIM_SelectMasterSlaveMode, .-TIM_SelectMasterSlaveMode
 5441              		.align	1
 5442              		.global	TIM_SetCounter
 5443              		.syntax unified
 5444              		.thumb
 5445              		.thumb_func
 5446              		.fpu softvfp
 5447              		.type	TIM_SetCounter, %function
 5448              	TIM_SetCounter:
 5449              	.LFB95:
2257:../../source/src/FWlib/src/stm32f10x_tim.c **** 
2258:../../source/src/FWlib/src/stm32f10x_tim.c **** /**
2259:../../source/src/FWlib/src/stm32f10x_tim.c ****   * @brief  Sets the TIMx Counter Register value
2260:../../source/src/FWlib/src/stm32f10x_tim.c ****   * @param  TIMx: where x can be 1 to 17 to select the TIM peripheral.
2261:../../source/src/FWlib/src/stm32f10x_tim.c ****   * @param  Counter: specifies the Counter register new value.
2262:../../source/src/FWlib/src/stm32f10x_tim.c ****   * @retval None
2263:../../source/src/FWlib/src/stm32f10x_tim.c ****   */
2264:../../source/src/FWlib/src/stm32f10x_tim.c **** void TIM_SetCounter(TIM_TypeDef* TIMx, uint16_t Counter)
2265:../../source/src/FWlib/src/stm32f10x_tim.c **** {
 5450              		.loc 1 2265 0
 5451              		.cfi_startproc
 5452              		@ args = 0, pretend = 0, frame = 8
 5453              		@ frame_needed = 1, uses_anonymous_args = 0
 5454              		@ link register save eliminated.
 5455 16be 80B4     		push	{r7}
 5456              	.LCFI389:
 5457              		.cfi_def_cfa_offset 4
 5458              		.cfi_offset 7, -4
 5459 16c0 83B0     		sub	sp, sp, #12
 5460              	.LCFI390:
 5461              		.cfi_def_cfa_offset 16
 5462 16c2 00AF     		add	r7, sp, #0
 5463              	.LCFI391:
 5464              		.cfi_def_cfa_register 7
 5465 16c4 7860     		str	r0, [r7, #4]
 5466 16c6 0B46     		mov	r3, r1
 5467 16c8 7B80     		strh	r3, [r7, #2]	@ movhi
2266:../../source/src/FWlib/src/stm32f10x_tim.c ****   /* Check the parameters */
ARM GAS  G:\Users\Jaxb\AppData\Local\Temp\ccSQWSCJ.s 			page 138


2267:../../source/src/FWlib/src/stm32f10x_tim.c ****   assert_param(IS_TIM_ALL_PERIPH(TIMx));
2268:../../source/src/FWlib/src/stm32f10x_tim.c ****   /* Set the Counter Register value */
2269:../../source/src/FWlib/src/stm32f10x_tim.c ****   TIMx->CNT = Counter;
 5468              		.loc 1 2269 0
 5469 16ca 7B68     		ldr	r3, [r7, #4]
 5470 16cc 7A88     		ldrh	r2, [r7, #2]	@ movhi
 5471 16ce 9A84     		strh	r2, [r3, #36]	@ movhi
2270:../../source/src/FWlib/src/stm32f10x_tim.c **** }
 5472              		.loc 1 2270 0
 5473 16d0 00BF     		nop
 5474 16d2 0C37     		adds	r7, r7, #12
 5475              	.LCFI392:
 5476              		.cfi_def_cfa_offset 4
 5477 16d4 BD46     		mov	sp, r7
 5478              	.LCFI393:
 5479              		.cfi_def_cfa_register 13
 5480              		@ sp needed
 5481 16d6 80BC     		pop	{r7}
 5482              	.LCFI394:
 5483              		.cfi_restore 7
 5484              		.cfi_def_cfa_offset 0
 5485 16d8 7047     		bx	lr
 5486              		.cfi_endproc
 5487              	.LFE95:
 5488              		.size	TIM_SetCounter, .-TIM_SetCounter
 5489              		.align	1
 5490              		.global	TIM_SetAutoreload
 5491              		.syntax unified
 5492              		.thumb
 5493              		.thumb_func
 5494              		.fpu softvfp
 5495              		.type	TIM_SetAutoreload, %function
 5496              	TIM_SetAutoreload:
 5497              	.LFB96:
2271:../../source/src/FWlib/src/stm32f10x_tim.c **** 
2272:../../source/src/FWlib/src/stm32f10x_tim.c **** /**
2273:../../source/src/FWlib/src/stm32f10x_tim.c ****   * @brief  Sets the TIMx Autoreload Register value
2274:../../source/src/FWlib/src/stm32f10x_tim.c ****   * @param  TIMx: where x can be 1 to 17 to select the TIM peripheral.
2275:../../source/src/FWlib/src/stm32f10x_tim.c ****   * @param  Autoreload: specifies the Autoreload register new value.
2276:../../source/src/FWlib/src/stm32f10x_tim.c ****   * @retval None
2277:../../source/src/FWlib/src/stm32f10x_tim.c ****   */
2278:../../source/src/FWlib/src/stm32f10x_tim.c **** void TIM_SetAutoreload(TIM_TypeDef* TIMx, uint16_t Autoreload)
2279:../../source/src/FWlib/src/stm32f10x_tim.c **** {
 5498              		.loc 1 2279 0
 5499              		.cfi_startproc
 5500              		@ args = 0, pretend = 0, frame = 8
 5501              		@ frame_needed = 1, uses_anonymous_args = 0
 5502              		@ link register save eliminated.
 5503 16da 80B4     		push	{r7}
 5504              	.LCFI395:
 5505              		.cfi_def_cfa_offset 4
 5506              		.cfi_offset 7, -4
 5507 16dc 83B0     		sub	sp, sp, #12
 5508              	.LCFI396:
 5509              		.cfi_def_cfa_offset 16
 5510 16de 00AF     		add	r7, sp, #0
 5511              	.LCFI397:
ARM GAS  G:\Users\Jaxb\AppData\Local\Temp\ccSQWSCJ.s 			page 139


 5512              		.cfi_def_cfa_register 7
 5513 16e0 7860     		str	r0, [r7, #4]
 5514 16e2 0B46     		mov	r3, r1
 5515 16e4 7B80     		strh	r3, [r7, #2]	@ movhi
2280:../../source/src/FWlib/src/stm32f10x_tim.c ****   /* Check the parameters */
2281:../../source/src/FWlib/src/stm32f10x_tim.c ****   assert_param(IS_TIM_ALL_PERIPH(TIMx));
2282:../../source/src/FWlib/src/stm32f10x_tim.c ****   /* Set the Autoreload Register value */
2283:../../source/src/FWlib/src/stm32f10x_tim.c ****   TIMx->ARR = Autoreload;
 5516              		.loc 1 2283 0
 5517 16e6 7B68     		ldr	r3, [r7, #4]
 5518 16e8 7A88     		ldrh	r2, [r7, #2]	@ movhi
 5519 16ea 9A85     		strh	r2, [r3, #44]	@ movhi
2284:../../source/src/FWlib/src/stm32f10x_tim.c **** }
 5520              		.loc 1 2284 0
 5521 16ec 00BF     		nop
 5522 16ee 0C37     		adds	r7, r7, #12
 5523              	.LCFI398:
 5524              		.cfi_def_cfa_offset 4
 5525 16f0 BD46     		mov	sp, r7
 5526              	.LCFI399:
 5527              		.cfi_def_cfa_register 13
 5528              		@ sp needed
 5529 16f2 80BC     		pop	{r7}
 5530              	.LCFI400:
 5531              		.cfi_restore 7
 5532              		.cfi_def_cfa_offset 0
 5533 16f4 7047     		bx	lr
 5534              		.cfi_endproc
 5535              	.LFE96:
 5536              		.size	TIM_SetAutoreload, .-TIM_SetAutoreload
 5537              		.align	1
 5538              		.global	TIM_SetCompare1
 5539              		.syntax unified
 5540              		.thumb
 5541              		.thumb_func
 5542              		.fpu softvfp
 5543              		.type	TIM_SetCompare1, %function
 5544              	TIM_SetCompare1:
 5545              	.LFB97:
2285:../../source/src/FWlib/src/stm32f10x_tim.c **** 
2286:../../source/src/FWlib/src/stm32f10x_tim.c **** /**
2287:../../source/src/FWlib/src/stm32f10x_tim.c ****   * @brief  Sets the TIMx Capture Compare1 Register value
2288:../../source/src/FWlib/src/stm32f10x_tim.c ****   * @param  TIMx: where x can be 1 to 17 except 6 and 7 to select the TIM peripheral.
2289:../../source/src/FWlib/src/stm32f10x_tim.c ****   * @param  Compare1: specifies the Capture Compare1 register new value.
2290:../../source/src/FWlib/src/stm32f10x_tim.c ****   * @retval None
2291:../../source/src/FWlib/src/stm32f10x_tim.c ****   */
2292:../../source/src/FWlib/src/stm32f10x_tim.c **** void TIM_SetCompare1(TIM_TypeDef* TIMx, uint16_t Compare1)
2293:../../source/src/FWlib/src/stm32f10x_tim.c **** {
 5546              		.loc 1 2293 0
 5547              		.cfi_startproc
 5548              		@ args = 0, pretend = 0, frame = 8
 5549              		@ frame_needed = 1, uses_anonymous_args = 0
 5550              		@ link register save eliminated.
 5551 16f6 80B4     		push	{r7}
 5552              	.LCFI401:
 5553              		.cfi_def_cfa_offset 4
 5554              		.cfi_offset 7, -4
ARM GAS  G:\Users\Jaxb\AppData\Local\Temp\ccSQWSCJ.s 			page 140


 5555 16f8 83B0     		sub	sp, sp, #12
 5556              	.LCFI402:
 5557              		.cfi_def_cfa_offset 16
 5558 16fa 00AF     		add	r7, sp, #0
 5559              	.LCFI403:
 5560              		.cfi_def_cfa_register 7
 5561 16fc 7860     		str	r0, [r7, #4]
 5562 16fe 0B46     		mov	r3, r1
 5563 1700 7B80     		strh	r3, [r7, #2]	@ movhi
2294:../../source/src/FWlib/src/stm32f10x_tim.c ****   /* Check the parameters */
2295:../../source/src/FWlib/src/stm32f10x_tim.c ****   assert_param(IS_TIM_LIST8_PERIPH(TIMx));
2296:../../source/src/FWlib/src/stm32f10x_tim.c ****   /* Set the Capture Compare1 Register value */
2297:../../source/src/FWlib/src/stm32f10x_tim.c ****   TIMx->CCR1 = Compare1;
 5564              		.loc 1 2297 0
 5565 1702 7B68     		ldr	r3, [r7, #4]
 5566 1704 7A88     		ldrh	r2, [r7, #2]	@ movhi
 5567 1706 9A86     		strh	r2, [r3, #52]	@ movhi
2298:../../source/src/FWlib/src/stm32f10x_tim.c **** }
 5568              		.loc 1 2298 0
 5569 1708 00BF     		nop
 5570 170a 0C37     		adds	r7, r7, #12
 5571              	.LCFI404:
 5572              		.cfi_def_cfa_offset 4
 5573 170c BD46     		mov	sp, r7
 5574              	.LCFI405:
 5575              		.cfi_def_cfa_register 13
 5576              		@ sp needed
 5577 170e 80BC     		pop	{r7}
 5578              	.LCFI406:
 5579              		.cfi_restore 7
 5580              		.cfi_def_cfa_offset 0
 5581 1710 7047     		bx	lr
 5582              		.cfi_endproc
 5583              	.LFE97:
 5584              		.size	TIM_SetCompare1, .-TIM_SetCompare1
 5585              		.align	1
 5586              		.global	TIM_SetCompare2
 5587              		.syntax unified
 5588              		.thumb
 5589              		.thumb_func
 5590              		.fpu softvfp
 5591              		.type	TIM_SetCompare2, %function
 5592              	TIM_SetCompare2:
 5593              	.LFB98:
2299:../../source/src/FWlib/src/stm32f10x_tim.c **** 
2300:../../source/src/FWlib/src/stm32f10x_tim.c **** /**
2301:../../source/src/FWlib/src/stm32f10x_tim.c ****   * @brief  Sets the TIMx Capture Compare2 Register value
2302:../../source/src/FWlib/src/stm32f10x_tim.c ****   * @param  TIMx: where x can be 1, 2, 3, 4, 5, 8, 9, 12 or 15 to select the TIM peripheral.
2303:../../source/src/FWlib/src/stm32f10x_tim.c ****   * @param  Compare2: specifies the Capture Compare2 register new value.
2304:../../source/src/FWlib/src/stm32f10x_tim.c ****   * @retval None
2305:../../source/src/FWlib/src/stm32f10x_tim.c ****   */
2306:../../source/src/FWlib/src/stm32f10x_tim.c **** void TIM_SetCompare2(TIM_TypeDef* TIMx, uint16_t Compare2)
2307:../../source/src/FWlib/src/stm32f10x_tim.c **** {
 5594              		.loc 1 2307 0
 5595              		.cfi_startproc
 5596              		@ args = 0, pretend = 0, frame = 8
 5597              		@ frame_needed = 1, uses_anonymous_args = 0
ARM GAS  G:\Users\Jaxb\AppData\Local\Temp\ccSQWSCJ.s 			page 141


 5598              		@ link register save eliminated.
 5599 1712 80B4     		push	{r7}
 5600              	.LCFI407:
 5601              		.cfi_def_cfa_offset 4
 5602              		.cfi_offset 7, -4
 5603 1714 83B0     		sub	sp, sp, #12
 5604              	.LCFI408:
 5605              		.cfi_def_cfa_offset 16
 5606 1716 00AF     		add	r7, sp, #0
 5607              	.LCFI409:
 5608              		.cfi_def_cfa_register 7
 5609 1718 7860     		str	r0, [r7, #4]
 5610 171a 0B46     		mov	r3, r1
 5611 171c 7B80     		strh	r3, [r7, #2]	@ movhi
2308:../../source/src/FWlib/src/stm32f10x_tim.c ****   /* Check the parameters */
2309:../../source/src/FWlib/src/stm32f10x_tim.c ****   assert_param(IS_TIM_LIST6_PERIPH(TIMx));
2310:../../source/src/FWlib/src/stm32f10x_tim.c ****   /* Set the Capture Compare2 Register value */
2311:../../source/src/FWlib/src/stm32f10x_tim.c ****   TIMx->CCR2 = Compare2;
 5612              		.loc 1 2311 0
 5613 171e 7B68     		ldr	r3, [r7, #4]
 5614 1720 7A88     		ldrh	r2, [r7, #2]	@ movhi
 5615 1722 1A87     		strh	r2, [r3, #56]	@ movhi
2312:../../source/src/FWlib/src/stm32f10x_tim.c **** }
 5616              		.loc 1 2312 0
 5617 1724 00BF     		nop
 5618 1726 0C37     		adds	r7, r7, #12
 5619              	.LCFI410:
 5620              		.cfi_def_cfa_offset 4
 5621 1728 BD46     		mov	sp, r7
 5622              	.LCFI411:
 5623              		.cfi_def_cfa_register 13
 5624              		@ sp needed
 5625 172a 80BC     		pop	{r7}
 5626              	.LCFI412:
 5627              		.cfi_restore 7
 5628              		.cfi_def_cfa_offset 0
 5629 172c 7047     		bx	lr
 5630              		.cfi_endproc
 5631              	.LFE98:
 5632              		.size	TIM_SetCompare2, .-TIM_SetCompare2
 5633              		.align	1
 5634              		.global	TIM_SetCompare3
 5635              		.syntax unified
 5636              		.thumb
 5637              		.thumb_func
 5638              		.fpu softvfp
 5639              		.type	TIM_SetCompare3, %function
 5640              	TIM_SetCompare3:
 5641              	.LFB99:
2313:../../source/src/FWlib/src/stm32f10x_tim.c **** 
2314:../../source/src/FWlib/src/stm32f10x_tim.c **** /**
2315:../../source/src/FWlib/src/stm32f10x_tim.c ****   * @brief  Sets the TIMx Capture Compare3 Register value
2316:../../source/src/FWlib/src/stm32f10x_tim.c ****   * @param  TIMx: where x can be 1, 2, 3, 4, 5 or 8 to select the TIM peripheral.
2317:../../source/src/FWlib/src/stm32f10x_tim.c ****   * @param  Compare3: specifies the Capture Compare3 register new value.
2318:../../source/src/FWlib/src/stm32f10x_tim.c ****   * @retval None
2319:../../source/src/FWlib/src/stm32f10x_tim.c ****   */
2320:../../source/src/FWlib/src/stm32f10x_tim.c **** void TIM_SetCompare3(TIM_TypeDef* TIMx, uint16_t Compare3)
ARM GAS  G:\Users\Jaxb\AppData\Local\Temp\ccSQWSCJ.s 			page 142


2321:../../source/src/FWlib/src/stm32f10x_tim.c **** {
 5642              		.loc 1 2321 0
 5643              		.cfi_startproc
 5644              		@ args = 0, pretend = 0, frame = 8
 5645              		@ frame_needed = 1, uses_anonymous_args = 0
 5646              		@ link register save eliminated.
 5647 172e 80B4     		push	{r7}
 5648              	.LCFI413:
 5649              		.cfi_def_cfa_offset 4
 5650              		.cfi_offset 7, -4
 5651 1730 83B0     		sub	sp, sp, #12
 5652              	.LCFI414:
 5653              		.cfi_def_cfa_offset 16
 5654 1732 00AF     		add	r7, sp, #0
 5655              	.LCFI415:
 5656              		.cfi_def_cfa_register 7
 5657 1734 7860     		str	r0, [r7, #4]
 5658 1736 0B46     		mov	r3, r1
 5659 1738 7B80     		strh	r3, [r7, #2]	@ movhi
2322:../../source/src/FWlib/src/stm32f10x_tim.c ****   /* Check the parameters */
2323:../../source/src/FWlib/src/stm32f10x_tim.c ****   assert_param(IS_TIM_LIST3_PERIPH(TIMx));
2324:../../source/src/FWlib/src/stm32f10x_tim.c ****   /* Set the Capture Compare3 Register value */
2325:../../source/src/FWlib/src/stm32f10x_tim.c ****   TIMx->CCR3 = Compare3;
 5660              		.loc 1 2325 0
 5661 173a 7B68     		ldr	r3, [r7, #4]
 5662 173c 7A88     		ldrh	r2, [r7, #2]	@ movhi
 5663 173e 9A87     		strh	r2, [r3, #60]	@ movhi
2326:../../source/src/FWlib/src/stm32f10x_tim.c **** }
 5664              		.loc 1 2326 0
 5665 1740 00BF     		nop
 5666 1742 0C37     		adds	r7, r7, #12
 5667              	.LCFI416:
 5668              		.cfi_def_cfa_offset 4
 5669 1744 BD46     		mov	sp, r7
 5670              	.LCFI417:
 5671              		.cfi_def_cfa_register 13
 5672              		@ sp needed
 5673 1746 80BC     		pop	{r7}
 5674              	.LCFI418:
 5675              		.cfi_restore 7
 5676              		.cfi_def_cfa_offset 0
 5677 1748 7047     		bx	lr
 5678              		.cfi_endproc
 5679              	.LFE99:
 5680              		.size	TIM_SetCompare3, .-TIM_SetCompare3
 5681              		.align	1
 5682              		.global	TIM_SetCompare4
 5683              		.syntax unified
 5684              		.thumb
 5685              		.thumb_func
 5686              		.fpu softvfp
 5687              		.type	TIM_SetCompare4, %function
 5688              	TIM_SetCompare4:
 5689              	.LFB100:
2327:../../source/src/FWlib/src/stm32f10x_tim.c **** 
2328:../../source/src/FWlib/src/stm32f10x_tim.c **** /**
2329:../../source/src/FWlib/src/stm32f10x_tim.c ****   * @brief  Sets the TIMx Capture Compare4 Register value
ARM GAS  G:\Users\Jaxb\AppData\Local\Temp\ccSQWSCJ.s 			page 143


2330:../../source/src/FWlib/src/stm32f10x_tim.c ****   * @param  TIMx: where x can be 1, 2, 3, 4, 5 or 8 to select the TIM peripheral.
2331:../../source/src/FWlib/src/stm32f10x_tim.c ****   * @param  Compare4: specifies the Capture Compare4 register new value.
2332:../../source/src/FWlib/src/stm32f10x_tim.c ****   * @retval None
2333:../../source/src/FWlib/src/stm32f10x_tim.c ****   */
2334:../../source/src/FWlib/src/stm32f10x_tim.c **** void TIM_SetCompare4(TIM_TypeDef* TIMx, uint16_t Compare4)
2335:../../source/src/FWlib/src/stm32f10x_tim.c **** {
 5690              		.loc 1 2335 0
 5691              		.cfi_startproc
 5692              		@ args = 0, pretend = 0, frame = 8
 5693              		@ frame_needed = 1, uses_anonymous_args = 0
 5694              		@ link register save eliminated.
 5695 174a 80B4     		push	{r7}
 5696              	.LCFI419:
 5697              		.cfi_def_cfa_offset 4
 5698              		.cfi_offset 7, -4
 5699 174c 83B0     		sub	sp, sp, #12
 5700              	.LCFI420:
 5701              		.cfi_def_cfa_offset 16
 5702 174e 00AF     		add	r7, sp, #0
 5703              	.LCFI421:
 5704              		.cfi_def_cfa_register 7
 5705 1750 7860     		str	r0, [r7, #4]
 5706 1752 0B46     		mov	r3, r1
 5707 1754 7B80     		strh	r3, [r7, #2]	@ movhi
2336:../../source/src/FWlib/src/stm32f10x_tim.c ****   /* Check the parameters */
2337:../../source/src/FWlib/src/stm32f10x_tim.c ****   assert_param(IS_TIM_LIST3_PERIPH(TIMx));
2338:../../source/src/FWlib/src/stm32f10x_tim.c ****   /* Set the Capture Compare4 Register value */
2339:../../source/src/FWlib/src/stm32f10x_tim.c ****   TIMx->CCR4 = Compare4;
 5708              		.loc 1 2339 0
 5709 1756 7B68     		ldr	r3, [r7, #4]
 5710 1758 7A88     		ldrh	r2, [r7, #2]	@ movhi
 5711 175a A3F84020 		strh	r2, [r3, #64]	@ movhi
2340:../../source/src/FWlib/src/stm32f10x_tim.c **** }
 5712              		.loc 1 2340 0
 5713 175e 00BF     		nop
 5714 1760 0C37     		adds	r7, r7, #12
 5715              	.LCFI422:
 5716              		.cfi_def_cfa_offset 4
 5717 1762 BD46     		mov	sp, r7
 5718              	.LCFI423:
 5719              		.cfi_def_cfa_register 13
 5720              		@ sp needed
 5721 1764 80BC     		pop	{r7}
 5722              	.LCFI424:
 5723              		.cfi_restore 7
 5724              		.cfi_def_cfa_offset 0
 5725 1766 7047     		bx	lr
 5726              		.cfi_endproc
 5727              	.LFE100:
 5728              		.size	TIM_SetCompare4, .-TIM_SetCompare4
 5729              		.align	1
 5730              		.global	TIM_SetIC1Prescaler
 5731              		.syntax unified
 5732              		.thumb
 5733              		.thumb_func
 5734              		.fpu softvfp
 5735              		.type	TIM_SetIC1Prescaler, %function
ARM GAS  G:\Users\Jaxb\AppData\Local\Temp\ccSQWSCJ.s 			page 144


 5736              	TIM_SetIC1Prescaler:
 5737              	.LFB101:
2341:../../source/src/FWlib/src/stm32f10x_tim.c **** 
2342:../../source/src/FWlib/src/stm32f10x_tim.c **** /**
2343:../../source/src/FWlib/src/stm32f10x_tim.c ****   * @brief  Sets the TIMx Input Capture 1 prescaler.
2344:../../source/src/FWlib/src/stm32f10x_tim.c ****   * @param  TIMx: where x can be 1 to 17 except 6 and 7 to select the TIM peripheral.
2345:../../source/src/FWlib/src/stm32f10x_tim.c ****   * @param  TIM_ICPSC: specifies the Input Capture1 prescaler new value.
2346:../../source/src/FWlib/src/stm32f10x_tim.c ****   *   This parameter can be one of the following values:
2347:../../source/src/FWlib/src/stm32f10x_tim.c ****   *     @arg TIM_ICPSC_DIV1: no prescaler
2348:../../source/src/FWlib/src/stm32f10x_tim.c ****   *     @arg TIM_ICPSC_DIV2: capture is done once every 2 events
2349:../../source/src/FWlib/src/stm32f10x_tim.c ****   *     @arg TIM_ICPSC_DIV4: capture is done once every 4 events
2350:../../source/src/FWlib/src/stm32f10x_tim.c ****   *     @arg TIM_ICPSC_DIV8: capture is done once every 8 events
2351:../../source/src/FWlib/src/stm32f10x_tim.c ****   * @retval None
2352:../../source/src/FWlib/src/stm32f10x_tim.c ****   */
2353:../../source/src/FWlib/src/stm32f10x_tim.c **** void TIM_SetIC1Prescaler(TIM_TypeDef* TIMx, uint16_t TIM_ICPSC)
2354:../../source/src/FWlib/src/stm32f10x_tim.c **** {
 5738              		.loc 1 2354 0
 5739              		.cfi_startproc
 5740              		@ args = 0, pretend = 0, frame = 8
 5741              		@ frame_needed = 1, uses_anonymous_args = 0
 5742              		@ link register save eliminated.
 5743 1768 80B4     		push	{r7}
 5744              	.LCFI425:
 5745              		.cfi_def_cfa_offset 4
 5746              		.cfi_offset 7, -4
 5747 176a 83B0     		sub	sp, sp, #12
 5748              	.LCFI426:
 5749              		.cfi_def_cfa_offset 16
 5750 176c 00AF     		add	r7, sp, #0
 5751              	.LCFI427:
 5752              		.cfi_def_cfa_register 7
 5753 176e 7860     		str	r0, [r7, #4]
 5754 1770 0B46     		mov	r3, r1
 5755 1772 7B80     		strh	r3, [r7, #2]	@ movhi
2355:../../source/src/FWlib/src/stm32f10x_tim.c ****   /* Check the parameters */
2356:../../source/src/FWlib/src/stm32f10x_tim.c ****   assert_param(IS_TIM_LIST8_PERIPH(TIMx));
2357:../../source/src/FWlib/src/stm32f10x_tim.c ****   assert_param(IS_TIM_IC_PRESCALER(TIM_ICPSC));
2358:../../source/src/FWlib/src/stm32f10x_tim.c ****   /* Reset the IC1PSC Bits */
2359:../../source/src/FWlib/src/stm32f10x_tim.c ****   TIMx->CCMR1 &= (uint16_t)~((uint16_t)TIM_CCMR1_IC1PSC);
 5756              		.loc 1 2359 0
 5757 1774 7B68     		ldr	r3, [r7, #4]
 5758 1776 1B8B     		ldrh	r3, [r3, #24]	@ movhi
 5759 1778 9BB2     		uxth	r3, r3
 5760 177a 23F00C03 		bic	r3, r3, #12
 5761 177e 9AB2     		uxth	r2, r3
 5762 1780 7B68     		ldr	r3, [r7, #4]
 5763 1782 1A83     		strh	r2, [r3, #24]	@ movhi
2360:../../source/src/FWlib/src/stm32f10x_tim.c ****   /* Set the IC1PSC value */
2361:../../source/src/FWlib/src/stm32f10x_tim.c ****   TIMx->CCMR1 |= TIM_ICPSC;
 5764              		.loc 1 2361 0
 5765 1784 7B68     		ldr	r3, [r7, #4]
 5766 1786 1B8B     		ldrh	r3, [r3, #24]	@ movhi
 5767 1788 9AB2     		uxth	r2, r3
 5768 178a 7B88     		ldrh	r3, [r7, #2]	@ movhi
 5769 178c 1343     		orrs	r3, r3, r2
 5770 178e 9AB2     		uxth	r2, r3
 5771 1790 7B68     		ldr	r3, [r7, #4]
ARM GAS  G:\Users\Jaxb\AppData\Local\Temp\ccSQWSCJ.s 			page 145


 5772 1792 1A83     		strh	r2, [r3, #24]	@ movhi
2362:../../source/src/FWlib/src/stm32f10x_tim.c **** }
 5773              		.loc 1 2362 0
 5774 1794 00BF     		nop
 5775 1796 0C37     		adds	r7, r7, #12
 5776              	.LCFI428:
 5777              		.cfi_def_cfa_offset 4
 5778 1798 BD46     		mov	sp, r7
 5779              	.LCFI429:
 5780              		.cfi_def_cfa_register 13
 5781              		@ sp needed
 5782 179a 80BC     		pop	{r7}
 5783              	.LCFI430:
 5784              		.cfi_restore 7
 5785              		.cfi_def_cfa_offset 0
 5786 179c 7047     		bx	lr
 5787              		.cfi_endproc
 5788              	.LFE101:
 5789              		.size	TIM_SetIC1Prescaler, .-TIM_SetIC1Prescaler
 5790              		.align	1
 5791              		.global	TIM_SetIC2Prescaler
 5792              		.syntax unified
 5793              		.thumb
 5794              		.thumb_func
 5795              		.fpu softvfp
 5796              		.type	TIM_SetIC2Prescaler, %function
 5797              	TIM_SetIC2Prescaler:
 5798              	.LFB102:
2363:../../source/src/FWlib/src/stm32f10x_tim.c **** 
2364:../../source/src/FWlib/src/stm32f10x_tim.c **** /**
2365:../../source/src/FWlib/src/stm32f10x_tim.c ****   * @brief  Sets the TIMx Input Capture 2 prescaler.
2366:../../source/src/FWlib/src/stm32f10x_tim.c ****   * @param  TIMx: where x can be 1, 2, 3, 4, 5, 8, 9, 12 or 15 to select the TIM peripheral.
2367:../../source/src/FWlib/src/stm32f10x_tim.c ****   * @param  TIM_ICPSC: specifies the Input Capture2 prescaler new value.
2368:../../source/src/FWlib/src/stm32f10x_tim.c ****   *   This parameter can be one of the following values:
2369:../../source/src/FWlib/src/stm32f10x_tim.c ****   *     @arg TIM_ICPSC_DIV1: no prescaler
2370:../../source/src/FWlib/src/stm32f10x_tim.c ****   *     @arg TIM_ICPSC_DIV2: capture is done once every 2 events
2371:../../source/src/FWlib/src/stm32f10x_tim.c ****   *     @arg TIM_ICPSC_DIV4: capture is done once every 4 events
2372:../../source/src/FWlib/src/stm32f10x_tim.c ****   *     @arg TIM_ICPSC_DIV8: capture is done once every 8 events
2373:../../source/src/FWlib/src/stm32f10x_tim.c ****   * @retval None
2374:../../source/src/FWlib/src/stm32f10x_tim.c ****   */
2375:../../source/src/FWlib/src/stm32f10x_tim.c **** void TIM_SetIC2Prescaler(TIM_TypeDef* TIMx, uint16_t TIM_ICPSC)
2376:../../source/src/FWlib/src/stm32f10x_tim.c **** {
 5799              		.loc 1 2376 0
 5800              		.cfi_startproc
 5801              		@ args = 0, pretend = 0, frame = 8
 5802              		@ frame_needed = 1, uses_anonymous_args = 0
 5803              		@ link register save eliminated.
 5804 179e 80B4     		push	{r7}
 5805              	.LCFI431:
 5806              		.cfi_def_cfa_offset 4
 5807              		.cfi_offset 7, -4
 5808 17a0 83B0     		sub	sp, sp, #12
 5809              	.LCFI432:
 5810              		.cfi_def_cfa_offset 16
 5811 17a2 00AF     		add	r7, sp, #0
 5812              	.LCFI433:
 5813              		.cfi_def_cfa_register 7
ARM GAS  G:\Users\Jaxb\AppData\Local\Temp\ccSQWSCJ.s 			page 146


 5814 17a4 7860     		str	r0, [r7, #4]
 5815 17a6 0B46     		mov	r3, r1
 5816 17a8 7B80     		strh	r3, [r7, #2]	@ movhi
2377:../../source/src/FWlib/src/stm32f10x_tim.c ****   /* Check the parameters */
2378:../../source/src/FWlib/src/stm32f10x_tim.c ****   assert_param(IS_TIM_LIST6_PERIPH(TIMx));
2379:../../source/src/FWlib/src/stm32f10x_tim.c ****   assert_param(IS_TIM_IC_PRESCALER(TIM_ICPSC));
2380:../../source/src/FWlib/src/stm32f10x_tim.c ****   /* Reset the IC2PSC Bits */
2381:../../source/src/FWlib/src/stm32f10x_tim.c ****   TIMx->CCMR1 &= (uint16_t)~((uint16_t)TIM_CCMR1_IC2PSC);
 5817              		.loc 1 2381 0
 5818 17aa 7B68     		ldr	r3, [r7, #4]
 5819 17ac 1B8B     		ldrh	r3, [r3, #24]	@ movhi
 5820 17ae 9BB2     		uxth	r3, r3
 5821 17b0 23F44063 		bic	r3, r3, #3072
 5822 17b4 9AB2     		uxth	r2, r3
 5823 17b6 7B68     		ldr	r3, [r7, #4]
 5824 17b8 1A83     		strh	r2, [r3, #24]	@ movhi
2382:../../source/src/FWlib/src/stm32f10x_tim.c ****   /* Set the IC2PSC value */
2383:../../source/src/FWlib/src/stm32f10x_tim.c ****   TIMx->CCMR1 |= (uint16_t)(TIM_ICPSC << 8);
 5825              		.loc 1 2383 0
 5826 17ba 7B68     		ldr	r3, [r7, #4]
 5827 17bc 1B8B     		ldrh	r3, [r3, #24]	@ movhi
 5828 17be 9AB2     		uxth	r2, r3
 5829 17c0 7B88     		ldrh	r3, [r7, #2]	@ movhi
 5830 17c2 1B02     		lsls	r3, r3, #8
 5831 17c4 9BB2     		uxth	r3, r3
 5832 17c6 1343     		orrs	r3, r3, r2
 5833 17c8 9AB2     		uxth	r2, r3
 5834 17ca 7B68     		ldr	r3, [r7, #4]
 5835 17cc 1A83     		strh	r2, [r3, #24]	@ movhi
2384:../../source/src/FWlib/src/stm32f10x_tim.c **** }
 5836              		.loc 1 2384 0
 5837 17ce 00BF     		nop
 5838 17d0 0C37     		adds	r7, r7, #12
 5839              	.LCFI434:
 5840              		.cfi_def_cfa_offset 4
 5841 17d2 BD46     		mov	sp, r7
 5842              	.LCFI435:
 5843              		.cfi_def_cfa_register 13
 5844              		@ sp needed
 5845 17d4 80BC     		pop	{r7}
 5846              	.LCFI436:
 5847              		.cfi_restore 7
 5848              		.cfi_def_cfa_offset 0
 5849 17d6 7047     		bx	lr
 5850              		.cfi_endproc
 5851              	.LFE102:
 5852              		.size	TIM_SetIC2Prescaler, .-TIM_SetIC2Prescaler
 5853              		.align	1
 5854              		.global	TIM_SetIC3Prescaler
 5855              		.syntax unified
 5856              		.thumb
 5857              		.thumb_func
 5858              		.fpu softvfp
 5859              		.type	TIM_SetIC3Prescaler, %function
 5860              	TIM_SetIC3Prescaler:
 5861              	.LFB103:
2385:../../source/src/FWlib/src/stm32f10x_tim.c **** 
ARM GAS  G:\Users\Jaxb\AppData\Local\Temp\ccSQWSCJ.s 			page 147


2386:../../source/src/FWlib/src/stm32f10x_tim.c **** /**
2387:../../source/src/FWlib/src/stm32f10x_tim.c ****   * @brief  Sets the TIMx Input Capture 3 prescaler.
2388:../../source/src/FWlib/src/stm32f10x_tim.c ****   * @param  TIMx: where x can be 1, 2, 3, 4, 5 or 8 to select the TIM peripheral.
2389:../../source/src/FWlib/src/stm32f10x_tim.c ****   * @param  TIM_ICPSC: specifies the Input Capture3 prescaler new value.
2390:../../source/src/FWlib/src/stm32f10x_tim.c ****   *   This parameter can be one of the following values:
2391:../../source/src/FWlib/src/stm32f10x_tim.c ****   *     @arg TIM_ICPSC_DIV1: no prescaler
2392:../../source/src/FWlib/src/stm32f10x_tim.c ****   *     @arg TIM_ICPSC_DIV2: capture is done once every 2 events
2393:../../source/src/FWlib/src/stm32f10x_tim.c ****   *     @arg TIM_ICPSC_DIV4: capture is done once every 4 events
2394:../../source/src/FWlib/src/stm32f10x_tim.c ****   *     @arg TIM_ICPSC_DIV8: capture is done once every 8 events
2395:../../source/src/FWlib/src/stm32f10x_tim.c ****   * @retval None
2396:../../source/src/FWlib/src/stm32f10x_tim.c ****   */
2397:../../source/src/FWlib/src/stm32f10x_tim.c **** void TIM_SetIC3Prescaler(TIM_TypeDef* TIMx, uint16_t TIM_ICPSC)
2398:../../source/src/FWlib/src/stm32f10x_tim.c **** {
 5862              		.loc 1 2398 0
 5863              		.cfi_startproc
 5864              		@ args = 0, pretend = 0, frame = 8
 5865              		@ frame_needed = 1, uses_anonymous_args = 0
 5866              		@ link register save eliminated.
 5867 17d8 80B4     		push	{r7}
 5868              	.LCFI437:
 5869              		.cfi_def_cfa_offset 4
 5870              		.cfi_offset 7, -4
 5871 17da 83B0     		sub	sp, sp, #12
 5872              	.LCFI438:
 5873              		.cfi_def_cfa_offset 16
 5874 17dc 00AF     		add	r7, sp, #0
 5875              	.LCFI439:
 5876              		.cfi_def_cfa_register 7
 5877 17de 7860     		str	r0, [r7, #4]
 5878 17e0 0B46     		mov	r3, r1
 5879 17e2 7B80     		strh	r3, [r7, #2]	@ movhi
2399:../../source/src/FWlib/src/stm32f10x_tim.c ****   /* Check the parameters */
2400:../../source/src/FWlib/src/stm32f10x_tim.c ****   assert_param(IS_TIM_LIST3_PERIPH(TIMx));
2401:../../source/src/FWlib/src/stm32f10x_tim.c ****   assert_param(IS_TIM_IC_PRESCALER(TIM_ICPSC));
2402:../../source/src/FWlib/src/stm32f10x_tim.c ****   /* Reset the IC3PSC Bits */
2403:../../source/src/FWlib/src/stm32f10x_tim.c ****   TIMx->CCMR2 &= (uint16_t)~((uint16_t)TIM_CCMR2_IC3PSC);
 5880              		.loc 1 2403 0
 5881 17e4 7B68     		ldr	r3, [r7, #4]
 5882 17e6 9B8B     		ldrh	r3, [r3, #28]	@ movhi
 5883 17e8 9BB2     		uxth	r3, r3
 5884 17ea 23F00C03 		bic	r3, r3, #12
 5885 17ee 9AB2     		uxth	r2, r3
 5886 17f0 7B68     		ldr	r3, [r7, #4]
 5887 17f2 9A83     		strh	r2, [r3, #28]	@ movhi
2404:../../source/src/FWlib/src/stm32f10x_tim.c ****   /* Set the IC3PSC value */
2405:../../source/src/FWlib/src/stm32f10x_tim.c ****   TIMx->CCMR2 |= TIM_ICPSC;
 5888              		.loc 1 2405 0
 5889 17f4 7B68     		ldr	r3, [r7, #4]
 5890 17f6 9B8B     		ldrh	r3, [r3, #28]	@ movhi
 5891 17f8 9AB2     		uxth	r2, r3
 5892 17fa 7B88     		ldrh	r3, [r7, #2]	@ movhi
 5893 17fc 1343     		orrs	r3, r3, r2
 5894 17fe 9AB2     		uxth	r2, r3
 5895 1800 7B68     		ldr	r3, [r7, #4]
 5896 1802 9A83     		strh	r2, [r3, #28]	@ movhi
2406:../../source/src/FWlib/src/stm32f10x_tim.c **** }
 5897              		.loc 1 2406 0
ARM GAS  G:\Users\Jaxb\AppData\Local\Temp\ccSQWSCJ.s 			page 148


 5898 1804 00BF     		nop
 5899 1806 0C37     		adds	r7, r7, #12
 5900              	.LCFI440:
 5901              		.cfi_def_cfa_offset 4
 5902 1808 BD46     		mov	sp, r7
 5903              	.LCFI441:
 5904              		.cfi_def_cfa_register 13
 5905              		@ sp needed
 5906 180a 80BC     		pop	{r7}
 5907              	.LCFI442:
 5908              		.cfi_restore 7
 5909              		.cfi_def_cfa_offset 0
 5910 180c 7047     		bx	lr
 5911              		.cfi_endproc
 5912              	.LFE103:
 5913              		.size	TIM_SetIC3Prescaler, .-TIM_SetIC3Prescaler
 5914              		.align	1
 5915              		.global	TIM_SetIC4Prescaler
 5916              		.syntax unified
 5917              		.thumb
 5918              		.thumb_func
 5919              		.fpu softvfp
 5920              		.type	TIM_SetIC4Prescaler, %function
 5921              	TIM_SetIC4Prescaler:
 5922              	.LFB104:
2407:../../source/src/FWlib/src/stm32f10x_tim.c **** 
2408:../../source/src/FWlib/src/stm32f10x_tim.c **** /**
2409:../../source/src/FWlib/src/stm32f10x_tim.c ****   * @brief  Sets the TIMx Input Capture 4 prescaler.
2410:../../source/src/FWlib/src/stm32f10x_tim.c ****   * @param  TIMx: where x can be 1, 2, 3, 4, 5 or 8 to select the TIM peripheral.
2411:../../source/src/FWlib/src/stm32f10x_tim.c ****   * @param  TIM_ICPSC: specifies the Input Capture4 prescaler new value.
2412:../../source/src/FWlib/src/stm32f10x_tim.c ****   *   This parameter can be one of the following values:
2413:../../source/src/FWlib/src/stm32f10x_tim.c ****   *     @arg TIM_ICPSC_DIV1: no prescaler
2414:../../source/src/FWlib/src/stm32f10x_tim.c ****   *     @arg TIM_ICPSC_DIV2: capture is done once every 2 events
2415:../../source/src/FWlib/src/stm32f10x_tim.c ****   *     @arg TIM_ICPSC_DIV4: capture is done once every 4 events
2416:../../source/src/FWlib/src/stm32f10x_tim.c ****   *     @arg TIM_ICPSC_DIV8: capture is done once every 8 events
2417:../../source/src/FWlib/src/stm32f10x_tim.c ****   * @retval None
2418:../../source/src/FWlib/src/stm32f10x_tim.c ****   */
2419:../../source/src/FWlib/src/stm32f10x_tim.c **** void TIM_SetIC4Prescaler(TIM_TypeDef* TIMx, uint16_t TIM_ICPSC)
2420:../../source/src/FWlib/src/stm32f10x_tim.c **** {  
 5923              		.loc 1 2420 0
 5924              		.cfi_startproc
 5925              		@ args = 0, pretend = 0, frame = 8
 5926              		@ frame_needed = 1, uses_anonymous_args = 0
 5927              		@ link register save eliminated.
 5928 180e 80B4     		push	{r7}
 5929              	.LCFI443:
 5930              		.cfi_def_cfa_offset 4
 5931              		.cfi_offset 7, -4
 5932 1810 83B0     		sub	sp, sp, #12
 5933              	.LCFI444:
 5934              		.cfi_def_cfa_offset 16
 5935 1812 00AF     		add	r7, sp, #0
 5936              	.LCFI445:
 5937              		.cfi_def_cfa_register 7
 5938 1814 7860     		str	r0, [r7, #4]
 5939 1816 0B46     		mov	r3, r1
 5940 1818 7B80     		strh	r3, [r7, #2]	@ movhi
ARM GAS  G:\Users\Jaxb\AppData\Local\Temp\ccSQWSCJ.s 			page 149


2421:../../source/src/FWlib/src/stm32f10x_tim.c ****   /* Check the parameters */
2422:../../source/src/FWlib/src/stm32f10x_tim.c ****   assert_param(IS_TIM_LIST3_PERIPH(TIMx));
2423:../../source/src/FWlib/src/stm32f10x_tim.c ****   assert_param(IS_TIM_IC_PRESCALER(TIM_ICPSC));
2424:../../source/src/FWlib/src/stm32f10x_tim.c ****   /* Reset the IC4PSC Bits */
2425:../../source/src/FWlib/src/stm32f10x_tim.c ****   TIMx->CCMR2 &= (uint16_t)~((uint16_t)TIM_CCMR2_IC4PSC);
 5941              		.loc 1 2425 0
 5942 181a 7B68     		ldr	r3, [r7, #4]
 5943 181c 9B8B     		ldrh	r3, [r3, #28]	@ movhi
 5944 181e 9BB2     		uxth	r3, r3
 5945 1820 23F44063 		bic	r3, r3, #3072
 5946 1824 9AB2     		uxth	r2, r3
 5947 1826 7B68     		ldr	r3, [r7, #4]
 5948 1828 9A83     		strh	r2, [r3, #28]	@ movhi
2426:../../source/src/FWlib/src/stm32f10x_tim.c ****   /* Set the IC4PSC value */
2427:../../source/src/FWlib/src/stm32f10x_tim.c ****   TIMx->CCMR2 |= (uint16_t)(TIM_ICPSC << 8);
 5949              		.loc 1 2427 0
 5950 182a 7B68     		ldr	r3, [r7, #4]
 5951 182c 9B8B     		ldrh	r3, [r3, #28]	@ movhi
 5952 182e 9AB2     		uxth	r2, r3
 5953 1830 7B88     		ldrh	r3, [r7, #2]	@ movhi
 5954 1832 1B02     		lsls	r3, r3, #8
 5955 1834 9BB2     		uxth	r3, r3
 5956 1836 1343     		orrs	r3, r3, r2
 5957 1838 9AB2     		uxth	r2, r3
 5958 183a 7B68     		ldr	r3, [r7, #4]
 5959 183c 9A83     		strh	r2, [r3, #28]	@ movhi
2428:../../source/src/FWlib/src/stm32f10x_tim.c **** }
 5960              		.loc 1 2428 0
 5961 183e 00BF     		nop
 5962 1840 0C37     		adds	r7, r7, #12
 5963              	.LCFI446:
 5964              		.cfi_def_cfa_offset 4
 5965 1842 BD46     		mov	sp, r7
 5966              	.LCFI447:
 5967              		.cfi_def_cfa_register 13
 5968              		@ sp needed
 5969 1844 80BC     		pop	{r7}
 5970              	.LCFI448:
 5971              		.cfi_restore 7
 5972              		.cfi_def_cfa_offset 0
 5973 1846 7047     		bx	lr
 5974              		.cfi_endproc
 5975              	.LFE104:
 5976              		.size	TIM_SetIC4Prescaler, .-TIM_SetIC4Prescaler
 5977              		.align	1
 5978              		.global	TIM_SetClockDivision
 5979              		.syntax unified
 5980              		.thumb
 5981              		.thumb_func
 5982              		.fpu softvfp
 5983              		.type	TIM_SetClockDivision, %function
 5984              	TIM_SetClockDivision:
 5985              	.LFB105:
2429:../../source/src/FWlib/src/stm32f10x_tim.c **** 
2430:../../source/src/FWlib/src/stm32f10x_tim.c **** /**
2431:../../source/src/FWlib/src/stm32f10x_tim.c ****   * @brief  Sets the TIMx Clock Division value.
2432:../../source/src/FWlib/src/stm32f10x_tim.c ****   * @param  TIMx: where x can be  1 to 17 except 6 and 7 to select 
ARM GAS  G:\Users\Jaxb\AppData\Local\Temp\ccSQWSCJ.s 			page 150


2433:../../source/src/FWlib/src/stm32f10x_tim.c ****   *   the TIM peripheral.
2434:../../source/src/FWlib/src/stm32f10x_tim.c ****   * @param  TIM_CKD: specifies the clock division value.
2435:../../source/src/FWlib/src/stm32f10x_tim.c ****   *   This parameter can be one of the following value:
2436:../../source/src/FWlib/src/stm32f10x_tim.c ****   *     @arg TIM_CKD_DIV1: TDTS = Tck_tim
2437:../../source/src/FWlib/src/stm32f10x_tim.c ****   *     @arg TIM_CKD_DIV2: TDTS = 2*Tck_tim
2438:../../source/src/FWlib/src/stm32f10x_tim.c ****   *     @arg TIM_CKD_DIV4: TDTS = 4*Tck_tim
2439:../../source/src/FWlib/src/stm32f10x_tim.c ****   * @retval None
2440:../../source/src/FWlib/src/stm32f10x_tim.c ****   */
2441:../../source/src/FWlib/src/stm32f10x_tim.c **** void TIM_SetClockDivision(TIM_TypeDef* TIMx, uint16_t TIM_CKD)
2442:../../source/src/FWlib/src/stm32f10x_tim.c **** {
 5986              		.loc 1 2442 0
 5987              		.cfi_startproc
 5988              		@ args = 0, pretend = 0, frame = 8
 5989              		@ frame_needed = 1, uses_anonymous_args = 0
 5990              		@ link register save eliminated.
 5991 1848 80B4     		push	{r7}
 5992              	.LCFI449:
 5993              		.cfi_def_cfa_offset 4
 5994              		.cfi_offset 7, -4
 5995 184a 83B0     		sub	sp, sp, #12
 5996              	.LCFI450:
 5997              		.cfi_def_cfa_offset 16
 5998 184c 00AF     		add	r7, sp, #0
 5999              	.LCFI451:
 6000              		.cfi_def_cfa_register 7
 6001 184e 7860     		str	r0, [r7, #4]
 6002 1850 0B46     		mov	r3, r1
 6003 1852 7B80     		strh	r3, [r7, #2]	@ movhi
2443:../../source/src/FWlib/src/stm32f10x_tim.c ****   /* Check the parameters */
2444:../../source/src/FWlib/src/stm32f10x_tim.c ****   assert_param(IS_TIM_LIST8_PERIPH(TIMx));
2445:../../source/src/FWlib/src/stm32f10x_tim.c ****   assert_param(IS_TIM_CKD_DIV(TIM_CKD));
2446:../../source/src/FWlib/src/stm32f10x_tim.c ****   /* Reset the CKD Bits */
2447:../../source/src/FWlib/src/stm32f10x_tim.c ****   TIMx->CR1 &= (uint16_t)~((uint16_t)TIM_CR1_CKD);
 6004              		.loc 1 2447 0
 6005 1854 7B68     		ldr	r3, [r7, #4]
 6006 1856 1B88     		ldrh	r3, [r3]	@ movhi
 6007 1858 9BB2     		uxth	r3, r3
 6008 185a 23F44073 		bic	r3, r3, #768
 6009 185e 9AB2     		uxth	r2, r3
 6010 1860 7B68     		ldr	r3, [r7, #4]
 6011 1862 1A80     		strh	r2, [r3]	@ movhi
2448:../../source/src/FWlib/src/stm32f10x_tim.c ****   /* Set the CKD value */
2449:../../source/src/FWlib/src/stm32f10x_tim.c ****   TIMx->CR1 |= TIM_CKD;
 6012              		.loc 1 2449 0
 6013 1864 7B68     		ldr	r3, [r7, #4]
 6014 1866 1B88     		ldrh	r3, [r3]	@ movhi
 6015 1868 9AB2     		uxth	r2, r3
 6016 186a 7B88     		ldrh	r3, [r7, #2]	@ movhi
 6017 186c 1343     		orrs	r3, r3, r2
 6018 186e 9AB2     		uxth	r2, r3
 6019 1870 7B68     		ldr	r3, [r7, #4]
 6020 1872 1A80     		strh	r2, [r3]	@ movhi
2450:../../source/src/FWlib/src/stm32f10x_tim.c **** }
 6021              		.loc 1 2450 0
 6022 1874 00BF     		nop
 6023 1876 0C37     		adds	r7, r7, #12
 6024              	.LCFI452:
ARM GAS  G:\Users\Jaxb\AppData\Local\Temp\ccSQWSCJ.s 			page 151


 6025              		.cfi_def_cfa_offset 4
 6026 1878 BD46     		mov	sp, r7
 6027              	.LCFI453:
 6028              		.cfi_def_cfa_register 13
 6029              		@ sp needed
 6030 187a 80BC     		pop	{r7}
 6031              	.LCFI454:
 6032              		.cfi_restore 7
 6033              		.cfi_def_cfa_offset 0
 6034 187c 7047     		bx	lr
 6035              		.cfi_endproc
 6036              	.LFE105:
 6037              		.size	TIM_SetClockDivision, .-TIM_SetClockDivision
 6038              		.align	1
 6039              		.global	TIM_GetCapture1
 6040              		.syntax unified
 6041              		.thumb
 6042              		.thumb_func
 6043              		.fpu softvfp
 6044              		.type	TIM_GetCapture1, %function
 6045              	TIM_GetCapture1:
 6046              	.LFB106:
2451:../../source/src/FWlib/src/stm32f10x_tim.c **** 
2452:../../source/src/FWlib/src/stm32f10x_tim.c **** /**
2453:../../source/src/FWlib/src/stm32f10x_tim.c ****   * @brief  Gets the TIMx Input Capture 1 value.
2454:../../source/src/FWlib/src/stm32f10x_tim.c ****   * @param  TIMx: where x can be 1 to 17 except 6 and 7 to select the TIM peripheral.
2455:../../source/src/FWlib/src/stm32f10x_tim.c ****   * @retval Capture Compare 1 Register value.
2456:../../source/src/FWlib/src/stm32f10x_tim.c ****   */
2457:../../source/src/FWlib/src/stm32f10x_tim.c **** uint16_t TIM_GetCapture1(TIM_TypeDef* TIMx)
2458:../../source/src/FWlib/src/stm32f10x_tim.c **** {
 6047              		.loc 1 2458 0
 6048              		.cfi_startproc
 6049              		@ args = 0, pretend = 0, frame = 8
 6050              		@ frame_needed = 1, uses_anonymous_args = 0
 6051              		@ link register save eliminated.
 6052 187e 80B4     		push	{r7}
 6053              	.LCFI455:
 6054              		.cfi_def_cfa_offset 4
 6055              		.cfi_offset 7, -4
 6056 1880 83B0     		sub	sp, sp, #12
 6057              	.LCFI456:
 6058              		.cfi_def_cfa_offset 16
 6059 1882 00AF     		add	r7, sp, #0
 6060              	.LCFI457:
 6061              		.cfi_def_cfa_register 7
 6062 1884 7860     		str	r0, [r7, #4]
2459:../../source/src/FWlib/src/stm32f10x_tim.c ****   /* Check the parameters */
2460:../../source/src/FWlib/src/stm32f10x_tim.c ****   assert_param(IS_TIM_LIST8_PERIPH(TIMx));
2461:../../source/src/FWlib/src/stm32f10x_tim.c ****   /* Get the Capture 1 Register value */
2462:../../source/src/FWlib/src/stm32f10x_tim.c ****   return TIMx->CCR1;
 6063              		.loc 1 2462 0
 6064 1886 7B68     		ldr	r3, [r7, #4]
 6065 1888 9B8E     		ldrh	r3, [r3, #52]	@ movhi
 6066 188a 9BB2     		uxth	r3, r3
2463:../../source/src/FWlib/src/stm32f10x_tim.c **** }
 6067              		.loc 1 2463 0
 6068 188c 1846     		mov	r0, r3
ARM GAS  G:\Users\Jaxb\AppData\Local\Temp\ccSQWSCJ.s 			page 152


 6069 188e 0C37     		adds	r7, r7, #12
 6070              	.LCFI458:
 6071              		.cfi_def_cfa_offset 4
 6072 1890 BD46     		mov	sp, r7
 6073              	.LCFI459:
 6074              		.cfi_def_cfa_register 13
 6075              		@ sp needed
 6076 1892 80BC     		pop	{r7}
 6077              	.LCFI460:
 6078              		.cfi_restore 7
 6079              		.cfi_def_cfa_offset 0
 6080 1894 7047     		bx	lr
 6081              		.cfi_endproc
 6082              	.LFE106:
 6083              		.size	TIM_GetCapture1, .-TIM_GetCapture1
 6084              		.align	1
 6085              		.global	TIM_GetCapture2
 6086              		.syntax unified
 6087              		.thumb
 6088              		.thumb_func
 6089              		.fpu softvfp
 6090              		.type	TIM_GetCapture2, %function
 6091              	TIM_GetCapture2:
 6092              	.LFB107:
2464:../../source/src/FWlib/src/stm32f10x_tim.c **** 
2465:../../source/src/FWlib/src/stm32f10x_tim.c **** /**
2466:../../source/src/FWlib/src/stm32f10x_tim.c ****   * @brief  Gets the TIMx Input Capture 2 value.
2467:../../source/src/FWlib/src/stm32f10x_tim.c ****   * @param  TIMx: where x can be 1, 2, 3, 4, 5, 8, 9, 12 or 15 to select the TIM peripheral.
2468:../../source/src/FWlib/src/stm32f10x_tim.c ****   * @retval Capture Compare 2 Register value.
2469:../../source/src/FWlib/src/stm32f10x_tim.c ****   */
2470:../../source/src/FWlib/src/stm32f10x_tim.c **** uint16_t TIM_GetCapture2(TIM_TypeDef* TIMx)
2471:../../source/src/FWlib/src/stm32f10x_tim.c **** {
 6093              		.loc 1 2471 0
 6094              		.cfi_startproc
 6095              		@ args = 0, pretend = 0, frame = 8
 6096              		@ frame_needed = 1, uses_anonymous_args = 0
 6097              		@ link register save eliminated.
 6098 1896 80B4     		push	{r7}
 6099              	.LCFI461:
 6100              		.cfi_def_cfa_offset 4
 6101              		.cfi_offset 7, -4
 6102 1898 83B0     		sub	sp, sp, #12
 6103              	.LCFI462:
 6104              		.cfi_def_cfa_offset 16
 6105 189a 00AF     		add	r7, sp, #0
 6106              	.LCFI463:
 6107              		.cfi_def_cfa_register 7
 6108 189c 7860     		str	r0, [r7, #4]
2472:../../source/src/FWlib/src/stm32f10x_tim.c ****   /* Check the parameters */
2473:../../source/src/FWlib/src/stm32f10x_tim.c ****   assert_param(IS_TIM_LIST6_PERIPH(TIMx));
2474:../../source/src/FWlib/src/stm32f10x_tim.c ****   /* Get the Capture 2 Register value */
2475:../../source/src/FWlib/src/stm32f10x_tim.c ****   return TIMx->CCR2;
 6109              		.loc 1 2475 0
 6110 189e 7B68     		ldr	r3, [r7, #4]
 6111 18a0 1B8F     		ldrh	r3, [r3, #56]	@ movhi
 6112 18a2 9BB2     		uxth	r3, r3
2476:../../source/src/FWlib/src/stm32f10x_tim.c **** }
ARM GAS  G:\Users\Jaxb\AppData\Local\Temp\ccSQWSCJ.s 			page 153


 6113              		.loc 1 2476 0
 6114 18a4 1846     		mov	r0, r3
 6115 18a6 0C37     		adds	r7, r7, #12
 6116              	.LCFI464:
 6117              		.cfi_def_cfa_offset 4
 6118 18a8 BD46     		mov	sp, r7
 6119              	.LCFI465:
 6120              		.cfi_def_cfa_register 13
 6121              		@ sp needed
 6122 18aa 80BC     		pop	{r7}
 6123              	.LCFI466:
 6124              		.cfi_restore 7
 6125              		.cfi_def_cfa_offset 0
 6126 18ac 7047     		bx	lr
 6127              		.cfi_endproc
 6128              	.LFE107:
 6129              		.size	TIM_GetCapture2, .-TIM_GetCapture2
 6130              		.align	1
 6131              		.global	TIM_GetCapture3
 6132              		.syntax unified
 6133              		.thumb
 6134              		.thumb_func
 6135              		.fpu softvfp
 6136              		.type	TIM_GetCapture3, %function
 6137              	TIM_GetCapture3:
 6138              	.LFB108:
2477:../../source/src/FWlib/src/stm32f10x_tim.c **** 
2478:../../source/src/FWlib/src/stm32f10x_tim.c **** /**
2479:../../source/src/FWlib/src/stm32f10x_tim.c ****   * @brief  Gets the TIMx Input Capture 3 value.
2480:../../source/src/FWlib/src/stm32f10x_tim.c ****   * @param  TIMx: where x can be 1, 2, 3, 4, 5 or 8 to select the TIM peripheral.
2481:../../source/src/FWlib/src/stm32f10x_tim.c ****   * @retval Capture Compare 3 Register value.
2482:../../source/src/FWlib/src/stm32f10x_tim.c ****   */
2483:../../source/src/FWlib/src/stm32f10x_tim.c **** uint16_t TIM_GetCapture3(TIM_TypeDef* TIMx)
2484:../../source/src/FWlib/src/stm32f10x_tim.c **** {
 6139              		.loc 1 2484 0
 6140              		.cfi_startproc
 6141              		@ args = 0, pretend = 0, frame = 8
 6142              		@ frame_needed = 1, uses_anonymous_args = 0
 6143              		@ link register save eliminated.
 6144 18ae 80B4     		push	{r7}
 6145              	.LCFI467:
 6146              		.cfi_def_cfa_offset 4
 6147              		.cfi_offset 7, -4
 6148 18b0 83B0     		sub	sp, sp, #12
 6149              	.LCFI468:
 6150              		.cfi_def_cfa_offset 16
 6151 18b2 00AF     		add	r7, sp, #0
 6152              	.LCFI469:
 6153              		.cfi_def_cfa_register 7
 6154 18b4 7860     		str	r0, [r7, #4]
2485:../../source/src/FWlib/src/stm32f10x_tim.c ****   /* Check the parameters */
2486:../../source/src/FWlib/src/stm32f10x_tim.c ****   assert_param(IS_TIM_LIST3_PERIPH(TIMx)); 
2487:../../source/src/FWlib/src/stm32f10x_tim.c ****   /* Get the Capture 3 Register value */
2488:../../source/src/FWlib/src/stm32f10x_tim.c ****   return TIMx->CCR3;
 6155              		.loc 1 2488 0
 6156 18b6 7B68     		ldr	r3, [r7, #4]
 6157 18b8 9B8F     		ldrh	r3, [r3, #60]	@ movhi
ARM GAS  G:\Users\Jaxb\AppData\Local\Temp\ccSQWSCJ.s 			page 154


 6158 18ba 9BB2     		uxth	r3, r3
2489:../../source/src/FWlib/src/stm32f10x_tim.c **** }
 6159              		.loc 1 2489 0
 6160 18bc 1846     		mov	r0, r3
 6161 18be 0C37     		adds	r7, r7, #12
 6162              	.LCFI470:
 6163              		.cfi_def_cfa_offset 4
 6164 18c0 BD46     		mov	sp, r7
 6165              	.LCFI471:
 6166              		.cfi_def_cfa_register 13
 6167              		@ sp needed
 6168 18c2 80BC     		pop	{r7}
 6169              	.LCFI472:
 6170              		.cfi_restore 7
 6171              		.cfi_def_cfa_offset 0
 6172 18c4 7047     		bx	lr
 6173              		.cfi_endproc
 6174              	.LFE108:
 6175              		.size	TIM_GetCapture3, .-TIM_GetCapture3
 6176              		.align	1
 6177              		.global	TIM_GetCapture4
 6178              		.syntax unified
 6179              		.thumb
 6180              		.thumb_func
 6181              		.fpu softvfp
 6182              		.type	TIM_GetCapture4, %function
 6183              	TIM_GetCapture4:
 6184              	.LFB109:
2490:../../source/src/FWlib/src/stm32f10x_tim.c **** 
2491:../../source/src/FWlib/src/stm32f10x_tim.c **** /**
2492:../../source/src/FWlib/src/stm32f10x_tim.c ****   * @brief  Gets the TIMx Input Capture 4 value.
2493:../../source/src/FWlib/src/stm32f10x_tim.c ****   * @param  TIMx: where x can be 1, 2, 3, 4, 5 or 8 to select the TIM peripheral.
2494:../../source/src/FWlib/src/stm32f10x_tim.c ****   * @retval Capture Compare 4 Register value.
2495:../../source/src/FWlib/src/stm32f10x_tim.c ****   */
2496:../../source/src/FWlib/src/stm32f10x_tim.c **** uint16_t TIM_GetCapture4(TIM_TypeDef* TIMx)
2497:../../source/src/FWlib/src/stm32f10x_tim.c **** {
 6185              		.loc 1 2497 0
 6186              		.cfi_startproc
 6187              		@ args = 0, pretend = 0, frame = 8
 6188              		@ frame_needed = 1, uses_anonymous_args = 0
 6189              		@ link register save eliminated.
 6190 18c6 80B4     		push	{r7}
 6191              	.LCFI473:
 6192              		.cfi_def_cfa_offset 4
 6193              		.cfi_offset 7, -4
 6194 18c8 83B0     		sub	sp, sp, #12
 6195              	.LCFI474:
 6196              		.cfi_def_cfa_offset 16
 6197 18ca 00AF     		add	r7, sp, #0
 6198              	.LCFI475:
 6199              		.cfi_def_cfa_register 7
 6200 18cc 7860     		str	r0, [r7, #4]
2498:../../source/src/FWlib/src/stm32f10x_tim.c ****   /* Check the parameters */
2499:../../source/src/FWlib/src/stm32f10x_tim.c ****   assert_param(IS_TIM_LIST3_PERIPH(TIMx));
2500:../../source/src/FWlib/src/stm32f10x_tim.c ****   /* Get the Capture 4 Register value */
2501:../../source/src/FWlib/src/stm32f10x_tim.c ****   return TIMx->CCR4;
 6201              		.loc 1 2501 0
ARM GAS  G:\Users\Jaxb\AppData\Local\Temp\ccSQWSCJ.s 			page 155


 6202 18ce 7B68     		ldr	r3, [r7, #4]
 6203 18d0 B3F84030 		ldrh	r3, [r3, #64]	@ movhi
 6204 18d4 9BB2     		uxth	r3, r3
2502:../../source/src/FWlib/src/stm32f10x_tim.c **** }
 6205              		.loc 1 2502 0
 6206 18d6 1846     		mov	r0, r3
 6207 18d8 0C37     		adds	r7, r7, #12
 6208              	.LCFI476:
 6209              		.cfi_def_cfa_offset 4
 6210 18da BD46     		mov	sp, r7
 6211              	.LCFI477:
 6212              		.cfi_def_cfa_register 13
 6213              		@ sp needed
 6214 18dc 80BC     		pop	{r7}
 6215              	.LCFI478:
 6216              		.cfi_restore 7
 6217              		.cfi_def_cfa_offset 0
 6218 18de 7047     		bx	lr
 6219              		.cfi_endproc
 6220              	.LFE109:
 6221              		.size	TIM_GetCapture4, .-TIM_GetCapture4
 6222              		.align	1
 6223              		.global	TIM_GetCounter
 6224              		.syntax unified
 6225              		.thumb
 6226              		.thumb_func
 6227              		.fpu softvfp
 6228              		.type	TIM_GetCounter, %function
 6229              	TIM_GetCounter:
 6230              	.LFB110:
2503:../../source/src/FWlib/src/stm32f10x_tim.c **** 
2504:../../source/src/FWlib/src/stm32f10x_tim.c **** /**
2505:../../source/src/FWlib/src/stm32f10x_tim.c ****   * @brief  Gets the TIMx Counter value.
2506:../../source/src/FWlib/src/stm32f10x_tim.c ****   * @param  TIMx: where x can be 1 to 17 to select the TIM peripheral.
2507:../../source/src/FWlib/src/stm32f10x_tim.c ****   * @retval Counter Register value.
2508:../../source/src/FWlib/src/stm32f10x_tim.c ****   */
2509:../../source/src/FWlib/src/stm32f10x_tim.c **** uint16_t TIM_GetCounter(TIM_TypeDef* TIMx)
2510:../../source/src/FWlib/src/stm32f10x_tim.c **** {
 6231              		.loc 1 2510 0
 6232              		.cfi_startproc
 6233              		@ args = 0, pretend = 0, frame = 8
 6234              		@ frame_needed = 1, uses_anonymous_args = 0
 6235              		@ link register save eliminated.
 6236 18e0 80B4     		push	{r7}
 6237              	.LCFI479:
 6238              		.cfi_def_cfa_offset 4
 6239              		.cfi_offset 7, -4
 6240 18e2 83B0     		sub	sp, sp, #12
 6241              	.LCFI480:
 6242              		.cfi_def_cfa_offset 16
 6243 18e4 00AF     		add	r7, sp, #0
 6244              	.LCFI481:
 6245              		.cfi_def_cfa_register 7
 6246 18e6 7860     		str	r0, [r7, #4]
2511:../../source/src/FWlib/src/stm32f10x_tim.c ****   /* Check the parameters */
2512:../../source/src/FWlib/src/stm32f10x_tim.c ****   assert_param(IS_TIM_ALL_PERIPH(TIMx));
2513:../../source/src/FWlib/src/stm32f10x_tim.c ****   /* Get the Counter Register value */
ARM GAS  G:\Users\Jaxb\AppData\Local\Temp\ccSQWSCJ.s 			page 156


2514:../../source/src/FWlib/src/stm32f10x_tim.c ****   return TIMx->CNT;
 6247              		.loc 1 2514 0
 6248 18e8 7B68     		ldr	r3, [r7, #4]
 6249 18ea 9B8C     		ldrh	r3, [r3, #36]	@ movhi
 6250 18ec 9BB2     		uxth	r3, r3
2515:../../source/src/FWlib/src/stm32f10x_tim.c **** }
 6251              		.loc 1 2515 0
 6252 18ee 1846     		mov	r0, r3
 6253 18f0 0C37     		adds	r7, r7, #12
 6254              	.LCFI482:
 6255              		.cfi_def_cfa_offset 4
 6256 18f2 BD46     		mov	sp, r7
 6257              	.LCFI483:
 6258              		.cfi_def_cfa_register 13
 6259              		@ sp needed
 6260 18f4 80BC     		pop	{r7}
 6261              	.LCFI484:
 6262              		.cfi_restore 7
 6263              		.cfi_def_cfa_offset 0
 6264 18f6 7047     		bx	lr
 6265              		.cfi_endproc
 6266              	.LFE110:
 6267              		.size	TIM_GetCounter, .-TIM_GetCounter
 6268              		.align	1
 6269              		.global	TIM_GetPrescaler
 6270              		.syntax unified
 6271              		.thumb
 6272              		.thumb_func
 6273              		.fpu softvfp
 6274              		.type	TIM_GetPrescaler, %function
 6275              	TIM_GetPrescaler:
 6276              	.LFB111:
2516:../../source/src/FWlib/src/stm32f10x_tim.c **** 
2517:../../source/src/FWlib/src/stm32f10x_tim.c **** /**
2518:../../source/src/FWlib/src/stm32f10x_tim.c ****   * @brief  Gets the TIMx Prescaler value.
2519:../../source/src/FWlib/src/stm32f10x_tim.c ****   * @param  TIMx: where x can be 1 to 17 to select the TIM peripheral.
2520:../../source/src/FWlib/src/stm32f10x_tim.c ****   * @retval Prescaler Register value.
2521:../../source/src/FWlib/src/stm32f10x_tim.c ****   */
2522:../../source/src/FWlib/src/stm32f10x_tim.c **** uint16_t TIM_GetPrescaler(TIM_TypeDef* TIMx)
2523:../../source/src/FWlib/src/stm32f10x_tim.c **** {
 6277              		.loc 1 2523 0
 6278              		.cfi_startproc
 6279              		@ args = 0, pretend = 0, frame = 8
 6280              		@ frame_needed = 1, uses_anonymous_args = 0
 6281              		@ link register save eliminated.
 6282 18f8 80B4     		push	{r7}
 6283              	.LCFI485:
 6284              		.cfi_def_cfa_offset 4
 6285              		.cfi_offset 7, -4
 6286 18fa 83B0     		sub	sp, sp, #12
 6287              	.LCFI486:
 6288              		.cfi_def_cfa_offset 16
 6289 18fc 00AF     		add	r7, sp, #0
 6290              	.LCFI487:
 6291              		.cfi_def_cfa_register 7
 6292 18fe 7860     		str	r0, [r7, #4]
2524:../../source/src/FWlib/src/stm32f10x_tim.c ****   /* Check the parameters */
ARM GAS  G:\Users\Jaxb\AppData\Local\Temp\ccSQWSCJ.s 			page 157


2525:../../source/src/FWlib/src/stm32f10x_tim.c ****   assert_param(IS_TIM_ALL_PERIPH(TIMx));
2526:../../source/src/FWlib/src/stm32f10x_tim.c ****   /* Get the Prescaler Register value */
2527:../../source/src/FWlib/src/stm32f10x_tim.c ****   return TIMx->PSC;
 6293              		.loc 1 2527 0
 6294 1900 7B68     		ldr	r3, [r7, #4]
 6295 1902 1B8D     		ldrh	r3, [r3, #40]	@ movhi
 6296 1904 9BB2     		uxth	r3, r3
2528:../../source/src/FWlib/src/stm32f10x_tim.c **** }
 6297              		.loc 1 2528 0
 6298 1906 1846     		mov	r0, r3
 6299 1908 0C37     		adds	r7, r7, #12
 6300              	.LCFI488:
 6301              		.cfi_def_cfa_offset 4
 6302 190a BD46     		mov	sp, r7
 6303              	.LCFI489:
 6304              		.cfi_def_cfa_register 13
 6305              		@ sp needed
 6306 190c 80BC     		pop	{r7}
 6307              	.LCFI490:
 6308              		.cfi_restore 7
 6309              		.cfi_def_cfa_offset 0
 6310 190e 7047     		bx	lr
 6311              		.cfi_endproc
 6312              	.LFE111:
 6313              		.size	TIM_GetPrescaler, .-TIM_GetPrescaler
 6314              		.align	1
 6315              		.global	TIM_GetFlagStatus
 6316              		.syntax unified
 6317              		.thumb
 6318              		.thumb_func
 6319              		.fpu softvfp
 6320              		.type	TIM_GetFlagStatus, %function
 6321              	TIM_GetFlagStatus:
 6322              	.LFB112:
2529:../../source/src/FWlib/src/stm32f10x_tim.c **** 
2530:../../source/src/FWlib/src/stm32f10x_tim.c **** /**
2531:../../source/src/FWlib/src/stm32f10x_tim.c ****   * @brief  Checks whether the specified TIM flag is set or not.
2532:../../source/src/FWlib/src/stm32f10x_tim.c ****   * @param  TIMx: where x can be 1 to 17 to select the TIM peripheral.
2533:../../source/src/FWlib/src/stm32f10x_tim.c ****   * @param  TIM_FLAG: specifies the flag to check.
2534:../../source/src/FWlib/src/stm32f10x_tim.c ****   *   This parameter can be one of the following values:
2535:../../source/src/FWlib/src/stm32f10x_tim.c ****   *     @arg TIM_FLAG_Update: TIM update Flag
2536:../../source/src/FWlib/src/stm32f10x_tim.c ****   *     @arg TIM_FLAG_CC1: TIM Capture Compare 1 Flag
2537:../../source/src/FWlib/src/stm32f10x_tim.c ****   *     @arg TIM_FLAG_CC2: TIM Capture Compare 2 Flag
2538:../../source/src/FWlib/src/stm32f10x_tim.c ****   *     @arg TIM_FLAG_CC3: TIM Capture Compare 3 Flag
2539:../../source/src/FWlib/src/stm32f10x_tim.c ****   *     @arg TIM_FLAG_CC4: TIM Capture Compare 4 Flag
2540:../../source/src/FWlib/src/stm32f10x_tim.c ****   *     @arg TIM_FLAG_COM: TIM Commutation Flag
2541:../../source/src/FWlib/src/stm32f10x_tim.c ****   *     @arg TIM_FLAG_Trigger: TIM Trigger Flag
2542:../../source/src/FWlib/src/stm32f10x_tim.c ****   *     @arg TIM_FLAG_Break: TIM Break Flag
2543:../../source/src/FWlib/src/stm32f10x_tim.c ****   *     @arg TIM_FLAG_CC1OF: TIM Capture Compare 1 overcapture Flag
2544:../../source/src/FWlib/src/stm32f10x_tim.c ****   *     @arg TIM_FLAG_CC2OF: TIM Capture Compare 2 overcapture Flag
2545:../../source/src/FWlib/src/stm32f10x_tim.c ****   *     @arg TIM_FLAG_CC3OF: TIM Capture Compare 3 overcapture Flag
2546:../../source/src/FWlib/src/stm32f10x_tim.c ****   *     @arg TIM_FLAG_CC4OF: TIM Capture Compare 4 overcapture Flag
2547:../../source/src/FWlib/src/stm32f10x_tim.c ****   * @note
2548:../../source/src/FWlib/src/stm32f10x_tim.c ****   *   - TIM6 and TIM7 can have only one update flag. 
2549:../../source/src/FWlib/src/stm32f10x_tim.c ****   *   - TIM9, TIM12 and TIM15 can have only TIM_FLAG_Update, TIM_FLAG_CC1,
2550:../../source/src/FWlib/src/stm32f10x_tim.c ****   *      TIM_FLAG_CC2 or TIM_FLAG_Trigger. 
2551:../../source/src/FWlib/src/stm32f10x_tim.c ****   *   - TIM10, TIM11, TIM13, TIM14, TIM16 and TIM17 can have TIM_FLAG_Update or TIM_FLAG_CC1.   
ARM GAS  G:\Users\Jaxb\AppData\Local\Temp\ccSQWSCJ.s 			page 158


2552:../../source/src/FWlib/src/stm32f10x_tim.c ****   *   - TIM_FLAG_Break is used only with TIM1, TIM8 and TIM15. 
2553:../../source/src/FWlib/src/stm32f10x_tim.c ****   *   - TIM_FLAG_COM is used only with TIM1, TIM8, TIM15, TIM16 and TIM17.    
2554:../../source/src/FWlib/src/stm32f10x_tim.c ****   * @retval The new state of TIM_FLAG (SET or RESET).
2555:../../source/src/FWlib/src/stm32f10x_tim.c ****   */
2556:../../source/src/FWlib/src/stm32f10x_tim.c **** FlagStatus TIM_GetFlagStatus(TIM_TypeDef* TIMx, uint16_t TIM_FLAG)
2557:../../source/src/FWlib/src/stm32f10x_tim.c **** { 
 6323              		.loc 1 2557 0
 6324              		.cfi_startproc
 6325              		@ args = 0, pretend = 0, frame = 16
 6326              		@ frame_needed = 1, uses_anonymous_args = 0
 6327              		@ link register save eliminated.
 6328 1910 80B4     		push	{r7}
 6329              	.LCFI491:
 6330              		.cfi_def_cfa_offset 4
 6331              		.cfi_offset 7, -4
 6332 1912 85B0     		sub	sp, sp, #20
 6333              	.LCFI492:
 6334              		.cfi_def_cfa_offset 24
 6335 1914 00AF     		add	r7, sp, #0
 6336              	.LCFI493:
 6337              		.cfi_def_cfa_register 7
 6338 1916 7860     		str	r0, [r7, #4]
 6339 1918 0B46     		mov	r3, r1
 6340 191a 7B80     		strh	r3, [r7, #2]	@ movhi
2558:../../source/src/FWlib/src/stm32f10x_tim.c ****   ITStatus bitstatus = RESET;  
 6341              		.loc 1 2558 0
 6342 191c 0023     		movs	r3, #0
 6343 191e FB73     		strb	r3, [r7, #15]
2559:../../source/src/FWlib/src/stm32f10x_tim.c ****   /* Check the parameters */
2560:../../source/src/FWlib/src/stm32f10x_tim.c ****   assert_param(IS_TIM_ALL_PERIPH(TIMx));
2561:../../source/src/FWlib/src/stm32f10x_tim.c ****   assert_param(IS_TIM_GET_FLAG(TIM_FLAG));
2562:../../source/src/FWlib/src/stm32f10x_tim.c ****   
2563:../../source/src/FWlib/src/stm32f10x_tim.c ****   if ((TIMx->SR & TIM_FLAG) != (uint16_t)RESET)
 6344              		.loc 1 2563 0
 6345 1920 7B68     		ldr	r3, [r7, #4]
 6346 1922 1B8A     		ldrh	r3, [r3, #16]	@ movhi
 6347 1924 9AB2     		uxth	r2, r3
 6348 1926 7B88     		ldrh	r3, [r7, #2]	@ movhi
 6349 1928 1340     		ands	r3, r3, r2
 6350 192a 9BB2     		uxth	r3, r3
 6351 192c 002B     		cmp	r3, #0
 6352 192e 02D0     		beq	.L184
2564:../../source/src/FWlib/src/stm32f10x_tim.c ****   {
2565:../../source/src/FWlib/src/stm32f10x_tim.c ****     bitstatus = SET;
 6353              		.loc 1 2565 0
 6354 1930 0123     		movs	r3, #1
 6355 1932 FB73     		strb	r3, [r7, #15]
 6356 1934 01E0     		b	.L185
 6357              	.L184:
2566:../../source/src/FWlib/src/stm32f10x_tim.c ****   }
2567:../../source/src/FWlib/src/stm32f10x_tim.c ****   else
2568:../../source/src/FWlib/src/stm32f10x_tim.c ****   {
2569:../../source/src/FWlib/src/stm32f10x_tim.c ****     bitstatus = RESET;
 6358              		.loc 1 2569 0
 6359 1936 0023     		movs	r3, #0
 6360 1938 FB73     		strb	r3, [r7, #15]
 6361              	.L185:
ARM GAS  G:\Users\Jaxb\AppData\Local\Temp\ccSQWSCJ.s 			page 159


2570:../../source/src/FWlib/src/stm32f10x_tim.c ****   }
2571:../../source/src/FWlib/src/stm32f10x_tim.c ****   return bitstatus;
 6362              		.loc 1 2571 0
 6363 193a FB7B     		ldrb	r3, [r7, #15]	@ zero_extendqisi2
2572:../../source/src/FWlib/src/stm32f10x_tim.c **** }
 6364              		.loc 1 2572 0
 6365 193c 1846     		mov	r0, r3
 6366 193e 1437     		adds	r7, r7, #20
 6367              	.LCFI494:
 6368              		.cfi_def_cfa_offset 4
 6369 1940 BD46     		mov	sp, r7
 6370              	.LCFI495:
 6371              		.cfi_def_cfa_register 13
 6372              		@ sp needed
 6373 1942 80BC     		pop	{r7}
 6374              	.LCFI496:
 6375              		.cfi_restore 7
 6376              		.cfi_def_cfa_offset 0
 6377 1944 7047     		bx	lr
 6378              		.cfi_endproc
 6379              	.LFE112:
 6380              		.size	TIM_GetFlagStatus, .-TIM_GetFlagStatus
 6381              		.align	1
 6382              		.global	TIM_ClearFlag
 6383              		.syntax unified
 6384              		.thumb
 6385              		.thumb_func
 6386              		.fpu softvfp
 6387              		.type	TIM_ClearFlag, %function
 6388              	TIM_ClearFlag:
 6389              	.LFB113:
2573:../../source/src/FWlib/src/stm32f10x_tim.c **** 
2574:../../source/src/FWlib/src/stm32f10x_tim.c **** /**
2575:../../source/src/FWlib/src/stm32f10x_tim.c ****   * @brief  Clears the TIMx's pending flags.
2576:../../source/src/FWlib/src/stm32f10x_tim.c ****   * @param  TIMx: where x can be 1 to 17 to select the TIM peripheral.
2577:../../source/src/FWlib/src/stm32f10x_tim.c ****   * @param  TIM_FLAG: specifies the flag bit to clear.
2578:../../source/src/FWlib/src/stm32f10x_tim.c ****   *   This parameter can be any combination of the following values:
2579:../../source/src/FWlib/src/stm32f10x_tim.c ****   *     @arg TIM_FLAG_Update: TIM update Flag
2580:../../source/src/FWlib/src/stm32f10x_tim.c ****   *     @arg TIM_FLAG_CC1: TIM Capture Compare 1 Flag
2581:../../source/src/FWlib/src/stm32f10x_tim.c ****   *     @arg TIM_FLAG_CC2: TIM Capture Compare 2 Flag
2582:../../source/src/FWlib/src/stm32f10x_tim.c ****   *     @arg TIM_FLAG_CC3: TIM Capture Compare 3 Flag
2583:../../source/src/FWlib/src/stm32f10x_tim.c ****   *     @arg TIM_FLAG_CC4: TIM Capture Compare 4 Flag
2584:../../source/src/FWlib/src/stm32f10x_tim.c ****   *     @arg TIM_FLAG_COM: TIM Commutation Flag
2585:../../source/src/FWlib/src/stm32f10x_tim.c ****   *     @arg TIM_FLAG_Trigger: TIM Trigger Flag
2586:../../source/src/FWlib/src/stm32f10x_tim.c ****   *     @arg TIM_FLAG_Break: TIM Break Flag
2587:../../source/src/FWlib/src/stm32f10x_tim.c ****   *     @arg TIM_FLAG_CC1OF: TIM Capture Compare 1 overcapture Flag
2588:../../source/src/FWlib/src/stm32f10x_tim.c ****   *     @arg TIM_FLAG_CC2OF: TIM Capture Compare 2 overcapture Flag
2589:../../source/src/FWlib/src/stm32f10x_tim.c ****   *     @arg TIM_FLAG_CC3OF: TIM Capture Compare 3 overcapture Flag
2590:../../source/src/FWlib/src/stm32f10x_tim.c ****   *     @arg TIM_FLAG_CC4OF: TIM Capture Compare 4 overcapture Flag
2591:../../source/src/FWlib/src/stm32f10x_tim.c ****   * @note
2592:../../source/src/FWlib/src/stm32f10x_tim.c ****   *   - TIM6 and TIM7 can have only one update flag. 
2593:../../source/src/FWlib/src/stm32f10x_tim.c ****   *   - TIM9, TIM12 and TIM15 can have only TIM_FLAG_Update, TIM_FLAG_CC1,
2594:../../source/src/FWlib/src/stm32f10x_tim.c ****   *      TIM_FLAG_CC2 or TIM_FLAG_Trigger. 
2595:../../source/src/FWlib/src/stm32f10x_tim.c ****   *   - TIM10, TIM11, TIM13, TIM14, TIM16 and TIM17 can have TIM_FLAG_Update or TIM_FLAG_CC1.   
2596:../../source/src/FWlib/src/stm32f10x_tim.c ****   *   - TIM_FLAG_Break is used only with TIM1, TIM8 and TIM15. 
2597:../../source/src/FWlib/src/stm32f10x_tim.c ****   *   - TIM_FLAG_COM is used only with TIM1, TIM8, TIM15, TIM16 and TIM17.   
2598:../../source/src/FWlib/src/stm32f10x_tim.c ****   * @retval None
ARM GAS  G:\Users\Jaxb\AppData\Local\Temp\ccSQWSCJ.s 			page 160


2599:../../source/src/FWlib/src/stm32f10x_tim.c ****   */
2600:../../source/src/FWlib/src/stm32f10x_tim.c **** void TIM_ClearFlag(TIM_TypeDef* TIMx, uint16_t TIM_FLAG)
2601:../../source/src/FWlib/src/stm32f10x_tim.c **** {  
 6390              		.loc 1 2601 0
 6391              		.cfi_startproc
 6392              		@ args = 0, pretend = 0, frame = 8
 6393              		@ frame_needed = 1, uses_anonymous_args = 0
 6394              		@ link register save eliminated.
 6395 1946 80B4     		push	{r7}
 6396              	.LCFI497:
 6397              		.cfi_def_cfa_offset 4
 6398              		.cfi_offset 7, -4
 6399 1948 83B0     		sub	sp, sp, #12
 6400              	.LCFI498:
 6401              		.cfi_def_cfa_offset 16
 6402 194a 00AF     		add	r7, sp, #0
 6403              	.LCFI499:
 6404              		.cfi_def_cfa_register 7
 6405 194c 7860     		str	r0, [r7, #4]
 6406 194e 0B46     		mov	r3, r1
 6407 1950 7B80     		strh	r3, [r7, #2]	@ movhi
2602:../../source/src/FWlib/src/stm32f10x_tim.c ****   /* Check the parameters */
2603:../../source/src/FWlib/src/stm32f10x_tim.c ****   assert_param(IS_TIM_ALL_PERIPH(TIMx));
2604:../../source/src/FWlib/src/stm32f10x_tim.c ****   assert_param(IS_TIM_CLEAR_FLAG(TIM_FLAG));
2605:../../source/src/FWlib/src/stm32f10x_tim.c ****    
2606:../../source/src/FWlib/src/stm32f10x_tim.c ****   /* Clear the flags */
2607:../../source/src/FWlib/src/stm32f10x_tim.c ****   TIMx->SR = (uint16_t)~TIM_FLAG;
 6408              		.loc 1 2607 0
 6409 1952 7B88     		ldrh	r3, [r7, #2]	@ movhi
 6410 1954 DB43     		mvns	r3, r3
 6411 1956 9AB2     		uxth	r2, r3
 6412 1958 7B68     		ldr	r3, [r7, #4]
 6413 195a 1A82     		strh	r2, [r3, #16]	@ movhi
2608:../../source/src/FWlib/src/stm32f10x_tim.c **** }
 6414              		.loc 1 2608 0
 6415 195c 00BF     		nop
 6416 195e 0C37     		adds	r7, r7, #12
 6417              	.LCFI500:
 6418              		.cfi_def_cfa_offset 4
 6419 1960 BD46     		mov	sp, r7
 6420              	.LCFI501:
 6421              		.cfi_def_cfa_register 13
 6422              		@ sp needed
 6423 1962 80BC     		pop	{r7}
 6424              	.LCFI502:
 6425              		.cfi_restore 7
 6426              		.cfi_def_cfa_offset 0
 6427 1964 7047     		bx	lr
 6428              		.cfi_endproc
 6429              	.LFE113:
 6430              		.size	TIM_ClearFlag, .-TIM_ClearFlag
 6431              		.align	1
 6432              		.global	TIM_GetITStatus
 6433              		.syntax unified
 6434              		.thumb
 6435              		.thumb_func
 6436              		.fpu softvfp
ARM GAS  G:\Users\Jaxb\AppData\Local\Temp\ccSQWSCJ.s 			page 161


 6437              		.type	TIM_GetITStatus, %function
 6438              	TIM_GetITStatus:
 6439              	.LFB114:
2609:../../source/src/FWlib/src/stm32f10x_tim.c **** 
2610:../../source/src/FWlib/src/stm32f10x_tim.c **** /**
2611:../../source/src/FWlib/src/stm32f10x_tim.c ****   * @brief  Checks whether the TIM interrupt has occurred or not.
2612:../../source/src/FWlib/src/stm32f10x_tim.c ****   * @param  TIMx: where x can be 1 to 17 to select the TIM peripheral.
2613:../../source/src/FWlib/src/stm32f10x_tim.c ****   * @param  TIM_IT: specifies the TIM interrupt source to check.
2614:../../source/src/FWlib/src/stm32f10x_tim.c ****   *   This parameter can be one of the following values:
2615:../../source/src/FWlib/src/stm32f10x_tim.c ****   *     @arg TIM_IT_Update: TIM update Interrupt source
2616:../../source/src/FWlib/src/stm32f10x_tim.c ****   *     @arg TIM_IT_CC1: TIM Capture Compare 1 Interrupt source
2617:../../source/src/FWlib/src/stm32f10x_tim.c ****   *     @arg TIM_IT_CC2: TIM Capture Compare 2 Interrupt source
2618:../../source/src/FWlib/src/stm32f10x_tim.c ****   *     @arg TIM_IT_CC3: TIM Capture Compare 3 Interrupt source
2619:../../source/src/FWlib/src/stm32f10x_tim.c ****   *     @arg TIM_IT_CC4: TIM Capture Compare 4 Interrupt source
2620:../../source/src/FWlib/src/stm32f10x_tim.c ****   *     @arg TIM_IT_COM: TIM Commutation Interrupt source
2621:../../source/src/FWlib/src/stm32f10x_tim.c ****   *     @arg TIM_IT_Trigger: TIM Trigger Interrupt source
2622:../../source/src/FWlib/src/stm32f10x_tim.c ****   *     @arg TIM_IT_Break: TIM Break Interrupt source
2623:../../source/src/FWlib/src/stm32f10x_tim.c ****   * @note
2624:../../source/src/FWlib/src/stm32f10x_tim.c ****   *   - TIM6 and TIM7 can generate only an update interrupt.
2625:../../source/src/FWlib/src/stm32f10x_tim.c ****   *   - TIM9, TIM12 and TIM15 can have only TIM_IT_Update, TIM_IT_CC1,
2626:../../source/src/FWlib/src/stm32f10x_tim.c ****   *      TIM_IT_CC2 or TIM_IT_Trigger. 
2627:../../source/src/FWlib/src/stm32f10x_tim.c ****   *   - TIM10, TIM11, TIM13, TIM14, TIM16 and TIM17 can have TIM_IT_Update or TIM_IT_CC1.   
2628:../../source/src/FWlib/src/stm32f10x_tim.c ****   *   - TIM_IT_Break is used only with TIM1, TIM8 and TIM15. 
2629:../../source/src/FWlib/src/stm32f10x_tim.c ****   *   - TIM_IT_COM is used only with TIM1, TIM8, TIM15, TIM16 and TIM17.  
2630:../../source/src/FWlib/src/stm32f10x_tim.c ****   * @retval The new state of the TIM_IT(SET or RESET).
2631:../../source/src/FWlib/src/stm32f10x_tim.c ****   */
2632:../../source/src/FWlib/src/stm32f10x_tim.c **** ITStatus TIM_GetITStatus(TIM_TypeDef* TIMx, uint16_t TIM_IT)
2633:../../source/src/FWlib/src/stm32f10x_tim.c **** {
 6440              		.loc 1 2633 0
 6441              		.cfi_startproc
 6442              		@ args = 0, pretend = 0, frame = 16
 6443              		@ frame_needed = 1, uses_anonymous_args = 0
 6444              		@ link register save eliminated.
 6445 1966 80B4     		push	{r7}
 6446              	.LCFI503:
 6447              		.cfi_def_cfa_offset 4
 6448              		.cfi_offset 7, -4
 6449 1968 85B0     		sub	sp, sp, #20
 6450              	.LCFI504:
 6451              		.cfi_def_cfa_offset 24
 6452 196a 00AF     		add	r7, sp, #0
 6453              	.LCFI505:
 6454              		.cfi_def_cfa_register 7
 6455 196c 7860     		str	r0, [r7, #4]
 6456 196e 0B46     		mov	r3, r1
 6457 1970 7B80     		strh	r3, [r7, #2]	@ movhi
2634:../../source/src/FWlib/src/stm32f10x_tim.c ****   ITStatus bitstatus = RESET;  
 6458              		.loc 1 2634 0
 6459 1972 0023     		movs	r3, #0
 6460 1974 FB73     		strb	r3, [r7, #15]
2635:../../source/src/FWlib/src/stm32f10x_tim.c ****   uint16_t itstatus = 0x0, itenable = 0x0;
 6461              		.loc 1 2635 0
 6462 1976 0023     		movs	r3, #0
 6463 1978 BB81     		strh	r3, [r7, #12]	@ movhi
 6464 197a 0023     		movs	r3, #0
 6465 197c 7B81     		strh	r3, [r7, #10]	@ movhi
2636:../../source/src/FWlib/src/stm32f10x_tim.c ****   /* Check the parameters */
ARM GAS  G:\Users\Jaxb\AppData\Local\Temp\ccSQWSCJ.s 			page 162


2637:../../source/src/FWlib/src/stm32f10x_tim.c ****   assert_param(IS_TIM_ALL_PERIPH(TIMx));
2638:../../source/src/FWlib/src/stm32f10x_tim.c ****   assert_param(IS_TIM_GET_IT(TIM_IT));
2639:../../source/src/FWlib/src/stm32f10x_tim.c ****    
2640:../../source/src/FWlib/src/stm32f10x_tim.c ****   itstatus = TIMx->SR & TIM_IT;
 6466              		.loc 1 2640 0
 6467 197e 7B68     		ldr	r3, [r7, #4]
 6468 1980 1B8A     		ldrh	r3, [r3, #16]	@ movhi
 6469 1982 9AB2     		uxth	r2, r3
 6470 1984 7B88     		ldrh	r3, [r7, #2]	@ movhi
 6471 1986 1340     		ands	r3, r3, r2
 6472 1988 BB81     		strh	r3, [r7, #12]	@ movhi
2641:../../source/src/FWlib/src/stm32f10x_tim.c ****   
2642:../../source/src/FWlib/src/stm32f10x_tim.c ****   itenable = TIMx->DIER & TIM_IT;
 6473              		.loc 1 2642 0
 6474 198a 7B68     		ldr	r3, [r7, #4]
 6475 198c 9B89     		ldrh	r3, [r3, #12]	@ movhi
 6476 198e 9AB2     		uxth	r2, r3
 6477 1990 7B88     		ldrh	r3, [r7, #2]	@ movhi
 6478 1992 1340     		ands	r3, r3, r2
 6479 1994 7B81     		strh	r3, [r7, #10]	@ movhi
2643:../../source/src/FWlib/src/stm32f10x_tim.c ****   if ((itstatus != (uint16_t)RESET) && (itenable != (uint16_t)RESET))
 6480              		.loc 1 2643 0
 6481 1996 BB89     		ldrh	r3, [r7, #12]
 6482 1998 002B     		cmp	r3, #0
 6483 199a 05D0     		beq	.L189
 6484              		.loc 1 2643 0 is_stmt 0 discriminator 1
 6485 199c 7B89     		ldrh	r3, [r7, #10]
 6486 199e 002B     		cmp	r3, #0
 6487 19a0 02D0     		beq	.L189
2644:../../source/src/FWlib/src/stm32f10x_tim.c ****   {
2645:../../source/src/FWlib/src/stm32f10x_tim.c ****     bitstatus = SET;
 6488              		.loc 1 2645 0 is_stmt 1
 6489 19a2 0123     		movs	r3, #1
 6490 19a4 FB73     		strb	r3, [r7, #15]
 6491 19a6 01E0     		b	.L190
 6492              	.L189:
2646:../../source/src/FWlib/src/stm32f10x_tim.c ****   }
2647:../../source/src/FWlib/src/stm32f10x_tim.c ****   else
2648:../../source/src/FWlib/src/stm32f10x_tim.c ****   {
2649:../../source/src/FWlib/src/stm32f10x_tim.c ****     bitstatus = RESET;
 6493              		.loc 1 2649 0
 6494 19a8 0023     		movs	r3, #0
 6495 19aa FB73     		strb	r3, [r7, #15]
 6496              	.L190:
2650:../../source/src/FWlib/src/stm32f10x_tim.c ****   }
2651:../../source/src/FWlib/src/stm32f10x_tim.c ****   return bitstatus;
 6497              		.loc 1 2651 0
 6498 19ac FB7B     		ldrb	r3, [r7, #15]	@ zero_extendqisi2
2652:../../source/src/FWlib/src/stm32f10x_tim.c **** }
 6499              		.loc 1 2652 0
 6500 19ae 1846     		mov	r0, r3
 6501 19b0 1437     		adds	r7, r7, #20
 6502              	.LCFI506:
 6503              		.cfi_def_cfa_offset 4
 6504 19b2 BD46     		mov	sp, r7
 6505              	.LCFI507:
 6506              		.cfi_def_cfa_register 13
ARM GAS  G:\Users\Jaxb\AppData\Local\Temp\ccSQWSCJ.s 			page 163


 6507              		@ sp needed
 6508 19b4 80BC     		pop	{r7}
 6509              	.LCFI508:
 6510              		.cfi_restore 7
 6511              		.cfi_def_cfa_offset 0
 6512 19b6 7047     		bx	lr
 6513              		.cfi_endproc
 6514              	.LFE114:
 6515              		.size	TIM_GetITStatus, .-TIM_GetITStatus
 6516              		.align	1
 6517              		.global	TIM_ClearITPendingBit
 6518              		.syntax unified
 6519              		.thumb
 6520              		.thumb_func
 6521              		.fpu softvfp
 6522              		.type	TIM_ClearITPendingBit, %function
 6523              	TIM_ClearITPendingBit:
 6524              	.LFB115:
2653:../../source/src/FWlib/src/stm32f10x_tim.c **** 
2654:../../source/src/FWlib/src/stm32f10x_tim.c **** /**
2655:../../source/src/FWlib/src/stm32f10x_tim.c ****   * @brief  Clears the TIMx's interrupt pending bits.
2656:../../source/src/FWlib/src/stm32f10x_tim.c ****   * @param  TIMx: where x can be 1 to 17 to select the TIM peripheral.
2657:../../source/src/FWlib/src/stm32f10x_tim.c ****   * @param  TIM_IT: specifies the pending bit to clear.
2658:../../source/src/FWlib/src/stm32f10x_tim.c ****   *   This parameter can be any combination of the following values:
2659:../../source/src/FWlib/src/stm32f10x_tim.c ****   *     @arg TIM_IT_Update: TIM1 update Interrupt source
2660:../../source/src/FWlib/src/stm32f10x_tim.c ****   *     @arg TIM_IT_CC1: TIM Capture Compare 1 Interrupt source
2661:../../source/src/FWlib/src/stm32f10x_tim.c ****   *     @arg TIM_IT_CC2: TIM Capture Compare 2 Interrupt source
2662:../../source/src/FWlib/src/stm32f10x_tim.c ****   *     @arg TIM_IT_CC3: TIM Capture Compare 3 Interrupt source
2663:../../source/src/FWlib/src/stm32f10x_tim.c ****   *     @arg TIM_IT_CC4: TIM Capture Compare 4 Interrupt source
2664:../../source/src/FWlib/src/stm32f10x_tim.c ****   *     @arg TIM_IT_COM: TIM Commutation Interrupt source
2665:../../source/src/FWlib/src/stm32f10x_tim.c ****   *     @arg TIM_IT_Trigger: TIM Trigger Interrupt source
2666:../../source/src/FWlib/src/stm32f10x_tim.c ****   *     @arg TIM_IT_Break: TIM Break Interrupt source
2667:../../source/src/FWlib/src/stm32f10x_tim.c ****   * @note
2668:../../source/src/FWlib/src/stm32f10x_tim.c ****   *   - TIM6 and TIM7 can generate only an update interrupt.
2669:../../source/src/FWlib/src/stm32f10x_tim.c ****   *   - TIM9, TIM12 and TIM15 can have only TIM_IT_Update, TIM_IT_CC1,
2670:../../source/src/FWlib/src/stm32f10x_tim.c ****   *      TIM_IT_CC2 or TIM_IT_Trigger. 
2671:../../source/src/FWlib/src/stm32f10x_tim.c ****   *   - TIM10, TIM11, TIM13, TIM14, TIM16 and TIM17 can have TIM_IT_Update or TIM_IT_CC1.   
2672:../../source/src/FWlib/src/stm32f10x_tim.c ****   *   - TIM_IT_Break is used only with TIM1, TIM8 and TIM15. 
2673:../../source/src/FWlib/src/stm32f10x_tim.c ****   *   - TIM_IT_COM is used only with TIM1, TIM8, TIM15, TIM16 and TIM17.    
2674:../../source/src/FWlib/src/stm32f10x_tim.c ****   * @retval None
2675:../../source/src/FWlib/src/stm32f10x_tim.c ****   */
2676:../../source/src/FWlib/src/stm32f10x_tim.c **** void TIM_ClearITPendingBit(TIM_TypeDef* TIMx, uint16_t TIM_IT)
2677:../../source/src/FWlib/src/stm32f10x_tim.c **** {
 6525              		.loc 1 2677 0
 6526              		.cfi_startproc
 6527              		@ args = 0, pretend = 0, frame = 8
 6528              		@ frame_needed = 1, uses_anonymous_args = 0
 6529              		@ link register save eliminated.
 6530 19b8 80B4     		push	{r7}
 6531              	.LCFI509:
 6532              		.cfi_def_cfa_offset 4
 6533              		.cfi_offset 7, -4
 6534 19ba 83B0     		sub	sp, sp, #12
 6535              	.LCFI510:
 6536              		.cfi_def_cfa_offset 16
 6537 19bc 00AF     		add	r7, sp, #0
 6538              	.LCFI511:
ARM GAS  G:\Users\Jaxb\AppData\Local\Temp\ccSQWSCJ.s 			page 164


 6539              		.cfi_def_cfa_register 7
 6540 19be 7860     		str	r0, [r7, #4]
 6541 19c0 0B46     		mov	r3, r1
 6542 19c2 7B80     		strh	r3, [r7, #2]	@ movhi
2678:../../source/src/FWlib/src/stm32f10x_tim.c ****   /* Check the parameters */
2679:../../source/src/FWlib/src/stm32f10x_tim.c ****   assert_param(IS_TIM_ALL_PERIPH(TIMx));
2680:../../source/src/FWlib/src/stm32f10x_tim.c ****   assert_param(IS_TIM_IT(TIM_IT));
2681:../../source/src/FWlib/src/stm32f10x_tim.c ****   /* Clear the IT pending Bit */
2682:../../source/src/FWlib/src/stm32f10x_tim.c ****   TIMx->SR = (uint16_t)~TIM_IT;
 6543              		.loc 1 2682 0
 6544 19c4 7B88     		ldrh	r3, [r7, #2]	@ movhi
 6545 19c6 DB43     		mvns	r3, r3
 6546 19c8 9AB2     		uxth	r2, r3
 6547 19ca 7B68     		ldr	r3, [r7, #4]
 6548 19cc 1A82     		strh	r2, [r3, #16]	@ movhi
2683:../../source/src/FWlib/src/stm32f10x_tim.c **** }
 6549              		.loc 1 2683 0
 6550 19ce 00BF     		nop
 6551 19d0 0C37     		adds	r7, r7, #12
 6552              	.LCFI512:
 6553              		.cfi_def_cfa_offset 4
 6554 19d2 BD46     		mov	sp, r7
 6555              	.LCFI513:
 6556              		.cfi_def_cfa_register 13
 6557              		@ sp needed
 6558 19d4 80BC     		pop	{r7}
 6559              	.LCFI514:
 6560              		.cfi_restore 7
 6561              		.cfi_def_cfa_offset 0
 6562 19d6 7047     		bx	lr
 6563              		.cfi_endproc
 6564              	.LFE115:
 6565              		.size	TIM_ClearITPendingBit, .-TIM_ClearITPendingBit
 6566              		.align	1
 6567              		.syntax unified
 6568              		.thumb
 6569              		.thumb_func
 6570              		.fpu softvfp
 6571              		.type	TI1_Config, %function
 6572              	TI1_Config:
 6573              	.LFB116:
2684:../../source/src/FWlib/src/stm32f10x_tim.c **** 
2685:../../source/src/FWlib/src/stm32f10x_tim.c **** /**
2686:../../source/src/FWlib/src/stm32f10x_tim.c ****   * @brief  Configure the TI1 as Input.
2687:../../source/src/FWlib/src/stm32f10x_tim.c ****   * @param  TIMx: where x can be 1 to 17 except 6 and 7 to select the TIM peripheral.
2688:../../source/src/FWlib/src/stm32f10x_tim.c ****   * @param  TIM_ICPolarity : The Input Polarity.
2689:../../source/src/FWlib/src/stm32f10x_tim.c ****   *   This parameter can be one of the following values:
2690:../../source/src/FWlib/src/stm32f10x_tim.c ****   *     @arg TIM_ICPolarity_Rising
2691:../../source/src/FWlib/src/stm32f10x_tim.c ****   *     @arg TIM_ICPolarity_Falling
2692:../../source/src/FWlib/src/stm32f10x_tim.c ****   * @param  TIM_ICSelection: specifies the input to be used.
2693:../../source/src/FWlib/src/stm32f10x_tim.c ****   *   This parameter can be one of the following values:
2694:../../source/src/FWlib/src/stm32f10x_tim.c ****   *     @arg TIM_ICSelection_DirectTI: TIM Input 1 is selected to be connected to IC1.
2695:../../source/src/FWlib/src/stm32f10x_tim.c ****   *     @arg TIM_ICSelection_IndirectTI: TIM Input 1 is selected to be connected to IC2.
2696:../../source/src/FWlib/src/stm32f10x_tim.c ****   *     @arg TIM_ICSelection_TRC: TIM Input 1 is selected to be connected to TRC.
2697:../../source/src/FWlib/src/stm32f10x_tim.c ****   * @param  TIM_ICFilter: Specifies the Input Capture Filter.
2698:../../source/src/FWlib/src/stm32f10x_tim.c ****   *   This parameter must be a value between 0x00 and 0x0F.
2699:../../source/src/FWlib/src/stm32f10x_tim.c ****   * @retval None
ARM GAS  G:\Users\Jaxb\AppData\Local\Temp\ccSQWSCJ.s 			page 165


2700:../../source/src/FWlib/src/stm32f10x_tim.c ****   */
2701:../../source/src/FWlib/src/stm32f10x_tim.c **** static void TI1_Config(TIM_TypeDef* TIMx, uint16_t TIM_ICPolarity, uint16_t TIM_ICSelection,
2702:../../source/src/FWlib/src/stm32f10x_tim.c ****                        uint16_t TIM_ICFilter)
2703:../../source/src/FWlib/src/stm32f10x_tim.c **** {
 6574              		.loc 1 2703 0
 6575              		.cfi_startproc
 6576              		@ args = 0, pretend = 0, frame = 24
 6577              		@ frame_needed = 1, uses_anonymous_args = 0
 6578              		@ link register save eliminated.
 6579 19d8 80B4     		push	{r7}
 6580              	.LCFI515:
 6581              		.cfi_def_cfa_offset 4
 6582              		.cfi_offset 7, -4
 6583 19da 87B0     		sub	sp, sp, #28
 6584              	.LCFI516:
 6585              		.cfi_def_cfa_offset 32
 6586 19dc 00AF     		add	r7, sp, #0
 6587              	.LCFI517:
 6588              		.cfi_def_cfa_register 7
 6589 19de F860     		str	r0, [r7, #12]
 6590 19e0 0846     		mov	r0, r1
 6591 19e2 1146     		mov	r1, r2
 6592 19e4 1A46     		mov	r2, r3
 6593 19e6 0346     		mov	r3, r0	@ movhi
 6594 19e8 7B81     		strh	r3, [r7, #10]	@ movhi
 6595 19ea 0B46     		mov	r3, r1	@ movhi
 6596 19ec 3B81     		strh	r3, [r7, #8]	@ movhi
 6597 19ee 1346     		mov	r3, r2	@ movhi
 6598 19f0 FB80     		strh	r3, [r7, #6]	@ movhi
2704:../../source/src/FWlib/src/stm32f10x_tim.c ****   uint16_t tmpccmr1 = 0, tmpccer = 0;
 6599              		.loc 1 2704 0
 6600 19f2 0023     		movs	r3, #0
 6601 19f4 BB82     		strh	r3, [r7, #20]	@ movhi
 6602 19f6 0023     		movs	r3, #0
 6603 19f8 FB82     		strh	r3, [r7, #22]	@ movhi
2705:../../source/src/FWlib/src/stm32f10x_tim.c ****   /* Disable the Channel 1: Reset the CC1E Bit */
2706:../../source/src/FWlib/src/stm32f10x_tim.c ****   TIMx->CCER &= (uint16_t)~((uint16_t)TIM_CCER_CC1E);
 6604              		.loc 1 2706 0
 6605 19fa FB68     		ldr	r3, [r7, #12]
 6606 19fc 1B8C     		ldrh	r3, [r3, #32]	@ movhi
 6607 19fe 9BB2     		uxth	r3, r3
 6608 1a00 23F00103 		bic	r3, r3, #1
 6609 1a04 9AB2     		uxth	r2, r3
 6610 1a06 FB68     		ldr	r3, [r7, #12]
 6611 1a08 1A84     		strh	r2, [r3, #32]	@ movhi
2707:../../source/src/FWlib/src/stm32f10x_tim.c ****   tmpccmr1 = TIMx->CCMR1;
 6612              		.loc 1 2707 0
 6613 1a0a FB68     		ldr	r3, [r7, #12]
 6614 1a0c 1B8B     		ldrh	r3, [r3, #24]	@ movhi
 6615 1a0e BB82     		strh	r3, [r7, #20]	@ movhi
2708:../../source/src/FWlib/src/stm32f10x_tim.c ****   tmpccer = TIMx->CCER;
 6616              		.loc 1 2708 0
 6617 1a10 FB68     		ldr	r3, [r7, #12]
 6618 1a12 1B8C     		ldrh	r3, [r3, #32]	@ movhi
 6619 1a14 FB82     		strh	r3, [r7, #22]	@ movhi
2709:../../source/src/FWlib/src/stm32f10x_tim.c ****   /* Select the Input and set the filter */
2710:../../source/src/FWlib/src/stm32f10x_tim.c ****   tmpccmr1 &= (uint16_t)(((uint16_t)~((uint16_t)TIM_CCMR1_CC1S)) & ((uint16_t)~((uint16_t)TIM_CCMR1
ARM GAS  G:\Users\Jaxb\AppData\Local\Temp\ccSQWSCJ.s 			page 166


 6620              		.loc 1 2710 0
 6621 1a16 BB8A     		ldrh	r3, [r7, #20]	@ movhi
 6622 1a18 23F0F303 		bic	r3, r3, #243
 6623 1a1c BB82     		strh	r3, [r7, #20]	@ movhi
2711:../../source/src/FWlib/src/stm32f10x_tim.c ****   tmpccmr1 |= (uint16_t)(TIM_ICSelection | (uint16_t)(TIM_ICFilter << (uint16_t)4));
 6624              		.loc 1 2711 0
 6625 1a1e FB88     		ldrh	r3, [r7, #6]	@ movhi
 6626 1a20 1B01     		lsls	r3, r3, #4
 6627 1a22 9AB2     		uxth	r2, r3
 6628 1a24 3B89     		ldrh	r3, [r7, #8]	@ movhi
 6629 1a26 1343     		orrs	r3, r3, r2
 6630 1a28 9AB2     		uxth	r2, r3
 6631 1a2a BB8A     		ldrh	r3, [r7, #20]	@ movhi
 6632 1a2c 1343     		orrs	r3, r3, r2
 6633 1a2e BB82     		strh	r3, [r7, #20]	@ movhi
2712:../../source/src/FWlib/src/stm32f10x_tim.c ****   
2713:../../source/src/FWlib/src/stm32f10x_tim.c ****   if((TIMx == TIM1) || (TIMx == TIM8) || (TIMx == TIM2) || (TIMx == TIM3) ||
 6634              		.loc 1 2713 0
 6635 1a30 FB68     		ldr	r3, [r7, #12]
 6636 1a32 1C4A     		ldr	r2, .L197
 6637 1a34 9342     		cmp	r3, r2
 6638 1a36 13D0     		beq	.L194
 6639              		.loc 1 2713 0 is_stmt 0 discriminator 1
 6640 1a38 FB68     		ldr	r3, [r7, #12]
 6641 1a3a 1B4A     		ldr	r2, .L197+4
 6642 1a3c 9342     		cmp	r3, r2
 6643 1a3e 0FD0     		beq	.L194
 6644              		.loc 1 2713 0 discriminator 2
 6645 1a40 FB68     		ldr	r3, [r7, #12]
 6646 1a42 B3F1804F 		cmp	r3, #1073741824
 6647 1a46 0BD0     		beq	.L194
 6648              		.loc 1 2713 0 discriminator 3
 6649 1a48 FB68     		ldr	r3, [r7, #12]
 6650 1a4a 184A     		ldr	r2, .L197+8
 6651 1a4c 9342     		cmp	r3, r2
 6652 1a4e 07D0     		beq	.L194
 6653              		.loc 1 2713 0 discriminator 4
 6654 1a50 FB68     		ldr	r3, [r7, #12]
 6655 1a52 174A     		ldr	r2, .L197+12
 6656 1a54 9342     		cmp	r3, r2
 6657 1a56 03D0     		beq	.L194
2714:../../source/src/FWlib/src/stm32f10x_tim.c ****      (TIMx == TIM4) ||(TIMx == TIM5))
 6658              		.loc 1 2714 0 is_stmt 1
 6659 1a58 FB68     		ldr	r3, [r7, #12]
 6660 1a5a 164A     		ldr	r2, .L197+16
 6661 1a5c 9342     		cmp	r3, r2
 6662 1a5e 0BD1     		bne	.L195
 6663              	.L194:
2715:../../source/src/FWlib/src/stm32f10x_tim.c ****   {
2716:../../source/src/FWlib/src/stm32f10x_tim.c ****     /* Select the Polarity and set the CC1E Bit */
2717:../../source/src/FWlib/src/stm32f10x_tim.c ****     tmpccer &= (uint16_t)~((uint16_t)(TIM_CCER_CC1P));
 6664              		.loc 1 2717 0
 6665 1a60 FB8A     		ldrh	r3, [r7, #22]	@ movhi
 6666 1a62 23F00203 		bic	r3, r3, #2
 6667 1a66 FB82     		strh	r3, [r7, #22]	@ movhi
2718:../../source/src/FWlib/src/stm32f10x_tim.c ****     tmpccer |= (uint16_t)(TIM_ICPolarity | (uint16_t)TIM_CCER_CC1E);
 6668              		.loc 1 2718 0
ARM GAS  G:\Users\Jaxb\AppData\Local\Temp\ccSQWSCJ.s 			page 167


 6669 1a68 7A89     		ldrh	r2, [r7, #10]	@ movhi
 6670 1a6a FB8A     		ldrh	r3, [r7, #22]	@ movhi
 6671 1a6c 1343     		orrs	r3, r3, r2
 6672 1a6e 9BB2     		uxth	r3, r3
 6673 1a70 43F00103 		orr	r3, r3, #1
 6674 1a74 FB82     		strh	r3, [r7, #22]	@ movhi
 6675 1a76 0AE0     		b	.L196
 6676              	.L195:
2719:../../source/src/FWlib/src/stm32f10x_tim.c ****   }
2720:../../source/src/FWlib/src/stm32f10x_tim.c ****   else
2721:../../source/src/FWlib/src/stm32f10x_tim.c ****   {
2722:../../source/src/FWlib/src/stm32f10x_tim.c ****     /* Select the Polarity and set the CC1E Bit */
2723:../../source/src/FWlib/src/stm32f10x_tim.c ****     tmpccer &= (uint16_t)~((uint16_t)(TIM_CCER_CC1P | TIM_CCER_CC1NP));
 6677              		.loc 1 2723 0
 6678 1a78 FB8A     		ldrh	r3, [r7, #22]	@ movhi
 6679 1a7a 23F00A03 		bic	r3, r3, #10
 6680 1a7e FB82     		strh	r3, [r7, #22]	@ movhi
2724:../../source/src/FWlib/src/stm32f10x_tim.c ****     tmpccer |= (uint16_t)(TIM_ICPolarity | (uint16_t)TIM_CCER_CC1E);
 6681              		.loc 1 2724 0
 6682 1a80 7A89     		ldrh	r2, [r7, #10]	@ movhi
 6683 1a82 FB8A     		ldrh	r3, [r7, #22]	@ movhi
 6684 1a84 1343     		orrs	r3, r3, r2
 6685 1a86 9BB2     		uxth	r3, r3
 6686 1a88 43F00103 		orr	r3, r3, #1
 6687 1a8c FB82     		strh	r3, [r7, #22]	@ movhi
 6688              	.L196:
2725:../../source/src/FWlib/src/stm32f10x_tim.c ****   }
2726:../../source/src/FWlib/src/stm32f10x_tim.c **** 
2727:../../source/src/FWlib/src/stm32f10x_tim.c ****   /* Write to TIMx CCMR1 and CCER registers */
2728:../../source/src/FWlib/src/stm32f10x_tim.c ****   TIMx->CCMR1 = tmpccmr1;
 6689              		.loc 1 2728 0
 6690 1a8e FB68     		ldr	r3, [r7, #12]
 6691 1a90 BA8A     		ldrh	r2, [r7, #20]	@ movhi
 6692 1a92 1A83     		strh	r2, [r3, #24]	@ movhi
2729:../../source/src/FWlib/src/stm32f10x_tim.c ****   TIMx->CCER = tmpccer;
 6693              		.loc 1 2729 0
 6694 1a94 FB68     		ldr	r3, [r7, #12]
 6695 1a96 FA8A     		ldrh	r2, [r7, #22]	@ movhi
 6696 1a98 1A84     		strh	r2, [r3, #32]	@ movhi
2730:../../source/src/FWlib/src/stm32f10x_tim.c **** }
 6697              		.loc 1 2730 0
 6698 1a9a 00BF     		nop
 6699 1a9c 1C37     		adds	r7, r7, #28
 6700              	.LCFI518:
 6701              		.cfi_def_cfa_offset 4
 6702 1a9e BD46     		mov	sp, r7
 6703              	.LCFI519:
 6704              		.cfi_def_cfa_register 13
 6705              		@ sp needed
 6706 1aa0 80BC     		pop	{r7}
 6707              	.LCFI520:
 6708              		.cfi_restore 7
 6709              		.cfi_def_cfa_offset 0
 6710 1aa2 7047     		bx	lr
 6711              	.L198:
 6712              		.align	2
 6713              	.L197:
ARM GAS  G:\Users\Jaxb\AppData\Local\Temp\ccSQWSCJ.s 			page 168


 6714 1aa4 002C0140 		.word	1073818624
 6715 1aa8 00340140 		.word	1073820672
 6716 1aac 00040040 		.word	1073742848
 6717 1ab0 00080040 		.word	1073743872
 6718 1ab4 000C0040 		.word	1073744896
 6719              		.cfi_endproc
 6720              	.LFE116:
 6721              		.size	TI1_Config, .-TI1_Config
 6722              		.align	1
 6723              		.syntax unified
 6724              		.thumb
 6725              		.thumb_func
 6726              		.fpu softvfp
 6727              		.type	TI2_Config, %function
 6728              	TI2_Config:
 6729              	.LFB117:
2731:../../source/src/FWlib/src/stm32f10x_tim.c **** 
2732:../../source/src/FWlib/src/stm32f10x_tim.c **** /**
2733:../../source/src/FWlib/src/stm32f10x_tim.c ****   * @brief  Configure the TI2 as Input.
2734:../../source/src/FWlib/src/stm32f10x_tim.c ****   * @param  TIMx: where x can be 1, 2, 3, 4, 5, 8, 9, 12 or 15 to select the TIM peripheral.
2735:../../source/src/FWlib/src/stm32f10x_tim.c ****   * @param  TIM_ICPolarity : The Input Polarity.
2736:../../source/src/FWlib/src/stm32f10x_tim.c ****   *   This parameter can be one of the following values:
2737:../../source/src/FWlib/src/stm32f10x_tim.c ****   *     @arg TIM_ICPolarity_Rising
2738:../../source/src/FWlib/src/stm32f10x_tim.c ****   *     @arg TIM_ICPolarity_Falling
2739:../../source/src/FWlib/src/stm32f10x_tim.c ****   * @param  TIM_ICSelection: specifies the input to be used.
2740:../../source/src/FWlib/src/stm32f10x_tim.c ****   *   This parameter can be one of the following values:
2741:../../source/src/FWlib/src/stm32f10x_tim.c ****   *     @arg TIM_ICSelection_DirectTI: TIM Input 2 is selected to be connected to IC2.
2742:../../source/src/FWlib/src/stm32f10x_tim.c ****   *     @arg TIM_ICSelection_IndirectTI: TIM Input 2 is selected to be connected to IC1.
2743:../../source/src/FWlib/src/stm32f10x_tim.c ****   *     @arg TIM_ICSelection_TRC: TIM Input 2 is selected to be connected to TRC.
2744:../../source/src/FWlib/src/stm32f10x_tim.c ****   * @param  TIM_ICFilter: Specifies the Input Capture Filter.
2745:../../source/src/FWlib/src/stm32f10x_tim.c ****   *   This parameter must be a value between 0x00 and 0x0F.
2746:../../source/src/FWlib/src/stm32f10x_tim.c ****   * @retval None
2747:../../source/src/FWlib/src/stm32f10x_tim.c ****   */
2748:../../source/src/FWlib/src/stm32f10x_tim.c **** static void TI2_Config(TIM_TypeDef* TIMx, uint16_t TIM_ICPolarity, uint16_t TIM_ICSelection,
2749:../../source/src/FWlib/src/stm32f10x_tim.c ****                        uint16_t TIM_ICFilter)
2750:../../source/src/FWlib/src/stm32f10x_tim.c **** {
 6730              		.loc 1 2750 0
 6731              		.cfi_startproc
 6732              		@ args = 0, pretend = 0, frame = 24
 6733              		@ frame_needed = 1, uses_anonymous_args = 0
 6734              		@ link register save eliminated.
 6735 1ab8 80B4     		push	{r7}
 6736              	.LCFI521:
 6737              		.cfi_def_cfa_offset 4
 6738              		.cfi_offset 7, -4
 6739 1aba 87B0     		sub	sp, sp, #28
 6740              	.LCFI522:
 6741              		.cfi_def_cfa_offset 32
 6742 1abc 00AF     		add	r7, sp, #0
 6743              	.LCFI523:
 6744              		.cfi_def_cfa_register 7
 6745 1abe F860     		str	r0, [r7, #12]
 6746 1ac0 0846     		mov	r0, r1
 6747 1ac2 1146     		mov	r1, r2
 6748 1ac4 1A46     		mov	r2, r3
 6749 1ac6 0346     		mov	r3, r0	@ movhi
 6750 1ac8 7B81     		strh	r3, [r7, #10]	@ movhi
ARM GAS  G:\Users\Jaxb\AppData\Local\Temp\ccSQWSCJ.s 			page 169


 6751 1aca 0B46     		mov	r3, r1	@ movhi
 6752 1acc 3B81     		strh	r3, [r7, #8]	@ movhi
 6753 1ace 1346     		mov	r3, r2	@ movhi
 6754 1ad0 FB80     		strh	r3, [r7, #6]	@ movhi
2751:../../source/src/FWlib/src/stm32f10x_tim.c ****   uint16_t tmpccmr1 = 0, tmpccer = 0, tmp = 0;
 6755              		.loc 1 2751 0
 6756 1ad2 0023     		movs	r3, #0
 6757 1ad4 BB82     		strh	r3, [r7, #20]	@ movhi
 6758 1ad6 0023     		movs	r3, #0
 6759 1ad8 FB82     		strh	r3, [r7, #22]	@ movhi
 6760 1ada 0023     		movs	r3, #0
 6761 1adc 7B82     		strh	r3, [r7, #18]	@ movhi
2752:../../source/src/FWlib/src/stm32f10x_tim.c ****   /* Disable the Channel 2: Reset the CC2E Bit */
2753:../../source/src/FWlib/src/stm32f10x_tim.c ****   TIMx->CCER &= (uint16_t)~((uint16_t)TIM_CCER_CC2E);
 6762              		.loc 1 2753 0
 6763 1ade FB68     		ldr	r3, [r7, #12]
 6764 1ae0 1B8C     		ldrh	r3, [r3, #32]	@ movhi
 6765 1ae2 9BB2     		uxth	r3, r3
 6766 1ae4 23F01003 		bic	r3, r3, #16
 6767 1ae8 9AB2     		uxth	r2, r3
 6768 1aea FB68     		ldr	r3, [r7, #12]
 6769 1aec 1A84     		strh	r2, [r3, #32]	@ movhi
2754:../../source/src/FWlib/src/stm32f10x_tim.c ****   tmpccmr1 = TIMx->CCMR1;
 6770              		.loc 1 2754 0
 6771 1aee FB68     		ldr	r3, [r7, #12]
 6772 1af0 1B8B     		ldrh	r3, [r3, #24]	@ movhi
 6773 1af2 BB82     		strh	r3, [r7, #20]	@ movhi
2755:../../source/src/FWlib/src/stm32f10x_tim.c ****   tmpccer = TIMx->CCER;
 6774              		.loc 1 2755 0
 6775 1af4 FB68     		ldr	r3, [r7, #12]
 6776 1af6 1B8C     		ldrh	r3, [r3, #32]	@ movhi
 6777 1af8 FB82     		strh	r3, [r7, #22]	@ movhi
2756:../../source/src/FWlib/src/stm32f10x_tim.c ****   tmp = (uint16_t)(TIM_ICPolarity << 4);
 6778              		.loc 1 2756 0
 6779 1afa 7B89     		ldrh	r3, [r7, #10]	@ movhi
 6780 1afc 1B01     		lsls	r3, r3, #4
 6781 1afe 7B82     		strh	r3, [r7, #18]	@ movhi
2757:../../source/src/FWlib/src/stm32f10x_tim.c ****   /* Select the Input and set the filter */
2758:../../source/src/FWlib/src/stm32f10x_tim.c ****   tmpccmr1 &= (uint16_t)(((uint16_t)~((uint16_t)TIM_CCMR1_CC2S)) & ((uint16_t)~((uint16_t)TIM_CCMR1
 6782              		.loc 1 2758 0
 6783 1b00 BB8A     		ldrh	r3, [r7, #20]	@ movhi
 6784 1b02 23F44073 		bic	r3, r3, #768
 6785 1b06 1B05     		lsls	r3, r3, #20
 6786 1b08 1B0D     		lsrs	r3, r3, #20
 6787 1b0a BB82     		strh	r3, [r7, #20]	@ movhi
2759:../../source/src/FWlib/src/stm32f10x_tim.c ****   tmpccmr1 |= (uint16_t)(TIM_ICFilter << 12);
 6788              		.loc 1 2759 0
 6789 1b0c FB88     		ldrh	r3, [r7, #6]	@ movhi
 6790 1b0e 1B03     		lsls	r3, r3, #12
 6791 1b10 9AB2     		uxth	r2, r3
 6792 1b12 BB8A     		ldrh	r3, [r7, #20]	@ movhi
 6793 1b14 1343     		orrs	r3, r3, r2
 6794 1b16 BB82     		strh	r3, [r7, #20]	@ movhi
2760:../../source/src/FWlib/src/stm32f10x_tim.c ****   tmpccmr1 |= (uint16_t)(TIM_ICSelection << 8);
 6795              		.loc 1 2760 0
 6796 1b18 3B89     		ldrh	r3, [r7, #8]	@ movhi
 6797 1b1a 1B02     		lsls	r3, r3, #8
ARM GAS  G:\Users\Jaxb\AppData\Local\Temp\ccSQWSCJ.s 			page 170


 6798 1b1c 9AB2     		uxth	r2, r3
 6799 1b1e BB8A     		ldrh	r3, [r7, #20]	@ movhi
 6800 1b20 1343     		orrs	r3, r3, r2
 6801 1b22 BB82     		strh	r3, [r7, #20]	@ movhi
2761:../../source/src/FWlib/src/stm32f10x_tim.c ****   
2762:../../source/src/FWlib/src/stm32f10x_tim.c ****   if((TIMx == TIM1) || (TIMx == TIM8) || (TIMx == TIM2) || (TIMx == TIM3) ||
 6802              		.loc 1 2762 0
 6803 1b24 FB68     		ldr	r3, [r7, #12]
 6804 1b26 1C4A     		ldr	r2, .L203
 6805 1b28 9342     		cmp	r3, r2
 6806 1b2a 13D0     		beq	.L200
 6807              		.loc 1 2762 0 is_stmt 0 discriminator 1
 6808 1b2c FB68     		ldr	r3, [r7, #12]
 6809 1b2e 1B4A     		ldr	r2, .L203+4
 6810 1b30 9342     		cmp	r3, r2
 6811 1b32 0FD0     		beq	.L200
 6812              		.loc 1 2762 0 discriminator 2
 6813 1b34 FB68     		ldr	r3, [r7, #12]
 6814 1b36 B3F1804F 		cmp	r3, #1073741824
 6815 1b3a 0BD0     		beq	.L200
 6816              		.loc 1 2762 0 discriminator 3
 6817 1b3c FB68     		ldr	r3, [r7, #12]
 6818 1b3e 184A     		ldr	r2, .L203+8
 6819 1b40 9342     		cmp	r3, r2
 6820 1b42 07D0     		beq	.L200
 6821              		.loc 1 2762 0 discriminator 4
 6822 1b44 FB68     		ldr	r3, [r7, #12]
 6823 1b46 174A     		ldr	r2, .L203+12
 6824 1b48 9342     		cmp	r3, r2
 6825 1b4a 03D0     		beq	.L200
2763:../../source/src/FWlib/src/stm32f10x_tim.c ****      (TIMx == TIM4) ||(TIMx == TIM5))
 6826              		.loc 1 2763 0 is_stmt 1
 6827 1b4c FB68     		ldr	r3, [r7, #12]
 6828 1b4e 164A     		ldr	r2, .L203+16
 6829 1b50 9342     		cmp	r3, r2
 6830 1b52 0BD1     		bne	.L201
 6831              	.L200:
2764:../../source/src/FWlib/src/stm32f10x_tim.c ****   {
2765:../../source/src/FWlib/src/stm32f10x_tim.c ****     /* Select the Polarity and set the CC2E Bit */
2766:../../source/src/FWlib/src/stm32f10x_tim.c ****     tmpccer &= (uint16_t)~((uint16_t)(TIM_CCER_CC2P));
 6832              		.loc 1 2766 0
 6833 1b54 FB8A     		ldrh	r3, [r7, #22]	@ movhi
 6834 1b56 23F02003 		bic	r3, r3, #32
 6835 1b5a FB82     		strh	r3, [r7, #22]	@ movhi
2767:../../source/src/FWlib/src/stm32f10x_tim.c ****     tmpccer |=  (uint16_t)(tmp | (uint16_t)TIM_CCER_CC2E);
 6836              		.loc 1 2767 0
 6837 1b5c 7A8A     		ldrh	r2, [r7, #18]	@ movhi
 6838 1b5e FB8A     		ldrh	r3, [r7, #22]	@ movhi
 6839 1b60 1343     		orrs	r3, r3, r2
 6840 1b62 9BB2     		uxth	r3, r3
 6841 1b64 43F01003 		orr	r3, r3, #16
 6842 1b68 FB82     		strh	r3, [r7, #22]	@ movhi
 6843 1b6a 0AE0     		b	.L202
 6844              	.L201:
2768:../../source/src/FWlib/src/stm32f10x_tim.c ****   }
2769:../../source/src/FWlib/src/stm32f10x_tim.c ****   else
2770:../../source/src/FWlib/src/stm32f10x_tim.c ****   {
ARM GAS  G:\Users\Jaxb\AppData\Local\Temp\ccSQWSCJ.s 			page 171


2771:../../source/src/FWlib/src/stm32f10x_tim.c ****     /* Select the Polarity and set the CC2E Bit */
2772:../../source/src/FWlib/src/stm32f10x_tim.c ****     tmpccer &= (uint16_t)~((uint16_t)(TIM_CCER_CC2P | TIM_CCER_CC2NP));
 6845              		.loc 1 2772 0
 6846 1b6c FB8A     		ldrh	r3, [r7, #22]	@ movhi
 6847 1b6e 23F0A003 		bic	r3, r3, #160
 6848 1b72 FB82     		strh	r3, [r7, #22]	@ movhi
2773:../../source/src/FWlib/src/stm32f10x_tim.c ****     tmpccer |= (uint16_t)(TIM_ICPolarity | (uint16_t)TIM_CCER_CC2E);
 6849              		.loc 1 2773 0
 6850 1b74 7A89     		ldrh	r2, [r7, #10]	@ movhi
 6851 1b76 FB8A     		ldrh	r3, [r7, #22]	@ movhi
 6852 1b78 1343     		orrs	r3, r3, r2
 6853 1b7a 9BB2     		uxth	r3, r3
 6854 1b7c 43F01003 		orr	r3, r3, #16
 6855 1b80 FB82     		strh	r3, [r7, #22]	@ movhi
 6856              	.L202:
2774:../../source/src/FWlib/src/stm32f10x_tim.c ****   }
2775:../../source/src/FWlib/src/stm32f10x_tim.c ****   
2776:../../source/src/FWlib/src/stm32f10x_tim.c ****   /* Write to TIMx CCMR1 and CCER registers */
2777:../../source/src/FWlib/src/stm32f10x_tim.c ****   TIMx->CCMR1 = tmpccmr1 ;
 6857              		.loc 1 2777 0
 6858 1b82 FB68     		ldr	r3, [r7, #12]
 6859 1b84 BA8A     		ldrh	r2, [r7, #20]	@ movhi
 6860 1b86 1A83     		strh	r2, [r3, #24]	@ movhi
2778:../../source/src/FWlib/src/stm32f10x_tim.c ****   TIMx->CCER = tmpccer;
 6861              		.loc 1 2778 0
 6862 1b88 FB68     		ldr	r3, [r7, #12]
 6863 1b8a FA8A     		ldrh	r2, [r7, #22]	@ movhi
 6864 1b8c 1A84     		strh	r2, [r3, #32]	@ movhi
2779:../../source/src/FWlib/src/stm32f10x_tim.c **** }
 6865              		.loc 1 2779 0
 6866 1b8e 00BF     		nop
 6867 1b90 1C37     		adds	r7, r7, #28
 6868              	.LCFI524:
 6869              		.cfi_def_cfa_offset 4
 6870 1b92 BD46     		mov	sp, r7
 6871              	.LCFI525:
 6872              		.cfi_def_cfa_register 13
 6873              		@ sp needed
 6874 1b94 80BC     		pop	{r7}
 6875              	.LCFI526:
 6876              		.cfi_restore 7
 6877              		.cfi_def_cfa_offset 0
 6878 1b96 7047     		bx	lr
 6879              	.L204:
 6880              		.align	2
 6881              	.L203:
 6882 1b98 002C0140 		.word	1073818624
 6883 1b9c 00340140 		.word	1073820672
 6884 1ba0 00040040 		.word	1073742848
 6885 1ba4 00080040 		.word	1073743872
 6886 1ba8 000C0040 		.word	1073744896
 6887              		.cfi_endproc
 6888              	.LFE117:
 6889              		.size	TI2_Config, .-TI2_Config
 6890              		.align	1
 6891              		.syntax unified
 6892              		.thumb
ARM GAS  G:\Users\Jaxb\AppData\Local\Temp\ccSQWSCJ.s 			page 172


 6893              		.thumb_func
 6894              		.fpu softvfp
 6895              		.type	TI3_Config, %function
 6896              	TI3_Config:
 6897              	.LFB118:
2780:../../source/src/FWlib/src/stm32f10x_tim.c **** 
2781:../../source/src/FWlib/src/stm32f10x_tim.c **** /**
2782:../../source/src/FWlib/src/stm32f10x_tim.c ****   * @brief  Configure the TI3 as Input.
2783:../../source/src/FWlib/src/stm32f10x_tim.c ****   * @param  TIMx: where x can be 1, 2, 3, 4, 5 or 8 to select the TIM peripheral.
2784:../../source/src/FWlib/src/stm32f10x_tim.c ****   * @param  TIM_ICPolarity : The Input Polarity.
2785:../../source/src/FWlib/src/stm32f10x_tim.c ****   *   This parameter can be one of the following values:
2786:../../source/src/FWlib/src/stm32f10x_tim.c ****   *     @arg TIM_ICPolarity_Rising
2787:../../source/src/FWlib/src/stm32f10x_tim.c ****   *     @arg TIM_ICPolarity_Falling
2788:../../source/src/FWlib/src/stm32f10x_tim.c ****   * @param  TIM_ICSelection: specifies the input to be used.
2789:../../source/src/FWlib/src/stm32f10x_tim.c ****   *   This parameter can be one of the following values:
2790:../../source/src/FWlib/src/stm32f10x_tim.c ****   *     @arg TIM_ICSelection_DirectTI: TIM Input 3 is selected to be connected to IC3.
2791:../../source/src/FWlib/src/stm32f10x_tim.c ****   *     @arg TIM_ICSelection_IndirectTI: TIM Input 3 is selected to be connected to IC4.
2792:../../source/src/FWlib/src/stm32f10x_tim.c ****   *     @arg TIM_ICSelection_TRC: TIM Input 3 is selected to be connected to TRC.
2793:../../source/src/FWlib/src/stm32f10x_tim.c ****   * @param  TIM_ICFilter: Specifies the Input Capture Filter.
2794:../../source/src/FWlib/src/stm32f10x_tim.c ****   *   This parameter must be a value between 0x00 and 0x0F.
2795:../../source/src/FWlib/src/stm32f10x_tim.c ****   * @retval None
2796:../../source/src/FWlib/src/stm32f10x_tim.c ****   */
2797:../../source/src/FWlib/src/stm32f10x_tim.c **** static void TI3_Config(TIM_TypeDef* TIMx, uint16_t TIM_ICPolarity, uint16_t TIM_ICSelection,
2798:../../source/src/FWlib/src/stm32f10x_tim.c ****                        uint16_t TIM_ICFilter)
2799:../../source/src/FWlib/src/stm32f10x_tim.c **** {
 6898              		.loc 1 2799 0
 6899              		.cfi_startproc
 6900              		@ args = 0, pretend = 0, frame = 24
 6901              		@ frame_needed = 1, uses_anonymous_args = 0
 6902              		@ link register save eliminated.
 6903 1bac 80B4     		push	{r7}
 6904              	.LCFI527:
 6905              		.cfi_def_cfa_offset 4
 6906              		.cfi_offset 7, -4
 6907 1bae 87B0     		sub	sp, sp, #28
 6908              	.LCFI528:
 6909              		.cfi_def_cfa_offset 32
 6910 1bb0 00AF     		add	r7, sp, #0
 6911              	.LCFI529:
 6912              		.cfi_def_cfa_register 7
 6913 1bb2 F860     		str	r0, [r7, #12]
 6914 1bb4 0846     		mov	r0, r1
 6915 1bb6 1146     		mov	r1, r2
 6916 1bb8 1A46     		mov	r2, r3
 6917 1bba 0346     		mov	r3, r0	@ movhi
 6918 1bbc 7B81     		strh	r3, [r7, #10]	@ movhi
 6919 1bbe 0B46     		mov	r3, r1	@ movhi
 6920 1bc0 3B81     		strh	r3, [r7, #8]	@ movhi
 6921 1bc2 1346     		mov	r3, r2	@ movhi
 6922 1bc4 FB80     		strh	r3, [r7, #6]	@ movhi
2800:../../source/src/FWlib/src/stm32f10x_tim.c ****   uint16_t tmpccmr2 = 0, tmpccer = 0, tmp = 0;
 6923              		.loc 1 2800 0
 6924 1bc6 0023     		movs	r3, #0
 6925 1bc8 BB82     		strh	r3, [r7, #20]	@ movhi
 6926 1bca 0023     		movs	r3, #0
 6927 1bcc FB82     		strh	r3, [r7, #22]	@ movhi
 6928 1bce 0023     		movs	r3, #0
ARM GAS  G:\Users\Jaxb\AppData\Local\Temp\ccSQWSCJ.s 			page 173


 6929 1bd0 7B82     		strh	r3, [r7, #18]	@ movhi
2801:../../source/src/FWlib/src/stm32f10x_tim.c ****   /* Disable the Channel 3: Reset the CC3E Bit */
2802:../../source/src/FWlib/src/stm32f10x_tim.c ****   TIMx->CCER &= (uint16_t)~((uint16_t)TIM_CCER_CC3E);
 6930              		.loc 1 2802 0
 6931 1bd2 FB68     		ldr	r3, [r7, #12]
 6932 1bd4 1B8C     		ldrh	r3, [r3, #32]	@ movhi
 6933 1bd6 9BB2     		uxth	r3, r3
 6934 1bd8 23F48073 		bic	r3, r3, #256
 6935 1bdc 9AB2     		uxth	r2, r3
 6936 1bde FB68     		ldr	r3, [r7, #12]
 6937 1be0 1A84     		strh	r2, [r3, #32]	@ movhi
2803:../../source/src/FWlib/src/stm32f10x_tim.c ****   tmpccmr2 = TIMx->CCMR2;
 6938              		.loc 1 2803 0
 6939 1be2 FB68     		ldr	r3, [r7, #12]
 6940 1be4 9B8B     		ldrh	r3, [r3, #28]	@ movhi
 6941 1be6 BB82     		strh	r3, [r7, #20]	@ movhi
2804:../../source/src/FWlib/src/stm32f10x_tim.c ****   tmpccer = TIMx->CCER;
 6942              		.loc 1 2804 0
 6943 1be8 FB68     		ldr	r3, [r7, #12]
 6944 1bea 1B8C     		ldrh	r3, [r3, #32]	@ movhi
 6945 1bec FB82     		strh	r3, [r7, #22]	@ movhi
2805:../../source/src/FWlib/src/stm32f10x_tim.c ****   tmp = (uint16_t)(TIM_ICPolarity << 8);
 6946              		.loc 1 2805 0
 6947 1bee 7B89     		ldrh	r3, [r7, #10]	@ movhi
 6948 1bf0 1B02     		lsls	r3, r3, #8
 6949 1bf2 7B82     		strh	r3, [r7, #18]	@ movhi
2806:../../source/src/FWlib/src/stm32f10x_tim.c ****   /* Select the Input and set the filter */
2807:../../source/src/FWlib/src/stm32f10x_tim.c ****   tmpccmr2 &= (uint16_t)(((uint16_t)~((uint16_t)TIM_CCMR2_CC3S)) & ((uint16_t)~((uint16_t)TIM_CCMR2
 6950              		.loc 1 2807 0
 6951 1bf4 BB8A     		ldrh	r3, [r7, #20]	@ movhi
 6952 1bf6 23F0F303 		bic	r3, r3, #243
 6953 1bfa BB82     		strh	r3, [r7, #20]	@ movhi
2808:../../source/src/FWlib/src/stm32f10x_tim.c ****   tmpccmr2 |= (uint16_t)(TIM_ICSelection | (uint16_t)(TIM_ICFilter << (uint16_t)4));
 6954              		.loc 1 2808 0
 6955 1bfc FB88     		ldrh	r3, [r7, #6]	@ movhi
 6956 1bfe 1B01     		lsls	r3, r3, #4
 6957 1c00 9AB2     		uxth	r2, r3
 6958 1c02 3B89     		ldrh	r3, [r7, #8]	@ movhi
 6959 1c04 1343     		orrs	r3, r3, r2
 6960 1c06 9AB2     		uxth	r2, r3
 6961 1c08 BB8A     		ldrh	r3, [r7, #20]	@ movhi
 6962 1c0a 1343     		orrs	r3, r3, r2
 6963 1c0c BB82     		strh	r3, [r7, #20]	@ movhi
2809:../../source/src/FWlib/src/stm32f10x_tim.c ****     
2810:../../source/src/FWlib/src/stm32f10x_tim.c ****   if((TIMx == TIM1) || (TIMx == TIM8) || (TIMx == TIM2) || (TIMx == TIM3) ||
 6964              		.loc 1 2810 0
 6965 1c0e FB68     		ldr	r3, [r7, #12]
 6966 1c10 1C4A     		ldr	r2, .L209
 6967 1c12 9342     		cmp	r3, r2
 6968 1c14 13D0     		beq	.L206
 6969              		.loc 1 2810 0 is_stmt 0 discriminator 1
 6970 1c16 FB68     		ldr	r3, [r7, #12]
 6971 1c18 1B4A     		ldr	r2, .L209+4
 6972 1c1a 9342     		cmp	r3, r2
 6973 1c1c 0FD0     		beq	.L206
 6974              		.loc 1 2810 0 discriminator 2
 6975 1c1e FB68     		ldr	r3, [r7, #12]
ARM GAS  G:\Users\Jaxb\AppData\Local\Temp\ccSQWSCJ.s 			page 174


 6976 1c20 B3F1804F 		cmp	r3, #1073741824
 6977 1c24 0BD0     		beq	.L206
 6978              		.loc 1 2810 0 discriminator 3
 6979 1c26 FB68     		ldr	r3, [r7, #12]
 6980 1c28 184A     		ldr	r2, .L209+8
 6981 1c2a 9342     		cmp	r3, r2
 6982 1c2c 07D0     		beq	.L206
 6983              		.loc 1 2810 0 discriminator 4
 6984 1c2e FB68     		ldr	r3, [r7, #12]
 6985 1c30 174A     		ldr	r2, .L209+12
 6986 1c32 9342     		cmp	r3, r2
 6987 1c34 03D0     		beq	.L206
2811:../../source/src/FWlib/src/stm32f10x_tim.c ****      (TIMx == TIM4) ||(TIMx == TIM5))
 6988              		.loc 1 2811 0 is_stmt 1
 6989 1c36 FB68     		ldr	r3, [r7, #12]
 6990 1c38 164A     		ldr	r2, .L209+16
 6991 1c3a 9342     		cmp	r3, r2
 6992 1c3c 0BD1     		bne	.L207
 6993              	.L206:
2812:../../source/src/FWlib/src/stm32f10x_tim.c ****   {
2813:../../source/src/FWlib/src/stm32f10x_tim.c ****     /* Select the Polarity and set the CC3E Bit */
2814:../../source/src/FWlib/src/stm32f10x_tim.c ****     tmpccer &= (uint16_t)~((uint16_t)(TIM_CCER_CC3P));
 6994              		.loc 1 2814 0
 6995 1c3e FB8A     		ldrh	r3, [r7, #22]	@ movhi
 6996 1c40 23F40073 		bic	r3, r3, #512
 6997 1c44 FB82     		strh	r3, [r7, #22]	@ movhi
2815:../../source/src/FWlib/src/stm32f10x_tim.c ****     tmpccer |= (uint16_t)(tmp | (uint16_t)TIM_CCER_CC3E);
 6998              		.loc 1 2815 0
 6999 1c46 7A8A     		ldrh	r2, [r7, #18]	@ movhi
 7000 1c48 FB8A     		ldrh	r3, [r7, #22]	@ movhi
 7001 1c4a 1343     		orrs	r3, r3, r2
 7002 1c4c 9BB2     		uxth	r3, r3
 7003 1c4e 43F48073 		orr	r3, r3, #256
 7004 1c52 FB82     		strh	r3, [r7, #22]	@ movhi
 7005 1c54 0AE0     		b	.L208
 7006              	.L207:
2816:../../source/src/FWlib/src/stm32f10x_tim.c ****   }
2817:../../source/src/FWlib/src/stm32f10x_tim.c ****   else
2818:../../source/src/FWlib/src/stm32f10x_tim.c ****   {
2819:../../source/src/FWlib/src/stm32f10x_tim.c ****     /* Select the Polarity and set the CC3E Bit */
2820:../../source/src/FWlib/src/stm32f10x_tim.c ****     tmpccer &= (uint16_t)~((uint16_t)(TIM_CCER_CC3P | TIM_CCER_CC3NP));
 7007              		.loc 1 2820 0
 7008 1c56 FB8A     		ldrh	r3, [r7, #22]	@ movhi
 7009 1c58 23F42063 		bic	r3, r3, #2560
 7010 1c5c FB82     		strh	r3, [r7, #22]	@ movhi
2821:../../source/src/FWlib/src/stm32f10x_tim.c ****     tmpccer |= (uint16_t)(TIM_ICPolarity | (uint16_t)TIM_CCER_CC3E);
 7011              		.loc 1 2821 0
 7012 1c5e 7A89     		ldrh	r2, [r7, #10]	@ movhi
 7013 1c60 FB8A     		ldrh	r3, [r7, #22]	@ movhi
 7014 1c62 1343     		orrs	r3, r3, r2
 7015 1c64 9BB2     		uxth	r3, r3
 7016 1c66 43F48073 		orr	r3, r3, #256
 7017 1c6a FB82     		strh	r3, [r7, #22]	@ movhi
 7018              	.L208:
2822:../../source/src/FWlib/src/stm32f10x_tim.c ****   }
2823:../../source/src/FWlib/src/stm32f10x_tim.c ****   
2824:../../source/src/FWlib/src/stm32f10x_tim.c ****   /* Write to TIMx CCMR2 and CCER registers */
ARM GAS  G:\Users\Jaxb\AppData\Local\Temp\ccSQWSCJ.s 			page 175


2825:../../source/src/FWlib/src/stm32f10x_tim.c ****   TIMx->CCMR2 = tmpccmr2;
 7019              		.loc 1 2825 0
 7020 1c6c FB68     		ldr	r3, [r7, #12]
 7021 1c6e BA8A     		ldrh	r2, [r7, #20]	@ movhi
 7022 1c70 9A83     		strh	r2, [r3, #28]	@ movhi
2826:../../source/src/FWlib/src/stm32f10x_tim.c ****   TIMx->CCER = tmpccer;
 7023              		.loc 1 2826 0
 7024 1c72 FB68     		ldr	r3, [r7, #12]
 7025 1c74 FA8A     		ldrh	r2, [r7, #22]	@ movhi
 7026 1c76 1A84     		strh	r2, [r3, #32]	@ movhi
2827:../../source/src/FWlib/src/stm32f10x_tim.c **** }
 7027              		.loc 1 2827 0
 7028 1c78 00BF     		nop
 7029 1c7a 1C37     		adds	r7, r7, #28
 7030              	.LCFI530:
 7031              		.cfi_def_cfa_offset 4
 7032 1c7c BD46     		mov	sp, r7
 7033              	.LCFI531:
 7034              		.cfi_def_cfa_register 13
 7035              		@ sp needed
 7036 1c7e 80BC     		pop	{r7}
 7037              	.LCFI532:
 7038              		.cfi_restore 7
 7039              		.cfi_def_cfa_offset 0
 7040 1c80 7047     		bx	lr
 7041              	.L210:
 7042 1c82 00BF     		.align	2
 7043              	.L209:
 7044 1c84 002C0140 		.word	1073818624
 7045 1c88 00340140 		.word	1073820672
 7046 1c8c 00040040 		.word	1073742848
 7047 1c90 00080040 		.word	1073743872
 7048 1c94 000C0040 		.word	1073744896
 7049              		.cfi_endproc
 7050              	.LFE118:
 7051              		.size	TI3_Config, .-TI3_Config
 7052              		.align	1
 7053              		.syntax unified
 7054              		.thumb
 7055              		.thumb_func
 7056              		.fpu softvfp
 7057              		.type	TI4_Config, %function
 7058              	TI4_Config:
 7059              	.LFB119:
2828:../../source/src/FWlib/src/stm32f10x_tim.c **** 
2829:../../source/src/FWlib/src/stm32f10x_tim.c **** /**
2830:../../source/src/FWlib/src/stm32f10x_tim.c ****   * @brief  Configure the TI4 as Input.
2831:../../source/src/FWlib/src/stm32f10x_tim.c ****   * @param  TIMx: where x can be 1, 2, 3, 4, 5 or 8 to select the TIM peripheral.
2832:../../source/src/FWlib/src/stm32f10x_tim.c ****   * @param  TIM_ICPolarity : The Input Polarity.
2833:../../source/src/FWlib/src/stm32f10x_tim.c ****   *   This parameter can be one of the following values:
2834:../../source/src/FWlib/src/stm32f10x_tim.c ****   *     @arg TIM_ICPolarity_Rising
2835:../../source/src/FWlib/src/stm32f10x_tim.c ****   *     @arg TIM_ICPolarity_Falling
2836:../../source/src/FWlib/src/stm32f10x_tim.c ****   * @param  TIM_ICSelection: specifies the input to be used.
2837:../../source/src/FWlib/src/stm32f10x_tim.c ****   *   This parameter can be one of the following values:
2838:../../source/src/FWlib/src/stm32f10x_tim.c ****   *     @arg TIM_ICSelection_DirectTI: TIM Input 4 is selected to be connected to IC4.
2839:../../source/src/FWlib/src/stm32f10x_tim.c ****   *     @arg TIM_ICSelection_IndirectTI: TIM Input 4 is selected to be connected to IC3.
2840:../../source/src/FWlib/src/stm32f10x_tim.c ****   *     @arg TIM_ICSelection_TRC: TIM Input 4 is selected to be connected to TRC.
ARM GAS  G:\Users\Jaxb\AppData\Local\Temp\ccSQWSCJ.s 			page 176


2841:../../source/src/FWlib/src/stm32f10x_tim.c ****   * @param  TIM_ICFilter: Specifies the Input Capture Filter.
2842:../../source/src/FWlib/src/stm32f10x_tim.c ****   *   This parameter must be a value between 0x00 and 0x0F.
2843:../../source/src/FWlib/src/stm32f10x_tim.c ****   * @retval None
2844:../../source/src/FWlib/src/stm32f10x_tim.c ****   */
2845:../../source/src/FWlib/src/stm32f10x_tim.c **** static void TI4_Config(TIM_TypeDef* TIMx, uint16_t TIM_ICPolarity, uint16_t TIM_ICSelection,
2846:../../source/src/FWlib/src/stm32f10x_tim.c ****                        uint16_t TIM_ICFilter)
2847:../../source/src/FWlib/src/stm32f10x_tim.c **** {
 7060              		.loc 1 2847 0
 7061              		.cfi_startproc
 7062              		@ args = 0, pretend = 0, frame = 24
 7063              		@ frame_needed = 1, uses_anonymous_args = 0
 7064              		@ link register save eliminated.
 7065 1c98 80B4     		push	{r7}
 7066              	.LCFI533:
 7067              		.cfi_def_cfa_offset 4
 7068              		.cfi_offset 7, -4
 7069 1c9a 87B0     		sub	sp, sp, #28
 7070              	.LCFI534:
 7071              		.cfi_def_cfa_offset 32
 7072 1c9c 00AF     		add	r7, sp, #0
 7073              	.LCFI535:
 7074              		.cfi_def_cfa_register 7
 7075 1c9e F860     		str	r0, [r7, #12]
 7076 1ca0 0846     		mov	r0, r1
 7077 1ca2 1146     		mov	r1, r2
 7078 1ca4 1A46     		mov	r2, r3
 7079 1ca6 0346     		mov	r3, r0	@ movhi
 7080 1ca8 7B81     		strh	r3, [r7, #10]	@ movhi
 7081 1caa 0B46     		mov	r3, r1	@ movhi
 7082 1cac 3B81     		strh	r3, [r7, #8]	@ movhi
 7083 1cae 1346     		mov	r3, r2	@ movhi
 7084 1cb0 FB80     		strh	r3, [r7, #6]	@ movhi
2848:../../source/src/FWlib/src/stm32f10x_tim.c ****   uint16_t tmpccmr2 = 0, tmpccer = 0, tmp = 0;
 7085              		.loc 1 2848 0
 7086 1cb2 0023     		movs	r3, #0
 7087 1cb4 BB82     		strh	r3, [r7, #20]	@ movhi
 7088 1cb6 0023     		movs	r3, #0
 7089 1cb8 FB82     		strh	r3, [r7, #22]	@ movhi
 7090 1cba 0023     		movs	r3, #0
 7091 1cbc 7B82     		strh	r3, [r7, #18]	@ movhi
2849:../../source/src/FWlib/src/stm32f10x_tim.c **** 
2850:../../source/src/FWlib/src/stm32f10x_tim.c ****    /* Disable the Channel 4: Reset the CC4E Bit */
2851:../../source/src/FWlib/src/stm32f10x_tim.c ****   TIMx->CCER &= (uint16_t)~((uint16_t)TIM_CCER_CC4E);
 7092              		.loc 1 2851 0
 7093 1cbe FB68     		ldr	r3, [r7, #12]
 7094 1cc0 1B8C     		ldrh	r3, [r3, #32]	@ movhi
 7095 1cc2 9BB2     		uxth	r3, r3
 7096 1cc4 23F48053 		bic	r3, r3, #4096
 7097 1cc8 9AB2     		uxth	r2, r3
 7098 1cca FB68     		ldr	r3, [r7, #12]
 7099 1ccc 1A84     		strh	r2, [r3, #32]	@ movhi
2852:../../source/src/FWlib/src/stm32f10x_tim.c ****   tmpccmr2 = TIMx->CCMR2;
 7100              		.loc 1 2852 0
 7101 1cce FB68     		ldr	r3, [r7, #12]
 7102 1cd0 9B8B     		ldrh	r3, [r3, #28]	@ movhi
 7103 1cd2 BB82     		strh	r3, [r7, #20]	@ movhi
2853:../../source/src/FWlib/src/stm32f10x_tim.c ****   tmpccer = TIMx->CCER;
ARM GAS  G:\Users\Jaxb\AppData\Local\Temp\ccSQWSCJ.s 			page 177


 7104              		.loc 1 2853 0
 7105 1cd4 FB68     		ldr	r3, [r7, #12]
 7106 1cd6 1B8C     		ldrh	r3, [r3, #32]	@ movhi
 7107 1cd8 FB82     		strh	r3, [r7, #22]	@ movhi
2854:../../source/src/FWlib/src/stm32f10x_tim.c ****   tmp = (uint16_t)(TIM_ICPolarity << 12);
 7108              		.loc 1 2854 0
 7109 1cda 7B89     		ldrh	r3, [r7, #10]	@ movhi
 7110 1cdc 1B03     		lsls	r3, r3, #12
 7111 1cde 7B82     		strh	r3, [r7, #18]	@ movhi
2855:../../source/src/FWlib/src/stm32f10x_tim.c ****   /* Select the Input and set the filter */
2856:../../source/src/FWlib/src/stm32f10x_tim.c ****   tmpccmr2 &= (uint16_t)((uint16_t)(~(uint16_t)TIM_CCMR2_CC4S) & ((uint16_t)~((uint16_t)TIM_CCMR2_I
 7112              		.loc 1 2856 0
 7113 1ce0 BB8A     		ldrh	r3, [r7, #20]	@ movhi
 7114 1ce2 23F44073 		bic	r3, r3, #768
 7115 1ce6 1B05     		lsls	r3, r3, #20
 7116 1ce8 1B0D     		lsrs	r3, r3, #20
 7117 1cea BB82     		strh	r3, [r7, #20]	@ movhi
2857:../../source/src/FWlib/src/stm32f10x_tim.c ****   tmpccmr2 |= (uint16_t)(TIM_ICSelection << 8);
 7118              		.loc 1 2857 0
 7119 1cec 3B89     		ldrh	r3, [r7, #8]	@ movhi
 7120 1cee 1B02     		lsls	r3, r3, #8
 7121 1cf0 9AB2     		uxth	r2, r3
 7122 1cf2 BB8A     		ldrh	r3, [r7, #20]	@ movhi
 7123 1cf4 1343     		orrs	r3, r3, r2
 7124 1cf6 BB82     		strh	r3, [r7, #20]	@ movhi
2858:../../source/src/FWlib/src/stm32f10x_tim.c ****   tmpccmr2 |= (uint16_t)(TIM_ICFilter << 12);
 7125              		.loc 1 2858 0
 7126 1cf8 FB88     		ldrh	r3, [r7, #6]	@ movhi
 7127 1cfa 1B03     		lsls	r3, r3, #12
 7128 1cfc 9AB2     		uxth	r2, r3
 7129 1cfe BB8A     		ldrh	r3, [r7, #20]	@ movhi
 7130 1d00 1343     		orrs	r3, r3, r2
 7131 1d02 BB82     		strh	r3, [r7, #20]	@ movhi
2859:../../source/src/FWlib/src/stm32f10x_tim.c ****   
2860:../../source/src/FWlib/src/stm32f10x_tim.c ****   if((TIMx == TIM1) || (TIMx == TIM8) || (TIMx == TIM2) || (TIMx == TIM3) ||
 7132              		.loc 1 2860 0
 7133 1d04 FB68     		ldr	r3, [r7, #12]
 7134 1d06 1D4A     		ldr	r2, .L215
 7135 1d08 9342     		cmp	r3, r2
 7136 1d0a 13D0     		beq	.L212
 7137              		.loc 1 2860 0 is_stmt 0 discriminator 1
 7138 1d0c FB68     		ldr	r3, [r7, #12]
 7139 1d0e 1C4A     		ldr	r2, .L215+4
 7140 1d10 9342     		cmp	r3, r2
 7141 1d12 0FD0     		beq	.L212
 7142              		.loc 1 2860 0 discriminator 2
 7143 1d14 FB68     		ldr	r3, [r7, #12]
 7144 1d16 B3F1804F 		cmp	r3, #1073741824
 7145 1d1a 0BD0     		beq	.L212
 7146              		.loc 1 2860 0 discriminator 3
 7147 1d1c FB68     		ldr	r3, [r7, #12]
 7148 1d1e 194A     		ldr	r2, .L215+8
 7149 1d20 9342     		cmp	r3, r2
 7150 1d22 07D0     		beq	.L212
 7151              		.loc 1 2860 0 discriminator 4
 7152 1d24 FB68     		ldr	r3, [r7, #12]
 7153 1d26 184A     		ldr	r2, .L215+12
ARM GAS  G:\Users\Jaxb\AppData\Local\Temp\ccSQWSCJ.s 			page 178


 7154 1d28 9342     		cmp	r3, r2
 7155 1d2a 03D0     		beq	.L212
2861:../../source/src/FWlib/src/stm32f10x_tim.c ****      (TIMx == TIM4) ||(TIMx == TIM5))
 7156              		.loc 1 2861 0 is_stmt 1
 7157 1d2c FB68     		ldr	r3, [r7, #12]
 7158 1d2e 174A     		ldr	r2, .L215+16
 7159 1d30 9342     		cmp	r3, r2
 7160 1d32 0BD1     		bne	.L213
 7161              	.L212:
2862:../../source/src/FWlib/src/stm32f10x_tim.c ****   {
2863:../../source/src/FWlib/src/stm32f10x_tim.c ****     /* Select the Polarity and set the CC4E Bit */
2864:../../source/src/FWlib/src/stm32f10x_tim.c ****     tmpccer &= (uint16_t)~((uint16_t)(TIM_CCER_CC4P));
 7162              		.loc 1 2864 0
 7163 1d34 FB8A     		ldrh	r3, [r7, #22]	@ movhi
 7164 1d36 23F40053 		bic	r3, r3, #8192
 7165 1d3a FB82     		strh	r3, [r7, #22]	@ movhi
2865:../../source/src/FWlib/src/stm32f10x_tim.c ****     tmpccer |= (uint16_t)(tmp | (uint16_t)TIM_CCER_CC4E);
 7166              		.loc 1 2865 0
 7167 1d3c 7A8A     		ldrh	r2, [r7, #18]	@ movhi
 7168 1d3e FB8A     		ldrh	r3, [r7, #22]	@ movhi
 7169 1d40 1343     		orrs	r3, r3, r2
 7170 1d42 9BB2     		uxth	r3, r3
 7171 1d44 43F48053 		orr	r3, r3, #4096
 7172 1d48 FB82     		strh	r3, [r7, #22]	@ movhi
 7173 1d4a 0CE0     		b	.L214
 7174              	.L213:
2866:../../source/src/FWlib/src/stm32f10x_tim.c ****   }
2867:../../source/src/FWlib/src/stm32f10x_tim.c ****   else
2868:../../source/src/FWlib/src/stm32f10x_tim.c ****   {
2869:../../source/src/FWlib/src/stm32f10x_tim.c ****     /* Select the Polarity and set the CC4E Bit */
2870:../../source/src/FWlib/src/stm32f10x_tim.c ****     tmpccer &= (uint16_t)~((uint16_t)(TIM_CCER_CC3P | TIM_CCER_CC4NP));
 7175              		.loc 1 2870 0
 7176 1d4c FB8A     		ldrh	r3, [r7, #22]	@ movhi
 7177 1d4e 23F40073 		bic	r3, r3, #512
 7178 1d52 5B04     		lsls	r3, r3, #17
 7179 1d54 5B0C     		lsrs	r3, r3, #17
 7180 1d56 FB82     		strh	r3, [r7, #22]	@ movhi
2871:../../source/src/FWlib/src/stm32f10x_tim.c ****     tmpccer |= (uint16_t)(TIM_ICPolarity | (uint16_t)TIM_CCER_CC4E);
 7181              		.loc 1 2871 0
 7182 1d58 7A89     		ldrh	r2, [r7, #10]	@ movhi
 7183 1d5a FB8A     		ldrh	r3, [r7, #22]	@ movhi
 7184 1d5c 1343     		orrs	r3, r3, r2
 7185 1d5e 9BB2     		uxth	r3, r3
 7186 1d60 43F48053 		orr	r3, r3, #4096
 7187 1d64 FB82     		strh	r3, [r7, #22]	@ movhi
 7188              	.L214:
2872:../../source/src/FWlib/src/stm32f10x_tim.c ****   }
2873:../../source/src/FWlib/src/stm32f10x_tim.c ****   /* Write to TIMx CCMR2 and CCER registers */
2874:../../source/src/FWlib/src/stm32f10x_tim.c ****   TIMx->CCMR2 = tmpccmr2;
 7189              		.loc 1 2874 0
 7190 1d66 FB68     		ldr	r3, [r7, #12]
 7191 1d68 BA8A     		ldrh	r2, [r7, #20]	@ movhi
 7192 1d6a 9A83     		strh	r2, [r3, #28]	@ movhi
2875:../../source/src/FWlib/src/stm32f10x_tim.c ****   TIMx->CCER = tmpccer;
 7193              		.loc 1 2875 0
 7194 1d6c FB68     		ldr	r3, [r7, #12]
 7195 1d6e FA8A     		ldrh	r2, [r7, #22]	@ movhi
ARM GAS  G:\Users\Jaxb\AppData\Local\Temp\ccSQWSCJ.s 			page 179


 7196 1d70 1A84     		strh	r2, [r3, #32]	@ movhi
2876:../../source/src/FWlib/src/stm32f10x_tim.c **** }
 7197              		.loc 1 2876 0
 7198 1d72 00BF     		nop
 7199 1d74 1C37     		adds	r7, r7, #28
 7200              	.LCFI536:
 7201              		.cfi_def_cfa_offset 4
 7202 1d76 BD46     		mov	sp, r7
 7203              	.LCFI537:
 7204              		.cfi_def_cfa_register 13
 7205              		@ sp needed
 7206 1d78 80BC     		pop	{r7}
 7207              	.LCFI538:
 7208              		.cfi_restore 7
 7209              		.cfi_def_cfa_offset 0
 7210 1d7a 7047     		bx	lr
 7211              	.L216:
 7212              		.align	2
 7213              	.L215:
 7214 1d7c 002C0140 		.word	1073818624
 7215 1d80 00340140 		.word	1073820672
 7216 1d84 00040040 		.word	1073742848
 7217 1d88 00080040 		.word	1073743872
 7218 1d8c 000C0040 		.word	1073744896
 7219              		.cfi_endproc
 7220              	.LFE119:
 7221              		.size	TI4_Config, .-TI4_Config
 7222              	.Letext0:
 7223              		.file 2 "f:\\arm\\gcc2018\\arm-none-eabi\\include\\machine\\_default_types.h"
 7224              		.file 3 "f:\\arm\\gcc2018\\arm-none-eabi\\include\\sys\\_stdint.h"
 7225              		.file 4 "../../source/include/core_cm3.h"
 7226              		.file 5 "../../source/include/system_stm32f10x.h"
 7227              		.file 6 "../../source/include/stm32f10x.h"
 7228              		.file 7 "../../source/src/FWlib/inc/stm32f10x_tim.h"
 7229              		.section	.debug_info,"",%progbits
 7230              	.Ldebug_info0:
 7231 0000 951E0000 		.4byte	0x1e95
 7232 0004 0200     		.2byte	0x2
 7233 0006 00000000 		.4byte	.Ldebug_abbrev0
 7234 000a 04       		.byte	0x4
 7235 000b 01       		.uleb128 0x1
 7236 000c D50B0000 		.4byte	.LASF229
 7237 0010 0C       		.byte	0xc
 7238 0011 65010000 		.4byte	.LASF230
 7239 0015 BB0C0000 		.4byte	.LASF231
 7240 0019 00000000 		.4byte	.Ltext0
 7241 001d 901D0000 		.4byte	.Letext0
 7242 0021 00000000 		.4byte	.Ldebug_line0
 7243 0025 02       		.uleb128 0x2
 7244 0026 01       		.byte	0x1
 7245 0027 06       		.byte	0x6
 7246 0028 8D020000 		.4byte	.LASF0
 7247 002c 03       		.uleb128 0x3
 7248 002d BF000000 		.4byte	.LASF3
 7249 0031 02       		.byte	0x2
 7250 0032 2B       		.byte	0x2b
 7251 0033 37000000 		.4byte	0x37
ARM GAS  G:\Users\Jaxb\AppData\Local\Temp\ccSQWSCJ.s 			page 180


 7252 0037 02       		.uleb128 0x2
 7253 0038 01       		.byte	0x1
 7254 0039 08       		.byte	0x8
 7255 003a EA080000 		.4byte	.LASF1
 7256 003e 02       		.uleb128 0x2
 7257 003f 02       		.byte	0x2
 7258 0040 05       		.byte	0x5
 7259 0041 22090000 		.4byte	.LASF2
 7260 0045 03       		.uleb128 0x3
 7261 0046 3F040000 		.4byte	.LASF4
 7262 004a 02       		.byte	0x2
 7263 004b 39       		.byte	0x39
 7264 004c 50000000 		.4byte	0x50
 7265 0050 02       		.uleb128 0x2
 7266 0051 02       		.byte	0x2
 7267 0052 07       		.byte	0x7
 7268 0053 9A090000 		.4byte	.LASF5
 7269 0057 02       		.uleb128 0x2
 7270 0058 04       		.byte	0x4
 7271 0059 05       		.byte	0x5
 7272 005a 55030000 		.4byte	.LASF6
 7273 005e 03       		.uleb128 0x3
 7274 005f 56040000 		.4byte	.LASF7
 7275 0063 02       		.byte	0x2
 7276 0064 4F       		.byte	0x4f
 7277 0065 69000000 		.4byte	0x69
 7278 0069 02       		.uleb128 0x2
 7279 006a 04       		.byte	0x4
 7280 006b 07       		.byte	0x7
 7281 006c 340A0000 		.4byte	.LASF8
 7282 0070 02       		.uleb128 0x2
 7283 0071 08       		.byte	0x8
 7284 0072 05       		.byte	0x5
 7285 0073 84030000 		.4byte	.LASF9
 7286 0077 02       		.uleb128 0x2
 7287 0078 08       		.byte	0x8
 7288 0079 07       		.byte	0x7
 7289 007a B5020000 		.4byte	.LASF10
 7290 007e 04       		.uleb128 0x4
 7291 007f 04       		.byte	0x4
 7292 0080 05       		.byte	0x5
 7293 0081 696E7400 		.ascii	"int\000"
 7294 0085 05       		.uleb128 0x5
 7295 0086 7E000000 		.4byte	0x7e
 7296 008a 02       		.uleb128 0x2
 7297 008b 04       		.byte	0x4
 7298 008c 07       		.byte	0x7
 7299 008d E4040000 		.4byte	.LASF11
 7300 0091 03       		.uleb128 0x3
 7301 0092 E90C0000 		.4byte	.LASF12
 7302 0096 03       		.byte	0x3
 7303 0097 18       		.byte	0x18
 7304 0098 2C000000 		.4byte	0x2c
 7305 009c 03       		.uleb128 0x3
 7306 009d 92030000 		.4byte	.LASF13
 7307 00a1 03       		.byte	0x3
 7308 00a2 24       		.byte	0x24
ARM GAS  G:\Users\Jaxb\AppData\Local\Temp\ccSQWSCJ.s 			page 181


 7309 00a3 45000000 		.4byte	0x45
 7310 00a7 05       		.uleb128 0x5
 7311 00a8 9C000000 		.4byte	0x9c
 7312 00ac 03       		.uleb128 0x3
 7313 00ad 010E0000 		.4byte	.LASF14
 7314 00b1 03       		.byte	0x3
 7315 00b2 30       		.byte	0x30
 7316 00b3 5E000000 		.4byte	0x5e
 7317 00b7 06       		.uleb128 0x6
 7318 00b8 E0010000 		.4byte	.LASF15
 7319 00bc 04       		.byte	0x4
 7320 00bd CE06     		.2byte	0x6ce
 7321 00bf 85000000 		.4byte	0x85
 7322 00c3 01       		.byte	0x1
 7323 00c4 01       		.byte	0x1
 7324 00c5 07       		.uleb128 0x7
 7325 00c6 C50B0000 		.4byte	.LASF16
 7326 00ca 05       		.byte	0x5
 7327 00cb 35       		.byte	0x35
 7328 00cc AC000000 		.4byte	0xac
 7329 00d0 01       		.byte	0x1
 7330 00d1 01       		.byte	0x1
 7331 00d2 08       		.uleb128 0x8
 7332 00d3 07       		.byte	0x7
 7333 00d4 01       		.byte	0x1
 7334 00d5 37000000 		.4byte	0x37
 7335 00d9 06       		.byte	0x6
 7336 00da 0702     		.2byte	0x207
 7337 00dc ED000000 		.4byte	0xed
 7338 00e0 09       		.uleb128 0x9
 7339 00e1 B2060000 		.4byte	.LASF17
 7340 00e5 00       		.byte	0
 7341 00e6 0A       		.uleb128 0xa
 7342 00e7 53455400 		.ascii	"SET\000"
 7343 00eb 01       		.byte	0x1
 7344 00ec 00       		.byte	0
 7345 00ed 0B       		.uleb128 0xb
 7346 00ee B4000000 		.4byte	.LASF18
 7347 00f2 06       		.byte	0x6
 7348 00f3 0702     		.2byte	0x207
 7349 00f5 D2000000 		.4byte	0xd2
 7350 00f9 0B       		.uleb128 0xb
 7351 00fa 070D0000 		.4byte	.LASF19
 7352 00fe 06       		.byte	0x6
 7353 00ff 0702     		.2byte	0x207
 7354 0101 D2000000 		.4byte	0xd2
 7355 0105 08       		.uleb128 0x8
 7356 0106 07       		.byte	0x7
 7357 0107 01       		.byte	0x1
 7358 0108 37000000 		.4byte	0x37
 7359 010c 06       		.byte	0x6
 7360 010d 0902     		.2byte	0x209
 7361 010f 20010000 		.4byte	0x120
 7362 0113 09       		.uleb128 0x9
 7363 0114 3F010000 		.4byte	.LASF20
 7364 0118 00       		.byte	0
 7365 0119 09       		.uleb128 0x9
ARM GAS  G:\Users\Jaxb\AppData\Local\Temp\ccSQWSCJ.s 			page 182


 7366 011a 6F030000 		.4byte	.LASF21
 7367 011e 01       		.byte	0x1
 7368 011f 00       		.byte	0
 7369 0120 0B       		.uleb128 0xb
 7370 0121 BF070000 		.4byte	.LASF22
 7371 0125 06       		.byte	0x6
 7372 0126 0902     		.2byte	0x209
 7373 0128 05010000 		.4byte	0x105
 7374 012c 0C       		.uleb128 0xc
 7375 012d 50       		.byte	0x50
 7376 012e 06       		.byte	0x6
 7377 012f A204     		.2byte	0x4a2
 7378 0131 8D030000 		.4byte	0x38d
 7379 0135 0D       		.uleb128 0xd
 7380 0136 43523100 		.ascii	"CR1\000"
 7381 013a 06       		.byte	0x6
 7382 013b A404     		.2byte	0x4a4
 7383 013d A7000000 		.4byte	0xa7
 7384 0141 02       		.byte	0x2
 7385 0142 23       		.byte	0x23
 7386 0143 00       		.uleb128 0
 7387 0144 0E       		.uleb128 0xe
 7388 0145 AD090000 		.4byte	.LASF23
 7389 0149 06       		.byte	0x6
 7390 014a A504     		.2byte	0x4a5
 7391 014c 9C000000 		.4byte	0x9c
 7392 0150 02       		.byte	0x2
 7393 0151 23       		.byte	0x23
 7394 0152 02       		.uleb128 0x2
 7395 0153 0D       		.uleb128 0xd
 7396 0154 43523200 		.ascii	"CR2\000"
 7397 0158 06       		.byte	0x6
 7398 0159 A604     		.2byte	0x4a6
 7399 015b A7000000 		.4byte	0xa7
 7400 015f 02       		.byte	0x2
 7401 0160 23       		.byte	0x23
 7402 0161 04       		.uleb128 0x4
 7403 0162 0E       		.uleb128 0xe
 7404 0163 71080000 		.4byte	.LASF24
 7405 0167 06       		.byte	0x6
 7406 0168 A704     		.2byte	0x4a7
 7407 016a 9C000000 		.4byte	0x9c
 7408 016e 02       		.byte	0x2
 7409 016f 23       		.byte	0x23
 7410 0170 06       		.uleb128 0x6
 7411 0171 0E       		.uleb128 0xe
 7412 0172 DD050000 		.4byte	.LASF25
 7413 0176 06       		.byte	0x6
 7414 0177 A804     		.2byte	0x4a8
 7415 0179 A7000000 		.4byte	0xa7
 7416 017d 02       		.byte	0x2
 7417 017e 23       		.byte	0x23
 7418 017f 08       		.uleb128 0x8
 7419 0180 0E       		.uleb128 0xe
 7420 0181 7B080000 		.4byte	.LASF26
 7421 0185 06       		.byte	0x6
 7422 0186 A904     		.2byte	0x4a9
ARM GAS  G:\Users\Jaxb\AppData\Local\Temp\ccSQWSCJ.s 			page 183


 7423 0188 9C000000 		.4byte	0x9c
 7424 018c 02       		.byte	0x2
 7425 018d 23       		.byte	0x23
 7426 018e 0A       		.uleb128 0xa
 7427 018f 0E       		.uleb128 0xe
 7428 0190 4A000000 		.4byte	.LASF27
 7429 0194 06       		.byte	0x6
 7430 0195 AA04     		.2byte	0x4aa
 7431 0197 A7000000 		.4byte	0xa7
 7432 019b 02       		.byte	0x2
 7433 019c 23       		.byte	0x23
 7434 019d 0C       		.uleb128 0xc
 7435 019e 0E       		.uleb128 0xe
 7436 019f 85080000 		.4byte	.LASF28
 7437 01a3 06       		.byte	0x6
 7438 01a4 AB04     		.2byte	0x4ab
 7439 01a6 9C000000 		.4byte	0x9c
 7440 01aa 02       		.byte	0x2
 7441 01ab 23       		.byte	0x23
 7442 01ac 0E       		.uleb128 0xe
 7443 01ad 0D       		.uleb128 0xd
 7444 01ae 535200   		.ascii	"SR\000"
 7445 01b1 06       		.byte	0x6
 7446 01b2 AC04     		.2byte	0x4ac
 7447 01b4 A7000000 		.4byte	0xa7
 7448 01b8 02       		.byte	0x2
 7449 01b9 23       		.byte	0x23
 7450 01ba 10       		.uleb128 0x10
 7451 01bb 0E       		.uleb128 0xe
 7452 01bc 8F080000 		.4byte	.LASF29
 7453 01c0 06       		.byte	0x6
 7454 01c1 AD04     		.2byte	0x4ad
 7455 01c3 9C000000 		.4byte	0x9c
 7456 01c7 02       		.byte	0x2
 7457 01c8 23       		.byte	0x23
 7458 01c9 12       		.uleb128 0x12
 7459 01ca 0D       		.uleb128 0xd
 7460 01cb 45475200 		.ascii	"EGR\000"
 7461 01cf 06       		.byte	0x6
 7462 01d0 AE04     		.2byte	0x4ae
 7463 01d2 A7000000 		.4byte	0xa7
 7464 01d6 02       		.byte	0x2
 7465 01d7 23       		.byte	0x23
 7466 01d8 14       		.uleb128 0x14
 7467 01d9 0E       		.uleb128 0xe
 7468 01da 99080000 		.4byte	.LASF30
 7469 01de 06       		.byte	0x6
 7470 01df AF04     		.2byte	0x4af
 7471 01e1 9C000000 		.4byte	0x9c
 7472 01e5 02       		.byte	0x2
 7473 01e6 23       		.byte	0x23
 7474 01e7 16       		.uleb128 0x16
 7475 01e8 0E       		.uleb128 0xe
 7476 01e9 6B020000 		.4byte	.LASF31
 7477 01ed 06       		.byte	0x6
 7478 01ee B004     		.2byte	0x4b0
 7479 01f0 A7000000 		.4byte	0xa7
ARM GAS  G:\Users\Jaxb\AppData\Local\Temp\ccSQWSCJ.s 			page 184


 7480 01f4 02       		.byte	0x2
 7481 01f5 23       		.byte	0x23
 7482 01f6 18       		.uleb128 0x18
 7483 01f7 0E       		.uleb128 0xe
 7484 01f8 A3080000 		.4byte	.LASF32
 7485 01fc 06       		.byte	0x6
 7486 01fd B104     		.2byte	0x4b1
 7487 01ff 9C000000 		.4byte	0x9c
 7488 0203 02       		.byte	0x2
 7489 0204 23       		.byte	0x23
 7490 0205 1A       		.uleb128 0x1a
 7491 0206 0E       		.uleb128 0xe
 7492 0207 71020000 		.4byte	.LASF33
 7493 020b 06       		.byte	0x6
 7494 020c B204     		.2byte	0x4b2
 7495 020e A7000000 		.4byte	0xa7
 7496 0212 02       		.byte	0x2
 7497 0213 23       		.byte	0x23
 7498 0214 1C       		.uleb128 0x1c
 7499 0215 0E       		.uleb128 0xe
 7500 0216 E8090000 		.4byte	.LASF34
 7501 021a 06       		.byte	0x6
 7502 021b B304     		.2byte	0x4b3
 7503 021d 9C000000 		.4byte	0x9c
 7504 0221 02       		.byte	0x2
 7505 0222 23       		.byte	0x23
 7506 0223 1E       		.uleb128 0x1e
 7507 0224 0E       		.uleb128 0xe
 7508 0225 7F030000 		.4byte	.LASF35
 7509 0229 06       		.byte	0x6
 7510 022a B404     		.2byte	0x4b4
 7511 022c A7000000 		.4byte	0xa7
 7512 0230 02       		.byte	0x2
 7513 0231 23       		.byte	0x23
 7514 0232 20       		.uleb128 0x20
 7515 0233 0E       		.uleb128 0xe
 7516 0234 AD080000 		.4byte	.LASF36
 7517 0238 06       		.byte	0x6
 7518 0239 B504     		.2byte	0x4b5
 7519 023b 9C000000 		.4byte	0x9c
 7520 023f 02       		.byte	0x2
 7521 0240 23       		.byte	0x23
 7522 0241 22       		.uleb128 0x22
 7523 0242 0D       		.uleb128 0xd
 7524 0243 434E5400 		.ascii	"CNT\000"
 7525 0247 06       		.byte	0x6
 7526 0248 B604     		.2byte	0x4b6
 7527 024a A7000000 		.4byte	0xa7
 7528 024e 02       		.byte	0x2
 7529 024f 23       		.byte	0x23
 7530 0250 24       		.uleb128 0x24
 7531 0251 0E       		.uleb128 0xe
 7532 0252 B7080000 		.4byte	.LASF37
 7533 0256 06       		.byte	0x6
 7534 0257 B704     		.2byte	0x4b7
 7535 0259 9C000000 		.4byte	0x9c
 7536 025d 02       		.byte	0x2
ARM GAS  G:\Users\Jaxb\AppData\Local\Temp\ccSQWSCJ.s 			page 185


 7537 025e 23       		.byte	0x23
 7538 025f 26       		.uleb128 0x26
 7539 0260 0D       		.uleb128 0xd
 7540 0261 50534300 		.ascii	"PSC\000"
 7541 0265 06       		.byte	0x6
 7542 0266 B804     		.2byte	0x4b8
 7543 0268 A7000000 		.4byte	0xa7
 7544 026c 02       		.byte	0x2
 7545 026d 23       		.byte	0x23
 7546 026e 28       		.uleb128 0x28
 7547 026f 0E       		.uleb128 0xe
 7548 0270 DA020000 		.4byte	.LASF38
 7549 0274 06       		.byte	0x6
 7550 0275 B904     		.2byte	0x4b9
 7551 0277 9C000000 		.4byte	0x9c
 7552 027b 02       		.byte	0x2
 7553 027c 23       		.byte	0x23
 7554 027d 2A       		.uleb128 0x2a
 7555 027e 0D       		.uleb128 0xd
 7556 027f 41525200 		.ascii	"ARR\000"
 7557 0283 06       		.byte	0x6
 7558 0284 BA04     		.2byte	0x4ba
 7559 0286 A7000000 		.4byte	0xa7
 7560 028a 02       		.byte	0x2
 7561 028b 23       		.byte	0x23
 7562 028c 2C       		.uleb128 0x2c
 7563 028d 0E       		.uleb128 0xe
 7564 028e E5020000 		.4byte	.LASF39
 7565 0292 06       		.byte	0x6
 7566 0293 BB04     		.2byte	0x4bb
 7567 0295 9C000000 		.4byte	0x9c
 7568 0299 02       		.byte	0x2
 7569 029a 23       		.byte	0x23
 7570 029b 2E       		.uleb128 0x2e
 7571 029c 0D       		.uleb128 0xd
 7572 029d 52435200 		.ascii	"RCR\000"
 7573 02a1 06       		.byte	0x6
 7574 02a2 BC04     		.2byte	0x4bc
 7575 02a4 A7000000 		.4byte	0xa7
 7576 02a8 02       		.byte	0x2
 7577 02a9 23       		.byte	0x23
 7578 02aa 30       		.uleb128 0x30
 7579 02ab 0E       		.uleb128 0xe
 7580 02ac F0020000 		.4byte	.LASF40
 7581 02b0 06       		.byte	0x6
 7582 02b1 BD04     		.2byte	0x4bd
 7583 02b3 9C000000 		.4byte	0x9c
 7584 02b7 02       		.byte	0x2
 7585 02b8 23       		.byte	0x23
 7586 02b9 32       		.uleb128 0x32
 7587 02ba 0E       		.uleb128 0xe
 7588 02bb 7B0C0000 		.4byte	.LASF41
 7589 02bf 06       		.byte	0x6
 7590 02c0 BE04     		.2byte	0x4be
 7591 02c2 A7000000 		.4byte	0xa7
 7592 02c6 02       		.byte	0x2
 7593 02c7 23       		.byte	0x23
ARM GAS  G:\Users\Jaxb\AppData\Local\Temp\ccSQWSCJ.s 			page 186


 7594 02c8 34       		.uleb128 0x34
 7595 02c9 0E       		.uleb128 0xe
 7596 02ca FB020000 		.4byte	.LASF42
 7597 02ce 06       		.byte	0x6
 7598 02cf BF04     		.2byte	0x4bf
 7599 02d1 9C000000 		.4byte	0x9c
 7600 02d5 02       		.byte	0x2
 7601 02d6 23       		.byte	0x23
 7602 02d7 36       		.uleb128 0x36
 7603 02d8 0E       		.uleb128 0xe
 7604 02d9 800C0000 		.4byte	.LASF43
 7605 02dd 06       		.byte	0x6
 7606 02de C004     		.2byte	0x4c0
 7607 02e0 A7000000 		.4byte	0xa7
 7608 02e4 02       		.byte	0x2
 7609 02e5 23       		.byte	0x23
 7610 02e6 38       		.uleb128 0x38
 7611 02e7 0E       		.uleb128 0xe
 7612 02e8 06030000 		.4byte	.LASF44
 7613 02ec 06       		.byte	0x6
 7614 02ed C104     		.2byte	0x4c1
 7615 02ef 9C000000 		.4byte	0x9c
 7616 02f3 02       		.byte	0x2
 7617 02f4 23       		.byte	0x23
 7618 02f5 3A       		.uleb128 0x3a
 7619 02f6 0E       		.uleb128 0xe
 7620 02f7 850C0000 		.4byte	.LASF45
 7621 02fb 06       		.byte	0x6
 7622 02fc C204     		.2byte	0x4c2
 7623 02fe A7000000 		.4byte	0xa7
 7624 0302 02       		.byte	0x2
 7625 0303 23       		.byte	0x23
 7626 0304 3C       		.uleb128 0x3c
 7627 0305 0E       		.uleb128 0xe
 7628 0306 11030000 		.4byte	.LASF46
 7629 030a 06       		.byte	0x6
 7630 030b C304     		.2byte	0x4c3
 7631 030d 9C000000 		.4byte	0x9c
 7632 0311 02       		.byte	0x2
 7633 0312 23       		.byte	0x23
 7634 0313 3E       		.uleb128 0x3e
 7635 0314 0E       		.uleb128 0xe
 7636 0315 8A0C0000 		.4byte	.LASF47
 7637 0319 06       		.byte	0x6
 7638 031a C404     		.2byte	0x4c4
 7639 031c A7000000 		.4byte	0xa7
 7640 0320 02       		.byte	0x2
 7641 0321 23       		.byte	0x23
 7642 0322 40       		.uleb128 0x40
 7643 0323 0E       		.uleb128 0xe
 7644 0324 1C030000 		.4byte	.LASF48
 7645 0328 06       		.byte	0x6
 7646 0329 C504     		.2byte	0x4c5
 7647 032b 9C000000 		.4byte	0x9c
 7648 032f 02       		.byte	0x2
 7649 0330 23       		.byte	0x23
 7650 0331 42       		.uleb128 0x42
ARM GAS  G:\Users\Jaxb\AppData\Local\Temp\ccSQWSCJ.s 			page 187


 7651 0332 0E       		.uleb128 0xe
 7652 0333 2C090000 		.4byte	.LASF49
 7653 0337 06       		.byte	0x6
 7654 0338 C604     		.2byte	0x4c6
 7655 033a A7000000 		.4byte	0xa7
 7656 033e 02       		.byte	0x2
 7657 033f 23       		.byte	0x23
 7658 0340 44       		.uleb128 0x44
 7659 0341 0E       		.uleb128 0xe
 7660 0342 27030000 		.4byte	.LASF50
 7661 0346 06       		.byte	0x6
 7662 0347 C704     		.2byte	0x4c7
 7663 0349 9C000000 		.4byte	0x9c
 7664 034d 02       		.byte	0x2
 7665 034e 23       		.byte	0x23
 7666 034f 46       		.uleb128 0x46
 7667 0350 0D       		.uleb128 0xd
 7668 0351 44435200 		.ascii	"DCR\000"
 7669 0355 06       		.byte	0x6
 7670 0356 C804     		.2byte	0x4c8
 7671 0358 A7000000 		.4byte	0xa7
 7672 035c 02       		.byte	0x2
 7673 035d 23       		.byte	0x23
 7674 035e 48       		.uleb128 0x48
 7675 035f 0E       		.uleb128 0xe
 7676 0360 8F0C0000 		.4byte	.LASF51
 7677 0364 06       		.byte	0x6
 7678 0365 C904     		.2byte	0x4c9
 7679 0367 9C000000 		.4byte	0x9c
 7680 036b 02       		.byte	0x2
 7681 036c 23       		.byte	0x23
 7682 036d 4A       		.uleb128 0x4a
 7683 036e 0E       		.uleb128 0xe
 7684 036f 810A0000 		.4byte	.LASF52
 7685 0373 06       		.byte	0x6
 7686 0374 CA04     		.2byte	0x4ca
 7687 0376 A7000000 		.4byte	0xa7
 7688 037a 02       		.byte	0x2
 7689 037b 23       		.byte	0x23
 7690 037c 4C       		.uleb128 0x4c
 7691 037d 0E       		.uleb128 0xe
 7692 037e 4A030000 		.4byte	.LASF53
 7693 0382 06       		.byte	0x6
 7694 0383 CB04     		.2byte	0x4cb
 7695 0385 9C000000 		.4byte	0x9c
 7696 0389 02       		.byte	0x2
 7697 038a 23       		.byte	0x23
 7698 038b 4E       		.uleb128 0x4e
 7699 038c 00       		.byte	0
 7700 038d 0B       		.uleb128 0xb
 7701 038e 4A040000 		.4byte	.LASF54
 7702 0392 06       		.byte	0x6
 7703 0393 CC04     		.2byte	0x4cc
 7704 0395 2C010000 		.4byte	0x12c
 7705 0399 0F       		.uleb128 0xf
 7706 039a 0A       		.byte	0xa
 7707 039b 07       		.byte	0x7
ARM GAS  G:\Users\Jaxb\AppData\Local\Temp\ccSQWSCJ.s 			page 188


 7708 039c 33       		.byte	0x33
 7709 039d E8030000 		.4byte	0x3e8
 7710 03a1 10       		.uleb128 0x10
 7711 03a2 C1080000 		.4byte	.LASF55
 7712 03a6 07       		.byte	0x7
 7713 03a7 35       		.byte	0x35
 7714 03a8 9C000000 		.4byte	0x9c
 7715 03ac 02       		.byte	0x2
 7716 03ad 23       		.byte	0x23
 7717 03ae 00       		.uleb128 0
 7718 03af 10       		.uleb128 0x10
 7719 03b0 75000000 		.4byte	.LASF56
 7720 03b4 07       		.byte	0x7
 7721 03b5 38       		.byte	0x38
 7722 03b6 9C000000 		.4byte	0x9c
 7723 03ba 02       		.byte	0x2
 7724 03bb 23       		.byte	0x23
 7725 03bc 02       		.uleb128 0x2
 7726 03bd 10       		.uleb128 0x10
 7727 03be A60A0000 		.4byte	.LASF57
 7728 03c2 07       		.byte	0x7
 7729 03c3 3B       		.byte	0x3b
 7730 03c4 9C000000 		.4byte	0x9c
 7731 03c8 02       		.byte	0x2
 7732 03c9 23       		.byte	0x23
 7733 03ca 04       		.uleb128 0x4
 7734 03cb 10       		.uleb128 0x10
 7735 03cc 0B050000 		.4byte	.LASF58
 7736 03d0 07       		.byte	0x7
 7737 03d1 3F       		.byte	0x3f
 7738 03d2 9C000000 		.4byte	0x9c
 7739 03d6 02       		.byte	0x2
 7740 03d7 23       		.byte	0x23
 7741 03d8 06       		.uleb128 0x6
 7742 03d9 10       		.uleb128 0x10
 7743 03da 1C0D0000 		.4byte	.LASF59
 7744 03de 07       		.byte	0x7
 7745 03df 42       		.byte	0x42
 7746 03e0 91000000 		.4byte	0x91
 7747 03e4 02       		.byte	0x2
 7748 03e5 23       		.byte	0x23
 7749 03e6 08       		.uleb128 0x8
 7750 03e7 00       		.byte	0
 7751 03e8 03       		.uleb128 0x3
 7752 03e9 B10A0000 		.4byte	.LASF60
 7753 03ed 07       		.byte	0x7
 7754 03ee 4A       		.byte	0x4a
 7755 03ef 99030000 		.4byte	0x399
 7756 03f3 0F       		.uleb128 0xf
 7757 03f4 10       		.byte	0x10
 7758 03f5 07       		.byte	0x7
 7759 03f6 50       		.byte	0x50
 7760 03f7 6C040000 		.4byte	0x46c
 7761 03fb 10       		.uleb128 0x10
 7762 03fc 6C0B0000 		.4byte	.LASF61
 7763 0400 07       		.byte	0x7
 7764 0401 52       		.byte	0x52
ARM GAS  G:\Users\Jaxb\AppData\Local\Temp\ccSQWSCJ.s 			page 189


 7765 0402 9C000000 		.4byte	0x9c
 7766 0406 02       		.byte	0x2
 7767 0407 23       		.byte	0x23
 7768 0408 00       		.uleb128 0
 7769 0409 10       		.uleb128 0x10
 7770 040a 42080000 		.4byte	.LASF62
 7771 040e 07       		.byte	0x7
 7772 040f 55       		.byte	0x55
 7773 0410 9C000000 		.4byte	0x9c
 7774 0414 02       		.byte	0x2
 7775 0415 23       		.byte	0x23
 7776 0416 02       		.uleb128 0x2
 7777 0417 10       		.uleb128 0x10
 7778 0418 5E030000 		.4byte	.LASF63
 7779 041c 07       		.byte	0x7
 7780 041d 58       		.byte	0x58
 7781 041e 9C000000 		.4byte	0x9c
 7782 0422 02       		.byte	0x2
 7783 0423 23       		.byte	0x23
 7784 0424 04       		.uleb128 0x4
 7785 0425 10       		.uleb128 0x10
 7786 0426 1C010000 		.4byte	.LASF64
 7787 042a 07       		.byte	0x7
 7788 042b 5C       		.byte	0x5c
 7789 042c 9C000000 		.4byte	0x9c
 7790 0430 02       		.byte	0x2
 7791 0431 23       		.byte	0x23
 7792 0432 06       		.uleb128 0x6
 7793 0433 10       		.uleb128 0x10
 7794 0434 FC040000 		.4byte	.LASF65
 7795 0438 07       		.byte	0x7
 7796 0439 5F       		.byte	0x5f
 7797 043a 9C000000 		.4byte	0x9c
 7798 043e 02       		.byte	0x2
 7799 043f 23       		.byte	0x23
 7800 0440 08       		.uleb128 0x8
 7801 0441 10       		.uleb128 0x10
 7802 0442 460A0000 		.4byte	.LASF66
 7803 0446 07       		.byte	0x7
 7804 0447 62       		.byte	0x62
 7805 0448 9C000000 		.4byte	0x9c
 7806 044c 02       		.byte	0x2
 7807 044d 23       		.byte	0x23
 7808 044e 0A       		.uleb128 0xa
 7809 044f 10       		.uleb128 0x10
 7810 0450 770D0000 		.4byte	.LASF67
 7811 0454 07       		.byte	0x7
 7812 0455 66       		.byte	0x66
 7813 0456 9C000000 		.4byte	0x9c
 7814 045a 02       		.byte	0x2
 7815 045b 23       		.byte	0x23
 7816 045c 0C       		.uleb128 0xc
 7817 045d 10       		.uleb128 0x10
 7818 045e 85070000 		.4byte	.LASF68
 7819 0462 07       		.byte	0x7
 7820 0463 6A       		.byte	0x6a
 7821 0464 9C000000 		.4byte	0x9c
ARM GAS  G:\Users\Jaxb\AppData\Local\Temp\ccSQWSCJ.s 			page 190


 7822 0468 02       		.byte	0x2
 7823 0469 23       		.byte	0x23
 7824 046a 0E       		.uleb128 0xe
 7825 046b 00       		.byte	0
 7826 046c 03       		.uleb128 0x3
 7827 046d 9A0C0000 		.4byte	.LASF69
 7828 0471 07       		.byte	0x7
 7829 0472 6D       		.byte	0x6d
 7830 0473 F3030000 		.4byte	0x3f3
 7831 0477 0F       		.uleb128 0xf
 7832 0478 0A       		.byte	0xa
 7833 0479 07       		.byte	0x7
 7834 047a 73       		.byte	0x73
 7835 047b C6040000 		.4byte	0x4c6
 7836 047f 10       		.uleb128 0x10
 7837 0480 5F020000 		.4byte	.LASF70
 7838 0484 07       		.byte	0x7
 7839 0485 76       		.byte	0x76
 7840 0486 9C000000 		.4byte	0x9c
 7841 048a 02       		.byte	0x2
 7842 048b 23       		.byte	0x23
 7843 048c 00       		.uleb128 0
 7844 048d 10       		.uleb128 0x10
 7845 048e 62080000 		.4byte	.LASF71
 7846 0492 07       		.byte	0x7
 7847 0493 79       		.byte	0x79
 7848 0494 9C000000 		.4byte	0x9c
 7849 0498 02       		.byte	0x2
 7850 0499 23       		.byte	0x23
 7851 049a 02       		.uleb128 0x2
 7852 049b 10       		.uleb128 0x10
 7853 049c ED010000 		.4byte	.LASF72
 7854 04a0 07       		.byte	0x7
 7855 04a1 7C       		.byte	0x7c
 7856 04a2 9C000000 		.4byte	0x9c
 7857 04a6 02       		.byte	0x2
 7858 04a7 23       		.byte	0x23
 7859 04a8 04       		.uleb128 0x4
 7860 04a9 10       		.uleb128 0x10
 7861 04aa 60070000 		.4byte	.LASF73
 7862 04ae 07       		.byte	0x7
 7863 04af 7F       		.byte	0x7f
 7864 04b0 9C000000 		.4byte	0x9c
 7865 04b4 02       		.byte	0x2
 7866 04b5 23       		.byte	0x23
 7867 04b6 06       		.uleb128 0x6
 7868 04b7 10       		.uleb128 0x10
 7869 04b8 90010000 		.4byte	.LASF74
 7870 04bc 07       		.byte	0x7
 7871 04bd 82       		.byte	0x82
 7872 04be 9C000000 		.4byte	0x9c
 7873 04c2 02       		.byte	0x2
 7874 04c3 23       		.byte	0x23
 7875 04c4 08       		.uleb128 0x8
 7876 04c5 00       		.byte	0
 7877 04c6 03       		.uleb128 0x3
 7878 04c7 DF0A0000 		.4byte	.LASF75
ARM GAS  G:\Users\Jaxb\AppData\Local\Temp\ccSQWSCJ.s 			page 191


 7879 04cb 07       		.byte	0x7
 7880 04cc 84       		.byte	0x84
 7881 04cd 77040000 		.4byte	0x477
 7882 04d1 0F       		.uleb128 0xf
 7883 04d2 0E       		.byte	0xe
 7884 04d3 07       		.byte	0x7
 7885 04d4 8B       		.byte	0x8b
 7886 04d5 3C050000 		.4byte	0x53c
 7887 04d9 10       		.uleb128 0x10
 7888 04da E2050000 		.4byte	.LASF76
 7889 04de 07       		.byte	0x7
 7890 04df 8E       		.byte	0x8e
 7891 04e0 9C000000 		.4byte	0x9c
 7892 04e4 02       		.byte	0x2
 7893 04e5 23       		.byte	0x23
 7894 04e6 00       		.uleb128 0
 7895 04e7 10       		.uleb128 0x10
 7896 04e8 8C090000 		.4byte	.LASF77
 7897 04ec 07       		.byte	0x7
 7898 04ed 91       		.byte	0x91
 7899 04ee 9C000000 		.4byte	0x9c
 7900 04f2 02       		.byte	0x2
 7901 04f3 23       		.byte	0x23
 7902 04f4 02       		.uleb128 0x2
 7903 04f5 10       		.uleb128 0x10
 7904 04f6 F8080000 		.4byte	.LASF78
 7905 04fa 07       		.byte	0x7
 7906 04fb 94       		.byte	0x94
 7907 04fc 9C000000 		.4byte	0x9c
 7908 0500 02       		.byte	0x2
 7909 0501 23       		.byte	0x23
 7910 0502 04       		.uleb128 0x4
 7911 0503 10       		.uleb128 0x10
 7912 0504 29070000 		.4byte	.LASF79
 7913 0508 07       		.byte	0x7
 7914 0509 97       		.byte	0x97
 7915 050a 9C000000 		.4byte	0x9c
 7916 050e 02       		.byte	0x2
 7917 050f 23       		.byte	0x23
 7918 0510 06       		.uleb128 0x6
 7919 0511 10       		.uleb128 0x10
 7920 0512 1F070000 		.4byte	.LASF80
 7921 0516 07       		.byte	0x7
 7922 0517 9B       		.byte	0x9b
 7923 0518 9C000000 		.4byte	0x9c
 7924 051c 02       		.byte	0x2
 7925 051d 23       		.byte	0x23
 7926 051e 08       		.uleb128 0x8
 7927 051f 10       		.uleb128 0x10
 7928 0520 870B0000 		.4byte	.LASF81
 7929 0524 07       		.byte	0x7
 7930 0525 9E       		.byte	0x9e
 7931 0526 9C000000 		.4byte	0x9c
 7932 052a 02       		.byte	0x2
 7933 052b 23       		.byte	0x23
 7934 052c 0A       		.uleb128 0xa
 7935 052d 10       		.uleb128 0x10
ARM GAS  G:\Users\Jaxb\AppData\Local\Temp\ccSQWSCJ.s 			page 192


 7936 052e 1B060000 		.4byte	.LASF82
 7937 0532 07       		.byte	0x7
 7938 0533 A1       		.byte	0xa1
 7939 0534 9C000000 		.4byte	0x9c
 7940 0538 02       		.byte	0x2
 7941 0539 23       		.byte	0x23
 7942 053a 0C       		.uleb128 0xc
 7943 053b 00       		.byte	0
 7944 053c 03       		.uleb128 0x3
 7945 053d B8050000 		.4byte	.LASF83
 7946 0541 07       		.byte	0x7
 7947 0542 A3       		.byte	0xa3
 7948 0543 D1040000 		.4byte	0x4d1
 7949 0547 11       		.uleb128 0x11
 7950 0548 F1040000 		.4byte	.LASF87
 7951 054c 01       		.byte	0x1
 7952 054d 1D0B     		.2byte	0xb1d
 7953 054f 01       		.byte	0x1
 7954 0550 981C0000 		.4byte	.LFB119
 7955 0554 901D0000 		.4byte	.LFE119
 7956 0558 00000000 		.4byte	.LLST90
 7957 055c 01       		.byte	0x1
 7958 055d CB050000 		.4byte	0x5cb
 7959 0561 12       		.uleb128 0x12
 7960 0562 F0050000 		.4byte	.LASF84
 7961 0566 01       		.byte	0x1
 7962 0567 1D0B     		.2byte	0xb1d
 7963 0569 CB050000 		.4byte	0x5cb
 7964 056d 02       		.byte	0x2
 7965 056e 91       		.byte	0x91
 7966 056f 6C       		.sleb128 -20
 7967 0570 12       		.uleb128 0x12
 7968 0571 62080000 		.4byte	.LASF71
 7969 0575 01       		.byte	0x1
 7970 0576 1D0B     		.2byte	0xb1d
 7971 0578 9C000000 		.4byte	0x9c
 7972 057c 02       		.byte	0x2
 7973 057d 91       		.byte	0x91
 7974 057e 6A       		.sleb128 -22
 7975 057f 12       		.uleb128 0x12
 7976 0580 ED010000 		.4byte	.LASF72
 7977 0584 01       		.byte	0x1
 7978 0585 1D0B     		.2byte	0xb1d
 7979 0587 9C000000 		.4byte	0x9c
 7980 058b 02       		.byte	0x2
 7981 058c 91       		.byte	0x91
 7982 058d 68       		.sleb128 -24
 7983 058e 12       		.uleb128 0x12
 7984 058f 90010000 		.4byte	.LASF74
 7985 0593 01       		.byte	0x1
 7986 0594 1E0B     		.2byte	0xb1e
 7987 0596 9C000000 		.4byte	0x9c
 7988 059a 02       		.byte	0x2
 7989 059b 91       		.byte	0x91
 7990 059c 66       		.sleb128 -26
 7991 059d 13       		.uleb128 0x13
 7992 059e 2F010000 		.4byte	.LASF85
ARM GAS  G:\Users\Jaxb\AppData\Local\Temp\ccSQWSCJ.s 			page 193


 7993 05a2 01       		.byte	0x1
 7994 05a3 200B     		.2byte	0xb20
 7995 05a5 9C000000 		.4byte	0x9c
 7996 05a9 02       		.byte	0x2
 7997 05aa 91       		.byte	0x91
 7998 05ab 74       		.sleb128 -12
 7999 05ac 13       		.uleb128 0x13
 8000 05ad C5040000 		.4byte	.LASF86
 8001 05b1 01       		.byte	0x1
 8002 05b2 200B     		.2byte	0xb20
 8003 05b4 9C000000 		.4byte	0x9c
 8004 05b8 02       		.byte	0x2
 8005 05b9 91       		.byte	0x91
 8006 05ba 76       		.sleb128 -10
 8007 05bb 14       		.uleb128 0x14
 8008 05bc 746D7000 		.ascii	"tmp\000"
 8009 05c0 01       		.byte	0x1
 8010 05c1 200B     		.2byte	0xb20
 8011 05c3 9C000000 		.4byte	0x9c
 8012 05c7 02       		.byte	0x2
 8013 05c8 91       		.byte	0x91
 8014 05c9 72       		.sleb128 -14
 8015 05ca 00       		.byte	0
 8016 05cb 15       		.uleb128 0x15
 8017 05cc 04       		.byte	0x4
 8018 05cd 8D030000 		.4byte	0x38d
 8019 05d1 11       		.uleb128 0x11
 8020 05d2 6A060000 		.4byte	.LASF88
 8021 05d6 01       		.byte	0x1
 8022 05d7 ED0A     		.2byte	0xaed
 8023 05d9 01       		.byte	0x1
 8024 05da AC1B0000 		.4byte	.LFB118
 8025 05de 981C0000 		.4byte	.LFE118
 8026 05e2 5C000000 		.4byte	.LLST89
 8027 05e6 01       		.byte	0x1
 8028 05e7 55060000 		.4byte	0x655
 8029 05eb 12       		.uleb128 0x12
 8030 05ec F0050000 		.4byte	.LASF84
 8031 05f0 01       		.byte	0x1
 8032 05f1 ED0A     		.2byte	0xaed
 8033 05f3 CB050000 		.4byte	0x5cb
 8034 05f7 02       		.byte	0x2
 8035 05f8 91       		.byte	0x91
 8036 05f9 6C       		.sleb128 -20
 8037 05fa 12       		.uleb128 0x12
 8038 05fb 62080000 		.4byte	.LASF71
 8039 05ff 01       		.byte	0x1
 8040 0600 ED0A     		.2byte	0xaed
 8041 0602 9C000000 		.4byte	0x9c
 8042 0606 02       		.byte	0x2
 8043 0607 91       		.byte	0x91
 8044 0608 6A       		.sleb128 -22
 8045 0609 12       		.uleb128 0x12
 8046 060a ED010000 		.4byte	.LASF72
 8047 060e 01       		.byte	0x1
 8048 060f ED0A     		.2byte	0xaed
 8049 0611 9C000000 		.4byte	0x9c
ARM GAS  G:\Users\Jaxb\AppData\Local\Temp\ccSQWSCJ.s 			page 194


 8050 0615 02       		.byte	0x2
 8051 0616 91       		.byte	0x91
 8052 0617 68       		.sleb128 -24
 8053 0618 12       		.uleb128 0x12
 8054 0619 90010000 		.4byte	.LASF74
 8055 061d 01       		.byte	0x1
 8056 061e EE0A     		.2byte	0xaee
 8057 0620 9C000000 		.4byte	0x9c
 8058 0624 02       		.byte	0x2
 8059 0625 91       		.byte	0x91
 8060 0626 66       		.sleb128 -26
 8061 0627 13       		.uleb128 0x13
 8062 0628 2F010000 		.4byte	.LASF85
 8063 062c 01       		.byte	0x1
 8064 062d F00A     		.2byte	0xaf0
 8065 062f 9C000000 		.4byte	0x9c
 8066 0633 02       		.byte	0x2
 8067 0634 91       		.byte	0x91
 8068 0635 74       		.sleb128 -12
 8069 0636 13       		.uleb128 0x13
 8070 0637 C5040000 		.4byte	.LASF86
 8071 063b 01       		.byte	0x1
 8072 063c F00A     		.2byte	0xaf0
 8073 063e 9C000000 		.4byte	0x9c
 8074 0642 02       		.byte	0x2
 8075 0643 91       		.byte	0x91
 8076 0644 76       		.sleb128 -10
 8077 0645 14       		.uleb128 0x14
 8078 0646 746D7000 		.ascii	"tmp\000"
 8079 064a 01       		.byte	0x1
 8080 064b F00A     		.2byte	0xaf0
 8081 064d 9C000000 		.4byte	0x9c
 8082 0651 02       		.byte	0x2
 8083 0652 91       		.byte	0x91
 8084 0653 72       		.sleb128 -14
 8085 0654 00       		.byte	0
 8086 0655 11       		.uleb128 0x11
 8087 0656 050A0000 		.4byte	.LASF89
 8088 065a 01       		.byte	0x1
 8089 065b BC0A     		.2byte	0xabc
 8090 065d 01       		.byte	0x1
 8091 065e B81A0000 		.4byte	.LFB117
 8092 0662 AC1B0000 		.4byte	.LFE117
 8093 0666 B8000000 		.4byte	.LLST88
 8094 066a 01       		.byte	0x1
 8095 066b D9060000 		.4byte	0x6d9
 8096 066f 12       		.uleb128 0x12
 8097 0670 F0050000 		.4byte	.LASF84
 8098 0674 01       		.byte	0x1
 8099 0675 BC0A     		.2byte	0xabc
 8100 0677 CB050000 		.4byte	0x5cb
 8101 067b 02       		.byte	0x2
 8102 067c 91       		.byte	0x91
 8103 067d 6C       		.sleb128 -20
 8104 067e 12       		.uleb128 0x12
 8105 067f 62080000 		.4byte	.LASF71
 8106 0683 01       		.byte	0x1
ARM GAS  G:\Users\Jaxb\AppData\Local\Temp\ccSQWSCJ.s 			page 195


 8107 0684 BC0A     		.2byte	0xabc
 8108 0686 9C000000 		.4byte	0x9c
 8109 068a 02       		.byte	0x2
 8110 068b 91       		.byte	0x91
 8111 068c 6A       		.sleb128 -22
 8112 068d 12       		.uleb128 0x12
 8113 068e ED010000 		.4byte	.LASF72
 8114 0692 01       		.byte	0x1
 8115 0693 BC0A     		.2byte	0xabc
 8116 0695 9C000000 		.4byte	0x9c
 8117 0699 02       		.byte	0x2
 8118 069a 91       		.byte	0x91
 8119 069b 68       		.sleb128 -24
 8120 069c 12       		.uleb128 0x12
 8121 069d 90010000 		.4byte	.LASF74
 8122 06a1 01       		.byte	0x1
 8123 06a2 BD0A     		.2byte	0xabd
 8124 06a4 9C000000 		.4byte	0x9c
 8125 06a8 02       		.byte	0x2
 8126 06a9 91       		.byte	0x91
 8127 06aa 66       		.sleb128 -26
 8128 06ab 13       		.uleb128 0x13
 8129 06ac 26010000 		.4byte	.LASF90
 8130 06b0 01       		.byte	0x1
 8131 06b1 BF0A     		.2byte	0xabf
 8132 06b3 9C000000 		.4byte	0x9c
 8133 06b7 02       		.byte	0x2
 8134 06b8 91       		.byte	0x91
 8135 06b9 74       		.sleb128 -12
 8136 06ba 13       		.uleb128 0x13
 8137 06bb C5040000 		.4byte	.LASF86
 8138 06bf 01       		.byte	0x1
 8139 06c0 BF0A     		.2byte	0xabf
 8140 06c2 9C000000 		.4byte	0x9c
 8141 06c6 02       		.byte	0x2
 8142 06c7 91       		.byte	0x91
 8143 06c8 76       		.sleb128 -10
 8144 06c9 14       		.uleb128 0x14
 8145 06ca 746D7000 		.ascii	"tmp\000"
 8146 06ce 01       		.byte	0x1
 8147 06cf BF0A     		.2byte	0xabf
 8148 06d1 9C000000 		.4byte	0x9c
 8149 06d5 02       		.byte	0x2
 8150 06d6 91       		.byte	0x91
 8151 06d7 72       		.sleb128 -14
 8152 06d8 00       		.byte	0
 8153 06d9 11       		.uleb128 0x11
 8154 06da 6E0A0000 		.4byte	.LASF91
 8155 06de 01       		.byte	0x1
 8156 06df 8D0A     		.2byte	0xa8d
 8157 06e1 01       		.byte	0x1
 8158 06e2 D8190000 		.4byte	.LFB116
 8159 06e6 B81A0000 		.4byte	.LFE116
 8160 06ea 14010000 		.4byte	.LLST87
 8161 06ee 01       		.byte	0x1
 8162 06ef 4E070000 		.4byte	0x74e
 8163 06f3 12       		.uleb128 0x12
ARM GAS  G:\Users\Jaxb\AppData\Local\Temp\ccSQWSCJ.s 			page 196


 8164 06f4 F0050000 		.4byte	.LASF84
 8165 06f8 01       		.byte	0x1
 8166 06f9 8D0A     		.2byte	0xa8d
 8167 06fb CB050000 		.4byte	0x5cb
 8168 06ff 02       		.byte	0x2
 8169 0700 91       		.byte	0x91
 8170 0701 6C       		.sleb128 -20
 8171 0702 12       		.uleb128 0x12
 8172 0703 62080000 		.4byte	.LASF71
 8173 0707 01       		.byte	0x1
 8174 0708 8D0A     		.2byte	0xa8d
 8175 070a 9C000000 		.4byte	0x9c
 8176 070e 02       		.byte	0x2
 8177 070f 91       		.byte	0x91
 8178 0710 6A       		.sleb128 -22
 8179 0711 12       		.uleb128 0x12
 8180 0712 ED010000 		.4byte	.LASF72
 8181 0716 01       		.byte	0x1
 8182 0717 8D0A     		.2byte	0xa8d
 8183 0719 9C000000 		.4byte	0x9c
 8184 071d 02       		.byte	0x2
 8185 071e 91       		.byte	0x91
 8186 071f 68       		.sleb128 -24
 8187 0720 12       		.uleb128 0x12
 8188 0721 90010000 		.4byte	.LASF74
 8189 0725 01       		.byte	0x1
 8190 0726 8E0A     		.2byte	0xa8e
 8191 0728 9C000000 		.4byte	0x9c
 8192 072c 02       		.byte	0x2
 8193 072d 91       		.byte	0x91
 8194 072e 66       		.sleb128 -26
 8195 072f 13       		.uleb128 0x13
 8196 0730 26010000 		.4byte	.LASF90
 8197 0734 01       		.byte	0x1
 8198 0735 900A     		.2byte	0xa90
 8199 0737 9C000000 		.4byte	0x9c
 8200 073b 02       		.byte	0x2
 8201 073c 91       		.byte	0x91
 8202 073d 74       		.sleb128 -12
 8203 073e 13       		.uleb128 0x13
 8204 073f C5040000 		.4byte	.LASF86
 8205 0743 01       		.byte	0x1
 8206 0744 900A     		.2byte	0xa90
 8207 0746 9C000000 		.4byte	0x9c
 8208 074a 02       		.byte	0x2
 8209 074b 91       		.byte	0x91
 8210 074c 76       		.sleb128 -10
 8211 074d 00       		.byte	0
 8212 074e 16       		.uleb128 0x16
 8213 074f 01       		.byte	0x1
 8214 0750 C90A0000 		.4byte	.LASF96
 8215 0754 01       		.byte	0x1
 8216 0755 740A     		.2byte	0xa74
 8217 0757 01       		.byte	0x1
 8218 0758 B8190000 		.4byte	.LFB115
 8219 075c D8190000 		.4byte	.LFE115
 8220 0760 70010000 		.4byte	.LLST86
ARM GAS  G:\Users\Jaxb\AppData\Local\Temp\ccSQWSCJ.s 			page 197


 8221 0764 01       		.byte	0x1
 8222 0765 88070000 		.4byte	0x788
 8223 0769 12       		.uleb128 0x12
 8224 076a F0050000 		.4byte	.LASF84
 8225 076e 01       		.byte	0x1
 8226 076f 740A     		.2byte	0xa74
 8227 0771 CB050000 		.4byte	0x5cb
 8228 0775 02       		.byte	0x2
 8229 0776 91       		.byte	0x91
 8230 0777 74       		.sleb128 -12
 8231 0778 12       		.uleb128 0x12
 8232 0779 B7090000 		.4byte	.LASF92
 8233 077d 01       		.byte	0x1
 8234 077e 740A     		.2byte	0xa74
 8235 0780 9C000000 		.4byte	0x9c
 8236 0784 02       		.byte	0x2
 8237 0785 91       		.byte	0x91
 8238 0786 72       		.sleb128 -14
 8239 0787 00       		.byte	0
 8240 0788 17       		.uleb128 0x17
 8241 0789 01       		.byte	0x1
 8242 078a DF070000 		.4byte	.LASF99
 8243 078e 01       		.byte	0x1
 8244 078f 480A     		.2byte	0xa48
 8245 0791 01       		.byte	0x1
 8246 0792 F9000000 		.4byte	0xf9
 8247 0796 66190000 		.4byte	.LFB114
 8248 079a B8190000 		.4byte	.LFE114
 8249 079e CC010000 		.4byte	.LLST85
 8250 07a2 01       		.byte	0x1
 8251 07a3 F3070000 		.4byte	0x7f3
 8252 07a7 12       		.uleb128 0x12
 8253 07a8 F0050000 		.4byte	.LASF84
 8254 07ac 01       		.byte	0x1
 8255 07ad 480A     		.2byte	0xa48
 8256 07af CB050000 		.4byte	0x5cb
 8257 07b3 02       		.byte	0x2
 8258 07b4 91       		.byte	0x91
 8259 07b5 6C       		.sleb128 -20
 8260 07b6 12       		.uleb128 0x12
 8261 07b7 B7090000 		.4byte	.LASF92
 8262 07bb 01       		.byte	0x1
 8263 07bc 480A     		.2byte	0xa48
 8264 07be 9C000000 		.4byte	0x9c
 8265 07c2 02       		.byte	0x2
 8266 07c3 91       		.byte	0x91
 8267 07c4 6A       		.sleb128 -22
 8268 07c5 13       		.uleb128 0x13
 8269 07c6 470D0000 		.4byte	.LASF93
 8270 07ca 01       		.byte	0x1
 8271 07cb 4A0A     		.2byte	0xa4a
 8272 07cd F9000000 		.4byte	0xf9
 8273 07d1 02       		.byte	0x2
 8274 07d2 91       		.byte	0x91
 8275 07d3 77       		.sleb128 -9
 8276 07d4 13       		.uleb128 0x13
 8277 07d5 96070000 		.4byte	.LASF94
ARM GAS  G:\Users\Jaxb\AppData\Local\Temp\ccSQWSCJ.s 			page 198


 8278 07d9 01       		.byte	0x1
 8279 07da 4B0A     		.2byte	0xa4b
 8280 07dc 9C000000 		.4byte	0x9c
 8281 07e0 02       		.byte	0x2
 8282 07e1 91       		.byte	0x91
 8283 07e2 74       		.sleb128 -12
 8284 07e3 13       		.uleb128 0x13
 8285 07e4 9A0D0000 		.4byte	.LASF95
 8286 07e8 01       		.byte	0x1
 8287 07e9 4B0A     		.2byte	0xa4b
 8288 07eb 9C000000 		.4byte	0x9c
 8289 07ef 02       		.byte	0x2
 8290 07f0 91       		.byte	0x91
 8291 07f1 72       		.sleb128 -14
 8292 07f2 00       		.byte	0
 8293 07f3 16       		.uleb128 0x16
 8294 07f4 01       		.byte	0x1
 8295 07f5 89040000 		.4byte	.LASF97
 8296 07f9 01       		.byte	0x1
 8297 07fa 280A     		.2byte	0xa28
 8298 07fc 01       		.byte	0x1
 8299 07fd 46190000 		.4byte	.LFB113
 8300 0801 66190000 		.4byte	.LFE113
 8301 0805 28020000 		.4byte	.LLST84
 8302 0809 01       		.byte	0x1
 8303 080a 2D080000 		.4byte	0x82d
 8304 080e 12       		.uleb128 0x12
 8305 080f F0050000 		.4byte	.LASF84
 8306 0813 01       		.byte	0x1
 8307 0814 280A     		.2byte	0xa28
 8308 0816 CB050000 		.4byte	0x5cb
 8309 081a 02       		.byte	0x2
 8310 081b 91       		.byte	0x91
 8311 081c 74       		.sleb128 -12
 8312 081d 12       		.uleb128 0x12
 8313 081e C9000000 		.4byte	.LASF98
 8314 0822 01       		.byte	0x1
 8315 0823 280A     		.2byte	0xa28
 8316 0825 9C000000 		.4byte	0x9c
 8317 0829 02       		.byte	0x2
 8318 082a 91       		.byte	0x91
 8319 082b 72       		.sleb128 -14
 8320 082c 00       		.byte	0
 8321 082d 17       		.uleb128 0x17
 8322 082e 01       		.byte	0x1
 8323 082f A6050000 		.4byte	.LASF100
 8324 0833 01       		.byte	0x1
 8325 0834 FC09     		.2byte	0x9fc
 8326 0836 01       		.byte	0x1
 8327 0837 ED000000 		.4byte	0xed
 8328 083b 10190000 		.4byte	.LFB112
 8329 083f 46190000 		.4byte	.LFE112
 8330 0843 84020000 		.4byte	.LLST83
 8331 0847 01       		.byte	0x1
 8332 0848 7A080000 		.4byte	0x87a
 8333 084c 12       		.uleb128 0x12
 8334 084d F0050000 		.4byte	.LASF84
ARM GAS  G:\Users\Jaxb\AppData\Local\Temp\ccSQWSCJ.s 			page 199


 8335 0851 01       		.byte	0x1
 8336 0852 FC09     		.2byte	0x9fc
 8337 0854 CB050000 		.4byte	0x5cb
 8338 0858 02       		.byte	0x2
 8339 0859 91       		.byte	0x91
 8340 085a 6C       		.sleb128 -20
 8341 085b 12       		.uleb128 0x12
 8342 085c C9000000 		.4byte	.LASF98
 8343 0860 01       		.byte	0x1
 8344 0861 FC09     		.2byte	0x9fc
 8345 0863 9C000000 		.4byte	0x9c
 8346 0867 02       		.byte	0x2
 8347 0868 91       		.byte	0x91
 8348 0869 6A       		.sleb128 -22
 8349 086a 13       		.uleb128 0x13
 8350 086b 470D0000 		.4byte	.LASF93
 8351 086f 01       		.byte	0x1
 8352 0870 FE09     		.2byte	0x9fe
 8353 0872 F9000000 		.4byte	0xf9
 8354 0876 02       		.byte	0x2
 8355 0877 91       		.byte	0x91
 8356 0878 77       		.sleb128 -9
 8357 0879 00       		.byte	0
 8358 087a 17       		.uleb128 0x17
 8359 087b 01       		.byte	0x1
 8360 087c 1D050000 		.4byte	.LASF101
 8361 0880 01       		.byte	0x1
 8362 0881 DA09     		.2byte	0x9da
 8363 0883 01       		.byte	0x1
 8364 0884 9C000000 		.4byte	0x9c
 8365 0888 F8180000 		.4byte	.LFB111
 8366 088c 10190000 		.4byte	.LFE111
 8367 0890 E0020000 		.4byte	.LLST82
 8368 0894 01       		.byte	0x1
 8369 0895 A9080000 		.4byte	0x8a9
 8370 0899 12       		.uleb128 0x12
 8371 089a F0050000 		.4byte	.LASF84
 8372 089e 01       		.byte	0x1
 8373 089f DA09     		.2byte	0x9da
 8374 08a1 CB050000 		.4byte	0x5cb
 8375 08a5 02       		.byte	0x2
 8376 08a6 91       		.byte	0x91
 8377 08a7 74       		.sleb128 -12
 8378 08a8 00       		.byte	0
 8379 08a9 17       		.uleb128 0x17
 8380 08aa 01       		.byte	0x1
 8381 08ab 2E050000 		.4byte	.LASF102
 8382 08af 01       		.byte	0x1
 8383 08b0 CD09     		.2byte	0x9cd
 8384 08b2 01       		.byte	0x1
 8385 08b3 9C000000 		.4byte	0x9c
 8386 08b7 E0180000 		.4byte	.LFB110
 8387 08bb F8180000 		.4byte	.LFE110
 8388 08bf 3C030000 		.4byte	.LLST81
 8389 08c3 01       		.byte	0x1
 8390 08c4 D8080000 		.4byte	0x8d8
 8391 08c8 12       		.uleb128 0x12
ARM GAS  G:\Users\Jaxb\AppData\Local\Temp\ccSQWSCJ.s 			page 200


 8392 08c9 F0050000 		.4byte	.LASF84
 8393 08cd 01       		.byte	0x1
 8394 08ce CD09     		.2byte	0x9cd
 8395 08d0 CB050000 		.4byte	0x5cb
 8396 08d4 02       		.byte	0x2
 8397 08d5 91       		.byte	0x91
 8398 08d6 74       		.sleb128 -12
 8399 08d7 00       		.byte	0
 8400 08d8 17       		.uleb128 0x17
 8401 08d9 01       		.byte	0x1
 8402 08da E6030000 		.4byte	.LASF103
 8403 08de 01       		.byte	0x1
 8404 08df C009     		.2byte	0x9c0
 8405 08e1 01       		.byte	0x1
 8406 08e2 9C000000 		.4byte	0x9c
 8407 08e6 C6180000 		.4byte	.LFB109
 8408 08ea E0180000 		.4byte	.LFE109
 8409 08ee 98030000 		.4byte	.LLST80
 8410 08f2 01       		.byte	0x1
 8411 08f3 07090000 		.4byte	0x907
 8412 08f7 12       		.uleb128 0x12
 8413 08f8 F0050000 		.4byte	.LASF84
 8414 08fc 01       		.byte	0x1
 8415 08fd C009     		.2byte	0x9c0
 8416 08ff CB050000 		.4byte	0x5cb
 8417 0903 02       		.byte	0x2
 8418 0904 91       		.byte	0x91
 8419 0905 74       		.sleb128 -12
 8420 0906 00       		.byte	0
 8421 0907 17       		.uleb128 0x17
 8422 0908 01       		.byte	0x1
 8423 0909 D6030000 		.4byte	.LASF104
 8424 090d 01       		.byte	0x1
 8425 090e B309     		.2byte	0x9b3
 8426 0910 01       		.byte	0x1
 8427 0911 9C000000 		.4byte	0x9c
 8428 0915 AE180000 		.4byte	.LFB108
 8429 0919 C6180000 		.4byte	.LFE108
 8430 091d F4030000 		.4byte	.LLST79
 8431 0921 01       		.byte	0x1
 8432 0922 36090000 		.4byte	0x936
 8433 0926 12       		.uleb128 0x12
 8434 0927 F0050000 		.4byte	.LASF84
 8435 092b 01       		.byte	0x1
 8436 092c B309     		.2byte	0x9b3
 8437 092e CB050000 		.4byte	0x5cb
 8438 0932 02       		.byte	0x2
 8439 0933 91       		.byte	0x91
 8440 0934 74       		.sleb128 -12
 8441 0935 00       		.byte	0
 8442 0936 17       		.uleb128 0x17
 8443 0937 01       		.byte	0x1
 8444 0938 C6030000 		.4byte	.LASF105
 8445 093c 01       		.byte	0x1
 8446 093d A609     		.2byte	0x9a6
 8447 093f 01       		.byte	0x1
 8448 0940 9C000000 		.4byte	0x9c
ARM GAS  G:\Users\Jaxb\AppData\Local\Temp\ccSQWSCJ.s 			page 201


 8449 0944 96180000 		.4byte	.LFB107
 8450 0948 AE180000 		.4byte	.LFE107
 8451 094c 50040000 		.4byte	.LLST78
 8452 0950 01       		.byte	0x1
 8453 0951 65090000 		.4byte	0x965
 8454 0955 12       		.uleb128 0x12
 8455 0956 F0050000 		.4byte	.LASF84
 8456 095a 01       		.byte	0x1
 8457 095b A609     		.2byte	0x9a6
 8458 095d CB050000 		.4byte	0x5cb
 8459 0961 02       		.byte	0x2
 8460 0962 91       		.byte	0x91
 8461 0963 74       		.sleb128 -12
 8462 0964 00       		.byte	0
 8463 0965 17       		.uleb128 0x17
 8464 0966 01       		.byte	0x1
 8465 0967 54050000 		.4byte	.LASF106
 8466 096b 01       		.byte	0x1
 8467 096c 9909     		.2byte	0x999
 8468 096e 01       		.byte	0x1
 8469 096f 9C000000 		.4byte	0x9c
 8470 0973 7E180000 		.4byte	.LFB106
 8471 0977 96180000 		.4byte	.LFE106
 8472 097b AC040000 		.4byte	.LLST77
 8473 097f 01       		.byte	0x1
 8474 0980 94090000 		.4byte	0x994
 8475 0984 12       		.uleb128 0x12
 8476 0985 F0050000 		.4byte	.LASF84
 8477 0989 01       		.byte	0x1
 8478 098a 9909     		.2byte	0x999
 8479 098c CB050000 		.4byte	0x5cb
 8480 0990 02       		.byte	0x2
 8481 0991 91       		.byte	0x91
 8482 0992 74       		.sleb128 -12
 8483 0993 00       		.byte	0
 8484 0994 16       		.uleb128 0x16
 8485 0995 01       		.byte	0x1
 8486 0996 14080000 		.4byte	.LASF107
 8487 099a 01       		.byte	0x1
 8488 099b 8909     		.2byte	0x989
 8489 099d 01       		.byte	0x1
 8490 099e 48180000 		.4byte	.LFB105
 8491 09a2 7E180000 		.4byte	.LFE105
 8492 09a6 08050000 		.4byte	.LLST76
 8493 09aa 01       		.byte	0x1
 8494 09ab CE090000 		.4byte	0x9ce
 8495 09af 12       		.uleb128 0x12
 8496 09b0 F0050000 		.4byte	.LASF84
 8497 09b4 01       		.byte	0x1
 8498 09b5 8909     		.2byte	0x989
 8499 09b7 CB050000 		.4byte	0x5cb
 8500 09bb 02       		.byte	0x2
 8501 09bc 91       		.byte	0x91
 8502 09bd 74       		.sleb128 -12
 8503 09be 12       		.uleb128 0x12
 8504 09bf 9B030000 		.4byte	.LASF108
 8505 09c3 01       		.byte	0x1
ARM GAS  G:\Users\Jaxb\AppData\Local\Temp\ccSQWSCJ.s 			page 202


 8506 09c4 8909     		.2byte	0x989
 8507 09c6 9C000000 		.4byte	0x9c
 8508 09ca 02       		.byte	0x2
 8509 09cb 91       		.byte	0x91
 8510 09cc 72       		.sleb128 -14
 8511 09cd 00       		.byte	0
 8512 09ce 16       		.uleb128 0x16
 8513 09cf 01       		.byte	0x1
 8514 09d0 ED0D0000 		.4byte	.LASF109
 8515 09d4 01       		.byte	0x1
 8516 09d5 7309     		.2byte	0x973
 8517 09d7 01       		.byte	0x1
 8518 09d8 0E180000 		.4byte	.LFB104
 8519 09dc 48180000 		.4byte	.LFE104
 8520 09e0 64050000 		.4byte	.LLST75
 8521 09e4 01       		.byte	0x1
 8522 09e5 080A0000 		.4byte	0xa08
 8523 09e9 12       		.uleb128 0x12
 8524 09ea F0050000 		.4byte	.LASF84
 8525 09ee 01       		.byte	0x1
 8526 09ef 7309     		.2byte	0x973
 8527 09f1 CB050000 		.4byte	0x5cb
 8528 09f5 02       		.byte	0x2
 8529 09f6 91       		.byte	0x91
 8530 09f7 74       		.sleb128 -12
 8531 09f8 12       		.uleb128 0x12
 8532 09f9 A30D0000 		.4byte	.LASF110
 8533 09fd 01       		.byte	0x1
 8534 09fe 7309     		.2byte	0x973
 8535 0a00 9C000000 		.4byte	0x9c
 8536 0a04 02       		.byte	0x2
 8537 0a05 91       		.byte	0x91
 8538 0a06 72       		.sleb128 -14
 8539 0a07 00       		.byte	0
 8540 0a08 16       		.uleb128 0x16
 8541 0a09 01       		.byte	0x1
 8542 0a0a 860A0000 		.4byte	.LASF111
 8543 0a0e 01       		.byte	0x1
 8544 0a0f 5D09     		.2byte	0x95d
 8545 0a11 01       		.byte	0x1
 8546 0a12 D8170000 		.4byte	.LFB103
 8547 0a16 0E180000 		.4byte	.LFE103
 8548 0a1a C0050000 		.4byte	.LLST74
 8549 0a1e 01       		.byte	0x1
 8550 0a1f 420A0000 		.4byte	0xa42
 8551 0a23 12       		.uleb128 0x12
 8552 0a24 F0050000 		.4byte	.LASF84
 8553 0a28 01       		.byte	0x1
 8554 0a29 5D09     		.2byte	0x95d
 8555 0a2b CB050000 		.4byte	0x5cb
 8556 0a2f 02       		.byte	0x2
 8557 0a30 91       		.byte	0x91
 8558 0a31 74       		.sleb128 -12
 8559 0a32 12       		.uleb128 0x12
 8560 0a33 A30D0000 		.4byte	.LASF110
 8561 0a37 01       		.byte	0x1
 8562 0a38 5D09     		.2byte	0x95d
ARM GAS  G:\Users\Jaxb\AppData\Local\Temp\ccSQWSCJ.s 			page 203


 8563 0a3a 9C000000 		.4byte	0x9c
 8564 0a3e 02       		.byte	0x2
 8565 0a3f 91       		.byte	0x91
 8566 0a40 72       		.sleb128 -14
 8567 0a41 00       		.byte	0
 8568 0a42 16       		.uleb128 0x16
 8569 0a43 01       		.byte	0x1
 8570 0a44 31090000 		.4byte	.LASF112
 8571 0a48 01       		.byte	0x1
 8572 0a49 4709     		.2byte	0x947
 8573 0a4b 01       		.byte	0x1
 8574 0a4c 9E170000 		.4byte	.LFB102
 8575 0a50 D8170000 		.4byte	.LFE102
 8576 0a54 1C060000 		.4byte	.LLST73
 8577 0a58 01       		.byte	0x1
 8578 0a59 7C0A0000 		.4byte	0xa7c
 8579 0a5d 12       		.uleb128 0x12
 8580 0a5e F0050000 		.4byte	.LASF84
 8581 0a62 01       		.byte	0x1
 8582 0a63 4709     		.2byte	0x947
 8583 0a65 CB050000 		.4byte	0x5cb
 8584 0a69 02       		.byte	0x2
 8585 0a6a 91       		.byte	0x91
 8586 0a6b 74       		.sleb128 -12
 8587 0a6c 12       		.uleb128 0x12
 8588 0a6d A30D0000 		.4byte	.LASF110
 8589 0a71 01       		.byte	0x1
 8590 0a72 4709     		.2byte	0x947
 8591 0a74 9C000000 		.4byte	0x9c
 8592 0a78 02       		.byte	0x2
 8593 0a79 91       		.byte	0x91
 8594 0a7a 72       		.sleb128 -14
 8595 0a7b 00       		.byte	0
 8596 0a7c 16       		.uleb128 0x16
 8597 0a7d 01       		.byte	0x1
 8598 0a7e 47060000 		.4byte	.LASF113
 8599 0a82 01       		.byte	0x1
 8600 0a83 3109     		.2byte	0x931
 8601 0a85 01       		.byte	0x1
 8602 0a86 68170000 		.4byte	.LFB101
 8603 0a8a 9E170000 		.4byte	.LFE101
 8604 0a8e 78060000 		.4byte	.LLST72
 8605 0a92 01       		.byte	0x1
 8606 0a93 B60A0000 		.4byte	0xab6
 8607 0a97 12       		.uleb128 0x12
 8608 0a98 F0050000 		.4byte	.LASF84
 8609 0a9c 01       		.byte	0x1
 8610 0a9d 3109     		.2byte	0x931
 8611 0a9f CB050000 		.4byte	0x5cb
 8612 0aa3 02       		.byte	0x2
 8613 0aa4 91       		.byte	0x91
 8614 0aa5 74       		.sleb128 -12
 8615 0aa6 12       		.uleb128 0x12
 8616 0aa7 A30D0000 		.4byte	.LASF110
 8617 0aab 01       		.byte	0x1
 8618 0aac 3109     		.2byte	0x931
 8619 0aae 9C000000 		.4byte	0x9c
ARM GAS  G:\Users\Jaxb\AppData\Local\Temp\ccSQWSCJ.s 			page 204


 8620 0ab2 02       		.byte	0x2
 8621 0ab3 91       		.byte	0x91
 8622 0ab4 72       		.sleb128 -14
 8623 0ab5 00       		.byte	0
 8624 0ab6 16       		.uleb128 0x16
 8625 0ab7 01       		.byte	0x1
 8626 0ab8 CF070000 		.4byte	.LASF114
 8627 0abc 01       		.byte	0x1
 8628 0abd 1E09     		.2byte	0x91e
 8629 0abf 01       		.byte	0x1
 8630 0ac0 4A170000 		.4byte	.LFB100
 8631 0ac4 68170000 		.4byte	.LFE100
 8632 0ac8 D4060000 		.4byte	.LLST71
 8633 0acc 01       		.byte	0x1
 8634 0acd F00A0000 		.4byte	0xaf0
 8635 0ad1 12       		.uleb128 0x12
 8636 0ad2 F0050000 		.4byte	.LASF84
 8637 0ad6 01       		.byte	0x1
 8638 0ad7 1E09     		.2byte	0x91e
 8639 0ad9 CB050000 		.4byte	0x5cb
 8640 0add 02       		.byte	0x2
 8641 0ade 91       		.byte	0x91
 8642 0adf 74       		.sleb128 -12
 8643 0ae0 12       		.uleb128 0x12
 8644 0ae1 7C070000 		.4byte	.LASF115
 8645 0ae5 01       		.byte	0x1
 8646 0ae6 1E09     		.2byte	0x91e
 8647 0ae8 9C000000 		.4byte	0x9c
 8648 0aec 02       		.byte	0x2
 8649 0aed 91       		.byte	0x91
 8650 0aee 72       		.sleb128 -14
 8651 0aef 00       		.byte	0
 8652 0af0 16       		.uleb128 0x16
 8653 0af1 01       		.byte	0x1
 8654 0af2 A7040000 		.4byte	.LASF116
 8655 0af6 01       		.byte	0x1
 8656 0af7 1009     		.2byte	0x910
 8657 0af9 01       		.byte	0x1
 8658 0afa 2E170000 		.4byte	.LFB99
 8659 0afe 4A170000 		.4byte	.LFE99
 8660 0b02 30070000 		.4byte	.LLST70
 8661 0b06 01       		.byte	0x1
 8662 0b07 2A0B0000 		.4byte	0xb2a
 8663 0b0b 12       		.uleb128 0x12
 8664 0b0c F0050000 		.4byte	.LASF84
 8665 0b10 01       		.byte	0x1
 8666 0b11 1009     		.2byte	0x910
 8667 0b13 CB050000 		.4byte	0x5cb
 8668 0b17 02       		.byte	0x2
 8669 0b18 91       		.byte	0x91
 8670 0b19 74       		.sleb128 -12
 8671 0b1a 12       		.uleb128 0x12
 8672 0b1b 13010000 		.4byte	.LASF117
 8673 0b1f 01       		.byte	0x1
 8674 0b20 1009     		.2byte	0x910
 8675 0b22 9C000000 		.4byte	0x9c
 8676 0b26 02       		.byte	0x2
ARM GAS  G:\Users\Jaxb\AppData\Local\Temp\ccSQWSCJ.s 			page 205


 8677 0b27 91       		.byte	0x91
 8678 0b28 72       		.sleb128 -14
 8679 0b29 00       		.byte	0
 8680 0b2a 16       		.uleb128 0x16
 8681 0b2b 01       		.byte	0x1
 8682 0b2c 97040000 		.4byte	.LASF118
 8683 0b30 01       		.byte	0x1
 8684 0b31 0209     		.2byte	0x902
 8685 0b33 01       		.byte	0x1
 8686 0b34 12170000 		.4byte	.LFB98
 8687 0b38 2E170000 		.4byte	.LFE98
 8688 0b3c 8C070000 		.4byte	.LLST69
 8689 0b40 01       		.byte	0x1
 8690 0b41 640B0000 		.4byte	0xb64
 8691 0b45 12       		.uleb128 0x12
 8692 0b46 F0050000 		.4byte	.LASF84
 8693 0b4a 01       		.byte	0x1
 8694 0b4b 0209     		.2byte	0x902
 8695 0b4d CB050000 		.4byte	0x5cb
 8696 0b51 02       		.byte	0x2
 8697 0b52 91       		.byte	0x91
 8698 0b53 74       		.sleb128 -12
 8699 0b54 12       		.uleb128 0x12
 8700 0b55 39080000 		.4byte	.LASF119
 8701 0b59 01       		.byte	0x1
 8702 0b5a 0209     		.2byte	0x902
 8703 0b5c 9C000000 		.4byte	0x9c
 8704 0b60 02       		.byte	0x2
 8705 0b61 91       		.byte	0x91
 8706 0b62 72       		.sleb128 -14
 8707 0b63 00       		.byte	0
 8708 0b64 16       		.uleb128 0x16
 8709 0b65 01       		.byte	0x1
 8710 0b66 DB000000 		.4byte	.LASF120
 8711 0b6a 01       		.byte	0x1
 8712 0b6b F408     		.2byte	0x8f4
 8713 0b6d 01       		.byte	0x1
 8714 0b6e F6160000 		.4byte	.LFB97
 8715 0b72 12170000 		.4byte	.LFE97
 8716 0b76 E8070000 		.4byte	.LLST68
 8717 0b7a 01       		.byte	0x1
 8718 0b7b 9E0B0000 		.4byte	0xb9e
 8719 0b7f 12       		.uleb128 0x12
 8720 0b80 F0050000 		.4byte	.LASF84
 8721 0b84 01       		.byte	0x1
 8722 0b85 F408     		.2byte	0x8f4
 8723 0b87 CB050000 		.4byte	0x5cb
 8724 0b8b 02       		.byte	0x2
 8725 0b8c 91       		.byte	0x91
 8726 0b8d 74       		.sleb128 -12
 8727 0b8e 12       		.uleb128 0x12
 8728 0b8f D2000000 		.4byte	.LASF121
 8729 0b93 01       		.byte	0x1
 8730 0b94 F408     		.2byte	0x8f4
 8731 0b96 9C000000 		.4byte	0x9c
 8732 0b9a 02       		.byte	0x2
 8733 0b9b 91       		.byte	0x91
ARM GAS  G:\Users\Jaxb\AppData\Local\Temp\ccSQWSCJ.s 			page 206


 8734 0b9c 72       		.sleb128 -14
 8735 0b9d 00       		.byte	0
 8736 0b9e 16       		.uleb128 0x16
 8737 0b9f 01       		.byte	0x1
 8738 0ba0 A3030000 		.4byte	.LASF122
 8739 0ba4 01       		.byte	0x1
 8740 0ba5 E608     		.2byte	0x8e6
 8741 0ba7 01       		.byte	0x1
 8742 0ba8 DA160000 		.4byte	.LFB96
 8743 0bac F6160000 		.4byte	.LFE96
 8744 0bb0 44080000 		.4byte	.LLST67
 8745 0bb4 01       		.byte	0x1
 8746 0bb5 D80B0000 		.4byte	0xbd8
 8747 0bb9 12       		.uleb128 0x12
 8748 0bba F0050000 		.4byte	.LASF84
 8749 0bbe 01       		.byte	0x1
 8750 0bbf E608     		.2byte	0x8e6
 8751 0bc1 CB050000 		.4byte	0x5cb
 8752 0bc5 02       		.byte	0x2
 8753 0bc6 91       		.byte	0x91
 8754 0bc7 74       		.sleb128 -12
 8755 0bc8 12       		.uleb128 0x12
 8756 0bc9 85000000 		.4byte	.LASF123
 8757 0bcd 01       		.byte	0x1
 8758 0bce E608     		.2byte	0x8e6
 8759 0bd0 9C000000 		.4byte	0x9c
 8760 0bd4 02       		.byte	0x2
 8761 0bd5 91       		.byte	0x91
 8762 0bd6 72       		.sleb128 -14
 8763 0bd7 00       		.byte	0
 8764 0bd8 16       		.uleb128 0x16
 8765 0bd9 01       		.byte	0x1
 8766 0bda AC0C0000 		.4byte	.LASF124
 8767 0bde 01       		.byte	0x1
 8768 0bdf D808     		.2byte	0x8d8
 8769 0be1 01       		.byte	0x1
 8770 0be2 BE160000 		.4byte	.LFB95
 8771 0be6 DA160000 		.4byte	.LFE95
 8772 0bea A0080000 		.4byte	.LLST66
 8773 0bee 01       		.byte	0x1
 8774 0bef 120C0000 		.4byte	0xc12
 8775 0bf3 12       		.uleb128 0x12
 8776 0bf4 F0050000 		.4byte	.LASF84
 8777 0bf8 01       		.byte	0x1
 8778 0bf9 D808     		.2byte	0x8d8
 8779 0bfb CB050000 		.4byte	0x5cb
 8780 0bff 02       		.byte	0x2
 8781 0c00 91       		.byte	0x91
 8782 0c01 74       		.sleb128 -12
 8783 0c02 12       		.uleb128 0x12
 8784 0c03 31080000 		.4byte	.LASF125
 8785 0c07 01       		.byte	0x1
 8786 0c08 D808     		.2byte	0x8d8
 8787 0c0a 9C000000 		.4byte	0x9c
 8788 0c0e 02       		.byte	0x2
 8789 0c0f 91       		.byte	0x91
 8790 0c10 72       		.sleb128 -14
ARM GAS  G:\Users\Jaxb\AppData\Local\Temp\ccSQWSCJ.s 			page 207


 8791 0c11 00       		.byte	0
 8792 0c12 16       		.uleb128 0x16
 8793 0c13 01       		.byte	0x1
 8794 0c14 8C050000 		.4byte	.LASF126
 8795 0c18 01       		.byte	0x1
 8796 0c19 C608     		.2byte	0x8c6
 8797 0c1b 01       		.byte	0x1
 8798 0c1c 88160000 		.4byte	.LFB94
 8799 0c20 BE160000 		.4byte	.LFE94
 8800 0c24 FC080000 		.4byte	.LLST65
 8801 0c28 01       		.byte	0x1
 8802 0c29 4C0C0000 		.4byte	0xc4c
 8803 0c2d 12       		.uleb128 0x12
 8804 0c2e F0050000 		.4byte	.LASF84
 8805 0c32 01       		.byte	0x1
 8806 0c33 C608     		.2byte	0x8c6
 8807 0c35 CB050000 		.4byte	0x5cb
 8808 0c39 02       		.byte	0x2
 8809 0c3a 91       		.byte	0x91
 8810 0c3b 74       		.sleb128 -12
 8811 0c3c 12       		.uleb128 0x12
 8812 0c3d 64050000 		.4byte	.LASF127
 8813 0c41 01       		.byte	0x1
 8814 0c42 C608     		.2byte	0x8c6
 8815 0c44 9C000000 		.4byte	0x9c
 8816 0c48 02       		.byte	0x2
 8817 0c49 91       		.byte	0x91
 8818 0c4a 72       		.sleb128 -14
 8819 0c4b 00       		.byte	0
 8820 0c4c 16       		.uleb128 0x16
 8821 0c4d 01       		.byte	0x1
 8822 0c4e 78050000 		.4byte	.LASF128
 8823 0c52 01       		.byte	0x1
 8824 0c53 B108     		.2byte	0x8b1
 8825 0c55 01       		.byte	0x1
 8826 0c56 52160000 		.4byte	.LFB93
 8827 0c5a 88160000 		.4byte	.LFE93
 8828 0c5e 58090000 		.4byte	.LLST64
 8829 0c62 01       		.byte	0x1
 8830 0c63 860C0000 		.4byte	0xc86
 8831 0c67 12       		.uleb128 0x12
 8832 0c68 F0050000 		.4byte	.LASF84
 8833 0c6c 01       		.byte	0x1
 8834 0c6d B108     		.2byte	0x8b1
 8835 0c6f CB050000 		.4byte	0x5cb
 8836 0c73 02       		.byte	0x2
 8837 0c74 91       		.byte	0x91
 8838 0c75 74       		.sleb128 -12
 8839 0c76 12       		.uleb128 0x12
 8840 0c77 5E0B0000 		.4byte	.LASF129
 8841 0c7b 01       		.byte	0x1
 8842 0c7c B108     		.2byte	0x8b1
 8843 0c7e 9C000000 		.4byte	0x9c
 8844 0c82 02       		.byte	0x2
 8845 0c83 91       		.byte	0x91
 8846 0c84 72       		.sleb128 -14
 8847 0c85 00       		.byte	0
ARM GAS  G:\Users\Jaxb\AppData\Local\Temp\ccSQWSCJ.s 			page 208


 8848 0c86 16       		.uleb128 0x16
 8849 0c87 01       		.byte	0x1
 8850 0c88 2F060000 		.4byte	.LASF130
 8851 0c8c 01       		.byte	0x1
 8852 0c8d 9A08     		.2byte	0x89a
 8853 0c8f 01       		.byte	0x1
 8854 0c90 1C160000 		.4byte	.LFB92
 8855 0c94 52160000 		.4byte	.LFE92
 8856 0c98 B4090000 		.4byte	.LLST63
 8857 0c9c 01       		.byte	0x1
 8858 0c9d C00C0000 		.4byte	0xcc0
 8859 0ca1 12       		.uleb128 0x12
 8860 0ca2 F0050000 		.4byte	.LASF84
 8861 0ca6 01       		.byte	0x1
 8862 0ca7 9A08     		.2byte	0x89a
 8863 0ca9 CB050000 		.4byte	0x5cb
 8864 0cad 02       		.byte	0x2
 8865 0cae 91       		.byte	0x91
 8866 0caf 74       		.sleb128 -12
 8867 0cb0 12       		.uleb128 0x12
 8868 0cb1 66000000 		.4byte	.LASF131
 8869 0cb5 01       		.byte	0x1
 8870 0cb6 9A08     		.2byte	0x89a
 8871 0cb8 9C000000 		.4byte	0x9c
 8872 0cbc 02       		.byte	0x2
 8873 0cbd 91       		.byte	0x91
 8874 0cbe 72       		.sleb128 -14
 8875 0cbf 00       		.byte	0
 8876 0cc0 16       		.uleb128 0x16
 8877 0cc1 01       		.byte	0x1
 8878 0cc2 28000000 		.4byte	.LASF132
 8879 0cc6 01       		.byte	0x1
 8880 0cc7 7A08     		.2byte	0x87a
 8881 0cc9 01       		.byte	0x1
 8882 0cca E6150000 		.4byte	.LFB91
 8883 0cce 1C160000 		.4byte	.LFE91
 8884 0cd2 100A0000 		.4byte	.LLST62
 8885 0cd6 01       		.byte	0x1
 8886 0cd7 FA0C0000 		.4byte	0xcfa
 8887 0cdb 12       		.uleb128 0x12
 8888 0cdc F0050000 		.4byte	.LASF84
 8889 0ce0 01       		.byte	0x1
 8890 0ce1 7A08     		.2byte	0x87a
 8891 0ce3 CB050000 		.4byte	0x5cb
 8892 0ce7 02       		.byte	0x2
 8893 0ce8 91       		.byte	0x91
 8894 0ce9 74       		.sleb128 -12
 8895 0cea 12       		.uleb128 0x12
 8896 0ceb 00000000 		.4byte	.LASF133
 8897 0cef 01       		.byte	0x1
 8898 0cf0 7A08     		.2byte	0x87a
 8899 0cf2 9C000000 		.4byte	0x9c
 8900 0cf6 02       		.byte	0x2
 8901 0cf7 91       		.byte	0x91
 8902 0cf8 72       		.sleb128 -14
 8903 0cf9 00       		.byte	0
 8904 0cfa 16       		.uleb128 0x16
ARM GAS  G:\Users\Jaxb\AppData\Local\Temp\ccSQWSCJ.s 			page 209


 8905 0cfb 01       		.byte	0x1
 8906 0cfc 320D0000 		.4byte	.LASF134
 8907 0d00 01       		.byte	0x1
 8908 0d01 6008     		.2byte	0x860
 8909 0d03 01       		.byte	0x1
 8910 0d04 A8150000 		.4byte	.LFB90
 8911 0d08 E6150000 		.4byte	.LFE90
 8912 0d0c 6C0A0000 		.4byte	.LLST61
 8913 0d10 01       		.byte	0x1
 8914 0d11 340D0000 		.4byte	0xd34
 8915 0d15 12       		.uleb128 0x12
 8916 0d16 F0050000 		.4byte	.LASF84
 8917 0d1a 01       		.byte	0x1
 8918 0d1b 6008     		.2byte	0x860
 8919 0d1d CB050000 		.4byte	0x5cb
 8920 0d21 02       		.byte	0x2
 8921 0d22 91       		.byte	0x91
 8922 0d23 74       		.sleb128 -12
 8923 0d24 12       		.uleb128 0x12
 8924 0d25 0B000000 		.4byte	.LASF135
 8925 0d29 01       		.byte	0x1
 8926 0d2a 6008     		.2byte	0x860
 8927 0d2c 20010000 		.4byte	0x120
 8928 0d30 02       		.byte	0x2
 8929 0d31 91       		.byte	0x91
 8930 0d32 73       		.sleb128 -13
 8931 0d33 00       		.byte	0
 8932 0d34 16       		.uleb128 0x16
 8933 0d35 01       		.byte	0x1
 8934 0d36 170B0000 		.4byte	.LASF136
 8935 0d3a 01       		.byte	0x1
 8936 0d3b 4808     		.2byte	0x848
 8937 0d3d 01       		.byte	0x1
 8938 0d3e 6A150000 		.4byte	.LFB89
 8939 0d42 A8150000 		.4byte	.LFE89
 8940 0d46 C80A0000 		.4byte	.LLST60
 8941 0d4a 01       		.byte	0x1
 8942 0d4b 6E0D0000 		.4byte	0xd6e
 8943 0d4f 12       		.uleb128 0x12
 8944 0d50 F0050000 		.4byte	.LASF84
 8945 0d54 01       		.byte	0x1
 8946 0d55 4808     		.2byte	0x848
 8947 0d57 CB050000 		.4byte	0x5cb
 8948 0d5b 02       		.byte	0x2
 8949 0d5c 91       		.byte	0x91
 8950 0d5d 74       		.sleb128 -12
 8951 0d5e 12       		.uleb128 0x12
 8952 0d5f 15040000 		.4byte	.LASF137
 8953 0d63 01       		.byte	0x1
 8954 0d64 4808     		.2byte	0x848
 8955 0d66 9C000000 		.4byte	0x9c
 8956 0d6a 02       		.byte	0x2
 8957 0d6b 91       		.byte	0x91
 8958 0d6c 72       		.sleb128 -14
 8959 0d6d 00       		.byte	0
 8960 0d6e 16       		.uleb128 0x16
 8961 0d6f 01       		.byte	0x1
ARM GAS  G:\Users\Jaxb\AppData\Local\Temp\ccSQWSCJ.s 			page 210


 8962 0d70 FB000000 		.4byte	.LASF138
 8963 0d74 01       		.byte	0x1
 8964 0d75 2C08     		.2byte	0x82c
 8965 0d77 01       		.byte	0x1
 8966 0d78 2C150000 		.4byte	.LFB88
 8967 0d7c 6A150000 		.4byte	.LFE88
 8968 0d80 240B0000 		.4byte	.LLST59
 8969 0d84 01       		.byte	0x1
 8970 0d85 A80D0000 		.4byte	0xda8
 8971 0d89 12       		.uleb128 0x12
 8972 0d8a F0050000 		.4byte	.LASF84
 8973 0d8e 01       		.byte	0x1
 8974 0d8f 2C08     		.2byte	0x82c
 8975 0d91 CB050000 		.4byte	0x5cb
 8976 0d95 02       		.byte	0x2
 8977 0d96 91       		.byte	0x91
 8978 0d97 74       		.sleb128 -12
 8979 0d98 12       		.uleb128 0x12
 8980 0d99 0B000000 		.4byte	.LASF135
 8981 0d9d 01       		.byte	0x1
 8982 0d9e 2C08     		.2byte	0x82c
 8983 0da0 20010000 		.4byte	0x120
 8984 0da4 02       		.byte	0x2
 8985 0da5 91       		.byte	0x91
 8986 0da6 73       		.sleb128 -13
 8987 0da7 00       		.byte	0
 8988 0da8 16       		.uleb128 0x16
 8989 0da9 01       		.byte	0x1
 8990 0daa 080B0000 		.4byte	.LASF139
 8991 0dae 01       		.byte	0x1
 8992 0daf FD07     		.2byte	0x7fd
 8993 0db1 01       		.byte	0x1
 8994 0db2 7E140000 		.4byte	.LFB87
 8995 0db6 2C150000 		.4byte	.LFE87
 8996 0dba 800B0000 		.4byte	.LLST58
 8997 0dbe 01       		.byte	0x1
 8998 0dbf 0F0E0000 		.4byte	0xe0f
 8999 0dc3 12       		.uleb128 0x12
 9000 0dc4 F0050000 		.4byte	.LASF84
 9001 0dc8 01       		.byte	0x1
 9002 0dc9 FD07     		.2byte	0x7fd
 9003 0dcb CB050000 		.4byte	0x5cb
 9004 0dcf 02       		.byte	0x2
 9005 0dd0 91       		.byte	0x91
 9006 0dd1 6C       		.sleb128 -20
 9007 0dd2 12       		.uleb128 0x12
 9008 0dd3 5F020000 		.4byte	.LASF70
 9009 0dd7 01       		.byte	0x1
 9010 0dd8 FD07     		.2byte	0x7fd
 9011 0dda 9C000000 		.4byte	0x9c
 9012 0dde 02       		.byte	0x2
 9013 0ddf 91       		.byte	0x91
 9014 0de0 6A       		.sleb128 -22
 9015 0de1 12       		.uleb128 0x12
 9016 0de2 6C0B0000 		.4byte	.LASF61
 9017 0de6 01       		.byte	0x1
 9018 0de7 FD07     		.2byte	0x7fd
ARM GAS  G:\Users\Jaxb\AppData\Local\Temp\ccSQWSCJ.s 			page 211


 9019 0de9 9C000000 		.4byte	0x9c
 9020 0ded 02       		.byte	0x2
 9021 0dee 91       		.byte	0x91
 9022 0def 68       		.sleb128 -24
 9023 0df0 14       		.uleb128 0x14
 9024 0df1 746D7000 		.ascii	"tmp\000"
 9025 0df5 01       		.byte	0x1
 9026 0df6 FF07     		.2byte	0x7ff
 9027 0df8 AC000000 		.4byte	0xac
 9028 0dfc 02       		.byte	0x2
 9029 0dfd 91       		.byte	0x91
 9030 0dfe 74       		.sleb128 -12
 9031 0dff 13       		.uleb128 0x13
 9032 0e00 FD010000 		.4byte	.LASF140
 9033 0e04 01       		.byte	0x1
 9034 0e05 0008     		.2byte	0x800
 9035 0e07 9C000000 		.4byte	0x9c
 9036 0e0b 02       		.byte	0x2
 9037 0e0c 91       		.byte	0x91
 9038 0e0d 72       		.sleb128 -14
 9039 0e0e 00       		.byte	0
 9040 0e0f 16       		.uleb128 0x16
 9041 0e10 01       		.byte	0x1
 9042 0e11 70070000 		.4byte	.LASF141
 9043 0e15 01       		.byte	0x1
 9044 0e16 D407     		.2byte	0x7d4
 9045 0e18 01       		.byte	0x1
 9046 0e19 2A140000 		.4byte	.LFB86
 9047 0e1d 7E140000 		.4byte	.LFE86
 9048 0e21 DC0B0000 		.4byte	.LLST57
 9049 0e25 01       		.byte	0x1
 9050 0e26 670E0000 		.4byte	0xe67
 9051 0e2a 12       		.uleb128 0x12
 9052 0e2b F0050000 		.4byte	.LASF84
 9053 0e2f 01       		.byte	0x1
 9054 0e30 D407     		.2byte	0x7d4
 9055 0e32 CB050000 		.4byte	0x5cb
 9056 0e36 02       		.byte	0x2
 9057 0e37 91       		.byte	0x91
 9058 0e38 6C       		.sleb128 -20
 9059 0e39 12       		.uleb128 0x12
 9060 0e3a 5F020000 		.4byte	.LASF70
 9061 0e3e 01       		.byte	0x1
 9062 0e3f D407     		.2byte	0x7d4
 9063 0e41 9C000000 		.4byte	0x9c
 9064 0e45 02       		.byte	0x2
 9065 0e46 91       		.byte	0x91
 9066 0e47 6A       		.sleb128 -22
 9067 0e48 12       		.uleb128 0x12
 9068 0e49 26040000 		.4byte	.LASF142
 9069 0e4d 01       		.byte	0x1
 9070 0e4e D407     		.2byte	0x7d4
 9071 0e50 9C000000 		.4byte	0x9c
 9072 0e54 02       		.byte	0x2
 9073 0e55 91       		.byte	0x91
 9074 0e56 68       		.sleb128 -24
 9075 0e57 14       		.uleb128 0x14
ARM GAS  G:\Users\Jaxb\AppData\Local\Temp\ccSQWSCJ.s 			page 212


 9076 0e58 746D7000 		.ascii	"tmp\000"
 9077 0e5c 01       		.byte	0x1
 9078 0e5d D607     		.2byte	0x7d6
 9079 0e5f 9C000000 		.4byte	0x9c
 9080 0e63 02       		.byte	0x2
 9081 0e64 91       		.byte	0x91
 9082 0e65 76       		.sleb128 -10
 9083 0e66 00       		.byte	0
 9084 0e67 16       		.uleb128 0x16
 9085 0e68 01       		.byte	0x1
 9086 0e69 AA020000 		.4byte	.LASF143
 9087 0e6d 01       		.byte	0x1
 9088 0e6e B607     		.2byte	0x7b6
 9089 0e70 01       		.byte	0x1
 9090 0e71 D6130000 		.4byte	.LFB85
 9091 0e75 2A140000 		.4byte	.LFE85
 9092 0e79 380C0000 		.4byte	.LLST56
 9093 0e7d 01       		.byte	0x1
 9094 0e7e BF0E0000 		.4byte	0xebf
 9095 0e82 12       		.uleb128 0x12
 9096 0e83 F0050000 		.4byte	.LASF84
 9097 0e87 01       		.byte	0x1
 9098 0e88 B607     		.2byte	0x7b6
 9099 0e8a CB050000 		.4byte	0x5cb
 9100 0e8e 02       		.byte	0x2
 9101 0e8f 91       		.byte	0x91
 9102 0e90 6C       		.sleb128 -20
 9103 0e91 12       		.uleb128 0x12
 9104 0e92 5F020000 		.4byte	.LASF70
 9105 0e96 01       		.byte	0x1
 9106 0e97 B607     		.2byte	0x7b6
 9107 0e99 9C000000 		.4byte	0x9c
 9108 0e9d 02       		.byte	0x2
 9109 0e9e 91       		.byte	0x91
 9110 0e9f 6A       		.sleb128 -22
 9111 0ea0 12       		.uleb128 0x12
 9112 0ea1 29080000 		.4byte	.LASF144
 9113 0ea5 01       		.byte	0x1
 9114 0ea6 B607     		.2byte	0x7b6
 9115 0ea8 9C000000 		.4byte	0x9c
 9116 0eac 02       		.byte	0x2
 9117 0ead 91       		.byte	0x91
 9118 0eae 68       		.sleb128 -24
 9119 0eaf 14       		.uleb128 0x14
 9120 0eb0 746D7000 		.ascii	"tmp\000"
 9121 0eb4 01       		.byte	0x1
 9122 0eb5 B807     		.2byte	0x7b8
 9123 0eb7 9C000000 		.4byte	0x9c
 9124 0ebb 02       		.byte	0x2
 9125 0ebc 91       		.byte	0x91
 9126 0ebd 76       		.sleb128 -10
 9127 0ebe 00       		.byte	0
 9128 0ebf 16       		.uleb128 0x16
 9129 0ec0 01       		.byte	0x1
 9130 0ec1 05060000 		.4byte	.LASF145
 9131 0ec5 01       		.byte	0x1
 9132 0ec6 9B07     		.2byte	0x79b
ARM GAS  G:\Users\Jaxb\AppData\Local\Temp\ccSQWSCJ.s 			page 213


 9133 0ec8 01       		.byte	0x1
 9134 0ec9 9C130000 		.4byte	.LFB84
 9135 0ecd D6130000 		.4byte	.LFE84
 9136 0ed1 940C0000 		.4byte	.LLST55
 9137 0ed5 01       		.byte	0x1
 9138 0ed6 080F0000 		.4byte	0xf08
 9139 0eda 12       		.uleb128 0x12
 9140 0edb F0050000 		.4byte	.LASF84
 9141 0edf 01       		.byte	0x1
 9142 0ee0 9B07     		.2byte	0x79b
 9143 0ee2 CB050000 		.4byte	0x5cb
 9144 0ee6 02       		.byte	0x2
 9145 0ee7 91       		.byte	0x91
 9146 0ee8 6C       		.sleb128 -20
 9147 0ee9 12       		.uleb128 0x12
 9148 0eea FC040000 		.4byte	.LASF65
 9149 0eee 01       		.byte	0x1
 9150 0eef 9B07     		.2byte	0x79b
 9151 0ef1 9C000000 		.4byte	0x9c
 9152 0ef5 02       		.byte	0x2
 9153 0ef6 91       		.byte	0x91
 9154 0ef7 6A       		.sleb128 -22
 9155 0ef8 13       		.uleb128 0x13
 9156 0ef9 C5040000 		.4byte	.LASF86
 9157 0efd 01       		.byte	0x1
 9158 0efe 9D07     		.2byte	0x79d
 9159 0f00 9C000000 		.4byte	0x9c
 9160 0f04 02       		.byte	0x2
 9161 0f05 91       		.byte	0x91
 9162 0f06 76       		.sleb128 -10
 9163 0f07 00       		.byte	0
 9164 0f08 16       		.uleb128 0x16
 9165 0f09 01       		.byte	0x1
 9166 0f0a 75090000 		.4byte	.LASF146
 9167 0f0e 01       		.byte	0x1
 9168 0f0f 8207     		.2byte	0x782
 9169 0f11 01       		.byte	0x1
 9170 0f12 62130000 		.4byte	.LFB83
 9171 0f16 9C130000 		.4byte	.LFE83
 9172 0f1a F00C0000 		.4byte	.LLST54
 9173 0f1e 01       		.byte	0x1
 9174 0f1f 510F0000 		.4byte	0xf51
 9175 0f23 12       		.uleb128 0x12
 9176 0f24 F0050000 		.4byte	.LASF84
 9177 0f28 01       		.byte	0x1
 9178 0f29 8207     		.2byte	0x782
 9179 0f2b CB050000 		.4byte	0x5cb
 9180 0f2f 02       		.byte	0x2
 9181 0f30 91       		.byte	0x91
 9182 0f31 6C       		.sleb128 -20
 9183 0f32 12       		.uleb128 0x12
 9184 0f33 460A0000 		.4byte	.LASF66
 9185 0f37 01       		.byte	0x1
 9186 0f38 8207     		.2byte	0x782
 9187 0f3a 9C000000 		.4byte	0x9c
 9188 0f3e 02       		.byte	0x2
 9189 0f3f 91       		.byte	0x91
ARM GAS  G:\Users\Jaxb\AppData\Local\Temp\ccSQWSCJ.s 			page 214


 9190 0f40 6A       		.sleb128 -22
 9191 0f41 13       		.uleb128 0x13
 9192 0f42 C5040000 		.4byte	.LASF86
 9193 0f46 01       		.byte	0x1
 9194 0f47 8407     		.2byte	0x784
 9195 0f49 9C000000 		.4byte	0x9c
 9196 0f4d 02       		.byte	0x2
 9197 0f4e 91       		.byte	0x91
 9198 0f4f 76       		.sleb128 -10
 9199 0f50 00       		.byte	0
 9200 0f51 16       		.uleb128 0x16
 9201 0f52 01       		.byte	0x1
 9202 0f53 F10C0000 		.4byte	.LASF147
 9203 0f57 01       		.byte	0x1
 9204 0f58 6B07     		.2byte	0x76b
 9205 0f5a 01       		.byte	0x1
 9206 0f5b 28130000 		.4byte	.LFB82
 9207 0f5f 62130000 		.4byte	.LFE82
 9208 0f63 4C0D0000 		.4byte	.LLST53
 9209 0f67 01       		.byte	0x1
 9210 0f68 9A0F0000 		.4byte	0xf9a
 9211 0f6c 12       		.uleb128 0x12
 9212 0f6d F0050000 		.4byte	.LASF84
 9213 0f71 01       		.byte	0x1
 9214 0f72 6B07     		.2byte	0x76b
 9215 0f74 CB050000 		.4byte	0x5cb
 9216 0f78 02       		.byte	0x2
 9217 0f79 91       		.byte	0x91
 9218 0f7a 6C       		.sleb128 -20
 9219 0f7b 12       		.uleb128 0x12
 9220 0f7c FC040000 		.4byte	.LASF65
 9221 0f80 01       		.byte	0x1
 9222 0f81 6B07     		.2byte	0x76b
 9223 0f83 9C000000 		.4byte	0x9c
 9224 0f87 02       		.byte	0x2
 9225 0f88 91       		.byte	0x91
 9226 0f89 6A       		.sleb128 -22
 9227 0f8a 13       		.uleb128 0x13
 9228 0f8b C5040000 		.4byte	.LASF86
 9229 0f8f 01       		.byte	0x1
 9230 0f90 6D07     		.2byte	0x76d
 9231 0f92 9C000000 		.4byte	0x9c
 9232 0f96 02       		.byte	0x2
 9233 0f97 91       		.byte	0x91
 9234 0f98 76       		.sleb128 -10
 9235 0f99 00       		.byte	0
 9236 0f9a 16       		.uleb128 0x16
 9237 0f9b 01       		.byte	0x1
 9238 0f9c CD040000 		.4byte	.LASF148
 9239 0fa0 01       		.byte	0x1
 9240 0fa1 5307     		.2byte	0x753
 9241 0fa3 01       		.byte	0x1
 9242 0fa4 EE120000 		.4byte	.LFB81
 9243 0fa8 28130000 		.4byte	.LFE81
 9244 0fac A80D0000 		.4byte	.LLST52
 9245 0fb0 01       		.byte	0x1
 9246 0fb1 E30F0000 		.4byte	0xfe3
ARM GAS  G:\Users\Jaxb\AppData\Local\Temp\ccSQWSCJ.s 			page 215


 9247 0fb5 12       		.uleb128 0x12
 9248 0fb6 F0050000 		.4byte	.LASF84
 9249 0fba 01       		.byte	0x1
 9250 0fbb 5307     		.2byte	0x753
 9251 0fbd CB050000 		.4byte	0x5cb
 9252 0fc1 02       		.byte	0x2
 9253 0fc2 91       		.byte	0x91
 9254 0fc3 6C       		.sleb128 -20
 9255 0fc4 12       		.uleb128 0x12
 9256 0fc5 460A0000 		.4byte	.LASF66
 9257 0fc9 01       		.byte	0x1
 9258 0fca 5307     		.2byte	0x753
 9259 0fcc 9C000000 		.4byte	0x9c
 9260 0fd0 02       		.byte	0x2
 9261 0fd1 91       		.byte	0x91
 9262 0fd2 6A       		.sleb128 -22
 9263 0fd3 13       		.uleb128 0x13
 9264 0fd4 C5040000 		.4byte	.LASF86
 9265 0fd8 01       		.byte	0x1
 9266 0fd9 5507     		.2byte	0x755
 9267 0fdb 9C000000 		.4byte	0x9c
 9268 0fdf 02       		.byte	0x2
 9269 0fe0 91       		.byte	0x91
 9270 0fe1 76       		.sleb128 -10
 9271 0fe2 00       		.byte	0
 9272 0fe3 16       		.uleb128 0x16
 9273 0fe4 01       		.byte	0x1
 9274 0fe5 B5010000 		.4byte	.LASF149
 9275 0fe9 01       		.byte	0x1
 9276 0fea 3C07     		.2byte	0x73c
 9277 0fec 01       		.byte	0x1
 9278 0fed B4120000 		.4byte	.LFB80
 9279 0ff1 EE120000 		.4byte	.LFE80
 9280 0ff5 040E0000 		.4byte	.LLST51
 9281 0ff9 01       		.byte	0x1
 9282 0ffa 2C100000 		.4byte	0x102c
 9283 0ffe 12       		.uleb128 0x12
 9284 0fff F0050000 		.4byte	.LASF84
 9285 1003 01       		.byte	0x1
 9286 1004 3C07     		.2byte	0x73c
 9287 1006 CB050000 		.4byte	0x5cb
 9288 100a 02       		.byte	0x2
 9289 100b 91       		.byte	0x91
 9290 100c 6C       		.sleb128 -20
 9291 100d 12       		.uleb128 0x12
 9292 100e FC040000 		.4byte	.LASF65
 9293 1012 01       		.byte	0x1
 9294 1013 3C07     		.2byte	0x73c
 9295 1015 9C000000 		.4byte	0x9c
 9296 1019 02       		.byte	0x2
 9297 101a 91       		.byte	0x91
 9298 101b 6A       		.sleb128 -22
 9299 101c 13       		.uleb128 0x13
 9300 101d C5040000 		.4byte	.LASF86
 9301 1021 01       		.byte	0x1
 9302 1022 3E07     		.2byte	0x73e
 9303 1024 9C000000 		.4byte	0x9c
ARM GAS  G:\Users\Jaxb\AppData\Local\Temp\ccSQWSCJ.s 			page 216


 9304 1028 02       		.byte	0x2
 9305 1029 91       		.byte	0x91
 9306 102a 76       		.sleb128 -10
 9307 102b 00       		.byte	0
 9308 102c 16       		.uleb128 0x16
 9309 102d 01       		.byte	0x1
 9310 102e 990B0000 		.4byte	.LASF150
 9311 1032 01       		.byte	0x1
 9312 1033 2407     		.2byte	0x724
 9313 1035 01       		.byte	0x1
 9314 1036 7E120000 		.4byte	.LFB79
 9315 103a B4120000 		.4byte	.LFE79
 9316 103e 600E0000 		.4byte	.LLST50
 9317 1042 01       		.byte	0x1
 9318 1043 75100000 		.4byte	0x1075
 9319 1047 12       		.uleb128 0x12
 9320 1048 F0050000 		.4byte	.LASF84
 9321 104c 01       		.byte	0x1
 9322 104d 2407     		.2byte	0x724
 9323 104f CB050000 		.4byte	0x5cb
 9324 1053 02       		.byte	0x2
 9325 1054 91       		.byte	0x91
 9326 1055 6C       		.sleb128 -20
 9327 1056 12       		.uleb128 0x12
 9328 1057 460A0000 		.4byte	.LASF66
 9329 105b 01       		.byte	0x1
 9330 105c 2407     		.2byte	0x724
 9331 105e 9C000000 		.4byte	0x9c
 9332 1062 02       		.byte	0x2
 9333 1063 91       		.byte	0x91
 9334 1064 6A       		.sleb128 -22
 9335 1065 13       		.uleb128 0x13
 9336 1066 C5040000 		.4byte	.LASF86
 9337 106a 01       		.byte	0x1
 9338 106b 2607     		.2byte	0x726
 9339 106d 9C000000 		.4byte	0x9c
 9340 1071 02       		.byte	0x2
 9341 1072 91       		.byte	0x91
 9342 1073 76       		.sleb128 -10
 9343 1074 00       		.byte	0
 9344 1075 16       		.uleb128 0x16
 9345 1076 01       		.byte	0x1
 9346 1077 36070000 		.4byte	.LASF151
 9347 107b 01       		.byte	0x1
 9348 107c 0D07     		.2byte	0x70d
 9349 107e 01       		.byte	0x1
 9350 107f 48120000 		.4byte	.LFB78
 9351 1083 7E120000 		.4byte	.LFE78
 9352 1087 BC0E0000 		.4byte	.LLST49
 9353 108b 01       		.byte	0x1
 9354 108c BE100000 		.4byte	0x10be
 9355 1090 12       		.uleb128 0x12
 9356 1091 F0050000 		.4byte	.LASF84
 9357 1095 01       		.byte	0x1
 9358 1096 0D07     		.2byte	0x70d
 9359 1098 CB050000 		.4byte	0x5cb
 9360 109c 02       		.byte	0x2
ARM GAS  G:\Users\Jaxb\AppData\Local\Temp\ccSQWSCJ.s 			page 217


 9361 109d 91       		.byte	0x91
 9362 109e 6C       		.sleb128 -20
 9363 109f 12       		.uleb128 0x12
 9364 10a0 FC040000 		.4byte	.LASF65
 9365 10a4 01       		.byte	0x1
 9366 10a5 0D07     		.2byte	0x70d
 9367 10a7 9C000000 		.4byte	0x9c
 9368 10ab 02       		.byte	0x2
 9369 10ac 91       		.byte	0x91
 9370 10ad 6A       		.sleb128 -22
 9371 10ae 13       		.uleb128 0x13
 9372 10af C5040000 		.4byte	.LASF86
 9373 10b3 01       		.byte	0x1
 9374 10b4 0F07     		.2byte	0x70f
 9375 10b6 9C000000 		.4byte	0x9c
 9376 10ba 02       		.byte	0x2
 9377 10bb 91       		.byte	0x91
 9378 10bc 76       		.sleb128 -10
 9379 10bd 00       		.byte	0
 9380 10be 16       		.uleb128 0x16
 9381 10bf 01       		.byte	0x1
 9382 10c0 770B0000 		.4byte	.LASF152
 9383 10c4 01       		.byte	0x1
 9384 10c5 F506     		.2byte	0x6f5
 9385 10c7 01       		.byte	0x1
 9386 10c8 0E120000 		.4byte	.LFB77
 9387 10cc 48120000 		.4byte	.LFE77
 9388 10d0 180F0000 		.4byte	.LLST48
 9389 10d4 01       		.byte	0x1
 9390 10d5 07110000 		.4byte	0x1107
 9391 10d9 12       		.uleb128 0x12
 9392 10da F0050000 		.4byte	.LASF84
 9393 10de 01       		.byte	0x1
 9394 10df F506     		.2byte	0x6f5
 9395 10e1 CB050000 		.4byte	0x5cb
 9396 10e5 02       		.byte	0x2
 9397 10e6 91       		.byte	0x91
 9398 10e7 6C       		.sleb128 -20
 9399 10e8 12       		.uleb128 0x12
 9400 10e9 A6060000 		.4byte	.LASF153
 9401 10ed 01       		.byte	0x1
 9402 10ee F506     		.2byte	0x6f5
 9403 10f0 9C000000 		.4byte	0x9c
 9404 10f4 02       		.byte	0x2
 9405 10f5 91       		.byte	0x91
 9406 10f6 6A       		.sleb128 -22
 9407 10f7 13       		.uleb128 0x13
 9408 10f8 2F010000 		.4byte	.LASF85
 9409 10fc 01       		.byte	0x1
 9410 10fd F706     		.2byte	0x6f7
 9411 10ff 9C000000 		.4byte	0x9c
 9412 1103 02       		.byte	0x2
 9413 1104 91       		.byte	0x91
 9414 1105 76       		.sleb128 -10
 9415 1106 00       		.byte	0
 9416 1107 16       		.uleb128 0x16
 9417 1108 01       		.byte	0x1
ARM GAS  G:\Users\Jaxb\AppData\Local\Temp\ccSQWSCJ.s 			page 218


 9418 1109 4E0B0000 		.4byte	.LASF154
 9419 110d 01       		.byte	0x1
 9420 110e DD06     		.2byte	0x6dd
 9421 1110 01       		.byte	0x1
 9422 1111 D8110000 		.4byte	.LFB76
 9423 1115 0E120000 		.4byte	.LFE76
 9424 1119 740F0000 		.4byte	.LLST47
 9425 111d 01       		.byte	0x1
 9426 111e 50110000 		.4byte	0x1150
 9427 1122 12       		.uleb128 0x12
 9428 1123 F0050000 		.4byte	.LASF84
 9429 1127 01       		.byte	0x1
 9430 1128 DD06     		.2byte	0x6dd
 9431 112a CB050000 		.4byte	0x5cb
 9432 112e 02       		.byte	0x2
 9433 112f 91       		.byte	0x91
 9434 1130 6C       		.sleb128 -20
 9435 1131 12       		.uleb128 0x12
 9436 1132 A6060000 		.4byte	.LASF153
 9437 1136 01       		.byte	0x1
 9438 1137 DD06     		.2byte	0x6dd
 9439 1139 9C000000 		.4byte	0x9c
 9440 113d 02       		.byte	0x2
 9441 113e 91       		.byte	0x91
 9442 113f 6A       		.sleb128 -22
 9443 1140 13       		.uleb128 0x13
 9444 1141 2F010000 		.4byte	.LASF85
 9445 1145 01       		.byte	0x1
 9446 1146 DF06     		.2byte	0x6df
 9447 1148 9C000000 		.4byte	0x9c
 9448 114c 02       		.byte	0x2
 9449 114d 91       		.byte	0x91
 9450 114e 76       		.sleb128 -10
 9451 114f 00       		.byte	0
 9452 1150 16       		.uleb128 0x16
 9453 1151 01       		.byte	0x1
 9454 1152 5A0D0000 		.4byte	.LASF155
 9455 1156 01       		.byte	0x1
 9456 1157 C506     		.2byte	0x6c5
 9457 1159 01       		.byte	0x1
 9458 115a 9E110000 		.4byte	.LFB75
 9459 115e D8110000 		.4byte	.LFE75
 9460 1162 D00F0000 		.4byte	.LLST46
 9461 1166 01       		.byte	0x1
 9462 1167 99110000 		.4byte	0x1199
 9463 116b 12       		.uleb128 0x12
 9464 116c F0050000 		.4byte	.LASF84
 9465 1170 01       		.byte	0x1
 9466 1171 C506     		.2byte	0x6c5
 9467 1173 CB050000 		.4byte	0x5cb
 9468 1177 02       		.byte	0x2
 9469 1178 91       		.byte	0x91
 9470 1179 6C       		.sleb128 -20
 9471 117a 12       		.uleb128 0x12
 9472 117b A6060000 		.4byte	.LASF153
 9473 117f 01       		.byte	0x1
 9474 1180 C506     		.2byte	0x6c5
ARM GAS  G:\Users\Jaxb\AppData\Local\Temp\ccSQWSCJ.s 			page 219


 9475 1182 9C000000 		.4byte	0x9c
 9476 1186 02       		.byte	0x2
 9477 1187 91       		.byte	0x91
 9478 1188 6A       		.sleb128 -22
 9479 1189 13       		.uleb128 0x13
 9480 118a 26010000 		.4byte	.LASF90
 9481 118e 01       		.byte	0x1
 9482 118f C706     		.2byte	0x6c7
 9483 1191 9C000000 		.4byte	0x9c
 9484 1195 02       		.byte	0x2
 9485 1196 91       		.byte	0x91
 9486 1197 76       		.sleb128 -10
 9487 1198 00       		.byte	0
 9488 1199 16       		.uleb128 0x16
 9489 119a 01       		.byte	0x1
 9490 119b A4000000 		.4byte	.LASF156
 9491 119f 01       		.byte	0x1
 9492 11a0 AB06     		.2byte	0x6ab
 9493 11a2 01       		.byte	0x1
 9494 11a3 68110000 		.4byte	.LFB74
 9495 11a7 9E110000 		.4byte	.LFE74
 9496 11ab 2C100000 		.4byte	.LLST45
 9497 11af 01       		.byte	0x1
 9498 11b0 E2110000 		.4byte	0x11e2
 9499 11b4 12       		.uleb128 0x12
 9500 11b5 F0050000 		.4byte	.LASF84
 9501 11b9 01       		.byte	0x1
 9502 11ba AB06     		.2byte	0x6ab
 9503 11bc CB050000 		.4byte	0x5cb
 9504 11c0 02       		.byte	0x2
 9505 11c1 91       		.byte	0x91
 9506 11c2 6C       		.sleb128 -20
 9507 11c3 12       		.uleb128 0x12
 9508 11c4 A6060000 		.4byte	.LASF153
 9509 11c8 01       		.byte	0x1
 9510 11c9 AB06     		.2byte	0x6ab
 9511 11cb 9C000000 		.4byte	0x9c
 9512 11cf 02       		.byte	0x2
 9513 11d0 91       		.byte	0x91
 9514 11d1 6A       		.sleb128 -22
 9515 11d2 13       		.uleb128 0x13
 9516 11d3 26010000 		.4byte	.LASF90
 9517 11d7 01       		.byte	0x1
 9518 11d8 AD06     		.2byte	0x6ad
 9519 11da 9C000000 		.4byte	0x9c
 9520 11de 02       		.byte	0x2
 9521 11df 91       		.byte	0x91
 9522 11e0 76       		.sleb128 -10
 9523 11e1 00       		.byte	0
 9524 11e2 16       		.uleb128 0x16
 9525 11e3 01       		.byte	0x1
 9526 11e4 220A0000 		.4byte	.LASF157
 9527 11e8 01       		.byte	0x1
 9528 11e9 9206     		.2byte	0x692
 9529 11eb 01       		.byte	0x1
 9530 11ec 2E110000 		.4byte	.LFB73
 9531 11f0 68110000 		.4byte	.LFE73
ARM GAS  G:\Users\Jaxb\AppData\Local\Temp\ccSQWSCJ.s 			page 220


 9532 11f4 88100000 		.4byte	.LLST44
 9533 11f8 01       		.byte	0x1
 9534 11f9 2B120000 		.4byte	0x122b
 9535 11fd 12       		.uleb128 0x12
 9536 11fe F0050000 		.4byte	.LASF84
 9537 1202 01       		.byte	0x1
 9538 1203 9206     		.2byte	0x692
 9539 1205 CB050000 		.4byte	0x5cb
 9540 1209 02       		.byte	0x2
 9541 120a 91       		.byte	0x91
 9542 120b 6C       		.sleb128 -20
 9543 120c 12       		.uleb128 0x12
 9544 120d 54020000 		.4byte	.LASF158
 9545 1211 01       		.byte	0x1
 9546 1212 9206     		.2byte	0x692
 9547 1214 9C000000 		.4byte	0x9c
 9548 1218 02       		.byte	0x2
 9549 1219 91       		.byte	0x91
 9550 121a 6A       		.sleb128 -22
 9551 121b 13       		.uleb128 0x13
 9552 121c 2F010000 		.4byte	.LASF85
 9553 1220 01       		.byte	0x1
 9554 1221 9406     		.2byte	0x694
 9555 1223 9C000000 		.4byte	0x9c
 9556 1227 02       		.byte	0x2
 9557 1228 91       		.byte	0x91
 9558 1229 76       		.sleb128 -10
 9559 122a 00       		.byte	0
 9560 122b 16       		.uleb128 0x16
 9561 122c 01       		.byte	0x1
 9562 122d C60D0000 		.4byte	.LASF159
 9563 1231 01       		.byte	0x1
 9564 1232 7906     		.2byte	0x679
 9565 1234 01       		.byte	0x1
 9566 1235 F8100000 		.4byte	.LFB72
 9567 1239 2E110000 		.4byte	.LFE72
 9568 123d E4100000 		.4byte	.LLST43
 9569 1241 01       		.byte	0x1
 9570 1242 74120000 		.4byte	0x1274
 9571 1246 12       		.uleb128 0x12
 9572 1247 F0050000 		.4byte	.LASF84
 9573 124b 01       		.byte	0x1
 9574 124c 7906     		.2byte	0x679
 9575 124e CB050000 		.4byte	0x5cb
 9576 1252 02       		.byte	0x2
 9577 1253 91       		.byte	0x91
 9578 1254 6C       		.sleb128 -20
 9579 1255 12       		.uleb128 0x12
 9580 1256 54020000 		.4byte	.LASF158
 9581 125a 01       		.byte	0x1
 9582 125b 7906     		.2byte	0x679
 9583 125d 9C000000 		.4byte	0x9c
 9584 1261 02       		.byte	0x2
 9585 1262 91       		.byte	0x91
 9586 1263 6A       		.sleb128 -22
 9587 1264 13       		.uleb128 0x13
 9588 1265 2F010000 		.4byte	.LASF85
ARM GAS  G:\Users\Jaxb\AppData\Local\Temp\ccSQWSCJ.s 			page 221


 9589 1269 01       		.byte	0x1
 9590 126a 7B06     		.2byte	0x67b
 9591 126c 9C000000 		.4byte	0x9c
 9592 1270 02       		.byte	0x2
 9593 1271 91       		.byte	0x91
 9594 1272 76       		.sleb128 -10
 9595 1273 00       		.byte	0
 9596 1274 16       		.uleb128 0x16
 9597 1275 01       		.byte	0x1
 9598 1276 100A0000 		.4byte	.LASF160
 9599 127a 01       		.byte	0x1
 9600 127b 6006     		.2byte	0x660
 9601 127d 01       		.byte	0x1
 9602 127e BE100000 		.4byte	.LFB71
 9603 1282 F8100000 		.4byte	.LFE71
 9604 1286 40110000 		.4byte	.LLST42
 9605 128a 01       		.byte	0x1
 9606 128b BD120000 		.4byte	0x12bd
 9607 128f 12       		.uleb128 0x12
 9608 1290 F0050000 		.4byte	.LASF84
 9609 1294 01       		.byte	0x1
 9610 1295 6006     		.2byte	0x660
 9611 1297 CB050000 		.4byte	0x5cb
 9612 129b 02       		.byte	0x2
 9613 129c 91       		.byte	0x91
 9614 129d 6C       		.sleb128 -20
 9615 129e 12       		.uleb128 0x12
 9616 129f 54020000 		.4byte	.LASF158
 9617 12a3 01       		.byte	0x1
 9618 12a4 6006     		.2byte	0x660
 9619 12a6 9C000000 		.4byte	0x9c
 9620 12aa 02       		.byte	0x2
 9621 12ab 91       		.byte	0x91
 9622 12ac 6A       		.sleb128 -22
 9623 12ad 13       		.uleb128 0x13
 9624 12ae 26010000 		.4byte	.LASF90
 9625 12b2 01       		.byte	0x1
 9626 12b3 6206     		.2byte	0x662
 9627 12b5 9C000000 		.4byte	0x9c
 9628 12b9 02       		.byte	0x2
 9629 12ba 91       		.byte	0x91
 9630 12bb 76       		.sleb128 -10
 9631 12bc 00       		.byte	0
 9632 12bd 16       		.uleb128 0x16
 9633 12be 01       		.byte	0x1
 9634 12bf 0A0E0000 		.4byte	.LASF161
 9635 12c3 01       		.byte	0x1
 9636 12c4 4606     		.2byte	0x646
 9637 12c6 01       		.byte	0x1
 9638 12c7 88100000 		.4byte	.LFB70
 9639 12cb BE100000 		.4byte	.LFE70
 9640 12cf 9C110000 		.4byte	.LLST41
 9641 12d3 01       		.byte	0x1
 9642 12d4 06130000 		.4byte	0x1306
 9643 12d8 12       		.uleb128 0x12
 9644 12d9 F0050000 		.4byte	.LASF84
 9645 12dd 01       		.byte	0x1
ARM GAS  G:\Users\Jaxb\AppData\Local\Temp\ccSQWSCJ.s 			page 222


 9646 12de 4606     		.2byte	0x646
 9647 12e0 CB050000 		.4byte	0x5cb
 9648 12e4 02       		.byte	0x2
 9649 12e5 91       		.byte	0x91
 9650 12e6 6C       		.sleb128 -20
 9651 12e7 12       		.uleb128 0x12
 9652 12e8 54020000 		.4byte	.LASF158
 9653 12ec 01       		.byte	0x1
 9654 12ed 4606     		.2byte	0x646
 9655 12ef 9C000000 		.4byte	0x9c
 9656 12f3 02       		.byte	0x2
 9657 12f4 91       		.byte	0x91
 9658 12f5 6A       		.sleb128 -22
 9659 12f6 13       		.uleb128 0x13
 9660 12f7 26010000 		.4byte	.LASF90
 9661 12fb 01       		.byte	0x1
 9662 12fc 4806     		.2byte	0x648
 9663 12fe 9C000000 		.4byte	0x9c
 9664 1302 02       		.byte	0x2
 9665 1303 91       		.byte	0x91
 9666 1304 76       		.sleb128 -10
 9667 1305 00       		.byte	0
 9668 1306 16       		.uleb128 0x16
 9669 1307 01       		.byte	0x1
 9670 1308 390B0000 		.4byte	.LASF162
 9671 130c 01       		.byte	0x1
 9672 130d 2E06     		.2byte	0x62e
 9673 130f 01       		.byte	0x1
 9674 1310 4E100000 		.4byte	.LFB69
 9675 1314 88100000 		.4byte	.LFE69
 9676 1318 F8110000 		.4byte	.LLST40
 9677 131c 01       		.byte	0x1
 9678 131d 4F130000 		.4byte	0x134f
 9679 1321 12       		.uleb128 0x12
 9680 1322 F0050000 		.4byte	.LASF84
 9681 1326 01       		.byte	0x1
 9682 1327 2E06     		.2byte	0x62e
 9683 1329 CB050000 		.4byte	0x5cb
 9684 132d 02       		.byte	0x2
 9685 132e 91       		.byte	0x91
 9686 132f 6C       		.sleb128 -20
 9687 1330 12       		.uleb128 0x12
 9688 1331 CC020000 		.4byte	.LASF163
 9689 1335 01       		.byte	0x1
 9690 1336 2E06     		.2byte	0x62e
 9691 1338 9C000000 		.4byte	0x9c
 9692 133c 02       		.byte	0x2
 9693 133d 91       		.byte	0x91
 9694 133e 6A       		.sleb128 -22
 9695 133f 13       		.uleb128 0x13
 9696 1340 2F010000 		.4byte	.LASF85
 9697 1344 01       		.byte	0x1
 9698 1345 3006     		.2byte	0x630
 9699 1347 9C000000 		.4byte	0x9c
 9700 134b 02       		.byte	0x2
 9701 134c 91       		.byte	0x91
 9702 134d 76       		.sleb128 -10
ARM GAS  G:\Users\Jaxb\AppData\Local\Temp\ccSQWSCJ.s 			page 223


 9703 134e 00       		.byte	0
 9704 134f 16       		.uleb128 0x16
 9705 1350 01       		.byte	0x1
 9706 1351 D80D0000 		.4byte	.LASF164
 9707 1355 01       		.byte	0x1
 9708 1356 1606     		.2byte	0x616
 9709 1358 01       		.byte	0x1
 9710 1359 18100000 		.4byte	.LFB68
 9711 135d 4E100000 		.4byte	.LFE68
 9712 1361 54120000 		.4byte	.LLST39
 9713 1365 01       		.byte	0x1
 9714 1366 98130000 		.4byte	0x1398
 9715 136a 12       		.uleb128 0x12
 9716 136b F0050000 		.4byte	.LASF84
 9717 136f 01       		.byte	0x1
 9718 1370 1606     		.2byte	0x616
 9719 1372 CB050000 		.4byte	0x5cb
 9720 1376 02       		.byte	0x2
 9721 1377 91       		.byte	0x91
 9722 1378 6C       		.sleb128 -20
 9723 1379 12       		.uleb128 0x12
 9724 137a CC020000 		.4byte	.LASF163
 9725 137e 01       		.byte	0x1
 9726 137f 1606     		.2byte	0x616
 9727 1381 9C000000 		.4byte	0x9c
 9728 1385 02       		.byte	0x2
 9729 1386 91       		.byte	0x91
 9730 1387 6A       		.sleb128 -22
 9731 1388 13       		.uleb128 0x13
 9732 1389 2F010000 		.4byte	.LASF85
 9733 138d 01       		.byte	0x1
 9734 138e 1806     		.2byte	0x618
 9735 1390 9C000000 		.4byte	0x9c
 9736 1394 02       		.byte	0x2
 9737 1395 91       		.byte	0x91
 9738 1396 76       		.sleb128 -10
 9739 1397 00       		.byte	0
 9740 1398 16       		.uleb128 0x16
 9741 1399 01       		.byte	0x1
 9742 139a 1D020000 		.4byte	.LASF165
 9743 139e 01       		.byte	0x1
 9744 139f FE05     		.2byte	0x5fe
 9745 13a1 01       		.byte	0x1
 9746 13a2 DE0F0000 		.4byte	.LFB67
 9747 13a6 18100000 		.4byte	.LFE67
 9748 13aa B0120000 		.4byte	.LLST38
 9749 13ae 01       		.byte	0x1
 9750 13af E1130000 		.4byte	0x13e1
 9751 13b3 12       		.uleb128 0x12
 9752 13b4 F0050000 		.4byte	.LASF84
 9753 13b8 01       		.byte	0x1
 9754 13b9 FE05     		.2byte	0x5fe
 9755 13bb CB050000 		.4byte	0x5cb
 9756 13bf 02       		.byte	0x2
 9757 13c0 91       		.byte	0x91
 9758 13c1 6C       		.sleb128 -20
 9759 13c2 12       		.uleb128 0x12
ARM GAS  G:\Users\Jaxb\AppData\Local\Temp\ccSQWSCJ.s 			page 224


 9760 13c3 CC020000 		.4byte	.LASF163
 9761 13c7 01       		.byte	0x1
 9762 13c8 FE05     		.2byte	0x5fe
 9763 13ca 9C000000 		.4byte	0x9c
 9764 13ce 02       		.byte	0x2
 9765 13cf 91       		.byte	0x91
 9766 13d0 6A       		.sleb128 -22
 9767 13d1 13       		.uleb128 0x13
 9768 13d2 26010000 		.4byte	.LASF90
 9769 13d6 01       		.byte	0x1
 9770 13d7 0006     		.2byte	0x600
 9771 13d9 9C000000 		.4byte	0x9c
 9772 13dd 02       		.byte	0x2
 9773 13de 91       		.byte	0x91
 9774 13df 76       		.sleb128 -10
 9775 13e0 00       		.byte	0
 9776 13e1 16       		.uleb128 0x16
 9777 13e2 01       		.byte	0x1
 9778 13e3 61040000 		.4byte	.LASF166
 9779 13e7 01       		.byte	0x1
 9780 13e8 E505     		.2byte	0x5e5
 9781 13ea 01       		.byte	0x1
 9782 13eb A80F0000 		.4byte	.LFB66
 9783 13ef DE0F0000 		.4byte	.LFE66
 9784 13f3 0C130000 		.4byte	.LLST37
 9785 13f7 01       		.byte	0x1
 9786 13f8 2A140000 		.4byte	0x142a
 9787 13fc 12       		.uleb128 0x12
 9788 13fd F0050000 		.4byte	.LASF84
 9789 1401 01       		.byte	0x1
 9790 1402 E505     		.2byte	0x5e5
 9791 1404 CB050000 		.4byte	0x5cb
 9792 1408 02       		.byte	0x2
 9793 1409 91       		.byte	0x91
 9794 140a 6C       		.sleb128 -20
 9795 140b 12       		.uleb128 0x12
 9796 140c CC020000 		.4byte	.LASF163
 9797 1410 01       		.byte	0x1
 9798 1411 E505     		.2byte	0x5e5
 9799 1413 9C000000 		.4byte	0x9c
 9800 1417 02       		.byte	0x2
 9801 1418 91       		.byte	0x91
 9802 1419 6A       		.sleb128 -22
 9803 141a 13       		.uleb128 0x13
 9804 141b 26010000 		.4byte	.LASF90
 9805 141f 01       		.byte	0x1
 9806 1420 E705     		.2byte	0x5e7
 9807 1422 9C000000 		.4byte	0x9c
 9808 1426 02       		.byte	0x2
 9809 1427 91       		.byte	0x91
 9810 1428 76       		.sleb128 -10
 9811 1429 00       		.byte	0
 9812 142a 16       		.uleb128 0x16
 9813 142b 01       		.byte	0x1
 9814 142c B00B0000 		.4byte	.LASF167
 9815 1430 01       		.byte	0x1
 9816 1431 CB05     		.2byte	0x5cb
ARM GAS  G:\Users\Jaxb\AppData\Local\Temp\ccSQWSCJ.s 			page 225


 9817 1433 01       		.byte	0x1
 9818 1434 6A0F0000 		.4byte	.LFB65
 9819 1438 A80F0000 		.4byte	.LFE65
 9820 143c 68130000 		.4byte	.LLST36
 9821 1440 01       		.byte	0x1
 9822 1441 64140000 		.4byte	0x1464
 9823 1445 12       		.uleb128 0x12
 9824 1446 F0050000 		.4byte	.LASF84
 9825 144a 01       		.byte	0x1
 9826 144b CB05     		.2byte	0x5cb
 9827 144d CB050000 		.4byte	0x5cb
 9828 1451 02       		.byte	0x2
 9829 1452 91       		.byte	0x91
 9830 1453 74       		.sleb128 -12
 9831 1454 12       		.uleb128 0x12
 9832 1455 0B000000 		.4byte	.LASF135
 9833 1459 01       		.byte	0x1
 9834 145a CB05     		.2byte	0x5cb
 9835 145c 20010000 		.4byte	0x120
 9836 1460 02       		.byte	0x2
 9837 1461 91       		.byte	0x91
 9838 1462 73       		.sleb128 -13
 9839 1463 00       		.byte	0
 9840 1464 16       		.uleb128 0x16
 9841 1465 01       		.byte	0x1
 9842 1466 2F040000 		.4byte	.LASF168
 9843 146a 01       		.byte	0x1
 9844 146b B205     		.2byte	0x5b2
 9845 146d 01       		.byte	0x1
 9846 146e 2C0F0000 		.4byte	.LFB64
 9847 1472 6A0F0000 		.4byte	.LFE64
 9848 1476 C4130000 		.4byte	.LLST35
 9849 147a 01       		.byte	0x1
 9850 147b 9E140000 		.4byte	0x149e
 9851 147f 12       		.uleb128 0x12
 9852 1480 F0050000 		.4byte	.LASF84
 9853 1484 01       		.byte	0x1
 9854 1485 B205     		.2byte	0x5b2
 9855 1487 CB050000 		.4byte	0x5cb
 9856 148b 02       		.byte	0x2
 9857 148c 91       		.byte	0x91
 9858 148d 74       		.sleb128 -12
 9859 148e 12       		.uleb128 0x12
 9860 148f 0B000000 		.4byte	.LASF135
 9861 1493 01       		.byte	0x1
 9862 1494 B205     		.2byte	0x5b2
 9863 1496 20010000 		.4byte	0x120
 9864 149a 02       		.byte	0x2
 9865 149b 91       		.byte	0x91
 9866 149c 73       		.sleb128 -13
 9867 149d 00       		.byte	0
 9868 149e 16       		.uleb128 0x16
 9869 149f 01       		.byte	0x1
 9870 14a0 B7040000 		.4byte	.LASF169
 9871 14a4 01       		.byte	0x1
 9872 14a5 9905     		.2byte	0x599
 9873 14a7 01       		.byte	0x1
ARM GAS  G:\Users\Jaxb\AppData\Local\Temp\ccSQWSCJ.s 			page 226


 9874 14a8 EE0E0000 		.4byte	.LFB63
 9875 14ac 2C0F0000 		.4byte	.LFE63
 9876 14b0 20140000 		.4byte	.LLST34
 9877 14b4 01       		.byte	0x1
 9878 14b5 D8140000 		.4byte	0x14d8
 9879 14b9 12       		.uleb128 0x12
 9880 14ba F0050000 		.4byte	.LASF84
 9881 14be 01       		.byte	0x1
 9882 14bf 9905     		.2byte	0x599
 9883 14c1 CB050000 		.4byte	0x5cb
 9884 14c5 02       		.byte	0x2
 9885 14c6 91       		.byte	0x91
 9886 14c7 74       		.sleb128 -12
 9887 14c8 12       		.uleb128 0x12
 9888 14c9 0B000000 		.4byte	.LASF135
 9889 14cd 01       		.byte	0x1
 9890 14ce 9905     		.2byte	0x599
 9891 14d0 20010000 		.4byte	0x120
 9892 14d4 02       		.byte	0x2
 9893 14d5 91       		.byte	0x91
 9894 14d6 73       		.sleb128 -13
 9895 14d7 00       		.byte	0
 9896 14d8 16       		.uleb128 0x16
 9897 14d9 01       		.byte	0x1
 9898 14da CB010000 		.4byte	.LASF170
 9899 14de 01       		.byte	0x1
 9900 14df 8105     		.2byte	0x581
 9901 14e1 01       		.byte	0x1
 9902 14e2 B00E0000 		.4byte	.LFB62
 9903 14e6 EE0E0000 		.4byte	.LFE62
 9904 14ea 7C140000 		.4byte	.LLST33
 9905 14ee 01       		.byte	0x1
 9906 14ef 12150000 		.4byte	0x1512
 9907 14f3 12       		.uleb128 0x12
 9908 14f4 F0050000 		.4byte	.LASF84
 9909 14f8 01       		.byte	0x1
 9910 14f9 8105     		.2byte	0x581
 9911 14fb CB050000 		.4byte	0x5cb
 9912 14ff 02       		.byte	0x2
 9913 1500 91       		.byte	0x91
 9914 1501 74       		.sleb128 -12
 9915 1502 12       		.uleb128 0x12
 9916 1503 0B000000 		.4byte	.LASF135
 9917 1507 01       		.byte	0x1
 9918 1508 8105     		.2byte	0x581
 9919 150a 20010000 		.4byte	0x120
 9920 150e 02       		.byte	0x2
 9921 150f 91       		.byte	0x91
 9922 1510 73       		.sleb128 -13
 9923 1511 00       		.byte	0
 9924 1512 16       		.uleb128 0x16
 9925 1513 01       		.byte	0x1
 9926 1514 90000000 		.4byte	.LASF171
 9927 1518 01       		.byte	0x1
 9928 1519 6B05     		.2byte	0x56b
 9929 151b 01       		.byte	0x1
 9930 151c 760E0000 		.4byte	.LFB61
ARM GAS  G:\Users\Jaxb\AppData\Local\Temp\ccSQWSCJ.s 			page 227


 9931 1520 B00E0000 		.4byte	.LFE61
 9932 1524 D8140000 		.4byte	.LLST32
 9933 1528 01       		.byte	0x1
 9934 1529 5B150000 		.4byte	0x155b
 9935 152d 12       		.uleb128 0x12
 9936 152e F0050000 		.4byte	.LASF84
 9937 1532 01       		.byte	0x1
 9938 1533 6B05     		.2byte	0x56b
 9939 1535 CB050000 		.4byte	0x5cb
 9940 1539 02       		.byte	0x2
 9941 153a 91       		.byte	0x91
 9942 153b 6C       		.sleb128 -20
 9943 153c 12       		.uleb128 0x12
 9944 153d 99020000 		.4byte	.LASF172
 9945 1541 01       		.byte	0x1
 9946 1542 6B05     		.2byte	0x56b
 9947 1544 9C000000 		.4byte	0x9c
 9948 1548 02       		.byte	0x2
 9949 1549 91       		.byte	0x91
 9950 154a 6A       		.sleb128 -22
 9951 154b 13       		.uleb128 0x13
 9952 154c 2F010000 		.4byte	.LASF85
 9953 1550 01       		.byte	0x1
 9954 1551 6D05     		.2byte	0x56d
 9955 1553 9C000000 		.4byte	0x9c
 9956 1557 02       		.byte	0x2
 9957 1558 91       		.byte	0x91
 9958 1559 76       		.sleb128 -10
 9959 155a 00       		.byte	0
 9960 155b 16       		.uleb128 0x16
 9961 155c 01       		.byte	0x1
 9962 155d 4C070000 		.4byte	.LASF173
 9963 1561 01       		.byte	0x1
 9964 1562 5305     		.2byte	0x553
 9965 1564 01       		.byte	0x1
 9966 1565 400E0000 		.4byte	.LFB60
 9967 1569 760E0000 		.4byte	.LFE60
 9968 156d 34150000 		.4byte	.LLST31
 9969 1571 01       		.byte	0x1
 9970 1572 A4150000 		.4byte	0x15a4
 9971 1576 12       		.uleb128 0x12
 9972 1577 F0050000 		.4byte	.LASF84
 9973 157b 01       		.byte	0x1
 9974 157c 5305     		.2byte	0x553
 9975 157e CB050000 		.4byte	0x5cb
 9976 1582 02       		.byte	0x2
 9977 1583 91       		.byte	0x91
 9978 1584 6C       		.sleb128 -20
 9979 1585 12       		.uleb128 0x12
 9980 1586 99020000 		.4byte	.LASF172
 9981 158a 01       		.byte	0x1
 9982 158b 5305     		.2byte	0x553
 9983 158d 9C000000 		.4byte	0x9c
 9984 1591 02       		.byte	0x2
 9985 1592 91       		.byte	0x91
 9986 1593 6A       		.sleb128 -22
 9987 1594 13       		.uleb128 0x13
ARM GAS  G:\Users\Jaxb\AppData\Local\Temp\ccSQWSCJ.s 			page 228


 9988 1595 2F010000 		.4byte	.LASF85
 9989 1599 01       		.byte	0x1
 9990 159a 5505     		.2byte	0x555
 9991 159c 9C000000 		.4byte	0x9c
 9992 15a0 02       		.byte	0x2
 9993 15a1 91       		.byte	0x91
 9994 15a2 76       		.sleb128 -10
 9995 15a3 00       		.byte	0
 9996 15a4 16       		.uleb128 0x16
 9997 15a5 01       		.byte	0x1
 9998 15a6 14000000 		.4byte	.LASF174
 9999 15aa 01       		.byte	0x1
 10000 15ab 3B05     		.2byte	0x53b
 10001 15ad 01       		.byte	0x1
 10002 15ae 060E0000 		.4byte	.LFB59
 10003 15b2 400E0000 		.4byte	.LFE59
 10004 15b6 90150000 		.4byte	.LLST30
 10005 15ba 01       		.byte	0x1
 10006 15bb ED150000 		.4byte	0x15ed
 10007 15bf 12       		.uleb128 0x12
 10008 15c0 F0050000 		.4byte	.LASF84
 10009 15c4 01       		.byte	0x1
 10010 15c5 3B05     		.2byte	0x53b
 10011 15c7 CB050000 		.4byte	0x5cb
 10012 15cb 02       		.byte	0x2
 10013 15cc 91       		.byte	0x91
 10014 15cd 6C       		.sleb128 -20
 10015 15ce 12       		.uleb128 0x12
 10016 15cf 99020000 		.4byte	.LASF172
 10017 15d3 01       		.byte	0x1
 10018 15d4 3B05     		.2byte	0x53b
 10019 15d6 9C000000 		.4byte	0x9c
 10020 15da 02       		.byte	0x2
 10021 15db 91       		.byte	0x91
 10022 15dc 6A       		.sleb128 -22
 10023 15dd 13       		.uleb128 0x13
 10024 15de 26010000 		.4byte	.LASF90
 10025 15e2 01       		.byte	0x1
 10026 15e3 3D05     		.2byte	0x53d
 10027 15e5 9C000000 		.4byte	0x9c
 10028 15e9 02       		.byte	0x2
 10029 15ea 91       		.byte	0x91
 10030 15eb 76       		.sleb128 -10
 10031 15ec 00       		.byte	0
 10032 15ed 16       		.uleb128 0x16
 10033 15ee 01       		.byte	0x1
 10034 15ef F7060000 		.4byte	.LASF175
 10035 15f3 01       		.byte	0x1
 10036 15f4 2305     		.2byte	0x523
 10037 15f6 01       		.byte	0x1
 10038 15f7 D00D0000 		.4byte	.LFB58
 10039 15fb 060E0000 		.4byte	.LFE58
 10040 15ff EC150000 		.4byte	.LLST29
 10041 1603 01       		.byte	0x1
 10042 1604 36160000 		.4byte	0x1636
 10043 1608 12       		.uleb128 0x12
 10044 1609 F0050000 		.4byte	.LASF84
ARM GAS  G:\Users\Jaxb\AppData\Local\Temp\ccSQWSCJ.s 			page 229


 10045 160d 01       		.byte	0x1
 10046 160e 2305     		.2byte	0x523
 10047 1610 CB050000 		.4byte	0x5cb
 10048 1614 02       		.byte	0x2
 10049 1615 91       		.byte	0x91
 10050 1616 6C       		.sleb128 -20
 10051 1617 12       		.uleb128 0x12
 10052 1618 99020000 		.4byte	.LASF172
 10053 161c 01       		.byte	0x1
 10054 161d 2305     		.2byte	0x523
 10055 161f 9C000000 		.4byte	0x9c
 10056 1623 02       		.byte	0x2
 10057 1624 91       		.byte	0x91
 10058 1625 6A       		.sleb128 -22
 10059 1626 13       		.uleb128 0x13
 10060 1627 26010000 		.4byte	.LASF90
 10061 162b 01       		.byte	0x1
 10062 162c 2505     		.2byte	0x525
 10063 162e 9C000000 		.4byte	0x9c
 10064 1632 02       		.byte	0x2
 10065 1633 91       		.byte	0x91
 10066 1634 76       		.sleb128 -10
 10067 1635 00       		.byte	0
 10068 1636 16       		.uleb128 0x16
 10069 1637 01       		.byte	0x1
 10070 1638 02020000 		.4byte	.LASF176
 10071 163c 01       		.byte	0x1
 10072 163d F004     		.2byte	0x4f0
 10073 163f 01       		.byte	0x1
 10074 1640 3A0D0000 		.4byte	.LFB57
 10075 1644 D00D0000 		.4byte	.LFE57
 10076 1648 48160000 		.4byte	.LLST28
 10077 164c 01       		.byte	0x1
 10078 164d BB160000 		.4byte	0x16bb
 10079 1651 12       		.uleb128 0x12
 10080 1652 F0050000 		.4byte	.LASF84
 10081 1656 01       		.byte	0x1
 10082 1657 F004     		.2byte	0x4f0
 10083 1659 CB050000 		.4byte	0x5cb
 10084 165d 02       		.byte	0x2
 10085 165e 91       		.byte	0x91
 10086 165f 6C       		.sleb128 -20
 10087 1660 12       		.uleb128 0x12
 10088 1661 F5050000 		.4byte	.LASF177
 10089 1665 01       		.byte	0x1
 10090 1666 F004     		.2byte	0x4f0
 10091 1668 9C000000 		.4byte	0x9c
 10092 166c 02       		.byte	0x2
 10093 166d 91       		.byte	0x91
 10094 166e 6A       		.sleb128 -22
 10095 166f 12       		.uleb128 0x12
 10096 1670 44020000 		.4byte	.LASF178
 10097 1674 01       		.byte	0x1
 10098 1675 F104     		.2byte	0x4f1
 10099 1677 9C000000 		.4byte	0x9c
 10100 167b 02       		.byte	0x2
 10101 167c 91       		.byte	0x91
ARM GAS  G:\Users\Jaxb\AppData\Local\Temp\ccSQWSCJ.s 			page 230


 10102 167d 68       		.sleb128 -24
 10103 167e 12       		.uleb128 0x12
 10104 167f EB000000 		.4byte	.LASF179
 10105 1683 01       		.byte	0x1
 10106 1684 F104     		.2byte	0x4f1
 10107 1686 9C000000 		.4byte	0x9c
 10108 168a 02       		.byte	0x2
 10109 168b 91       		.byte	0x91
 10110 168c 66       		.sleb128 -26
 10111 168d 13       		.uleb128 0x13
 10112 168e B8060000 		.4byte	.LASF180
 10113 1692 01       		.byte	0x1
 10114 1693 F304     		.2byte	0x4f3
 10115 1695 9C000000 		.4byte	0x9c
 10116 1699 02       		.byte	0x2
 10117 169a 91       		.byte	0x91
 10118 169b 76       		.sleb128 -10
 10119 169c 13       		.uleb128 0x13
 10120 169d 26010000 		.4byte	.LASF90
 10121 16a1 01       		.byte	0x1
 10122 16a2 F404     		.2byte	0x4f4
 10123 16a4 9C000000 		.4byte	0x9c
 10124 16a8 02       		.byte	0x2
 10125 16a9 91       		.byte	0x91
 10126 16aa 74       		.sleb128 -12
 10127 16ab 13       		.uleb128 0x13
 10128 16ac C5040000 		.4byte	.LASF86
 10129 16b0 01       		.byte	0x1
 10130 16b1 F504     		.2byte	0x4f5
 10131 16b3 9C000000 		.4byte	0x9c
 10132 16b7 02       		.byte	0x2
 10133 16b8 91       		.byte	0x91
 10134 16b9 72       		.sleb128 -14
 10135 16ba 00       		.byte	0
 10136 16bb 16       		.uleb128 0x16
 10137 16bc 01       		.byte	0x1
 10138 16bd 4E010000 		.4byte	.LASF181
 10139 16c1 01       		.byte	0x1
 10140 16c2 CD04     		.2byte	0x4cd
 10141 16c4 01       		.byte	0x1
 10142 16c5 040D0000 		.4byte	.LFB56
 10143 16c9 3A0D0000 		.4byte	.LFE56
 10144 16cd A4160000 		.4byte	.LLST27
 10145 16d1 01       		.byte	0x1
 10146 16d2 04170000 		.4byte	0x1704
 10147 16d6 12       		.uleb128 0x12
 10148 16d7 F0050000 		.4byte	.LASF84
 10149 16db 01       		.byte	0x1
 10150 16dc CD04     		.2byte	0x4cd
 10151 16de CB050000 		.4byte	0x5cb
 10152 16e2 02       		.byte	0x2
 10153 16e3 91       		.byte	0x91
 10154 16e4 6C       		.sleb128 -20
 10155 16e5 12       		.uleb128 0x12
 10156 16e6 4F000000 		.4byte	.LASF182
 10157 16ea 01       		.byte	0x1
 10158 16eb CD04     		.2byte	0x4cd
ARM GAS  G:\Users\Jaxb\AppData\Local\Temp\ccSQWSCJ.s 			page 231


 10159 16ed 9C000000 		.4byte	0x9c
 10160 16f1 02       		.byte	0x2
 10161 16f2 91       		.byte	0x91
 10162 16f3 6A       		.sleb128 -22
 10163 16f4 13       		.uleb128 0x13
 10164 16f5 B8060000 		.4byte	.LASF180
 10165 16f9 01       		.byte	0x1
 10166 16fa CF04     		.2byte	0x4cf
 10167 16fc 9C000000 		.4byte	0x9c
 10168 1700 02       		.byte	0x2
 10169 1701 91       		.byte	0x91
 10170 1702 76       		.sleb128 -10
 10171 1703 00       		.byte	0
 10172 1704 16       		.uleb128 0x16
 10173 1705 01       		.byte	0x1
 10174 1706 77020000 		.4byte	.LASF183
 10175 170a 01       		.byte	0x1
 10176 170b AF04     		.2byte	0x4af
 10177 170d 01       		.byte	0x1
 10178 170e CE0C0000 		.4byte	.LFB55
 10179 1712 040D0000 		.4byte	.LFE55
 10180 1716 00170000 		.4byte	.LLST26
 10181 171a 01       		.byte	0x1
 10182 171b 4D170000 		.4byte	0x174d
 10183 171f 12       		.uleb128 0x12
 10184 1720 F0050000 		.4byte	.LASF84
 10185 1724 01       		.byte	0x1
 10186 1725 AF04     		.2byte	0x4af
 10187 1727 CB050000 		.4byte	0x5cb
 10188 172b 02       		.byte	0x2
 10189 172c 91       		.byte	0x91
 10190 172d 6C       		.sleb128 -20
 10191 172e 12       		.uleb128 0x12
 10192 172f 75000000 		.4byte	.LASF56
 10193 1733 01       		.byte	0x1
 10194 1734 AF04     		.2byte	0x4af
 10195 1736 9C000000 		.4byte	0x9c
 10196 173a 02       		.byte	0x2
 10197 173b 91       		.byte	0x91
 10198 173c 6A       		.sleb128 -22
 10199 173d 13       		.uleb128 0x13
 10200 173e 38010000 		.4byte	.LASF184
 10201 1742 01       		.byte	0x1
 10202 1743 B104     		.2byte	0x4b1
 10203 1745 9C000000 		.4byte	0x9c
 10204 1749 02       		.byte	0x2
 10205 174a 91       		.byte	0x91
 10206 174b 76       		.sleb128 -10
 10207 174c 00       		.byte	0
 10208 174d 16       		.uleb128 0x16
 10209 174e 01       		.byte	0x1
 10210 174f 45090000 		.4byte	.LASF185
 10211 1753 01       		.byte	0x1
 10212 1754 9804     		.2byte	0x498
 10213 1756 01       		.byte	0x1
 10214 1757 A80C0000 		.4byte	.LFB54
 10215 175b CE0C0000 		.4byte	.LFE54
ARM GAS  G:\Users\Jaxb\AppData\Local\Temp\ccSQWSCJ.s 			page 232


 10216 175f 5C170000 		.4byte	.LLST25
 10217 1763 01       		.byte	0x1
 10218 1764 96170000 		.4byte	0x1796
 10219 1768 12       		.uleb128 0x12
 10220 1769 F0050000 		.4byte	.LASF84
 10221 176d 01       		.byte	0x1
 10222 176e 9804     		.2byte	0x498
 10223 1770 CB050000 		.4byte	0x5cb
 10224 1774 02       		.byte	0x2
 10225 1775 91       		.byte	0x91
 10226 1776 74       		.sleb128 -12
 10227 1777 12       		.uleb128 0x12
 10228 1778 2F0B0000 		.4byte	.LASF186
 10229 177c 01       		.byte	0x1
 10230 177d 9804     		.2byte	0x498
 10231 177f 9C000000 		.4byte	0x9c
 10232 1783 02       		.byte	0x2
 10233 1784 91       		.byte	0x91
 10234 1785 72       		.sleb128 -14
 10235 1786 12       		.uleb128 0x12
 10236 1787 94060000 		.4byte	.LASF187
 10237 178b 01       		.byte	0x1
 10238 178c 9804     		.2byte	0x498
 10239 178e 9C000000 		.4byte	0x9c
 10240 1792 02       		.byte	0x2
 10241 1793 91       		.byte	0x91
 10242 1794 70       		.sleb128 -16
 10243 1795 00       		.byte	0
 10244 1796 16       		.uleb128 0x16
 10245 1797 01       		.byte	0x1
 10246 1798 AD0D0000 		.4byte	.LASF188
 10247 179c 01       		.byte	0x1
 10248 179d 7C04     		.2byte	0x47c
 10249 179f 01       		.byte	0x1
 10250 17a0 560C0000 		.4byte	.LFB53
 10251 17a4 A80C0000 		.4byte	.LFE53
 10252 17a8 B8170000 		.4byte	.LLST24
 10253 17ac 01       		.byte	0x1
 10254 17ad FD170000 		.4byte	0x17fd
 10255 17b1 12       		.uleb128 0x12
 10256 17b2 F0050000 		.4byte	.LASF84
 10257 17b6 01       		.byte	0x1
 10258 17b7 7C04     		.2byte	0x47c
 10259 17b9 CB050000 		.4byte	0x5cb
 10260 17bd 02       		.byte	0x2
 10261 17be 91       		.byte	0x91
 10262 17bf 6C       		.sleb128 -20
 10263 17c0 12       		.uleb128 0x12
 10264 17c1 0B070000 		.4byte	.LASF189
 10265 17c5 01       		.byte	0x1
 10266 17c6 7C04     		.2byte	0x47c
 10267 17c8 9C000000 		.4byte	0x9c
 10268 17cc 02       		.byte	0x2
 10269 17cd 91       		.byte	0x91
 10270 17ce 6A       		.sleb128 -22
 10271 17cf 12       		.uleb128 0x12
 10272 17d0 C0060000 		.4byte	.LASF190
ARM GAS  G:\Users\Jaxb\AppData\Local\Temp\ccSQWSCJ.s 			page 233


 10273 17d4 01       		.byte	0x1
 10274 17d5 7C04     		.2byte	0x47c
 10275 17d7 9C000000 		.4byte	0x9c
 10276 17db 02       		.byte	0x2
 10277 17dc 91       		.byte	0x91
 10278 17dd 68       		.sleb128 -24
 10279 17de 12       		.uleb128 0x12
 10280 17df 6A0D0000 		.4byte	.LASF191
 10281 17e3 01       		.byte	0x1
 10282 17e4 7D04     		.2byte	0x47d
 10283 17e6 9C000000 		.4byte	0x9c
 10284 17ea 02       		.byte	0x2
 10285 17eb 91       		.byte	0x91
 10286 17ec 66       		.sleb128 -26
 10287 17ed 13       		.uleb128 0x13
 10288 17ee B8060000 		.4byte	.LASF180
 10289 17f2 01       		.byte	0x1
 10290 17f3 7F04     		.2byte	0x47f
 10291 17f5 9C000000 		.4byte	0x9c
 10292 17f9 02       		.byte	0x2
 10293 17fa 91       		.byte	0x91
 10294 17fb 76       		.sleb128 -10
 10295 17fc 00       		.byte	0
 10296 17fd 18       		.uleb128 0x18
 10297 17fe 01       		.byte	0x1
 10298 17ff 560A0000 		.4byte	.LASF192
 10299 1803 01       		.byte	0x1
 10300 1804 5D04     		.2byte	0x45d
 10301 1806 01       		.byte	0x1
 10302 1807 180C0000 		.4byte	.LFB52
 10303 180b 560C0000 		.4byte	.LFE52
 10304 180f 14180000 		.4byte	.LLST23
 10305 1813 01       		.byte	0x1
 10306 1814 55180000 		.4byte	0x1855
 10307 1818 12       		.uleb128 0x12
 10308 1819 F0050000 		.4byte	.LASF84
 10309 181d 01       		.byte	0x1
 10310 181e 5D04     		.2byte	0x45d
 10311 1820 CB050000 		.4byte	0x5cb
 10312 1824 02       		.byte	0x2
 10313 1825 91       		.byte	0x91
 10314 1826 74       		.sleb128 -12
 10315 1827 12       		.uleb128 0x12
 10316 1828 0B070000 		.4byte	.LASF189
 10317 182c 01       		.byte	0x1
 10318 182d 5D04     		.2byte	0x45d
 10319 182f 9C000000 		.4byte	0x9c
 10320 1833 02       		.byte	0x2
 10321 1834 91       		.byte	0x91
 10322 1835 72       		.sleb128 -14
 10323 1836 12       		.uleb128 0x12
 10324 1837 C0060000 		.4byte	.LASF190
 10325 183b 01       		.byte	0x1
 10326 183c 5E04     		.2byte	0x45e
 10327 183e 9C000000 		.4byte	0x9c
 10328 1842 02       		.byte	0x2
 10329 1843 91       		.byte	0x91
ARM GAS  G:\Users\Jaxb\AppData\Local\Temp\ccSQWSCJ.s 			page 234


 10330 1844 70       		.sleb128 -16
 10331 1845 12       		.uleb128 0x12
 10332 1846 6A0D0000 		.4byte	.LASF191
 10333 184a 01       		.byte	0x1
 10334 184b 5E04     		.2byte	0x45e
 10335 184d 9C000000 		.4byte	0x9c
 10336 1851 02       		.byte	0x2
 10337 1852 91       		.byte	0x91
 10338 1853 6E       		.sleb128 -18
 10339 1854 00       		.byte	0
 10340 1855 18       		.uleb128 0x18
 10341 1856 01       		.byte	0x1
 10342 1857 32030000 		.4byte	.LASF193
 10343 185b 01       		.byte	0x1
 10344 185c 3304     		.2byte	0x433
 10345 185e 01       		.byte	0x1
 10346 185f BA0B0000 		.4byte	.LFB51
 10347 1863 180C0000 		.4byte	.LFE51
 10348 1867 64180000 		.4byte	.LLST22
 10349 186b 01       		.byte	0x1
 10350 186c BC180000 		.4byte	0x18bc
 10351 1870 12       		.uleb128 0x12
 10352 1871 F0050000 		.4byte	.LASF84
 10353 1875 01       		.byte	0x1
 10354 1876 3304     		.2byte	0x433
 10355 1878 CB050000 		.4byte	0x5cb
 10356 187c 02       		.byte	0x2
 10357 187d 91       		.byte	0x91
 10358 187e 6C       		.sleb128 -20
 10359 187f 12       		.uleb128 0x12
 10360 1880 0B070000 		.4byte	.LASF189
 10361 1884 01       		.byte	0x1
 10362 1885 3304     		.2byte	0x433
 10363 1887 9C000000 		.4byte	0x9c
 10364 188b 02       		.byte	0x2
 10365 188c 91       		.byte	0x91
 10366 188d 6A       		.sleb128 -22
 10367 188e 12       		.uleb128 0x12
 10368 188f C0060000 		.4byte	.LASF190
 10369 1893 01       		.byte	0x1
 10370 1894 3304     		.2byte	0x433
 10371 1896 9C000000 		.4byte	0x9c
 10372 189a 02       		.byte	0x2
 10373 189b 91       		.byte	0x91
 10374 189c 68       		.sleb128 -24
 10375 189d 12       		.uleb128 0x12
 10376 189e 6A0D0000 		.4byte	.LASF191
 10377 18a2 01       		.byte	0x1
 10378 18a3 3404     		.2byte	0x434
 10379 18a5 9C000000 		.4byte	0x9c
 10380 18a9 02       		.byte	0x2
 10381 18aa 91       		.byte	0x91
 10382 18ab 66       		.sleb128 -26
 10383 18ac 13       		.uleb128 0x13
 10384 18ad B8060000 		.4byte	.LASF180
 10385 18b1 01       		.byte	0x1
 10386 18b2 3604     		.2byte	0x436
ARM GAS  G:\Users\Jaxb\AppData\Local\Temp\ccSQWSCJ.s 			page 235


 10387 18b4 9C000000 		.4byte	0x9c
 10388 18b8 02       		.byte	0x2
 10389 18b9 91       		.byte	0x91
 10390 18ba 76       		.sleb128 -10
 10391 18bb 00       		.byte	0
 10392 18bc 18       		.uleb128 0x18
 10393 18bd 01       		.byte	0x1
 10394 18be CF080000 		.4byte	.LASF194
 10395 18c2 01       		.byte	0x1
 10396 18c3 0B04     		.2byte	0x40b
 10397 18c5 01       		.byte	0x1
 10398 18c6 5E0B0000 		.4byte	.LFB50
 10399 18ca BA0B0000 		.4byte	.LFE50
 10400 18ce B4180000 		.4byte	.LLST21
 10401 18d2 01       		.byte	0x1
 10402 18d3 14190000 		.4byte	0x1914
 10403 18d7 12       		.uleb128 0x12
 10404 18d8 F0050000 		.4byte	.LASF84
 10405 18dc 01       		.byte	0x1
 10406 18dd 0B04     		.2byte	0x40b
 10407 18df CB050000 		.4byte	0x5cb
 10408 18e3 02       		.byte	0x2
 10409 18e4 91       		.byte	0x91
 10410 18e5 74       		.sleb128 -12
 10411 18e6 12       		.uleb128 0x12
 10412 18e7 CF090000 		.4byte	.LASF195
 10413 18eb 01       		.byte	0x1
 10414 18ec 0B04     		.2byte	0x40b
 10415 18ee 9C000000 		.4byte	0x9c
 10416 18f2 02       		.byte	0x2
 10417 18f3 91       		.byte	0x91
 10418 18f4 72       		.sleb128 -14
 10419 18f5 12       		.uleb128 0x12
 10420 18f6 62080000 		.4byte	.LASF71
 10421 18fa 01       		.byte	0x1
 10422 18fb 0C04     		.2byte	0x40c
 10423 18fd 9C000000 		.4byte	0x9c
 10424 1901 02       		.byte	0x2
 10425 1902 91       		.byte	0x91
 10426 1903 70       		.sleb128 -16
 10427 1904 12       		.uleb128 0x12
 10428 1905 510D0000 		.4byte	.LASF196
 10429 1909 01       		.byte	0x1
 10430 190a 0C04     		.2byte	0x40c
 10431 190c 9C000000 		.4byte	0x9c
 10432 1910 02       		.byte	0x2
 10433 1911 91       		.byte	0x91
 10434 1912 6E       		.sleb128 -18
 10435 1913 00       		.byte	0
 10436 1914 18       		.uleb128 0x18
 10437 1915 01       		.byte	0x1
 10438 1916 59090000 		.4byte	.LASF197
 10439 191a 01       		.byte	0x1
 10440 191b F003     		.2byte	0x3f0
 10441 191d 01       		.byte	0x1
 10442 191e 300B0000 		.4byte	.LFB49
 10443 1922 5E0B0000 		.4byte	.LFE49
ARM GAS  G:\Users\Jaxb\AppData\Local\Temp\ccSQWSCJ.s 			page 236


 10444 1926 04190000 		.4byte	.LLST20
 10445 192a 01       		.byte	0x1
 10446 192b 4E190000 		.4byte	0x194e
 10447 192f 12       		.uleb128 0x12
 10448 1930 F0050000 		.4byte	.LASF84
 10449 1934 01       		.byte	0x1
 10450 1935 F003     		.2byte	0x3f0
 10451 1937 CB050000 		.4byte	0x5cb
 10452 193b 02       		.byte	0x2
 10453 193c 91       		.byte	0x91
 10454 193d 74       		.sleb128 -12
 10455 193e 12       		.uleb128 0x12
 10456 193f 4F000000 		.4byte	.LASF182
 10457 1943 01       		.byte	0x1
 10458 1944 F003     		.2byte	0x3f0
 10459 1946 9C000000 		.4byte	0x9c
 10460 194a 02       		.byte	0x2
 10461 194b 91       		.byte	0x91
 10462 194c 72       		.sleb128 -14
 10463 194d 00       		.byte	0
 10464 194e 16       		.uleb128 0x16
 10465 194f 01       		.byte	0x1
 10466 1950 9D010000 		.4byte	.LASF198
 10467 1954 01       		.byte	0x1
 10468 1955 DD03     		.2byte	0x3dd
 10469 1957 01       		.byte	0x1
 10470 1958 0E0B0000 		.4byte	.LFB48
 10471 195c 300B0000 		.4byte	.LFE48
 10472 1960 54190000 		.4byte	.LLST19
 10473 1964 01       		.byte	0x1
 10474 1965 79190000 		.4byte	0x1979
 10475 1969 12       		.uleb128 0x12
 10476 196a F0050000 		.4byte	.LASF84
 10477 196e 01       		.byte	0x1
 10478 196f DD03     		.2byte	0x3dd
 10479 1971 CB050000 		.4byte	0x5cb
 10480 1975 02       		.byte	0x2
 10481 1976 91       		.byte	0x91
 10482 1977 74       		.sleb128 -12
 10483 1978 00       		.byte	0
 10484 1979 16       		.uleb128 0x16
 10485 197a 01       		.byte	0x1
 10486 197b 3F000000 		.4byte	.LASF199
 10487 197f 01       		.byte	0x1
 10488 1980 C403     		.2byte	0x3c4
 10489 1982 01       		.byte	0x1
 10490 1983 C80A0000 		.4byte	.LFB47
 10491 1987 0E0B0000 		.4byte	.LFE47
 10492 198b B0190000 		.4byte	.LLST18
 10493 198f 01       		.byte	0x1
 10494 1990 C2190000 		.4byte	0x19c2
 10495 1994 12       		.uleb128 0x12
 10496 1995 F0050000 		.4byte	.LASF84
 10497 1999 01       		.byte	0x1
 10498 199a C403     		.2byte	0x3c4
 10499 199c CB050000 		.4byte	0x5cb
 10500 19a0 02       		.byte	0x2
ARM GAS  G:\Users\Jaxb\AppData\Local\Temp\ccSQWSCJ.s 			page 237


 10501 19a1 91       		.byte	0x91
 10502 19a2 74       		.sleb128 -12
 10503 19a3 12       		.uleb128 0x12
 10504 19a4 75060000 		.4byte	.LASF200
 10505 19a8 01       		.byte	0x1
 10506 19a9 C403     		.2byte	0x3c4
 10507 19ab 9C000000 		.4byte	0x9c
 10508 19af 02       		.byte	0x2
 10509 19b0 91       		.byte	0x91
 10510 19b1 72       		.sleb128 -14
 10511 19b2 12       		.uleb128 0x12
 10512 19b3 0B000000 		.4byte	.LASF135
 10513 19b7 01       		.byte	0x1
 10514 19b8 C403     		.2byte	0x3c4
 10515 19ba 20010000 		.4byte	0x120
 10516 19be 02       		.byte	0x2
 10517 19bf 91       		.byte	0x91
 10518 19c0 71       		.sleb128 -15
 10519 19c1 00       		.byte	0
 10520 19c2 16       		.uleb128 0x16
 10521 19c3 01       		.byte	0x1
 10522 19c4 06080000 		.4byte	.LASF201
 10523 19c8 01       		.byte	0x1
 10524 19c9 A903     		.2byte	0x3a9
 10525 19cb 01       		.byte	0x1
 10526 19cc A00A0000 		.4byte	.LFB46
 10527 19d0 C80A0000 		.4byte	.LFE46
 10528 19d4 0C1A0000 		.4byte	.LLST17
 10529 19d8 01       		.byte	0x1
 10530 19d9 0B1A0000 		.4byte	0x1a0b
 10531 19dd 12       		.uleb128 0x12
 10532 19de F0050000 		.4byte	.LASF84
 10533 19e2 01       		.byte	0x1
 10534 19e3 A903     		.2byte	0x3a9
 10535 19e5 CB050000 		.4byte	0x5cb
 10536 19e9 02       		.byte	0x2
 10537 19ea 91       		.byte	0x91
 10538 19eb 74       		.sleb128 -12
 10539 19ec 12       		.uleb128 0x12
 10540 19ed 9F070000 		.4byte	.LASF202
 10541 19f1 01       		.byte	0x1
 10542 19f2 A903     		.2byte	0x3a9
 10543 19f4 9C000000 		.4byte	0x9c
 10544 19f8 02       		.byte	0x2
 10545 19f9 91       		.byte	0x91
 10546 19fa 72       		.sleb128 -14
 10547 19fb 12       		.uleb128 0x12
 10548 19fc 76040000 		.4byte	.LASF203
 10549 1a00 01       		.byte	0x1
 10550 1a01 A903     		.2byte	0x3a9
 10551 1a03 9C000000 		.4byte	0x9c
 10552 1a07 02       		.byte	0x2
 10553 1a08 91       		.byte	0x91
 10554 1a09 70       		.sleb128 -16
 10555 1a0a 00       		.byte	0
 10556 1a0b 16       		.uleb128 0x16
 10557 1a0c 01       		.byte	0x1
ARM GAS  G:\Users\Jaxb\AppData\Local\Temp\ccSQWSCJ.s 			page 238


 10558 1a0d 32020000 		.4byte	.LASF204
 10559 1a11 01       		.byte	0x1
 10560 1a12 8D03     		.2byte	0x38d
 10561 1a14 01       		.byte	0x1
 10562 1a15 840A0000 		.4byte	.LFB45
 10563 1a19 A00A0000 		.4byte	.LFE45
 10564 1a1d 681A0000 		.4byte	.LLST16
 10565 1a21 01       		.byte	0x1
 10566 1a22 451A0000 		.4byte	0x1a45
 10567 1a26 12       		.uleb128 0x12
 10568 1a27 F0050000 		.4byte	.LASF84
 10569 1a2b 01       		.byte	0x1
 10570 1a2c 8D03     		.2byte	0x38d
 10571 1a2e CB050000 		.4byte	0x5cb
 10572 1a32 02       		.byte	0x2
 10573 1a33 91       		.byte	0x91
 10574 1a34 74       		.sleb128 -12
 10575 1a35 12       		.uleb128 0x12
 10576 1a36 52080000 		.4byte	.LASF205
 10577 1a3a 01       		.byte	0x1
 10578 1a3b 8D03     		.2byte	0x38d
 10579 1a3d 9C000000 		.4byte	0x9c
 10580 1a41 02       		.byte	0x2
 10581 1a42 91       		.byte	0x91
 10582 1a43 72       		.sleb128 -14
 10583 1a44 00       		.byte	0
 10584 1a45 16       		.uleb128 0x16
 10585 1a46 01       		.byte	0x1
 10586 1a47 06090000 		.4byte	.LASF206
 10587 1a4b 01       		.byte	0x1
 10588 1a4c 6803     		.2byte	0x368
 10589 1a4e 01       		.byte	0x1
 10590 1a4f 3E0A0000 		.4byte	.LFB44
 10591 1a53 840A0000 		.4byte	.LFE44
 10592 1a57 C41A0000 		.4byte	.LLST15
 10593 1a5b 01       		.byte	0x1
 10594 1a5c 8E1A0000 		.4byte	0x1a8e
 10595 1a60 12       		.uleb128 0x12
 10596 1a61 F0050000 		.4byte	.LASF84
 10597 1a65 01       		.byte	0x1
 10598 1a66 6803     		.2byte	0x368
 10599 1a68 CB050000 		.4byte	0x5cb
 10600 1a6c 02       		.byte	0x2
 10601 1a6d 91       		.byte	0x91
 10602 1a6e 74       		.sleb128 -12
 10603 1a6f 12       		.uleb128 0x12
 10604 1a70 B7090000 		.4byte	.LASF92
 10605 1a74 01       		.byte	0x1
 10606 1a75 6803     		.2byte	0x368
 10607 1a77 9C000000 		.4byte	0x9c
 10608 1a7b 02       		.byte	0x2
 10609 1a7c 91       		.byte	0x91
 10610 1a7d 72       		.sleb128 -14
 10611 1a7e 12       		.uleb128 0x12
 10612 1a7f 0B000000 		.4byte	.LASF135
 10613 1a83 01       		.byte	0x1
 10614 1a84 6803     		.2byte	0x368
ARM GAS  G:\Users\Jaxb\AppData\Local\Temp\ccSQWSCJ.s 			page 239


 10615 1a86 20010000 		.4byte	0x120
 10616 1a8a 02       		.byte	0x2
 10617 1a8b 91       		.byte	0x91
 10618 1a8c 71       		.sleb128 -15
 10619 1a8d 00       		.byte	0
 10620 1a8e 16       		.uleb128 0x16
 10621 1a8f 01       		.byte	0x1
 10622 1a90 870D0000 		.4byte	.LASF207
 10623 1a94 01       		.byte	0x1
 10624 1a95 3F03     		.2byte	0x33f
 10625 1a97 01       		.byte	0x1
 10626 1a98 F4090000 		.4byte	.LFB43
 10627 1a9c 3E0A0000 		.4byte	.LFE43
 10628 1aa0 201B0000 		.4byte	.LLST14
 10629 1aa4 01       		.byte	0x1
 10630 1aa5 C81A0000 		.4byte	0x1ac8
 10631 1aa9 12       		.uleb128 0x12
 10632 1aaa F0050000 		.4byte	.LASF84
 10633 1aae 01       		.byte	0x1
 10634 1aaf 3F03     		.2byte	0x33f
 10635 1ab1 CB050000 		.4byte	0x5cb
 10636 1ab5 02       		.byte	0x2
 10637 1ab6 91       		.byte	0x91
 10638 1ab7 74       		.sleb128 -12
 10639 1ab8 12       		.uleb128 0x12
 10640 1ab9 0B000000 		.4byte	.LASF135
 10641 1abd 01       		.byte	0x1
 10642 1abe 3F03     		.2byte	0x33f
 10643 1ac0 20010000 		.4byte	0x120
 10644 1ac4 02       		.byte	0x2
 10645 1ac5 91       		.byte	0x91
 10646 1ac6 73       		.sleb128 -13
 10647 1ac7 00       		.byte	0
 10648 1ac8 16       		.uleb128 0x16
 10649 1ac9 01       		.byte	0x1
 10650 1aca 790A0000 		.4byte	.LASF208
 10651 1ace 01       		.byte	0x1
 10652 1acf 2603     		.2byte	0x326
 10653 1ad1 01       		.byte	0x1
 10654 1ad2 B6090000 		.4byte	.LFB42
 10655 1ad6 F4090000 		.4byte	.LFE42
 10656 1ada 7C1B0000 		.4byte	.LLST13
 10657 1ade 01       		.byte	0x1
 10658 1adf 021B0000 		.4byte	0x1b02
 10659 1ae3 12       		.uleb128 0x12
 10660 1ae4 F0050000 		.4byte	.LASF84
 10661 1ae8 01       		.byte	0x1
 10662 1ae9 2603     		.2byte	0x326
 10663 1aeb CB050000 		.4byte	0x5cb
 10664 1aef 02       		.byte	0x2
 10665 1af0 91       		.byte	0x91
 10666 1af1 74       		.sleb128 -12
 10667 1af2 12       		.uleb128 0x12
 10668 1af3 0B000000 		.4byte	.LASF135
 10669 1af7 01       		.byte	0x1
 10670 1af8 2603     		.2byte	0x326
 10671 1afa 20010000 		.4byte	0x120
ARM GAS  G:\Users\Jaxb\AppData\Local\Temp\ccSQWSCJ.s 			page 240


 10672 1afe 02       		.byte	0x2
 10673 1aff 91       		.byte	0x91
 10674 1b00 73       		.sleb128 -13
 10675 1b01 00       		.byte	0
 10676 1b02 16       		.uleb128 0x16
 10677 1b03 01       		.byte	0x1
 10678 1b04 D3060000 		.4byte	.LASF209
 10679 1b08 01       		.byte	0x1
 10680 1b09 1303     		.2byte	0x313
 10681 1b0b 01       		.byte	0x1
 10682 1b0c 7A090000 		.4byte	.LFB41
 10683 1b10 B6090000 		.4byte	.LFE41
 10684 1b14 D81B0000 		.4byte	.LLST12
 10685 1b18 01       		.byte	0x1
 10686 1b19 2D1B0000 		.4byte	0x1b2d
 10687 1b1d 12       		.uleb128 0x12
 10688 1b1e F2090000 		.4byte	.LASF210
 10689 1b22 01       		.byte	0x1
 10690 1b23 1303     		.2byte	0x313
 10691 1b25 2D1B0000 		.4byte	0x1b2d
 10692 1b29 02       		.byte	0x2
 10693 1b2a 91       		.byte	0x91
 10694 1b2b 74       		.sleb128 -12
 10695 1b2c 00       		.byte	0
 10696 1b2d 15       		.uleb128 0x15
 10697 1b2e 04       		.byte	0x4
 10698 1b2f 3C050000 		.4byte	0x53c
 10699 1b33 16       		.uleb128 0x16
 10700 1b34 01       		.byte	0x1
 10701 1b35 B5030000 		.4byte	.LASF211
 10702 1b39 01       		.byte	0x1
 10703 1b3a 0303     		.2byte	0x303
 10704 1b3c 01       		.byte	0x1
 10705 1b3d 4A090000 		.4byte	.LFB40
 10706 1b41 7A090000 		.4byte	.LFE40
 10707 1b45 341C0000 		.4byte	.LLST11
 10708 1b49 01       		.byte	0x1
 10709 1b4a 5E1B0000 		.4byte	0x1b5e
 10710 1b4e 12       		.uleb128 0x12
 10711 1b4f E6060000 		.4byte	.LASF212
 10712 1b53 01       		.byte	0x1
 10713 1b54 0303     		.2byte	0x303
 10714 1b56 5E1B0000 		.4byte	0x1b5e
 10715 1b5a 02       		.byte	0x2
 10716 1b5b 91       		.byte	0x91
 10717 1b5c 74       		.sleb128 -12
 10718 1b5d 00       		.byte	0
 10719 1b5e 15       		.uleb128 0x15
 10720 1b5f 04       		.byte	0x4
 10721 1b60 C6040000 		.4byte	0x4c6
 10722 1b64 16       		.uleb128 0x16
 10723 1b65 01       		.byte	0x1
 10724 1b66 83060000 		.4byte	.LASF213
 10725 1b6a 01       		.byte	0x1
 10726 1b6b F002     		.2byte	0x2f0
 10727 1b6d 01       		.byte	0x1
 10728 1b6e 08090000 		.4byte	.LFB39
ARM GAS  G:\Users\Jaxb\AppData\Local\Temp\ccSQWSCJ.s 			page 241


 10729 1b72 4A090000 		.4byte	.LFE39
 10730 1b76 901C0000 		.4byte	.LLST10
 10731 1b7a 01       		.byte	0x1
 10732 1b7b 8F1B0000 		.4byte	0x1b8f
 10733 1b7f 12       		.uleb128 0x12
 10734 1b80 CC050000 		.4byte	.LASF214
 10735 1b84 01       		.byte	0x1
 10736 1b85 F002     		.2byte	0x2f0
 10737 1b87 8F1B0000 		.4byte	0x1b8f
 10738 1b8b 02       		.byte	0x2
 10739 1b8c 91       		.byte	0x91
 10740 1b8d 74       		.sleb128 -12
 10741 1b8e 00       		.byte	0
 10742 1b8f 15       		.uleb128 0x15
 10743 1b90 04       		.byte	0x4
 10744 1b91 6C040000 		.4byte	0x46c
 10745 1b95 16       		.uleb128 0x16
 10746 1b96 01       		.byte	0x1
 10747 1b97 3D050000 		.4byte	.LASF215
 10748 1b9b 01       		.byte	0x1
 10749 1b9c E002     		.2byte	0x2e0
 10750 1b9e 01       		.byte	0x1
 10751 1b9f D6080000 		.4byte	.LFB38
 10752 1ba3 08090000 		.4byte	.LFE38
 10753 1ba7 EC1C0000 		.4byte	.LLST9
 10754 1bab 01       		.byte	0x1
 10755 1bac C01B0000 		.4byte	0x1bc0
 10756 1bb0 12       		.uleb128 0x12
 10757 1bb1 EF070000 		.4byte	.LASF216
 10758 1bb5 01       		.byte	0x1
 10759 1bb6 E002     		.2byte	0x2e0
 10760 1bb8 C01B0000 		.4byte	0x1bc0
 10761 1bbc 02       		.byte	0x2
 10762 1bbd 91       		.byte	0x91
 10763 1bbe 74       		.sleb128 -12
 10764 1bbf 00       		.byte	0
 10765 1bc0 15       		.uleb128 0x15
 10766 1bc1 04       		.byte	0x4
 10767 1bc2 E8030000 		.4byte	0x3e8
 10768 1bc6 16       		.uleb128 0x16
 10769 1bc7 01       		.byte	0x1
 10770 1bc8 13090000 		.4byte	.LASF217
 10771 1bcc 01       		.byte	0x1
 10772 1bcd C802     		.2byte	0x2c8
 10773 1bcf 01       		.byte	0x1
 10774 1bd0 88080000 		.4byte	.LFB37
 10775 1bd4 D6080000 		.4byte	.LFE37
 10776 1bd8 481D0000 		.4byte	.LLST8
 10777 1bdc 01       		.byte	0x1
 10778 1bdd 001C0000 		.4byte	0x1c00
 10779 1be1 12       		.uleb128 0x12
 10780 1be2 F0050000 		.4byte	.LASF84
 10781 1be6 01       		.byte	0x1
 10782 1be7 C802     		.2byte	0x2c8
 10783 1be9 CB050000 		.4byte	0x5cb
 10784 1bed 02       		.byte	0x2
 10785 1bee 91       		.byte	0x91
ARM GAS  G:\Users\Jaxb\AppData\Local\Temp\ccSQWSCJ.s 			page 242


 10786 1bef 74       		.sleb128 -12
 10787 1bf0 12       		.uleb128 0x12
 10788 1bf1 F2090000 		.4byte	.LASF210
 10789 1bf5 01       		.byte	0x1
 10790 1bf6 C802     		.2byte	0x2c8
 10791 1bf8 2D1B0000 		.4byte	0x1b2d
 10792 1bfc 02       		.byte	0x2
 10793 1bfd 91       		.byte	0x91
 10794 1bfe 70       		.sleb128 -16
 10795 1bff 00       		.byte	0
 10796 1c00 18       		.uleb128 0x18
 10797 1c01 01       		.byte	0x1
 10798 1c02 5B060000 		.4byte	.LASF218
 10799 1c06 01       		.byte	0x1
 10800 1c07 8E02     		.2byte	0x28e
 10801 1c09 01       		.byte	0x1
 10802 1c0a D0070000 		.4byte	.LFB36
 10803 1c0e 88080000 		.4byte	.LFE36
 10804 1c12 A41D0000 		.4byte	.LLST7
 10805 1c16 01       		.byte	0x1
 10806 1c17 581C0000 		.4byte	0x1c58
 10807 1c1b 12       		.uleb128 0x12
 10808 1c1c F0050000 		.4byte	.LASF84
 10809 1c20 01       		.byte	0x1
 10810 1c21 8E02     		.2byte	0x28e
 10811 1c23 CB050000 		.4byte	0x5cb
 10812 1c27 02       		.byte	0x2
 10813 1c28 91       		.byte	0x91
 10814 1c29 6C       		.sleb128 -20
 10815 1c2a 12       		.uleb128 0x12
 10816 1c2b E6060000 		.4byte	.LASF212
 10817 1c2f 01       		.byte	0x1
 10818 1c30 8E02     		.2byte	0x28e
 10819 1c32 5E1B0000 		.4byte	0x1b5e
 10820 1c36 02       		.byte	0x2
 10821 1c37 91       		.byte	0x91
 10822 1c38 68       		.sleb128 -24
 10823 1c39 13       		.uleb128 0x13
 10824 1c3a 02040000 		.4byte	.LASF219
 10825 1c3e 01       		.byte	0x1
 10826 1c3f 9002     		.2byte	0x290
 10827 1c41 9C000000 		.4byte	0x9c
 10828 1c45 02       		.byte	0x2
 10829 1c46 91       		.byte	0x91
 10830 1c47 76       		.sleb128 -10
 10831 1c48 13       		.uleb128 0x13
 10832 1c49 AB070000 		.4byte	.LASF220
 10833 1c4d 01       		.byte	0x1
 10834 1c4e 9102     		.2byte	0x291
 10835 1c50 9C000000 		.4byte	0x9c
 10836 1c54 02       		.byte	0x2
 10837 1c55 91       		.byte	0x91
 10838 1c56 74       		.sleb128 -12
 10839 1c57 00       		.byte	0
 10840 1c58 18       		.uleb128 0x18
 10841 1c59 01       		.byte	0x1
 10842 1c5a FD0A0000 		.4byte	.LASF221
ARM GAS  G:\Users\Jaxb\AppData\Local\Temp\ccSQWSCJ.s 			page 243


 10843 1c5e 01       		.byte	0x1
 10844 1c5f 4B02     		.2byte	0x24b
 10845 1c61 01       		.byte	0x1
 10846 1c62 28070000 		.4byte	.LFB35
 10847 1c66 D0070000 		.4byte	.LFE35
 10848 1c6a F41D0000 		.4byte	.LLST6
 10849 1c6e 01       		.byte	0x1
 10850 1c6f 921C0000 		.4byte	0x1c92
 10851 1c73 12       		.uleb128 0x12
 10852 1c74 F0050000 		.4byte	.LASF84
 10853 1c78 01       		.byte	0x1
 10854 1c79 4B02     		.2byte	0x24b
 10855 1c7b CB050000 		.4byte	0x5cb
 10856 1c7f 02       		.byte	0x2
 10857 1c80 91       		.byte	0x91
 10858 1c81 74       		.sleb128 -12
 10859 1c82 12       		.uleb128 0x12
 10860 1c83 E6060000 		.4byte	.LASF212
 10861 1c87 01       		.byte	0x1
 10862 1c88 4B02     		.2byte	0x24b
 10863 1c8a 5E1B0000 		.4byte	0x1b5e
 10864 1c8e 02       		.byte	0x2
 10865 1c8f 91       		.byte	0x91
 10866 1c90 70       		.sleb128 -16
 10867 1c91 00       		.byte	0
 10868 1c92 16       		.uleb128 0x16
 10869 1c93 01       		.byte	0x1
 10870 1c94 F10A0000 		.4byte	.LASF222
 10871 1c98 01       		.byte	0x1
 10872 1c99 0B02     		.2byte	0x20b
 10873 1c9b 01       		.byte	0x1
 10874 1c9c 58060000 		.4byte	.LFB34
 10875 1ca0 28070000 		.4byte	.LFE34
 10876 1ca4 441E0000 		.4byte	.LLST5
 10877 1ca8 01       		.byte	0x1
 10878 1ca9 F91C0000 		.4byte	0x1cf9
 10879 1cad 12       		.uleb128 0x12
 10880 1cae F0050000 		.4byte	.LASF84
 10881 1cb2 01       		.byte	0x1
 10882 1cb3 0B02     		.2byte	0x20b
 10883 1cb5 CB050000 		.4byte	0x5cb
 10884 1cb9 02       		.byte	0x2
 10885 1cba 91       		.byte	0x91
 10886 1cbb 6C       		.sleb128 -20
 10887 1cbc 12       		.uleb128 0x12
 10888 1cbd CC050000 		.4byte	.LASF214
 10889 1cc1 01       		.byte	0x1
 10890 1cc2 0B02     		.2byte	0x20b
 10891 1cc4 8F1B0000 		.4byte	0x1b8f
 10892 1cc8 02       		.byte	0x2
 10893 1cc9 91       		.byte	0x91
 10894 1cca 68       		.sleb128 -24
 10895 1ccb 13       		.uleb128 0x13
 10896 1ccc 76030000 		.4byte	.LASF223
 10897 1cd0 01       		.byte	0x1
 10898 1cd1 0D02     		.2byte	0x20d
 10899 1cd3 9C000000 		.4byte	0x9c
ARM GAS  G:\Users\Jaxb\AppData\Local\Temp\ccSQWSCJ.s 			page 244


 10900 1cd7 02       		.byte	0x2
 10901 1cd8 91       		.byte	0x91
 10902 1cd9 74       		.sleb128 -12
 10903 1cda 13       		.uleb128 0x13
 10904 1cdb C5040000 		.4byte	.LASF86
 10905 1cdf 01       		.byte	0x1
 10906 1ce0 0D02     		.2byte	0x20d
 10907 1ce2 9C000000 		.4byte	0x9c
 10908 1ce6 02       		.byte	0x2
 10909 1ce7 91       		.byte	0x91
 10910 1ce8 72       		.sleb128 -14
 10911 1ce9 13       		.uleb128 0x13
 10912 1cea 47010000 		.4byte	.LASF224
 10913 1cee 01       		.byte	0x1
 10914 1cef 0D02     		.2byte	0x20d
 10915 1cf1 9C000000 		.4byte	0x9c
 10916 1cf5 02       		.byte	0x2
 10917 1cf6 91       		.byte	0x91
 10918 1cf7 76       		.sleb128 -10
 10919 1cf8 00       		.byte	0
 10920 1cf9 16       		.uleb128 0x16
 10921 1cfa 01       		.byte	0x1
 10922 1cfb F6030000 		.4byte	.LASF225
 10923 1cff 01       		.byte	0x1
 10924 1d00 BC01     		.2byte	0x1bc
 10925 1d02 01       		.byte	0x1
 10926 1d03 4C050000 		.4byte	.LFB33
 10927 1d07 58060000 		.4byte	.LFE33
 10928 1d0b A01E0000 		.4byte	.LLST4
 10929 1d0f 01       		.byte	0x1
 10930 1d10 601D0000 		.4byte	0x1d60
 10931 1d14 12       		.uleb128 0x12
 10932 1d15 F0050000 		.4byte	.LASF84
 10933 1d19 01       		.byte	0x1
 10934 1d1a BC01     		.2byte	0x1bc
 10935 1d1c CB050000 		.4byte	0x5cb
 10936 1d20 02       		.byte	0x2
 10937 1d21 91       		.byte	0x91
 10938 1d22 6C       		.sleb128 -20
 10939 1d23 12       		.uleb128 0x12
 10940 1d24 CC050000 		.4byte	.LASF214
 10941 1d28 01       		.byte	0x1
 10942 1d29 BC01     		.2byte	0x1bc
 10943 1d2b 8F1B0000 		.4byte	0x1b8f
 10944 1d2f 02       		.byte	0x2
 10945 1d30 91       		.byte	0x91
 10946 1d31 68       		.sleb128 -24
 10947 1d32 13       		.uleb128 0x13
 10948 1d33 76030000 		.4byte	.LASF223
 10949 1d37 01       		.byte	0x1
 10950 1d38 BE01     		.2byte	0x1be
 10951 1d3a 9C000000 		.4byte	0x9c
 10952 1d3e 02       		.byte	0x2
 10953 1d3f 91       		.byte	0x91
 10954 1d40 72       		.sleb128 -14
 10955 1d41 13       		.uleb128 0x13
 10956 1d42 C5040000 		.4byte	.LASF86
ARM GAS  G:\Users\Jaxb\AppData\Local\Temp\ccSQWSCJ.s 			page 245


 10957 1d46 01       		.byte	0x1
 10958 1d47 BE01     		.2byte	0x1be
 10959 1d49 9C000000 		.4byte	0x9c
 10960 1d4d 02       		.byte	0x2
 10961 1d4e 91       		.byte	0x91
 10962 1d4f 76       		.sleb128 -10
 10963 1d50 13       		.uleb128 0x13
 10964 1d51 47010000 		.4byte	.LASF224
 10965 1d55 01       		.byte	0x1
 10966 1d56 BE01     		.2byte	0x1be
 10967 1d58 9C000000 		.4byte	0x9c
 10968 1d5c 02       		.byte	0x2
 10969 1d5d 91       		.byte	0x91
 10970 1d5e 74       		.sleb128 -12
 10971 1d5f 00       		.byte	0
 10972 1d60 16       		.uleb128 0x16
 10973 1d61 01       		.byte	0x1
 10974 1d62 9A0A0000 		.4byte	.LASF226
 10975 1d66 01       		.byte	0x1
 10976 1d67 6A01     		.2byte	0x16a
 10977 1d69 01       		.byte	0x1
 10978 1d6a 3C040000 		.4byte	.LFB32
 10979 1d6e 4C050000 		.4byte	.LFE32
 10980 1d72 FC1E0000 		.4byte	.LLST3
 10981 1d76 01       		.byte	0x1
 10982 1d77 C71D0000 		.4byte	0x1dc7
 10983 1d7b 12       		.uleb128 0x12
 10984 1d7c F0050000 		.4byte	.LASF84
 10985 1d80 01       		.byte	0x1
 10986 1d81 6A01     		.2byte	0x16a
 10987 1d83 CB050000 		.4byte	0x5cb
 10988 1d87 02       		.byte	0x2
 10989 1d88 91       		.byte	0x91
 10990 1d89 6C       		.sleb128 -20
 10991 1d8a 12       		.uleb128 0x12
 10992 1d8b CC050000 		.4byte	.LASF214
 10993 1d8f 01       		.byte	0x1
 10994 1d90 6A01     		.2byte	0x16a
 10995 1d92 8F1B0000 		.4byte	0x1b8f
 10996 1d96 02       		.byte	0x2
 10997 1d97 91       		.byte	0x91
 10998 1d98 68       		.sleb128 -24
 10999 1d99 13       		.uleb128 0x13
 11000 1d9a 76030000 		.4byte	.LASF223
 11001 1d9e 01       		.byte	0x1
 11002 1d9f 6C01     		.2byte	0x16c
 11003 1da1 9C000000 		.4byte	0x9c
 11004 1da5 02       		.byte	0x2
 11005 1da6 91       		.byte	0x91
 11006 1da7 72       		.sleb128 -14
 11007 1da8 13       		.uleb128 0x13
 11008 1da9 C5040000 		.4byte	.LASF86
 11009 1dad 01       		.byte	0x1
 11010 1dae 6C01     		.2byte	0x16c
 11011 1db0 9C000000 		.4byte	0x9c
 11012 1db4 02       		.byte	0x2
 11013 1db5 91       		.byte	0x91
ARM GAS  G:\Users\Jaxb\AppData\Local\Temp\ccSQWSCJ.s 			page 246


 11014 1db6 76       		.sleb128 -10
 11015 1db7 13       		.uleb128 0x13
 11016 1db8 47010000 		.4byte	.LASF224
 11017 1dbc 01       		.byte	0x1
 11018 1dbd 6C01     		.2byte	0x16c
 11019 1dbf 9C000000 		.4byte	0x9c
 11020 1dc3 02       		.byte	0x2
 11021 1dc4 91       		.byte	0x91
 11022 1dc5 74       		.sleb128 -12
 11023 1dc6 00       		.byte	0
 11024 1dc7 16       		.uleb128 0x16
 11025 1dc8 01       		.byte	0x1
 11026 1dc9 100D0000 		.4byte	.LASF227
 11027 1dcd 01       		.byte	0x1
 11028 1dce 1701     		.2byte	0x117
 11029 1dd0 01       		.byte	0x1
 11030 1dd1 24030000 		.4byte	.LFB31
 11031 1dd5 3C040000 		.4byte	.LFE31
 11032 1dd9 581F0000 		.4byte	.LLST2
 11033 1ddd 01       		.byte	0x1
 11034 1dde 2E1E0000 		.4byte	0x1e2e
 11035 1de2 12       		.uleb128 0x12
 11036 1de3 F0050000 		.4byte	.LASF84
 11037 1de7 01       		.byte	0x1
 11038 1de8 1701     		.2byte	0x117
 11039 1dea CB050000 		.4byte	0x5cb
 11040 1dee 02       		.byte	0x2
 11041 1def 91       		.byte	0x91
 11042 1df0 6C       		.sleb128 -20
 11043 1df1 12       		.uleb128 0x12
 11044 1df2 CC050000 		.4byte	.LASF214
 11045 1df6 01       		.byte	0x1
 11046 1df7 1701     		.2byte	0x117
 11047 1df9 8F1B0000 		.4byte	0x1b8f
 11048 1dfd 02       		.byte	0x2
 11049 1dfe 91       		.byte	0x91
 11050 1dff 68       		.sleb128 -24
 11051 1e00 13       		.uleb128 0x13
 11052 1e01 76030000 		.4byte	.LASF223
 11053 1e05 01       		.byte	0x1
 11054 1e06 1901     		.2byte	0x119
 11055 1e08 9C000000 		.4byte	0x9c
 11056 1e0c 02       		.byte	0x2
 11057 1e0d 91       		.byte	0x91
 11058 1e0e 72       		.sleb128 -14
 11059 1e0f 13       		.uleb128 0x13
 11060 1e10 C5040000 		.4byte	.LASF86
 11061 1e14 01       		.byte	0x1
 11062 1e15 1901     		.2byte	0x119
 11063 1e17 9C000000 		.4byte	0x9c
 11064 1e1b 02       		.byte	0x2
 11065 1e1c 91       		.byte	0x91
 11066 1e1d 76       		.sleb128 -10
 11067 1e1e 13       		.uleb128 0x13
 11068 1e1f 47010000 		.4byte	.LASF224
 11069 1e23 01       		.byte	0x1
 11070 1e24 1901     		.2byte	0x119
ARM GAS  G:\Users\Jaxb\AppData\Local\Temp\ccSQWSCJ.s 			page 247


 11071 1e26 9C000000 		.4byte	0x9c
 11072 1e2a 02       		.byte	0x2
 11073 1e2b 91       		.byte	0x91
 11074 1e2c 74       		.sleb128 -12
 11075 1e2d 00       		.byte	0
 11076 1e2e 19       		.uleb128 0x19
 11077 1e2f 01       		.byte	0x1
 11078 1e30 BE090000 		.4byte	.LASF228
 11079 1e34 01       		.byte	0x1
 11080 1e35 E2       		.byte	0xe2
 11081 1e36 01       		.byte	0x1
 11082 1e37 2C020000 		.4byte	.LFB30
 11083 1e3b 24030000 		.4byte	.LFE30
 11084 1e3f B41F0000 		.4byte	.LLST1
 11085 1e43 01       		.byte	0x1
 11086 1e44 731E0000 		.4byte	0x1e73
 11087 1e48 1A       		.uleb128 0x1a
 11088 1e49 F0050000 		.4byte	.LASF84
 11089 1e4d 01       		.byte	0x1
 11090 1e4e E2       		.byte	0xe2
 11091 1e4f CB050000 		.4byte	0x5cb
 11092 1e53 02       		.byte	0x2
 11093 1e54 91       		.byte	0x91
 11094 1e55 6C       		.sleb128 -20
 11095 1e56 1A       		.uleb128 0x1a
 11096 1e57 EF070000 		.4byte	.LASF216
 11097 1e5b 01       		.byte	0x1
 11098 1e5c E2       		.byte	0xe2
 11099 1e5d C01B0000 		.4byte	0x1bc0
 11100 1e61 02       		.byte	0x2
 11101 1e62 91       		.byte	0x91
 11102 1e63 68       		.sleb128 -24
 11103 1e64 1B       		.uleb128 0x1b
 11104 1e65 38010000 		.4byte	.LASF184
 11105 1e69 01       		.byte	0x1
 11106 1e6a E4       		.byte	0xe4
 11107 1e6b 9C000000 		.4byte	0x9c
 11108 1e6f 02       		.byte	0x2
 11109 1e70 91       		.byte	0x91
 11110 1e71 76       		.sleb128 -10
 11111 1e72 00       		.byte	0
 11112 1e73 1C       		.uleb128 0x1c
 11113 1e74 01       		.byte	0x1
 11114 1e75 BB0D0000 		.4byte	.LASF232
 11115 1e79 01       		.byte	0x1
 11116 1e7a 7A       		.byte	0x7a
 11117 1e7b 01       		.byte	0x1
 11118 1e7c 00000000 		.4byte	.LFB29
 11119 1e80 2C020000 		.4byte	.LFE29
 11120 1e84 10200000 		.4byte	.LLST0
 11121 1e88 01       		.byte	0x1
 11122 1e89 1A       		.uleb128 0x1a
 11123 1e8a F0050000 		.4byte	.LASF84
 11124 1e8e 01       		.byte	0x1
 11125 1e8f 7A       		.byte	0x7a
 11126 1e90 CB050000 		.4byte	0x5cb
 11127 1e94 02       		.byte	0x2
ARM GAS  G:\Users\Jaxb\AppData\Local\Temp\ccSQWSCJ.s 			page 248


 11128 1e95 91       		.byte	0x91
 11129 1e96 74       		.sleb128 -12
 11130 1e97 00       		.byte	0
 11131 1e98 00       		.byte	0
 11132              		.section	.debug_abbrev,"",%progbits
 11133              	.Ldebug_abbrev0:
 11134 0000 01       		.uleb128 0x1
 11135 0001 11       		.uleb128 0x11
 11136 0002 01       		.byte	0x1
 11137 0003 25       		.uleb128 0x25
 11138 0004 0E       		.uleb128 0xe
 11139 0005 13       		.uleb128 0x13
 11140 0006 0B       		.uleb128 0xb
 11141 0007 03       		.uleb128 0x3
 11142 0008 0E       		.uleb128 0xe
 11143 0009 1B       		.uleb128 0x1b
 11144 000a 0E       		.uleb128 0xe
 11145 000b 11       		.uleb128 0x11
 11146 000c 01       		.uleb128 0x1
 11147 000d 12       		.uleb128 0x12
 11148 000e 01       		.uleb128 0x1
 11149 000f 10       		.uleb128 0x10
 11150 0010 06       		.uleb128 0x6
 11151 0011 00       		.byte	0
 11152 0012 00       		.byte	0
 11153 0013 02       		.uleb128 0x2
 11154 0014 24       		.uleb128 0x24
 11155 0015 00       		.byte	0
 11156 0016 0B       		.uleb128 0xb
 11157 0017 0B       		.uleb128 0xb
 11158 0018 3E       		.uleb128 0x3e
 11159 0019 0B       		.uleb128 0xb
 11160 001a 03       		.uleb128 0x3
 11161 001b 0E       		.uleb128 0xe
 11162 001c 00       		.byte	0
 11163 001d 00       		.byte	0
 11164 001e 03       		.uleb128 0x3
 11165 001f 16       		.uleb128 0x16
 11166 0020 00       		.byte	0
 11167 0021 03       		.uleb128 0x3
 11168 0022 0E       		.uleb128 0xe
 11169 0023 3A       		.uleb128 0x3a
 11170 0024 0B       		.uleb128 0xb
 11171 0025 3B       		.uleb128 0x3b
 11172 0026 0B       		.uleb128 0xb
 11173 0027 49       		.uleb128 0x49
 11174 0028 13       		.uleb128 0x13
 11175 0029 00       		.byte	0
 11176 002a 00       		.byte	0
 11177 002b 04       		.uleb128 0x4
 11178 002c 24       		.uleb128 0x24
 11179 002d 00       		.byte	0
 11180 002e 0B       		.uleb128 0xb
 11181 002f 0B       		.uleb128 0xb
 11182 0030 3E       		.uleb128 0x3e
 11183 0031 0B       		.uleb128 0xb
 11184 0032 03       		.uleb128 0x3
ARM GAS  G:\Users\Jaxb\AppData\Local\Temp\ccSQWSCJ.s 			page 249


 11185 0033 08       		.uleb128 0x8
 11186 0034 00       		.byte	0
 11187 0035 00       		.byte	0
 11188 0036 05       		.uleb128 0x5
 11189 0037 35       		.uleb128 0x35
 11190 0038 00       		.byte	0
 11191 0039 49       		.uleb128 0x49
 11192 003a 13       		.uleb128 0x13
 11193 003b 00       		.byte	0
 11194 003c 00       		.byte	0
 11195 003d 06       		.uleb128 0x6
 11196 003e 34       		.uleb128 0x34
 11197 003f 00       		.byte	0
 11198 0040 03       		.uleb128 0x3
 11199 0041 0E       		.uleb128 0xe
 11200 0042 3A       		.uleb128 0x3a
 11201 0043 0B       		.uleb128 0xb
 11202 0044 3B       		.uleb128 0x3b
 11203 0045 05       		.uleb128 0x5
 11204 0046 49       		.uleb128 0x49
 11205 0047 13       		.uleb128 0x13
 11206 0048 3F       		.uleb128 0x3f
 11207 0049 0C       		.uleb128 0xc
 11208 004a 3C       		.uleb128 0x3c
 11209 004b 0C       		.uleb128 0xc
 11210 004c 00       		.byte	0
 11211 004d 00       		.byte	0
 11212 004e 07       		.uleb128 0x7
 11213 004f 34       		.uleb128 0x34
 11214 0050 00       		.byte	0
 11215 0051 03       		.uleb128 0x3
 11216 0052 0E       		.uleb128 0xe
 11217 0053 3A       		.uleb128 0x3a
 11218 0054 0B       		.uleb128 0xb
 11219 0055 3B       		.uleb128 0x3b
 11220 0056 0B       		.uleb128 0xb
 11221 0057 49       		.uleb128 0x49
 11222 0058 13       		.uleb128 0x13
 11223 0059 3F       		.uleb128 0x3f
 11224 005a 0C       		.uleb128 0xc
 11225 005b 3C       		.uleb128 0x3c
 11226 005c 0C       		.uleb128 0xc
 11227 005d 00       		.byte	0
 11228 005e 00       		.byte	0
 11229 005f 08       		.uleb128 0x8
 11230 0060 04       		.uleb128 0x4
 11231 0061 01       		.byte	0x1
 11232 0062 3E       		.uleb128 0x3e
 11233 0063 0B       		.uleb128 0xb
 11234 0064 0B       		.uleb128 0xb
 11235 0065 0B       		.uleb128 0xb
 11236 0066 49       		.uleb128 0x49
 11237 0067 13       		.uleb128 0x13
 11238 0068 3A       		.uleb128 0x3a
 11239 0069 0B       		.uleb128 0xb
 11240 006a 3B       		.uleb128 0x3b
 11241 006b 05       		.uleb128 0x5
ARM GAS  G:\Users\Jaxb\AppData\Local\Temp\ccSQWSCJ.s 			page 250


 11242 006c 01       		.uleb128 0x1
 11243 006d 13       		.uleb128 0x13
 11244 006e 00       		.byte	0
 11245 006f 00       		.byte	0
 11246 0070 09       		.uleb128 0x9
 11247 0071 28       		.uleb128 0x28
 11248 0072 00       		.byte	0
 11249 0073 03       		.uleb128 0x3
 11250 0074 0E       		.uleb128 0xe
 11251 0075 1C       		.uleb128 0x1c
 11252 0076 0B       		.uleb128 0xb
 11253 0077 00       		.byte	0
 11254 0078 00       		.byte	0
 11255 0079 0A       		.uleb128 0xa
 11256 007a 28       		.uleb128 0x28
 11257 007b 00       		.byte	0
 11258 007c 03       		.uleb128 0x3
 11259 007d 08       		.uleb128 0x8
 11260 007e 1C       		.uleb128 0x1c
 11261 007f 0B       		.uleb128 0xb
 11262 0080 00       		.byte	0
 11263 0081 00       		.byte	0
 11264 0082 0B       		.uleb128 0xb
 11265 0083 16       		.uleb128 0x16
 11266 0084 00       		.byte	0
 11267 0085 03       		.uleb128 0x3
 11268 0086 0E       		.uleb128 0xe
 11269 0087 3A       		.uleb128 0x3a
 11270 0088 0B       		.uleb128 0xb
 11271 0089 3B       		.uleb128 0x3b
 11272 008a 05       		.uleb128 0x5
 11273 008b 49       		.uleb128 0x49
 11274 008c 13       		.uleb128 0x13
 11275 008d 00       		.byte	0
 11276 008e 00       		.byte	0
 11277 008f 0C       		.uleb128 0xc
 11278 0090 13       		.uleb128 0x13
 11279 0091 01       		.byte	0x1
 11280 0092 0B       		.uleb128 0xb
 11281 0093 0B       		.uleb128 0xb
 11282 0094 3A       		.uleb128 0x3a
 11283 0095 0B       		.uleb128 0xb
 11284 0096 3B       		.uleb128 0x3b
 11285 0097 05       		.uleb128 0x5
 11286 0098 01       		.uleb128 0x1
 11287 0099 13       		.uleb128 0x13
 11288 009a 00       		.byte	0
 11289 009b 00       		.byte	0
 11290 009c 0D       		.uleb128 0xd
 11291 009d 0D       		.uleb128 0xd
 11292 009e 00       		.byte	0
 11293 009f 03       		.uleb128 0x3
 11294 00a0 08       		.uleb128 0x8
 11295 00a1 3A       		.uleb128 0x3a
 11296 00a2 0B       		.uleb128 0xb
 11297 00a3 3B       		.uleb128 0x3b
 11298 00a4 05       		.uleb128 0x5
ARM GAS  G:\Users\Jaxb\AppData\Local\Temp\ccSQWSCJ.s 			page 251


 11299 00a5 49       		.uleb128 0x49
 11300 00a6 13       		.uleb128 0x13
 11301 00a7 38       		.uleb128 0x38
 11302 00a8 0A       		.uleb128 0xa
 11303 00a9 00       		.byte	0
 11304 00aa 00       		.byte	0
 11305 00ab 0E       		.uleb128 0xe
 11306 00ac 0D       		.uleb128 0xd
 11307 00ad 00       		.byte	0
 11308 00ae 03       		.uleb128 0x3
 11309 00af 0E       		.uleb128 0xe
 11310 00b0 3A       		.uleb128 0x3a
 11311 00b1 0B       		.uleb128 0xb
 11312 00b2 3B       		.uleb128 0x3b
 11313 00b3 05       		.uleb128 0x5
 11314 00b4 49       		.uleb128 0x49
 11315 00b5 13       		.uleb128 0x13
 11316 00b6 38       		.uleb128 0x38
 11317 00b7 0A       		.uleb128 0xa
 11318 00b8 00       		.byte	0
 11319 00b9 00       		.byte	0
 11320 00ba 0F       		.uleb128 0xf
 11321 00bb 13       		.uleb128 0x13
 11322 00bc 01       		.byte	0x1
 11323 00bd 0B       		.uleb128 0xb
 11324 00be 0B       		.uleb128 0xb
 11325 00bf 3A       		.uleb128 0x3a
 11326 00c0 0B       		.uleb128 0xb
 11327 00c1 3B       		.uleb128 0x3b
 11328 00c2 0B       		.uleb128 0xb
 11329 00c3 01       		.uleb128 0x1
 11330 00c4 13       		.uleb128 0x13
 11331 00c5 00       		.byte	0
 11332 00c6 00       		.byte	0
 11333 00c7 10       		.uleb128 0x10
 11334 00c8 0D       		.uleb128 0xd
 11335 00c9 00       		.byte	0
 11336 00ca 03       		.uleb128 0x3
 11337 00cb 0E       		.uleb128 0xe
 11338 00cc 3A       		.uleb128 0x3a
 11339 00cd 0B       		.uleb128 0xb
 11340 00ce 3B       		.uleb128 0x3b
 11341 00cf 0B       		.uleb128 0xb
 11342 00d0 49       		.uleb128 0x49
 11343 00d1 13       		.uleb128 0x13
 11344 00d2 38       		.uleb128 0x38
 11345 00d3 0A       		.uleb128 0xa
 11346 00d4 00       		.byte	0
 11347 00d5 00       		.byte	0
 11348 00d6 11       		.uleb128 0x11
 11349 00d7 2E       		.uleb128 0x2e
 11350 00d8 01       		.byte	0x1
 11351 00d9 03       		.uleb128 0x3
 11352 00da 0E       		.uleb128 0xe
 11353 00db 3A       		.uleb128 0x3a
 11354 00dc 0B       		.uleb128 0xb
 11355 00dd 3B       		.uleb128 0x3b
ARM GAS  G:\Users\Jaxb\AppData\Local\Temp\ccSQWSCJ.s 			page 252


 11356 00de 05       		.uleb128 0x5
 11357 00df 27       		.uleb128 0x27
 11358 00e0 0C       		.uleb128 0xc
 11359 00e1 11       		.uleb128 0x11
 11360 00e2 01       		.uleb128 0x1
 11361 00e3 12       		.uleb128 0x12
 11362 00e4 01       		.uleb128 0x1
 11363 00e5 40       		.uleb128 0x40
 11364 00e6 06       		.uleb128 0x6
 11365 00e7 9742     		.uleb128 0x2117
 11366 00e9 0C       		.uleb128 0xc
 11367 00ea 01       		.uleb128 0x1
 11368 00eb 13       		.uleb128 0x13
 11369 00ec 00       		.byte	0
 11370 00ed 00       		.byte	0
 11371 00ee 12       		.uleb128 0x12
 11372 00ef 05       		.uleb128 0x5
 11373 00f0 00       		.byte	0
 11374 00f1 03       		.uleb128 0x3
 11375 00f2 0E       		.uleb128 0xe
 11376 00f3 3A       		.uleb128 0x3a
 11377 00f4 0B       		.uleb128 0xb
 11378 00f5 3B       		.uleb128 0x3b
 11379 00f6 05       		.uleb128 0x5
 11380 00f7 49       		.uleb128 0x49
 11381 00f8 13       		.uleb128 0x13
 11382 00f9 02       		.uleb128 0x2
 11383 00fa 0A       		.uleb128 0xa
 11384 00fb 00       		.byte	0
 11385 00fc 00       		.byte	0
 11386 00fd 13       		.uleb128 0x13
 11387 00fe 34       		.uleb128 0x34
 11388 00ff 00       		.byte	0
 11389 0100 03       		.uleb128 0x3
 11390 0101 0E       		.uleb128 0xe
 11391 0102 3A       		.uleb128 0x3a
 11392 0103 0B       		.uleb128 0xb
 11393 0104 3B       		.uleb128 0x3b
 11394 0105 05       		.uleb128 0x5
 11395 0106 49       		.uleb128 0x49
 11396 0107 13       		.uleb128 0x13
 11397 0108 02       		.uleb128 0x2
 11398 0109 0A       		.uleb128 0xa
 11399 010a 00       		.byte	0
 11400 010b 00       		.byte	0
 11401 010c 14       		.uleb128 0x14
 11402 010d 34       		.uleb128 0x34
 11403 010e 00       		.byte	0
 11404 010f 03       		.uleb128 0x3
 11405 0110 08       		.uleb128 0x8
 11406 0111 3A       		.uleb128 0x3a
 11407 0112 0B       		.uleb128 0xb
 11408 0113 3B       		.uleb128 0x3b
 11409 0114 05       		.uleb128 0x5
 11410 0115 49       		.uleb128 0x49
 11411 0116 13       		.uleb128 0x13
 11412 0117 02       		.uleb128 0x2
ARM GAS  G:\Users\Jaxb\AppData\Local\Temp\ccSQWSCJ.s 			page 253


 11413 0118 0A       		.uleb128 0xa
 11414 0119 00       		.byte	0
 11415 011a 00       		.byte	0
 11416 011b 15       		.uleb128 0x15
 11417 011c 0F       		.uleb128 0xf
 11418 011d 00       		.byte	0
 11419 011e 0B       		.uleb128 0xb
 11420 011f 0B       		.uleb128 0xb
 11421 0120 49       		.uleb128 0x49
 11422 0121 13       		.uleb128 0x13
 11423 0122 00       		.byte	0
 11424 0123 00       		.byte	0
 11425 0124 16       		.uleb128 0x16
 11426 0125 2E       		.uleb128 0x2e
 11427 0126 01       		.byte	0x1
 11428 0127 3F       		.uleb128 0x3f
 11429 0128 0C       		.uleb128 0xc
 11430 0129 03       		.uleb128 0x3
 11431 012a 0E       		.uleb128 0xe
 11432 012b 3A       		.uleb128 0x3a
 11433 012c 0B       		.uleb128 0xb
 11434 012d 3B       		.uleb128 0x3b
 11435 012e 05       		.uleb128 0x5
 11436 012f 27       		.uleb128 0x27
 11437 0130 0C       		.uleb128 0xc
 11438 0131 11       		.uleb128 0x11
 11439 0132 01       		.uleb128 0x1
 11440 0133 12       		.uleb128 0x12
 11441 0134 01       		.uleb128 0x1
 11442 0135 40       		.uleb128 0x40
 11443 0136 06       		.uleb128 0x6
 11444 0137 9742     		.uleb128 0x2117
 11445 0139 0C       		.uleb128 0xc
 11446 013a 01       		.uleb128 0x1
 11447 013b 13       		.uleb128 0x13
 11448 013c 00       		.byte	0
 11449 013d 00       		.byte	0
 11450 013e 17       		.uleb128 0x17
 11451 013f 2E       		.uleb128 0x2e
 11452 0140 01       		.byte	0x1
 11453 0141 3F       		.uleb128 0x3f
 11454 0142 0C       		.uleb128 0xc
 11455 0143 03       		.uleb128 0x3
 11456 0144 0E       		.uleb128 0xe
 11457 0145 3A       		.uleb128 0x3a
 11458 0146 0B       		.uleb128 0xb
 11459 0147 3B       		.uleb128 0x3b
 11460 0148 05       		.uleb128 0x5
 11461 0149 27       		.uleb128 0x27
 11462 014a 0C       		.uleb128 0xc
 11463 014b 49       		.uleb128 0x49
 11464 014c 13       		.uleb128 0x13
 11465 014d 11       		.uleb128 0x11
 11466 014e 01       		.uleb128 0x1
 11467 014f 12       		.uleb128 0x12
 11468 0150 01       		.uleb128 0x1
 11469 0151 40       		.uleb128 0x40
ARM GAS  G:\Users\Jaxb\AppData\Local\Temp\ccSQWSCJ.s 			page 254


 11470 0152 06       		.uleb128 0x6
 11471 0153 9742     		.uleb128 0x2117
 11472 0155 0C       		.uleb128 0xc
 11473 0156 01       		.uleb128 0x1
 11474 0157 13       		.uleb128 0x13
 11475 0158 00       		.byte	0
 11476 0159 00       		.byte	0
 11477 015a 18       		.uleb128 0x18
 11478 015b 2E       		.uleb128 0x2e
 11479 015c 01       		.byte	0x1
 11480 015d 3F       		.uleb128 0x3f
 11481 015e 0C       		.uleb128 0xc
 11482 015f 03       		.uleb128 0x3
 11483 0160 0E       		.uleb128 0xe
 11484 0161 3A       		.uleb128 0x3a
 11485 0162 0B       		.uleb128 0xb
 11486 0163 3B       		.uleb128 0x3b
 11487 0164 05       		.uleb128 0x5
 11488 0165 27       		.uleb128 0x27
 11489 0166 0C       		.uleb128 0xc
 11490 0167 11       		.uleb128 0x11
 11491 0168 01       		.uleb128 0x1
 11492 0169 12       		.uleb128 0x12
 11493 016a 01       		.uleb128 0x1
 11494 016b 40       		.uleb128 0x40
 11495 016c 06       		.uleb128 0x6
 11496 016d 9642     		.uleb128 0x2116
 11497 016f 0C       		.uleb128 0xc
 11498 0170 01       		.uleb128 0x1
 11499 0171 13       		.uleb128 0x13
 11500 0172 00       		.byte	0
 11501 0173 00       		.byte	0
 11502 0174 19       		.uleb128 0x19
 11503 0175 2E       		.uleb128 0x2e
 11504 0176 01       		.byte	0x1
 11505 0177 3F       		.uleb128 0x3f
 11506 0178 0C       		.uleb128 0xc
 11507 0179 03       		.uleb128 0x3
 11508 017a 0E       		.uleb128 0xe
 11509 017b 3A       		.uleb128 0x3a
 11510 017c 0B       		.uleb128 0xb
 11511 017d 3B       		.uleb128 0x3b
 11512 017e 0B       		.uleb128 0xb
 11513 017f 27       		.uleb128 0x27
 11514 0180 0C       		.uleb128 0xc
 11515 0181 11       		.uleb128 0x11
 11516 0182 01       		.uleb128 0x1
 11517 0183 12       		.uleb128 0x12
 11518 0184 01       		.uleb128 0x1
 11519 0185 40       		.uleb128 0x40
 11520 0186 06       		.uleb128 0x6
 11521 0187 9742     		.uleb128 0x2117
 11522 0189 0C       		.uleb128 0xc
 11523 018a 01       		.uleb128 0x1
 11524 018b 13       		.uleb128 0x13
 11525 018c 00       		.byte	0
 11526 018d 00       		.byte	0
ARM GAS  G:\Users\Jaxb\AppData\Local\Temp\ccSQWSCJ.s 			page 255


 11527 018e 1A       		.uleb128 0x1a
 11528 018f 05       		.uleb128 0x5
 11529 0190 00       		.byte	0
 11530 0191 03       		.uleb128 0x3
 11531 0192 0E       		.uleb128 0xe
 11532 0193 3A       		.uleb128 0x3a
 11533 0194 0B       		.uleb128 0xb
 11534 0195 3B       		.uleb128 0x3b
 11535 0196 0B       		.uleb128 0xb
 11536 0197 49       		.uleb128 0x49
 11537 0198 13       		.uleb128 0x13
 11538 0199 02       		.uleb128 0x2
 11539 019a 0A       		.uleb128 0xa
 11540 019b 00       		.byte	0
 11541 019c 00       		.byte	0
 11542 019d 1B       		.uleb128 0x1b
 11543 019e 34       		.uleb128 0x34
 11544 019f 00       		.byte	0
 11545 01a0 03       		.uleb128 0x3
 11546 01a1 0E       		.uleb128 0xe
 11547 01a2 3A       		.uleb128 0x3a
 11548 01a3 0B       		.uleb128 0xb
 11549 01a4 3B       		.uleb128 0x3b
 11550 01a5 0B       		.uleb128 0xb
 11551 01a6 49       		.uleb128 0x49
 11552 01a7 13       		.uleb128 0x13
 11553 01a8 02       		.uleb128 0x2
 11554 01a9 0A       		.uleb128 0xa
 11555 01aa 00       		.byte	0
 11556 01ab 00       		.byte	0
 11557 01ac 1C       		.uleb128 0x1c
 11558 01ad 2E       		.uleb128 0x2e
 11559 01ae 01       		.byte	0x1
 11560 01af 3F       		.uleb128 0x3f
 11561 01b0 0C       		.uleb128 0xc
 11562 01b1 03       		.uleb128 0x3
 11563 01b2 0E       		.uleb128 0xe
 11564 01b3 3A       		.uleb128 0x3a
 11565 01b4 0B       		.uleb128 0xb
 11566 01b5 3B       		.uleb128 0x3b
 11567 01b6 0B       		.uleb128 0xb
 11568 01b7 27       		.uleb128 0x27
 11569 01b8 0C       		.uleb128 0xc
 11570 01b9 11       		.uleb128 0x11
 11571 01ba 01       		.uleb128 0x1
 11572 01bb 12       		.uleb128 0x12
 11573 01bc 01       		.uleb128 0x1
 11574 01bd 40       		.uleb128 0x40
 11575 01be 06       		.uleb128 0x6
 11576 01bf 9642     		.uleb128 0x2116
 11577 01c1 0C       		.uleb128 0xc
 11578 01c2 00       		.byte	0
 11579 01c3 00       		.byte	0
 11580 01c4 00       		.byte	0
 11581              		.section	.debug_loc,"",%progbits
 11582              	.Ldebug_loc0:
 11583              	.LLST90:
ARM GAS  G:\Users\Jaxb\AppData\Local\Temp\ccSQWSCJ.s 			page 256


 11584 0000 981C0000 		.4byte	.LFB119-.Ltext0
 11585 0004 9A1C0000 		.4byte	.LCFI533-.Ltext0
 11586 0008 0200     		.2byte	0x2
 11587 000a 7D       		.byte	0x7d
 11588 000b 00       		.sleb128 0
 11589 000c 9A1C0000 		.4byte	.LCFI533-.Ltext0
 11590 0010 9C1C0000 		.4byte	.LCFI534-.Ltext0
 11591 0014 0200     		.2byte	0x2
 11592 0016 7D       		.byte	0x7d
 11593 0017 04       		.sleb128 4
 11594 0018 9C1C0000 		.4byte	.LCFI534-.Ltext0
 11595 001c 9E1C0000 		.4byte	.LCFI535-.Ltext0
 11596 0020 0200     		.2byte	0x2
 11597 0022 7D       		.byte	0x7d
 11598 0023 20       		.sleb128 32
 11599 0024 9E1C0000 		.4byte	.LCFI535-.Ltext0
 11600 0028 761D0000 		.4byte	.LCFI536-.Ltext0
 11601 002c 0200     		.2byte	0x2
 11602 002e 77       		.byte	0x77
 11603 002f 20       		.sleb128 32
 11604 0030 761D0000 		.4byte	.LCFI536-.Ltext0
 11605 0034 781D0000 		.4byte	.LCFI537-.Ltext0
 11606 0038 0200     		.2byte	0x2
 11607 003a 77       		.byte	0x77
 11608 003b 04       		.sleb128 4
 11609 003c 781D0000 		.4byte	.LCFI537-.Ltext0
 11610 0040 7A1D0000 		.4byte	.LCFI538-.Ltext0
 11611 0044 0200     		.2byte	0x2
 11612 0046 7D       		.byte	0x7d
 11613 0047 04       		.sleb128 4
 11614 0048 7A1D0000 		.4byte	.LCFI538-.Ltext0
 11615 004c 901D0000 		.4byte	.LFE119-.Ltext0
 11616 0050 0200     		.2byte	0x2
 11617 0052 7D       		.byte	0x7d
 11618 0053 00       		.sleb128 0
 11619 0054 00000000 		.4byte	0
 11620 0058 00000000 		.4byte	0
 11621              	.LLST89:
 11622 005c AC1B0000 		.4byte	.LFB118-.Ltext0
 11623 0060 AE1B0000 		.4byte	.LCFI527-.Ltext0
 11624 0064 0200     		.2byte	0x2
 11625 0066 7D       		.byte	0x7d
 11626 0067 00       		.sleb128 0
 11627 0068 AE1B0000 		.4byte	.LCFI527-.Ltext0
 11628 006c B01B0000 		.4byte	.LCFI528-.Ltext0
 11629 0070 0200     		.2byte	0x2
 11630 0072 7D       		.byte	0x7d
 11631 0073 04       		.sleb128 4
 11632 0074 B01B0000 		.4byte	.LCFI528-.Ltext0
 11633 0078 B21B0000 		.4byte	.LCFI529-.Ltext0
 11634 007c 0200     		.2byte	0x2
 11635 007e 7D       		.byte	0x7d
 11636 007f 20       		.sleb128 32
 11637 0080 B21B0000 		.4byte	.LCFI529-.Ltext0
 11638 0084 7C1C0000 		.4byte	.LCFI530-.Ltext0
 11639 0088 0200     		.2byte	0x2
 11640 008a 77       		.byte	0x77
ARM GAS  G:\Users\Jaxb\AppData\Local\Temp\ccSQWSCJ.s 			page 257


 11641 008b 20       		.sleb128 32
 11642 008c 7C1C0000 		.4byte	.LCFI530-.Ltext0
 11643 0090 7E1C0000 		.4byte	.LCFI531-.Ltext0
 11644 0094 0200     		.2byte	0x2
 11645 0096 77       		.byte	0x77
 11646 0097 04       		.sleb128 4
 11647 0098 7E1C0000 		.4byte	.LCFI531-.Ltext0
 11648 009c 801C0000 		.4byte	.LCFI532-.Ltext0
 11649 00a0 0200     		.2byte	0x2
 11650 00a2 7D       		.byte	0x7d
 11651 00a3 04       		.sleb128 4
 11652 00a4 801C0000 		.4byte	.LCFI532-.Ltext0
 11653 00a8 981C0000 		.4byte	.LFE118-.Ltext0
 11654 00ac 0200     		.2byte	0x2
 11655 00ae 7D       		.byte	0x7d
 11656 00af 00       		.sleb128 0
 11657 00b0 00000000 		.4byte	0
 11658 00b4 00000000 		.4byte	0
 11659              	.LLST88:
 11660 00b8 B81A0000 		.4byte	.LFB117-.Ltext0
 11661 00bc BA1A0000 		.4byte	.LCFI521-.Ltext0
 11662 00c0 0200     		.2byte	0x2
 11663 00c2 7D       		.byte	0x7d
 11664 00c3 00       		.sleb128 0
 11665 00c4 BA1A0000 		.4byte	.LCFI521-.Ltext0
 11666 00c8 BC1A0000 		.4byte	.LCFI522-.Ltext0
 11667 00cc 0200     		.2byte	0x2
 11668 00ce 7D       		.byte	0x7d
 11669 00cf 04       		.sleb128 4
 11670 00d0 BC1A0000 		.4byte	.LCFI522-.Ltext0
 11671 00d4 BE1A0000 		.4byte	.LCFI523-.Ltext0
 11672 00d8 0200     		.2byte	0x2
 11673 00da 7D       		.byte	0x7d
 11674 00db 20       		.sleb128 32
 11675 00dc BE1A0000 		.4byte	.LCFI523-.Ltext0
 11676 00e0 921B0000 		.4byte	.LCFI524-.Ltext0
 11677 00e4 0200     		.2byte	0x2
 11678 00e6 77       		.byte	0x77
 11679 00e7 20       		.sleb128 32
 11680 00e8 921B0000 		.4byte	.LCFI524-.Ltext0
 11681 00ec 941B0000 		.4byte	.LCFI525-.Ltext0
 11682 00f0 0200     		.2byte	0x2
 11683 00f2 77       		.byte	0x77
 11684 00f3 04       		.sleb128 4
 11685 00f4 941B0000 		.4byte	.LCFI525-.Ltext0
 11686 00f8 961B0000 		.4byte	.LCFI526-.Ltext0
 11687 00fc 0200     		.2byte	0x2
 11688 00fe 7D       		.byte	0x7d
 11689 00ff 04       		.sleb128 4
 11690 0100 961B0000 		.4byte	.LCFI526-.Ltext0
 11691 0104 AC1B0000 		.4byte	.LFE117-.Ltext0
 11692 0108 0200     		.2byte	0x2
 11693 010a 7D       		.byte	0x7d
 11694 010b 00       		.sleb128 0
 11695 010c 00000000 		.4byte	0
 11696 0110 00000000 		.4byte	0
 11697              	.LLST87:
ARM GAS  G:\Users\Jaxb\AppData\Local\Temp\ccSQWSCJ.s 			page 258


 11698 0114 D8190000 		.4byte	.LFB116-.Ltext0
 11699 0118 DA190000 		.4byte	.LCFI515-.Ltext0
 11700 011c 0200     		.2byte	0x2
 11701 011e 7D       		.byte	0x7d
 11702 011f 00       		.sleb128 0
 11703 0120 DA190000 		.4byte	.LCFI515-.Ltext0
 11704 0124 DC190000 		.4byte	.LCFI516-.Ltext0
 11705 0128 0200     		.2byte	0x2
 11706 012a 7D       		.byte	0x7d
 11707 012b 04       		.sleb128 4
 11708 012c DC190000 		.4byte	.LCFI516-.Ltext0
 11709 0130 DE190000 		.4byte	.LCFI517-.Ltext0
 11710 0134 0200     		.2byte	0x2
 11711 0136 7D       		.byte	0x7d
 11712 0137 20       		.sleb128 32
 11713 0138 DE190000 		.4byte	.LCFI517-.Ltext0
 11714 013c 9E1A0000 		.4byte	.LCFI518-.Ltext0
 11715 0140 0200     		.2byte	0x2
 11716 0142 77       		.byte	0x77
 11717 0143 20       		.sleb128 32
 11718 0144 9E1A0000 		.4byte	.LCFI518-.Ltext0
 11719 0148 A01A0000 		.4byte	.LCFI519-.Ltext0
 11720 014c 0200     		.2byte	0x2
 11721 014e 77       		.byte	0x77
 11722 014f 04       		.sleb128 4
 11723 0150 A01A0000 		.4byte	.LCFI519-.Ltext0
 11724 0154 A21A0000 		.4byte	.LCFI520-.Ltext0
 11725 0158 0200     		.2byte	0x2
 11726 015a 7D       		.byte	0x7d
 11727 015b 04       		.sleb128 4
 11728 015c A21A0000 		.4byte	.LCFI520-.Ltext0
 11729 0160 B81A0000 		.4byte	.LFE116-.Ltext0
 11730 0164 0200     		.2byte	0x2
 11731 0166 7D       		.byte	0x7d
 11732 0167 00       		.sleb128 0
 11733 0168 00000000 		.4byte	0
 11734 016c 00000000 		.4byte	0
 11735              	.LLST86:
 11736 0170 B8190000 		.4byte	.LFB115-.Ltext0
 11737 0174 BA190000 		.4byte	.LCFI509-.Ltext0
 11738 0178 0200     		.2byte	0x2
 11739 017a 7D       		.byte	0x7d
 11740 017b 00       		.sleb128 0
 11741 017c BA190000 		.4byte	.LCFI509-.Ltext0
 11742 0180 BC190000 		.4byte	.LCFI510-.Ltext0
 11743 0184 0200     		.2byte	0x2
 11744 0186 7D       		.byte	0x7d
 11745 0187 04       		.sleb128 4
 11746 0188 BC190000 		.4byte	.LCFI510-.Ltext0
 11747 018c BE190000 		.4byte	.LCFI511-.Ltext0
 11748 0190 0200     		.2byte	0x2
 11749 0192 7D       		.byte	0x7d
 11750 0193 10       		.sleb128 16
 11751 0194 BE190000 		.4byte	.LCFI511-.Ltext0
 11752 0198 D2190000 		.4byte	.LCFI512-.Ltext0
 11753 019c 0200     		.2byte	0x2
 11754 019e 77       		.byte	0x77
ARM GAS  G:\Users\Jaxb\AppData\Local\Temp\ccSQWSCJ.s 			page 259


 11755 019f 10       		.sleb128 16
 11756 01a0 D2190000 		.4byte	.LCFI512-.Ltext0
 11757 01a4 D4190000 		.4byte	.LCFI513-.Ltext0
 11758 01a8 0200     		.2byte	0x2
 11759 01aa 77       		.byte	0x77
 11760 01ab 04       		.sleb128 4
 11761 01ac D4190000 		.4byte	.LCFI513-.Ltext0
 11762 01b0 D6190000 		.4byte	.LCFI514-.Ltext0
 11763 01b4 0200     		.2byte	0x2
 11764 01b6 7D       		.byte	0x7d
 11765 01b7 04       		.sleb128 4
 11766 01b8 D6190000 		.4byte	.LCFI514-.Ltext0
 11767 01bc D8190000 		.4byte	.LFE115-.Ltext0
 11768 01c0 0200     		.2byte	0x2
 11769 01c2 7D       		.byte	0x7d
 11770 01c3 00       		.sleb128 0
 11771 01c4 00000000 		.4byte	0
 11772 01c8 00000000 		.4byte	0
 11773              	.LLST85:
 11774 01cc 66190000 		.4byte	.LFB114-.Ltext0
 11775 01d0 68190000 		.4byte	.LCFI503-.Ltext0
 11776 01d4 0200     		.2byte	0x2
 11777 01d6 7D       		.byte	0x7d
 11778 01d7 00       		.sleb128 0
 11779 01d8 68190000 		.4byte	.LCFI503-.Ltext0
 11780 01dc 6A190000 		.4byte	.LCFI504-.Ltext0
 11781 01e0 0200     		.2byte	0x2
 11782 01e2 7D       		.byte	0x7d
 11783 01e3 04       		.sleb128 4
 11784 01e4 6A190000 		.4byte	.LCFI504-.Ltext0
 11785 01e8 6C190000 		.4byte	.LCFI505-.Ltext0
 11786 01ec 0200     		.2byte	0x2
 11787 01ee 7D       		.byte	0x7d
 11788 01ef 18       		.sleb128 24
 11789 01f0 6C190000 		.4byte	.LCFI505-.Ltext0
 11790 01f4 B2190000 		.4byte	.LCFI506-.Ltext0
 11791 01f8 0200     		.2byte	0x2
 11792 01fa 77       		.byte	0x77
 11793 01fb 18       		.sleb128 24
 11794 01fc B2190000 		.4byte	.LCFI506-.Ltext0
 11795 0200 B4190000 		.4byte	.LCFI507-.Ltext0
 11796 0204 0200     		.2byte	0x2
 11797 0206 77       		.byte	0x77
 11798 0207 04       		.sleb128 4
 11799 0208 B4190000 		.4byte	.LCFI507-.Ltext0
 11800 020c B6190000 		.4byte	.LCFI508-.Ltext0
 11801 0210 0200     		.2byte	0x2
 11802 0212 7D       		.byte	0x7d
 11803 0213 04       		.sleb128 4
 11804 0214 B6190000 		.4byte	.LCFI508-.Ltext0
 11805 0218 B8190000 		.4byte	.LFE114-.Ltext0
 11806 021c 0200     		.2byte	0x2
 11807 021e 7D       		.byte	0x7d
 11808 021f 00       		.sleb128 0
 11809 0220 00000000 		.4byte	0
 11810 0224 00000000 		.4byte	0
 11811              	.LLST84:
ARM GAS  G:\Users\Jaxb\AppData\Local\Temp\ccSQWSCJ.s 			page 260


 11812 0228 46190000 		.4byte	.LFB113-.Ltext0
 11813 022c 48190000 		.4byte	.LCFI497-.Ltext0
 11814 0230 0200     		.2byte	0x2
 11815 0232 7D       		.byte	0x7d
 11816 0233 00       		.sleb128 0
 11817 0234 48190000 		.4byte	.LCFI497-.Ltext0
 11818 0238 4A190000 		.4byte	.LCFI498-.Ltext0
 11819 023c 0200     		.2byte	0x2
 11820 023e 7D       		.byte	0x7d
 11821 023f 04       		.sleb128 4
 11822 0240 4A190000 		.4byte	.LCFI498-.Ltext0
 11823 0244 4C190000 		.4byte	.LCFI499-.Ltext0
 11824 0248 0200     		.2byte	0x2
 11825 024a 7D       		.byte	0x7d
 11826 024b 10       		.sleb128 16
 11827 024c 4C190000 		.4byte	.LCFI499-.Ltext0
 11828 0250 60190000 		.4byte	.LCFI500-.Ltext0
 11829 0254 0200     		.2byte	0x2
 11830 0256 77       		.byte	0x77
 11831 0257 10       		.sleb128 16
 11832 0258 60190000 		.4byte	.LCFI500-.Ltext0
 11833 025c 62190000 		.4byte	.LCFI501-.Ltext0
 11834 0260 0200     		.2byte	0x2
 11835 0262 77       		.byte	0x77
 11836 0263 04       		.sleb128 4
 11837 0264 62190000 		.4byte	.LCFI501-.Ltext0
 11838 0268 64190000 		.4byte	.LCFI502-.Ltext0
 11839 026c 0200     		.2byte	0x2
 11840 026e 7D       		.byte	0x7d
 11841 026f 04       		.sleb128 4
 11842 0270 64190000 		.4byte	.LCFI502-.Ltext0
 11843 0274 66190000 		.4byte	.LFE113-.Ltext0
 11844 0278 0200     		.2byte	0x2
 11845 027a 7D       		.byte	0x7d
 11846 027b 00       		.sleb128 0
 11847 027c 00000000 		.4byte	0
 11848 0280 00000000 		.4byte	0
 11849              	.LLST83:
 11850 0284 10190000 		.4byte	.LFB112-.Ltext0
 11851 0288 12190000 		.4byte	.LCFI491-.Ltext0
 11852 028c 0200     		.2byte	0x2
 11853 028e 7D       		.byte	0x7d
 11854 028f 00       		.sleb128 0
 11855 0290 12190000 		.4byte	.LCFI491-.Ltext0
 11856 0294 14190000 		.4byte	.LCFI492-.Ltext0
 11857 0298 0200     		.2byte	0x2
 11858 029a 7D       		.byte	0x7d
 11859 029b 04       		.sleb128 4
 11860 029c 14190000 		.4byte	.LCFI492-.Ltext0
 11861 02a0 16190000 		.4byte	.LCFI493-.Ltext0
 11862 02a4 0200     		.2byte	0x2
 11863 02a6 7D       		.byte	0x7d
 11864 02a7 18       		.sleb128 24
 11865 02a8 16190000 		.4byte	.LCFI493-.Ltext0
 11866 02ac 40190000 		.4byte	.LCFI494-.Ltext0
 11867 02b0 0200     		.2byte	0x2
 11868 02b2 77       		.byte	0x77
ARM GAS  G:\Users\Jaxb\AppData\Local\Temp\ccSQWSCJ.s 			page 261


 11869 02b3 18       		.sleb128 24
 11870 02b4 40190000 		.4byte	.LCFI494-.Ltext0
 11871 02b8 42190000 		.4byte	.LCFI495-.Ltext0
 11872 02bc 0200     		.2byte	0x2
 11873 02be 77       		.byte	0x77
 11874 02bf 04       		.sleb128 4
 11875 02c0 42190000 		.4byte	.LCFI495-.Ltext0
 11876 02c4 44190000 		.4byte	.LCFI496-.Ltext0
 11877 02c8 0200     		.2byte	0x2
 11878 02ca 7D       		.byte	0x7d
 11879 02cb 04       		.sleb128 4
 11880 02cc 44190000 		.4byte	.LCFI496-.Ltext0
 11881 02d0 46190000 		.4byte	.LFE112-.Ltext0
 11882 02d4 0200     		.2byte	0x2
 11883 02d6 7D       		.byte	0x7d
 11884 02d7 00       		.sleb128 0
 11885 02d8 00000000 		.4byte	0
 11886 02dc 00000000 		.4byte	0
 11887              	.LLST82:
 11888 02e0 F8180000 		.4byte	.LFB111-.Ltext0
 11889 02e4 FA180000 		.4byte	.LCFI485-.Ltext0
 11890 02e8 0200     		.2byte	0x2
 11891 02ea 7D       		.byte	0x7d
 11892 02eb 00       		.sleb128 0
 11893 02ec FA180000 		.4byte	.LCFI485-.Ltext0
 11894 02f0 FC180000 		.4byte	.LCFI486-.Ltext0
 11895 02f4 0200     		.2byte	0x2
 11896 02f6 7D       		.byte	0x7d
 11897 02f7 04       		.sleb128 4
 11898 02f8 FC180000 		.4byte	.LCFI486-.Ltext0
 11899 02fc FE180000 		.4byte	.LCFI487-.Ltext0
 11900 0300 0200     		.2byte	0x2
 11901 0302 7D       		.byte	0x7d
 11902 0303 10       		.sleb128 16
 11903 0304 FE180000 		.4byte	.LCFI487-.Ltext0
 11904 0308 0A190000 		.4byte	.LCFI488-.Ltext0
 11905 030c 0200     		.2byte	0x2
 11906 030e 77       		.byte	0x77
 11907 030f 10       		.sleb128 16
 11908 0310 0A190000 		.4byte	.LCFI488-.Ltext0
 11909 0314 0C190000 		.4byte	.LCFI489-.Ltext0
 11910 0318 0200     		.2byte	0x2
 11911 031a 77       		.byte	0x77
 11912 031b 04       		.sleb128 4
 11913 031c 0C190000 		.4byte	.LCFI489-.Ltext0
 11914 0320 0E190000 		.4byte	.LCFI490-.Ltext0
 11915 0324 0200     		.2byte	0x2
 11916 0326 7D       		.byte	0x7d
 11917 0327 04       		.sleb128 4
 11918 0328 0E190000 		.4byte	.LCFI490-.Ltext0
 11919 032c 10190000 		.4byte	.LFE111-.Ltext0
 11920 0330 0200     		.2byte	0x2
 11921 0332 7D       		.byte	0x7d
 11922 0333 00       		.sleb128 0
 11923 0334 00000000 		.4byte	0
 11924 0338 00000000 		.4byte	0
 11925              	.LLST81:
ARM GAS  G:\Users\Jaxb\AppData\Local\Temp\ccSQWSCJ.s 			page 262


 11926 033c E0180000 		.4byte	.LFB110-.Ltext0
 11927 0340 E2180000 		.4byte	.LCFI479-.Ltext0
 11928 0344 0200     		.2byte	0x2
 11929 0346 7D       		.byte	0x7d
 11930 0347 00       		.sleb128 0
 11931 0348 E2180000 		.4byte	.LCFI479-.Ltext0
 11932 034c E4180000 		.4byte	.LCFI480-.Ltext0
 11933 0350 0200     		.2byte	0x2
 11934 0352 7D       		.byte	0x7d
 11935 0353 04       		.sleb128 4
 11936 0354 E4180000 		.4byte	.LCFI480-.Ltext0
 11937 0358 E6180000 		.4byte	.LCFI481-.Ltext0
 11938 035c 0200     		.2byte	0x2
 11939 035e 7D       		.byte	0x7d
 11940 035f 10       		.sleb128 16
 11941 0360 E6180000 		.4byte	.LCFI481-.Ltext0
 11942 0364 F2180000 		.4byte	.LCFI482-.Ltext0
 11943 0368 0200     		.2byte	0x2
 11944 036a 77       		.byte	0x77
 11945 036b 10       		.sleb128 16
 11946 036c F2180000 		.4byte	.LCFI482-.Ltext0
 11947 0370 F4180000 		.4byte	.LCFI483-.Ltext0
 11948 0374 0200     		.2byte	0x2
 11949 0376 77       		.byte	0x77
 11950 0377 04       		.sleb128 4
 11951 0378 F4180000 		.4byte	.LCFI483-.Ltext0
 11952 037c F6180000 		.4byte	.LCFI484-.Ltext0
 11953 0380 0200     		.2byte	0x2
 11954 0382 7D       		.byte	0x7d
 11955 0383 04       		.sleb128 4
 11956 0384 F6180000 		.4byte	.LCFI484-.Ltext0
 11957 0388 F8180000 		.4byte	.LFE110-.Ltext0
 11958 038c 0200     		.2byte	0x2
 11959 038e 7D       		.byte	0x7d
 11960 038f 00       		.sleb128 0
 11961 0390 00000000 		.4byte	0
 11962 0394 00000000 		.4byte	0
 11963              	.LLST80:
 11964 0398 C6180000 		.4byte	.LFB109-.Ltext0
 11965 039c C8180000 		.4byte	.LCFI473-.Ltext0
 11966 03a0 0200     		.2byte	0x2
 11967 03a2 7D       		.byte	0x7d
 11968 03a3 00       		.sleb128 0
 11969 03a4 C8180000 		.4byte	.LCFI473-.Ltext0
 11970 03a8 CA180000 		.4byte	.LCFI474-.Ltext0
 11971 03ac 0200     		.2byte	0x2
 11972 03ae 7D       		.byte	0x7d
 11973 03af 04       		.sleb128 4
 11974 03b0 CA180000 		.4byte	.LCFI474-.Ltext0
 11975 03b4 CC180000 		.4byte	.LCFI475-.Ltext0
 11976 03b8 0200     		.2byte	0x2
 11977 03ba 7D       		.byte	0x7d
 11978 03bb 10       		.sleb128 16
 11979 03bc CC180000 		.4byte	.LCFI475-.Ltext0
 11980 03c0 DA180000 		.4byte	.LCFI476-.Ltext0
 11981 03c4 0200     		.2byte	0x2
 11982 03c6 77       		.byte	0x77
ARM GAS  G:\Users\Jaxb\AppData\Local\Temp\ccSQWSCJ.s 			page 263


 11983 03c7 10       		.sleb128 16
 11984 03c8 DA180000 		.4byte	.LCFI476-.Ltext0
 11985 03cc DC180000 		.4byte	.LCFI477-.Ltext0
 11986 03d0 0200     		.2byte	0x2
 11987 03d2 77       		.byte	0x77
 11988 03d3 04       		.sleb128 4
 11989 03d4 DC180000 		.4byte	.LCFI477-.Ltext0
 11990 03d8 DE180000 		.4byte	.LCFI478-.Ltext0
 11991 03dc 0200     		.2byte	0x2
 11992 03de 7D       		.byte	0x7d
 11993 03df 04       		.sleb128 4
 11994 03e0 DE180000 		.4byte	.LCFI478-.Ltext0
 11995 03e4 E0180000 		.4byte	.LFE109-.Ltext0
 11996 03e8 0200     		.2byte	0x2
 11997 03ea 7D       		.byte	0x7d
 11998 03eb 00       		.sleb128 0
 11999 03ec 00000000 		.4byte	0
 12000 03f0 00000000 		.4byte	0
 12001              	.LLST79:
 12002 03f4 AE180000 		.4byte	.LFB108-.Ltext0
 12003 03f8 B0180000 		.4byte	.LCFI467-.Ltext0
 12004 03fc 0200     		.2byte	0x2
 12005 03fe 7D       		.byte	0x7d
 12006 03ff 00       		.sleb128 0
 12007 0400 B0180000 		.4byte	.LCFI467-.Ltext0
 12008 0404 B2180000 		.4byte	.LCFI468-.Ltext0
 12009 0408 0200     		.2byte	0x2
 12010 040a 7D       		.byte	0x7d
 12011 040b 04       		.sleb128 4
 12012 040c B2180000 		.4byte	.LCFI468-.Ltext0
 12013 0410 B4180000 		.4byte	.LCFI469-.Ltext0
 12014 0414 0200     		.2byte	0x2
 12015 0416 7D       		.byte	0x7d
 12016 0417 10       		.sleb128 16
 12017 0418 B4180000 		.4byte	.LCFI469-.Ltext0
 12018 041c C0180000 		.4byte	.LCFI470-.Ltext0
 12019 0420 0200     		.2byte	0x2
 12020 0422 77       		.byte	0x77
 12021 0423 10       		.sleb128 16
 12022 0424 C0180000 		.4byte	.LCFI470-.Ltext0
 12023 0428 C2180000 		.4byte	.LCFI471-.Ltext0
 12024 042c 0200     		.2byte	0x2
 12025 042e 77       		.byte	0x77
 12026 042f 04       		.sleb128 4
 12027 0430 C2180000 		.4byte	.LCFI471-.Ltext0
 12028 0434 C4180000 		.4byte	.LCFI472-.Ltext0
 12029 0438 0200     		.2byte	0x2
 12030 043a 7D       		.byte	0x7d
 12031 043b 04       		.sleb128 4
 12032 043c C4180000 		.4byte	.LCFI472-.Ltext0
 12033 0440 C6180000 		.4byte	.LFE108-.Ltext0
 12034 0444 0200     		.2byte	0x2
 12035 0446 7D       		.byte	0x7d
 12036 0447 00       		.sleb128 0
 12037 0448 00000000 		.4byte	0
 12038 044c 00000000 		.4byte	0
 12039              	.LLST78:
ARM GAS  G:\Users\Jaxb\AppData\Local\Temp\ccSQWSCJ.s 			page 264


 12040 0450 96180000 		.4byte	.LFB107-.Ltext0
 12041 0454 98180000 		.4byte	.LCFI461-.Ltext0
 12042 0458 0200     		.2byte	0x2
 12043 045a 7D       		.byte	0x7d
 12044 045b 00       		.sleb128 0
 12045 045c 98180000 		.4byte	.LCFI461-.Ltext0
 12046 0460 9A180000 		.4byte	.LCFI462-.Ltext0
 12047 0464 0200     		.2byte	0x2
 12048 0466 7D       		.byte	0x7d
 12049 0467 04       		.sleb128 4
 12050 0468 9A180000 		.4byte	.LCFI462-.Ltext0
 12051 046c 9C180000 		.4byte	.LCFI463-.Ltext0
 12052 0470 0200     		.2byte	0x2
 12053 0472 7D       		.byte	0x7d
 12054 0473 10       		.sleb128 16
 12055 0474 9C180000 		.4byte	.LCFI463-.Ltext0
 12056 0478 A8180000 		.4byte	.LCFI464-.Ltext0
 12057 047c 0200     		.2byte	0x2
 12058 047e 77       		.byte	0x77
 12059 047f 10       		.sleb128 16
 12060 0480 A8180000 		.4byte	.LCFI464-.Ltext0
 12061 0484 AA180000 		.4byte	.LCFI465-.Ltext0
 12062 0488 0200     		.2byte	0x2
 12063 048a 77       		.byte	0x77
 12064 048b 04       		.sleb128 4
 12065 048c AA180000 		.4byte	.LCFI465-.Ltext0
 12066 0490 AC180000 		.4byte	.LCFI466-.Ltext0
 12067 0494 0200     		.2byte	0x2
 12068 0496 7D       		.byte	0x7d
 12069 0497 04       		.sleb128 4
 12070 0498 AC180000 		.4byte	.LCFI466-.Ltext0
 12071 049c AE180000 		.4byte	.LFE107-.Ltext0
 12072 04a0 0200     		.2byte	0x2
 12073 04a2 7D       		.byte	0x7d
 12074 04a3 00       		.sleb128 0
 12075 04a4 00000000 		.4byte	0
 12076 04a8 00000000 		.4byte	0
 12077              	.LLST77:
 12078 04ac 7E180000 		.4byte	.LFB106-.Ltext0
 12079 04b0 80180000 		.4byte	.LCFI455-.Ltext0
 12080 04b4 0200     		.2byte	0x2
 12081 04b6 7D       		.byte	0x7d
 12082 04b7 00       		.sleb128 0
 12083 04b8 80180000 		.4byte	.LCFI455-.Ltext0
 12084 04bc 82180000 		.4byte	.LCFI456-.Ltext0
 12085 04c0 0200     		.2byte	0x2
 12086 04c2 7D       		.byte	0x7d
 12087 04c3 04       		.sleb128 4
 12088 04c4 82180000 		.4byte	.LCFI456-.Ltext0
 12089 04c8 84180000 		.4byte	.LCFI457-.Ltext0
 12090 04cc 0200     		.2byte	0x2
 12091 04ce 7D       		.byte	0x7d
 12092 04cf 10       		.sleb128 16
 12093 04d0 84180000 		.4byte	.LCFI457-.Ltext0
 12094 04d4 90180000 		.4byte	.LCFI458-.Ltext0
 12095 04d8 0200     		.2byte	0x2
 12096 04da 77       		.byte	0x77
ARM GAS  G:\Users\Jaxb\AppData\Local\Temp\ccSQWSCJ.s 			page 265


 12097 04db 10       		.sleb128 16
 12098 04dc 90180000 		.4byte	.LCFI458-.Ltext0
 12099 04e0 92180000 		.4byte	.LCFI459-.Ltext0
 12100 04e4 0200     		.2byte	0x2
 12101 04e6 77       		.byte	0x77
 12102 04e7 04       		.sleb128 4
 12103 04e8 92180000 		.4byte	.LCFI459-.Ltext0
 12104 04ec 94180000 		.4byte	.LCFI460-.Ltext0
 12105 04f0 0200     		.2byte	0x2
 12106 04f2 7D       		.byte	0x7d
 12107 04f3 04       		.sleb128 4
 12108 04f4 94180000 		.4byte	.LCFI460-.Ltext0
 12109 04f8 96180000 		.4byte	.LFE106-.Ltext0
 12110 04fc 0200     		.2byte	0x2
 12111 04fe 7D       		.byte	0x7d
 12112 04ff 00       		.sleb128 0
 12113 0500 00000000 		.4byte	0
 12114 0504 00000000 		.4byte	0
 12115              	.LLST76:
 12116 0508 48180000 		.4byte	.LFB105-.Ltext0
 12117 050c 4A180000 		.4byte	.LCFI449-.Ltext0
 12118 0510 0200     		.2byte	0x2
 12119 0512 7D       		.byte	0x7d
 12120 0513 00       		.sleb128 0
 12121 0514 4A180000 		.4byte	.LCFI449-.Ltext0
 12122 0518 4C180000 		.4byte	.LCFI450-.Ltext0
 12123 051c 0200     		.2byte	0x2
 12124 051e 7D       		.byte	0x7d
 12125 051f 04       		.sleb128 4
 12126 0520 4C180000 		.4byte	.LCFI450-.Ltext0
 12127 0524 4E180000 		.4byte	.LCFI451-.Ltext0
 12128 0528 0200     		.2byte	0x2
 12129 052a 7D       		.byte	0x7d
 12130 052b 10       		.sleb128 16
 12131 052c 4E180000 		.4byte	.LCFI451-.Ltext0
 12132 0530 78180000 		.4byte	.LCFI452-.Ltext0
 12133 0534 0200     		.2byte	0x2
 12134 0536 77       		.byte	0x77
 12135 0537 10       		.sleb128 16
 12136 0538 78180000 		.4byte	.LCFI452-.Ltext0
 12137 053c 7A180000 		.4byte	.LCFI453-.Ltext0
 12138 0540 0200     		.2byte	0x2
 12139 0542 77       		.byte	0x77
 12140 0543 04       		.sleb128 4
 12141 0544 7A180000 		.4byte	.LCFI453-.Ltext0
 12142 0548 7C180000 		.4byte	.LCFI454-.Ltext0
 12143 054c 0200     		.2byte	0x2
 12144 054e 7D       		.byte	0x7d
 12145 054f 04       		.sleb128 4
 12146 0550 7C180000 		.4byte	.LCFI454-.Ltext0
 12147 0554 7E180000 		.4byte	.LFE105-.Ltext0
 12148 0558 0200     		.2byte	0x2
 12149 055a 7D       		.byte	0x7d
 12150 055b 00       		.sleb128 0
 12151 055c 00000000 		.4byte	0
 12152 0560 00000000 		.4byte	0
 12153              	.LLST75:
ARM GAS  G:\Users\Jaxb\AppData\Local\Temp\ccSQWSCJ.s 			page 266


 12154 0564 0E180000 		.4byte	.LFB104-.Ltext0
 12155 0568 10180000 		.4byte	.LCFI443-.Ltext0
 12156 056c 0200     		.2byte	0x2
 12157 056e 7D       		.byte	0x7d
 12158 056f 00       		.sleb128 0
 12159 0570 10180000 		.4byte	.LCFI443-.Ltext0
 12160 0574 12180000 		.4byte	.LCFI444-.Ltext0
 12161 0578 0200     		.2byte	0x2
 12162 057a 7D       		.byte	0x7d
 12163 057b 04       		.sleb128 4
 12164 057c 12180000 		.4byte	.LCFI444-.Ltext0
 12165 0580 14180000 		.4byte	.LCFI445-.Ltext0
 12166 0584 0200     		.2byte	0x2
 12167 0586 7D       		.byte	0x7d
 12168 0587 10       		.sleb128 16
 12169 0588 14180000 		.4byte	.LCFI445-.Ltext0
 12170 058c 42180000 		.4byte	.LCFI446-.Ltext0
 12171 0590 0200     		.2byte	0x2
 12172 0592 77       		.byte	0x77
 12173 0593 10       		.sleb128 16
 12174 0594 42180000 		.4byte	.LCFI446-.Ltext0
 12175 0598 44180000 		.4byte	.LCFI447-.Ltext0
 12176 059c 0200     		.2byte	0x2
 12177 059e 77       		.byte	0x77
 12178 059f 04       		.sleb128 4
 12179 05a0 44180000 		.4byte	.LCFI447-.Ltext0
 12180 05a4 46180000 		.4byte	.LCFI448-.Ltext0
 12181 05a8 0200     		.2byte	0x2
 12182 05aa 7D       		.byte	0x7d
 12183 05ab 04       		.sleb128 4
 12184 05ac 46180000 		.4byte	.LCFI448-.Ltext0
 12185 05b0 48180000 		.4byte	.LFE104-.Ltext0
 12186 05b4 0200     		.2byte	0x2
 12187 05b6 7D       		.byte	0x7d
 12188 05b7 00       		.sleb128 0
 12189 05b8 00000000 		.4byte	0
 12190 05bc 00000000 		.4byte	0
 12191              	.LLST74:
 12192 05c0 D8170000 		.4byte	.LFB103-.Ltext0
 12193 05c4 DA170000 		.4byte	.LCFI437-.Ltext0
 12194 05c8 0200     		.2byte	0x2
 12195 05ca 7D       		.byte	0x7d
 12196 05cb 00       		.sleb128 0
 12197 05cc DA170000 		.4byte	.LCFI437-.Ltext0
 12198 05d0 DC170000 		.4byte	.LCFI438-.Ltext0
 12199 05d4 0200     		.2byte	0x2
 12200 05d6 7D       		.byte	0x7d
 12201 05d7 04       		.sleb128 4
 12202 05d8 DC170000 		.4byte	.LCFI438-.Ltext0
 12203 05dc DE170000 		.4byte	.LCFI439-.Ltext0
 12204 05e0 0200     		.2byte	0x2
 12205 05e2 7D       		.byte	0x7d
 12206 05e3 10       		.sleb128 16
 12207 05e4 DE170000 		.4byte	.LCFI439-.Ltext0
 12208 05e8 08180000 		.4byte	.LCFI440-.Ltext0
 12209 05ec 0200     		.2byte	0x2
 12210 05ee 77       		.byte	0x77
ARM GAS  G:\Users\Jaxb\AppData\Local\Temp\ccSQWSCJ.s 			page 267


 12211 05ef 10       		.sleb128 16
 12212 05f0 08180000 		.4byte	.LCFI440-.Ltext0
 12213 05f4 0A180000 		.4byte	.LCFI441-.Ltext0
 12214 05f8 0200     		.2byte	0x2
 12215 05fa 77       		.byte	0x77
 12216 05fb 04       		.sleb128 4
 12217 05fc 0A180000 		.4byte	.LCFI441-.Ltext0
 12218 0600 0C180000 		.4byte	.LCFI442-.Ltext0
 12219 0604 0200     		.2byte	0x2
 12220 0606 7D       		.byte	0x7d
 12221 0607 04       		.sleb128 4
 12222 0608 0C180000 		.4byte	.LCFI442-.Ltext0
 12223 060c 0E180000 		.4byte	.LFE103-.Ltext0
 12224 0610 0200     		.2byte	0x2
 12225 0612 7D       		.byte	0x7d
 12226 0613 00       		.sleb128 0
 12227 0614 00000000 		.4byte	0
 12228 0618 00000000 		.4byte	0
 12229              	.LLST73:
 12230 061c 9E170000 		.4byte	.LFB102-.Ltext0
 12231 0620 A0170000 		.4byte	.LCFI431-.Ltext0
 12232 0624 0200     		.2byte	0x2
 12233 0626 7D       		.byte	0x7d
 12234 0627 00       		.sleb128 0
 12235 0628 A0170000 		.4byte	.LCFI431-.Ltext0
 12236 062c A2170000 		.4byte	.LCFI432-.Ltext0
 12237 0630 0200     		.2byte	0x2
 12238 0632 7D       		.byte	0x7d
 12239 0633 04       		.sleb128 4
 12240 0634 A2170000 		.4byte	.LCFI432-.Ltext0
 12241 0638 A4170000 		.4byte	.LCFI433-.Ltext0
 12242 063c 0200     		.2byte	0x2
 12243 063e 7D       		.byte	0x7d
 12244 063f 10       		.sleb128 16
 12245 0640 A4170000 		.4byte	.LCFI433-.Ltext0
 12246 0644 D2170000 		.4byte	.LCFI434-.Ltext0
 12247 0648 0200     		.2byte	0x2
 12248 064a 77       		.byte	0x77
 12249 064b 10       		.sleb128 16
 12250 064c D2170000 		.4byte	.LCFI434-.Ltext0
 12251 0650 D4170000 		.4byte	.LCFI435-.Ltext0
 12252 0654 0200     		.2byte	0x2
 12253 0656 77       		.byte	0x77
 12254 0657 04       		.sleb128 4
 12255 0658 D4170000 		.4byte	.LCFI435-.Ltext0
 12256 065c D6170000 		.4byte	.LCFI436-.Ltext0
 12257 0660 0200     		.2byte	0x2
 12258 0662 7D       		.byte	0x7d
 12259 0663 04       		.sleb128 4
 12260 0664 D6170000 		.4byte	.LCFI436-.Ltext0
 12261 0668 D8170000 		.4byte	.LFE102-.Ltext0
 12262 066c 0200     		.2byte	0x2
 12263 066e 7D       		.byte	0x7d
 12264 066f 00       		.sleb128 0
 12265 0670 00000000 		.4byte	0
 12266 0674 00000000 		.4byte	0
 12267              	.LLST72:
ARM GAS  G:\Users\Jaxb\AppData\Local\Temp\ccSQWSCJ.s 			page 268


 12268 0678 68170000 		.4byte	.LFB101-.Ltext0
 12269 067c 6A170000 		.4byte	.LCFI425-.Ltext0
 12270 0680 0200     		.2byte	0x2
 12271 0682 7D       		.byte	0x7d
 12272 0683 00       		.sleb128 0
 12273 0684 6A170000 		.4byte	.LCFI425-.Ltext0
 12274 0688 6C170000 		.4byte	.LCFI426-.Ltext0
 12275 068c 0200     		.2byte	0x2
 12276 068e 7D       		.byte	0x7d
 12277 068f 04       		.sleb128 4
 12278 0690 6C170000 		.4byte	.LCFI426-.Ltext0
 12279 0694 6E170000 		.4byte	.LCFI427-.Ltext0
 12280 0698 0200     		.2byte	0x2
 12281 069a 7D       		.byte	0x7d
 12282 069b 10       		.sleb128 16
 12283 069c 6E170000 		.4byte	.LCFI427-.Ltext0
 12284 06a0 98170000 		.4byte	.LCFI428-.Ltext0
 12285 06a4 0200     		.2byte	0x2
 12286 06a6 77       		.byte	0x77
 12287 06a7 10       		.sleb128 16
 12288 06a8 98170000 		.4byte	.LCFI428-.Ltext0
 12289 06ac 9A170000 		.4byte	.LCFI429-.Ltext0
 12290 06b0 0200     		.2byte	0x2
 12291 06b2 77       		.byte	0x77
 12292 06b3 04       		.sleb128 4
 12293 06b4 9A170000 		.4byte	.LCFI429-.Ltext0
 12294 06b8 9C170000 		.4byte	.LCFI430-.Ltext0
 12295 06bc 0200     		.2byte	0x2
 12296 06be 7D       		.byte	0x7d
 12297 06bf 04       		.sleb128 4
 12298 06c0 9C170000 		.4byte	.LCFI430-.Ltext0
 12299 06c4 9E170000 		.4byte	.LFE101-.Ltext0
 12300 06c8 0200     		.2byte	0x2
 12301 06ca 7D       		.byte	0x7d
 12302 06cb 00       		.sleb128 0
 12303 06cc 00000000 		.4byte	0
 12304 06d0 00000000 		.4byte	0
 12305              	.LLST71:
 12306 06d4 4A170000 		.4byte	.LFB100-.Ltext0
 12307 06d8 4C170000 		.4byte	.LCFI419-.Ltext0
 12308 06dc 0200     		.2byte	0x2
 12309 06de 7D       		.byte	0x7d
 12310 06df 00       		.sleb128 0
 12311 06e0 4C170000 		.4byte	.LCFI419-.Ltext0
 12312 06e4 4E170000 		.4byte	.LCFI420-.Ltext0
 12313 06e8 0200     		.2byte	0x2
 12314 06ea 7D       		.byte	0x7d
 12315 06eb 04       		.sleb128 4
 12316 06ec 4E170000 		.4byte	.LCFI420-.Ltext0
 12317 06f0 50170000 		.4byte	.LCFI421-.Ltext0
 12318 06f4 0200     		.2byte	0x2
 12319 06f6 7D       		.byte	0x7d
 12320 06f7 10       		.sleb128 16
 12321 06f8 50170000 		.4byte	.LCFI421-.Ltext0
 12322 06fc 62170000 		.4byte	.LCFI422-.Ltext0
 12323 0700 0200     		.2byte	0x2
 12324 0702 77       		.byte	0x77
ARM GAS  G:\Users\Jaxb\AppData\Local\Temp\ccSQWSCJ.s 			page 269


 12325 0703 10       		.sleb128 16
 12326 0704 62170000 		.4byte	.LCFI422-.Ltext0
 12327 0708 64170000 		.4byte	.LCFI423-.Ltext0
 12328 070c 0200     		.2byte	0x2
 12329 070e 77       		.byte	0x77
 12330 070f 04       		.sleb128 4
 12331 0710 64170000 		.4byte	.LCFI423-.Ltext0
 12332 0714 66170000 		.4byte	.LCFI424-.Ltext0
 12333 0718 0200     		.2byte	0x2
 12334 071a 7D       		.byte	0x7d
 12335 071b 04       		.sleb128 4
 12336 071c 66170000 		.4byte	.LCFI424-.Ltext0
 12337 0720 68170000 		.4byte	.LFE100-.Ltext0
 12338 0724 0200     		.2byte	0x2
 12339 0726 7D       		.byte	0x7d
 12340 0727 00       		.sleb128 0
 12341 0728 00000000 		.4byte	0
 12342 072c 00000000 		.4byte	0
 12343              	.LLST70:
 12344 0730 2E170000 		.4byte	.LFB99-.Ltext0
 12345 0734 30170000 		.4byte	.LCFI413-.Ltext0
 12346 0738 0200     		.2byte	0x2
 12347 073a 7D       		.byte	0x7d
 12348 073b 00       		.sleb128 0
 12349 073c 30170000 		.4byte	.LCFI413-.Ltext0
 12350 0740 32170000 		.4byte	.LCFI414-.Ltext0
 12351 0744 0200     		.2byte	0x2
 12352 0746 7D       		.byte	0x7d
 12353 0747 04       		.sleb128 4
 12354 0748 32170000 		.4byte	.LCFI414-.Ltext0
 12355 074c 34170000 		.4byte	.LCFI415-.Ltext0
 12356 0750 0200     		.2byte	0x2
 12357 0752 7D       		.byte	0x7d
 12358 0753 10       		.sleb128 16
 12359 0754 34170000 		.4byte	.LCFI415-.Ltext0
 12360 0758 44170000 		.4byte	.LCFI416-.Ltext0
 12361 075c 0200     		.2byte	0x2
 12362 075e 77       		.byte	0x77
 12363 075f 10       		.sleb128 16
 12364 0760 44170000 		.4byte	.LCFI416-.Ltext0
 12365 0764 46170000 		.4byte	.LCFI417-.Ltext0
 12366 0768 0200     		.2byte	0x2
 12367 076a 77       		.byte	0x77
 12368 076b 04       		.sleb128 4
 12369 076c 46170000 		.4byte	.LCFI417-.Ltext0
 12370 0770 48170000 		.4byte	.LCFI418-.Ltext0
 12371 0774 0200     		.2byte	0x2
 12372 0776 7D       		.byte	0x7d
 12373 0777 04       		.sleb128 4
 12374 0778 48170000 		.4byte	.LCFI418-.Ltext0
 12375 077c 4A170000 		.4byte	.LFE99-.Ltext0
 12376 0780 0200     		.2byte	0x2
 12377 0782 7D       		.byte	0x7d
 12378 0783 00       		.sleb128 0
 12379 0784 00000000 		.4byte	0
 12380 0788 00000000 		.4byte	0
 12381              	.LLST69:
ARM GAS  G:\Users\Jaxb\AppData\Local\Temp\ccSQWSCJ.s 			page 270


 12382 078c 12170000 		.4byte	.LFB98-.Ltext0
 12383 0790 14170000 		.4byte	.LCFI407-.Ltext0
 12384 0794 0200     		.2byte	0x2
 12385 0796 7D       		.byte	0x7d
 12386 0797 00       		.sleb128 0
 12387 0798 14170000 		.4byte	.LCFI407-.Ltext0
 12388 079c 16170000 		.4byte	.LCFI408-.Ltext0
 12389 07a0 0200     		.2byte	0x2
 12390 07a2 7D       		.byte	0x7d
 12391 07a3 04       		.sleb128 4
 12392 07a4 16170000 		.4byte	.LCFI408-.Ltext0
 12393 07a8 18170000 		.4byte	.LCFI409-.Ltext0
 12394 07ac 0200     		.2byte	0x2
 12395 07ae 7D       		.byte	0x7d
 12396 07af 10       		.sleb128 16
 12397 07b0 18170000 		.4byte	.LCFI409-.Ltext0
 12398 07b4 28170000 		.4byte	.LCFI410-.Ltext0
 12399 07b8 0200     		.2byte	0x2
 12400 07ba 77       		.byte	0x77
 12401 07bb 10       		.sleb128 16
 12402 07bc 28170000 		.4byte	.LCFI410-.Ltext0
 12403 07c0 2A170000 		.4byte	.LCFI411-.Ltext0
 12404 07c4 0200     		.2byte	0x2
 12405 07c6 77       		.byte	0x77
 12406 07c7 04       		.sleb128 4
 12407 07c8 2A170000 		.4byte	.LCFI411-.Ltext0
 12408 07cc 2C170000 		.4byte	.LCFI412-.Ltext0
 12409 07d0 0200     		.2byte	0x2
 12410 07d2 7D       		.byte	0x7d
 12411 07d3 04       		.sleb128 4
 12412 07d4 2C170000 		.4byte	.LCFI412-.Ltext0
 12413 07d8 2E170000 		.4byte	.LFE98-.Ltext0
 12414 07dc 0200     		.2byte	0x2
 12415 07de 7D       		.byte	0x7d
 12416 07df 00       		.sleb128 0
 12417 07e0 00000000 		.4byte	0
 12418 07e4 00000000 		.4byte	0
 12419              	.LLST68:
 12420 07e8 F6160000 		.4byte	.LFB97-.Ltext0
 12421 07ec F8160000 		.4byte	.LCFI401-.Ltext0
 12422 07f0 0200     		.2byte	0x2
 12423 07f2 7D       		.byte	0x7d
 12424 07f3 00       		.sleb128 0
 12425 07f4 F8160000 		.4byte	.LCFI401-.Ltext0
 12426 07f8 FA160000 		.4byte	.LCFI402-.Ltext0
 12427 07fc 0200     		.2byte	0x2
 12428 07fe 7D       		.byte	0x7d
 12429 07ff 04       		.sleb128 4
 12430 0800 FA160000 		.4byte	.LCFI402-.Ltext0
 12431 0804 FC160000 		.4byte	.LCFI403-.Ltext0
 12432 0808 0200     		.2byte	0x2
 12433 080a 7D       		.byte	0x7d
 12434 080b 10       		.sleb128 16
 12435 080c FC160000 		.4byte	.LCFI403-.Ltext0
 12436 0810 0C170000 		.4byte	.LCFI404-.Ltext0
 12437 0814 0200     		.2byte	0x2
 12438 0816 77       		.byte	0x77
ARM GAS  G:\Users\Jaxb\AppData\Local\Temp\ccSQWSCJ.s 			page 271


 12439 0817 10       		.sleb128 16
 12440 0818 0C170000 		.4byte	.LCFI404-.Ltext0
 12441 081c 0E170000 		.4byte	.LCFI405-.Ltext0
 12442 0820 0200     		.2byte	0x2
 12443 0822 77       		.byte	0x77
 12444 0823 04       		.sleb128 4
 12445 0824 0E170000 		.4byte	.LCFI405-.Ltext0
 12446 0828 10170000 		.4byte	.LCFI406-.Ltext0
 12447 082c 0200     		.2byte	0x2
 12448 082e 7D       		.byte	0x7d
 12449 082f 04       		.sleb128 4
 12450 0830 10170000 		.4byte	.LCFI406-.Ltext0
 12451 0834 12170000 		.4byte	.LFE97-.Ltext0
 12452 0838 0200     		.2byte	0x2
 12453 083a 7D       		.byte	0x7d
 12454 083b 00       		.sleb128 0
 12455 083c 00000000 		.4byte	0
 12456 0840 00000000 		.4byte	0
 12457              	.LLST67:
 12458 0844 DA160000 		.4byte	.LFB96-.Ltext0
 12459 0848 DC160000 		.4byte	.LCFI395-.Ltext0
 12460 084c 0200     		.2byte	0x2
 12461 084e 7D       		.byte	0x7d
 12462 084f 00       		.sleb128 0
 12463 0850 DC160000 		.4byte	.LCFI395-.Ltext0
 12464 0854 DE160000 		.4byte	.LCFI396-.Ltext0
 12465 0858 0200     		.2byte	0x2
 12466 085a 7D       		.byte	0x7d
 12467 085b 04       		.sleb128 4
 12468 085c DE160000 		.4byte	.LCFI396-.Ltext0
 12469 0860 E0160000 		.4byte	.LCFI397-.Ltext0
 12470 0864 0200     		.2byte	0x2
 12471 0866 7D       		.byte	0x7d
 12472 0867 10       		.sleb128 16
 12473 0868 E0160000 		.4byte	.LCFI397-.Ltext0
 12474 086c F0160000 		.4byte	.LCFI398-.Ltext0
 12475 0870 0200     		.2byte	0x2
 12476 0872 77       		.byte	0x77
 12477 0873 10       		.sleb128 16
 12478 0874 F0160000 		.4byte	.LCFI398-.Ltext0
 12479 0878 F2160000 		.4byte	.LCFI399-.Ltext0
 12480 087c 0200     		.2byte	0x2
 12481 087e 77       		.byte	0x77
 12482 087f 04       		.sleb128 4
 12483 0880 F2160000 		.4byte	.LCFI399-.Ltext0
 12484 0884 F4160000 		.4byte	.LCFI400-.Ltext0
 12485 0888 0200     		.2byte	0x2
 12486 088a 7D       		.byte	0x7d
 12487 088b 04       		.sleb128 4
 12488 088c F4160000 		.4byte	.LCFI400-.Ltext0
 12489 0890 F6160000 		.4byte	.LFE96-.Ltext0
 12490 0894 0200     		.2byte	0x2
 12491 0896 7D       		.byte	0x7d
 12492 0897 00       		.sleb128 0
 12493 0898 00000000 		.4byte	0
 12494 089c 00000000 		.4byte	0
 12495              	.LLST66:
ARM GAS  G:\Users\Jaxb\AppData\Local\Temp\ccSQWSCJ.s 			page 272


 12496 08a0 BE160000 		.4byte	.LFB95-.Ltext0
 12497 08a4 C0160000 		.4byte	.LCFI389-.Ltext0
 12498 08a8 0200     		.2byte	0x2
 12499 08aa 7D       		.byte	0x7d
 12500 08ab 00       		.sleb128 0
 12501 08ac C0160000 		.4byte	.LCFI389-.Ltext0
 12502 08b0 C2160000 		.4byte	.LCFI390-.Ltext0
 12503 08b4 0200     		.2byte	0x2
 12504 08b6 7D       		.byte	0x7d
 12505 08b7 04       		.sleb128 4
 12506 08b8 C2160000 		.4byte	.LCFI390-.Ltext0
 12507 08bc C4160000 		.4byte	.LCFI391-.Ltext0
 12508 08c0 0200     		.2byte	0x2
 12509 08c2 7D       		.byte	0x7d
 12510 08c3 10       		.sleb128 16
 12511 08c4 C4160000 		.4byte	.LCFI391-.Ltext0
 12512 08c8 D4160000 		.4byte	.LCFI392-.Ltext0
 12513 08cc 0200     		.2byte	0x2
 12514 08ce 77       		.byte	0x77
 12515 08cf 10       		.sleb128 16
 12516 08d0 D4160000 		.4byte	.LCFI392-.Ltext0
 12517 08d4 D6160000 		.4byte	.LCFI393-.Ltext0
 12518 08d8 0200     		.2byte	0x2
 12519 08da 77       		.byte	0x77
 12520 08db 04       		.sleb128 4
 12521 08dc D6160000 		.4byte	.LCFI393-.Ltext0
 12522 08e0 D8160000 		.4byte	.LCFI394-.Ltext0
 12523 08e4 0200     		.2byte	0x2
 12524 08e6 7D       		.byte	0x7d
 12525 08e7 04       		.sleb128 4
 12526 08e8 D8160000 		.4byte	.LCFI394-.Ltext0
 12527 08ec DA160000 		.4byte	.LFE95-.Ltext0
 12528 08f0 0200     		.2byte	0x2
 12529 08f2 7D       		.byte	0x7d
 12530 08f3 00       		.sleb128 0
 12531 08f4 00000000 		.4byte	0
 12532 08f8 00000000 		.4byte	0
 12533              	.LLST65:
 12534 08fc 88160000 		.4byte	.LFB94-.Ltext0
 12535 0900 8A160000 		.4byte	.LCFI383-.Ltext0
 12536 0904 0200     		.2byte	0x2
 12537 0906 7D       		.byte	0x7d
 12538 0907 00       		.sleb128 0
 12539 0908 8A160000 		.4byte	.LCFI383-.Ltext0
 12540 090c 8C160000 		.4byte	.LCFI384-.Ltext0
 12541 0910 0200     		.2byte	0x2
 12542 0912 7D       		.byte	0x7d
 12543 0913 04       		.sleb128 4
 12544 0914 8C160000 		.4byte	.LCFI384-.Ltext0
 12545 0918 8E160000 		.4byte	.LCFI385-.Ltext0
 12546 091c 0200     		.2byte	0x2
 12547 091e 7D       		.byte	0x7d
 12548 091f 10       		.sleb128 16
 12549 0920 8E160000 		.4byte	.LCFI385-.Ltext0
 12550 0924 B8160000 		.4byte	.LCFI386-.Ltext0
 12551 0928 0200     		.2byte	0x2
 12552 092a 77       		.byte	0x77
ARM GAS  G:\Users\Jaxb\AppData\Local\Temp\ccSQWSCJ.s 			page 273


 12553 092b 10       		.sleb128 16
 12554 092c B8160000 		.4byte	.LCFI386-.Ltext0
 12555 0930 BA160000 		.4byte	.LCFI387-.Ltext0
 12556 0934 0200     		.2byte	0x2
 12557 0936 77       		.byte	0x77
 12558 0937 04       		.sleb128 4
 12559 0938 BA160000 		.4byte	.LCFI387-.Ltext0
 12560 093c BC160000 		.4byte	.LCFI388-.Ltext0
 12561 0940 0200     		.2byte	0x2
 12562 0942 7D       		.byte	0x7d
 12563 0943 04       		.sleb128 4
 12564 0944 BC160000 		.4byte	.LCFI388-.Ltext0
 12565 0948 BE160000 		.4byte	.LFE94-.Ltext0
 12566 094c 0200     		.2byte	0x2
 12567 094e 7D       		.byte	0x7d
 12568 094f 00       		.sleb128 0
 12569 0950 00000000 		.4byte	0
 12570 0954 00000000 		.4byte	0
 12571              	.LLST64:
 12572 0958 52160000 		.4byte	.LFB93-.Ltext0
 12573 095c 54160000 		.4byte	.LCFI377-.Ltext0
 12574 0960 0200     		.2byte	0x2
 12575 0962 7D       		.byte	0x7d
 12576 0963 00       		.sleb128 0
 12577 0964 54160000 		.4byte	.LCFI377-.Ltext0
 12578 0968 56160000 		.4byte	.LCFI378-.Ltext0
 12579 096c 0200     		.2byte	0x2
 12580 096e 7D       		.byte	0x7d
 12581 096f 04       		.sleb128 4
 12582 0970 56160000 		.4byte	.LCFI378-.Ltext0
 12583 0974 58160000 		.4byte	.LCFI379-.Ltext0
 12584 0978 0200     		.2byte	0x2
 12585 097a 7D       		.byte	0x7d
 12586 097b 10       		.sleb128 16
 12587 097c 58160000 		.4byte	.LCFI379-.Ltext0
 12588 0980 82160000 		.4byte	.LCFI380-.Ltext0
 12589 0984 0200     		.2byte	0x2
 12590 0986 77       		.byte	0x77
 12591 0987 10       		.sleb128 16
 12592 0988 82160000 		.4byte	.LCFI380-.Ltext0
 12593 098c 84160000 		.4byte	.LCFI381-.Ltext0
 12594 0990 0200     		.2byte	0x2
 12595 0992 77       		.byte	0x77
 12596 0993 04       		.sleb128 4
 12597 0994 84160000 		.4byte	.LCFI381-.Ltext0
 12598 0998 86160000 		.4byte	.LCFI382-.Ltext0
 12599 099c 0200     		.2byte	0x2
 12600 099e 7D       		.byte	0x7d
 12601 099f 04       		.sleb128 4
 12602 09a0 86160000 		.4byte	.LCFI382-.Ltext0
 12603 09a4 88160000 		.4byte	.LFE93-.Ltext0
 12604 09a8 0200     		.2byte	0x2
 12605 09aa 7D       		.byte	0x7d
 12606 09ab 00       		.sleb128 0
 12607 09ac 00000000 		.4byte	0
 12608 09b0 00000000 		.4byte	0
 12609              	.LLST63:
ARM GAS  G:\Users\Jaxb\AppData\Local\Temp\ccSQWSCJ.s 			page 274


 12610 09b4 1C160000 		.4byte	.LFB92-.Ltext0
 12611 09b8 1E160000 		.4byte	.LCFI371-.Ltext0
 12612 09bc 0200     		.2byte	0x2
 12613 09be 7D       		.byte	0x7d
 12614 09bf 00       		.sleb128 0
 12615 09c0 1E160000 		.4byte	.LCFI371-.Ltext0
 12616 09c4 20160000 		.4byte	.LCFI372-.Ltext0
 12617 09c8 0200     		.2byte	0x2
 12618 09ca 7D       		.byte	0x7d
 12619 09cb 04       		.sleb128 4
 12620 09cc 20160000 		.4byte	.LCFI372-.Ltext0
 12621 09d0 22160000 		.4byte	.LCFI373-.Ltext0
 12622 09d4 0200     		.2byte	0x2
 12623 09d6 7D       		.byte	0x7d
 12624 09d7 10       		.sleb128 16
 12625 09d8 22160000 		.4byte	.LCFI373-.Ltext0
 12626 09dc 4C160000 		.4byte	.LCFI374-.Ltext0
 12627 09e0 0200     		.2byte	0x2
 12628 09e2 77       		.byte	0x77
 12629 09e3 10       		.sleb128 16
 12630 09e4 4C160000 		.4byte	.LCFI374-.Ltext0
 12631 09e8 4E160000 		.4byte	.LCFI375-.Ltext0
 12632 09ec 0200     		.2byte	0x2
 12633 09ee 77       		.byte	0x77
 12634 09ef 04       		.sleb128 4
 12635 09f0 4E160000 		.4byte	.LCFI375-.Ltext0
 12636 09f4 50160000 		.4byte	.LCFI376-.Ltext0
 12637 09f8 0200     		.2byte	0x2
 12638 09fa 7D       		.byte	0x7d
 12639 09fb 04       		.sleb128 4
 12640 09fc 50160000 		.4byte	.LCFI376-.Ltext0
 12641 0a00 52160000 		.4byte	.LFE92-.Ltext0
 12642 0a04 0200     		.2byte	0x2
 12643 0a06 7D       		.byte	0x7d
 12644 0a07 00       		.sleb128 0
 12645 0a08 00000000 		.4byte	0
 12646 0a0c 00000000 		.4byte	0
 12647              	.LLST62:
 12648 0a10 E6150000 		.4byte	.LFB91-.Ltext0
 12649 0a14 E8150000 		.4byte	.LCFI365-.Ltext0
 12650 0a18 0200     		.2byte	0x2
 12651 0a1a 7D       		.byte	0x7d
 12652 0a1b 00       		.sleb128 0
 12653 0a1c E8150000 		.4byte	.LCFI365-.Ltext0
 12654 0a20 EA150000 		.4byte	.LCFI366-.Ltext0
 12655 0a24 0200     		.2byte	0x2
 12656 0a26 7D       		.byte	0x7d
 12657 0a27 04       		.sleb128 4
 12658 0a28 EA150000 		.4byte	.LCFI366-.Ltext0
 12659 0a2c EC150000 		.4byte	.LCFI367-.Ltext0
 12660 0a30 0200     		.2byte	0x2
 12661 0a32 7D       		.byte	0x7d
 12662 0a33 10       		.sleb128 16
 12663 0a34 EC150000 		.4byte	.LCFI367-.Ltext0
 12664 0a38 16160000 		.4byte	.LCFI368-.Ltext0
 12665 0a3c 0200     		.2byte	0x2
 12666 0a3e 77       		.byte	0x77
ARM GAS  G:\Users\Jaxb\AppData\Local\Temp\ccSQWSCJ.s 			page 275


 12667 0a3f 10       		.sleb128 16
 12668 0a40 16160000 		.4byte	.LCFI368-.Ltext0
 12669 0a44 18160000 		.4byte	.LCFI369-.Ltext0
 12670 0a48 0200     		.2byte	0x2
 12671 0a4a 77       		.byte	0x77
 12672 0a4b 04       		.sleb128 4
 12673 0a4c 18160000 		.4byte	.LCFI369-.Ltext0
 12674 0a50 1A160000 		.4byte	.LCFI370-.Ltext0
 12675 0a54 0200     		.2byte	0x2
 12676 0a56 7D       		.byte	0x7d
 12677 0a57 04       		.sleb128 4
 12678 0a58 1A160000 		.4byte	.LCFI370-.Ltext0
 12679 0a5c 1C160000 		.4byte	.LFE91-.Ltext0
 12680 0a60 0200     		.2byte	0x2
 12681 0a62 7D       		.byte	0x7d
 12682 0a63 00       		.sleb128 0
 12683 0a64 00000000 		.4byte	0
 12684 0a68 00000000 		.4byte	0
 12685              	.LLST61:
 12686 0a6c A8150000 		.4byte	.LFB90-.Ltext0
 12687 0a70 AA150000 		.4byte	.LCFI359-.Ltext0
 12688 0a74 0200     		.2byte	0x2
 12689 0a76 7D       		.byte	0x7d
 12690 0a77 00       		.sleb128 0
 12691 0a78 AA150000 		.4byte	.LCFI359-.Ltext0
 12692 0a7c AC150000 		.4byte	.LCFI360-.Ltext0
 12693 0a80 0200     		.2byte	0x2
 12694 0a82 7D       		.byte	0x7d
 12695 0a83 04       		.sleb128 4
 12696 0a84 AC150000 		.4byte	.LCFI360-.Ltext0
 12697 0a88 AE150000 		.4byte	.LCFI361-.Ltext0
 12698 0a8c 0200     		.2byte	0x2
 12699 0a8e 7D       		.byte	0x7d
 12700 0a8f 10       		.sleb128 16
 12701 0a90 AE150000 		.4byte	.LCFI361-.Ltext0
 12702 0a94 E0150000 		.4byte	.LCFI362-.Ltext0
 12703 0a98 0200     		.2byte	0x2
 12704 0a9a 77       		.byte	0x77
 12705 0a9b 10       		.sleb128 16
 12706 0a9c E0150000 		.4byte	.LCFI362-.Ltext0
 12707 0aa0 E2150000 		.4byte	.LCFI363-.Ltext0
 12708 0aa4 0200     		.2byte	0x2
 12709 0aa6 77       		.byte	0x77
 12710 0aa7 04       		.sleb128 4
 12711 0aa8 E2150000 		.4byte	.LCFI363-.Ltext0
 12712 0aac E4150000 		.4byte	.LCFI364-.Ltext0
 12713 0ab0 0200     		.2byte	0x2
 12714 0ab2 7D       		.byte	0x7d
 12715 0ab3 04       		.sleb128 4
 12716 0ab4 E4150000 		.4byte	.LCFI364-.Ltext0
 12717 0ab8 E6150000 		.4byte	.LFE90-.Ltext0
 12718 0abc 0200     		.2byte	0x2
 12719 0abe 7D       		.byte	0x7d
 12720 0abf 00       		.sleb128 0
 12721 0ac0 00000000 		.4byte	0
 12722 0ac4 00000000 		.4byte	0
 12723              	.LLST60:
ARM GAS  G:\Users\Jaxb\AppData\Local\Temp\ccSQWSCJ.s 			page 276


 12724 0ac8 6A150000 		.4byte	.LFB89-.Ltext0
 12725 0acc 6C150000 		.4byte	.LCFI353-.Ltext0
 12726 0ad0 0200     		.2byte	0x2
 12727 0ad2 7D       		.byte	0x7d
 12728 0ad3 00       		.sleb128 0
 12729 0ad4 6C150000 		.4byte	.LCFI353-.Ltext0
 12730 0ad8 6E150000 		.4byte	.LCFI354-.Ltext0
 12731 0adc 0200     		.2byte	0x2
 12732 0ade 7D       		.byte	0x7d
 12733 0adf 04       		.sleb128 4
 12734 0ae0 6E150000 		.4byte	.LCFI354-.Ltext0
 12735 0ae4 70150000 		.4byte	.LCFI355-.Ltext0
 12736 0ae8 0200     		.2byte	0x2
 12737 0aea 7D       		.byte	0x7d
 12738 0aeb 10       		.sleb128 16
 12739 0aec 70150000 		.4byte	.LCFI355-.Ltext0
 12740 0af0 A2150000 		.4byte	.LCFI356-.Ltext0
 12741 0af4 0200     		.2byte	0x2
 12742 0af6 77       		.byte	0x77
 12743 0af7 10       		.sleb128 16
 12744 0af8 A2150000 		.4byte	.LCFI356-.Ltext0
 12745 0afc A4150000 		.4byte	.LCFI357-.Ltext0
 12746 0b00 0200     		.2byte	0x2
 12747 0b02 77       		.byte	0x77
 12748 0b03 04       		.sleb128 4
 12749 0b04 A4150000 		.4byte	.LCFI357-.Ltext0
 12750 0b08 A6150000 		.4byte	.LCFI358-.Ltext0
 12751 0b0c 0200     		.2byte	0x2
 12752 0b0e 7D       		.byte	0x7d
 12753 0b0f 04       		.sleb128 4
 12754 0b10 A6150000 		.4byte	.LCFI358-.Ltext0
 12755 0b14 A8150000 		.4byte	.LFE89-.Ltext0
 12756 0b18 0200     		.2byte	0x2
 12757 0b1a 7D       		.byte	0x7d
 12758 0b1b 00       		.sleb128 0
 12759 0b1c 00000000 		.4byte	0
 12760 0b20 00000000 		.4byte	0
 12761              	.LLST59:
 12762 0b24 2C150000 		.4byte	.LFB88-.Ltext0
 12763 0b28 2E150000 		.4byte	.LCFI347-.Ltext0
 12764 0b2c 0200     		.2byte	0x2
 12765 0b2e 7D       		.byte	0x7d
 12766 0b2f 00       		.sleb128 0
 12767 0b30 2E150000 		.4byte	.LCFI347-.Ltext0
 12768 0b34 30150000 		.4byte	.LCFI348-.Ltext0
 12769 0b38 0200     		.2byte	0x2
 12770 0b3a 7D       		.byte	0x7d
 12771 0b3b 04       		.sleb128 4
 12772 0b3c 30150000 		.4byte	.LCFI348-.Ltext0
 12773 0b40 32150000 		.4byte	.LCFI349-.Ltext0
 12774 0b44 0200     		.2byte	0x2
 12775 0b46 7D       		.byte	0x7d
 12776 0b47 10       		.sleb128 16
 12777 0b48 32150000 		.4byte	.LCFI349-.Ltext0
 12778 0b4c 64150000 		.4byte	.LCFI350-.Ltext0
 12779 0b50 0200     		.2byte	0x2
 12780 0b52 77       		.byte	0x77
ARM GAS  G:\Users\Jaxb\AppData\Local\Temp\ccSQWSCJ.s 			page 277


 12781 0b53 10       		.sleb128 16
 12782 0b54 64150000 		.4byte	.LCFI350-.Ltext0
 12783 0b58 66150000 		.4byte	.LCFI351-.Ltext0
 12784 0b5c 0200     		.2byte	0x2
 12785 0b5e 77       		.byte	0x77
 12786 0b5f 04       		.sleb128 4
 12787 0b60 66150000 		.4byte	.LCFI351-.Ltext0
 12788 0b64 68150000 		.4byte	.LCFI352-.Ltext0
 12789 0b68 0200     		.2byte	0x2
 12790 0b6a 7D       		.byte	0x7d
 12791 0b6b 04       		.sleb128 4
 12792 0b6c 68150000 		.4byte	.LCFI352-.Ltext0
 12793 0b70 6A150000 		.4byte	.LFE88-.Ltext0
 12794 0b74 0200     		.2byte	0x2
 12795 0b76 7D       		.byte	0x7d
 12796 0b77 00       		.sleb128 0
 12797 0b78 00000000 		.4byte	0
 12798 0b7c 00000000 		.4byte	0
 12799              	.LLST58:
 12800 0b80 7E140000 		.4byte	.LFB87-.Ltext0
 12801 0b84 80140000 		.4byte	.LCFI341-.Ltext0
 12802 0b88 0200     		.2byte	0x2
 12803 0b8a 7D       		.byte	0x7d
 12804 0b8b 00       		.sleb128 0
 12805 0b8c 80140000 		.4byte	.LCFI341-.Ltext0
 12806 0b90 82140000 		.4byte	.LCFI342-.Ltext0
 12807 0b94 0200     		.2byte	0x2
 12808 0b96 7D       		.byte	0x7d
 12809 0b97 04       		.sleb128 4
 12810 0b98 82140000 		.4byte	.LCFI342-.Ltext0
 12811 0b9c 84140000 		.4byte	.LCFI343-.Ltext0
 12812 0ba0 0200     		.2byte	0x2
 12813 0ba2 7D       		.byte	0x7d
 12814 0ba3 18       		.sleb128 24
 12815 0ba4 84140000 		.4byte	.LCFI343-.Ltext0
 12816 0ba8 26150000 		.4byte	.LCFI344-.Ltext0
 12817 0bac 0200     		.2byte	0x2
 12818 0bae 77       		.byte	0x77
 12819 0baf 18       		.sleb128 24
 12820 0bb0 26150000 		.4byte	.LCFI344-.Ltext0
 12821 0bb4 28150000 		.4byte	.LCFI345-.Ltext0
 12822 0bb8 0200     		.2byte	0x2
 12823 0bba 77       		.byte	0x77
 12824 0bbb 04       		.sleb128 4
 12825 0bbc 28150000 		.4byte	.LCFI345-.Ltext0
 12826 0bc0 2A150000 		.4byte	.LCFI346-.Ltext0
 12827 0bc4 0200     		.2byte	0x2
 12828 0bc6 7D       		.byte	0x7d
 12829 0bc7 04       		.sleb128 4
 12830 0bc8 2A150000 		.4byte	.LCFI346-.Ltext0
 12831 0bcc 2C150000 		.4byte	.LFE87-.Ltext0
 12832 0bd0 0200     		.2byte	0x2
 12833 0bd2 7D       		.byte	0x7d
 12834 0bd3 00       		.sleb128 0
 12835 0bd4 00000000 		.4byte	0
 12836 0bd8 00000000 		.4byte	0
 12837              	.LLST57:
ARM GAS  G:\Users\Jaxb\AppData\Local\Temp\ccSQWSCJ.s 			page 278


 12838 0bdc 2A140000 		.4byte	.LFB86-.Ltext0
 12839 0be0 2C140000 		.4byte	.LCFI335-.Ltext0
 12840 0be4 0200     		.2byte	0x2
 12841 0be6 7D       		.byte	0x7d
 12842 0be7 00       		.sleb128 0
 12843 0be8 2C140000 		.4byte	.LCFI335-.Ltext0
 12844 0bec 2E140000 		.4byte	.LCFI336-.Ltext0
 12845 0bf0 0200     		.2byte	0x2
 12846 0bf2 7D       		.byte	0x7d
 12847 0bf3 04       		.sleb128 4
 12848 0bf4 2E140000 		.4byte	.LCFI336-.Ltext0
 12849 0bf8 30140000 		.4byte	.LCFI337-.Ltext0
 12850 0bfc 0200     		.2byte	0x2
 12851 0bfe 7D       		.byte	0x7d
 12852 0bff 18       		.sleb128 24
 12853 0c00 30140000 		.4byte	.LCFI337-.Ltext0
 12854 0c04 78140000 		.4byte	.LCFI338-.Ltext0
 12855 0c08 0200     		.2byte	0x2
 12856 0c0a 77       		.byte	0x77
 12857 0c0b 18       		.sleb128 24
 12858 0c0c 78140000 		.4byte	.LCFI338-.Ltext0
 12859 0c10 7A140000 		.4byte	.LCFI339-.Ltext0
 12860 0c14 0200     		.2byte	0x2
 12861 0c16 77       		.byte	0x77
 12862 0c17 04       		.sleb128 4
 12863 0c18 7A140000 		.4byte	.LCFI339-.Ltext0
 12864 0c1c 7C140000 		.4byte	.LCFI340-.Ltext0
 12865 0c20 0200     		.2byte	0x2
 12866 0c22 7D       		.byte	0x7d
 12867 0c23 04       		.sleb128 4
 12868 0c24 7C140000 		.4byte	.LCFI340-.Ltext0
 12869 0c28 7E140000 		.4byte	.LFE86-.Ltext0
 12870 0c2c 0200     		.2byte	0x2
 12871 0c2e 7D       		.byte	0x7d
 12872 0c2f 00       		.sleb128 0
 12873 0c30 00000000 		.4byte	0
 12874 0c34 00000000 		.4byte	0
 12875              	.LLST56:
 12876 0c38 D6130000 		.4byte	.LFB85-.Ltext0
 12877 0c3c D8130000 		.4byte	.LCFI329-.Ltext0
 12878 0c40 0200     		.2byte	0x2
 12879 0c42 7D       		.byte	0x7d
 12880 0c43 00       		.sleb128 0
 12881 0c44 D8130000 		.4byte	.LCFI329-.Ltext0
 12882 0c48 DA130000 		.4byte	.LCFI330-.Ltext0
 12883 0c4c 0200     		.2byte	0x2
 12884 0c4e 7D       		.byte	0x7d
 12885 0c4f 04       		.sleb128 4
 12886 0c50 DA130000 		.4byte	.LCFI330-.Ltext0
 12887 0c54 DC130000 		.4byte	.LCFI331-.Ltext0
 12888 0c58 0200     		.2byte	0x2
 12889 0c5a 7D       		.byte	0x7d
 12890 0c5b 18       		.sleb128 24
 12891 0c5c DC130000 		.4byte	.LCFI331-.Ltext0
 12892 0c60 24140000 		.4byte	.LCFI332-.Ltext0
 12893 0c64 0200     		.2byte	0x2
 12894 0c66 77       		.byte	0x77
ARM GAS  G:\Users\Jaxb\AppData\Local\Temp\ccSQWSCJ.s 			page 279


 12895 0c67 18       		.sleb128 24
 12896 0c68 24140000 		.4byte	.LCFI332-.Ltext0
 12897 0c6c 26140000 		.4byte	.LCFI333-.Ltext0
 12898 0c70 0200     		.2byte	0x2
 12899 0c72 77       		.byte	0x77
 12900 0c73 04       		.sleb128 4
 12901 0c74 26140000 		.4byte	.LCFI333-.Ltext0
 12902 0c78 28140000 		.4byte	.LCFI334-.Ltext0
 12903 0c7c 0200     		.2byte	0x2
 12904 0c7e 7D       		.byte	0x7d
 12905 0c7f 04       		.sleb128 4
 12906 0c80 28140000 		.4byte	.LCFI334-.Ltext0
 12907 0c84 2A140000 		.4byte	.LFE85-.Ltext0
 12908 0c88 0200     		.2byte	0x2
 12909 0c8a 7D       		.byte	0x7d
 12910 0c8b 00       		.sleb128 0
 12911 0c8c 00000000 		.4byte	0
 12912 0c90 00000000 		.4byte	0
 12913              	.LLST55:
 12914 0c94 9C130000 		.4byte	.LFB84-.Ltext0
 12915 0c98 9E130000 		.4byte	.LCFI323-.Ltext0
 12916 0c9c 0200     		.2byte	0x2
 12917 0c9e 7D       		.byte	0x7d
 12918 0c9f 00       		.sleb128 0
 12919 0ca0 9E130000 		.4byte	.LCFI323-.Ltext0
 12920 0ca4 A0130000 		.4byte	.LCFI324-.Ltext0
 12921 0ca8 0200     		.2byte	0x2
 12922 0caa 7D       		.byte	0x7d
 12923 0cab 04       		.sleb128 4
 12924 0cac A0130000 		.4byte	.LCFI324-.Ltext0
 12925 0cb0 A2130000 		.4byte	.LCFI325-.Ltext0
 12926 0cb4 0200     		.2byte	0x2
 12927 0cb6 7D       		.byte	0x7d
 12928 0cb7 18       		.sleb128 24
 12929 0cb8 A2130000 		.4byte	.LCFI325-.Ltext0
 12930 0cbc D0130000 		.4byte	.LCFI326-.Ltext0
 12931 0cc0 0200     		.2byte	0x2
 12932 0cc2 77       		.byte	0x77
 12933 0cc3 18       		.sleb128 24
 12934 0cc4 D0130000 		.4byte	.LCFI326-.Ltext0
 12935 0cc8 D2130000 		.4byte	.LCFI327-.Ltext0
 12936 0ccc 0200     		.2byte	0x2
 12937 0cce 77       		.byte	0x77
 12938 0ccf 04       		.sleb128 4
 12939 0cd0 D2130000 		.4byte	.LCFI327-.Ltext0
 12940 0cd4 D4130000 		.4byte	.LCFI328-.Ltext0
 12941 0cd8 0200     		.2byte	0x2
 12942 0cda 7D       		.byte	0x7d
 12943 0cdb 04       		.sleb128 4
 12944 0cdc D4130000 		.4byte	.LCFI328-.Ltext0
 12945 0ce0 D6130000 		.4byte	.LFE84-.Ltext0
 12946 0ce4 0200     		.2byte	0x2
 12947 0ce6 7D       		.byte	0x7d
 12948 0ce7 00       		.sleb128 0
 12949 0ce8 00000000 		.4byte	0
 12950 0cec 00000000 		.4byte	0
 12951              	.LLST54:
ARM GAS  G:\Users\Jaxb\AppData\Local\Temp\ccSQWSCJ.s 			page 280


 12952 0cf0 62130000 		.4byte	.LFB83-.Ltext0
 12953 0cf4 64130000 		.4byte	.LCFI317-.Ltext0
 12954 0cf8 0200     		.2byte	0x2
 12955 0cfa 7D       		.byte	0x7d
 12956 0cfb 00       		.sleb128 0
 12957 0cfc 64130000 		.4byte	.LCFI317-.Ltext0
 12958 0d00 66130000 		.4byte	.LCFI318-.Ltext0
 12959 0d04 0200     		.2byte	0x2
 12960 0d06 7D       		.byte	0x7d
 12961 0d07 04       		.sleb128 4
 12962 0d08 66130000 		.4byte	.LCFI318-.Ltext0
 12963 0d0c 68130000 		.4byte	.LCFI319-.Ltext0
 12964 0d10 0200     		.2byte	0x2
 12965 0d12 7D       		.byte	0x7d
 12966 0d13 18       		.sleb128 24
 12967 0d14 68130000 		.4byte	.LCFI319-.Ltext0
 12968 0d18 96130000 		.4byte	.LCFI320-.Ltext0
 12969 0d1c 0200     		.2byte	0x2
 12970 0d1e 77       		.byte	0x77
 12971 0d1f 18       		.sleb128 24
 12972 0d20 96130000 		.4byte	.LCFI320-.Ltext0
 12973 0d24 98130000 		.4byte	.LCFI321-.Ltext0
 12974 0d28 0200     		.2byte	0x2
 12975 0d2a 77       		.byte	0x77
 12976 0d2b 04       		.sleb128 4
 12977 0d2c 98130000 		.4byte	.LCFI321-.Ltext0
 12978 0d30 9A130000 		.4byte	.LCFI322-.Ltext0
 12979 0d34 0200     		.2byte	0x2
 12980 0d36 7D       		.byte	0x7d
 12981 0d37 04       		.sleb128 4
 12982 0d38 9A130000 		.4byte	.LCFI322-.Ltext0
 12983 0d3c 9C130000 		.4byte	.LFE83-.Ltext0
 12984 0d40 0200     		.2byte	0x2
 12985 0d42 7D       		.byte	0x7d
 12986 0d43 00       		.sleb128 0
 12987 0d44 00000000 		.4byte	0
 12988 0d48 00000000 		.4byte	0
 12989              	.LLST53:
 12990 0d4c 28130000 		.4byte	.LFB82-.Ltext0
 12991 0d50 2A130000 		.4byte	.LCFI311-.Ltext0
 12992 0d54 0200     		.2byte	0x2
 12993 0d56 7D       		.byte	0x7d
 12994 0d57 00       		.sleb128 0
 12995 0d58 2A130000 		.4byte	.LCFI311-.Ltext0
 12996 0d5c 2C130000 		.4byte	.LCFI312-.Ltext0
 12997 0d60 0200     		.2byte	0x2
 12998 0d62 7D       		.byte	0x7d
 12999 0d63 04       		.sleb128 4
 13000 0d64 2C130000 		.4byte	.LCFI312-.Ltext0
 13001 0d68 2E130000 		.4byte	.LCFI313-.Ltext0
 13002 0d6c 0200     		.2byte	0x2
 13003 0d6e 7D       		.byte	0x7d
 13004 0d6f 18       		.sleb128 24
 13005 0d70 2E130000 		.4byte	.LCFI313-.Ltext0
 13006 0d74 5C130000 		.4byte	.LCFI314-.Ltext0
 13007 0d78 0200     		.2byte	0x2
 13008 0d7a 77       		.byte	0x77
ARM GAS  G:\Users\Jaxb\AppData\Local\Temp\ccSQWSCJ.s 			page 281


 13009 0d7b 18       		.sleb128 24
 13010 0d7c 5C130000 		.4byte	.LCFI314-.Ltext0
 13011 0d80 5E130000 		.4byte	.LCFI315-.Ltext0
 13012 0d84 0200     		.2byte	0x2
 13013 0d86 77       		.byte	0x77
 13014 0d87 04       		.sleb128 4
 13015 0d88 5E130000 		.4byte	.LCFI315-.Ltext0
 13016 0d8c 60130000 		.4byte	.LCFI316-.Ltext0
 13017 0d90 0200     		.2byte	0x2
 13018 0d92 7D       		.byte	0x7d
 13019 0d93 04       		.sleb128 4
 13020 0d94 60130000 		.4byte	.LCFI316-.Ltext0
 13021 0d98 62130000 		.4byte	.LFE82-.Ltext0
 13022 0d9c 0200     		.2byte	0x2
 13023 0d9e 7D       		.byte	0x7d
 13024 0d9f 00       		.sleb128 0
 13025 0da0 00000000 		.4byte	0
 13026 0da4 00000000 		.4byte	0
 13027              	.LLST52:
 13028 0da8 EE120000 		.4byte	.LFB81-.Ltext0
 13029 0dac F0120000 		.4byte	.LCFI305-.Ltext0
 13030 0db0 0200     		.2byte	0x2
 13031 0db2 7D       		.byte	0x7d
 13032 0db3 00       		.sleb128 0
 13033 0db4 F0120000 		.4byte	.LCFI305-.Ltext0
 13034 0db8 F2120000 		.4byte	.LCFI306-.Ltext0
 13035 0dbc 0200     		.2byte	0x2
 13036 0dbe 7D       		.byte	0x7d
 13037 0dbf 04       		.sleb128 4
 13038 0dc0 F2120000 		.4byte	.LCFI306-.Ltext0
 13039 0dc4 F4120000 		.4byte	.LCFI307-.Ltext0
 13040 0dc8 0200     		.2byte	0x2
 13041 0dca 7D       		.byte	0x7d
 13042 0dcb 18       		.sleb128 24
 13043 0dcc F4120000 		.4byte	.LCFI307-.Ltext0
 13044 0dd0 22130000 		.4byte	.LCFI308-.Ltext0
 13045 0dd4 0200     		.2byte	0x2
 13046 0dd6 77       		.byte	0x77
 13047 0dd7 18       		.sleb128 24
 13048 0dd8 22130000 		.4byte	.LCFI308-.Ltext0
 13049 0ddc 24130000 		.4byte	.LCFI309-.Ltext0
 13050 0de0 0200     		.2byte	0x2
 13051 0de2 77       		.byte	0x77
 13052 0de3 04       		.sleb128 4
 13053 0de4 24130000 		.4byte	.LCFI309-.Ltext0
 13054 0de8 26130000 		.4byte	.LCFI310-.Ltext0
 13055 0dec 0200     		.2byte	0x2
 13056 0dee 7D       		.byte	0x7d
 13057 0def 04       		.sleb128 4
 13058 0df0 26130000 		.4byte	.LCFI310-.Ltext0
 13059 0df4 28130000 		.4byte	.LFE81-.Ltext0
 13060 0df8 0200     		.2byte	0x2
 13061 0dfa 7D       		.byte	0x7d
 13062 0dfb 00       		.sleb128 0
 13063 0dfc 00000000 		.4byte	0
 13064 0e00 00000000 		.4byte	0
 13065              	.LLST51:
ARM GAS  G:\Users\Jaxb\AppData\Local\Temp\ccSQWSCJ.s 			page 282


 13066 0e04 B4120000 		.4byte	.LFB80-.Ltext0
 13067 0e08 B6120000 		.4byte	.LCFI299-.Ltext0
 13068 0e0c 0200     		.2byte	0x2
 13069 0e0e 7D       		.byte	0x7d
 13070 0e0f 00       		.sleb128 0
 13071 0e10 B6120000 		.4byte	.LCFI299-.Ltext0
 13072 0e14 B8120000 		.4byte	.LCFI300-.Ltext0
 13073 0e18 0200     		.2byte	0x2
 13074 0e1a 7D       		.byte	0x7d
 13075 0e1b 04       		.sleb128 4
 13076 0e1c B8120000 		.4byte	.LCFI300-.Ltext0
 13077 0e20 BA120000 		.4byte	.LCFI301-.Ltext0
 13078 0e24 0200     		.2byte	0x2
 13079 0e26 7D       		.byte	0x7d
 13080 0e27 18       		.sleb128 24
 13081 0e28 BA120000 		.4byte	.LCFI301-.Ltext0
 13082 0e2c E8120000 		.4byte	.LCFI302-.Ltext0
 13083 0e30 0200     		.2byte	0x2
 13084 0e32 77       		.byte	0x77
 13085 0e33 18       		.sleb128 24
 13086 0e34 E8120000 		.4byte	.LCFI302-.Ltext0
 13087 0e38 EA120000 		.4byte	.LCFI303-.Ltext0
 13088 0e3c 0200     		.2byte	0x2
 13089 0e3e 77       		.byte	0x77
 13090 0e3f 04       		.sleb128 4
 13091 0e40 EA120000 		.4byte	.LCFI303-.Ltext0
 13092 0e44 EC120000 		.4byte	.LCFI304-.Ltext0
 13093 0e48 0200     		.2byte	0x2
 13094 0e4a 7D       		.byte	0x7d
 13095 0e4b 04       		.sleb128 4
 13096 0e4c EC120000 		.4byte	.LCFI304-.Ltext0
 13097 0e50 EE120000 		.4byte	.LFE80-.Ltext0
 13098 0e54 0200     		.2byte	0x2
 13099 0e56 7D       		.byte	0x7d
 13100 0e57 00       		.sleb128 0
 13101 0e58 00000000 		.4byte	0
 13102 0e5c 00000000 		.4byte	0
 13103              	.LLST50:
 13104 0e60 7E120000 		.4byte	.LFB79-.Ltext0
 13105 0e64 80120000 		.4byte	.LCFI293-.Ltext0
 13106 0e68 0200     		.2byte	0x2
 13107 0e6a 7D       		.byte	0x7d
 13108 0e6b 00       		.sleb128 0
 13109 0e6c 80120000 		.4byte	.LCFI293-.Ltext0
 13110 0e70 82120000 		.4byte	.LCFI294-.Ltext0
 13111 0e74 0200     		.2byte	0x2
 13112 0e76 7D       		.byte	0x7d
 13113 0e77 04       		.sleb128 4
 13114 0e78 82120000 		.4byte	.LCFI294-.Ltext0
 13115 0e7c 84120000 		.4byte	.LCFI295-.Ltext0
 13116 0e80 0200     		.2byte	0x2
 13117 0e82 7D       		.byte	0x7d
 13118 0e83 18       		.sleb128 24
 13119 0e84 84120000 		.4byte	.LCFI295-.Ltext0
 13120 0e88 AE120000 		.4byte	.LCFI296-.Ltext0
 13121 0e8c 0200     		.2byte	0x2
 13122 0e8e 77       		.byte	0x77
ARM GAS  G:\Users\Jaxb\AppData\Local\Temp\ccSQWSCJ.s 			page 283


 13123 0e8f 18       		.sleb128 24
 13124 0e90 AE120000 		.4byte	.LCFI296-.Ltext0
 13125 0e94 B0120000 		.4byte	.LCFI297-.Ltext0
 13126 0e98 0200     		.2byte	0x2
 13127 0e9a 77       		.byte	0x77
 13128 0e9b 04       		.sleb128 4
 13129 0e9c B0120000 		.4byte	.LCFI297-.Ltext0
 13130 0ea0 B2120000 		.4byte	.LCFI298-.Ltext0
 13131 0ea4 0200     		.2byte	0x2
 13132 0ea6 7D       		.byte	0x7d
 13133 0ea7 04       		.sleb128 4
 13134 0ea8 B2120000 		.4byte	.LCFI298-.Ltext0
 13135 0eac B4120000 		.4byte	.LFE79-.Ltext0
 13136 0eb0 0200     		.2byte	0x2
 13137 0eb2 7D       		.byte	0x7d
 13138 0eb3 00       		.sleb128 0
 13139 0eb4 00000000 		.4byte	0
 13140 0eb8 00000000 		.4byte	0
 13141              	.LLST49:
 13142 0ebc 48120000 		.4byte	.LFB78-.Ltext0
 13143 0ec0 4A120000 		.4byte	.LCFI287-.Ltext0
 13144 0ec4 0200     		.2byte	0x2
 13145 0ec6 7D       		.byte	0x7d
 13146 0ec7 00       		.sleb128 0
 13147 0ec8 4A120000 		.4byte	.LCFI287-.Ltext0
 13148 0ecc 4C120000 		.4byte	.LCFI288-.Ltext0
 13149 0ed0 0200     		.2byte	0x2
 13150 0ed2 7D       		.byte	0x7d
 13151 0ed3 04       		.sleb128 4
 13152 0ed4 4C120000 		.4byte	.LCFI288-.Ltext0
 13153 0ed8 4E120000 		.4byte	.LCFI289-.Ltext0
 13154 0edc 0200     		.2byte	0x2
 13155 0ede 7D       		.byte	0x7d
 13156 0edf 18       		.sleb128 24
 13157 0ee0 4E120000 		.4byte	.LCFI289-.Ltext0
 13158 0ee4 78120000 		.4byte	.LCFI290-.Ltext0
 13159 0ee8 0200     		.2byte	0x2
 13160 0eea 77       		.byte	0x77
 13161 0eeb 18       		.sleb128 24
 13162 0eec 78120000 		.4byte	.LCFI290-.Ltext0
 13163 0ef0 7A120000 		.4byte	.LCFI291-.Ltext0
 13164 0ef4 0200     		.2byte	0x2
 13165 0ef6 77       		.byte	0x77
 13166 0ef7 04       		.sleb128 4
 13167 0ef8 7A120000 		.4byte	.LCFI291-.Ltext0
 13168 0efc 7C120000 		.4byte	.LCFI292-.Ltext0
 13169 0f00 0200     		.2byte	0x2
 13170 0f02 7D       		.byte	0x7d
 13171 0f03 04       		.sleb128 4
 13172 0f04 7C120000 		.4byte	.LCFI292-.Ltext0
 13173 0f08 7E120000 		.4byte	.LFE78-.Ltext0
 13174 0f0c 0200     		.2byte	0x2
 13175 0f0e 7D       		.byte	0x7d
 13176 0f0f 00       		.sleb128 0
 13177 0f10 00000000 		.4byte	0
 13178 0f14 00000000 		.4byte	0
 13179              	.LLST48:
ARM GAS  G:\Users\Jaxb\AppData\Local\Temp\ccSQWSCJ.s 			page 284


 13180 0f18 0E120000 		.4byte	.LFB77-.Ltext0
 13181 0f1c 10120000 		.4byte	.LCFI281-.Ltext0
 13182 0f20 0200     		.2byte	0x2
 13183 0f22 7D       		.byte	0x7d
 13184 0f23 00       		.sleb128 0
 13185 0f24 10120000 		.4byte	.LCFI281-.Ltext0
 13186 0f28 12120000 		.4byte	.LCFI282-.Ltext0
 13187 0f2c 0200     		.2byte	0x2
 13188 0f2e 7D       		.byte	0x7d
 13189 0f2f 04       		.sleb128 4
 13190 0f30 12120000 		.4byte	.LCFI282-.Ltext0
 13191 0f34 14120000 		.4byte	.LCFI283-.Ltext0
 13192 0f38 0200     		.2byte	0x2
 13193 0f3a 7D       		.byte	0x7d
 13194 0f3b 18       		.sleb128 24
 13195 0f3c 14120000 		.4byte	.LCFI283-.Ltext0
 13196 0f40 42120000 		.4byte	.LCFI284-.Ltext0
 13197 0f44 0200     		.2byte	0x2
 13198 0f46 77       		.byte	0x77
 13199 0f47 18       		.sleb128 24
 13200 0f48 42120000 		.4byte	.LCFI284-.Ltext0
 13201 0f4c 44120000 		.4byte	.LCFI285-.Ltext0
 13202 0f50 0200     		.2byte	0x2
 13203 0f52 77       		.byte	0x77
 13204 0f53 04       		.sleb128 4
 13205 0f54 44120000 		.4byte	.LCFI285-.Ltext0
 13206 0f58 46120000 		.4byte	.LCFI286-.Ltext0
 13207 0f5c 0200     		.2byte	0x2
 13208 0f5e 7D       		.byte	0x7d
 13209 0f5f 04       		.sleb128 4
 13210 0f60 46120000 		.4byte	.LCFI286-.Ltext0
 13211 0f64 48120000 		.4byte	.LFE77-.Ltext0
 13212 0f68 0200     		.2byte	0x2
 13213 0f6a 7D       		.byte	0x7d
 13214 0f6b 00       		.sleb128 0
 13215 0f6c 00000000 		.4byte	0
 13216 0f70 00000000 		.4byte	0
 13217              	.LLST47:
 13218 0f74 D8110000 		.4byte	.LFB76-.Ltext0
 13219 0f78 DA110000 		.4byte	.LCFI275-.Ltext0
 13220 0f7c 0200     		.2byte	0x2
 13221 0f7e 7D       		.byte	0x7d
 13222 0f7f 00       		.sleb128 0
 13223 0f80 DA110000 		.4byte	.LCFI275-.Ltext0
 13224 0f84 DC110000 		.4byte	.LCFI276-.Ltext0
 13225 0f88 0200     		.2byte	0x2
 13226 0f8a 7D       		.byte	0x7d
 13227 0f8b 04       		.sleb128 4
 13228 0f8c DC110000 		.4byte	.LCFI276-.Ltext0
 13229 0f90 DE110000 		.4byte	.LCFI277-.Ltext0
 13230 0f94 0200     		.2byte	0x2
 13231 0f96 7D       		.byte	0x7d
 13232 0f97 18       		.sleb128 24
 13233 0f98 DE110000 		.4byte	.LCFI277-.Ltext0
 13234 0f9c 08120000 		.4byte	.LCFI278-.Ltext0
 13235 0fa0 0200     		.2byte	0x2
 13236 0fa2 77       		.byte	0x77
ARM GAS  G:\Users\Jaxb\AppData\Local\Temp\ccSQWSCJ.s 			page 285


 13237 0fa3 18       		.sleb128 24
 13238 0fa4 08120000 		.4byte	.LCFI278-.Ltext0
 13239 0fa8 0A120000 		.4byte	.LCFI279-.Ltext0
 13240 0fac 0200     		.2byte	0x2
 13241 0fae 77       		.byte	0x77
 13242 0faf 04       		.sleb128 4
 13243 0fb0 0A120000 		.4byte	.LCFI279-.Ltext0
 13244 0fb4 0C120000 		.4byte	.LCFI280-.Ltext0
 13245 0fb8 0200     		.2byte	0x2
 13246 0fba 7D       		.byte	0x7d
 13247 0fbb 04       		.sleb128 4
 13248 0fbc 0C120000 		.4byte	.LCFI280-.Ltext0
 13249 0fc0 0E120000 		.4byte	.LFE76-.Ltext0
 13250 0fc4 0200     		.2byte	0x2
 13251 0fc6 7D       		.byte	0x7d
 13252 0fc7 00       		.sleb128 0
 13253 0fc8 00000000 		.4byte	0
 13254 0fcc 00000000 		.4byte	0
 13255              	.LLST46:
 13256 0fd0 9E110000 		.4byte	.LFB75-.Ltext0
 13257 0fd4 A0110000 		.4byte	.LCFI269-.Ltext0
 13258 0fd8 0200     		.2byte	0x2
 13259 0fda 7D       		.byte	0x7d
 13260 0fdb 00       		.sleb128 0
 13261 0fdc A0110000 		.4byte	.LCFI269-.Ltext0
 13262 0fe0 A2110000 		.4byte	.LCFI270-.Ltext0
 13263 0fe4 0200     		.2byte	0x2
 13264 0fe6 7D       		.byte	0x7d
 13265 0fe7 04       		.sleb128 4
 13266 0fe8 A2110000 		.4byte	.LCFI270-.Ltext0
 13267 0fec A4110000 		.4byte	.LCFI271-.Ltext0
 13268 0ff0 0200     		.2byte	0x2
 13269 0ff2 7D       		.byte	0x7d
 13270 0ff3 18       		.sleb128 24
 13271 0ff4 A4110000 		.4byte	.LCFI271-.Ltext0
 13272 0ff8 D2110000 		.4byte	.LCFI272-.Ltext0
 13273 0ffc 0200     		.2byte	0x2
 13274 0ffe 77       		.byte	0x77
 13275 0fff 18       		.sleb128 24
 13276 1000 D2110000 		.4byte	.LCFI272-.Ltext0
 13277 1004 D4110000 		.4byte	.LCFI273-.Ltext0
 13278 1008 0200     		.2byte	0x2
 13279 100a 77       		.byte	0x77
 13280 100b 04       		.sleb128 4
 13281 100c D4110000 		.4byte	.LCFI273-.Ltext0
 13282 1010 D6110000 		.4byte	.LCFI274-.Ltext0
 13283 1014 0200     		.2byte	0x2
 13284 1016 7D       		.byte	0x7d
 13285 1017 04       		.sleb128 4
 13286 1018 D6110000 		.4byte	.LCFI274-.Ltext0
 13287 101c D8110000 		.4byte	.LFE75-.Ltext0
 13288 1020 0200     		.2byte	0x2
 13289 1022 7D       		.byte	0x7d
 13290 1023 00       		.sleb128 0
 13291 1024 00000000 		.4byte	0
 13292 1028 00000000 		.4byte	0
 13293              	.LLST45:
ARM GAS  G:\Users\Jaxb\AppData\Local\Temp\ccSQWSCJ.s 			page 286


 13294 102c 68110000 		.4byte	.LFB74-.Ltext0
 13295 1030 6A110000 		.4byte	.LCFI263-.Ltext0
 13296 1034 0200     		.2byte	0x2
 13297 1036 7D       		.byte	0x7d
 13298 1037 00       		.sleb128 0
 13299 1038 6A110000 		.4byte	.LCFI263-.Ltext0
 13300 103c 6C110000 		.4byte	.LCFI264-.Ltext0
 13301 1040 0200     		.2byte	0x2
 13302 1042 7D       		.byte	0x7d
 13303 1043 04       		.sleb128 4
 13304 1044 6C110000 		.4byte	.LCFI264-.Ltext0
 13305 1048 6E110000 		.4byte	.LCFI265-.Ltext0
 13306 104c 0200     		.2byte	0x2
 13307 104e 7D       		.byte	0x7d
 13308 104f 18       		.sleb128 24
 13309 1050 6E110000 		.4byte	.LCFI265-.Ltext0
 13310 1054 98110000 		.4byte	.LCFI266-.Ltext0
 13311 1058 0200     		.2byte	0x2
 13312 105a 77       		.byte	0x77
 13313 105b 18       		.sleb128 24
 13314 105c 98110000 		.4byte	.LCFI266-.Ltext0
 13315 1060 9A110000 		.4byte	.LCFI267-.Ltext0
 13316 1064 0200     		.2byte	0x2
 13317 1066 77       		.byte	0x77
 13318 1067 04       		.sleb128 4
 13319 1068 9A110000 		.4byte	.LCFI267-.Ltext0
 13320 106c 9C110000 		.4byte	.LCFI268-.Ltext0
 13321 1070 0200     		.2byte	0x2
 13322 1072 7D       		.byte	0x7d
 13323 1073 04       		.sleb128 4
 13324 1074 9C110000 		.4byte	.LCFI268-.Ltext0
 13325 1078 9E110000 		.4byte	.LFE74-.Ltext0
 13326 107c 0200     		.2byte	0x2
 13327 107e 7D       		.byte	0x7d
 13328 107f 00       		.sleb128 0
 13329 1080 00000000 		.4byte	0
 13330 1084 00000000 		.4byte	0
 13331              	.LLST44:
 13332 1088 2E110000 		.4byte	.LFB73-.Ltext0
 13333 108c 30110000 		.4byte	.LCFI257-.Ltext0
 13334 1090 0200     		.2byte	0x2
 13335 1092 7D       		.byte	0x7d
 13336 1093 00       		.sleb128 0
 13337 1094 30110000 		.4byte	.LCFI257-.Ltext0
 13338 1098 32110000 		.4byte	.LCFI258-.Ltext0
 13339 109c 0200     		.2byte	0x2
 13340 109e 7D       		.byte	0x7d
 13341 109f 04       		.sleb128 4
 13342 10a0 32110000 		.4byte	.LCFI258-.Ltext0
 13343 10a4 34110000 		.4byte	.LCFI259-.Ltext0
 13344 10a8 0200     		.2byte	0x2
 13345 10aa 7D       		.byte	0x7d
 13346 10ab 18       		.sleb128 24
 13347 10ac 34110000 		.4byte	.LCFI259-.Ltext0
 13348 10b0 62110000 		.4byte	.LCFI260-.Ltext0
 13349 10b4 0200     		.2byte	0x2
 13350 10b6 77       		.byte	0x77
ARM GAS  G:\Users\Jaxb\AppData\Local\Temp\ccSQWSCJ.s 			page 287


 13351 10b7 18       		.sleb128 24
 13352 10b8 62110000 		.4byte	.LCFI260-.Ltext0
 13353 10bc 64110000 		.4byte	.LCFI261-.Ltext0
 13354 10c0 0200     		.2byte	0x2
 13355 10c2 77       		.byte	0x77
 13356 10c3 04       		.sleb128 4
 13357 10c4 64110000 		.4byte	.LCFI261-.Ltext0
 13358 10c8 66110000 		.4byte	.LCFI262-.Ltext0
 13359 10cc 0200     		.2byte	0x2
 13360 10ce 7D       		.byte	0x7d
 13361 10cf 04       		.sleb128 4
 13362 10d0 66110000 		.4byte	.LCFI262-.Ltext0
 13363 10d4 68110000 		.4byte	.LFE73-.Ltext0
 13364 10d8 0200     		.2byte	0x2
 13365 10da 7D       		.byte	0x7d
 13366 10db 00       		.sleb128 0
 13367 10dc 00000000 		.4byte	0
 13368 10e0 00000000 		.4byte	0
 13369              	.LLST43:
 13370 10e4 F8100000 		.4byte	.LFB72-.Ltext0
 13371 10e8 FA100000 		.4byte	.LCFI251-.Ltext0
 13372 10ec 0200     		.2byte	0x2
 13373 10ee 7D       		.byte	0x7d
 13374 10ef 00       		.sleb128 0
 13375 10f0 FA100000 		.4byte	.LCFI251-.Ltext0
 13376 10f4 FC100000 		.4byte	.LCFI252-.Ltext0
 13377 10f8 0200     		.2byte	0x2
 13378 10fa 7D       		.byte	0x7d
 13379 10fb 04       		.sleb128 4
 13380 10fc FC100000 		.4byte	.LCFI252-.Ltext0
 13381 1100 FE100000 		.4byte	.LCFI253-.Ltext0
 13382 1104 0200     		.2byte	0x2
 13383 1106 7D       		.byte	0x7d
 13384 1107 18       		.sleb128 24
 13385 1108 FE100000 		.4byte	.LCFI253-.Ltext0
 13386 110c 28110000 		.4byte	.LCFI254-.Ltext0
 13387 1110 0200     		.2byte	0x2
 13388 1112 77       		.byte	0x77
 13389 1113 18       		.sleb128 24
 13390 1114 28110000 		.4byte	.LCFI254-.Ltext0
 13391 1118 2A110000 		.4byte	.LCFI255-.Ltext0
 13392 111c 0200     		.2byte	0x2
 13393 111e 77       		.byte	0x77
 13394 111f 04       		.sleb128 4
 13395 1120 2A110000 		.4byte	.LCFI255-.Ltext0
 13396 1124 2C110000 		.4byte	.LCFI256-.Ltext0
 13397 1128 0200     		.2byte	0x2
 13398 112a 7D       		.byte	0x7d
 13399 112b 04       		.sleb128 4
 13400 112c 2C110000 		.4byte	.LCFI256-.Ltext0
 13401 1130 2E110000 		.4byte	.LFE72-.Ltext0
 13402 1134 0200     		.2byte	0x2
 13403 1136 7D       		.byte	0x7d
 13404 1137 00       		.sleb128 0
 13405 1138 00000000 		.4byte	0
 13406 113c 00000000 		.4byte	0
 13407              	.LLST42:
ARM GAS  G:\Users\Jaxb\AppData\Local\Temp\ccSQWSCJ.s 			page 288


 13408 1140 BE100000 		.4byte	.LFB71-.Ltext0
 13409 1144 C0100000 		.4byte	.LCFI245-.Ltext0
 13410 1148 0200     		.2byte	0x2
 13411 114a 7D       		.byte	0x7d
 13412 114b 00       		.sleb128 0
 13413 114c C0100000 		.4byte	.LCFI245-.Ltext0
 13414 1150 C2100000 		.4byte	.LCFI246-.Ltext0
 13415 1154 0200     		.2byte	0x2
 13416 1156 7D       		.byte	0x7d
 13417 1157 04       		.sleb128 4
 13418 1158 C2100000 		.4byte	.LCFI246-.Ltext0
 13419 115c C4100000 		.4byte	.LCFI247-.Ltext0
 13420 1160 0200     		.2byte	0x2
 13421 1162 7D       		.byte	0x7d
 13422 1163 18       		.sleb128 24
 13423 1164 C4100000 		.4byte	.LCFI247-.Ltext0
 13424 1168 F2100000 		.4byte	.LCFI248-.Ltext0
 13425 116c 0200     		.2byte	0x2
 13426 116e 77       		.byte	0x77
 13427 116f 18       		.sleb128 24
 13428 1170 F2100000 		.4byte	.LCFI248-.Ltext0
 13429 1174 F4100000 		.4byte	.LCFI249-.Ltext0
 13430 1178 0200     		.2byte	0x2
 13431 117a 77       		.byte	0x77
 13432 117b 04       		.sleb128 4
 13433 117c F4100000 		.4byte	.LCFI249-.Ltext0
 13434 1180 F6100000 		.4byte	.LCFI250-.Ltext0
 13435 1184 0200     		.2byte	0x2
 13436 1186 7D       		.byte	0x7d
 13437 1187 04       		.sleb128 4
 13438 1188 F6100000 		.4byte	.LCFI250-.Ltext0
 13439 118c F8100000 		.4byte	.LFE71-.Ltext0
 13440 1190 0200     		.2byte	0x2
 13441 1192 7D       		.byte	0x7d
 13442 1193 00       		.sleb128 0
 13443 1194 00000000 		.4byte	0
 13444 1198 00000000 		.4byte	0
 13445              	.LLST41:
 13446 119c 88100000 		.4byte	.LFB70-.Ltext0
 13447 11a0 8A100000 		.4byte	.LCFI239-.Ltext0
 13448 11a4 0200     		.2byte	0x2
 13449 11a6 7D       		.byte	0x7d
 13450 11a7 00       		.sleb128 0
 13451 11a8 8A100000 		.4byte	.LCFI239-.Ltext0
 13452 11ac 8C100000 		.4byte	.LCFI240-.Ltext0
 13453 11b0 0200     		.2byte	0x2
 13454 11b2 7D       		.byte	0x7d
 13455 11b3 04       		.sleb128 4
 13456 11b4 8C100000 		.4byte	.LCFI240-.Ltext0
 13457 11b8 8E100000 		.4byte	.LCFI241-.Ltext0
 13458 11bc 0200     		.2byte	0x2
 13459 11be 7D       		.byte	0x7d
 13460 11bf 18       		.sleb128 24
 13461 11c0 8E100000 		.4byte	.LCFI241-.Ltext0
 13462 11c4 B8100000 		.4byte	.LCFI242-.Ltext0
 13463 11c8 0200     		.2byte	0x2
 13464 11ca 77       		.byte	0x77
ARM GAS  G:\Users\Jaxb\AppData\Local\Temp\ccSQWSCJ.s 			page 289


 13465 11cb 18       		.sleb128 24
 13466 11cc B8100000 		.4byte	.LCFI242-.Ltext0
 13467 11d0 BA100000 		.4byte	.LCFI243-.Ltext0
 13468 11d4 0200     		.2byte	0x2
 13469 11d6 77       		.byte	0x77
 13470 11d7 04       		.sleb128 4
 13471 11d8 BA100000 		.4byte	.LCFI243-.Ltext0
 13472 11dc BC100000 		.4byte	.LCFI244-.Ltext0
 13473 11e0 0200     		.2byte	0x2
 13474 11e2 7D       		.byte	0x7d
 13475 11e3 04       		.sleb128 4
 13476 11e4 BC100000 		.4byte	.LCFI244-.Ltext0
 13477 11e8 BE100000 		.4byte	.LFE70-.Ltext0
 13478 11ec 0200     		.2byte	0x2
 13479 11ee 7D       		.byte	0x7d
 13480 11ef 00       		.sleb128 0
 13481 11f0 00000000 		.4byte	0
 13482 11f4 00000000 		.4byte	0
 13483              	.LLST40:
 13484 11f8 4E100000 		.4byte	.LFB69-.Ltext0
 13485 11fc 50100000 		.4byte	.LCFI233-.Ltext0
 13486 1200 0200     		.2byte	0x2
 13487 1202 7D       		.byte	0x7d
 13488 1203 00       		.sleb128 0
 13489 1204 50100000 		.4byte	.LCFI233-.Ltext0
 13490 1208 52100000 		.4byte	.LCFI234-.Ltext0
 13491 120c 0200     		.2byte	0x2
 13492 120e 7D       		.byte	0x7d
 13493 120f 04       		.sleb128 4
 13494 1210 52100000 		.4byte	.LCFI234-.Ltext0
 13495 1214 54100000 		.4byte	.LCFI235-.Ltext0
 13496 1218 0200     		.2byte	0x2
 13497 121a 7D       		.byte	0x7d
 13498 121b 18       		.sleb128 24
 13499 121c 54100000 		.4byte	.LCFI235-.Ltext0
 13500 1220 82100000 		.4byte	.LCFI236-.Ltext0
 13501 1224 0200     		.2byte	0x2
 13502 1226 77       		.byte	0x77
 13503 1227 18       		.sleb128 24
 13504 1228 82100000 		.4byte	.LCFI236-.Ltext0
 13505 122c 84100000 		.4byte	.LCFI237-.Ltext0
 13506 1230 0200     		.2byte	0x2
 13507 1232 77       		.byte	0x77
 13508 1233 04       		.sleb128 4
 13509 1234 84100000 		.4byte	.LCFI237-.Ltext0
 13510 1238 86100000 		.4byte	.LCFI238-.Ltext0
 13511 123c 0200     		.2byte	0x2
 13512 123e 7D       		.byte	0x7d
 13513 123f 04       		.sleb128 4
 13514 1240 86100000 		.4byte	.LCFI238-.Ltext0
 13515 1244 88100000 		.4byte	.LFE69-.Ltext0
 13516 1248 0200     		.2byte	0x2
 13517 124a 7D       		.byte	0x7d
 13518 124b 00       		.sleb128 0
 13519 124c 00000000 		.4byte	0
 13520 1250 00000000 		.4byte	0
 13521              	.LLST39:
ARM GAS  G:\Users\Jaxb\AppData\Local\Temp\ccSQWSCJ.s 			page 290


 13522 1254 18100000 		.4byte	.LFB68-.Ltext0
 13523 1258 1A100000 		.4byte	.LCFI227-.Ltext0
 13524 125c 0200     		.2byte	0x2
 13525 125e 7D       		.byte	0x7d
 13526 125f 00       		.sleb128 0
 13527 1260 1A100000 		.4byte	.LCFI227-.Ltext0
 13528 1264 1C100000 		.4byte	.LCFI228-.Ltext0
 13529 1268 0200     		.2byte	0x2
 13530 126a 7D       		.byte	0x7d
 13531 126b 04       		.sleb128 4
 13532 126c 1C100000 		.4byte	.LCFI228-.Ltext0
 13533 1270 1E100000 		.4byte	.LCFI229-.Ltext0
 13534 1274 0200     		.2byte	0x2
 13535 1276 7D       		.byte	0x7d
 13536 1277 18       		.sleb128 24
 13537 1278 1E100000 		.4byte	.LCFI229-.Ltext0
 13538 127c 48100000 		.4byte	.LCFI230-.Ltext0
 13539 1280 0200     		.2byte	0x2
 13540 1282 77       		.byte	0x77
 13541 1283 18       		.sleb128 24
 13542 1284 48100000 		.4byte	.LCFI230-.Ltext0
 13543 1288 4A100000 		.4byte	.LCFI231-.Ltext0
 13544 128c 0200     		.2byte	0x2
 13545 128e 77       		.byte	0x77
 13546 128f 04       		.sleb128 4
 13547 1290 4A100000 		.4byte	.LCFI231-.Ltext0
 13548 1294 4C100000 		.4byte	.LCFI232-.Ltext0
 13549 1298 0200     		.2byte	0x2
 13550 129a 7D       		.byte	0x7d
 13551 129b 04       		.sleb128 4
 13552 129c 4C100000 		.4byte	.LCFI232-.Ltext0
 13553 12a0 4E100000 		.4byte	.LFE68-.Ltext0
 13554 12a4 0200     		.2byte	0x2
 13555 12a6 7D       		.byte	0x7d
 13556 12a7 00       		.sleb128 0
 13557 12a8 00000000 		.4byte	0
 13558 12ac 00000000 		.4byte	0
 13559              	.LLST38:
 13560 12b0 DE0F0000 		.4byte	.LFB67-.Ltext0
 13561 12b4 E00F0000 		.4byte	.LCFI221-.Ltext0
 13562 12b8 0200     		.2byte	0x2
 13563 12ba 7D       		.byte	0x7d
 13564 12bb 00       		.sleb128 0
 13565 12bc E00F0000 		.4byte	.LCFI221-.Ltext0
 13566 12c0 E20F0000 		.4byte	.LCFI222-.Ltext0
 13567 12c4 0200     		.2byte	0x2
 13568 12c6 7D       		.byte	0x7d
 13569 12c7 04       		.sleb128 4
 13570 12c8 E20F0000 		.4byte	.LCFI222-.Ltext0
 13571 12cc E40F0000 		.4byte	.LCFI223-.Ltext0
 13572 12d0 0200     		.2byte	0x2
 13573 12d2 7D       		.byte	0x7d
 13574 12d3 18       		.sleb128 24
 13575 12d4 E40F0000 		.4byte	.LCFI223-.Ltext0
 13576 12d8 12100000 		.4byte	.LCFI224-.Ltext0
 13577 12dc 0200     		.2byte	0x2
 13578 12de 77       		.byte	0x77
ARM GAS  G:\Users\Jaxb\AppData\Local\Temp\ccSQWSCJ.s 			page 291


 13579 12df 18       		.sleb128 24
 13580 12e0 12100000 		.4byte	.LCFI224-.Ltext0
 13581 12e4 14100000 		.4byte	.LCFI225-.Ltext0
 13582 12e8 0200     		.2byte	0x2
 13583 12ea 77       		.byte	0x77
 13584 12eb 04       		.sleb128 4
 13585 12ec 14100000 		.4byte	.LCFI225-.Ltext0
 13586 12f0 16100000 		.4byte	.LCFI226-.Ltext0
 13587 12f4 0200     		.2byte	0x2
 13588 12f6 7D       		.byte	0x7d
 13589 12f7 04       		.sleb128 4
 13590 12f8 16100000 		.4byte	.LCFI226-.Ltext0
 13591 12fc 18100000 		.4byte	.LFE67-.Ltext0
 13592 1300 0200     		.2byte	0x2
 13593 1302 7D       		.byte	0x7d
 13594 1303 00       		.sleb128 0
 13595 1304 00000000 		.4byte	0
 13596 1308 00000000 		.4byte	0
 13597              	.LLST37:
 13598 130c A80F0000 		.4byte	.LFB66-.Ltext0
 13599 1310 AA0F0000 		.4byte	.LCFI215-.Ltext0
 13600 1314 0200     		.2byte	0x2
 13601 1316 7D       		.byte	0x7d
 13602 1317 00       		.sleb128 0
 13603 1318 AA0F0000 		.4byte	.LCFI215-.Ltext0
 13604 131c AC0F0000 		.4byte	.LCFI216-.Ltext0
 13605 1320 0200     		.2byte	0x2
 13606 1322 7D       		.byte	0x7d
 13607 1323 04       		.sleb128 4
 13608 1324 AC0F0000 		.4byte	.LCFI216-.Ltext0
 13609 1328 AE0F0000 		.4byte	.LCFI217-.Ltext0
 13610 132c 0200     		.2byte	0x2
 13611 132e 7D       		.byte	0x7d
 13612 132f 18       		.sleb128 24
 13613 1330 AE0F0000 		.4byte	.LCFI217-.Ltext0
 13614 1334 D80F0000 		.4byte	.LCFI218-.Ltext0
 13615 1338 0200     		.2byte	0x2
 13616 133a 77       		.byte	0x77
 13617 133b 18       		.sleb128 24
 13618 133c D80F0000 		.4byte	.LCFI218-.Ltext0
 13619 1340 DA0F0000 		.4byte	.LCFI219-.Ltext0
 13620 1344 0200     		.2byte	0x2
 13621 1346 77       		.byte	0x77
 13622 1347 04       		.sleb128 4
 13623 1348 DA0F0000 		.4byte	.LCFI219-.Ltext0
 13624 134c DC0F0000 		.4byte	.LCFI220-.Ltext0
 13625 1350 0200     		.2byte	0x2
 13626 1352 7D       		.byte	0x7d
 13627 1353 04       		.sleb128 4
 13628 1354 DC0F0000 		.4byte	.LCFI220-.Ltext0
 13629 1358 DE0F0000 		.4byte	.LFE66-.Ltext0
 13630 135c 0200     		.2byte	0x2
 13631 135e 7D       		.byte	0x7d
 13632 135f 00       		.sleb128 0
 13633 1360 00000000 		.4byte	0
 13634 1364 00000000 		.4byte	0
 13635              	.LLST36:
ARM GAS  G:\Users\Jaxb\AppData\Local\Temp\ccSQWSCJ.s 			page 292


 13636 1368 6A0F0000 		.4byte	.LFB65-.Ltext0
 13637 136c 6C0F0000 		.4byte	.LCFI209-.Ltext0
 13638 1370 0200     		.2byte	0x2
 13639 1372 7D       		.byte	0x7d
 13640 1373 00       		.sleb128 0
 13641 1374 6C0F0000 		.4byte	.LCFI209-.Ltext0
 13642 1378 6E0F0000 		.4byte	.LCFI210-.Ltext0
 13643 137c 0200     		.2byte	0x2
 13644 137e 7D       		.byte	0x7d
 13645 137f 04       		.sleb128 4
 13646 1380 6E0F0000 		.4byte	.LCFI210-.Ltext0
 13647 1384 700F0000 		.4byte	.LCFI211-.Ltext0
 13648 1388 0200     		.2byte	0x2
 13649 138a 7D       		.byte	0x7d
 13650 138b 10       		.sleb128 16
 13651 138c 700F0000 		.4byte	.LCFI211-.Ltext0
 13652 1390 A20F0000 		.4byte	.LCFI212-.Ltext0
 13653 1394 0200     		.2byte	0x2
 13654 1396 77       		.byte	0x77
 13655 1397 10       		.sleb128 16
 13656 1398 A20F0000 		.4byte	.LCFI212-.Ltext0
 13657 139c A40F0000 		.4byte	.LCFI213-.Ltext0
 13658 13a0 0200     		.2byte	0x2
 13659 13a2 77       		.byte	0x77
 13660 13a3 04       		.sleb128 4
 13661 13a4 A40F0000 		.4byte	.LCFI213-.Ltext0
 13662 13a8 A60F0000 		.4byte	.LCFI214-.Ltext0
 13663 13ac 0200     		.2byte	0x2
 13664 13ae 7D       		.byte	0x7d
 13665 13af 04       		.sleb128 4
 13666 13b0 A60F0000 		.4byte	.LCFI214-.Ltext0
 13667 13b4 A80F0000 		.4byte	.LFE65-.Ltext0
 13668 13b8 0200     		.2byte	0x2
 13669 13ba 7D       		.byte	0x7d
 13670 13bb 00       		.sleb128 0
 13671 13bc 00000000 		.4byte	0
 13672 13c0 00000000 		.4byte	0
 13673              	.LLST35:
 13674 13c4 2C0F0000 		.4byte	.LFB64-.Ltext0
 13675 13c8 2E0F0000 		.4byte	.LCFI203-.Ltext0
 13676 13cc 0200     		.2byte	0x2
 13677 13ce 7D       		.byte	0x7d
 13678 13cf 00       		.sleb128 0
 13679 13d0 2E0F0000 		.4byte	.LCFI203-.Ltext0
 13680 13d4 300F0000 		.4byte	.LCFI204-.Ltext0
 13681 13d8 0200     		.2byte	0x2
 13682 13da 7D       		.byte	0x7d
 13683 13db 04       		.sleb128 4
 13684 13dc 300F0000 		.4byte	.LCFI204-.Ltext0
 13685 13e0 320F0000 		.4byte	.LCFI205-.Ltext0
 13686 13e4 0200     		.2byte	0x2
 13687 13e6 7D       		.byte	0x7d
 13688 13e7 10       		.sleb128 16
 13689 13e8 320F0000 		.4byte	.LCFI205-.Ltext0
 13690 13ec 640F0000 		.4byte	.LCFI206-.Ltext0
 13691 13f0 0200     		.2byte	0x2
 13692 13f2 77       		.byte	0x77
ARM GAS  G:\Users\Jaxb\AppData\Local\Temp\ccSQWSCJ.s 			page 293


 13693 13f3 10       		.sleb128 16
 13694 13f4 640F0000 		.4byte	.LCFI206-.Ltext0
 13695 13f8 660F0000 		.4byte	.LCFI207-.Ltext0
 13696 13fc 0200     		.2byte	0x2
 13697 13fe 77       		.byte	0x77
 13698 13ff 04       		.sleb128 4
 13699 1400 660F0000 		.4byte	.LCFI207-.Ltext0
 13700 1404 680F0000 		.4byte	.LCFI208-.Ltext0
 13701 1408 0200     		.2byte	0x2
 13702 140a 7D       		.byte	0x7d
 13703 140b 04       		.sleb128 4
 13704 140c 680F0000 		.4byte	.LCFI208-.Ltext0
 13705 1410 6A0F0000 		.4byte	.LFE64-.Ltext0
 13706 1414 0200     		.2byte	0x2
 13707 1416 7D       		.byte	0x7d
 13708 1417 00       		.sleb128 0
 13709 1418 00000000 		.4byte	0
 13710 141c 00000000 		.4byte	0
 13711              	.LLST34:
 13712 1420 EE0E0000 		.4byte	.LFB63-.Ltext0
 13713 1424 F00E0000 		.4byte	.LCFI197-.Ltext0
 13714 1428 0200     		.2byte	0x2
 13715 142a 7D       		.byte	0x7d
 13716 142b 00       		.sleb128 0
 13717 142c F00E0000 		.4byte	.LCFI197-.Ltext0
 13718 1430 F20E0000 		.4byte	.LCFI198-.Ltext0
 13719 1434 0200     		.2byte	0x2
 13720 1436 7D       		.byte	0x7d
 13721 1437 04       		.sleb128 4
 13722 1438 F20E0000 		.4byte	.LCFI198-.Ltext0
 13723 143c F40E0000 		.4byte	.LCFI199-.Ltext0
 13724 1440 0200     		.2byte	0x2
 13725 1442 7D       		.byte	0x7d
 13726 1443 10       		.sleb128 16
 13727 1444 F40E0000 		.4byte	.LCFI199-.Ltext0
 13728 1448 260F0000 		.4byte	.LCFI200-.Ltext0
 13729 144c 0200     		.2byte	0x2
 13730 144e 77       		.byte	0x77
 13731 144f 10       		.sleb128 16
 13732 1450 260F0000 		.4byte	.LCFI200-.Ltext0
 13733 1454 280F0000 		.4byte	.LCFI201-.Ltext0
 13734 1458 0200     		.2byte	0x2
 13735 145a 77       		.byte	0x77
 13736 145b 04       		.sleb128 4
 13737 145c 280F0000 		.4byte	.LCFI201-.Ltext0
 13738 1460 2A0F0000 		.4byte	.LCFI202-.Ltext0
 13739 1464 0200     		.2byte	0x2
 13740 1466 7D       		.byte	0x7d
 13741 1467 04       		.sleb128 4
 13742 1468 2A0F0000 		.4byte	.LCFI202-.Ltext0
 13743 146c 2C0F0000 		.4byte	.LFE63-.Ltext0
 13744 1470 0200     		.2byte	0x2
 13745 1472 7D       		.byte	0x7d
 13746 1473 00       		.sleb128 0
 13747 1474 00000000 		.4byte	0
 13748 1478 00000000 		.4byte	0
 13749              	.LLST33:
ARM GAS  G:\Users\Jaxb\AppData\Local\Temp\ccSQWSCJ.s 			page 294


 13750 147c B00E0000 		.4byte	.LFB62-.Ltext0
 13751 1480 B20E0000 		.4byte	.LCFI191-.Ltext0
 13752 1484 0200     		.2byte	0x2
 13753 1486 7D       		.byte	0x7d
 13754 1487 00       		.sleb128 0
 13755 1488 B20E0000 		.4byte	.LCFI191-.Ltext0
 13756 148c B40E0000 		.4byte	.LCFI192-.Ltext0
 13757 1490 0200     		.2byte	0x2
 13758 1492 7D       		.byte	0x7d
 13759 1493 04       		.sleb128 4
 13760 1494 B40E0000 		.4byte	.LCFI192-.Ltext0
 13761 1498 B60E0000 		.4byte	.LCFI193-.Ltext0
 13762 149c 0200     		.2byte	0x2
 13763 149e 7D       		.byte	0x7d
 13764 149f 10       		.sleb128 16
 13765 14a0 B60E0000 		.4byte	.LCFI193-.Ltext0
 13766 14a4 E80E0000 		.4byte	.LCFI194-.Ltext0
 13767 14a8 0200     		.2byte	0x2
 13768 14aa 77       		.byte	0x77
 13769 14ab 10       		.sleb128 16
 13770 14ac E80E0000 		.4byte	.LCFI194-.Ltext0
 13771 14b0 EA0E0000 		.4byte	.LCFI195-.Ltext0
 13772 14b4 0200     		.2byte	0x2
 13773 14b6 77       		.byte	0x77
 13774 14b7 04       		.sleb128 4
 13775 14b8 EA0E0000 		.4byte	.LCFI195-.Ltext0
 13776 14bc EC0E0000 		.4byte	.LCFI196-.Ltext0
 13777 14c0 0200     		.2byte	0x2
 13778 14c2 7D       		.byte	0x7d
 13779 14c3 04       		.sleb128 4
 13780 14c4 EC0E0000 		.4byte	.LCFI196-.Ltext0
 13781 14c8 EE0E0000 		.4byte	.LFE62-.Ltext0
 13782 14cc 0200     		.2byte	0x2
 13783 14ce 7D       		.byte	0x7d
 13784 14cf 00       		.sleb128 0
 13785 14d0 00000000 		.4byte	0
 13786 14d4 00000000 		.4byte	0
 13787              	.LLST32:
 13788 14d8 760E0000 		.4byte	.LFB61-.Ltext0
 13789 14dc 780E0000 		.4byte	.LCFI185-.Ltext0
 13790 14e0 0200     		.2byte	0x2
 13791 14e2 7D       		.byte	0x7d
 13792 14e3 00       		.sleb128 0
 13793 14e4 780E0000 		.4byte	.LCFI185-.Ltext0
 13794 14e8 7A0E0000 		.4byte	.LCFI186-.Ltext0
 13795 14ec 0200     		.2byte	0x2
 13796 14ee 7D       		.byte	0x7d
 13797 14ef 04       		.sleb128 4
 13798 14f0 7A0E0000 		.4byte	.LCFI186-.Ltext0
 13799 14f4 7C0E0000 		.4byte	.LCFI187-.Ltext0
 13800 14f8 0200     		.2byte	0x2
 13801 14fa 7D       		.byte	0x7d
 13802 14fb 18       		.sleb128 24
 13803 14fc 7C0E0000 		.4byte	.LCFI187-.Ltext0
 13804 1500 AA0E0000 		.4byte	.LCFI188-.Ltext0
 13805 1504 0200     		.2byte	0x2
 13806 1506 77       		.byte	0x77
ARM GAS  G:\Users\Jaxb\AppData\Local\Temp\ccSQWSCJ.s 			page 295


 13807 1507 18       		.sleb128 24
 13808 1508 AA0E0000 		.4byte	.LCFI188-.Ltext0
 13809 150c AC0E0000 		.4byte	.LCFI189-.Ltext0
 13810 1510 0200     		.2byte	0x2
 13811 1512 77       		.byte	0x77
 13812 1513 04       		.sleb128 4
 13813 1514 AC0E0000 		.4byte	.LCFI189-.Ltext0
 13814 1518 AE0E0000 		.4byte	.LCFI190-.Ltext0
 13815 151c 0200     		.2byte	0x2
 13816 151e 7D       		.byte	0x7d
 13817 151f 04       		.sleb128 4
 13818 1520 AE0E0000 		.4byte	.LCFI190-.Ltext0
 13819 1524 B00E0000 		.4byte	.LFE61-.Ltext0
 13820 1528 0200     		.2byte	0x2
 13821 152a 7D       		.byte	0x7d
 13822 152b 00       		.sleb128 0
 13823 152c 00000000 		.4byte	0
 13824 1530 00000000 		.4byte	0
 13825              	.LLST31:
 13826 1534 400E0000 		.4byte	.LFB60-.Ltext0
 13827 1538 420E0000 		.4byte	.LCFI179-.Ltext0
 13828 153c 0200     		.2byte	0x2
 13829 153e 7D       		.byte	0x7d
 13830 153f 00       		.sleb128 0
 13831 1540 420E0000 		.4byte	.LCFI179-.Ltext0
 13832 1544 440E0000 		.4byte	.LCFI180-.Ltext0
 13833 1548 0200     		.2byte	0x2
 13834 154a 7D       		.byte	0x7d
 13835 154b 04       		.sleb128 4
 13836 154c 440E0000 		.4byte	.LCFI180-.Ltext0
 13837 1550 460E0000 		.4byte	.LCFI181-.Ltext0
 13838 1554 0200     		.2byte	0x2
 13839 1556 7D       		.byte	0x7d
 13840 1557 18       		.sleb128 24
 13841 1558 460E0000 		.4byte	.LCFI181-.Ltext0
 13842 155c 700E0000 		.4byte	.LCFI182-.Ltext0
 13843 1560 0200     		.2byte	0x2
 13844 1562 77       		.byte	0x77
 13845 1563 18       		.sleb128 24
 13846 1564 700E0000 		.4byte	.LCFI182-.Ltext0
 13847 1568 720E0000 		.4byte	.LCFI183-.Ltext0
 13848 156c 0200     		.2byte	0x2
 13849 156e 77       		.byte	0x77
 13850 156f 04       		.sleb128 4
 13851 1570 720E0000 		.4byte	.LCFI183-.Ltext0
 13852 1574 740E0000 		.4byte	.LCFI184-.Ltext0
 13853 1578 0200     		.2byte	0x2
 13854 157a 7D       		.byte	0x7d
 13855 157b 04       		.sleb128 4
 13856 157c 740E0000 		.4byte	.LCFI184-.Ltext0
 13857 1580 760E0000 		.4byte	.LFE60-.Ltext0
 13858 1584 0200     		.2byte	0x2
 13859 1586 7D       		.byte	0x7d
 13860 1587 00       		.sleb128 0
 13861 1588 00000000 		.4byte	0
 13862 158c 00000000 		.4byte	0
 13863              	.LLST30:
ARM GAS  G:\Users\Jaxb\AppData\Local\Temp\ccSQWSCJ.s 			page 296


 13864 1590 060E0000 		.4byte	.LFB59-.Ltext0
 13865 1594 080E0000 		.4byte	.LCFI173-.Ltext0
 13866 1598 0200     		.2byte	0x2
 13867 159a 7D       		.byte	0x7d
 13868 159b 00       		.sleb128 0
 13869 159c 080E0000 		.4byte	.LCFI173-.Ltext0
 13870 15a0 0A0E0000 		.4byte	.LCFI174-.Ltext0
 13871 15a4 0200     		.2byte	0x2
 13872 15a6 7D       		.byte	0x7d
 13873 15a7 04       		.sleb128 4
 13874 15a8 0A0E0000 		.4byte	.LCFI174-.Ltext0
 13875 15ac 0C0E0000 		.4byte	.LCFI175-.Ltext0
 13876 15b0 0200     		.2byte	0x2
 13877 15b2 7D       		.byte	0x7d
 13878 15b3 18       		.sleb128 24
 13879 15b4 0C0E0000 		.4byte	.LCFI175-.Ltext0
 13880 15b8 3A0E0000 		.4byte	.LCFI176-.Ltext0
 13881 15bc 0200     		.2byte	0x2
 13882 15be 77       		.byte	0x77
 13883 15bf 18       		.sleb128 24
 13884 15c0 3A0E0000 		.4byte	.LCFI176-.Ltext0
 13885 15c4 3C0E0000 		.4byte	.LCFI177-.Ltext0
 13886 15c8 0200     		.2byte	0x2
 13887 15ca 77       		.byte	0x77
 13888 15cb 04       		.sleb128 4
 13889 15cc 3C0E0000 		.4byte	.LCFI177-.Ltext0
 13890 15d0 3E0E0000 		.4byte	.LCFI178-.Ltext0
 13891 15d4 0200     		.2byte	0x2
 13892 15d6 7D       		.byte	0x7d
 13893 15d7 04       		.sleb128 4
 13894 15d8 3E0E0000 		.4byte	.LCFI178-.Ltext0
 13895 15dc 400E0000 		.4byte	.LFE59-.Ltext0
 13896 15e0 0200     		.2byte	0x2
 13897 15e2 7D       		.byte	0x7d
 13898 15e3 00       		.sleb128 0
 13899 15e4 00000000 		.4byte	0
 13900 15e8 00000000 		.4byte	0
 13901              	.LLST29:
 13902 15ec D00D0000 		.4byte	.LFB58-.Ltext0
 13903 15f0 D20D0000 		.4byte	.LCFI167-.Ltext0
 13904 15f4 0200     		.2byte	0x2
 13905 15f6 7D       		.byte	0x7d
 13906 15f7 00       		.sleb128 0
 13907 15f8 D20D0000 		.4byte	.LCFI167-.Ltext0
 13908 15fc D40D0000 		.4byte	.LCFI168-.Ltext0
 13909 1600 0200     		.2byte	0x2
 13910 1602 7D       		.byte	0x7d
 13911 1603 04       		.sleb128 4
 13912 1604 D40D0000 		.4byte	.LCFI168-.Ltext0
 13913 1608 D60D0000 		.4byte	.LCFI169-.Ltext0
 13914 160c 0200     		.2byte	0x2
 13915 160e 7D       		.byte	0x7d
 13916 160f 18       		.sleb128 24
 13917 1610 D60D0000 		.4byte	.LCFI169-.Ltext0
 13918 1614 000E0000 		.4byte	.LCFI170-.Ltext0
 13919 1618 0200     		.2byte	0x2
 13920 161a 77       		.byte	0x77
ARM GAS  G:\Users\Jaxb\AppData\Local\Temp\ccSQWSCJ.s 			page 297


 13921 161b 18       		.sleb128 24
 13922 161c 000E0000 		.4byte	.LCFI170-.Ltext0
 13923 1620 020E0000 		.4byte	.LCFI171-.Ltext0
 13924 1624 0200     		.2byte	0x2
 13925 1626 77       		.byte	0x77
 13926 1627 04       		.sleb128 4
 13927 1628 020E0000 		.4byte	.LCFI171-.Ltext0
 13928 162c 040E0000 		.4byte	.LCFI172-.Ltext0
 13929 1630 0200     		.2byte	0x2
 13930 1632 7D       		.byte	0x7d
 13931 1633 04       		.sleb128 4
 13932 1634 040E0000 		.4byte	.LCFI172-.Ltext0
 13933 1638 060E0000 		.4byte	.LFE58-.Ltext0
 13934 163c 0200     		.2byte	0x2
 13935 163e 7D       		.byte	0x7d
 13936 163f 00       		.sleb128 0
 13937 1640 00000000 		.4byte	0
 13938 1644 00000000 		.4byte	0
 13939              	.LLST28:
 13940 1648 3A0D0000 		.4byte	.LFB57-.Ltext0
 13941 164c 3C0D0000 		.4byte	.LCFI161-.Ltext0
 13942 1650 0200     		.2byte	0x2
 13943 1652 7D       		.byte	0x7d
 13944 1653 00       		.sleb128 0
 13945 1654 3C0D0000 		.4byte	.LCFI161-.Ltext0
 13946 1658 3E0D0000 		.4byte	.LCFI162-.Ltext0
 13947 165c 0200     		.2byte	0x2
 13948 165e 7D       		.byte	0x7d
 13949 165f 04       		.sleb128 4
 13950 1660 3E0D0000 		.4byte	.LCFI162-.Ltext0
 13951 1664 400D0000 		.4byte	.LCFI163-.Ltext0
 13952 1668 0200     		.2byte	0x2
 13953 166a 7D       		.byte	0x7d
 13954 166b 20       		.sleb128 32
 13955 166c 400D0000 		.4byte	.LCFI163-.Ltext0
 13956 1670 CA0D0000 		.4byte	.LCFI164-.Ltext0
 13957 1674 0200     		.2byte	0x2
 13958 1676 77       		.byte	0x77
 13959 1677 20       		.sleb128 32
 13960 1678 CA0D0000 		.4byte	.LCFI164-.Ltext0
 13961 167c CC0D0000 		.4byte	.LCFI165-.Ltext0
 13962 1680 0200     		.2byte	0x2
 13963 1682 77       		.byte	0x77
 13964 1683 04       		.sleb128 4
 13965 1684 CC0D0000 		.4byte	.LCFI165-.Ltext0
 13966 1688 CE0D0000 		.4byte	.LCFI166-.Ltext0
 13967 168c 0200     		.2byte	0x2
 13968 168e 7D       		.byte	0x7d
 13969 168f 04       		.sleb128 4
 13970 1690 CE0D0000 		.4byte	.LCFI166-.Ltext0
 13971 1694 D00D0000 		.4byte	.LFE57-.Ltext0
 13972 1698 0200     		.2byte	0x2
 13973 169a 7D       		.byte	0x7d
 13974 169b 00       		.sleb128 0
 13975 169c 00000000 		.4byte	0
 13976 16a0 00000000 		.4byte	0
 13977              	.LLST27:
ARM GAS  G:\Users\Jaxb\AppData\Local\Temp\ccSQWSCJ.s 			page 298


 13978 16a4 040D0000 		.4byte	.LFB56-.Ltext0
 13979 16a8 060D0000 		.4byte	.LCFI155-.Ltext0
 13980 16ac 0200     		.2byte	0x2
 13981 16ae 7D       		.byte	0x7d
 13982 16af 00       		.sleb128 0
 13983 16b0 060D0000 		.4byte	.LCFI155-.Ltext0
 13984 16b4 080D0000 		.4byte	.LCFI156-.Ltext0
 13985 16b8 0200     		.2byte	0x2
 13986 16ba 7D       		.byte	0x7d
 13987 16bb 04       		.sleb128 4
 13988 16bc 080D0000 		.4byte	.LCFI156-.Ltext0
 13989 16c0 0A0D0000 		.4byte	.LCFI157-.Ltext0
 13990 16c4 0200     		.2byte	0x2
 13991 16c6 7D       		.byte	0x7d
 13992 16c7 18       		.sleb128 24
 13993 16c8 0A0D0000 		.4byte	.LCFI157-.Ltext0
 13994 16cc 340D0000 		.4byte	.LCFI158-.Ltext0
 13995 16d0 0200     		.2byte	0x2
 13996 16d2 77       		.byte	0x77
 13997 16d3 18       		.sleb128 24
 13998 16d4 340D0000 		.4byte	.LCFI158-.Ltext0
 13999 16d8 360D0000 		.4byte	.LCFI159-.Ltext0
 14000 16dc 0200     		.2byte	0x2
 14001 16de 77       		.byte	0x77
 14002 16df 04       		.sleb128 4
 14003 16e0 360D0000 		.4byte	.LCFI159-.Ltext0
 14004 16e4 380D0000 		.4byte	.LCFI160-.Ltext0
 14005 16e8 0200     		.2byte	0x2
 14006 16ea 7D       		.byte	0x7d
 14007 16eb 04       		.sleb128 4
 14008 16ec 380D0000 		.4byte	.LCFI160-.Ltext0
 14009 16f0 3A0D0000 		.4byte	.LFE56-.Ltext0
 14010 16f4 0200     		.2byte	0x2
 14011 16f6 7D       		.byte	0x7d
 14012 16f7 00       		.sleb128 0
 14013 16f8 00000000 		.4byte	0
 14014 16fc 00000000 		.4byte	0
 14015              	.LLST26:
 14016 1700 CE0C0000 		.4byte	.LFB55-.Ltext0
 14017 1704 D00C0000 		.4byte	.LCFI149-.Ltext0
 14018 1708 0200     		.2byte	0x2
 14019 170a 7D       		.byte	0x7d
 14020 170b 00       		.sleb128 0
 14021 170c D00C0000 		.4byte	.LCFI149-.Ltext0
 14022 1710 D20C0000 		.4byte	.LCFI150-.Ltext0
 14023 1714 0200     		.2byte	0x2
 14024 1716 7D       		.byte	0x7d
 14025 1717 04       		.sleb128 4
 14026 1718 D20C0000 		.4byte	.LCFI150-.Ltext0
 14027 171c D40C0000 		.4byte	.LCFI151-.Ltext0
 14028 1720 0200     		.2byte	0x2
 14029 1722 7D       		.byte	0x7d
 14030 1723 18       		.sleb128 24
 14031 1724 D40C0000 		.4byte	.LCFI151-.Ltext0
 14032 1728 FE0C0000 		.4byte	.LCFI152-.Ltext0
 14033 172c 0200     		.2byte	0x2
 14034 172e 77       		.byte	0x77
ARM GAS  G:\Users\Jaxb\AppData\Local\Temp\ccSQWSCJ.s 			page 299


 14035 172f 18       		.sleb128 24
 14036 1730 FE0C0000 		.4byte	.LCFI152-.Ltext0
 14037 1734 000D0000 		.4byte	.LCFI153-.Ltext0
 14038 1738 0200     		.2byte	0x2
 14039 173a 77       		.byte	0x77
 14040 173b 04       		.sleb128 4
 14041 173c 000D0000 		.4byte	.LCFI153-.Ltext0
 14042 1740 020D0000 		.4byte	.LCFI154-.Ltext0
 14043 1744 0200     		.2byte	0x2
 14044 1746 7D       		.byte	0x7d
 14045 1747 04       		.sleb128 4
 14046 1748 020D0000 		.4byte	.LCFI154-.Ltext0
 14047 174c 040D0000 		.4byte	.LFE55-.Ltext0
 14048 1750 0200     		.2byte	0x2
 14049 1752 7D       		.byte	0x7d
 14050 1753 00       		.sleb128 0
 14051 1754 00000000 		.4byte	0
 14052 1758 00000000 		.4byte	0
 14053              	.LLST25:
 14054 175c A80C0000 		.4byte	.LFB54-.Ltext0
 14055 1760 AA0C0000 		.4byte	.LCFI143-.Ltext0
 14056 1764 0200     		.2byte	0x2
 14057 1766 7D       		.byte	0x7d
 14058 1767 00       		.sleb128 0
 14059 1768 AA0C0000 		.4byte	.LCFI143-.Ltext0
 14060 176c AC0C0000 		.4byte	.LCFI144-.Ltext0
 14061 1770 0200     		.2byte	0x2
 14062 1772 7D       		.byte	0x7d
 14063 1773 04       		.sleb128 4
 14064 1774 AC0C0000 		.4byte	.LCFI144-.Ltext0
 14065 1778 AE0C0000 		.4byte	.LCFI145-.Ltext0
 14066 177c 0200     		.2byte	0x2
 14067 177e 7D       		.byte	0x7d
 14068 177f 10       		.sleb128 16
 14069 1780 AE0C0000 		.4byte	.LCFI145-.Ltext0
 14070 1784 C80C0000 		.4byte	.LCFI146-.Ltext0
 14071 1788 0200     		.2byte	0x2
 14072 178a 77       		.byte	0x77
 14073 178b 10       		.sleb128 16
 14074 178c C80C0000 		.4byte	.LCFI146-.Ltext0
 14075 1790 CA0C0000 		.4byte	.LCFI147-.Ltext0
 14076 1794 0200     		.2byte	0x2
 14077 1796 77       		.byte	0x77
 14078 1797 04       		.sleb128 4
 14079 1798 CA0C0000 		.4byte	.LCFI147-.Ltext0
 14080 179c CC0C0000 		.4byte	.LCFI148-.Ltext0
 14081 17a0 0200     		.2byte	0x2
 14082 17a2 7D       		.byte	0x7d
 14083 17a3 04       		.sleb128 4
 14084 17a4 CC0C0000 		.4byte	.LCFI148-.Ltext0
 14085 17a8 CE0C0000 		.4byte	.LFE54-.Ltext0
 14086 17ac 0200     		.2byte	0x2
 14087 17ae 7D       		.byte	0x7d
 14088 17af 00       		.sleb128 0
 14089 17b0 00000000 		.4byte	0
 14090 17b4 00000000 		.4byte	0
 14091              	.LLST24:
ARM GAS  G:\Users\Jaxb\AppData\Local\Temp\ccSQWSCJ.s 			page 300


 14092 17b8 560C0000 		.4byte	.LFB53-.Ltext0
 14093 17bc 580C0000 		.4byte	.LCFI137-.Ltext0
 14094 17c0 0200     		.2byte	0x2
 14095 17c2 7D       		.byte	0x7d
 14096 17c3 00       		.sleb128 0
 14097 17c4 580C0000 		.4byte	.LCFI137-.Ltext0
 14098 17c8 5A0C0000 		.4byte	.LCFI138-.Ltext0
 14099 17cc 0200     		.2byte	0x2
 14100 17ce 7D       		.byte	0x7d
 14101 17cf 04       		.sleb128 4
 14102 17d0 5A0C0000 		.4byte	.LCFI138-.Ltext0
 14103 17d4 5C0C0000 		.4byte	.LCFI139-.Ltext0
 14104 17d8 0200     		.2byte	0x2
 14105 17da 7D       		.byte	0x7d
 14106 17db 20       		.sleb128 32
 14107 17dc 5C0C0000 		.4byte	.LCFI139-.Ltext0
 14108 17e0 A20C0000 		.4byte	.LCFI140-.Ltext0
 14109 17e4 0200     		.2byte	0x2
 14110 17e6 77       		.byte	0x77
 14111 17e7 20       		.sleb128 32
 14112 17e8 A20C0000 		.4byte	.LCFI140-.Ltext0
 14113 17ec A40C0000 		.4byte	.LCFI141-.Ltext0
 14114 17f0 0200     		.2byte	0x2
 14115 17f2 77       		.byte	0x77
 14116 17f3 04       		.sleb128 4
 14117 17f4 A40C0000 		.4byte	.LCFI141-.Ltext0
 14118 17f8 A60C0000 		.4byte	.LCFI142-.Ltext0
 14119 17fc 0200     		.2byte	0x2
 14120 17fe 7D       		.byte	0x7d
 14121 17ff 04       		.sleb128 4
 14122 1800 A60C0000 		.4byte	.LCFI142-.Ltext0
 14123 1804 A80C0000 		.4byte	.LFE53-.Ltext0
 14124 1808 0200     		.2byte	0x2
 14125 180a 7D       		.byte	0x7d
 14126 180b 00       		.sleb128 0
 14127 180c 00000000 		.4byte	0
 14128 1810 00000000 		.4byte	0
 14129              	.LLST23:
 14130 1814 180C0000 		.4byte	.LFB52-.Ltext0
 14131 1818 1A0C0000 		.4byte	.LCFI132-.Ltext0
 14132 181c 0200     		.2byte	0x2
 14133 181e 7D       		.byte	0x7d
 14134 181f 00       		.sleb128 0
 14135 1820 1A0C0000 		.4byte	.LCFI132-.Ltext0
 14136 1824 1C0C0000 		.4byte	.LCFI133-.Ltext0
 14137 1828 0200     		.2byte	0x2
 14138 182a 7D       		.byte	0x7d
 14139 182b 08       		.sleb128 8
 14140 182c 1C0C0000 		.4byte	.LCFI133-.Ltext0
 14141 1830 1E0C0000 		.4byte	.LCFI134-.Ltext0
 14142 1834 0200     		.2byte	0x2
 14143 1836 7D       		.byte	0x7d
 14144 1837 18       		.sleb128 24
 14145 1838 1E0C0000 		.4byte	.LCFI134-.Ltext0
 14146 183c 520C0000 		.4byte	.LCFI135-.Ltext0
 14147 1840 0200     		.2byte	0x2
 14148 1842 77       		.byte	0x77
ARM GAS  G:\Users\Jaxb\AppData\Local\Temp\ccSQWSCJ.s 			page 301


 14149 1843 18       		.sleb128 24
 14150 1844 520C0000 		.4byte	.LCFI135-.Ltext0
 14151 1848 540C0000 		.4byte	.LCFI136-.Ltext0
 14152 184c 0200     		.2byte	0x2
 14153 184e 77       		.byte	0x77
 14154 184f 08       		.sleb128 8
 14155 1850 540C0000 		.4byte	.LCFI136-.Ltext0
 14156 1854 560C0000 		.4byte	.LFE52-.Ltext0
 14157 1858 0200     		.2byte	0x2
 14158 185a 7D       		.byte	0x7d
 14159 185b 08       		.sleb128 8
 14160 185c 00000000 		.4byte	0
 14161 1860 00000000 		.4byte	0
 14162              	.LLST22:
 14163 1864 BA0B0000 		.4byte	.LFB51-.Ltext0
 14164 1868 BC0B0000 		.4byte	.LCFI127-.Ltext0
 14165 186c 0200     		.2byte	0x2
 14166 186e 7D       		.byte	0x7d
 14167 186f 00       		.sleb128 0
 14168 1870 BC0B0000 		.4byte	.LCFI127-.Ltext0
 14169 1874 BE0B0000 		.4byte	.LCFI128-.Ltext0
 14170 1878 0200     		.2byte	0x2
 14171 187a 7D       		.byte	0x7d
 14172 187b 08       		.sleb128 8
 14173 187c BE0B0000 		.4byte	.LCFI128-.Ltext0
 14174 1880 C00B0000 		.4byte	.LCFI129-.Ltext0
 14175 1884 0200     		.2byte	0x2
 14176 1886 7D       		.byte	0x7d
 14177 1887 20       		.sleb128 32
 14178 1888 C00B0000 		.4byte	.LCFI129-.Ltext0
 14179 188c 140C0000 		.4byte	.LCFI130-.Ltext0
 14180 1890 0200     		.2byte	0x2
 14181 1892 77       		.byte	0x77
 14182 1893 20       		.sleb128 32
 14183 1894 140C0000 		.4byte	.LCFI130-.Ltext0
 14184 1898 160C0000 		.4byte	.LCFI131-.Ltext0
 14185 189c 0200     		.2byte	0x2
 14186 189e 77       		.byte	0x77
 14187 189f 08       		.sleb128 8
 14188 18a0 160C0000 		.4byte	.LCFI131-.Ltext0
 14189 18a4 180C0000 		.4byte	.LFE51-.Ltext0
 14190 18a8 0200     		.2byte	0x2
 14191 18aa 7D       		.byte	0x7d
 14192 18ab 08       		.sleb128 8
 14193 18ac 00000000 		.4byte	0
 14194 18b0 00000000 		.4byte	0
 14195              	.LLST21:
 14196 18b4 5E0B0000 		.4byte	.LFB50-.Ltext0
 14197 18b8 600B0000 		.4byte	.LCFI122-.Ltext0
 14198 18bc 0200     		.2byte	0x2
 14199 18be 7D       		.byte	0x7d
 14200 18bf 00       		.sleb128 0
 14201 18c0 600B0000 		.4byte	.LCFI122-.Ltext0
 14202 18c4 620B0000 		.4byte	.LCFI123-.Ltext0
 14203 18c8 0200     		.2byte	0x2
 14204 18ca 7D       		.byte	0x7d
 14205 18cb 08       		.sleb128 8
ARM GAS  G:\Users\Jaxb\AppData\Local\Temp\ccSQWSCJ.s 			page 302


 14206 18cc 620B0000 		.4byte	.LCFI123-.Ltext0
 14207 18d0 640B0000 		.4byte	.LCFI124-.Ltext0
 14208 18d4 0200     		.2byte	0x2
 14209 18d6 7D       		.byte	0x7d
 14210 18d7 18       		.sleb128 24
 14211 18d8 640B0000 		.4byte	.LCFI124-.Ltext0
 14212 18dc B60B0000 		.4byte	.LCFI125-.Ltext0
 14213 18e0 0200     		.2byte	0x2
 14214 18e2 77       		.byte	0x77
 14215 18e3 18       		.sleb128 24
 14216 18e4 B60B0000 		.4byte	.LCFI125-.Ltext0
 14217 18e8 B80B0000 		.4byte	.LCFI126-.Ltext0
 14218 18ec 0200     		.2byte	0x2
 14219 18ee 77       		.byte	0x77
 14220 18ef 08       		.sleb128 8
 14221 18f0 B80B0000 		.4byte	.LCFI126-.Ltext0
 14222 18f4 BA0B0000 		.4byte	.LFE50-.Ltext0
 14223 18f8 0200     		.2byte	0x2
 14224 18fa 7D       		.byte	0x7d
 14225 18fb 08       		.sleb128 8
 14226 18fc 00000000 		.4byte	0
 14227 1900 00000000 		.4byte	0
 14228              	.LLST20:
 14229 1904 300B0000 		.4byte	.LFB49-.Ltext0
 14230 1908 320B0000 		.4byte	.LCFI117-.Ltext0
 14231 190c 0200     		.2byte	0x2
 14232 190e 7D       		.byte	0x7d
 14233 190f 00       		.sleb128 0
 14234 1910 320B0000 		.4byte	.LCFI117-.Ltext0
 14235 1914 340B0000 		.4byte	.LCFI118-.Ltext0
 14236 1918 0200     		.2byte	0x2
 14237 191a 7D       		.byte	0x7d
 14238 191b 08       		.sleb128 8
 14239 191c 340B0000 		.4byte	.LCFI118-.Ltext0
 14240 1920 360B0000 		.4byte	.LCFI119-.Ltext0
 14241 1924 0200     		.2byte	0x2
 14242 1926 7D       		.byte	0x7d
 14243 1927 10       		.sleb128 16
 14244 1928 360B0000 		.4byte	.LCFI119-.Ltext0
 14245 192c 5A0B0000 		.4byte	.LCFI120-.Ltext0
 14246 1930 0200     		.2byte	0x2
 14247 1932 77       		.byte	0x77
 14248 1933 10       		.sleb128 16
 14249 1934 5A0B0000 		.4byte	.LCFI120-.Ltext0
 14250 1938 5C0B0000 		.4byte	.LCFI121-.Ltext0
 14251 193c 0200     		.2byte	0x2
 14252 193e 77       		.byte	0x77
 14253 193f 08       		.sleb128 8
 14254 1940 5C0B0000 		.4byte	.LCFI121-.Ltext0
 14255 1944 5E0B0000 		.4byte	.LFE49-.Ltext0
 14256 1948 0200     		.2byte	0x2
 14257 194a 7D       		.byte	0x7d
 14258 194b 08       		.sleb128 8
 14259 194c 00000000 		.4byte	0
 14260 1950 00000000 		.4byte	0
 14261              	.LLST19:
 14262 1954 0E0B0000 		.4byte	.LFB48-.Ltext0
ARM GAS  G:\Users\Jaxb\AppData\Local\Temp\ccSQWSCJ.s 			page 303


 14263 1958 100B0000 		.4byte	.LCFI111-.Ltext0
 14264 195c 0200     		.2byte	0x2
 14265 195e 7D       		.byte	0x7d
 14266 195f 00       		.sleb128 0
 14267 1960 100B0000 		.4byte	.LCFI111-.Ltext0
 14268 1964 120B0000 		.4byte	.LCFI112-.Ltext0
 14269 1968 0200     		.2byte	0x2
 14270 196a 7D       		.byte	0x7d
 14271 196b 04       		.sleb128 4
 14272 196c 120B0000 		.4byte	.LCFI112-.Ltext0
 14273 1970 140B0000 		.4byte	.LCFI113-.Ltext0
 14274 1974 0200     		.2byte	0x2
 14275 1976 7D       		.byte	0x7d
 14276 1977 10       		.sleb128 16
 14277 1978 140B0000 		.4byte	.LCFI113-.Ltext0
 14278 197c 2A0B0000 		.4byte	.LCFI114-.Ltext0
 14279 1980 0200     		.2byte	0x2
 14280 1982 77       		.byte	0x77
 14281 1983 10       		.sleb128 16
 14282 1984 2A0B0000 		.4byte	.LCFI114-.Ltext0
 14283 1988 2C0B0000 		.4byte	.LCFI115-.Ltext0
 14284 198c 0200     		.2byte	0x2
 14285 198e 77       		.byte	0x77
 14286 198f 04       		.sleb128 4
 14287 1990 2C0B0000 		.4byte	.LCFI115-.Ltext0
 14288 1994 2E0B0000 		.4byte	.LCFI116-.Ltext0
 14289 1998 0200     		.2byte	0x2
 14290 199a 7D       		.byte	0x7d
 14291 199b 04       		.sleb128 4
 14292 199c 2E0B0000 		.4byte	.LCFI116-.Ltext0
 14293 19a0 300B0000 		.4byte	.LFE48-.Ltext0
 14294 19a4 0200     		.2byte	0x2
 14295 19a6 7D       		.byte	0x7d
 14296 19a7 00       		.sleb128 0
 14297 19a8 00000000 		.4byte	0
 14298 19ac 00000000 		.4byte	0
 14299              	.LLST18:
 14300 19b0 C80A0000 		.4byte	.LFB47-.Ltext0
 14301 19b4 CA0A0000 		.4byte	.LCFI105-.Ltext0
 14302 19b8 0200     		.2byte	0x2
 14303 19ba 7D       		.byte	0x7d
 14304 19bb 00       		.sleb128 0
 14305 19bc CA0A0000 		.4byte	.LCFI105-.Ltext0
 14306 19c0 CC0A0000 		.4byte	.LCFI106-.Ltext0
 14307 19c4 0200     		.2byte	0x2
 14308 19c6 7D       		.byte	0x7d
 14309 19c7 04       		.sleb128 4
 14310 19c8 CC0A0000 		.4byte	.LCFI106-.Ltext0
 14311 19cc CE0A0000 		.4byte	.LCFI107-.Ltext0
 14312 19d0 0200     		.2byte	0x2
 14313 19d2 7D       		.byte	0x7d
 14314 19d3 10       		.sleb128 16
 14315 19d4 CE0A0000 		.4byte	.LCFI107-.Ltext0
 14316 19d8 080B0000 		.4byte	.LCFI108-.Ltext0
 14317 19dc 0200     		.2byte	0x2
 14318 19de 77       		.byte	0x77
 14319 19df 10       		.sleb128 16
ARM GAS  G:\Users\Jaxb\AppData\Local\Temp\ccSQWSCJ.s 			page 304


 14320 19e0 080B0000 		.4byte	.LCFI108-.Ltext0
 14321 19e4 0A0B0000 		.4byte	.LCFI109-.Ltext0
 14322 19e8 0200     		.2byte	0x2
 14323 19ea 77       		.byte	0x77
 14324 19eb 04       		.sleb128 4
 14325 19ec 0A0B0000 		.4byte	.LCFI109-.Ltext0
 14326 19f0 0C0B0000 		.4byte	.LCFI110-.Ltext0
 14327 19f4 0200     		.2byte	0x2
 14328 19f6 7D       		.byte	0x7d
 14329 19f7 04       		.sleb128 4
 14330 19f8 0C0B0000 		.4byte	.LCFI110-.Ltext0
 14331 19fc 0E0B0000 		.4byte	.LFE47-.Ltext0
 14332 1a00 0200     		.2byte	0x2
 14333 1a02 7D       		.byte	0x7d
 14334 1a03 00       		.sleb128 0
 14335 1a04 00000000 		.4byte	0
 14336 1a08 00000000 		.4byte	0
 14337              	.LLST17:
 14338 1a0c A00A0000 		.4byte	.LFB46-.Ltext0
 14339 1a10 A20A0000 		.4byte	.LCFI99-.Ltext0
 14340 1a14 0200     		.2byte	0x2
 14341 1a16 7D       		.byte	0x7d
 14342 1a17 00       		.sleb128 0
 14343 1a18 A20A0000 		.4byte	.LCFI99-.Ltext0
 14344 1a1c A40A0000 		.4byte	.LCFI100-.Ltext0
 14345 1a20 0200     		.2byte	0x2
 14346 1a22 7D       		.byte	0x7d
 14347 1a23 04       		.sleb128 4
 14348 1a24 A40A0000 		.4byte	.LCFI100-.Ltext0
 14349 1a28 A60A0000 		.4byte	.LCFI101-.Ltext0
 14350 1a2c 0200     		.2byte	0x2
 14351 1a2e 7D       		.byte	0x7d
 14352 1a2f 10       		.sleb128 16
 14353 1a30 A60A0000 		.4byte	.LCFI101-.Ltext0
 14354 1a34 C20A0000 		.4byte	.LCFI102-.Ltext0
 14355 1a38 0200     		.2byte	0x2
 14356 1a3a 77       		.byte	0x77
 14357 1a3b 10       		.sleb128 16
 14358 1a3c C20A0000 		.4byte	.LCFI102-.Ltext0
 14359 1a40 C40A0000 		.4byte	.LCFI103-.Ltext0
 14360 1a44 0200     		.2byte	0x2
 14361 1a46 77       		.byte	0x77
 14362 1a47 04       		.sleb128 4
 14363 1a48 C40A0000 		.4byte	.LCFI103-.Ltext0
 14364 1a4c C60A0000 		.4byte	.LCFI104-.Ltext0
 14365 1a50 0200     		.2byte	0x2
 14366 1a52 7D       		.byte	0x7d
 14367 1a53 04       		.sleb128 4
 14368 1a54 C60A0000 		.4byte	.LCFI104-.Ltext0
 14369 1a58 C80A0000 		.4byte	.LFE46-.Ltext0
 14370 1a5c 0200     		.2byte	0x2
 14371 1a5e 7D       		.byte	0x7d
 14372 1a5f 00       		.sleb128 0
 14373 1a60 00000000 		.4byte	0
 14374 1a64 00000000 		.4byte	0
 14375              	.LLST16:
 14376 1a68 840A0000 		.4byte	.LFB45-.Ltext0
ARM GAS  G:\Users\Jaxb\AppData\Local\Temp\ccSQWSCJ.s 			page 305


 14377 1a6c 860A0000 		.4byte	.LCFI93-.Ltext0
 14378 1a70 0200     		.2byte	0x2
 14379 1a72 7D       		.byte	0x7d
 14380 1a73 00       		.sleb128 0
 14381 1a74 860A0000 		.4byte	.LCFI93-.Ltext0
 14382 1a78 880A0000 		.4byte	.LCFI94-.Ltext0
 14383 1a7c 0200     		.2byte	0x2
 14384 1a7e 7D       		.byte	0x7d
 14385 1a7f 04       		.sleb128 4
 14386 1a80 880A0000 		.4byte	.LCFI94-.Ltext0
 14387 1a84 8A0A0000 		.4byte	.LCFI95-.Ltext0
 14388 1a88 0200     		.2byte	0x2
 14389 1a8a 7D       		.byte	0x7d
 14390 1a8b 10       		.sleb128 16
 14391 1a8c 8A0A0000 		.4byte	.LCFI95-.Ltext0
 14392 1a90 9A0A0000 		.4byte	.LCFI96-.Ltext0
 14393 1a94 0200     		.2byte	0x2
 14394 1a96 77       		.byte	0x77
 14395 1a97 10       		.sleb128 16
 14396 1a98 9A0A0000 		.4byte	.LCFI96-.Ltext0
 14397 1a9c 9C0A0000 		.4byte	.LCFI97-.Ltext0
 14398 1aa0 0200     		.2byte	0x2
 14399 1aa2 77       		.byte	0x77
 14400 1aa3 04       		.sleb128 4
 14401 1aa4 9C0A0000 		.4byte	.LCFI97-.Ltext0
 14402 1aa8 9E0A0000 		.4byte	.LCFI98-.Ltext0
 14403 1aac 0200     		.2byte	0x2
 14404 1aae 7D       		.byte	0x7d
 14405 1aaf 04       		.sleb128 4
 14406 1ab0 9E0A0000 		.4byte	.LCFI98-.Ltext0
 14407 1ab4 A00A0000 		.4byte	.LFE45-.Ltext0
 14408 1ab8 0200     		.2byte	0x2
 14409 1aba 7D       		.byte	0x7d
 14410 1abb 00       		.sleb128 0
 14411 1abc 00000000 		.4byte	0
 14412 1ac0 00000000 		.4byte	0
 14413              	.LLST15:
 14414 1ac4 3E0A0000 		.4byte	.LFB44-.Ltext0
 14415 1ac8 400A0000 		.4byte	.LCFI87-.Ltext0
 14416 1acc 0200     		.2byte	0x2
 14417 1ace 7D       		.byte	0x7d
 14418 1acf 00       		.sleb128 0
 14419 1ad0 400A0000 		.4byte	.LCFI87-.Ltext0
 14420 1ad4 420A0000 		.4byte	.LCFI88-.Ltext0
 14421 1ad8 0200     		.2byte	0x2
 14422 1ada 7D       		.byte	0x7d
 14423 1adb 04       		.sleb128 4
 14424 1adc 420A0000 		.4byte	.LCFI88-.Ltext0
 14425 1ae0 440A0000 		.4byte	.LCFI89-.Ltext0
 14426 1ae4 0200     		.2byte	0x2
 14427 1ae6 7D       		.byte	0x7d
 14428 1ae7 10       		.sleb128 16
 14429 1ae8 440A0000 		.4byte	.LCFI89-.Ltext0
 14430 1aec 7E0A0000 		.4byte	.LCFI90-.Ltext0
 14431 1af0 0200     		.2byte	0x2
 14432 1af2 77       		.byte	0x77
 14433 1af3 10       		.sleb128 16
ARM GAS  G:\Users\Jaxb\AppData\Local\Temp\ccSQWSCJ.s 			page 306


 14434 1af4 7E0A0000 		.4byte	.LCFI90-.Ltext0
 14435 1af8 800A0000 		.4byte	.LCFI91-.Ltext0
 14436 1afc 0200     		.2byte	0x2
 14437 1afe 77       		.byte	0x77
 14438 1aff 04       		.sleb128 4
 14439 1b00 800A0000 		.4byte	.LCFI91-.Ltext0
 14440 1b04 820A0000 		.4byte	.LCFI92-.Ltext0
 14441 1b08 0200     		.2byte	0x2
 14442 1b0a 7D       		.byte	0x7d
 14443 1b0b 04       		.sleb128 4
 14444 1b0c 820A0000 		.4byte	.LCFI92-.Ltext0
 14445 1b10 840A0000 		.4byte	.LFE44-.Ltext0
 14446 1b14 0200     		.2byte	0x2
 14447 1b16 7D       		.byte	0x7d
 14448 1b17 00       		.sleb128 0
 14449 1b18 00000000 		.4byte	0
 14450 1b1c 00000000 		.4byte	0
 14451              	.LLST14:
 14452 1b20 F4090000 		.4byte	.LFB43-.Ltext0
 14453 1b24 F6090000 		.4byte	.LCFI81-.Ltext0
 14454 1b28 0200     		.2byte	0x2
 14455 1b2a 7D       		.byte	0x7d
 14456 1b2b 00       		.sleb128 0
 14457 1b2c F6090000 		.4byte	.LCFI81-.Ltext0
 14458 1b30 F8090000 		.4byte	.LCFI82-.Ltext0
 14459 1b34 0200     		.2byte	0x2
 14460 1b36 7D       		.byte	0x7d
 14461 1b37 04       		.sleb128 4
 14462 1b38 F8090000 		.4byte	.LCFI82-.Ltext0
 14463 1b3c FA090000 		.4byte	.LCFI83-.Ltext0
 14464 1b40 0200     		.2byte	0x2
 14465 1b42 7D       		.byte	0x7d
 14466 1b43 10       		.sleb128 16
 14467 1b44 FA090000 		.4byte	.LCFI83-.Ltext0
 14468 1b48 380A0000 		.4byte	.LCFI84-.Ltext0
 14469 1b4c 0200     		.2byte	0x2
 14470 1b4e 77       		.byte	0x77
 14471 1b4f 10       		.sleb128 16
 14472 1b50 380A0000 		.4byte	.LCFI84-.Ltext0
 14473 1b54 3A0A0000 		.4byte	.LCFI85-.Ltext0
 14474 1b58 0200     		.2byte	0x2
 14475 1b5a 77       		.byte	0x77
 14476 1b5b 04       		.sleb128 4
 14477 1b5c 3A0A0000 		.4byte	.LCFI85-.Ltext0
 14478 1b60 3C0A0000 		.4byte	.LCFI86-.Ltext0
 14479 1b64 0200     		.2byte	0x2
 14480 1b66 7D       		.byte	0x7d
 14481 1b67 04       		.sleb128 4
 14482 1b68 3C0A0000 		.4byte	.LCFI86-.Ltext0
 14483 1b6c 3E0A0000 		.4byte	.LFE43-.Ltext0
 14484 1b70 0200     		.2byte	0x2
 14485 1b72 7D       		.byte	0x7d
 14486 1b73 00       		.sleb128 0
 14487 1b74 00000000 		.4byte	0
 14488 1b78 00000000 		.4byte	0
 14489              	.LLST13:
 14490 1b7c B6090000 		.4byte	.LFB42-.Ltext0
ARM GAS  G:\Users\Jaxb\AppData\Local\Temp\ccSQWSCJ.s 			page 307


 14491 1b80 B8090000 		.4byte	.LCFI75-.Ltext0
 14492 1b84 0200     		.2byte	0x2
 14493 1b86 7D       		.byte	0x7d
 14494 1b87 00       		.sleb128 0
 14495 1b88 B8090000 		.4byte	.LCFI75-.Ltext0
 14496 1b8c BA090000 		.4byte	.LCFI76-.Ltext0
 14497 1b90 0200     		.2byte	0x2
 14498 1b92 7D       		.byte	0x7d
 14499 1b93 04       		.sleb128 4
 14500 1b94 BA090000 		.4byte	.LCFI76-.Ltext0
 14501 1b98 BC090000 		.4byte	.LCFI77-.Ltext0
 14502 1b9c 0200     		.2byte	0x2
 14503 1b9e 7D       		.byte	0x7d
 14504 1b9f 10       		.sleb128 16
 14505 1ba0 BC090000 		.4byte	.LCFI77-.Ltext0
 14506 1ba4 EE090000 		.4byte	.LCFI78-.Ltext0
 14507 1ba8 0200     		.2byte	0x2
 14508 1baa 77       		.byte	0x77
 14509 1bab 10       		.sleb128 16
 14510 1bac EE090000 		.4byte	.LCFI78-.Ltext0
 14511 1bb0 F0090000 		.4byte	.LCFI79-.Ltext0
 14512 1bb4 0200     		.2byte	0x2
 14513 1bb6 77       		.byte	0x77
 14514 1bb7 04       		.sleb128 4
 14515 1bb8 F0090000 		.4byte	.LCFI79-.Ltext0
 14516 1bbc F2090000 		.4byte	.LCFI80-.Ltext0
 14517 1bc0 0200     		.2byte	0x2
 14518 1bc2 7D       		.byte	0x7d
 14519 1bc3 04       		.sleb128 4
 14520 1bc4 F2090000 		.4byte	.LCFI80-.Ltext0
 14521 1bc8 F4090000 		.4byte	.LFE42-.Ltext0
 14522 1bcc 0200     		.2byte	0x2
 14523 1bce 7D       		.byte	0x7d
 14524 1bcf 00       		.sleb128 0
 14525 1bd0 00000000 		.4byte	0
 14526 1bd4 00000000 		.4byte	0
 14527              	.LLST12:
 14528 1bd8 7A090000 		.4byte	.LFB41-.Ltext0
 14529 1bdc 7C090000 		.4byte	.LCFI69-.Ltext0
 14530 1be0 0200     		.2byte	0x2
 14531 1be2 7D       		.byte	0x7d
 14532 1be3 00       		.sleb128 0
 14533 1be4 7C090000 		.4byte	.LCFI69-.Ltext0
 14534 1be8 7E090000 		.4byte	.LCFI70-.Ltext0
 14535 1bec 0200     		.2byte	0x2
 14536 1bee 7D       		.byte	0x7d
 14537 1bef 04       		.sleb128 4
 14538 1bf0 7E090000 		.4byte	.LCFI70-.Ltext0
 14539 1bf4 80090000 		.4byte	.LCFI71-.Ltext0
 14540 1bf8 0200     		.2byte	0x2
 14541 1bfa 7D       		.byte	0x7d
 14542 1bfb 10       		.sleb128 16
 14543 1bfc 80090000 		.4byte	.LCFI71-.Ltext0
 14544 1c00 B0090000 		.4byte	.LCFI72-.Ltext0
 14545 1c04 0200     		.2byte	0x2
 14546 1c06 77       		.byte	0x77
 14547 1c07 10       		.sleb128 16
ARM GAS  G:\Users\Jaxb\AppData\Local\Temp\ccSQWSCJ.s 			page 308


 14548 1c08 B0090000 		.4byte	.LCFI72-.Ltext0
 14549 1c0c B2090000 		.4byte	.LCFI73-.Ltext0
 14550 1c10 0200     		.2byte	0x2
 14551 1c12 77       		.byte	0x77
 14552 1c13 04       		.sleb128 4
 14553 1c14 B2090000 		.4byte	.LCFI73-.Ltext0
 14554 1c18 B4090000 		.4byte	.LCFI74-.Ltext0
 14555 1c1c 0200     		.2byte	0x2
 14556 1c1e 7D       		.byte	0x7d
 14557 1c1f 04       		.sleb128 4
 14558 1c20 B4090000 		.4byte	.LCFI74-.Ltext0
 14559 1c24 B6090000 		.4byte	.LFE41-.Ltext0
 14560 1c28 0200     		.2byte	0x2
 14561 1c2a 7D       		.byte	0x7d
 14562 1c2b 00       		.sleb128 0
 14563 1c2c 00000000 		.4byte	0
 14564 1c30 00000000 		.4byte	0
 14565              	.LLST11:
 14566 1c34 4A090000 		.4byte	.LFB40-.Ltext0
 14567 1c38 4C090000 		.4byte	.LCFI63-.Ltext0
 14568 1c3c 0200     		.2byte	0x2
 14569 1c3e 7D       		.byte	0x7d
 14570 1c3f 00       		.sleb128 0
 14571 1c40 4C090000 		.4byte	.LCFI63-.Ltext0
 14572 1c44 4E090000 		.4byte	.LCFI64-.Ltext0
 14573 1c48 0200     		.2byte	0x2
 14574 1c4a 7D       		.byte	0x7d
 14575 1c4b 04       		.sleb128 4
 14576 1c4c 4E090000 		.4byte	.LCFI64-.Ltext0
 14577 1c50 50090000 		.4byte	.LCFI65-.Ltext0
 14578 1c54 0200     		.2byte	0x2
 14579 1c56 7D       		.byte	0x7d
 14580 1c57 10       		.sleb128 16
 14581 1c58 50090000 		.4byte	.LCFI65-.Ltext0
 14582 1c5c 74090000 		.4byte	.LCFI66-.Ltext0
 14583 1c60 0200     		.2byte	0x2
 14584 1c62 77       		.byte	0x77
 14585 1c63 10       		.sleb128 16
 14586 1c64 74090000 		.4byte	.LCFI66-.Ltext0
 14587 1c68 76090000 		.4byte	.LCFI67-.Ltext0
 14588 1c6c 0200     		.2byte	0x2
 14589 1c6e 77       		.byte	0x77
 14590 1c6f 04       		.sleb128 4
 14591 1c70 76090000 		.4byte	.LCFI67-.Ltext0
 14592 1c74 78090000 		.4byte	.LCFI68-.Ltext0
 14593 1c78 0200     		.2byte	0x2
 14594 1c7a 7D       		.byte	0x7d
 14595 1c7b 04       		.sleb128 4
 14596 1c7c 78090000 		.4byte	.LCFI68-.Ltext0
 14597 1c80 7A090000 		.4byte	.LFE40-.Ltext0
 14598 1c84 0200     		.2byte	0x2
 14599 1c86 7D       		.byte	0x7d
 14600 1c87 00       		.sleb128 0
 14601 1c88 00000000 		.4byte	0
 14602 1c8c 00000000 		.4byte	0
 14603              	.LLST10:
 14604 1c90 08090000 		.4byte	.LFB39-.Ltext0
ARM GAS  G:\Users\Jaxb\AppData\Local\Temp\ccSQWSCJ.s 			page 309


 14605 1c94 0A090000 		.4byte	.LCFI57-.Ltext0
 14606 1c98 0200     		.2byte	0x2
 14607 1c9a 7D       		.byte	0x7d
 14608 1c9b 00       		.sleb128 0
 14609 1c9c 0A090000 		.4byte	.LCFI57-.Ltext0
 14610 1ca0 0C090000 		.4byte	.LCFI58-.Ltext0
 14611 1ca4 0200     		.2byte	0x2
 14612 1ca6 7D       		.byte	0x7d
 14613 1ca7 04       		.sleb128 4
 14614 1ca8 0C090000 		.4byte	.LCFI58-.Ltext0
 14615 1cac 0E090000 		.4byte	.LCFI59-.Ltext0
 14616 1cb0 0200     		.2byte	0x2
 14617 1cb2 7D       		.byte	0x7d
 14618 1cb3 10       		.sleb128 16
 14619 1cb4 0E090000 		.4byte	.LCFI59-.Ltext0
 14620 1cb8 44090000 		.4byte	.LCFI60-.Ltext0
 14621 1cbc 0200     		.2byte	0x2
 14622 1cbe 77       		.byte	0x77
 14623 1cbf 10       		.sleb128 16
 14624 1cc0 44090000 		.4byte	.LCFI60-.Ltext0
 14625 1cc4 46090000 		.4byte	.LCFI61-.Ltext0
 14626 1cc8 0200     		.2byte	0x2
 14627 1cca 77       		.byte	0x77
 14628 1ccb 04       		.sleb128 4
 14629 1ccc 46090000 		.4byte	.LCFI61-.Ltext0
 14630 1cd0 48090000 		.4byte	.LCFI62-.Ltext0
 14631 1cd4 0200     		.2byte	0x2
 14632 1cd6 7D       		.byte	0x7d
 14633 1cd7 04       		.sleb128 4
 14634 1cd8 48090000 		.4byte	.LCFI62-.Ltext0
 14635 1cdc 4A090000 		.4byte	.LFE39-.Ltext0
 14636 1ce0 0200     		.2byte	0x2
 14637 1ce2 7D       		.byte	0x7d
 14638 1ce3 00       		.sleb128 0
 14639 1ce4 00000000 		.4byte	0
 14640 1ce8 00000000 		.4byte	0
 14641              	.LLST9:
 14642 1cec D6080000 		.4byte	.LFB38-.Ltext0
 14643 1cf0 D8080000 		.4byte	.LCFI51-.Ltext0
 14644 1cf4 0200     		.2byte	0x2
 14645 1cf6 7D       		.byte	0x7d
 14646 1cf7 00       		.sleb128 0
 14647 1cf8 D8080000 		.4byte	.LCFI51-.Ltext0
 14648 1cfc DA080000 		.4byte	.LCFI52-.Ltext0
 14649 1d00 0200     		.2byte	0x2
 14650 1d02 7D       		.byte	0x7d
 14651 1d03 04       		.sleb128 4
 14652 1d04 DA080000 		.4byte	.LCFI52-.Ltext0
 14653 1d08 DC080000 		.4byte	.LCFI53-.Ltext0
 14654 1d0c 0200     		.2byte	0x2
 14655 1d0e 7D       		.byte	0x7d
 14656 1d0f 10       		.sleb128 16
 14657 1d10 DC080000 		.4byte	.LCFI53-.Ltext0
 14658 1d14 02090000 		.4byte	.LCFI54-.Ltext0
 14659 1d18 0200     		.2byte	0x2
 14660 1d1a 77       		.byte	0x77
 14661 1d1b 10       		.sleb128 16
ARM GAS  G:\Users\Jaxb\AppData\Local\Temp\ccSQWSCJ.s 			page 310


 14662 1d1c 02090000 		.4byte	.LCFI54-.Ltext0
 14663 1d20 04090000 		.4byte	.LCFI55-.Ltext0
 14664 1d24 0200     		.2byte	0x2
 14665 1d26 77       		.byte	0x77
 14666 1d27 04       		.sleb128 4
 14667 1d28 04090000 		.4byte	.LCFI55-.Ltext0
 14668 1d2c 06090000 		.4byte	.LCFI56-.Ltext0
 14669 1d30 0200     		.2byte	0x2
 14670 1d32 7D       		.byte	0x7d
 14671 1d33 04       		.sleb128 4
 14672 1d34 06090000 		.4byte	.LCFI56-.Ltext0
 14673 1d38 08090000 		.4byte	.LFE38-.Ltext0
 14674 1d3c 0200     		.2byte	0x2
 14675 1d3e 7D       		.byte	0x7d
 14676 1d3f 00       		.sleb128 0
 14677 1d40 00000000 		.4byte	0
 14678 1d44 00000000 		.4byte	0
 14679              	.LLST8:
 14680 1d48 88080000 		.4byte	.LFB37-.Ltext0
 14681 1d4c 8A080000 		.4byte	.LCFI45-.Ltext0
 14682 1d50 0200     		.2byte	0x2
 14683 1d52 7D       		.byte	0x7d
 14684 1d53 00       		.sleb128 0
 14685 1d54 8A080000 		.4byte	.LCFI45-.Ltext0
 14686 1d58 8C080000 		.4byte	.LCFI46-.Ltext0
 14687 1d5c 0200     		.2byte	0x2
 14688 1d5e 7D       		.byte	0x7d
 14689 1d5f 04       		.sleb128 4
 14690 1d60 8C080000 		.4byte	.LCFI46-.Ltext0
 14691 1d64 8E080000 		.4byte	.LCFI47-.Ltext0
 14692 1d68 0200     		.2byte	0x2
 14693 1d6a 7D       		.byte	0x7d
 14694 1d6b 10       		.sleb128 16
 14695 1d6c 8E080000 		.4byte	.LCFI47-.Ltext0
 14696 1d70 D0080000 		.4byte	.LCFI48-.Ltext0
 14697 1d74 0200     		.2byte	0x2
 14698 1d76 77       		.byte	0x77
 14699 1d77 10       		.sleb128 16
 14700 1d78 D0080000 		.4byte	.LCFI48-.Ltext0
 14701 1d7c D2080000 		.4byte	.LCFI49-.Ltext0
 14702 1d80 0200     		.2byte	0x2
 14703 1d82 77       		.byte	0x77
 14704 1d83 04       		.sleb128 4
 14705 1d84 D2080000 		.4byte	.LCFI49-.Ltext0
 14706 1d88 D4080000 		.4byte	.LCFI50-.Ltext0
 14707 1d8c 0200     		.2byte	0x2
 14708 1d8e 7D       		.byte	0x7d
 14709 1d8f 04       		.sleb128 4
 14710 1d90 D4080000 		.4byte	.LCFI50-.Ltext0
 14711 1d94 D6080000 		.4byte	.LFE37-.Ltext0
 14712 1d98 0200     		.2byte	0x2
 14713 1d9a 7D       		.byte	0x7d
 14714 1d9b 00       		.sleb128 0
 14715 1d9c 00000000 		.4byte	0
 14716 1da0 00000000 		.4byte	0
 14717              	.LLST7:
 14718 1da4 D0070000 		.4byte	.LFB36-.Ltext0
ARM GAS  G:\Users\Jaxb\AppData\Local\Temp\ccSQWSCJ.s 			page 311


 14719 1da8 D2070000 		.4byte	.LCFI40-.Ltext0
 14720 1dac 0200     		.2byte	0x2
 14721 1dae 7D       		.byte	0x7d
 14722 1daf 00       		.sleb128 0
 14723 1db0 D2070000 		.4byte	.LCFI40-.Ltext0
 14724 1db4 D4070000 		.4byte	.LCFI41-.Ltext0
 14725 1db8 0200     		.2byte	0x2
 14726 1dba 7D       		.byte	0x7d
 14727 1dbb 08       		.sleb128 8
 14728 1dbc D4070000 		.4byte	.LCFI41-.Ltext0
 14729 1dc0 D6070000 		.4byte	.LCFI42-.Ltext0
 14730 1dc4 0200     		.2byte	0x2
 14731 1dc6 7D       		.byte	0x7d
 14732 1dc7 18       		.sleb128 24
 14733 1dc8 D6070000 		.4byte	.LCFI42-.Ltext0
 14734 1dcc 84080000 		.4byte	.LCFI43-.Ltext0
 14735 1dd0 0200     		.2byte	0x2
 14736 1dd2 77       		.byte	0x77
 14737 1dd3 18       		.sleb128 24
 14738 1dd4 84080000 		.4byte	.LCFI43-.Ltext0
 14739 1dd8 86080000 		.4byte	.LCFI44-.Ltext0
 14740 1ddc 0200     		.2byte	0x2
 14741 1dde 77       		.byte	0x77
 14742 1ddf 08       		.sleb128 8
 14743 1de0 86080000 		.4byte	.LCFI44-.Ltext0
 14744 1de4 88080000 		.4byte	.LFE36-.Ltext0
 14745 1de8 0200     		.2byte	0x2
 14746 1dea 7D       		.byte	0x7d
 14747 1deb 08       		.sleb128 8
 14748 1dec 00000000 		.4byte	0
 14749 1df0 00000000 		.4byte	0
 14750              	.LLST6:
 14751 1df4 28070000 		.4byte	.LFB35-.Ltext0
 14752 1df8 2A070000 		.4byte	.LCFI35-.Ltext0
 14753 1dfc 0200     		.2byte	0x2
 14754 1dfe 7D       		.byte	0x7d
 14755 1dff 00       		.sleb128 0
 14756 1e00 2A070000 		.4byte	.LCFI35-.Ltext0
 14757 1e04 2C070000 		.4byte	.LCFI36-.Ltext0
 14758 1e08 0200     		.2byte	0x2
 14759 1e0a 7D       		.byte	0x7d
 14760 1e0b 08       		.sleb128 8
 14761 1e0c 2C070000 		.4byte	.LCFI36-.Ltext0
 14762 1e10 2E070000 		.4byte	.LCFI37-.Ltext0
 14763 1e14 0200     		.2byte	0x2
 14764 1e16 7D       		.byte	0x7d
 14765 1e17 10       		.sleb128 16
 14766 1e18 2E070000 		.4byte	.LCFI37-.Ltext0
 14767 1e1c CC070000 		.4byte	.LCFI38-.Ltext0
 14768 1e20 0200     		.2byte	0x2
 14769 1e22 77       		.byte	0x77
 14770 1e23 10       		.sleb128 16
 14771 1e24 CC070000 		.4byte	.LCFI38-.Ltext0
 14772 1e28 CE070000 		.4byte	.LCFI39-.Ltext0
 14773 1e2c 0200     		.2byte	0x2
 14774 1e2e 77       		.byte	0x77
 14775 1e2f 08       		.sleb128 8
ARM GAS  G:\Users\Jaxb\AppData\Local\Temp\ccSQWSCJ.s 			page 312


 14776 1e30 CE070000 		.4byte	.LCFI39-.Ltext0
 14777 1e34 D0070000 		.4byte	.LFE35-.Ltext0
 14778 1e38 0200     		.2byte	0x2
 14779 1e3a 7D       		.byte	0x7d
 14780 1e3b 08       		.sleb128 8
 14781 1e3c 00000000 		.4byte	0
 14782 1e40 00000000 		.4byte	0
 14783              	.LLST5:
 14784 1e44 58060000 		.4byte	.LFB34-.Ltext0
 14785 1e48 5A060000 		.4byte	.LCFI29-.Ltext0
 14786 1e4c 0200     		.2byte	0x2
 14787 1e4e 7D       		.byte	0x7d
 14788 1e4f 00       		.sleb128 0
 14789 1e50 5A060000 		.4byte	.LCFI29-.Ltext0
 14790 1e54 5C060000 		.4byte	.LCFI30-.Ltext0
 14791 1e58 0200     		.2byte	0x2
 14792 1e5a 7D       		.byte	0x7d
 14793 1e5b 04       		.sleb128 4
 14794 1e5c 5C060000 		.4byte	.LCFI30-.Ltext0
 14795 1e60 5E060000 		.4byte	.LCFI31-.Ltext0
 14796 1e64 0200     		.2byte	0x2
 14797 1e66 7D       		.byte	0x7d
 14798 1e67 18       		.sleb128 24
 14799 1e68 5E060000 		.4byte	.LCFI31-.Ltext0
 14800 1e6c 18070000 		.4byte	.LCFI32-.Ltext0
 14801 1e70 0200     		.2byte	0x2
 14802 1e72 77       		.byte	0x77
 14803 1e73 18       		.sleb128 24
 14804 1e74 18070000 		.4byte	.LCFI32-.Ltext0
 14805 1e78 1A070000 		.4byte	.LCFI33-.Ltext0
 14806 1e7c 0200     		.2byte	0x2
 14807 1e7e 77       		.byte	0x77
 14808 1e7f 04       		.sleb128 4
 14809 1e80 1A070000 		.4byte	.LCFI33-.Ltext0
 14810 1e84 1C070000 		.4byte	.LCFI34-.Ltext0
 14811 1e88 0200     		.2byte	0x2
 14812 1e8a 7D       		.byte	0x7d
 14813 1e8b 04       		.sleb128 4
 14814 1e8c 1C070000 		.4byte	.LCFI34-.Ltext0
 14815 1e90 28070000 		.4byte	.LFE34-.Ltext0
 14816 1e94 0200     		.2byte	0x2
 14817 1e96 7D       		.byte	0x7d
 14818 1e97 00       		.sleb128 0
 14819 1e98 00000000 		.4byte	0
 14820 1e9c 00000000 		.4byte	0
 14821              	.LLST4:
 14822 1ea0 4C050000 		.4byte	.LFB33-.Ltext0
 14823 1ea4 4E050000 		.4byte	.LCFI23-.Ltext0
 14824 1ea8 0200     		.2byte	0x2
 14825 1eaa 7D       		.byte	0x7d
 14826 1eab 00       		.sleb128 0
 14827 1eac 4E050000 		.4byte	.LCFI23-.Ltext0
 14828 1eb0 50050000 		.4byte	.LCFI24-.Ltext0
 14829 1eb4 0200     		.2byte	0x2
 14830 1eb6 7D       		.byte	0x7d
 14831 1eb7 04       		.sleb128 4
 14832 1eb8 50050000 		.4byte	.LCFI24-.Ltext0
ARM GAS  G:\Users\Jaxb\AppData\Local\Temp\ccSQWSCJ.s 			page 313


 14833 1ebc 52050000 		.4byte	.LCFI25-.Ltext0
 14834 1ec0 0200     		.2byte	0x2
 14835 1ec2 7D       		.byte	0x7d
 14836 1ec3 18       		.sleb128 24
 14837 1ec4 52050000 		.4byte	.LCFI25-.Ltext0
 14838 1ec8 48060000 		.4byte	.LCFI26-.Ltext0
 14839 1ecc 0200     		.2byte	0x2
 14840 1ece 77       		.byte	0x77
 14841 1ecf 18       		.sleb128 24
 14842 1ed0 48060000 		.4byte	.LCFI26-.Ltext0
 14843 1ed4 4A060000 		.4byte	.LCFI27-.Ltext0
 14844 1ed8 0200     		.2byte	0x2
 14845 1eda 77       		.byte	0x77
 14846 1edb 04       		.sleb128 4
 14847 1edc 4A060000 		.4byte	.LCFI27-.Ltext0
 14848 1ee0 4C060000 		.4byte	.LCFI28-.Ltext0
 14849 1ee4 0200     		.2byte	0x2
 14850 1ee6 7D       		.byte	0x7d
 14851 1ee7 04       		.sleb128 4
 14852 1ee8 4C060000 		.4byte	.LCFI28-.Ltext0
 14853 1eec 58060000 		.4byte	.LFE33-.Ltext0
 14854 1ef0 0200     		.2byte	0x2
 14855 1ef2 7D       		.byte	0x7d
 14856 1ef3 00       		.sleb128 0
 14857 1ef4 00000000 		.4byte	0
 14858 1ef8 00000000 		.4byte	0
 14859              	.LLST3:
 14860 1efc 3C040000 		.4byte	.LFB32-.Ltext0
 14861 1f00 3E040000 		.4byte	.LCFI17-.Ltext0
 14862 1f04 0200     		.2byte	0x2
 14863 1f06 7D       		.byte	0x7d
 14864 1f07 00       		.sleb128 0
 14865 1f08 3E040000 		.4byte	.LCFI17-.Ltext0
 14866 1f0c 40040000 		.4byte	.LCFI18-.Ltext0
 14867 1f10 0200     		.2byte	0x2
 14868 1f12 7D       		.byte	0x7d
 14869 1f13 04       		.sleb128 4
 14870 1f14 40040000 		.4byte	.LCFI18-.Ltext0
 14871 1f18 42040000 		.4byte	.LCFI19-.Ltext0
 14872 1f1c 0200     		.2byte	0x2
 14873 1f1e 7D       		.byte	0x7d
 14874 1f1f 18       		.sleb128 24
 14875 1f20 42040000 		.4byte	.LCFI19-.Ltext0
 14876 1f24 3C050000 		.4byte	.LCFI20-.Ltext0
 14877 1f28 0200     		.2byte	0x2
 14878 1f2a 77       		.byte	0x77
 14879 1f2b 18       		.sleb128 24
 14880 1f2c 3C050000 		.4byte	.LCFI20-.Ltext0
 14881 1f30 3E050000 		.4byte	.LCFI21-.Ltext0
 14882 1f34 0200     		.2byte	0x2
 14883 1f36 77       		.byte	0x77
 14884 1f37 04       		.sleb128 4
 14885 1f38 3E050000 		.4byte	.LCFI21-.Ltext0
 14886 1f3c 40050000 		.4byte	.LCFI22-.Ltext0
 14887 1f40 0200     		.2byte	0x2
 14888 1f42 7D       		.byte	0x7d
 14889 1f43 04       		.sleb128 4
ARM GAS  G:\Users\Jaxb\AppData\Local\Temp\ccSQWSCJ.s 			page 314


 14890 1f44 40050000 		.4byte	.LCFI22-.Ltext0
 14891 1f48 4C050000 		.4byte	.LFE32-.Ltext0
 14892 1f4c 0200     		.2byte	0x2
 14893 1f4e 7D       		.byte	0x7d
 14894 1f4f 00       		.sleb128 0
 14895 1f50 00000000 		.4byte	0
 14896 1f54 00000000 		.4byte	0
 14897              	.LLST2:
 14898 1f58 24030000 		.4byte	.LFB31-.Ltext0
 14899 1f5c 26030000 		.4byte	.LCFI11-.Ltext0
 14900 1f60 0200     		.2byte	0x2
 14901 1f62 7D       		.byte	0x7d
 14902 1f63 00       		.sleb128 0
 14903 1f64 26030000 		.4byte	.LCFI11-.Ltext0
 14904 1f68 28030000 		.4byte	.LCFI12-.Ltext0
 14905 1f6c 0200     		.2byte	0x2
 14906 1f6e 7D       		.byte	0x7d
 14907 1f6f 04       		.sleb128 4
 14908 1f70 28030000 		.4byte	.LCFI12-.Ltext0
 14909 1f74 2A030000 		.4byte	.LCFI13-.Ltext0
 14910 1f78 0200     		.2byte	0x2
 14911 1f7a 7D       		.byte	0x7d
 14912 1f7b 18       		.sleb128 24
 14913 1f7c 2A030000 		.4byte	.LCFI13-.Ltext0
 14914 1f80 20040000 		.4byte	.LCFI14-.Ltext0
 14915 1f84 0200     		.2byte	0x2
 14916 1f86 77       		.byte	0x77
 14917 1f87 18       		.sleb128 24
 14918 1f88 20040000 		.4byte	.LCFI14-.Ltext0
 14919 1f8c 22040000 		.4byte	.LCFI15-.Ltext0
 14920 1f90 0200     		.2byte	0x2
 14921 1f92 77       		.byte	0x77
 14922 1f93 04       		.sleb128 4
 14923 1f94 22040000 		.4byte	.LCFI15-.Ltext0
 14924 1f98 24040000 		.4byte	.LCFI16-.Ltext0
 14925 1f9c 0200     		.2byte	0x2
 14926 1f9e 7D       		.byte	0x7d
 14927 1f9f 04       		.sleb128 4
 14928 1fa0 24040000 		.4byte	.LCFI16-.Ltext0
 14929 1fa4 3C040000 		.4byte	.LFE31-.Ltext0
 14930 1fa8 0200     		.2byte	0x2
 14931 1faa 7D       		.byte	0x7d
 14932 1fab 00       		.sleb128 0
 14933 1fac 00000000 		.4byte	0
 14934 1fb0 00000000 		.4byte	0
 14935              	.LLST1:
 14936 1fb4 2C020000 		.4byte	.LFB30-.Ltext0
 14937 1fb8 2E020000 		.4byte	.LCFI5-.Ltext0
 14938 1fbc 0200     		.2byte	0x2
 14939 1fbe 7D       		.byte	0x7d
 14940 1fbf 00       		.sleb128 0
 14941 1fc0 2E020000 		.4byte	.LCFI5-.Ltext0
 14942 1fc4 30020000 		.4byte	.LCFI6-.Ltext0
 14943 1fc8 0200     		.2byte	0x2
 14944 1fca 7D       		.byte	0x7d
 14945 1fcb 04       		.sleb128 4
 14946 1fcc 30020000 		.4byte	.LCFI6-.Ltext0
ARM GAS  G:\Users\Jaxb\AppData\Local\Temp\ccSQWSCJ.s 			page 315


 14947 1fd0 32020000 		.4byte	.LCFI7-.Ltext0
 14948 1fd4 0200     		.2byte	0x2
 14949 1fd6 7D       		.byte	0x7d
 14950 1fd7 18       		.sleb128 24
 14951 1fd8 32020000 		.4byte	.LCFI7-.Ltext0
 14952 1fdc F6020000 		.4byte	.LCFI8-.Ltext0
 14953 1fe0 0200     		.2byte	0x2
 14954 1fe2 77       		.byte	0x77
 14955 1fe3 18       		.sleb128 24
 14956 1fe4 F6020000 		.4byte	.LCFI8-.Ltext0
 14957 1fe8 F8020000 		.4byte	.LCFI9-.Ltext0
 14958 1fec 0200     		.2byte	0x2
 14959 1fee 77       		.byte	0x77
 14960 1fef 04       		.sleb128 4
 14961 1ff0 F8020000 		.4byte	.LCFI9-.Ltext0
 14962 1ff4 FA020000 		.4byte	.LCFI10-.Ltext0
 14963 1ff8 0200     		.2byte	0x2
 14964 1ffa 7D       		.byte	0x7d
 14965 1ffb 04       		.sleb128 4
 14966 1ffc FA020000 		.4byte	.LCFI10-.Ltext0
 14967 2000 24030000 		.4byte	.LFE30-.Ltext0
 14968 2004 0200     		.2byte	0x2
 14969 2006 7D       		.byte	0x7d
 14970 2007 00       		.sleb128 0
 14971 2008 00000000 		.4byte	0
 14972 200c 00000000 		.4byte	0
 14973              	.LLST0:
 14974 2010 00000000 		.4byte	.LFB29-.Ltext0
 14975 2014 02000000 		.4byte	.LCFI0-.Ltext0
 14976 2018 0200     		.2byte	0x2
 14977 201a 7D       		.byte	0x7d
 14978 201b 00       		.sleb128 0
 14979 201c 02000000 		.4byte	.LCFI0-.Ltext0
 14980 2020 04000000 		.4byte	.LCFI1-.Ltext0
 14981 2024 0200     		.2byte	0x2
 14982 2026 7D       		.byte	0x7d
 14983 2027 08       		.sleb128 8
 14984 2028 04000000 		.4byte	.LCFI1-.Ltext0
 14985 202c 06000000 		.4byte	.LCFI2-.Ltext0
 14986 2030 0200     		.2byte	0x2
 14987 2032 7D       		.byte	0x7d
 14988 2033 10       		.sleb128 16
 14989 2034 06000000 		.4byte	.LCFI2-.Ltext0
 14990 2038 E8010000 		.4byte	.LCFI3-.Ltext0
 14991 203c 0200     		.2byte	0x2
 14992 203e 77       		.byte	0x77
 14993 203f 10       		.sleb128 16
 14994 2040 E8010000 		.4byte	.LCFI3-.Ltext0
 14995 2044 EA010000 		.4byte	.LCFI4-.Ltext0
 14996 2048 0200     		.2byte	0x2
 14997 204a 77       		.byte	0x77
 14998 204b 08       		.sleb128 8
 14999 204c EA010000 		.4byte	.LCFI4-.Ltext0
 15000 2050 2C020000 		.4byte	.LFE29-.Ltext0
 15001 2054 0200     		.2byte	0x2
 15002 2056 7D       		.byte	0x7d
 15003 2057 08       		.sleb128 8
ARM GAS  G:\Users\Jaxb\AppData\Local\Temp\ccSQWSCJ.s 			page 316


 15004 2058 00000000 		.4byte	0
 15005 205c 00000000 		.4byte	0
 15006              		.section	.debug_aranges,"",%progbits
 15007 0000 1C000000 		.4byte	0x1c
 15008 0004 0200     		.2byte	0x2
 15009 0006 00000000 		.4byte	.Ldebug_info0
 15010 000a 04       		.byte	0x4
 15011 000b 00       		.byte	0
 15012 000c 0000     		.2byte	0
 15013 000e 0000     		.2byte	0
 15014 0010 00000000 		.4byte	.Ltext0
 15015 0014 901D0000 		.4byte	.Letext0-.Ltext0
 15016 0018 00000000 		.4byte	0
 15017 001c 00000000 		.4byte	0
 15018              		.section	.debug_line,"",%progbits
 15019              	.Ldebug_line0:
 15020 0000 05060000 		.section	.debug_str,"MS",%progbits,1
 15020      02002E01 
 15020      00000201 
 15020      FB0E0D00 
 15020      01010101 
 15021              	.LASF133:
 15022 0000 54494D5F 		.ascii	"TIM_OPMode\000"
 15022      4F504D6F 
 15022      646500
 15023              	.LASF135:
 15024 000b 4E657753 		.ascii	"NewState\000"
 15024      74617465 
 15024      00
 15025              	.LASF174:
 15026 0014 54494D5F 		.ascii	"TIM_ForcedOC2Config\000"
 15026      466F7263 
 15026      65644F43 
 15026      32436F6E 
 15026      66696700 
 15027              	.LASF132:
 15028 0028 54494D5F 		.ascii	"TIM_SelectOnePulseMode\000"
 15028      53656C65 
 15028      63744F6E 
 15028      6550756C 
 15028      73654D6F 
 15029              	.LASF199:
 15030 003f 54494D5F 		.ascii	"TIM_DMACmd\000"
 15030      444D4143 
 15030      6D6400
 15031              	.LASF27:
 15032 004a 44494552 		.ascii	"DIER\000"
 15032      00
 15033              	.LASF182:
 15034 004f 54494D5F 		.ascii	"TIM_InputTriggerSource\000"
 15034      496E7075 
 15034      74547269 
 15034      67676572 
 15034      536F7572 
 15035              	.LASF131:
 15036 0066 54494D5F 		.ascii	"TIM_TRGOSource\000"
 15036      5452474F 
ARM GAS  G:\Users\Jaxb\AppData\Local\Temp\ccSQWSCJ.s 			page 317


 15036      536F7572 
 15036      636500
 15037              	.LASF56:
 15038 0075 54494D5F 		.ascii	"TIM_CounterMode\000"
 15038      436F756E 
 15038      7465724D 
 15038      6F646500 
 15039              	.LASF123:
 15040 0085 4175746F 		.ascii	"Autoreload\000"
 15040      72656C6F 
 15040      616400
 15041              	.LASF171:
 15042 0090 54494D5F 		.ascii	"TIM_ForcedOC4Config\000"
 15042      466F7263 
 15042      65644F43 
 15042      34436F6E 
 15042      66696700 
 15043              	.LASF156:
 15044 00a4 54494D5F 		.ascii	"TIM_ClearOC1Ref\000"
 15044      436C6561 
 15044      724F4331 
 15044      52656600 
 15045              	.LASF18:
 15046 00b4 466C6167 		.ascii	"FlagStatus\000"
 15046      53746174 
 15046      757300
 15047              	.LASF3:
 15048 00bf 5F5F7569 		.ascii	"__uint8_t\000"
 15048      6E74385F 
 15048      7400
 15049              	.LASF98:
 15050 00c9 54494D5F 		.ascii	"TIM_FLAG\000"
 15050      464C4147 
 15050      00
 15051              	.LASF121:
 15052 00d2 436F6D70 		.ascii	"Compare1\000"
 15052      61726531 
 15052      00
 15053              	.LASF120:
 15054 00db 54494D5F 		.ascii	"TIM_SetCompare1\000"
 15054      53657443 
 15054      6F6D7061 
 15054      72653100 
 15055              	.LASF179:
 15056 00eb 54494D5F 		.ascii	"TIM_IC2Polarity\000"
 15056      49433250 
 15056      6F6C6172 
 15056      69747900 
 15057              	.LASF138:
 15058 00fb 54494D5F 		.ascii	"TIM_UpdateDisableConfig\000"
 15058      55706461 
 15058      74654469 
 15058      7361626C 
 15058      65436F6E 
 15059              	.LASF117:
 15060 0113 436F6D70 		.ascii	"Compare3\000"
 15060      61726533 
ARM GAS  G:\Users\Jaxb\AppData\Local\Temp\ccSQWSCJ.s 			page 318


 15060      00
 15061              	.LASF64:
 15062 011c 54494D5F 		.ascii	"TIM_Pulse\000"
 15062      50756C73 
 15062      6500
 15063              	.LASF90:
 15064 0126 746D7063 		.ascii	"tmpccmr1\000"
 15064      636D7231 
 15064      00
 15065              	.LASF85:
 15066 012f 746D7063 		.ascii	"tmpccmr2\000"
 15066      636D7232 
 15066      00
 15067              	.LASF184:
 15068 0138 746D7063 		.ascii	"tmpcr1\000"
 15068      723100
 15069              	.LASF20:
 15070 013f 44495341 		.ascii	"DISABLE\000"
 15070      424C4500 
 15071              	.LASF224:
 15072 0147 746D7063 		.ascii	"tmpcr2\000"
 15072      723200
 15073              	.LASF181:
 15074 014e 54494D5F 		.ascii	"TIM_SelectInputTrigger\000"
 15074      53656C65 
 15074      6374496E 
 15074      70757454 
 15074      72696767 
 15075              	.LASF230:
 15076 0165 2E2E2F2E 		.ascii	"../../source/src/FWlib/src/stm32f10x_tim.c\000"
 15076      2E2F736F 
 15076      75726365 
 15076      2F737263 
 15076      2F46576C 
 15077              	.LASF74:
 15078 0190 54494D5F 		.ascii	"TIM_ICFilter\000"
 15078      49434669 
 15078      6C746572 
 15078      00
 15079              	.LASF198:
 15080 019d 54494D5F 		.ascii	"TIM_InternalClockConfig\000"
 15080      496E7465 
 15080      726E616C 
 15080      436C6F63 
 15080      6B436F6E 
 15081              	.LASF149:
 15082 01b5 54494D5F 		.ascii	"TIM_OC2PolarityConfig\000"
 15082      4F433250 
 15082      6F6C6172 
 15082      69747943 
 15082      6F6E6669 
 15083              	.LASF170:
 15084 01cb 54494D5F 		.ascii	"TIM_ARRPreloadConfig\000"
 15084      41525250 
 15084      72656C6F 
 15084      6164436F 
 15084      6E666967 
ARM GAS  G:\Users\Jaxb\AppData\Local\Temp\ccSQWSCJ.s 			page 319


 15085              	.LASF15:
 15086 01e0 49544D5F 		.ascii	"ITM_RxBuffer\000"
 15086      52784275 
 15086      66666572 
 15086      00
 15087              	.LASF72:
 15088 01ed 54494D5F 		.ascii	"TIM_ICSelection\000"
 15088      49435365 
 15088      6C656374 
 15088      696F6E00 
 15089              	.LASF140:
 15090 01fd 746D7031 		.ascii	"tmp1\000"
 15090      00
 15091              	.LASF176:
 15092 0202 54494D5F 		.ascii	"TIM_EncoderInterfaceConfig\000"
 15092      456E636F 
 15092      64657249 
 15092      6E746572 
 15092      66616365 
 15093              	.LASF165:
 15094 021d 54494D5F 		.ascii	"TIM_OC2PreloadConfig\000"
 15094      4F433250 
 15094      72656C6F 
 15094      6164436F 
 15094      6E666967 
 15095              	.LASF204:
 15096 0232 54494D5F 		.ascii	"TIM_GenerateEvent\000"
 15096      47656E65 
 15096      72617465 
 15096      4576656E 
 15096      7400
 15097              	.LASF178:
 15098 0244 54494D5F 		.ascii	"TIM_IC1Polarity\000"
 15098      49433150 
 15098      6F6C6172 
 15098      69747900 
 15099              	.LASF158:
 15100 0254 54494D5F 		.ascii	"TIM_OCFast\000"
 15100      4F434661 
 15100      737400
 15101              	.LASF70:
 15102 025f 54494D5F 		.ascii	"TIM_Channel\000"
 15102      4368616E 
 15102      6E656C00 
 15103              	.LASF31:
 15104 026b 43434D52 		.ascii	"CCMR1\000"
 15104      3100
 15105              	.LASF33:
 15106 0271 43434D52 		.ascii	"CCMR2\000"
 15106      3200
 15107              	.LASF183:
 15108 0277 54494D5F 		.ascii	"TIM_CounterModeConfig\000"
 15108      436F756E 
 15108      7465724D 
 15108      6F646543 
 15108      6F6E6669 
 15109              	.LASF0:
ARM GAS  G:\Users\Jaxb\AppData\Local\Temp\ccSQWSCJ.s 			page 320


 15110 028d 7369676E 		.ascii	"signed char\000"
 15110      65642063 
 15110      68617200 
 15111              	.LASF172:
 15112 0299 54494D5F 		.ascii	"TIM_ForcedAction\000"
 15112      466F7263 
 15112      65644163 
 15112      74696F6E 
 15112      00
 15113              	.LASF143:
 15114 02aa 54494D5F 		.ascii	"TIM_CCxCmd\000"
 15114      43437843 
 15114      6D6400
 15115              	.LASF10:
 15116 02b5 6C6F6E67 		.ascii	"long long unsigned int\000"
 15116      206C6F6E 
 15116      6720756E 
 15116      7369676E 
 15116      65642069 
 15117              	.LASF163:
 15118 02cc 54494D5F 		.ascii	"TIM_OCPreload\000"
 15118      4F435072 
 15118      656C6F61 
 15118      6400
 15119              	.LASF38:
 15120 02da 52455345 		.ascii	"RESERVED10\000"
 15120      52564544 
 15120      313000
 15121              	.LASF39:
 15122 02e5 52455345 		.ascii	"RESERVED11\000"
 15122      52564544 
 15122      313100
 15123              	.LASF40:
 15124 02f0 52455345 		.ascii	"RESERVED12\000"
 15124      52564544 
 15124      313200
 15125              	.LASF42:
 15126 02fb 52455345 		.ascii	"RESERVED13\000"
 15126      52564544 
 15126      313300
 15127              	.LASF44:
 15128 0306 52455345 		.ascii	"RESERVED14\000"
 15128      52564544 
 15128      313400
 15129              	.LASF46:
 15130 0311 52455345 		.ascii	"RESERVED15\000"
 15130      52564544 
 15130      313500
 15131              	.LASF48:
 15132 031c 52455345 		.ascii	"RESERVED16\000"
 15132      52564544 
 15132      313600
 15133              	.LASF50:
 15134 0327 52455345 		.ascii	"RESERVED17\000"
 15134      52564544 
 15134      313700
 15135              	.LASF193:
ARM GAS  G:\Users\Jaxb\AppData\Local\Temp\ccSQWSCJ.s 			page 321


 15136 0332 54494D5F 		.ascii	"TIM_ETRClockMode1Config\000"
 15136      45545243 
 15136      6C6F636B 
 15136      4D6F6465 
 15136      31436F6E 
 15137              	.LASF53:
 15138 034a 52455345 		.ascii	"RESERVED19\000"
 15138      52564544 
 15138      313900
 15139              	.LASF6:
 15140 0355 6C6F6E67 		.ascii	"long int\000"
 15140      20696E74 
 15140      00
 15141              	.LASF63:
 15142 035e 54494D5F 		.ascii	"TIM_OutputNState\000"
 15142      4F757470 
 15142      75744E53 
 15142      74617465 
 15142      00
 15143              	.LASF21:
 15144 036f 454E4142 		.ascii	"ENABLE\000"
 15144      4C4500
 15145              	.LASF223:
 15146 0376 746D7063 		.ascii	"tmpccmrx\000"
 15146      636D7278 
 15146      00
 15147              	.LASF35:
 15148 037f 43434552 		.ascii	"CCER\000"
 15148      00
 15149              	.LASF9:
 15150 0384 6C6F6E67 		.ascii	"long long int\000"
 15150      206C6F6E 
 15150      6720696E 
 15150      7400
 15151              	.LASF13:
 15152 0392 75696E74 		.ascii	"uint16_t\000"
 15152      31365F74 
 15152      00
 15153              	.LASF108:
 15154 039b 54494D5F 		.ascii	"TIM_CKD\000"
 15154      434B4400 
 15155              	.LASF122:
 15156 03a3 54494D5F 		.ascii	"TIM_SetAutoreload\000"
 15156      53657441 
 15156      75746F72 
 15156      656C6F61 
 15156      6400
 15157              	.LASF211:
 15158 03b5 54494D5F 		.ascii	"TIM_ICStructInit\000"
 15158      49435374 
 15158      72756374 
 15158      496E6974 
 15158      00
 15159              	.LASF105:
 15160 03c6 54494D5F 		.ascii	"TIM_GetCapture2\000"
 15160      47657443 
 15160      61707475 
ARM GAS  G:\Users\Jaxb\AppData\Local\Temp\ccSQWSCJ.s 			page 322


 15160      72653200 
 15161              	.LASF104:
 15162 03d6 54494D5F 		.ascii	"TIM_GetCapture3\000"
 15162      47657443 
 15162      61707475 
 15162      72653300 
 15163              	.LASF103:
 15164 03e6 54494D5F 		.ascii	"TIM_GetCapture4\000"
 15164      47657443 
 15164      61707475 
 15164      72653400 
 15165              	.LASF225:
 15166 03f6 54494D5F 		.ascii	"TIM_OC3Init\000"
 15166      4F433349 
 15166      6E697400 
 15167              	.LASF219:
 15168 0402 69636F70 		.ascii	"icoppositepolarity\000"
 15168      706F7369 
 15168      7465706F 
 15168      6C617269 
 15168      747900
 15169              	.LASF137:
 15170 0415 54494D5F 		.ascii	"TIM_UpdateSource\000"
 15170      55706461 
 15170      7465536F 
 15170      75726365 
 15170      00
 15171              	.LASF142:
 15172 0426 54494D5F 		.ascii	"TIM_CCxN\000"
 15172      4343784E 
 15172      00
 15173              	.LASF168:
 15174 042f 54494D5F 		.ascii	"TIM_SelectCCDMA\000"
 15174      53656C65 
 15174      63744343 
 15174      444D4100 
 15175              	.LASF4:
 15176 043f 5F5F7569 		.ascii	"__uint16_t\000"
 15176      6E743136 
 15176      5F7400
 15177              	.LASF54:
 15178 044a 54494D5F 		.ascii	"TIM_TypeDef\000"
 15178      54797065 
 15178      44656600 
 15179              	.LASF7:
 15180 0456 5F5F7569 		.ascii	"__uint32_t\000"
 15180      6E743332 
 15180      5F7400
 15181              	.LASF166:
 15182 0461 54494D5F 		.ascii	"TIM_OC1PreloadConfig\000"
 15182      4F433150 
 15182      72656C6F 
 15182      6164436F 
 15182      6E666967 
 15183              	.LASF203:
 15184 0476 54494D5F 		.ascii	"TIM_DMABurstLength\000"
 15184      444D4142 
ARM GAS  G:\Users\Jaxb\AppData\Local\Temp\ccSQWSCJ.s 			page 323


 15184      75727374 
 15184      4C656E67 
 15184      746800
 15185              	.LASF97:
 15186 0489 54494D5F 		.ascii	"TIM_ClearFlag\000"
 15186      436C6561 
 15186      72466C61 
 15186      6700
 15187              	.LASF118:
 15188 0497 54494D5F 		.ascii	"TIM_SetCompare2\000"
 15188      53657443 
 15188      6F6D7061 
 15188      72653200 
 15189              	.LASF116:
 15190 04a7 54494D5F 		.ascii	"TIM_SetCompare3\000"
 15190      53657443 
 15190      6F6D7061 
 15190      72653300 
 15191              	.LASF169:
 15192 04b7 54494D5F 		.ascii	"TIM_SelectCOM\000"
 15192      53656C65 
 15192      6374434F 
 15192      4D00
 15193              	.LASF86:
 15194 04c5 746D7063 		.ascii	"tmpccer\000"
 15194      63657200 
 15195              	.LASF148:
 15196 04cd 54494D5F 		.ascii	"TIM_OC2NPolarityConfig\000"
 15196      4F43324E 
 15196      506F6C61 
 15196      72697479 
 15196      436F6E66 
 15197              	.LASF11:
 15198 04e4 756E7369 		.ascii	"unsigned int\000"
 15198      676E6564 
 15198      20696E74 
 15198      00
 15199              	.LASF87:
 15200 04f1 5449345F 		.ascii	"TI4_Config\000"
 15200      436F6E66 
 15200      696700
 15201              	.LASF65:
 15202 04fc 54494D5F 		.ascii	"TIM_OCPolarity\000"
 15202      4F43506F 
 15202      6C617269 
 15202      747900
 15203              	.LASF58:
 15204 050b 54494D5F 		.ascii	"TIM_ClockDivision\000"
 15204      436C6F63 
 15204      6B446976 
 15204      6973696F 
 15204      6E00
 15205              	.LASF101:
 15206 051d 54494D5F 		.ascii	"TIM_GetPrescaler\000"
 15206      47657450 
 15206      72657363 
 15206      616C6572 
ARM GAS  G:\Users\Jaxb\AppData\Local\Temp\ccSQWSCJ.s 			page 324


 15206      00
 15207              	.LASF102:
 15208 052e 54494D5F 		.ascii	"TIM_GetCounter\000"
 15208      47657443 
 15208      6F756E74 
 15208      657200
 15209              	.LASF215:
 15210 053d 54494D5F 		.ascii	"TIM_TimeBaseStructInit\000"
 15210      54696D65 
 15210      42617365 
 15210      53747275 
 15210      6374496E 
 15211              	.LASF106:
 15212 0554 54494D5F 		.ascii	"TIM_GetCapture1\000"
 15212      47657443 
 15212      61707475 
 15212      72653100 
 15213              	.LASF127:
 15214 0564 54494D5F 		.ascii	"TIM_MasterSlaveMode\000"
 15214      4D617374 
 15214      6572536C 
 15214      6176654D 
 15214      6F646500 
 15215              	.LASF128:
 15216 0578 54494D5F 		.ascii	"TIM_SelectSlaveMode\000"
 15216      53656C65 
 15216      6374536C 
 15216      6176654D 
 15216      6F646500 
 15217              	.LASF126:
 15218 058c 54494D5F 		.ascii	"TIM_SelectMasterSlaveMode\000"
 15218      53656C65 
 15218      63744D61 
 15218      73746572 
 15218      536C6176 
 15219              	.LASF100:
 15220 05a6 54494D5F 		.ascii	"TIM_GetFlagStatus\000"
 15220      47657446 
 15220      6C616753 
 15220      74617475 
 15220      7300
 15221              	.LASF83:
 15222 05b8 54494D5F 		.ascii	"TIM_BDTRInitTypeDef\000"
 15222      42445452 
 15222      496E6974 
 15222      54797065 
 15222      44656600 
 15223              	.LASF214:
 15224 05cc 54494D5F 		.ascii	"TIM_OCInitStruct\000"
 15224      4F43496E 
 15224      69745374 
 15224      72756374 
 15224      00
 15225              	.LASF25:
 15226 05dd 534D4352 		.ascii	"SMCR\000"
 15226      00
 15227              	.LASF76:
ARM GAS  G:\Users\Jaxb\AppData\Local\Temp\ccSQWSCJ.s 			page 325


 15228 05e2 54494D5F 		.ascii	"TIM_OSSRState\000"
 15228      4F535352 
 15228      53746174 
 15228      6500
 15229              	.LASF84:
 15230 05f0 54494D78 		.ascii	"TIMx\000"
 15230      00
 15231              	.LASF177:
 15232 05f5 54494D5F 		.ascii	"TIM_EncoderMode\000"
 15232      456E636F 
 15232      6465724D 
 15232      6F646500 
 15233              	.LASF145:
 15234 0605 54494D5F 		.ascii	"TIM_OC4PolarityConfig\000"
 15234      4F433450 
 15234      6F6C6172 
 15234      69747943 
 15234      6F6E6669 
 15235              	.LASF82:
 15236 061b 54494D5F 		.ascii	"TIM_AutomaticOutput\000"
 15236      4175746F 
 15236      6D617469 
 15236      634F7574 
 15236      70757400 
 15237              	.LASF130:
 15238 062f 54494D5F 		.ascii	"TIM_SelectOutputTrigger\000"
 15238      53656C65 
 15238      63744F75 
 15238      74707574 
 15238      54726967 
 15239              	.LASF113:
 15240 0647 54494D5F 		.ascii	"TIM_SetIC1Prescaler\000"
 15240      53657449 
 15240      43315072 
 15240      65736361 
 15240      6C657200 
 15241              	.LASF218:
 15242 065b 54494D5F 		.ascii	"TIM_PWMIConfig\000"
 15242      50574D49 
 15242      436F6E66 
 15242      696700
 15243              	.LASF88:
 15244 066a 5449335F 		.ascii	"TI3_Config\000"
 15244      436F6E66 
 15244      696700
 15245              	.LASF200:
 15246 0675 54494D5F 		.ascii	"TIM_DMASource\000"
 15246      444D4153 
 15246      6F757263 
 15246      6500
 15247              	.LASF213:
 15248 0683 54494D5F 		.ascii	"TIM_OCStructInit\000"
 15248      4F435374 
 15248      72756374 
 15248      496E6974 
 15248      00
 15249              	.LASF187:
ARM GAS  G:\Users\Jaxb\AppData\Local\Temp\ccSQWSCJ.s 			page 326


 15250 0694 54494D5F 		.ascii	"TIM_PSCReloadMode\000"
 15250      50534352 
 15250      656C6F61 
 15250      644D6F64 
 15250      6500
 15251              	.LASF153:
 15252 06a6 54494D5F 		.ascii	"TIM_OCClear\000"
 15252      4F43436C 
 15252      65617200 
 15253              	.LASF17:
 15254 06b2 52455345 		.ascii	"RESET\000"
 15254      5400
 15255              	.LASF180:
 15256 06b8 746D7073 		.ascii	"tmpsmcr\000"
 15256      6D637200 
 15257              	.LASF190:
 15258 06c0 54494D5F 		.ascii	"TIM_ExtTRGPolarity\000"
 15258      45787454 
 15258      5247506F 
 15258      6C617269 
 15258      747900
 15259              	.LASF209:
 15260 06d3 54494D5F 		.ascii	"TIM_BDTRStructInit\000"
 15260      42445452 
 15260      53747275 
 15260      6374496E 
 15260      697400
 15261              	.LASF212:
 15262 06e6 54494D5F 		.ascii	"TIM_ICInitStruct\000"
 15262      4943496E 
 15262      69745374 
 15262      72756374 
 15262      00
 15263              	.LASF175:
 15264 06f7 54494D5F 		.ascii	"TIM_ForcedOC1Config\000"
 15264      466F7263 
 15264      65644F43 
 15264      31436F6E 
 15264      66696700 
 15265              	.LASF189:
 15266 070b 54494D5F 		.ascii	"TIM_ExtTRGPrescaler\000"
 15266      45787454 
 15266      52475072 
 15266      65736361 
 15266      6C657200 
 15267              	.LASF80:
 15268 071f 54494D5F 		.ascii	"TIM_Break\000"
 15268      42726561 
 15268      6B00
 15269              	.LASF79:
 15270 0729 54494D5F 		.ascii	"TIM_DeadTime\000"
 15270      44656164 
 15270      54696D65 
 15270      00
 15271              	.LASF151:
 15272 0736 54494D5F 		.ascii	"TIM_OC1PolarityConfig\000"
 15272      4F433150 
ARM GAS  G:\Users\Jaxb\AppData\Local\Temp\ccSQWSCJ.s 			page 327


 15272      6F6C6172 
 15272      69747943 
 15272      6F6E6669 
 15273              	.LASF173:
 15274 074c 54494D5F 		.ascii	"TIM_ForcedOC3Config\000"
 15274      466F7263 
 15274      65644F43 
 15274      33436F6E 
 15274      66696700 
 15275              	.LASF73:
 15276 0760 54494D5F 		.ascii	"TIM_ICPrescaler\000"
 15276      49435072 
 15276      65736361 
 15276      6C657200 
 15277              	.LASF141:
 15278 0770 54494D5F 		.ascii	"TIM_CCxNCmd\000"
 15278      4343784E 
 15278      436D6400 
 15279              	.LASF115:
 15280 077c 436F6D70 		.ascii	"Compare4\000"
 15280      61726534 
 15280      00
 15281              	.LASF68:
 15282 0785 54494D5F 		.ascii	"TIM_OCNIdleState\000"
 15282      4F434E49 
 15282      646C6553 
 15282      74617465 
 15282      00
 15283              	.LASF94:
 15284 0796 69747374 		.ascii	"itstatus\000"
 15284      61747573 
 15284      00
 15285              	.LASF202:
 15286 079f 54494D5F 		.ascii	"TIM_DMABase\000"
 15286      444D4142 
 15286      61736500 
 15287              	.LASF220:
 15288 07ab 69636F70 		.ascii	"icoppositeselection\000"
 15288      706F7369 
 15288      74657365 
 15288      6C656374 
 15288      696F6E00 
 15289              	.LASF22:
 15290 07bf 46756E63 		.ascii	"FunctionalState\000"
 15290      74696F6E 
 15290      616C5374 
 15290      61746500 
 15291              	.LASF114:
 15292 07cf 54494D5F 		.ascii	"TIM_SetCompare4\000"
 15292      53657443 
 15292      6F6D7061 
 15292      72653400 
 15293              	.LASF99:
 15294 07df 54494D5F 		.ascii	"TIM_GetITStatus\000"
 15294      47657449 
 15294      54537461 
 15294      74757300 
ARM GAS  G:\Users\Jaxb\AppData\Local\Temp\ccSQWSCJ.s 			page 328


 15295              	.LASF216:
 15296 07ef 54494D5F 		.ascii	"TIM_TimeBaseInitStruct\000"
 15296      54696D65 
 15296      42617365 
 15296      496E6974 
 15296      53747275 
 15297              	.LASF201:
 15298 0806 54494D5F 		.ascii	"TIM_DMAConfig\000"
 15298      444D4143 
 15298      6F6E6669 
 15298      6700
 15299              	.LASF107:
 15300 0814 54494D5F 		.ascii	"TIM_SetClockDivision\000"
 15300      53657443 
 15300      6C6F636B 
 15300      44697669 
 15300      73696F6E 
 15301              	.LASF144:
 15302 0829 54494D5F 		.ascii	"TIM_CCx\000"
 15302      43437800 
 15303              	.LASF125:
 15304 0831 436F756E 		.ascii	"Counter\000"
 15304      74657200 
 15305              	.LASF119:
 15306 0839 436F6D70 		.ascii	"Compare2\000"
 15306      61726532 
 15306      00
 15307              	.LASF62:
 15308 0842 54494D5F 		.ascii	"TIM_OutputState\000"
 15308      4F757470 
 15308      75745374 
 15308      61746500 
 15309              	.LASF205:
 15310 0852 54494D5F 		.ascii	"TIM_EventSource\000"
 15310      4576656E 
 15310      74536F75 
 15310      72636500 
 15311              	.LASF71:
 15312 0862 54494D5F 		.ascii	"TIM_ICPolarity\000"
 15312      4943506F 
 15312      6C617269 
 15312      747900
 15313              	.LASF24:
 15314 0871 52455345 		.ascii	"RESERVED1\000"
 15314      52564544 
 15314      3100
 15315              	.LASF26:
 15316 087b 52455345 		.ascii	"RESERVED2\000"
 15316      52564544 
 15316      3200
 15317              	.LASF28:
 15318 0885 52455345 		.ascii	"RESERVED3\000"
 15318      52564544 
 15318      3300
 15319              	.LASF29:
 15320 088f 52455345 		.ascii	"RESERVED4\000"
 15320      52564544 
ARM GAS  G:\Users\Jaxb\AppData\Local\Temp\ccSQWSCJ.s 			page 329


 15320      3400
 15321              	.LASF30:
 15322 0899 52455345 		.ascii	"RESERVED5\000"
 15322      52564544 
 15322      3500
 15323              	.LASF32:
 15324 08a3 52455345 		.ascii	"RESERVED6\000"
 15324      52564544 
 15324      3600
 15325              	.LASF36:
 15326 08ad 52455345 		.ascii	"RESERVED8\000"
 15326      52564544 
 15326      3800
 15327              	.LASF37:
 15328 08b7 52455345 		.ascii	"RESERVED9\000"
 15328      52564544 
 15328      3900
 15329              	.LASF55:
 15330 08c1 54494D5F 		.ascii	"TIM_Prescaler\000"
 15330      50726573 
 15330      63616C65 
 15330      7200
 15331              	.LASF194:
 15332 08cf 54494D5F 		.ascii	"TIM_TIxExternalClockConfig\000"
 15332      54497845 
 15332      78746572 
 15332      6E616C43 
 15332      6C6F636B 
 15333              	.LASF1:
 15334 08ea 756E7369 		.ascii	"unsigned char\000"
 15334      676E6564 
 15334      20636861 
 15334      7200
 15335              	.LASF78:
 15336 08f8 54494D5F 		.ascii	"TIM_LOCKLevel\000"
 15336      4C4F434B 
 15336      4C657665 
 15336      6C00
 15337              	.LASF206:
 15338 0906 54494D5F 		.ascii	"TIM_ITConfig\000"
 15338      4954436F 
 15338      6E666967 
 15338      00
 15339              	.LASF217:
 15340 0913 54494D5F 		.ascii	"TIM_BDTRConfig\000"
 15340      42445452 
 15340      436F6E66 
 15340      696700
 15341              	.LASF2:
 15342 0922 73686F72 		.ascii	"short int\000"
 15342      7420696E 
 15342      7400
 15343              	.LASF49:
 15344 092c 42445452 		.ascii	"BDTR\000"
 15344      00
 15345              	.LASF112:
 15346 0931 54494D5F 		.ascii	"TIM_SetIC2Prescaler\000"
ARM GAS  G:\Users\Jaxb\AppData\Local\Temp\ccSQWSCJ.s 			page 330


 15346      53657449 
 15346      43325072 
 15346      65736361 
 15346      6C657200 
 15347              	.LASF185:
 15348 0945 54494D5F 		.ascii	"TIM_PrescalerConfig\000"
 15348      50726573 
 15348      63616C65 
 15348      72436F6E 
 15348      66696700 
 15349              	.LASF197:
 15350 0959 54494D5F 		.ascii	"TIM_ITRxExternalClockConfig\000"
 15350      49545278 
 15350      45787465 
 15350      726E616C 
 15350      436C6F63 
 15351              	.LASF146:
 15352 0975 54494D5F 		.ascii	"TIM_OC3NPolarityConfig\000"
 15352      4F43334E 
 15352      506F6C61 
 15352      72697479 
 15352      436F6E66 
 15353              	.LASF77:
 15354 098c 54494D5F 		.ascii	"TIM_OSSIState\000"
 15354      4F535349 
 15354      53746174 
 15354      6500
 15355              	.LASF5:
 15356 099a 73686F72 		.ascii	"short unsigned int\000"
 15356      7420756E 
 15356      7369676E 
 15356      65642069 
 15356      6E7400
 15357              	.LASF23:
 15358 09ad 52455345 		.ascii	"RESERVED0\000"
 15358      52564544 
 15358      3000
 15359              	.LASF92:
 15360 09b7 54494D5F 		.ascii	"TIM_IT\000"
 15360      495400
 15361              	.LASF228:
 15362 09be 54494D5F 		.ascii	"TIM_TimeBaseInit\000"
 15362      54696D65 
 15362      42617365 
 15362      496E6974 
 15362      00
 15363              	.LASF195:
 15364 09cf 54494D5F 		.ascii	"TIM_TIxExternalCLKSource\000"
 15364      54497845 
 15364      78746572 
 15364      6E616C43 
 15364      4C4B536F 
 15365              	.LASF34:
 15366 09e8 52455345 		.ascii	"RESERVED7\000"
 15366      52564544 
 15366      3700
 15367              	.LASF210:
ARM GAS  G:\Users\Jaxb\AppData\Local\Temp\ccSQWSCJ.s 			page 331


 15368 09f2 54494D5F 		.ascii	"TIM_BDTRInitStruct\000"
 15368      42445452 
 15368      496E6974 
 15368      53747275 
 15368      637400
 15369              	.LASF89:
 15370 0a05 5449325F 		.ascii	"TI2_Config\000"
 15370      436F6E66 
 15370      696700
 15371              	.LASF160:
 15372 0a10 54494D5F 		.ascii	"TIM_OC2FastConfig\000"
 15372      4F433246 
 15372      61737443 
 15372      6F6E6669 
 15372      6700
 15373              	.LASF157:
 15374 0a22 54494D5F 		.ascii	"TIM_OC4FastConfig\000"
 15374      4F433446 
 15374      61737443 
 15374      6F6E6669 
 15374      6700
 15375              	.LASF8:
 15376 0a34 6C6F6E67 		.ascii	"long unsigned int\000"
 15376      20756E73 
 15376      69676E65 
 15376      6420696E 
 15376      7400
 15377              	.LASF66:
 15378 0a46 54494D5F 		.ascii	"TIM_OCNPolarity\000"
 15378      4F434E50 
 15378      6F6C6172 
 15378      69747900 
 15379              	.LASF192:
 15380 0a56 54494D5F 		.ascii	"TIM_ETRClockMode2Config\000"
 15380      45545243 
 15380      6C6F636B 
 15380      4D6F6465 
 15380      32436F6E 
 15381              	.LASF91:
 15382 0a6e 5449315F 		.ascii	"TI1_Config\000"
 15382      436F6E66 
 15382      696700
 15383              	.LASF208:
 15384 0a79 54494D5F 		.ascii	"TIM_Cmd\000"
 15384      436D6400 
 15385              	.LASF52:
 15386 0a81 444D4152 		.ascii	"DMAR\000"
 15386      00
 15387              	.LASF111:
 15388 0a86 54494D5F 		.ascii	"TIM_SetIC3Prescaler\000"
 15388      53657449 
 15388      43335072 
 15388      65736361 
 15388      6C657200 
 15389              	.LASF226:
 15390 0a9a 54494D5F 		.ascii	"TIM_OC2Init\000"
 15390      4F433249 
ARM GAS  G:\Users\Jaxb\AppData\Local\Temp\ccSQWSCJ.s 			page 332


 15390      6E697400 
 15391              	.LASF57:
 15392 0aa6 54494D5F 		.ascii	"TIM_Period\000"
 15392      50657269 
 15392      6F6400
 15393              	.LASF60:
 15394 0ab1 54494D5F 		.ascii	"TIM_TimeBaseInitTypeDef\000"
 15394      54696D65 
 15394      42617365 
 15394      496E6974 
 15394      54797065 
 15395              	.LASF96:
 15396 0ac9 54494D5F 		.ascii	"TIM_ClearITPendingBit\000"
 15396      436C6561 
 15396      72495450 
 15396      656E6469 
 15396      6E674269 
 15397              	.LASF75:
 15398 0adf 54494D5F 		.ascii	"TIM_ICInitTypeDef\000"
 15398      4943496E 
 15398      69745479 
 15398      70654465 
 15398      6600
 15399              	.LASF222:
 15400 0af1 54494D5F 		.ascii	"TIM_OC4Init\000"
 15400      4F433449 
 15400      6E697400 
 15401              	.LASF221:
 15402 0afd 54494D5F 		.ascii	"TIM_ICInit\000"
 15402      4943496E 
 15402      697400
 15403              	.LASF139:
 15404 0b08 54494D5F 		.ascii	"TIM_SelectOCxM\000"
 15404      53656C65 
 15404      63744F43 
 15404      784D00
 15405              	.LASF136:
 15406 0b17 54494D5F 		.ascii	"TIM_UpdateRequestConfig\000"
 15406      55706461 
 15406      74655265 
 15406      71756573 
 15406      74436F6E 
 15407              	.LASF186:
 15408 0b2f 50726573 		.ascii	"Prescaler\000"
 15408      63616C65 
 15408      7200
 15409              	.LASF162:
 15410 0b39 54494D5F 		.ascii	"TIM_OC4PreloadConfig\000"
 15410      4F433450 
 15410      72656C6F 
 15410      6164436F 
 15410      6E666967 
 15411              	.LASF154:
 15412 0b4e 54494D5F 		.ascii	"TIM_ClearOC3Ref\000"
 15412      436C6561 
 15412      724F4333 
 15412      52656600 
ARM GAS  G:\Users\Jaxb\AppData\Local\Temp\ccSQWSCJ.s 			page 333


 15413              	.LASF129:
 15414 0b5e 54494D5F 		.ascii	"TIM_SlaveMode\000"
 15414      536C6176 
 15414      654D6F64 
 15414      6500
 15415              	.LASF61:
 15416 0b6c 54494D5F 		.ascii	"TIM_OCMode\000"
 15416      4F434D6F 
 15416      646500
 15417              	.LASF152:
 15418 0b77 54494D5F 		.ascii	"TIM_ClearOC4Ref\000"
 15418      436C6561 
 15418      724F4334 
 15418      52656600 
 15419              	.LASF81:
 15420 0b87 54494D5F 		.ascii	"TIM_BreakPolarity\000"
 15420      42726561 
 15420      6B506F6C 
 15420      61726974 
 15420      7900
 15421              	.LASF150:
 15422 0b99 54494D5F 		.ascii	"TIM_OC1NPolarityConfig\000"
 15422      4F43314E 
 15422      506F6C61 
 15422      72697479 
 15422      436F6E66 
 15423              	.LASF167:
 15424 0bb0 54494D5F 		.ascii	"TIM_CCPreloadControl\000"
 15424      43435072 
 15424      656C6F61 
 15424      64436F6E 
 15424      74726F6C 
 15425              	.LASF16:
 15426 0bc5 53797374 		.ascii	"SystemCoreClock\000"
 15426      656D436F 
 15426      7265436C 
 15426      6F636B00 
 15427              	.LASF229:
 15428 0bd5 474E5520 		.ascii	"GNU C11 7.3.1 20180622 (release) [ARM/embedded-7-br"
 15428      43313120 
 15428      372E332E 
 15428      31203230 
 15428      31383036 
 15429 0c08 616E6368 		.ascii	"anch revision 261907] -mcpu=cortex-m3 -mthumb -mapc"
 15429      20726576 
 15429      6973696F 
 15429      6E203236 
 15429      31393037 
 15430 0c3b 732D6672 		.ascii	"s-frame -mthumb-interwork -mcpu=cortex-m3 -mthumb -"
 15430      616D6520 
 15430      2D6D7468 
 15430      756D622D 
 15430      696E7465 
 15431 0c6e 67647761 		.ascii	"gdwarf-2 -O0\000"
 15431      72662D32 
 15431      202D4F30 
 15431      00
ARM GAS  G:\Users\Jaxb\AppData\Local\Temp\ccSQWSCJ.s 			page 334


 15432              	.LASF41:
 15433 0c7b 43435231 		.ascii	"CCR1\000"
 15433      00
 15434              	.LASF43:
 15435 0c80 43435232 		.ascii	"CCR2\000"
 15435      00
 15436              	.LASF45:
 15437 0c85 43435233 		.ascii	"CCR3\000"
 15437      00
 15438              	.LASF47:
 15439 0c8a 43435234 		.ascii	"CCR4\000"
 15439      00
 15440              	.LASF51:
 15441 0c8f 52455345 		.ascii	"RESERVED18\000"
 15441      52564544 
 15441      313800
 15442              	.LASF69:
 15443 0c9a 54494D5F 		.ascii	"TIM_OCInitTypeDef\000"
 15443      4F43496E 
 15443      69745479 
 15443      70654465 
 15443      6600
 15444              	.LASF124:
 15445 0cac 54494D5F 		.ascii	"TIM_SetCounter\000"
 15445      53657443 
 15445      6F756E74 
 15445      657200
 15446              	.LASF231:
 15447 0cbb 463A5C6B 		.ascii	"F:\\kaka\\KAKAOS\\C\\windows\\Project\\RVMDK\243\250"
 15447      616B615C 
 15447      4B414B41 
 15447      4F535C43 
 15447      5C77696E 
 15448 0ce3 757635A3 		.ascii	"uv5\243\251\000"
 15448      A900
 15449              	.LASF12:
 15450 0ce9 75696E74 		.ascii	"uint8_t\000"
 15450      385F7400 
 15451              	.LASF147:
 15452 0cf1 54494D5F 		.ascii	"TIM_OC3PolarityConfig\000"
 15452      4F433350 
 15452      6F6C6172 
 15452      69747943 
 15452      6F6E6669 
 15453              	.LASF19:
 15454 0d07 49545374 		.ascii	"ITStatus\000"
 15454      61747573 
 15454      00
 15455              	.LASF227:
 15456 0d10 54494D5F 		.ascii	"TIM_OC1Init\000"
 15456      4F433149 
 15456      6E697400 
 15457              	.LASF59:
 15458 0d1c 54494D5F 		.ascii	"TIM_RepetitionCounter\000"
 15458      52657065 
 15458      74697469 
 15458      6F6E436F 
ARM GAS  G:\Users\Jaxb\AppData\Local\Temp\ccSQWSCJ.s 			page 335


 15458      756E7465 
 15459              	.LASF134:
 15460 0d32 54494D5F 		.ascii	"TIM_SelectHallSensor\000"
 15460      53656C65 
 15460      63744861 
 15460      6C6C5365 
 15460      6E736F72 
 15461              	.LASF93:
 15462 0d47 62697473 		.ascii	"bitstatus\000"
 15462      74617475 
 15462      7300
 15463              	.LASF196:
 15464 0d51 49434669 		.ascii	"ICFilter\000"
 15464      6C746572 
 15464      00
 15465              	.LASF155:
 15466 0d5a 54494D5F 		.ascii	"TIM_ClearOC2Ref\000"
 15466      436C6561 
 15466      724F4332 
 15466      52656600 
 15467              	.LASF191:
 15468 0d6a 45787454 		.ascii	"ExtTRGFilter\000"
 15468      52474669 
 15468      6C746572 
 15468      00
 15469              	.LASF67:
 15470 0d77 54494D5F 		.ascii	"TIM_OCIdleState\000"
 15470      4F434964 
 15470      6C655374 
 15470      61746500 
 15471              	.LASF207:
 15472 0d87 54494D5F 		.ascii	"TIM_CtrlPWMOutputs\000"
 15472      4374726C 
 15472      50574D4F 
 15472      75747075 
 15472      747300
 15473              	.LASF95:
 15474 0d9a 6974656E 		.ascii	"itenable\000"
 15474      61626C65 
 15474      00
 15475              	.LASF110:
 15476 0da3 54494D5F 		.ascii	"TIM_ICPSC\000"
 15476      49435053 
 15476      4300
 15477              	.LASF188:
 15478 0dad 54494D5F 		.ascii	"TIM_ETRConfig\000"
 15478      45545243 
 15478      6F6E6669 
 15478      6700
 15479              	.LASF232:
 15480 0dbb 54494D5F 		.ascii	"TIM_DeInit\000"
 15480      4465496E 
 15480      697400
 15481              	.LASF159:
 15482 0dc6 54494D5F 		.ascii	"TIM_OC3FastConfig\000"
 15482      4F433346 
 15482      61737443 
ARM GAS  G:\Users\Jaxb\AppData\Local\Temp\ccSQWSCJ.s 			page 336


 15482      6F6E6669 
 15482      6700
 15483              	.LASF164:
 15484 0dd8 54494D5F 		.ascii	"TIM_OC3PreloadConfig\000"
 15484      4F433350 
 15484      72656C6F 
 15484      6164436F 
 15484      6E666967 
 15485              	.LASF109:
 15486 0ded 54494D5F 		.ascii	"TIM_SetIC4Prescaler\000"
 15486      53657449 
 15486      43345072 
 15486      65736361 
 15486      6C657200 
 15487              	.LASF14:
 15488 0e01 75696E74 		.ascii	"uint32_t\000"
 15488      33325F74 
 15488      00
 15489              	.LASF161:
 15490 0e0a 54494D5F 		.ascii	"TIM_OC1FastConfig\000"
 15490      4F433146 
 15490      61737443 
 15490      6F6E6669 
 15490      6700
 15491              		.ident	"GCC: (GNU Tools for Arm Embedded Processors 7-2018-q2-update) 7.3.1 20180622 (release) [AR
ARM GAS  G:\Users\Jaxb\AppData\Local\Temp\ccSQWSCJ.s 			page 337


DEFINED SYMBOLS
                            *ABS*:00000000 stm32f10x_tim.c
G:\Users\Jaxb\AppData\Local\Temp\ccSQWSCJ.s:15     .text:00000000 $t
G:\Users\Jaxb\AppData\Local\Temp\ccSQWSCJ.s:22     .text:00000000 TIM_DeInit
G:\Users\Jaxb\AppData\Local\Temp\ccSQWSCJ.s:323    .text:000001ec $d
G:\Users\Jaxb\AppData\Local\Temp\ccSQWSCJ.s:342    .text:0000022c $t
G:\Users\Jaxb\AppData\Local\Temp\ccSQWSCJ.s:349    .text:0000022c TIM_TimeBaseInit
G:\Users\Jaxb\AppData\Local\Temp\ccSQWSCJ.s:505    .text:000002fc $d
G:\Users\Jaxb\AppData\Local\Temp\ccSQWSCJ.s:518    .text:00000324 $t
G:\Users\Jaxb\AppData\Local\Temp\ccSQWSCJ.s:525    .text:00000324 TIM_OC1Init
G:\Users\Jaxb\AppData\Local\Temp\ccSQWSCJ.s:702    .text:00000428 $d
G:\Users\Jaxb\AppData\Local\Temp\ccSQWSCJ.s:710    .text:0000043c $t
G:\Users\Jaxb\AppData\Local\Temp\ccSQWSCJ.s:717    .text:0000043c TIM_OC2Init
G:\Users\Jaxb\AppData\Local\Temp\ccSQWSCJ.s:893    .text:00000544 $d
G:\Users\Jaxb\AppData\Local\Temp\ccSQWSCJ.s:898    .text:0000054c $t
G:\Users\Jaxb\AppData\Local\Temp\ccSQWSCJ.s:905    .text:0000054c TIM_OC3Init
G:\Users\Jaxb\AppData\Local\Temp\ccSQWSCJ.s:1079   .text:00000650 $d
G:\Users\Jaxb\AppData\Local\Temp\ccSQWSCJ.s:1084   .text:00000658 $t
G:\Users\Jaxb\AppData\Local\Temp\ccSQWSCJ.s:1091   .text:00000658 TIM_OC4Init
G:\Users\Jaxb\AppData\Local\Temp\ccSQWSCJ.s:1231   .text:00000720 $d
G:\Users\Jaxb\AppData\Local\Temp\ccSQWSCJ.s:1236   .text:00000728 $t
G:\Users\Jaxb\AppData\Local\Temp\ccSQWSCJ.s:1243   .text:00000728 TIM_ICInit
G:\Users\Jaxb\AppData\Local\Temp\ccSQWSCJ.s:6572   .text:000019d8 TI1_Config
G:\Users\Jaxb\AppData\Local\Temp\ccSQWSCJ.s:5736   .text:00001768 TIM_SetIC1Prescaler
G:\Users\Jaxb\AppData\Local\Temp\ccSQWSCJ.s:6728   .text:00001ab8 TI2_Config
G:\Users\Jaxb\AppData\Local\Temp\ccSQWSCJ.s:5797   .text:0000179e TIM_SetIC2Prescaler
G:\Users\Jaxb\AppData\Local\Temp\ccSQWSCJ.s:6896   .text:00001bac TI3_Config
G:\Users\Jaxb\AppData\Local\Temp\ccSQWSCJ.s:5860   .text:000017d8 TIM_SetIC3Prescaler
G:\Users\Jaxb\AppData\Local\Temp\ccSQWSCJ.s:7058   .text:00001c98 TI4_Config
G:\Users\Jaxb\AppData\Local\Temp\ccSQWSCJ.s:5921   .text:0000180e TIM_SetIC4Prescaler
G:\Users\Jaxb\AppData\Local\Temp\ccSQWSCJ.s:1367   .text:000007d0 TIM_PWMIConfig
G:\Users\Jaxb\AppData\Local\Temp\ccSQWSCJ.s:1505   .text:00000888 TIM_BDTRConfig
G:\Users\Jaxb\AppData\Local\Temp\ccSQWSCJ.s:1587   .text:000008d6 TIM_TimeBaseStructInit
G:\Users\Jaxb\AppData\Local\Temp\ccSQWSCJ.s:1649   .text:00000908 TIM_OCStructInit
G:\Users\Jaxb\AppData\Local\Temp\ccSQWSCJ.s:1723   .text:0000094a TIM_ICStructInit
G:\Users\Jaxb\AppData\Local\Temp\ccSQWSCJ.s:1785   .text:0000097a TIM_BDTRStructInit
G:\Users\Jaxb\AppData\Local\Temp\ccSQWSCJ.s:1855   .text:000009b6 TIM_Cmd
G:\Users\Jaxb\AppData\Local\Temp\ccSQWSCJ.s:1923   .text:000009f4 TIM_CtrlPWMOutputs
G:\Users\Jaxb\AppData\Local\Temp\ccSQWSCJ.s:1992   .text:00000a3e TIM_ITConfig
G:\Users\Jaxb\AppData\Local\Temp\ccSQWSCJ.s:2066   .text:00000a84 TIM_GenerateEvent
G:\Users\Jaxb\AppData\Local\Temp\ccSQWSCJ.s:2114   .text:00000aa0 TIM_DMAConfig
G:\Users\Jaxb\AppData\Local\Temp\ccSQWSCJ.s:2167   .text:00000ac8 TIM_DMACmd
G:\Users\Jaxb\AppData\Local\Temp\ccSQWSCJ.s:2241   .text:00000b0e TIM_InternalClockConfig
G:\Users\Jaxb\AppData\Local\Temp\ccSQWSCJ.s:2291   .text:00000b30 TIM_ITRxExternalClockConfig
G:\Users\Jaxb\AppData\Local\Temp\ccSQWSCJ.s:2761   .text:00000d04 TIM_SelectInputTrigger
G:\Users\Jaxb\AppData\Local\Temp\ccSQWSCJ.s:2344   .text:00000b5e TIM_TIxExternalClockConfig
G:\Users\Jaxb\AppData\Local\Temp\ccSQWSCJ.s:2423   .text:00000bba TIM_ETRClockMode1Config
G:\Users\Jaxb\AppData\Local\Temp\ccSQWSCJ.s:2564   .text:00000c56 TIM_ETRConfig
G:\Users\Jaxb\AppData\Local\Temp\ccSQWSCJ.s:2503   .text:00000c18 TIM_ETRClockMode2Config
G:\Users\Jaxb\AppData\Local\Temp\ccSQWSCJ.s:2643   .text:00000ca8 TIM_PrescalerConfig
G:\Users\Jaxb\AppData\Local\Temp\ccSQWSCJ.s:2697   .text:00000cce TIM_CounterModeConfig
G:\Users\Jaxb\AppData\Local\Temp\ccSQWSCJ.s:2825   .text:00000d3a TIM_EncoderInterfaceConfig
G:\Users\Jaxb\AppData\Local\Temp\ccSQWSCJ.s:2942   .text:00000dd0 TIM_ForcedOC1Config
G:\Users\Jaxb\AppData\Local\Temp\ccSQWSCJ.s:3006   .text:00000e06 TIM_ForcedOC2Config
G:\Users\Jaxb\AppData\Local\Temp\ccSQWSCJ.s:3072   .text:00000e40 TIM_ForcedOC3Config
G:\Users\Jaxb\AppData\Local\Temp\ccSQWSCJ.s:3136   .text:00000e76 TIM_ForcedOC4Config
G:\Users\Jaxb\AppData\Local\Temp\ccSQWSCJ.s:3202   .text:00000eb0 TIM_ARRPreloadConfig
ARM GAS  G:\Users\Jaxb\AppData\Local\Temp\ccSQWSCJ.s 			page 338


G:\Users\Jaxb\AppData\Local\Temp\ccSQWSCJ.s:3270   .text:00000eee TIM_SelectCOM
G:\Users\Jaxb\AppData\Local\Temp\ccSQWSCJ.s:3338   .text:00000f2c TIM_SelectCCDMA
G:\Users\Jaxb\AppData\Local\Temp\ccSQWSCJ.s:3406   .text:00000f6a TIM_CCPreloadControl
G:\Users\Jaxb\AppData\Local\Temp\ccSQWSCJ.s:3474   .text:00000fa8 TIM_OC1PreloadConfig
G:\Users\Jaxb\AppData\Local\Temp\ccSQWSCJ.s:3538   .text:00000fde TIM_OC2PreloadConfig
G:\Users\Jaxb\AppData\Local\Temp\ccSQWSCJ.s:3604   .text:00001018 TIM_OC3PreloadConfig
G:\Users\Jaxb\AppData\Local\Temp\ccSQWSCJ.s:3668   .text:0000104e TIM_OC4PreloadConfig
G:\Users\Jaxb\AppData\Local\Temp\ccSQWSCJ.s:3734   .text:00001088 TIM_OC1FastConfig
G:\Users\Jaxb\AppData\Local\Temp\ccSQWSCJ.s:3798   .text:000010be TIM_OC2FastConfig
G:\Users\Jaxb\AppData\Local\Temp\ccSQWSCJ.s:3864   .text:000010f8 TIM_OC3FastConfig
G:\Users\Jaxb\AppData\Local\Temp\ccSQWSCJ.s:3928   .text:0000112e TIM_OC4FastConfig
G:\Users\Jaxb\AppData\Local\Temp\ccSQWSCJ.s:3994   .text:00001168 TIM_ClearOC1Ref
G:\Users\Jaxb\AppData\Local\Temp\ccSQWSCJ.s:4058   .text:0000119e TIM_ClearOC2Ref
G:\Users\Jaxb\AppData\Local\Temp\ccSQWSCJ.s:4124   .text:000011d8 TIM_ClearOC3Ref
G:\Users\Jaxb\AppData\Local\Temp\ccSQWSCJ.s:4188   .text:0000120e TIM_ClearOC4Ref
G:\Users\Jaxb\AppData\Local\Temp\ccSQWSCJ.s:4254   .text:00001248 TIM_OC1PolarityConfig
G:\Users\Jaxb\AppData\Local\Temp\ccSQWSCJ.s:4318   .text:0000127e TIM_OC1NPolarityConfig
G:\Users\Jaxb\AppData\Local\Temp\ccSQWSCJ.s:4382   .text:000012b4 TIM_OC2PolarityConfig
G:\Users\Jaxb\AppData\Local\Temp\ccSQWSCJ.s:4448   .text:000012ee TIM_OC2NPolarityConfig
G:\Users\Jaxb\AppData\Local\Temp\ccSQWSCJ.s:4514   .text:00001328 TIM_OC3PolarityConfig
G:\Users\Jaxb\AppData\Local\Temp\ccSQWSCJ.s:4580   .text:00001362 TIM_OC3NPolarityConfig
G:\Users\Jaxb\AppData\Local\Temp\ccSQWSCJ.s:4646   .text:0000139c TIM_OC4PolarityConfig
G:\Users\Jaxb\AppData\Local\Temp\ccSQWSCJ.s:4712   .text:000013d6 TIM_CCxCmd
G:\Users\Jaxb\AppData\Local\Temp\ccSQWSCJ.s:4789   .text:0000142a TIM_CCxNCmd
G:\Users\Jaxb\AppData\Local\Temp\ccSQWSCJ.s:4866   .text:0000147e TIM_SelectOCxM
G:\Users\Jaxb\AppData\Local\Temp\ccSQWSCJ.s:5000   .text:0000152c TIM_UpdateDisableConfig
G:\Users\Jaxb\AppData\Local\Temp\ccSQWSCJ.s:5068   .text:0000156a TIM_UpdateRequestConfig
G:\Users\Jaxb\AppData\Local\Temp\ccSQWSCJ.s:5136   .text:000015a8 TIM_SelectHallSensor
G:\Users\Jaxb\AppData\Local\Temp\ccSQWSCJ.s:5204   .text:000015e6 TIM_SelectOnePulseMode
G:\Users\Jaxb\AppData\Local\Temp\ccSQWSCJ.s:5265   .text:0000161c TIM_SelectOutputTrigger
G:\Users\Jaxb\AppData\Local\Temp\ccSQWSCJ.s:5326   .text:00001652 TIM_SelectSlaveMode
G:\Users\Jaxb\AppData\Local\Temp\ccSQWSCJ.s:5387   .text:00001688 TIM_SelectMasterSlaveMode
G:\Users\Jaxb\AppData\Local\Temp\ccSQWSCJ.s:5448   .text:000016be TIM_SetCounter
G:\Users\Jaxb\AppData\Local\Temp\ccSQWSCJ.s:5496   .text:000016da TIM_SetAutoreload
G:\Users\Jaxb\AppData\Local\Temp\ccSQWSCJ.s:5544   .text:000016f6 TIM_SetCompare1
G:\Users\Jaxb\AppData\Local\Temp\ccSQWSCJ.s:5592   .text:00001712 TIM_SetCompare2
G:\Users\Jaxb\AppData\Local\Temp\ccSQWSCJ.s:5640   .text:0000172e TIM_SetCompare3
G:\Users\Jaxb\AppData\Local\Temp\ccSQWSCJ.s:5688   .text:0000174a TIM_SetCompare4
G:\Users\Jaxb\AppData\Local\Temp\ccSQWSCJ.s:5984   .text:00001848 TIM_SetClockDivision
G:\Users\Jaxb\AppData\Local\Temp\ccSQWSCJ.s:6045   .text:0000187e TIM_GetCapture1
G:\Users\Jaxb\AppData\Local\Temp\ccSQWSCJ.s:6091   .text:00001896 TIM_GetCapture2
G:\Users\Jaxb\AppData\Local\Temp\ccSQWSCJ.s:6137   .text:000018ae TIM_GetCapture3
G:\Users\Jaxb\AppData\Local\Temp\ccSQWSCJ.s:6183   .text:000018c6 TIM_GetCapture4
G:\Users\Jaxb\AppData\Local\Temp\ccSQWSCJ.s:6229   .text:000018e0 TIM_GetCounter
G:\Users\Jaxb\AppData\Local\Temp\ccSQWSCJ.s:6275   .text:000018f8 TIM_GetPrescaler
G:\Users\Jaxb\AppData\Local\Temp\ccSQWSCJ.s:6321   .text:00001910 TIM_GetFlagStatus
G:\Users\Jaxb\AppData\Local\Temp\ccSQWSCJ.s:6388   .text:00001946 TIM_ClearFlag
G:\Users\Jaxb\AppData\Local\Temp\ccSQWSCJ.s:6438   .text:00001966 TIM_GetITStatus
G:\Users\Jaxb\AppData\Local\Temp\ccSQWSCJ.s:6523   .text:000019b8 TIM_ClearITPendingBit
G:\Users\Jaxb\AppData\Local\Temp\ccSQWSCJ.s:6714   .text:00001aa4 $d
G:\Users\Jaxb\AppData\Local\Temp\ccSQWSCJ.s:6722   .text:00001ab8 $t
G:\Users\Jaxb\AppData\Local\Temp\ccSQWSCJ.s:6882   .text:00001b98 $d
G:\Users\Jaxb\AppData\Local\Temp\ccSQWSCJ.s:6890   .text:00001bac $t
G:\Users\Jaxb\AppData\Local\Temp\ccSQWSCJ.s:7044   .text:00001c84 $d
G:\Users\Jaxb\AppData\Local\Temp\ccSQWSCJ.s:7052   .text:00001c98 $t
G:\Users\Jaxb\AppData\Local\Temp\ccSQWSCJ.s:7214   .text:00001d7c $d

ARM GAS  G:\Users\Jaxb\AppData\Local\Temp\ccSQWSCJ.s 			page 339


UNDEFINED SYMBOLS
RCC_APB2PeriphResetCmd
RCC_APB1PeriphResetCmd
