ARM GAS  G:\Users\Jaxb\AppData\Local\Temp\ccqxVwUa.s 			page 1


   1              		.cpu cortex-m3
   2              		.eabi_attribute 20, 1
   3              		.eabi_attribute 21, 1
   4              		.eabi_attribute 23, 3
   5              		.eabi_attribute 24, 1
   6              		.eabi_attribute 25, 1
   7              		.eabi_attribute 26, 1
   8              		.eabi_attribute 30, 2
   9              		.eabi_attribute 34, 1
  10              		.eabi_attribute 18, 4
  11              		.file	"stm32f10x_bkp.c"
  12              		.text
  13              	.Ltext0:
  14              		.cfi_sections	.debug_frame
  15              		.align	1
  16              		.p2align 2,,3
  17              		.global	BKP_DeInit
  18              		.syntax unified
  19              		.thumb
  20              		.thumb_func
  21              		.fpu softvfp
  22              		.type	BKP_DeInit, %function
  23              	BKP_DeInit:
  24              	.LFB29:
  25              		.file 1 "../../source/src/FWlib/src/stm32f10x_bkp.c"
   1:../../source/src/FWlib/src/stm32f10x_bkp.c **** /**
   2:../../source/src/FWlib/src/stm32f10x_bkp.c ****   ******************************************************************************
   3:../../source/src/FWlib/src/stm32f10x_bkp.c ****   * @file    stm32f10x_bkp.c
   4:../../source/src/FWlib/src/stm32f10x_bkp.c ****   * @author  MCD Application Team
   5:../../source/src/FWlib/src/stm32f10x_bkp.c ****   * @version V3.5.0
   6:../../source/src/FWlib/src/stm32f10x_bkp.c ****   * @date    11-March-2011
   7:../../source/src/FWlib/src/stm32f10x_bkp.c ****   * @brief   This file provides all the BKP firmware functions.
   8:../../source/src/FWlib/src/stm32f10x_bkp.c ****   ******************************************************************************
   9:../../source/src/FWlib/src/stm32f10x_bkp.c ****   * @attention
  10:../../source/src/FWlib/src/stm32f10x_bkp.c ****   *
  11:../../source/src/FWlib/src/stm32f10x_bkp.c ****   * THE PRESENT FIRMWARE WHICH IS FOR GUIDANCE ONLY AIMS AT PROVIDING CUSTOMERS
  12:../../source/src/FWlib/src/stm32f10x_bkp.c ****   * WITH CODING INFORMATION REGARDING THEIR PRODUCTS IN ORDER FOR THEM TO SAVE
  13:../../source/src/FWlib/src/stm32f10x_bkp.c ****   * TIME. AS A RESULT, STMICROELECTRONICS SHALL NOT BE HELD LIABLE FOR ANY
  14:../../source/src/FWlib/src/stm32f10x_bkp.c ****   * DIRECT, INDIRECT OR CONSEQUENTIAL DAMAGES WITH RESPECT TO ANY CLAIMS ARISING
  15:../../source/src/FWlib/src/stm32f10x_bkp.c ****   * FROM THE CONTENT OF SUCH FIRMWARE AND/OR THE USE MADE BY CUSTOMERS OF THE
  16:../../source/src/FWlib/src/stm32f10x_bkp.c ****   * CODING INFORMATION CONTAINED HEREIN IN CONNECTION WITH THEIR PRODUCTS.
  17:../../source/src/FWlib/src/stm32f10x_bkp.c ****   *
  18:../../source/src/FWlib/src/stm32f10x_bkp.c ****   * <h2><center>&copy; COPYRIGHT 2011 STMicroelectronics</center></h2>
  19:../../source/src/FWlib/src/stm32f10x_bkp.c ****   ******************************************************************************
  20:../../source/src/FWlib/src/stm32f10x_bkp.c ****   */
  21:../../source/src/FWlib/src/stm32f10x_bkp.c **** 
  22:../../source/src/FWlib/src/stm32f10x_bkp.c **** /* Includes ------------------------------------------------------------------*/
  23:../../source/src/FWlib/src/stm32f10x_bkp.c **** #include "stm32f10x_bkp.h"
  24:../../source/src/FWlib/src/stm32f10x_bkp.c **** #include "stm32f10x_rcc.h"
  25:../../source/src/FWlib/src/stm32f10x_bkp.c **** 
  26:../../source/src/FWlib/src/stm32f10x_bkp.c **** /** @addtogroup STM32F10x_StdPeriph_Driver
  27:../../source/src/FWlib/src/stm32f10x_bkp.c ****   * @{
  28:../../source/src/FWlib/src/stm32f10x_bkp.c ****   */
  29:../../source/src/FWlib/src/stm32f10x_bkp.c **** 
  30:../../source/src/FWlib/src/stm32f10x_bkp.c **** /** @defgroup BKP 
  31:../../source/src/FWlib/src/stm32f10x_bkp.c ****   * @brief BKP driver modules
  32:../../source/src/FWlib/src/stm32f10x_bkp.c ****   * @{
ARM GAS  G:\Users\Jaxb\AppData\Local\Temp\ccqxVwUa.s 			page 2


  33:../../source/src/FWlib/src/stm32f10x_bkp.c ****   */
  34:../../source/src/FWlib/src/stm32f10x_bkp.c **** 
  35:../../source/src/FWlib/src/stm32f10x_bkp.c **** /** @defgroup BKP_Private_TypesDefinitions
  36:../../source/src/FWlib/src/stm32f10x_bkp.c ****   * @{
  37:../../source/src/FWlib/src/stm32f10x_bkp.c ****   */
  38:../../source/src/FWlib/src/stm32f10x_bkp.c **** 
  39:../../source/src/FWlib/src/stm32f10x_bkp.c **** /**
  40:../../source/src/FWlib/src/stm32f10x_bkp.c ****   * @}
  41:../../source/src/FWlib/src/stm32f10x_bkp.c ****   */
  42:../../source/src/FWlib/src/stm32f10x_bkp.c **** 
  43:../../source/src/FWlib/src/stm32f10x_bkp.c **** /** @defgroup BKP_Private_Defines
  44:../../source/src/FWlib/src/stm32f10x_bkp.c ****   * @{
  45:../../source/src/FWlib/src/stm32f10x_bkp.c ****   */
  46:../../source/src/FWlib/src/stm32f10x_bkp.c **** 
  47:../../source/src/FWlib/src/stm32f10x_bkp.c **** /* ------------ BKP registers bit address in the alias region --------------- */
  48:../../source/src/FWlib/src/stm32f10x_bkp.c **** #define BKP_OFFSET        (BKP_BASE - PERIPH_BASE)
  49:../../source/src/FWlib/src/stm32f10x_bkp.c **** 
  50:../../source/src/FWlib/src/stm32f10x_bkp.c **** /* --- CR Register ----*/
  51:../../source/src/FWlib/src/stm32f10x_bkp.c **** 
  52:../../source/src/FWlib/src/stm32f10x_bkp.c **** /* Alias word address of TPAL bit */
  53:../../source/src/FWlib/src/stm32f10x_bkp.c **** #define CR_OFFSET         (BKP_OFFSET + 0x30)
  54:../../source/src/FWlib/src/stm32f10x_bkp.c **** #define TPAL_BitNumber    0x01
  55:../../source/src/FWlib/src/stm32f10x_bkp.c **** #define CR_TPAL_BB        (PERIPH_BB_BASE + (CR_OFFSET * 32) + (TPAL_BitNumber * 4))
  56:../../source/src/FWlib/src/stm32f10x_bkp.c **** 
  57:../../source/src/FWlib/src/stm32f10x_bkp.c **** /* Alias word address of TPE bit */
  58:../../source/src/FWlib/src/stm32f10x_bkp.c **** #define TPE_BitNumber     0x00
  59:../../source/src/FWlib/src/stm32f10x_bkp.c **** #define CR_TPE_BB         (PERIPH_BB_BASE + (CR_OFFSET * 32) + (TPE_BitNumber * 4))
  60:../../source/src/FWlib/src/stm32f10x_bkp.c **** 
  61:../../source/src/FWlib/src/stm32f10x_bkp.c **** /* --- CSR Register ---*/
  62:../../source/src/FWlib/src/stm32f10x_bkp.c **** 
  63:../../source/src/FWlib/src/stm32f10x_bkp.c **** /* Alias word address of TPIE bit */
  64:../../source/src/FWlib/src/stm32f10x_bkp.c **** #define CSR_OFFSET        (BKP_OFFSET + 0x34)
  65:../../source/src/FWlib/src/stm32f10x_bkp.c **** #define TPIE_BitNumber    0x02
  66:../../source/src/FWlib/src/stm32f10x_bkp.c **** #define CSR_TPIE_BB       (PERIPH_BB_BASE + (CSR_OFFSET * 32) + (TPIE_BitNumber * 4))
  67:../../source/src/FWlib/src/stm32f10x_bkp.c **** 
  68:../../source/src/FWlib/src/stm32f10x_bkp.c **** /* Alias word address of TIF bit */
  69:../../source/src/FWlib/src/stm32f10x_bkp.c **** #define TIF_BitNumber     0x09
  70:../../source/src/FWlib/src/stm32f10x_bkp.c **** #define CSR_TIF_BB        (PERIPH_BB_BASE + (CSR_OFFSET * 32) + (TIF_BitNumber * 4))
  71:../../source/src/FWlib/src/stm32f10x_bkp.c **** 
  72:../../source/src/FWlib/src/stm32f10x_bkp.c **** /* Alias word address of TEF bit */
  73:../../source/src/FWlib/src/stm32f10x_bkp.c **** #define TEF_BitNumber     0x08
  74:../../source/src/FWlib/src/stm32f10x_bkp.c **** #define CSR_TEF_BB        (PERIPH_BB_BASE + (CSR_OFFSET * 32) + (TEF_BitNumber * 4))
  75:../../source/src/FWlib/src/stm32f10x_bkp.c **** 
  76:../../source/src/FWlib/src/stm32f10x_bkp.c **** /* ---------------------- BKP registers bit mask ------------------------ */
  77:../../source/src/FWlib/src/stm32f10x_bkp.c **** 
  78:../../source/src/FWlib/src/stm32f10x_bkp.c **** /* RTCCR register bit mask */
  79:../../source/src/FWlib/src/stm32f10x_bkp.c **** #define RTCCR_CAL_MASK    ((uint16_t)0xFF80)
  80:../../source/src/FWlib/src/stm32f10x_bkp.c **** #define RTCCR_MASK        ((uint16_t)0xFC7F)
  81:../../source/src/FWlib/src/stm32f10x_bkp.c **** 
  82:../../source/src/FWlib/src/stm32f10x_bkp.c **** /**
  83:../../source/src/FWlib/src/stm32f10x_bkp.c ****   * @}
  84:../../source/src/FWlib/src/stm32f10x_bkp.c ****   */ 
  85:../../source/src/FWlib/src/stm32f10x_bkp.c **** 
  86:../../source/src/FWlib/src/stm32f10x_bkp.c **** 
  87:../../source/src/FWlib/src/stm32f10x_bkp.c **** /** @defgroup BKP_Private_Macros
  88:../../source/src/FWlib/src/stm32f10x_bkp.c ****   * @{
  89:../../source/src/FWlib/src/stm32f10x_bkp.c ****   */
ARM GAS  G:\Users\Jaxb\AppData\Local\Temp\ccqxVwUa.s 			page 3


  90:../../source/src/FWlib/src/stm32f10x_bkp.c **** 
  91:../../source/src/FWlib/src/stm32f10x_bkp.c **** /**
  92:../../source/src/FWlib/src/stm32f10x_bkp.c ****   * @}
  93:../../source/src/FWlib/src/stm32f10x_bkp.c ****   */
  94:../../source/src/FWlib/src/stm32f10x_bkp.c **** 
  95:../../source/src/FWlib/src/stm32f10x_bkp.c **** /** @defgroup BKP_Private_Variables
  96:../../source/src/FWlib/src/stm32f10x_bkp.c ****   * @{
  97:../../source/src/FWlib/src/stm32f10x_bkp.c ****   */
  98:../../source/src/FWlib/src/stm32f10x_bkp.c **** 
  99:../../source/src/FWlib/src/stm32f10x_bkp.c **** /**
 100:../../source/src/FWlib/src/stm32f10x_bkp.c ****   * @}
 101:../../source/src/FWlib/src/stm32f10x_bkp.c ****   */
 102:../../source/src/FWlib/src/stm32f10x_bkp.c **** 
 103:../../source/src/FWlib/src/stm32f10x_bkp.c **** /** @defgroup BKP_Private_FunctionPrototypes
 104:../../source/src/FWlib/src/stm32f10x_bkp.c ****   * @{
 105:../../source/src/FWlib/src/stm32f10x_bkp.c ****   */
 106:../../source/src/FWlib/src/stm32f10x_bkp.c **** 
 107:../../source/src/FWlib/src/stm32f10x_bkp.c **** /**
 108:../../source/src/FWlib/src/stm32f10x_bkp.c ****   * @}
 109:../../source/src/FWlib/src/stm32f10x_bkp.c ****   */
 110:../../source/src/FWlib/src/stm32f10x_bkp.c **** 
 111:../../source/src/FWlib/src/stm32f10x_bkp.c **** /** @defgroup BKP_Private_Functions
 112:../../source/src/FWlib/src/stm32f10x_bkp.c ****   * @{
 113:../../source/src/FWlib/src/stm32f10x_bkp.c ****   */
 114:../../source/src/FWlib/src/stm32f10x_bkp.c **** 
 115:../../source/src/FWlib/src/stm32f10x_bkp.c **** /**
 116:../../source/src/FWlib/src/stm32f10x_bkp.c ****   * @brief  Deinitializes the BKP peripheral registers to their default reset values.
 117:../../source/src/FWlib/src/stm32f10x_bkp.c ****   * @param  None
 118:../../source/src/FWlib/src/stm32f10x_bkp.c ****   * @retval None
 119:../../source/src/FWlib/src/stm32f10x_bkp.c ****   */
 120:../../source/src/FWlib/src/stm32f10x_bkp.c **** void BKP_DeInit(void)
 121:../../source/src/FWlib/src/stm32f10x_bkp.c **** {
  26              		.loc 1 121 0
  27              		.cfi_startproc
  28              		@ args = 0, pretend = 0, frame = 0
  29              		@ frame_needed = 0, uses_anonymous_args = 0
  30 0000 08B5     		push	{r3, lr}
  31              	.LCFI0:
  32              		.cfi_def_cfa_offset 8
  33              		.cfi_offset 3, -8
  34              		.cfi_offset 14, -4
 122:../../source/src/FWlib/src/stm32f10x_bkp.c ****   RCC_BackupResetCmd(ENABLE);
  35              		.loc 1 122 0
  36 0002 0120     		movs	r0, #1
  37 0004 FFF7FEFF 		bl	RCC_BackupResetCmd
  38              	.LVL0:
 123:../../source/src/FWlib/src/stm32f10x_bkp.c ****   RCC_BackupResetCmd(DISABLE);
 124:../../source/src/FWlib/src/stm32f10x_bkp.c **** }
  39              		.loc 1 124 0
  40 0008 BDE80840 		pop	{r3, lr}
  41              	.LCFI1:
  42              		.cfi_restore 14
  43              		.cfi_restore 3
  44              		.cfi_def_cfa_offset 0
 123:../../source/src/FWlib/src/stm32f10x_bkp.c ****   RCC_BackupResetCmd(DISABLE);
  45              		.loc 1 123 0
  46 000c 0020     		movs	r0, #0
ARM GAS  G:\Users\Jaxb\AppData\Local\Temp\ccqxVwUa.s 			page 4


  47 000e FFF7FEBF 		b	RCC_BackupResetCmd
  48              	.LVL1:
  49              		.cfi_endproc
  50              	.LFE29:
  51              		.size	BKP_DeInit, .-BKP_DeInit
  52              		.align	1
  53 0012 00BF     		.p2align 2,,3
  54              		.global	BKP_TamperPinLevelConfig
  55              		.syntax unified
  56              		.thumb
  57              		.thumb_func
  58              		.fpu softvfp
  59              		.type	BKP_TamperPinLevelConfig, %function
  60              	BKP_TamperPinLevelConfig:
  61              	.LFB30:
 125:../../source/src/FWlib/src/stm32f10x_bkp.c **** 
 126:../../source/src/FWlib/src/stm32f10x_bkp.c **** /**
 127:../../source/src/FWlib/src/stm32f10x_bkp.c ****   * @brief  Configures the Tamper Pin active level.
 128:../../source/src/FWlib/src/stm32f10x_bkp.c ****   * @param  BKP_TamperPinLevel: specifies the Tamper Pin active level.
 129:../../source/src/FWlib/src/stm32f10x_bkp.c ****   *   This parameter can be one of the following values:
 130:../../source/src/FWlib/src/stm32f10x_bkp.c ****   *     @arg BKP_TamperPinLevel_High: Tamper pin active on high level
 131:../../source/src/FWlib/src/stm32f10x_bkp.c ****   *     @arg BKP_TamperPinLevel_Low: Tamper pin active on low level
 132:../../source/src/FWlib/src/stm32f10x_bkp.c ****   * @retval None
 133:../../source/src/FWlib/src/stm32f10x_bkp.c ****   */
 134:../../source/src/FWlib/src/stm32f10x_bkp.c **** void BKP_TamperPinLevelConfig(uint16_t BKP_TamperPinLevel)
 135:../../source/src/FWlib/src/stm32f10x_bkp.c **** {
  62              		.loc 1 135 0
  63              		.cfi_startproc
  64              		@ args = 0, pretend = 0, frame = 0
  65              		@ frame_needed = 0, uses_anonymous_args = 0
  66              		@ link register save eliminated.
  67              	.LVL2:
 136:../../source/src/FWlib/src/stm32f10x_bkp.c ****   /* Check the parameters */
 137:../../source/src/FWlib/src/stm32f10x_bkp.c ****   assert_param(IS_BKP_TAMPER_PIN_LEVEL(BKP_TamperPinLevel));
 138:../../source/src/FWlib/src/stm32f10x_bkp.c ****   *(__IO uint32_t *) CR_TPAL_BB = BKP_TamperPinLevel;
  68              		.loc 1 138 0
  69 0014 014B     		ldr	r3, .L4
  70 0016 1860     		str	r0, [r3]
 139:../../source/src/FWlib/src/stm32f10x_bkp.c **** }
  71              		.loc 1 139 0
  72 0018 7047     		bx	lr
  73              	.L5:
  74 001a 00BF     		.align	2
  75              	.L4:
  76 001c 04860D42 		.word	1108182532
  77              		.cfi_endproc
  78              	.LFE30:
  79              		.size	BKP_TamperPinLevelConfig, .-BKP_TamperPinLevelConfig
  80              		.align	1
  81              		.p2align 2,,3
  82              		.global	BKP_TamperPinCmd
  83              		.syntax unified
  84              		.thumb
  85              		.thumb_func
  86              		.fpu softvfp
  87              		.type	BKP_TamperPinCmd, %function
  88              	BKP_TamperPinCmd:
ARM GAS  G:\Users\Jaxb\AppData\Local\Temp\ccqxVwUa.s 			page 5


  89              	.LFB31:
 140:../../source/src/FWlib/src/stm32f10x_bkp.c **** 
 141:../../source/src/FWlib/src/stm32f10x_bkp.c **** /**
 142:../../source/src/FWlib/src/stm32f10x_bkp.c ****   * @brief  Enables or disables the Tamper Pin activation.
 143:../../source/src/FWlib/src/stm32f10x_bkp.c ****   * @param  NewState: new state of the Tamper Pin activation.
 144:../../source/src/FWlib/src/stm32f10x_bkp.c ****   *   This parameter can be: ENABLE or DISABLE.
 145:../../source/src/FWlib/src/stm32f10x_bkp.c ****   * @retval None
 146:../../source/src/FWlib/src/stm32f10x_bkp.c ****   */
 147:../../source/src/FWlib/src/stm32f10x_bkp.c **** void BKP_TamperPinCmd(FunctionalState NewState)
 148:../../source/src/FWlib/src/stm32f10x_bkp.c **** {
  90              		.loc 1 148 0
  91              		.cfi_startproc
  92              		@ args = 0, pretend = 0, frame = 0
  93              		@ frame_needed = 0, uses_anonymous_args = 0
  94              		@ link register save eliminated.
  95              	.LVL3:
 149:../../source/src/FWlib/src/stm32f10x_bkp.c ****   /* Check the parameters */
 150:../../source/src/FWlib/src/stm32f10x_bkp.c ****   assert_param(IS_FUNCTIONAL_STATE(NewState));
 151:../../source/src/FWlib/src/stm32f10x_bkp.c ****   *(__IO uint32_t *) CR_TPE_BB = (uint32_t)NewState;
  96              		.loc 1 151 0
  97 0020 014B     		ldr	r3, .L7
  98 0022 1860     		str	r0, [r3]
 152:../../source/src/FWlib/src/stm32f10x_bkp.c **** }
  99              		.loc 1 152 0
 100 0024 7047     		bx	lr
 101              	.L8:
 102 0026 00BF     		.align	2
 103              	.L7:
 104 0028 00860D42 		.word	1108182528
 105              		.cfi_endproc
 106              	.LFE31:
 107              		.size	BKP_TamperPinCmd, .-BKP_TamperPinCmd
 108              		.align	1
 109              		.p2align 2,,3
 110              		.global	BKP_ITConfig
 111              		.syntax unified
 112              		.thumb
 113              		.thumb_func
 114              		.fpu softvfp
 115              		.type	BKP_ITConfig, %function
 116              	BKP_ITConfig:
 117              	.LFB32:
 153:../../source/src/FWlib/src/stm32f10x_bkp.c **** 
 154:../../source/src/FWlib/src/stm32f10x_bkp.c **** /**
 155:../../source/src/FWlib/src/stm32f10x_bkp.c ****   * @brief  Enables or disables the Tamper Pin Interrupt.
 156:../../source/src/FWlib/src/stm32f10x_bkp.c ****   * @param  NewState: new state of the Tamper Pin Interrupt.
 157:../../source/src/FWlib/src/stm32f10x_bkp.c ****   *   This parameter can be: ENABLE or DISABLE.
 158:../../source/src/FWlib/src/stm32f10x_bkp.c ****   * @retval None
 159:../../source/src/FWlib/src/stm32f10x_bkp.c ****   */
 160:../../source/src/FWlib/src/stm32f10x_bkp.c **** void BKP_ITConfig(FunctionalState NewState)
 161:../../source/src/FWlib/src/stm32f10x_bkp.c **** {
 118              		.loc 1 161 0
 119              		.cfi_startproc
 120              		@ args = 0, pretend = 0, frame = 0
 121              		@ frame_needed = 0, uses_anonymous_args = 0
 122              		@ link register save eliminated.
 123              	.LVL4:
ARM GAS  G:\Users\Jaxb\AppData\Local\Temp\ccqxVwUa.s 			page 6


 162:../../source/src/FWlib/src/stm32f10x_bkp.c ****   /* Check the parameters */
 163:../../source/src/FWlib/src/stm32f10x_bkp.c ****   assert_param(IS_FUNCTIONAL_STATE(NewState));
 164:../../source/src/FWlib/src/stm32f10x_bkp.c ****   *(__IO uint32_t *) CSR_TPIE_BB = (uint32_t)NewState;
 124              		.loc 1 164 0
 125 002c 014B     		ldr	r3, .L10
 126 002e 1860     		str	r0, [r3]
 165:../../source/src/FWlib/src/stm32f10x_bkp.c **** }
 127              		.loc 1 165 0
 128 0030 7047     		bx	lr
 129              	.L11:
 130 0032 00BF     		.align	2
 131              	.L10:
 132 0034 88860D42 		.word	1108182664
 133              		.cfi_endproc
 134              	.LFE32:
 135              		.size	BKP_ITConfig, .-BKP_ITConfig
 136              		.align	1
 137              		.p2align 2,,3
 138              		.global	BKP_RTCOutputConfig
 139              		.syntax unified
 140              		.thumb
 141              		.thumb_func
 142              		.fpu softvfp
 143              		.type	BKP_RTCOutputConfig, %function
 144              	BKP_RTCOutputConfig:
 145              	.LFB33:
 166:../../source/src/FWlib/src/stm32f10x_bkp.c **** 
 167:../../source/src/FWlib/src/stm32f10x_bkp.c **** /**
 168:../../source/src/FWlib/src/stm32f10x_bkp.c ****   * @brief  Select the RTC output source to output on the Tamper pin.
 169:../../source/src/FWlib/src/stm32f10x_bkp.c ****   * @param  BKP_RTCOutputSource: specifies the RTC output source.
 170:../../source/src/FWlib/src/stm32f10x_bkp.c ****   *   This parameter can be one of the following values:
 171:../../source/src/FWlib/src/stm32f10x_bkp.c ****   *     @arg BKP_RTCOutputSource_None: no RTC output on the Tamper pin.
 172:../../source/src/FWlib/src/stm32f10x_bkp.c ****   *     @arg BKP_RTCOutputSource_CalibClock: output the RTC clock with frequency
 173:../../source/src/FWlib/src/stm32f10x_bkp.c ****   *                                          divided by 64 on the Tamper pin.
 174:../../source/src/FWlib/src/stm32f10x_bkp.c ****   *     @arg BKP_RTCOutputSource_Alarm: output the RTC Alarm pulse signal on
 175:../../source/src/FWlib/src/stm32f10x_bkp.c ****   *                                     the Tamper pin.
 176:../../source/src/FWlib/src/stm32f10x_bkp.c ****   *     @arg BKP_RTCOutputSource_Second: output the RTC Second pulse signal on
 177:../../source/src/FWlib/src/stm32f10x_bkp.c ****   *                                      the Tamper pin.  
 178:../../source/src/FWlib/src/stm32f10x_bkp.c ****   * @retval None
 179:../../source/src/FWlib/src/stm32f10x_bkp.c ****   */
 180:../../source/src/FWlib/src/stm32f10x_bkp.c **** void BKP_RTCOutputConfig(uint16_t BKP_RTCOutputSource)
 181:../../source/src/FWlib/src/stm32f10x_bkp.c **** {
 146              		.loc 1 181 0
 147              		.cfi_startproc
 148              		@ args = 0, pretend = 0, frame = 0
 149              		@ frame_needed = 0, uses_anonymous_args = 0
 150              		@ link register save eliminated.
 151              	.LVL5:
 182:../../source/src/FWlib/src/stm32f10x_bkp.c ****   uint16_t tmpreg = 0;
 183:../../source/src/FWlib/src/stm32f10x_bkp.c ****   /* Check the parameters */
 184:../../source/src/FWlib/src/stm32f10x_bkp.c ****   assert_param(IS_BKP_RTC_OUTPUT_SOURCE(BKP_RTCOutputSource));
 185:../../source/src/FWlib/src/stm32f10x_bkp.c ****   tmpreg = BKP->RTCCR;
 152              		.loc 1 185 0
 153 0038 044A     		ldr	r2, .L13
 154 003a 938D     		ldrh	r3, [r2, #44]
 155              	.LVL6:
 186:../../source/src/FWlib/src/stm32f10x_bkp.c ****   /* Clear CCO, ASOE and ASOS bits */
ARM GAS  G:\Users\Jaxb\AppData\Local\Temp\ccqxVwUa.s 			page 7


 187:../../source/src/FWlib/src/stm32f10x_bkp.c ****   tmpreg &= RTCCR_MASK;
 156              		.loc 1 187 0
 157 003c 23F46073 		bic	r3, r3, #896
 158              	.LVL7:
 159 0040 1B04     		lsls	r3, r3, #16
 160 0042 1B0C     		lsrs	r3, r3, #16
 161              	.LVL8:
 188:../../source/src/FWlib/src/stm32f10x_bkp.c ****   
 189:../../source/src/FWlib/src/stm32f10x_bkp.c ****   /* Set CCO, ASOE and ASOS bits according to BKP_RTCOutputSource value */
 190:../../source/src/FWlib/src/stm32f10x_bkp.c ****   tmpreg |= BKP_RTCOutputSource;
 162              		.loc 1 190 0
 163 0044 1843     		orrs	r0, r0, r3
 164              	.LVL9:
 191:../../source/src/FWlib/src/stm32f10x_bkp.c ****   /* Store the new value */
 192:../../source/src/FWlib/src/stm32f10x_bkp.c ****   BKP->RTCCR = tmpreg;
 165              		.loc 1 192 0
 166 0046 9085     		strh	r0, [r2, #44]	@ movhi
 193:../../source/src/FWlib/src/stm32f10x_bkp.c **** }
 167              		.loc 1 193 0
 168 0048 7047     		bx	lr
 169              	.L14:
 170 004a 00BF     		.align	2
 171              	.L13:
 172 004c 006C0040 		.word	1073769472
 173              		.cfi_endproc
 174              	.LFE33:
 175              		.size	BKP_RTCOutputConfig, .-BKP_RTCOutputConfig
 176              		.align	1
 177              		.p2align 2,,3
 178              		.global	BKP_SetRTCCalibrationValue
 179              		.syntax unified
 180              		.thumb
 181              		.thumb_func
 182              		.fpu softvfp
 183              		.type	BKP_SetRTCCalibrationValue, %function
 184              	BKP_SetRTCCalibrationValue:
 185              	.LFB34:
 194:../../source/src/FWlib/src/stm32f10x_bkp.c **** 
 195:../../source/src/FWlib/src/stm32f10x_bkp.c **** /**
 196:../../source/src/FWlib/src/stm32f10x_bkp.c ****   * @brief  Sets RTC Clock Calibration value.
 197:../../source/src/FWlib/src/stm32f10x_bkp.c ****   * @param  CalibrationValue: specifies the RTC Clock Calibration value.
 198:../../source/src/FWlib/src/stm32f10x_bkp.c ****   *   This parameter must be a number between 0 and 0x7F.
 199:../../source/src/FWlib/src/stm32f10x_bkp.c ****   * @retval None
 200:../../source/src/FWlib/src/stm32f10x_bkp.c ****   */
 201:../../source/src/FWlib/src/stm32f10x_bkp.c **** void BKP_SetRTCCalibrationValue(uint8_t CalibrationValue)
 202:../../source/src/FWlib/src/stm32f10x_bkp.c **** {
 186              		.loc 1 202 0
 187              		.cfi_startproc
 188              		@ args = 0, pretend = 0, frame = 0
 189              		@ frame_needed = 0, uses_anonymous_args = 0
 190              		@ link register save eliminated.
 191              	.LVL10:
 203:../../source/src/FWlib/src/stm32f10x_bkp.c ****   uint16_t tmpreg = 0;
 204:../../source/src/FWlib/src/stm32f10x_bkp.c ****   /* Check the parameters */
 205:../../source/src/FWlib/src/stm32f10x_bkp.c ****   assert_param(IS_BKP_CALIBRATION_VALUE(CalibrationValue));
 206:../../source/src/FWlib/src/stm32f10x_bkp.c ****   tmpreg = BKP->RTCCR;
 192              		.loc 1 206 0
ARM GAS  G:\Users\Jaxb\AppData\Local\Temp\ccqxVwUa.s 			page 8


 193 0050 044A     		ldr	r2, .L16
 194 0052 938D     		ldrh	r3, [r2, #44]
 195              	.LVL11:
 207:../../source/src/FWlib/src/stm32f10x_bkp.c ****   /* Clear CAL[6:0] bits */
 208:../../source/src/FWlib/src/stm32f10x_bkp.c ****   tmpreg &= RTCCR_CAL_MASK;
 196              		.loc 1 208 0
 197 0054 23F07F03 		bic	r3, r3, #127
 198              	.LVL12:
 199 0058 1B04     		lsls	r3, r3, #16
 200 005a 1B0C     		lsrs	r3, r3, #16
 201              	.LVL13:
 209:../../source/src/FWlib/src/stm32f10x_bkp.c ****   /* Set CAL[6:0] bits according to CalibrationValue value */
 210:../../source/src/FWlib/src/stm32f10x_bkp.c ****   tmpreg |= CalibrationValue;
 202              		.loc 1 210 0
 203 005c 1843     		orrs	r0, r0, r3
 204              	.LVL14:
 211:../../source/src/FWlib/src/stm32f10x_bkp.c ****   /* Store the new value */
 212:../../source/src/FWlib/src/stm32f10x_bkp.c ****   BKP->RTCCR = tmpreg;
 205              		.loc 1 212 0
 206 005e 9085     		strh	r0, [r2, #44]	@ movhi
 213:../../source/src/FWlib/src/stm32f10x_bkp.c **** }
 207              		.loc 1 213 0
 208 0060 7047     		bx	lr
 209              	.L17:
 210 0062 00BF     		.align	2
 211              	.L16:
 212 0064 006C0040 		.word	1073769472
 213              		.cfi_endproc
 214              	.LFE34:
 215              		.size	BKP_SetRTCCalibrationValue, .-BKP_SetRTCCalibrationValue
 216              		.align	1
 217              		.p2align 2,,3
 218              		.global	BKP_WriteBackupRegister
 219              		.syntax unified
 220              		.thumb
 221              		.thumb_func
 222              		.fpu softvfp
 223              		.type	BKP_WriteBackupRegister, %function
 224              	BKP_WriteBackupRegister:
 225              	.LFB35:
 214:../../source/src/FWlib/src/stm32f10x_bkp.c **** 
 215:../../source/src/FWlib/src/stm32f10x_bkp.c **** /**
 216:../../source/src/FWlib/src/stm32f10x_bkp.c ****   * @brief  Writes user data to the specified Data Backup Register.
 217:../../source/src/FWlib/src/stm32f10x_bkp.c ****   * @param  BKP_DR: specifies the Data Backup Register.
 218:../../source/src/FWlib/src/stm32f10x_bkp.c ****   *   This parameter can be BKP_DRx where x:[1, 42]
 219:../../source/src/FWlib/src/stm32f10x_bkp.c ****   * @param  Data: data to write
 220:../../source/src/FWlib/src/stm32f10x_bkp.c ****   * @retval None
 221:../../source/src/FWlib/src/stm32f10x_bkp.c ****   */
 222:../../source/src/FWlib/src/stm32f10x_bkp.c **** void BKP_WriteBackupRegister(uint16_t BKP_DR, uint16_t Data)
 223:../../source/src/FWlib/src/stm32f10x_bkp.c **** {
 226              		.loc 1 223 0
 227              		.cfi_startproc
 228              		@ args = 0, pretend = 0, frame = 8
 229              		@ frame_needed = 0, uses_anonymous_args = 0
 230              		@ link register save eliminated.
 231              	.LVL15:
 224:../../source/src/FWlib/src/stm32f10x_bkp.c ****   __IO uint32_t tmp = 0;
ARM GAS  G:\Users\Jaxb\AppData\Local\Temp\ccqxVwUa.s 			page 9


 232              		.loc 1 224 0
 233 0068 0022     		movs	r2, #0
 225:../../source/src/FWlib/src/stm32f10x_bkp.c **** 
 226:../../source/src/FWlib/src/stm32f10x_bkp.c ****   /* Check the parameters */
 227:../../source/src/FWlib/src/stm32f10x_bkp.c ****   assert_param(IS_BKP_DR(BKP_DR));
 228:../../source/src/FWlib/src/stm32f10x_bkp.c **** 
 229:../../source/src/FWlib/src/stm32f10x_bkp.c ****   tmp = (uint32_t)BKP_BASE; 
 234              		.loc 1 229 0
 235 006a 054B     		ldr	r3, .L19
 223:../../source/src/FWlib/src/stm32f10x_bkp.c ****   __IO uint32_t tmp = 0;
 236              		.loc 1 223 0
 237 006c 82B0     		sub	sp, sp, #8
 238              	.LCFI2:
 239              		.cfi_def_cfa_offset 8
 224:../../source/src/FWlib/src/stm32f10x_bkp.c ****   __IO uint32_t tmp = 0;
 240              		.loc 1 224 0
 241 006e 0192     		str	r2, [sp, #4]
 242              		.loc 1 229 0
 243 0070 0193     		str	r3, [sp, #4]
 230:../../source/src/FWlib/src/stm32f10x_bkp.c ****   tmp += BKP_DR;
 244              		.loc 1 230 0
 245 0072 019B     		ldr	r3, [sp, #4]
 246 0074 1844     		add	r0, r0, r3
 247              	.LVL16:
 248 0076 0190     		str	r0, [sp, #4]
 231:../../source/src/FWlib/src/stm32f10x_bkp.c **** 
 232:../../source/src/FWlib/src/stm32f10x_bkp.c ****   *(__IO uint32_t *) tmp = Data;
 249              		.loc 1 232 0
 250 0078 019B     		ldr	r3, [sp, #4]
 251 007a 1960     		str	r1, [r3]
 233:../../source/src/FWlib/src/stm32f10x_bkp.c **** }
 252              		.loc 1 233 0
 253 007c 02B0     		add	sp, sp, #8
 254              	.LCFI3:
 255              		.cfi_def_cfa_offset 0
 256              		@ sp needed
 257 007e 7047     		bx	lr
 258              	.L20:
 259              		.align	2
 260              	.L19:
 261 0080 006C0040 		.word	1073769472
 262              		.cfi_endproc
 263              	.LFE35:
 264              		.size	BKP_WriteBackupRegister, .-BKP_WriteBackupRegister
 265              		.align	1
 266              		.p2align 2,,3
 267              		.global	BKP_ReadBackupRegister
 268              		.syntax unified
 269              		.thumb
 270              		.thumb_func
 271              		.fpu softvfp
 272              		.type	BKP_ReadBackupRegister, %function
 273              	BKP_ReadBackupRegister:
 274              	.LFB36:
 234:../../source/src/FWlib/src/stm32f10x_bkp.c **** 
 235:../../source/src/FWlib/src/stm32f10x_bkp.c **** /**
 236:../../source/src/FWlib/src/stm32f10x_bkp.c ****   * @brief  Reads data from the specified Data Backup Register.
ARM GAS  G:\Users\Jaxb\AppData\Local\Temp\ccqxVwUa.s 			page 10


 237:../../source/src/FWlib/src/stm32f10x_bkp.c ****   * @param  BKP_DR: specifies the Data Backup Register.
 238:../../source/src/FWlib/src/stm32f10x_bkp.c ****   *   This parameter can be BKP_DRx where x:[1, 42]
 239:../../source/src/FWlib/src/stm32f10x_bkp.c ****   * @retval The content of the specified Data Backup Register
 240:../../source/src/FWlib/src/stm32f10x_bkp.c ****   */
 241:../../source/src/FWlib/src/stm32f10x_bkp.c **** uint16_t BKP_ReadBackupRegister(uint16_t BKP_DR)
 242:../../source/src/FWlib/src/stm32f10x_bkp.c **** {
 275              		.loc 1 242 0
 276              		.cfi_startproc
 277              		@ args = 0, pretend = 0, frame = 8
 278              		@ frame_needed = 0, uses_anonymous_args = 0
 279              		@ link register save eliminated.
 280              	.LVL17:
 243:../../source/src/FWlib/src/stm32f10x_bkp.c ****   __IO uint32_t tmp = 0;
 281              		.loc 1 243 0
 282 0084 0022     		movs	r2, #0
 244:../../source/src/FWlib/src/stm32f10x_bkp.c **** 
 245:../../source/src/FWlib/src/stm32f10x_bkp.c ****   /* Check the parameters */
 246:../../source/src/FWlib/src/stm32f10x_bkp.c ****   assert_param(IS_BKP_DR(BKP_DR));
 247:../../source/src/FWlib/src/stm32f10x_bkp.c **** 
 248:../../source/src/FWlib/src/stm32f10x_bkp.c ****   tmp = (uint32_t)BKP_BASE; 
 283              		.loc 1 248 0
 284 0086 054B     		ldr	r3, .L22
 242:../../source/src/FWlib/src/stm32f10x_bkp.c ****   __IO uint32_t tmp = 0;
 285              		.loc 1 242 0
 286 0088 82B0     		sub	sp, sp, #8
 287              	.LCFI4:
 288              		.cfi_def_cfa_offset 8
 243:../../source/src/FWlib/src/stm32f10x_bkp.c ****   __IO uint32_t tmp = 0;
 289              		.loc 1 243 0
 290 008a 0192     		str	r2, [sp, #4]
 291              		.loc 1 248 0
 292 008c 0193     		str	r3, [sp, #4]
 249:../../source/src/FWlib/src/stm32f10x_bkp.c ****   tmp += BKP_DR;
 293              		.loc 1 249 0
 294 008e 019B     		ldr	r3, [sp, #4]
 295 0090 1844     		add	r0, r0, r3
 296              	.LVL18:
 297 0092 0190     		str	r0, [sp, #4]
 250:../../source/src/FWlib/src/stm32f10x_bkp.c **** 
 251:../../source/src/FWlib/src/stm32f10x_bkp.c ****   return (*(__IO uint16_t *) tmp);
 298              		.loc 1 251 0
 299 0094 019B     		ldr	r3, [sp, #4]
 300 0096 1888     		ldrh	r0, [r3]
 252:../../source/src/FWlib/src/stm32f10x_bkp.c **** }
 301              		.loc 1 252 0
 302 0098 02B0     		add	sp, sp, #8
 303              	.LCFI5:
 304              		.cfi_def_cfa_offset 0
 305              		@ sp needed
 306 009a 7047     		bx	lr
 307              	.L23:
 308              		.align	2
 309              	.L22:
 310 009c 006C0040 		.word	1073769472
 311              		.cfi_endproc
 312              	.LFE36:
 313              		.size	BKP_ReadBackupRegister, .-BKP_ReadBackupRegister
ARM GAS  G:\Users\Jaxb\AppData\Local\Temp\ccqxVwUa.s 			page 11


 314              		.align	1
 315              		.p2align 2,,3
 316              		.global	BKP_GetFlagStatus
 317              		.syntax unified
 318              		.thumb
 319              		.thumb_func
 320              		.fpu softvfp
 321              		.type	BKP_GetFlagStatus, %function
 322              	BKP_GetFlagStatus:
 323              	.LFB37:
 253:../../source/src/FWlib/src/stm32f10x_bkp.c **** 
 254:../../source/src/FWlib/src/stm32f10x_bkp.c **** /**
 255:../../source/src/FWlib/src/stm32f10x_bkp.c ****   * @brief  Checks whether the Tamper Pin Event flag is set or not.
 256:../../source/src/FWlib/src/stm32f10x_bkp.c ****   * @param  None
 257:../../source/src/FWlib/src/stm32f10x_bkp.c ****   * @retval The new state of the Tamper Pin Event flag (SET or RESET).
 258:../../source/src/FWlib/src/stm32f10x_bkp.c ****   */
 259:../../source/src/FWlib/src/stm32f10x_bkp.c **** FlagStatus BKP_GetFlagStatus(void)
 260:../../source/src/FWlib/src/stm32f10x_bkp.c **** {
 324              		.loc 1 260 0
 325              		.cfi_startproc
 326              		@ args = 0, pretend = 0, frame = 0
 327              		@ frame_needed = 0, uses_anonymous_args = 0
 328              		@ link register save eliminated.
 261:../../source/src/FWlib/src/stm32f10x_bkp.c ****   return (FlagStatus)(*(__IO uint32_t *) CSR_TEF_BB);
 329              		.loc 1 261 0
 330 00a0 014B     		ldr	r3, .L25
 331 00a2 1868     		ldr	r0, [r3]
 262:../../source/src/FWlib/src/stm32f10x_bkp.c **** }
 332              		.loc 1 262 0
 333 00a4 C0B2     		uxtb	r0, r0
 334 00a6 7047     		bx	lr
 335              	.L26:
 336              		.align	2
 337              	.L25:
 338 00a8 A0860D42 		.word	1108182688
 339              		.cfi_endproc
 340              	.LFE37:
 341              		.size	BKP_GetFlagStatus, .-BKP_GetFlagStatus
 342              		.align	1
 343              		.p2align 2,,3
 344              		.global	BKP_ClearFlag
 345              		.syntax unified
 346              		.thumb
 347              		.thumb_func
 348              		.fpu softvfp
 349              		.type	BKP_ClearFlag, %function
 350              	BKP_ClearFlag:
 351              	.LFB38:
 263:../../source/src/FWlib/src/stm32f10x_bkp.c **** 
 264:../../source/src/FWlib/src/stm32f10x_bkp.c **** /**
 265:../../source/src/FWlib/src/stm32f10x_bkp.c ****   * @brief  Clears Tamper Pin Event pending flag.
 266:../../source/src/FWlib/src/stm32f10x_bkp.c ****   * @param  None
 267:../../source/src/FWlib/src/stm32f10x_bkp.c ****   * @retval None
 268:../../source/src/FWlib/src/stm32f10x_bkp.c ****   */
 269:../../source/src/FWlib/src/stm32f10x_bkp.c **** void BKP_ClearFlag(void)
 270:../../source/src/FWlib/src/stm32f10x_bkp.c **** {
 352              		.loc 1 270 0
ARM GAS  G:\Users\Jaxb\AppData\Local\Temp\ccqxVwUa.s 			page 12


 353              		.cfi_startproc
 354              		@ args = 0, pretend = 0, frame = 0
 355              		@ frame_needed = 0, uses_anonymous_args = 0
 356              		@ link register save eliminated.
 271:../../source/src/FWlib/src/stm32f10x_bkp.c ****   /* Set CTE bit to clear Tamper Pin Event flag */
 272:../../source/src/FWlib/src/stm32f10x_bkp.c ****   BKP->CSR |= BKP_CSR_CTE;
 357              		.loc 1 272 0
 358 00ac 024A     		ldr	r2, .L28
 359 00ae 938E     		ldrh	r3, [r2, #52]
 360 00b0 43F00103 		orr	r3, r3, #1
 361 00b4 9386     		strh	r3, [r2, #52]	@ movhi
 273:../../source/src/FWlib/src/stm32f10x_bkp.c **** }
 362              		.loc 1 273 0
 363 00b6 7047     		bx	lr
 364              	.L29:
 365              		.align	2
 366              	.L28:
 367 00b8 006C0040 		.word	1073769472
 368              		.cfi_endproc
 369              	.LFE38:
 370              		.size	BKP_ClearFlag, .-BKP_ClearFlag
 371              		.align	1
 372              		.p2align 2,,3
 373              		.global	BKP_GetITStatus
 374              		.syntax unified
 375              		.thumb
 376              		.thumb_func
 377              		.fpu softvfp
 378              		.type	BKP_GetITStatus, %function
 379              	BKP_GetITStatus:
 380              	.LFB39:
 274:../../source/src/FWlib/src/stm32f10x_bkp.c **** 
 275:../../source/src/FWlib/src/stm32f10x_bkp.c **** /**
 276:../../source/src/FWlib/src/stm32f10x_bkp.c ****   * @brief  Checks whether the Tamper Pin Interrupt has occurred or not.
 277:../../source/src/FWlib/src/stm32f10x_bkp.c ****   * @param  None
 278:../../source/src/FWlib/src/stm32f10x_bkp.c ****   * @retval The new state of the Tamper Pin Interrupt (SET or RESET).
 279:../../source/src/FWlib/src/stm32f10x_bkp.c ****   */
 280:../../source/src/FWlib/src/stm32f10x_bkp.c **** ITStatus BKP_GetITStatus(void)
 281:../../source/src/FWlib/src/stm32f10x_bkp.c **** {
 381              		.loc 1 281 0
 382              		.cfi_startproc
 383              		@ args = 0, pretend = 0, frame = 0
 384              		@ frame_needed = 0, uses_anonymous_args = 0
 385              		@ link register save eliminated.
 282:../../source/src/FWlib/src/stm32f10x_bkp.c ****   return (ITStatus)(*(__IO uint32_t *) CSR_TIF_BB);
 386              		.loc 1 282 0
 387 00bc 014B     		ldr	r3, .L31
 388 00be 1868     		ldr	r0, [r3]
 283:../../source/src/FWlib/src/stm32f10x_bkp.c **** }
 389              		.loc 1 283 0
 390 00c0 C0B2     		uxtb	r0, r0
 391 00c2 7047     		bx	lr
 392              	.L32:
 393              		.align	2
 394              	.L31:
 395 00c4 A4860D42 		.word	1108182692
 396              		.cfi_endproc
ARM GAS  G:\Users\Jaxb\AppData\Local\Temp\ccqxVwUa.s 			page 13


 397              	.LFE39:
 398              		.size	BKP_GetITStatus, .-BKP_GetITStatus
 399              		.align	1
 400              		.p2align 2,,3
 401              		.global	BKP_ClearITPendingBit
 402              		.syntax unified
 403              		.thumb
 404              		.thumb_func
 405              		.fpu softvfp
 406              		.type	BKP_ClearITPendingBit, %function
 407              	BKP_ClearITPendingBit:
 408              	.LFB40:
 284:../../source/src/FWlib/src/stm32f10x_bkp.c **** 
 285:../../source/src/FWlib/src/stm32f10x_bkp.c **** /**
 286:../../source/src/FWlib/src/stm32f10x_bkp.c ****   * @brief  Clears Tamper Pin Interrupt pending bit.
 287:../../source/src/FWlib/src/stm32f10x_bkp.c ****   * @param  None
 288:../../source/src/FWlib/src/stm32f10x_bkp.c ****   * @retval None
 289:../../source/src/FWlib/src/stm32f10x_bkp.c ****   */
 290:../../source/src/FWlib/src/stm32f10x_bkp.c **** void BKP_ClearITPendingBit(void)
 291:../../source/src/FWlib/src/stm32f10x_bkp.c **** {
 409              		.loc 1 291 0
 410              		.cfi_startproc
 411              		@ args = 0, pretend = 0, frame = 0
 412              		@ frame_needed = 0, uses_anonymous_args = 0
 413              		@ link register save eliminated.
 292:../../source/src/FWlib/src/stm32f10x_bkp.c ****   /* Set CTI bit to clear Tamper Pin Interrupt pending bit */
 293:../../source/src/FWlib/src/stm32f10x_bkp.c ****   BKP->CSR |= BKP_CSR_CTI;
 414              		.loc 1 293 0
 415 00c8 024A     		ldr	r2, .L34
 416 00ca 938E     		ldrh	r3, [r2, #52]
 417 00cc 43F00203 		orr	r3, r3, #2
 418 00d0 9386     		strh	r3, [r2, #52]	@ movhi
 294:../../source/src/FWlib/src/stm32f10x_bkp.c **** }
 419              		.loc 1 294 0
 420 00d2 7047     		bx	lr
 421              	.L35:
 422              		.align	2
 423              	.L34:
 424 00d4 006C0040 		.word	1073769472
 425              		.cfi_endproc
 426              	.LFE40:
 427              		.size	BKP_ClearITPendingBit, .-BKP_ClearITPendingBit
 428              	.Letext0:
 429              		.file 2 "f:\\arm\\gcc2018\\arm-none-eabi\\include\\machine\\_default_types.h"
 430              		.file 3 "f:\\arm\\gcc2018\\arm-none-eabi\\include\\sys\\_stdint.h"
 431              		.file 4 "../../source/include/core_cm3.h"
 432              		.file 5 "../../source/include/system_stm32f10x.h"
 433              		.file 6 "../../source/include/stm32f10x.h"
 434              		.file 7 "../../source/src/FWlib/inc/stm32f10x_rcc.h"