ARM GAS  G:\Users\Jaxb\AppData\Local\Temp\ccN59N5m.s 			page 1


   1              		.cpu cortex-m3
   2              		.eabi_attribute 20, 1
   3              		.eabi_attribute 21, 1
   4              		.eabi_attribute 23, 3
   5              		.eabi_attribute 24, 1
   6              		.eabi_attribute 25, 1
   7              		.eabi_attribute 26, 1
   8              		.eabi_attribute 30, 6
   9              		.eabi_attribute 34, 1
  10              		.eabi_attribute 18, 4
  11              		.file	"stm32f10x_spi.c"
  12              		.text
  13              	.Ltext0:
  14              		.cfi_sections	.debug_frame
  15              		.align	1
  16              		.global	SPI_I2S_DeInit
  17              		.syntax unified
  18              		.thumb
  19              		.thumb_func
  20              		.fpu softvfp
  21              		.type	SPI_I2S_DeInit, %function
  22              	SPI_I2S_DeInit:
  23              	.LFB29:
  24              		.file 1 "../../source/src/FWlib/src/stm32f10x_spi.c"
   1:../../source/src/FWlib/src/stm32f10x_spi.c **** /**
   2:../../source/src/FWlib/src/stm32f10x_spi.c ****   ******************************************************************************
   3:../../source/src/FWlib/src/stm32f10x_spi.c ****   * @file    stm32f10x_spi.c
   4:../../source/src/FWlib/src/stm32f10x_spi.c ****   * @author  MCD Application Team
   5:../../source/src/FWlib/src/stm32f10x_spi.c ****   * @version V3.5.0
   6:../../source/src/FWlib/src/stm32f10x_spi.c ****   * @date    11-March-2011
   7:../../source/src/FWlib/src/stm32f10x_spi.c ****   * @brief   This file provides all the SPI firmware functions.
   8:../../source/src/FWlib/src/stm32f10x_spi.c ****   ******************************************************************************
   9:../../source/src/FWlib/src/stm32f10x_spi.c ****   * @attention
  10:../../source/src/FWlib/src/stm32f10x_spi.c ****   *
  11:../../source/src/FWlib/src/stm32f10x_spi.c ****   * THE PRESENT FIRMWARE WHICH IS FOR GUIDANCE ONLY AIMS AT PROVIDING CUSTOMERS
  12:../../source/src/FWlib/src/stm32f10x_spi.c ****   * WITH CODING INFORMATION REGARDING THEIR PRODUCTS IN ORDER FOR THEM TO SAVE
  13:../../source/src/FWlib/src/stm32f10x_spi.c ****   * TIME. AS A RESULT, STMICROELECTRONICS SHALL NOT BE HELD LIABLE FOR ANY
  14:../../source/src/FWlib/src/stm32f10x_spi.c ****   * DIRECT, INDIRECT OR CONSEQUENTIAL DAMAGES WITH RESPECT TO ANY CLAIMS ARISING
  15:../../source/src/FWlib/src/stm32f10x_spi.c ****   * FROM THE CONTENT OF SUCH FIRMWARE AND/OR THE USE MADE BY CUSTOMERS OF THE
  16:../../source/src/FWlib/src/stm32f10x_spi.c ****   * CODING INFORMATION CONTAINED HEREIN IN CONNECTION WITH THEIR PRODUCTS.
  17:../../source/src/FWlib/src/stm32f10x_spi.c ****   *
  18:../../source/src/FWlib/src/stm32f10x_spi.c ****   * <h2><center>&copy; COPYRIGHT 2011 STMicroelectronics</center></h2>
  19:../../source/src/FWlib/src/stm32f10x_spi.c ****   ******************************************************************************
  20:../../source/src/FWlib/src/stm32f10x_spi.c ****   */
  21:../../source/src/FWlib/src/stm32f10x_spi.c **** 
  22:../../source/src/FWlib/src/stm32f10x_spi.c **** /* Includes ------------------------------------------------------------------*/
  23:../../source/src/FWlib/src/stm32f10x_spi.c **** #include "stm32f10x_spi.h"
  24:../../source/src/FWlib/src/stm32f10x_spi.c **** #include "stm32f10x_rcc.h"
  25:../../source/src/FWlib/src/stm32f10x_spi.c **** 
  26:../../source/src/FWlib/src/stm32f10x_spi.c **** /** @addtogroup STM32F10x_StdPeriph_Driver
  27:../../source/src/FWlib/src/stm32f10x_spi.c ****   * @{
  28:../../source/src/FWlib/src/stm32f10x_spi.c ****   */
  29:../../source/src/FWlib/src/stm32f10x_spi.c **** 
  30:../../source/src/FWlib/src/stm32f10x_spi.c **** /** @defgroup SPI 
  31:../../source/src/FWlib/src/stm32f10x_spi.c ****   * @brief SPI driver modules
  32:../../source/src/FWlib/src/stm32f10x_spi.c ****   * @{
  33:../../source/src/FWlib/src/stm32f10x_spi.c ****   */ 
ARM GAS  G:\Users\Jaxb\AppData\Local\Temp\ccN59N5m.s 			page 2


  34:../../source/src/FWlib/src/stm32f10x_spi.c **** 
  35:../../source/src/FWlib/src/stm32f10x_spi.c **** /** @defgroup SPI_Private_TypesDefinitions
  36:../../source/src/FWlib/src/stm32f10x_spi.c ****   * @{
  37:../../source/src/FWlib/src/stm32f10x_spi.c ****   */
  38:../../source/src/FWlib/src/stm32f10x_spi.c **** 
  39:../../source/src/FWlib/src/stm32f10x_spi.c **** /**
  40:../../source/src/FWlib/src/stm32f10x_spi.c ****   * @}
  41:../../source/src/FWlib/src/stm32f10x_spi.c ****   */ 
  42:../../source/src/FWlib/src/stm32f10x_spi.c **** 
  43:../../source/src/FWlib/src/stm32f10x_spi.c **** 
  44:../../source/src/FWlib/src/stm32f10x_spi.c **** /** @defgroup SPI_Private_Defines
  45:../../source/src/FWlib/src/stm32f10x_spi.c ****   * @{
  46:../../source/src/FWlib/src/stm32f10x_spi.c ****   */
  47:../../source/src/FWlib/src/stm32f10x_spi.c **** 
  48:../../source/src/FWlib/src/stm32f10x_spi.c **** /* SPI SPE mask */
  49:../../source/src/FWlib/src/stm32f10x_spi.c **** #define CR1_SPE_Set          ((uint16_t)0x0040)
  50:../../source/src/FWlib/src/stm32f10x_spi.c **** #define CR1_SPE_Reset        ((uint16_t)0xFFBF)
  51:../../source/src/FWlib/src/stm32f10x_spi.c **** 
  52:../../source/src/FWlib/src/stm32f10x_spi.c **** /* I2S I2SE mask */
  53:../../source/src/FWlib/src/stm32f10x_spi.c **** #define I2SCFGR_I2SE_Set     ((uint16_t)0x0400)
  54:../../source/src/FWlib/src/stm32f10x_spi.c **** #define I2SCFGR_I2SE_Reset   ((uint16_t)0xFBFF)
  55:../../source/src/FWlib/src/stm32f10x_spi.c **** 
  56:../../source/src/FWlib/src/stm32f10x_spi.c **** /* SPI CRCNext mask */
  57:../../source/src/FWlib/src/stm32f10x_spi.c **** #define CR1_CRCNext_Set      ((uint16_t)0x1000)
  58:../../source/src/FWlib/src/stm32f10x_spi.c **** 
  59:../../source/src/FWlib/src/stm32f10x_spi.c **** /* SPI CRCEN mask */
  60:../../source/src/FWlib/src/stm32f10x_spi.c **** #define CR1_CRCEN_Set        ((uint16_t)0x2000)
  61:../../source/src/FWlib/src/stm32f10x_spi.c **** #define CR1_CRCEN_Reset      ((uint16_t)0xDFFF)
  62:../../source/src/FWlib/src/stm32f10x_spi.c **** 
  63:../../source/src/FWlib/src/stm32f10x_spi.c **** /* SPI SSOE mask */
  64:../../source/src/FWlib/src/stm32f10x_spi.c **** #define CR2_SSOE_Set         ((uint16_t)0x0004)
  65:../../source/src/FWlib/src/stm32f10x_spi.c **** #define CR2_SSOE_Reset       ((uint16_t)0xFFFB)
  66:../../source/src/FWlib/src/stm32f10x_spi.c **** 
  67:../../source/src/FWlib/src/stm32f10x_spi.c **** /* SPI registers Masks */
  68:../../source/src/FWlib/src/stm32f10x_spi.c **** #define CR1_CLEAR_Mask       ((uint16_t)0x3040)
  69:../../source/src/FWlib/src/stm32f10x_spi.c **** #define I2SCFGR_CLEAR_Mask   ((uint16_t)0xF040)
  70:../../source/src/FWlib/src/stm32f10x_spi.c **** 
  71:../../source/src/FWlib/src/stm32f10x_spi.c **** /* SPI or I2S mode selection masks */
  72:../../source/src/FWlib/src/stm32f10x_spi.c **** #define SPI_Mode_Select      ((uint16_t)0xF7FF)
  73:../../source/src/FWlib/src/stm32f10x_spi.c **** #define I2S_Mode_Select      ((uint16_t)0x0800) 
  74:../../source/src/FWlib/src/stm32f10x_spi.c **** 
  75:../../source/src/FWlib/src/stm32f10x_spi.c **** /* I2S clock source selection masks */
  76:../../source/src/FWlib/src/stm32f10x_spi.c **** #define I2S2_CLOCK_SRC       ((uint32_t)(0x00020000))
  77:../../source/src/FWlib/src/stm32f10x_spi.c **** #define I2S3_CLOCK_SRC       ((uint32_t)(0x00040000))
  78:../../source/src/FWlib/src/stm32f10x_spi.c **** #define I2S_MUL_MASK         ((uint32_t)(0x0000F000))
  79:../../source/src/FWlib/src/stm32f10x_spi.c **** #define I2S_DIV_MASK         ((uint32_t)(0x000000F0))
  80:../../source/src/FWlib/src/stm32f10x_spi.c **** 
  81:../../source/src/FWlib/src/stm32f10x_spi.c **** /**
  82:../../source/src/FWlib/src/stm32f10x_spi.c ****   * @}
  83:../../source/src/FWlib/src/stm32f10x_spi.c ****   */
  84:../../source/src/FWlib/src/stm32f10x_spi.c **** 
  85:../../source/src/FWlib/src/stm32f10x_spi.c **** /** @defgroup SPI_Private_Macros
  86:../../source/src/FWlib/src/stm32f10x_spi.c ****   * @{
  87:../../source/src/FWlib/src/stm32f10x_spi.c ****   */
  88:../../source/src/FWlib/src/stm32f10x_spi.c **** 
  89:../../source/src/FWlib/src/stm32f10x_spi.c **** /**
  90:../../source/src/FWlib/src/stm32f10x_spi.c ****   * @}
ARM GAS  G:\Users\Jaxb\AppData\Local\Temp\ccN59N5m.s 			page 3


  91:../../source/src/FWlib/src/stm32f10x_spi.c ****   */
  92:../../source/src/FWlib/src/stm32f10x_spi.c **** 
  93:../../source/src/FWlib/src/stm32f10x_spi.c **** /** @defgroup SPI_Private_Variables
  94:../../source/src/FWlib/src/stm32f10x_spi.c ****   * @{
  95:../../source/src/FWlib/src/stm32f10x_spi.c ****   */
  96:../../source/src/FWlib/src/stm32f10x_spi.c **** 
  97:../../source/src/FWlib/src/stm32f10x_spi.c **** /**
  98:../../source/src/FWlib/src/stm32f10x_spi.c ****   * @}
  99:../../source/src/FWlib/src/stm32f10x_spi.c ****   */
 100:../../source/src/FWlib/src/stm32f10x_spi.c **** 
 101:../../source/src/FWlib/src/stm32f10x_spi.c **** /** @defgroup SPI_Private_FunctionPrototypes
 102:../../source/src/FWlib/src/stm32f10x_spi.c ****   * @{
 103:../../source/src/FWlib/src/stm32f10x_spi.c ****   */
 104:../../source/src/FWlib/src/stm32f10x_spi.c **** 
 105:../../source/src/FWlib/src/stm32f10x_spi.c **** /**
 106:../../source/src/FWlib/src/stm32f10x_spi.c ****   * @}
 107:../../source/src/FWlib/src/stm32f10x_spi.c ****   */
 108:../../source/src/FWlib/src/stm32f10x_spi.c **** 
 109:../../source/src/FWlib/src/stm32f10x_spi.c **** /** @defgroup SPI_Private_Functions
 110:../../source/src/FWlib/src/stm32f10x_spi.c ****   * @{
 111:../../source/src/FWlib/src/stm32f10x_spi.c ****   */
 112:../../source/src/FWlib/src/stm32f10x_spi.c **** 
 113:../../source/src/FWlib/src/stm32f10x_spi.c **** /**
 114:../../source/src/FWlib/src/stm32f10x_spi.c ****   * @brief  Deinitializes the SPIx peripheral registers to their default
 115:../../source/src/FWlib/src/stm32f10x_spi.c ****   *         reset values (Affects also the I2Ss).
 116:../../source/src/FWlib/src/stm32f10x_spi.c ****   * @param  SPIx: where x can be 1, 2 or 3 to select the SPI peripheral.
 117:../../source/src/FWlib/src/stm32f10x_spi.c ****   * @retval None
 118:../../source/src/FWlib/src/stm32f10x_spi.c ****   */
 119:../../source/src/FWlib/src/stm32f10x_spi.c **** void SPI_I2S_DeInit(SPI_TypeDef* SPIx)
 120:../../source/src/FWlib/src/stm32f10x_spi.c **** {
  25              		.loc 1 120 0
  26              		.cfi_startproc
  27              		@ args = 0, pretend = 0, frame = 8
  28              		@ frame_needed = 1, uses_anonymous_args = 0
  29 0000 80B5     		push	{r7, lr}
  30              	.LCFI0:
  31              		.cfi_def_cfa_offset 8
  32              		.cfi_offset 7, -8
  33              		.cfi_offset 14, -4
  34 0002 82B0     		sub	sp, sp, #8
  35              	.LCFI1:
  36              		.cfi_def_cfa_offset 16
  37 0004 00AF     		add	r7, sp, #0
  38              	.LCFI2:
  39              		.cfi_def_cfa_register 7
  40 0006 7860     		str	r0, [r7, #4]
 121:../../source/src/FWlib/src/stm32f10x_spi.c ****   /* Check the parameters */
 122:../../source/src/FWlib/src/stm32f10x_spi.c ****   assert_param(IS_SPI_ALL_PERIPH(SPIx));
 123:../../source/src/FWlib/src/stm32f10x_spi.c **** 
 124:../../source/src/FWlib/src/stm32f10x_spi.c ****   if (SPIx == SPI1)
  41              		.loc 1 124 0
  42 0008 7B68     		ldr	r3, [r7, #4]
  43 000a 174A     		ldr	r2, .L6
  44 000c 9342     		cmp	r3, r2
  45 000e 0AD1     		bne	.L2
 125:../../source/src/FWlib/src/stm32f10x_spi.c ****   {
 126:../../source/src/FWlib/src/stm32f10x_spi.c ****     /* Enable SPI1 reset state */
ARM GAS  G:\Users\Jaxb\AppData\Local\Temp\ccN59N5m.s 			page 4


 127:../../source/src/FWlib/src/stm32f10x_spi.c ****     RCC_APB2PeriphResetCmd(RCC_APB2Periph_SPI1, ENABLE);
  46              		.loc 1 127 0
  47 0010 0121     		movs	r1, #1
  48 0012 4FF48050 		mov	r0, #4096
  49 0016 FFF7FEFF 		bl	RCC_APB2PeriphResetCmd
 128:../../source/src/FWlib/src/stm32f10x_spi.c ****     /* Release SPI1 from reset state */
 129:../../source/src/FWlib/src/stm32f10x_spi.c ****     RCC_APB2PeriphResetCmd(RCC_APB2Periph_SPI1, DISABLE);
  50              		.loc 1 129 0
  51 001a 0021     		movs	r1, #0
  52 001c 4FF48050 		mov	r0, #4096
  53 0020 FFF7FEFF 		bl	RCC_APB2PeriphResetCmd
 130:../../source/src/FWlib/src/stm32f10x_spi.c ****   }
 131:../../source/src/FWlib/src/stm32f10x_spi.c ****   else if (SPIx == SPI2)
 132:../../source/src/FWlib/src/stm32f10x_spi.c ****   {
 133:../../source/src/FWlib/src/stm32f10x_spi.c ****     /* Enable SPI2 reset state */
 134:../../source/src/FWlib/src/stm32f10x_spi.c ****     RCC_APB1PeriphResetCmd(RCC_APB1Periph_SPI2, ENABLE);
 135:../../source/src/FWlib/src/stm32f10x_spi.c ****     /* Release SPI2 from reset state */
 136:../../source/src/FWlib/src/stm32f10x_spi.c ****     RCC_APB1PeriphResetCmd(RCC_APB1Periph_SPI2, DISABLE);
 137:../../source/src/FWlib/src/stm32f10x_spi.c ****   }
 138:../../source/src/FWlib/src/stm32f10x_spi.c ****   else
 139:../../source/src/FWlib/src/stm32f10x_spi.c ****   {
 140:../../source/src/FWlib/src/stm32f10x_spi.c ****     if (SPIx == SPI3)
 141:../../source/src/FWlib/src/stm32f10x_spi.c ****     {
 142:../../source/src/FWlib/src/stm32f10x_spi.c ****       /* Enable SPI3 reset state */
 143:../../source/src/FWlib/src/stm32f10x_spi.c ****       RCC_APB1PeriphResetCmd(RCC_APB1Periph_SPI3, ENABLE);
 144:../../source/src/FWlib/src/stm32f10x_spi.c ****       /* Release SPI3 from reset state */
 145:../../source/src/FWlib/src/stm32f10x_spi.c ****       RCC_APB1PeriphResetCmd(RCC_APB1Periph_SPI3, DISABLE);
 146:../../source/src/FWlib/src/stm32f10x_spi.c ****     }
 147:../../source/src/FWlib/src/stm32f10x_spi.c ****   }
 148:../../source/src/FWlib/src/stm32f10x_spi.c **** }
  54              		.loc 1 148 0
  55 0024 1CE0     		b	.L5
  56              	.L2:
 131:../../source/src/FWlib/src/stm32f10x_spi.c ****   {
  57              		.loc 1 131 0
  58 0026 7B68     		ldr	r3, [r7, #4]
  59 0028 104A     		ldr	r2, .L6+4
  60 002a 9342     		cmp	r3, r2
  61 002c 0AD1     		bne	.L4
 134:../../source/src/FWlib/src/stm32f10x_spi.c ****     /* Release SPI2 from reset state */
  62              		.loc 1 134 0
  63 002e 0121     		movs	r1, #1
  64 0030 4FF48040 		mov	r0, #16384
  65 0034 FFF7FEFF 		bl	RCC_APB1PeriphResetCmd
 136:../../source/src/FWlib/src/stm32f10x_spi.c ****   }
  66              		.loc 1 136 0
  67 0038 0021     		movs	r1, #0
  68 003a 4FF48040 		mov	r0, #16384
  69 003e FFF7FEFF 		bl	RCC_APB1PeriphResetCmd
  70              		.loc 1 148 0
  71 0042 0DE0     		b	.L5
  72              	.L4:
 140:../../source/src/FWlib/src/stm32f10x_spi.c ****     {
  73              		.loc 1 140 0
  74 0044 7B68     		ldr	r3, [r7, #4]
  75 0046 0A4A     		ldr	r2, .L6+8
  76 0048 9342     		cmp	r3, r2
ARM GAS  G:\Users\Jaxb\AppData\Local\Temp\ccN59N5m.s 			page 5


  77 004a 09D1     		bne	.L5
 143:../../source/src/FWlib/src/stm32f10x_spi.c ****       /* Release SPI3 from reset state */
  78              		.loc 1 143 0
  79 004c 0121     		movs	r1, #1
  80 004e 4FF40040 		mov	r0, #32768
  81 0052 FFF7FEFF 		bl	RCC_APB1PeriphResetCmd
 145:../../source/src/FWlib/src/stm32f10x_spi.c ****     }
  82              		.loc 1 145 0
  83 0056 0021     		movs	r1, #0
  84 0058 4FF40040 		mov	r0, #32768
  85 005c FFF7FEFF 		bl	RCC_APB1PeriphResetCmd
  86              	.L5:
  87              		.loc 1 148 0
  88 0060 00BF     		nop
  89 0062 0837     		adds	r7, r7, #8
  90              	.LCFI3:
  91              		.cfi_def_cfa_offset 8
  92 0064 BD46     		mov	sp, r7
  93              	.LCFI4:
  94              		.cfi_def_cfa_register 13
  95              		@ sp needed
  96 0066 80BD     		pop	{r7, pc}
  97              	.L7:
  98              		.align	2
  99              	.L6:
 100 0068 00300140 		.word	1073819648
 101 006c 00380040 		.word	1073756160
 102 0070 003C0040 		.word	1073757184
 103              		.cfi_endproc
 104              	.LFE29:
 105              		.size	SPI_I2S_DeInit, .-SPI_I2S_DeInit
 106              		.align	1
 107              		.global	SPI_Init
 108              		.syntax unified
 109              		.thumb
 110              		.thumb_func
 111              		.fpu softvfp
 112              		.type	SPI_Init, %function
 113              	SPI_Init:
 114              	.LFB30:
 149:../../source/src/FWlib/src/stm32f10x_spi.c **** 
 150:../../source/src/FWlib/src/stm32f10x_spi.c **** /**
 151:../../source/src/FWlib/src/stm32f10x_spi.c ****   * @brief  Initializes the SPIx peripheral according to the specified 
 152:../../source/src/FWlib/src/stm32f10x_spi.c ****   *         parameters in the SPI_InitStruct.
 153:../../source/src/FWlib/src/stm32f10x_spi.c ****   * @param  SPIx: where x can be 1, 2 or 3 to select the SPI peripheral.
 154:../../source/src/FWlib/src/stm32f10x_spi.c ****   * @param  SPI_InitStruct: pointer to a SPI_InitTypeDef structure that
 155:../../source/src/FWlib/src/stm32f10x_spi.c ****   *         contains the configuration information for the specified SPI peripheral.
 156:../../source/src/FWlib/src/stm32f10x_spi.c ****   * @retval None
 157:../../source/src/FWlib/src/stm32f10x_spi.c ****   */
 158:../../source/src/FWlib/src/stm32f10x_spi.c **** void SPI_Init(SPI_TypeDef* SPIx, SPI_InitTypeDef* SPI_InitStruct)
 159:../../source/src/FWlib/src/stm32f10x_spi.c **** {
 115              		.loc 1 159 0
 116              		.cfi_startproc
 117              		@ args = 0, pretend = 0, frame = 16
 118              		@ frame_needed = 1, uses_anonymous_args = 0
 119              		@ link register save eliminated.
 120 0074 80B4     		push	{r7}
ARM GAS  G:\Users\Jaxb\AppData\Local\Temp\ccN59N5m.s 			page 6


 121              	.LCFI5:
 122              		.cfi_def_cfa_offset 4
 123              		.cfi_offset 7, -4
 124 0076 85B0     		sub	sp, sp, #20
 125              	.LCFI6:
 126              		.cfi_def_cfa_offset 24
 127 0078 00AF     		add	r7, sp, #0
 128              	.LCFI7:
 129              		.cfi_def_cfa_register 7
 130 007a 7860     		str	r0, [r7, #4]
 131 007c 3960     		str	r1, [r7]
 160:../../source/src/FWlib/src/stm32f10x_spi.c ****   uint16_t tmpreg = 0;
 132              		.loc 1 160 0
 133 007e 0023     		movs	r3, #0
 134 0080 FB81     		strh	r3, [r7, #14]	@ movhi
 161:../../source/src/FWlib/src/stm32f10x_spi.c ****   
 162:../../source/src/FWlib/src/stm32f10x_spi.c ****   /* check the parameters */
 163:../../source/src/FWlib/src/stm32f10x_spi.c ****   assert_param(IS_SPI_ALL_PERIPH(SPIx));   
 164:../../source/src/FWlib/src/stm32f10x_spi.c ****   
 165:../../source/src/FWlib/src/stm32f10x_spi.c ****   /* Check the SPI parameters */
 166:../../source/src/FWlib/src/stm32f10x_spi.c ****   assert_param(IS_SPI_DIRECTION_MODE(SPI_InitStruct->SPI_Direction));
 167:../../source/src/FWlib/src/stm32f10x_spi.c ****   assert_param(IS_SPI_MODE(SPI_InitStruct->SPI_Mode));
 168:../../source/src/FWlib/src/stm32f10x_spi.c ****   assert_param(IS_SPI_DATASIZE(SPI_InitStruct->SPI_DataSize));
 169:../../source/src/FWlib/src/stm32f10x_spi.c ****   assert_param(IS_SPI_CPOL(SPI_InitStruct->SPI_CPOL));
 170:../../source/src/FWlib/src/stm32f10x_spi.c ****   assert_param(IS_SPI_CPHA(SPI_InitStruct->SPI_CPHA));
 171:../../source/src/FWlib/src/stm32f10x_spi.c ****   assert_param(IS_SPI_NSS(SPI_InitStruct->SPI_NSS));
 172:../../source/src/FWlib/src/stm32f10x_spi.c ****   assert_param(IS_SPI_BAUDRATE_PRESCALER(SPI_InitStruct->SPI_BaudRatePrescaler));
 173:../../source/src/FWlib/src/stm32f10x_spi.c ****   assert_param(IS_SPI_FIRST_BIT(SPI_InitStruct->SPI_FirstBit));
 174:../../source/src/FWlib/src/stm32f10x_spi.c ****   assert_param(IS_SPI_CRC_POLYNOMIAL(SPI_InitStruct->SPI_CRCPolynomial));
 175:../../source/src/FWlib/src/stm32f10x_spi.c **** 
 176:../../source/src/FWlib/src/stm32f10x_spi.c **** /*---------------------------- SPIx CR1 Configuration ------------------------*/
 177:../../source/src/FWlib/src/stm32f10x_spi.c ****   /* Get the SPIx CR1 value */
 178:../../source/src/FWlib/src/stm32f10x_spi.c ****   tmpreg = SPIx->CR1;
 135              		.loc 1 178 0
 136 0082 7B68     		ldr	r3, [r7, #4]
 137 0084 1B88     		ldrh	r3, [r3]	@ movhi
 138 0086 FB81     		strh	r3, [r7, #14]	@ movhi
 179:../../source/src/FWlib/src/stm32f10x_spi.c ****   /* Clear BIDIMode, BIDIOE, RxONLY, SSM, SSI, LSBFirst, BR, MSTR, CPOL and CPHA bits */
 180:../../source/src/FWlib/src/stm32f10x_spi.c ****   tmpreg &= CR1_CLEAR_Mask;
 139              		.loc 1 180 0
 140 0088 FB89     		ldrh	r3, [r7, #14]	@ movhi
 141 008a 03F44153 		and	r3, r3, #12352
 142 008e FB81     		strh	r3, [r7, #14]	@ movhi
 181:../../source/src/FWlib/src/stm32f10x_spi.c ****   /* Configure SPIx: direction, NSS management, first transmitted bit, BaudRate prescaler
 182:../../source/src/FWlib/src/stm32f10x_spi.c ****      master/salve mode, CPOL and CPHA */
 183:../../source/src/FWlib/src/stm32f10x_spi.c ****   /* Set BIDImode, BIDIOE and RxONLY bits according to SPI_Direction value */
 184:../../source/src/FWlib/src/stm32f10x_spi.c ****   /* Set SSM, SSI and MSTR bits according to SPI_Mode and SPI_NSS values */
 185:../../source/src/FWlib/src/stm32f10x_spi.c ****   /* Set LSBFirst bit according to SPI_FirstBit value */
 186:../../source/src/FWlib/src/stm32f10x_spi.c ****   /* Set BR bits according to SPI_BaudRatePrescaler value */
 187:../../source/src/FWlib/src/stm32f10x_spi.c ****   /* Set CPOL bit according to SPI_CPOL value */
 188:../../source/src/FWlib/src/stm32f10x_spi.c ****   /* Set CPHA bit according to SPI_CPHA value */
 189:../../source/src/FWlib/src/stm32f10x_spi.c ****   tmpreg |= (uint16_t)((uint32_t)SPI_InitStruct->SPI_Direction | SPI_InitStruct->SPI_Mode |
 143              		.loc 1 189 0
 144 0090 3B68     		ldr	r3, [r7]
 145 0092 1A88     		ldrh	r2, [r3]
 146 0094 3B68     		ldr	r3, [r7]
 147 0096 5B88     		ldrh	r3, [r3, #2]
ARM GAS  G:\Users\Jaxb\AppData\Local\Temp\ccN59N5m.s 			page 7


 148 0098 1343     		orrs	r3, r3, r2
 149 009a 9AB2     		uxth	r2, r3
 190:../../source/src/FWlib/src/stm32f10x_spi.c ****                   SPI_InitStruct->SPI_DataSize | SPI_InitStruct->SPI_CPOL |  
 150              		.loc 1 190 0
 151 009c 3B68     		ldr	r3, [r7]
 152 009e 9B88     		ldrh	r3, [r3, #4]
 189:../../source/src/FWlib/src/stm32f10x_spi.c ****                   SPI_InitStruct->SPI_DataSize | SPI_InitStruct->SPI_CPOL |  
 153              		.loc 1 189 0
 154 00a0 1343     		orrs	r3, r3, r2
 155 00a2 9AB2     		uxth	r2, r3
 156              		.loc 1 190 0
 157 00a4 3B68     		ldr	r3, [r7]
 158 00a6 DB88     		ldrh	r3, [r3, #6]
 189:../../source/src/FWlib/src/stm32f10x_spi.c ****                   SPI_InitStruct->SPI_DataSize | SPI_InitStruct->SPI_CPOL |  
 159              		.loc 1 189 0
 160 00a8 1343     		orrs	r3, r3, r2
 161 00aa 9AB2     		uxth	r2, r3
 191:../../source/src/FWlib/src/stm32f10x_spi.c ****                   SPI_InitStruct->SPI_CPHA | SPI_InitStruct->SPI_NSS |  
 162              		.loc 1 191 0
 163 00ac 3B68     		ldr	r3, [r7]
 164 00ae 1B89     		ldrh	r3, [r3, #8]
 189:../../source/src/FWlib/src/stm32f10x_spi.c ****                   SPI_InitStruct->SPI_DataSize | SPI_InitStruct->SPI_CPOL |  
 165              		.loc 1 189 0
 166 00b0 1343     		orrs	r3, r3, r2
 167 00b2 9AB2     		uxth	r2, r3
 168              		.loc 1 191 0
 169 00b4 3B68     		ldr	r3, [r7]
 170 00b6 5B89     		ldrh	r3, [r3, #10]
 189:../../source/src/FWlib/src/stm32f10x_spi.c ****                   SPI_InitStruct->SPI_DataSize | SPI_InitStruct->SPI_CPOL |  
 171              		.loc 1 189 0
 172 00b8 1343     		orrs	r3, r3, r2
 173 00ba 9AB2     		uxth	r2, r3
 192:../../source/src/FWlib/src/stm32f10x_spi.c ****                   SPI_InitStruct->SPI_BaudRatePrescaler | SPI_InitStruct->SPI_FirstBit);
 174              		.loc 1 192 0
 175 00bc 3B68     		ldr	r3, [r7]
 176 00be 9B89     		ldrh	r3, [r3, #12]
 189:../../source/src/FWlib/src/stm32f10x_spi.c ****                   SPI_InitStruct->SPI_DataSize | SPI_InitStruct->SPI_CPOL |  
 177              		.loc 1 189 0
 178 00c0 1343     		orrs	r3, r3, r2
 179 00c2 9AB2     		uxth	r2, r3
 180              		.loc 1 192 0
 181 00c4 3B68     		ldr	r3, [r7]
 182 00c6 DB89     		ldrh	r3, [r3, #14]
 189:../../source/src/FWlib/src/stm32f10x_spi.c ****                   SPI_InitStruct->SPI_DataSize | SPI_InitStruct->SPI_CPOL |  
 183              		.loc 1 189 0
 184 00c8 1343     		orrs	r3, r3, r2
 185 00ca 9AB2     		uxth	r2, r3
 186 00cc FB89     		ldrh	r3, [r7, #14]	@ movhi
 187 00ce 1343     		orrs	r3, r3, r2
 188 00d0 FB81     		strh	r3, [r7, #14]	@ movhi
 193:../../source/src/FWlib/src/stm32f10x_spi.c ****   /* Write to SPIx CR1 */
 194:../../source/src/FWlib/src/stm32f10x_spi.c ****   SPIx->CR1 = tmpreg;
 189              		.loc 1 194 0
 190 00d2 7B68     		ldr	r3, [r7, #4]
 191 00d4 FA89     		ldrh	r2, [r7, #14]	@ movhi
 192 00d6 1A80     		strh	r2, [r3]	@ movhi
 195:../../source/src/FWlib/src/stm32f10x_spi.c ****   
ARM GAS  G:\Users\Jaxb\AppData\Local\Temp\ccN59N5m.s 			page 8


 196:../../source/src/FWlib/src/stm32f10x_spi.c ****   /* Activate the SPI mode (Reset I2SMOD bit in I2SCFGR register) */
 197:../../source/src/FWlib/src/stm32f10x_spi.c ****   SPIx->I2SCFGR &= SPI_Mode_Select;		
 193              		.loc 1 197 0
 194 00d8 7B68     		ldr	r3, [r7, #4]
 195 00da 9B8B     		ldrh	r3, [r3, #28]	@ movhi
 196 00dc 9BB2     		uxth	r3, r3
 197 00de 23F40063 		bic	r3, r3, #2048
 198 00e2 9AB2     		uxth	r2, r3
 199 00e4 7B68     		ldr	r3, [r7, #4]
 200 00e6 9A83     		strh	r2, [r3, #28]	@ movhi
 198:../../source/src/FWlib/src/stm32f10x_spi.c **** 
 199:../../source/src/FWlib/src/stm32f10x_spi.c **** /*---------------------------- SPIx CRCPOLY Configuration --------------------*/
 200:../../source/src/FWlib/src/stm32f10x_spi.c ****   /* Write to SPIx CRCPOLY */
 201:../../source/src/FWlib/src/stm32f10x_spi.c ****   SPIx->CRCPR = SPI_InitStruct->SPI_CRCPolynomial;
 201              		.loc 1 201 0
 202 00e8 3B68     		ldr	r3, [r7]
 203 00ea 1A8A     		ldrh	r2, [r3, #16]
 204 00ec 7B68     		ldr	r3, [r7, #4]
 205 00ee 1A82     		strh	r2, [r3, #16]	@ movhi
 202:../../source/src/FWlib/src/stm32f10x_spi.c **** }
 206              		.loc 1 202 0
 207 00f0 00BF     		nop
 208 00f2 1437     		adds	r7, r7, #20
 209              	.LCFI8:
 210              		.cfi_def_cfa_offset 4
 211 00f4 BD46     		mov	sp, r7
 212              	.LCFI9:
 213              		.cfi_def_cfa_register 13
 214              		@ sp needed
 215 00f6 80BC     		pop	{r7}
 216              	.LCFI10:
 217              		.cfi_restore 7
 218              		.cfi_def_cfa_offset 0
 219 00f8 7047     		bx	lr
 220              		.cfi_endproc
 221              	.LFE30:
 222              		.size	SPI_Init, .-SPI_Init
 223              		.align	1
 224              		.global	I2S_Init
 225              		.syntax unified
 226              		.thumb
 227              		.thumb_func
 228              		.fpu softvfp
 229              		.type	I2S_Init, %function
 230              	I2S_Init:
 231              	.LFB31:
 203:../../source/src/FWlib/src/stm32f10x_spi.c **** 
 204:../../source/src/FWlib/src/stm32f10x_spi.c **** /**
 205:../../source/src/FWlib/src/stm32f10x_spi.c ****   * @brief  Initializes the SPIx peripheral according to the specified 
 206:../../source/src/FWlib/src/stm32f10x_spi.c ****   *         parameters in the I2S_InitStruct.
 207:../../source/src/FWlib/src/stm32f10x_spi.c ****   * @param  SPIx: where x can be  2 or 3 to select the SPI peripheral
 208:../../source/src/FWlib/src/stm32f10x_spi.c ****   *         (configured in I2S mode).
 209:../../source/src/FWlib/src/stm32f10x_spi.c ****   * @param  I2S_InitStruct: pointer to an I2S_InitTypeDef structure that
 210:../../source/src/FWlib/src/stm32f10x_spi.c ****   *         contains the configuration information for the specified SPI peripheral
 211:../../source/src/FWlib/src/stm32f10x_spi.c ****   *         configured in I2S mode.
 212:../../source/src/FWlib/src/stm32f10x_spi.c ****   * @note
 213:../../source/src/FWlib/src/stm32f10x_spi.c ****   *  The function calculates the optimal prescaler needed to obtain the most 
ARM GAS  G:\Users\Jaxb\AppData\Local\Temp\ccN59N5m.s 			page 9


 214:../../source/src/FWlib/src/stm32f10x_spi.c ****   *  accurate audio frequency (depending on the I2S clock source, the PLL values 
 215:../../source/src/FWlib/src/stm32f10x_spi.c ****   *  and the product configuration). But in case the prescaler value is greater 
 216:../../source/src/FWlib/src/stm32f10x_spi.c ****   *  than 511, the default value (0x02) will be configured instead.  *   
 217:../../source/src/FWlib/src/stm32f10x_spi.c ****   * @retval None
 218:../../source/src/FWlib/src/stm32f10x_spi.c ****   */
 219:../../source/src/FWlib/src/stm32f10x_spi.c **** void I2S_Init(SPI_TypeDef* SPIx, I2S_InitTypeDef* I2S_InitStruct)
 220:../../source/src/FWlib/src/stm32f10x_spi.c **** {
 232              		.loc 1 220 0
 233              		.cfi_startproc
 234              		@ args = 0, pretend = 0, frame = 48
 235              		@ frame_needed = 1, uses_anonymous_args = 0
 236 00fa 80B5     		push	{r7, lr}
 237              	.LCFI11:
 238              		.cfi_def_cfa_offset 8
 239              		.cfi_offset 7, -8
 240              		.cfi_offset 14, -4
 241 00fc 8CB0     		sub	sp, sp, #48
 242              	.LCFI12:
 243              		.cfi_def_cfa_offset 56
 244 00fe 00AF     		add	r7, sp, #0
 245              	.LCFI13:
 246              		.cfi_def_cfa_register 7
 247 0100 7860     		str	r0, [r7, #4]
 248 0102 3960     		str	r1, [r7]
 221:../../source/src/FWlib/src/stm32f10x_spi.c ****   uint16_t tmpreg = 0, i2sdiv = 2, i2sodd = 0, packetlength = 1;
 249              		.loc 1 221 0
 250 0104 0023     		movs	r3, #0
 251 0106 7B84     		strh	r3, [r7, #34]	@ movhi
 252 0108 0223     		movs	r3, #2
 253 010a FB85     		strh	r3, [r7, #46]	@ movhi
 254 010c 0023     		movs	r3, #0
 255 010e BB85     		strh	r3, [r7, #44]	@ movhi
 256 0110 0123     		movs	r3, #1
 257 0112 7B85     		strh	r3, [r7, #42]	@ movhi
 222:../../source/src/FWlib/src/stm32f10x_spi.c ****   uint32_t tmp = 0;
 258              		.loc 1 222 0
 259 0114 0023     		movs	r3, #0
 260 0116 7B62     		str	r3, [r7, #36]
 223:../../source/src/FWlib/src/stm32f10x_spi.c ****   RCC_ClocksTypeDef RCC_Clocks;
 224:../../source/src/FWlib/src/stm32f10x_spi.c ****   uint32_t sourceclock = 0;
 261              		.loc 1 224 0
 262 0118 0023     		movs	r3, #0
 263 011a FB61     		str	r3, [r7, #28]
 225:../../source/src/FWlib/src/stm32f10x_spi.c ****   
 226:../../source/src/FWlib/src/stm32f10x_spi.c ****   /* Check the I2S parameters */
 227:../../source/src/FWlib/src/stm32f10x_spi.c ****   assert_param(IS_SPI_23_PERIPH(SPIx));
 228:../../source/src/FWlib/src/stm32f10x_spi.c ****   assert_param(IS_I2S_MODE(I2S_InitStruct->I2S_Mode));
 229:../../source/src/FWlib/src/stm32f10x_spi.c ****   assert_param(IS_I2S_STANDARD(I2S_InitStruct->I2S_Standard));
 230:../../source/src/FWlib/src/stm32f10x_spi.c ****   assert_param(IS_I2S_DATA_FORMAT(I2S_InitStruct->I2S_DataFormat));
 231:../../source/src/FWlib/src/stm32f10x_spi.c ****   assert_param(IS_I2S_MCLK_OUTPUT(I2S_InitStruct->I2S_MCLKOutput));
 232:../../source/src/FWlib/src/stm32f10x_spi.c ****   assert_param(IS_I2S_AUDIO_FREQ(I2S_InitStruct->I2S_AudioFreq));
 233:../../source/src/FWlib/src/stm32f10x_spi.c ****   assert_param(IS_I2S_CPOL(I2S_InitStruct->I2S_CPOL));  
 234:../../source/src/FWlib/src/stm32f10x_spi.c **** 
 235:../../source/src/FWlib/src/stm32f10x_spi.c **** /*----------------------- SPIx I2SCFGR & I2SPR Configuration -----------------*/
 236:../../source/src/FWlib/src/stm32f10x_spi.c ****   /* Clear I2SMOD, I2SE, I2SCFG, PCMSYNC, I2SSTD, CKPOL, DATLEN and CHLEN bits */
 237:../../source/src/FWlib/src/stm32f10x_spi.c ****   SPIx->I2SCFGR &= I2SCFGR_CLEAR_Mask; 
 264              		.loc 1 237 0
ARM GAS  G:\Users\Jaxb\AppData\Local\Temp\ccN59N5m.s 			page 10


 265 011c 7B68     		ldr	r3, [r7, #4]
 266 011e 9B8B     		ldrh	r3, [r3, #28]	@ movhi
 267 0120 9BB2     		uxth	r3, r3
 268 0122 23F47B63 		bic	r3, r3, #4016
 269 0126 23F00F03 		bic	r3, r3, #15
 270 012a 9AB2     		uxth	r2, r3
 271 012c 7B68     		ldr	r3, [r7, #4]
 272 012e 9A83     		strh	r2, [r3, #28]	@ movhi
 238:../../source/src/FWlib/src/stm32f10x_spi.c ****   SPIx->I2SPR = 0x0002;
 273              		.loc 1 238 0
 274 0130 7B68     		ldr	r3, [r7, #4]
 275 0132 0222     		movs	r2, #2
 276 0134 1A84     		strh	r2, [r3, #32]	@ movhi
 239:../../source/src/FWlib/src/stm32f10x_spi.c ****   
 240:../../source/src/FWlib/src/stm32f10x_spi.c ****   /* Get the I2SCFGR register value */
 241:../../source/src/FWlib/src/stm32f10x_spi.c ****   tmpreg = SPIx->I2SCFGR;
 277              		.loc 1 241 0
 278 0136 7B68     		ldr	r3, [r7, #4]
 279 0138 9B8B     		ldrh	r3, [r3, #28]	@ movhi
 280 013a 7B84     		strh	r3, [r7, #34]	@ movhi
 242:../../source/src/FWlib/src/stm32f10x_spi.c ****   
 243:../../source/src/FWlib/src/stm32f10x_spi.c ****   /* If the default value has to be written, reinitialize i2sdiv and i2sodd*/
 244:../../source/src/FWlib/src/stm32f10x_spi.c ****   if(I2S_InitStruct->I2S_AudioFreq == I2S_AudioFreq_Default)
 281              		.loc 1 244 0
 282 013c 3B68     		ldr	r3, [r7]
 283 013e 9B68     		ldr	r3, [r3, #8]
 284 0140 022B     		cmp	r3, #2
 285 0142 04D1     		bne	.L10
 245:../../source/src/FWlib/src/stm32f10x_spi.c ****   {
 246:../../source/src/FWlib/src/stm32f10x_spi.c ****     i2sodd = (uint16_t)0;
 286              		.loc 1 246 0
 287 0144 0023     		movs	r3, #0
 288 0146 BB85     		strh	r3, [r7, #44]	@ movhi
 247:../../source/src/FWlib/src/stm32f10x_spi.c ****     i2sdiv = (uint16_t)2;   
 289              		.loc 1 247 0
 290 0148 0223     		movs	r3, #2
 291 014a FB85     		strh	r3, [r7, #46]	@ movhi
 292 014c 55E0     		b	.L11
 293              	.L10:
 248:../../source/src/FWlib/src/stm32f10x_spi.c ****   }
 249:../../source/src/FWlib/src/stm32f10x_spi.c ****   /* If the requested audio frequency is not the default, compute the prescaler */
 250:../../source/src/FWlib/src/stm32f10x_spi.c ****   else
 251:../../source/src/FWlib/src/stm32f10x_spi.c ****   {
 252:../../source/src/FWlib/src/stm32f10x_spi.c ****     /* Check the frame length (For the Prescaler computing) */
 253:../../source/src/FWlib/src/stm32f10x_spi.c ****     if(I2S_InitStruct->I2S_DataFormat == I2S_DataFormat_16b)
 294              		.loc 1 253 0
 295 014e 3B68     		ldr	r3, [r7]
 296 0150 9B88     		ldrh	r3, [r3, #4]
 297 0152 002B     		cmp	r3, #0
 298 0154 02D1     		bne	.L12
 254:../../source/src/FWlib/src/stm32f10x_spi.c ****     {
 255:../../source/src/FWlib/src/stm32f10x_spi.c ****       /* Packet length is 16 bits */
 256:../../source/src/FWlib/src/stm32f10x_spi.c ****       packetlength = 1;
 299              		.loc 1 256 0
 300 0156 0123     		movs	r3, #1
 301 0158 7B85     		strh	r3, [r7, #42]	@ movhi
 302 015a 01E0     		b	.L13
ARM GAS  G:\Users\Jaxb\AppData\Local\Temp\ccN59N5m.s 			page 11


 303              	.L12:
 257:../../source/src/FWlib/src/stm32f10x_spi.c ****     }
 258:../../source/src/FWlib/src/stm32f10x_spi.c ****     else
 259:../../source/src/FWlib/src/stm32f10x_spi.c ****     {
 260:../../source/src/FWlib/src/stm32f10x_spi.c ****       /* Packet length is 32 bits */
 261:../../source/src/FWlib/src/stm32f10x_spi.c ****       packetlength = 2;
 304              		.loc 1 261 0
 305 015c 0223     		movs	r3, #2
 306 015e 7B85     		strh	r3, [r7, #42]	@ movhi
 307              	.L13:
 262:../../source/src/FWlib/src/stm32f10x_spi.c ****     }
 263:../../source/src/FWlib/src/stm32f10x_spi.c **** 
 264:../../source/src/FWlib/src/stm32f10x_spi.c ****     /* Get the I2S clock source mask depending on the peripheral number */
 265:../../source/src/FWlib/src/stm32f10x_spi.c ****     if(((uint32_t)SPIx) == SPI2_BASE)
 308              		.loc 1 265 0
 309 0160 7B68     		ldr	r3, [r7, #4]
 310 0162 3D4A     		ldr	r2, .L20
 311 0164 9342     		cmp	r3, r2
 312 0166 03D1     		bne	.L14
 266:../../source/src/FWlib/src/stm32f10x_spi.c ****     {
 267:../../source/src/FWlib/src/stm32f10x_spi.c ****       /* The mask is relative to I2S2 */
 268:../../source/src/FWlib/src/stm32f10x_spi.c ****       tmp = I2S2_CLOCK_SRC;
 313              		.loc 1 268 0
 314 0168 4FF40033 		mov	r3, #131072
 315 016c 7B62     		str	r3, [r7, #36]
 316 016e 02E0     		b	.L15
 317              	.L14:
 269:../../source/src/FWlib/src/stm32f10x_spi.c ****     }
 270:../../source/src/FWlib/src/stm32f10x_spi.c ****     else 
 271:../../source/src/FWlib/src/stm32f10x_spi.c ****     {
 272:../../source/src/FWlib/src/stm32f10x_spi.c ****       /* The mask is relative to I2S3 */      
 273:../../source/src/FWlib/src/stm32f10x_spi.c ****       tmp = I2S3_CLOCK_SRC;
 318              		.loc 1 273 0
 319 0170 4FF48023 		mov	r3, #262144
 320 0174 7B62     		str	r3, [r7, #36]
 321              	.L15:
 274:../../source/src/FWlib/src/stm32f10x_spi.c ****     }
 275:../../source/src/FWlib/src/stm32f10x_spi.c **** 
 276:../../source/src/FWlib/src/stm32f10x_spi.c ****     /* Check the I2S clock source configuration depending on the Device:
 277:../../source/src/FWlib/src/stm32f10x_spi.c ****        Only Connectivity line devices have the PLL3 VCO clock */
 278:../../source/src/FWlib/src/stm32f10x_spi.c **** #ifdef STM32F10X_CL
 279:../../source/src/FWlib/src/stm32f10x_spi.c ****     if((RCC->CFGR2 & tmp) != 0)
 280:../../source/src/FWlib/src/stm32f10x_spi.c ****     {
 281:../../source/src/FWlib/src/stm32f10x_spi.c ****       /* Get the configuration bits of RCC PLL3 multiplier */
 282:../../source/src/FWlib/src/stm32f10x_spi.c ****       tmp = (uint32_t)((RCC->CFGR2 & I2S_MUL_MASK) >> 12);
 283:../../source/src/FWlib/src/stm32f10x_spi.c **** 
 284:../../source/src/FWlib/src/stm32f10x_spi.c ****       /* Get the value of the PLL3 multiplier */      
 285:../../source/src/FWlib/src/stm32f10x_spi.c ****       if((tmp > 5) && (tmp < 15))
 286:../../source/src/FWlib/src/stm32f10x_spi.c ****       {
 287:../../source/src/FWlib/src/stm32f10x_spi.c ****         /* Multiplier is between 8 and 14 (value 15 is forbidden) */
 288:../../source/src/FWlib/src/stm32f10x_spi.c ****         tmp += 2;
 289:../../source/src/FWlib/src/stm32f10x_spi.c ****       }
 290:../../source/src/FWlib/src/stm32f10x_spi.c ****       else
 291:../../source/src/FWlib/src/stm32f10x_spi.c ****       {
 292:../../source/src/FWlib/src/stm32f10x_spi.c ****         if (tmp == 15)
 293:../../source/src/FWlib/src/stm32f10x_spi.c ****         {
 294:../../source/src/FWlib/src/stm32f10x_spi.c ****           /* Multiplier is 20 */
ARM GAS  G:\Users\Jaxb\AppData\Local\Temp\ccN59N5m.s 			page 12


 295:../../source/src/FWlib/src/stm32f10x_spi.c ****           tmp = 20;
 296:../../source/src/FWlib/src/stm32f10x_spi.c ****         }
 297:../../source/src/FWlib/src/stm32f10x_spi.c ****       }      
 298:../../source/src/FWlib/src/stm32f10x_spi.c ****       /* Get the PREDIV2 value */
 299:../../source/src/FWlib/src/stm32f10x_spi.c ****       sourceclock = (uint32_t)(((RCC->CFGR2 & I2S_DIV_MASK) >> 4) + 1);
 300:../../source/src/FWlib/src/stm32f10x_spi.c ****       
 301:../../source/src/FWlib/src/stm32f10x_spi.c ****       /* Calculate the Source Clock frequency based on PLL3 and PREDIV2 values */
 302:../../source/src/FWlib/src/stm32f10x_spi.c ****       sourceclock = (uint32_t) ((HSE_Value / sourceclock) * tmp * 2); 
 303:../../source/src/FWlib/src/stm32f10x_spi.c ****     }
 304:../../source/src/FWlib/src/stm32f10x_spi.c ****     else
 305:../../source/src/FWlib/src/stm32f10x_spi.c ****     {
 306:../../source/src/FWlib/src/stm32f10x_spi.c ****       /* I2S Clock source is System clock: Get System Clock frequency */
 307:../../source/src/FWlib/src/stm32f10x_spi.c ****       RCC_GetClocksFreq(&RCC_Clocks);      
 308:../../source/src/FWlib/src/stm32f10x_spi.c ****       
 309:../../source/src/FWlib/src/stm32f10x_spi.c ****       /* Get the source clock value: based on System Clock value */
 310:../../source/src/FWlib/src/stm32f10x_spi.c ****       sourceclock = RCC_Clocks.SYSCLK_Frequency;
 311:../../source/src/FWlib/src/stm32f10x_spi.c ****     }        
 312:../../source/src/FWlib/src/stm32f10x_spi.c **** #else /* STM32F10X_HD */
 313:../../source/src/FWlib/src/stm32f10x_spi.c ****     /* I2S Clock source is System clock: Get System Clock frequency */
 314:../../source/src/FWlib/src/stm32f10x_spi.c ****     RCC_GetClocksFreq(&RCC_Clocks);      
 322              		.loc 1 314 0
 323 0176 07F10803 		add	r3, r7, #8
 324 017a 1846     		mov	r0, r3
 325 017c FFF7FEFF 		bl	RCC_GetClocksFreq
 315:../../source/src/FWlib/src/stm32f10x_spi.c ****       
 316:../../source/src/FWlib/src/stm32f10x_spi.c ****     /* Get the source clock value: based on System Clock value */
 317:../../source/src/FWlib/src/stm32f10x_spi.c ****     sourceclock = RCC_Clocks.SYSCLK_Frequency;    
 326              		.loc 1 317 0
 327 0180 BB68     		ldr	r3, [r7, #8]
 328 0182 FB61     		str	r3, [r7, #28]
 318:../../source/src/FWlib/src/stm32f10x_spi.c **** #endif /* STM32F10X_CL */    
 319:../../source/src/FWlib/src/stm32f10x_spi.c **** 
 320:../../source/src/FWlib/src/stm32f10x_spi.c ****     /* Compute the Real divider depending on the MCLK output state with a floating point */
 321:../../source/src/FWlib/src/stm32f10x_spi.c ****     if(I2S_InitStruct->I2S_MCLKOutput == I2S_MCLKOutput_Enable)
 329              		.loc 1 321 0
 330 0184 3B68     		ldr	r3, [r7]
 331 0186 DB88     		ldrh	r3, [r3, #6]
 332 0188 B3F5007F 		cmp	r3, #512
 333 018c 0FD1     		bne	.L16
 322:../../source/src/FWlib/src/stm32f10x_spi.c ****     {
 323:../../source/src/FWlib/src/stm32f10x_spi.c ****       /* MCLK output is enabled */
 324:../../source/src/FWlib/src/stm32f10x_spi.c ****       tmp = (uint16_t)(((((sourceclock / 256) * 10) / I2S_InitStruct->I2S_AudioFreq)) + 5);
 334              		.loc 1 324 0
 335 018e FB69     		ldr	r3, [r7, #28]
 336 0190 1A0A     		lsrs	r2, r3, #8
 337 0192 1346     		mov	r3, r2
 338 0194 9B00     		lsls	r3, r3, #2
 339 0196 1344     		add	r3, r3, r2
 340 0198 5B00     		lsls	r3, r3, #1
 341 019a 1A46     		mov	r2, r3
 342 019c 3B68     		ldr	r3, [r7]
 343 019e 9B68     		ldr	r3, [r3, #8]
 344 01a0 B2FBF3F3 		udiv	r3, r2, r3
 345 01a4 9BB2     		uxth	r3, r3
 346 01a6 0533     		adds	r3, r3, #5
 347 01a8 9BB2     		uxth	r3, r3
 348 01aa 7B62     		str	r3, [r7, #36]
ARM GAS  G:\Users\Jaxb\AppData\Local\Temp\ccN59N5m.s 			page 13


 349 01ac 12E0     		b	.L17
 350              	.L16:
 325:../../source/src/FWlib/src/stm32f10x_spi.c ****     }
 326:../../source/src/FWlib/src/stm32f10x_spi.c ****     else
 327:../../source/src/FWlib/src/stm32f10x_spi.c ****     {
 328:../../source/src/FWlib/src/stm32f10x_spi.c ****       /* MCLK output is disabled */
 329:../../source/src/FWlib/src/stm32f10x_spi.c ****       tmp = (uint16_t)(((((sourceclock / (32 * packetlength)) *10 ) / I2S_InitStruct->I2S_AudioFreq
 351              		.loc 1 329 0
 352 01ae 7B8D     		ldrh	r3, [r7, #42]
 353 01b0 5B01     		lsls	r3, r3, #5
 354 01b2 1A46     		mov	r2, r3
 355 01b4 FB69     		ldr	r3, [r7, #28]
 356 01b6 B3FBF2F2 		udiv	r2, r3, r2
 357 01ba 1346     		mov	r3, r2
 358 01bc 9B00     		lsls	r3, r3, #2
 359 01be 1344     		add	r3, r3, r2
 360 01c0 5B00     		lsls	r3, r3, #1
 361 01c2 1A46     		mov	r2, r3
 362 01c4 3B68     		ldr	r3, [r7]
 363 01c6 9B68     		ldr	r3, [r3, #8]
 364 01c8 B2FBF3F3 		udiv	r3, r2, r3
 365 01cc 9BB2     		uxth	r3, r3
 366 01ce 0533     		adds	r3, r3, #5
 367 01d0 9BB2     		uxth	r3, r3
 368 01d2 7B62     		str	r3, [r7, #36]
 369              	.L17:
 330:../../source/src/FWlib/src/stm32f10x_spi.c ****     }
 331:../../source/src/FWlib/src/stm32f10x_spi.c ****     
 332:../../source/src/FWlib/src/stm32f10x_spi.c ****     /* Remove the floating point */
 333:../../source/src/FWlib/src/stm32f10x_spi.c ****     tmp = tmp / 10;  
 370              		.loc 1 333 0
 371 01d4 7B6A     		ldr	r3, [r7, #36]
 372 01d6 214A     		ldr	r2, .L20+4
 373 01d8 A2FB0323 		umull	r2, r3, r2, r3
 374 01dc DB08     		lsrs	r3, r3, #3
 375 01de 7B62     		str	r3, [r7, #36]
 334:../../source/src/FWlib/src/stm32f10x_spi.c ****       
 335:../../source/src/FWlib/src/stm32f10x_spi.c ****     /* Check the parity of the divider */
 336:../../source/src/FWlib/src/stm32f10x_spi.c ****     i2sodd = (uint16_t)(tmp & (uint16_t)0x0001);
 376              		.loc 1 336 0
 377 01e0 7B6A     		ldr	r3, [r7, #36]
 378 01e2 9BB2     		uxth	r3, r3
 379 01e4 03F00103 		and	r3, r3, #1
 380 01e8 BB85     		strh	r3, [r7, #44]	@ movhi
 337:../../source/src/FWlib/src/stm32f10x_spi.c ****    
 338:../../source/src/FWlib/src/stm32f10x_spi.c ****     /* Compute the i2sdiv prescaler */
 339:../../source/src/FWlib/src/stm32f10x_spi.c ****     i2sdiv = (uint16_t)((tmp - i2sodd) / 2);
 381              		.loc 1 339 0
 382 01ea BB8D     		ldrh	r3, [r7, #44]
 383 01ec 7A6A     		ldr	r2, [r7, #36]
 384 01ee D31A     		subs	r3, r2, r3
 385 01f0 5B08     		lsrs	r3, r3, #1
 386 01f2 FB85     		strh	r3, [r7, #46]	@ movhi
 340:../../source/src/FWlib/src/stm32f10x_spi.c ****    
 341:../../source/src/FWlib/src/stm32f10x_spi.c ****     /* Get the Mask for the Odd bit (SPI_I2SPR[8]) register */
 342:../../source/src/FWlib/src/stm32f10x_spi.c ****     i2sodd = (uint16_t) (i2sodd << 8);
 387              		.loc 1 342 0
ARM GAS  G:\Users\Jaxb\AppData\Local\Temp\ccN59N5m.s 			page 14


 388 01f4 BB8D     		ldrh	r3, [r7, #44]	@ movhi
 389 01f6 1B02     		lsls	r3, r3, #8
 390 01f8 BB85     		strh	r3, [r7, #44]	@ movhi
 391              	.L11:
 343:../../source/src/FWlib/src/stm32f10x_spi.c ****   }
 344:../../source/src/FWlib/src/stm32f10x_spi.c ****   
 345:../../source/src/FWlib/src/stm32f10x_spi.c ****   /* Test if the divider is 1 or 0 or greater than 0xFF */
 346:../../source/src/FWlib/src/stm32f10x_spi.c ****   if ((i2sdiv < 2) || (i2sdiv > 0xFF))
 392              		.loc 1 346 0
 393 01fa FB8D     		ldrh	r3, [r7, #46]
 394 01fc 012B     		cmp	r3, #1
 395 01fe 02D9     		bls	.L18
 396              		.loc 1 346 0 is_stmt 0 discriminator 1
 397 0200 FB8D     		ldrh	r3, [r7, #46]
 398 0202 FF2B     		cmp	r3, #255
 399 0204 03D9     		bls	.L19
 400              	.L18:
 347:../../source/src/FWlib/src/stm32f10x_spi.c ****   {
 348:../../source/src/FWlib/src/stm32f10x_spi.c ****     /* Set the default values */
 349:../../source/src/FWlib/src/stm32f10x_spi.c ****     i2sdiv = 2;
 401              		.loc 1 349 0 is_stmt 1
 402 0206 0223     		movs	r3, #2
 403 0208 FB85     		strh	r3, [r7, #46]	@ movhi
 350:../../source/src/FWlib/src/stm32f10x_spi.c ****     i2sodd = 0;
 404              		.loc 1 350 0
 405 020a 0023     		movs	r3, #0
 406 020c BB85     		strh	r3, [r7, #44]	@ movhi
 407              	.L19:
 351:../../source/src/FWlib/src/stm32f10x_spi.c ****   }
 352:../../source/src/FWlib/src/stm32f10x_spi.c **** 
 353:../../source/src/FWlib/src/stm32f10x_spi.c ****   /* Write to SPIx I2SPR register the computed value */
 354:../../source/src/FWlib/src/stm32f10x_spi.c ****   SPIx->I2SPR = (uint16_t)(i2sdiv | (uint16_t)(i2sodd | (uint16_t)I2S_InitStruct->I2S_MCLKOutput));
 408              		.loc 1 354 0
 409 020e 3B68     		ldr	r3, [r7]
 410 0210 DA88     		ldrh	r2, [r3, #6]
 411 0212 BB8D     		ldrh	r3, [r7, #44]	@ movhi
 412 0214 1343     		orrs	r3, r3, r2
 413 0216 9AB2     		uxth	r2, r3
 414 0218 FB8D     		ldrh	r3, [r7, #46]	@ movhi
 415 021a 1343     		orrs	r3, r3, r2
 416 021c 9AB2     		uxth	r2, r3
 417 021e 7B68     		ldr	r3, [r7, #4]
 418 0220 1A84     		strh	r2, [r3, #32]	@ movhi
 355:../../source/src/FWlib/src/stm32f10x_spi.c ****  
 356:../../source/src/FWlib/src/stm32f10x_spi.c ****   /* Configure the I2S with the SPI_InitStruct values */
 357:../../source/src/FWlib/src/stm32f10x_spi.c ****   tmpreg |= (uint16_t)(I2S_Mode_Select | (uint16_t)(I2S_InitStruct->I2S_Mode | \
 419              		.loc 1 357 0
 420 0222 3B68     		ldr	r3, [r7]
 421 0224 1A88     		ldrh	r2, [r3]
 358:../../source/src/FWlib/src/stm32f10x_spi.c ****                   (uint16_t)(I2S_InitStruct->I2S_Standard | (uint16_t)(I2S_InitStruct->I2S_DataForm
 422              		.loc 1 358 0
 423 0226 3B68     		ldr	r3, [r7]
 424 0228 5988     		ldrh	r1, [r3, #2]
 425 022a 3B68     		ldr	r3, [r7]
 426 022c 9888     		ldrh	r0, [r3, #4]
 359:../../source/src/FWlib/src/stm32f10x_spi.c ****                   (uint16_t)I2S_InitStruct->I2S_CPOL))));
 427              		.loc 1 359 0
ARM GAS  G:\Users\Jaxb\AppData\Local\Temp\ccN59N5m.s 			page 15


 428 022e 3B68     		ldr	r3, [r7]
 429 0230 9B89     		ldrh	r3, [r3, #12]
 358:../../source/src/FWlib/src/stm32f10x_spi.c ****                   (uint16_t)(I2S_InitStruct->I2S_Standard | (uint16_t)(I2S_InitStruct->I2S_DataForm
 430              		.loc 1 358 0
 431 0232 0343     		orrs	r3, r3, r0
 432 0234 9BB2     		uxth	r3, r3
 433 0236 0B43     		orrs	r3, r3, r1
 434 0238 9BB2     		uxth	r3, r3
 357:../../source/src/FWlib/src/stm32f10x_spi.c ****                   (uint16_t)(I2S_InitStruct->I2S_Standard | (uint16_t)(I2S_InitStruct->I2S_DataForm
 435              		.loc 1 357 0
 436 023a 1343     		orrs	r3, r3, r2
 437 023c 9AB2     		uxth	r2, r3
 438 023e 7B8C     		ldrh	r3, [r7, #34]	@ movhi
 439 0240 1343     		orrs	r3, r3, r2
 440 0242 9BB2     		uxth	r3, r3
 441 0244 43F40063 		orr	r3, r3, #2048
 442 0248 7B84     		strh	r3, [r7, #34]	@ movhi
 360:../../source/src/FWlib/src/stm32f10x_spi.c ****  
 361:../../source/src/FWlib/src/stm32f10x_spi.c ****   /* Write to SPIx I2SCFGR */  
 362:../../source/src/FWlib/src/stm32f10x_spi.c ****   SPIx->I2SCFGR = tmpreg;   
 443              		.loc 1 362 0
 444 024a 7B68     		ldr	r3, [r7, #4]
 445 024c 7A8C     		ldrh	r2, [r7, #34]	@ movhi
 446 024e 9A83     		strh	r2, [r3, #28]	@ movhi
 363:../../source/src/FWlib/src/stm32f10x_spi.c **** }
 447              		.loc 1 363 0
 448 0250 00BF     		nop
 449 0252 3037     		adds	r7, r7, #48
 450              	.LCFI14:
 451              		.cfi_def_cfa_offset 8
 452 0254 BD46     		mov	sp, r7
 453              	.LCFI15:
 454              		.cfi_def_cfa_register 13
 455              		@ sp needed
 456 0256 80BD     		pop	{r7, pc}
 457              	.L21:
 458              		.align	2
 459              	.L20:
 460 0258 00380040 		.word	1073756160
 461 025c CDCCCCCC 		.word	-858993459
 462              		.cfi_endproc
 463              	.LFE31:
 464              		.size	I2S_Init, .-I2S_Init
 465              		.align	1
 466              		.global	SPI_StructInit
 467              		.syntax unified
 468              		.thumb
 469              		.thumb_func
 470              		.fpu softvfp
 471              		.type	SPI_StructInit, %function
 472              	SPI_StructInit:
 473              	.LFB32:
 364:../../source/src/FWlib/src/stm32f10x_spi.c **** 
 365:../../source/src/FWlib/src/stm32f10x_spi.c **** /**
 366:../../source/src/FWlib/src/stm32f10x_spi.c ****   * @brief  Fills each SPI_InitStruct member with its default value.
 367:../../source/src/FWlib/src/stm32f10x_spi.c ****   * @param  SPI_InitStruct : pointer to a SPI_InitTypeDef structure which will be initialized.
 368:../../source/src/FWlib/src/stm32f10x_spi.c ****   * @retval None
ARM GAS  G:\Users\Jaxb\AppData\Local\Temp\ccN59N5m.s 			page 16


 369:../../source/src/FWlib/src/stm32f10x_spi.c ****   */
 370:../../source/src/FWlib/src/stm32f10x_spi.c **** void SPI_StructInit(SPI_InitTypeDef* SPI_InitStruct)
 371:../../source/src/FWlib/src/stm32f10x_spi.c **** {
 474              		.loc 1 371 0
 475              		.cfi_startproc
 476              		@ args = 0, pretend = 0, frame = 8
 477              		@ frame_needed = 1, uses_anonymous_args = 0
 478              		@ link register save eliminated.
 479 0260 80B4     		push	{r7}
 480              	.LCFI16:
 481              		.cfi_def_cfa_offset 4
 482              		.cfi_offset 7, -4
 483 0262 83B0     		sub	sp, sp, #12
 484              	.LCFI17:
 485              		.cfi_def_cfa_offset 16
 486 0264 00AF     		add	r7, sp, #0
 487              	.LCFI18:
 488              		.cfi_def_cfa_register 7
 489 0266 7860     		str	r0, [r7, #4]
 372:../../source/src/FWlib/src/stm32f10x_spi.c **** /*--------------- Reset SPI init structure parameters values -----------------*/
 373:../../source/src/FWlib/src/stm32f10x_spi.c ****   /* Initialize the SPI_Direction member */
 374:../../source/src/FWlib/src/stm32f10x_spi.c ****   SPI_InitStruct->SPI_Direction = SPI_Direction_2Lines_FullDuplex;
 490              		.loc 1 374 0
 491 0268 7B68     		ldr	r3, [r7, #4]
 492 026a 0022     		movs	r2, #0
 493 026c 1A80     		strh	r2, [r3]	@ movhi
 375:../../source/src/FWlib/src/stm32f10x_spi.c ****   /* initialize the SPI_Mode member */
 376:../../source/src/FWlib/src/stm32f10x_spi.c ****   SPI_InitStruct->SPI_Mode = SPI_Mode_Slave;
 494              		.loc 1 376 0
 495 026e 7B68     		ldr	r3, [r7, #4]
 496 0270 0022     		movs	r2, #0
 497 0272 5A80     		strh	r2, [r3, #2]	@ movhi
 377:../../source/src/FWlib/src/stm32f10x_spi.c ****   /* initialize the SPI_DataSize member */
 378:../../source/src/FWlib/src/stm32f10x_spi.c ****   SPI_InitStruct->SPI_DataSize = SPI_DataSize_8b;
 498              		.loc 1 378 0
 499 0274 7B68     		ldr	r3, [r7, #4]
 500 0276 0022     		movs	r2, #0
 501 0278 9A80     		strh	r2, [r3, #4]	@ movhi
 379:../../source/src/FWlib/src/stm32f10x_spi.c ****   /* Initialize the SPI_CPOL member */
 380:../../source/src/FWlib/src/stm32f10x_spi.c ****   SPI_InitStruct->SPI_CPOL = SPI_CPOL_Low;
 502              		.loc 1 380 0
 503 027a 7B68     		ldr	r3, [r7, #4]
 504 027c 0022     		movs	r2, #0
 505 027e DA80     		strh	r2, [r3, #6]	@ movhi
 381:../../source/src/FWlib/src/stm32f10x_spi.c ****   /* Initialize the SPI_CPHA member */
 382:../../source/src/FWlib/src/stm32f10x_spi.c ****   SPI_InitStruct->SPI_CPHA = SPI_CPHA_1Edge;
 506              		.loc 1 382 0
 507 0280 7B68     		ldr	r3, [r7, #4]
 508 0282 0022     		movs	r2, #0
 509 0284 1A81     		strh	r2, [r3, #8]	@ movhi
 383:../../source/src/FWlib/src/stm32f10x_spi.c ****   /* Initialize the SPI_NSS member */
 384:../../source/src/FWlib/src/stm32f10x_spi.c ****   SPI_InitStruct->SPI_NSS = SPI_NSS_Hard;
 510              		.loc 1 384 0
 511 0286 7B68     		ldr	r3, [r7, #4]
 512 0288 0022     		movs	r2, #0
 513 028a 5A81     		strh	r2, [r3, #10]	@ movhi
 385:../../source/src/FWlib/src/stm32f10x_spi.c ****   /* Initialize the SPI_BaudRatePrescaler member */
ARM GAS  G:\Users\Jaxb\AppData\Local\Temp\ccN59N5m.s 			page 17


 386:../../source/src/FWlib/src/stm32f10x_spi.c ****   SPI_InitStruct->SPI_BaudRatePrescaler = SPI_BaudRatePrescaler_2;
 514              		.loc 1 386 0
 515 028c 7B68     		ldr	r3, [r7, #4]
 516 028e 0022     		movs	r2, #0
 517 0290 9A81     		strh	r2, [r3, #12]	@ movhi
 387:../../source/src/FWlib/src/stm32f10x_spi.c ****   /* Initialize the SPI_FirstBit member */
 388:../../source/src/FWlib/src/stm32f10x_spi.c ****   SPI_InitStruct->SPI_FirstBit = SPI_FirstBit_MSB;
 518              		.loc 1 388 0
 519 0292 7B68     		ldr	r3, [r7, #4]
 520 0294 0022     		movs	r2, #0
 521 0296 DA81     		strh	r2, [r3, #14]	@ movhi
 389:../../source/src/FWlib/src/stm32f10x_spi.c ****   /* Initialize the SPI_CRCPolynomial member */
 390:../../source/src/FWlib/src/stm32f10x_spi.c ****   SPI_InitStruct->SPI_CRCPolynomial = 7;
 522              		.loc 1 390 0
 523 0298 7B68     		ldr	r3, [r7, #4]
 524 029a 0722     		movs	r2, #7
 525 029c 1A82     		strh	r2, [r3, #16]	@ movhi
 391:../../source/src/FWlib/src/stm32f10x_spi.c **** }
 526              		.loc 1 391 0
 527 029e 00BF     		nop
 528 02a0 0C37     		adds	r7, r7, #12
 529              	.LCFI19:
 530              		.cfi_def_cfa_offset 4
 531 02a2 BD46     		mov	sp, r7
 532              	.LCFI20:
 533              		.cfi_def_cfa_register 13
 534              		@ sp needed
 535 02a4 80BC     		pop	{r7}
 536              	.LCFI21:
 537              		.cfi_restore 7
 538              		.cfi_def_cfa_offset 0
 539 02a6 7047     		bx	lr
 540              		.cfi_endproc
 541              	.LFE32:
 542              		.size	SPI_StructInit, .-SPI_StructInit
 543              		.align	1
 544              		.global	I2S_StructInit
 545              		.syntax unified
 546              		.thumb
 547              		.thumb_func
 548              		.fpu softvfp
 549              		.type	I2S_StructInit, %function
 550              	I2S_StructInit:
 551              	.LFB33:
 392:../../source/src/FWlib/src/stm32f10x_spi.c **** 
 393:../../source/src/FWlib/src/stm32f10x_spi.c **** /**
 394:../../source/src/FWlib/src/stm32f10x_spi.c ****   * @brief  Fills each I2S_InitStruct member with its default value.
 395:../../source/src/FWlib/src/stm32f10x_spi.c ****   * @param  I2S_InitStruct : pointer to a I2S_InitTypeDef structure which will be initialized.
 396:../../source/src/FWlib/src/stm32f10x_spi.c ****   * @retval None
 397:../../source/src/FWlib/src/stm32f10x_spi.c ****   */
 398:../../source/src/FWlib/src/stm32f10x_spi.c **** void I2S_StructInit(I2S_InitTypeDef* I2S_InitStruct)
 399:../../source/src/FWlib/src/stm32f10x_spi.c **** {
 552              		.loc 1 399 0
 553              		.cfi_startproc
 554              		@ args = 0, pretend = 0, frame = 8
 555              		@ frame_needed = 1, uses_anonymous_args = 0
 556              		@ link register save eliminated.
ARM GAS  G:\Users\Jaxb\AppData\Local\Temp\ccN59N5m.s 			page 18


 557 02a8 80B4     		push	{r7}
 558              	.LCFI22:
 559              		.cfi_def_cfa_offset 4
 560              		.cfi_offset 7, -4
 561 02aa 83B0     		sub	sp, sp, #12
 562              	.LCFI23:
 563              		.cfi_def_cfa_offset 16
 564 02ac 00AF     		add	r7, sp, #0
 565              	.LCFI24:
 566              		.cfi_def_cfa_register 7
 567 02ae 7860     		str	r0, [r7, #4]
 400:../../source/src/FWlib/src/stm32f10x_spi.c **** /*--------------- Reset I2S init structure parameters values -----------------*/
 401:../../source/src/FWlib/src/stm32f10x_spi.c ****   /* Initialize the I2S_Mode member */
 402:../../source/src/FWlib/src/stm32f10x_spi.c ****   I2S_InitStruct->I2S_Mode = I2S_Mode_SlaveTx;
 568              		.loc 1 402 0
 569 02b0 7B68     		ldr	r3, [r7, #4]
 570 02b2 0022     		movs	r2, #0
 571 02b4 1A80     		strh	r2, [r3]	@ movhi
 403:../../source/src/FWlib/src/stm32f10x_spi.c ****   
 404:../../source/src/FWlib/src/stm32f10x_spi.c ****   /* Initialize the I2S_Standard member */
 405:../../source/src/FWlib/src/stm32f10x_spi.c ****   I2S_InitStruct->I2S_Standard = I2S_Standard_Phillips;
 572              		.loc 1 405 0
 573 02b6 7B68     		ldr	r3, [r7, #4]
 574 02b8 0022     		movs	r2, #0
 575 02ba 5A80     		strh	r2, [r3, #2]	@ movhi
 406:../../source/src/FWlib/src/stm32f10x_spi.c ****   
 407:../../source/src/FWlib/src/stm32f10x_spi.c ****   /* Initialize the I2S_DataFormat member */
 408:../../source/src/FWlib/src/stm32f10x_spi.c ****   I2S_InitStruct->I2S_DataFormat = I2S_DataFormat_16b;
 576              		.loc 1 408 0
 577 02bc 7B68     		ldr	r3, [r7, #4]
 578 02be 0022     		movs	r2, #0
 579 02c0 9A80     		strh	r2, [r3, #4]	@ movhi
 409:../../source/src/FWlib/src/stm32f10x_spi.c ****   
 410:../../source/src/FWlib/src/stm32f10x_spi.c ****   /* Initialize the I2S_MCLKOutput member */
 411:../../source/src/FWlib/src/stm32f10x_spi.c ****   I2S_InitStruct->I2S_MCLKOutput = I2S_MCLKOutput_Disable;
 580              		.loc 1 411 0
 581 02c2 7B68     		ldr	r3, [r7, #4]
 582 02c4 0022     		movs	r2, #0
 583 02c6 DA80     		strh	r2, [r3, #6]	@ movhi
 412:../../source/src/FWlib/src/stm32f10x_spi.c ****   
 413:../../source/src/FWlib/src/stm32f10x_spi.c ****   /* Initialize the I2S_AudioFreq member */
 414:../../source/src/FWlib/src/stm32f10x_spi.c ****   I2S_InitStruct->I2S_AudioFreq = I2S_AudioFreq_Default;
 584              		.loc 1 414 0
 585 02c8 7B68     		ldr	r3, [r7, #4]
 586 02ca 0222     		movs	r2, #2
 587 02cc 9A60     		str	r2, [r3, #8]
 415:../../source/src/FWlib/src/stm32f10x_spi.c ****   
 416:../../source/src/FWlib/src/stm32f10x_spi.c ****   /* Initialize the I2S_CPOL member */
 417:../../source/src/FWlib/src/stm32f10x_spi.c ****   I2S_InitStruct->I2S_CPOL = I2S_CPOL_Low;
 588              		.loc 1 417 0
 589 02ce 7B68     		ldr	r3, [r7, #4]
 590 02d0 0022     		movs	r2, #0
 591 02d2 9A81     		strh	r2, [r3, #12]	@ movhi
 418:../../source/src/FWlib/src/stm32f10x_spi.c **** }
 592              		.loc 1 418 0
 593 02d4 00BF     		nop
 594 02d6 0C37     		adds	r7, r7, #12
ARM GAS  G:\Users\Jaxb\AppData\Local\Temp\ccN59N5m.s 			page 19


 595              	.LCFI25:
 596              		.cfi_def_cfa_offset 4
 597 02d8 BD46     		mov	sp, r7
 598              	.LCFI26:
 599              		.cfi_def_cfa_register 13
 600              		@ sp needed
 601 02da 80BC     		pop	{r7}
 602              	.LCFI27:
 603              		.cfi_restore 7
 604              		.cfi_def_cfa_offset 0
 605 02dc 7047     		bx	lr
 606              		.cfi_endproc
 607              	.LFE33:
 608              		.size	I2S_StructInit, .-I2S_StructInit
 609              		.align	1
 610              		.global	SPI_Cmd
 611              		.syntax unified
 612              		.thumb
 613              		.thumb_func
 614              		.fpu softvfp
 615              		.type	SPI_Cmd, %function
 616              	SPI_Cmd:
 617              	.LFB34:
 419:../../source/src/FWlib/src/stm32f10x_spi.c **** 
 420:../../source/src/FWlib/src/stm32f10x_spi.c **** /**
 421:../../source/src/FWlib/src/stm32f10x_spi.c ****   * @brief  Enables or disables the specified SPI peripheral.
 422:../../source/src/FWlib/src/stm32f10x_spi.c ****   * @param  SPIx: where x can be 1, 2 or 3 to select the SPI peripheral.
 423:../../source/src/FWlib/src/stm32f10x_spi.c ****   * @param  NewState: new state of the SPIx peripheral. 
 424:../../source/src/FWlib/src/stm32f10x_spi.c ****   *   This parameter can be: ENABLE or DISABLE.
 425:../../source/src/FWlib/src/stm32f10x_spi.c ****   * @retval None
 426:../../source/src/FWlib/src/stm32f10x_spi.c ****   */
 427:../../source/src/FWlib/src/stm32f10x_spi.c **** void SPI_Cmd(SPI_TypeDef* SPIx, FunctionalState NewState)
 428:../../source/src/FWlib/src/stm32f10x_spi.c **** {
 618              		.loc 1 428 0
 619              		.cfi_startproc
 620              		@ args = 0, pretend = 0, frame = 8
 621              		@ frame_needed = 1, uses_anonymous_args = 0
 622              		@ link register save eliminated.
 623 02de 80B4     		push	{r7}
 624              	.LCFI28:
 625              		.cfi_def_cfa_offset 4
 626              		.cfi_offset 7, -4
 627 02e0 83B0     		sub	sp, sp, #12
 628              	.LCFI29:
 629              		.cfi_def_cfa_offset 16
 630 02e2 00AF     		add	r7, sp, #0
 631              	.LCFI30:
 632              		.cfi_def_cfa_register 7
 633 02e4 7860     		str	r0, [r7, #4]
 634 02e6 0B46     		mov	r3, r1
 635 02e8 FB70     		strb	r3, [r7, #3]
 429:../../source/src/FWlib/src/stm32f10x_spi.c ****   /* Check the parameters */
 430:../../source/src/FWlib/src/stm32f10x_spi.c ****   assert_param(IS_SPI_ALL_PERIPH(SPIx));
 431:../../source/src/FWlib/src/stm32f10x_spi.c ****   assert_param(IS_FUNCTIONAL_STATE(NewState));
 432:../../source/src/FWlib/src/stm32f10x_spi.c ****   if (NewState != DISABLE)
 636              		.loc 1 432 0
 637 02ea FB78     		ldrb	r3, [r7, #3]	@ zero_extendqisi2
ARM GAS  G:\Users\Jaxb\AppData\Local\Temp\ccN59N5m.s 			page 20


 638 02ec 002B     		cmp	r3, #0
 639 02ee 08D0     		beq	.L25
 433:../../source/src/FWlib/src/stm32f10x_spi.c ****   {
 434:../../source/src/FWlib/src/stm32f10x_spi.c ****     /* Enable the selected SPI peripheral */
 435:../../source/src/FWlib/src/stm32f10x_spi.c ****     SPIx->CR1 |= CR1_SPE_Set;
 640              		.loc 1 435 0
 641 02f0 7B68     		ldr	r3, [r7, #4]
 642 02f2 1B88     		ldrh	r3, [r3]	@ movhi
 643 02f4 9BB2     		uxth	r3, r3
 644 02f6 43F04003 		orr	r3, r3, #64
 645 02fa 9AB2     		uxth	r2, r3
 646 02fc 7B68     		ldr	r3, [r7, #4]
 647 02fe 1A80     		strh	r2, [r3]	@ movhi
 436:../../source/src/FWlib/src/stm32f10x_spi.c ****   }
 437:../../source/src/FWlib/src/stm32f10x_spi.c ****   else
 438:../../source/src/FWlib/src/stm32f10x_spi.c ****   {
 439:../../source/src/FWlib/src/stm32f10x_spi.c ****     /* Disable the selected SPI peripheral */
 440:../../source/src/FWlib/src/stm32f10x_spi.c ****     SPIx->CR1 &= CR1_SPE_Reset;
 441:../../source/src/FWlib/src/stm32f10x_spi.c ****   }
 442:../../source/src/FWlib/src/stm32f10x_spi.c **** }
 648              		.loc 1 442 0
 649 0300 07E0     		b	.L27
 650              	.L25:
 440:../../source/src/FWlib/src/stm32f10x_spi.c ****   }
 651              		.loc 1 440 0
 652 0302 7B68     		ldr	r3, [r7, #4]
 653 0304 1B88     		ldrh	r3, [r3]	@ movhi
 654 0306 9BB2     		uxth	r3, r3
 655 0308 23F04003 		bic	r3, r3, #64
 656 030c 9AB2     		uxth	r2, r3
 657 030e 7B68     		ldr	r3, [r7, #4]
 658 0310 1A80     		strh	r2, [r3]	@ movhi
 659              	.L27:
 660              		.loc 1 442 0
 661 0312 00BF     		nop
 662 0314 0C37     		adds	r7, r7, #12
 663              	.LCFI31:
 664              		.cfi_def_cfa_offset 4
 665 0316 BD46     		mov	sp, r7
 666              	.LCFI32:
 667              		.cfi_def_cfa_register 13
 668              		@ sp needed
 669 0318 80BC     		pop	{r7}
 670              	.LCFI33:
 671              		.cfi_restore 7
 672              		.cfi_def_cfa_offset 0
 673 031a 7047     		bx	lr
 674              		.cfi_endproc
 675              	.LFE34:
 676              		.size	SPI_Cmd, .-SPI_Cmd
 677              		.align	1
 678              		.global	I2S_Cmd
 679              		.syntax unified
 680              		.thumb
 681              		.thumb_func
 682              		.fpu softvfp
 683              		.type	I2S_Cmd, %function
ARM GAS  G:\Users\Jaxb\AppData\Local\Temp\ccN59N5m.s 			page 21


 684              	I2S_Cmd:
 685              	.LFB35:
 443:../../source/src/FWlib/src/stm32f10x_spi.c **** 
 444:../../source/src/FWlib/src/stm32f10x_spi.c **** /**
 445:../../source/src/FWlib/src/stm32f10x_spi.c ****   * @brief  Enables or disables the specified SPI peripheral (in I2S mode).
 446:../../source/src/FWlib/src/stm32f10x_spi.c ****   * @param  SPIx: where x can be 2 or 3 to select the SPI peripheral.
 447:../../source/src/FWlib/src/stm32f10x_spi.c ****   * @param  NewState: new state of the SPIx peripheral. 
 448:../../source/src/FWlib/src/stm32f10x_spi.c ****   *   This parameter can be: ENABLE or DISABLE.
 449:../../source/src/FWlib/src/stm32f10x_spi.c ****   * @retval None
 450:../../source/src/FWlib/src/stm32f10x_spi.c ****   */
 451:../../source/src/FWlib/src/stm32f10x_spi.c **** void I2S_Cmd(SPI_TypeDef* SPIx, FunctionalState NewState)
 452:../../source/src/FWlib/src/stm32f10x_spi.c **** {
 686              		.loc 1 452 0
 687              		.cfi_startproc
 688              		@ args = 0, pretend = 0, frame = 8
 689              		@ frame_needed = 1, uses_anonymous_args = 0
 690              		@ link register save eliminated.
 691 031c 80B4     		push	{r7}
 692              	.LCFI34:
 693              		.cfi_def_cfa_offset 4
 694              		.cfi_offset 7, -4
 695 031e 83B0     		sub	sp, sp, #12
 696              	.LCFI35:
 697              		.cfi_def_cfa_offset 16
 698 0320 00AF     		add	r7, sp, #0
 699              	.LCFI36:
 700              		.cfi_def_cfa_register 7
 701 0322 7860     		str	r0, [r7, #4]
 702 0324 0B46     		mov	r3, r1
 703 0326 FB70     		strb	r3, [r7, #3]
 453:../../source/src/FWlib/src/stm32f10x_spi.c ****   /* Check the parameters */
 454:../../source/src/FWlib/src/stm32f10x_spi.c ****   assert_param(IS_SPI_23_PERIPH(SPIx));
 455:../../source/src/FWlib/src/stm32f10x_spi.c ****   assert_param(IS_FUNCTIONAL_STATE(NewState));
 456:../../source/src/FWlib/src/stm32f10x_spi.c ****   if (NewState != DISABLE)
 704              		.loc 1 456 0
 705 0328 FB78     		ldrb	r3, [r7, #3]	@ zero_extendqisi2
 706 032a 002B     		cmp	r3, #0
 707 032c 08D0     		beq	.L29
 457:../../source/src/FWlib/src/stm32f10x_spi.c ****   {
 458:../../source/src/FWlib/src/stm32f10x_spi.c ****     /* Enable the selected SPI peripheral (in I2S mode) */
 459:../../source/src/FWlib/src/stm32f10x_spi.c ****     SPIx->I2SCFGR |= I2SCFGR_I2SE_Set;
 708              		.loc 1 459 0
 709 032e 7B68     		ldr	r3, [r7, #4]
 710 0330 9B8B     		ldrh	r3, [r3, #28]	@ movhi
 711 0332 9BB2     		uxth	r3, r3
 712 0334 43F48063 		orr	r3, r3, #1024
 713 0338 9AB2     		uxth	r2, r3
 714 033a 7B68     		ldr	r3, [r7, #4]
 715 033c 9A83     		strh	r2, [r3, #28]	@ movhi
 460:../../source/src/FWlib/src/stm32f10x_spi.c ****   }
 461:../../source/src/FWlib/src/stm32f10x_spi.c ****   else
 462:../../source/src/FWlib/src/stm32f10x_spi.c ****   {
 463:../../source/src/FWlib/src/stm32f10x_spi.c ****     /* Disable the selected SPI peripheral (in I2S mode) */
 464:../../source/src/FWlib/src/stm32f10x_spi.c ****     SPIx->I2SCFGR &= I2SCFGR_I2SE_Reset;
 465:../../source/src/FWlib/src/stm32f10x_spi.c ****   }
 466:../../source/src/FWlib/src/stm32f10x_spi.c **** }
 716              		.loc 1 466 0
ARM GAS  G:\Users\Jaxb\AppData\Local\Temp\ccN59N5m.s 			page 22


 717 033e 07E0     		b	.L31
 718              	.L29:
 464:../../source/src/FWlib/src/stm32f10x_spi.c ****   }
 719              		.loc 1 464 0
 720 0340 7B68     		ldr	r3, [r7, #4]
 721 0342 9B8B     		ldrh	r3, [r3, #28]	@ movhi
 722 0344 9BB2     		uxth	r3, r3
 723 0346 23F48063 		bic	r3, r3, #1024
 724 034a 9AB2     		uxth	r2, r3
 725 034c 7B68     		ldr	r3, [r7, #4]
 726 034e 9A83     		strh	r2, [r3, #28]	@ movhi
 727              	.L31:
 728              		.loc 1 466 0
 729 0350 00BF     		nop
 730 0352 0C37     		adds	r7, r7, #12
 731              	.LCFI37:
 732              		.cfi_def_cfa_offset 4
 733 0354 BD46     		mov	sp, r7
 734              	.LCFI38:
 735              		.cfi_def_cfa_register 13
 736              		@ sp needed
 737 0356 80BC     		pop	{r7}
 738              	.LCFI39:
 739              		.cfi_restore 7
 740              		.cfi_def_cfa_offset 0
 741 0358 7047     		bx	lr
 742              		.cfi_endproc
 743              	.LFE35:
 744              		.size	I2S_Cmd, .-I2S_Cmd
 745              		.align	1
 746              		.global	SPI_I2S_ITConfig
 747              		.syntax unified
 748              		.thumb
 749              		.thumb_func
 750              		.fpu softvfp
 751              		.type	SPI_I2S_ITConfig, %function
 752              	SPI_I2S_ITConfig:
 753              	.LFB36:
 467:../../source/src/FWlib/src/stm32f10x_spi.c **** 
 468:../../source/src/FWlib/src/stm32f10x_spi.c **** /**
 469:../../source/src/FWlib/src/stm32f10x_spi.c ****   * @brief  Enables or disables the specified SPI/I2S interrupts.
 470:../../source/src/FWlib/src/stm32f10x_spi.c ****   * @param  SPIx: where x can be
 471:../../source/src/FWlib/src/stm32f10x_spi.c ****   *   - 1, 2 or 3 in SPI mode 
 472:../../source/src/FWlib/src/stm32f10x_spi.c ****   *   - 2 or 3 in I2S mode
 473:../../source/src/FWlib/src/stm32f10x_spi.c ****   * @param  SPI_I2S_IT: specifies the SPI/I2S interrupt source to be enabled or disabled. 
 474:../../source/src/FWlib/src/stm32f10x_spi.c ****   *   This parameter can be one of the following values:
 475:../../source/src/FWlib/src/stm32f10x_spi.c ****   *     @arg SPI_I2S_IT_TXE: Tx buffer empty interrupt mask
 476:../../source/src/FWlib/src/stm32f10x_spi.c ****   *     @arg SPI_I2S_IT_RXNE: Rx buffer not empty interrupt mask
 477:../../source/src/FWlib/src/stm32f10x_spi.c ****   *     @arg SPI_I2S_IT_ERR: Error interrupt mask
 478:../../source/src/FWlib/src/stm32f10x_spi.c ****   * @param  NewState: new state of the specified SPI/I2S interrupt.
 479:../../source/src/FWlib/src/stm32f10x_spi.c ****   *   This parameter can be: ENABLE or DISABLE.
 480:../../source/src/FWlib/src/stm32f10x_spi.c ****   * @retval None
 481:../../source/src/FWlib/src/stm32f10x_spi.c ****   */
 482:../../source/src/FWlib/src/stm32f10x_spi.c **** void SPI_I2S_ITConfig(SPI_TypeDef* SPIx, uint8_t SPI_I2S_IT, FunctionalState NewState)
 483:../../source/src/FWlib/src/stm32f10x_spi.c **** {
 754              		.loc 1 483 0
 755              		.cfi_startproc
ARM GAS  G:\Users\Jaxb\AppData\Local\Temp\ccN59N5m.s 			page 23


 756              		@ args = 0, pretend = 0, frame = 16
 757              		@ frame_needed = 1, uses_anonymous_args = 0
 758              		@ link register save eliminated.
 759 035a 80B4     		push	{r7}
 760              	.LCFI40:
 761              		.cfi_def_cfa_offset 4
 762              		.cfi_offset 7, -4
 763 035c 85B0     		sub	sp, sp, #20
 764              	.LCFI41:
 765              		.cfi_def_cfa_offset 24
 766 035e 00AF     		add	r7, sp, #0
 767              	.LCFI42:
 768              		.cfi_def_cfa_register 7
 769 0360 7860     		str	r0, [r7, #4]
 770 0362 0B46     		mov	r3, r1
 771 0364 FB70     		strb	r3, [r7, #3]
 772 0366 1346     		mov	r3, r2
 773 0368 BB70     		strb	r3, [r7, #2]
 484:../../source/src/FWlib/src/stm32f10x_spi.c ****   uint16_t itpos = 0, itmask = 0 ;
 774              		.loc 1 484 0
 775 036a 0023     		movs	r3, #0
 776 036c FB81     		strh	r3, [r7, #14]	@ movhi
 777 036e 0023     		movs	r3, #0
 778 0370 BB81     		strh	r3, [r7, #12]	@ movhi
 485:../../source/src/FWlib/src/stm32f10x_spi.c ****   /* Check the parameters */
 486:../../source/src/FWlib/src/stm32f10x_spi.c ****   assert_param(IS_SPI_ALL_PERIPH(SPIx));
 487:../../source/src/FWlib/src/stm32f10x_spi.c ****   assert_param(IS_FUNCTIONAL_STATE(NewState));
 488:../../source/src/FWlib/src/stm32f10x_spi.c ****   assert_param(IS_SPI_I2S_CONFIG_IT(SPI_I2S_IT));
 489:../../source/src/FWlib/src/stm32f10x_spi.c **** 
 490:../../source/src/FWlib/src/stm32f10x_spi.c ****   /* Get the SPI/I2S IT index */
 491:../../source/src/FWlib/src/stm32f10x_spi.c ****   itpos = SPI_I2S_IT >> 4;
 779              		.loc 1 491 0
 780 0372 FB78     		ldrb	r3, [r7, #3]	@ zero_extendqisi2
 781 0374 1B09     		lsrs	r3, r3, #4
 782 0376 DBB2     		uxtb	r3, r3
 783 0378 FB81     		strh	r3, [r7, #14]	@ movhi
 492:../../source/src/FWlib/src/stm32f10x_spi.c **** 
 493:../../source/src/FWlib/src/stm32f10x_spi.c ****   /* Set the IT mask */
 494:../../source/src/FWlib/src/stm32f10x_spi.c ****   itmask = (uint16_t)1 << (uint16_t)itpos;
 784              		.loc 1 494 0
 785 037a FB89     		ldrh	r3, [r7, #14]
 786 037c 0122     		movs	r2, #1
 787 037e 02FA03F3 		lsl	r3, r2, r3
 788 0382 BB81     		strh	r3, [r7, #12]	@ movhi
 495:../../source/src/FWlib/src/stm32f10x_spi.c **** 
 496:../../source/src/FWlib/src/stm32f10x_spi.c ****   if (NewState != DISABLE)
 789              		.loc 1 496 0
 790 0384 BB78     		ldrb	r3, [r7, #2]	@ zero_extendqisi2
 791 0386 002B     		cmp	r3, #0
 792 0388 08D0     		beq	.L33
 497:../../source/src/FWlib/src/stm32f10x_spi.c ****   {
 498:../../source/src/FWlib/src/stm32f10x_spi.c ****     /* Enable the selected SPI/I2S interrupt */
 499:../../source/src/FWlib/src/stm32f10x_spi.c ****     SPIx->CR2 |= itmask;
 793              		.loc 1 499 0
 794 038a 7B68     		ldr	r3, [r7, #4]
 795 038c 9B88     		ldrh	r3, [r3, #4]	@ movhi
 796 038e 9AB2     		uxth	r2, r3
ARM GAS  G:\Users\Jaxb\AppData\Local\Temp\ccN59N5m.s 			page 24


 797 0390 BB89     		ldrh	r3, [r7, #12]	@ movhi
 798 0392 1343     		orrs	r3, r3, r2
 799 0394 9AB2     		uxth	r2, r3
 800 0396 7B68     		ldr	r3, [r7, #4]
 801 0398 9A80     		strh	r2, [r3, #4]	@ movhi
 500:../../source/src/FWlib/src/stm32f10x_spi.c ****   }
 501:../../source/src/FWlib/src/stm32f10x_spi.c ****   else
 502:../../source/src/FWlib/src/stm32f10x_spi.c ****   {
 503:../../source/src/FWlib/src/stm32f10x_spi.c ****     /* Disable the selected SPI/I2S interrupt */
 504:../../source/src/FWlib/src/stm32f10x_spi.c ****     SPIx->CR2 &= (uint16_t)~itmask;
 505:../../source/src/FWlib/src/stm32f10x_spi.c ****   }
 506:../../source/src/FWlib/src/stm32f10x_spi.c **** }
 802              		.loc 1 506 0
 803 039a 09E0     		b	.L35
 804              	.L33:
 504:../../source/src/FWlib/src/stm32f10x_spi.c ****   }
 805              		.loc 1 504 0
 806 039c 7B68     		ldr	r3, [r7, #4]
 807 039e 9B88     		ldrh	r3, [r3, #4]	@ movhi
 808 03a0 9AB2     		uxth	r2, r3
 809 03a2 BB89     		ldrh	r3, [r7, #12]	@ movhi
 810 03a4 DB43     		mvns	r3, r3
 811 03a6 9BB2     		uxth	r3, r3
 812 03a8 1340     		ands	r3, r3, r2
 813 03aa 9AB2     		uxth	r2, r3
 814 03ac 7B68     		ldr	r3, [r7, #4]
 815 03ae 9A80     		strh	r2, [r3, #4]	@ movhi
 816              	.L35:
 817              		.loc 1 506 0
 818 03b0 00BF     		nop
 819 03b2 1437     		adds	r7, r7, #20
 820              	.LCFI43:
 821              		.cfi_def_cfa_offset 4
 822 03b4 BD46     		mov	sp, r7
 823              	.LCFI44:
 824              		.cfi_def_cfa_register 13
 825              		@ sp needed
 826 03b6 80BC     		pop	{r7}
 827              	.LCFI45:
 828              		.cfi_restore 7
 829              		.cfi_def_cfa_offset 0
 830 03b8 7047     		bx	lr
 831              		.cfi_endproc
 832              	.LFE36:
 833              		.size	SPI_I2S_ITConfig, .-SPI_I2S_ITConfig
 834              		.align	1
 835              		.global	SPI_I2S_DMACmd
 836              		.syntax unified
 837              		.thumb
 838              		.thumb_func
 839              		.fpu softvfp
 840              		.type	SPI_I2S_DMACmd, %function
 841              	SPI_I2S_DMACmd:
 842              	.LFB37:
 507:../../source/src/FWlib/src/stm32f10x_spi.c **** 
 508:../../source/src/FWlib/src/stm32f10x_spi.c **** /**
 509:../../source/src/FWlib/src/stm32f10x_spi.c ****   * @brief  Enables or disables the SPIx/I2Sx DMA interface.
ARM GAS  G:\Users\Jaxb\AppData\Local\Temp\ccN59N5m.s 			page 25


 510:../../source/src/FWlib/src/stm32f10x_spi.c ****   * @param  SPIx: where x can be
 511:../../source/src/FWlib/src/stm32f10x_spi.c ****   *   - 1, 2 or 3 in SPI mode 
 512:../../source/src/FWlib/src/stm32f10x_spi.c ****   *   - 2 or 3 in I2S mode
 513:../../source/src/FWlib/src/stm32f10x_spi.c ****   * @param  SPI_I2S_DMAReq: specifies the SPI/I2S DMA transfer request to be enabled or disabled. 
 514:../../source/src/FWlib/src/stm32f10x_spi.c ****   *   This parameter can be any combination of the following values:
 515:../../source/src/FWlib/src/stm32f10x_spi.c ****   *     @arg SPI_I2S_DMAReq_Tx: Tx buffer DMA transfer request
 516:../../source/src/FWlib/src/stm32f10x_spi.c ****   *     @arg SPI_I2S_DMAReq_Rx: Rx buffer DMA transfer request
 517:../../source/src/FWlib/src/stm32f10x_spi.c ****   * @param  NewState: new state of the selected SPI/I2S DMA transfer request.
 518:../../source/src/FWlib/src/stm32f10x_spi.c ****   *   This parameter can be: ENABLE or DISABLE.
 519:../../source/src/FWlib/src/stm32f10x_spi.c ****   * @retval None
 520:../../source/src/FWlib/src/stm32f10x_spi.c ****   */
 521:../../source/src/FWlib/src/stm32f10x_spi.c **** void SPI_I2S_DMACmd(SPI_TypeDef* SPIx, uint16_t SPI_I2S_DMAReq, FunctionalState NewState)
 522:../../source/src/FWlib/src/stm32f10x_spi.c **** {
 843              		.loc 1 522 0
 844              		.cfi_startproc
 845              		@ args = 0, pretend = 0, frame = 8
 846              		@ frame_needed = 1, uses_anonymous_args = 0
 847              		@ link register save eliminated.
 848 03ba 80B4     		push	{r7}
 849              	.LCFI46:
 850              		.cfi_def_cfa_offset 4
 851              		.cfi_offset 7, -4
 852 03bc 83B0     		sub	sp, sp, #12
 853              	.LCFI47:
 854              		.cfi_def_cfa_offset 16
 855 03be 00AF     		add	r7, sp, #0
 856              	.LCFI48:
 857              		.cfi_def_cfa_register 7
 858 03c0 7860     		str	r0, [r7, #4]
 859 03c2 0B46     		mov	r3, r1
 860 03c4 7B80     		strh	r3, [r7, #2]	@ movhi
 861 03c6 1346     		mov	r3, r2
 862 03c8 7B70     		strb	r3, [r7, #1]
 523:../../source/src/FWlib/src/stm32f10x_spi.c ****   /* Check the parameters */
 524:../../source/src/FWlib/src/stm32f10x_spi.c ****   assert_param(IS_SPI_ALL_PERIPH(SPIx));
 525:../../source/src/FWlib/src/stm32f10x_spi.c ****   assert_param(IS_FUNCTIONAL_STATE(NewState));
 526:../../source/src/FWlib/src/stm32f10x_spi.c ****   assert_param(IS_SPI_I2S_DMAREQ(SPI_I2S_DMAReq));
 527:../../source/src/FWlib/src/stm32f10x_spi.c ****   if (NewState != DISABLE)
 863              		.loc 1 527 0
 864 03ca 7B78     		ldrb	r3, [r7, #1]	@ zero_extendqisi2
 865 03cc 002B     		cmp	r3, #0
 866 03ce 08D0     		beq	.L37
 528:../../source/src/FWlib/src/stm32f10x_spi.c ****   {
 529:../../source/src/FWlib/src/stm32f10x_spi.c ****     /* Enable the selected SPI/I2S DMA requests */
 530:../../source/src/FWlib/src/stm32f10x_spi.c ****     SPIx->CR2 |= SPI_I2S_DMAReq;
 867              		.loc 1 530 0
 868 03d0 7B68     		ldr	r3, [r7, #4]
 869 03d2 9B88     		ldrh	r3, [r3, #4]	@ movhi
 870 03d4 9AB2     		uxth	r2, r3
 871 03d6 7B88     		ldrh	r3, [r7, #2]	@ movhi
 872 03d8 1343     		orrs	r3, r3, r2
 873 03da 9AB2     		uxth	r2, r3
 874 03dc 7B68     		ldr	r3, [r7, #4]
 875 03de 9A80     		strh	r2, [r3, #4]	@ movhi
 531:../../source/src/FWlib/src/stm32f10x_spi.c ****   }
 532:../../source/src/FWlib/src/stm32f10x_spi.c ****   else
 533:../../source/src/FWlib/src/stm32f10x_spi.c ****   {
ARM GAS  G:\Users\Jaxb\AppData\Local\Temp\ccN59N5m.s 			page 26


 534:../../source/src/FWlib/src/stm32f10x_spi.c ****     /* Disable the selected SPI/I2S DMA requests */
 535:../../source/src/FWlib/src/stm32f10x_spi.c ****     SPIx->CR2 &= (uint16_t)~SPI_I2S_DMAReq;
 536:../../source/src/FWlib/src/stm32f10x_spi.c ****   }
 537:../../source/src/FWlib/src/stm32f10x_spi.c **** }
 876              		.loc 1 537 0
 877 03e0 09E0     		b	.L39
 878              	.L37:
 535:../../source/src/FWlib/src/stm32f10x_spi.c ****   }
 879              		.loc 1 535 0
 880 03e2 7B68     		ldr	r3, [r7, #4]
 881 03e4 9B88     		ldrh	r3, [r3, #4]	@ movhi
 882 03e6 9AB2     		uxth	r2, r3
 883 03e8 7B88     		ldrh	r3, [r7, #2]	@ movhi
 884 03ea DB43     		mvns	r3, r3
 885 03ec 9BB2     		uxth	r3, r3
 886 03ee 1340     		ands	r3, r3, r2
 887 03f0 9AB2     		uxth	r2, r3
 888 03f2 7B68     		ldr	r3, [r7, #4]
 889 03f4 9A80     		strh	r2, [r3, #4]	@ movhi
 890              	.L39:
 891              		.loc 1 537 0
 892 03f6 00BF     		nop
 893 03f8 0C37     		adds	r7, r7, #12
 894              	.LCFI49:
 895              		.cfi_def_cfa_offset 4
 896 03fa BD46     		mov	sp, r7
 897              	.LCFI50:
 898              		.cfi_def_cfa_register 13
 899              		@ sp needed
 900 03fc 80BC     		pop	{r7}
 901              	.LCFI51:
 902              		.cfi_restore 7
 903              		.cfi_def_cfa_offset 0
 904 03fe 7047     		bx	lr
 905              		.cfi_endproc
 906              	.LFE37:
 907              		.size	SPI_I2S_DMACmd, .-SPI_I2S_DMACmd
 908              		.align	1
 909              		.global	SPI_I2S_SendData
 910              		.syntax unified
 911              		.thumb
 912              		.thumb_func
 913              		.fpu softvfp
 914              		.type	SPI_I2S_SendData, %function
 915              	SPI_I2S_SendData:
 916              	.LFB38:
 538:../../source/src/FWlib/src/stm32f10x_spi.c **** 
 539:../../source/src/FWlib/src/stm32f10x_spi.c **** /**
 540:../../source/src/FWlib/src/stm32f10x_spi.c ****   * @brief  Transmits a Data through the SPIx/I2Sx peripheral.
 541:../../source/src/FWlib/src/stm32f10x_spi.c ****   * @param  SPIx: where x can be
 542:../../source/src/FWlib/src/stm32f10x_spi.c ****   *   - 1, 2 or 3 in SPI mode 
 543:../../source/src/FWlib/src/stm32f10x_spi.c ****   *   - 2 or 3 in I2S mode
 544:../../source/src/FWlib/src/stm32f10x_spi.c ****   * @param  Data : Data to be transmitted.
 545:../../source/src/FWlib/src/stm32f10x_spi.c ****   * @retval None
 546:../../source/src/FWlib/src/stm32f10x_spi.c ****   */
 547:../../source/src/FWlib/src/stm32f10x_spi.c **** void SPI_I2S_SendData(SPI_TypeDef* SPIx, uint16_t Data)
 548:../../source/src/FWlib/src/stm32f10x_spi.c **** {
ARM GAS  G:\Users\Jaxb\AppData\Local\Temp\ccN59N5m.s 			page 27


 917              		.loc 1 548 0
 918              		.cfi_startproc
 919              		@ args = 0, pretend = 0, frame = 8
 920              		@ frame_needed = 1, uses_anonymous_args = 0
 921              		@ link register save eliminated.
 922 0400 80B4     		push	{r7}
 923              	.LCFI52:
 924              		.cfi_def_cfa_offset 4
 925              		.cfi_offset 7, -4
 926 0402 83B0     		sub	sp, sp, #12
 927              	.LCFI53:
 928              		.cfi_def_cfa_offset 16
 929 0404 00AF     		add	r7, sp, #0
 930              	.LCFI54:
 931              		.cfi_def_cfa_register 7
 932 0406 7860     		str	r0, [r7, #4]
 933 0408 0B46     		mov	r3, r1
 934 040a 7B80     		strh	r3, [r7, #2]	@ movhi
 549:../../source/src/FWlib/src/stm32f10x_spi.c ****   /* Check the parameters */
 550:../../source/src/FWlib/src/stm32f10x_spi.c ****   assert_param(IS_SPI_ALL_PERIPH(SPIx));
 551:../../source/src/FWlib/src/stm32f10x_spi.c ****   
 552:../../source/src/FWlib/src/stm32f10x_spi.c ****   /* Write in the DR register the data to be sent */
 553:../../source/src/FWlib/src/stm32f10x_spi.c ****   SPIx->DR = Data;
 935              		.loc 1 553 0
 936 040c 7B68     		ldr	r3, [r7, #4]
 937 040e 7A88     		ldrh	r2, [r7, #2]	@ movhi
 938 0410 9A81     		strh	r2, [r3, #12]	@ movhi
 554:../../source/src/FWlib/src/stm32f10x_spi.c **** }
 939              		.loc 1 554 0
 940 0412 00BF     		nop
 941 0414 0C37     		adds	r7, r7, #12
 942              	.LCFI55:
 943              		.cfi_def_cfa_offset 4
 944 0416 BD46     		mov	sp, r7
 945              	.LCFI56:
 946              		.cfi_def_cfa_register 13
 947              		@ sp needed
 948 0418 80BC     		pop	{r7}
 949              	.LCFI57:
 950              		.cfi_restore 7
 951              		.cfi_def_cfa_offset 0
 952 041a 7047     		bx	lr
 953              		.cfi_endproc
 954              	.LFE38:
 955              		.size	SPI_I2S_SendData, .-SPI_I2S_SendData
 956              		.align	1
 957              		.global	SPI_I2S_ReceiveData
 958              		.syntax unified
 959              		.thumb
 960              		.thumb_func
 961              		.fpu softvfp
 962              		.type	SPI_I2S_ReceiveData, %function
 963              	SPI_I2S_ReceiveData:
 964              	.LFB39:
 555:../../source/src/FWlib/src/stm32f10x_spi.c **** 
 556:../../source/src/FWlib/src/stm32f10x_spi.c **** /**
 557:../../source/src/FWlib/src/stm32f10x_spi.c ****   * @brief  Returns the most recent received data by the SPIx/I2Sx peripheral. 
ARM GAS  G:\Users\Jaxb\AppData\Local\Temp\ccN59N5m.s 			page 28


 558:../../source/src/FWlib/src/stm32f10x_spi.c ****   * @param  SPIx: where x can be
 559:../../source/src/FWlib/src/stm32f10x_spi.c ****   *   - 1, 2 or 3 in SPI mode 
 560:../../source/src/FWlib/src/stm32f10x_spi.c ****   *   - 2 or 3 in I2S mode
 561:../../source/src/FWlib/src/stm32f10x_spi.c ****   * @retval The value of the received data.
 562:../../source/src/FWlib/src/stm32f10x_spi.c ****   */
 563:../../source/src/FWlib/src/stm32f10x_spi.c **** uint16_t SPI_I2S_ReceiveData(SPI_TypeDef* SPIx)
 564:../../source/src/FWlib/src/stm32f10x_spi.c **** {
 965              		.loc 1 564 0
 966              		.cfi_startproc
 967              		@ args = 0, pretend = 0, frame = 8
 968              		@ frame_needed = 1, uses_anonymous_args = 0
 969              		@ link register save eliminated.
 970 041c 80B4     		push	{r7}
 971              	.LCFI58:
 972              		.cfi_def_cfa_offset 4
 973              		.cfi_offset 7, -4
 974 041e 83B0     		sub	sp, sp, #12
 975              	.LCFI59:
 976              		.cfi_def_cfa_offset 16
 977 0420 00AF     		add	r7, sp, #0
 978              	.LCFI60:
 979              		.cfi_def_cfa_register 7
 980 0422 7860     		str	r0, [r7, #4]
 565:../../source/src/FWlib/src/stm32f10x_spi.c ****   /* Check the parameters */
 566:../../source/src/FWlib/src/stm32f10x_spi.c ****   assert_param(IS_SPI_ALL_PERIPH(SPIx));
 567:../../source/src/FWlib/src/stm32f10x_spi.c ****   
 568:../../source/src/FWlib/src/stm32f10x_spi.c ****   /* Return the data in the DR register */
 569:../../source/src/FWlib/src/stm32f10x_spi.c ****   return SPIx->DR;
 981              		.loc 1 569 0
 982 0424 7B68     		ldr	r3, [r7, #4]
 983 0426 9B89     		ldrh	r3, [r3, #12]	@ movhi
 984 0428 9BB2     		uxth	r3, r3
 570:../../source/src/FWlib/src/stm32f10x_spi.c **** }
 985              		.loc 1 570 0
 986 042a 1846     		mov	r0, r3
 987 042c 0C37     		adds	r7, r7, #12
 988              	.LCFI61:
 989              		.cfi_def_cfa_offset 4
 990 042e BD46     		mov	sp, r7
 991              	.LCFI62:
 992              		.cfi_def_cfa_register 13
 993              		@ sp needed
 994 0430 80BC     		pop	{r7}
 995              	.LCFI63:
 996              		.cfi_restore 7
 997              		.cfi_def_cfa_offset 0
 998 0432 7047     		bx	lr
 999              		.cfi_endproc
 1000              	.LFE39:
 1001              		.size	SPI_I2S_ReceiveData, .-SPI_I2S_ReceiveData
 1002              		.align	1
 1003              		.global	SPI_NSSInternalSoftwareConfig
 1004              		.syntax unified
 1005              		.thumb
 1006              		.thumb_func
 1007              		.fpu softvfp
 1008              		.type	SPI_NSSInternalSoftwareConfig, %function
ARM GAS  G:\Users\Jaxb\AppData\Local\Temp\ccN59N5m.s 			page 29


 1009              	SPI_NSSInternalSoftwareConfig:
 1010              	.LFB40:
 571:../../source/src/FWlib/src/stm32f10x_spi.c **** 
 572:../../source/src/FWlib/src/stm32f10x_spi.c **** /**
 573:../../source/src/FWlib/src/stm32f10x_spi.c ****   * @brief  Configures internally by software the NSS pin for the selected SPI.
 574:../../source/src/FWlib/src/stm32f10x_spi.c ****   * @param  SPIx: where x can be 1, 2 or 3 to select the SPI peripheral.
 575:../../source/src/FWlib/src/stm32f10x_spi.c ****   * @param  SPI_NSSInternalSoft: specifies the SPI NSS internal state.
 576:../../source/src/FWlib/src/stm32f10x_spi.c ****   *   This parameter can be one of the following values:
 577:../../source/src/FWlib/src/stm32f10x_spi.c ****   *     @arg SPI_NSSInternalSoft_Set: Set NSS pin internally
 578:../../source/src/FWlib/src/stm32f10x_spi.c ****   *     @arg SPI_NSSInternalSoft_Reset: Reset NSS pin internally
 579:../../source/src/FWlib/src/stm32f10x_spi.c ****   * @retval None
 580:../../source/src/FWlib/src/stm32f10x_spi.c ****   */
 581:../../source/src/FWlib/src/stm32f10x_spi.c **** void SPI_NSSInternalSoftwareConfig(SPI_TypeDef* SPIx, uint16_t SPI_NSSInternalSoft)
 582:../../source/src/FWlib/src/stm32f10x_spi.c **** {
 1011              		.loc 1 582 0
 1012              		.cfi_startproc
 1013              		@ args = 0, pretend = 0, frame = 8
 1014              		@ frame_needed = 1, uses_anonymous_args = 0
 1015              		@ link register save eliminated.
 1016 0434 80B4     		push	{r7}
 1017              	.LCFI64:
 1018              		.cfi_def_cfa_offset 4
 1019              		.cfi_offset 7, -4
 1020 0436 83B0     		sub	sp, sp, #12
 1021              	.LCFI65:
 1022              		.cfi_def_cfa_offset 16
 1023 0438 00AF     		add	r7, sp, #0
 1024              	.LCFI66:
 1025              		.cfi_def_cfa_register 7
 1026 043a 7860     		str	r0, [r7, #4]
 1027 043c 0B46     		mov	r3, r1
 1028 043e 7B80     		strh	r3, [r7, #2]	@ movhi
 583:../../source/src/FWlib/src/stm32f10x_spi.c ****   /* Check the parameters */
 584:../../source/src/FWlib/src/stm32f10x_spi.c ****   assert_param(IS_SPI_ALL_PERIPH(SPIx));
 585:../../source/src/FWlib/src/stm32f10x_spi.c ****   assert_param(IS_SPI_NSS_INTERNAL(SPI_NSSInternalSoft));
 586:../../source/src/FWlib/src/stm32f10x_spi.c ****   if (SPI_NSSInternalSoft != SPI_NSSInternalSoft_Reset)
 1029              		.loc 1 586 0
 1030 0440 7B88     		ldrh	r3, [r7, #2]
 1031 0442 4FF6FF62 		movw	r2, #65279
 1032 0446 9342     		cmp	r3, r2
 1033 0448 08D0     		beq	.L44
 587:../../source/src/FWlib/src/stm32f10x_spi.c ****   {
 588:../../source/src/FWlib/src/stm32f10x_spi.c ****     /* Set NSS pin internally by software */
 589:../../source/src/FWlib/src/stm32f10x_spi.c ****     SPIx->CR1 |= SPI_NSSInternalSoft_Set;
 1034              		.loc 1 589 0
 1035 044a 7B68     		ldr	r3, [r7, #4]
 1036 044c 1B88     		ldrh	r3, [r3]	@ movhi
 1037 044e 9BB2     		uxth	r3, r3
 1038 0450 43F48073 		orr	r3, r3, #256
 1039 0454 9AB2     		uxth	r2, r3
 1040 0456 7B68     		ldr	r3, [r7, #4]
 1041 0458 1A80     		strh	r2, [r3]	@ movhi
 590:../../source/src/FWlib/src/stm32f10x_spi.c ****   }
 591:../../source/src/FWlib/src/stm32f10x_spi.c ****   else
 592:../../source/src/FWlib/src/stm32f10x_spi.c ****   {
 593:../../source/src/FWlib/src/stm32f10x_spi.c ****     /* Reset NSS pin internally by software */
 594:../../source/src/FWlib/src/stm32f10x_spi.c ****     SPIx->CR1 &= SPI_NSSInternalSoft_Reset;
ARM GAS  G:\Users\Jaxb\AppData\Local\Temp\ccN59N5m.s 			page 30


 595:../../source/src/FWlib/src/stm32f10x_spi.c ****   }
 596:../../source/src/FWlib/src/stm32f10x_spi.c **** }
 1042              		.loc 1 596 0
 1043 045a 07E0     		b	.L46
 1044              	.L44:
 594:../../source/src/FWlib/src/stm32f10x_spi.c ****   }
 1045              		.loc 1 594 0
 1046 045c 7B68     		ldr	r3, [r7, #4]
 1047 045e 1B88     		ldrh	r3, [r3]	@ movhi
 1048 0460 9BB2     		uxth	r3, r3
 1049 0462 23F48073 		bic	r3, r3, #256
 1050 0466 9AB2     		uxth	r2, r3
 1051 0468 7B68     		ldr	r3, [r7, #4]
 1052 046a 1A80     		strh	r2, [r3]	@ movhi
 1053              	.L46:
 1054              		.loc 1 596 0
 1055 046c 00BF     		nop
 1056 046e 0C37     		adds	r7, r7, #12
 1057              	.LCFI67:
 1058              		.cfi_def_cfa_offset 4
 1059 0470 BD46     		mov	sp, r7
 1060              	.LCFI68:
 1061              		.cfi_def_cfa_register 13
 1062              		@ sp needed
 1063 0472 80BC     		pop	{r7}
 1064              	.LCFI69:
 1065              		.cfi_restore 7
 1066              		.cfi_def_cfa_offset 0
 1067 0474 7047     		bx	lr
 1068              		.cfi_endproc
 1069              	.LFE40:
 1070              		.size	SPI_NSSInternalSoftwareConfig, .-SPI_NSSInternalSoftwareConfig
 1071              		.align	1
 1072              		.global	SPI_SSOutputCmd
 1073              		.syntax unified
 1074              		.thumb
 1075              		.thumb_func
 1076              		.fpu softvfp
 1077              		.type	SPI_SSOutputCmd, %function
 1078              	SPI_SSOutputCmd:
 1079              	.LFB41:
 597:../../source/src/FWlib/src/stm32f10x_spi.c **** 
 598:../../source/src/FWlib/src/stm32f10x_spi.c **** /**
 599:../../source/src/FWlib/src/stm32f10x_spi.c ****   * @brief  Enables or disables the SS output for the selected SPI.
 600:../../source/src/FWlib/src/stm32f10x_spi.c ****   * @param  SPIx: where x can be 1, 2 or 3 to select the SPI peripheral.
 601:../../source/src/FWlib/src/stm32f10x_spi.c ****   * @param  NewState: new state of the SPIx SS output. 
 602:../../source/src/FWlib/src/stm32f10x_spi.c ****   *   This parameter can be: ENABLE or DISABLE.
 603:../../source/src/FWlib/src/stm32f10x_spi.c ****   * @retval None
 604:../../source/src/FWlib/src/stm32f10x_spi.c ****   */
 605:../../source/src/FWlib/src/stm32f10x_spi.c **** void SPI_SSOutputCmd(SPI_TypeDef* SPIx, FunctionalState NewState)
 606:../../source/src/FWlib/src/stm32f10x_spi.c **** {
 1080              		.loc 1 606 0
 1081              		.cfi_startproc
 1082              		@ args = 0, pretend = 0, frame = 8
 1083              		@ frame_needed = 1, uses_anonymous_args = 0
 1084              		@ link register save eliminated.
 1085 0476 80B4     		push	{r7}
ARM GAS  G:\Users\Jaxb\AppData\Local\Temp\ccN59N5m.s 			page 31


 1086              	.LCFI70:
 1087              		.cfi_def_cfa_offset 4
 1088              		.cfi_offset 7, -4
 1089 0478 83B0     		sub	sp, sp, #12
 1090              	.LCFI71:
 1091              		.cfi_def_cfa_offset 16
 1092 047a 00AF     		add	r7, sp, #0
 1093              	.LCFI72:
 1094              		.cfi_def_cfa_register 7
 1095 047c 7860     		str	r0, [r7, #4]
 1096 047e 0B46     		mov	r3, r1
 1097 0480 FB70     		strb	r3, [r7, #3]
 607:../../source/src/FWlib/src/stm32f10x_spi.c ****   /* Check the parameters */
 608:../../source/src/FWlib/src/stm32f10x_spi.c ****   assert_param(IS_SPI_ALL_PERIPH(SPIx));
 609:../../source/src/FWlib/src/stm32f10x_spi.c ****   assert_param(IS_FUNCTIONAL_STATE(NewState));
 610:../../source/src/FWlib/src/stm32f10x_spi.c ****   if (NewState != DISABLE)
 1098              		.loc 1 610 0
 1099 0482 FB78     		ldrb	r3, [r7, #3]	@ zero_extendqisi2
 1100 0484 002B     		cmp	r3, #0
 1101 0486 08D0     		beq	.L48
 611:../../source/src/FWlib/src/stm32f10x_spi.c ****   {
 612:../../source/src/FWlib/src/stm32f10x_spi.c ****     /* Enable the selected SPI SS output */
 613:../../source/src/FWlib/src/stm32f10x_spi.c ****     SPIx->CR2 |= CR2_SSOE_Set;
 1102              		.loc 1 613 0
 1103 0488 7B68     		ldr	r3, [r7, #4]
 1104 048a 9B88     		ldrh	r3, [r3, #4]	@ movhi
 1105 048c 9BB2     		uxth	r3, r3
 1106 048e 43F00403 		orr	r3, r3, #4
 1107 0492 9AB2     		uxth	r2, r3
 1108 0494 7B68     		ldr	r3, [r7, #4]
 1109 0496 9A80     		strh	r2, [r3, #4]	@ movhi
 614:../../source/src/FWlib/src/stm32f10x_spi.c ****   }
 615:../../source/src/FWlib/src/stm32f10x_spi.c ****   else
 616:../../source/src/FWlib/src/stm32f10x_spi.c ****   {
 617:../../source/src/FWlib/src/stm32f10x_spi.c ****     /* Disable the selected SPI SS output */
 618:../../source/src/FWlib/src/stm32f10x_spi.c ****     SPIx->CR2 &= CR2_SSOE_Reset;
 619:../../source/src/FWlib/src/stm32f10x_spi.c ****   }
 620:../../source/src/FWlib/src/stm32f10x_spi.c **** }
 1110              		.loc 1 620 0
 1111 0498 07E0     		b	.L50
 1112              	.L48:
 618:../../source/src/FWlib/src/stm32f10x_spi.c ****   }
 1113              		.loc 1 618 0
 1114 049a 7B68     		ldr	r3, [r7, #4]
 1115 049c 9B88     		ldrh	r3, [r3, #4]	@ movhi
 1116 049e 9BB2     		uxth	r3, r3
 1117 04a0 23F00403 		bic	r3, r3, #4
 1118 04a4 9AB2     		uxth	r2, r3
 1119 04a6 7B68     		ldr	r3, [r7, #4]
 1120 04a8 9A80     		strh	r2, [r3, #4]	@ movhi
 1121              	.L50:
 1122              		.loc 1 620 0
 1123 04aa 00BF     		nop
 1124 04ac 0C37     		adds	r7, r7, #12
 1125              	.LCFI73:
 1126              		.cfi_def_cfa_offset 4
 1127 04ae BD46     		mov	sp, r7
ARM GAS  G:\Users\Jaxb\AppData\Local\Temp\ccN59N5m.s 			page 32


 1128              	.LCFI74:
 1129              		.cfi_def_cfa_register 13
 1130              		@ sp needed
 1131 04b0 80BC     		pop	{r7}
 1132              	.LCFI75:
 1133              		.cfi_restore 7
 1134              		.cfi_def_cfa_offset 0
 1135 04b2 7047     		bx	lr
 1136              		.cfi_endproc
 1137              	.LFE41:
 1138              		.size	SPI_SSOutputCmd, .-SPI_SSOutputCmd
 1139              		.align	1
 1140              		.global	SPI_DataSizeConfig
 1141              		.syntax unified
 1142              		.thumb
 1143              		.thumb_func
 1144              		.fpu softvfp
 1145              		.type	SPI_DataSizeConfig, %function
 1146              	SPI_DataSizeConfig:
 1147              	.LFB42:
 621:../../source/src/FWlib/src/stm32f10x_spi.c **** 
 622:../../source/src/FWlib/src/stm32f10x_spi.c **** /**
 623:../../source/src/FWlib/src/stm32f10x_spi.c ****   * @brief  Configures the data size for the selected SPI.
 624:../../source/src/FWlib/src/stm32f10x_spi.c ****   * @param  SPIx: where x can be 1, 2 or 3 to select the SPI peripheral.
 625:../../source/src/FWlib/src/stm32f10x_spi.c ****   * @param  SPI_DataSize: specifies the SPI data size.
 626:../../source/src/FWlib/src/stm32f10x_spi.c ****   *   This parameter can be one of the following values:
 627:../../source/src/FWlib/src/stm32f10x_spi.c ****   *     @arg SPI_DataSize_16b: Set data frame format to 16bit
 628:../../source/src/FWlib/src/stm32f10x_spi.c ****   *     @arg SPI_DataSize_8b: Set data frame format to 8bit
 629:../../source/src/FWlib/src/stm32f10x_spi.c ****   * @retval None
 630:../../source/src/FWlib/src/stm32f10x_spi.c ****   */
 631:../../source/src/FWlib/src/stm32f10x_spi.c **** void SPI_DataSizeConfig(SPI_TypeDef* SPIx, uint16_t SPI_DataSize)
 632:../../source/src/FWlib/src/stm32f10x_spi.c **** {
 1148              		.loc 1 632 0
 1149              		.cfi_startproc
 1150              		@ args = 0, pretend = 0, frame = 8
 1151              		@ frame_needed = 1, uses_anonymous_args = 0
 1152              		@ link register save eliminated.
 1153 04b4 80B4     		push	{r7}
 1154              	.LCFI76:
 1155              		.cfi_def_cfa_offset 4
 1156              		.cfi_offset 7, -4
 1157 04b6 83B0     		sub	sp, sp, #12
 1158              	.LCFI77:
 1159              		.cfi_def_cfa_offset 16
 1160 04b8 00AF     		add	r7, sp, #0
 1161              	.LCFI78:
 1162              		.cfi_def_cfa_register 7
 1163 04ba 7860     		str	r0, [r7, #4]
 1164 04bc 0B46     		mov	r3, r1
 1165 04be 7B80     		strh	r3, [r7, #2]	@ movhi
 633:../../source/src/FWlib/src/stm32f10x_spi.c ****   /* Check the parameters */
 634:../../source/src/FWlib/src/stm32f10x_spi.c ****   assert_param(IS_SPI_ALL_PERIPH(SPIx));
 635:../../source/src/FWlib/src/stm32f10x_spi.c ****   assert_param(IS_SPI_DATASIZE(SPI_DataSize));
 636:../../source/src/FWlib/src/stm32f10x_spi.c ****   /* Clear DFF bit */
 637:../../source/src/FWlib/src/stm32f10x_spi.c ****   SPIx->CR1 &= (uint16_t)~SPI_DataSize_16b;
 1166              		.loc 1 637 0
 1167 04c0 7B68     		ldr	r3, [r7, #4]
ARM GAS  G:\Users\Jaxb\AppData\Local\Temp\ccN59N5m.s 			page 33


 1168 04c2 1B88     		ldrh	r3, [r3]	@ movhi
 1169 04c4 9BB2     		uxth	r3, r3
 1170 04c6 23F40063 		bic	r3, r3, #2048
 1171 04ca 9AB2     		uxth	r2, r3
 1172 04cc 7B68     		ldr	r3, [r7, #4]
 1173 04ce 1A80     		strh	r2, [r3]	@ movhi
 638:../../source/src/FWlib/src/stm32f10x_spi.c ****   /* Set new DFF bit value */
 639:../../source/src/FWlib/src/stm32f10x_spi.c ****   SPIx->CR1 |= SPI_DataSize;
 1174              		.loc 1 639 0
 1175 04d0 7B68     		ldr	r3, [r7, #4]
 1176 04d2 1B88     		ldrh	r3, [r3]	@ movhi
 1177 04d4 9AB2     		uxth	r2, r3
 1178 04d6 7B88     		ldrh	r3, [r7, #2]	@ movhi
 1179 04d8 1343     		orrs	r3, r3, r2
 1180 04da 9AB2     		uxth	r2, r3
 1181 04dc 7B68     		ldr	r3, [r7, #4]
 1182 04de 1A80     		strh	r2, [r3]	@ movhi
 640:../../source/src/FWlib/src/stm32f10x_spi.c **** }
 1183              		.loc 1 640 0
 1184 04e0 00BF     		nop
 1185 04e2 0C37     		adds	r7, r7, #12
 1186              	.LCFI79:
 1187              		.cfi_def_cfa_offset 4
 1188 04e4 BD46     		mov	sp, r7
 1189              	.LCFI80:
 1190              		.cfi_def_cfa_register 13
 1191              		@ sp needed
 1192 04e6 80BC     		pop	{r7}
 1193              	.LCFI81:
 1194              		.cfi_restore 7
 1195              		.cfi_def_cfa_offset 0
 1196 04e8 7047     		bx	lr
 1197              		.cfi_endproc
 1198              	.LFE42:
 1199              		.size	SPI_DataSizeConfig, .-SPI_DataSizeConfig
 1200              		.align	1
 1201              		.global	SPI_TransmitCRC
 1202              		.syntax unified
 1203              		.thumb
 1204              		.thumb_func
 1205              		.fpu softvfp
 1206              		.type	SPI_TransmitCRC, %function
 1207              	SPI_TransmitCRC:
 1208              	.LFB43:
 641:../../source/src/FWlib/src/stm32f10x_spi.c **** 
 642:../../source/src/FWlib/src/stm32f10x_spi.c **** /**
 643:../../source/src/FWlib/src/stm32f10x_spi.c ****   * @brief  Transmit the SPIx CRC value.
 644:../../source/src/FWlib/src/stm32f10x_spi.c ****   * @param  SPIx: where x can be 1, 2 or 3 to select the SPI peripheral.
 645:../../source/src/FWlib/src/stm32f10x_spi.c ****   * @retval None
 646:../../source/src/FWlib/src/stm32f10x_spi.c ****   */
 647:../../source/src/FWlib/src/stm32f10x_spi.c **** void SPI_TransmitCRC(SPI_TypeDef* SPIx)
 648:../../source/src/FWlib/src/stm32f10x_spi.c **** {
 1209              		.loc 1 648 0
 1210              		.cfi_startproc
 1211              		@ args = 0, pretend = 0, frame = 8
 1212              		@ frame_needed = 1, uses_anonymous_args = 0
 1213              		@ link register save eliminated.
ARM GAS  G:\Users\Jaxb\AppData\Local\Temp\ccN59N5m.s 			page 34


 1214 04ea 80B4     		push	{r7}
 1215              	.LCFI82:
 1216              		.cfi_def_cfa_offset 4
 1217              		.cfi_offset 7, -4
 1218 04ec 83B0     		sub	sp, sp, #12
 1219              	.LCFI83:
 1220              		.cfi_def_cfa_offset 16
 1221 04ee 00AF     		add	r7, sp, #0
 1222              	.LCFI84:
 1223              		.cfi_def_cfa_register 7
 1224 04f0 7860     		str	r0, [r7, #4]
 649:../../source/src/FWlib/src/stm32f10x_spi.c ****   /* Check the parameters */
 650:../../source/src/FWlib/src/stm32f10x_spi.c ****   assert_param(IS_SPI_ALL_PERIPH(SPIx));
 651:../../source/src/FWlib/src/stm32f10x_spi.c ****   
 652:../../source/src/FWlib/src/stm32f10x_spi.c ****   /* Enable the selected SPI CRC transmission */
 653:../../source/src/FWlib/src/stm32f10x_spi.c ****   SPIx->CR1 |= CR1_CRCNext_Set;
 1225              		.loc 1 653 0
 1226 04f2 7B68     		ldr	r3, [r7, #4]
 1227 04f4 1B88     		ldrh	r3, [r3]	@ movhi
 1228 04f6 9BB2     		uxth	r3, r3
 1229 04f8 43F48053 		orr	r3, r3, #4096
 1230 04fc 9AB2     		uxth	r2, r3
 1231 04fe 7B68     		ldr	r3, [r7, #4]
 1232 0500 1A80     		strh	r2, [r3]	@ movhi
 654:../../source/src/FWlib/src/stm32f10x_spi.c **** }
 1233              		.loc 1 654 0
 1234 0502 00BF     		nop
 1235 0504 0C37     		adds	r7, r7, #12
 1236              	.LCFI85:
 1237              		.cfi_def_cfa_offset 4
 1238 0506 BD46     		mov	sp, r7
 1239              	.LCFI86:
 1240              		.cfi_def_cfa_register 13
 1241              		@ sp needed
 1242 0508 80BC     		pop	{r7}
 1243              	.LCFI87:
 1244              		.cfi_restore 7
 1245              		.cfi_def_cfa_offset 0
 1246 050a 7047     		bx	lr
 1247              		.cfi_endproc
 1248              	.LFE43:
 1249              		.size	SPI_TransmitCRC, .-SPI_TransmitCRC
 1250              		.align	1
 1251              		.global	SPI_CalculateCRC
 1252              		.syntax unified
 1253              		.thumb
 1254              		.thumb_func
 1255              		.fpu softvfp
 1256              		.type	SPI_CalculateCRC, %function
 1257              	SPI_CalculateCRC:
 1258              	.LFB44:
 655:../../source/src/FWlib/src/stm32f10x_spi.c **** 
 656:../../source/src/FWlib/src/stm32f10x_spi.c **** /**
 657:../../source/src/FWlib/src/stm32f10x_spi.c ****   * @brief  Enables or disables the CRC value calculation of the transferred bytes.
 658:../../source/src/FWlib/src/stm32f10x_spi.c ****   * @param  SPIx: where x can be 1, 2 or 3 to select the SPI peripheral.
 659:../../source/src/FWlib/src/stm32f10x_spi.c ****   * @param  NewState: new state of the SPIx CRC value calculation.
 660:../../source/src/FWlib/src/stm32f10x_spi.c ****   *   This parameter can be: ENABLE or DISABLE.
ARM GAS  G:\Users\Jaxb\AppData\Local\Temp\ccN59N5m.s 			page 35


 661:../../source/src/FWlib/src/stm32f10x_spi.c ****   * @retval None
 662:../../source/src/FWlib/src/stm32f10x_spi.c ****   */
 663:../../source/src/FWlib/src/stm32f10x_spi.c **** void SPI_CalculateCRC(SPI_TypeDef* SPIx, FunctionalState NewState)
 664:../../source/src/FWlib/src/stm32f10x_spi.c **** {
 1259              		.loc 1 664 0
 1260              		.cfi_startproc
 1261              		@ args = 0, pretend = 0, frame = 8
 1262              		@ frame_needed = 1, uses_anonymous_args = 0
 1263              		@ link register save eliminated.
 1264 050c 80B4     		push	{r7}
 1265              	.LCFI88:
 1266              		.cfi_def_cfa_offset 4
 1267              		.cfi_offset 7, -4
 1268 050e 83B0     		sub	sp, sp, #12
 1269              	.LCFI89:
 1270              		.cfi_def_cfa_offset 16
 1271 0510 00AF     		add	r7, sp, #0
 1272              	.LCFI90:
 1273              		.cfi_def_cfa_register 7
 1274 0512 7860     		str	r0, [r7, #4]
 1275 0514 0B46     		mov	r3, r1
 1276 0516 FB70     		strb	r3, [r7, #3]
 665:../../source/src/FWlib/src/stm32f10x_spi.c ****   /* Check the parameters */
 666:../../source/src/FWlib/src/stm32f10x_spi.c ****   assert_param(IS_SPI_ALL_PERIPH(SPIx));
 667:../../source/src/FWlib/src/stm32f10x_spi.c ****   assert_param(IS_FUNCTIONAL_STATE(NewState));
 668:../../source/src/FWlib/src/stm32f10x_spi.c ****   if (NewState != DISABLE)
 1277              		.loc 1 668 0
 1278 0518 FB78     		ldrb	r3, [r7, #3]	@ zero_extendqisi2
 1279 051a 002B     		cmp	r3, #0
 1280 051c 08D0     		beq	.L54
 669:../../source/src/FWlib/src/stm32f10x_spi.c ****   {
 670:../../source/src/FWlib/src/stm32f10x_spi.c ****     /* Enable the selected SPI CRC calculation */
 671:../../source/src/FWlib/src/stm32f10x_spi.c ****     SPIx->CR1 |= CR1_CRCEN_Set;
 1281              		.loc 1 671 0
 1282 051e 7B68     		ldr	r3, [r7, #4]
 1283 0520 1B88     		ldrh	r3, [r3]	@ movhi
 1284 0522 9BB2     		uxth	r3, r3
 1285 0524 43F40053 		orr	r3, r3, #8192
 1286 0528 9AB2     		uxth	r2, r3
 1287 052a 7B68     		ldr	r3, [r7, #4]
 1288 052c 1A80     		strh	r2, [r3]	@ movhi
 672:../../source/src/FWlib/src/stm32f10x_spi.c ****   }
 673:../../source/src/FWlib/src/stm32f10x_spi.c ****   else
 674:../../source/src/FWlib/src/stm32f10x_spi.c ****   {
 675:../../source/src/FWlib/src/stm32f10x_spi.c ****     /* Disable the selected SPI CRC calculation */
 676:../../source/src/FWlib/src/stm32f10x_spi.c ****     SPIx->CR1 &= CR1_CRCEN_Reset;
 677:../../source/src/FWlib/src/stm32f10x_spi.c ****   }
 678:../../source/src/FWlib/src/stm32f10x_spi.c **** }
 1289              		.loc 1 678 0
 1290 052e 07E0     		b	.L56
 1291              	.L54:
 676:../../source/src/FWlib/src/stm32f10x_spi.c ****   }
 1292              		.loc 1 676 0
 1293 0530 7B68     		ldr	r3, [r7, #4]
 1294 0532 1B88     		ldrh	r3, [r3]	@ movhi
 1295 0534 9BB2     		uxth	r3, r3
 1296 0536 23F40053 		bic	r3, r3, #8192
ARM GAS  G:\Users\Jaxb\AppData\Local\Temp\ccN59N5m.s 			page 36


 1297 053a 9AB2     		uxth	r2, r3
 1298 053c 7B68     		ldr	r3, [r7, #4]
 1299 053e 1A80     		strh	r2, [r3]	@ movhi
 1300              	.L56:
 1301              		.loc 1 678 0
 1302 0540 00BF     		nop
 1303 0542 0C37     		adds	r7, r7, #12
 1304              	.LCFI91:
 1305              		.cfi_def_cfa_offset 4
 1306 0544 BD46     		mov	sp, r7
 1307              	.LCFI92:
 1308              		.cfi_def_cfa_register 13
 1309              		@ sp needed
 1310 0546 80BC     		pop	{r7}
 1311              	.LCFI93:
 1312              		.cfi_restore 7
 1313              		.cfi_def_cfa_offset 0
 1314 0548 7047     		bx	lr
 1315              		.cfi_endproc
 1316              	.LFE44:
 1317              		.size	SPI_CalculateCRC, .-SPI_CalculateCRC
 1318              		.align	1
 1319              		.global	SPI_GetCRC
 1320              		.syntax unified
 1321              		.thumb
 1322              		.thumb_func
 1323              		.fpu softvfp
 1324              		.type	SPI_GetCRC, %function
 1325              	SPI_GetCRC:
 1326              	.LFB45:
 679:../../source/src/FWlib/src/stm32f10x_spi.c **** 
 680:../../source/src/FWlib/src/stm32f10x_spi.c **** /**
 681:../../source/src/FWlib/src/stm32f10x_spi.c ****   * @brief  Returns the transmit or the receive CRC register value for the specified SPI.
 682:../../source/src/FWlib/src/stm32f10x_spi.c ****   * @param  SPIx: where x can be 1, 2 or 3 to select the SPI peripheral.
 683:../../source/src/FWlib/src/stm32f10x_spi.c ****   * @param  SPI_CRC: specifies the CRC register to be read.
 684:../../source/src/FWlib/src/stm32f10x_spi.c ****   *   This parameter can be one of the following values:
 685:../../source/src/FWlib/src/stm32f10x_spi.c ****   *     @arg SPI_CRC_Tx: Selects Tx CRC register
 686:../../source/src/FWlib/src/stm32f10x_spi.c ****   *     @arg SPI_CRC_Rx: Selects Rx CRC register
 687:../../source/src/FWlib/src/stm32f10x_spi.c ****   * @retval The selected CRC register value..
 688:../../source/src/FWlib/src/stm32f10x_spi.c ****   */
 689:../../source/src/FWlib/src/stm32f10x_spi.c **** uint16_t SPI_GetCRC(SPI_TypeDef* SPIx, uint8_t SPI_CRC)
 690:../../source/src/FWlib/src/stm32f10x_spi.c **** {
 1327              		.loc 1 690 0
 1328              		.cfi_startproc
 1329              		@ args = 0, pretend = 0, frame = 16
 1330              		@ frame_needed = 1, uses_anonymous_args = 0
 1331              		@ link register save eliminated.
 1332 054a 80B4     		push	{r7}
 1333              	.LCFI94:
 1334              		.cfi_def_cfa_offset 4
 1335              		.cfi_offset 7, -4
 1336 054c 85B0     		sub	sp, sp, #20
 1337              	.LCFI95:
 1338              		.cfi_def_cfa_offset 24
 1339 054e 00AF     		add	r7, sp, #0
 1340              	.LCFI96:
 1341              		.cfi_def_cfa_register 7
ARM GAS  G:\Users\Jaxb\AppData\Local\Temp\ccN59N5m.s 			page 37


 1342 0550 7860     		str	r0, [r7, #4]
 1343 0552 0B46     		mov	r3, r1
 1344 0554 FB70     		strb	r3, [r7, #3]
 691:../../source/src/FWlib/src/stm32f10x_spi.c ****   uint16_t crcreg = 0;
 1345              		.loc 1 691 0
 1346 0556 0023     		movs	r3, #0
 1347 0558 FB81     		strh	r3, [r7, #14]	@ movhi
 692:../../source/src/FWlib/src/stm32f10x_spi.c ****   /* Check the parameters */
 693:../../source/src/FWlib/src/stm32f10x_spi.c ****   assert_param(IS_SPI_ALL_PERIPH(SPIx));
 694:../../source/src/FWlib/src/stm32f10x_spi.c ****   assert_param(IS_SPI_CRC(SPI_CRC));
 695:../../source/src/FWlib/src/stm32f10x_spi.c ****   if (SPI_CRC != SPI_CRC_Rx)
 1348              		.loc 1 695 0
 1349 055a FB78     		ldrb	r3, [r7, #3]	@ zero_extendqisi2
 1350 055c 012B     		cmp	r3, #1
 1351 055e 03D0     		beq	.L58
 696:../../source/src/FWlib/src/stm32f10x_spi.c ****   {
 697:../../source/src/FWlib/src/stm32f10x_spi.c ****     /* Get the Tx CRC register */
 698:../../source/src/FWlib/src/stm32f10x_spi.c ****     crcreg = SPIx->TXCRCR;
 1352              		.loc 1 698 0
 1353 0560 7B68     		ldr	r3, [r7, #4]
 1354 0562 1B8B     		ldrh	r3, [r3, #24]	@ movhi
 1355 0564 FB81     		strh	r3, [r7, #14]	@ movhi
 1356 0566 02E0     		b	.L59
 1357              	.L58:
 699:../../source/src/FWlib/src/stm32f10x_spi.c ****   }
 700:../../source/src/FWlib/src/stm32f10x_spi.c ****   else
 701:../../source/src/FWlib/src/stm32f10x_spi.c ****   {
 702:../../source/src/FWlib/src/stm32f10x_spi.c ****     /* Get the Rx CRC register */
 703:../../source/src/FWlib/src/stm32f10x_spi.c ****     crcreg = SPIx->RXCRCR;
 1358              		.loc 1 703 0
 1359 0568 7B68     		ldr	r3, [r7, #4]
 1360 056a 9B8A     		ldrh	r3, [r3, #20]	@ movhi
 1361 056c FB81     		strh	r3, [r7, #14]	@ movhi
 1362              	.L59:
 704:../../source/src/FWlib/src/stm32f10x_spi.c ****   }
 705:../../source/src/FWlib/src/stm32f10x_spi.c ****   /* Return the selected CRC register */
 706:../../source/src/FWlib/src/stm32f10x_spi.c ****   return crcreg;
 1363              		.loc 1 706 0
 1364 056e FB89     		ldrh	r3, [r7, #14]
 707:../../source/src/FWlib/src/stm32f10x_spi.c **** }
 1365              		.loc 1 707 0
 1366 0570 1846     		mov	r0, r3
 1367 0572 1437     		adds	r7, r7, #20
 1368              	.LCFI97:
 1369              		.cfi_def_cfa_offset 4
 1370 0574 BD46     		mov	sp, r7
 1371              	.LCFI98:
 1372              		.cfi_def_cfa_register 13
 1373              		@ sp needed
 1374 0576 80BC     		pop	{r7}
 1375              	.LCFI99:
 1376              		.cfi_restore 7
 1377              		.cfi_def_cfa_offset 0
 1378 0578 7047     		bx	lr
 1379              		.cfi_endproc
 1380              	.LFE45:
 1381              		.size	SPI_GetCRC, .-SPI_GetCRC
ARM GAS  G:\Users\Jaxb\AppData\Local\Temp\ccN59N5m.s 			page 38


 1382              		.align	1
 1383              		.global	SPI_GetCRCPolynomial
 1384              		.syntax unified
 1385              		.thumb
 1386              		.thumb_func
 1387              		.fpu softvfp
 1388              		.type	SPI_GetCRCPolynomial, %function
 1389              	SPI_GetCRCPolynomial:
 1390              	.LFB46:
 708:../../source/src/FWlib/src/stm32f10x_spi.c **** 
 709:../../source/src/FWlib/src/stm32f10x_spi.c **** /**
 710:../../source/src/FWlib/src/stm32f10x_spi.c ****   * @brief  Returns the CRC Polynomial register value for the specified SPI.
 711:../../source/src/FWlib/src/stm32f10x_spi.c ****   * @param  SPIx: where x can be 1, 2 or 3 to select the SPI peripheral.
 712:../../source/src/FWlib/src/stm32f10x_spi.c ****   * @retval The CRC Polynomial register value.
 713:../../source/src/FWlib/src/stm32f10x_spi.c ****   */
 714:../../source/src/FWlib/src/stm32f10x_spi.c **** uint16_t SPI_GetCRCPolynomial(SPI_TypeDef* SPIx)
 715:../../source/src/FWlib/src/stm32f10x_spi.c **** {
 1391              		.loc 1 715 0
 1392              		.cfi_startproc
 1393              		@ args = 0, pretend = 0, frame = 8
 1394              		@ frame_needed = 1, uses_anonymous_args = 0
 1395              		@ link register save eliminated.
 1396 057a 80B4     		push	{r7}
 1397              	.LCFI100:
 1398              		.cfi_def_cfa_offset 4
 1399              		.cfi_offset 7, -4
 1400 057c 83B0     		sub	sp, sp, #12
 1401              	.LCFI101:
 1402              		.cfi_def_cfa_offset 16
 1403 057e 00AF     		add	r7, sp, #0
 1404              	.LCFI102:
 1405              		.cfi_def_cfa_register 7
 1406 0580 7860     		str	r0, [r7, #4]
 716:../../source/src/FWlib/src/stm32f10x_spi.c ****   /* Check the parameters */
 717:../../source/src/FWlib/src/stm32f10x_spi.c ****   assert_param(IS_SPI_ALL_PERIPH(SPIx));
 718:../../source/src/FWlib/src/stm32f10x_spi.c ****   
 719:../../source/src/FWlib/src/stm32f10x_spi.c ****   /* Return the CRC polynomial register */
 720:../../source/src/FWlib/src/stm32f10x_spi.c ****   return SPIx->CRCPR;
 1407              		.loc 1 720 0
 1408 0582 7B68     		ldr	r3, [r7, #4]
 1409 0584 1B8A     		ldrh	r3, [r3, #16]	@ movhi
 1410 0586 9BB2     		uxth	r3, r3
 721:../../source/src/FWlib/src/stm32f10x_spi.c **** }
 1411              		.loc 1 721 0
 1412 0588 1846     		mov	r0, r3
 1413 058a 0C37     		adds	r7, r7, #12
 1414              	.LCFI103:
 1415              		.cfi_def_cfa_offset 4
 1416 058c BD46     		mov	sp, r7
 1417              	.LCFI104:
 1418              		.cfi_def_cfa_register 13
 1419              		@ sp needed
 1420 058e 80BC     		pop	{r7}
 1421              	.LCFI105:
 1422              		.cfi_restore 7
 1423              		.cfi_def_cfa_offset 0
 1424 0590 7047     		bx	lr
ARM GAS  G:\Users\Jaxb\AppData\Local\Temp\ccN59N5m.s 			page 39


 1425              		.cfi_endproc
 1426              	.LFE46:
 1427              		.size	SPI_GetCRCPolynomial, .-SPI_GetCRCPolynomial
 1428              		.align	1
 1429              		.global	SPI_BiDirectionalLineConfig
 1430              		.syntax unified
 1431              		.thumb
 1432              		.thumb_func
 1433              		.fpu softvfp
 1434              		.type	SPI_BiDirectionalLineConfig, %function
 1435              	SPI_BiDirectionalLineConfig:
 1436              	.LFB47:
 722:../../source/src/FWlib/src/stm32f10x_spi.c **** 
 723:../../source/src/FWlib/src/stm32f10x_spi.c **** /**
 724:../../source/src/FWlib/src/stm32f10x_spi.c ****   * @brief  Selects the data transfer direction in bi-directional mode for the specified SPI.
 725:../../source/src/FWlib/src/stm32f10x_spi.c ****   * @param  SPIx: where x can be 1, 2 or 3 to select the SPI peripheral.
 726:../../source/src/FWlib/src/stm32f10x_spi.c ****   * @param  SPI_Direction: specifies the data transfer direction in bi-directional mode. 
 727:../../source/src/FWlib/src/stm32f10x_spi.c ****   *   This parameter can be one of the following values:
 728:../../source/src/FWlib/src/stm32f10x_spi.c ****   *     @arg SPI_Direction_Tx: Selects Tx transmission direction
 729:../../source/src/FWlib/src/stm32f10x_spi.c ****   *     @arg SPI_Direction_Rx: Selects Rx receive direction
 730:../../source/src/FWlib/src/stm32f10x_spi.c ****   * @retval None
 731:../../source/src/FWlib/src/stm32f10x_spi.c ****   */
 732:../../source/src/FWlib/src/stm32f10x_spi.c **** void SPI_BiDirectionalLineConfig(SPI_TypeDef* SPIx, uint16_t SPI_Direction)
 733:../../source/src/FWlib/src/stm32f10x_spi.c **** {
 1437              		.loc 1 733 0
 1438              		.cfi_startproc
 1439              		@ args = 0, pretend = 0, frame = 8
 1440              		@ frame_needed = 1, uses_anonymous_args = 0
 1441              		@ link register save eliminated.
 1442 0592 80B4     		push	{r7}
 1443              	.LCFI106:
 1444              		.cfi_def_cfa_offset 4
 1445              		.cfi_offset 7, -4
 1446 0594 83B0     		sub	sp, sp, #12
 1447              	.LCFI107:
 1448              		.cfi_def_cfa_offset 16
 1449 0596 00AF     		add	r7, sp, #0
 1450              	.LCFI108:
 1451              		.cfi_def_cfa_register 7
 1452 0598 7860     		str	r0, [r7, #4]
 1453 059a 0B46     		mov	r3, r1
 1454 059c 7B80     		strh	r3, [r7, #2]	@ movhi
 734:../../source/src/FWlib/src/stm32f10x_spi.c ****   /* Check the parameters */
 735:../../source/src/FWlib/src/stm32f10x_spi.c ****   assert_param(IS_SPI_ALL_PERIPH(SPIx));
 736:../../source/src/FWlib/src/stm32f10x_spi.c ****   assert_param(IS_SPI_DIRECTION(SPI_Direction));
 737:../../source/src/FWlib/src/stm32f10x_spi.c ****   if (SPI_Direction == SPI_Direction_Tx)
 1455              		.loc 1 737 0
 1456 059e 7B88     		ldrh	r3, [r7, #2]
 1457 05a0 B3F5804F 		cmp	r3, #16384
 1458 05a4 08D1     		bne	.L64
 738:../../source/src/FWlib/src/stm32f10x_spi.c ****   {
 739:../../source/src/FWlib/src/stm32f10x_spi.c ****     /* Set the Tx only mode */
 740:../../source/src/FWlib/src/stm32f10x_spi.c ****     SPIx->CR1 |= SPI_Direction_Tx;
 1459              		.loc 1 740 0
 1460 05a6 7B68     		ldr	r3, [r7, #4]
 1461 05a8 1B88     		ldrh	r3, [r3]	@ movhi
 1462 05aa 9BB2     		uxth	r3, r3
ARM GAS  G:\Users\Jaxb\AppData\Local\Temp\ccN59N5m.s 			page 40


 1463 05ac 43F48043 		orr	r3, r3, #16384
 1464 05b0 9AB2     		uxth	r2, r3
 1465 05b2 7B68     		ldr	r3, [r7, #4]
 1466 05b4 1A80     		strh	r2, [r3]	@ movhi
 741:../../source/src/FWlib/src/stm32f10x_spi.c ****   }
 742:../../source/src/FWlib/src/stm32f10x_spi.c ****   else
 743:../../source/src/FWlib/src/stm32f10x_spi.c ****   {
 744:../../source/src/FWlib/src/stm32f10x_spi.c ****     /* Set the Rx only mode */
 745:../../source/src/FWlib/src/stm32f10x_spi.c ****     SPIx->CR1 &= SPI_Direction_Rx;
 746:../../source/src/FWlib/src/stm32f10x_spi.c ****   }
 747:../../source/src/FWlib/src/stm32f10x_spi.c **** }
 1467              		.loc 1 747 0
 1468 05b6 07E0     		b	.L66
 1469              	.L64:
 745:../../source/src/FWlib/src/stm32f10x_spi.c ****   }
 1470              		.loc 1 745 0
 1471 05b8 7B68     		ldr	r3, [r7, #4]
 1472 05ba 1B88     		ldrh	r3, [r3]	@ movhi
 1473 05bc 9BB2     		uxth	r3, r3
 1474 05be 23F48043 		bic	r3, r3, #16384
 1475 05c2 9AB2     		uxth	r2, r3
 1476 05c4 7B68     		ldr	r3, [r7, #4]
 1477 05c6 1A80     		strh	r2, [r3]	@ movhi
 1478              	.L66:
 1479              		.loc 1 747 0
 1480 05c8 00BF     		nop
 1481 05ca 0C37     		adds	r7, r7, #12
 1482              	.LCFI109:
 1483              		.cfi_def_cfa_offset 4
 1484 05cc BD46     		mov	sp, r7
 1485              	.LCFI110:
 1486              		.cfi_def_cfa_register 13
 1487              		@ sp needed
 1488 05ce 80BC     		pop	{r7}
 1489              	.LCFI111:
 1490              		.cfi_restore 7
 1491              		.cfi_def_cfa_offset 0
 1492 05d0 7047     		bx	lr
 1493              		.cfi_endproc
 1494              	.LFE47:
 1495              		.size	SPI_BiDirectionalLineConfig, .-SPI_BiDirectionalLineConfig
 1496              		.align	1
 1497              		.global	SPI_I2S_GetFlagStatus
 1498              		.syntax unified
 1499              		.thumb
 1500              		.thumb_func
 1501              		.fpu softvfp
 1502              		.type	SPI_I2S_GetFlagStatus, %function
 1503              	SPI_I2S_GetFlagStatus:
 1504              	.LFB48:
 748:../../source/src/FWlib/src/stm32f10x_spi.c **** 
 749:../../source/src/FWlib/src/stm32f10x_spi.c **** /**
 750:../../source/src/FWlib/src/stm32f10x_spi.c ****   * @brief  Checks whether the specified SPI/I2S flag is set or not.
 751:../../source/src/FWlib/src/stm32f10x_spi.c ****   * @param  SPIx: where x can be
 752:../../source/src/FWlib/src/stm32f10x_spi.c ****   *   - 1, 2 or 3 in SPI mode 
 753:../../source/src/FWlib/src/stm32f10x_spi.c ****   *   - 2 or 3 in I2S mode
 754:../../source/src/FWlib/src/stm32f10x_spi.c ****   * @param  SPI_I2S_FLAG: specifies the SPI/I2S flag to check. 
ARM GAS  G:\Users\Jaxb\AppData\Local\Temp\ccN59N5m.s 			page 41


 755:../../source/src/FWlib/src/stm32f10x_spi.c ****   *   This parameter can be one of the following values:
 756:../../source/src/FWlib/src/stm32f10x_spi.c ****   *     @arg SPI_I2S_FLAG_TXE: Transmit buffer empty flag.
 757:../../source/src/FWlib/src/stm32f10x_spi.c ****   *     @arg SPI_I2S_FLAG_RXNE: Receive buffer not empty flag.
 758:../../source/src/FWlib/src/stm32f10x_spi.c ****   *     @arg SPI_I2S_FLAG_BSY: Busy flag.
 759:../../source/src/FWlib/src/stm32f10x_spi.c ****   *     @arg SPI_I2S_FLAG_OVR: Overrun flag.
 760:../../source/src/FWlib/src/stm32f10x_spi.c ****   *     @arg SPI_FLAG_MODF: Mode Fault flag.
 761:../../source/src/FWlib/src/stm32f10x_spi.c ****   *     @arg SPI_FLAG_CRCERR: CRC Error flag.
 762:../../source/src/FWlib/src/stm32f10x_spi.c ****   *     @arg I2S_FLAG_UDR: Underrun Error flag.
 763:../../source/src/FWlib/src/stm32f10x_spi.c ****   *     @arg I2S_FLAG_CHSIDE: Channel Side flag.
 764:../../source/src/FWlib/src/stm32f10x_spi.c ****   * @retval The new state of SPI_I2S_FLAG (SET or RESET).
 765:../../source/src/FWlib/src/stm32f10x_spi.c ****   */
 766:../../source/src/FWlib/src/stm32f10x_spi.c **** FlagStatus SPI_I2S_GetFlagStatus(SPI_TypeDef* SPIx, uint16_t SPI_I2S_FLAG)
 767:../../source/src/FWlib/src/stm32f10x_spi.c **** {
 1505              		.loc 1 767 0
 1506              		.cfi_startproc
 1507              		@ args = 0, pretend = 0, frame = 16
 1508              		@ frame_needed = 1, uses_anonymous_args = 0
 1509              		@ link register save eliminated.
 1510 05d2 80B4     		push	{r7}
 1511              	.LCFI112:
 1512              		.cfi_def_cfa_offset 4
 1513              		.cfi_offset 7, -4
 1514 05d4 85B0     		sub	sp, sp, #20
 1515              	.LCFI113:
 1516              		.cfi_def_cfa_offset 24
 1517 05d6 00AF     		add	r7, sp, #0
 1518              	.LCFI114:
 1519              		.cfi_def_cfa_register 7
 1520 05d8 7860     		str	r0, [r7, #4]
 1521 05da 0B46     		mov	r3, r1
 1522 05dc 7B80     		strh	r3, [r7, #2]	@ movhi
 768:../../source/src/FWlib/src/stm32f10x_spi.c ****   FlagStatus bitstatus = RESET;
 1523              		.loc 1 768 0
 1524 05de 0023     		movs	r3, #0
 1525 05e0 FB73     		strb	r3, [r7, #15]
 769:../../source/src/FWlib/src/stm32f10x_spi.c ****   /* Check the parameters */
 770:../../source/src/FWlib/src/stm32f10x_spi.c ****   assert_param(IS_SPI_ALL_PERIPH(SPIx));
 771:../../source/src/FWlib/src/stm32f10x_spi.c ****   assert_param(IS_SPI_I2S_GET_FLAG(SPI_I2S_FLAG));
 772:../../source/src/FWlib/src/stm32f10x_spi.c ****   /* Check the status of the specified SPI/I2S flag */
 773:../../source/src/FWlib/src/stm32f10x_spi.c ****   if ((SPIx->SR & SPI_I2S_FLAG) != (uint16_t)RESET)
 1526              		.loc 1 773 0
 1527 05e2 7B68     		ldr	r3, [r7, #4]
 1528 05e4 1B89     		ldrh	r3, [r3, #8]	@ movhi
 1529 05e6 9AB2     		uxth	r2, r3
 1530 05e8 7B88     		ldrh	r3, [r7, #2]	@ movhi
 1531 05ea 1340     		ands	r3, r3, r2
 1532 05ec 9BB2     		uxth	r3, r3
 1533 05ee 002B     		cmp	r3, #0
 1534 05f0 02D0     		beq	.L68
 774:../../source/src/FWlib/src/stm32f10x_spi.c ****   {
 775:../../source/src/FWlib/src/stm32f10x_spi.c ****     /* SPI_I2S_FLAG is set */
 776:../../source/src/FWlib/src/stm32f10x_spi.c ****     bitstatus = SET;
 1535              		.loc 1 776 0
 1536 05f2 0123     		movs	r3, #1
 1537 05f4 FB73     		strb	r3, [r7, #15]
 1538 05f6 01E0     		b	.L69
 1539              	.L68:
ARM GAS  G:\Users\Jaxb\AppData\Local\Temp\ccN59N5m.s 			page 42


 777:../../source/src/FWlib/src/stm32f10x_spi.c ****   }
 778:../../source/src/FWlib/src/stm32f10x_spi.c ****   else
 779:../../source/src/FWlib/src/stm32f10x_spi.c ****   {
 780:../../source/src/FWlib/src/stm32f10x_spi.c ****     /* SPI_I2S_FLAG is reset */
 781:../../source/src/FWlib/src/stm32f10x_spi.c ****     bitstatus = RESET;
 1540              		.loc 1 781 0
 1541 05f8 0023     		movs	r3, #0
 1542 05fa FB73     		strb	r3, [r7, #15]
 1543              	.L69:
 782:../../source/src/FWlib/src/stm32f10x_spi.c ****   }
 783:../../source/src/FWlib/src/stm32f10x_spi.c ****   /* Return the SPI_I2S_FLAG status */
 784:../../source/src/FWlib/src/stm32f10x_spi.c ****   return  bitstatus;
 1544              		.loc 1 784 0
 1545 05fc FB7B     		ldrb	r3, [r7, #15]	@ zero_extendqisi2
 785:../../source/src/FWlib/src/stm32f10x_spi.c **** }
 1546              		.loc 1 785 0
 1547 05fe 1846     		mov	r0, r3
 1548 0600 1437     		adds	r7, r7, #20
 1549              	.LCFI115:
 1550              		.cfi_def_cfa_offset 4
 1551 0602 BD46     		mov	sp, r7
 1552              	.LCFI116:
 1553              		.cfi_def_cfa_register 13
 1554              		@ sp needed
 1555 0604 80BC     		pop	{r7}
 1556              	.LCFI117:
 1557              		.cfi_restore 7
 1558              		.cfi_def_cfa_offset 0
 1559 0606 7047     		bx	lr
 1560              		.cfi_endproc
 1561              	.LFE48:
 1562              		.size	SPI_I2S_GetFlagStatus, .-SPI_I2S_GetFlagStatus
 1563              		.align	1
 1564              		.global	SPI_I2S_ClearFlag
 1565              		.syntax unified
 1566              		.thumb
 1567              		.thumb_func
 1568              		.fpu softvfp
 1569              		.type	SPI_I2S_ClearFlag, %function
 1570              	SPI_I2S_ClearFlag:
 1571              	.LFB49:
 786:../../source/src/FWlib/src/stm32f10x_spi.c **** 
 787:../../source/src/FWlib/src/stm32f10x_spi.c **** /**
 788:../../source/src/FWlib/src/stm32f10x_spi.c ****   * @brief  Clears the SPIx CRC Error (CRCERR) flag.
 789:../../source/src/FWlib/src/stm32f10x_spi.c ****   * @param  SPIx: where x can be
 790:../../source/src/FWlib/src/stm32f10x_spi.c ****   *   - 1, 2 or 3 in SPI mode 
 791:../../source/src/FWlib/src/stm32f10x_spi.c ****   * @param  SPI_I2S_FLAG: specifies the SPI flag to clear. 
 792:../../source/src/FWlib/src/stm32f10x_spi.c ****   *   This function clears only CRCERR flag.
 793:../../source/src/FWlib/src/stm32f10x_spi.c ****   * @note
 794:../../source/src/FWlib/src/stm32f10x_spi.c ****   *   - OVR (OverRun error) flag is cleared by software sequence: a read 
 795:../../source/src/FWlib/src/stm32f10x_spi.c ****   *     operation to SPI_DR register (SPI_I2S_ReceiveData()) followed by a read 
 796:../../source/src/FWlib/src/stm32f10x_spi.c ****   *     operation to SPI_SR register (SPI_I2S_GetFlagStatus()).
 797:../../source/src/FWlib/src/stm32f10x_spi.c ****   *   - UDR (UnderRun error) flag is cleared by a read operation to 
 798:../../source/src/FWlib/src/stm32f10x_spi.c ****   *     SPI_SR register (SPI_I2S_GetFlagStatus()).
 799:../../source/src/FWlib/src/stm32f10x_spi.c ****   *   - MODF (Mode Fault) flag is cleared by software sequence: a read/write 
 800:../../source/src/FWlib/src/stm32f10x_spi.c ****   *     operation to SPI_SR register (SPI_I2S_GetFlagStatus()) followed by a 
 801:../../source/src/FWlib/src/stm32f10x_spi.c ****   *     write operation to SPI_CR1 register (SPI_Cmd() to enable the SPI).
ARM GAS  G:\Users\Jaxb\AppData\Local\Temp\ccN59N5m.s 			page 43


 802:../../source/src/FWlib/src/stm32f10x_spi.c ****   * @retval None
 803:../../source/src/FWlib/src/stm32f10x_spi.c ****   */
 804:../../source/src/FWlib/src/stm32f10x_spi.c **** void SPI_I2S_ClearFlag(SPI_TypeDef* SPIx, uint16_t SPI_I2S_FLAG)
 805:../../source/src/FWlib/src/stm32f10x_spi.c **** {
 1572              		.loc 1 805 0
 1573              		.cfi_startproc
 1574              		@ args = 0, pretend = 0, frame = 8
 1575              		@ frame_needed = 1, uses_anonymous_args = 0
 1576              		@ link register save eliminated.
 1577 0608 80B4     		push	{r7}
 1578              	.LCFI118:
 1579              		.cfi_def_cfa_offset 4
 1580              		.cfi_offset 7, -4
 1581 060a 83B0     		sub	sp, sp, #12
 1582              	.LCFI119:
 1583              		.cfi_def_cfa_offset 16
 1584 060c 00AF     		add	r7, sp, #0
 1585              	.LCFI120:
 1586              		.cfi_def_cfa_register 7
 1587 060e 7860     		str	r0, [r7, #4]
 1588 0610 0B46     		mov	r3, r1
 1589 0612 7B80     		strh	r3, [r7, #2]	@ movhi
 806:../../source/src/FWlib/src/stm32f10x_spi.c ****   /* Check the parameters */
 807:../../source/src/FWlib/src/stm32f10x_spi.c ****   assert_param(IS_SPI_ALL_PERIPH(SPIx));
 808:../../source/src/FWlib/src/stm32f10x_spi.c ****   assert_param(IS_SPI_I2S_CLEAR_FLAG(SPI_I2S_FLAG));
 809:../../source/src/FWlib/src/stm32f10x_spi.c ****     
 810:../../source/src/FWlib/src/stm32f10x_spi.c ****     /* Clear the selected SPI CRC Error (CRCERR) flag */
 811:../../source/src/FWlib/src/stm32f10x_spi.c ****     SPIx->SR = (uint16_t)~SPI_I2S_FLAG;
 1590              		.loc 1 811 0
 1591 0614 7B88     		ldrh	r3, [r7, #2]	@ movhi
 1592 0616 DB43     		mvns	r3, r3
 1593 0618 9AB2     		uxth	r2, r3
 1594 061a 7B68     		ldr	r3, [r7, #4]
 1595 061c 1A81     		strh	r2, [r3, #8]	@ movhi
 812:../../source/src/FWlib/src/stm32f10x_spi.c **** }
 1596              		.loc 1 812 0
 1597 061e 00BF     		nop
 1598 0620 0C37     		adds	r7, r7, #12
 1599              	.LCFI121:
 1600              		.cfi_def_cfa_offset 4
 1601 0622 BD46     		mov	sp, r7
 1602              	.LCFI122:
 1603              		.cfi_def_cfa_register 13
 1604              		@ sp needed
 1605 0624 80BC     		pop	{r7}
 1606              	.LCFI123:
 1607              		.cfi_restore 7
 1608              		.cfi_def_cfa_offset 0
 1609 0626 7047     		bx	lr
 1610              		.cfi_endproc
 1611              	.LFE49:
 1612              		.size	SPI_I2S_ClearFlag, .-SPI_I2S_ClearFlag
 1613              		.align	1
 1614              		.global	SPI_I2S_GetITStatus
 1615              		.syntax unified
 1616              		.thumb
 1617              		.thumb_func
ARM GAS  G:\Users\Jaxb\AppData\Local\Temp\ccN59N5m.s 			page 44


 1618              		.fpu softvfp
 1619              		.type	SPI_I2S_GetITStatus, %function
 1620              	SPI_I2S_GetITStatus:
 1621              	.LFB50:
 813:../../source/src/FWlib/src/stm32f10x_spi.c **** 
 814:../../source/src/FWlib/src/stm32f10x_spi.c **** /**
 815:../../source/src/FWlib/src/stm32f10x_spi.c ****   * @brief  Checks whether the specified SPI/I2S interrupt has occurred or not.
 816:../../source/src/FWlib/src/stm32f10x_spi.c ****   * @param  SPIx: where x can be
 817:../../source/src/FWlib/src/stm32f10x_spi.c ****   *   - 1, 2 or 3 in SPI mode 
 818:../../source/src/FWlib/src/stm32f10x_spi.c ****   *   - 2 or 3 in I2S mode
 819:../../source/src/FWlib/src/stm32f10x_spi.c ****   * @param  SPI_I2S_IT: specifies the SPI/I2S interrupt source to check. 
 820:../../source/src/FWlib/src/stm32f10x_spi.c ****   *   This parameter can be one of the following values:
 821:../../source/src/FWlib/src/stm32f10x_spi.c ****   *     @arg SPI_I2S_IT_TXE: Transmit buffer empty interrupt.
 822:../../source/src/FWlib/src/stm32f10x_spi.c ****   *     @arg SPI_I2S_IT_RXNE: Receive buffer not empty interrupt.
 823:../../source/src/FWlib/src/stm32f10x_spi.c ****   *     @arg SPI_I2S_IT_OVR: Overrun interrupt.
 824:../../source/src/FWlib/src/stm32f10x_spi.c ****   *     @arg SPI_IT_MODF: Mode Fault interrupt.
 825:../../source/src/FWlib/src/stm32f10x_spi.c ****   *     @arg SPI_IT_CRCERR: CRC Error interrupt.
 826:../../source/src/FWlib/src/stm32f10x_spi.c ****   *     @arg I2S_IT_UDR: Underrun Error interrupt.
 827:../../source/src/FWlib/src/stm32f10x_spi.c ****   * @retval The new state of SPI_I2S_IT (SET or RESET).
 828:../../source/src/FWlib/src/stm32f10x_spi.c ****   */
 829:../../source/src/FWlib/src/stm32f10x_spi.c **** ITStatus SPI_I2S_GetITStatus(SPI_TypeDef* SPIx, uint8_t SPI_I2S_IT)
 830:../../source/src/FWlib/src/stm32f10x_spi.c **** {
 1622              		.loc 1 830 0
 1623              		.cfi_startproc
 1624              		@ args = 0, pretend = 0, frame = 16
 1625              		@ frame_needed = 1, uses_anonymous_args = 0
 1626              		@ link register save eliminated.
 1627 0628 80B4     		push	{r7}
 1628              	.LCFI124:
 1629              		.cfi_def_cfa_offset 4
 1630              		.cfi_offset 7, -4
 1631 062a 85B0     		sub	sp, sp, #20
 1632              	.LCFI125:
 1633              		.cfi_def_cfa_offset 24
 1634 062c 00AF     		add	r7, sp, #0
 1635              	.LCFI126:
 1636              		.cfi_def_cfa_register 7
 1637 062e 7860     		str	r0, [r7, #4]
 1638 0630 0B46     		mov	r3, r1
 1639 0632 FB70     		strb	r3, [r7, #3]
 831:../../source/src/FWlib/src/stm32f10x_spi.c ****   ITStatus bitstatus = RESET;
 1640              		.loc 1 831 0
 1641 0634 0023     		movs	r3, #0
 1642 0636 FB73     		strb	r3, [r7, #15]
 832:../../source/src/FWlib/src/stm32f10x_spi.c ****   uint16_t itpos = 0, itmask = 0, enablestatus = 0;
 1643              		.loc 1 832 0
 1644 0638 0023     		movs	r3, #0
 1645 063a BB81     		strh	r3, [r7, #12]	@ movhi
 1646 063c 0023     		movs	r3, #0
 1647 063e 7B81     		strh	r3, [r7, #10]	@ movhi
 1648 0640 0023     		movs	r3, #0
 1649 0642 3B81     		strh	r3, [r7, #8]	@ movhi
 833:../../source/src/FWlib/src/stm32f10x_spi.c **** 
 834:../../source/src/FWlib/src/stm32f10x_spi.c ****   /* Check the parameters */
 835:../../source/src/FWlib/src/stm32f10x_spi.c ****   assert_param(IS_SPI_ALL_PERIPH(SPIx));
 836:../../source/src/FWlib/src/stm32f10x_spi.c ****   assert_param(IS_SPI_I2S_GET_IT(SPI_I2S_IT));
 837:../../source/src/FWlib/src/stm32f10x_spi.c **** 
ARM GAS  G:\Users\Jaxb\AppData\Local\Temp\ccN59N5m.s 			page 45


 838:../../source/src/FWlib/src/stm32f10x_spi.c ****   /* Get the SPI/I2S IT index */
 839:../../source/src/FWlib/src/stm32f10x_spi.c ****   itpos = 0x01 << (SPI_I2S_IT & 0x0F);
 1650              		.loc 1 839 0
 1651 0644 FB78     		ldrb	r3, [r7, #3]	@ zero_extendqisi2
 1652 0646 03F00F03 		and	r3, r3, #15
 1653 064a 0122     		movs	r2, #1
 1654 064c 02FA03F3 		lsl	r3, r2, r3
 1655 0650 BB81     		strh	r3, [r7, #12]	@ movhi
 840:../../source/src/FWlib/src/stm32f10x_spi.c **** 
 841:../../source/src/FWlib/src/stm32f10x_spi.c ****   /* Get the SPI/I2S IT mask */
 842:../../source/src/FWlib/src/stm32f10x_spi.c ****   itmask = SPI_I2S_IT >> 4;
 1656              		.loc 1 842 0
 1657 0652 FB78     		ldrb	r3, [r7, #3]	@ zero_extendqisi2
 1658 0654 1B09     		lsrs	r3, r3, #4
 1659 0656 DBB2     		uxtb	r3, r3
 1660 0658 7B81     		strh	r3, [r7, #10]	@ movhi
 843:../../source/src/FWlib/src/stm32f10x_spi.c **** 
 844:../../source/src/FWlib/src/stm32f10x_spi.c ****   /* Set the IT mask */
 845:../../source/src/FWlib/src/stm32f10x_spi.c ****   itmask = 0x01 << itmask;
 1661              		.loc 1 845 0
 1662 065a 7B89     		ldrh	r3, [r7, #10]
 1663 065c 0122     		movs	r2, #1
 1664 065e 02FA03F3 		lsl	r3, r2, r3
 1665 0662 7B81     		strh	r3, [r7, #10]	@ movhi
 846:../../source/src/FWlib/src/stm32f10x_spi.c **** 
 847:../../source/src/FWlib/src/stm32f10x_spi.c ****   /* Get the SPI_I2S_IT enable bit status */
 848:../../source/src/FWlib/src/stm32f10x_spi.c ****   enablestatus = (SPIx->CR2 & itmask) ;
 1666              		.loc 1 848 0
 1667 0664 7B68     		ldr	r3, [r7, #4]
 1668 0666 9B88     		ldrh	r3, [r3, #4]	@ movhi
 1669 0668 9AB2     		uxth	r2, r3
 1670 066a 7B89     		ldrh	r3, [r7, #10]	@ movhi
 1671 066c 1340     		ands	r3, r3, r2
 1672 066e 3B81     		strh	r3, [r7, #8]	@ movhi
 849:../../source/src/FWlib/src/stm32f10x_spi.c **** 
 850:../../source/src/FWlib/src/stm32f10x_spi.c ****   /* Check the status of the specified SPI/I2S interrupt */
 851:../../source/src/FWlib/src/stm32f10x_spi.c ****   if (((SPIx->SR & itpos) != (uint16_t)RESET) && enablestatus)
 1673              		.loc 1 851 0
 1674 0670 7B68     		ldr	r3, [r7, #4]
 1675 0672 1B89     		ldrh	r3, [r3, #8]	@ movhi
 1676 0674 9AB2     		uxth	r2, r3
 1677 0676 BB89     		ldrh	r3, [r7, #12]	@ movhi
 1678 0678 1340     		ands	r3, r3, r2
 1679 067a 9BB2     		uxth	r3, r3
 1680 067c 002B     		cmp	r3, #0
 1681 067e 05D0     		beq	.L73
 1682              		.loc 1 851 0 is_stmt 0 discriminator 1
 1683 0680 3B89     		ldrh	r3, [r7, #8]
 1684 0682 002B     		cmp	r3, #0
 1685 0684 02D0     		beq	.L73
 852:../../source/src/FWlib/src/stm32f10x_spi.c ****   {
 853:../../source/src/FWlib/src/stm32f10x_spi.c ****     /* SPI_I2S_IT is set */
 854:../../source/src/FWlib/src/stm32f10x_spi.c ****     bitstatus = SET;
 1686              		.loc 1 854 0 is_stmt 1
 1687 0686 0123     		movs	r3, #1
 1688 0688 FB73     		strb	r3, [r7, #15]
 1689 068a 01E0     		b	.L74
ARM GAS  G:\Users\Jaxb\AppData\Local\Temp\ccN59N5m.s 			page 46


 1690              	.L73:
 855:../../source/src/FWlib/src/stm32f10x_spi.c ****   }
 856:../../source/src/FWlib/src/stm32f10x_spi.c ****   else
 857:../../source/src/FWlib/src/stm32f10x_spi.c ****   {
 858:../../source/src/FWlib/src/stm32f10x_spi.c ****     /* SPI_I2S_IT is reset */
 859:../../source/src/FWlib/src/stm32f10x_spi.c ****     bitstatus = RESET;
 1691              		.loc 1 859 0
 1692 068c 0023     		movs	r3, #0
 1693 068e FB73     		strb	r3, [r7, #15]
 1694              	.L74:
 860:../../source/src/FWlib/src/stm32f10x_spi.c ****   }
 861:../../source/src/FWlib/src/stm32f10x_spi.c ****   /* Return the SPI_I2S_IT status */
 862:../../source/src/FWlib/src/stm32f10x_spi.c ****   return bitstatus;
 1695              		.loc 1 862 0
 1696 0690 FB7B     		ldrb	r3, [r7, #15]	@ zero_extendqisi2
 863:../../source/src/FWlib/src/stm32f10x_spi.c **** }
 1697              		.loc 1 863 0
 1698 0692 1846     		mov	r0, r3
 1699 0694 1437     		adds	r7, r7, #20
 1700              	.LCFI127:
 1701              		.cfi_def_cfa_offset 4
 1702 0696 BD46     		mov	sp, r7
 1703              	.LCFI128:
 1704              		.cfi_def_cfa_register 13
 1705              		@ sp needed
 1706 0698 80BC     		pop	{r7}
 1707              	.LCFI129:
 1708              		.cfi_restore 7
 1709              		.cfi_def_cfa_offset 0
 1710 069a 7047     		bx	lr
 1711              		.cfi_endproc
 1712              	.LFE50:
 1713              		.size	SPI_I2S_GetITStatus, .-SPI_I2S_GetITStatus
 1714              		.align	1
 1715              		.global	SPI_I2S_ClearITPendingBit
 1716              		.syntax unified
 1717              		.thumb
 1718              		.thumb_func
 1719              		.fpu softvfp
 1720              		.type	SPI_I2S_ClearITPendingBit, %function
 1721              	SPI_I2S_ClearITPendingBit:
 1722              	.LFB51:
 864:../../source/src/FWlib/src/stm32f10x_spi.c **** 
 865:../../source/src/FWlib/src/stm32f10x_spi.c **** /**
 866:../../source/src/FWlib/src/stm32f10x_spi.c ****   * @brief  Clears the SPIx CRC Error (CRCERR) interrupt pending bit.
 867:../../source/src/FWlib/src/stm32f10x_spi.c ****   * @param  SPIx: where x can be
 868:../../source/src/FWlib/src/stm32f10x_spi.c ****   *   - 1, 2 or 3 in SPI mode 
 869:../../source/src/FWlib/src/stm32f10x_spi.c ****   * @param  SPI_I2S_IT: specifies the SPI interrupt pending bit to clear.
 870:../../source/src/FWlib/src/stm32f10x_spi.c ****   *   This function clears only CRCERR interrupt pending bit.   
 871:../../source/src/FWlib/src/stm32f10x_spi.c ****   * @note
 872:../../source/src/FWlib/src/stm32f10x_spi.c ****   *   - OVR (OverRun Error) interrupt pending bit is cleared by software 
 873:../../source/src/FWlib/src/stm32f10x_spi.c ****   *     sequence: a read operation to SPI_DR register (SPI_I2S_ReceiveData()) 
 874:../../source/src/FWlib/src/stm32f10x_spi.c ****   *     followed by a read operation to SPI_SR register (SPI_I2S_GetITStatus()).
 875:../../source/src/FWlib/src/stm32f10x_spi.c ****   *   - UDR (UnderRun Error) interrupt pending bit is cleared by a read 
 876:../../source/src/FWlib/src/stm32f10x_spi.c ****   *     operation to SPI_SR register (SPI_I2S_GetITStatus()).
 877:../../source/src/FWlib/src/stm32f10x_spi.c ****   *   - MODF (Mode Fault) interrupt pending bit is cleared by software sequence:
 878:../../source/src/FWlib/src/stm32f10x_spi.c ****   *     a read/write operation to SPI_SR register (SPI_I2S_GetITStatus()) 
ARM GAS  G:\Users\Jaxb\AppData\Local\Temp\ccN59N5m.s 			page 47


 879:../../source/src/FWlib/src/stm32f10x_spi.c ****   *     followed by a write operation to SPI_CR1 register (SPI_Cmd() to enable 
 880:../../source/src/FWlib/src/stm32f10x_spi.c ****   *     the SPI).
 881:../../source/src/FWlib/src/stm32f10x_spi.c ****   * @retval None
 882:../../source/src/FWlib/src/stm32f10x_spi.c ****   */
 883:../../source/src/FWlib/src/stm32f10x_spi.c **** void SPI_I2S_ClearITPendingBit(SPI_TypeDef* SPIx, uint8_t SPI_I2S_IT)
 884:../../source/src/FWlib/src/stm32f10x_spi.c **** {
 1723              		.loc 1 884 0
 1724              		.cfi_startproc
 1725              		@ args = 0, pretend = 0, frame = 16
 1726              		@ frame_needed = 1, uses_anonymous_args = 0
 1727              		@ link register save eliminated.
 1728 069c 80B4     		push	{r7}
 1729              	.LCFI130:
 1730              		.cfi_def_cfa_offset 4
 1731              		.cfi_offset 7, -4
 1732 069e 85B0     		sub	sp, sp, #20
 1733              	.LCFI131:
 1734              		.cfi_def_cfa_offset 24
 1735 06a0 00AF     		add	r7, sp, #0
 1736              	.LCFI132:
 1737              		.cfi_def_cfa_register 7
 1738 06a2 7860     		str	r0, [r7, #4]
 1739 06a4 0B46     		mov	r3, r1
 1740 06a6 FB70     		strb	r3, [r7, #3]
 885:../../source/src/FWlib/src/stm32f10x_spi.c ****   uint16_t itpos = 0;
 1741              		.loc 1 885 0
 1742 06a8 0023     		movs	r3, #0
 1743 06aa FB81     		strh	r3, [r7, #14]	@ movhi
 886:../../source/src/FWlib/src/stm32f10x_spi.c ****   /* Check the parameters */
 887:../../source/src/FWlib/src/stm32f10x_spi.c ****   assert_param(IS_SPI_ALL_PERIPH(SPIx));
 888:../../source/src/FWlib/src/stm32f10x_spi.c ****   assert_param(IS_SPI_I2S_CLEAR_IT(SPI_I2S_IT));
 889:../../source/src/FWlib/src/stm32f10x_spi.c **** 
 890:../../source/src/FWlib/src/stm32f10x_spi.c ****   /* Get the SPI IT index */
 891:../../source/src/FWlib/src/stm32f10x_spi.c ****   itpos = 0x01 << (SPI_I2S_IT & 0x0F);
 1744              		.loc 1 891 0
 1745 06ac FB78     		ldrb	r3, [r7, #3]	@ zero_extendqisi2
 1746 06ae 03F00F03 		and	r3, r3, #15
 1747 06b2 0122     		movs	r2, #1
 1748 06b4 02FA03F3 		lsl	r3, r2, r3
 1749 06b8 FB81     		strh	r3, [r7, #14]	@ movhi
 892:../../source/src/FWlib/src/stm32f10x_spi.c **** 
 893:../../source/src/FWlib/src/stm32f10x_spi.c ****   /* Clear the selected SPI CRC Error (CRCERR) interrupt pending bit */
 894:../../source/src/FWlib/src/stm32f10x_spi.c ****   SPIx->SR = (uint16_t)~itpos;
 1750              		.loc 1 894 0
 1751 06ba FB89     		ldrh	r3, [r7, #14]	@ movhi
 1752 06bc DB43     		mvns	r3, r3
 1753 06be 9AB2     		uxth	r2, r3
 1754 06c0 7B68     		ldr	r3, [r7, #4]
 1755 06c2 1A81     		strh	r2, [r3, #8]	@ movhi
 895:../../source/src/FWlib/src/stm32f10x_spi.c **** }
 1756              		.loc 1 895 0
 1757 06c4 00BF     		nop
 1758 06c6 1437     		adds	r7, r7, #20
 1759              	.LCFI133:
 1760              		.cfi_def_cfa_offset 4
 1761 06c8 BD46     		mov	sp, r7
 1762              	.LCFI134:
ARM GAS  G:\Users\Jaxb\AppData\Local\Temp\ccN59N5m.s 			page 48


 1763              		.cfi_def_cfa_register 13
 1764              		@ sp needed
 1765 06ca 80BC     		pop	{r7}
 1766              	.LCFI135:
 1767              		.cfi_restore 7
 1768              		.cfi_def_cfa_offset 0
 1769 06cc 7047     		bx	lr
 1770              		.cfi_endproc
 1771              	.LFE51:
 1772              		.size	SPI_I2S_ClearITPendingBit, .-SPI_I2S_ClearITPendingBit
 1773              	.Letext0:
 1774              		.file 2 "f:\\arm\\gcc2018\\arm-none-eabi\\include\\machine\\_default_types.h"
 1775              		.file 3 "f:\\arm\\gcc2018\\arm-none-eabi\\include\\sys\\_stdint.h"
 1776              		.file 4 "../../source/include/os_cpu/core_cm3.h"
 1777              		.file 5 "../../source/include/os_cpu/system_stm32f10x.h"
 1778              		.file 6 "../../source/include/os_cpu/stm32f10x.h"
 1779              		.file 7 "../../source/src/FWlib/inc/stm32f10x_rcc.h"
 1780              		.file 8 "../../source/src/FWlib/inc/stm32f10x_spi.h"
 1781 06ce 00BF     		.section	.debug_info,"",%progbits
 1782              	.Ldebug_info0:
 1783 0000 AA090000 		.4byte	0x9aa
 1784 0004 0200     		.2byte	0x2
 1785 0006 00000000 		.4byte	.Ldebug_abbrev0
 1786 000a 04       		.byte	0x4
 1787 000b 01       		.uleb128 0x1
 1788 000c 0C050000 		.4byte	.LASF104
 1789 0010 0C       		.byte	0xc
 1790 0011 7D040000 		.4byte	.LASF105
 1791 0015 AE010000 		.4byte	.LASF106
 1792 0019 00000000 		.4byte	.Ltext0
 1793 001d CE060000 		.4byte	.Letext0
 1794 0021 00000000 		.4byte	.Ldebug_line0
 1795 0025 02       		.uleb128 0x2
 1796 0026 01       		.byte	0x1
 1797 0027 06       		.byte	0x6
 1798 0028 BA020000 		.4byte	.LASF0
 1799 002c 03       		.uleb128 0x3
 1800 002d 38020000 		.4byte	.LASF3
 1801 0031 02       		.byte	0x2
 1802 0032 2B       		.byte	0x2b
 1803 0033 37000000 		.4byte	0x37
 1804 0037 02       		.uleb128 0x2
 1805 0038 01       		.byte	0x1
 1806 0039 08       		.byte	0x8
 1807 003a 8E020000 		.4byte	.LASF1
 1808 003e 02       		.uleb128 0x2
 1809 003f 02       		.byte	0x2
 1810 0040 05       		.byte	0x5
 1811 0041 11010000 		.4byte	.LASF2
 1812 0045 03       		.uleb128 0x3
 1813 0046 DE000000 		.4byte	.LASF4
 1814 004a 02       		.byte	0x2
 1815 004b 39       		.byte	0x39
 1816 004c 50000000 		.4byte	0x50
 1817 0050 02       		.uleb128 0x2
 1818 0051 02       		.byte	0x2
 1819 0052 07       		.byte	0x7
ARM GAS  G:\Users\Jaxb\AppData\Local\Temp\ccN59N5m.s 			page 49


 1820 0053 48030000 		.4byte	.LASF5
 1821 0057 02       		.uleb128 0x2
 1822 0058 04       		.byte	0x4
 1823 0059 05       		.byte	0x5
 1824 005a 6A030000 		.4byte	.LASF6
 1825 005e 03       		.uleb128 0x3
 1826 005f BA000000 		.4byte	.LASF7
 1827 0063 02       		.byte	0x2
 1828 0064 4F       		.byte	0x4f
 1829 0065 69000000 		.4byte	0x69
 1830 0069 02       		.uleb128 0x2
 1831 006a 04       		.byte	0x4
 1832 006b 07       		.byte	0x7
 1833 006c 36030000 		.4byte	.LASF8
 1834 0070 02       		.uleb128 0x2
 1835 0071 08       		.byte	0x8
 1836 0072 05       		.byte	0x5
 1837 0073 AC000000 		.4byte	.LASF9
 1838 0077 02       		.uleb128 0x2
 1839 0078 08       		.byte	0x8
 1840 0079 07       		.byte	0x7
 1841 007a E4020000 		.4byte	.LASF10
 1842 007e 04       		.uleb128 0x4
 1843 007f 04       		.byte	0x4
 1844 0080 05       		.byte	0x5
 1845 0081 696E7400 		.ascii	"int\000"
 1846 0085 05       		.uleb128 0x5
 1847 0086 7E000000 		.4byte	0x7e
 1848 008a 02       		.uleb128 0x2
 1849 008b 04       		.byte	0x4
 1850 008c 07       		.byte	0x7
 1851 008d 0C030000 		.4byte	.LASF11
 1852 0091 03       		.uleb128 0x3
 1853 0092 42010000 		.4byte	.LASF12
 1854 0096 03       		.byte	0x3
 1855 0097 18       		.byte	0x18
 1856 0098 2C000000 		.4byte	0x2c
 1857 009c 03       		.uleb128 0x3
 1858 009d 19030000 		.4byte	.LASF13
 1859 00a1 03       		.byte	0x3
 1860 00a2 24       		.byte	0x24
 1861 00a3 45000000 		.4byte	0x45
 1862 00a7 05       		.uleb128 0x5
 1863 00a8 9C000000 		.4byte	0x9c
 1864 00ac 03       		.uleb128 0x3
 1865 00ad FB020000 		.4byte	.LASF14
 1866 00b1 03       		.byte	0x3
 1867 00b2 30       		.byte	0x30
 1868 00b3 5E000000 		.4byte	0x5e
 1869 00b7 06       		.uleb128 0x6
 1870 00b8 D9050000 		.4byte	.LASF15
 1871 00bc 04       		.byte	0x4
 1872 00bd CE06     		.2byte	0x6ce
 1873 00bf 85000000 		.4byte	0x85
 1874 00c3 01       		.byte	0x1
 1875 00c4 01       		.byte	0x1
 1876 00c5 07       		.uleb128 0x7
ARM GAS  G:\Users\Jaxb\AppData\Local\Temp\ccN59N5m.s 			page 50


 1877 00c6 B6030000 		.4byte	.LASF16
 1878 00ca 05       		.byte	0x5
 1879 00cb 35       		.byte	0x35
 1880 00cc AC000000 		.4byte	0xac
 1881 00d0 01       		.byte	0x1
 1882 00d1 01       		.byte	0x1
 1883 00d2 08       		.uleb128 0x8
 1884 00d3 07       		.byte	0x7
 1885 00d4 01       		.byte	0x1
 1886 00d5 37000000 		.4byte	0x37
 1887 00d9 06       		.byte	0x6
 1888 00da 0702     		.2byte	0x207
 1889 00dc ED000000 		.4byte	0xed
 1890 00e0 09       		.uleb128 0x9
 1891 00e1 D2040000 		.4byte	.LASF17
 1892 00e5 00       		.byte	0
 1893 00e6 0A       		.uleb128 0xa
 1894 00e7 53455400 		.ascii	"SET\000"
 1895 00eb 01       		.byte	0x1
 1896 00ec 00       		.byte	0
 1897 00ed 0B       		.uleb128 0xb
 1898 00ee 2D020000 		.4byte	.LASF18
 1899 00f2 06       		.byte	0x6
 1900 00f3 0702     		.2byte	0x207
 1901 00f5 D2000000 		.4byte	0xd2
 1902 00f9 0B       		.uleb128 0xb
 1903 00fa 26000000 		.4byte	.LASF19
 1904 00fe 06       		.byte	0x6
 1905 00ff 0702     		.2byte	0x207
 1906 0101 D2000000 		.4byte	0xd2
 1907 0105 08       		.uleb128 0x8
 1908 0106 07       		.byte	0x7
 1909 0107 01       		.byte	0x1
 1910 0108 37000000 		.4byte	0x37
 1911 010c 06       		.byte	0x6
 1912 010d 0902     		.2byte	0x209
 1913 010f 20010000 		.4byte	0x120
 1914 0113 09       		.uleb128 0x9
 1915 0114 80010000 		.4byte	.LASF20
 1916 0118 00       		.byte	0
 1917 0119 09       		.uleb128 0x9
 1918 011a 16060000 		.4byte	.LASF21
 1919 011e 01       		.byte	0x1
 1920 011f 00       		.byte	0
 1921 0120 0B       		.uleb128 0xb
 1922 0121 6D040000 		.4byte	.LASF22
 1923 0125 06       		.byte	0x6
 1924 0126 0902     		.2byte	0x209
 1925 0128 05010000 		.4byte	0x105
 1926 012c 0C       		.uleb128 0xc
 1927 012d 24       		.byte	0x24
 1928 012e 06       		.byte	0x6
 1929 012f 8804     		.2byte	0x488
 1930 0131 42020000 		.4byte	0x242
 1931 0135 0D       		.uleb128 0xd
 1932 0136 43523100 		.ascii	"CR1\000"
 1933 013a 06       		.byte	0x6
ARM GAS  G:\Users\Jaxb\AppData\Local\Temp\ccN59N5m.s 			page 51


 1934 013b 8A04     		.2byte	0x48a
 1935 013d A7000000 		.4byte	0xa7
 1936 0141 02       		.byte	0x2
 1937 0142 23       		.byte	0x23
 1938 0143 00       		.uleb128 0
 1939 0144 0E       		.uleb128 0xe
 1940 0145 10040000 		.4byte	.LASF23
 1941 0149 06       		.byte	0x6
 1942 014a 8B04     		.2byte	0x48b
 1943 014c 9C000000 		.4byte	0x9c
 1944 0150 02       		.byte	0x2
 1945 0151 23       		.byte	0x23
 1946 0152 02       		.uleb128 0x2
 1947 0153 0D       		.uleb128 0xd
 1948 0154 43523200 		.ascii	"CR2\000"
 1949 0158 06       		.byte	0x6
 1950 0159 8C04     		.2byte	0x48c
 1951 015b A7000000 		.4byte	0xa7
 1952 015f 02       		.byte	0x2
 1953 0160 23       		.byte	0x23
 1954 0161 04       		.uleb128 0x4
 1955 0162 0E       		.uleb128 0xe
 1956 0163 1A040000 		.4byte	.LASF24
 1957 0167 06       		.byte	0x6
 1958 0168 8D04     		.2byte	0x48d
 1959 016a 9C000000 		.4byte	0x9c
 1960 016e 02       		.byte	0x2
 1961 016f 23       		.byte	0x23
 1962 0170 06       		.uleb128 0x6
 1963 0171 0D       		.uleb128 0xd
 1964 0172 535200   		.ascii	"SR\000"
 1965 0175 06       		.byte	0x6
 1966 0176 8E04     		.2byte	0x48e
 1967 0178 A7000000 		.4byte	0xa7
 1968 017c 02       		.byte	0x2
 1969 017d 23       		.byte	0x23
 1970 017e 08       		.uleb128 0x8
 1971 017f 0E       		.uleb128 0xe
 1972 0180 24040000 		.4byte	.LASF25
 1973 0184 06       		.byte	0x6
 1974 0185 8F04     		.2byte	0x48f
 1975 0187 9C000000 		.4byte	0x9c
 1976 018b 02       		.byte	0x2
 1977 018c 23       		.byte	0x23
 1978 018d 0A       		.uleb128 0xa
 1979 018e 0D       		.uleb128 0xd
 1980 018f 445200   		.ascii	"DR\000"
 1981 0192 06       		.byte	0x6
 1982 0193 9004     		.2byte	0x490
 1983 0195 A7000000 		.4byte	0xa7
 1984 0199 02       		.byte	0x2
 1985 019a 23       		.byte	0x23
 1986 019b 0C       		.uleb128 0xc
 1987 019c 0E       		.uleb128 0xe
 1988 019d 38010000 		.4byte	.LASF26
 1989 01a1 06       		.byte	0x6
 1990 01a2 9104     		.2byte	0x491
ARM GAS  G:\Users\Jaxb\AppData\Local\Temp\ccN59N5m.s 			page 52


 1991 01a4 9C000000 		.4byte	0x9c
 1992 01a8 02       		.byte	0x2
 1993 01a9 23       		.byte	0x23
 1994 01aa 0E       		.uleb128 0xe
 1995 01ab 0E       		.uleb128 0xe
 1996 01ac 5B030000 		.4byte	.LASF27
 1997 01b0 06       		.byte	0x6
 1998 01b1 9204     		.2byte	0x492
 1999 01b3 A7000000 		.4byte	0xa7
 2000 01b7 02       		.byte	0x2
 2001 01b8 23       		.byte	0x23
 2002 01b9 10       		.uleb128 0x10
 2003 01ba 0E       		.uleb128 0xe
 2004 01bb 36040000 		.4byte	.LASF28
 2005 01bf 06       		.byte	0x6
 2006 01c0 9304     		.2byte	0x493
 2007 01c2 9C000000 		.4byte	0x9c
 2008 01c6 02       		.byte	0x2
 2009 01c7 23       		.byte	0x23
 2010 01c8 12       		.uleb128 0x12
 2011 01c9 0E       		.uleb128 0xe
 2012 01ca 31010000 		.4byte	.LASF29
 2013 01ce 06       		.byte	0x6
 2014 01cf 9404     		.2byte	0x494
 2015 01d1 A7000000 		.4byte	0xa7
 2016 01d5 02       		.byte	0x2
 2017 01d6 23       		.byte	0x23
 2018 01d7 14       		.uleb128 0x14
 2019 01d8 0E       		.uleb128 0xe
 2020 01d9 40040000 		.4byte	.LASF30
 2021 01dd 06       		.byte	0x6
 2022 01de 9504     		.2byte	0x495
 2023 01e0 9C000000 		.4byte	0x9c
 2024 01e4 02       		.byte	0x2
 2025 01e5 23       		.byte	0x23
 2026 01e6 16       		.uleb128 0x16
 2027 01e7 0E       		.uleb128 0xe
 2028 01e8 0A010000 		.4byte	.LASF31
 2029 01ec 06       		.byte	0x6
 2030 01ed 9604     		.2byte	0x496
 2031 01ef A7000000 		.4byte	0xa7
 2032 01f3 02       		.byte	0x2
 2033 01f4 23       		.byte	0x23
 2034 01f5 18       		.uleb128 0x18
 2035 01f6 0E       		.uleb128 0xe
 2036 01f7 4A040000 		.4byte	.LASF32
 2037 01fb 06       		.byte	0x6
 2038 01fc 9704     		.2byte	0x497
 2039 01fe 9C000000 		.4byte	0x9c
 2040 0202 02       		.byte	0x2
 2041 0203 23       		.byte	0x23
 2042 0204 1A       		.uleb128 0x1a
 2043 0205 0E       		.uleb128 0xe
 2044 0206 04030000 		.4byte	.LASF33
 2045 020a 06       		.byte	0x6
 2046 020b 9804     		.2byte	0x498
 2047 020d A7000000 		.4byte	0xa7
ARM GAS  G:\Users\Jaxb\AppData\Local\Temp\ccN59N5m.s 			page 53


 2048 0211 02       		.byte	0x2
 2049 0212 23       		.byte	0x23
 2050 0213 1C       		.uleb128 0x1c
 2051 0214 0E       		.uleb128 0xe
 2052 0215 56010000 		.4byte	.LASF34
 2053 0219 06       		.byte	0x6
 2054 021a 9904     		.2byte	0x499
 2055 021c 9C000000 		.4byte	0x9c
 2056 0220 02       		.byte	0x2
 2057 0221 23       		.byte	0x23
 2058 0222 1E       		.uleb128 0x1e
 2059 0223 0E       		.uleb128 0xe
 2060 0224 F7050000 		.4byte	.LASF35
 2061 0228 06       		.byte	0x6
 2062 0229 9A04     		.2byte	0x49a
 2063 022b A7000000 		.4byte	0xa7
 2064 022f 02       		.byte	0x2
 2065 0230 23       		.byte	0x23
 2066 0231 20       		.uleb128 0x20
 2067 0232 0E       		.uleb128 0xe
 2068 0233 63040000 		.4byte	.LASF36
 2069 0237 06       		.byte	0x6
 2070 0238 9B04     		.2byte	0x49b
 2071 023a 9C000000 		.4byte	0x9c
 2072 023e 02       		.byte	0x2
 2073 023f 23       		.byte	0x23
 2074 0240 22       		.uleb128 0x22
 2075 0241 00       		.byte	0
 2076 0242 0B       		.uleb128 0xb
 2077 0243 84030000 		.4byte	.LASF37
 2078 0247 06       		.byte	0x6
 2079 0248 9C04     		.2byte	0x49c
 2080 024a 2C010000 		.4byte	0x12c
 2081 024e 0F       		.uleb128 0xf
 2082 024f 14       		.byte	0x14
 2083 0250 07       		.byte	0x7
 2084 0251 2E       		.byte	0x2e
 2085 0252 9D020000 		.4byte	0x29d
 2086 0256 10       		.uleb128 0x10
 2087 0257 9A030000 		.4byte	.LASF38
 2088 025b 07       		.byte	0x7
 2089 025c 30       		.byte	0x30
 2090 025d AC000000 		.4byte	0xac
 2091 0261 02       		.byte	0x2
 2092 0262 23       		.byte	0x23
 2093 0263 00       		.uleb128 0
 2094 0264 10       		.uleb128 0x10
 2095 0265 87000000 		.4byte	.LASF39
 2096 0269 07       		.byte	0x7
 2097 026a 31       		.byte	0x31
 2098 026b AC000000 		.4byte	0xac
 2099 026f 02       		.byte	0x2
 2100 0270 23       		.byte	0x23
 2101 0271 04       		.uleb128 0x4
 2102 0272 10       		.uleb128 0x10
 2103 0273 A8040000 		.4byte	.LASF40
 2104 0277 07       		.byte	0x7
ARM GAS  G:\Users\Jaxb\AppData\Local\Temp\ccN59N5m.s 			page 54


 2105 0278 32       		.byte	0x32
 2106 0279 AC000000 		.4byte	0xac
 2107 027d 02       		.byte	0x2
 2108 027e 23       		.byte	0x23
 2109 027f 08       		.uleb128 0x8
 2110 0280 10       		.uleb128 0x10
 2111 0281 C6030000 		.4byte	.LASF41
 2112 0285 07       		.byte	0x7
 2113 0286 33       		.byte	0x33
 2114 0287 AC000000 		.4byte	0xac
 2115 028b 02       		.byte	0x2
 2116 028c 23       		.byte	0x23
 2117 028d 0C       		.uleb128 0xc
 2118 028e 10       		.uleb128 0x10
 2119 028f 73030000 		.4byte	.LASF42
 2120 0293 07       		.byte	0x7
 2121 0294 34       		.byte	0x34
 2122 0295 AC000000 		.4byte	0xac
 2123 0299 02       		.byte	0x2
 2124 029a 23       		.byte	0x23
 2125 029b 10       		.uleb128 0x10
 2126 029c 00       		.byte	0
 2127 029d 03       		.uleb128 0x3
 2128 029e F8000000 		.4byte	.LASF43
 2129 02a2 07       		.byte	0x7
 2130 02a3 35       		.byte	0x35
 2131 02a4 4E020000 		.4byte	0x24e
 2132 02a8 0F       		.uleb128 0xf
 2133 02a9 12       		.byte	0x12
 2134 02aa 08       		.byte	0x8
 2135 02ab 32       		.byte	0x32
 2136 02ac 2F030000 		.4byte	0x32f
 2137 02b0 10       		.uleb128 0x10
 2138 02b1 18000000 		.4byte	.LASF44
 2139 02b5 08       		.byte	0x8
 2140 02b6 34       		.byte	0x34
 2141 02b7 9C000000 		.4byte	0x9c
 2142 02bb 02       		.byte	0x2
 2143 02bc 23       		.byte	0x23
 2144 02bd 00       		.uleb128 0
 2145 02be 10       		.uleb128 0x10
 2146 02bf 61030000 		.4byte	.LASF45
 2147 02c3 08       		.byte	0x8
 2148 02c4 37       		.byte	0x37
 2149 02c5 9C000000 		.4byte	0x9c
 2150 02c9 02       		.byte	0x2
 2151 02ca 23       		.byte	0x23
 2152 02cb 02       		.uleb128 0x2
 2153 02cc 10       		.uleb128 0x10
 2154 02cd 4A000000 		.4byte	.LASF46
 2155 02d1 08       		.byte	0x8
 2156 02d2 3A       		.byte	0x3a
 2157 02d3 9C000000 		.4byte	0x9c
 2158 02d7 02       		.byte	0x2
 2159 02d8 23       		.byte	0x23
 2160 02d9 04       		.uleb128 0x4
 2161 02da 10       		.uleb128 0x10
ARM GAS  G:\Users\Jaxb\AppData\Local\Temp\ccN59N5m.s 			page 55


 2162 02db C9050000 		.4byte	.LASF47
 2163 02df 08       		.byte	0x8
 2164 02e0 3D       		.byte	0x3d
 2165 02e1 9C000000 		.4byte	0x9c
 2166 02e5 02       		.byte	0x2
 2167 02e6 23       		.byte	0x23
 2168 02e7 06       		.uleb128 0x6
 2169 02e8 10       		.uleb128 0x10
 2170 02e9 0F000000 		.4byte	.LASF48
 2171 02ed 08       		.byte	0x8
 2172 02ee 40       		.byte	0x40
 2173 02ef 9C000000 		.4byte	0x9c
 2174 02f3 02       		.byte	0x2
 2175 02f4 23       		.byte	0x23
 2176 02f5 08       		.uleb128 0x8
 2177 02f6 10       		.uleb128 0x10
 2178 02f7 D6000000 		.4byte	.LASF49
 2179 02fb 08       		.byte	0x8
 2180 02fc 43       		.byte	0x43
 2181 02fd 9C000000 		.4byte	0x9c
 2182 0301 02       		.byte	0x2
 2183 0302 23       		.byte	0x23
 2184 0303 0A       		.uleb128 0xa
 2185 0304 10       		.uleb128 0x10
 2186 0305 1B010000 		.4byte	.LASF50
 2187 0309 08       		.byte	0x8
 2188 030a 47       		.byte	0x47
 2189 030b 9C000000 		.4byte	0x9c
 2190 030f 02       		.byte	0x2
 2191 0310 23       		.byte	0x23
 2192 0311 0C       		.uleb128 0xc
 2193 0312 10       		.uleb128 0x10
 2194 0313 7A000000 		.4byte	.LASF51
 2195 0317 08       		.byte	0x8
 2196 0318 4D       		.byte	0x4d
 2197 0319 9C000000 		.4byte	0x9c
 2198 031d 02       		.byte	0x2
 2199 031e 23       		.byte	0x23
 2200 031f 0E       		.uleb128 0xe
 2201 0320 10       		.uleb128 0x10
 2202 0321 04060000 		.4byte	.LASF52
 2203 0325 08       		.byte	0x8
 2204 0326 50       		.byte	0x50
 2205 0327 9C000000 		.4byte	0x9c
 2206 032b 02       		.byte	0x2
 2207 032c 23       		.byte	0x23
 2208 032d 10       		.uleb128 0x10
 2209 032e 00       		.byte	0
 2210 032f 03       		.uleb128 0x3
 2211 0330 1D060000 		.4byte	.LASF53
 2212 0334 08       		.byte	0x8
 2213 0335 51       		.byte	0x51
 2214 0336 A8020000 		.4byte	0x2a8
 2215 033a 0F       		.uleb128 0xf
 2216 033b 10       		.byte	0x10
 2217 033c 08       		.byte	0x8
 2218 033d 57       		.byte	0x57
ARM GAS  G:\Users\Jaxb\AppData\Local\Temp\ccN59N5m.s 			page 56


 2219 033e 97030000 		.4byte	0x397
 2220 0342 10       		.uleb128 0x10
 2221 0343 D8040000 		.4byte	.LASF54
 2222 0347 08       		.byte	0x8
 2223 0348 5A       		.byte	0x5a
 2224 0349 9C000000 		.4byte	0x9c
 2225 034d 02       		.byte	0x2
 2226 034e 23       		.byte	0x23
 2227 034f 00       		.uleb128 0
 2228 0350 10       		.uleb128 0x10
 2229 0351 64000000 		.4byte	.LASF55
 2230 0355 08       		.byte	0x8
 2231 0356 5D       		.byte	0x5d
 2232 0357 9C000000 		.4byte	0x9c
 2233 035b 02       		.byte	0x2
 2234 035c 23       		.byte	0x23
 2235 035d 02       		.uleb128 0x2
 2236 035e 10       		.uleb128 0x10
 2237 035f 9C020000 		.4byte	.LASF56
 2238 0363 08       		.byte	0x8
 2239 0364 60       		.byte	0x60
 2240 0365 9C000000 		.4byte	0x9c
 2241 0369 02       		.byte	0x2
 2242 036a 23       		.byte	0x23
 2243 036b 04       		.uleb128 0x4
 2244 036c 10       		.uleb128 0x10
 2245 036d 42020000 		.4byte	.LASF57
 2246 0371 08       		.byte	0x8
 2247 0372 63       		.byte	0x63
 2248 0373 9C000000 		.4byte	0x9c
 2249 0377 02       		.byte	0x2
 2250 0378 23       		.byte	0x23
 2251 0379 06       		.uleb128 0x6
 2252 037a 10       		.uleb128 0x10
 2253 037b 1F020000 		.4byte	.LASF58
 2254 037f 08       		.byte	0x8
 2255 0380 66       		.byte	0x66
 2256 0381 AC000000 		.4byte	0xac
 2257 0385 02       		.byte	0x2
 2258 0386 23       		.byte	0x23
 2259 0387 08       		.uleb128 0x8
 2260 0388 10       		.uleb128 0x10
 2261 0389 96000000 		.4byte	.LASF59
 2262 038d 08       		.byte	0x8
 2263 038e 69       		.byte	0x69
 2264 038f 9C000000 		.4byte	0x9c
 2265 0393 02       		.byte	0x2
 2266 0394 23       		.byte	0x23
 2267 0395 0C       		.uleb128 0xc
 2268 0396 00       		.byte	0
 2269 0397 03       		.uleb128 0x3
 2270 0398 88010000 		.4byte	.LASF60
 2271 039c 08       		.byte	0x8
 2272 039d 6B       		.byte	0x6b
 2273 039e 3A030000 		.4byte	0x33a
 2274 03a2 11       		.uleb128 0x11
 2275 03a3 01       		.byte	0x1
ARM GAS  G:\Users\Jaxb\AppData\Local\Temp\ccN59N5m.s 			page 57


 2276 03a4 B8040000 		.4byte	.LASF67
 2277 03a8 01       		.byte	0x1
 2278 03a9 7303     		.2byte	0x373
 2279 03ab 01       		.byte	0x1
 2280 03ac 9C060000 		.4byte	.LFB51
 2281 03b0 CE060000 		.4byte	.LFE51
 2282 03b4 00000000 		.4byte	.LLST22
 2283 03b8 01       		.byte	0x1
 2284 03b9 EB030000 		.4byte	0x3eb
 2285 03bd 12       		.uleb128 0x12
 2286 03be F7040000 		.4byte	.LASF61
 2287 03c2 01       		.byte	0x1
 2288 03c3 7303     		.2byte	0x373
 2289 03c5 EB030000 		.4byte	0x3eb
 2290 03c9 02       		.byte	0x2
 2291 03ca 91       		.byte	0x91
 2292 03cb 6C       		.sleb128 -20
 2293 03cc 12       		.uleb128 0x12
 2294 03cd 56020000 		.4byte	.LASF62
 2295 03d1 01       		.byte	0x1
 2296 03d2 7303     		.2byte	0x373
 2297 03d4 91000000 		.4byte	0x91
 2298 03d8 02       		.byte	0x2
 2299 03d9 91       		.byte	0x91
 2300 03da 6B       		.sleb128 -21
 2301 03db 13       		.uleb128 0x13
 2302 03dc 44000000 		.4byte	.LASF63
 2303 03e0 01       		.byte	0x1
 2304 03e1 7503     		.2byte	0x375
 2305 03e3 9C000000 		.4byte	0x9c
 2306 03e7 02       		.byte	0x2
 2307 03e8 91       		.byte	0x91
 2308 03e9 76       		.sleb128 -10
 2309 03ea 00       		.byte	0
 2310 03eb 14       		.uleb128 0x14
 2311 03ec 04       		.byte	0x4
 2312 03ed 42020000 		.4byte	0x242
 2313 03f1 15       		.uleb128 0x15
 2314 03f2 01       		.byte	0x1
 2315 03f3 22030000 		.4byte	.LASF70
 2316 03f7 01       		.byte	0x1
 2317 03f8 3D03     		.2byte	0x33d
 2318 03fa 01       		.byte	0x1
 2319 03fb F9000000 		.4byte	0xf9
 2320 03ff 28060000 		.4byte	.LFB50
 2321 0403 9C060000 		.4byte	.LFE50
 2322 0407 5C000000 		.4byte	.LLST21
 2323 040b 01       		.byte	0x1
 2324 040c 6B040000 		.4byte	0x46b
 2325 0410 12       		.uleb128 0x12
 2326 0411 F7040000 		.4byte	.LASF61
 2327 0415 01       		.byte	0x1
 2328 0416 3D03     		.2byte	0x33d
 2329 0418 EB030000 		.4byte	0x3eb
 2330 041c 02       		.byte	0x2
 2331 041d 91       		.byte	0x91
 2332 041e 6C       		.sleb128 -20
ARM GAS  G:\Users\Jaxb\AppData\Local\Temp\ccN59N5m.s 			page 58


 2333 041f 12       		.uleb128 0x12
 2334 0420 56020000 		.4byte	.LASF62
 2335 0424 01       		.byte	0x1
 2336 0425 3D03     		.2byte	0x33d
 2337 0427 91000000 		.4byte	0x91
 2338 042b 02       		.byte	0x2
 2339 042c 91       		.byte	0x91
 2340 042d 6B       		.sleb128 -21
 2341 042e 13       		.uleb128 0x13
 2342 042f 90030000 		.4byte	.LASF64
 2343 0433 01       		.byte	0x1
 2344 0434 3F03     		.2byte	0x33f
 2345 0436 F9000000 		.4byte	0xf9
 2346 043a 02       		.byte	0x2
 2347 043b 91       		.byte	0x91
 2348 043c 77       		.sleb128 -9
 2349 043d 13       		.uleb128 0x13
 2350 043e 44000000 		.4byte	.LASF63
 2351 0442 01       		.byte	0x1
 2352 0443 4003     		.2byte	0x340
 2353 0445 9C000000 		.4byte	0x9c
 2354 0449 02       		.byte	0x2
 2355 044a 91       		.byte	0x91
 2356 044b 74       		.sleb128 -12
 2357 044c 13       		.uleb128 0x13
 2358 044d D2050000 		.4byte	.LASF65
 2359 0451 01       		.byte	0x1
 2360 0452 4003     		.2byte	0x340
 2361 0454 9C000000 		.4byte	0x9c
 2362 0458 02       		.byte	0x2
 2363 0459 91       		.byte	0x91
 2364 045a 72       		.sleb128 -14
 2365 045b 13       		.uleb128 0x13
 2366 045c 98010000 		.4byte	.LASF66
 2367 0460 01       		.byte	0x1
 2368 0461 4003     		.2byte	0x340
 2369 0463 9C000000 		.4byte	0x9c
 2370 0467 02       		.byte	0x2
 2371 0468 91       		.byte	0x91
 2372 0469 70       		.sleb128 -16
 2373 046a 00       		.byte	0
 2374 046b 11       		.uleb128 0x11
 2375 046c 01       		.byte	0x1
 2376 046d FE030000 		.4byte	.LASF68
 2377 0471 01       		.byte	0x1
 2378 0472 2403     		.2byte	0x324
 2379 0474 01       		.byte	0x1
 2380 0475 08060000 		.4byte	.LFB49
 2381 0479 28060000 		.4byte	.LFE49
 2382 047d B8000000 		.4byte	.LLST20
 2383 0481 01       		.byte	0x1
 2384 0482 A5040000 		.4byte	0x4a5
 2385 0486 12       		.uleb128 0x12
 2386 0487 F7040000 		.4byte	.LASF61
 2387 048b 01       		.byte	0x1
 2388 048c 2403     		.2byte	0x324
 2389 048e EB030000 		.4byte	0x3eb
ARM GAS  G:\Users\Jaxb\AppData\Local\Temp\ccN59N5m.s 			page 59


 2390 0492 02       		.byte	0x2
 2391 0493 91       		.byte	0x91
 2392 0494 74       		.sleb128 -12
 2393 0495 12       		.uleb128 0x12
 2394 0496 57000000 		.4byte	.LASF69
 2395 049a 01       		.byte	0x1
 2396 049b 2403     		.2byte	0x324
 2397 049d 9C000000 		.4byte	0x9c
 2398 04a1 02       		.byte	0x2
 2399 04a2 91       		.byte	0x91
 2400 04a3 72       		.sleb128 -14
 2401 04a4 00       		.byte	0
 2402 04a5 15       		.uleb128 0x15
 2403 04a6 01       		.byte	0x1
 2404 04a7 E1040000 		.4byte	.LASF71
 2405 04ab 01       		.byte	0x1
 2406 04ac FE02     		.2byte	0x2fe
 2407 04ae 01       		.byte	0x1
 2408 04af ED000000 		.4byte	0xed
 2409 04b3 D2050000 		.4byte	.LFB48
 2410 04b7 08060000 		.4byte	.LFE48
 2411 04bb 14010000 		.4byte	.LLST19
 2412 04bf 01       		.byte	0x1
 2413 04c0 F2040000 		.4byte	0x4f2
 2414 04c4 12       		.uleb128 0x12
 2415 04c5 F7040000 		.4byte	.LASF61
 2416 04c9 01       		.byte	0x1
 2417 04ca FE02     		.2byte	0x2fe
 2418 04cc EB030000 		.4byte	0x3eb
 2419 04d0 02       		.byte	0x2
 2420 04d1 91       		.byte	0x91
 2421 04d2 6C       		.sleb128 -20
 2422 04d3 12       		.uleb128 0x12
 2423 04d4 57000000 		.4byte	.LASF69
 2424 04d8 01       		.byte	0x1
 2425 04d9 FE02     		.2byte	0x2fe
 2426 04db 9C000000 		.4byte	0x9c
 2427 04df 02       		.byte	0x2
 2428 04e0 91       		.byte	0x91
 2429 04e1 6A       		.sleb128 -22
 2430 04e2 13       		.uleb128 0x13
 2431 04e3 90030000 		.4byte	.LASF64
 2432 04e7 01       		.byte	0x1
 2433 04e8 0003     		.2byte	0x300
 2434 04ea ED000000 		.4byte	0xed
 2435 04ee 02       		.byte	0x2
 2436 04ef 91       		.byte	0x91
 2437 04f0 77       		.sleb128 -9
 2438 04f1 00       		.byte	0
 2439 04f2 11       		.uleb128 0x11
 2440 04f3 01       		.byte	0x1
 2441 04f4 EB010000 		.4byte	.LASF72
 2442 04f8 01       		.byte	0x1
 2443 04f9 DC02     		.2byte	0x2dc
 2444 04fb 01       		.byte	0x1
 2445 04fc 92050000 		.4byte	.LFB47
 2446 0500 D2050000 		.4byte	.LFE47
ARM GAS  G:\Users\Jaxb\AppData\Local\Temp\ccN59N5m.s 			page 60


 2447 0504 70010000 		.4byte	.LLST18
 2448 0508 01       		.byte	0x1
 2449 0509 2C050000 		.4byte	0x52c
 2450 050d 12       		.uleb128 0x12
 2451 050e F7040000 		.4byte	.LASF61
 2452 0512 01       		.byte	0x1
 2453 0513 DC02     		.2byte	0x2dc
 2454 0515 EB030000 		.4byte	0x3eb
 2455 0519 02       		.byte	0x2
 2456 051a 91       		.byte	0x91
 2457 051b 74       		.sleb128 -12
 2458 051c 12       		.uleb128 0x12
 2459 051d 18000000 		.4byte	.LASF44
 2460 0521 01       		.byte	0x1
 2461 0522 DC02     		.2byte	0x2dc
 2462 0524 9C000000 		.4byte	0x9c
 2463 0528 02       		.byte	0x2
 2464 0529 91       		.byte	0x91
 2465 052a 72       		.sleb128 -14
 2466 052b 00       		.byte	0
 2467 052c 15       		.uleb128 0x15
 2468 052d 01       		.byte	0x1
 2469 052e 2F000000 		.4byte	.LASF73
 2470 0532 01       		.byte	0x1
 2471 0533 CA02     		.2byte	0x2ca
 2472 0535 01       		.byte	0x1
 2473 0536 9C000000 		.4byte	0x9c
 2474 053a 7A050000 		.4byte	.LFB46
 2475 053e 92050000 		.4byte	.LFE46
 2476 0542 CC010000 		.4byte	.LLST17
 2477 0546 01       		.byte	0x1
 2478 0547 5B050000 		.4byte	0x55b
 2479 054b 12       		.uleb128 0x12
 2480 054c F7040000 		.4byte	.LASF61
 2481 0550 01       		.byte	0x1
 2482 0551 CA02     		.2byte	0x2ca
 2483 0553 EB030000 		.4byte	0x3eb
 2484 0557 02       		.byte	0x2
 2485 0558 91       		.byte	0x91
 2486 0559 74       		.sleb128 -12
 2487 055a 00       		.byte	0
 2488 055b 15       		.uleb128 0x15
 2489 055c 01       		.byte	0x1
 2490 055d 70020000 		.4byte	.LASF74
 2491 0561 01       		.byte	0x1
 2492 0562 B102     		.2byte	0x2b1
 2493 0564 01       		.byte	0x1
 2494 0565 9C000000 		.4byte	0x9c
 2495 0569 4A050000 		.4byte	.LFB45
 2496 056d 7A050000 		.4byte	.LFE45
 2497 0571 28020000 		.4byte	.LLST16
 2498 0575 01       		.byte	0x1
 2499 0576 A8050000 		.4byte	0x5a8
 2500 057a 12       		.uleb128 0x12
 2501 057b F7040000 		.4byte	.LASF61
 2502 057f 01       		.byte	0x1
 2503 0580 B102     		.2byte	0x2b1
ARM GAS  G:\Users\Jaxb\AppData\Local\Temp\ccN59N5m.s 			page 61


 2504 0582 EB030000 		.4byte	0x3eb
 2505 0586 02       		.byte	0x2
 2506 0587 91       		.byte	0x91
 2507 0588 6C       		.sleb128 -20
 2508 0589 12       		.uleb128 0x12
 2509 058a 69010000 		.4byte	.LASF75
 2510 058e 01       		.byte	0x1
 2511 058f B102     		.2byte	0x2b1
 2512 0591 91000000 		.4byte	0x91
 2513 0595 02       		.byte	0x2
 2514 0596 91       		.byte	0x91
 2515 0597 6B       		.sleb128 -21
 2516 0598 13       		.uleb128 0x13
 2517 0599 FD050000 		.4byte	.LASF76
 2518 059d 01       		.byte	0x1
 2519 059e B302     		.2byte	0x2b3
 2520 05a0 9C000000 		.4byte	0x9c
 2521 05a4 02       		.byte	0x2
 2522 05a5 91       		.byte	0x91
 2523 05a6 76       		.sleb128 -10
 2524 05a7 00       		.byte	0
 2525 05a8 11       		.uleb128 0x11
 2526 05a9 01       		.byte	0x1
 2527 05aa E6050000 		.4byte	.LASF77
 2528 05ae 01       		.byte	0x1
 2529 05af 9702     		.2byte	0x297
 2530 05b1 01       		.byte	0x1
 2531 05b2 0C050000 		.4byte	.LFB44
 2532 05b6 4A050000 		.4byte	.LFE44
 2533 05ba 84020000 		.4byte	.LLST15
 2534 05be 01       		.byte	0x1
 2535 05bf E2050000 		.4byte	0x5e2
 2536 05c3 12       		.uleb128 0x12
 2537 05c4 F7040000 		.4byte	.LASF61
 2538 05c8 01       		.byte	0x1
 2539 05c9 9702     		.2byte	0x297
 2540 05cb EB030000 		.4byte	0x3eb
 2541 05cf 02       		.byte	0x2
 2542 05d0 91       		.byte	0x91
 2543 05d1 74       		.sleb128 -12
 2544 05d2 12       		.uleb128 0x12
 2545 05d3 60010000 		.4byte	.LASF78
 2546 05d7 01       		.byte	0x1
 2547 05d8 9702     		.2byte	0x297
 2548 05da 20010000 		.4byte	0x120
 2549 05de 02       		.byte	0x2
 2550 05df 91       		.byte	0x91
 2551 05e0 73       		.sleb128 -13
 2552 05e1 00       		.byte	0
 2553 05e2 11       		.uleb128 0x11
 2554 05e3 01       		.byte	0x1
 2555 05e4 B9050000 		.4byte	.LASF79
 2556 05e8 01       		.byte	0x1
 2557 05e9 8702     		.2byte	0x287
 2558 05eb 01       		.byte	0x1
 2559 05ec EA040000 		.4byte	.LFB43
 2560 05f0 0C050000 		.4byte	.LFE43
ARM GAS  G:\Users\Jaxb\AppData\Local\Temp\ccN59N5m.s 			page 62


 2561 05f4 E0020000 		.4byte	.LLST14
 2562 05f8 01       		.byte	0x1
 2563 05f9 0D060000 		.4byte	0x60d
 2564 05fd 12       		.uleb128 0x12
 2565 05fe F7040000 		.4byte	.LASF61
 2566 0602 01       		.byte	0x1
 2567 0603 8702     		.2byte	0x287
 2568 0605 EB030000 		.4byte	0x3eb
 2569 0609 02       		.byte	0x2
 2570 060a 91       		.byte	0x91
 2571 060b 74       		.sleb128 -12
 2572 060c 00       		.byte	0
 2573 060d 11       		.uleb128 0x11
 2574 060e 01       		.byte	0x1
 2575 060f 7B020000 		.4byte	.LASF80
 2576 0613 01       		.byte	0x1
 2577 0614 7702     		.2byte	0x277
 2578 0616 01       		.byte	0x1
 2579 0617 B4040000 		.4byte	.LFB42
 2580 061b EA040000 		.4byte	.LFE42
 2581 061f 3C030000 		.4byte	.LLST13
 2582 0623 01       		.byte	0x1
 2583 0624 47060000 		.4byte	0x647
 2584 0628 12       		.uleb128 0x12
 2585 0629 F7040000 		.4byte	.LASF61
 2586 062d 01       		.byte	0x1
 2587 062e 7702     		.2byte	0x277
 2588 0630 EB030000 		.4byte	0x3eb
 2589 0634 02       		.byte	0x2
 2590 0635 91       		.byte	0x91
 2591 0636 74       		.sleb128 -12
 2592 0637 12       		.uleb128 0x12
 2593 0638 4A000000 		.4byte	.LASF46
 2594 063c 01       		.byte	0x1
 2595 063d 7702     		.2byte	0x277
 2596 063f 9C000000 		.4byte	0x9c
 2597 0643 02       		.byte	0x2
 2598 0644 91       		.byte	0x91
 2599 0645 72       		.sleb128 -14
 2600 0646 00       		.byte	0
 2601 0647 11       		.uleb128 0x11
 2602 0648 01       		.byte	0x1
 2603 0649 FC040000 		.4byte	.LASF81
 2604 064d 01       		.byte	0x1
 2605 064e 5D02     		.2byte	0x25d
 2606 0650 01       		.byte	0x1
 2607 0651 76040000 		.4byte	.LFB41
 2608 0655 B4040000 		.4byte	.LFE41
 2609 0659 98030000 		.4byte	.LLST12
 2610 065d 01       		.byte	0x1
 2611 065e 81060000 		.4byte	0x681
 2612 0662 12       		.uleb128 0x12
 2613 0663 F7040000 		.4byte	.LASF61
 2614 0667 01       		.byte	0x1
 2615 0668 5D02     		.2byte	0x25d
 2616 066a EB030000 		.4byte	0x3eb
 2617 066e 02       		.byte	0x2
ARM GAS  G:\Users\Jaxb\AppData\Local\Temp\ccN59N5m.s 			page 63


 2618 066f 91       		.byte	0x91
 2619 0670 74       		.sleb128 -12
 2620 0671 12       		.uleb128 0x12
 2621 0672 60010000 		.4byte	.LASF78
 2622 0676 01       		.byte	0x1
 2623 0677 5D02     		.2byte	0x25d
 2624 0679 20010000 		.4byte	0x120
 2625 067d 02       		.byte	0x2
 2626 067e 91       		.byte	0x91
 2627 067f 73       		.sleb128 -13
 2628 0680 00       		.byte	0
 2629 0681 11       		.uleb128 0x11
 2630 0682 01       		.byte	0x1
 2631 0683 C6020000 		.4byte	.LASF82
 2632 0687 01       		.byte	0x1
 2633 0688 4502     		.2byte	0x245
 2634 068a 01       		.byte	0x1
 2635 068b 34040000 		.4byte	.LFB40
 2636 068f 76040000 		.4byte	.LFE40
 2637 0693 F4030000 		.4byte	.LLST11
 2638 0697 01       		.byte	0x1
 2639 0698 BB060000 		.4byte	0x6bb
 2640 069c 12       		.uleb128 0x12
 2641 069d F7040000 		.4byte	.LASF61
 2642 06a1 01       		.byte	0x1
 2643 06a2 4502     		.2byte	0x245
 2644 06a4 EB030000 		.4byte	0x3eb
 2645 06a8 02       		.byte	0x2
 2646 06a9 91       		.byte	0x91
 2647 06aa 74       		.sleb128 -12
 2648 06ab 12       		.uleb128 0x12
 2649 06ac EA030000 		.4byte	.LASF83
 2650 06b0 01       		.byte	0x1
 2651 06b1 4502     		.2byte	0x245
 2652 06b3 9C000000 		.4byte	0x9c
 2653 06b7 02       		.byte	0x2
 2654 06b8 91       		.byte	0x91
 2655 06b9 72       		.sleb128 -14
 2656 06ba 00       		.byte	0
 2657 06bb 15       		.uleb128 0x15
 2658 06bc 01       		.byte	0x1
 2659 06bd D6030000 		.4byte	.LASF84
 2660 06c1 01       		.byte	0x1
 2661 06c2 3302     		.2byte	0x233
 2662 06c4 01       		.byte	0x1
 2663 06c5 9C000000 		.4byte	0x9c
 2664 06c9 1C040000 		.4byte	.LFB39
 2665 06cd 34040000 		.4byte	.LFE39
 2666 06d1 50040000 		.4byte	.LLST10
 2667 06d5 01       		.byte	0x1
 2668 06d6 EA060000 		.4byte	0x6ea
 2669 06da 12       		.uleb128 0x12
 2670 06db F7040000 		.4byte	.LASF61
 2671 06df 01       		.byte	0x1
 2672 06e0 3302     		.2byte	0x233
 2673 06e2 EB030000 		.4byte	0x3eb
 2674 06e6 02       		.byte	0x2
ARM GAS  G:\Users\Jaxb\AppData\Local\Temp\ccN59N5m.s 			page 64


 2675 06e7 91       		.byte	0x91
 2676 06e8 74       		.sleb128 -12
 2677 06e9 00       		.byte	0
 2678 06ea 11       		.uleb128 0x11
 2679 06eb 01       		.byte	0x1
 2680 06ec C5000000 		.4byte	.LASF85
 2681 06f0 01       		.byte	0x1
 2682 06f1 2302     		.2byte	0x223
 2683 06f3 01       		.byte	0x1
 2684 06f4 00040000 		.4byte	.LFB38
 2685 06f8 1C040000 		.4byte	.LFE38
 2686 06fc AC040000 		.4byte	.LLST9
 2687 0700 01       		.byte	0x1
 2688 0701 24070000 		.4byte	0x724
 2689 0705 12       		.uleb128 0x12
 2690 0706 F7040000 		.4byte	.LASF61
 2691 070a 01       		.byte	0x1
 2692 070b 2302     		.2byte	0x223
 2693 070d EB030000 		.4byte	0x3eb
 2694 0711 02       		.byte	0x2
 2695 0712 91       		.byte	0x91
 2696 0713 74       		.sleb128 -12
 2697 0714 12       		.uleb128 0x12
 2698 0715 51020000 		.4byte	.LASF86
 2699 0719 01       		.byte	0x1
 2700 071a 2302     		.2byte	0x223
 2701 071c 9C000000 		.4byte	0x9c
 2702 0720 02       		.byte	0x2
 2703 0721 91       		.byte	0x91
 2704 0722 72       		.sleb128 -14
 2705 0723 00       		.byte	0
 2706 0724 11       		.uleb128 0x11
 2707 0725 01       		.byte	0x1
 2708 0726 00000000 		.4byte	.LASF87
 2709 072a 01       		.byte	0x1
 2710 072b 0902     		.2byte	0x209
 2711 072d 01       		.byte	0x1
 2712 072e BA030000 		.4byte	.LFB37
 2713 0732 00040000 		.4byte	.LFE37
 2714 0736 08050000 		.4byte	.LLST8
 2715 073a 01       		.byte	0x1
 2716 073b 6D070000 		.4byte	0x76d
 2717 073f 12       		.uleb128 0x12
 2718 0740 F7040000 		.4byte	.LASF61
 2719 0744 01       		.byte	0x1
 2720 0745 0902     		.2byte	0x209
 2721 0747 EB030000 		.4byte	0x3eb
 2722 074b 02       		.byte	0x2
 2723 074c 91       		.byte	0x91
 2724 074d 74       		.sleb128 -12
 2725 074e 12       		.uleb128 0x12
 2726 074f E9000000 		.4byte	.LASF88
 2727 0753 01       		.byte	0x1
 2728 0754 0902     		.2byte	0x209
 2729 0756 9C000000 		.4byte	0x9c
 2730 075a 02       		.byte	0x2
 2731 075b 91       		.byte	0x91
ARM GAS  G:\Users\Jaxb\AppData\Local\Temp\ccN59N5m.s 			page 65


 2732 075c 72       		.sleb128 -14
 2733 075d 12       		.uleb128 0x12
 2734 075e 60010000 		.4byte	.LASF78
 2735 0762 01       		.byte	0x1
 2736 0763 0902     		.2byte	0x209
 2737 0765 20010000 		.4byte	0x120
 2738 0769 02       		.byte	0x2
 2739 076a 91       		.byte	0x91
 2740 076b 71       		.sleb128 -15
 2741 076c 00       		.byte	0
 2742 076d 11       		.uleb128 0x11
 2743 076e 01       		.byte	0x1
 2744 076f 0E020000 		.4byte	.LASF89
 2745 0773 01       		.byte	0x1
 2746 0774 E201     		.2byte	0x1e2
 2747 0776 01       		.byte	0x1
 2748 0777 5A030000 		.4byte	.LFB36
 2749 077b BA030000 		.4byte	.LFE36
 2750 077f 64050000 		.4byte	.LLST7
 2751 0783 01       		.byte	0x1
 2752 0784 D4070000 		.4byte	0x7d4
 2753 0788 12       		.uleb128 0x12
 2754 0789 F7040000 		.4byte	.LASF61
 2755 078d 01       		.byte	0x1
 2756 078e E201     		.2byte	0x1e2
 2757 0790 EB030000 		.4byte	0x3eb
 2758 0794 02       		.byte	0x2
 2759 0795 91       		.byte	0x91
 2760 0796 6C       		.sleb128 -20
 2761 0797 12       		.uleb128 0x12
 2762 0798 56020000 		.4byte	.LASF62
 2763 079c 01       		.byte	0x1
 2764 079d E201     		.2byte	0x1e2
 2765 079f 91000000 		.4byte	0x91
 2766 07a3 02       		.byte	0x2
 2767 07a4 91       		.byte	0x91
 2768 07a5 6B       		.sleb128 -21
 2769 07a6 12       		.uleb128 0x12
 2770 07a7 60010000 		.4byte	.LASF78
 2771 07ab 01       		.byte	0x1
 2772 07ac E201     		.2byte	0x1e2
 2773 07ae 20010000 		.4byte	0x120
 2774 07b2 02       		.byte	0x2
 2775 07b3 91       		.byte	0x91
 2776 07b4 6A       		.sleb128 -22
 2777 07b5 13       		.uleb128 0x13
 2778 07b6 44000000 		.4byte	.LASF63
 2779 07ba 01       		.byte	0x1
 2780 07bb E401     		.2byte	0x1e4
 2781 07bd 9C000000 		.4byte	0x9c
 2782 07c1 02       		.byte	0x2
 2783 07c2 91       		.byte	0x91
 2784 07c3 76       		.sleb128 -10
 2785 07c4 13       		.uleb128 0x13
 2786 07c5 D2050000 		.4byte	.LASF65
 2787 07c9 01       		.byte	0x1
 2788 07ca E401     		.2byte	0x1e4
ARM GAS  G:\Users\Jaxb\AppData\Local\Temp\ccN59N5m.s 			page 66


 2789 07cc 9C000000 		.4byte	0x9c
 2790 07d0 02       		.byte	0x2
 2791 07d1 91       		.byte	0x91
 2792 07d2 74       		.sleb128 -12
 2793 07d3 00       		.byte	0
 2794 07d4 11       		.uleb128 0x11
 2795 07d5 01       		.byte	0x1
 2796 07d6 2E040000 		.4byte	.LASF90
 2797 07da 01       		.byte	0x1
 2798 07db C301     		.2byte	0x1c3
 2799 07dd 01       		.byte	0x1
 2800 07de 1C030000 		.4byte	.LFB35
 2801 07e2 5A030000 		.4byte	.LFE35
 2802 07e6 C0050000 		.4byte	.LLST6
 2803 07ea 01       		.byte	0x1
 2804 07eb 0E080000 		.4byte	0x80e
 2805 07ef 12       		.uleb128 0x12
 2806 07f0 F7040000 		.4byte	.LASF61
 2807 07f4 01       		.byte	0x1
 2808 07f5 C301     		.2byte	0x1c3
 2809 07f7 EB030000 		.4byte	0x3eb
 2810 07fb 02       		.byte	0x2
 2811 07fc 91       		.byte	0x91
 2812 07fd 74       		.sleb128 -12
 2813 07fe 12       		.uleb128 0x12
 2814 07ff 60010000 		.4byte	.LASF78
 2815 0803 01       		.byte	0x1
 2816 0804 C301     		.2byte	0x1c3
 2817 0806 20010000 		.4byte	0x120
 2818 080a 02       		.byte	0x2
 2819 080b 91       		.byte	0x91
 2820 080c 73       		.sleb128 -13
 2821 080d 00       		.byte	0
 2822 080e 11       		.uleb128 0x11
 2823 080f 01       		.byte	0x1
 2824 0810 68020000 		.4byte	.LASF91
 2825 0814 01       		.byte	0x1
 2826 0815 AB01     		.2byte	0x1ab
 2827 0817 01       		.byte	0x1
 2828 0818 DE020000 		.4byte	.LFB34
 2829 081c 1C030000 		.4byte	.LFE34
 2830 0820 1C060000 		.4byte	.LLST5
 2831 0824 01       		.byte	0x1
 2832 0825 48080000 		.4byte	0x848
 2833 0829 12       		.uleb128 0x12
 2834 082a F7040000 		.4byte	.LASF61
 2835 082e 01       		.byte	0x1
 2836 082f AB01     		.2byte	0x1ab
 2837 0831 EB030000 		.4byte	0x3eb
 2838 0835 02       		.byte	0x2
 2839 0836 91       		.byte	0x91
 2840 0837 74       		.sleb128 -12
 2841 0838 12       		.uleb128 0x12
 2842 0839 60010000 		.4byte	.LASF78
 2843 083d 01       		.byte	0x1
 2844 083e AB01     		.2byte	0x1ab
 2845 0840 20010000 		.4byte	0x120
ARM GAS  G:\Users\Jaxb\AppData\Local\Temp\ccN59N5m.s 			page 67


 2846 0844 02       		.byte	0x2
 2847 0845 91       		.byte	0x91
 2848 0846 73       		.sleb128 -13
 2849 0847 00       		.byte	0
 2850 0848 11       		.uleb128 0x11
 2851 0849 01       		.byte	0x1
 2852 084a DC010000 		.4byte	.LASF92
 2853 084e 01       		.byte	0x1
 2854 084f 8E01     		.2byte	0x18e
 2855 0851 01       		.byte	0x1
 2856 0852 A8020000 		.4byte	.LFB33
 2857 0856 DE020000 		.4byte	.LFE33
 2858 085a 78060000 		.4byte	.LLST4
 2859 085e 01       		.byte	0x1
 2860 085f 73080000 		.4byte	0x873
 2861 0863 12       		.uleb128 0x12
 2862 0864 71010000 		.4byte	.LASF93
 2863 0868 01       		.byte	0x1
 2864 0869 8E01     		.2byte	0x18e
 2865 086b 73080000 		.4byte	0x873
 2866 086f 02       		.byte	0x2
 2867 0870 91       		.byte	0x91
 2868 0871 74       		.sleb128 -12
 2869 0872 00       		.byte	0
 2870 0873 14       		.uleb128 0x14
 2871 0874 04       		.byte	0x4
 2872 0875 97030000 		.4byte	0x397
 2873 0879 11       		.uleb128 0x11
 2874 087a 01       		.byte	0x1
 2875 087b 54040000 		.4byte	.LASF94
 2876 087f 01       		.byte	0x1
 2877 0880 7201     		.2byte	0x172
 2878 0882 01       		.byte	0x1
 2879 0883 60020000 		.4byte	.LFB32
 2880 0887 A8020000 		.4byte	.LFE32
 2881 088b D4060000 		.4byte	.LLST3
 2882 088f 01       		.byte	0x1
 2883 0890 A4080000 		.4byte	0x8a4
 2884 0894 12       		.uleb128 0x12
 2885 0895 2D060000 		.4byte	.LASF95
 2886 0899 01       		.byte	0x1
 2887 089a 7201     		.2byte	0x172
 2888 089c A4080000 		.4byte	0x8a4
 2889 08a0 02       		.byte	0x2
 2890 08a1 91       		.byte	0x91
 2891 08a2 74       		.sleb128 -12
 2892 08a3 00       		.byte	0
 2893 08a4 14       		.uleb128 0x14
 2894 08a5 04       		.byte	0x4
 2895 08a6 2F030000 		.4byte	0x32f
 2896 08aa 16       		.uleb128 0x16
 2897 08ab 01       		.byte	0x1
 2898 08ac A5010000 		.4byte	.LASF96
 2899 08b0 01       		.byte	0x1
 2900 08b1 DB       		.byte	0xdb
 2901 08b2 01       		.byte	0x1
 2902 08b3 FA000000 		.4byte	.LFB31
ARM GAS  G:\Users\Jaxb\AppData\Local\Temp\ccN59N5m.s 			page 68


 2903 08b7 60020000 		.4byte	.LFE31
 2904 08bb 30070000 		.4byte	.LLST2
 2905 08bf 01       		.byte	0x1
 2906 08c0 43090000 		.4byte	0x943
 2907 08c4 17       		.uleb128 0x17
 2908 08c5 F7040000 		.4byte	.LASF61
 2909 08c9 01       		.byte	0x1
 2910 08ca DB       		.byte	0xdb
 2911 08cb EB030000 		.4byte	0x3eb
 2912 08cf 02       		.byte	0x2
 2913 08d0 91       		.byte	0x91
 2914 08d1 4C       		.sleb128 -52
 2915 08d2 17       		.uleb128 0x17
 2916 08d3 71010000 		.4byte	.LASF93
 2917 08d7 01       		.byte	0x1
 2918 08d8 DB       		.byte	0xdb
 2919 08d9 73080000 		.4byte	0x873
 2920 08dd 02       		.byte	0x2
 2921 08de 91       		.byte	0x91
 2922 08df 48       		.sleb128 -56
 2923 08e0 18       		.uleb128 0x18
 2924 08e1 61020000 		.4byte	.LASF97
 2925 08e5 01       		.byte	0x1
 2926 08e6 DD       		.byte	0xdd
 2927 08e7 9C000000 		.4byte	0x9c
 2928 08eb 02       		.byte	0x2
 2929 08ec 91       		.byte	0x91
 2930 08ed 6A       		.sleb128 -22
 2931 08ee 18       		.uleb128 0x18
 2932 08ef 07020000 		.4byte	.LASF98
 2933 08f3 01       		.byte	0x1
 2934 08f4 DD       		.byte	0xdd
 2935 08f5 9C000000 		.4byte	0x9c
 2936 08f9 02       		.byte	0x2
 2937 08fa 91       		.byte	0x91
 2938 08fb 76       		.sleb128 -10
 2939 08fc 18       		.uleb128 0x18
 2940 08fd B2050000 		.4byte	.LASF99
 2941 0901 01       		.byte	0x1
 2942 0902 DD       		.byte	0xdd
 2943 0903 9C000000 		.4byte	0x9c
 2944 0907 02       		.byte	0x2
 2945 0908 91       		.byte	0x91
 2946 0909 74       		.sleb128 -12
 2947 090a 18       		.uleb128 0x18
 2948 090b 9F000000 		.4byte	.LASF100
 2949 090f 01       		.byte	0x1
 2950 0910 DD       		.byte	0xdd
 2951 0911 9C000000 		.4byte	0x9c
 2952 0915 02       		.byte	0x2
 2953 0916 91       		.byte	0x91
 2954 0917 72       		.sleb128 -14
 2955 0918 19       		.uleb128 0x19
 2956 0919 746D7000 		.ascii	"tmp\000"
 2957 091d 01       		.byte	0x1
 2958 091e DE       		.byte	0xde
 2959 091f AC000000 		.4byte	0xac
ARM GAS  G:\Users\Jaxb\AppData\Local\Temp\ccN59N5m.s 			page 69


 2960 0923 02       		.byte	0x2
 2961 0924 91       		.byte	0x91
 2962 0925 6C       		.sleb128 -20
 2963 0926 18       		.uleb128 0x18
 2964 0927 AB030000 		.4byte	.LASF101
 2965 092b 01       		.byte	0x1
 2966 092c DF       		.byte	0xdf
 2967 092d 9D020000 		.4byte	0x29d
 2968 0931 02       		.byte	0x2
 2969 0932 91       		.byte	0x91
 2970 0933 50       		.sleb128 -48
 2971 0934 18       		.uleb128 0x18
 2972 0935 4A010000 		.4byte	.LASF102
 2973 0939 01       		.byte	0x1
 2974 093a E0       		.byte	0xe0
 2975 093b AC000000 		.4byte	0xac
 2976 093f 02       		.byte	0x2
 2977 0940 91       		.byte	0x91
 2978 0941 64       		.sleb128 -28
 2979 0942 00       		.byte	0
 2980 0943 1A       		.uleb128 0x1a
 2981 0944 01       		.byte	0x1
 2982 0945 71000000 		.4byte	.LASF103
 2983 0949 01       		.byte	0x1
 2984 094a 9E       		.byte	0x9e
 2985 094b 01       		.byte	0x1
 2986 094c 74000000 		.4byte	.LFB30
 2987 0950 FA000000 		.4byte	.LFE30
 2988 0954 80070000 		.4byte	.LLST1
 2989 0958 01       		.byte	0x1
 2990 0959 88090000 		.4byte	0x988
 2991 095d 17       		.uleb128 0x17
 2992 095e F7040000 		.4byte	.LASF61
 2993 0962 01       		.byte	0x1
 2994 0963 9E       		.byte	0x9e
 2995 0964 EB030000 		.4byte	0x3eb
 2996 0968 02       		.byte	0x2
 2997 0969 91       		.byte	0x91
 2998 096a 6C       		.sleb128 -20
 2999 096b 17       		.uleb128 0x17
 3000 096c 2D060000 		.4byte	.LASF95
 3001 0970 01       		.byte	0x1
 3002 0971 9E       		.byte	0x9e
 3003 0972 A4080000 		.4byte	0x8a4
 3004 0976 02       		.byte	0x2
 3005 0977 91       		.byte	0x91
 3006 0978 68       		.sleb128 -24
 3007 0979 18       		.uleb128 0x18
 3008 097a 61020000 		.4byte	.LASF97
 3009 097e 01       		.byte	0x1
 3010 097f A0       		.byte	0xa0
 3011 0980 9C000000 		.4byte	0x9c
 3012 0984 02       		.byte	0x2
 3013 0985 91       		.byte	0x91
 3014 0986 76       		.sleb128 -10
 3015 0987 00       		.byte	0
 3016 0988 1B       		.uleb128 0x1b
ARM GAS  G:\Users\Jaxb\AppData\Local\Temp\ccN59N5m.s 			page 70


 3017 0989 01       		.byte	0x1
 3018 098a AB020000 		.4byte	.LASF107
 3019 098e 01       		.byte	0x1
 3020 098f 77       		.byte	0x77
 3021 0990 01       		.byte	0x1
 3022 0991 00000000 		.4byte	.LFB29
 3023 0995 74000000 		.4byte	.LFE29
 3024 0999 DC070000 		.4byte	.LLST0
 3025 099d 01       		.byte	0x1
 3026 099e 17       		.uleb128 0x17
 3027 099f F7040000 		.4byte	.LASF61
 3028 09a3 01       		.byte	0x1
 3029 09a4 77       		.byte	0x77
 3030 09a5 EB030000 		.4byte	0x3eb
 3031 09a9 02       		.byte	0x2
 3032 09aa 91       		.byte	0x91
 3033 09ab 74       		.sleb128 -12
 3034 09ac 00       		.byte	0
 3035 09ad 00       		.byte	0
 3036              		.section	.debug_abbrev,"",%progbits
 3037              	.Ldebug_abbrev0:
 3038 0000 01       		.uleb128 0x1
 3039 0001 11       		.uleb128 0x11
 3040 0002 01       		.byte	0x1
 3041 0003 25       		.uleb128 0x25
 3042 0004 0E       		.uleb128 0xe
 3043 0005 13       		.uleb128 0x13
 3044 0006 0B       		.uleb128 0xb
 3045 0007 03       		.uleb128 0x3
 3046 0008 0E       		.uleb128 0xe
 3047 0009 1B       		.uleb128 0x1b
 3048 000a 0E       		.uleb128 0xe
 3049 000b 11       		.uleb128 0x11
 3050 000c 01       		.uleb128 0x1
 3051 000d 12       		.uleb128 0x12
 3052 000e 01       		.uleb128 0x1
 3053 000f 10       		.uleb128 0x10
 3054 0010 06       		.uleb128 0x6
 3055 0011 00       		.byte	0
 3056 0012 00       		.byte	0
 3057 0013 02       		.uleb128 0x2
 3058 0014 24       		.uleb128 0x24
 3059 0015 00       		.byte	0
 3060 0016 0B       		.uleb128 0xb
 3061 0017 0B       		.uleb128 0xb
 3062 0018 3E       		.uleb128 0x3e
 3063 0019 0B       		.uleb128 0xb
 3064 001a 03       		.uleb128 0x3
 3065 001b 0E       		.uleb128 0xe
 3066 001c 00       		.byte	0
 3067 001d 00       		.byte	0
 3068 001e 03       		.uleb128 0x3
 3069 001f 16       		.uleb128 0x16
 3070 0020 00       		.byte	0
 3071 0021 03       		.uleb128 0x3
 3072 0022 0E       		.uleb128 0xe
 3073 0023 3A       		.uleb128 0x3a
ARM GAS  G:\Users\Jaxb\AppData\Local\Temp\ccN59N5m.s 			page 71


 3074 0024 0B       		.uleb128 0xb
 3075 0025 3B       		.uleb128 0x3b
 3076 0026 0B       		.uleb128 0xb
 3077 0027 49       		.uleb128 0x49
 3078 0028 13       		.uleb128 0x13
 3079 0029 00       		.byte	0
 3080 002a 00       		.byte	0
 3081 002b 04       		.uleb128 0x4
 3082 002c 24       		.uleb128 0x24
 3083 002d 00       		.byte	0
 3084 002e 0B       		.uleb128 0xb
 3085 002f 0B       		.uleb128 0xb
 3086 0030 3E       		.uleb128 0x3e
 3087 0031 0B       		.uleb128 0xb
 3088 0032 03       		.uleb128 0x3
 3089 0033 08       		.uleb128 0x8
 3090 0034 00       		.byte	0
 3091 0035 00       		.byte	0
 3092 0036 05       		.uleb128 0x5
 3093 0037 35       		.uleb128 0x35
 3094 0038 00       		.byte	0
 3095 0039 49       		.uleb128 0x49
 3096 003a 13       		.uleb128 0x13
 3097 003b 00       		.byte	0
 3098 003c 00       		.byte	0
 3099 003d 06       		.uleb128 0x6
 3100 003e 34       		.uleb128 0x34
 3101 003f 00       		.byte	0
 3102 0040 03       		.uleb128 0x3
 3103 0041 0E       		.uleb128 0xe
 3104 0042 3A       		.uleb128 0x3a
 3105 0043 0B       		.uleb128 0xb
 3106 0044 3B       		.uleb128 0x3b
 3107 0045 05       		.uleb128 0x5
 3108 0046 49       		.uleb128 0x49
 3109 0047 13       		.uleb128 0x13
 3110 0048 3F       		.uleb128 0x3f
 3111 0049 0C       		.uleb128 0xc
 3112 004a 3C       		.uleb128 0x3c
 3113 004b 0C       		.uleb128 0xc
 3114 004c 00       		.byte	0
 3115 004d 00       		.byte	0
 3116 004e 07       		.uleb128 0x7
 3117 004f 34       		.uleb128 0x34
 3118 0050 00       		.byte	0
 3119 0051 03       		.uleb128 0x3
 3120 0052 0E       		.uleb128 0xe
 3121 0053 3A       		.uleb128 0x3a
 3122 0054 0B       		.uleb128 0xb
 3123 0055 3B       		.uleb128 0x3b
 3124 0056 0B       		.uleb128 0xb
 3125 0057 49       		.uleb128 0x49
 3126 0058 13       		.uleb128 0x13
 3127 0059 3F       		.uleb128 0x3f
 3128 005a 0C       		.uleb128 0xc
 3129 005b 3C       		.uleb128 0x3c
 3130 005c 0C       		.uleb128 0xc
ARM GAS  G:\Users\Jaxb\AppData\Local\Temp\ccN59N5m.s 			page 72


 3131 005d 00       		.byte	0
 3132 005e 00       		.byte	0
 3133 005f 08       		.uleb128 0x8
 3134 0060 04       		.uleb128 0x4
 3135 0061 01       		.byte	0x1
 3136 0062 3E       		.uleb128 0x3e
 3137 0063 0B       		.uleb128 0xb
 3138 0064 0B       		.uleb128 0xb
 3139 0065 0B       		.uleb128 0xb
 3140 0066 49       		.uleb128 0x49
 3141 0067 13       		.uleb128 0x13
 3142 0068 3A       		.uleb128 0x3a
 3143 0069 0B       		.uleb128 0xb
 3144 006a 3B       		.uleb128 0x3b
 3145 006b 05       		.uleb128 0x5
 3146 006c 01       		.uleb128 0x1
 3147 006d 13       		.uleb128 0x13
 3148 006e 00       		.byte	0
 3149 006f 00       		.byte	0
 3150 0070 09       		.uleb128 0x9
 3151 0071 28       		.uleb128 0x28
 3152 0072 00       		.byte	0
 3153 0073 03       		.uleb128 0x3
 3154 0074 0E       		.uleb128 0xe
 3155 0075 1C       		.uleb128 0x1c
 3156 0076 0B       		.uleb128 0xb
 3157 0077 00       		.byte	0
 3158 0078 00       		.byte	0
 3159 0079 0A       		.uleb128 0xa
 3160 007a 28       		.uleb128 0x28
 3161 007b 00       		.byte	0
 3162 007c 03       		.uleb128 0x3
 3163 007d 08       		.uleb128 0x8
 3164 007e 1C       		.uleb128 0x1c
 3165 007f 0B       		.uleb128 0xb
 3166 0080 00       		.byte	0
 3167 0081 00       		.byte	0
 3168 0082 0B       		.uleb128 0xb
 3169 0083 16       		.uleb128 0x16
 3170 0084 00       		.byte	0
 3171 0085 03       		.uleb128 0x3
 3172 0086 0E       		.uleb128 0xe
 3173 0087 3A       		.uleb128 0x3a
 3174 0088 0B       		.uleb128 0xb
 3175 0089 3B       		.uleb128 0x3b
 3176 008a 05       		.uleb128 0x5
 3177 008b 49       		.uleb128 0x49
 3178 008c 13       		.uleb128 0x13
 3179 008d 00       		.byte	0
 3180 008e 00       		.byte	0
 3181 008f 0C       		.uleb128 0xc
 3182 0090 13       		.uleb128 0x13
 3183 0091 01       		.byte	0x1
 3184 0092 0B       		.uleb128 0xb
 3185 0093 0B       		.uleb128 0xb
 3186 0094 3A       		.uleb128 0x3a
 3187 0095 0B       		.uleb128 0xb
ARM GAS  G:\Users\Jaxb\AppData\Local\Temp\ccN59N5m.s 			page 73


 3188 0096 3B       		.uleb128 0x3b
 3189 0097 05       		.uleb128 0x5
 3190 0098 01       		.uleb128 0x1
 3191 0099 13       		.uleb128 0x13
 3192 009a 00       		.byte	0
 3193 009b 00       		.byte	0
 3194 009c 0D       		.uleb128 0xd
 3195 009d 0D       		.uleb128 0xd
 3196 009e 00       		.byte	0
 3197 009f 03       		.uleb128 0x3
 3198 00a0 08       		.uleb128 0x8
 3199 00a1 3A       		.uleb128 0x3a
 3200 00a2 0B       		.uleb128 0xb
 3201 00a3 3B       		.uleb128 0x3b
 3202 00a4 05       		.uleb128 0x5
 3203 00a5 49       		.uleb128 0x49
 3204 00a6 13       		.uleb128 0x13
 3205 00a7 38       		.uleb128 0x38
 3206 00a8 0A       		.uleb128 0xa
 3207 00a9 00       		.byte	0
 3208 00aa 00       		.byte	0
 3209 00ab 0E       		.uleb128 0xe
 3210 00ac 0D       		.uleb128 0xd
 3211 00ad 00       		.byte	0
 3212 00ae 03       		.uleb128 0x3
 3213 00af 0E       		.uleb128 0xe
 3214 00b0 3A       		.uleb128 0x3a
 3215 00b1 0B       		.uleb128 0xb
 3216 00b2 3B       		.uleb128 0x3b
 3217 00b3 05       		.uleb128 0x5
 3218 00b4 49       		.uleb128 0x49
 3219 00b5 13       		.uleb128 0x13
 3220 00b6 38       		.uleb128 0x38
 3221 00b7 0A       		.uleb128 0xa
 3222 00b8 00       		.byte	0
 3223 00b9 00       		.byte	0
 3224 00ba 0F       		.uleb128 0xf
 3225 00bb 13       		.uleb128 0x13
 3226 00bc 01       		.byte	0x1
 3227 00bd 0B       		.uleb128 0xb
 3228 00be 0B       		.uleb128 0xb
 3229 00bf 3A       		.uleb128 0x3a
 3230 00c0 0B       		.uleb128 0xb
 3231 00c1 3B       		.uleb128 0x3b
 3232 00c2 0B       		.uleb128 0xb
 3233 00c3 01       		.uleb128 0x1
 3234 00c4 13       		.uleb128 0x13
 3235 00c5 00       		.byte	0
 3236 00c6 00       		.byte	0
 3237 00c7 10       		.uleb128 0x10
 3238 00c8 0D       		.uleb128 0xd
 3239 00c9 00       		.byte	0
 3240 00ca 03       		.uleb128 0x3
 3241 00cb 0E       		.uleb128 0xe
 3242 00cc 3A       		.uleb128 0x3a
 3243 00cd 0B       		.uleb128 0xb
 3244 00ce 3B       		.uleb128 0x3b
ARM GAS  G:\Users\Jaxb\AppData\Local\Temp\ccN59N5m.s 			page 74


 3245 00cf 0B       		.uleb128 0xb
 3246 00d0 49       		.uleb128 0x49
 3247 00d1 13       		.uleb128 0x13
 3248 00d2 38       		.uleb128 0x38
 3249 00d3 0A       		.uleb128 0xa
 3250 00d4 00       		.byte	0
 3251 00d5 00       		.byte	0
 3252 00d6 11       		.uleb128 0x11
 3253 00d7 2E       		.uleb128 0x2e
 3254 00d8 01       		.byte	0x1
 3255 00d9 3F       		.uleb128 0x3f
 3256 00da 0C       		.uleb128 0xc
 3257 00db 03       		.uleb128 0x3
 3258 00dc 0E       		.uleb128 0xe
 3259 00dd 3A       		.uleb128 0x3a
 3260 00de 0B       		.uleb128 0xb
 3261 00df 3B       		.uleb128 0x3b
 3262 00e0 05       		.uleb128 0x5
 3263 00e1 27       		.uleb128 0x27
 3264 00e2 0C       		.uleb128 0xc
 3265 00e3 11       		.uleb128 0x11
 3266 00e4 01       		.uleb128 0x1
 3267 00e5 12       		.uleb128 0x12
 3268 00e6 01       		.uleb128 0x1
 3269 00e7 40       		.uleb128 0x40
 3270 00e8 06       		.uleb128 0x6
 3271 00e9 9742     		.uleb128 0x2117
 3272 00eb 0C       		.uleb128 0xc
 3273 00ec 01       		.uleb128 0x1
 3274 00ed 13       		.uleb128 0x13
 3275 00ee 00       		.byte	0
 3276 00ef 00       		.byte	0
 3277 00f0 12       		.uleb128 0x12
 3278 00f1 05       		.uleb128 0x5
 3279 00f2 00       		.byte	0
 3280 00f3 03       		.uleb128 0x3
 3281 00f4 0E       		.uleb128 0xe
 3282 00f5 3A       		.uleb128 0x3a
 3283 00f6 0B       		.uleb128 0xb
 3284 00f7 3B       		.uleb128 0x3b
 3285 00f8 05       		.uleb128 0x5
 3286 00f9 49       		.uleb128 0x49
 3287 00fa 13       		.uleb128 0x13
 3288 00fb 02       		.uleb128 0x2
 3289 00fc 0A       		.uleb128 0xa
 3290 00fd 00       		.byte	0
 3291 00fe 00       		.byte	0
 3292 00ff 13       		.uleb128 0x13
 3293 0100 34       		.uleb128 0x34
 3294 0101 00       		.byte	0
 3295 0102 03       		.uleb128 0x3
 3296 0103 0E       		.uleb128 0xe
 3297 0104 3A       		.uleb128 0x3a
 3298 0105 0B       		.uleb128 0xb
 3299 0106 3B       		.uleb128 0x3b
 3300 0107 05       		.uleb128 0x5
 3301 0108 49       		.uleb128 0x49
ARM GAS  G:\Users\Jaxb\AppData\Local\Temp\ccN59N5m.s 			page 75


 3302 0109 13       		.uleb128 0x13
 3303 010a 02       		.uleb128 0x2
 3304 010b 0A       		.uleb128 0xa
 3305 010c 00       		.byte	0
 3306 010d 00       		.byte	0
 3307 010e 14       		.uleb128 0x14
 3308 010f 0F       		.uleb128 0xf
 3309 0110 00       		.byte	0
 3310 0111 0B       		.uleb128 0xb
 3311 0112 0B       		.uleb128 0xb
 3312 0113 49       		.uleb128 0x49
 3313 0114 13       		.uleb128 0x13
 3314 0115 00       		.byte	0
 3315 0116 00       		.byte	0
 3316 0117 15       		.uleb128 0x15
 3317 0118 2E       		.uleb128 0x2e
 3318 0119 01       		.byte	0x1
 3319 011a 3F       		.uleb128 0x3f
 3320 011b 0C       		.uleb128 0xc
 3321 011c 03       		.uleb128 0x3
 3322 011d 0E       		.uleb128 0xe
 3323 011e 3A       		.uleb128 0x3a
 3324 011f 0B       		.uleb128 0xb
 3325 0120 3B       		.uleb128 0x3b
 3326 0121 05       		.uleb128 0x5
 3327 0122 27       		.uleb128 0x27
 3328 0123 0C       		.uleb128 0xc
 3329 0124 49       		.uleb128 0x49
 3330 0125 13       		.uleb128 0x13
 3331 0126 11       		.uleb128 0x11
 3332 0127 01       		.uleb128 0x1
 3333 0128 12       		.uleb128 0x12
 3334 0129 01       		.uleb128 0x1
 3335 012a 40       		.uleb128 0x40
 3336 012b 06       		.uleb128 0x6
 3337 012c 9742     		.uleb128 0x2117
 3338 012e 0C       		.uleb128 0xc
 3339 012f 01       		.uleb128 0x1
 3340 0130 13       		.uleb128 0x13
 3341 0131 00       		.byte	0
 3342 0132 00       		.byte	0
 3343 0133 16       		.uleb128 0x16
 3344 0134 2E       		.uleb128 0x2e
 3345 0135 01       		.byte	0x1
 3346 0136 3F       		.uleb128 0x3f
 3347 0137 0C       		.uleb128 0xc
 3348 0138 03       		.uleb128 0x3
 3349 0139 0E       		.uleb128 0xe
 3350 013a 3A       		.uleb128 0x3a
 3351 013b 0B       		.uleb128 0xb
 3352 013c 3B       		.uleb128 0x3b
 3353 013d 0B       		.uleb128 0xb
 3354 013e 27       		.uleb128 0x27
 3355 013f 0C       		.uleb128 0xc
 3356 0140 11       		.uleb128 0x11
 3357 0141 01       		.uleb128 0x1
 3358 0142 12       		.uleb128 0x12
ARM GAS  G:\Users\Jaxb\AppData\Local\Temp\ccN59N5m.s 			page 76


 3359 0143 01       		.uleb128 0x1
 3360 0144 40       		.uleb128 0x40
 3361 0145 06       		.uleb128 0x6
 3362 0146 9642     		.uleb128 0x2116
 3363 0148 0C       		.uleb128 0xc
 3364 0149 01       		.uleb128 0x1
 3365 014a 13       		.uleb128 0x13
 3366 014b 00       		.byte	0
 3367 014c 00       		.byte	0
 3368 014d 17       		.uleb128 0x17
 3369 014e 05       		.uleb128 0x5
 3370 014f 00       		.byte	0
 3371 0150 03       		.uleb128 0x3
 3372 0151 0E       		.uleb128 0xe
 3373 0152 3A       		.uleb128 0x3a
 3374 0153 0B       		.uleb128 0xb
 3375 0154 3B       		.uleb128 0x3b
 3376 0155 0B       		.uleb128 0xb
 3377 0156 49       		.uleb128 0x49
 3378 0157 13       		.uleb128 0x13
 3379 0158 02       		.uleb128 0x2
 3380 0159 0A       		.uleb128 0xa
 3381 015a 00       		.byte	0
 3382 015b 00       		.byte	0
 3383 015c 18       		.uleb128 0x18
 3384 015d 34       		.uleb128 0x34
 3385 015e 00       		.byte	0
 3386 015f 03       		.uleb128 0x3
 3387 0160 0E       		.uleb128 0xe
 3388 0161 3A       		.uleb128 0x3a
 3389 0162 0B       		.uleb128 0xb
 3390 0163 3B       		.uleb128 0x3b
 3391 0164 0B       		.uleb128 0xb
 3392 0165 49       		.uleb128 0x49
 3393 0166 13       		.uleb128 0x13
 3394 0167 02       		.uleb128 0x2
 3395 0168 0A       		.uleb128 0xa
 3396 0169 00       		.byte	0
 3397 016a 00       		.byte	0
 3398 016b 19       		.uleb128 0x19
 3399 016c 34       		.uleb128 0x34
 3400 016d 00       		.byte	0
 3401 016e 03       		.uleb128 0x3
 3402 016f 08       		.uleb128 0x8
 3403 0170 3A       		.uleb128 0x3a
 3404 0171 0B       		.uleb128 0xb
 3405 0172 3B       		.uleb128 0x3b
 3406 0173 0B       		.uleb128 0xb
 3407 0174 49       		.uleb128 0x49
 3408 0175 13       		.uleb128 0x13
 3409 0176 02       		.uleb128 0x2
 3410 0177 0A       		.uleb128 0xa
 3411 0178 00       		.byte	0
 3412 0179 00       		.byte	0
 3413 017a 1A       		.uleb128 0x1a
 3414 017b 2E       		.uleb128 0x2e
 3415 017c 01       		.byte	0x1
ARM GAS  G:\Users\Jaxb\AppData\Local\Temp\ccN59N5m.s 			page 77


 3416 017d 3F       		.uleb128 0x3f
 3417 017e 0C       		.uleb128 0xc
 3418 017f 03       		.uleb128 0x3
 3419 0180 0E       		.uleb128 0xe
 3420 0181 3A       		.uleb128 0x3a
 3421 0182 0B       		.uleb128 0xb
 3422 0183 3B       		.uleb128 0x3b
 3423 0184 0B       		.uleb128 0xb
 3424 0185 27       		.uleb128 0x27
 3425 0186 0C       		.uleb128 0xc
 3426 0187 11       		.uleb128 0x11
 3427 0188 01       		.uleb128 0x1
 3428 0189 12       		.uleb128 0x12
 3429 018a 01       		.uleb128 0x1
 3430 018b 40       		.uleb128 0x40
 3431 018c 06       		.uleb128 0x6
 3432 018d 9742     		.uleb128 0x2117
 3433 018f 0C       		.uleb128 0xc
 3434 0190 01       		.uleb128 0x1
 3435 0191 13       		.uleb128 0x13
 3436 0192 00       		.byte	0
 3437 0193 00       		.byte	0
 3438 0194 1B       		.uleb128 0x1b
 3439 0195 2E       		.uleb128 0x2e
 3440 0196 01       		.byte	0x1
 3441 0197 3F       		.uleb128 0x3f
 3442 0198 0C       		.uleb128 0xc
 3443 0199 03       		.uleb128 0x3
 3444 019a 0E       		.uleb128 0xe
 3445 019b 3A       		.uleb128 0x3a
 3446 019c 0B       		.uleb128 0xb
 3447 019d 3B       		.uleb128 0x3b
 3448 019e 0B       		.uleb128 0xb
 3449 019f 27       		.uleb128 0x27
 3450 01a0 0C       		.uleb128 0xc
 3451 01a1 11       		.uleb128 0x11
 3452 01a2 01       		.uleb128 0x1
 3453 01a3 12       		.uleb128 0x12
 3454 01a4 01       		.uleb128 0x1
 3455 01a5 40       		.uleb128 0x40
 3456 01a6 06       		.uleb128 0x6
 3457 01a7 9642     		.uleb128 0x2116
 3458 01a9 0C       		.uleb128 0xc
 3459 01aa 00       		.byte	0
 3460 01ab 00       		.byte	0
 3461 01ac 00       		.byte	0
 3462              		.section	.debug_loc,"",%progbits
 3463              	.Ldebug_loc0:
 3464              	.LLST22:
 3465 0000 9C060000 		.4byte	.LFB51-.Ltext0
 3466 0004 9E060000 		.4byte	.LCFI130-.Ltext0
 3467 0008 0200     		.2byte	0x2
 3468 000a 7D       		.byte	0x7d
 3469 000b 00       		.sleb128 0
 3470 000c 9E060000 		.4byte	.LCFI130-.Ltext0
 3471 0010 A0060000 		.4byte	.LCFI131-.Ltext0
 3472 0014 0200     		.2byte	0x2
ARM GAS  G:\Users\Jaxb\AppData\Local\Temp\ccN59N5m.s 			page 78


 3473 0016 7D       		.byte	0x7d
 3474 0017 04       		.sleb128 4
 3475 0018 A0060000 		.4byte	.LCFI131-.Ltext0
 3476 001c A2060000 		.4byte	.LCFI132-.Ltext0
 3477 0020 0200     		.2byte	0x2
 3478 0022 7D       		.byte	0x7d
 3479 0023 18       		.sleb128 24
 3480 0024 A2060000 		.4byte	.LCFI132-.Ltext0
 3481 0028 C8060000 		.4byte	.LCFI133-.Ltext0
 3482 002c 0200     		.2byte	0x2
 3483 002e 77       		.byte	0x77
 3484 002f 18       		.sleb128 24
 3485 0030 C8060000 		.4byte	.LCFI133-.Ltext0
 3486 0034 CA060000 		.4byte	.LCFI134-.Ltext0
 3487 0038 0200     		.2byte	0x2
 3488 003a 77       		.byte	0x77
 3489 003b 04       		.sleb128 4
 3490 003c CA060000 		.4byte	.LCFI134-.Ltext0
 3491 0040 CC060000 		.4byte	.LCFI135-.Ltext0
 3492 0044 0200     		.2byte	0x2
 3493 0046 7D       		.byte	0x7d
 3494 0047 04       		.sleb128 4
 3495 0048 CC060000 		.4byte	.LCFI135-.Ltext0
 3496 004c CE060000 		.4byte	.LFE51-.Ltext0
 3497 0050 0200     		.2byte	0x2
 3498 0052 7D       		.byte	0x7d
 3499 0053 00       		.sleb128 0
 3500 0054 00000000 		.4byte	0
 3501 0058 00000000 		.4byte	0
 3502              	.LLST21:
 3503 005c 28060000 		.4byte	.LFB50-.Ltext0
 3504 0060 2A060000 		.4byte	.LCFI124-.Ltext0
 3505 0064 0200     		.2byte	0x2
 3506 0066 7D       		.byte	0x7d
 3507 0067 00       		.sleb128 0
 3508 0068 2A060000 		.4byte	.LCFI124-.Ltext0
 3509 006c 2C060000 		.4byte	.LCFI125-.Ltext0
 3510 0070 0200     		.2byte	0x2
 3511 0072 7D       		.byte	0x7d
 3512 0073 04       		.sleb128 4
 3513 0074 2C060000 		.4byte	.LCFI125-.Ltext0
 3514 0078 2E060000 		.4byte	.LCFI126-.Ltext0
 3515 007c 0200     		.2byte	0x2
 3516 007e 7D       		.byte	0x7d
 3517 007f 18       		.sleb128 24
 3518 0080 2E060000 		.4byte	.LCFI126-.Ltext0
 3519 0084 96060000 		.4byte	.LCFI127-.Ltext0
 3520 0088 0200     		.2byte	0x2
 3521 008a 77       		.byte	0x77
 3522 008b 18       		.sleb128 24
 3523 008c 96060000 		.4byte	.LCFI127-.Ltext0
 3524 0090 98060000 		.4byte	.LCFI128-.Ltext0
 3525 0094 0200     		.2byte	0x2
 3526 0096 77       		.byte	0x77
 3527 0097 04       		.sleb128 4
 3528 0098 98060000 		.4byte	.LCFI128-.Ltext0
 3529 009c 9A060000 		.4byte	.LCFI129-.Ltext0
ARM GAS  G:\Users\Jaxb\AppData\Local\Temp\ccN59N5m.s 			page 79


 3530 00a0 0200     		.2byte	0x2
 3531 00a2 7D       		.byte	0x7d
 3532 00a3 04       		.sleb128 4
 3533 00a4 9A060000 		.4byte	.LCFI129-.Ltext0
 3534 00a8 9C060000 		.4byte	.LFE50-.Ltext0
 3535 00ac 0200     		.2byte	0x2
 3536 00ae 7D       		.byte	0x7d
 3537 00af 00       		.sleb128 0
 3538 00b0 00000000 		.4byte	0
 3539 00b4 00000000 		.4byte	0
 3540              	.LLST20:
 3541 00b8 08060000 		.4byte	.LFB49-.Ltext0
 3542 00bc 0A060000 		.4byte	.LCFI118-.Ltext0
 3543 00c0 0200     		.2byte	0x2
 3544 00c2 7D       		.byte	0x7d
 3545 00c3 00       		.sleb128 0
 3546 00c4 0A060000 		.4byte	.LCFI118-.Ltext0
 3547 00c8 0C060000 		.4byte	.LCFI119-.Ltext0
 3548 00cc 0200     		.2byte	0x2
 3549 00ce 7D       		.byte	0x7d
 3550 00cf 04       		.sleb128 4
 3551 00d0 0C060000 		.4byte	.LCFI119-.Ltext0
 3552 00d4 0E060000 		.4byte	.LCFI120-.Ltext0
 3553 00d8 0200     		.2byte	0x2
 3554 00da 7D       		.byte	0x7d
 3555 00db 10       		.sleb128 16
 3556 00dc 0E060000 		.4byte	.LCFI120-.Ltext0
 3557 00e0 22060000 		.4byte	.LCFI121-.Ltext0
 3558 00e4 0200     		.2byte	0x2
 3559 00e6 77       		.byte	0x77
 3560 00e7 10       		.sleb128 16
 3561 00e8 22060000 		.4byte	.LCFI121-.Ltext0
 3562 00ec 24060000 		.4byte	.LCFI122-.Ltext0
 3563 00f0 0200     		.2byte	0x2
 3564 00f2 77       		.byte	0x77
 3565 00f3 04       		.sleb128 4
 3566 00f4 24060000 		.4byte	.LCFI122-.Ltext0
 3567 00f8 26060000 		.4byte	.LCFI123-.Ltext0
 3568 00fc 0200     		.2byte	0x2
 3569 00fe 7D       		.byte	0x7d
 3570 00ff 04       		.sleb128 4
 3571 0100 26060000 		.4byte	.LCFI123-.Ltext0
 3572 0104 28060000 		.4byte	.LFE49-.Ltext0
 3573 0108 0200     		.2byte	0x2
 3574 010a 7D       		.byte	0x7d
 3575 010b 00       		.sleb128 0
 3576 010c 00000000 		.4byte	0
 3577 0110 00000000 		.4byte	0
 3578              	.LLST19:
 3579 0114 D2050000 		.4byte	.LFB48-.Ltext0
 3580 0118 D4050000 		.4byte	.LCFI112-.Ltext0
 3581 011c 0200     		.2byte	0x2
 3582 011e 7D       		.byte	0x7d
 3583 011f 00       		.sleb128 0
 3584 0120 D4050000 		.4byte	.LCFI112-.Ltext0
 3585 0124 D6050000 		.4byte	.LCFI113-.Ltext0
 3586 0128 0200     		.2byte	0x2
ARM GAS  G:\Users\Jaxb\AppData\Local\Temp\ccN59N5m.s 			page 80


 3587 012a 7D       		.byte	0x7d
 3588 012b 04       		.sleb128 4
 3589 012c D6050000 		.4byte	.LCFI113-.Ltext0
 3590 0130 D8050000 		.4byte	.LCFI114-.Ltext0
 3591 0134 0200     		.2byte	0x2
 3592 0136 7D       		.byte	0x7d
 3593 0137 18       		.sleb128 24
 3594 0138 D8050000 		.4byte	.LCFI114-.Ltext0
 3595 013c 02060000 		.4byte	.LCFI115-.Ltext0
 3596 0140 0200     		.2byte	0x2
 3597 0142 77       		.byte	0x77
 3598 0143 18       		.sleb128 24
 3599 0144 02060000 		.4byte	.LCFI115-.Ltext0
 3600 0148 04060000 		.4byte	.LCFI116-.Ltext0
 3601 014c 0200     		.2byte	0x2
 3602 014e 77       		.byte	0x77
 3603 014f 04       		.sleb128 4
 3604 0150 04060000 		.4byte	.LCFI116-.Ltext0
 3605 0154 06060000 		.4byte	.LCFI117-.Ltext0
 3606 0158 0200     		.2byte	0x2
 3607 015a 7D       		.byte	0x7d
 3608 015b 04       		.sleb128 4
 3609 015c 06060000 		.4byte	.LCFI117-.Ltext0
 3610 0160 08060000 		.4byte	.LFE48-.Ltext0
 3611 0164 0200     		.2byte	0x2
 3612 0166 7D       		.byte	0x7d
 3613 0167 00       		.sleb128 0
 3614 0168 00000000 		.4byte	0
 3615 016c 00000000 		.4byte	0
 3616              	.LLST18:
 3617 0170 92050000 		.4byte	.LFB47-.Ltext0
 3618 0174 94050000 		.4byte	.LCFI106-.Ltext0
 3619 0178 0200     		.2byte	0x2
 3620 017a 7D       		.byte	0x7d
 3621 017b 00       		.sleb128 0
 3622 017c 94050000 		.4byte	.LCFI106-.Ltext0
 3623 0180 96050000 		.4byte	.LCFI107-.Ltext0
 3624 0184 0200     		.2byte	0x2
 3625 0186 7D       		.byte	0x7d
 3626 0187 04       		.sleb128 4
 3627 0188 96050000 		.4byte	.LCFI107-.Ltext0
 3628 018c 98050000 		.4byte	.LCFI108-.Ltext0
 3629 0190 0200     		.2byte	0x2
 3630 0192 7D       		.byte	0x7d
 3631 0193 10       		.sleb128 16
 3632 0194 98050000 		.4byte	.LCFI108-.Ltext0
 3633 0198 CC050000 		.4byte	.LCFI109-.Ltext0
 3634 019c 0200     		.2byte	0x2
 3635 019e 77       		.byte	0x77
 3636 019f 10       		.sleb128 16
 3637 01a0 CC050000 		.4byte	.LCFI109-.Ltext0
 3638 01a4 CE050000 		.4byte	.LCFI110-.Ltext0
 3639 01a8 0200     		.2byte	0x2
 3640 01aa 77       		.byte	0x77
 3641 01ab 04       		.sleb128 4
 3642 01ac CE050000 		.4byte	.LCFI110-.Ltext0
 3643 01b0 D0050000 		.4byte	.LCFI111-.Ltext0
ARM GAS  G:\Users\Jaxb\AppData\Local\Temp\ccN59N5m.s 			page 81


 3644 01b4 0200     		.2byte	0x2
 3645 01b6 7D       		.byte	0x7d
 3646 01b7 04       		.sleb128 4
 3647 01b8 D0050000 		.4byte	.LCFI111-.Ltext0
 3648 01bc D2050000 		.4byte	.LFE47-.Ltext0
 3649 01c0 0200     		.2byte	0x2
 3650 01c2 7D       		.byte	0x7d
 3651 01c3 00       		.sleb128 0
 3652 01c4 00000000 		.4byte	0
 3653 01c8 00000000 		.4byte	0
 3654              	.LLST17:
 3655 01cc 7A050000 		.4byte	.LFB46-.Ltext0
 3656 01d0 7C050000 		.4byte	.LCFI100-.Ltext0
 3657 01d4 0200     		.2byte	0x2
 3658 01d6 7D       		.byte	0x7d
 3659 01d7 00       		.sleb128 0
 3660 01d8 7C050000 		.4byte	.LCFI100-.Ltext0
 3661 01dc 7E050000 		.4byte	.LCFI101-.Ltext0
 3662 01e0 0200     		.2byte	0x2
 3663 01e2 7D       		.byte	0x7d
 3664 01e3 04       		.sleb128 4
 3665 01e4 7E050000 		.4byte	.LCFI101-.Ltext0
 3666 01e8 80050000 		.4byte	.LCFI102-.Ltext0
 3667 01ec 0200     		.2byte	0x2
 3668 01ee 7D       		.byte	0x7d
 3669 01ef 10       		.sleb128 16
 3670 01f0 80050000 		.4byte	.LCFI102-.Ltext0
 3671 01f4 8C050000 		.4byte	.LCFI103-.Ltext0
 3672 01f8 0200     		.2byte	0x2
 3673 01fa 77       		.byte	0x77
 3674 01fb 10       		.sleb128 16
 3675 01fc 8C050000 		.4byte	.LCFI103-.Ltext0
 3676 0200 8E050000 		.4byte	.LCFI104-.Ltext0
 3677 0204 0200     		.2byte	0x2
 3678 0206 77       		.byte	0x77
 3679 0207 04       		.sleb128 4
 3680 0208 8E050000 		.4byte	.LCFI104-.Ltext0
 3681 020c 90050000 		.4byte	.LCFI105-.Ltext0
 3682 0210 0200     		.2byte	0x2
 3683 0212 7D       		.byte	0x7d
 3684 0213 04       		.sleb128 4
 3685 0214 90050000 		.4byte	.LCFI105-.Ltext0
 3686 0218 92050000 		.4byte	.LFE46-.Ltext0
 3687 021c 0200     		.2byte	0x2
 3688 021e 7D       		.byte	0x7d
 3689 021f 00       		.sleb128 0
 3690 0220 00000000 		.4byte	0
 3691 0224 00000000 		.4byte	0
 3692              	.LLST16:
 3693 0228 4A050000 		.4byte	.LFB45-.Ltext0
 3694 022c 4C050000 		.4byte	.LCFI94-.Ltext0
 3695 0230 0200     		.2byte	0x2
 3696 0232 7D       		.byte	0x7d
 3697 0233 00       		.sleb128 0
 3698 0234 4C050000 		.4byte	.LCFI94-.Ltext0
 3699 0238 4E050000 		.4byte	.LCFI95-.Ltext0
 3700 023c 0200     		.2byte	0x2
ARM GAS  G:\Users\Jaxb\AppData\Local\Temp\ccN59N5m.s 			page 82


 3701 023e 7D       		.byte	0x7d
 3702 023f 04       		.sleb128 4
 3703 0240 4E050000 		.4byte	.LCFI95-.Ltext0
 3704 0244 50050000 		.4byte	.LCFI96-.Ltext0
 3705 0248 0200     		.2byte	0x2
 3706 024a 7D       		.byte	0x7d
 3707 024b 18       		.sleb128 24
 3708 024c 50050000 		.4byte	.LCFI96-.Ltext0
 3709 0250 74050000 		.4byte	.LCFI97-.Ltext0
 3710 0254 0200     		.2byte	0x2
 3711 0256 77       		.byte	0x77
 3712 0257 18       		.sleb128 24
 3713 0258 74050000 		.4byte	.LCFI97-.Ltext0
 3714 025c 76050000 		.4byte	.LCFI98-.Ltext0
 3715 0260 0200     		.2byte	0x2
 3716 0262 77       		.byte	0x77
 3717 0263 04       		.sleb128 4
 3718 0264 76050000 		.4byte	.LCFI98-.Ltext0
 3719 0268 78050000 		.4byte	.LCFI99-.Ltext0
 3720 026c 0200     		.2byte	0x2
 3721 026e 7D       		.byte	0x7d
 3722 026f 04       		.sleb128 4
 3723 0270 78050000 		.4byte	.LCFI99-.Ltext0
 3724 0274 7A050000 		.4byte	.LFE45-.Ltext0
 3725 0278 0200     		.2byte	0x2
 3726 027a 7D       		.byte	0x7d
 3727 027b 00       		.sleb128 0
 3728 027c 00000000 		.4byte	0
 3729 0280 00000000 		.4byte	0
 3730              	.LLST15:
 3731 0284 0C050000 		.4byte	.LFB44-.Ltext0
 3732 0288 0E050000 		.4byte	.LCFI88-.Ltext0
 3733 028c 0200     		.2byte	0x2
 3734 028e 7D       		.byte	0x7d
 3735 028f 00       		.sleb128 0
 3736 0290 0E050000 		.4byte	.LCFI88-.Ltext0
 3737 0294 10050000 		.4byte	.LCFI89-.Ltext0
 3738 0298 0200     		.2byte	0x2
 3739 029a 7D       		.byte	0x7d
 3740 029b 04       		.sleb128 4
 3741 029c 10050000 		.4byte	.LCFI89-.Ltext0
 3742 02a0 12050000 		.4byte	.LCFI90-.Ltext0
 3743 02a4 0200     		.2byte	0x2
 3744 02a6 7D       		.byte	0x7d
 3745 02a7 10       		.sleb128 16
 3746 02a8 12050000 		.4byte	.LCFI90-.Ltext0
 3747 02ac 44050000 		.4byte	.LCFI91-.Ltext0
 3748 02b0 0200     		.2byte	0x2
 3749 02b2 77       		.byte	0x77
 3750 02b3 10       		.sleb128 16
 3751 02b4 44050000 		.4byte	.LCFI91-.Ltext0
 3752 02b8 46050000 		.4byte	.LCFI92-.Ltext0
 3753 02bc 0200     		.2byte	0x2
 3754 02be 77       		.byte	0x77
 3755 02bf 04       		.sleb128 4
 3756 02c0 46050000 		.4byte	.LCFI92-.Ltext0
 3757 02c4 48050000 		.4byte	.LCFI93-.Ltext0
ARM GAS  G:\Users\Jaxb\AppData\Local\Temp\ccN59N5m.s 			page 83


 3758 02c8 0200     		.2byte	0x2
 3759 02ca 7D       		.byte	0x7d
 3760 02cb 04       		.sleb128 4
 3761 02cc 48050000 		.4byte	.LCFI93-.Ltext0
 3762 02d0 4A050000 		.4byte	.LFE44-.Ltext0
 3763 02d4 0200     		.2byte	0x2
 3764 02d6 7D       		.byte	0x7d
 3765 02d7 00       		.sleb128 0
 3766 02d8 00000000 		.4byte	0
 3767 02dc 00000000 		.4byte	0
 3768              	.LLST14:
 3769 02e0 EA040000 		.4byte	.LFB43-.Ltext0
 3770 02e4 EC040000 		.4byte	.LCFI82-.Ltext0
 3771 02e8 0200     		.2byte	0x2
 3772 02ea 7D       		.byte	0x7d
 3773 02eb 00       		.sleb128 0
 3774 02ec EC040000 		.4byte	.LCFI82-.Ltext0
 3775 02f0 EE040000 		.4byte	.LCFI83-.Ltext0
 3776 02f4 0200     		.2byte	0x2
 3777 02f6 7D       		.byte	0x7d
 3778 02f7 04       		.sleb128 4
 3779 02f8 EE040000 		.4byte	.LCFI83-.Ltext0
 3780 02fc F0040000 		.4byte	.LCFI84-.Ltext0
 3781 0300 0200     		.2byte	0x2
 3782 0302 7D       		.byte	0x7d
 3783 0303 10       		.sleb128 16
 3784 0304 F0040000 		.4byte	.LCFI84-.Ltext0
 3785 0308 06050000 		.4byte	.LCFI85-.Ltext0
 3786 030c 0200     		.2byte	0x2
 3787 030e 77       		.byte	0x77
 3788 030f 10       		.sleb128 16
 3789 0310 06050000 		.4byte	.LCFI85-.Ltext0
 3790 0314 08050000 		.4byte	.LCFI86-.Ltext0
 3791 0318 0200     		.2byte	0x2
 3792 031a 77       		.byte	0x77
 3793 031b 04       		.sleb128 4
 3794 031c 08050000 		.4byte	.LCFI86-.Ltext0
 3795 0320 0A050000 		.4byte	.LCFI87-.Ltext0
 3796 0324 0200     		.2byte	0x2
 3797 0326 7D       		.byte	0x7d
 3798 0327 04       		.sleb128 4
 3799 0328 0A050000 		.4byte	.LCFI87-.Ltext0
 3800 032c 0C050000 		.4byte	.LFE43-.Ltext0
 3801 0330 0200     		.2byte	0x2
 3802 0332 7D       		.byte	0x7d
 3803 0333 00       		.sleb128 0
 3804 0334 00000000 		.4byte	0
 3805 0338 00000000 		.4byte	0
 3806              	.LLST13:
 3807 033c B4040000 		.4byte	.LFB42-.Ltext0
 3808 0340 B6040000 		.4byte	.LCFI76-.Ltext0
 3809 0344 0200     		.2byte	0x2
 3810 0346 7D       		.byte	0x7d
 3811 0347 00       		.sleb128 0
 3812 0348 B6040000 		.4byte	.LCFI76-.Ltext0
 3813 034c B8040000 		.4byte	.LCFI77-.Ltext0
 3814 0350 0200     		.2byte	0x2
ARM GAS  G:\Users\Jaxb\AppData\Local\Temp\ccN59N5m.s 			page 84


 3815 0352 7D       		.byte	0x7d
 3816 0353 04       		.sleb128 4
 3817 0354 B8040000 		.4byte	.LCFI77-.Ltext0
 3818 0358 BA040000 		.4byte	.LCFI78-.Ltext0
 3819 035c 0200     		.2byte	0x2
 3820 035e 7D       		.byte	0x7d
 3821 035f 10       		.sleb128 16
 3822 0360 BA040000 		.4byte	.LCFI78-.Ltext0
 3823 0364 E4040000 		.4byte	.LCFI79-.Ltext0
 3824 0368 0200     		.2byte	0x2
 3825 036a 77       		.byte	0x77
 3826 036b 10       		.sleb128 16
 3827 036c E4040000 		.4byte	.LCFI79-.Ltext0
 3828 0370 E6040000 		.4byte	.LCFI80-.Ltext0
 3829 0374 0200     		.2byte	0x2
 3830 0376 77       		.byte	0x77
 3831 0377 04       		.sleb128 4
 3832 0378 E6040000 		.4byte	.LCFI80-.Ltext0
 3833 037c E8040000 		.4byte	.LCFI81-.Ltext0
 3834 0380 0200     		.2byte	0x2
 3835 0382 7D       		.byte	0x7d
 3836 0383 04       		.sleb128 4
 3837 0384 E8040000 		.4byte	.LCFI81-.Ltext0
 3838 0388 EA040000 		.4byte	.LFE42-.Ltext0
 3839 038c 0200     		.2byte	0x2
 3840 038e 7D       		.byte	0x7d
 3841 038f 00       		.sleb128 0
 3842 0390 00000000 		.4byte	0
 3843 0394 00000000 		.4byte	0
 3844              	.LLST12:
 3845 0398 76040000 		.4byte	.LFB41-.Ltext0
 3846 039c 78040000 		.4byte	.LCFI70-.Ltext0
 3847 03a0 0200     		.2byte	0x2
 3848 03a2 7D       		.byte	0x7d
 3849 03a3 00       		.sleb128 0
 3850 03a4 78040000 		.4byte	.LCFI70-.Ltext0
 3851 03a8 7A040000 		.4byte	.LCFI71-.Ltext0
 3852 03ac 0200     		.2byte	0x2
 3853 03ae 7D       		.byte	0x7d
 3854 03af 04       		.sleb128 4
 3855 03b0 7A040000 		.4byte	.LCFI71-.Ltext0
 3856 03b4 7C040000 		.4byte	.LCFI72-.Ltext0
 3857 03b8 0200     		.2byte	0x2
 3858 03ba 7D       		.byte	0x7d
 3859 03bb 10       		.sleb128 16
 3860 03bc 7C040000 		.4byte	.LCFI72-.Ltext0
 3861 03c0 AE040000 		.4byte	.LCFI73-.Ltext0
 3862 03c4 0200     		.2byte	0x2
 3863 03c6 77       		.byte	0x77
 3864 03c7 10       		.sleb128 16
 3865 03c8 AE040000 		.4byte	.LCFI73-.Ltext0
 3866 03cc B0040000 		.4byte	.LCFI74-.Ltext0
 3867 03d0 0200     		.2byte	0x2
 3868 03d2 77       		.byte	0x77
 3869 03d3 04       		.sleb128 4
 3870 03d4 B0040000 		.4byte	.LCFI74-.Ltext0
 3871 03d8 B2040000 		.4byte	.LCFI75-.Ltext0
ARM GAS  G:\Users\Jaxb\AppData\Local\Temp\ccN59N5m.s 			page 85


 3872 03dc 0200     		.2byte	0x2
 3873 03de 7D       		.byte	0x7d
 3874 03df 04       		.sleb128 4
 3875 03e0 B2040000 		.4byte	.LCFI75-.Ltext0
 3876 03e4 B4040000 		.4byte	.LFE41-.Ltext0
 3877 03e8 0200     		.2byte	0x2
 3878 03ea 7D       		.byte	0x7d
 3879 03eb 00       		.sleb128 0
 3880 03ec 00000000 		.4byte	0
 3881 03f0 00000000 		.4byte	0
 3882              	.LLST11:
 3883 03f4 34040000 		.4byte	.LFB40-.Ltext0
 3884 03f8 36040000 		.4byte	.LCFI64-.Ltext0
 3885 03fc 0200     		.2byte	0x2
 3886 03fe 7D       		.byte	0x7d
 3887 03ff 00       		.sleb128 0
 3888 0400 36040000 		.4byte	.LCFI64-.Ltext0
 3889 0404 38040000 		.4byte	.LCFI65-.Ltext0
 3890 0408 0200     		.2byte	0x2
 3891 040a 7D       		.byte	0x7d
 3892 040b 04       		.sleb128 4
 3893 040c 38040000 		.4byte	.LCFI65-.Ltext0
 3894 0410 3A040000 		.4byte	.LCFI66-.Ltext0
 3895 0414 0200     		.2byte	0x2
 3896 0416 7D       		.byte	0x7d
 3897 0417 10       		.sleb128 16
 3898 0418 3A040000 		.4byte	.LCFI66-.Ltext0
 3899 041c 70040000 		.4byte	.LCFI67-.Ltext0
 3900 0420 0200     		.2byte	0x2
 3901 0422 77       		.byte	0x77
 3902 0423 10       		.sleb128 16
 3903 0424 70040000 		.4byte	.LCFI67-.Ltext0
 3904 0428 72040000 		.4byte	.LCFI68-.Ltext0
 3905 042c 0200     		.2byte	0x2
 3906 042e 77       		.byte	0x77
 3907 042f 04       		.sleb128 4
 3908 0430 72040000 		.4byte	.LCFI68-.Ltext0
 3909 0434 74040000 		.4byte	.LCFI69-.Ltext0
 3910 0438 0200     		.2byte	0x2
 3911 043a 7D       		.byte	0x7d
 3912 043b 04       		.sleb128 4
 3913 043c 74040000 		.4byte	.LCFI69-.Ltext0
 3914 0440 76040000 		.4byte	.LFE40-.Ltext0
 3915 0444 0200     		.2byte	0x2
 3916 0446 7D       		.byte	0x7d
 3917 0447 00       		.sleb128 0
 3918 0448 00000000 		.4byte	0
 3919 044c 00000000 		.4byte	0
 3920              	.LLST10:
 3921 0450 1C040000 		.4byte	.LFB39-.Ltext0
 3922 0454 1E040000 		.4byte	.LCFI58-.Ltext0
 3923 0458 0200     		.2byte	0x2
 3924 045a 7D       		.byte	0x7d
 3925 045b 00       		.sleb128 0
 3926 045c 1E040000 		.4byte	.LCFI58-.Ltext0
 3927 0460 20040000 		.4byte	.LCFI59-.Ltext0
 3928 0464 0200     		.2byte	0x2
ARM GAS  G:\Users\Jaxb\AppData\Local\Temp\ccN59N5m.s 			page 86


 3929 0466 7D       		.byte	0x7d
 3930 0467 04       		.sleb128 4
 3931 0468 20040000 		.4byte	.LCFI59-.Ltext0
 3932 046c 22040000 		.4byte	.LCFI60-.Ltext0
 3933 0470 0200     		.2byte	0x2
 3934 0472 7D       		.byte	0x7d
 3935 0473 10       		.sleb128 16
 3936 0474 22040000 		.4byte	.LCFI60-.Ltext0
 3937 0478 2E040000 		.4byte	.LCFI61-.Ltext0
 3938 047c 0200     		.2byte	0x2
 3939 047e 77       		.byte	0x77
 3940 047f 10       		.sleb128 16
 3941 0480 2E040000 		.4byte	.LCFI61-.Ltext0
 3942 0484 30040000 		.4byte	.LCFI62-.Ltext0
 3943 0488 0200     		.2byte	0x2
 3944 048a 77       		.byte	0x77
 3945 048b 04       		.sleb128 4
 3946 048c 30040000 		.4byte	.LCFI62-.Ltext0
 3947 0490 32040000 		.4byte	.LCFI63-.Ltext0
 3948 0494 0200     		.2byte	0x2
 3949 0496 7D       		.byte	0x7d
 3950 0497 04       		.sleb128 4
 3951 0498 32040000 		.4byte	.LCFI63-.Ltext0
 3952 049c 34040000 		.4byte	.LFE39-.Ltext0
 3953 04a0 0200     		.2byte	0x2
 3954 04a2 7D       		.byte	0x7d
 3955 04a3 00       		.sleb128 0
 3956 04a4 00000000 		.4byte	0
 3957 04a8 00000000 		.4byte	0
 3958              	.LLST9:
 3959 04ac 00040000 		.4byte	.LFB38-.Ltext0
 3960 04b0 02040000 		.4byte	.LCFI52-.Ltext0
 3961 04b4 0200     		.2byte	0x2
 3962 04b6 7D       		.byte	0x7d
 3963 04b7 00       		.sleb128 0
 3964 04b8 02040000 		.4byte	.LCFI52-.Ltext0
 3965 04bc 04040000 		.4byte	.LCFI53-.Ltext0
 3966 04c0 0200     		.2byte	0x2
 3967 04c2 7D       		.byte	0x7d
 3968 04c3 04       		.sleb128 4
 3969 04c4 04040000 		.4byte	.LCFI53-.Ltext0
 3970 04c8 06040000 		.4byte	.LCFI54-.Ltext0
 3971 04cc 0200     		.2byte	0x2
 3972 04ce 7D       		.byte	0x7d
 3973 04cf 10       		.sleb128 16
 3974 04d0 06040000 		.4byte	.LCFI54-.Ltext0
 3975 04d4 16040000 		.4byte	.LCFI55-.Ltext0
 3976 04d8 0200     		.2byte	0x2
 3977 04da 77       		.byte	0x77
 3978 04db 10       		.sleb128 16
 3979 04dc 16040000 		.4byte	.LCFI55-.Ltext0
 3980 04e0 18040000 		.4byte	.LCFI56-.Ltext0
 3981 04e4 0200     		.2byte	0x2
 3982 04e6 77       		.byte	0x77
 3983 04e7 04       		.sleb128 4
 3984 04e8 18040000 		.4byte	.LCFI56-.Ltext0
 3985 04ec 1A040000 		.4byte	.LCFI57-.Ltext0
ARM GAS  G:\Users\Jaxb\AppData\Local\Temp\ccN59N5m.s 			page 87


 3986 04f0 0200     		.2byte	0x2
 3987 04f2 7D       		.byte	0x7d
 3988 04f3 04       		.sleb128 4
 3989 04f4 1A040000 		.4byte	.LCFI57-.Ltext0
 3990 04f8 1C040000 		.4byte	.LFE38-.Ltext0
 3991 04fc 0200     		.2byte	0x2
 3992 04fe 7D       		.byte	0x7d
 3993 04ff 00       		.sleb128 0
 3994 0500 00000000 		.4byte	0
 3995 0504 00000000 		.4byte	0
 3996              	.LLST8:
 3997 0508 BA030000 		.4byte	.LFB37-.Ltext0
 3998 050c BC030000 		.4byte	.LCFI46-.Ltext0
 3999 0510 0200     		.2byte	0x2
 4000 0512 7D       		.byte	0x7d
 4001 0513 00       		.sleb128 0
 4002 0514 BC030000 		.4byte	.LCFI46-.Ltext0
 4003 0518 BE030000 		.4byte	.LCFI47-.Ltext0
 4004 051c 0200     		.2byte	0x2
 4005 051e 7D       		.byte	0x7d
 4006 051f 04       		.sleb128 4
 4007 0520 BE030000 		.4byte	.LCFI47-.Ltext0
 4008 0524 C0030000 		.4byte	.LCFI48-.Ltext0
 4009 0528 0200     		.2byte	0x2
 4010 052a 7D       		.byte	0x7d
 4011 052b 10       		.sleb128 16
 4012 052c C0030000 		.4byte	.LCFI48-.Ltext0
 4013 0530 FA030000 		.4byte	.LCFI49-.Ltext0
 4014 0534 0200     		.2byte	0x2
 4015 0536 77       		.byte	0x77
 4016 0537 10       		.sleb128 16
 4017 0538 FA030000 		.4byte	.LCFI49-.Ltext0
 4018 053c FC030000 		.4byte	.LCFI50-.Ltext0
 4019 0540 0200     		.2byte	0x2
 4020 0542 77       		.byte	0x77
 4021 0543 04       		.sleb128 4
 4022 0544 FC030000 		.4byte	.LCFI50-.Ltext0
 4023 0548 FE030000 		.4byte	.LCFI51-.Ltext0
 4024 054c 0200     		.2byte	0x2
 4025 054e 7D       		.byte	0x7d
 4026 054f 04       		.sleb128 4
 4027 0550 FE030000 		.4byte	.LCFI51-.Ltext0
 4028 0554 00040000 		.4byte	.LFE37-.Ltext0
 4029 0558 0200     		.2byte	0x2
 4030 055a 7D       		.byte	0x7d
 4031 055b 00       		.sleb128 0
 4032 055c 00000000 		.4byte	0
 4033 0560 00000000 		.4byte	0
 4034              	.LLST7:
 4035 0564 5A030000 		.4byte	.LFB36-.Ltext0
 4036 0568 5C030000 		.4byte	.LCFI40-.Ltext0
 4037 056c 0200     		.2byte	0x2
 4038 056e 7D       		.byte	0x7d
 4039 056f 00       		.sleb128 0
 4040 0570 5C030000 		.4byte	.LCFI40-.Ltext0
 4041 0574 5E030000 		.4byte	.LCFI41-.Ltext0
 4042 0578 0200     		.2byte	0x2
ARM GAS  G:\Users\Jaxb\AppData\Local\Temp\ccN59N5m.s 			page 88


 4043 057a 7D       		.byte	0x7d
 4044 057b 04       		.sleb128 4
 4045 057c 5E030000 		.4byte	.LCFI41-.Ltext0
 4046 0580 60030000 		.4byte	.LCFI42-.Ltext0
 4047 0584 0200     		.2byte	0x2
 4048 0586 7D       		.byte	0x7d
 4049 0587 18       		.sleb128 24
 4050 0588 60030000 		.4byte	.LCFI42-.Ltext0
 4051 058c B4030000 		.4byte	.LCFI43-.Ltext0
 4052 0590 0200     		.2byte	0x2
 4053 0592 77       		.byte	0x77
 4054 0593 18       		.sleb128 24
 4055 0594 B4030000 		.4byte	.LCFI43-.Ltext0
 4056 0598 B6030000 		.4byte	.LCFI44-.Ltext0
 4057 059c 0200     		.2byte	0x2
 4058 059e 77       		.byte	0x77
 4059 059f 04       		.sleb128 4
 4060 05a0 B6030000 		.4byte	.LCFI44-.Ltext0
 4061 05a4 B8030000 		.4byte	.LCFI45-.Ltext0
 4062 05a8 0200     		.2byte	0x2
 4063 05aa 7D       		.byte	0x7d
 4064 05ab 04       		.sleb128 4
 4065 05ac B8030000 		.4byte	.LCFI45-.Ltext0
 4066 05b0 BA030000 		.4byte	.LFE36-.Ltext0
 4067 05b4 0200     		.2byte	0x2
 4068 05b6 7D       		.byte	0x7d
 4069 05b7 00       		.sleb128 0
 4070 05b8 00000000 		.4byte	0
 4071 05bc 00000000 		.4byte	0
 4072              	.LLST6:
 4073 05c0 1C030000 		.4byte	.LFB35-.Ltext0
 4074 05c4 1E030000 		.4byte	.LCFI34-.Ltext0
 4075 05c8 0200     		.2byte	0x2
 4076 05ca 7D       		.byte	0x7d
 4077 05cb 00       		.sleb128 0
 4078 05cc 1E030000 		.4byte	.LCFI34-.Ltext0
 4079 05d0 20030000 		.4byte	.LCFI35-.Ltext0
 4080 05d4 0200     		.2byte	0x2
 4081 05d6 7D       		.byte	0x7d
 4082 05d7 04       		.sleb128 4
 4083 05d8 20030000 		.4byte	.LCFI35-.Ltext0
 4084 05dc 22030000 		.4byte	.LCFI36-.Ltext0
 4085 05e0 0200     		.2byte	0x2
 4086 05e2 7D       		.byte	0x7d
 4087 05e3 10       		.sleb128 16
 4088 05e4 22030000 		.4byte	.LCFI36-.Ltext0
 4089 05e8 54030000 		.4byte	.LCFI37-.Ltext0
 4090 05ec 0200     		.2byte	0x2
 4091 05ee 77       		.byte	0x77
 4092 05ef 10       		.sleb128 16
 4093 05f0 54030000 		.4byte	.LCFI37-.Ltext0
 4094 05f4 56030000 		.4byte	.LCFI38-.Ltext0
 4095 05f8 0200     		.2byte	0x2
 4096 05fa 77       		.byte	0x77
 4097 05fb 04       		.sleb128 4
 4098 05fc 56030000 		.4byte	.LCFI38-.Ltext0
 4099 0600 58030000 		.4byte	.LCFI39-.Ltext0
ARM GAS  G:\Users\Jaxb\AppData\Local\Temp\ccN59N5m.s 			page 89


 4100 0604 0200     		.2byte	0x2
 4101 0606 7D       		.byte	0x7d
 4102 0607 04       		.sleb128 4
 4103 0608 58030000 		.4byte	.LCFI39-.Ltext0
 4104 060c 5A030000 		.4byte	.LFE35-.Ltext0
 4105 0610 0200     		.2byte	0x2
 4106 0612 7D       		.byte	0x7d
 4107 0613 00       		.sleb128 0
 4108 0614 00000000 		.4byte	0
 4109 0618 00000000 		.4byte	0
 4110              	.LLST5:
 4111 061c DE020000 		.4byte	.LFB34-.Ltext0
 4112 0620 E0020000 		.4byte	.LCFI28-.Ltext0
 4113 0624 0200     		.2byte	0x2
 4114 0626 7D       		.byte	0x7d
 4115 0627 00       		.sleb128 0
 4116 0628 E0020000 		.4byte	.LCFI28-.Ltext0
 4117 062c E2020000 		.4byte	.LCFI29-.Ltext0
 4118 0630 0200     		.2byte	0x2
 4119 0632 7D       		.byte	0x7d
 4120 0633 04       		.sleb128 4
 4121 0634 E2020000 		.4byte	.LCFI29-.Ltext0
 4122 0638 E4020000 		.4byte	.LCFI30-.Ltext0
 4123 063c 0200     		.2byte	0x2
 4124 063e 7D       		.byte	0x7d
 4125 063f 10       		.sleb128 16
 4126 0640 E4020000 		.4byte	.LCFI30-.Ltext0
 4127 0644 16030000 		.4byte	.LCFI31-.Ltext0
 4128 0648 0200     		.2byte	0x2
 4129 064a 77       		.byte	0x77
 4130 064b 10       		.sleb128 16
 4131 064c 16030000 		.4byte	.LCFI31-.Ltext0
 4132 0650 18030000 		.4byte	.LCFI32-.Ltext0
 4133 0654 0200     		.2byte	0x2
 4134 0656 77       		.byte	0x77
 4135 0657 04       		.sleb128 4
 4136 0658 18030000 		.4byte	.LCFI32-.Ltext0
 4137 065c 1A030000 		.4byte	.LCFI33-.Ltext0
 4138 0660 0200     		.2byte	0x2
 4139 0662 7D       		.byte	0x7d
 4140 0663 04       		.sleb128 4
 4141 0664 1A030000 		.4byte	.LCFI33-.Ltext0
 4142 0668 1C030000 		.4byte	.LFE34-.Ltext0
 4143 066c 0200     		.2byte	0x2
 4144 066e 7D       		.byte	0x7d
 4145 066f 00       		.sleb128 0
 4146 0670 00000000 		.4byte	0
 4147 0674 00000000 		.4byte	0
 4148              	.LLST4:
 4149 0678 A8020000 		.4byte	.LFB33-.Ltext0
 4150 067c AA020000 		.4byte	.LCFI22-.Ltext0
 4151 0680 0200     		.2byte	0x2
 4152 0682 7D       		.byte	0x7d
 4153 0683 00       		.sleb128 0
 4154 0684 AA020000 		.4byte	.LCFI22-.Ltext0
 4155 0688 AC020000 		.4byte	.LCFI23-.Ltext0
 4156 068c 0200     		.2byte	0x2
ARM GAS  G:\Users\Jaxb\AppData\Local\Temp\ccN59N5m.s 			page 90


 4157 068e 7D       		.byte	0x7d
 4158 068f 04       		.sleb128 4
 4159 0690 AC020000 		.4byte	.LCFI23-.Ltext0
 4160 0694 AE020000 		.4byte	.LCFI24-.Ltext0
 4161 0698 0200     		.2byte	0x2
 4162 069a 7D       		.byte	0x7d
 4163 069b 10       		.sleb128 16
 4164 069c AE020000 		.4byte	.LCFI24-.Ltext0
 4165 06a0 D8020000 		.4byte	.LCFI25-.Ltext0
 4166 06a4 0200     		.2byte	0x2
 4167 06a6 77       		.byte	0x77
 4168 06a7 10       		.sleb128 16
 4169 06a8 D8020000 		.4byte	.LCFI25-.Ltext0
 4170 06ac DA020000 		.4byte	.LCFI26-.Ltext0
 4171 06b0 0200     		.2byte	0x2
 4172 06b2 77       		.byte	0x77
 4173 06b3 04       		.sleb128 4
 4174 06b4 DA020000 		.4byte	.LCFI26-.Ltext0
 4175 06b8 DC020000 		.4byte	.LCFI27-.Ltext0
 4176 06bc 0200     		.2byte	0x2
 4177 06be 7D       		.byte	0x7d
 4178 06bf 04       		.sleb128 4
 4179 06c0 DC020000 		.4byte	.LCFI27-.Ltext0
 4180 06c4 DE020000 		.4byte	.LFE33-.Ltext0
 4181 06c8 0200     		.2byte	0x2
 4182 06ca 7D       		.byte	0x7d
 4183 06cb 00       		.sleb128 0
 4184 06cc 00000000 		.4byte	0
 4185 06d0 00000000 		.4byte	0
 4186              	.LLST3:
 4187 06d4 60020000 		.4byte	.LFB32-.Ltext0
 4188 06d8 62020000 		.4byte	.LCFI16-.Ltext0
 4189 06dc 0200     		.2byte	0x2
 4190 06de 7D       		.byte	0x7d
 4191 06df 00       		.sleb128 0
 4192 06e0 62020000 		.4byte	.LCFI16-.Ltext0
 4193 06e4 64020000 		.4byte	.LCFI17-.Ltext0
 4194 06e8 0200     		.2byte	0x2
 4195 06ea 7D       		.byte	0x7d
 4196 06eb 04       		.sleb128 4
 4197 06ec 64020000 		.4byte	.LCFI17-.Ltext0
 4198 06f0 66020000 		.4byte	.LCFI18-.Ltext0
 4199 06f4 0200     		.2byte	0x2
 4200 06f6 7D       		.byte	0x7d
 4201 06f7 10       		.sleb128 16
 4202 06f8 66020000 		.4byte	.LCFI18-.Ltext0
 4203 06fc A2020000 		.4byte	.LCFI19-.Ltext0
 4204 0700 0200     		.2byte	0x2
 4205 0702 77       		.byte	0x77
 4206 0703 10       		.sleb128 16
 4207 0704 A2020000 		.4byte	.LCFI19-.Ltext0
 4208 0708 A4020000 		.4byte	.LCFI20-.Ltext0
 4209 070c 0200     		.2byte	0x2
 4210 070e 77       		.byte	0x77
 4211 070f 04       		.sleb128 4
 4212 0710 A4020000 		.4byte	.LCFI20-.Ltext0
 4213 0714 A6020000 		.4byte	.LCFI21-.Ltext0
ARM GAS  G:\Users\Jaxb\AppData\Local\Temp\ccN59N5m.s 			page 91


 4214 0718 0200     		.2byte	0x2
 4215 071a 7D       		.byte	0x7d
 4216 071b 04       		.sleb128 4
 4217 071c A6020000 		.4byte	.LCFI21-.Ltext0
 4218 0720 A8020000 		.4byte	.LFE32-.Ltext0
 4219 0724 0200     		.2byte	0x2
 4220 0726 7D       		.byte	0x7d
 4221 0727 00       		.sleb128 0
 4222 0728 00000000 		.4byte	0
 4223 072c 00000000 		.4byte	0
 4224              	.LLST2:
 4225 0730 FA000000 		.4byte	.LFB31-.Ltext0
 4226 0734 FC000000 		.4byte	.LCFI11-.Ltext0
 4227 0738 0200     		.2byte	0x2
 4228 073a 7D       		.byte	0x7d
 4229 073b 00       		.sleb128 0
 4230 073c FC000000 		.4byte	.LCFI11-.Ltext0
 4231 0740 FE000000 		.4byte	.LCFI12-.Ltext0
 4232 0744 0200     		.2byte	0x2
 4233 0746 7D       		.byte	0x7d
 4234 0747 08       		.sleb128 8
 4235 0748 FE000000 		.4byte	.LCFI12-.Ltext0
 4236 074c 00010000 		.4byte	.LCFI13-.Ltext0
 4237 0750 0200     		.2byte	0x2
 4238 0752 7D       		.byte	0x7d
 4239 0753 38       		.sleb128 56
 4240 0754 00010000 		.4byte	.LCFI13-.Ltext0
 4241 0758 54020000 		.4byte	.LCFI14-.Ltext0
 4242 075c 0200     		.2byte	0x2
 4243 075e 77       		.byte	0x77
 4244 075f 38       		.sleb128 56
 4245 0760 54020000 		.4byte	.LCFI14-.Ltext0
 4246 0764 56020000 		.4byte	.LCFI15-.Ltext0
 4247 0768 0200     		.2byte	0x2
 4248 076a 77       		.byte	0x77
 4249 076b 08       		.sleb128 8
 4250 076c 56020000 		.4byte	.LCFI15-.Ltext0
 4251 0770 60020000 		.4byte	.LFE31-.Ltext0
 4252 0774 0200     		.2byte	0x2
 4253 0776 7D       		.byte	0x7d
 4254 0777 08       		.sleb128 8
 4255 0778 00000000 		.4byte	0
 4256 077c 00000000 		.4byte	0
 4257              	.LLST1:
 4258 0780 74000000 		.4byte	.LFB30-.Ltext0
 4259 0784 76000000 		.4byte	.LCFI5-.Ltext0
 4260 0788 0200     		.2byte	0x2
 4261 078a 7D       		.byte	0x7d
 4262 078b 00       		.sleb128 0
 4263 078c 76000000 		.4byte	.LCFI5-.Ltext0
 4264 0790 78000000 		.4byte	.LCFI6-.Ltext0
 4265 0794 0200     		.2byte	0x2
 4266 0796 7D       		.byte	0x7d
 4267 0797 04       		.sleb128 4
 4268 0798 78000000 		.4byte	.LCFI6-.Ltext0
 4269 079c 7A000000 		.4byte	.LCFI7-.Ltext0
 4270 07a0 0200     		.2byte	0x2
ARM GAS  G:\Users\Jaxb\AppData\Local\Temp\ccN59N5m.s 			page 92


 4271 07a2 7D       		.byte	0x7d
 4272 07a3 18       		.sleb128 24
 4273 07a4 7A000000 		.4byte	.LCFI7-.Ltext0
 4274 07a8 F4000000 		.4byte	.LCFI8-.Ltext0
 4275 07ac 0200     		.2byte	0x2
 4276 07ae 77       		.byte	0x77
 4277 07af 18       		.sleb128 24
 4278 07b0 F4000000 		.4byte	.LCFI8-.Ltext0
 4279 07b4 F6000000 		.4byte	.LCFI9-.Ltext0
 4280 07b8 0200     		.2byte	0x2
 4281 07ba 77       		.byte	0x77
 4282 07bb 04       		.sleb128 4
 4283 07bc F6000000 		.4byte	.LCFI9-.Ltext0
 4284 07c0 F8000000 		.4byte	.LCFI10-.Ltext0
 4285 07c4 0200     		.2byte	0x2
 4286 07c6 7D       		.byte	0x7d
 4287 07c7 04       		.sleb128 4
 4288 07c8 F8000000 		.4byte	.LCFI10-.Ltext0
 4289 07cc FA000000 		.4byte	.LFE30-.Ltext0
 4290 07d0 0200     		.2byte	0x2
 4291 07d2 7D       		.byte	0x7d
 4292 07d3 00       		.sleb128 0
 4293 07d4 00000000 		.4byte	0
 4294 07d8 00000000 		.4byte	0
 4295              	.LLST0:
 4296 07dc 00000000 		.4byte	.LFB29-.Ltext0
 4297 07e0 02000000 		.4byte	.LCFI0-.Ltext0
 4298 07e4 0200     		.2byte	0x2
 4299 07e6 7D       		.byte	0x7d
 4300 07e7 00       		.sleb128 0
 4301 07e8 02000000 		.4byte	.LCFI0-.Ltext0
 4302 07ec 04000000 		.4byte	.LCFI1-.Ltext0
 4303 07f0 0200     		.2byte	0x2
 4304 07f2 7D       		.byte	0x7d
 4305 07f3 08       		.sleb128 8
 4306 07f4 04000000 		.4byte	.LCFI1-.Ltext0
 4307 07f8 06000000 		.4byte	.LCFI2-.Ltext0
 4308 07fc 0200     		.2byte	0x2
 4309 07fe 7D       		.byte	0x7d
 4310 07ff 10       		.sleb128 16
 4311 0800 06000000 		.4byte	.LCFI2-.Ltext0
 4312 0804 64000000 		.4byte	.LCFI3-.Ltext0
 4313 0808 0200     		.2byte	0x2
 4314 080a 77       		.byte	0x77
 4315 080b 10       		.sleb128 16
 4316 080c 64000000 		.4byte	.LCFI3-.Ltext0
 4317 0810 66000000 		.4byte	.LCFI4-.Ltext0
 4318 0814 0200     		.2byte	0x2
 4319 0816 77       		.byte	0x77
 4320 0817 08       		.sleb128 8
 4321 0818 66000000 		.4byte	.LCFI4-.Ltext0
 4322 081c 74000000 		.4byte	.LFE29-.Ltext0
 4323 0820 0200     		.2byte	0x2
 4324 0822 7D       		.byte	0x7d
 4325 0823 08       		.sleb128 8
 4326 0824 00000000 		.4byte	0
 4327 0828 00000000 		.4byte	0
ARM GAS  G:\Users\Jaxb\AppData\Local\Temp\ccN59N5m.s 			page 93


 4328              		.section	.debug_aranges,"",%progbits
 4329 0000 1C000000 		.4byte	0x1c
 4330 0004 0200     		.2byte	0x2
 4331 0006 00000000 		.4byte	.Ldebug_info0
 4332 000a 04       		.byte	0x4
 4333 000b 00       		.byte	0
 4334 000c 0000     		.2byte	0
 4335 000e 0000     		.2byte	0
 4336 0010 00000000 		.4byte	.Ltext0
 4337 0014 CE060000 		.4byte	.Letext0-.Ltext0
 4338 0018 00000000 		.4byte	0
 4339 001c 00000000 		.4byte	0
 4340              		.section	.debug_line,"",%progbits
 4341              	.Ldebug_line0:
 4342 0000 5E020000 		.section	.debug_str,"MS",%progbits,1
 4342      02004801 
 4342      00000201 
 4342      FB0E0D00 
 4342      01010101 
 4343              	.LASF87:
 4344 0000 5350495F 		.ascii	"SPI_I2S_DMACmd\000"
 4344      4932535F 
 4344      444D4143 
 4344      6D6400
 4345              	.LASF48:
 4346 000f 5350495F 		.ascii	"SPI_CPHA\000"
 4346      43504841 
 4346      00
 4347              	.LASF44:
 4348 0018 5350495F 		.ascii	"SPI_Direction\000"
 4348      44697265 
 4348      6374696F 
 4348      6E00
 4349              	.LASF19:
 4350 0026 49545374 		.ascii	"ITStatus\000"
 4350      61747573 
 4350      00
 4351              	.LASF73:
 4352 002f 5350495F 		.ascii	"SPI_GetCRCPolynomial\000"
 4352      47657443 
 4352      5243506F 
 4352      6C796E6F 
 4352      6D69616C 
 4353              	.LASF63:
 4354 0044 6974706F 		.ascii	"itpos\000"
 4354      7300
 4355              	.LASF46:
 4356 004a 5350495F 		.ascii	"SPI_DataSize\000"
 4356      44617461 
 4356      53697A65 
 4356      00
 4357              	.LASF69:
 4358 0057 5350495F 		.ascii	"SPI_I2S_FLAG\000"
 4358      4932535F 
 4358      464C4147 
 4358      00
 4359              	.LASF55:
ARM GAS  G:\Users\Jaxb\AppData\Local\Temp\ccN59N5m.s 			page 94


 4360 0064 4932535F 		.ascii	"I2S_Standard\000"
 4360      5374616E 
 4360      64617264 
 4360      00
 4361              	.LASF103:
 4362 0071 5350495F 		.ascii	"SPI_Init\000"
 4362      496E6974 
 4362      00
 4363              	.LASF51:
 4364 007a 5350495F 		.ascii	"SPI_FirstBit\000"
 4364      46697273 
 4364      74426974 
 4364      00
 4365              	.LASF39:
 4366 0087 48434C4B 		.ascii	"HCLK_Frequency\000"
 4366      5F467265 
 4366      7175656E 
 4366      637900
 4367              	.LASF59:
 4368 0096 4932535F 		.ascii	"I2S_CPOL\000"
 4368      43504F4C 
 4368      00
 4369              	.LASF100:
 4370 009f 7061636B 		.ascii	"packetlength\000"
 4370      65746C65 
 4370      6E677468 
 4370      00
 4371              	.LASF9:
 4372 00ac 6C6F6E67 		.ascii	"long long int\000"
 4372      206C6F6E 
 4372      6720696E 
 4372      7400
 4373              	.LASF7:
 4374 00ba 5F5F7569 		.ascii	"__uint32_t\000"
 4374      6E743332 
 4374      5F7400
 4375              	.LASF85:
 4376 00c5 5350495F 		.ascii	"SPI_I2S_SendData\000"
 4376      4932535F 
 4376      53656E64 
 4376      44617461 
 4376      00
 4377              	.LASF49:
 4378 00d6 5350495F 		.ascii	"SPI_NSS\000"
 4378      4E535300 
 4379              	.LASF4:
 4380 00de 5F5F7569 		.ascii	"__uint16_t\000"
 4380      6E743136 
 4380      5F7400
 4381              	.LASF88:
 4382 00e9 5350495F 		.ascii	"SPI_I2S_DMAReq\000"
 4382      4932535F 
 4382      444D4152 
 4382      657100
 4383              	.LASF43:
 4384 00f8 5243435F 		.ascii	"RCC_ClocksTypeDef\000"
 4384      436C6F63 
ARM GAS  G:\Users\Jaxb\AppData\Local\Temp\ccN59N5m.s 			page 95


 4384      6B735479 
 4384      70654465 
 4384      6600
 4385              	.LASF31:
 4386 010a 54584352 		.ascii	"TXCRCR\000"
 4386      435200
 4387              	.LASF2:
 4388 0111 73686F72 		.ascii	"short int\000"
 4388      7420696E 
 4388      7400
 4389              	.LASF50:
 4390 011b 5350495F 		.ascii	"SPI_BaudRatePrescaler\000"
 4390      42617564 
 4390      52617465 
 4390      50726573 
 4390      63616C65 
 4391              	.LASF29:
 4392 0131 52584352 		.ascii	"RXCRCR\000"
 4392      435200
 4393              	.LASF26:
 4394 0138 52455345 		.ascii	"RESERVED3\000"
 4394      52564544 
 4394      3300
 4395              	.LASF12:
 4396 0142 75696E74 		.ascii	"uint8_t\000"
 4396      385F7400 
 4397              	.LASF102:
 4398 014a 736F7572 		.ascii	"sourceclock\000"
 4398      6365636C 
 4398      6F636B00 
 4399              	.LASF34:
 4400 0156 52455345 		.ascii	"RESERVED7\000"
 4400      52564544 
 4400      3700
 4401              	.LASF78:
 4402 0160 4E657753 		.ascii	"NewState\000"
 4402      74617465 
 4402      00
 4403              	.LASF75:
 4404 0169 5350495F 		.ascii	"SPI_CRC\000"
 4404      43524300 
 4405              	.LASF93:
 4406 0171 4932535F 		.ascii	"I2S_InitStruct\000"
 4406      496E6974 
 4406      53747275 
 4406      637400
 4407              	.LASF20:
 4408 0180 44495341 		.ascii	"DISABLE\000"
 4408      424C4500 
 4409              	.LASF60:
 4410 0188 4932535F 		.ascii	"I2S_InitTypeDef\000"
 4410      496E6974 
 4410      54797065 
 4410      44656600 
 4411              	.LASF66:
 4412 0198 656E6162 		.ascii	"enablestatus\000"
 4412      6C657374 
ARM GAS  G:\Users\Jaxb\AppData\Local\Temp\ccN59N5m.s 			page 96


 4412      61747573 
 4412      00
 4413              	.LASF96:
 4414 01a5 4932535F 		.ascii	"I2S_Init\000"
 4414      496E6974 
 4414      00
 4415              	.LASF106:
 4416 01ae 463A5C6B 		.ascii	"F:\\kaka\\KAKAOS\\C\\windows\\Project\\RVMDK\243\250"
 4416      616B615C 
 4416      4B414B41 
 4416      4F535C43 
 4416      5C77696E 
 4417 01d6 757635A3 		.ascii	"uv5\243\251\000"
 4417      A900
 4418              	.LASF92:
 4419 01dc 4932535F 		.ascii	"I2S_StructInit\000"
 4419      53747275 
 4419      6374496E 
 4419      697400
 4420              	.LASF72:
 4421 01eb 5350495F 		.ascii	"SPI_BiDirectionalLineConfig\000"
 4421      42694469 
 4421      72656374 
 4421      696F6E61 
 4421      6C4C696E 
 4422              	.LASF98:
 4423 0207 69327364 		.ascii	"i2sdiv\000"
 4423      697600
 4424              	.LASF89:
 4425 020e 5350495F 		.ascii	"SPI_I2S_ITConfig\000"
 4425      4932535F 
 4425      4954436F 
 4425      6E666967 
 4425      00
 4426              	.LASF58:
 4427 021f 4932535F 		.ascii	"I2S_AudioFreq\000"
 4427      41756469 
 4427      6F467265 
 4427      7100
 4428              	.LASF18:
 4429 022d 466C6167 		.ascii	"FlagStatus\000"
 4429      53746174 
 4429      757300
 4430              	.LASF3:
 4431 0238 5F5F7569 		.ascii	"__uint8_t\000"
 4431      6E74385F 
 4431      7400
 4432              	.LASF57:
 4433 0242 4932535F 		.ascii	"I2S_MCLKOutput\000"
 4433      4D434C4B 
 4433      4F757470 
 4433      757400
 4434              	.LASF86:
 4435 0251 44617461 		.ascii	"Data\000"
 4435      00
 4436              	.LASF62:
 4437 0256 5350495F 		.ascii	"SPI_I2S_IT\000"
ARM GAS  G:\Users\Jaxb\AppData\Local\Temp\ccN59N5m.s 			page 97


 4437      4932535F 
 4437      495400
 4438              	.LASF97:
 4439 0261 746D7072 		.ascii	"tmpreg\000"
 4439      656700
 4440              	.LASF91:
 4441 0268 5350495F 		.ascii	"SPI_Cmd\000"
 4441      436D6400 
 4442              	.LASF74:
 4443 0270 5350495F 		.ascii	"SPI_GetCRC\000"
 4443      47657443 
 4443      524300
 4444              	.LASF80:
 4445 027b 5350495F 		.ascii	"SPI_DataSizeConfig\000"
 4445      44617461 
 4445      53697A65 
 4445      436F6E66 
 4445      696700
 4446              	.LASF1:
 4447 028e 756E7369 		.ascii	"unsigned char\000"
 4447      676E6564 
 4447      20636861 
 4447      7200
 4448              	.LASF56:
 4449 029c 4932535F 		.ascii	"I2S_DataFormat\000"
 4449      44617461 
 4449      466F726D 
 4449      617400
 4450              	.LASF107:
 4451 02ab 5350495F 		.ascii	"SPI_I2S_DeInit\000"
 4451      4932535F 
 4451      4465496E 
 4451      697400
 4452              	.LASF0:
 4453 02ba 7369676E 		.ascii	"signed char\000"
 4453      65642063 
 4453      68617200 
 4454              	.LASF82:
 4455 02c6 5350495F 		.ascii	"SPI_NSSInternalSoftwareConfig\000"
 4455      4E535349 
 4455      6E746572 
 4455      6E616C53 
 4455      6F667477 
 4456              	.LASF10:
 4457 02e4 6C6F6E67 		.ascii	"long long unsigned int\000"
 4457      206C6F6E 
 4457      6720756E 
 4457      7369676E 
 4457      65642069 
 4458              	.LASF14:
 4459 02fb 75696E74 		.ascii	"uint32_t\000"
 4459      33325F74 
 4459      00
 4460              	.LASF33:
 4461 0304 49325343 		.ascii	"I2SCFGR\000"
 4461      46475200 
 4462              	.LASF11:
ARM GAS  G:\Users\Jaxb\AppData\Local\Temp\ccN59N5m.s 			page 98


 4463 030c 756E7369 		.ascii	"unsigned int\000"
 4463      676E6564 
 4463      20696E74 
 4463      00
 4464              	.LASF13:
 4465 0319 75696E74 		.ascii	"uint16_t\000"
 4465      31365F74 
 4465      00
 4466              	.LASF70:
 4467 0322 5350495F 		.ascii	"SPI_I2S_GetITStatus\000"
 4467      4932535F 
 4467      47657449 
 4467      54537461 
 4467      74757300 
 4468              	.LASF8:
 4469 0336 6C6F6E67 		.ascii	"long unsigned int\000"
 4469      20756E73 
 4469      69676E65 
 4469      6420696E 
 4469      7400
 4470              	.LASF5:
 4471 0348 73686F72 		.ascii	"short unsigned int\000"
 4471      7420756E 
 4471      7369676E 
 4471      65642069 
 4471      6E7400
 4472              	.LASF27:
 4473 035b 43524350 		.ascii	"CRCPR\000"
 4473      5200
 4474              	.LASF45:
 4475 0361 5350495F 		.ascii	"SPI_Mode\000"
 4475      4D6F6465 
 4475      00
 4476              	.LASF6:
 4477 036a 6C6F6E67 		.ascii	"long int\000"
 4477      20696E74 
 4477      00
 4478              	.LASF42:
 4479 0373 41444343 		.ascii	"ADCCLK_Frequency\000"
 4479      4C4B5F46 
 4479      72657175 
 4479      656E6379 
 4479      00
 4480              	.LASF37:
 4481 0384 5350495F 		.ascii	"SPI_TypeDef\000"
 4481      54797065 
 4481      44656600 
 4482              	.LASF64:
 4483 0390 62697473 		.ascii	"bitstatus\000"
 4483      74617475 
 4483      7300
 4484              	.LASF38:
 4485 039a 53595343 		.ascii	"SYSCLK_Frequency\000"
 4485      4C4B5F46 
 4485      72657175 
 4485      656E6379 
 4485      00
ARM GAS  G:\Users\Jaxb\AppData\Local\Temp\ccN59N5m.s 			page 99


 4486              	.LASF101:
 4487 03ab 5243435F 		.ascii	"RCC_Clocks\000"
 4487      436C6F63 
 4487      6B7300
 4488              	.LASF16:
 4489 03b6 53797374 		.ascii	"SystemCoreClock\000"
 4489      656D436F 
 4489      7265436C 
 4489      6F636B00 
 4490              	.LASF41:
 4491 03c6 50434C4B 		.ascii	"PCLK2_Frequency\000"
 4491      325F4672 
 4491      65717565 
 4491      6E637900 
 4492              	.LASF84:
 4493 03d6 5350495F 		.ascii	"SPI_I2S_ReceiveData\000"
 4493      4932535F 
 4493      52656365 
 4493      69766544 
 4493      61746100 
 4494              	.LASF83:
 4495 03ea 5350495F 		.ascii	"SPI_NSSInternalSoft\000"
 4495      4E535349 
 4495      6E746572 
 4495      6E616C53 
 4495      6F667400 
 4496              	.LASF68:
 4497 03fe 5350495F 		.ascii	"SPI_I2S_ClearFlag\000"
 4497      4932535F 
 4497      436C6561 
 4497      72466C61 
 4497      6700
 4498              	.LASF23:
 4499 0410 52455345 		.ascii	"RESERVED0\000"
 4499      52564544 
 4499      3000
 4500              	.LASF24:
 4501 041a 52455345 		.ascii	"RESERVED1\000"
 4501      52564544 
 4501      3100
 4502              	.LASF25:
 4503 0424 52455345 		.ascii	"RESERVED2\000"
 4503      52564544 
 4503      3200
 4504              	.LASF90:
 4505 042e 4932535F 		.ascii	"I2S_Cmd\000"
 4505      436D6400 
 4506              	.LASF28:
 4507 0436 52455345 		.ascii	"RESERVED4\000"
 4507      52564544 
 4507      3400
 4508              	.LASF30:
 4509 0440 52455345 		.ascii	"RESERVED5\000"
 4509      52564544 
 4509      3500
 4510              	.LASF32:
 4511 044a 52455345 		.ascii	"RESERVED6\000"
ARM GAS  G:\Users\Jaxb\AppData\Local\Temp\ccN59N5m.s 			page 100


 4511      52564544 
 4511      3600
 4512              	.LASF94:
 4513 0454 5350495F 		.ascii	"SPI_StructInit\000"
 4513      53747275 
 4513      6374496E 
 4513      697400
 4514              	.LASF36:
 4515 0463 52455345 		.ascii	"RESERVED8\000"
 4515      52564544 
 4515      3800
 4516              	.LASF22:
 4517 046d 46756E63 		.ascii	"FunctionalState\000"
 4517      74696F6E 
 4517      616C5374 
 4517      61746500 
 4518              	.LASF105:
 4519 047d 2E2E2F2E 		.ascii	"../../source/src/FWlib/src/stm32f10x_spi.c\000"
 4519      2E2F736F 
 4519      75726365 
 4519      2F737263 
 4519      2F46576C 
 4520              	.LASF40:
 4521 04a8 50434C4B 		.ascii	"PCLK1_Frequency\000"
 4521      315F4672 
 4521      65717565 
 4521      6E637900 
 4522              	.LASF67:
 4523 04b8 5350495F 		.ascii	"SPI_I2S_ClearITPendingBit\000"
 4523      4932535F 
 4523      436C6561 
 4523      72495450 
 4523      656E6469 
 4524              	.LASF17:
 4525 04d2 52455345 		.ascii	"RESET\000"
 4525      5400
 4526              	.LASF54:
 4527 04d8 4932535F 		.ascii	"I2S_Mode\000"
 4527      4D6F6465 
 4527      00
 4528              	.LASF71:
 4529 04e1 5350495F 		.ascii	"SPI_I2S_GetFlagStatus\000"
 4529      4932535F 
 4529      47657446 
 4529      6C616753 
 4529      74617475 
 4530              	.LASF61:
 4531 04f7 53504978 		.ascii	"SPIx\000"
 4531      00
 4532              	.LASF81:
 4533 04fc 5350495F 		.ascii	"SPI_SSOutputCmd\000"
 4533      53534F75 
 4533      74707574 
 4533      436D6400 
 4534              	.LASF104:
 4535 050c 474E5520 		.ascii	"GNU C11 7.3.1 20180622 (release) [ARM/embedded-7-br"
 4535      43313120 
ARM GAS  G:\Users\Jaxb\AppData\Local\Temp\ccN59N5m.s 			page 101


 4535      372E332E 
 4535      31203230 
 4535      31383036 
 4536 053f 616E6368 		.ascii	"anch revision 261907] -mcpu=cortex-m3 -mthumb -mapc"
 4536      20726576 
 4536      6973696F 
 4536      6E203236 
 4536      31393037 
 4537 0572 732D6672 		.ascii	"s-frame -mthumb-interwork -mcpu=cortex-m3 -mthumb -"
 4537      616D6520 
 4537      2D6D7468 
 4537      756D622D 
 4537      696E7465 
 4538 05a5 67647761 		.ascii	"gdwarf-2 -O0\000"
 4538      72662D32 
 4538      202D4F30 
 4538      00
 4539              	.LASF99:
 4540 05b2 6932736F 		.ascii	"i2sodd\000"
 4540      646400
 4541              	.LASF79:
 4542 05b9 5350495F 		.ascii	"SPI_TransmitCRC\000"
 4542      5472616E 
 4542      736D6974 
 4542      43524300 
 4543              	.LASF47:
 4544 05c9 5350495F 		.ascii	"SPI_CPOL\000"
 4544      43504F4C 
 4544      00
 4545              	.LASF65:
 4546 05d2 69746D61 		.ascii	"itmask\000"
 4546      736B00
 4547              	.LASF15:
 4548 05d9 49544D5F 		.ascii	"ITM_RxBuffer\000"
 4548      52784275 
 4548      66666572 
 4548      00
 4549              	.LASF77:
 4550 05e6 5350495F 		.ascii	"SPI_CalculateCRC\000"
 4550      43616C63 
 4550      756C6174 
 4550      65435243 
 4550      00
 4551              	.LASF35:
 4552 05f7 49325350 		.ascii	"I2SPR\000"
 4552      5200
 4553              	.LASF76:
 4554 05fd 63726372 		.ascii	"crcreg\000"
 4554      656700
 4555              	.LASF52:
 4556 0604 5350495F 		.ascii	"SPI_CRCPolynomial\000"
 4556      43524350 
 4556      6F6C796E 
 4556      6F6D6961 
 4556      6C00
 4557              	.LASF21:
 4558 0616 454E4142 		.ascii	"ENABLE\000"
ARM GAS  G:\Users\Jaxb\AppData\Local\Temp\ccN59N5m.s 			page 102


 4558      4C4500
 4559              	.LASF53:
 4560 061d 5350495F 		.ascii	"SPI_InitTypeDef\000"
 4560      496E6974 
 4560      54797065 
 4560      44656600 
 4561              	.LASF95:
 4562 062d 5350495F 		.ascii	"SPI_InitStruct\000"
 4562      496E6974 
 4562      53747275 
 4562      637400
 4563              		.ident	"GCC: (GNU Tools for Arm Embedded Processors 7-2018-q2-update) 7.3.1 20180622 (release) [AR
ARM GAS  G:\Users\Jaxb\AppData\Local\Temp\ccN59N5m.s 			page 103


DEFINED SYMBOLS
                            *ABS*:00000000 stm32f10x_spi.c
G:\Users\Jaxb\AppData\Local\Temp\ccN59N5m.s:15     .text:00000000 $t
G:\Users\Jaxb\AppData\Local\Temp\ccN59N5m.s:22     .text:00000000 SPI_I2S_DeInit
G:\Users\Jaxb\AppData\Local\Temp\ccN59N5m.s:100    .text:00000068 $d
G:\Users\Jaxb\AppData\Local\Temp\ccN59N5m.s:106    .text:00000074 $t
G:\Users\Jaxb\AppData\Local\Temp\ccN59N5m.s:113    .text:00000074 SPI_Init
G:\Users\Jaxb\AppData\Local\Temp\ccN59N5m.s:230    .text:000000fa I2S_Init
G:\Users\Jaxb\AppData\Local\Temp\ccN59N5m.s:460    .text:00000258 $d
G:\Users\Jaxb\AppData\Local\Temp\ccN59N5m.s:465    .text:00000260 $t
G:\Users\Jaxb\AppData\Local\Temp\ccN59N5m.s:472    .text:00000260 SPI_StructInit
G:\Users\Jaxb\AppData\Local\Temp\ccN59N5m.s:550    .text:000002a8 I2S_StructInit
G:\Users\Jaxb\AppData\Local\Temp\ccN59N5m.s:616    .text:000002de SPI_Cmd
G:\Users\Jaxb\AppData\Local\Temp\ccN59N5m.s:684    .text:0000031c I2S_Cmd
G:\Users\Jaxb\AppData\Local\Temp\ccN59N5m.s:752    .text:0000035a SPI_I2S_ITConfig
G:\Users\Jaxb\AppData\Local\Temp\ccN59N5m.s:841    .text:000003ba SPI_I2S_DMACmd
G:\Users\Jaxb\AppData\Local\Temp\ccN59N5m.s:915    .text:00000400 SPI_I2S_SendData
G:\Users\Jaxb\AppData\Local\Temp\ccN59N5m.s:963    .text:0000041c SPI_I2S_ReceiveData
G:\Users\Jaxb\AppData\Local\Temp\ccN59N5m.s:1009   .text:00000434 SPI_NSSInternalSoftwareConfig
G:\Users\Jaxb\AppData\Local\Temp\ccN59N5m.s:1078   .text:00000476 SPI_SSOutputCmd
G:\Users\Jaxb\AppData\Local\Temp\ccN59N5m.s:1146   .text:000004b4 SPI_DataSizeConfig
G:\Users\Jaxb\AppData\Local\Temp\ccN59N5m.s:1207   .text:000004ea SPI_TransmitCRC
G:\Users\Jaxb\AppData\Local\Temp\ccN59N5m.s:1257   .text:0000050c SPI_CalculateCRC
G:\Users\Jaxb\AppData\Local\Temp\ccN59N5m.s:1325   .text:0000054a SPI_GetCRC
G:\Users\Jaxb\AppData\Local\Temp\ccN59N5m.s:1389   .text:0000057a SPI_GetCRCPolynomial
G:\Users\Jaxb\AppData\Local\Temp\ccN59N5m.s:1435   .text:00000592 SPI_BiDirectionalLineConfig
G:\Users\Jaxb\AppData\Local\Temp\ccN59N5m.s:1503   .text:000005d2 SPI_I2S_GetFlagStatus
G:\Users\Jaxb\AppData\Local\Temp\ccN59N5m.s:1570   .text:00000608 SPI_I2S_ClearFlag
G:\Users\Jaxb\AppData\Local\Temp\ccN59N5m.s:1620   .text:00000628 SPI_I2S_GetITStatus
G:\Users\Jaxb\AppData\Local\Temp\ccN59N5m.s:1721   .text:0000069c SPI_I2S_ClearITPendingBit

UNDEFINED SYMBOLS
RCC_APB2PeriphResetCmd
RCC_APB1PeriphResetCmd
RCC_GetClocksFreq
