ARM GAS  G:\Users\Jaxb\AppData\Local\Temp\ccfyFrti.s 			page 1


   1              		.cpu cortex-m3
   2              		.eabi_attribute 20, 1
   3              		.eabi_attribute 21, 1
   4              		.eabi_attribute 23, 3
   5              		.eabi_attribute 24, 1
   6              		.eabi_attribute 25, 1
   7              		.eabi_attribute 26, 1
   8              		.eabi_attribute 30, 6
   9              		.eabi_attribute 34, 1
  10              		.eabi_attribute 18, 4
  11              		.file	"stm32_bsp.c"
  12              		.text
  13              	.Ltext0:
  14              		.cfi_sections	.debug_frame
  15              		.section	.rodata
  16              		.align	2
  17              		.type	para1, %object
  18              		.size	para1, 12
  19              	para1:
  20 0000 01000000 		.word	1
  21 0004 00000020 		.word	536870912
  22 0008 40000000 		.word	64
  23              		.align	2
  24              		.type	para2, %object
  25              		.size	para2, 12
  26              	para2:
  27 000c 02000000 		.word	2
  28 0010 00000068 		.word	1744830464
  29 0014 00040000 		.word	1024
  30              		.align	2
  31              	.LC0:
  32 0018 55534152 		.ascii	"USART1\000"
  32      543100
  33 001f 00       		.align	2
  34              	.LC1:
  35 0020 5352414D 		.ascii	"SRAM\000"
  35      00
  36 0025 000000   		.align	2
  37              	.LC2:
  38 0028 55534152 		.ascii	"USART2\000"
  38      543200
  39 002f 00       		.align	2
  40              	.LC3:
  41 0030 66697273 		.ascii	"first mem\000"
  41      74206D65 
  41      6D00
  42 003a 0000     		.align	2
  43              	.LC4:
  44 003c 7365636F 		.ascii	"second mem\000"
  44      6E64206D 
  44      656D00
  45 0047 00       		.align	2
  46              		.type	device_array, %object
  47              		.size	device_array, 100
  48              	device_array:
  49 0048 18000000 		.word	.LC0
  50 004c 00000000 		.word	0
ARM GAS  G:\Users\Jaxb\AppData\Local\Temp\ccfyFrti.s 			page 2


  51 0050 00       		.byte	0
  52 0051 000000   		.space	3
  53 0054 00000000 		.word	USART_Config
  54 0058 00000000 		.space	4
  55 005c 20000000 		.word	.LC1
  56 0060 00000000 		.word	0
  57 0064 00       		.byte	0
  58 0065 000000   		.space	3
  59 0068 00000000 		.word	FSMC_SRAM_Init
  60 006c 00000000 		.space	4
  61 0070 28000000 		.word	.LC2
  62 0074 00000000 		.word	0
  63 0078 00       		.byte	0
  64 0079 000000   		.space	3
  65 007c 00000000 		.word	USART2_Config
  66 0080 00000000 		.space	4
  67 0084 30000000 		.word	.LC3
  68 0088 00000000 		.word	0
  69 008c 01       		.byte	1
  70 008d 000000   		.space	3
  71 0090 00000000 		.word	buddy_init
  72 0094 00000000 		.word	para1
  73 0098 3C000000 		.word	.LC4
  74 009c 00000000 		.word	0
  75 00a0 01       		.byte	1
  76 00a1 000000   		.space	3
  77 00a4 00000000 		.word	buddy_init
  78 00a8 0C000000 		.word	para2
  79              		.text
  80              		.align	1
  81              		.global	ka_putchar
  82              		.syntax unified
  83              		.thumb
  84              		.thumb_func
  85              		.fpu softvfp
  86              		.type	ka_putchar, %function
  87              	ka_putchar:
  88              	.LFB33:
  89              		.file 1 "../../source/src/kernel/OS_CPU/bsp/stm32_bsp.c"
   1:../../source/src/kernel/OS_CPU/bsp/stm32_bsp.c **** #include <bsp.h>
   2:../../source/src/kernel/OS_CPU/bsp/stm32_bsp.c **** #include <buddy.h>
   3:../../source/src/kernel/OS_CPU/bsp/stm32_bsp.c **** #include <bsp_usart.h>
   4:../../source/src/kernel/OS_CPU/bsp/stm32_bsp.c **** #include <sram.h>
   5:../../source/src/kernel/OS_CPU/bsp/stm32_bsp.c **** #include <myMicroLIB.h>
   6:../../source/src/kernel/OS_CPU/bsp/stm32_bsp.c **** 
   7:../../source/src/kernel/OS_CPU/bsp/stm32_bsp.c **** static const struct dev_mem_para para1 = {
   8:../../source/src/kernel/OS_CPU/bsp/stm32_bsp.c **** 	.start = (void *)0x20000000,
   9:../../source/src/kernel/OS_CPU/bsp/stm32_bsp.c **** 	.size = 64, // KB
  10:../../source/src/kernel/OS_CPU/bsp/stm32_bsp.c **** 	.prio = 1,
  11:../../source/src/kernel/OS_CPU/bsp/stm32_bsp.c **** };
  12:../../source/src/kernel/OS_CPU/bsp/stm32_bsp.c **** 
  13:../../source/src/kernel/OS_CPU/bsp/stm32_bsp.c **** static const struct dev_mem_para para2 = {
  14:../../source/src/kernel/OS_CPU/bsp/stm32_bsp.c **** 	.start = (void *)0x68000000,
  15:../../source/src/kernel/OS_CPU/bsp/stm32_bsp.c **** 	.size = 1024, //KB
  16:../../source/src/kernel/OS_CPU/bsp/stm32_bsp.c **** 	.prio = 2,
  17:../../source/src/kernel/OS_CPU/bsp/stm32_bsp.c **** };
  18:../../source/src/kernel/OS_CPU/bsp/stm32_bsp.c **** 
ARM GAS  G:\Users\Jaxb\AppData\Local\Temp\ccfyFrti.s 			page 3


  19:../../source/src/kernel/OS_CPU/bsp/stm32_bsp.c **** static const struct device device_array[] = {
  20:../../source/src/kernel/OS_CPU/bsp/stm32_bsp.c **** 
  21:../../source/src/kernel/OS_CPU/bsp/stm32_bsp.c **** 	{
  22:../../source/src/kernel/OS_CPU/bsp/stm32_bsp.c **** 		.head.dev_name = "USART1",
  23:../../source/src/kernel/OS_CPU/bsp/stm32_bsp.c **** 		.head.dev_info = NULL,
  24:../../source/src/kernel/OS_CPU/bsp/stm32_bsp.c **** 		.head.type = DEV_NORMAL,
  25:../../source/src/kernel/OS_CPU/bsp/stm32_bsp.c **** 		.u.normal.init_fun = USART_Config,
  26:../../source/src/kernel/OS_CPU/bsp/stm32_bsp.c **** 	},
  27:../../source/src/kernel/OS_CPU/bsp/stm32_bsp.c **** 
  28:../../source/src/kernel/OS_CPU/bsp/stm32_bsp.c **** 	{
  29:../../source/src/kernel/OS_CPU/bsp/stm32_bsp.c **** 		.head.dev_name = "SRAM",
  30:../../source/src/kernel/OS_CPU/bsp/stm32_bsp.c **** 		.head.dev_info = NULL,
  31:../../source/src/kernel/OS_CPU/bsp/stm32_bsp.c **** 		.head.type = DEV_NORMAL,
  32:../../source/src/kernel/OS_CPU/bsp/stm32_bsp.c **** 		.u.normal.init_fun = FSMC_SRAM_Init,
  33:../../source/src/kernel/OS_CPU/bsp/stm32_bsp.c **** 	},
  34:../../source/src/kernel/OS_CPU/bsp/stm32_bsp.c **** 
  35:../../source/src/kernel/OS_CPU/bsp/stm32_bsp.c **** 	{
  36:../../source/src/kernel/OS_CPU/bsp/stm32_bsp.c **** 		.head.dev_name = "USART2",
  37:../../source/src/kernel/OS_CPU/bsp/stm32_bsp.c **** 		.head.dev_info = NULL,
  38:../../source/src/kernel/OS_CPU/bsp/stm32_bsp.c **** 		.head.type = DEV_NORMAL,
  39:../../source/src/kernel/OS_CPU/bsp/stm32_bsp.c **** 		.u.normal.init_fun = USART2_Config,
  40:../../source/src/kernel/OS_CPU/bsp/stm32_bsp.c **** 	},
  41:../../source/src/kernel/OS_CPU/bsp/stm32_bsp.c **** 
  42:../../source/src/kernel/OS_CPU/bsp/stm32_bsp.c **** 	{	
  43:../../source/src/kernel/OS_CPU/bsp/stm32_bsp.c **** 		.head.dev_name = "first mem",
  44:../../source/src/kernel/OS_CPU/bsp/stm32_bsp.c **** 		.head.dev_info = NULL,
  45:../../source/src/kernel/OS_CPU/bsp/stm32_bsp.c **** 		.head.type = DEV_MEM,
  46:../../source/src/kernel/OS_CPU/bsp/stm32_bsp.c **** 		.u.mem.init_fun = buddy_init,
  47:../../source/src/kernel/OS_CPU/bsp/stm32_bsp.c **** 		.u.mem.para = &para1,
  48:../../source/src/kernel/OS_CPU/bsp/stm32_bsp.c **** 	},
  49:../../source/src/kernel/OS_CPU/bsp/stm32_bsp.c **** 
  50:../../source/src/kernel/OS_CPU/bsp/stm32_bsp.c **** 	{	
  51:../../source/src/kernel/OS_CPU/bsp/stm32_bsp.c **** 		.head.dev_name = "second mem",
  52:../../source/src/kernel/OS_CPU/bsp/stm32_bsp.c **** 		.head.dev_info = NULL,
  53:../../source/src/kernel/OS_CPU/bsp/stm32_bsp.c **** 		.head.type = DEV_MEM,
  54:../../source/src/kernel/OS_CPU/bsp/stm32_bsp.c **** 		.u.mem.init_fun = buddy_init,
  55:../../source/src/kernel/OS_CPU/bsp/stm32_bsp.c **** 		.u.mem.para = &para2,
  56:../../source/src/kernel/OS_CPU/bsp/stm32_bsp.c **** 	}
  57:../../source/src/kernel/OS_CPU/bsp/stm32_bsp.c **** 	
  58:../../source/src/kernel/OS_CPU/bsp/stm32_bsp.c **** };
  59:../../source/src/kernel/OS_CPU/bsp/stm32_bsp.c **** 
  60:../../source/src/kernel/OS_CPU/bsp/stm32_bsp.c **** void ka_putchar(const char ch)  
  61:../../source/src/kernel/OS_CPU/bsp/stm32_bsp.c **** {
  90              		.loc 1 61 0
  91              		.cfi_startproc
  92              		@ args = 0, pretend = 0, frame = 8
  93              		@ frame_needed = 1, uses_anonymous_args = 0
  94 0000 80B5     		push	{r7, lr}
  95              	.LCFI0:
  96              		.cfi_def_cfa_offset 8
  97              		.cfi_offset 7, -8
  98              		.cfi_offset 14, -4
  99 0002 82B0     		sub	sp, sp, #8
 100              	.LCFI1:
 101              		.cfi_def_cfa_offset 16
 102 0004 00AF     		add	r7, sp, #0
 103              	.LCFI2:
ARM GAS  G:\Users\Jaxb\AppData\Local\Temp\ccfyFrti.s 			page 4


 104              		.cfi_def_cfa_register 7
 105 0006 0346     		mov	r3, r0
 106 0008 FB71     		strb	r3, [r7, #7]
  62:../../source/src/kernel/OS_CPU/bsp/stm32_bsp.c **** 	USART_SendData(DEBUG_USARTx,ch);
 107              		.loc 1 62 0
 108 000a FB79     		ldrb	r3, [r7, #7]	@ zero_extendqisi2
 109 000c 9BB2     		uxth	r3, r3
 110 000e 1946     		mov	r1, r3
 111 0010 0748     		ldr	r0, .L3
 112 0012 FFF7FEFF 		bl	USART_SendData
  63:../../source/src/kernel/OS_CPU/bsp/stm32_bsp.c **** 	while (USART_GetFlagStatus(DEBUG_USARTx, USART_FLAG_TXE) == RESET);
 113              		.loc 1 63 0
 114 0016 00BF     		nop
 115              	.L2:
 116              		.loc 1 63 0 is_stmt 0 discriminator 1
 117 0018 8021     		movs	r1, #128
 118 001a 0548     		ldr	r0, .L3
 119 001c FFF7FEFF 		bl	USART_GetFlagStatus
 120 0020 0346     		mov	r3, r0
 121 0022 002B     		cmp	r3, #0
 122 0024 F8D0     		beq	.L2
  64:../../source/src/kernel/OS_CPU/bsp/stm32_bsp.c **** }
 123              		.loc 1 64 0 is_stmt 1
 124 0026 00BF     		nop
 125 0028 0837     		adds	r7, r7, #8
 126              	.LCFI3:
 127              		.cfi_def_cfa_offset 8
 128 002a BD46     		mov	sp, r7
 129              	.LCFI4:
 130              		.cfi_def_cfa_register 13
 131              		@ sp needed
 132 002c 80BD     		pop	{r7, pc}
 133              	.L4:
 134 002e 00BF     		.align	2
 135              	.L3:
 136 0030 00380140 		.word	1073821696
 137              		.cfi_endproc
 138              	.LFE33:
 139              		.size	ka_putchar, .-ka_putchar
 140              		.align	1
 141              		.global	bsp_init
 142              		.syntax unified
 143              		.thumb
 144              		.thumb_func
 145              		.fpu softvfp
 146              		.type	bsp_init, %function
 147              	bsp_init:
 148              	.LFB34:
  65:../../source/src/kernel/OS_CPU/bsp/stm32_bsp.c **** 
  66:../../source/src/kernel/OS_CPU/bsp/stm32_bsp.c **** void bsp_init(void)
  67:../../source/src/kernel/OS_CPU/bsp/stm32_bsp.c **** {
 149              		.loc 1 67 0
 150              		.cfi_startproc
 151              		@ args = 0, pretend = 0, frame = 0
 152              		@ frame_needed = 1, uses_anonymous_args = 0
 153 0034 80B5     		push	{r7, lr}
 154              	.LCFI5:
ARM GAS  G:\Users\Jaxb\AppData\Local\Temp\ccfyFrti.s 			page 5


 155              		.cfi_def_cfa_offset 8
 156              		.cfi_offset 7, -8
 157              		.cfi_offset 14, -4
 158 0036 00AF     		add	r7, sp, #0
 159              	.LCFI6:
 160              		.cfi_def_cfa_register 7
  68:../../source/src/kernel/OS_CPU/bsp/stm32_bsp.c **** 	USART_Config();
 161              		.loc 1 68 0
 162 0038 FFF7FEFF 		bl	USART_Config
  69:../../source/src/kernel/OS_CPU/bsp/stm32_bsp.c **** 	_bsp_init(device_array,sizeof(device_array)/sizeof(struct device));
 163              		.loc 1 69 0
 164 003c 0521     		movs	r1, #5
 165 003e 0248     		ldr	r0, .L6
 166 0040 FFF7FEFF 		bl	_bsp_init
  70:../../source/src/kernel/OS_CPU/bsp/stm32_bsp.c **** }
 167              		.loc 1 70 0
 168 0044 00BF     		nop
 169 0046 80BD     		pop	{r7, pc}
 170              	.L7:
 171              		.align	2
 172              	.L6:
 173 0048 48000000 		.word	device_array
 174              		.cfi_endproc
 175              	.LFE34:
 176              		.size	bsp_init, .-bsp_init
 177              	.Letext0:
 178              		.file 2 "../../source/include/os_core/bsp.h"
 179              		.file 3 "../../source/include/os_cpu/kakaosstdint.h"
 180              		.file 4 "f:\\arm\\gcc2018\\arm-none-eabi\\include\\machine\\_default_types.h"
 181              		.file 5 "f:\\arm\\gcc2018\\arm-none-eabi\\include\\sys\\_stdint.h"
 182              		.file 6 "../../source/include/core_cm3.h"
 183              		.file 7 "../../source/include/system_stm32f10x.h"
 184              		.file 8 "../../source/include/stm32f10x.h"
 185              		.section	.debug_info,"",%progbits
 186              	.Ldebug_info0:
 187 0000 9B030000 		.4byte	0x39b
 188 0004 0200     		.2byte	0x2
 189 0006 00000000 		.4byte	.Ldebug_abbrev0
 190 000a 04       		.byte	0x4
 191 000b 01       		.uleb128 0x1
 192 000c 05020000 		.4byte	.LASF47
 193 0010 0C       		.byte	0xc
 194 0011 C8020000 		.4byte	.LASF48
 195 0015 B1000000 		.4byte	.LASF49
 196 0019 00000000 		.4byte	.Ltext0
 197 001d 4C000000 		.4byte	.Letext0
 198 0021 00000000 		.4byte	.Ldebug_line0
 199 0025 02       		.uleb128 0x2
 200 0026 01       		.byte	0x1
 201 0027 06       		.byte	0x6
 202 0028 19000000 		.4byte	.LASF0
 203 002c 02       		.uleb128 0x2
 204 002d 02       		.byte	0x2
 205 002e 05       		.byte	0x5
 206 002f A0000000 		.4byte	.LASF1
 207 0033 03       		.uleb128 0x3
 208 0034 04       		.byte	0x4
ARM GAS  G:\Users\Jaxb\AppData\Local\Temp\ccfyFrti.s 			page 6


 209 0035 05       		.byte	0x5
 210 0036 696E7400 		.ascii	"int\000"
 211 003a 04       		.uleb128 0x4
 212 003b 33000000 		.4byte	0x33
 213 003f 02       		.uleb128 0x2
 214 0040 08       		.byte	0x8
 215 0041 05       		.byte	0x5
 216 0042 DF000000 		.4byte	.LASF2
 217 0046 02       		.uleb128 0x2
 218 0047 01       		.byte	0x1
 219 0048 08       		.byte	0x8
 220 0049 16010000 		.4byte	.LASF3
 221 004d 02       		.uleb128 0x2
 222 004e 02       		.byte	0x2
 223 004f 07       		.byte	0x7
 224 0050 63010000 		.4byte	.LASF4
 225 0054 05       		.uleb128 0x5
 226 0055 3D000000 		.4byte	.LASF25
 227 0059 03       		.byte	0x3
 228 005a 0C       		.byte	0xc
 229 005b 5F000000 		.4byte	0x5f
 230 005f 02       		.uleb128 0x2
 231 0060 04       		.byte	0x4
 232 0061 07       		.byte	0x7
 233 0062 35010000 		.4byte	.LASF5
 234 0066 02       		.uleb128 0x2
 235 0067 08       		.byte	0x8
 236 0068 07       		.byte	0x7
 237 0069 ED000000 		.4byte	.LASF6
 238 006d 06       		.uleb128 0x6
 239 006e 25000000 		.4byte	.LASF50
 240 0072 07       		.byte	0x7
 241 0073 01       		.byte	0x1
 242 0074 46000000 		.4byte	0x46
 243 0078 02       		.byte	0x2
 244 0079 05       		.byte	0x5
 245 007a 8B000000 		.4byte	0x8b
 246 007e 07       		.uleb128 0x7
 247 007f 95000000 		.4byte	.LASF7
 248 0083 00       		.byte	0
 249 0084 07       		.uleb128 0x7
 250 0085 24010000 		.4byte	.LASF8
 251 0089 01       		.byte	0x1
 252 008a 00       		.byte	0
 253 008b 08       		.uleb128 0x8
 254 008c 0E000000 		.4byte	.LASF9
 255 0090 04       		.byte	0x4
 256 0091 02       		.byte	0x2
 257 0092 0A       		.byte	0xa
 258 0093 A6000000 		.4byte	0xa6
 259 0097 09       		.uleb128 0x9
 260 0098 0D010000 		.4byte	.LASF11
 261 009c 02       		.byte	0x2
 262 009d 0B       		.byte	0xb
 263 009e A8000000 		.4byte	0xa8
 264 00a2 02       		.byte	0x2
 265 00a3 23       		.byte	0x23
ARM GAS  G:\Users\Jaxb\AppData\Local\Temp\ccfyFrti.s 			page 7


 266 00a4 00       		.uleb128 0
 267 00a5 00       		.byte	0
 268 00a6 0A       		.uleb128 0xa
 269 00a7 01       		.byte	0x1
 270 00a8 0B       		.uleb128 0xb
 271 00a9 04       		.byte	0x4
 272 00aa A6000000 		.4byte	0xa6
 273 00ae 08       		.uleb128 0x8
 274 00af 68000000 		.4byte	.LASF10
 275 00b3 0C       		.byte	0xc
 276 00b4 02       		.byte	0x2
 277 00b5 0E       		.byte	0xe
 278 00b6 E5000000 		.4byte	0xe5
 279 00ba 09       		.uleb128 0x9
 280 00bb C3020000 		.4byte	.LASF12
 281 00bf 02       		.byte	0x2
 282 00c0 0F       		.byte	0xf
 283 00c1 5F000000 		.4byte	0x5f
 284 00c5 02       		.byte	0x2
 285 00c6 23       		.byte	0x23
 286 00c7 00       		.uleb128 0
 287 00c8 09       		.uleb128 0x9
 288 00c9 5D010000 		.4byte	.LASF13
 289 00cd 02       		.byte	0x2
 290 00ce 10       		.byte	0x10
 291 00cf EA000000 		.4byte	0xea
 292 00d3 02       		.byte	0x2
 293 00d4 23       		.byte	0x23
 294 00d5 04       		.uleb128 0x4
 295 00d6 09       		.uleb128 0x9
 296 00d7 EB010000 		.4byte	.LASF14
 297 00db 02       		.byte	0x2
 298 00dc 11       		.byte	0x11
 299 00dd 54000000 		.4byte	0x54
 300 00e1 02       		.byte	0x2
 301 00e2 23       		.byte	0x23
 302 00e3 08       		.uleb128 0x8
 303 00e4 00       		.byte	0
 304 00e5 0C       		.uleb128 0xc
 305 00e6 AE000000 		.4byte	0xae
 306 00ea 0D       		.uleb128 0xd
 307 00eb 04       		.byte	0x4
 308 00ec 08       		.uleb128 0x8
 309 00ed F6010000 		.4byte	.LASF15
 310 00f1 08       		.byte	0x8
 311 00f2 02       		.byte	0x2
 312 00f3 14       		.byte	0x14
 313 00f4 15010000 		.4byte	0x115
 314 00f8 09       		.uleb128 0x9
 315 00f9 0D010000 		.4byte	.LASF11
 316 00fd 02       		.byte	0x2
 317 00fe 15       		.byte	0x15
 318 00ff 27010000 		.4byte	0x127
 319 0103 02       		.byte	0x2
 320 0104 23       		.byte	0x23
 321 0105 00       		.uleb128 0
 322 0106 09       		.uleb128 0x9
ARM GAS  G:\Users\Jaxb\AppData\Local\Temp\ccfyFrti.s 			page 8


 323 0107 90000000 		.4byte	.LASF16
 324 010b 02       		.byte	0x2
 325 010c 16       		.byte	0x16
 326 010d 21010000 		.4byte	0x121
 327 0111 02       		.byte	0x2
 328 0112 23       		.byte	0x23
 329 0113 04       		.uleb128 0x4
 330 0114 00       		.byte	0
 331 0115 0E       		.uleb128 0xe
 332 0116 01       		.byte	0x1
 333 0117 21010000 		.4byte	0x121
 334 011b 0F       		.uleb128 0xf
 335 011c 21010000 		.4byte	0x121
 336 0120 00       		.byte	0
 337 0121 0B       		.uleb128 0xb
 338 0122 04       		.byte	0x4
 339 0123 E5000000 		.4byte	0xe5
 340 0127 0B       		.uleb128 0xb
 341 0128 04       		.byte	0x4
 342 0129 15010000 		.4byte	0x115
 343 012d 08       		.uleb128 0x8
 344 012e 84000000 		.4byte	.LASF17
 345 0132 0C       		.byte	0xc
 346 0133 02       		.byte	0x2
 347 0134 19       		.byte	0x19
 348 0135 64010000 		.4byte	0x164
 349 0139 09       		.uleb128 0x9
 350 013a 76010000 		.4byte	.LASF18
 351 013e 02       		.byte	0x2
 352 013f 1A       		.byte	0x1a
 353 0140 64010000 		.4byte	0x164
 354 0144 02       		.byte	0x2
 355 0145 23       		.byte	0x23
 356 0146 00       		.uleb128 0
 357 0147 09       		.uleb128 0x9
 358 0148 00000000 		.4byte	.LASF19
 359 014c 02       		.byte	0x2
 360 014d 1B       		.byte	0x1b
 361 014e 64010000 		.4byte	0x164
 362 0152 02       		.byte	0x2
 363 0153 23       		.byte	0x23
 364 0154 04       		.uleb128 0x4
 365 0155 09       		.uleb128 0x9
 366 0156 84010000 		.4byte	.LASF20
 367 015a 02       		.byte	0x2
 368 015b 1D       		.byte	0x1d
 369 015c 6D000000 		.4byte	0x6d
 370 0160 02       		.byte	0x2
 371 0161 23       		.byte	0x23
 372 0162 08       		.uleb128 0x8
 373 0163 00       		.byte	0
 374 0164 0B       		.uleb128 0xb
 375 0165 04       		.byte	0x4
 376 0166 6A010000 		.4byte	0x16a
 377 016a 02       		.uleb128 0x2
 378 016b 01       		.byte	0x1
 379 016c 08       		.byte	0x8
ARM GAS  G:\Users\Jaxb\AppData\Local\Temp\ccfyFrti.s 			page 9


 380 016d 7F010000 		.4byte	.LASF21
 381 0171 0C       		.uleb128 0xc
 382 0172 6A010000 		.4byte	0x16a
 383 0176 10       		.uleb128 0x10
 384 0177 08       		.byte	0x8
 385 0178 02       		.byte	0x2
 386 0179 23       		.byte	0x23
 387 017a 95010000 		.4byte	0x195
 388 017e 11       		.uleb128 0x11
 389 017f FE010000 		.4byte	.LASF22
 390 0183 02       		.byte	0x2
 391 0184 24       		.byte	0x24
 392 0185 8B000000 		.4byte	0x8b
 393 0189 12       		.uleb128 0x12
 394 018a 6D656D00 		.ascii	"mem\000"
 395 018e 02       		.byte	0x2
 396 018f 25       		.byte	0x25
 397 0190 EC000000 		.4byte	0xec
 398 0194 00       		.byte	0
 399 0195 08       		.uleb128 0x8
 400 0196 AA000000 		.4byte	.LASF23
 401 019a 14       		.byte	0x14
 402 019b 02       		.byte	0x2
 403 019c 20       		.byte	0x20
 404 019d BC010000 		.4byte	0x1bc
 405 01a1 09       		.uleb128 0x9
 406 01a2 75000000 		.4byte	.LASF24
 407 01a6 02       		.byte	0x2
 408 01a7 22       		.byte	0x22
 409 01a8 2D010000 		.4byte	0x12d
 410 01ac 02       		.byte	0x2
 411 01ad 23       		.byte	0x23
 412 01ae 00       		.uleb128 0
 413 01af 13       		.uleb128 0x13
 414 01b0 7500     		.ascii	"u\000"
 415 01b2 02       		.byte	0x2
 416 01b3 26       		.byte	0x26
 417 01b4 76010000 		.4byte	0x176
 418 01b8 02       		.byte	0x2
 419 01b9 23       		.byte	0x23
 420 01ba 0C       		.uleb128 0xc
 421 01bb 00       		.byte	0
 422 01bc 0C       		.uleb128 0xc
 423 01bd 95010000 		.4byte	0x195
 424 01c1 05       		.uleb128 0x5
 425 01c2 4F000000 		.4byte	.LASF26
 426 01c6 04       		.byte	0x4
 427 01c7 39       		.byte	0x39
 428 01c8 4D000000 		.4byte	0x4d
 429 01cc 02       		.uleb128 0x2
 430 01cd 04       		.byte	0x4
 431 01ce 05       		.byte	0x5
 432 01cf 04010000 		.4byte	.LASF27
 433 01d3 05       		.uleb128 0x5
 434 01d4 44000000 		.4byte	.LASF28
 435 01d8 04       		.byte	0x4
 436 01d9 4F       		.byte	0x4f
ARM GAS  G:\Users\Jaxb\AppData\Local\Temp\ccfyFrti.s 			page 10


 437 01da DE010000 		.4byte	0x1de
 438 01de 02       		.uleb128 0x2
 439 01df 04       		.byte	0x4
 440 01e0 07       		.byte	0x7
 441 01e1 4B010000 		.4byte	.LASF29
 442 01e5 05       		.uleb128 0x5
 443 01e6 42010000 		.4byte	.LASF30
 444 01ea 05       		.byte	0x5
 445 01eb 24       		.byte	0x24
 446 01ec C1010000 		.4byte	0x1c1
 447 01f0 04       		.uleb128 0x4
 448 01f1 E5010000 		.4byte	0x1e5
 449 01f5 05       		.uleb128 0x5
 450 01f6 2C010000 		.4byte	.LASF31
 451 01fa 05       		.byte	0x5
 452 01fb 30       		.byte	0x30
 453 01fc D3010000 		.4byte	0x1d3
 454 0200 14       		.uleb128 0x14
 455 0201 AB020000 		.4byte	.LASF32
 456 0205 06       		.byte	0x6
 457 0206 CE06     		.2byte	0x6ce
 458 0208 3A000000 		.4byte	0x3a
 459 020c 01       		.byte	0x1
 460 020d 01       		.byte	0x1
 461 020e 15       		.uleb128 0x15
 462 020f 89010000 		.4byte	.LASF33
 463 0213 07       		.byte	0x7
 464 0214 35       		.byte	0x35
 465 0215 F5010000 		.4byte	0x1f5
 466 0219 01       		.byte	0x1
 467 021a 01       		.byte	0x1
 468 021b 16       		.uleb128 0x16
 469 021c 07       		.byte	0x7
 470 021d 01       		.byte	0x1
 471 021e 46000000 		.4byte	0x46
 472 0222 08       		.byte	0x8
 473 0223 0702     		.2byte	0x207
 474 0225 36020000 		.4byte	0x236
 475 0229 07       		.uleb128 0x7
 476 022a F0010000 		.4byte	.LASF34
 477 022e 00       		.byte	0
 478 022f 17       		.uleb128 0x17
 479 0230 53455400 		.ascii	"SET\000"
 480 0234 01       		.byte	0x1
 481 0235 00       		.byte	0
 482 0236 18       		.uleb128 0x18
 483 0237 1C       		.byte	0x1c
 484 0238 08       		.byte	0x8
 485 0239 D204     		.2byte	0x4d2
 486 023b 10030000 		.4byte	0x310
 487 023f 19       		.uleb128 0x19
 488 0240 535200   		.ascii	"SR\000"
 489 0243 08       		.byte	0x8
 490 0244 D404     		.2byte	0x4d4
 491 0246 F0010000 		.4byte	0x1f0
 492 024a 02       		.byte	0x2
 493 024b 23       		.byte	0x23
ARM GAS  G:\Users\Jaxb\AppData\Local\Temp\ccfyFrti.s 			page 11


 494 024c 00       		.uleb128 0
 495 024d 1A       		.uleb128 0x1a
 496 024e 99010000 		.4byte	.LASF35
 497 0252 08       		.byte	0x8
 498 0253 D504     		.2byte	0x4d5
 499 0255 E5010000 		.4byte	0x1e5
 500 0259 02       		.byte	0x2
 501 025a 23       		.byte	0x23
 502 025b 02       		.uleb128 0x2
 503 025c 19       		.uleb128 0x19
 504 025d 445200   		.ascii	"DR\000"
 505 0260 08       		.byte	0x8
 506 0261 D604     		.2byte	0x4d6
 507 0263 F0010000 		.4byte	0x1f0
 508 0267 02       		.byte	0x2
 509 0268 23       		.byte	0x23
 510 0269 04       		.uleb128 0x4
 511 026a 1A       		.uleb128 0x1a
 512 026b A3010000 		.4byte	.LASF36
 513 026f 08       		.byte	0x8
 514 0270 D704     		.2byte	0x4d7
 515 0272 E5010000 		.4byte	0x1e5
 516 0276 02       		.byte	0x2
 517 0277 23       		.byte	0x23
 518 0278 06       		.uleb128 0x6
 519 0279 19       		.uleb128 0x19
 520 027a 42525200 		.ascii	"BRR\000"
 521 027e 08       		.byte	0x8
 522 027f D804     		.2byte	0x4d8
 523 0281 F0010000 		.4byte	0x1f0
 524 0285 02       		.byte	0x2
 525 0286 23       		.byte	0x23
 526 0287 08       		.uleb128 0x8
 527 0288 1A       		.uleb128 0x1a
 528 0289 AD010000 		.4byte	.LASF37
 529 028d 08       		.byte	0x8
 530 028e D904     		.2byte	0x4d9
 531 0290 E5010000 		.4byte	0x1e5
 532 0294 02       		.byte	0x2
 533 0295 23       		.byte	0x23
 534 0296 0A       		.uleb128 0xa
 535 0297 19       		.uleb128 0x19
 536 0298 43523100 		.ascii	"CR1\000"
 537 029c 08       		.byte	0x8
 538 029d DA04     		.2byte	0x4da
 539 029f F0010000 		.4byte	0x1f0
 540 02a3 02       		.byte	0x2
 541 02a4 23       		.byte	0x23
 542 02a5 0C       		.uleb128 0xc
 543 02a6 1A       		.uleb128 0x1a
 544 02a7 B7010000 		.4byte	.LASF38
 545 02ab 08       		.byte	0x8
 546 02ac DB04     		.2byte	0x4db
 547 02ae E5010000 		.4byte	0x1e5
 548 02b2 02       		.byte	0x2
 549 02b3 23       		.byte	0x23
 550 02b4 0E       		.uleb128 0xe
ARM GAS  G:\Users\Jaxb\AppData\Local\Temp\ccfyFrti.s 			page 12


 551 02b5 19       		.uleb128 0x19
 552 02b6 43523200 		.ascii	"CR2\000"
 553 02ba 08       		.byte	0x8
 554 02bb DC04     		.2byte	0x4dc
 555 02bd F0010000 		.4byte	0x1f0
 556 02c1 02       		.byte	0x2
 557 02c2 23       		.byte	0x23
 558 02c3 10       		.uleb128 0x10
 559 02c4 1A       		.uleb128 0x1a
 560 02c5 7A000000 		.4byte	.LASF39
 561 02c9 08       		.byte	0x8
 562 02ca DD04     		.2byte	0x4dd
 563 02cc E5010000 		.4byte	0x1e5
 564 02d0 02       		.byte	0x2
 565 02d1 23       		.byte	0x23
 566 02d2 12       		.uleb128 0x12
 567 02d3 19       		.uleb128 0x19
 568 02d4 43523300 		.ascii	"CR3\000"
 569 02d8 08       		.byte	0x8
 570 02d9 DE04     		.2byte	0x4de
 571 02db F0010000 		.4byte	0x1f0
 572 02df 02       		.byte	0x2
 573 02e0 23       		.byte	0x23
 574 02e1 14       		.uleb128 0x14
 575 02e2 1A       		.uleb128 0x1a
 576 02e3 CE010000 		.4byte	.LASF40
 577 02e7 08       		.byte	0x8
 578 02e8 DF04     		.2byte	0x4df
 579 02ea E5010000 		.4byte	0x1e5
 580 02ee 02       		.byte	0x2
 581 02ef 23       		.byte	0x23
 582 02f0 16       		.uleb128 0x16
 583 02f1 1A       		.uleb128 0x1a
 584 02f2 09000000 		.4byte	.LASF41
 585 02f6 08       		.byte	0x8
 586 02f7 E004     		.2byte	0x4e0
 587 02f9 F0010000 		.4byte	0x1f0
 588 02fd 02       		.byte	0x2
 589 02fe 23       		.byte	0x23
 590 02ff 18       		.uleb128 0x18
 591 0300 1A       		.uleb128 0x1a
 592 0301 D8010000 		.4byte	.LASF42
 593 0305 08       		.byte	0x8
 594 0306 E104     		.2byte	0x4e1
 595 0308 E5010000 		.4byte	0x1e5
 596 030c 02       		.byte	0x2
 597 030d 23       		.byte	0x23
 598 030e 1A       		.uleb128 0x1a
 599 030f 00       		.byte	0
 600 0310 1B       		.uleb128 0x1b
 601 0311 5A000000 		.4byte	.LASF43
 602 0315 08       		.byte	0x8
 603 0316 E204     		.2byte	0x4e2
 604 0318 36020000 		.4byte	0x236
 605 031c 1C       		.uleb128 0x1c
 606 031d 31000000 		.4byte	.LASF44
 607 0321 01       		.byte	0x1
ARM GAS  G:\Users\Jaxb\AppData\Local\Temp\ccfyFrti.s 			page 13


 608 0322 07       		.byte	0x7
 609 0323 E5000000 		.4byte	0xe5
 610 0327 05       		.byte	0x5
 611 0328 03       		.byte	0x3
 612 0329 00000000 		.4byte	para1
 613 032d 1C       		.uleb128 0x1c
 614 032e 37000000 		.4byte	.LASF45
 615 0332 01       		.byte	0x1
 616 0333 0D       		.byte	0xd
 617 0334 E5000000 		.4byte	0xe5
 618 0338 05       		.byte	0x5
 619 0339 03       		.byte	0x3
 620 033a 0C000000 		.4byte	para2
 621 033e 1D       		.uleb128 0x1d
 622 033f BC010000 		.4byte	0x1bc
 623 0343 4E030000 		.4byte	0x34e
 624 0347 1E       		.uleb128 0x1e
 625 0348 5F000000 		.4byte	0x5f
 626 034c 04       		.byte	0x4
 627 034d 00       		.byte	0
 628 034e 0C       		.uleb128 0xc
 629 034f 3E030000 		.4byte	0x33e
 630 0353 1C       		.uleb128 0x1c
 631 0354 C1010000 		.4byte	.LASF46
 632 0358 01       		.byte	0x1
 633 0359 13       		.byte	0x13
 634 035a 4E030000 		.4byte	0x34e
 635 035e 05       		.byte	0x5
 636 035f 03       		.byte	0x3
 637 0360 48000000 		.4byte	device_array
 638 0364 1F       		.uleb128 0x1f
 639 0365 01       		.byte	0x1
 640 0366 E2010000 		.4byte	.LASF51
 641 036a 01       		.byte	0x1
 642 036b 42       		.byte	0x42
 643 036c 01       		.byte	0x1
 644 036d 34000000 		.4byte	.LFB34
 645 0371 4C000000 		.4byte	.LFE34
 646 0375 00000000 		.4byte	.LLST1
 647 0379 01       		.byte	0x1
 648 037a 20       		.uleb128 0x20
 649 037b 01       		.byte	0x1
 650 037c B8020000 		.4byte	.LASF52
 651 0380 01       		.byte	0x1
 652 0381 3C       		.byte	0x3c
 653 0382 01       		.byte	0x1
 654 0383 00000000 		.4byte	.LFB33
 655 0387 34000000 		.4byte	.LFE33
 656 038b 2C000000 		.4byte	.LLST0
 657 038f 01       		.byte	0x1
 658 0390 21       		.uleb128 0x21
 659 0391 636800   		.ascii	"ch\000"
 660 0394 01       		.byte	0x1
 661 0395 3C       		.byte	0x3c
 662 0396 71010000 		.4byte	0x171
 663 039a 02       		.byte	0x2
 664 039b 91       		.byte	0x91
ARM GAS  G:\Users\Jaxb\AppData\Local\Temp\ccfyFrti.s 			page 14


 665 039c 77       		.sleb128 -9
 666 039d 00       		.byte	0
 667 039e 00       		.byte	0
 668              		.section	.debug_abbrev,"",%progbits
 669              	.Ldebug_abbrev0:
 670 0000 01       		.uleb128 0x1
 671 0001 11       		.uleb128 0x11
 672 0002 01       		.byte	0x1
 673 0003 25       		.uleb128 0x25
 674 0004 0E       		.uleb128 0xe
 675 0005 13       		.uleb128 0x13
 676 0006 0B       		.uleb128 0xb
 677 0007 03       		.uleb128 0x3
 678 0008 0E       		.uleb128 0xe
 679 0009 1B       		.uleb128 0x1b
 680 000a 0E       		.uleb128 0xe
 681 000b 11       		.uleb128 0x11
 682 000c 01       		.uleb128 0x1
 683 000d 12       		.uleb128 0x12
 684 000e 01       		.uleb128 0x1
 685 000f 10       		.uleb128 0x10
 686 0010 06       		.uleb128 0x6
 687 0011 00       		.byte	0
 688 0012 00       		.byte	0
 689 0013 02       		.uleb128 0x2
 690 0014 24       		.uleb128 0x24
 691 0015 00       		.byte	0
 692 0016 0B       		.uleb128 0xb
 693 0017 0B       		.uleb128 0xb
 694 0018 3E       		.uleb128 0x3e
 695 0019 0B       		.uleb128 0xb
 696 001a 03       		.uleb128 0x3
 697 001b 0E       		.uleb128 0xe
 698 001c 00       		.byte	0
 699 001d 00       		.byte	0
 700 001e 03       		.uleb128 0x3
 701 001f 24       		.uleb128 0x24
 702 0020 00       		.byte	0
 703 0021 0B       		.uleb128 0xb
 704 0022 0B       		.uleb128 0xb
 705 0023 3E       		.uleb128 0x3e
 706 0024 0B       		.uleb128 0xb
 707 0025 03       		.uleb128 0x3
 708 0026 08       		.uleb128 0x8
 709 0027 00       		.byte	0
 710 0028 00       		.byte	0
 711 0029 04       		.uleb128 0x4
 712 002a 35       		.uleb128 0x35
 713 002b 00       		.byte	0
 714 002c 49       		.uleb128 0x49
 715 002d 13       		.uleb128 0x13
 716 002e 00       		.byte	0
 717 002f 00       		.byte	0
 718 0030 05       		.uleb128 0x5
 719 0031 16       		.uleb128 0x16
 720 0032 00       		.byte	0
 721 0033 03       		.uleb128 0x3
ARM GAS  G:\Users\Jaxb\AppData\Local\Temp\ccfyFrti.s 			page 15


 722 0034 0E       		.uleb128 0xe
 723 0035 3A       		.uleb128 0x3a
 724 0036 0B       		.uleb128 0xb
 725 0037 3B       		.uleb128 0x3b
 726 0038 0B       		.uleb128 0xb
 727 0039 49       		.uleb128 0x49
 728 003a 13       		.uleb128 0x13
 729 003b 00       		.byte	0
 730 003c 00       		.byte	0
 731 003d 06       		.uleb128 0x6
 732 003e 04       		.uleb128 0x4
 733 003f 01       		.byte	0x1
 734 0040 03       		.uleb128 0x3
 735 0041 0E       		.uleb128 0xe
 736 0042 3E       		.uleb128 0x3e
 737 0043 0B       		.uleb128 0xb
 738 0044 0B       		.uleb128 0xb
 739 0045 0B       		.uleb128 0xb
 740 0046 49       		.uleb128 0x49
 741 0047 13       		.uleb128 0x13
 742 0048 3A       		.uleb128 0x3a
 743 0049 0B       		.uleb128 0xb
 744 004a 3B       		.uleb128 0x3b
 745 004b 0B       		.uleb128 0xb
 746 004c 01       		.uleb128 0x1
 747 004d 13       		.uleb128 0x13
 748 004e 00       		.byte	0
 749 004f 00       		.byte	0
 750 0050 07       		.uleb128 0x7
 751 0051 28       		.uleb128 0x28
 752 0052 00       		.byte	0
 753 0053 03       		.uleb128 0x3
 754 0054 0E       		.uleb128 0xe
 755 0055 1C       		.uleb128 0x1c
 756 0056 0B       		.uleb128 0xb
 757 0057 00       		.byte	0
 758 0058 00       		.byte	0
 759 0059 08       		.uleb128 0x8
 760 005a 13       		.uleb128 0x13
 761 005b 01       		.byte	0x1
 762 005c 03       		.uleb128 0x3
 763 005d 0E       		.uleb128 0xe
 764 005e 0B       		.uleb128 0xb
 765 005f 0B       		.uleb128 0xb
 766 0060 3A       		.uleb128 0x3a
 767 0061 0B       		.uleb128 0xb
 768 0062 3B       		.uleb128 0x3b
 769 0063 0B       		.uleb128 0xb
 770 0064 01       		.uleb128 0x1
 771 0065 13       		.uleb128 0x13
 772 0066 00       		.byte	0
 773 0067 00       		.byte	0
 774 0068 09       		.uleb128 0x9
 775 0069 0D       		.uleb128 0xd
 776 006a 00       		.byte	0
 777 006b 03       		.uleb128 0x3
 778 006c 0E       		.uleb128 0xe
ARM GAS  G:\Users\Jaxb\AppData\Local\Temp\ccfyFrti.s 			page 16


 779 006d 3A       		.uleb128 0x3a
 780 006e 0B       		.uleb128 0xb
 781 006f 3B       		.uleb128 0x3b
 782 0070 0B       		.uleb128 0xb
 783 0071 49       		.uleb128 0x49
 784 0072 13       		.uleb128 0x13
 785 0073 38       		.uleb128 0x38
 786 0074 0A       		.uleb128 0xa
 787 0075 00       		.byte	0
 788 0076 00       		.byte	0
 789 0077 0A       		.uleb128 0xa
 790 0078 15       		.uleb128 0x15
 791 0079 00       		.byte	0
 792 007a 27       		.uleb128 0x27
 793 007b 0C       		.uleb128 0xc
 794 007c 00       		.byte	0
 795 007d 00       		.byte	0
 796 007e 0B       		.uleb128 0xb
 797 007f 0F       		.uleb128 0xf
 798 0080 00       		.byte	0
 799 0081 0B       		.uleb128 0xb
 800 0082 0B       		.uleb128 0xb
 801 0083 49       		.uleb128 0x49
 802 0084 13       		.uleb128 0x13
 803 0085 00       		.byte	0
 804 0086 00       		.byte	0
 805 0087 0C       		.uleb128 0xc
 806 0088 26       		.uleb128 0x26
 807 0089 00       		.byte	0
 808 008a 49       		.uleb128 0x49
 809 008b 13       		.uleb128 0x13
 810 008c 00       		.byte	0
 811 008d 00       		.byte	0
 812 008e 0D       		.uleb128 0xd
 813 008f 0F       		.uleb128 0xf
 814 0090 00       		.byte	0
 815 0091 0B       		.uleb128 0xb
 816 0092 0B       		.uleb128 0xb
 817 0093 00       		.byte	0
 818 0094 00       		.byte	0
 819 0095 0E       		.uleb128 0xe
 820 0096 15       		.uleb128 0x15
 821 0097 01       		.byte	0x1
 822 0098 27       		.uleb128 0x27
 823 0099 0C       		.uleb128 0xc
 824 009a 01       		.uleb128 0x1
 825 009b 13       		.uleb128 0x13
 826 009c 00       		.byte	0
 827 009d 00       		.byte	0
 828 009e 0F       		.uleb128 0xf
 829 009f 05       		.uleb128 0x5
 830 00a0 00       		.byte	0
 831 00a1 49       		.uleb128 0x49
 832 00a2 13       		.uleb128 0x13
 833 00a3 00       		.byte	0
 834 00a4 00       		.byte	0
 835 00a5 10       		.uleb128 0x10
ARM GAS  G:\Users\Jaxb\AppData\Local\Temp\ccfyFrti.s 			page 17


 836 00a6 17       		.uleb128 0x17
 837 00a7 01       		.byte	0x1
 838 00a8 0B       		.uleb128 0xb
 839 00a9 0B       		.uleb128 0xb
 840 00aa 3A       		.uleb128 0x3a
 841 00ab 0B       		.uleb128 0xb
 842 00ac 3B       		.uleb128 0x3b
 843 00ad 0B       		.uleb128 0xb
 844 00ae 01       		.uleb128 0x1
 845 00af 13       		.uleb128 0x13
 846 00b0 00       		.byte	0
 847 00b1 00       		.byte	0
 848 00b2 11       		.uleb128 0x11
 849 00b3 0D       		.uleb128 0xd
 850 00b4 00       		.byte	0
 851 00b5 03       		.uleb128 0x3
 852 00b6 0E       		.uleb128 0xe
 853 00b7 3A       		.uleb128 0x3a
 854 00b8 0B       		.uleb128 0xb
 855 00b9 3B       		.uleb128 0x3b
 856 00ba 0B       		.uleb128 0xb
 857 00bb 49       		.uleb128 0x49
 858 00bc 13       		.uleb128 0x13
 859 00bd 00       		.byte	0
 860 00be 00       		.byte	0
 861 00bf 12       		.uleb128 0x12
 862 00c0 0D       		.uleb128 0xd
 863 00c1 00       		.byte	0
 864 00c2 03       		.uleb128 0x3
 865 00c3 08       		.uleb128 0x8
 866 00c4 3A       		.uleb128 0x3a
 867 00c5 0B       		.uleb128 0xb
 868 00c6 3B       		.uleb128 0x3b
 869 00c7 0B       		.uleb128 0xb
 870 00c8 49       		.uleb128 0x49
 871 00c9 13       		.uleb128 0x13
 872 00ca 00       		.byte	0
 873 00cb 00       		.byte	0
 874 00cc 13       		.uleb128 0x13
 875 00cd 0D       		.uleb128 0xd
 876 00ce 00       		.byte	0
 877 00cf 03       		.uleb128 0x3
 878 00d0 08       		.uleb128 0x8
 879 00d1 3A       		.uleb128 0x3a
 880 00d2 0B       		.uleb128 0xb
 881 00d3 3B       		.uleb128 0x3b
 882 00d4 0B       		.uleb128 0xb
 883 00d5 49       		.uleb128 0x49
 884 00d6 13       		.uleb128 0x13
 885 00d7 38       		.uleb128 0x38
 886 00d8 0A       		.uleb128 0xa
 887 00d9 00       		.byte	0
 888 00da 00       		.byte	0
 889 00db 14       		.uleb128 0x14
 890 00dc 34       		.uleb128 0x34
 891 00dd 00       		.byte	0
 892 00de 03       		.uleb128 0x3
ARM GAS  G:\Users\Jaxb\AppData\Local\Temp\ccfyFrti.s 			page 18


 893 00df 0E       		.uleb128 0xe
 894 00e0 3A       		.uleb128 0x3a
 895 00e1 0B       		.uleb128 0xb
 896 00e2 3B       		.uleb128 0x3b
 897 00e3 05       		.uleb128 0x5
 898 00e4 49       		.uleb128 0x49
 899 00e5 13       		.uleb128 0x13
 900 00e6 3F       		.uleb128 0x3f
 901 00e7 0C       		.uleb128 0xc
 902 00e8 3C       		.uleb128 0x3c
 903 00e9 0C       		.uleb128 0xc
 904 00ea 00       		.byte	0
 905 00eb 00       		.byte	0
 906 00ec 15       		.uleb128 0x15
 907 00ed 34       		.uleb128 0x34
 908 00ee 00       		.byte	0
 909 00ef 03       		.uleb128 0x3
 910 00f0 0E       		.uleb128 0xe
 911 00f1 3A       		.uleb128 0x3a
 912 00f2 0B       		.uleb128 0xb
 913 00f3 3B       		.uleb128 0x3b
 914 00f4 0B       		.uleb128 0xb
 915 00f5 49       		.uleb128 0x49
 916 00f6 13       		.uleb128 0x13
 917 00f7 3F       		.uleb128 0x3f
 918 00f8 0C       		.uleb128 0xc
 919 00f9 3C       		.uleb128 0x3c
 920 00fa 0C       		.uleb128 0xc
 921 00fb 00       		.byte	0
 922 00fc 00       		.byte	0
 923 00fd 16       		.uleb128 0x16
 924 00fe 04       		.uleb128 0x4
 925 00ff 01       		.byte	0x1
 926 0100 3E       		.uleb128 0x3e
 927 0101 0B       		.uleb128 0xb
 928 0102 0B       		.uleb128 0xb
 929 0103 0B       		.uleb128 0xb
 930 0104 49       		.uleb128 0x49
 931 0105 13       		.uleb128 0x13
 932 0106 3A       		.uleb128 0x3a
 933 0107 0B       		.uleb128 0xb
 934 0108 3B       		.uleb128 0x3b
 935 0109 05       		.uleb128 0x5
 936 010a 01       		.uleb128 0x1
 937 010b 13       		.uleb128 0x13
 938 010c 00       		.byte	0
 939 010d 00       		.byte	0
 940 010e 17       		.uleb128 0x17
 941 010f 28       		.uleb128 0x28
 942 0110 00       		.byte	0
 943 0111 03       		.uleb128 0x3
 944 0112 08       		.uleb128 0x8
 945 0113 1C       		.uleb128 0x1c
 946 0114 0B       		.uleb128 0xb
 947 0115 00       		.byte	0
 948 0116 00       		.byte	0
 949 0117 18       		.uleb128 0x18
ARM GAS  G:\Users\Jaxb\AppData\Local\Temp\ccfyFrti.s 			page 19


 950 0118 13       		.uleb128 0x13
 951 0119 01       		.byte	0x1
 952 011a 0B       		.uleb128 0xb
 953 011b 0B       		.uleb128 0xb
 954 011c 3A       		.uleb128 0x3a
 955 011d 0B       		.uleb128 0xb
 956 011e 3B       		.uleb128 0x3b
 957 011f 05       		.uleb128 0x5
 958 0120 01       		.uleb128 0x1
 959 0121 13       		.uleb128 0x13
 960 0122 00       		.byte	0
 961 0123 00       		.byte	0
 962 0124 19       		.uleb128 0x19
 963 0125 0D       		.uleb128 0xd
 964 0126 00       		.byte	0
 965 0127 03       		.uleb128 0x3
 966 0128 08       		.uleb128 0x8
 967 0129 3A       		.uleb128 0x3a
 968 012a 0B       		.uleb128 0xb
 969 012b 3B       		.uleb128 0x3b
 970 012c 05       		.uleb128 0x5
 971 012d 49       		.uleb128 0x49
 972 012e 13       		.uleb128 0x13
 973 012f 38       		.uleb128 0x38
 974 0130 0A       		.uleb128 0xa
 975 0131 00       		.byte	0
 976 0132 00       		.byte	0
 977 0133 1A       		.uleb128 0x1a
 978 0134 0D       		.uleb128 0xd
 979 0135 00       		.byte	0
 980 0136 03       		.uleb128 0x3
 981 0137 0E       		.uleb128 0xe
 982 0138 3A       		.uleb128 0x3a
 983 0139 0B       		.uleb128 0xb
 984 013a 3B       		.uleb128 0x3b
 985 013b 05       		.uleb128 0x5
 986 013c 49       		.uleb128 0x49
 987 013d 13       		.uleb128 0x13
 988 013e 38       		.uleb128 0x38
 989 013f 0A       		.uleb128 0xa
 990 0140 00       		.byte	0
 991 0141 00       		.byte	0
 992 0142 1B       		.uleb128 0x1b
 993 0143 16       		.uleb128 0x16
 994 0144 00       		.byte	0
 995 0145 03       		.uleb128 0x3
 996 0146 0E       		.uleb128 0xe
 997 0147 3A       		.uleb128 0x3a
 998 0148 0B       		.uleb128 0xb
 999 0149 3B       		.uleb128 0x3b
 1000 014a 05       		.uleb128 0x5
 1001 014b 49       		.uleb128 0x49
 1002 014c 13       		.uleb128 0x13
 1003 014d 00       		.byte	0
 1004 014e 00       		.byte	0
 1005 014f 1C       		.uleb128 0x1c
 1006 0150 34       		.uleb128 0x34
ARM GAS  G:\Users\Jaxb\AppData\Local\Temp\ccfyFrti.s 			page 20


 1007 0151 00       		.byte	0
 1008 0152 03       		.uleb128 0x3
 1009 0153 0E       		.uleb128 0xe
 1010 0154 3A       		.uleb128 0x3a
 1011 0155 0B       		.uleb128 0xb
 1012 0156 3B       		.uleb128 0x3b
 1013 0157 0B       		.uleb128 0xb
 1014 0158 49       		.uleb128 0x49
 1015 0159 13       		.uleb128 0x13
 1016 015a 02       		.uleb128 0x2
 1017 015b 0A       		.uleb128 0xa
 1018 015c 00       		.byte	0
 1019 015d 00       		.byte	0
 1020 015e 1D       		.uleb128 0x1d
 1021 015f 01       		.uleb128 0x1
 1022 0160 01       		.byte	0x1
 1023 0161 49       		.uleb128 0x49
 1024 0162 13       		.uleb128 0x13
 1025 0163 01       		.uleb128 0x1
 1026 0164 13       		.uleb128 0x13
 1027 0165 00       		.byte	0
 1028 0166 00       		.byte	0
 1029 0167 1E       		.uleb128 0x1e
 1030 0168 21       		.uleb128 0x21
 1031 0169 00       		.byte	0
 1032 016a 49       		.uleb128 0x49
 1033 016b 13       		.uleb128 0x13
 1034 016c 2F       		.uleb128 0x2f
 1035 016d 0B       		.uleb128 0xb
 1036 016e 00       		.byte	0
 1037 016f 00       		.byte	0
 1038 0170 1F       		.uleb128 0x1f
 1039 0171 2E       		.uleb128 0x2e
 1040 0172 00       		.byte	0
 1041 0173 3F       		.uleb128 0x3f
 1042 0174 0C       		.uleb128 0xc
 1043 0175 03       		.uleb128 0x3
 1044 0176 0E       		.uleb128 0xe
 1045 0177 3A       		.uleb128 0x3a
 1046 0178 0B       		.uleb128 0xb
 1047 0179 3B       		.uleb128 0x3b
 1048 017a 0B       		.uleb128 0xb
 1049 017b 27       		.uleb128 0x27
 1050 017c 0C       		.uleb128 0xc
 1051 017d 11       		.uleb128 0x11
 1052 017e 01       		.uleb128 0x1
 1053 017f 12       		.uleb128 0x12
 1054 0180 01       		.uleb128 0x1
 1055 0181 40       		.uleb128 0x40
 1056 0182 06       		.uleb128 0x6
 1057 0183 9642     		.uleb128 0x2116
 1058 0185 0C       		.uleb128 0xc
 1059 0186 00       		.byte	0
 1060 0187 00       		.byte	0
 1061 0188 20       		.uleb128 0x20
 1062 0189 2E       		.uleb128 0x2e
 1063 018a 01       		.byte	0x1
ARM GAS  G:\Users\Jaxb\AppData\Local\Temp\ccfyFrti.s 			page 21


 1064 018b 3F       		.uleb128 0x3f
 1065 018c 0C       		.uleb128 0xc
 1066 018d 03       		.uleb128 0x3
 1067 018e 0E       		.uleb128 0xe
 1068 018f 3A       		.uleb128 0x3a
 1069 0190 0B       		.uleb128 0xb
 1070 0191 3B       		.uleb128 0x3b
 1071 0192 0B       		.uleb128 0xb
 1072 0193 27       		.uleb128 0x27
 1073 0194 0C       		.uleb128 0xc
 1074 0195 11       		.uleb128 0x11
 1075 0196 01       		.uleb128 0x1
 1076 0197 12       		.uleb128 0x12
 1077 0198 01       		.uleb128 0x1
 1078 0199 40       		.uleb128 0x40
 1079 019a 06       		.uleb128 0x6
 1080 019b 9642     		.uleb128 0x2116
 1081 019d 0C       		.uleb128 0xc
 1082 019e 00       		.byte	0
 1083 019f 00       		.byte	0
 1084 01a0 21       		.uleb128 0x21
 1085 01a1 05       		.uleb128 0x5
 1086 01a2 00       		.byte	0
 1087 01a3 03       		.uleb128 0x3
 1088 01a4 08       		.uleb128 0x8
 1089 01a5 3A       		.uleb128 0x3a
 1090 01a6 0B       		.uleb128 0xb
 1091 01a7 3B       		.uleb128 0x3b
 1092 01a8 0B       		.uleb128 0xb
 1093 01a9 49       		.uleb128 0x49
 1094 01aa 13       		.uleb128 0x13
 1095 01ab 02       		.uleb128 0x2
 1096 01ac 0A       		.uleb128 0xa
 1097 01ad 00       		.byte	0
 1098 01ae 00       		.byte	0
 1099 01af 00       		.byte	0
 1100              		.section	.debug_loc,"",%progbits
 1101              	.Ldebug_loc0:
 1102              	.LLST1:
 1103 0000 34000000 		.4byte	.LFB34-.Ltext0
 1104 0004 36000000 		.4byte	.LCFI5-.Ltext0
 1105 0008 0200     		.2byte	0x2
 1106 000a 7D       		.byte	0x7d
 1107 000b 00       		.sleb128 0
 1108 000c 36000000 		.4byte	.LCFI5-.Ltext0
 1109 0010 38000000 		.4byte	.LCFI6-.Ltext0
 1110 0014 0200     		.2byte	0x2
 1111 0016 7D       		.byte	0x7d
 1112 0017 08       		.sleb128 8
 1113 0018 38000000 		.4byte	.LCFI6-.Ltext0
 1114 001c 4C000000 		.4byte	.LFE34-.Ltext0
 1115 0020 0200     		.2byte	0x2
 1116 0022 77       		.byte	0x77
 1117 0023 08       		.sleb128 8
 1118 0024 00000000 		.4byte	0
 1119 0028 00000000 		.4byte	0
 1120              	.LLST0:
ARM GAS  G:\Users\Jaxb\AppData\Local\Temp\ccfyFrti.s 			page 22


 1121 002c 00000000 		.4byte	.LFB33-.Ltext0
 1122 0030 02000000 		.4byte	.LCFI0-.Ltext0
 1123 0034 0200     		.2byte	0x2
 1124 0036 7D       		.byte	0x7d
 1125 0037 00       		.sleb128 0
 1126 0038 02000000 		.4byte	.LCFI0-.Ltext0
 1127 003c 04000000 		.4byte	.LCFI1-.Ltext0
 1128 0040 0200     		.2byte	0x2
 1129 0042 7D       		.byte	0x7d
 1130 0043 08       		.sleb128 8
 1131 0044 04000000 		.4byte	.LCFI1-.Ltext0
 1132 0048 06000000 		.4byte	.LCFI2-.Ltext0
 1133 004c 0200     		.2byte	0x2
 1134 004e 7D       		.byte	0x7d
 1135 004f 10       		.sleb128 16
 1136 0050 06000000 		.4byte	.LCFI2-.Ltext0
 1137 0054 2A000000 		.4byte	.LCFI3-.Ltext0
 1138 0058 0200     		.2byte	0x2
 1139 005a 77       		.byte	0x77
 1140 005b 10       		.sleb128 16
 1141 005c 2A000000 		.4byte	.LCFI3-.Ltext0
 1142 0060 2C000000 		.4byte	.LCFI4-.Ltext0
 1143 0064 0200     		.2byte	0x2
 1144 0066 77       		.byte	0x77
 1145 0067 08       		.sleb128 8
 1146 0068 2C000000 		.4byte	.LCFI4-.Ltext0
 1147 006c 34000000 		.4byte	.LFE33-.Ltext0
 1148 0070 0200     		.2byte	0x2
 1149 0072 7D       		.byte	0x7d
 1150 0073 08       		.sleb128 8
 1151 0074 00000000 		.4byte	0
 1152 0078 00000000 		.4byte	0
 1153              		.section	.debug_aranges,"",%progbits
 1154 0000 1C000000 		.4byte	0x1c
 1155 0004 0200     		.2byte	0x2
 1156 0006 00000000 		.4byte	.Ldebug_info0
 1157 000a 04       		.byte	0x4
 1158 000b 00       		.byte	0
 1159 000c 0000     		.2byte	0
 1160 000e 0000     		.2byte	0
 1161 0010 00000000 		.4byte	.Ltext0
 1162 0014 4C000000 		.4byte	.Letext0-.Ltext0
 1163 0018 00000000 		.4byte	0
 1164 001c 00000000 		.4byte	0
 1165              		.section	.debug_line,"",%progbits
 1166              	.Ldebug_line0:
 1167 0000 7B010000 		.section	.debug_str,"MS",%progbits,1
 1167      02005801 
 1167      00000201 
 1167      FB0E0D00 
 1167      01010101 
 1168              	.LASF19:
 1169 0000 6465765F 		.ascii	"dev_info\000"
 1169      696E666F 
 1169      00
 1170              	.LASF41:
 1171 0009 47545052 		.ascii	"GTPR\000"
ARM GAS  G:\Users\Jaxb\AppData\Local\Temp\ccfyFrti.s 			page 23


 1171      00
 1172              	.LASF9:
 1173 000e 6465765F 		.ascii	"dev_normal\000"
 1173      6E6F726D 
 1173      616C00
 1174              	.LASF0:
 1175 0019 7369676E 		.ascii	"signed char\000"
 1175      65642063 
 1175      68617200 
 1176              	.LASF50:
 1177 0025 64657669 		.ascii	"device_type\000"
 1177      63655F74 
 1177      79706500 
 1178              	.LASF44:
 1179 0031 70617261 		.ascii	"para1\000"
 1179      3100
 1180              	.LASF45:
 1181 0037 70617261 		.ascii	"para2\000"
 1181      3200
 1182              	.LASF25:
 1183 003d 55494E54 		.ascii	"UINT32\000"
 1183      333200
 1184              	.LASF28:
 1185 0044 5F5F7569 		.ascii	"__uint32_t\000"
 1185      6E743332 
 1185      5F7400
 1186              	.LASF26:
 1187 004f 5F5F7569 		.ascii	"__uint16_t\000"
 1187      6E743136 
 1187      5F7400
 1188              	.LASF43:
 1189 005a 55534152 		.ascii	"USART_TypeDef\000"
 1189      545F5479 
 1189      70654465 
 1189      6600
 1190              	.LASF10:
 1191 0068 6465765F 		.ascii	"dev_mem_para\000"
 1191      6D656D5F 
 1191      70617261 
 1191      00
 1192              	.LASF24:
 1193 0075 68656164 		.ascii	"head\000"
 1193      00
 1194              	.LASF39:
 1195 007a 52455345 		.ascii	"RESERVED4\000"
 1195      52564544 
 1195      3400
 1196              	.LASF17:
 1197 0084 64657669 		.ascii	"device_head\000"
 1197      63655F68 
 1197      65616400 
 1198              	.LASF16:
 1199 0090 70617261 		.ascii	"para\000"
 1199      00
 1200              	.LASF7:
 1201 0095 4445565F 		.ascii	"DEV_NORMAL\000"
 1201      4E4F524D 
ARM GAS  G:\Users\Jaxb\AppData\Local\Temp\ccfyFrti.s 			page 24


 1201      414C00
 1202              	.LASF1:
 1203 00a0 73686F72 		.ascii	"short int\000"
 1203      7420696E 
 1203      7400
 1204              	.LASF23:
 1205 00aa 64657669 		.ascii	"device\000"
 1205      636500
 1206              	.LASF49:
 1207 00b1 463A5C6B 		.ascii	"F:\\kaka\\KAKAOS\\C\\windows\\Project\\RVMDK\243\250"
 1207      616B615C 
 1207      4B414B41 
 1207      4F535C43 
 1207      5C77696E 
 1208 00d9 757635A3 		.ascii	"uv5\243\251\000"
 1208      A900
 1209              	.LASF2:
 1210 00df 6C6F6E67 		.ascii	"long long int\000"
 1210      206C6F6E 
 1210      6720696E 
 1210      7400
 1211              	.LASF6:
 1212 00ed 6C6F6E67 		.ascii	"long long unsigned int\000"
 1212      206C6F6E 
 1212      6720756E 
 1212      7369676E 
 1212      65642069 
 1213              	.LASF27:
 1214 0104 6C6F6E67 		.ascii	"long int\000"
 1214      20696E74 
 1214      00
 1215              	.LASF11:
 1216 010d 696E6974 		.ascii	"init_fun\000"
 1216      5F66756E 
 1216      00
 1217              	.LASF3:
 1218 0116 756E7369 		.ascii	"unsigned char\000"
 1218      676E6564 
 1218      20636861 
 1218      7200
 1219              	.LASF8:
 1220 0124 4445565F 		.ascii	"DEV_MEM\000"
 1220      4D454D00 
 1221              	.LASF31:
 1222 012c 75696E74 		.ascii	"uint32_t\000"
 1222      33325F74 
 1222      00
 1223              	.LASF5:
 1224 0135 756E7369 		.ascii	"unsigned int\000"
 1224      676E6564 
 1224      20696E74 
 1224      00
 1225              	.LASF30:
 1226 0142 75696E74 		.ascii	"uint16_t\000"
 1226      31365F74 
 1226      00
 1227              	.LASF29:
ARM GAS  G:\Users\Jaxb\AppData\Local\Temp\ccfyFrti.s 			page 25


 1228 014b 6C6F6E67 		.ascii	"long unsigned int\000"
 1228      20756E73 
 1228      69676E65 
 1228      6420696E 
 1228      7400
 1229              	.LASF13:
 1230 015d 73746172 		.ascii	"start\000"
 1230      7400
 1231              	.LASF4:
 1232 0163 73686F72 		.ascii	"short unsigned int\000"
 1232      7420756E 
 1232      7369676E 
 1232      65642069 
 1232      6E7400
 1233              	.LASF18:
 1234 0176 6465765F 		.ascii	"dev_name\000"
 1234      6E616D65 
 1234      00
 1235              	.LASF21:
 1236 017f 63686172 		.ascii	"char\000"
 1236      00
 1237              	.LASF20:
 1238 0184 74797065 		.ascii	"type\000"
 1238      00
 1239              	.LASF33:
 1240 0189 53797374 		.ascii	"SystemCoreClock\000"
 1240      656D436F 
 1240      7265436C 
 1240      6F636B00 
 1241              	.LASF35:
 1242 0199 52455345 		.ascii	"RESERVED0\000"
 1242      52564544 
 1242      3000
 1243              	.LASF36:
 1244 01a3 52455345 		.ascii	"RESERVED1\000"
 1244      52564544 
 1244      3100
 1245              	.LASF37:
 1246 01ad 52455345 		.ascii	"RESERVED2\000"
 1246      52564544 
 1246      3200
 1247              	.LASF38:
 1248 01b7 52455345 		.ascii	"RESERVED3\000"
 1248      52564544 
 1248      3300
 1249              	.LASF46:
 1250 01c1 64657669 		.ascii	"device_array\000"
 1250      63655F61 
 1250      72726179 
 1250      00
 1251              	.LASF40:
 1252 01ce 52455345 		.ascii	"RESERVED5\000"
 1252      52564544 
 1252      3500
 1253              	.LASF42:
 1254 01d8 52455345 		.ascii	"RESERVED6\000"
 1254      52564544 
ARM GAS  G:\Users\Jaxb\AppData\Local\Temp\ccfyFrti.s 			page 26


 1254      3600
 1255              	.LASF51:
 1256 01e2 6273705F 		.ascii	"bsp_init\000"
 1256      696E6974 
 1256      00
 1257              	.LASF14:
 1258 01eb 73697A65 		.ascii	"size\000"
 1258      00
 1259              	.LASF34:
 1260 01f0 52455345 		.ascii	"RESET\000"
 1260      5400
 1261              	.LASF15:
 1262 01f6 6465765F 		.ascii	"dev_mem\000"
 1262      6D656D00 
 1263              	.LASF22:
 1264 01fe 6E6F726D 		.ascii	"normal\000"
 1264      616C00
 1265              	.LASF47:
 1266 0205 474E5520 		.ascii	"GNU C11 7.3.1 20180622 (release) [ARM/embedded-7-br"
 1266      43313120 
 1266      372E332E 
 1266      31203230 
 1266      31383036 
 1267 0238 616E6368 		.ascii	"anch revision 261907] -mcpu=cortex-m3 -mthumb -mapc"
 1267      20726576 
 1267      6973696F 
 1267      6E203236 
 1267      31393037 
 1268 026b 732D6672 		.ascii	"s-frame -mthumb-interwork -mcpu=cortex-m3 -mthumb -"
 1268      616D6520 
 1268      2D6D7468 
 1268      756D622D 
 1268      696E7465 
 1269 029e 67647761 		.ascii	"gdwarf-2 -O0\000"
 1269      72662D32 
 1269      202D4F30 
 1269      00
 1270              	.LASF32:
 1271 02ab 49544D5F 		.ascii	"ITM_RxBuffer\000"
 1271      52784275 
 1271      66666572 
 1271      00
 1272              	.LASF52:
 1273 02b8 6B615F70 		.ascii	"ka_putchar\000"
 1273      75746368 
 1273      617200
 1274              	.LASF12:
 1275 02c3 7072696F 		.ascii	"prio\000"
 1275      00
 1276              	.LASF48:
 1277 02c8 2E2E2F2E 		.ascii	"../../source/src/kernel/OS_CPU/bsp/stm32_bsp.c\000"
 1277      2E2F736F 
 1277      75726365 
 1277      2F737263 
 1277      2F6B6572 
 1278              		.ident	"GCC: (GNU Tools for Arm Embedded Processors 7-2018-q2-update) 7.3.1 20180622 (release) [AR
ARM GAS  G:\Users\Jaxb\AppData\Local\Temp\ccfyFrti.s 			page 27


DEFINED SYMBOLS
                            *ABS*:00000000 stm32_bsp.c
G:\Users\Jaxb\AppData\Local\Temp\ccfyFrti.s:16     .rodata:00000000 $d
G:\Users\Jaxb\AppData\Local\Temp\ccfyFrti.s:19     .rodata:00000000 para1
G:\Users\Jaxb\AppData\Local\Temp\ccfyFrti.s:26     .rodata:0000000c para2
G:\Users\Jaxb\AppData\Local\Temp\ccfyFrti.s:48     .rodata:00000048 device_array
G:\Users\Jaxb\AppData\Local\Temp\ccfyFrti.s:80     .text:00000000 $t
G:\Users\Jaxb\AppData\Local\Temp\ccfyFrti.s:87     .text:00000000 ka_putchar
G:\Users\Jaxb\AppData\Local\Temp\ccfyFrti.s:136    .text:00000030 $d
G:\Users\Jaxb\AppData\Local\Temp\ccfyFrti.s:140    .text:00000034 $t
G:\Users\Jaxb\AppData\Local\Temp\ccfyFrti.s:147    .text:00000034 bsp_init
G:\Users\Jaxb\AppData\Local\Temp\ccfyFrti.s:173    .text:00000048 $d

UNDEFINED SYMBOLS
USART_Config
FSMC_SRAM_Init
USART2_Config
buddy_init
USART_SendData
USART_GetFlagStatus
_bsp_init
