ARM GAS  G:\Users\Jaxb\AppData\Local\Temp\cctfzRXv.s 			page 1


   1              		.cpu cortex-m3
   2              		.eabi_attribute 20, 1
   3              		.eabi_attribute 21, 1
   4              		.eabi_attribute 23, 3
   5              		.eabi_attribute 24, 1
   6              		.eabi_attribute 25, 1
   7              		.eabi_attribute 26, 1
   8              		.eabi_attribute 30, 2
   9              		.eabi_attribute 34, 1
  10              		.eabi_attribute 18, 4
  11              		.file	"stm32f10x_can.c"
  12              		.text
  13              	.Ltext0:
  14              		.cfi_sections	.debug_frame
  15              		.align	1
  16              		.p2align 2,,3
  17              		.global	CAN_DeInit
  18              		.syntax unified
  19              		.thumb
  20              		.thumb_func
  21              		.fpu softvfp
  22              		.type	CAN_DeInit, %function
  23              	CAN_DeInit:
  24              	.LFB29:
  25              		.file 1 "../../source/src/FWlib/src/stm32f10x_can.c"
   1:../../source/src/FWlib/src/stm32f10x_can.c **** /**
   2:../../source/src/FWlib/src/stm32f10x_can.c ****   ******************************************************************************
   3:../../source/src/FWlib/src/stm32f10x_can.c ****   * @file    stm32f10x_can.c
   4:../../source/src/FWlib/src/stm32f10x_can.c ****   * @author  MCD Application Team
   5:../../source/src/FWlib/src/stm32f10x_can.c ****   * @version V3.5.0
   6:../../source/src/FWlib/src/stm32f10x_can.c ****   * @date    11-March-2011
   7:../../source/src/FWlib/src/stm32f10x_can.c ****   * @brief   This file provides all the CAN firmware functions.
   8:../../source/src/FWlib/src/stm32f10x_can.c ****   ******************************************************************************
   9:../../source/src/FWlib/src/stm32f10x_can.c ****   * @attention
  10:../../source/src/FWlib/src/stm32f10x_can.c ****   *
  11:../../source/src/FWlib/src/stm32f10x_can.c ****   * THE PRESENT FIRMWARE WHICH IS FOR GUIDANCE ONLY AIMS AT PROVIDING CUSTOMERS
  12:../../source/src/FWlib/src/stm32f10x_can.c ****   * WITH CODING INFORMATION REGARDING THEIR PRODUCTS IN ORDER FOR THEM TO SAVE
  13:../../source/src/FWlib/src/stm32f10x_can.c ****   * TIME. AS A RESULT, STMICROELECTRONICS SHALL NOT BE HELD LIABLE FOR ANY
  14:../../source/src/FWlib/src/stm32f10x_can.c ****   * DIRECT, INDIRECT OR CONSEQUENTIAL DAMAGES WITH RESPECT TO ANY CLAIMS ARISING
  15:../../source/src/FWlib/src/stm32f10x_can.c ****   * FROM THE CONTENT OF SUCH FIRMWARE AND/OR THE USE MADE BY CUSTOMERS OF THE
  16:../../source/src/FWlib/src/stm32f10x_can.c ****   * CODING INFORMATION CONTAINED HEREIN IN CONNECTION WITH THEIR PRODUCTS.
  17:../../source/src/FWlib/src/stm32f10x_can.c ****   *
  18:../../source/src/FWlib/src/stm32f10x_can.c ****   * <h2><center>&copy; COPYRIGHT 2011 STMicroelectronics</center></h2>
  19:../../source/src/FWlib/src/stm32f10x_can.c ****   ******************************************************************************
  20:../../source/src/FWlib/src/stm32f10x_can.c ****   */
  21:../../source/src/FWlib/src/stm32f10x_can.c **** 
  22:../../source/src/FWlib/src/stm32f10x_can.c **** /* Includes ------------------------------------------------------------------*/
  23:../../source/src/FWlib/src/stm32f10x_can.c **** #include "stm32f10x_can.h"
  24:../../source/src/FWlib/src/stm32f10x_can.c **** #include "stm32f10x_rcc.h"
  25:../../source/src/FWlib/src/stm32f10x_can.c **** 
  26:../../source/src/FWlib/src/stm32f10x_can.c **** /** @addtogroup STM32F10x_StdPeriph_Driver
  27:../../source/src/FWlib/src/stm32f10x_can.c ****   * @{
  28:../../source/src/FWlib/src/stm32f10x_can.c ****   */
  29:../../source/src/FWlib/src/stm32f10x_can.c **** 
  30:../../source/src/FWlib/src/stm32f10x_can.c **** /** @defgroup CAN 
  31:../../source/src/FWlib/src/stm32f10x_can.c ****   * @brief CAN driver modules
  32:../../source/src/FWlib/src/stm32f10x_can.c ****   * @{
ARM GAS  G:\Users\Jaxb\AppData\Local\Temp\cctfzRXv.s 			page 2


  33:../../source/src/FWlib/src/stm32f10x_can.c ****   */ 
  34:../../source/src/FWlib/src/stm32f10x_can.c **** 
  35:../../source/src/FWlib/src/stm32f10x_can.c **** /** @defgroup CAN_Private_TypesDefinitions
  36:../../source/src/FWlib/src/stm32f10x_can.c ****   * @{
  37:../../source/src/FWlib/src/stm32f10x_can.c ****   */
  38:../../source/src/FWlib/src/stm32f10x_can.c **** 
  39:../../source/src/FWlib/src/stm32f10x_can.c **** /**
  40:../../source/src/FWlib/src/stm32f10x_can.c ****   * @}
  41:../../source/src/FWlib/src/stm32f10x_can.c ****   */
  42:../../source/src/FWlib/src/stm32f10x_can.c **** 
  43:../../source/src/FWlib/src/stm32f10x_can.c **** /** @defgroup CAN_Private_Defines
  44:../../source/src/FWlib/src/stm32f10x_can.c ****   * @{
  45:../../source/src/FWlib/src/stm32f10x_can.c ****   */
  46:../../source/src/FWlib/src/stm32f10x_can.c **** 
  47:../../source/src/FWlib/src/stm32f10x_can.c **** /* CAN Master Control Register bits */
  48:../../source/src/FWlib/src/stm32f10x_can.c **** 
  49:../../source/src/FWlib/src/stm32f10x_can.c **** #define MCR_DBF      ((uint32_t)0x00010000) /* software master reset */
  50:../../source/src/FWlib/src/stm32f10x_can.c **** 
  51:../../source/src/FWlib/src/stm32f10x_can.c **** /* CAN Mailbox Transmit Request */
  52:../../source/src/FWlib/src/stm32f10x_can.c **** #define TMIDxR_TXRQ  ((uint32_t)0x00000001) /* Transmit mailbox request */
  53:../../source/src/FWlib/src/stm32f10x_can.c **** 
  54:../../source/src/FWlib/src/stm32f10x_can.c **** /* CAN Filter Master Register bits */
  55:../../source/src/FWlib/src/stm32f10x_can.c **** #define FMR_FINIT    ((uint32_t)0x00000001) /* Filter init mode */
  56:../../source/src/FWlib/src/stm32f10x_can.c **** 
  57:../../source/src/FWlib/src/stm32f10x_can.c **** /* Time out for INAK bit */
  58:../../source/src/FWlib/src/stm32f10x_can.c **** #define INAK_TIMEOUT        ((uint32_t)0x0000FFFF)
  59:../../source/src/FWlib/src/stm32f10x_can.c **** /* Time out for SLAK bit */
  60:../../source/src/FWlib/src/stm32f10x_can.c **** #define SLAK_TIMEOUT        ((uint32_t)0x0000FFFF)
  61:../../source/src/FWlib/src/stm32f10x_can.c **** 
  62:../../source/src/FWlib/src/stm32f10x_can.c **** 
  63:../../source/src/FWlib/src/stm32f10x_can.c **** 
  64:../../source/src/FWlib/src/stm32f10x_can.c **** /* Flags in TSR register */
  65:../../source/src/FWlib/src/stm32f10x_can.c **** #define CAN_FLAGS_TSR              ((uint32_t)0x08000000) 
  66:../../source/src/FWlib/src/stm32f10x_can.c **** /* Flags in RF1R register */
  67:../../source/src/FWlib/src/stm32f10x_can.c **** #define CAN_FLAGS_RF1R             ((uint32_t)0x04000000) 
  68:../../source/src/FWlib/src/stm32f10x_can.c **** /* Flags in RF0R register */
  69:../../source/src/FWlib/src/stm32f10x_can.c **** #define CAN_FLAGS_RF0R             ((uint32_t)0x02000000) 
  70:../../source/src/FWlib/src/stm32f10x_can.c **** /* Flags in MSR register */
  71:../../source/src/FWlib/src/stm32f10x_can.c **** #define CAN_FLAGS_MSR              ((uint32_t)0x01000000) 
  72:../../source/src/FWlib/src/stm32f10x_can.c **** /* Flags in ESR register */
  73:../../source/src/FWlib/src/stm32f10x_can.c **** #define CAN_FLAGS_ESR              ((uint32_t)0x00F00000) 
  74:../../source/src/FWlib/src/stm32f10x_can.c **** 
  75:../../source/src/FWlib/src/stm32f10x_can.c **** /* Mailboxes definition */
  76:../../source/src/FWlib/src/stm32f10x_can.c **** #define CAN_TXMAILBOX_0                   ((uint8_t)0x00)
  77:../../source/src/FWlib/src/stm32f10x_can.c **** #define CAN_TXMAILBOX_1                   ((uint8_t)0x01)
  78:../../source/src/FWlib/src/stm32f10x_can.c **** #define CAN_TXMAILBOX_2                   ((uint8_t)0x02) 
  79:../../source/src/FWlib/src/stm32f10x_can.c **** 
  80:../../source/src/FWlib/src/stm32f10x_can.c **** 
  81:../../source/src/FWlib/src/stm32f10x_can.c **** 
  82:../../source/src/FWlib/src/stm32f10x_can.c **** #define CAN_MODE_MASK              ((uint32_t) 0x00000003)
  83:../../source/src/FWlib/src/stm32f10x_can.c **** /**
  84:../../source/src/FWlib/src/stm32f10x_can.c ****   * @}
  85:../../source/src/FWlib/src/stm32f10x_can.c ****   */
  86:../../source/src/FWlib/src/stm32f10x_can.c **** 
  87:../../source/src/FWlib/src/stm32f10x_can.c **** /** @defgroup CAN_Private_Macros
  88:../../source/src/FWlib/src/stm32f10x_can.c ****   * @{
  89:../../source/src/FWlib/src/stm32f10x_can.c ****   */
ARM GAS  G:\Users\Jaxb\AppData\Local\Temp\cctfzRXv.s 			page 3


  90:../../source/src/FWlib/src/stm32f10x_can.c **** 
  91:../../source/src/FWlib/src/stm32f10x_can.c **** /**
  92:../../source/src/FWlib/src/stm32f10x_can.c ****   * @}
  93:../../source/src/FWlib/src/stm32f10x_can.c ****   */
  94:../../source/src/FWlib/src/stm32f10x_can.c **** 
  95:../../source/src/FWlib/src/stm32f10x_can.c **** /** @defgroup CAN_Private_Variables
  96:../../source/src/FWlib/src/stm32f10x_can.c ****   * @{
  97:../../source/src/FWlib/src/stm32f10x_can.c ****   */
  98:../../source/src/FWlib/src/stm32f10x_can.c **** 
  99:../../source/src/FWlib/src/stm32f10x_can.c **** /**
 100:../../source/src/FWlib/src/stm32f10x_can.c ****   * @}
 101:../../source/src/FWlib/src/stm32f10x_can.c ****   */
 102:../../source/src/FWlib/src/stm32f10x_can.c **** 
 103:../../source/src/FWlib/src/stm32f10x_can.c **** /** @defgroup CAN_Private_FunctionPrototypes
 104:../../source/src/FWlib/src/stm32f10x_can.c ****   * @{
 105:../../source/src/FWlib/src/stm32f10x_can.c ****   */
 106:../../source/src/FWlib/src/stm32f10x_can.c **** 
 107:../../source/src/FWlib/src/stm32f10x_can.c **** static ITStatus CheckITStatus(uint32_t CAN_Reg, uint32_t It_Bit);
 108:../../source/src/FWlib/src/stm32f10x_can.c **** 
 109:../../source/src/FWlib/src/stm32f10x_can.c **** /**
 110:../../source/src/FWlib/src/stm32f10x_can.c ****   * @}
 111:../../source/src/FWlib/src/stm32f10x_can.c ****   */
 112:../../source/src/FWlib/src/stm32f10x_can.c **** 
 113:../../source/src/FWlib/src/stm32f10x_can.c **** /** @defgroup CAN_Private_Functions
 114:../../source/src/FWlib/src/stm32f10x_can.c ****   * @{
 115:../../source/src/FWlib/src/stm32f10x_can.c ****   */
 116:../../source/src/FWlib/src/stm32f10x_can.c **** 
 117:../../source/src/FWlib/src/stm32f10x_can.c **** /**
 118:../../source/src/FWlib/src/stm32f10x_can.c ****   * @brief  Deinitializes the CAN peripheral registers to their default reset values.
 119:../../source/src/FWlib/src/stm32f10x_can.c ****   * @param  CANx: where x can be 1 or 2 to select the CAN peripheral.
 120:../../source/src/FWlib/src/stm32f10x_can.c ****   * @retval None.
 121:../../source/src/FWlib/src/stm32f10x_can.c ****   */
 122:../../source/src/FWlib/src/stm32f10x_can.c **** void CAN_DeInit(CAN_TypeDef* CANx)
 123:../../source/src/FWlib/src/stm32f10x_can.c **** {
  26              		.loc 1 123 0
  27              		.cfi_startproc
  28              		@ args = 0, pretend = 0, frame = 0
  29              		@ frame_needed = 0, uses_anonymous_args = 0
  30              	.LVL0:
  31 0000 08B5     		push	{r3, lr}
  32              	.LCFI0:
  33              		.cfi_def_cfa_offset 8
  34              		.cfi_offset 3, -8
  35              		.cfi_offset 14, -4
 124:../../source/src/FWlib/src/stm32f10x_can.c ****   /* Check the parameters */
 125:../../source/src/FWlib/src/stm32f10x_can.c ****   assert_param(IS_CAN_ALL_PERIPH(CANx));
 126:../../source/src/FWlib/src/stm32f10x_can.c ****  
 127:../../source/src/FWlib/src/stm32f10x_can.c ****   if (CANx == CAN1)
  36              		.loc 1 127 0
  37 0002 0D4B     		ldr	r3, .L5
 128:../../source/src/FWlib/src/stm32f10x_can.c ****   {
 129:../../source/src/FWlib/src/stm32f10x_can.c ****     /* Enable CAN1 reset state */
 130:../../source/src/FWlib/src/stm32f10x_can.c ****     RCC_APB1PeriphResetCmd(RCC_APB1Periph_CAN1, ENABLE);
  38              		.loc 1 130 0
  39 0004 0121     		movs	r1, #1
 127:../../source/src/FWlib/src/stm32f10x_can.c ****   {
  40              		.loc 1 127 0
ARM GAS  G:\Users\Jaxb\AppData\Local\Temp\cctfzRXv.s 			page 4


  41 0006 9842     		cmp	r0, r3
  42 0008 0AD0     		beq	.L4
 131:../../source/src/FWlib/src/stm32f10x_can.c ****     /* Release CAN1 from reset state */
 132:../../source/src/FWlib/src/stm32f10x_can.c ****     RCC_APB1PeriphResetCmd(RCC_APB1Periph_CAN1, DISABLE);
 133:../../source/src/FWlib/src/stm32f10x_can.c ****   }
 134:../../source/src/FWlib/src/stm32f10x_can.c ****   else
 135:../../source/src/FWlib/src/stm32f10x_can.c ****   {  
 136:../../source/src/FWlib/src/stm32f10x_can.c ****     /* Enable CAN2 reset state */
 137:../../source/src/FWlib/src/stm32f10x_can.c ****     RCC_APB1PeriphResetCmd(RCC_APB1Periph_CAN2, ENABLE);
  43              		.loc 1 137 0
  44 000a 4FF08060 		mov	r0, #67108864
  45              	.LVL1:
  46 000e FFF7FEFF 		bl	RCC_APB1PeriphResetCmd
  47              	.LVL2:
 138:../../source/src/FWlib/src/stm32f10x_can.c ****     /* Release CAN2 from reset state */
 139:../../source/src/FWlib/src/stm32f10x_can.c ****     RCC_APB1PeriphResetCmd(RCC_APB1Periph_CAN2, DISABLE);
 140:../../source/src/FWlib/src/stm32f10x_can.c ****   }
 141:../../source/src/FWlib/src/stm32f10x_can.c **** }
  48              		.loc 1 141 0
  49 0012 BDE80840 		pop	{r3, lr}
  50              	.LCFI1:
  51              		.cfi_remember_state
  52              		.cfi_restore 14
  53              		.cfi_restore 3
  54              		.cfi_def_cfa_offset 0
 139:../../source/src/FWlib/src/stm32f10x_can.c ****   }
  55              		.loc 1 139 0
  56 0016 0021     		movs	r1, #0
  57 0018 4FF08060 		mov	r0, #67108864
  58 001c FFF7FEBF 		b	RCC_APB1PeriphResetCmd
  59              	.LVL3:
  60              	.L4:
  61              	.LCFI2:
  62              		.cfi_restore_state
 130:../../source/src/FWlib/src/stm32f10x_can.c ****     /* Release CAN1 from reset state */
  63              		.loc 1 130 0
  64 0020 4FF00070 		mov	r0, #33554432
  65              	.LVL4:
  66 0024 FFF7FEFF 		bl	RCC_APB1PeriphResetCmd
  67              	.LVL5:
  68              		.loc 1 141 0
  69 0028 BDE80840 		pop	{r3, lr}
  70              	.LCFI3:
  71              		.cfi_restore 14
  72              		.cfi_restore 3
  73              		.cfi_def_cfa_offset 0
 132:../../source/src/FWlib/src/stm32f10x_can.c ****   }
  74              		.loc 1 132 0
  75 002c 0021     		movs	r1, #0
  76 002e 4FF00070 		mov	r0, #33554432
  77 0032 FFF7FEBF 		b	RCC_APB1PeriphResetCmd
  78              	.LVL6:
  79              	.L6:
  80 0036 00BF     		.align	2
  81              	.L5:
  82 0038 00640040 		.word	1073767424
  83              		.cfi_endproc
ARM GAS  G:\Users\Jaxb\AppData\Local\Temp\cctfzRXv.s 			page 5


  84              	.LFE29:
  85              		.size	CAN_DeInit, .-CAN_DeInit
  86              		.align	1
  87              		.p2align 2,,3
  88              		.global	CAN_Init
  89              		.syntax unified
  90              		.thumb
  91              		.thumb_func
  92              		.fpu softvfp
  93              		.type	CAN_Init, %function
  94              	CAN_Init:
  95              	.LFB30:
 142:../../source/src/FWlib/src/stm32f10x_can.c **** 
 143:../../source/src/FWlib/src/stm32f10x_can.c **** /**
 144:../../source/src/FWlib/src/stm32f10x_can.c ****   * @brief  Initializes the CAN peripheral according to the specified
 145:../../source/src/FWlib/src/stm32f10x_can.c ****   *         parameters in the CAN_InitStruct.
 146:../../source/src/FWlib/src/stm32f10x_can.c ****   * @param  CANx:           where x can be 1 or 2 to to select the CAN 
 147:../../source/src/FWlib/src/stm32f10x_can.c ****   *                         peripheral.
 148:../../source/src/FWlib/src/stm32f10x_can.c ****   * @param  CAN_InitStruct: pointer to a CAN_InitTypeDef structure that
 149:../../source/src/FWlib/src/stm32f10x_can.c ****   *                         contains the configuration information for the 
 150:../../source/src/FWlib/src/stm32f10x_can.c ****   *                         CAN peripheral.
 151:../../source/src/FWlib/src/stm32f10x_can.c ****   * @retval Constant indicates initialization succeed which will be 
 152:../../source/src/FWlib/src/stm32f10x_can.c ****   *         CAN_InitStatus_Failed or CAN_InitStatus_Success.
 153:../../source/src/FWlib/src/stm32f10x_can.c ****   */
 154:../../source/src/FWlib/src/stm32f10x_can.c **** uint8_t CAN_Init(CAN_TypeDef* CANx, CAN_InitTypeDef* CAN_InitStruct)
 155:../../source/src/FWlib/src/stm32f10x_can.c **** {
  96              		.loc 1 155 0
  97              		.cfi_startproc
  98              		@ args = 0, pretend = 0, frame = 0
  99              		@ frame_needed = 0, uses_anonymous_args = 0
 100              		@ link register save eliminated.
 101              	.LVL7:
 156:../../source/src/FWlib/src/stm32f10x_can.c ****   uint8_t InitStatus = CAN_InitStatus_Failed;
 157:../../source/src/FWlib/src/stm32f10x_can.c ****   uint32_t wait_ack = 0x00000000;
 158:../../source/src/FWlib/src/stm32f10x_can.c ****   /* Check the parameters */
 159:../../source/src/FWlib/src/stm32f10x_can.c ****   assert_param(IS_CAN_ALL_PERIPH(CANx));
 160:../../source/src/FWlib/src/stm32f10x_can.c ****   assert_param(IS_FUNCTIONAL_STATE(CAN_InitStruct->CAN_TTCM));
 161:../../source/src/FWlib/src/stm32f10x_can.c ****   assert_param(IS_FUNCTIONAL_STATE(CAN_InitStruct->CAN_ABOM));
 162:../../source/src/FWlib/src/stm32f10x_can.c ****   assert_param(IS_FUNCTIONAL_STATE(CAN_InitStruct->CAN_AWUM));
 163:../../source/src/FWlib/src/stm32f10x_can.c ****   assert_param(IS_FUNCTIONAL_STATE(CAN_InitStruct->CAN_NART));
 164:../../source/src/FWlib/src/stm32f10x_can.c ****   assert_param(IS_FUNCTIONAL_STATE(CAN_InitStruct->CAN_RFLM));
 165:../../source/src/FWlib/src/stm32f10x_can.c ****   assert_param(IS_FUNCTIONAL_STATE(CAN_InitStruct->CAN_TXFP));
 166:../../source/src/FWlib/src/stm32f10x_can.c ****   assert_param(IS_CAN_MODE(CAN_InitStruct->CAN_Mode));
 167:../../source/src/FWlib/src/stm32f10x_can.c ****   assert_param(IS_CAN_SJW(CAN_InitStruct->CAN_SJW));
 168:../../source/src/FWlib/src/stm32f10x_can.c ****   assert_param(IS_CAN_BS1(CAN_InitStruct->CAN_BS1));
 169:../../source/src/FWlib/src/stm32f10x_can.c ****   assert_param(IS_CAN_BS2(CAN_InitStruct->CAN_BS2));
 170:../../source/src/FWlib/src/stm32f10x_can.c ****   assert_param(IS_CAN_PRESCALER(CAN_InitStruct->CAN_Prescaler));
 171:../../source/src/FWlib/src/stm32f10x_can.c **** 
 172:../../source/src/FWlib/src/stm32f10x_can.c ****   /* Exit from sleep mode */
 173:../../source/src/FWlib/src/stm32f10x_can.c ****   CANx->MCR &= (~(uint32_t)CAN_MCR_SLEEP);
 102              		.loc 1 173 0
 103 003c 0368     		ldr	r3, [r0]
 155:../../source/src/FWlib/src/stm32f10x_can.c ****   uint8_t InitStatus = CAN_InitStatus_Failed;
 104              		.loc 1 155 0
 105 003e 30B4     		push	{r4, r5}
 106              	.LCFI4:
 107              		.cfi_def_cfa_offset 8
ARM GAS  G:\Users\Jaxb\AppData\Local\Temp\cctfzRXv.s 			page 6


 108              		.cfi_offset 4, -8
 109              		.cfi_offset 5, -4
 110              		.loc 1 173 0
 111 0040 23F00203 		bic	r3, r3, #2
 112 0044 0360     		str	r3, [r0]
 174:../../source/src/FWlib/src/stm32f10x_can.c **** 
 175:../../source/src/FWlib/src/stm32f10x_can.c ****   /* Request initialisation */
 176:../../source/src/FWlib/src/stm32f10x_can.c ****   CANx->MCR |= CAN_MCR_INRQ ;
 113              		.loc 1 176 0
 114 0046 0368     		ldr	r3, [r0]
 115 0048 43F00103 		orr	r3, r3, #1
 116 004c 0360     		str	r3, [r0]
 177:../../source/src/FWlib/src/stm32f10x_can.c **** 
 178:../../source/src/FWlib/src/stm32f10x_can.c ****   /* Wait the acknowledge */
 179:../../source/src/FWlib/src/stm32f10x_can.c ****   while (((CANx->MSR & CAN_MSR_INAK) != CAN_MSR_INAK) && (wait_ack != INAK_TIMEOUT))
 117              		.loc 1 179 0
 118 004e 4368     		ldr	r3, [r0, #4]
 119 0050 DD07     		lsls	r5, r3, #31
 120 0052 07D4     		bmi	.L8
 121 0054 4FF6FF73 		movw	r3, #65535
 122 0058 01E0     		b	.L9
 123              	.LVL8:
 124              	.L34:
 125              		.loc 1 179 0 is_stmt 0 discriminator 1
 126 005a 013B     		subs	r3, r3, #1
 127              	.LVL9:
 128 005c 02D0     		beq	.L8
 129              	.LVL10:
 130              	.L9:
 131              		.loc 1 179 0
 132 005e 4268     		ldr	r2, [r0, #4]
 133 0060 D407     		lsls	r4, r2, #31
 134 0062 FAD5     		bpl	.L34
 135              	.LVL11:
 136              	.L8:
 180:../../source/src/FWlib/src/stm32f10x_can.c ****   {
 181:../../source/src/FWlib/src/stm32f10x_can.c ****     wait_ack++;
 182:../../source/src/FWlib/src/stm32f10x_can.c ****   }
 183:../../source/src/FWlib/src/stm32f10x_can.c **** 
 184:../../source/src/FWlib/src/stm32f10x_can.c ****   /* Check acknowledge */
 185:../../source/src/FWlib/src/stm32f10x_can.c ****   if ((CANx->MSR & CAN_MSR_INAK) != CAN_MSR_INAK)
 137              		.loc 1 185 0 is_stmt 1
 138 0064 4368     		ldr	r3, [r0, #4]
 139 0066 13F00103 		ands	r3, r3, #1
 140 006a 59D0     		beq	.L25
 186:../../source/src/FWlib/src/stm32f10x_can.c ****   {
 187:../../source/src/FWlib/src/stm32f10x_can.c ****     InitStatus = CAN_InitStatus_Failed;
 188:../../source/src/FWlib/src/stm32f10x_can.c ****   }
 189:../../source/src/FWlib/src/stm32f10x_can.c ****   else 
 190:../../source/src/FWlib/src/stm32f10x_can.c ****   {
 191:../../source/src/FWlib/src/stm32f10x_can.c ****     /* Set the time triggered communication mode */
 192:../../source/src/FWlib/src/stm32f10x_can.c ****     if (CAN_InitStruct->CAN_TTCM == ENABLE)
 141              		.loc 1 192 0
 142 006c 8B79     		ldrb	r3, [r1, #6]	@ zero_extendqisi2
 143 006e 012B     		cmp	r3, #1
 193:../../source/src/FWlib/src/stm32f10x_can.c ****     {
 194:../../source/src/FWlib/src/stm32f10x_can.c ****       CANx->MCR |= CAN_MCR_TTCM;
ARM GAS  G:\Users\Jaxb\AppData\Local\Temp\cctfzRXv.s 			page 7


 144              		.loc 1 194 0
 145 0070 0368     		ldr	r3, [r0]
 146 0072 0CBF     		ite	eq
 147 0074 43F08003 		orreq	r3, r3, #128
 195:../../source/src/FWlib/src/stm32f10x_can.c ****     }
 196:../../source/src/FWlib/src/stm32f10x_can.c ****     else
 197:../../source/src/FWlib/src/stm32f10x_can.c ****     {
 198:../../source/src/FWlib/src/stm32f10x_can.c ****       CANx->MCR &= ~(uint32_t)CAN_MCR_TTCM;
 148              		.loc 1 198 0
 149 0078 23F08003 		bicne	r3, r3, #128
 150 007c 0360     		str	r3, [r0]
 199:../../source/src/FWlib/src/stm32f10x_can.c ****     }
 200:../../source/src/FWlib/src/stm32f10x_can.c **** 
 201:../../source/src/FWlib/src/stm32f10x_can.c ****     /* Set the automatic bus-off management */
 202:../../source/src/FWlib/src/stm32f10x_can.c ****     if (CAN_InitStruct->CAN_ABOM == ENABLE)
 151              		.loc 1 202 0
 152 007e CB79     		ldrb	r3, [r1, #7]	@ zero_extendqisi2
 153 0080 012B     		cmp	r3, #1
 203:../../source/src/FWlib/src/stm32f10x_can.c ****     {
 204:../../source/src/FWlib/src/stm32f10x_can.c ****       CANx->MCR |= CAN_MCR_ABOM;
 154              		.loc 1 204 0
 155 0082 0368     		ldr	r3, [r0]
 156 0084 0CBF     		ite	eq
 157 0086 43F04003 		orreq	r3, r3, #64
 205:../../source/src/FWlib/src/stm32f10x_can.c ****     }
 206:../../source/src/FWlib/src/stm32f10x_can.c ****     else
 207:../../source/src/FWlib/src/stm32f10x_can.c ****     {
 208:../../source/src/FWlib/src/stm32f10x_can.c ****       CANx->MCR &= ~(uint32_t)CAN_MCR_ABOM;
 158              		.loc 1 208 0
 159 008a 23F04003 		bicne	r3, r3, #64
 160 008e 0360     		str	r3, [r0]
 209:../../source/src/FWlib/src/stm32f10x_can.c ****     }
 210:../../source/src/FWlib/src/stm32f10x_can.c **** 
 211:../../source/src/FWlib/src/stm32f10x_can.c ****     /* Set the automatic wake-up mode */
 212:../../source/src/FWlib/src/stm32f10x_can.c ****     if (CAN_InitStruct->CAN_AWUM == ENABLE)
 161              		.loc 1 212 0
 162 0090 0B7A     		ldrb	r3, [r1, #8]	@ zero_extendqisi2
 163 0092 012B     		cmp	r3, #1
 213:../../source/src/FWlib/src/stm32f10x_can.c ****     {
 214:../../source/src/FWlib/src/stm32f10x_can.c ****       CANx->MCR |= CAN_MCR_AWUM;
 164              		.loc 1 214 0
 165 0094 0368     		ldr	r3, [r0]
 166 0096 0CBF     		ite	eq
 167 0098 43F02003 		orreq	r3, r3, #32
 215:../../source/src/FWlib/src/stm32f10x_can.c ****     }
 216:../../source/src/FWlib/src/stm32f10x_can.c ****     else
 217:../../source/src/FWlib/src/stm32f10x_can.c ****     {
 218:../../source/src/FWlib/src/stm32f10x_can.c ****       CANx->MCR &= ~(uint32_t)CAN_MCR_AWUM;
 168              		.loc 1 218 0
 169 009c 23F02003 		bicne	r3, r3, #32
 170 00a0 0360     		str	r3, [r0]
 219:../../source/src/FWlib/src/stm32f10x_can.c ****     }
 220:../../source/src/FWlib/src/stm32f10x_can.c **** 
 221:../../source/src/FWlib/src/stm32f10x_can.c ****     /* Set the no automatic retransmission */
 222:../../source/src/FWlib/src/stm32f10x_can.c ****     if (CAN_InitStruct->CAN_NART == ENABLE)
 171              		.loc 1 222 0
 172 00a2 4B7A     		ldrb	r3, [r1, #9]	@ zero_extendqisi2
ARM GAS  G:\Users\Jaxb\AppData\Local\Temp\cctfzRXv.s 			page 8


 173 00a4 012B     		cmp	r3, #1
 223:../../source/src/FWlib/src/stm32f10x_can.c ****     {
 224:../../source/src/FWlib/src/stm32f10x_can.c ****       CANx->MCR |= CAN_MCR_NART;
 174              		.loc 1 224 0
 175 00a6 0368     		ldr	r3, [r0]
 176 00a8 0CBF     		ite	eq
 177 00aa 43F01003 		orreq	r3, r3, #16
 225:../../source/src/FWlib/src/stm32f10x_can.c ****     }
 226:../../source/src/FWlib/src/stm32f10x_can.c ****     else
 227:../../source/src/FWlib/src/stm32f10x_can.c ****     {
 228:../../source/src/FWlib/src/stm32f10x_can.c ****       CANx->MCR &= ~(uint32_t)CAN_MCR_NART;
 178              		.loc 1 228 0
 179 00ae 23F01003 		bicne	r3, r3, #16
 180 00b2 0360     		str	r3, [r0]
 229:../../source/src/FWlib/src/stm32f10x_can.c ****     }
 230:../../source/src/FWlib/src/stm32f10x_can.c **** 
 231:../../source/src/FWlib/src/stm32f10x_can.c ****     /* Set the receive FIFO locked mode */
 232:../../source/src/FWlib/src/stm32f10x_can.c ****     if (CAN_InitStruct->CAN_RFLM == ENABLE)
 181              		.loc 1 232 0
 182 00b4 8B7A     		ldrb	r3, [r1, #10]	@ zero_extendqisi2
 183 00b6 012B     		cmp	r3, #1
 233:../../source/src/FWlib/src/stm32f10x_can.c ****     {
 234:../../source/src/FWlib/src/stm32f10x_can.c ****       CANx->MCR |= CAN_MCR_RFLM;
 184              		.loc 1 234 0
 185 00b8 0368     		ldr	r3, [r0]
 186 00ba 0CBF     		ite	eq
 187 00bc 43F00803 		orreq	r3, r3, #8
 235:../../source/src/FWlib/src/stm32f10x_can.c ****     }
 236:../../source/src/FWlib/src/stm32f10x_can.c ****     else
 237:../../source/src/FWlib/src/stm32f10x_can.c ****     {
 238:../../source/src/FWlib/src/stm32f10x_can.c ****       CANx->MCR &= ~(uint32_t)CAN_MCR_RFLM;
 188              		.loc 1 238 0
 189 00c0 23F00803 		bicne	r3, r3, #8
 190 00c4 0360     		str	r3, [r0]
 239:../../source/src/FWlib/src/stm32f10x_can.c ****     }
 240:../../source/src/FWlib/src/stm32f10x_can.c **** 
 241:../../source/src/FWlib/src/stm32f10x_can.c ****     /* Set the transmit FIFO priority */
 242:../../source/src/FWlib/src/stm32f10x_can.c ****     if (CAN_InitStruct->CAN_TXFP == ENABLE)
 191              		.loc 1 242 0
 192 00c6 CB7A     		ldrb	r3, [r1, #11]	@ zero_extendqisi2
 193 00c8 012B     		cmp	r3, #1
 243:../../source/src/FWlib/src/stm32f10x_can.c ****     {
 244:../../source/src/FWlib/src/stm32f10x_can.c ****       CANx->MCR |= CAN_MCR_TXFP;
 194              		.loc 1 244 0
 195 00ca 0368     		ldr	r3, [r0]
 196 00cc 0CBF     		ite	eq
 197 00ce 43F00403 		orreq	r3, r3, #4
 245:../../source/src/FWlib/src/stm32f10x_can.c ****     }
 246:../../source/src/FWlib/src/stm32f10x_can.c ****     else
 247:../../source/src/FWlib/src/stm32f10x_can.c ****     {
 248:../../source/src/FWlib/src/stm32f10x_can.c ****       CANx->MCR &= ~(uint32_t)CAN_MCR_TXFP;
 198              		.loc 1 248 0
 199 00d2 23F00403 		bicne	r3, r3, #4
 200 00d6 0360     		str	r3, [r0]
 249:../../source/src/FWlib/src/stm32f10x_can.c ****     }
 250:../../source/src/FWlib/src/stm32f10x_can.c **** 
 251:../../source/src/FWlib/src/stm32f10x_can.c ****     /* Set the bit timing register */
ARM GAS  G:\Users\Jaxb\AppData\Local\Temp\cctfzRXv.s 			page 9


 252:../../source/src/FWlib/src/stm32f10x_can.c ****     CANx->BTR = (uint32_t)((uint32_t)CAN_InitStruct->CAN_Mode << 30) | \
 253:../../source/src/FWlib/src/stm32f10x_can.c ****                 ((uint32_t)CAN_InitStruct->CAN_SJW << 24) | \
 201              		.loc 1 253 0
 202 00d8 CB78     		ldrb	r3, [r1, #3]	@ zero_extendqisi2
 252:../../source/src/FWlib/src/stm32f10x_can.c ****                 ((uint32_t)CAN_InitStruct->CAN_SJW << 24) | \
 203              		.loc 1 252 0
 204 00da 8A78     		ldrb	r2, [r1, #2]	@ zero_extendqisi2
 254:../../source/src/FWlib/src/stm32f10x_can.c ****                 ((uint32_t)CAN_InitStruct->CAN_BS1 << 16) | \
 205              		.loc 1 254 0
 206 00dc 0D79     		ldrb	r5, [r1, #4]	@ zero_extendqisi2
 253:../../source/src/FWlib/src/stm32f10x_can.c ****                 ((uint32_t)CAN_InitStruct->CAN_BS1 << 16) | \
 207              		.loc 1 253 0
 208 00de 1B06     		lsls	r3, r3, #24
 255:../../source/src/FWlib/src/stm32f10x_can.c ****                 ((uint32_t)CAN_InitStruct->CAN_BS2 << 20) | \
 209              		.loc 1 255 0
 210 00e0 4C79     		ldrb	r4, [r1, #5]	@ zero_extendqisi2
 252:../../source/src/FWlib/src/stm32f10x_can.c ****                 ((uint32_t)CAN_InitStruct->CAN_SJW << 24) | \
 211              		.loc 1 252 0
 212 00e2 43EA8273 		orr	r3, r3, r2, lsl #30
 256:../../source/src/FWlib/src/stm32f10x_can.c ****                ((uint32_t)CAN_InitStruct->CAN_Prescaler - 1);
 213              		.loc 1 256 0
 214 00e6 0A88     		ldrh	r2, [r1]
 253:../../source/src/FWlib/src/stm32f10x_can.c ****                 ((uint32_t)CAN_InitStruct->CAN_BS1 << 16) | \
 215              		.loc 1 253 0
 216 00e8 43EA0543 		orr	r3, r3, r5, lsl #16
 254:../../source/src/FWlib/src/stm32f10x_can.c ****                 ((uint32_t)CAN_InitStruct->CAN_BS2 << 20) | \
 217              		.loc 1 254 0
 218 00ec 43EA0453 		orr	r3, r3, r4, lsl #20
 219              		.loc 1 256 0
 220 00f0 013A     		subs	r2, r2, #1
 255:../../source/src/FWlib/src/stm32f10x_can.c ****                ((uint32_t)CAN_InitStruct->CAN_Prescaler - 1);
 221              		.loc 1 255 0
 222 00f2 1343     		orrs	r3, r3, r2
 252:../../source/src/FWlib/src/stm32f10x_can.c ****                 ((uint32_t)CAN_InitStruct->CAN_SJW << 24) | \
 223              		.loc 1 252 0
 224 00f4 C361     		str	r3, [r0, #28]
 257:../../source/src/FWlib/src/stm32f10x_can.c **** 
 258:../../source/src/FWlib/src/stm32f10x_can.c ****     /* Request leave initialisation */
 259:../../source/src/FWlib/src/stm32f10x_can.c ****     CANx->MCR &= ~(uint32_t)CAN_MCR_INRQ;
 225              		.loc 1 259 0
 226 00f6 0368     		ldr	r3, [r0]
 227 00f8 23F00103 		bic	r3, r3, #1
 228 00fc 0360     		str	r3, [r0]
 229              	.LVL12:
 260:../../source/src/FWlib/src/stm32f10x_can.c **** 
 261:../../source/src/FWlib/src/stm32f10x_can.c ****    /* Wait the acknowledge */
 262:../../source/src/FWlib/src/stm32f10x_can.c ****    wait_ack = 0;
 263:../../source/src/FWlib/src/stm32f10x_can.c **** 
 264:../../source/src/FWlib/src/stm32f10x_can.c ****    while (((CANx->MSR & CAN_MSR_INAK) == CAN_MSR_INAK) && (wait_ack != INAK_TIMEOUT))
 230              		.loc 1 264 0
 231 00fe 4368     		ldr	r3, [r0, #4]
 232 0100 D907     		lsls	r1, r3, #31
 233              	.LVL13:
 234 0102 07D5     		bpl	.L23
 235 0104 4FF6FF73 		movw	r3, #65535
 236 0108 01E0     		b	.L24
 237              	.LVL14:
ARM GAS  G:\Users\Jaxb\AppData\Local\Temp\cctfzRXv.s 			page 10


 238              	.L35:
 239              		.loc 1 264 0 is_stmt 0 discriminator 1
 240 010a 013B     		subs	r3, r3, #1
 241              	.LVL15:
 242 010c 02D0     		beq	.L23
 243              	.LVL16:
 244              	.L24:
 245              		.loc 1 264 0
 246 010e 4268     		ldr	r2, [r0, #4]
 247 0110 D207     		lsls	r2, r2, #31
 248 0112 FAD4     		bmi	.L35
 249              	.LVL17:
 250              	.L23:
 265:../../source/src/FWlib/src/stm32f10x_can.c ****    {
 266:../../source/src/FWlib/src/stm32f10x_can.c ****      wait_ack++;
 267:../../source/src/FWlib/src/stm32f10x_can.c ****    }
 268:../../source/src/FWlib/src/stm32f10x_can.c **** 
 269:../../source/src/FWlib/src/stm32f10x_can.c ****     /* ...and check acknowledged */
 270:../../source/src/FWlib/src/stm32f10x_can.c ****     if ((CANx->MSR & CAN_MSR_INAK) == CAN_MSR_INAK)
 251              		.loc 1 270 0 is_stmt 1
 252 0114 4068     		ldr	r0, [r0, #4]
 253              	.LVL18:
 271:../../source/src/FWlib/src/stm32f10x_can.c ****     {
 272:../../source/src/FWlib/src/stm32f10x_can.c ****       InitStatus = CAN_InitStatus_Failed;
 273:../../source/src/FWlib/src/stm32f10x_can.c ****     }
 274:../../source/src/FWlib/src/stm32f10x_can.c ****     else
 275:../../source/src/FWlib/src/stm32f10x_can.c ****     {
 276:../../source/src/FWlib/src/stm32f10x_can.c ****       InitStatus = CAN_InitStatus_Success ;
 277:../../source/src/FWlib/src/stm32f10x_can.c ****     }
 278:../../source/src/FWlib/src/stm32f10x_can.c ****   }
 279:../../source/src/FWlib/src/stm32f10x_can.c **** 
 280:../../source/src/FWlib/src/stm32f10x_can.c ****   /* At this step, return the status of initialization */
 281:../../source/src/FWlib/src/stm32f10x_can.c ****   return InitStatus;
 282:../../source/src/FWlib/src/stm32f10x_can.c **** }
 254              		.loc 1 282 0
 255 0116 30BC     		pop	{r4, r5}
 256              	.LCFI5:
 257              		.cfi_remember_state
 258              		.cfi_restore 5
 259              		.cfi_restore 4
 260              		.cfi_def_cfa_offset 0
 187:../../source/src/FWlib/src/stm32f10x_can.c ****   }
 261              		.loc 1 187 0
 262 0118 C043     		mvns	r0, r0
 263 011a 00F00100 		and	r0, r0, #1
 264              	.LVL19:
 265              		.loc 1 282 0
 266 011e 7047     		bx	lr
 267              	.LVL20:
 268              	.L25:
 269              	.LCFI6:
 270              		.cfi_restore_state
 187:../../source/src/FWlib/src/stm32f10x_can.c ****   }
 271              		.loc 1 187 0
 272 0120 1846     		mov	r0, r3
 273              	.LVL21:
 274              		.loc 1 282 0
ARM GAS  G:\Users\Jaxb\AppData\Local\Temp\cctfzRXv.s 			page 11


 275 0122 30BC     		pop	{r4, r5}
 276              	.LCFI7:
 277              		.cfi_restore 5
 278              		.cfi_restore 4
 279              		.cfi_def_cfa_offset 0
 280 0124 7047     		bx	lr
 281              		.cfi_endproc
 282              	.LFE30:
 283              		.size	CAN_Init, .-CAN_Init
 284              		.align	1
 285 0126 00BF     		.p2align 2,,3
 286              		.global	CAN_FilterInit
 287              		.syntax unified
 288              		.thumb
 289              		.thumb_func
 290              		.fpu softvfp
 291              		.type	CAN_FilterInit, %function
 292              	CAN_FilterInit:
 293              	.LFB31:
 283:../../source/src/FWlib/src/stm32f10x_can.c **** 
 284:../../source/src/FWlib/src/stm32f10x_can.c **** /**
 285:../../source/src/FWlib/src/stm32f10x_can.c ****   * @brief  Initializes the CAN peripheral according to the specified
 286:../../source/src/FWlib/src/stm32f10x_can.c ****   *         parameters in the CAN_FilterInitStruct.
 287:../../source/src/FWlib/src/stm32f10x_can.c ****   * @param  CAN_FilterInitStruct: pointer to a CAN_FilterInitTypeDef
 288:../../source/src/FWlib/src/stm32f10x_can.c ****   *                               structure that contains the configuration 
 289:../../source/src/FWlib/src/stm32f10x_can.c ****   *                               information.
 290:../../source/src/FWlib/src/stm32f10x_can.c ****   * @retval None.
 291:../../source/src/FWlib/src/stm32f10x_can.c ****   */
 292:../../source/src/FWlib/src/stm32f10x_can.c **** void CAN_FilterInit(CAN_FilterInitTypeDef* CAN_FilterInitStruct)
 293:../../source/src/FWlib/src/stm32f10x_can.c **** {
 294              		.loc 1 293 0
 295              		.cfi_startproc
 296              		@ args = 0, pretend = 0, frame = 0
 297              		@ frame_needed = 0, uses_anonymous_args = 0
 298              		@ link register save eliminated.
 299              	.LVL22:
 294:../../source/src/FWlib/src/stm32f10x_can.c ****   uint32_t filter_number_bit_pos = 0;
 295:../../source/src/FWlib/src/stm32f10x_can.c ****   /* Check the parameters */
 296:../../source/src/FWlib/src/stm32f10x_can.c ****   assert_param(IS_CAN_FILTER_NUMBER(CAN_FilterInitStruct->CAN_FilterNumber));
 297:../../source/src/FWlib/src/stm32f10x_can.c ****   assert_param(IS_CAN_FILTER_MODE(CAN_FilterInitStruct->CAN_FilterMode));
 298:../../source/src/FWlib/src/stm32f10x_can.c ****   assert_param(IS_CAN_FILTER_SCALE(CAN_FilterInitStruct->CAN_FilterScale));
 299:../../source/src/FWlib/src/stm32f10x_can.c ****   assert_param(IS_CAN_FILTER_FIFO(CAN_FilterInitStruct->CAN_FilterFIFOAssignment));
 300:../../source/src/FWlib/src/stm32f10x_can.c ****   assert_param(IS_FUNCTIONAL_STATE(CAN_FilterInitStruct->CAN_FilterActivation));
 301:../../source/src/FWlib/src/stm32f10x_can.c **** 
 302:../../source/src/FWlib/src/stm32f10x_can.c ****   filter_number_bit_pos = ((uint32_t)1) << CAN_FilterInitStruct->CAN_FilterNumber;
 300              		.loc 1 302 0
 301 0128 0121     		movs	r1, #1
 302 012a 837A     		ldrb	r3, [r0, #10]	@ zero_extendqisi2
 293:../../source/src/FWlib/src/stm32f10x_can.c ****   uint32_t filter_number_bit_pos = 0;
 303              		.loc 1 293 0
 304 012c F0B4     		push	{r4, r5, r6, r7}
 305              	.LCFI8:
 306              		.cfi_def_cfa_offset 16
 307              		.cfi_offset 4, -16
 308              		.cfi_offset 5, -12
 309              		.cfi_offset 6, -8
 310              		.cfi_offset 7, -4
ARM GAS  G:\Users\Jaxb\AppData\Local\Temp\cctfzRXv.s 			page 12


 311              		.loc 1 302 0
 312 012e 9940     		lsls	r1, r1, r3
 313              	.LVL23:
 303:../../source/src/FWlib/src/stm32f10x_can.c **** 
 304:../../source/src/FWlib/src/stm32f10x_can.c ****   /* Initialisation mode for the filter */
 305:../../source/src/FWlib/src/stm32f10x_can.c ****   CAN1->FMR |= FMR_FINIT;
 306:../../source/src/FWlib/src/stm32f10x_can.c **** 
 307:../../source/src/FWlib/src/stm32f10x_can.c ****   /* Filter Deactivation */
 308:../../source/src/FWlib/src/stm32f10x_can.c ****   CAN1->FA1R &= ~(uint32_t)filter_number_bit_pos;
 314              		.loc 1 308 0
 315 0130 CC43     		mvns	r4, r1
 305:../../source/src/FWlib/src/stm32f10x_can.c **** 
 316              		.loc 1 305 0
 317 0132 374A     		ldr	r2, .L44
 318 0134 D2F80052 		ldr	r5, [r2, #512]
 319 0138 45F00105 		orr	r5, r5, #1
 320 013c C2F80052 		str	r5, [r2, #512]
 321              		.loc 1 308 0
 322 0140 D2F81C52 		ldr	r5, [r2, #540]
 323 0144 2540     		ands	r5, r5, r4
 324 0146 C2F81C52 		str	r5, [r2, #540]
 309:../../source/src/FWlib/src/stm32f10x_can.c **** 
 310:../../source/src/FWlib/src/stm32f10x_can.c ****   /* Filter Scale */
 311:../../source/src/FWlib/src/stm32f10x_can.c ****   if (CAN_FilterInitStruct->CAN_FilterScale == CAN_FilterScale_16bit)
 325              		.loc 1 311 0
 326 014a 057B     		ldrb	r5, [r0, #12]	@ zero_extendqisi2
 327 014c 002D     		cmp	r5, #0
 328 014e 46D1     		bne	.L37
 312:../../source/src/FWlib/src/stm32f10x_can.c ****   {
 313:../../source/src/FWlib/src/stm32f10x_can.c ****     /* 16-bit scale for the filter */
 314:../../source/src/FWlib/src/stm32f10x_can.c ****     CAN1->FS1R &= ~(uint32_t)filter_number_bit_pos;
 329              		.loc 1 314 0
 330 0150 D2F80C62 		ldr	r6, [r2, #524]
 315:../../source/src/FWlib/src/stm32f10x_can.c **** 
 316:../../source/src/FWlib/src/stm32f10x_can.c ****     /* First 16-bit identifier and First 16-bit mask */
 317:../../source/src/FWlib/src/stm32f10x_can.c ****     /* Or First 16-bit identifier and Second 16-bit identifier */
 318:../../source/src/FWlib/src/stm32f10x_can.c ****     CAN1->sFilterRegister[CAN_FilterInitStruct->CAN_FilterNumber].FR1 = 
 319:../../source/src/FWlib/src/stm32f10x_can.c ****     ((0x0000FFFF & (uint32_t)CAN_FilterInitStruct->CAN_FilterMaskIdLow) << 16) |
 331              		.loc 1 319 0
 332 0154 C788     		ldrh	r7, [r0, #6]
 320:../../source/src/FWlib/src/stm32f10x_can.c ****         (0x0000FFFF & (uint32_t)CAN_FilterInitStruct->CAN_FilterIdLow);
 333              		.loc 1 320 0
 334 0156 4588     		ldrh	r5, [r0, #2]
 314:../../source/src/FWlib/src/stm32f10x_can.c **** 
 335              		.loc 1 314 0
 336 0158 2640     		ands	r6, r6, r4
 319:../../source/src/FWlib/src/stm32f10x_can.c ****         (0x0000FFFF & (uint32_t)CAN_FilterInitStruct->CAN_FilterIdLow);
 337              		.loc 1 319 0
 338 015a 45EA0745 		orr	r5, r5, r7, lsl #16
 339 015e DB00     		lsls	r3, r3, #3
 321:../../source/src/FWlib/src/stm32f10x_can.c **** 
 322:../../source/src/FWlib/src/stm32f10x_can.c ****     /* Second 16-bit identifier and Second 16-bit mask */
 323:../../source/src/FWlib/src/stm32f10x_can.c ****     /* Or Third 16-bit identifier and Fourth 16-bit identifier */
 324:../../source/src/FWlib/src/stm32f10x_can.c ****     CAN1->sFilterRegister[CAN_FilterInitStruct->CAN_FilterNumber].FR2 = 
 325:../../source/src/FWlib/src/stm32f10x_can.c ****     ((0x0000FFFF & (uint32_t)CAN_FilterInitStruct->CAN_FilterMaskIdHigh) << 16) |
 340              		.loc 1 325 0
 341 0160 8788     		ldrh	r7, [r0, #4]
ARM GAS  G:\Users\Jaxb\AppData\Local\Temp\cctfzRXv.s 			page 13


 314:../../source/src/FWlib/src/stm32f10x_can.c **** 
 342              		.loc 1 314 0
 343 0162 C2F80C62 		str	r6, [r2, #524]
 326:../../source/src/FWlib/src/stm32f10x_can.c ****         (0x0000FFFF & (uint32_t)CAN_FilterInitStruct->CAN_FilterIdHigh);
 344              		.loc 1 326 0
 345 0166 0288     		ldrh	r2, [r0]
 346 0168 03F18043 		add	r3, r3, #1073741824
 347 016c 03F5C843 		add	r3, r3, #25600
 325:../../source/src/FWlib/src/stm32f10x_can.c ****         (0x0000FFFF & (uint32_t)CAN_FilterInitStruct->CAN_FilterIdHigh);
 348              		.loc 1 325 0
 349 0170 42EA0742 		orr	r2, r2, r7, lsl #16
 318:../../source/src/FWlib/src/stm32f10x_can.c ****     ((0x0000FFFF & (uint32_t)CAN_FilterInitStruct->CAN_FilterMaskIdLow) << 16) |
 350              		.loc 1 318 0
 351 0174 C3F84052 		str	r5, [r3, #576]
 324:../../source/src/FWlib/src/stm32f10x_can.c ****     ((0x0000FFFF & (uint32_t)CAN_FilterInitStruct->CAN_FilterMaskIdHigh) << 16) |
 352              		.loc 1 324 0
 353 0178 C3F84422 		str	r2, [r3, #580]
 354              	.L38:
 327:../../source/src/FWlib/src/stm32f10x_can.c ****   }
 328:../../source/src/FWlib/src/stm32f10x_can.c **** 
 329:../../source/src/FWlib/src/stm32f10x_can.c ****   if (CAN_FilterInitStruct->CAN_FilterScale == CAN_FilterScale_32bit)
 330:../../source/src/FWlib/src/stm32f10x_can.c ****   {
 331:../../source/src/FWlib/src/stm32f10x_can.c ****     /* 32-bit scale for the filter */
 332:../../source/src/FWlib/src/stm32f10x_can.c ****     CAN1->FS1R |= filter_number_bit_pos;
 333:../../source/src/FWlib/src/stm32f10x_can.c ****     /* 32-bit identifier or First 32-bit identifier */
 334:../../source/src/FWlib/src/stm32f10x_can.c ****     CAN1->sFilterRegister[CAN_FilterInitStruct->CAN_FilterNumber].FR1 = 
 335:../../source/src/FWlib/src/stm32f10x_can.c ****     ((0x0000FFFF & (uint32_t)CAN_FilterInitStruct->CAN_FilterIdHigh) << 16) |
 336:../../source/src/FWlib/src/stm32f10x_can.c ****         (0x0000FFFF & (uint32_t)CAN_FilterInitStruct->CAN_FilterIdLow);
 337:../../source/src/FWlib/src/stm32f10x_can.c ****     /* 32-bit mask or Second 32-bit identifier */
 338:../../source/src/FWlib/src/stm32f10x_can.c ****     CAN1->sFilterRegister[CAN_FilterInitStruct->CAN_FilterNumber].FR2 = 
 339:../../source/src/FWlib/src/stm32f10x_can.c ****     ((0x0000FFFF & (uint32_t)CAN_FilterInitStruct->CAN_FilterMaskIdHigh) << 16) |
 340:../../source/src/FWlib/src/stm32f10x_can.c ****         (0x0000FFFF & (uint32_t)CAN_FilterInitStruct->CAN_FilterMaskIdLow);
 341:../../source/src/FWlib/src/stm32f10x_can.c ****   }
 342:../../source/src/FWlib/src/stm32f10x_can.c **** 
 343:../../source/src/FWlib/src/stm32f10x_can.c ****   /* Filter Mode */
 344:../../source/src/FWlib/src/stm32f10x_can.c ****   if (CAN_FilterInitStruct->CAN_FilterMode == CAN_FilterMode_IdMask)
 355              		.loc 1 344 0
 356 017c C37A     		ldrb	r3, [r0, #11]	@ zero_extendqisi2
 345:../../source/src/FWlib/src/stm32f10x_can.c ****   {
 346:../../source/src/FWlib/src/stm32f10x_can.c ****     /*Id/Mask mode for the filter*/
 347:../../source/src/FWlib/src/stm32f10x_can.c ****     CAN1->FM1R &= ~(uint32_t)filter_number_bit_pos;
 357              		.loc 1 347 0
 358 017e 244A     		ldr	r2, .L44
 344:../../source/src/FWlib/src/stm32f10x_can.c ****   {
 359              		.loc 1 344 0
 360 0180 3BBB     		cbnz	r3, .L39
 361              		.loc 1 347 0
 362 0182 D2F80432 		ldr	r3, [r2, #516]
 363 0186 2340     		ands	r3, r3, r4
 364 0188 C2F80432 		str	r3, [r2, #516]
 365              	.L40:
 348:../../source/src/FWlib/src/stm32f10x_can.c ****   }
 349:../../source/src/FWlib/src/stm32f10x_can.c ****   else /* CAN_FilterInitStruct->CAN_FilterMode == CAN_FilterMode_IdList */
 350:../../source/src/FWlib/src/stm32f10x_can.c ****   {
 351:../../source/src/FWlib/src/stm32f10x_can.c ****     /*Identifier list mode for the filter*/
 352:../../source/src/FWlib/src/stm32f10x_can.c ****     CAN1->FM1R |= (uint32_t)filter_number_bit_pos;
 353:../../source/src/FWlib/src/stm32f10x_can.c ****   }
ARM GAS  G:\Users\Jaxb\AppData\Local\Temp\cctfzRXv.s 			page 14


 354:../../source/src/FWlib/src/stm32f10x_can.c **** 
 355:../../source/src/FWlib/src/stm32f10x_can.c ****   /* Filter FIFO assignment */
 356:../../source/src/FWlib/src/stm32f10x_can.c ****   if (CAN_FilterInitStruct->CAN_FilterFIFOAssignment == CAN_Filter_FIFO0)
 366              		.loc 1 356 0
 367 018c 0389     		ldrh	r3, [r0, #8]
 368 018e BBB9     		cbnz	r3, .L41
 357:../../source/src/FWlib/src/stm32f10x_can.c ****   {
 358:../../source/src/FWlib/src/stm32f10x_can.c ****     /* FIFO 0 assignation for the filter */
 359:../../source/src/FWlib/src/stm32f10x_can.c ****     CAN1->FFA1R &= ~(uint32_t)filter_number_bit_pos;
 369              		.loc 1 359 0
 370 0190 1F4B     		ldr	r3, .L44
 371 0192 D3F81422 		ldr	r2, [r3, #532]
 372 0196 1440     		ands	r4, r4, r2
 373 0198 C3F81442 		str	r4, [r3, #532]
 374              	.L42:
 360:../../source/src/FWlib/src/stm32f10x_can.c ****   }
 361:../../source/src/FWlib/src/stm32f10x_can.c **** 
 362:../../source/src/FWlib/src/stm32f10x_can.c ****   if (CAN_FilterInitStruct->CAN_FilterFIFOAssignment == CAN_Filter_FIFO1)
 363:../../source/src/FWlib/src/stm32f10x_can.c ****   {
 364:../../source/src/FWlib/src/stm32f10x_can.c ****     /* FIFO 1 assignation for the filter */
 365:../../source/src/FWlib/src/stm32f10x_can.c ****     CAN1->FFA1R |= (uint32_t)filter_number_bit_pos;
 366:../../source/src/FWlib/src/stm32f10x_can.c ****   }
 367:../../source/src/FWlib/src/stm32f10x_can.c ****   
 368:../../source/src/FWlib/src/stm32f10x_can.c ****   /* Filter activation */
 369:../../source/src/FWlib/src/stm32f10x_can.c ****   if (CAN_FilterInitStruct->CAN_FilterActivation == ENABLE)
 375              		.loc 1 369 0
 376 019c 437B     		ldrb	r3, [r0, #13]	@ zero_extendqisi2
 377 019e 012B     		cmp	r3, #1
 378 01a0 05D1     		bne	.L43
 370:../../source/src/FWlib/src/stm32f10x_can.c ****   {
 371:../../source/src/FWlib/src/stm32f10x_can.c ****     CAN1->FA1R |= filter_number_bit_pos;
 379              		.loc 1 371 0
 380 01a2 1B4A     		ldr	r2, .L44
 381 01a4 D2F81C32 		ldr	r3, [r2, #540]
 382 01a8 1943     		orrs	r1, r1, r3
 383              	.LVL24:
 384 01aa C2F81C12 		str	r1, [r2, #540]
 385              	.L43:
 372:../../source/src/FWlib/src/stm32f10x_can.c ****   }
 373:../../source/src/FWlib/src/stm32f10x_can.c **** 
 374:../../source/src/FWlib/src/stm32f10x_can.c ****   /* Leave the initialisation mode for the filter */
 375:../../source/src/FWlib/src/stm32f10x_can.c ****   CAN1->FMR &= ~FMR_FINIT;
 386              		.loc 1 375 0
 387 01ae 184A     		ldr	r2, .L44
 376:../../source/src/FWlib/src/stm32f10x_can.c **** }
 388              		.loc 1 376 0
 389 01b0 F0BC     		pop	{r4, r5, r6, r7}
 390              	.LCFI9:
 391              		.cfi_remember_state
 392              		.cfi_restore 7
 393              		.cfi_restore 6
 394              		.cfi_restore 5
 395              		.cfi_restore 4
 396              		.cfi_def_cfa_offset 0
 375:../../source/src/FWlib/src/stm32f10x_can.c **** }
 397              		.loc 1 375 0
 398 01b2 D2F80032 		ldr	r3, [r2, #512]
ARM GAS  G:\Users\Jaxb\AppData\Local\Temp\cctfzRXv.s 			page 15


 399 01b6 23F00103 		bic	r3, r3, #1
 400 01ba C2F80032 		str	r3, [r2, #512]
 401              		.loc 1 376 0
 402 01be 7047     		bx	lr
 403              	.LVL25:
 404              	.L41:
 405              	.LCFI10:
 406              		.cfi_restore_state
 362:../../source/src/FWlib/src/stm32f10x_can.c ****   {
 407              		.loc 1 362 0
 408 01c0 012B     		cmp	r3, #1
 409 01c2 EBD1     		bne	.L42
 365:../../source/src/FWlib/src/stm32f10x_can.c ****   }
 410              		.loc 1 365 0
 411 01c4 124A     		ldr	r2, .L44
 412 01c6 D2F81432 		ldr	r3, [r2, #532]
 413 01ca 0B43     		orrs	r3, r3, r1
 414 01cc C2F81432 		str	r3, [r2, #532]
 415 01d0 E4E7     		b	.L42
 416              	.L39:
 352:../../source/src/FWlib/src/stm32f10x_can.c ****   }
 417              		.loc 1 352 0
 418 01d2 D2F80432 		ldr	r3, [r2, #516]
 419 01d6 0B43     		orrs	r3, r3, r1
 420 01d8 C2F80432 		str	r3, [r2, #516]
 421 01dc D6E7     		b	.L40
 422              	.L37:
 329:../../source/src/FWlib/src/stm32f10x_can.c ****   {
 423              		.loc 1 329 0
 424 01de 012D     		cmp	r5, #1
 425 01e0 CCD1     		bne	.L38
 332:../../source/src/FWlib/src/stm32f10x_can.c ****     /* 32-bit identifier or First 32-bit identifier */
 426              		.loc 1 332 0
 427 01e2 D2F80C62 		ldr	r6, [r2, #524]
 335:../../source/src/FWlib/src/stm32f10x_can.c ****         (0x0000FFFF & (uint32_t)CAN_FilterInitStruct->CAN_FilterIdLow);
 428              		.loc 1 335 0
 429 01e6 0788     		ldrh	r7, [r0]
 336:../../source/src/FWlib/src/stm32f10x_can.c ****     /* 32-bit mask or Second 32-bit identifier */
 430              		.loc 1 336 0
 431 01e8 4588     		ldrh	r5, [r0, #2]
 332:../../source/src/FWlib/src/stm32f10x_can.c ****     /* 32-bit identifier or First 32-bit identifier */
 432              		.loc 1 332 0
 433 01ea 0E43     		orrs	r6, r6, r1
 335:../../source/src/FWlib/src/stm32f10x_can.c ****         (0x0000FFFF & (uint32_t)CAN_FilterInitStruct->CAN_FilterIdLow);
 434              		.loc 1 335 0
 435 01ec 45EA0745 		orr	r5, r5, r7, lsl #16
 436 01f0 DB00     		lsls	r3, r3, #3
 339:../../source/src/FWlib/src/stm32f10x_can.c ****         (0x0000FFFF & (uint32_t)CAN_FilterInitStruct->CAN_FilterMaskIdLow);
 437              		.loc 1 339 0
 438 01f2 8788     		ldrh	r7, [r0, #4]
 332:../../source/src/FWlib/src/stm32f10x_can.c ****     /* 32-bit identifier or First 32-bit identifier */
 439              		.loc 1 332 0
 440 01f4 C2F80C62 		str	r6, [r2, #524]
 340:../../source/src/FWlib/src/stm32f10x_can.c ****   }
 441              		.loc 1 340 0
 442 01f8 C288     		ldrh	r2, [r0, #6]
 443 01fa 03F18043 		add	r3, r3, #1073741824
ARM GAS  G:\Users\Jaxb\AppData\Local\Temp\cctfzRXv.s 			page 16


 444 01fe 03F5C843 		add	r3, r3, #25600
 339:../../source/src/FWlib/src/stm32f10x_can.c ****         (0x0000FFFF & (uint32_t)CAN_FilterInitStruct->CAN_FilterMaskIdLow);
 445              		.loc 1 339 0
 446 0202 42EA0742 		orr	r2, r2, r7, lsl #16
 334:../../source/src/FWlib/src/stm32f10x_can.c ****     ((0x0000FFFF & (uint32_t)CAN_FilterInitStruct->CAN_FilterIdHigh) << 16) |
 447              		.loc 1 334 0
 448 0206 C3F84052 		str	r5, [r3, #576]
 338:../../source/src/FWlib/src/stm32f10x_can.c ****     ((0x0000FFFF & (uint32_t)CAN_FilterInitStruct->CAN_FilterMaskIdHigh) << 16) |
 449              		.loc 1 338 0
 450 020a C3F84422 		str	r2, [r3, #580]
 451 020e B5E7     		b	.L38
 452              	.L45:
 453              		.align	2
 454              	.L44:
 455 0210 00640040 		.word	1073767424
 456              		.cfi_endproc
 457              	.LFE31:
 458              		.size	CAN_FilterInit, .-CAN_FilterInit
 459              		.align	1
 460              		.p2align 2,,3
 461              		.global	CAN_StructInit
 462              		.syntax unified
 463              		.thumb
 464              		.thumb_func
 465              		.fpu softvfp
 466              		.type	CAN_StructInit, %function
 467              	CAN_StructInit:
 468              	.LFB32:
 377:../../source/src/FWlib/src/stm32f10x_can.c **** 
 378:../../source/src/FWlib/src/stm32f10x_can.c **** /**
 379:../../source/src/FWlib/src/stm32f10x_can.c ****   * @brief  Fills each CAN_InitStruct member with its default value.
 380:../../source/src/FWlib/src/stm32f10x_can.c ****   * @param  CAN_InitStruct: pointer to a CAN_InitTypeDef structure which
 381:../../source/src/FWlib/src/stm32f10x_can.c ****   *                         will be initialized.
 382:../../source/src/FWlib/src/stm32f10x_can.c ****   * @retval None.
 383:../../source/src/FWlib/src/stm32f10x_can.c ****   */
 384:../../source/src/FWlib/src/stm32f10x_can.c **** void CAN_StructInit(CAN_InitTypeDef* CAN_InitStruct)
 385:../../source/src/FWlib/src/stm32f10x_can.c **** {
 469              		.loc 1 385 0
 470              		.cfi_startproc
 471              		@ args = 0, pretend = 0, frame = 0
 472              		@ frame_needed = 0, uses_anonymous_args = 0
 473              		@ link register save eliminated.
 474              	.LVL26:
 386:../../source/src/FWlib/src/stm32f10x_can.c ****   /* Reset CAN init structure parameters values */
 387:../../source/src/FWlib/src/stm32f10x_can.c ****   
 388:../../source/src/FWlib/src/stm32f10x_can.c ****   /* Initialize the time triggered communication mode */
 389:../../source/src/FWlib/src/stm32f10x_can.c ****   CAN_InitStruct->CAN_TTCM = DISABLE;
 475              		.loc 1 389 0
 476 0214 0023     		movs	r3, #0
 390:../../source/src/FWlib/src/stm32f10x_can.c ****   
 391:../../source/src/FWlib/src/stm32f10x_can.c ****   /* Initialize the automatic bus-off management */
 392:../../source/src/FWlib/src/stm32f10x_can.c ****   CAN_InitStruct->CAN_ABOM = DISABLE;
 393:../../source/src/FWlib/src/stm32f10x_can.c ****   
 394:../../source/src/FWlib/src/stm32f10x_can.c ****   /* Initialize the automatic wake-up mode */
 395:../../source/src/FWlib/src/stm32f10x_can.c ****   CAN_InitStruct->CAN_AWUM = DISABLE;
 396:../../source/src/FWlib/src/stm32f10x_can.c ****   
 397:../../source/src/FWlib/src/stm32f10x_can.c ****   /* Initialize the no automatic retransmission */
ARM GAS  G:\Users\Jaxb\AppData\Local\Temp\cctfzRXv.s 			page 17


 398:../../source/src/FWlib/src/stm32f10x_can.c ****   CAN_InitStruct->CAN_NART = DISABLE;
 399:../../source/src/FWlib/src/stm32f10x_can.c ****   
 400:../../source/src/FWlib/src/stm32f10x_can.c ****   /* Initialize the receive FIFO locked mode */
 401:../../source/src/FWlib/src/stm32f10x_can.c ****   CAN_InitStruct->CAN_RFLM = DISABLE;
 402:../../source/src/FWlib/src/stm32f10x_can.c ****   
 403:../../source/src/FWlib/src/stm32f10x_can.c ****   /* Initialize the transmit FIFO priority */
 404:../../source/src/FWlib/src/stm32f10x_can.c ****   CAN_InitStruct->CAN_TXFP = DISABLE;
 405:../../source/src/FWlib/src/stm32f10x_can.c ****   
 406:../../source/src/FWlib/src/stm32f10x_can.c ****   /* Initialize the CAN_Mode member */
 407:../../source/src/FWlib/src/stm32f10x_can.c ****   CAN_InitStruct->CAN_Mode = CAN_Mode_Normal;
 408:../../source/src/FWlib/src/stm32f10x_can.c ****   
 409:../../source/src/FWlib/src/stm32f10x_can.c ****   /* Initialize the CAN_SJW member */
 410:../../source/src/FWlib/src/stm32f10x_can.c ****   CAN_InitStruct->CAN_SJW = CAN_SJW_1tq;
 411:../../source/src/FWlib/src/stm32f10x_can.c ****   
 412:../../source/src/FWlib/src/stm32f10x_can.c ****   /* Initialize the CAN_BS1 member */
 413:../../source/src/FWlib/src/stm32f10x_can.c ****   CAN_InitStruct->CAN_BS1 = CAN_BS1_4tq;
 414:../../source/src/FWlib/src/stm32f10x_can.c ****   
 415:../../source/src/FWlib/src/stm32f10x_can.c ****   /* Initialize the CAN_BS2 member */
 416:../../source/src/FWlib/src/stm32f10x_can.c ****   CAN_InitStruct->CAN_BS2 = CAN_BS2_3tq;
 417:../../source/src/FWlib/src/stm32f10x_can.c ****   
 418:../../source/src/FWlib/src/stm32f10x_can.c ****   /* Initialize the CAN_Prescaler member */
 419:../../source/src/FWlib/src/stm32f10x_can.c ****   CAN_InitStruct->CAN_Prescaler = 1;
 477              		.loc 1 419 0
 478 0216 0121     		movs	r1, #1
 410:../../source/src/FWlib/src/stm32f10x_can.c ****   
 479              		.loc 1 410 0
 480 0218 40F20322 		movw	r2, #515
 481              		.loc 1 419 0
 482 021c 0180     		strh	r1, [r0]	@ movhi
 410:../../source/src/FWlib/src/stm32f10x_can.c ****   
 483              		.loc 1 410 0
 484 021e 8280     		strh	r2, [r0, #4]	@ movhi
 389:../../source/src/FWlib/src/stm32f10x_can.c ****   
 485              		.loc 1 389 0
 486 0220 8371     		strb	r3, [r0, #6]
 392:../../source/src/FWlib/src/stm32f10x_can.c ****   
 487              		.loc 1 392 0
 488 0222 C371     		strb	r3, [r0, #7]
 395:../../source/src/FWlib/src/stm32f10x_can.c ****   
 489              		.loc 1 395 0
 490 0224 0372     		strb	r3, [r0, #8]
 398:../../source/src/FWlib/src/stm32f10x_can.c ****   
 491              		.loc 1 398 0
 492 0226 4372     		strb	r3, [r0, #9]
 401:../../source/src/FWlib/src/stm32f10x_can.c ****   
 493              		.loc 1 401 0
 494 0228 8372     		strb	r3, [r0, #10]
 404:../../source/src/FWlib/src/stm32f10x_can.c ****   
 495              		.loc 1 404 0
 496 022a C372     		strb	r3, [r0, #11]
 497              		.loc 1 419 0
 498 022c 4380     		strh	r3, [r0, #2]	@ movhi
 420:../../source/src/FWlib/src/stm32f10x_can.c **** }
 499              		.loc 1 420 0
 500 022e 7047     		bx	lr
 501              		.cfi_endproc
 502              	.LFE32:
ARM GAS  G:\Users\Jaxb\AppData\Local\Temp\cctfzRXv.s 			page 18


 503              		.size	CAN_StructInit, .-CAN_StructInit
 504              		.align	1
 505              		.p2align 2,,3
 506              		.global	CAN_SlaveStartBank
 507              		.syntax unified
 508              		.thumb
 509              		.thumb_func
 510              		.fpu softvfp
 511              		.type	CAN_SlaveStartBank, %function
 512              	CAN_SlaveStartBank:
 513              	.LFB33:
 421:../../source/src/FWlib/src/stm32f10x_can.c **** 
 422:../../source/src/FWlib/src/stm32f10x_can.c **** /**
 423:../../source/src/FWlib/src/stm32f10x_can.c ****   * @brief  Select the start bank filter for slave CAN.
 424:../../source/src/FWlib/src/stm32f10x_can.c ****   * @note   This function applies only to STM32 Connectivity line devices.
 425:../../source/src/FWlib/src/stm32f10x_can.c ****   * @param  CAN_BankNumber: Select the start slave bank filter from 1..27.
 426:../../source/src/FWlib/src/stm32f10x_can.c ****   * @retval None.
 427:../../source/src/FWlib/src/stm32f10x_can.c ****   */
 428:../../source/src/FWlib/src/stm32f10x_can.c **** void CAN_SlaveStartBank(uint8_t CAN_BankNumber) 
 429:../../source/src/FWlib/src/stm32f10x_can.c **** {
 514              		.loc 1 429 0
 515              		.cfi_startproc
 516              		@ args = 0, pretend = 0, frame = 0
 517              		@ frame_needed = 0, uses_anonymous_args = 0
 518              		@ link register save eliminated.
 519              	.LVL27:
 430:../../source/src/FWlib/src/stm32f10x_can.c ****   /* Check the parameters */
 431:../../source/src/FWlib/src/stm32f10x_can.c ****   assert_param(IS_CAN_BANKNUMBER(CAN_BankNumber));
 432:../../source/src/FWlib/src/stm32f10x_can.c ****   
 433:../../source/src/FWlib/src/stm32f10x_can.c ****   /* Enter Initialisation mode for the filter */
 434:../../source/src/FWlib/src/stm32f10x_can.c ****   CAN1->FMR |= FMR_FINIT;
 520              		.loc 1 434 0
 521 0230 0D4B     		ldr	r3, .L48
 522 0232 D3F80022 		ldr	r2, [r3, #512]
 523 0236 42F00102 		orr	r2, r2, #1
 524 023a C3F80022 		str	r2, [r3, #512]
 435:../../source/src/FWlib/src/stm32f10x_can.c ****   
 436:../../source/src/FWlib/src/stm32f10x_can.c ****   /* Select the start slave bank */
 437:../../source/src/FWlib/src/stm32f10x_can.c ****   CAN1->FMR &= (uint32_t)0xFFFFC0F1 ;
 525              		.loc 1 437 0
 526 023e D3F80022 		ldr	r2, [r3, #512]
 527 0242 22F47C52 		bic	r2, r2, #16128
 528 0246 22F00E02 		bic	r2, r2, #14
 529 024a C3F80022 		str	r2, [r3, #512]
 438:../../source/src/FWlib/src/stm32f10x_can.c ****   CAN1->FMR |= (uint32_t)(CAN_BankNumber)<<8;
 530              		.loc 1 438 0
 531 024e D3F80022 		ldr	r2, [r3, #512]
 532 0252 42EA0020 		orr	r0, r2, r0, lsl #8
 533              	.LVL28:
 534 0256 C3F80002 		str	r0, [r3, #512]
 439:../../source/src/FWlib/src/stm32f10x_can.c ****   
 440:../../source/src/FWlib/src/stm32f10x_can.c ****   /* Leave Initialisation mode for the filter */
 441:../../source/src/FWlib/src/stm32f10x_can.c ****   CAN1->FMR &= ~FMR_FINIT;
 535              		.loc 1 441 0
 536 025a D3F80022 		ldr	r2, [r3, #512]
 537 025e 22F00102 		bic	r2, r2, #1
 538 0262 C3F80022 		str	r2, [r3, #512]
ARM GAS  G:\Users\Jaxb\AppData\Local\Temp\cctfzRXv.s 			page 19


 442:../../source/src/FWlib/src/stm32f10x_can.c **** }
 539              		.loc 1 442 0
 540 0266 7047     		bx	lr
 541              	.L49:
 542              		.align	2
 543              	.L48:
 544 0268 00640040 		.word	1073767424
 545              		.cfi_endproc
 546              	.LFE33:
 547              		.size	CAN_SlaveStartBank, .-CAN_SlaveStartBank
 548              		.align	1
 549              		.p2align 2,,3
 550              		.global	CAN_DBGFreeze
 551              		.syntax unified
 552              		.thumb
 553              		.thumb_func
 554              		.fpu softvfp
 555              		.type	CAN_DBGFreeze, %function
 556              	CAN_DBGFreeze:
 557              	.LFB34:
 443:../../source/src/FWlib/src/stm32f10x_can.c **** 
 444:../../source/src/FWlib/src/stm32f10x_can.c **** /**
 445:../../source/src/FWlib/src/stm32f10x_can.c ****   * @brief  Enables or disables the DBG Freeze for CAN.
 446:../../source/src/FWlib/src/stm32f10x_can.c ****   * @param  CANx:     where x can be 1 or 2 to to select the CAN peripheral.
 447:../../source/src/FWlib/src/stm32f10x_can.c ****   * @param  NewState: new state of the CAN peripheral. This parameter can 
 448:../../source/src/FWlib/src/stm32f10x_can.c ****   *                   be: ENABLE or DISABLE.
 449:../../source/src/FWlib/src/stm32f10x_can.c ****   * @retval None.
 450:../../source/src/FWlib/src/stm32f10x_can.c ****   */
 451:../../source/src/FWlib/src/stm32f10x_can.c **** void CAN_DBGFreeze(CAN_TypeDef* CANx, FunctionalState NewState)
 452:../../source/src/FWlib/src/stm32f10x_can.c **** {
 558              		.loc 1 452 0
 559              		.cfi_startproc
 560              		@ args = 0, pretend = 0, frame = 0
 561              		@ frame_needed = 0, uses_anonymous_args = 0
 562              		@ link register save eliminated.
 563              	.LVL29:
 453:../../source/src/FWlib/src/stm32f10x_can.c ****   /* Check the parameters */
 454:../../source/src/FWlib/src/stm32f10x_can.c ****   assert_param(IS_CAN_ALL_PERIPH(CANx));
 455:../../source/src/FWlib/src/stm32f10x_can.c ****   assert_param(IS_FUNCTIONAL_STATE(NewState));
 456:../../source/src/FWlib/src/stm32f10x_can.c ****   
 457:../../source/src/FWlib/src/stm32f10x_can.c ****   if (NewState != DISABLE)
 458:../../source/src/FWlib/src/stm32f10x_can.c ****   {
 459:../../source/src/FWlib/src/stm32f10x_can.c ****     /* Enable Debug Freeze  */
 460:../../source/src/FWlib/src/stm32f10x_can.c ****     CANx->MCR |= MCR_DBF;
 564              		.loc 1 460 0
 565 026c 0368     		ldr	r3, [r0]
 457:../../source/src/FWlib/src/stm32f10x_can.c ****   {
 566              		.loc 1 457 0
 567 026e 19B9     		cbnz	r1, .L53
 461:../../source/src/FWlib/src/stm32f10x_can.c ****   }
 462:../../source/src/FWlib/src/stm32f10x_can.c ****   else
 463:../../source/src/FWlib/src/stm32f10x_can.c ****   {
 464:../../source/src/FWlib/src/stm32f10x_can.c ****     /* Disable Debug Freeze */
 465:../../source/src/FWlib/src/stm32f10x_can.c ****     CANx->MCR &= ~MCR_DBF;
 568              		.loc 1 465 0
 569 0270 23F48033 		bic	r3, r3, #65536
 570 0274 0360     		str	r3, [r0]
ARM GAS  G:\Users\Jaxb\AppData\Local\Temp\cctfzRXv.s 			page 20


 466:../../source/src/FWlib/src/stm32f10x_can.c ****   }
 467:../../source/src/FWlib/src/stm32f10x_can.c **** }
 571              		.loc 1 467 0
 572 0276 7047     		bx	lr
 573              	.L53:
 460:../../source/src/FWlib/src/stm32f10x_can.c ****   }
 574              		.loc 1 460 0
 575 0278 43F48033 		orr	r3, r3, #65536
 576 027c 0360     		str	r3, [r0]
 577 027e 7047     		bx	lr
 578              		.cfi_endproc
 579              	.LFE34:
 580              		.size	CAN_DBGFreeze, .-CAN_DBGFreeze
 581              		.align	1
 582              		.p2align 2,,3
 583              		.global	CAN_TTComModeCmd
 584              		.syntax unified
 585              		.thumb
 586              		.thumb_func
 587              		.fpu softvfp
 588              		.type	CAN_TTComModeCmd, %function
 589              	CAN_TTComModeCmd:
 590              	.LFB35:
 468:../../source/src/FWlib/src/stm32f10x_can.c **** 
 469:../../source/src/FWlib/src/stm32f10x_can.c **** 
 470:../../source/src/FWlib/src/stm32f10x_can.c **** /**
 471:../../source/src/FWlib/src/stm32f10x_can.c ****   * @brief  Enables or disabes the CAN Time TriggerOperation communication mode.
 472:../../source/src/FWlib/src/stm32f10x_can.c ****   * @param  CANx:      where x can be 1 or 2 to to select the CAN peripheral.
 473:../../source/src/FWlib/src/stm32f10x_can.c ****   * @param  NewState : Mode new state , can be one of @ref FunctionalState.
 474:../../source/src/FWlib/src/stm32f10x_can.c ****   * @note   when enabled, Time stamp (TIME[15:0]) value is sent in the last 
 475:../../source/src/FWlib/src/stm32f10x_can.c ****   *         two data bytes of the 8-byte message: TIME[7:0] in data byte 6 
 476:../../source/src/FWlib/src/stm32f10x_can.c ****   *         and TIME[15:8] in data byte 7 
 477:../../source/src/FWlib/src/stm32f10x_can.c ****   * @note   DLC must be programmed as 8 in order Time Stamp (2 bytes) to be 
 478:../../source/src/FWlib/src/stm32f10x_can.c ****   *         sent over the CAN bus.  
 479:../../source/src/FWlib/src/stm32f10x_can.c ****   * @retval None
 480:../../source/src/FWlib/src/stm32f10x_can.c ****   */
 481:../../source/src/FWlib/src/stm32f10x_can.c **** void CAN_TTComModeCmd(CAN_TypeDef* CANx, FunctionalState NewState)
 482:../../source/src/FWlib/src/stm32f10x_can.c **** {
 591              		.loc 1 482 0
 592              		.cfi_startproc
 593              		@ args = 0, pretend = 0, frame = 0
 594              		@ frame_needed = 0, uses_anonymous_args = 0
 595              		@ link register save eliminated.
 596              	.LVL30:
 483:../../source/src/FWlib/src/stm32f10x_can.c ****   /* Check the parameters */
 484:../../source/src/FWlib/src/stm32f10x_can.c ****   assert_param(IS_CAN_ALL_PERIPH(CANx));
 485:../../source/src/FWlib/src/stm32f10x_can.c ****   assert_param(IS_FUNCTIONAL_STATE(NewState));
 486:../../source/src/FWlib/src/stm32f10x_can.c ****   if (NewState != DISABLE)
 487:../../source/src/FWlib/src/stm32f10x_can.c ****   {
 488:../../source/src/FWlib/src/stm32f10x_can.c ****     /* Enable the TTCM mode */
 489:../../source/src/FWlib/src/stm32f10x_can.c ****     CANx->MCR |= CAN_MCR_TTCM;
 597              		.loc 1 489 0
 598 0280 0368     		ldr	r3, [r0]
 486:../../source/src/FWlib/src/stm32f10x_can.c ****   {
 599              		.loc 1 486 0
 600 0282 A9B9     		cbnz	r1, .L57
 490:../../source/src/FWlib/src/stm32f10x_can.c **** 
ARM GAS  G:\Users\Jaxb\AppData\Local\Temp\cctfzRXv.s 			page 21


 491:../../source/src/FWlib/src/stm32f10x_can.c ****     /* Set TGT bits */
 492:../../source/src/FWlib/src/stm32f10x_can.c ****     CANx->sTxMailBox[0].TDTR |= ((uint32_t)CAN_TDT0R_TGT);
 493:../../source/src/FWlib/src/stm32f10x_can.c ****     CANx->sTxMailBox[1].TDTR |= ((uint32_t)CAN_TDT1R_TGT);
 494:../../source/src/FWlib/src/stm32f10x_can.c ****     CANx->sTxMailBox[2].TDTR |= ((uint32_t)CAN_TDT2R_TGT);
 495:../../source/src/FWlib/src/stm32f10x_can.c ****   }
 496:../../source/src/FWlib/src/stm32f10x_can.c ****   else
 497:../../source/src/FWlib/src/stm32f10x_can.c ****   {
 498:../../source/src/FWlib/src/stm32f10x_can.c ****     /* Disable the TTCM mode */
 499:../../source/src/FWlib/src/stm32f10x_can.c ****     CANx->MCR &= (uint32_t)(~(uint32_t)CAN_MCR_TTCM);
 601              		.loc 1 499 0
 602 0284 23F08003 		bic	r3, r3, #128
 603 0288 0360     		str	r3, [r0]
 500:../../source/src/FWlib/src/stm32f10x_can.c **** 
 501:../../source/src/FWlib/src/stm32f10x_can.c ****     /* Reset TGT bits */
 502:../../source/src/FWlib/src/stm32f10x_can.c ****     CANx->sTxMailBox[0].TDTR &= ((uint32_t)~CAN_TDT0R_TGT);
 604              		.loc 1 502 0
 605 028a D0F88431 		ldr	r3, [r0, #388]
 606 028e 23F48073 		bic	r3, r3, #256
 607 0292 C0F88431 		str	r3, [r0, #388]
 503:../../source/src/FWlib/src/stm32f10x_can.c ****     CANx->sTxMailBox[1].TDTR &= ((uint32_t)~CAN_TDT1R_TGT);
 608              		.loc 1 503 0
 609 0296 D0F89431 		ldr	r3, [r0, #404]
 610 029a 23F48073 		bic	r3, r3, #256
 611 029e C0F89431 		str	r3, [r0, #404]
 504:../../source/src/FWlib/src/stm32f10x_can.c ****     CANx->sTxMailBox[2].TDTR &= ((uint32_t)~CAN_TDT2R_TGT);
 612              		.loc 1 504 0
 613 02a2 D0F8A431 		ldr	r3, [r0, #420]
 614 02a6 23F48073 		bic	r3, r3, #256
 615 02aa C0F8A431 		str	r3, [r0, #420]
 505:../../source/src/FWlib/src/stm32f10x_can.c ****   }
 506:../../source/src/FWlib/src/stm32f10x_can.c **** }
 616              		.loc 1 506 0
 617 02ae 7047     		bx	lr
 618              	.L57:
 489:../../source/src/FWlib/src/stm32f10x_can.c **** 
 619              		.loc 1 489 0
 620 02b0 43F08003 		orr	r3, r3, #128
 621 02b4 0360     		str	r3, [r0]
 492:../../source/src/FWlib/src/stm32f10x_can.c ****     CANx->sTxMailBox[1].TDTR |= ((uint32_t)CAN_TDT1R_TGT);
 622              		.loc 1 492 0
 623 02b6 D0F88431 		ldr	r3, [r0, #388]
 624 02ba 43F48073 		orr	r3, r3, #256
 625 02be C0F88431 		str	r3, [r0, #388]
 493:../../source/src/FWlib/src/stm32f10x_can.c ****     CANx->sTxMailBox[2].TDTR |= ((uint32_t)CAN_TDT2R_TGT);
 626              		.loc 1 493 0
 627 02c2 D0F89431 		ldr	r3, [r0, #404]
 628 02c6 43F48073 		orr	r3, r3, #256
 629 02ca C0F89431 		str	r3, [r0, #404]
 494:../../source/src/FWlib/src/stm32f10x_can.c ****   }
 630              		.loc 1 494 0
 631 02ce D0F8A431 		ldr	r3, [r0, #420]
 632 02d2 43F48073 		orr	r3, r3, #256
 633 02d6 C0F8A431 		str	r3, [r0, #420]
 634 02da 7047     		bx	lr
 635              		.cfi_endproc
 636              	.LFE35:
 637              		.size	CAN_TTComModeCmd, .-CAN_TTComModeCmd
ARM GAS  G:\Users\Jaxb\AppData\Local\Temp\cctfzRXv.s 			page 22


 638              		.align	1
 639              		.p2align 2,,3
 640              		.global	CAN_Transmit
 641              		.syntax unified
 642              		.thumb
 643              		.thumb_func
 644              		.fpu softvfp
 645              		.type	CAN_Transmit, %function
 646              	CAN_Transmit:
 647              	.LFB36:
 507:../../source/src/FWlib/src/stm32f10x_can.c **** /**
 508:../../source/src/FWlib/src/stm32f10x_can.c ****   * @brief  Initiates the transmission of a message.
 509:../../source/src/FWlib/src/stm32f10x_can.c ****   * @param  CANx:      where x can be 1 or 2 to to select the CAN peripheral.
 510:../../source/src/FWlib/src/stm32f10x_can.c ****   * @param  TxMessage: pointer to a structure which contains CAN Id, CAN
 511:../../source/src/FWlib/src/stm32f10x_can.c ****   *                    DLC and CAN data.
 512:../../source/src/FWlib/src/stm32f10x_can.c ****   * @retval The number of the mailbox that is used for transmission
 513:../../source/src/FWlib/src/stm32f10x_can.c ****   *                    or CAN_TxStatus_NoMailBox if there is no empty mailbox.
 514:../../source/src/FWlib/src/stm32f10x_can.c ****   */
 515:../../source/src/FWlib/src/stm32f10x_can.c **** uint8_t CAN_Transmit(CAN_TypeDef* CANx, CanTxMsg* TxMessage)
 516:../../source/src/FWlib/src/stm32f10x_can.c **** {
 648              		.loc 1 516 0
 649              		.cfi_startproc
 650              		@ args = 0, pretend = 0, frame = 0
 651              		@ frame_needed = 0, uses_anonymous_args = 0
 652              		@ link register save eliminated.
 653              	.LVL31:
 517:../../source/src/FWlib/src/stm32f10x_can.c ****   uint8_t transmit_mailbox = 0;
 518:../../source/src/FWlib/src/stm32f10x_can.c ****   /* Check the parameters */
 519:../../source/src/FWlib/src/stm32f10x_can.c ****   assert_param(IS_CAN_ALL_PERIPH(CANx));
 520:../../source/src/FWlib/src/stm32f10x_can.c ****   assert_param(IS_CAN_IDTYPE(TxMessage->IDE));
 521:../../source/src/FWlib/src/stm32f10x_can.c ****   assert_param(IS_CAN_RTR(TxMessage->RTR));
 522:../../source/src/FWlib/src/stm32f10x_can.c ****   assert_param(IS_CAN_DLC(TxMessage->DLC));
 523:../../source/src/FWlib/src/stm32f10x_can.c **** 
 524:../../source/src/FWlib/src/stm32f10x_can.c ****   /* Select one empty transmit mailbox */
 525:../../source/src/FWlib/src/stm32f10x_can.c ****   if ((CANx->TSR&CAN_TSR_TME0) == CAN_TSR_TME0)
 654              		.loc 1 525 0
 655 02dc 8368     		ldr	r3, [r0, #8]
 516:../../source/src/FWlib/src/stm32f10x_can.c ****   uint8_t transmit_mailbox = 0;
 656              		.loc 1 516 0
 657 02de F0B4     		push	{r4, r5, r6, r7}
 658              	.LCFI11:
 659              		.cfi_def_cfa_offset 16
 660              		.cfi_offset 4, -16
 661              		.cfi_offset 5, -12
 662              		.cfi_offset 6, -8
 663              		.cfi_offset 7, -4
 664              		.loc 1 525 0
 665 02e0 5C01     		lsls	r4, r3, #5
 516:../../source/src/FWlib/src/stm32f10x_can.c ****   uint8_t transmit_mailbox = 0;
 666              		.loc 1 516 0
 667 02e2 0246     		mov	r2, r0
 668              		.loc 1 525 0
 669 02e4 05D4     		bmi	.L63
 526:../../source/src/FWlib/src/stm32f10x_can.c ****   {
 527:../../source/src/FWlib/src/stm32f10x_can.c ****     transmit_mailbox = 0;
 528:../../source/src/FWlib/src/stm32f10x_can.c ****   }
 529:../../source/src/FWlib/src/stm32f10x_can.c ****   else if ((CANx->TSR&CAN_TSR_TME1) == CAN_TSR_TME1)
ARM GAS  G:\Users\Jaxb\AppData\Local\Temp\cctfzRXv.s 			page 23


 670              		.loc 1 529 0
 671 02e6 8368     		ldr	r3, [r0, #8]
 672 02e8 1801     		lsls	r0, r3, #4
 673              	.LVL32:
 674 02ea 42D5     		bpl	.L66
 675 02ec 0125     		movs	r5, #1
 530:../../source/src/FWlib/src/stm32f10x_can.c ****   {
 531:../../source/src/FWlib/src/stm32f10x_can.c ****     transmit_mailbox = 1;
 676              		.loc 1 531 0
 677 02ee 2846     		mov	r0, r5
 678 02f0 01E0     		b	.L59
 679              	.LVL33:
 680              	.L63:
 681 02f2 0025     		movs	r5, #0
 527:../../source/src/FWlib/src/stm32f10x_can.c ****   }
 682              		.loc 1 527 0
 683 02f4 2846     		mov	r0, r5
 684              	.LVL34:
 685              	.L59:
 686 02f6 2D01     		lsls	r5, r5, #4
 687 02f8 5319     		adds	r3, r2, r5
 532:../../source/src/FWlib/src/stm32f10x_can.c ****   }
 533:../../source/src/FWlib/src/stm32f10x_can.c ****   else if ((CANx->TSR&CAN_TSR_TME2) == CAN_TSR_TME2)
 534:../../source/src/FWlib/src/stm32f10x_can.c ****   {
 535:../../source/src/FWlib/src/stm32f10x_can.c ****     transmit_mailbox = 2;
 536:../../source/src/FWlib/src/stm32f10x_can.c ****   }
 537:../../source/src/FWlib/src/stm32f10x_can.c ****   else
 538:../../source/src/FWlib/src/stm32f10x_can.c ****   {
 539:../../source/src/FWlib/src/stm32f10x_can.c ****     transmit_mailbox = CAN_TxStatus_NoMailBox;
 540:../../source/src/FWlib/src/stm32f10x_can.c ****   }
 541:../../source/src/FWlib/src/stm32f10x_can.c **** 
 542:../../source/src/FWlib/src/stm32f10x_can.c ****   if (transmit_mailbox != CAN_TxStatus_NoMailBox)
 543:../../source/src/FWlib/src/stm32f10x_can.c ****   {
 544:../../source/src/FWlib/src/stm32f10x_can.c ****     /* Set up the Id */
 545:../../source/src/FWlib/src/stm32f10x_can.c ****     CANx->sTxMailBox[transmit_mailbox].TIR &= TMIDxR_TXRQ;
 688              		.loc 1 545 0
 689 02fa D3F88041 		ldr	r4, [r3, #384]
 690 02fe 04F00104 		and	r4, r4, #1
 691 0302 C3F88041 		str	r4, [r3, #384]
 546:../../source/src/FWlib/src/stm32f10x_can.c ****     if (TxMessage->IDE == CAN_Id_Standard)
 692              		.loc 1 546 0
 693 0306 0E7A     		ldrb	r6, [r1, #8]	@ zero_extendqisi2
 694 0308 4C7A     		ldrb	r4, [r1, #9]	@ zero_extendqisi2
 695 030a 4EB3     		cbz	r6, .L67
 547:../../source/src/FWlib/src/stm32f10x_can.c ****     {
 548:../../source/src/FWlib/src/stm32f10x_can.c ****       assert_param(IS_CAN_STDID(TxMessage->StdId));  
 549:../../source/src/FWlib/src/stm32f10x_can.c ****       CANx->sTxMailBox[transmit_mailbox].TIR |= ((TxMessage->StdId << 21) | \
 550:../../source/src/FWlib/src/stm32f10x_can.c ****                                                   TxMessage->RTR);
 551:../../source/src/FWlib/src/stm32f10x_can.c ****     }
 552:../../source/src/FWlib/src/stm32f10x_can.c ****     else
 553:../../source/src/FWlib/src/stm32f10x_can.c ****     {
 554:../../source/src/FWlib/src/stm32f10x_can.c ****       assert_param(IS_CAN_EXTID(TxMessage->ExtId));
 555:../../source/src/FWlib/src/stm32f10x_can.c ****       CANx->sTxMailBox[transmit_mailbox].TIR |= ((TxMessage->ExtId << 3) | \
 556:../../source/src/FWlib/src/stm32f10x_can.c ****                                                   TxMessage->IDE | \
 696              		.loc 1 556 0
 697 030c 4F68     		ldr	r7, [r1, #4]
 555:../../source/src/FWlib/src/stm32f10x_can.c ****                                                   TxMessage->IDE | \
ARM GAS  G:\Users\Jaxb\AppData\Local\Temp\cctfzRXv.s 			page 24


 698              		.loc 1 555 0
 699 030e D3F880C1 		ldr	ip, [r3, #384]
 700              		.loc 1 556 0
 701 0312 44EAC704 		orr	r4, r4, r7, lsl #3
 702 0316 3443     		orrs	r4, r4, r6
 555:../../source/src/FWlib/src/stm32f10x_can.c ****                                                   TxMessage->IDE | \
 703              		.loc 1 555 0
 704 0318 44EA0C04 		orr	r4, r4, ip
 705 031c C3F88041 		str	r4, [r3, #384]
 706              	.L62:
 557:../../source/src/FWlib/src/stm32f10x_can.c ****                                                   TxMessage->RTR);
 558:../../source/src/FWlib/src/stm32f10x_can.c ****     }
 559:../../source/src/FWlib/src/stm32f10x_can.c ****     
 560:../../source/src/FWlib/src/stm32f10x_can.c ****     /* Set up the DLC */
 561:../../source/src/FWlib/src/stm32f10x_can.c ****     TxMessage->DLC &= (uint8_t)0x0000000F;
 707              		.loc 1 561 0
 708 0320 8C7A     		ldrb	r4, [r1, #10]	@ zero_extendqisi2
 562:../../source/src/FWlib/src/stm32f10x_can.c ****     CANx->sTxMailBox[transmit_mailbox].TDTR &= (uint32_t)0xFFFFFFF0;
 563:../../source/src/FWlib/src/stm32f10x_can.c ****     CANx->sTxMailBox[transmit_mailbox].TDTR |= TxMessage->DLC;
 564:../../source/src/FWlib/src/stm32f10x_can.c **** 
 565:../../source/src/FWlib/src/stm32f10x_can.c ****     /* Set up the data field */
 566:../../source/src/FWlib/src/stm32f10x_can.c ****     CANx->sTxMailBox[transmit_mailbox].TDLR = (((uint32_t)TxMessage->Data[3] << 24) | 
 709              		.loc 1 566 0
 710 0322 2A44     		add	r2, r2, r5
 711              	.LVL35:
 561:../../source/src/FWlib/src/stm32f10x_can.c ****     CANx->sTxMailBox[transmit_mailbox].TDTR &= (uint32_t)0xFFFFFFF0;
 712              		.loc 1 561 0
 713 0324 04F00F04 		and	r4, r4, #15
 714 0328 8C72     		strb	r4, [r1, #10]
 562:../../source/src/FWlib/src/stm32f10x_can.c ****     CANx->sTxMailBox[transmit_mailbox].TDTR &= (uint32_t)0xFFFFFFF0;
 715              		.loc 1 562 0
 716 032a D3F88451 		ldr	r5, [r3, #388]
 717 032e 25F00F05 		bic	r5, r5, #15
 718 0332 C3F88451 		str	r5, [r3, #388]
 563:../../source/src/FWlib/src/stm32f10x_can.c **** 
 719              		.loc 1 563 0
 720 0336 D3F88451 		ldr	r5, [r3, #388]
 721 033a 2C43     		orrs	r4, r4, r5
 722 033c C3F88441 		str	r4, [r3, #388]
 567:../../source/src/FWlib/src/stm32f10x_can.c ****                                              ((uint32_t)TxMessage->Data[2] << 16) |
 568:../../source/src/FWlib/src/stm32f10x_can.c ****                                              ((uint32_t)TxMessage->Data[1] << 8) | 
 723              		.loc 1 568 0
 724 0340 D1F80B40 		ldr	r4, [r1, #11]	@ unaligned
 566:../../source/src/FWlib/src/stm32f10x_can.c ****                                              ((uint32_t)TxMessage->Data[2] << 16) |
 725              		.loc 1 566 0
 726 0344 C2F88841 		str	r4, [r2, #392]
 569:../../source/src/FWlib/src/stm32f10x_can.c ****                                              ((uint32_t)TxMessage->Data[0]));
 570:../../source/src/FWlib/src/stm32f10x_can.c ****     CANx->sTxMailBox[transmit_mailbox].TDHR = (((uint32_t)TxMessage->Data[7] << 24) | 
 571:../../source/src/FWlib/src/stm32f10x_can.c ****                                              ((uint32_t)TxMessage->Data[6] << 16) |
 572:../../source/src/FWlib/src/stm32f10x_can.c ****                                              ((uint32_t)TxMessage->Data[5] << 8) |
 727              		.loc 1 572 0
 728 0348 D1F80F10 		ldr	r1, [r1, #15]	@ unaligned
 729              	.LVL36:
 570:../../source/src/FWlib/src/stm32f10x_can.c ****                                              ((uint32_t)TxMessage->Data[6] << 16) |
 730              		.loc 1 570 0
 731 034c C2F88C11 		str	r1, [r2, #396]
 573:../../source/src/FWlib/src/stm32f10x_can.c ****                                              ((uint32_t)TxMessage->Data[4]));
ARM GAS  G:\Users\Jaxb\AppData\Local\Temp\cctfzRXv.s 			page 25


 574:../../source/src/FWlib/src/stm32f10x_can.c ****     /* Request transmission */
 575:../../source/src/FWlib/src/stm32f10x_can.c ****     CANx->sTxMailBox[transmit_mailbox].TIR |= TMIDxR_TXRQ;
 732              		.loc 1 575 0
 733 0350 D3F88021 		ldr	r2, [r3, #384]
 734 0354 42F00102 		orr	r2, r2, #1
 735 0358 C3F88021 		str	r2, [r3, #384]
 736              	.L60:
 576:../../source/src/FWlib/src/stm32f10x_can.c ****   }
 577:../../source/src/FWlib/src/stm32f10x_can.c ****   return transmit_mailbox;
 578:../../source/src/FWlib/src/stm32f10x_can.c **** }
 737              		.loc 1 578 0
 738 035c F0BC     		pop	{r4, r5, r6, r7}
 739              	.LCFI12:
 740              		.cfi_remember_state
 741              		.cfi_restore 7
 742              		.cfi_restore 6
 743              		.cfi_restore 5
 744              		.cfi_restore 4
 745              		.cfi_def_cfa_offset 0
 746 035e 7047     		bx	lr
 747              	.LVL37:
 748              	.L67:
 749              	.LCFI13:
 750              		.cfi_restore_state
 549:../../source/src/FWlib/src/stm32f10x_can.c ****                                                   TxMessage->RTR);
 751              		.loc 1 549 0
 752 0360 0F68     		ldr	r7, [r1]
 753 0362 D3F88061 		ldr	r6, [r3, #384]
 754 0366 44EA4754 		orr	r4, r4, r7, lsl #21
 755 036a 3443     		orrs	r4, r4, r6
 756 036c C3F88041 		str	r4, [r3, #384]
 757 0370 D6E7     		b	.L62
 758              	.L66:
 533:../../source/src/FWlib/src/stm32f10x_can.c ****   {
 759              		.loc 1 533 0
 760 0372 9368     		ldr	r3, [r2, #8]
 761 0374 DB00     		lsls	r3, r3, #3
 762 0376 02D5     		bpl	.L65
 763 0378 0225     		movs	r5, #2
 535:../../source/src/FWlib/src/stm32f10x_can.c ****   }
 764              		.loc 1 535 0
 765 037a 2846     		mov	r0, r5
 766 037c BBE7     		b	.L59
 767              	.L65:
 539:../../source/src/FWlib/src/stm32f10x_can.c ****   }
 768              		.loc 1 539 0
 769 037e 0420     		movs	r0, #4
 770 0380 ECE7     		b	.L60
 771              		.cfi_endproc
 772              	.LFE36:
 773              		.size	CAN_Transmit, .-CAN_Transmit
 774              		.align	1
 775 0382 00BF     		.p2align 2,,3
 776              		.global	CAN_TransmitStatus
 777              		.syntax unified
 778              		.thumb
 779              		.thumb_func
ARM GAS  G:\Users\Jaxb\AppData\Local\Temp\cctfzRXv.s 			page 26


 780              		.fpu softvfp
 781              		.type	CAN_TransmitStatus, %function
 782              	CAN_TransmitStatus:
 783              	.LFB37:
 579:../../source/src/FWlib/src/stm32f10x_can.c **** 
 580:../../source/src/FWlib/src/stm32f10x_can.c **** /**
 581:../../source/src/FWlib/src/stm32f10x_can.c ****   * @brief  Checks the transmission of a message.
 582:../../source/src/FWlib/src/stm32f10x_can.c ****   * @param  CANx:            where x can be 1 or 2 to to select the 
 583:../../source/src/FWlib/src/stm32f10x_can.c ****   *                          CAN peripheral.
 584:../../source/src/FWlib/src/stm32f10x_can.c ****   * @param  TransmitMailbox: the number of the mailbox that is used for 
 585:../../source/src/FWlib/src/stm32f10x_can.c ****   *                          transmission.
 586:../../source/src/FWlib/src/stm32f10x_can.c ****   * @retval CAN_TxStatus_Ok if the CAN driver transmits the message, CAN_TxStatus_Failed 
 587:../../source/src/FWlib/src/stm32f10x_can.c ****   *         in an other case.
 588:../../source/src/FWlib/src/stm32f10x_can.c ****   */
 589:../../source/src/FWlib/src/stm32f10x_can.c **** uint8_t CAN_TransmitStatus(CAN_TypeDef* CANx, uint8_t TransmitMailbox)
 590:../../source/src/FWlib/src/stm32f10x_can.c **** {
 784              		.loc 1 590 0
 785              		.cfi_startproc
 786              		@ args = 0, pretend = 0, frame = 0
 787              		@ frame_needed = 0, uses_anonymous_args = 0
 788              		@ link register save eliminated.
 789              	.LVL38:
 591:../../source/src/FWlib/src/stm32f10x_can.c ****   uint32_t state = 0;
 592:../../source/src/FWlib/src/stm32f10x_can.c **** 
 593:../../source/src/FWlib/src/stm32f10x_can.c ****   /* Check the parameters */
 594:../../source/src/FWlib/src/stm32f10x_can.c ****   assert_param(IS_CAN_ALL_PERIPH(CANx));
 595:../../source/src/FWlib/src/stm32f10x_can.c ****   assert_param(IS_CAN_TRANSMITMAILBOX(TransmitMailbox));
 596:../../source/src/FWlib/src/stm32f10x_can.c ****  
 597:../../source/src/FWlib/src/stm32f10x_can.c ****   switch (TransmitMailbox)
 790              		.loc 1 597 0
 791 0384 0129     		cmp	r1, #1
 792 0386 1BD0     		beq	.L70
 793 0388 16D3     		bcc	.L71
 794 038a 0229     		cmp	r1, #2
 795 038c 10D1     		bne	.L79
 598:../../source/src/FWlib/src/stm32f10x_can.c ****   {
 599:../../source/src/FWlib/src/stm32f10x_can.c ****     case (CAN_TXMAILBOX_0): 
 600:../../source/src/FWlib/src/stm32f10x_can.c ****       state =   CANx->TSR &  (CAN_TSR_RQCP0 | CAN_TSR_TXOK0 | CAN_TSR_TME0);
 601:../../source/src/FWlib/src/stm32f10x_can.c ****       break;
 602:../../source/src/FWlib/src/stm32f10x_can.c ****     case (CAN_TXMAILBOX_1): 
 603:../../source/src/FWlib/src/stm32f10x_can.c ****       state =   CANx->TSR &  (CAN_TSR_RQCP1 | CAN_TSR_TXOK1 | CAN_TSR_TME1);
 604:../../source/src/FWlib/src/stm32f10x_can.c ****       break;
 605:../../source/src/FWlib/src/stm32f10x_can.c ****     case (CAN_TXMAILBOX_2): 
 606:../../source/src/FWlib/src/stm32f10x_can.c ****       state =   CANx->TSR &  (CAN_TSR_RQCP2 | CAN_TSR_TXOK2 | CAN_TSR_TME2);
 796              		.loc 1 606 0
 797 038e 8368     		ldr	r3, [r0, #8]
 798 0390 0D4A     		ldr	r2, .L81
 799 0392 1340     		ands	r3, r3, r2
 800              	.LVL39:
 801              	.L73:
 607:../../source/src/FWlib/src/stm32f10x_can.c ****       break;
 608:../../source/src/FWlib/src/stm32f10x_can.c ****     default:
 609:../../source/src/FWlib/src/stm32f10x_can.c ****       state = CAN_TxStatus_Failed;
 610:../../source/src/FWlib/src/stm32f10x_can.c ****       break;
 611:../../source/src/FWlib/src/stm32f10x_can.c ****   }
 612:../../source/src/FWlib/src/stm32f10x_can.c ****   switch (state)
 802              		.loc 1 612 0
ARM GAS  G:\Users\Jaxb\AppData\Local\Temp\cctfzRXv.s 			page 27


 803 0394 0D4A     		ldr	r2, .L81+4
 804 0396 9342     		cmp	r3, r2
 805 0398 0CD0     		beq	.L74
 806 039a 07D9     		bls	.L80
 807 039c 0C4A     		ldr	r2, .L81+8
 808 039e 9342     		cmp	r3, r2
 809 03a0 08D0     		beq	.L74
 810 03a2 094A     		ldr	r2, .L81
 811 03a4 9342     		cmp	r3, r2
 812 03a6 05D0     		beq	.L74
 813              	.L78:
 814 03a8 0020     		movs	r0, #0
 815              	.LVL40:
 613:../../source/src/FWlib/src/stm32f10x_can.c ****   {
 614:../../source/src/FWlib/src/stm32f10x_can.c ****       /* transmit pending  */
 615:../../source/src/FWlib/src/stm32f10x_can.c ****     case (0x0): state = CAN_TxStatus_Pending;
 616:../../source/src/FWlib/src/stm32f10x_can.c ****       break;
 617:../../source/src/FWlib/src/stm32f10x_can.c ****       /* transmit failed  */
 618:../../source/src/FWlib/src/stm32f10x_can.c ****      case (CAN_TSR_RQCP0 | CAN_TSR_TME0): state = CAN_TxStatus_Failed;
 619:../../source/src/FWlib/src/stm32f10x_can.c ****       break;
 620:../../source/src/FWlib/src/stm32f10x_can.c ****      case (CAN_TSR_RQCP1 | CAN_TSR_TME1): state = CAN_TxStatus_Failed;
 621:../../source/src/FWlib/src/stm32f10x_can.c ****       break;
 622:../../source/src/FWlib/src/stm32f10x_can.c ****      case (CAN_TSR_RQCP2 | CAN_TSR_TME2): state = CAN_TxStatus_Failed;
 623:../../source/src/FWlib/src/stm32f10x_can.c ****       break;
 624:../../source/src/FWlib/src/stm32f10x_can.c ****       /* transmit succeeded  */
 625:../../source/src/FWlib/src/stm32f10x_can.c ****     case (CAN_TSR_RQCP0 | CAN_TSR_TXOK0 | CAN_TSR_TME0):state = CAN_TxStatus_Ok;
 626:../../source/src/FWlib/src/stm32f10x_can.c ****       break;
 627:../../source/src/FWlib/src/stm32f10x_can.c ****     case (CAN_TSR_RQCP1 | CAN_TSR_TXOK1 | CAN_TSR_TME1):state = CAN_TxStatus_Ok;
 628:../../source/src/FWlib/src/stm32f10x_can.c ****       break;
 629:../../source/src/FWlib/src/stm32f10x_can.c ****     case (CAN_TSR_RQCP2 | CAN_TSR_TXOK2 | CAN_TSR_TME2):state = CAN_TxStatus_Ok;
 630:../../source/src/FWlib/src/stm32f10x_can.c ****       break;
 631:../../source/src/FWlib/src/stm32f10x_can.c ****     default: state = CAN_TxStatus_Failed;
 632:../../source/src/FWlib/src/stm32f10x_can.c ****       break;
 633:../../source/src/FWlib/src/stm32f10x_can.c ****   }
 634:../../source/src/FWlib/src/stm32f10x_can.c ****   return (uint8_t) state;
 635:../../source/src/FWlib/src/stm32f10x_can.c **** }
 816              		.loc 1 635 0
 817 03aa 7047     		bx	lr
 818              	.LVL41:
 819              	.L80:
 612:../../source/src/FWlib/src/stm32f10x_can.c ****   {
 820              		.loc 1 612 0
 821 03ac 002B     		cmp	r3, #0
 822 03ae FBD1     		bne	.L78
 823              	.LVL42:
 824              	.L79:
 597:../../source/src/FWlib/src/stm32f10x_can.c ****   {
 825              		.loc 1 597 0
 826 03b0 0220     		movs	r0, #2
 827              	.LVL43:
 828 03b2 7047     		bx	lr
 829              	.LVL44:
 830              	.L74:
 612:../../source/src/FWlib/src/stm32f10x_can.c ****   {
 831              		.loc 1 612 0
 832 03b4 0120     		movs	r0, #1
 833              	.LVL45:
ARM GAS  G:\Users\Jaxb\AppData\Local\Temp\cctfzRXv.s 			page 28


 834 03b6 7047     		bx	lr
 835              	.LVL46:
 836              	.L71:
 600:../../source/src/FWlib/src/stm32f10x_can.c ****       break;
 837              		.loc 1 600 0
 838 03b8 8368     		ldr	r3, [r0, #8]
 839 03ba 044A     		ldr	r2, .L81+4
 840 03bc 1340     		ands	r3, r3, r2
 841              	.LVL47:
 601:../../source/src/FWlib/src/stm32f10x_can.c ****     case (CAN_TXMAILBOX_1): 
 842              		.loc 1 601 0
 843 03be E9E7     		b	.L73
 844              	.LVL48:
 845              	.L70:
 603:../../source/src/FWlib/src/stm32f10x_can.c ****       break;
 846              		.loc 1 603 0
 847 03c0 8268     		ldr	r2, [r0, #8]
 848 03c2 034B     		ldr	r3, .L81+8
 849 03c4 1340     		ands	r3, r3, r2
 850              	.LVL49:
 604:../../source/src/FWlib/src/stm32f10x_can.c ****     case (CAN_TXMAILBOX_2): 
 851              		.loc 1 604 0
 852 03c6 E5E7     		b	.L73
 853              	.L82:
 854              		.align	2
 855              	.L81:
 856 03c8 00000310 		.word	268632064
 857 03cc 03000004 		.word	67108867
 858 03d0 00030008 		.word	134218496
 859              		.cfi_endproc
 860              	.LFE37:
 861              		.size	CAN_TransmitStatus, .-CAN_TransmitStatus
 862              		.align	1
 863              		.p2align 2,,3
 864              		.global	CAN_CancelTransmit
 865              		.syntax unified
 866              		.thumb
 867              		.thumb_func
 868              		.fpu softvfp
 869              		.type	CAN_CancelTransmit, %function
 870              	CAN_CancelTransmit:
 871              	.LFB38:
 636:../../source/src/FWlib/src/stm32f10x_can.c **** 
 637:../../source/src/FWlib/src/stm32f10x_can.c **** /**
 638:../../source/src/FWlib/src/stm32f10x_can.c ****   * @brief  Cancels a transmit request.
 639:../../source/src/FWlib/src/stm32f10x_can.c ****   * @param  CANx:     where x can be 1 or 2 to to select the CAN peripheral. 
 640:../../source/src/FWlib/src/stm32f10x_can.c ****   * @param  Mailbox:  Mailbox number.
 641:../../source/src/FWlib/src/stm32f10x_can.c ****   * @retval None.
 642:../../source/src/FWlib/src/stm32f10x_can.c ****   */
 643:../../source/src/FWlib/src/stm32f10x_can.c **** void CAN_CancelTransmit(CAN_TypeDef* CANx, uint8_t Mailbox)
 644:../../source/src/FWlib/src/stm32f10x_can.c **** {
 872              		.loc 1 644 0
 873              		.cfi_startproc
 874              		@ args = 0, pretend = 0, frame = 0
 875              		@ frame_needed = 0, uses_anonymous_args = 0
 876              		@ link register save eliminated.
 877              	.LVL50:
ARM GAS  G:\Users\Jaxb\AppData\Local\Temp\cctfzRXv.s 			page 29


 645:../../source/src/FWlib/src/stm32f10x_can.c ****   /* Check the parameters */
 646:../../source/src/FWlib/src/stm32f10x_can.c ****   assert_param(IS_CAN_ALL_PERIPH(CANx));
 647:../../source/src/FWlib/src/stm32f10x_can.c ****   assert_param(IS_CAN_TRANSMITMAILBOX(Mailbox));
 648:../../source/src/FWlib/src/stm32f10x_can.c ****   /* abort transmission */
 649:../../source/src/FWlib/src/stm32f10x_can.c ****   switch (Mailbox)
 878              		.loc 1 649 0
 879 03d4 0129     		cmp	r1, #1
 880 03d6 0DD0     		beq	.L85
 881 03d8 07D3     		bcc	.L86
 882 03da 0229     		cmp	r1, #2
 883 03dc 04D1     		bne	.L88
 650:../../source/src/FWlib/src/stm32f10x_can.c ****   {
 651:../../source/src/FWlib/src/stm32f10x_can.c ****     case (CAN_TXMAILBOX_0): CANx->TSR |= CAN_TSR_ABRQ0;
 652:../../source/src/FWlib/src/stm32f10x_can.c ****       break;
 653:../../source/src/FWlib/src/stm32f10x_can.c ****     case (CAN_TXMAILBOX_1): CANx->TSR |= CAN_TSR_ABRQ1;
 654:../../source/src/FWlib/src/stm32f10x_can.c ****       break;
 655:../../source/src/FWlib/src/stm32f10x_can.c ****     case (CAN_TXMAILBOX_2): CANx->TSR |= CAN_TSR_ABRQ2;
 884              		.loc 1 655 0
 885 03de 8368     		ldr	r3, [r0, #8]
 886 03e0 43F40003 		orr	r3, r3, #8388608
 887 03e4 8360     		str	r3, [r0, #8]
 656:../../source/src/FWlib/src/stm32f10x_can.c ****       break;
 657:../../source/src/FWlib/src/stm32f10x_can.c ****     default:
 658:../../source/src/FWlib/src/stm32f10x_can.c ****       break;
 659:../../source/src/FWlib/src/stm32f10x_can.c ****   }
 660:../../source/src/FWlib/src/stm32f10x_can.c **** }
 888              		.loc 1 660 0
 889 03e6 7047     		bx	lr
 890              	.L88:
 891 03e8 7047     		bx	lr
 892              	.L86:
 651:../../source/src/FWlib/src/stm32f10x_can.c ****       break;
 893              		.loc 1 651 0
 894 03ea 8368     		ldr	r3, [r0, #8]
 895 03ec 43F08003 		orr	r3, r3, #128
 896 03f0 8360     		str	r3, [r0, #8]
 652:../../source/src/FWlib/src/stm32f10x_can.c ****     case (CAN_TXMAILBOX_1): CANx->TSR |= CAN_TSR_ABRQ1;
 897              		.loc 1 652 0
 898 03f2 7047     		bx	lr
 899              	.L85:
 653:../../source/src/FWlib/src/stm32f10x_can.c ****       break;
 900              		.loc 1 653 0
 901 03f4 8368     		ldr	r3, [r0, #8]
 902 03f6 43F40043 		orr	r3, r3, #32768
 903 03fa 8360     		str	r3, [r0, #8]
 654:../../source/src/FWlib/src/stm32f10x_can.c ****     case (CAN_TXMAILBOX_2): CANx->TSR |= CAN_TSR_ABRQ2;
 904              		.loc 1 654 0
 905 03fc 7047     		bx	lr
 906              		.cfi_endproc
 907              	.LFE38:
 908              		.size	CAN_CancelTransmit, .-CAN_CancelTransmit
 909              		.align	1
 910 03fe 00BF     		.p2align 2,,3
 911              		.global	CAN_Receive
 912              		.syntax unified
 913              		.thumb
 914              		.thumb_func
ARM GAS  G:\Users\Jaxb\AppData\Local\Temp\cctfzRXv.s 			page 30


 915              		.fpu softvfp
 916              		.type	CAN_Receive, %function
 917              	CAN_Receive:
 918              	.LFB39:
 661:../../source/src/FWlib/src/stm32f10x_can.c **** 
 662:../../source/src/FWlib/src/stm32f10x_can.c **** 
 663:../../source/src/FWlib/src/stm32f10x_can.c **** /**
 664:../../source/src/FWlib/src/stm32f10x_can.c ****   * @brief  Receives a message.
 665:../../source/src/FWlib/src/stm32f10x_can.c ****   * @param  CANx:       where x can be 1 or 2 to to select the CAN peripheral.
 666:../../source/src/FWlib/src/stm32f10x_can.c ****   * @param  FIFONumber: Receive FIFO number, CAN_FIFO0 or CAN_FIFO1.
 667:../../source/src/FWlib/src/stm32f10x_can.c ****   * @param  RxMessage:  pointer to a structure receive message which contains 
 668:../../source/src/FWlib/src/stm32f10x_can.c ****   *                     CAN Id, CAN DLC, CAN datas and FMI number.
 669:../../source/src/FWlib/src/stm32f10x_can.c ****   * @retval None.
 670:../../source/src/FWlib/src/stm32f10x_can.c ****   */
 671:../../source/src/FWlib/src/stm32f10x_can.c **** void CAN_Receive(CAN_TypeDef* CANx, uint8_t FIFONumber, CanRxMsg* RxMessage)
 672:../../source/src/FWlib/src/stm32f10x_can.c **** {
 919              		.loc 1 672 0
 920              		.cfi_startproc
 921              		@ args = 0, pretend = 0, frame = 0
 922              		@ frame_needed = 0, uses_anonymous_args = 0
 923              		@ link register save eliminated.
 924              	.LVL51:
 925 0400 0B01     		lsls	r3, r1, #4
 926 0402 30B4     		push	{r4, r5}
 927              	.LCFI14:
 928              		.cfi_def_cfa_offset 8
 929              		.cfi_offset 4, -8
 930              		.cfi_offset 5, -4
 931 0404 C418     		adds	r4, r0, r3
 673:../../source/src/FWlib/src/stm32f10x_can.c ****   /* Check the parameters */
 674:../../source/src/FWlib/src/stm32f10x_can.c ****   assert_param(IS_CAN_ALL_PERIPH(CANx));
 675:../../source/src/FWlib/src/stm32f10x_can.c ****   assert_param(IS_CAN_FIFO(FIFONumber));
 676:../../source/src/FWlib/src/stm32f10x_can.c ****   /* Get the Id */
 677:../../source/src/FWlib/src/stm32f10x_can.c ****   RxMessage->IDE = (uint8_t)0x04 & CANx->sFIFOMailBox[FIFONumber].RIR;
 932              		.loc 1 677 0
 933 0406 D4F8B051 		ldr	r5, [r4, #432]
 934 040a 05F00405 		and	r5, r5, #4
 935 040e 1572     		strb	r5, [r2, #8]
 678:../../source/src/FWlib/src/stm32f10x_can.c ****   if (RxMessage->IDE == CAN_Id_Standard)
 936              		.loc 1 678 0
 937 0410 BDBB     		cbnz	r5, .L90
 679:../../source/src/FWlib/src/stm32f10x_can.c ****   {
 680:../../source/src/FWlib/src/stm32f10x_can.c ****     RxMessage->StdId = (uint32_t)0x000007FF & (CANx->sFIFOMailBox[FIFONumber].RIR >> 21);
 938              		.loc 1 680 0
 939 0412 D4F8B051 		ldr	r5, [r4, #432]
 940 0416 6D0D     		lsrs	r5, r5, #21
 941 0418 1560     		str	r5, [r2]
 942              	.L91:
 681:../../source/src/FWlib/src/stm32f10x_can.c ****   }
 682:../../source/src/FWlib/src/stm32f10x_can.c ****   else
 683:../../source/src/FWlib/src/stm32f10x_can.c ****   {
 684:../../source/src/FWlib/src/stm32f10x_can.c ****     RxMessage->ExtId = (uint32_t)0x1FFFFFFF & (CANx->sFIFOMailBox[FIFONumber].RIR >> 3);
 685:../../source/src/FWlib/src/stm32f10x_can.c ****   }
 686:../../source/src/FWlib/src/stm32f10x_can.c ****   
 687:../../source/src/FWlib/src/stm32f10x_can.c ****   RxMessage->RTR = (uint8_t)0x02 & CANx->sFIFOMailBox[FIFONumber].RIR;
 943              		.loc 1 687 0
 944 041a D4F8B051 		ldr	r5, [r4, #432]
ARM GAS  G:\Users\Jaxb\AppData\Local\Temp\cctfzRXv.s 			page 31


 688:../../source/src/FWlib/src/stm32f10x_can.c ****   /* Get the DLC */
 689:../../source/src/FWlib/src/stm32f10x_can.c ****   RxMessage->DLC = (uint8_t)0x0F & CANx->sFIFOMailBox[FIFONumber].RDTR;
 690:../../source/src/FWlib/src/stm32f10x_can.c ****   /* Get the FMI */
 691:../../source/src/FWlib/src/stm32f10x_can.c ****   RxMessage->FMI = (uint8_t)0xFF & (CANx->sFIFOMailBox[FIFONumber].RDTR >> 8);
 692:../../source/src/FWlib/src/stm32f10x_can.c ****   /* Get the data field */
 693:../../source/src/FWlib/src/stm32f10x_can.c ****   RxMessage->Data[0] = (uint8_t)0xFF & CANx->sFIFOMailBox[FIFONumber].RDLR;
 945              		.loc 1 693 0
 946 041e 0344     		add	r3, r3, r0
 687:../../source/src/FWlib/src/stm32f10x_can.c ****   /* Get the DLC */
 947              		.loc 1 687 0
 948 0420 05F00205 		and	r5, r5, #2
 949 0424 5572     		strb	r5, [r2, #9]
 689:../../source/src/FWlib/src/stm32f10x_can.c ****   /* Get the FMI */
 950              		.loc 1 689 0
 951 0426 D4F8B451 		ldr	r5, [r4, #436]
 952 042a 05F00F05 		and	r5, r5, #15
 953 042e 9572     		strb	r5, [r2, #10]
 691:../../source/src/FWlib/src/stm32f10x_can.c ****   /* Get the data field */
 954              		.loc 1 691 0
 955 0430 D4F8B441 		ldr	r4, [r4, #436]
 956 0434 240A     		lsrs	r4, r4, #8
 957 0436 D474     		strb	r4, [r2, #19]
 958              		.loc 1 693 0
 959 0438 D3F8B841 		ldr	r4, [r3, #440]
 960 043c D472     		strb	r4, [r2, #11]
 694:../../source/src/FWlib/src/stm32f10x_can.c ****   RxMessage->Data[1] = (uint8_t)0xFF & (CANx->sFIFOMailBox[FIFONumber].RDLR >> 8);
 961              		.loc 1 694 0
 962 043e D3F8B841 		ldr	r4, [r3, #440]
 963 0442 240A     		lsrs	r4, r4, #8
 964 0444 1473     		strb	r4, [r2, #12]
 695:../../source/src/FWlib/src/stm32f10x_can.c ****   RxMessage->Data[2] = (uint8_t)0xFF & (CANx->sFIFOMailBox[FIFONumber].RDLR >> 16);
 965              		.loc 1 695 0
 966 0446 D3F8B841 		ldr	r4, [r3, #440]
 967 044a 240C     		lsrs	r4, r4, #16
 968 044c 5473     		strb	r4, [r2, #13]
 696:../../source/src/FWlib/src/stm32f10x_can.c ****   RxMessage->Data[3] = (uint8_t)0xFF & (CANx->sFIFOMailBox[FIFONumber].RDLR >> 24);
 969              		.loc 1 696 0
 970 044e D3F8B841 		ldr	r4, [r3, #440]
 971 0452 240E     		lsrs	r4, r4, #24
 972 0454 9473     		strb	r4, [r2, #14]
 697:../../source/src/FWlib/src/stm32f10x_can.c ****   RxMessage->Data[4] = (uint8_t)0xFF & CANx->sFIFOMailBox[FIFONumber].RDHR;
 973              		.loc 1 697 0
 974 0456 D3F8BC41 		ldr	r4, [r3, #444]
 975 045a D473     		strb	r4, [r2, #15]
 698:../../source/src/FWlib/src/stm32f10x_can.c ****   RxMessage->Data[5] = (uint8_t)0xFF & (CANx->sFIFOMailBox[FIFONumber].RDHR >> 8);
 976              		.loc 1 698 0
 977 045c D3F8BC41 		ldr	r4, [r3, #444]
 978 0460 240A     		lsrs	r4, r4, #8
 979 0462 1474     		strb	r4, [r2, #16]
 699:../../source/src/FWlib/src/stm32f10x_can.c ****   RxMessage->Data[6] = (uint8_t)0xFF & (CANx->sFIFOMailBox[FIFONumber].RDHR >> 16);
 980              		.loc 1 699 0
 981 0464 D3F8BC41 		ldr	r4, [r3, #444]
 982 0468 240C     		lsrs	r4, r4, #16
 983 046a 5474     		strb	r4, [r2, #17]
 700:../../source/src/FWlib/src/stm32f10x_can.c ****   RxMessage->Data[7] = (uint8_t)0xFF & (CANx->sFIFOMailBox[FIFONumber].RDHR >> 24);
 984              		.loc 1 700 0
 985 046c D3F8BC31 		ldr	r3, [r3, #444]
ARM GAS  G:\Users\Jaxb\AppData\Local\Temp\cctfzRXv.s 			page 32


 986 0470 1B0E     		lsrs	r3, r3, #24
 987 0472 9374     		strb	r3, [r2, #18]
 701:../../source/src/FWlib/src/stm32f10x_can.c ****   /* Release the FIFO */
 702:../../source/src/FWlib/src/stm32f10x_can.c ****   /* Release FIFO0 */
 703:../../source/src/FWlib/src/stm32f10x_can.c ****   if (FIFONumber == CAN_FIFO0)
 988              		.loc 1 703 0
 989 0474 51B1     		cbz	r1, .L94
 704:../../source/src/FWlib/src/stm32f10x_can.c ****   {
 705:../../source/src/FWlib/src/stm32f10x_can.c ****     CANx->RF0R |= CAN_RF0R_RFOM0;
 706:../../source/src/FWlib/src/stm32f10x_can.c ****   }
 707:../../source/src/FWlib/src/stm32f10x_can.c ****   /* Release FIFO1 */
 708:../../source/src/FWlib/src/stm32f10x_can.c ****   else /* FIFONumber == CAN_FIFO1 */
 709:../../source/src/FWlib/src/stm32f10x_can.c ****   {
 710:../../source/src/FWlib/src/stm32f10x_can.c ****     CANx->RF1R |= CAN_RF1R_RFOM1;
 711:../../source/src/FWlib/src/stm32f10x_can.c ****   }
 712:../../source/src/FWlib/src/stm32f10x_can.c **** }
 990              		.loc 1 712 0
 991 0476 30BC     		pop	{r4, r5}
 992              	.LCFI15:
 993              		.cfi_remember_state
 994              		.cfi_restore 5
 995              		.cfi_restore 4
 996              		.cfi_def_cfa_offset 0
 710:../../source/src/FWlib/src/stm32f10x_can.c ****   }
 997              		.loc 1 710 0
 998 0478 0369     		ldr	r3, [r0, #16]
 999 047a 43F02003 		orr	r3, r3, #32
 1000 047e 0361     		str	r3, [r0, #16]
 1001              		.loc 1 712 0
 1002 0480 7047     		bx	lr
 1003              	.L90:
 1004              	.LCFI16:
 1005              		.cfi_restore_state
 684:../../source/src/FWlib/src/stm32f10x_can.c ****   }
 1006              		.loc 1 684 0
 1007 0482 D4F8B051 		ldr	r5, [r4, #432]
 1008 0486 ED08     		lsrs	r5, r5, #3
 1009 0488 5560     		str	r5, [r2, #4]
 1010 048a C6E7     		b	.L91
 1011              	.L94:
 705:../../source/src/FWlib/src/stm32f10x_can.c ****   }
 1012              		.loc 1 705 0
 1013 048c C368     		ldr	r3, [r0, #12]
 1014              		.loc 1 712 0
 1015 048e 30BC     		pop	{r4, r5}
 1016              	.LCFI17:
 1017              		.cfi_restore 5
 1018              		.cfi_restore 4
 1019              		.cfi_def_cfa_offset 0
 705:../../source/src/FWlib/src/stm32f10x_can.c ****   }
 1020              		.loc 1 705 0
 1021 0490 43F02003 		orr	r3, r3, #32
 1022 0494 C360     		str	r3, [r0, #12]
 1023              		.loc 1 712 0
 1024 0496 7047     		bx	lr
 1025              		.cfi_endproc
 1026              	.LFE39:
ARM GAS  G:\Users\Jaxb\AppData\Local\Temp\cctfzRXv.s 			page 33


 1027              		.size	CAN_Receive, .-CAN_Receive
 1028              		.align	1
 1029              		.p2align 2,,3
 1030              		.global	CAN_FIFORelease
 1031              		.syntax unified
 1032              		.thumb
 1033              		.thumb_func
 1034              		.fpu softvfp
 1035              		.type	CAN_FIFORelease, %function
 1036              	CAN_FIFORelease:
 1037              	.LFB40:
 713:../../source/src/FWlib/src/stm32f10x_can.c **** 
 714:../../source/src/FWlib/src/stm32f10x_can.c **** /**
 715:../../source/src/FWlib/src/stm32f10x_can.c ****   * @brief  Releases the specified FIFO.
 716:../../source/src/FWlib/src/stm32f10x_can.c ****   * @param  CANx:       where x can be 1 or 2 to to select the CAN peripheral. 
 717:../../source/src/FWlib/src/stm32f10x_can.c ****   * @param  FIFONumber: FIFO to release, CAN_FIFO0 or CAN_FIFO1.
 718:../../source/src/FWlib/src/stm32f10x_can.c ****   * @retval None.
 719:../../source/src/FWlib/src/stm32f10x_can.c ****   */
 720:../../source/src/FWlib/src/stm32f10x_can.c **** void CAN_FIFORelease(CAN_TypeDef* CANx, uint8_t FIFONumber)
 721:../../source/src/FWlib/src/stm32f10x_can.c **** {
 1038              		.loc 1 721 0
 1039              		.cfi_startproc
 1040              		@ args = 0, pretend = 0, frame = 0
 1041              		@ frame_needed = 0, uses_anonymous_args = 0
 1042              		@ link register save eliminated.
 1043              	.LVL52:
 722:../../source/src/FWlib/src/stm32f10x_can.c ****   /* Check the parameters */
 723:../../source/src/FWlib/src/stm32f10x_can.c ****   assert_param(IS_CAN_ALL_PERIPH(CANx));
 724:../../source/src/FWlib/src/stm32f10x_can.c ****   assert_param(IS_CAN_FIFO(FIFONumber));
 725:../../source/src/FWlib/src/stm32f10x_can.c ****   /* Release FIFO0 */
 726:../../source/src/FWlib/src/stm32f10x_can.c ****   if (FIFONumber == CAN_FIFO0)
 1044              		.loc 1 726 0
 1045 0498 21B1     		cbz	r1, .L98
 727:../../source/src/FWlib/src/stm32f10x_can.c ****   {
 728:../../source/src/FWlib/src/stm32f10x_can.c ****     CANx->RF0R |= CAN_RF0R_RFOM0;
 729:../../source/src/FWlib/src/stm32f10x_can.c ****   }
 730:../../source/src/FWlib/src/stm32f10x_can.c ****   /* Release FIFO1 */
 731:../../source/src/FWlib/src/stm32f10x_can.c ****   else /* FIFONumber == CAN_FIFO1 */
 732:../../source/src/FWlib/src/stm32f10x_can.c ****   {
 733:../../source/src/FWlib/src/stm32f10x_can.c ****     CANx->RF1R |= CAN_RF1R_RFOM1;
 1046              		.loc 1 733 0
 1047 049a 0369     		ldr	r3, [r0, #16]
 1048 049c 43F02003 		orr	r3, r3, #32
 1049 04a0 0361     		str	r3, [r0, #16]
 734:../../source/src/FWlib/src/stm32f10x_can.c ****   }
 735:../../source/src/FWlib/src/stm32f10x_can.c **** }
 1050              		.loc 1 735 0
 1051 04a2 7047     		bx	lr
 1052              	.L98:
 728:../../source/src/FWlib/src/stm32f10x_can.c ****   }
 1053              		.loc 1 728 0
 1054 04a4 C368     		ldr	r3, [r0, #12]
 1055 04a6 43F02003 		orr	r3, r3, #32
 1056 04aa C360     		str	r3, [r0, #12]
 1057 04ac 7047     		bx	lr
 1058              		.cfi_endproc
 1059              	.LFE40:
ARM GAS  G:\Users\Jaxb\AppData\Local\Temp\cctfzRXv.s 			page 34


 1060              		.size	CAN_FIFORelease, .-CAN_FIFORelease
 1061              		.align	1
 1062 04ae 00BF     		.p2align 2,,3
 1063              		.global	CAN_MessagePending
 1064              		.syntax unified
 1065              		.thumb
 1066              		.thumb_func
 1067              		.fpu softvfp
 1068              		.type	CAN_MessagePending, %function
 1069              	CAN_MessagePending:
 1070              	.LFB41:
 736:../../source/src/FWlib/src/stm32f10x_can.c **** 
 737:../../source/src/FWlib/src/stm32f10x_can.c **** /**
 738:../../source/src/FWlib/src/stm32f10x_can.c ****   * @brief  Returns the number of pending messages.
 739:../../source/src/FWlib/src/stm32f10x_can.c ****   * @param  CANx:       where x can be 1 or 2 to to select the CAN peripheral.
 740:../../source/src/FWlib/src/stm32f10x_can.c ****   * @param  FIFONumber: Receive FIFO number, CAN_FIFO0 or CAN_FIFO1.
 741:../../source/src/FWlib/src/stm32f10x_can.c ****   * @retval NbMessage : which is the number of pending message.
 742:../../source/src/FWlib/src/stm32f10x_can.c ****   */
 743:../../source/src/FWlib/src/stm32f10x_can.c **** uint8_t CAN_MessagePending(CAN_TypeDef* CANx, uint8_t FIFONumber)
 744:../../source/src/FWlib/src/stm32f10x_can.c **** {
 1071              		.loc 1 744 0
 1072              		.cfi_startproc
 1073              		@ args = 0, pretend = 0, frame = 0
 1074              		@ frame_needed = 0, uses_anonymous_args = 0
 1075              		@ link register save eliminated.
 1076              	.LVL53:
 745:../../source/src/FWlib/src/stm32f10x_can.c ****   uint8_t message_pending=0;
 746:../../source/src/FWlib/src/stm32f10x_can.c ****   /* Check the parameters */
 747:../../source/src/FWlib/src/stm32f10x_can.c ****   assert_param(IS_CAN_ALL_PERIPH(CANx));
 748:../../source/src/FWlib/src/stm32f10x_can.c ****   assert_param(IS_CAN_FIFO(FIFONumber));
 749:../../source/src/FWlib/src/stm32f10x_can.c ****   if (FIFONumber == CAN_FIFO0)
 1077              		.loc 1 749 0
 1078 04b0 31B1     		cbz	r1, .L103
 750:../../source/src/FWlib/src/stm32f10x_can.c ****   {
 751:../../source/src/FWlib/src/stm32f10x_can.c ****     message_pending = (uint8_t)(CANx->RF0R&(uint32_t)0x03);
 752:../../source/src/FWlib/src/stm32f10x_can.c ****   }
 753:../../source/src/FWlib/src/stm32f10x_can.c ****   else if (FIFONumber == CAN_FIFO1)
 1079              		.loc 1 753 0
 1080 04b2 0129     		cmp	r1, #1
 754:../../source/src/FWlib/src/stm32f10x_can.c ****   {
 755:../../source/src/FWlib/src/stm32f10x_can.c ****     message_pending = (uint8_t)(CANx->RF1R&(uint32_t)0x03);
 1081              		.loc 1 755 0
 1082 04b4 06BF     		itte	eq
 1083 04b6 0069     		ldreq	r0, [r0, #16]
 1084              	.LVL54:
 1085 04b8 00F00300 		andeq	r0, r0, #3
 1086              	.LVL55:
 756:../../source/src/FWlib/src/stm32f10x_can.c ****   }
 757:../../source/src/FWlib/src/stm32f10x_can.c ****   else
 758:../../source/src/FWlib/src/stm32f10x_can.c ****   {
 759:../../source/src/FWlib/src/stm32f10x_can.c ****     message_pending = 0;
 1087              		.loc 1 759 0
 1088 04bc 0020     		movne	r0, #0
 1089              	.LVL56:
 760:../../source/src/FWlib/src/stm32f10x_can.c ****   }
 761:../../source/src/FWlib/src/stm32f10x_can.c ****   return message_pending;
 762:../../source/src/FWlib/src/stm32f10x_can.c **** }
ARM GAS  G:\Users\Jaxb\AppData\Local\Temp\cctfzRXv.s 			page 35


 1090              		.loc 1 762 0
 1091 04be 7047     		bx	lr
 1092              	.LVL57:
 1093              	.L103:
 751:../../source/src/FWlib/src/stm32f10x_can.c ****   }
 1094              		.loc 1 751 0
 1095 04c0 C068     		ldr	r0, [r0, #12]
 1096              	.LVL58:
 1097 04c2 00F00300 		and	r0, r0, #3
 1098              	.LVL59:
 1099 04c6 7047     		bx	lr
 1100              		.cfi_endproc
 1101              	.LFE41:
 1102              		.size	CAN_MessagePending, .-CAN_MessagePending
 1103              		.align	1
 1104              		.p2align 2,,3
 1105              		.global	CAN_OperatingModeRequest
 1106              		.syntax unified
 1107              		.thumb
 1108              		.thumb_func
 1109              		.fpu softvfp
 1110              		.type	CAN_OperatingModeRequest, %function
 1111              	CAN_OperatingModeRequest:
 1112              	.LFB42:
 763:../../source/src/FWlib/src/stm32f10x_can.c **** 
 764:../../source/src/FWlib/src/stm32f10x_can.c **** 
 765:../../source/src/FWlib/src/stm32f10x_can.c **** /**
 766:../../source/src/FWlib/src/stm32f10x_can.c ****   * @brief   Select the CAN Operation mode.
 767:../../source/src/FWlib/src/stm32f10x_can.c ****   * @param CAN_OperatingMode : CAN Operating Mode. This parameter can be one 
 768:../../source/src/FWlib/src/stm32f10x_can.c ****   *                            of @ref CAN_OperatingMode_TypeDef enumeration.
 769:../../source/src/FWlib/src/stm32f10x_can.c ****   * @retval status of the requested mode which can be 
 770:../../source/src/FWlib/src/stm32f10x_can.c ****   *         - CAN_ModeStatus_Failed    CAN failed entering the specific mode 
 771:../../source/src/FWlib/src/stm32f10x_can.c ****   *         - CAN_ModeStatus_Success   CAN Succeed entering the specific mode 
 772:../../source/src/FWlib/src/stm32f10x_can.c **** 
 773:../../source/src/FWlib/src/stm32f10x_can.c ****   */
 774:../../source/src/FWlib/src/stm32f10x_can.c **** uint8_t CAN_OperatingModeRequest(CAN_TypeDef* CANx, uint8_t CAN_OperatingMode)
 775:../../source/src/FWlib/src/stm32f10x_can.c **** {
 1113              		.loc 1 775 0
 1114              		.cfi_startproc
 1115              		@ args = 0, pretend = 0, frame = 0
 1116              		@ frame_needed = 0, uses_anonymous_args = 0
 1117              		@ link register save eliminated.
 1118              	.LVL60:
 776:../../source/src/FWlib/src/stm32f10x_can.c ****   uint8_t status = CAN_ModeStatus_Failed;
 777:../../source/src/FWlib/src/stm32f10x_can.c ****   
 778:../../source/src/FWlib/src/stm32f10x_can.c ****   /* Timeout for INAK or also for SLAK bits*/
 779:../../source/src/FWlib/src/stm32f10x_can.c ****   uint32_t timeout = INAK_TIMEOUT; 
 780:../../source/src/FWlib/src/stm32f10x_can.c **** 
 781:../../source/src/FWlib/src/stm32f10x_can.c ****   /* Check the parameters */
 782:../../source/src/FWlib/src/stm32f10x_can.c ****   assert_param(IS_CAN_ALL_PERIPH(CANx));
 783:../../source/src/FWlib/src/stm32f10x_can.c ****   assert_param(IS_CAN_OPERATING_MODE(CAN_OperatingMode));
 784:../../source/src/FWlib/src/stm32f10x_can.c **** 
 785:../../source/src/FWlib/src/stm32f10x_can.c ****   if (CAN_OperatingMode == CAN_OperatingMode_Initialization)
 1119              		.loc 1 785 0
 1120 04c8 E9B9     		cbnz	r1, .L105
 786:../../source/src/FWlib/src/stm32f10x_can.c ****   {
 787:../../source/src/FWlib/src/stm32f10x_can.c ****     /* Request initialisation */
ARM GAS  G:\Users\Jaxb\AppData\Local\Temp\cctfzRXv.s 			page 36


 788:../../source/src/FWlib/src/stm32f10x_can.c ****     CANx->MCR = (uint32_t)((CANx->MCR & (uint32_t)(~(uint32_t)CAN_MCR_SLEEP)) | CAN_MCR_INRQ);
 1121              		.loc 1 788 0
 1122 04ca 0368     		ldr	r3, [r0]
 1123 04cc 23F00303 		bic	r3, r3, #3
 1124 04d0 43F00103 		orr	r3, r3, #1
 1125 04d4 0360     		str	r3, [r0]
 789:../../source/src/FWlib/src/stm32f10x_can.c **** 
 790:../../source/src/FWlib/src/stm32f10x_can.c ****     /* Wait the acknowledge */
 791:../../source/src/FWlib/src/stm32f10x_can.c ****     while (((CANx->MSR & CAN_MODE_MASK) != CAN_MSR_INAK) && (timeout != 0))
 1126              		.loc 1 791 0
 1127 04d6 4368     		ldr	r3, [r0, #4]
 1128 04d8 03F00303 		and	r3, r3, #3
 1129 04dc 012B     		cmp	r3, #1
 1130 04de 09D0     		beq	.L106
 1131 04e0 4FF6FF72 		movw	r2, #65535
 1132 04e4 01E0     		b	.L107
 1133              	.LVL61:
 1134              	.L136:
 1135              		.loc 1 791 0 is_stmt 0 discriminator 1
 1136 04e6 013A     		subs	r2, r2, #1
 1137              	.LVL62:
 1138 04e8 04D0     		beq	.L106
 1139              	.LVL63:
 1140              	.L107:
 1141              		.loc 1 791 0
 1142 04ea 4368     		ldr	r3, [r0, #4]
 1143 04ec 03F00303 		and	r3, r3, #3
 1144 04f0 012B     		cmp	r3, #1
 1145 04f2 F8D1     		bne	.L136
 1146              	.LVL64:
 1147              	.L106:
 792:../../source/src/FWlib/src/stm32f10x_can.c ****     {
 793:../../source/src/FWlib/src/stm32f10x_can.c ****       timeout--;
 794:../../source/src/FWlib/src/stm32f10x_can.c ****     }
 795:../../source/src/FWlib/src/stm32f10x_can.c ****     if ((CANx->MSR & CAN_MODE_MASK) != CAN_MSR_INAK)
 1148              		.loc 1 795 0 is_stmt 1
 1149 04f4 4068     		ldr	r0, [r0, #4]
 1150              	.LVL65:
 1151 04f6 00F00300 		and	r0, r0, #3
 796:../../source/src/FWlib/src/stm32f10x_can.c ****     {
 797:../../source/src/FWlib/src/stm32f10x_can.c ****       status = CAN_ModeStatus_Failed;
 798:../../source/src/FWlib/src/stm32f10x_can.c ****     }
 799:../../source/src/FWlib/src/stm32f10x_can.c ****     else
 800:../../source/src/FWlib/src/stm32f10x_can.c ****     {
 801:../../source/src/FWlib/src/stm32f10x_can.c ****       status = CAN_ModeStatus_Success;
 1152              		.loc 1 801 0
 1153 04fa A0F10100 		sub	r0, #1
 1154 04fe B0FA80F0 		clz	r0, r0
 1155 0502 4009     		lsrs	r0, r0, #5
 1156 0504 7047     		bx	lr
 1157              	.LVL66:
 1158              	.L105:
 802:../../source/src/FWlib/src/stm32f10x_can.c ****     }
 803:../../source/src/FWlib/src/stm32f10x_can.c ****   }
 804:../../source/src/FWlib/src/stm32f10x_can.c ****   else  if (CAN_OperatingMode == CAN_OperatingMode_Normal)
 1159              		.loc 1 804 0
 1160 0506 0129     		cmp	r1, #1
ARM GAS  G:\Users\Jaxb\AppData\Local\Temp\cctfzRXv.s 			page 37


 1161 0508 03D0     		beq	.L137
 805:../../source/src/FWlib/src/stm32f10x_can.c ****   {
 806:../../source/src/FWlib/src/stm32f10x_can.c ****     /* Request leave initialisation and sleep mode  and enter Normal mode */
 807:../../source/src/FWlib/src/stm32f10x_can.c ****     CANx->MCR &= (uint32_t)(~(CAN_MCR_SLEEP|CAN_MCR_INRQ));
 808:../../source/src/FWlib/src/stm32f10x_can.c **** 
 809:../../source/src/FWlib/src/stm32f10x_can.c ****     /* Wait the acknowledge */
 810:../../source/src/FWlib/src/stm32f10x_can.c ****     while (((CANx->MSR & CAN_MODE_MASK) != 0) && (timeout!=0))
 811:../../source/src/FWlib/src/stm32f10x_can.c ****     {
 812:../../source/src/FWlib/src/stm32f10x_can.c ****       timeout--;
 813:../../source/src/FWlib/src/stm32f10x_can.c ****     }
 814:../../source/src/FWlib/src/stm32f10x_can.c ****     if ((CANx->MSR & CAN_MODE_MASK) != 0)
 815:../../source/src/FWlib/src/stm32f10x_can.c ****     {
 816:../../source/src/FWlib/src/stm32f10x_can.c ****       status = CAN_ModeStatus_Failed;
 817:../../source/src/FWlib/src/stm32f10x_can.c ****     }
 818:../../source/src/FWlib/src/stm32f10x_can.c ****     else
 819:../../source/src/FWlib/src/stm32f10x_can.c ****     {
 820:../../source/src/FWlib/src/stm32f10x_can.c ****       status = CAN_ModeStatus_Success;
 821:../../source/src/FWlib/src/stm32f10x_can.c ****     }
 822:../../source/src/FWlib/src/stm32f10x_can.c ****   }
 823:../../source/src/FWlib/src/stm32f10x_can.c ****   else  if (CAN_OperatingMode == CAN_OperatingMode_Sleep)
 1162              		.loc 1 823 0
 1163 050a 0229     		cmp	r1, #2
 1164 050c 17D0     		beq	.L138
 824:../../source/src/FWlib/src/stm32f10x_can.c ****   {
 825:../../source/src/FWlib/src/stm32f10x_can.c ****     /* Request Sleep mode */
 826:../../source/src/FWlib/src/stm32f10x_can.c ****     CANx->MCR = (uint32_t)((CANx->MCR & (uint32_t)(~(uint32_t)CAN_MCR_INRQ)) | CAN_MCR_SLEEP);
 827:../../source/src/FWlib/src/stm32f10x_can.c **** 
 828:../../source/src/FWlib/src/stm32f10x_can.c ****     /* Wait the acknowledge */
 829:../../source/src/FWlib/src/stm32f10x_can.c ****     while (((CANx->MSR & CAN_MODE_MASK) != CAN_MSR_SLAK) && (timeout!=0))
 830:../../source/src/FWlib/src/stm32f10x_can.c ****     {
 831:../../source/src/FWlib/src/stm32f10x_can.c ****       timeout--;
 832:../../source/src/FWlib/src/stm32f10x_can.c ****     }
 833:../../source/src/FWlib/src/stm32f10x_can.c ****     if ((CANx->MSR & CAN_MODE_MASK) != CAN_MSR_SLAK)
 834:../../source/src/FWlib/src/stm32f10x_can.c ****     {
 835:../../source/src/FWlib/src/stm32f10x_can.c ****       status = CAN_ModeStatus_Failed;
 836:../../source/src/FWlib/src/stm32f10x_can.c ****     }
 837:../../source/src/FWlib/src/stm32f10x_can.c ****     else
 838:../../source/src/FWlib/src/stm32f10x_can.c ****     {
 839:../../source/src/FWlib/src/stm32f10x_can.c ****       status = CAN_ModeStatus_Success;
 840:../../source/src/FWlib/src/stm32f10x_can.c ****     }
 841:../../source/src/FWlib/src/stm32f10x_can.c ****   }
 842:../../source/src/FWlib/src/stm32f10x_can.c ****   else
 843:../../source/src/FWlib/src/stm32f10x_can.c ****   {
 844:../../source/src/FWlib/src/stm32f10x_can.c ****     status = CAN_ModeStatus_Failed;
 1165              		.loc 1 844 0
 1166 050e 0020     		movs	r0, #0
 1167              	.LVL67:
 845:../../source/src/FWlib/src/stm32f10x_can.c ****   }
 846:../../source/src/FWlib/src/stm32f10x_can.c **** 
 847:../../source/src/FWlib/src/stm32f10x_can.c ****   return  (uint8_t) status;
 848:../../source/src/FWlib/src/stm32f10x_can.c **** }
 1168              		.loc 1 848 0
 1169 0510 7047     		bx	lr
 1170              	.LVL68:
 1171              	.L137:
 807:../../source/src/FWlib/src/stm32f10x_can.c **** 
 1172              		.loc 1 807 0
ARM GAS  G:\Users\Jaxb\AppData\Local\Temp\cctfzRXv.s 			page 38


 1173 0512 0368     		ldr	r3, [r0]
 1174 0514 23F00303 		bic	r3, r3, #3
 1175 0518 0360     		str	r3, [r0]
 810:../../source/src/FWlib/src/stm32f10x_can.c ****     {
 1176              		.loc 1 810 0
 1177 051a 4368     		ldr	r3, [r0, #4]
 1178 051c 9907     		lsls	r1, r3, #30
 1179              	.LVL69:
 1180 051e 07D0     		beq	.L110
 1181 0520 4FF6FF73 		movw	r3, #65535
 1182 0524 01E0     		b	.L111
 1183              	.LVL70:
 1184              	.L139:
 810:../../source/src/FWlib/src/stm32f10x_can.c ****     {
 1185              		.loc 1 810 0 is_stmt 0 discriminator 1
 1186 0526 013B     		subs	r3, r3, #1
 1187              	.LVL71:
 1188 0528 02D0     		beq	.L110
 1189              	.LVL72:
 1190              	.L111:
 810:../../source/src/FWlib/src/stm32f10x_can.c ****     {
 1191              		.loc 1 810 0
 1192 052a 4268     		ldr	r2, [r0, #4]
 1193 052c 9207     		lsls	r2, r2, #30
 1194 052e FAD1     		bne	.L139
 1195              	.LVL73:
 1196              	.L110:
 814:../../source/src/FWlib/src/stm32f10x_can.c ****     {
 1197              		.loc 1 814 0 is_stmt 1
 1198 0530 4368     		ldr	r3, [r0, #4]
 1199 0532 13F0030F 		tst	r3, #3
 801:../../source/src/FWlib/src/stm32f10x_can.c ****     }
 1200              		.loc 1 801 0
 1201 0536 0CBF     		ite	eq
 1202 0538 0120     		moveq	r0, #1
 1203              	.LVL74:
 1204 053a 0020     		movne	r0, #0
 1205 053c 7047     		bx	lr
 1206              	.LVL75:
 1207              	.L138:
 826:../../source/src/FWlib/src/stm32f10x_can.c **** 
 1208              		.loc 1 826 0
 1209 053e 0368     		ldr	r3, [r0]
 1210 0540 23F00303 		bic	r3, r3, #3
 1211 0544 43F00203 		orr	r3, r3, #2
 1212 0548 0360     		str	r3, [r0]
 829:../../source/src/FWlib/src/stm32f10x_can.c ****     {
 1213              		.loc 1 829 0
 1214 054a 4368     		ldr	r3, [r0, #4]
 1215 054c 03F00303 		and	r3, r3, #3
 1216 0550 022B     		cmp	r3, #2
 1217 0552 09D0     		beq	.L112
 1218 0554 4FF6FF72 		movw	r2, #65535
 1219 0558 01E0     		b	.L113
 1220              	.LVL76:
 1221              	.L140:
 829:../../source/src/FWlib/src/stm32f10x_can.c ****     {
ARM GAS  G:\Users\Jaxb\AppData\Local\Temp\cctfzRXv.s 			page 39


 1222              		.loc 1 829 0 is_stmt 0 discriminator 1
 1223 055a 013A     		subs	r2, r2, #1
 1224              	.LVL77:
 1225 055c 04D0     		beq	.L112
 1226              	.LVL78:
 1227              	.L113:
 829:../../source/src/FWlib/src/stm32f10x_can.c ****     {
 1228              		.loc 1 829 0
 1229 055e 4368     		ldr	r3, [r0, #4]
 1230 0560 03F00303 		and	r3, r3, #3
 1231 0564 022B     		cmp	r3, #2
 1232 0566 F8D1     		bne	.L140
 1233              	.LVL79:
 1234              	.L112:
 833:../../source/src/FWlib/src/stm32f10x_can.c ****     {
 1235              		.loc 1 833 0 is_stmt 1
 1236 0568 4068     		ldr	r0, [r0, #4]
 1237              	.LVL80:
 1238 056a 00F00300 		and	r0, r0, #3
 801:../../source/src/FWlib/src/stm32f10x_can.c ****     }
 1239              		.loc 1 801 0
 1240 056e A0F10200 		sub	r0, #2
 1241 0572 B0FA80F0 		clz	r0, r0
 1242 0576 4009     		lsrs	r0, r0, #5
 1243 0578 7047     		bx	lr
 1244              		.cfi_endproc
 1245              	.LFE42:
 1246              		.size	CAN_OperatingModeRequest, .-CAN_OperatingModeRequest
 1247              		.align	1
 1248 057a 00BF     		.p2align 2,,3
 1249              		.global	CAN_Sleep
 1250              		.syntax unified
 1251              		.thumb
 1252              		.thumb_func
 1253              		.fpu softvfp
 1254              		.type	CAN_Sleep, %function
 1255              	CAN_Sleep:
 1256              	.LFB43:
 849:../../source/src/FWlib/src/stm32f10x_can.c **** 
 850:../../source/src/FWlib/src/stm32f10x_can.c **** /**
 851:../../source/src/FWlib/src/stm32f10x_can.c ****   * @brief  Enters the low power mode.
 852:../../source/src/FWlib/src/stm32f10x_can.c ****   * @param  CANx:   where x can be 1 or 2 to to select the CAN peripheral.
 853:../../source/src/FWlib/src/stm32f10x_can.c ****   * @retval status: CAN_Sleep_Ok if sleep entered, CAN_Sleep_Failed in an 
 854:../../source/src/FWlib/src/stm32f10x_can.c ****   *                 other case.
 855:../../source/src/FWlib/src/stm32f10x_can.c ****   */
 856:../../source/src/FWlib/src/stm32f10x_can.c **** uint8_t CAN_Sleep(CAN_TypeDef* CANx)
 857:../../source/src/FWlib/src/stm32f10x_can.c **** {
 1257              		.loc 1 857 0
 1258              		.cfi_startproc
 1259              		@ args = 0, pretend = 0, frame = 0
 1260              		@ frame_needed = 0, uses_anonymous_args = 0
 1261              		@ link register save eliminated.
 1262              	.LVL81:
 858:../../source/src/FWlib/src/stm32f10x_can.c ****   uint8_t sleepstatus = CAN_Sleep_Failed;
 859:../../source/src/FWlib/src/stm32f10x_can.c ****   
 860:../../source/src/FWlib/src/stm32f10x_can.c ****   /* Check the parameters */
 861:../../source/src/FWlib/src/stm32f10x_can.c ****   assert_param(IS_CAN_ALL_PERIPH(CANx));
ARM GAS  G:\Users\Jaxb\AppData\Local\Temp\cctfzRXv.s 			page 40


 862:../../source/src/FWlib/src/stm32f10x_can.c ****     
 863:../../source/src/FWlib/src/stm32f10x_can.c ****   /* Request Sleep mode */
 864:../../source/src/FWlib/src/stm32f10x_can.c ****    CANx->MCR = (((CANx->MCR) & (uint32_t)(~(uint32_t)CAN_MCR_INRQ)) | CAN_MCR_SLEEP);
 1263              		.loc 1 864 0
 1264 057c 0368     		ldr	r3, [r0]
 1265 057e 23F00303 		bic	r3, r3, #3
 1266 0582 43F00203 		orr	r3, r3, #2
 1267 0586 0360     		str	r3, [r0]
 865:../../source/src/FWlib/src/stm32f10x_can.c ****    
 866:../../source/src/FWlib/src/stm32f10x_can.c ****   /* Sleep mode status */
 867:../../source/src/FWlib/src/stm32f10x_can.c ****   if ((CANx->MSR & (CAN_MSR_SLAK|CAN_MSR_INAK)) == CAN_MSR_SLAK)
 1268              		.loc 1 867 0
 1269 0588 4068     		ldr	r0, [r0, #4]
 1270              	.LVL82:
 1271 058a 00F00300 		and	r0, r0, #3
 1272              	.LVL83:
 868:../../source/src/FWlib/src/stm32f10x_can.c ****   {
 869:../../source/src/FWlib/src/stm32f10x_can.c ****     /* Sleep mode not entered */
 870:../../source/src/FWlib/src/stm32f10x_can.c ****     sleepstatus =  CAN_Sleep_Ok;
 871:../../source/src/FWlib/src/stm32f10x_can.c ****   }
 872:../../source/src/FWlib/src/stm32f10x_can.c ****   /* return sleep mode status */
 873:../../source/src/FWlib/src/stm32f10x_can.c ****    return (uint8_t)sleepstatus;
 874:../../source/src/FWlib/src/stm32f10x_can.c **** }
 1273              		.loc 1 874 0
 1274 058e A0F10200 		sub	r0, #2
 1275 0592 B0FA80F0 		clz	r0, r0
 1276 0596 4009     		lsrs	r0, r0, #5
 1277 0598 7047     		bx	lr
 1278              		.cfi_endproc
 1279              	.LFE43:
 1280              		.size	CAN_Sleep, .-CAN_Sleep
 1281              		.align	1
 1282 059a 00BF     		.p2align 2,,3
 1283              		.global	CAN_WakeUp
 1284              		.syntax unified
 1285              		.thumb
 1286              		.thumb_func
 1287              		.fpu softvfp
 1288              		.type	CAN_WakeUp, %function
 1289              	CAN_WakeUp:
 1290              	.LFB44:
 875:../../source/src/FWlib/src/stm32f10x_can.c **** 
 876:../../source/src/FWlib/src/stm32f10x_can.c **** /**
 877:../../source/src/FWlib/src/stm32f10x_can.c ****   * @brief  Wakes the CAN up.
 878:../../source/src/FWlib/src/stm32f10x_can.c ****   * @param  CANx:    where x can be 1 or 2 to to select the CAN peripheral.
 879:../../source/src/FWlib/src/stm32f10x_can.c ****   * @retval status:  CAN_WakeUp_Ok if sleep mode left, CAN_WakeUp_Failed in an 
 880:../../source/src/FWlib/src/stm32f10x_can.c ****   *                  other case.
 881:../../source/src/FWlib/src/stm32f10x_can.c ****   */
 882:../../source/src/FWlib/src/stm32f10x_can.c **** uint8_t CAN_WakeUp(CAN_TypeDef* CANx)
 883:../../source/src/FWlib/src/stm32f10x_can.c **** {
 1291              		.loc 1 883 0
 1292              		.cfi_startproc
 1293              		@ args = 0, pretend = 0, frame = 0
 1294              		@ frame_needed = 0, uses_anonymous_args = 0
 1295              		@ link register save eliminated.
 1296              	.LVL84:
 884:../../source/src/FWlib/src/stm32f10x_can.c ****   uint32_t wait_slak = SLAK_TIMEOUT;
ARM GAS  G:\Users\Jaxb\AppData\Local\Temp\cctfzRXv.s 			page 41


 885:../../source/src/FWlib/src/stm32f10x_can.c ****   uint8_t wakeupstatus = CAN_WakeUp_Failed;
 886:../../source/src/FWlib/src/stm32f10x_can.c ****   
 887:../../source/src/FWlib/src/stm32f10x_can.c ****   /* Check the parameters */
 888:../../source/src/FWlib/src/stm32f10x_can.c ****   assert_param(IS_CAN_ALL_PERIPH(CANx));
 889:../../source/src/FWlib/src/stm32f10x_can.c ****     
 890:../../source/src/FWlib/src/stm32f10x_can.c ****   /* Wake up request */
 891:../../source/src/FWlib/src/stm32f10x_can.c ****   CANx->MCR &= ~(uint32_t)CAN_MCR_SLEEP;
 1297              		.loc 1 891 0
 1298 059c 0368     		ldr	r3, [r0]
 1299 059e 23F00203 		bic	r3, r3, #2
 1300 05a2 0360     		str	r3, [r0]
 892:../../source/src/FWlib/src/stm32f10x_can.c ****     
 893:../../source/src/FWlib/src/stm32f10x_can.c ****   /* Sleep mode status */
 894:../../source/src/FWlib/src/stm32f10x_can.c ****   while(((CANx->MSR & CAN_MSR_SLAK) == CAN_MSR_SLAK)&&(wait_slak!=0x00))
 1301              		.loc 1 894 0
 1302 05a4 4368     		ldr	r3, [r0, #4]
 1303 05a6 9907     		lsls	r1, r3, #30
 1304 05a8 07D5     		bpl	.L143
 1305 05aa 4FF6FF73 		movw	r3, #65535
 1306 05ae 01E0     		b	.L144
 1307              	.LVL85:
 1308              	.L152:
 1309              		.loc 1 894 0 is_stmt 0 discriminator 1
 1310 05b0 013B     		subs	r3, r3, #1
 1311              	.LVL86:
 1312 05b2 02D0     		beq	.L143
 1313              	.LVL87:
 1314              	.L144:
 1315              		.loc 1 894 0
 1316 05b4 4268     		ldr	r2, [r0, #4]
 1317 05b6 9207     		lsls	r2, r2, #30
 1318 05b8 FAD4     		bmi	.L152
 1319              	.LVL88:
 1320              	.L143:
 895:../../source/src/FWlib/src/stm32f10x_can.c ****   {
 896:../../source/src/FWlib/src/stm32f10x_can.c ****    wait_slak--;
 897:../../source/src/FWlib/src/stm32f10x_can.c ****   }
 898:../../source/src/FWlib/src/stm32f10x_can.c ****   if((CANx->MSR & CAN_MSR_SLAK) != CAN_MSR_SLAK)
 1321              		.loc 1 898 0 is_stmt 1
 1322 05ba 4068     		ldr	r0, [r0, #4]
 1323              	.LVL89:
 1324 05bc 80F00200 		eor	r0, r0, #2
 1325              	.LVL90:
 899:../../source/src/FWlib/src/stm32f10x_can.c ****   {
 900:../../source/src/FWlib/src/stm32f10x_can.c ****    /* wake up done : Sleep mode exited */
 901:../../source/src/FWlib/src/stm32f10x_can.c ****     wakeupstatus = CAN_WakeUp_Ok;
 902:../../source/src/FWlib/src/stm32f10x_can.c ****   }
 903:../../source/src/FWlib/src/stm32f10x_can.c ****   /* return wakeup status */
 904:../../source/src/FWlib/src/stm32f10x_can.c ****   return (uint8_t)wakeupstatus;
 905:../../source/src/FWlib/src/stm32f10x_can.c **** }
 1326              		.loc 1 905 0
 1327 05c0 C0F34000 		ubfx	r0, r0, #1, #1
 1328              	.LVL91:
 1329 05c4 7047     		bx	lr
 1330              		.cfi_endproc
 1331              	.LFE44:
 1332              		.size	CAN_WakeUp, .-CAN_WakeUp
ARM GAS  G:\Users\Jaxb\AppData\Local\Temp\cctfzRXv.s 			page 42


 1333              		.align	1
 1334 05c6 00BF     		.p2align 2,,3
 1335              		.global	CAN_GetLastErrorCode
 1336              		.syntax unified
 1337              		.thumb
 1338              		.thumb_func
 1339              		.fpu softvfp
 1340              		.type	CAN_GetLastErrorCode, %function
 1341              	CAN_GetLastErrorCode:
 1342              	.LFB45:
 906:../../source/src/FWlib/src/stm32f10x_can.c **** 
 907:../../source/src/FWlib/src/stm32f10x_can.c **** 
 908:../../source/src/FWlib/src/stm32f10x_can.c **** /**
 909:../../source/src/FWlib/src/stm32f10x_can.c ****   * @brief  Returns the CANx's last error code (LEC).
 910:../../source/src/FWlib/src/stm32f10x_can.c ****   * @param  CANx:          where x can be 1 or 2 to to select the CAN peripheral.  
 911:../../source/src/FWlib/src/stm32f10x_can.c ****   * @retval CAN_ErrorCode: specifies the Error code : 
 912:../../source/src/FWlib/src/stm32f10x_can.c ****   *                        - CAN_ERRORCODE_NoErr            No Error  
 913:../../source/src/FWlib/src/stm32f10x_can.c ****   *                        - CAN_ERRORCODE_StuffErr         Stuff Error
 914:../../source/src/FWlib/src/stm32f10x_can.c ****   *                        - CAN_ERRORCODE_FormErr          Form Error
 915:../../source/src/FWlib/src/stm32f10x_can.c ****   *                        - CAN_ERRORCODE_ACKErr           Acknowledgment Error
 916:../../source/src/FWlib/src/stm32f10x_can.c ****   *                        - CAN_ERRORCODE_BitRecessiveErr  Bit Recessive Error
 917:../../source/src/FWlib/src/stm32f10x_can.c ****   *                        - CAN_ERRORCODE_BitDominantErr   Bit Dominant Error
 918:../../source/src/FWlib/src/stm32f10x_can.c ****   *                        - CAN_ERRORCODE_CRCErr           CRC Error
 919:../../source/src/FWlib/src/stm32f10x_can.c ****   *                        - CAN_ERRORCODE_SoftwareSetErr   Software Set Error  
 920:../../source/src/FWlib/src/stm32f10x_can.c ****   */
 921:../../source/src/FWlib/src/stm32f10x_can.c ****  
 922:../../source/src/FWlib/src/stm32f10x_can.c **** uint8_t CAN_GetLastErrorCode(CAN_TypeDef* CANx)
 923:../../source/src/FWlib/src/stm32f10x_can.c **** {
 1343              		.loc 1 923 0
 1344              		.cfi_startproc
 1345              		@ args = 0, pretend = 0, frame = 0
 1346              		@ frame_needed = 0, uses_anonymous_args = 0
 1347              		@ link register save eliminated.
 1348              	.LVL92:
 924:../../source/src/FWlib/src/stm32f10x_can.c ****   uint8_t errorcode=0;
 925:../../source/src/FWlib/src/stm32f10x_can.c ****   
 926:../../source/src/FWlib/src/stm32f10x_can.c ****   /* Check the parameters */
 927:../../source/src/FWlib/src/stm32f10x_can.c ****   assert_param(IS_CAN_ALL_PERIPH(CANx));
 928:../../source/src/FWlib/src/stm32f10x_can.c ****   
 929:../../source/src/FWlib/src/stm32f10x_can.c ****   /* Get the error code*/
 930:../../source/src/FWlib/src/stm32f10x_can.c ****   errorcode = (((uint8_t)CANx->ESR) & (uint8_t)CAN_ESR_LEC);
 1349              		.loc 1 930 0
 1350 05c8 8069     		ldr	r0, [r0, #24]
 1351              	.LVL93:
 931:../../source/src/FWlib/src/stm32f10x_can.c ****   
 932:../../source/src/FWlib/src/stm32f10x_can.c ****   /* Return the error code*/
 933:../../source/src/FWlib/src/stm32f10x_can.c ****   return errorcode;
 934:../../source/src/FWlib/src/stm32f10x_can.c **** }
 1352              		.loc 1 934 0
 1353 05ca 00F07000 		and	r0, r0, #112
 1354              	.LVL94:
 1355 05ce 7047     		bx	lr
 1356              		.cfi_endproc
 1357              	.LFE45:
 1358              		.size	CAN_GetLastErrorCode, .-CAN_GetLastErrorCode
 1359              		.align	1
 1360              		.p2align 2,,3
ARM GAS  G:\Users\Jaxb\AppData\Local\Temp\cctfzRXv.s 			page 43


 1361              		.global	CAN_GetReceiveErrorCounter
 1362              		.syntax unified
 1363              		.thumb
 1364              		.thumb_func
 1365              		.fpu softvfp
 1366              		.type	CAN_GetReceiveErrorCounter, %function
 1367              	CAN_GetReceiveErrorCounter:
 1368              	.LFB46:
 935:../../source/src/FWlib/src/stm32f10x_can.c **** /**
 936:../../source/src/FWlib/src/stm32f10x_can.c ****   * @brief  Returns the CANx Receive Error Counter (REC).
 937:../../source/src/FWlib/src/stm32f10x_can.c ****   * @note   In case of an error during reception, this counter is incremented 
 938:../../source/src/FWlib/src/stm32f10x_can.c ****   *         by 1 or by 8 depending on the error condition as defined by the CAN 
 939:../../source/src/FWlib/src/stm32f10x_can.c ****   *         standard. After every successful reception, the counter is 
 940:../../source/src/FWlib/src/stm32f10x_can.c ****   *         decremented by 1 or reset to 120 if its value was higher than 128. 
 941:../../source/src/FWlib/src/stm32f10x_can.c ****   *         When the counter value exceeds 127, the CAN controller enters the 
 942:../../source/src/FWlib/src/stm32f10x_can.c ****   *         error passive state.  
 943:../../source/src/FWlib/src/stm32f10x_can.c ****   * @param  CANx: where x can be 1 or 2 to to select the CAN peripheral.  
 944:../../source/src/FWlib/src/stm32f10x_can.c ****   * @retval CAN Receive Error Counter. 
 945:../../source/src/FWlib/src/stm32f10x_can.c ****   */
 946:../../source/src/FWlib/src/stm32f10x_can.c **** uint8_t CAN_GetReceiveErrorCounter(CAN_TypeDef* CANx)
 947:../../source/src/FWlib/src/stm32f10x_can.c **** {
 1369              		.loc 1 947 0
 1370              		.cfi_startproc
 1371              		@ args = 0, pretend = 0, frame = 0
 1372              		@ frame_needed = 0, uses_anonymous_args = 0
 1373              		@ link register save eliminated.
 1374              	.LVL95:
 948:../../source/src/FWlib/src/stm32f10x_can.c ****   uint8_t counter=0;
 949:../../source/src/FWlib/src/stm32f10x_can.c ****   
 950:../../source/src/FWlib/src/stm32f10x_can.c ****   /* Check the parameters */
 951:../../source/src/FWlib/src/stm32f10x_can.c ****   assert_param(IS_CAN_ALL_PERIPH(CANx));
 952:../../source/src/FWlib/src/stm32f10x_can.c ****   
 953:../../source/src/FWlib/src/stm32f10x_can.c ****   /* Get the Receive Error Counter*/
 954:../../source/src/FWlib/src/stm32f10x_can.c ****   counter = (uint8_t)((CANx->ESR & CAN_ESR_REC)>> 24);
 1375              		.loc 1 954 0
 1376 05d0 8069     		ldr	r0, [r0, #24]
 1377              	.LVL96:
 955:../../source/src/FWlib/src/stm32f10x_can.c ****   
 956:../../source/src/FWlib/src/stm32f10x_can.c ****   /* Return the Receive Error Counter*/
 957:../../source/src/FWlib/src/stm32f10x_can.c ****   return counter;
 958:../../source/src/FWlib/src/stm32f10x_can.c **** }
 1378              		.loc 1 958 0
 1379 05d2 000E     		lsrs	r0, r0, #24
 1380              	.LVL97:
 1381 05d4 7047     		bx	lr
 1382              		.cfi_endproc
 1383              	.LFE46:
 1384              		.size	CAN_GetReceiveErrorCounter, .-CAN_GetReceiveErrorCounter
 1385              		.align	1
 1386 05d6 00BF     		.p2align 2,,3
 1387              		.global	CAN_GetLSBTransmitErrorCounter
 1388              		.syntax unified
 1389              		.thumb
 1390              		.thumb_func
 1391              		.fpu softvfp
 1392              		.type	CAN_GetLSBTransmitErrorCounter, %function
 1393              	CAN_GetLSBTransmitErrorCounter:
ARM GAS  G:\Users\Jaxb\AppData\Local\Temp\cctfzRXv.s 			page 44


 1394              	.LFB47:
 959:../../source/src/FWlib/src/stm32f10x_can.c **** 
 960:../../source/src/FWlib/src/stm32f10x_can.c **** 
 961:../../source/src/FWlib/src/stm32f10x_can.c **** /**
 962:../../source/src/FWlib/src/stm32f10x_can.c ****   * @brief  Returns the LSB of the 9-bit CANx Transmit Error Counter(TEC).
 963:../../source/src/FWlib/src/stm32f10x_can.c ****   * @param  CANx:   where x can be 1 or 2 to to select the CAN peripheral.  
 964:../../source/src/FWlib/src/stm32f10x_can.c ****   * @retval LSB of the 9-bit CAN Transmit Error Counter. 
 965:../../source/src/FWlib/src/stm32f10x_can.c ****   */
 966:../../source/src/FWlib/src/stm32f10x_can.c **** uint8_t CAN_GetLSBTransmitErrorCounter(CAN_TypeDef* CANx)
 967:../../source/src/FWlib/src/stm32f10x_can.c **** {
 1395              		.loc 1 967 0
 1396              		.cfi_startproc
 1397              		@ args = 0, pretend = 0, frame = 0
 1398              		@ frame_needed = 0, uses_anonymous_args = 0
 1399              		@ link register save eliminated.
 1400              	.LVL98:
 968:../../source/src/FWlib/src/stm32f10x_can.c ****   uint8_t counter=0;
 969:../../source/src/FWlib/src/stm32f10x_can.c ****   
 970:../../source/src/FWlib/src/stm32f10x_can.c ****   /* Check the parameters */
 971:../../source/src/FWlib/src/stm32f10x_can.c ****   assert_param(IS_CAN_ALL_PERIPH(CANx));
 972:../../source/src/FWlib/src/stm32f10x_can.c ****   
 973:../../source/src/FWlib/src/stm32f10x_can.c ****   /* Get the LSB of the 9-bit CANx Transmit Error Counter(TEC) */
 974:../../source/src/FWlib/src/stm32f10x_can.c ****   counter = (uint8_t)((CANx->ESR & CAN_ESR_TEC)>> 16);
 1401              		.loc 1 974 0
 1402 05d8 8069     		ldr	r0, [r0, #24]
 1403              	.LVL99:
 975:../../source/src/FWlib/src/stm32f10x_can.c ****   
 976:../../source/src/FWlib/src/stm32f10x_can.c ****   /* Return the LSB of the 9-bit CANx Transmit Error Counter(TEC) */
 977:../../source/src/FWlib/src/stm32f10x_can.c ****   return counter;
 978:../../source/src/FWlib/src/stm32f10x_can.c **** }
 1404              		.loc 1 978 0
 1405 05da C0F30740 		ubfx	r0, r0, #16, #8
 1406              	.LVL100:
 1407 05de 7047     		bx	lr
 1408              		.cfi_endproc
 1409              	.LFE47:
 1410              		.size	CAN_GetLSBTransmitErrorCounter, .-CAN_GetLSBTransmitErrorCounter
 1411              		.align	1
 1412              		.p2align 2,,3
 1413              		.global	CAN_ITConfig
 1414              		.syntax unified
 1415              		.thumb
 1416              		.thumb_func
 1417              		.fpu softvfp
 1418              		.type	CAN_ITConfig, %function
 1419              	CAN_ITConfig:
 1420              	.LFB48:
 979:../../source/src/FWlib/src/stm32f10x_can.c **** 
 980:../../source/src/FWlib/src/stm32f10x_can.c **** 
 981:../../source/src/FWlib/src/stm32f10x_can.c **** /**
 982:../../source/src/FWlib/src/stm32f10x_can.c ****   * @brief  Enables or disables the specified CANx interrupts.
 983:../../source/src/FWlib/src/stm32f10x_can.c ****   * @param  CANx:   where x can be 1 or 2 to to select the CAN peripheral.
 984:../../source/src/FWlib/src/stm32f10x_can.c ****   * @param  CAN_IT: specifies the CAN interrupt sources to be enabled or disabled.
 985:../../source/src/FWlib/src/stm32f10x_can.c ****   *                 This parameter can be: 
 986:../../source/src/FWlib/src/stm32f10x_can.c ****   *                 - CAN_IT_TME, 
 987:../../source/src/FWlib/src/stm32f10x_can.c ****   *                 - CAN_IT_FMP0, 
 988:../../source/src/FWlib/src/stm32f10x_can.c ****   *                 - CAN_IT_FF0,
ARM GAS  G:\Users\Jaxb\AppData\Local\Temp\cctfzRXv.s 			page 45


 989:../../source/src/FWlib/src/stm32f10x_can.c ****   *                 - CAN_IT_FOV0, 
 990:../../source/src/FWlib/src/stm32f10x_can.c ****   *                 - CAN_IT_FMP1, 
 991:../../source/src/FWlib/src/stm32f10x_can.c ****   *                 - CAN_IT_FF1,
 992:../../source/src/FWlib/src/stm32f10x_can.c ****   *                 - CAN_IT_FOV1, 
 993:../../source/src/FWlib/src/stm32f10x_can.c ****   *                 - CAN_IT_EWG, 
 994:../../source/src/FWlib/src/stm32f10x_can.c ****   *                 - CAN_IT_EPV,
 995:../../source/src/FWlib/src/stm32f10x_can.c ****   *                 - CAN_IT_LEC, 
 996:../../source/src/FWlib/src/stm32f10x_can.c ****   *                 - CAN_IT_ERR, 
 997:../../source/src/FWlib/src/stm32f10x_can.c ****   *                 - CAN_IT_WKU or 
 998:../../source/src/FWlib/src/stm32f10x_can.c ****   *                 - CAN_IT_SLK.
 999:../../source/src/FWlib/src/stm32f10x_can.c ****   * @param  NewState: new state of the CAN interrupts.
1000:../../source/src/FWlib/src/stm32f10x_can.c ****   *                   This parameter can be: ENABLE or DISABLE.
1001:../../source/src/FWlib/src/stm32f10x_can.c ****   * @retval None.
1002:../../source/src/FWlib/src/stm32f10x_can.c ****   */
1003:../../source/src/FWlib/src/stm32f10x_can.c **** void CAN_ITConfig(CAN_TypeDef* CANx, uint32_t CAN_IT, FunctionalState NewState)
1004:../../source/src/FWlib/src/stm32f10x_can.c **** {
 1421              		.loc 1 1004 0
 1422              		.cfi_startproc
 1423              		@ args = 0, pretend = 0, frame = 0
 1424              		@ frame_needed = 0, uses_anonymous_args = 0
 1425              		@ link register save eliminated.
 1426              	.LVL101:
1005:../../source/src/FWlib/src/stm32f10x_can.c ****   /* Check the parameters */
1006:../../source/src/FWlib/src/stm32f10x_can.c ****   assert_param(IS_CAN_ALL_PERIPH(CANx));
1007:../../source/src/FWlib/src/stm32f10x_can.c ****   assert_param(IS_CAN_IT(CAN_IT));
1008:../../source/src/FWlib/src/stm32f10x_can.c ****   assert_param(IS_FUNCTIONAL_STATE(NewState));
1009:../../source/src/FWlib/src/stm32f10x_can.c **** 
1010:../../source/src/FWlib/src/stm32f10x_can.c ****   if (NewState != DISABLE)
1011:../../source/src/FWlib/src/stm32f10x_can.c ****   {
1012:../../source/src/FWlib/src/stm32f10x_can.c ****     /* Enable the selected CANx interrupt */
1013:../../source/src/FWlib/src/stm32f10x_can.c ****     CANx->IER |= CAN_IT;
 1427              		.loc 1 1013 0
 1428 05e0 4369     		ldr	r3, [r0, #20]
1010:../../source/src/FWlib/src/stm32f10x_can.c ****   {
 1429              		.loc 1 1010 0
 1430 05e2 1AB9     		cbnz	r2, .L159
1014:../../source/src/FWlib/src/stm32f10x_can.c ****   }
1015:../../source/src/FWlib/src/stm32f10x_can.c ****   else
1016:../../source/src/FWlib/src/stm32f10x_can.c ****   {
1017:../../source/src/FWlib/src/stm32f10x_can.c ****     /* Disable the selected CANx interrupt */
1018:../../source/src/FWlib/src/stm32f10x_can.c ****     CANx->IER &= ~CAN_IT;
 1431              		.loc 1 1018 0
 1432 05e4 23EA0101 		bic	r1, r3, r1
 1433              	.LVL102:
 1434 05e8 4161     		str	r1, [r0, #20]
1019:../../source/src/FWlib/src/stm32f10x_can.c ****   }
1020:../../source/src/FWlib/src/stm32f10x_can.c **** }
 1435              		.loc 1 1020 0
 1436 05ea 7047     		bx	lr
 1437              	.LVL103:
 1438              	.L159:
1013:../../source/src/FWlib/src/stm32f10x_can.c ****   }
 1439              		.loc 1 1013 0
 1440 05ec 1943     		orrs	r1, r1, r3
 1441              	.LVL104:
 1442 05ee 4161     		str	r1, [r0, #20]
 1443 05f0 7047     		bx	lr
ARM GAS  G:\Users\Jaxb\AppData\Local\Temp\cctfzRXv.s 			page 46


 1444              		.cfi_endproc
 1445              	.LFE48:
 1446              		.size	CAN_ITConfig, .-CAN_ITConfig
 1447              		.align	1
 1448 05f2 00BF     		.p2align 2,,3
 1449              		.global	CAN_GetFlagStatus
 1450              		.syntax unified
 1451              		.thumb
 1452              		.thumb_func
 1453              		.fpu softvfp
 1454              		.type	CAN_GetFlagStatus, %function
 1455              	CAN_GetFlagStatus:
 1456              	.LFB49:
1021:../../source/src/FWlib/src/stm32f10x_can.c **** /**
1022:../../source/src/FWlib/src/stm32f10x_can.c ****   * @brief  Checks whether the specified CAN flag is set or not.
1023:../../source/src/FWlib/src/stm32f10x_can.c ****   * @param  CANx:     where x can be 1 or 2 to to select the CAN peripheral.
1024:../../source/src/FWlib/src/stm32f10x_can.c ****   * @param  CAN_FLAG: specifies the flag to check.
1025:../../source/src/FWlib/src/stm32f10x_can.c ****   *                   This parameter can be one of the following flags: 
1026:../../source/src/FWlib/src/stm32f10x_can.c ****   *                  - CAN_FLAG_EWG
1027:../../source/src/FWlib/src/stm32f10x_can.c ****   *                  - CAN_FLAG_EPV 
1028:../../source/src/FWlib/src/stm32f10x_can.c ****   *                  - CAN_FLAG_BOF
1029:../../source/src/FWlib/src/stm32f10x_can.c ****   *                  - CAN_FLAG_RQCP0
1030:../../source/src/FWlib/src/stm32f10x_can.c ****   *                  - CAN_FLAG_RQCP1
1031:../../source/src/FWlib/src/stm32f10x_can.c ****   *                  - CAN_FLAG_RQCP2
1032:../../source/src/FWlib/src/stm32f10x_can.c ****   *                  - CAN_FLAG_FMP1   
1033:../../source/src/FWlib/src/stm32f10x_can.c ****   *                  - CAN_FLAG_FF1       
1034:../../source/src/FWlib/src/stm32f10x_can.c ****   *                  - CAN_FLAG_FOV1   
1035:../../source/src/FWlib/src/stm32f10x_can.c ****   *                  - CAN_FLAG_FMP0   
1036:../../source/src/FWlib/src/stm32f10x_can.c ****   *                  - CAN_FLAG_FF0       
1037:../../source/src/FWlib/src/stm32f10x_can.c ****   *                  - CAN_FLAG_FOV0   
1038:../../source/src/FWlib/src/stm32f10x_can.c ****   *                  - CAN_FLAG_WKU 
1039:../../source/src/FWlib/src/stm32f10x_can.c ****   *                  - CAN_FLAG_SLAK  
1040:../../source/src/FWlib/src/stm32f10x_can.c ****   *                  - CAN_FLAG_LEC       
1041:../../source/src/FWlib/src/stm32f10x_can.c ****   * @retval The new state of CAN_FLAG (SET or RESET).
1042:../../source/src/FWlib/src/stm32f10x_can.c ****   */
1043:../../source/src/FWlib/src/stm32f10x_can.c **** FlagStatus CAN_GetFlagStatus(CAN_TypeDef* CANx, uint32_t CAN_FLAG)
1044:../../source/src/FWlib/src/stm32f10x_can.c **** {
 1457              		.loc 1 1044 0
 1458              		.cfi_startproc
 1459              		@ args = 0, pretend = 0, frame = 0
 1460              		@ frame_needed = 0, uses_anonymous_args = 0
 1461              		@ link register save eliminated.
 1462              	.LVL105:
1045:../../source/src/FWlib/src/stm32f10x_can.c ****   FlagStatus bitstatus = RESET;
1046:../../source/src/FWlib/src/stm32f10x_can.c ****   
1047:../../source/src/FWlib/src/stm32f10x_can.c ****   /* Check the parameters */
1048:../../source/src/FWlib/src/stm32f10x_can.c ****   assert_param(IS_CAN_ALL_PERIPH(CANx));
1049:../../source/src/FWlib/src/stm32f10x_can.c ****   assert_param(IS_CAN_GET_FLAG(CAN_FLAG));
1050:../../source/src/FWlib/src/stm32f10x_can.c ****   
1051:../../source/src/FWlib/src/stm32f10x_can.c **** 
1052:../../source/src/FWlib/src/stm32f10x_can.c ****   if((CAN_FLAG & CAN_FLAGS_ESR) != (uint32_t)RESET)
 1463              		.loc 1 1052 0
 1464 05f4 11F4700F 		tst	r1, #15728640
 1465 05f8 07D0     		beq	.L161
1053:../../source/src/FWlib/src/stm32f10x_can.c ****   { 
1054:../../source/src/FWlib/src/stm32f10x_can.c ****     /* Check the status of the specified CAN flag */
1055:../../source/src/FWlib/src/stm32f10x_can.c ****     if ((CANx->ESR & (CAN_FLAG & 0x000FFFFF)) != (uint32_t)RESET)
ARM GAS  G:\Users\Jaxb\AppData\Local\Temp\cctfzRXv.s 			page 47


 1466              		.loc 1 1055 0
 1467 05fa 8369     		ldr	r3, [r0, #24]
 1468 05fc C3F31303 		ubfx	r3, r3, #0, #20
 1469 0600 0B42     		tst	r3, r1
1056:../../source/src/FWlib/src/stm32f10x_can.c ****     { 
1057:../../source/src/FWlib/src/stm32f10x_can.c ****       /* CAN_FLAG is set */
1058:../../source/src/FWlib/src/stm32f10x_can.c ****       bitstatus = SET;
1059:../../source/src/FWlib/src/stm32f10x_can.c ****     }
1060:../../source/src/FWlib/src/stm32f10x_can.c ****     else
1061:../../source/src/FWlib/src/stm32f10x_can.c ****     { 
1062:../../source/src/FWlib/src/stm32f10x_can.c ****       /* CAN_FLAG is reset */
1063:../../source/src/FWlib/src/stm32f10x_can.c ****       bitstatus = RESET;
 1470              		.loc 1 1063 0
 1471 0602 14BF     		ite	ne
 1472 0604 0120     		movne	r0, #1
 1473              	.LVL106:
 1474 0606 0020     		moveq	r0, #0
 1475 0608 7047     		bx	lr
 1476              	.LVL107:
 1477              	.L161:
1064:../../source/src/FWlib/src/stm32f10x_can.c ****     }
1065:../../source/src/FWlib/src/stm32f10x_can.c ****   }
1066:../../source/src/FWlib/src/stm32f10x_can.c ****   else if((CAN_FLAG & CAN_FLAGS_MSR) != (uint32_t)RESET)
 1478              		.loc 1 1066 0
 1479 060a CB01     		lsls	r3, r1, #7
 1480 060c 07D5     		bpl	.L163
1067:../../source/src/FWlib/src/stm32f10x_can.c ****   { 
1068:../../source/src/FWlib/src/stm32f10x_can.c ****     /* Check the status of the specified CAN flag */
1069:../../source/src/FWlib/src/stm32f10x_can.c ****     if ((CANx->MSR & (CAN_FLAG & 0x000FFFFF)) != (uint32_t)RESET)
 1481              		.loc 1 1069 0
 1482 060e 4368     		ldr	r3, [r0, #4]
 1483 0610 C3F31303 		ubfx	r3, r3, #0, #20
 1484 0614 0B42     		tst	r3, r1
1063:../../source/src/FWlib/src/stm32f10x_can.c ****     }
 1485              		.loc 1 1063 0
 1486 0616 14BF     		ite	ne
 1487 0618 0120     		movne	r0, #1
 1488              	.LVL108:
 1489 061a 0020     		moveq	r0, #0
 1490 061c 7047     		bx	lr
 1491              	.LVL109:
 1492              	.L163:
1070:../../source/src/FWlib/src/stm32f10x_can.c ****     { 
1071:../../source/src/FWlib/src/stm32f10x_can.c ****       /* CAN_FLAG is set */
1072:../../source/src/FWlib/src/stm32f10x_can.c ****       bitstatus = SET;
1073:../../source/src/FWlib/src/stm32f10x_can.c ****     }
1074:../../source/src/FWlib/src/stm32f10x_can.c ****     else
1075:../../source/src/FWlib/src/stm32f10x_can.c ****     { 
1076:../../source/src/FWlib/src/stm32f10x_can.c ****       /* CAN_FLAG is reset */
1077:../../source/src/FWlib/src/stm32f10x_can.c ****       bitstatus = RESET;
1078:../../source/src/FWlib/src/stm32f10x_can.c ****     }
1079:../../source/src/FWlib/src/stm32f10x_can.c ****   }
1080:../../source/src/FWlib/src/stm32f10x_can.c ****   else if((CAN_FLAG & CAN_FLAGS_TSR) != (uint32_t)RESET)
 1493              		.loc 1 1080 0
 1494 061e 0A01     		lsls	r2, r1, #4
 1495 0620 07D5     		bpl	.L164
1081:../../source/src/FWlib/src/stm32f10x_can.c ****   { 
ARM GAS  G:\Users\Jaxb\AppData\Local\Temp\cctfzRXv.s 			page 48


1082:../../source/src/FWlib/src/stm32f10x_can.c ****     /* Check the status of the specified CAN flag */
1083:../../source/src/FWlib/src/stm32f10x_can.c ****     if ((CANx->TSR & (CAN_FLAG & 0x000FFFFF)) != (uint32_t)RESET)
 1496              		.loc 1 1083 0
 1497 0622 8368     		ldr	r3, [r0, #8]
 1498 0624 C3F31303 		ubfx	r3, r3, #0, #20
 1499 0628 0B42     		tst	r3, r1
1063:../../source/src/FWlib/src/stm32f10x_can.c ****     }
 1500              		.loc 1 1063 0
 1501 062a 14BF     		ite	ne
 1502 062c 0120     		movne	r0, #1
 1503              	.LVL110:
 1504 062e 0020     		moveq	r0, #0
 1505 0630 7047     		bx	lr
 1506              	.LVL111:
 1507              	.L164:
1084:../../source/src/FWlib/src/stm32f10x_can.c ****     { 
1085:../../source/src/FWlib/src/stm32f10x_can.c ****       /* CAN_FLAG is set */
1086:../../source/src/FWlib/src/stm32f10x_can.c ****       bitstatus = SET;
1087:../../source/src/FWlib/src/stm32f10x_can.c ****     }
1088:../../source/src/FWlib/src/stm32f10x_can.c ****     else
1089:../../source/src/FWlib/src/stm32f10x_can.c ****     { 
1090:../../source/src/FWlib/src/stm32f10x_can.c ****       /* CAN_FLAG is reset */
1091:../../source/src/FWlib/src/stm32f10x_can.c ****       bitstatus = RESET;
1092:../../source/src/FWlib/src/stm32f10x_can.c ****     }
1093:../../source/src/FWlib/src/stm32f10x_can.c ****   }
1094:../../source/src/FWlib/src/stm32f10x_can.c ****   else if((CAN_FLAG & CAN_FLAGS_RF0R) != (uint32_t)RESET)
 1508              		.loc 1 1094 0
 1509 0632 8B01     		lsls	r3, r1, #6
1095:../../source/src/FWlib/src/stm32f10x_can.c ****   { 
1096:../../source/src/FWlib/src/stm32f10x_can.c ****     /* Check the status of the specified CAN flag */
1097:../../source/src/FWlib/src/stm32f10x_can.c ****     if ((CANx->RF0R & (CAN_FLAG & 0x000FFFFF)) != (uint32_t)RESET)
 1510              		.loc 1 1097 0
 1511 0634 4CBF     		ite	mi
 1512 0636 C368     		ldrmi	r3, [r0, #12]
1098:../../source/src/FWlib/src/stm32f10x_can.c ****     { 
1099:../../source/src/FWlib/src/stm32f10x_can.c ****       /* CAN_FLAG is set */
1100:../../source/src/FWlib/src/stm32f10x_can.c ****       bitstatus = SET;
1101:../../source/src/FWlib/src/stm32f10x_can.c ****     }
1102:../../source/src/FWlib/src/stm32f10x_can.c ****     else
1103:../../source/src/FWlib/src/stm32f10x_can.c ****     { 
1104:../../source/src/FWlib/src/stm32f10x_can.c ****       /* CAN_FLAG is reset */
1105:../../source/src/FWlib/src/stm32f10x_can.c ****       bitstatus = RESET;
1106:../../source/src/FWlib/src/stm32f10x_can.c ****     }
1107:../../source/src/FWlib/src/stm32f10x_can.c ****   }
1108:../../source/src/FWlib/src/stm32f10x_can.c ****   else /* If(CAN_FLAG & CAN_FLAGS_RF1R != (uint32_t)RESET) */
1109:../../source/src/FWlib/src/stm32f10x_can.c ****   { 
1110:../../source/src/FWlib/src/stm32f10x_can.c ****     /* Check the status of the specified CAN flag */
1111:../../source/src/FWlib/src/stm32f10x_can.c ****     if ((uint32_t)(CANx->RF1R & (CAN_FLAG & 0x000FFFFF)) != (uint32_t)RESET)
 1513              		.loc 1 1111 0
 1514 0638 0369     		ldrpl	r3, [r0, #16]
 1515 063a C3F31303 		ubfx	r3, r3, #0, #20
 1516 063e 0B42     		tst	r3, r1
1063:../../source/src/FWlib/src/stm32f10x_can.c ****     }
 1517              		.loc 1 1063 0
 1518 0640 14BF     		ite	ne
 1519 0642 0120     		movne	r0, #1
 1520              	.LVL112:
ARM GAS  G:\Users\Jaxb\AppData\Local\Temp\cctfzRXv.s 			page 49


 1521 0644 0020     		moveq	r0, #0
 1522              	.LVL113:
1112:../../source/src/FWlib/src/stm32f10x_can.c ****     { 
1113:../../source/src/FWlib/src/stm32f10x_can.c ****       /* CAN_FLAG is set */
1114:../../source/src/FWlib/src/stm32f10x_can.c ****       bitstatus = SET;
1115:../../source/src/FWlib/src/stm32f10x_can.c ****     }
1116:../../source/src/FWlib/src/stm32f10x_can.c ****     else
1117:../../source/src/FWlib/src/stm32f10x_can.c ****     { 
1118:../../source/src/FWlib/src/stm32f10x_can.c ****       /* CAN_FLAG is reset */
1119:../../source/src/FWlib/src/stm32f10x_can.c ****       bitstatus = RESET;
1120:../../source/src/FWlib/src/stm32f10x_can.c ****     }
1121:../../source/src/FWlib/src/stm32f10x_can.c ****   }
1122:../../source/src/FWlib/src/stm32f10x_can.c ****   /* Return the CAN_FLAG status */
1123:../../source/src/FWlib/src/stm32f10x_can.c ****   return  bitstatus;
1124:../../source/src/FWlib/src/stm32f10x_can.c **** }
 1523              		.loc 1 1124 0
 1524 0646 7047     		bx	lr
 1525              		.cfi_endproc
 1526              	.LFE49:
 1527              		.size	CAN_GetFlagStatus, .-CAN_GetFlagStatus
 1528              		.align	1
 1529              		.p2align 2,,3
 1530              		.global	CAN_ClearFlag
 1531              		.syntax unified
 1532              		.thumb
 1533              		.thumb_func
 1534              		.fpu softvfp
 1535              		.type	CAN_ClearFlag, %function
 1536              	CAN_ClearFlag:
 1537              	.LFB50:
1125:../../source/src/FWlib/src/stm32f10x_can.c **** 
1126:../../source/src/FWlib/src/stm32f10x_can.c **** /**
1127:../../source/src/FWlib/src/stm32f10x_can.c ****   * @brief  Clears the CAN's pending flags.
1128:../../source/src/FWlib/src/stm32f10x_can.c ****   * @param  CANx:     where x can be 1 or 2 to to select the CAN peripheral.
1129:../../source/src/FWlib/src/stm32f10x_can.c ****   * @param  CAN_FLAG: specifies the flag to clear.
1130:../../source/src/FWlib/src/stm32f10x_can.c ****   *                   This parameter can be one of the following flags: 
1131:../../source/src/FWlib/src/stm32f10x_can.c ****   *                    - CAN_FLAG_RQCP0
1132:../../source/src/FWlib/src/stm32f10x_can.c ****   *                    - CAN_FLAG_RQCP1
1133:../../source/src/FWlib/src/stm32f10x_can.c ****   *                    - CAN_FLAG_RQCP2
1134:../../source/src/FWlib/src/stm32f10x_can.c ****   *                    - CAN_FLAG_FF1       
1135:../../source/src/FWlib/src/stm32f10x_can.c ****   *                    - CAN_FLAG_FOV1   
1136:../../source/src/FWlib/src/stm32f10x_can.c ****   *                    - CAN_FLAG_FF0       
1137:../../source/src/FWlib/src/stm32f10x_can.c ****   *                    - CAN_FLAG_FOV0   
1138:../../source/src/FWlib/src/stm32f10x_can.c ****   *                    - CAN_FLAG_WKU   
1139:../../source/src/FWlib/src/stm32f10x_can.c ****   *                    - CAN_FLAG_SLAK    
1140:../../source/src/FWlib/src/stm32f10x_can.c ****   *                    - CAN_FLAG_LEC       
1141:../../source/src/FWlib/src/stm32f10x_can.c ****   * @retval None.
1142:../../source/src/FWlib/src/stm32f10x_can.c ****   */
1143:../../source/src/FWlib/src/stm32f10x_can.c **** void CAN_ClearFlag(CAN_TypeDef* CANx, uint32_t CAN_FLAG)
1144:../../source/src/FWlib/src/stm32f10x_can.c **** {
 1538              		.loc 1 1144 0
 1539              		.cfi_startproc
 1540              		@ args = 0, pretend = 0, frame = 0
 1541              		@ frame_needed = 0, uses_anonymous_args = 0
 1542              		@ link register save eliminated.
 1543              	.LVL114:
1145:../../source/src/FWlib/src/stm32f10x_can.c ****   uint32_t flagtmp=0;
ARM GAS  G:\Users\Jaxb\AppData\Local\Temp\cctfzRXv.s 			page 50


1146:../../source/src/FWlib/src/stm32f10x_can.c ****   /* Check the parameters */
1147:../../source/src/FWlib/src/stm32f10x_can.c ****   assert_param(IS_CAN_ALL_PERIPH(CANx));
1148:../../source/src/FWlib/src/stm32f10x_can.c ****   assert_param(IS_CAN_CLEAR_FLAG(CAN_FLAG));
1149:../../source/src/FWlib/src/stm32f10x_can.c ****   
1150:../../source/src/FWlib/src/stm32f10x_can.c ****   if (CAN_FLAG == CAN_FLAG_LEC) /* ESR register */
 1544              		.loc 1 1150 0
 1545 0648 0A4B     		ldr	r3, .L175
 1546 064a 9942     		cmp	r1, r3
 1547 064c 0CD0     		beq	.L172
1151:../../source/src/FWlib/src/stm32f10x_can.c ****   {
1152:../../source/src/FWlib/src/stm32f10x_can.c ****     /* Clear the selected CAN flags */
1153:../../source/src/FWlib/src/stm32f10x_can.c ****     CANx->ESR = (uint32_t)RESET;
1154:../../source/src/FWlib/src/stm32f10x_can.c ****   }
1155:../../source/src/FWlib/src/stm32f10x_can.c ****   else /* MSR or TSR or RF0R or RF1R */
1156:../../source/src/FWlib/src/stm32f10x_can.c ****   {
1157:../../source/src/FWlib/src/stm32f10x_can.c ****     flagtmp = CAN_FLAG & 0x000FFFFF;
1158:../../source/src/FWlib/src/stm32f10x_can.c **** 
1159:../../source/src/FWlib/src/stm32f10x_can.c ****     if ((CAN_FLAG & CAN_FLAGS_RF0R)!=(uint32_t)RESET)
 1548              		.loc 1 1159 0
 1549 064e 8A01     		lsls	r2, r1, #6
1157:../../source/src/FWlib/src/stm32f10x_can.c **** 
 1550              		.loc 1 1157 0
 1551 0650 C1F31303 		ubfx	r3, r1, #0, #20
 1552              	.LVL115:
 1553              		.loc 1 1159 0
 1554 0654 06D4     		bmi	.L173
1160:../../source/src/FWlib/src/stm32f10x_can.c ****     {
1161:../../source/src/FWlib/src/stm32f10x_can.c ****       /* Receive Flags */
1162:../../source/src/FWlib/src/stm32f10x_can.c ****       CANx->RF0R = (uint32_t)(flagtmp);
1163:../../source/src/FWlib/src/stm32f10x_can.c ****     }
1164:../../source/src/FWlib/src/stm32f10x_can.c ****     else if ((CAN_FLAG & CAN_FLAGS_RF1R)!=(uint32_t)RESET)
 1555              		.loc 1 1164 0
 1556 0656 4A01     		lsls	r2, r1, #5
 1557 0658 09D4     		bmi	.L174
1165:../../source/src/FWlib/src/stm32f10x_can.c ****     {
1166:../../source/src/FWlib/src/stm32f10x_can.c ****       /* Receive Flags */
1167:../../source/src/FWlib/src/stm32f10x_can.c ****       CANx->RF1R = (uint32_t)(flagtmp);
1168:../../source/src/FWlib/src/stm32f10x_can.c ****     }
1169:../../source/src/FWlib/src/stm32f10x_can.c ****     else if ((CAN_FLAG & CAN_FLAGS_TSR)!=(uint32_t)RESET)
 1558              		.loc 1 1169 0
 1559 065a 0A01     		lsls	r2, r1, #4
1170:../../source/src/FWlib/src/stm32f10x_can.c ****     {
1171:../../source/src/FWlib/src/stm32f10x_can.c ****       /* Transmit Flags */
1172:../../source/src/FWlib/src/stm32f10x_can.c ****       CANx->TSR = (uint32_t)(flagtmp);
 1560              		.loc 1 1172 0
 1561 065c 4CBF     		ite	mi
 1562 065e 8360     		strmi	r3, [r0, #8]
1173:../../source/src/FWlib/src/stm32f10x_can.c ****     }
1174:../../source/src/FWlib/src/stm32f10x_can.c ****     else /* If((CAN_FLAG & CAN_FLAGS_MSR)!=(uint32_t)RESET) */
1175:../../source/src/FWlib/src/stm32f10x_can.c ****     {
1176:../../source/src/FWlib/src/stm32f10x_can.c ****       /* Operating mode Flags */
1177:../../source/src/FWlib/src/stm32f10x_can.c ****       CANx->MSR = (uint32_t)(flagtmp);
 1563              		.loc 1 1177 0
 1564 0660 4360     		strpl	r3, [r0, #4]
1178:../../source/src/FWlib/src/stm32f10x_can.c ****     }
1179:../../source/src/FWlib/src/stm32f10x_can.c ****   }
1180:../../source/src/FWlib/src/stm32f10x_can.c **** }
ARM GAS  G:\Users\Jaxb\AppData\Local\Temp\cctfzRXv.s 			page 51


 1565              		.loc 1 1180 0
 1566 0662 7047     		bx	lr
 1567              	.L173:
1162:../../source/src/FWlib/src/stm32f10x_can.c ****     }
 1568              		.loc 1 1162 0
 1569 0664 C360     		str	r3, [r0, #12]
 1570 0666 7047     		bx	lr
 1571              	.LVL116:
 1572              	.L172:
1153:../../source/src/FWlib/src/stm32f10x_can.c ****   }
 1573              		.loc 1 1153 0
 1574 0668 0023     		movs	r3, #0
 1575 066a 8361     		str	r3, [r0, #24]
 1576 066c 7047     		bx	lr
 1577              	.LVL117:
 1578              	.L174:
1167:../../source/src/FWlib/src/stm32f10x_can.c ****     }
 1579              		.loc 1 1167 0
 1580 066e 0361     		str	r3, [r0, #16]
 1581 0670 7047     		bx	lr
 1582              	.L176:
 1583 0672 00BF     		.align	2
 1584              	.L175:
 1585 0674 7000F030 		.word	821035120
 1586              		.cfi_endproc
 1587              	.LFE50:
 1588              		.size	CAN_ClearFlag, .-CAN_ClearFlag
 1589              		.align	1
 1590              		.p2align 2,,3
 1591              		.global	CAN_GetITStatus
 1592              		.syntax unified
 1593              		.thumb
 1594              		.thumb_func
 1595              		.fpu softvfp
 1596              		.type	CAN_GetITStatus, %function
 1597              	CAN_GetITStatus:
 1598              	.LFB51:
1181:../../source/src/FWlib/src/stm32f10x_can.c **** 
1182:../../source/src/FWlib/src/stm32f10x_can.c **** /**
1183:../../source/src/FWlib/src/stm32f10x_can.c ****   * @brief  Checks whether the specified CANx interrupt has occurred or not.
1184:../../source/src/FWlib/src/stm32f10x_can.c ****   * @param  CANx:    where x can be 1 or 2 to to select the CAN peripheral.
1185:../../source/src/FWlib/src/stm32f10x_can.c ****   * @param  CAN_IT:  specifies the CAN interrupt source to check.
1186:../../source/src/FWlib/src/stm32f10x_can.c ****   *                  This parameter can be one of the following flags: 
1187:../../source/src/FWlib/src/stm32f10x_can.c ****   *                 -  CAN_IT_TME               
1188:../../source/src/FWlib/src/stm32f10x_can.c ****   *                 -  CAN_IT_FMP0              
1189:../../source/src/FWlib/src/stm32f10x_can.c ****   *                 -  CAN_IT_FF0               
1190:../../source/src/FWlib/src/stm32f10x_can.c ****   *                 -  CAN_IT_FOV0              
1191:../../source/src/FWlib/src/stm32f10x_can.c ****   *                 -  CAN_IT_FMP1              
1192:../../source/src/FWlib/src/stm32f10x_can.c ****   *                 -  CAN_IT_FF1               
1193:../../source/src/FWlib/src/stm32f10x_can.c ****   *                 -  CAN_IT_FOV1              
1194:../../source/src/FWlib/src/stm32f10x_can.c ****   *                 -  CAN_IT_WKU  
1195:../../source/src/FWlib/src/stm32f10x_can.c ****   *                 -  CAN_IT_SLK  
1196:../../source/src/FWlib/src/stm32f10x_can.c ****   *                 -  CAN_IT_EWG    
1197:../../source/src/FWlib/src/stm32f10x_can.c ****   *                 -  CAN_IT_EPV    
1198:../../source/src/FWlib/src/stm32f10x_can.c ****   *                 -  CAN_IT_BOF    
1199:../../source/src/FWlib/src/stm32f10x_can.c ****   *                 -  CAN_IT_LEC    
1200:../../source/src/FWlib/src/stm32f10x_can.c ****   *                 -  CAN_IT_ERR 
ARM GAS  G:\Users\Jaxb\AppData\Local\Temp\cctfzRXv.s 			page 52


1201:../../source/src/FWlib/src/stm32f10x_can.c ****   * @retval The current state of CAN_IT (SET or RESET).
1202:../../source/src/FWlib/src/stm32f10x_can.c ****   */
1203:../../source/src/FWlib/src/stm32f10x_can.c **** ITStatus CAN_GetITStatus(CAN_TypeDef* CANx, uint32_t CAN_IT)
1204:../../source/src/FWlib/src/stm32f10x_can.c **** {
 1599              		.loc 1 1204 0
 1600              		.cfi_startproc
 1601              		@ args = 0, pretend = 0, frame = 0
 1602              		@ frame_needed = 0, uses_anonymous_args = 0
 1603              		@ link register save eliminated.
 1604              	.LVL118:
1205:../../source/src/FWlib/src/stm32f10x_can.c ****   ITStatus itstatus = RESET;
1206:../../source/src/FWlib/src/stm32f10x_can.c ****   /* Check the parameters */
1207:../../source/src/FWlib/src/stm32f10x_can.c ****   assert_param(IS_CAN_ALL_PERIPH(CANx));
1208:../../source/src/FWlib/src/stm32f10x_can.c ****   assert_param(IS_CAN_IT(CAN_IT));
1209:../../source/src/FWlib/src/stm32f10x_can.c ****   
1210:../../source/src/FWlib/src/stm32f10x_can.c ****   /* check the enable interrupt bit */
1211:../../source/src/FWlib/src/stm32f10x_can.c ****  if((CANx->IER & CAN_IT) != RESET)
 1605              		.loc 1 1211 0
 1606 0678 4369     		ldr	r3, [r0, #20]
 1607 067a 0B40     		ands	r3, r3, r1
 1608 067c 20D0     		beq	.L197
1212:../../source/src/FWlib/src/stm32f10x_can.c ****  {
1213:../../source/src/FWlib/src/stm32f10x_can.c ****    /* in case the Interrupt is enabled, .... */
1214:../../source/src/FWlib/src/stm32f10x_can.c ****     switch (CAN_IT)
 1609              		.loc 1 1214 0
 1610 067e 4029     		cmp	r1, #64
 1611 0680 5ED0     		beq	.L179
 1612 0682 10D9     		bls	.L198
 1613 0684 B1F5006F 		cmp	r1, #2048
 1614 0688 5ED0     		beq	.L188
 1615 068a 1BD8     		bhi	.L189
 1616 068c B1F5007F 		cmp	r1, #512
 1617 0690 4ED0     		beq	.L190
 1618 0692 B1F5806F 		cmp	r1, #1024
 1619 0696 35D0     		beq	.L191
 1620 0698 B1F5807F 		cmp	r1, #256
 1621 069c 10D1     		bne	.L197
1215:../../source/src/FWlib/src/stm32f10x_can.c ****     {
1216:../../source/src/FWlib/src/stm32f10x_can.c ****       case CAN_IT_TME:
1217:../../source/src/FWlib/src/stm32f10x_can.c ****                /* Check CAN_TSR_RQCPx bits */
1218:../../source/src/FWlib/src/stm32f10x_can.c **** 	             itstatus = CheckITStatus(CANx->TSR, CAN_TSR_RQCP0|CAN_TSR_RQCP1|CAN_TSR_RQCP2);  
1219:../../source/src/FWlib/src/stm32f10x_can.c **** 	      break;
1220:../../source/src/FWlib/src/stm32f10x_can.c ****       case CAN_IT_FMP0:
1221:../../source/src/FWlib/src/stm32f10x_can.c ****                /* Check CAN_RF0R_FMP0 bit */
1222:../../source/src/FWlib/src/stm32f10x_can.c **** 	             itstatus = CheckITStatus(CANx->RF0R, CAN_RF0R_FMP0);  
1223:../../source/src/FWlib/src/stm32f10x_can.c **** 	      break;
1224:../../source/src/FWlib/src/stm32f10x_can.c ****       case CAN_IT_FF0:
1225:../../source/src/FWlib/src/stm32f10x_can.c ****                /* Check CAN_RF0R_FULL0 bit */
1226:../../source/src/FWlib/src/stm32f10x_can.c ****                itstatus = CheckITStatus(CANx->RF0R, CAN_RF0R_FULL0);  
1227:../../source/src/FWlib/src/stm32f10x_can.c **** 	      break;
1228:../../source/src/FWlib/src/stm32f10x_can.c ****       case CAN_IT_FOV0:
1229:../../source/src/FWlib/src/stm32f10x_can.c ****                /* Check CAN_RF0R_FOVR0 bit */
1230:../../source/src/FWlib/src/stm32f10x_can.c ****                itstatus = CheckITStatus(CANx->RF0R, CAN_RF0R_FOVR0);  
1231:../../source/src/FWlib/src/stm32f10x_can.c **** 	      break;
1232:../../source/src/FWlib/src/stm32f10x_can.c ****       case CAN_IT_FMP1:
1233:../../source/src/FWlib/src/stm32f10x_can.c ****                /* Check CAN_RF1R_FMP1 bit */
1234:../../source/src/FWlib/src/stm32f10x_can.c ****                itstatus = CheckITStatus(CANx->RF1R, CAN_RF1R_FMP1);  
ARM GAS  G:\Users\Jaxb\AppData\Local\Temp\cctfzRXv.s 			page 53


1235:../../source/src/FWlib/src/stm32f10x_can.c **** 	      break;
1236:../../source/src/FWlib/src/stm32f10x_can.c ****       case CAN_IT_FF1:
1237:../../source/src/FWlib/src/stm32f10x_can.c ****                /* Check CAN_RF1R_FULL1 bit */
1238:../../source/src/FWlib/src/stm32f10x_can.c **** 	             itstatus = CheckITStatus(CANx->RF1R, CAN_RF1R_FULL1);  
1239:../../source/src/FWlib/src/stm32f10x_can.c **** 	      break;
1240:../../source/src/FWlib/src/stm32f10x_can.c ****       case CAN_IT_FOV1:
1241:../../source/src/FWlib/src/stm32f10x_can.c ****                /* Check CAN_RF1R_FOVR1 bit */
1242:../../source/src/FWlib/src/stm32f10x_can.c **** 	             itstatus = CheckITStatus(CANx->RF1R, CAN_RF1R_FOVR1);  
1243:../../source/src/FWlib/src/stm32f10x_can.c **** 	      break;
1244:../../source/src/FWlib/src/stm32f10x_can.c ****       case CAN_IT_WKU:
1245:../../source/src/FWlib/src/stm32f10x_can.c ****                /* Check CAN_MSR_WKUI bit */
1246:../../source/src/FWlib/src/stm32f10x_can.c ****                itstatus = CheckITStatus(CANx->MSR, CAN_MSR_WKUI);  
1247:../../source/src/FWlib/src/stm32f10x_can.c **** 	      break;
1248:../../source/src/FWlib/src/stm32f10x_can.c ****       case CAN_IT_SLK:
1249:../../source/src/FWlib/src/stm32f10x_can.c ****                /* Check CAN_MSR_SLAKI bit */
1250:../../source/src/FWlib/src/stm32f10x_can.c **** 	             itstatus = CheckITStatus(CANx->MSR, CAN_MSR_SLAKI);  
1251:../../source/src/FWlib/src/stm32f10x_can.c **** 	      break;
1252:../../source/src/FWlib/src/stm32f10x_can.c ****       case CAN_IT_EWG:
1253:../../source/src/FWlib/src/stm32f10x_can.c ****                /* Check CAN_ESR_EWGF bit */
1254:../../source/src/FWlib/src/stm32f10x_can.c **** 	             itstatus = CheckITStatus(CANx->ESR, CAN_ESR_EWGF);  
 1622              		.loc 1 1254 0
 1623 069e 8069     		ldr	r0, [r0, #24]
 1624              	.LVL119:
 1625              	.LBB30:
 1626              	.LBB31:
1255:../../source/src/FWlib/src/stm32f10x_can.c **** 	      break;
1256:../../source/src/FWlib/src/stm32f10x_can.c ****       case CAN_IT_EPV:
1257:../../source/src/FWlib/src/stm32f10x_can.c ****                /* Check CAN_ESR_EPVF bit */
1258:../../source/src/FWlib/src/stm32f10x_can.c **** 	             itstatus = CheckITStatus(CANx->ESR, CAN_ESR_EPVF);  
1259:../../source/src/FWlib/src/stm32f10x_can.c **** 	      break;
1260:../../source/src/FWlib/src/stm32f10x_can.c ****       case CAN_IT_BOF:
1261:../../source/src/FWlib/src/stm32f10x_can.c ****                /* Check CAN_ESR_BOFF bit */
1262:../../source/src/FWlib/src/stm32f10x_can.c **** 	             itstatus = CheckITStatus(CANx->ESR, CAN_ESR_BOFF);  
1263:../../source/src/FWlib/src/stm32f10x_can.c **** 	      break;
1264:../../source/src/FWlib/src/stm32f10x_can.c ****       case CAN_IT_LEC:
1265:../../source/src/FWlib/src/stm32f10x_can.c ****                /* Check CAN_ESR_LEC bit */
1266:../../source/src/FWlib/src/stm32f10x_can.c **** 	             itstatus = CheckITStatus(CANx->ESR, CAN_ESR_LEC);  
1267:../../source/src/FWlib/src/stm32f10x_can.c **** 	      break;
1268:../../source/src/FWlib/src/stm32f10x_can.c ****       case CAN_IT_ERR:
1269:../../source/src/FWlib/src/stm32f10x_can.c ****                /* Check CAN_MSR_ERRI bit */ 
1270:../../source/src/FWlib/src/stm32f10x_can.c ****                itstatus = CheckITStatus(CANx->MSR, CAN_MSR_ERRI); 
1271:../../source/src/FWlib/src/stm32f10x_can.c **** 	      break;
1272:../../source/src/FWlib/src/stm32f10x_can.c ****       default :
1273:../../source/src/FWlib/src/stm32f10x_can.c ****                /* in case of error, return RESET */
1274:../../source/src/FWlib/src/stm32f10x_can.c ****               itstatus = RESET;
1275:../../source/src/FWlib/src/stm32f10x_can.c ****               break;
1276:../../source/src/FWlib/src/stm32f10x_can.c ****     }
1277:../../source/src/FWlib/src/stm32f10x_can.c ****   }
1278:../../source/src/FWlib/src/stm32f10x_can.c ****   else
1279:../../source/src/FWlib/src/stm32f10x_can.c ****   {
1280:../../source/src/FWlib/src/stm32f10x_can.c ****    /* in case the Interrupt is not enabled, return RESET */
1281:../../source/src/FWlib/src/stm32f10x_can.c ****     itstatus  = RESET;
1282:../../source/src/FWlib/src/stm32f10x_can.c ****   }
1283:../../source/src/FWlib/src/stm32f10x_can.c ****   
1284:../../source/src/FWlib/src/stm32f10x_can.c ****   /* Return the CAN_IT status */
1285:../../source/src/FWlib/src/stm32f10x_can.c ****   return  itstatus;
1286:../../source/src/FWlib/src/stm32f10x_can.c **** }
ARM GAS  G:\Users\Jaxb\AppData\Local\Temp\cctfzRXv.s 			page 54


1287:../../source/src/FWlib/src/stm32f10x_can.c **** 
1288:../../source/src/FWlib/src/stm32f10x_can.c **** /**
1289:../../source/src/FWlib/src/stm32f10x_can.c ****   * @brief  Clears the CANx's interrupt pending bits.
1290:../../source/src/FWlib/src/stm32f10x_can.c ****   * @param  CANx:    where x can be 1 or 2 to to select the CAN peripheral.
1291:../../source/src/FWlib/src/stm32f10x_can.c ****   * @param  CAN_IT: specifies the interrupt pending bit to clear.
1292:../../source/src/FWlib/src/stm32f10x_can.c ****   *                  -  CAN_IT_TME                     
1293:../../source/src/FWlib/src/stm32f10x_can.c ****   *                  -  CAN_IT_FF0               
1294:../../source/src/FWlib/src/stm32f10x_can.c ****   *                  -  CAN_IT_FOV0                     
1295:../../source/src/FWlib/src/stm32f10x_can.c ****   *                  -  CAN_IT_FF1               
1296:../../source/src/FWlib/src/stm32f10x_can.c ****   *                  -  CAN_IT_FOV1              
1297:../../source/src/FWlib/src/stm32f10x_can.c ****   *                  -  CAN_IT_WKU  
1298:../../source/src/FWlib/src/stm32f10x_can.c ****   *                  -  CAN_IT_SLK  
1299:../../source/src/FWlib/src/stm32f10x_can.c ****   *                  -  CAN_IT_EWG    
1300:../../source/src/FWlib/src/stm32f10x_can.c ****   *                  -  CAN_IT_EPV    
1301:../../source/src/FWlib/src/stm32f10x_can.c ****   *                  -  CAN_IT_BOF    
1302:../../source/src/FWlib/src/stm32f10x_can.c ****   *                  -  CAN_IT_LEC    
1303:../../source/src/FWlib/src/stm32f10x_can.c ****   *                  -  CAN_IT_ERR 
1304:../../source/src/FWlib/src/stm32f10x_can.c ****   * @retval None.
1305:../../source/src/FWlib/src/stm32f10x_can.c ****   */
1306:../../source/src/FWlib/src/stm32f10x_can.c **** void CAN_ClearITPendingBit(CAN_TypeDef* CANx, uint32_t CAN_IT)
1307:../../source/src/FWlib/src/stm32f10x_can.c **** {
1308:../../source/src/FWlib/src/stm32f10x_can.c ****   /* Check the parameters */
1309:../../source/src/FWlib/src/stm32f10x_can.c ****   assert_param(IS_CAN_ALL_PERIPH(CANx));
1310:../../source/src/FWlib/src/stm32f10x_can.c ****   assert_param(IS_CAN_CLEAR_IT(CAN_IT));
1311:../../source/src/FWlib/src/stm32f10x_can.c **** 
1312:../../source/src/FWlib/src/stm32f10x_can.c ****   switch (CAN_IT)
1313:../../source/src/FWlib/src/stm32f10x_can.c ****   {
1314:../../source/src/FWlib/src/stm32f10x_can.c ****       case CAN_IT_TME:
1315:../../source/src/FWlib/src/stm32f10x_can.c ****               /* Clear CAN_TSR_RQCPx (rc_w1)*/
1316:../../source/src/FWlib/src/stm32f10x_can.c **** 	      CANx->TSR = CAN_TSR_RQCP0|CAN_TSR_RQCP1|CAN_TSR_RQCP2;  
1317:../../source/src/FWlib/src/stm32f10x_can.c **** 	      break;
1318:../../source/src/FWlib/src/stm32f10x_can.c ****       case CAN_IT_FF0:
1319:../../source/src/FWlib/src/stm32f10x_can.c ****               /* Clear CAN_RF0R_FULL0 (rc_w1)*/
1320:../../source/src/FWlib/src/stm32f10x_can.c **** 	      CANx->RF0R = CAN_RF0R_FULL0; 
1321:../../source/src/FWlib/src/stm32f10x_can.c **** 	      break;
1322:../../source/src/FWlib/src/stm32f10x_can.c ****       case CAN_IT_FOV0:
1323:../../source/src/FWlib/src/stm32f10x_can.c ****               /* Clear CAN_RF0R_FOVR0 (rc_w1)*/
1324:../../source/src/FWlib/src/stm32f10x_can.c **** 	      CANx->RF0R = CAN_RF0R_FOVR0; 
1325:../../source/src/FWlib/src/stm32f10x_can.c **** 	      break;
1326:../../source/src/FWlib/src/stm32f10x_can.c ****       case CAN_IT_FF1:
1327:../../source/src/FWlib/src/stm32f10x_can.c ****               /* Clear CAN_RF1R_FULL1 (rc_w1)*/
1328:../../source/src/FWlib/src/stm32f10x_can.c **** 	      CANx->RF1R = CAN_RF1R_FULL1;  
1329:../../source/src/FWlib/src/stm32f10x_can.c **** 	      break;
1330:../../source/src/FWlib/src/stm32f10x_can.c ****       case CAN_IT_FOV1:
1331:../../source/src/FWlib/src/stm32f10x_can.c ****               /* Clear CAN_RF1R_FOVR1 (rc_w1)*/
1332:../../source/src/FWlib/src/stm32f10x_can.c **** 	      CANx->RF1R = CAN_RF1R_FOVR1; 
1333:../../source/src/FWlib/src/stm32f10x_can.c **** 	      break;
1334:../../source/src/FWlib/src/stm32f10x_can.c ****       case CAN_IT_WKU:
1335:../../source/src/FWlib/src/stm32f10x_can.c ****               /* Clear CAN_MSR_WKUI (rc_w1)*/
1336:../../source/src/FWlib/src/stm32f10x_can.c **** 	      CANx->MSR = CAN_MSR_WKUI;  
1337:../../source/src/FWlib/src/stm32f10x_can.c **** 	      break;
1338:../../source/src/FWlib/src/stm32f10x_can.c ****       case CAN_IT_SLK:
1339:../../source/src/FWlib/src/stm32f10x_can.c ****               /* Clear CAN_MSR_SLAKI (rc_w1)*/ 
1340:../../source/src/FWlib/src/stm32f10x_can.c **** 	      CANx->MSR = CAN_MSR_SLAKI;   
1341:../../source/src/FWlib/src/stm32f10x_can.c **** 	      break;
1342:../../source/src/FWlib/src/stm32f10x_can.c ****       case CAN_IT_EWG:
1343:../../source/src/FWlib/src/stm32f10x_can.c ****               /* Clear CAN_MSR_ERRI (rc_w1) */
ARM GAS  G:\Users\Jaxb\AppData\Local\Temp\cctfzRXv.s 			page 55


1344:../../source/src/FWlib/src/stm32f10x_can.c **** 	      CANx->MSR = CAN_MSR_ERRI;
1345:../../source/src/FWlib/src/stm32f10x_can.c ****               /* Note : the corresponding Flag is cleared by hardware depending 
1346:../../source/src/FWlib/src/stm32f10x_can.c ****                         of the CAN Bus status*/ 
1347:../../source/src/FWlib/src/stm32f10x_can.c **** 	      break;
1348:../../source/src/FWlib/src/stm32f10x_can.c ****       case CAN_IT_EPV:
1349:../../source/src/FWlib/src/stm32f10x_can.c ****               /* Clear CAN_MSR_ERRI (rc_w1) */
1350:../../source/src/FWlib/src/stm32f10x_can.c **** 	      CANx->MSR = CAN_MSR_ERRI; 
1351:../../source/src/FWlib/src/stm32f10x_can.c ****               /* Note : the corresponding Flag is cleared by hardware depending 
1352:../../source/src/FWlib/src/stm32f10x_can.c ****                         of the CAN Bus status*/
1353:../../source/src/FWlib/src/stm32f10x_can.c **** 	      break;
1354:../../source/src/FWlib/src/stm32f10x_can.c ****       case CAN_IT_BOF:
1355:../../source/src/FWlib/src/stm32f10x_can.c ****               /* Clear CAN_MSR_ERRI (rc_w1) */ 
1356:../../source/src/FWlib/src/stm32f10x_can.c **** 	      CANx->MSR = CAN_MSR_ERRI; 
1357:../../source/src/FWlib/src/stm32f10x_can.c ****               /* Note : the corresponding Flag is cleared by hardware depending 
1358:../../source/src/FWlib/src/stm32f10x_can.c ****                         of the CAN Bus status*/
1359:../../source/src/FWlib/src/stm32f10x_can.c **** 	      break;
1360:../../source/src/FWlib/src/stm32f10x_can.c ****       case CAN_IT_LEC:
1361:../../source/src/FWlib/src/stm32f10x_can.c ****               /*  Clear LEC bits */
1362:../../source/src/FWlib/src/stm32f10x_can.c **** 	      CANx->ESR = RESET; 
1363:../../source/src/FWlib/src/stm32f10x_can.c ****               /* Clear CAN_MSR_ERRI (rc_w1) */
1364:../../source/src/FWlib/src/stm32f10x_can.c **** 	      CANx->MSR = CAN_MSR_ERRI; 
1365:../../source/src/FWlib/src/stm32f10x_can.c **** 	      break;
1366:../../source/src/FWlib/src/stm32f10x_can.c ****       case CAN_IT_ERR:
1367:../../source/src/FWlib/src/stm32f10x_can.c ****               /*Clear LEC bits */
1368:../../source/src/FWlib/src/stm32f10x_can.c **** 	      CANx->ESR = RESET; 
1369:../../source/src/FWlib/src/stm32f10x_can.c ****               /* Clear CAN_MSR_ERRI (rc_w1) */
1370:../../source/src/FWlib/src/stm32f10x_can.c **** 	      CANx->MSR = CAN_MSR_ERRI; 
1371:../../source/src/FWlib/src/stm32f10x_can.c **** 	      /* Note : BOFF, EPVF and EWGF Flags are cleared by hardware depending 
1372:../../source/src/FWlib/src/stm32f10x_can.c ****                   of the CAN Bus status*/
1373:../../source/src/FWlib/src/stm32f10x_can.c **** 	      break;
1374:../../source/src/FWlib/src/stm32f10x_can.c ****       default :
1375:../../source/src/FWlib/src/stm32f10x_can.c **** 	      break;
1376:../../source/src/FWlib/src/stm32f10x_can.c ****    }
1377:../../source/src/FWlib/src/stm32f10x_can.c **** }
1378:../../source/src/FWlib/src/stm32f10x_can.c **** 
1379:../../source/src/FWlib/src/stm32f10x_can.c **** /**
1380:../../source/src/FWlib/src/stm32f10x_can.c ****   * @brief  Checks whether the CAN interrupt has occurred or not.
1381:../../source/src/FWlib/src/stm32f10x_can.c ****   * @param  CAN_Reg: specifies the CAN interrupt register to check.
1382:../../source/src/FWlib/src/stm32f10x_can.c ****   * @param  It_Bit:  specifies the interrupt source bit to check.
1383:../../source/src/FWlib/src/stm32f10x_can.c ****   * @retval The new state of the CAN Interrupt (SET or RESET).
1384:../../source/src/FWlib/src/stm32f10x_can.c ****   */
1385:../../source/src/FWlib/src/stm32f10x_can.c **** static ITStatus CheckITStatus(uint32_t CAN_Reg, uint32_t It_Bit)
1386:../../source/src/FWlib/src/stm32f10x_can.c **** {
1387:../../source/src/FWlib/src/stm32f10x_can.c ****   ITStatus pendingbitstatus = RESET;
1388:../../source/src/FWlib/src/stm32f10x_can.c ****   
1389:../../source/src/FWlib/src/stm32f10x_can.c ****   if ((CAN_Reg & It_Bit) != (uint32_t)RESET)
1390:../../source/src/FWlib/src/stm32f10x_can.c ****   {
1391:../../source/src/FWlib/src/stm32f10x_can.c ****     /* CAN_IT is set */
1392:../../source/src/FWlib/src/stm32f10x_can.c ****     pendingbitstatus = SET;
1393:../../source/src/FWlib/src/stm32f10x_can.c ****   }
1394:../../source/src/FWlib/src/stm32f10x_can.c ****   else
1395:../../source/src/FWlib/src/stm32f10x_can.c ****   {
1396:../../source/src/FWlib/src/stm32f10x_can.c ****     /* CAN_IT is reset */
1397:../../source/src/FWlib/src/stm32f10x_can.c ****     pendingbitstatus = RESET;
 1627              		.loc 1 1397 0
 1628 06a0 00F00100 		and	r0, r0, #1
 1629              	.LVL120:
ARM GAS  G:\Users\Jaxb\AppData\Local\Temp\cctfzRXv.s 			page 56


 1630 06a4 7047     		bx	lr
 1631              	.LVL121:
 1632              	.L198:
 1633              	.LBE31:
 1634              	.LBE30:
1214:../../source/src/FWlib/src/stm32f10x_can.c ****     {
 1635              		.loc 1 1214 0
 1636 06a6 0429     		cmp	r1, #4
 1637 06a8 30D0     		beq	.L181
 1638 06aa 18D9     		bls	.L199
 1639 06ac 1029     		cmp	r1, #16
 1640 06ae 39D0     		beq	.L185
 1641 06b0 2029     		cmp	r1, #32
 1642 06b2 33D0     		beq	.L186
 1643 06b4 0829     		cmp	r1, #8
 1644 06b6 03D1     		bne	.L197
1230:../../source/src/FWlib/src/stm32f10x_can.c **** 	      break;
 1645              		.loc 1 1230 0
 1646 06b8 C068     		ldr	r0, [r0, #12]
 1647              	.LVL122:
 1648              	.LBB44:
 1649              	.LBB32:
 1650              		.loc 1 1397 0
 1651 06ba C0F30010 		ubfx	r0, r0, #4, #1
 1652              	.LVL123:
 1653 06be 7047     		bx	lr
 1654              	.LVL124:
 1655              	.L197:
 1656              	.LBE32:
 1657              	.LBE44:
1274:../../source/src/FWlib/src/stm32f10x_can.c ****               break;
 1658              		.loc 1 1274 0
 1659 06c0 0020     		movs	r0, #0
 1660              	.LVL125:
1286:../../source/src/FWlib/src/stm32f10x_can.c **** 
 1661              		.loc 1 1286 0
 1662 06c2 7047     		bx	lr
 1663              	.LVL126:
 1664              	.L189:
1214:../../source/src/FWlib/src/stm32f10x_can.c ****     {
 1665              		.loc 1 1214 0
 1666 06c4 B1F5803F 		cmp	r1, #65536
 1667 06c8 36D0     		beq	.L193
 1668 06ca B1F5003F 		cmp	r1, #131072
 1669 06ce 21D0     		beq	.L194
 1670 06d0 B1F5004F 		cmp	r1, #32768
 1671 06d4 F4D1     		bne	.L197
1270:../../source/src/FWlib/src/stm32f10x_can.c **** 	      break;
 1672              		.loc 1 1270 0
 1673 06d6 4068     		ldr	r0, [r0, #4]
 1674              	.LVL127:
 1675              	.LBB45:
 1676              	.LBB33:
 1677              		.loc 1 1397 0
 1678 06d8 C0F38000 		ubfx	r0, r0, #2, #1
 1679              	.LVL128:
 1680 06dc 7047     		bx	lr
ARM GAS  G:\Users\Jaxb\AppData\Local\Temp\cctfzRXv.s 			page 57


 1681              	.LVL129:
 1682              	.L199:
 1683              	.LBE33:
 1684              	.LBE45:
1214:../../source/src/FWlib/src/stm32f10x_can.c ****     {
 1685              		.loc 1 1214 0
 1686 06de 0129     		cmp	r1, #1
 1687 06e0 07D0     		beq	.L183
 1688 06e2 0229     		cmp	r1, #2
 1689 06e4 ECD1     		bne	.L197
1222:../../source/src/FWlib/src/stm32f10x_can.c **** 	      break;
 1690              		.loc 1 1222 0
 1691 06e6 C068     		ldr	r0, [r0, #12]
 1692              	.LVL130:
 1693              	.LBB46:
 1694              	.LBB34:
 1695              		.loc 1 1397 0
 1696 06e8 10F00300 		ands	r0, r0, #3
 1697              	.LVL131:
 1698 06ec 18BF     		it	ne
 1699 06ee 0120     		movne	r0, #1
 1700 06f0 7047     		bx	lr
 1701              	.LVL132:
 1702              	.L183:
 1703              	.LBE34:
 1704              	.LBE46:
1218:../../source/src/FWlib/src/stm32f10x_can.c **** 	      break;
 1705              		.loc 1 1218 0
 1706 06f2 8068     		ldr	r0, [r0, #8]
 1707              	.LVL133:
 1708              	.LBB47:
 1709              	.LBB48:
1389:../../source/src/FWlib/src/stm32f10x_can.c ****   {
 1710              		.loc 1 1389 0
 1711 06f4 00F00130 		and	r0, r0, #16843009
 1712              	.LVL134:
 1713 06f8 20F08070 		bic	r0, r0, #16777216
 1714              	.LBE48:
 1715              	.LBE47:
 1716              	.LBB49:
 1717              	.LBB50:
1392:../../source/src/FWlib/src/stm32f10x_can.c ****   }
 1718              		.loc 1 1392 0
 1719 06fc 0030     		adds	r0, r0, #0
 1720 06fe 18BF     		it	ne
 1721 0700 0120     		movne	r0, #1
 1722 0702 7047     		bx	lr
 1723              	.LVL135:
 1724              	.L191:
 1725              	.LBE50:
 1726              	.LBE49:
1262:../../source/src/FWlib/src/stm32f10x_can.c **** 	      break;
 1727              		.loc 1 1262 0
 1728 0704 8069     		ldr	r0, [r0, #24]
 1729              	.LVL136:
 1730              	.LBB52:
 1731              	.LBB35:
ARM GAS  G:\Users\Jaxb\AppData\Local\Temp\cctfzRXv.s 			page 58


 1732              		.loc 1 1397 0
 1733 0706 C0F38000 		ubfx	r0, r0, #2, #1
 1734              	.LVL137:
 1735 070a 7047     		bx	lr
 1736              	.LVL138:
 1737              	.L181:
 1738              	.LBE35:
 1739              	.LBE52:
1226:../../source/src/FWlib/src/stm32f10x_can.c **** 	      break;
 1740              		.loc 1 1226 0
 1741 070c C068     		ldr	r0, [r0, #12]
 1742              	.LVL139:
 1743              	.LBB53:
 1744              	.LBB36:
 1745              		.loc 1 1397 0
 1746 070e C0F3C000 		ubfx	r0, r0, #3, #1
 1747              	.LVL140:
 1748 0712 7047     		bx	lr
 1749              	.LVL141:
 1750              	.L194:
 1751              	.LBE36:
 1752              	.LBE53:
1250:../../source/src/FWlib/src/stm32f10x_can.c **** 	      break;
 1753              		.loc 1 1250 0
 1754 0714 4068     		ldr	r0, [r0, #4]
 1755              	.LVL142:
 1756              	.LBB54:
 1757              	.LBB37:
 1758              		.loc 1 1397 0
 1759 0716 C0F30010 		ubfx	r0, r0, #4, #1
 1760              	.LVL143:
 1761 071a 7047     		bx	lr
 1762              	.LVL144:
 1763              	.L186:
 1764              	.LBE37:
 1765              	.LBE54:
1238:../../source/src/FWlib/src/stm32f10x_can.c **** 	      break;
 1766              		.loc 1 1238 0
 1767 071c 0069     		ldr	r0, [r0, #16]
 1768              	.LVL145:
 1769              	.LBB55:
 1770              	.LBB38:
 1771              		.loc 1 1397 0
 1772 071e C0F3C000 		ubfx	r0, r0, #3, #1
 1773              	.LVL146:
 1774 0722 7047     		bx	lr
 1775              	.LVL147:
 1776              	.L185:
 1777              	.LBE38:
 1778              	.LBE55:
1234:../../source/src/FWlib/src/stm32f10x_can.c **** 	      break;
 1779              		.loc 1 1234 0
 1780 0724 0069     		ldr	r0, [r0, #16]
 1781              	.LVL148:
 1782              	.LBB56:
 1783              	.LBB39:
 1784              		.loc 1 1397 0
ARM GAS  G:\Users\Jaxb\AppData\Local\Temp\cctfzRXv.s 			page 59


 1785 0726 10F00300 		ands	r0, r0, #3
 1786              	.LVL149:
 1787 072a 18BF     		it	ne
 1788 072c 0120     		movne	r0, #1
 1789 072e 7047     		bx	lr
 1790              	.LVL150:
 1791              	.L190:
 1792              	.LBE39:
 1793              	.LBE56:
1258:../../source/src/FWlib/src/stm32f10x_can.c **** 	      break;
 1794              		.loc 1 1258 0
 1795 0730 8069     		ldr	r0, [r0, #24]
 1796              	.LVL151:
 1797              	.LBB57:
 1798              	.LBB40:
 1799              		.loc 1 1397 0
 1800 0732 C0F34000 		ubfx	r0, r0, #1, #1
 1801              	.LVL152:
 1802 0736 7047     		bx	lr
 1803              	.LVL153:
 1804              	.L193:
 1805              	.LBE40:
 1806              	.LBE57:
1246:../../source/src/FWlib/src/stm32f10x_can.c **** 	      break;
 1807              		.loc 1 1246 0
 1808 0738 4068     		ldr	r0, [r0, #4]
 1809              	.LVL154:
 1810              	.LBB58:
 1811              	.LBB41:
 1812              		.loc 1 1397 0
 1813 073a C0F3C000 		ubfx	r0, r0, #3, #1
 1814              	.LVL155:
 1815 073e 7047     		bx	lr
 1816              	.LVL156:
 1817              	.L179:
 1818              	.LBE41:
 1819              	.LBE58:
1242:../../source/src/FWlib/src/stm32f10x_can.c **** 	      break;
 1820              		.loc 1 1242 0
 1821 0740 0069     		ldr	r0, [r0, #16]
 1822              	.LVL157:
 1823              	.LBB59:
 1824              	.LBB42:
 1825              		.loc 1 1397 0
 1826 0742 C0F30010 		ubfx	r0, r0, #4, #1
 1827              	.LVL158:
 1828 0746 7047     		bx	lr
 1829              	.LVL159:
 1830              	.L188:
 1831              	.LBE42:
 1832              	.LBE59:
1266:../../source/src/FWlib/src/stm32f10x_can.c **** 	      break;
 1833              		.loc 1 1266 0
 1834 0748 8369     		ldr	r3, [r0, #24]
 1835              	.LVL160:
 1836              	.LBB60:
 1837              	.LBB51:
ARM GAS  G:\Users\Jaxb\AppData\Local\Temp\cctfzRXv.s 			page 60


1389:../../source/src/FWlib/src/stm32f10x_can.c ****   {
 1838              		.loc 1 1389 0
 1839 074a 13F0700F 		tst	r3, #112
 1840              	.LBE51:
 1841              	.LBE60:
 1842              	.LBB61:
 1843              	.LBB43:
 1844              		.loc 1 1397 0
 1845 074e 14BF     		ite	ne
 1846 0750 0120     		movne	r0, #1
 1847              	.LVL161:
 1848 0752 0020     		moveq	r0, #0
 1849 0754 7047     		bx	lr
 1850              	.LBE43:
 1851              	.LBE61:
 1852              		.cfi_endproc
 1853              	.LFE51:
 1854              		.size	CAN_GetITStatus, .-CAN_GetITStatus
 1855              		.align	1
 1856 0756 00BF     		.p2align 2,,3
 1857              		.global	CAN_ClearITPendingBit
 1858              		.syntax unified
 1859              		.thumb
 1860              		.thumb_func
 1861              		.fpu softvfp
 1862              		.type	CAN_ClearITPendingBit, %function
 1863              	CAN_ClearITPendingBit:
 1864              	.LFB52:
1307:../../source/src/FWlib/src/stm32f10x_can.c ****   /* Check the parameters */
 1865              		.loc 1 1307 0
 1866              		.cfi_startproc
 1867              		@ args = 0, pretend = 0, frame = 0
 1868              		@ frame_needed = 0, uses_anonymous_args = 0
 1869              		@ link register save eliminated.
 1870              	.LVL162:
1312:../../source/src/FWlib/src/stm32f10x_can.c ****   {
 1871              		.loc 1 1312 0
 1872 0758 B1F5807F 		cmp	r1, #256
 1873 075c 1ED0     		beq	.L213
 1874 075e 0DD9     		bls	.L217
 1875 0760 B1F5006F 		cmp	r1, #2048
 1876 0764 24D0     		beq	.L216
 1877 0766 13D9     		bls	.L218
 1878 0768 B1F5803F 		cmp	r1, #65536
 1879 076c 25D0     		beq	.L214
 1880 076e B1F5003F 		cmp	r1, #131072
 1881 0772 2ED0     		beq	.L215
 1882 0774 B1F5004F 		cmp	r1, #32768
 1883 0778 1AD0     		beq	.L216
1377:../../source/src/FWlib/src/stm32f10x_can.c **** 
 1884              		.loc 1 1377 0
 1885 077a 7047     		bx	lr
 1886              	.L217:
1312:../../source/src/FWlib/src/stm32f10x_can.c ****   {
 1887              		.loc 1 1312 0
 1888 077c 0829     		cmp	r1, #8
 1889 077e 1FD0     		beq	.L204
ARM GAS  G:\Users\Jaxb\AppData\Local\Temp\cctfzRXv.s 			page 61


 1890 0780 0FD9     		bls	.L219
 1891 0782 2029     		cmp	r1, #32
 1892 0784 22D0     		beq	.L208
 1893 0786 4029     		cmp	r1, #64
 1894 0788 27D1     		bne	.L220
1332:../../source/src/FWlib/src/stm32f10x_can.c **** 	      break;
 1895              		.loc 1 1332 0
 1896 078a 1023     		movs	r3, #16
 1897 078c 0361     		str	r3, [r0, #16]
1333:../../source/src/FWlib/src/stm32f10x_can.c ****       case CAN_IT_WKU:
 1898              		.loc 1 1333 0
 1899 078e 7047     		bx	lr
 1900              	.L218:
1312:../../source/src/FWlib/src/stm32f10x_can.c ****   {
 1901              		.loc 1 1312 0
 1902 0790 B1F5007F 		cmp	r1, #512
 1903 0794 02D0     		beq	.L213
 1904 0796 B1F5806F 		cmp	r1, #1024
 1905 079a 1DD1     		bne	.L221
 1906              	.L213:
1356:../../source/src/FWlib/src/stm32f10x_can.c ****               /* Note : the corresponding Flag is cleared by hardware depending 
 1907              		.loc 1 1356 0
 1908 079c 0423     		movs	r3, #4
 1909 079e 4360     		str	r3, [r0, #4]
1359:../../source/src/FWlib/src/stm32f10x_can.c ****       case CAN_IT_LEC:
 1910              		.loc 1 1359 0
 1911 07a0 7047     		bx	lr
 1912              	.L219:
1312:../../source/src/FWlib/src/stm32f10x_can.c ****   {
 1913              		.loc 1 1312 0
 1914 07a2 0129     		cmp	r1, #1
 1915 07a4 0FD0     		beq	.L206
 1916 07a6 0429     		cmp	r1, #4
 1917 07a8 18D1     		bne	.L222
1320:../../source/src/FWlib/src/stm32f10x_can.c **** 	      break;
 1918              		.loc 1 1320 0
 1919 07aa 0823     		movs	r3, #8
 1920 07ac C360     		str	r3, [r0, #12]
1321:../../source/src/FWlib/src/stm32f10x_can.c ****       case CAN_IT_FOV0:
 1921              		.loc 1 1321 0
 1922 07ae 7047     		bx	lr
 1923              	.L216:
1368:../../source/src/FWlib/src/stm32f10x_can.c ****               /* Clear CAN_MSR_ERRI (rc_w1) */
 1924              		.loc 1 1368 0
 1925 07b0 0022     		movs	r2, #0
1370:../../source/src/FWlib/src/stm32f10x_can.c **** 	      /* Note : BOFF, EPVF and EWGF Flags are cleared by hardware depending 
 1926              		.loc 1 1370 0
 1927 07b2 0423     		movs	r3, #4
1368:../../source/src/FWlib/src/stm32f10x_can.c ****               /* Clear CAN_MSR_ERRI (rc_w1) */
 1928              		.loc 1 1368 0
 1929 07b4 8261     		str	r2, [r0, #24]
1370:../../source/src/FWlib/src/stm32f10x_can.c **** 	      /* Note : BOFF, EPVF and EWGF Flags are cleared by hardware depending 
 1930              		.loc 1 1370 0
 1931 07b6 4360     		str	r3, [r0, #4]
1377:../../source/src/FWlib/src/stm32f10x_can.c **** 
 1932              		.loc 1 1377 0
 1933 07b8 7047     		bx	lr
ARM GAS  G:\Users\Jaxb\AppData\Local\Temp\cctfzRXv.s 			page 62


 1934              	.L214:
1336:../../source/src/FWlib/src/stm32f10x_can.c **** 	      break;
 1935              		.loc 1 1336 0
 1936 07ba 0823     		movs	r3, #8
 1937 07bc 4360     		str	r3, [r0, #4]
1337:../../source/src/FWlib/src/stm32f10x_can.c ****       case CAN_IT_SLK:
 1938              		.loc 1 1337 0
 1939 07be 7047     		bx	lr
 1940              	.L204:
1324:../../source/src/FWlib/src/stm32f10x_can.c **** 	      break;
 1941              		.loc 1 1324 0
 1942 07c0 1023     		movs	r3, #16
 1943 07c2 C360     		str	r3, [r0, #12]
1325:../../source/src/FWlib/src/stm32f10x_can.c ****       case CAN_IT_FF1:
 1944              		.loc 1 1325 0
 1945 07c4 7047     		bx	lr
 1946              	.L206:
1316:../../source/src/FWlib/src/stm32f10x_can.c **** 	      break;
 1947              		.loc 1 1316 0
 1948 07c6 064B     		ldr	r3, .L223
 1949 07c8 8360     		str	r3, [r0, #8]
1317:../../source/src/FWlib/src/stm32f10x_can.c ****       case CAN_IT_FF0:
 1950              		.loc 1 1317 0
 1951 07ca 7047     		bx	lr
 1952              	.L208:
1328:../../source/src/FWlib/src/stm32f10x_can.c **** 	      break;
 1953              		.loc 1 1328 0
 1954 07cc 0823     		movs	r3, #8
 1955 07ce 0361     		str	r3, [r0, #16]
1329:../../source/src/FWlib/src/stm32f10x_can.c ****       case CAN_IT_FOV1:
 1956              		.loc 1 1329 0
 1957 07d0 7047     		bx	lr
 1958              	.L215:
1340:../../source/src/FWlib/src/stm32f10x_can.c **** 	      break;
 1959              		.loc 1 1340 0
 1960 07d2 1023     		movs	r3, #16
 1961 07d4 4360     		str	r3, [r0, #4]
1341:../../source/src/FWlib/src/stm32f10x_can.c ****       case CAN_IT_EWG:
 1962              		.loc 1 1341 0
 1963 07d6 7047     		bx	lr
 1964              	.L221:
 1965 07d8 7047     		bx	lr
 1966              	.L220:
 1967 07da 7047     		bx	lr
 1968              	.L222:
 1969 07dc 7047     		bx	lr
 1970              	.L224:
 1971 07de 00BF     		.align	2
 1972              	.L223:
 1973 07e0 01010100 		.word	65793
 1974              		.cfi_endproc
 1975              	.LFE52:
 1976              		.size	CAN_ClearITPendingBit, .-CAN_ClearITPendingBit
 1977              	.Letext0:
 1978              		.file 2 "f:\\arm\\gcc2018\\arm-none-eabi\\include\\machine\\_default_types.h"
 1979              		.file 3 "f:\\arm\\gcc2018\\arm-none-eabi\\include\\sys\\_stdint.h"
 1980              		.file 4 "../../source/include/core_cm3.h"
ARM GAS  G:\Users\Jaxb\AppData\Local\Temp\cctfzRXv.s 			page 63


 1981              		.file 5 "../../source/include/system_stm32f10x.h"
 1982              		.file 6 "../../source/include/stm32f10x.h"
 1983              		.file 7 "../../source/src/FWlib/inc/stm32f10x_can.h"
 1984              		.file 8 "../../source/src/FWlib/inc/stm32f10x_rcc.h"
 1985              		.section	.debug_info,"",%progbits
 1986              	.Ldebug_info0:
 1987 0000 800D0000 		.4byte	0xd80
 1988 0004 0200     		.2byte	0x2
 1989 0006 00000000 		.4byte	.Ldebug_abbrev0
 1990 000a 04       		.byte	0x4
 1991 000b 01       		.uleb128 0x1
 1992 000c CE030000 		.4byte	.LASF130
 1993 0010 0C       		.byte	0xc
 1994 0011 4B050000 		.4byte	.LASF131
 1995 0015 49000000 		.4byte	.LASF132
 1996 0019 00000000 		.4byte	.Ltext0
 1997 001d E4070000 		.4byte	.Letext0
 1998 0021 00000000 		.4byte	.Ldebug_line0
 1999 0025 02       		.uleb128 0x2
 2000 0026 01       		.byte	0x1
 2001 0027 06       		.byte	0x6
 2002 0028 1A070000 		.4byte	.LASF0
 2003 002c 03       		.uleb128 0x3
 2004 002d 25060000 		.4byte	.LASF3
 2005 0031 02       		.byte	0x2
 2006 0032 2B       		.byte	0x2b
 2007 0033 37000000 		.4byte	0x37
 2008 0037 02       		.uleb128 0x2
 2009 0038 01       		.byte	0x1
 2010 0039 08       		.byte	0x8
 2011 003a A3060000 		.4byte	.LASF1
 2012 003e 02       		.uleb128 0x2
 2013 003f 02       		.byte	0x2
 2014 0040 05       		.byte	0x5
 2015 0041 8A050000 		.4byte	.LASF2
 2016 0045 03       		.uleb128 0x3
 2017 0046 F8010000 		.4byte	.LASF4
 2018 004a 02       		.byte	0x2
 2019 004b 39       		.byte	0x39
 2020 004c 50000000 		.4byte	0x50
 2021 0050 02       		.uleb128 0x2
 2022 0051 02       		.byte	0x2
 2023 0052 07       		.byte	0x7
 2024 0053 2B070000 		.4byte	.LASF5
 2025 0057 02       		.uleb128 0x2
 2026 0058 04       		.byte	0x4
 2027 0059 05       		.byte	0x5
 2028 005a 94050000 		.4byte	.LASF6
 2029 005e 03       		.uleb128 0x3
 2030 005f D2060000 		.4byte	.LASF7
 2031 0063 02       		.byte	0x2
 2032 0064 4F       		.byte	0x4f
 2033 0065 69000000 		.4byte	0x69
 2034 0069 02       		.uleb128 0x2
 2035 006a 04       		.byte	0x4
 2036 006b 07       		.byte	0x7
 2037 006c 50060000 		.4byte	.LASF8
ARM GAS  G:\Users\Jaxb\AppData\Local\Temp\cctfzRXv.s 			page 64


 2038 0070 02       		.uleb128 0x2
 2039 0071 08       		.byte	0x8
 2040 0072 05       		.byte	0x5
 2041 0073 AE030000 		.4byte	.LASF9
 2042 0077 02       		.uleb128 0x2
 2043 0078 08       		.byte	0x8
 2044 0079 07       		.byte	0x7
 2045 007a B7010000 		.4byte	.LASF10
 2046 007e 04       		.uleb128 0x4
 2047 007f 04       		.byte	0x4
 2048 0080 05       		.byte	0x5
 2049 0081 696E7400 		.ascii	"int\000"
 2050 0085 05       		.uleb128 0x5
 2051 0086 7E000000 		.4byte	0x7e
 2052 008a 02       		.uleb128 0x2
 2053 008b 04       		.byte	0x4
 2054 008c 07       		.byte	0x7
 2055 008d BA000000 		.4byte	.LASF11
 2056 0091 03       		.uleb128 0x3
 2057 0092 26030000 		.4byte	.LASF12
 2058 0096 03       		.byte	0x3
 2059 0097 18       		.byte	0x18
 2060 0098 2C000000 		.4byte	0x2c
 2061 009c 03       		.uleb128 0x3
 2062 009d E3040000 		.4byte	.LASF13
 2063 00a1 03       		.byte	0x3
 2064 00a2 24       		.byte	0x24
 2065 00a3 45000000 		.4byte	0x45
 2066 00a7 03       		.uleb128 0x3
 2067 00a8 41010000 		.4byte	.LASF14
 2068 00ac 03       		.byte	0x3
 2069 00ad 30       		.byte	0x30
 2070 00ae 5E000000 		.4byte	0x5e
 2071 00b2 05       		.uleb128 0x5
 2072 00b3 A7000000 		.4byte	0xa7
 2073 00b7 06       		.uleb128 0x6
 2074 00b8 B8050000 		.4byte	.LASF15
 2075 00bc 04       		.byte	0x4
 2076 00bd CE06     		.2byte	0x6ce
 2077 00bf 85000000 		.4byte	0x85
 2078 00c3 01       		.byte	0x1
 2079 00c4 01       		.byte	0x1
 2080 00c5 07       		.uleb128 0x7
 2081 00c6 10000000 		.4byte	.LASF16
 2082 00ca 05       		.byte	0x5
 2083 00cb 35       		.byte	0x35
 2084 00cc A7000000 		.4byte	0xa7
 2085 00d0 01       		.byte	0x1
 2086 00d1 01       		.byte	0x1
 2087 00d2 08       		.uleb128 0x8
 2088 00d3 07       		.byte	0x7
 2089 00d4 01       		.byte	0x1
 2090 00d5 37000000 		.4byte	0x37
 2091 00d9 06       		.byte	0x6
 2092 00da 0702     		.2byte	0x207
 2093 00dc ED000000 		.4byte	0xed
 2094 00e0 09       		.uleb128 0x9
ARM GAS  G:\Users\Jaxb\AppData\Local\Temp\cctfzRXv.s 			page 65


 2095 00e1 E5050000 		.4byte	.LASF17
 2096 00e5 00       		.byte	0
 2097 00e6 0A       		.uleb128 0xa
 2098 00e7 53455400 		.ascii	"SET\000"
 2099 00eb 01       		.byte	0x1
 2100 00ec 00       		.byte	0
 2101 00ed 0B       		.uleb128 0xb
 2102 00ee EB000000 		.4byte	.LASF18
 2103 00f2 06       		.byte	0x6
 2104 00f3 0702     		.2byte	0x207
 2105 00f5 D2000000 		.4byte	0xd2
 2106 00f9 0B       		.uleb128 0xb
 2107 00fa 90020000 		.4byte	.LASF19
 2108 00fe 06       		.byte	0x6
 2109 00ff 0702     		.2byte	0x207
 2110 0101 D2000000 		.4byte	0xd2
 2111 0105 08       		.uleb128 0x8
 2112 0106 07       		.byte	0x7
 2113 0107 01       		.byte	0x1
 2114 0108 37000000 		.4byte	0x37
 2115 010c 06       		.byte	0x6
 2116 010d 0902     		.2byte	0x209
 2117 010f 20010000 		.4byte	0x120
 2118 0113 09       		.uleb128 0x9
 2119 0114 FA020000 		.4byte	.LASF20
 2120 0118 00       		.byte	0
 2121 0119 09       		.uleb128 0x9
 2122 011a 44060000 		.4byte	.LASF21
 2123 011e 01       		.byte	0x1
 2124 011f 00       		.byte	0
 2125 0120 0B       		.uleb128 0xb
 2126 0121 C7000000 		.4byte	.LASF22
 2127 0125 06       		.byte	0x6
 2128 0126 0902     		.2byte	0x209
 2129 0128 05010000 		.4byte	0x105
 2130 012c 0C       		.uleb128 0xc
 2131 012d 10       		.byte	0x10
 2132 012e 06       		.byte	0x6
 2133 012f 9D02     		.2byte	0x29d
 2134 0131 72010000 		.4byte	0x172
 2135 0135 0D       		.uleb128 0xd
 2136 0136 54495200 		.ascii	"TIR\000"
 2137 013a 06       		.byte	0x6
 2138 013b 9F02     		.2byte	0x29f
 2139 013d B2000000 		.4byte	0xb2
 2140 0141 02       		.byte	0x2
 2141 0142 23       		.byte	0x23
 2142 0143 00       		.uleb128 0
 2143 0144 0E       		.uleb128 0xe
 2144 0145 DE040000 		.4byte	.LASF23
 2145 0149 06       		.byte	0x6
 2146 014a A002     		.2byte	0x2a0
 2147 014c B2000000 		.4byte	0xb2
 2148 0150 02       		.byte	0x2
 2149 0151 23       		.byte	0x23
 2150 0152 04       		.uleb128 0x4
 2151 0153 0E       		.uleb128 0xe
ARM GAS  G:\Users\Jaxb\AppData\Local\Temp\cctfzRXv.s 			page 66


 2152 0154 B5000000 		.4byte	.LASF24
 2153 0158 06       		.byte	0x6
 2154 0159 A102     		.2byte	0x2a1
 2155 015b B2000000 		.4byte	0xb2
 2156 015f 02       		.byte	0x2
 2157 0160 23       		.byte	0x23
 2158 0161 08       		.uleb128 0x8
 2159 0162 0E       		.uleb128 0xe
 2160 0163 7D060000 		.4byte	.LASF25
 2161 0167 06       		.byte	0x6
 2162 0168 A202     		.2byte	0x2a2
 2163 016a B2000000 		.4byte	0xb2
 2164 016e 02       		.byte	0x2
 2165 016f 23       		.byte	0x23
 2166 0170 0C       		.uleb128 0xc
 2167 0171 00       		.byte	0
 2168 0172 0B       		.uleb128 0xb
 2169 0173 35030000 		.4byte	.LASF26
 2170 0177 06       		.byte	0x6
 2171 0178 A302     		.2byte	0x2a3
 2172 017a 2C010000 		.4byte	0x12c
 2173 017e 0C       		.uleb128 0xc
 2174 017f 10       		.byte	0x10
 2175 0180 06       		.byte	0x6
 2176 0181 A902     		.2byte	0x2a9
 2177 0183 C4010000 		.4byte	0x1c4
 2178 0187 0D       		.uleb128 0xd
 2179 0188 52495200 		.ascii	"RIR\000"
 2180 018c 06       		.byte	0x6
 2181 018d AB02     		.2byte	0x2ab
 2182 018f B2000000 		.4byte	0xb2
 2183 0193 02       		.byte	0x2
 2184 0194 23       		.byte	0x23
 2185 0195 00       		.uleb128 0
 2186 0196 0E       		.uleb128 0xe
 2187 0197 21030000 		.4byte	.LASF27
 2188 019b 06       		.byte	0x6
 2189 019c AC02     		.2byte	0x2ac
 2190 019e B2000000 		.4byte	0xb2
 2191 01a2 02       		.byte	0x2
 2192 01a3 23       		.byte	0x23
 2193 01a4 04       		.uleb128 0x4
 2194 01a5 0E       		.uleb128 0xe
 2195 01a6 26070000 		.4byte	.LASF28
 2196 01aa 06       		.byte	0x6
 2197 01ab AD02     		.2byte	0x2ad
 2198 01ad B2000000 		.4byte	0xb2
 2199 01b1 02       		.byte	0x2
 2200 01b2 23       		.byte	0x23
 2201 01b3 08       		.uleb128 0x8
 2202 01b4 0E       		.uleb128 0xe
 2203 01b5 12050000 		.4byte	.LASF29
 2204 01b9 06       		.byte	0x6
 2205 01ba AE02     		.2byte	0x2ae
 2206 01bc B2000000 		.4byte	0xb2
 2207 01c0 02       		.byte	0x2
 2208 01c1 23       		.byte	0x23
ARM GAS  G:\Users\Jaxb\AppData\Local\Temp\cctfzRXv.s 			page 67


 2209 01c2 0C       		.uleb128 0xc
 2210 01c3 00       		.byte	0
 2211 01c4 0B       		.uleb128 0xb
 2212 01c5 82060000 		.4byte	.LASF30
 2213 01c9 06       		.byte	0x6
 2214 01ca AF02     		.2byte	0x2af
 2215 01cc 7E010000 		.4byte	0x17e
 2216 01d0 0C       		.uleb128 0xc
 2217 01d1 08       		.byte	0x8
 2218 01d2 06       		.byte	0x6
 2219 01d3 B502     		.2byte	0x2b5
 2220 01d5 F8010000 		.4byte	0x1f8
 2221 01d9 0D       		.uleb128 0xd
 2222 01da 46523100 		.ascii	"FR1\000"
 2223 01de 06       		.byte	0x6
 2224 01df B702     		.2byte	0x2b7
 2225 01e1 B2000000 		.4byte	0xb2
 2226 01e5 02       		.byte	0x2
 2227 01e6 23       		.byte	0x23
 2228 01e7 00       		.uleb128 0
 2229 01e8 0D       		.uleb128 0xd
 2230 01e9 46523200 		.ascii	"FR2\000"
 2231 01ed 06       		.byte	0x6
 2232 01ee B802     		.2byte	0x2b8
 2233 01f0 B2000000 		.4byte	0xb2
 2234 01f4 02       		.byte	0x2
 2235 01f5 23       		.byte	0x23
 2236 01f6 04       		.uleb128 0x4
 2237 01f7 00       		.byte	0
 2238 01f8 0B       		.uleb128 0xb
 2239 01f9 62060000 		.4byte	.LASF31
 2240 01fd 06       		.byte	0x6
 2241 01fe B902     		.2byte	0x2b9
 2242 0200 D0010000 		.4byte	0x1d0
 2243 0204 0F       		.uleb128 0xf
 2244 0205 B002     		.2byte	0x2b0
 2245 0207 06       		.byte	0x6
 2246 0208 BF02     		.2byte	0x2bf
 2247 020a 66030000 		.4byte	0x366
 2248 020e 0D       		.uleb128 0xd
 2249 020f 4D435200 		.ascii	"MCR\000"
 2250 0213 06       		.byte	0x6
 2251 0214 C102     		.2byte	0x2c1
 2252 0216 B2000000 		.4byte	0xb2
 2253 021a 02       		.byte	0x2
 2254 021b 23       		.byte	0x23
 2255 021c 00       		.uleb128 0
 2256 021d 0D       		.uleb128 0xd
 2257 021e 4D535200 		.ascii	"MSR\000"
 2258 0222 06       		.byte	0x6
 2259 0223 C202     		.2byte	0x2c2
 2260 0225 B2000000 		.4byte	0xb2
 2261 0229 02       		.byte	0x2
 2262 022a 23       		.byte	0x23
 2263 022b 04       		.uleb128 0x4
 2264 022c 0D       		.uleb128 0xd
 2265 022d 54535200 		.ascii	"TSR\000"
ARM GAS  G:\Users\Jaxb\AppData\Local\Temp\cctfzRXv.s 			page 68


 2266 0231 06       		.byte	0x6
 2267 0232 C302     		.2byte	0x2c3
 2268 0234 B2000000 		.4byte	0xb2
 2269 0238 02       		.byte	0x2
 2270 0239 23       		.byte	0x23
 2271 023a 08       		.uleb128 0x8
 2272 023b 0E       		.uleb128 0xe
 2273 023c 0F070000 		.4byte	.LASF32
 2274 0240 06       		.byte	0x6
 2275 0241 C402     		.2byte	0x2c4
 2276 0243 B2000000 		.4byte	0xb2
 2277 0247 02       		.byte	0x2
 2278 0248 23       		.byte	0x23
 2279 0249 0C       		.uleb128 0xc
 2280 024a 0E       		.uleb128 0xe
 2281 024b 47070000 		.4byte	.LASF33
 2282 024f 06       		.byte	0x6
 2283 0250 C502     		.2byte	0x2c5
 2284 0252 B2000000 		.4byte	0xb2
 2285 0256 02       		.byte	0x2
 2286 0257 23       		.byte	0x23
 2287 0258 10       		.uleb128 0x10
 2288 0259 0D       		.uleb128 0xd
 2289 025a 49455200 		.ascii	"IER\000"
 2290 025e 06       		.byte	0x6
 2291 025f C602     		.2byte	0x2c6
 2292 0261 B2000000 		.4byte	0xb2
 2293 0265 02       		.byte	0x2
 2294 0266 23       		.byte	0x23
 2295 0267 14       		.uleb128 0x14
 2296 0268 0D       		.uleb128 0xd
 2297 0269 45535200 		.ascii	"ESR\000"
 2298 026d 06       		.byte	0x6
 2299 026e C702     		.2byte	0x2c7
 2300 0270 B2000000 		.4byte	0xb2
 2301 0274 02       		.byte	0x2
 2302 0275 23       		.byte	0x23
 2303 0276 18       		.uleb128 0x18
 2304 0277 0D       		.uleb128 0xd
 2305 0278 42545200 		.ascii	"BTR\000"
 2306 027c 06       		.byte	0x6
 2307 027d C802     		.2byte	0x2c8
 2308 027f B2000000 		.4byte	0xb2
 2309 0283 02       		.byte	0x2
 2310 0284 23       		.byte	0x23
 2311 0285 1C       		.uleb128 0x1c
 2312 0286 0E       		.uleb128 0xe
 2313 0287 2D050000 		.4byte	.LASF34
 2314 028b 06       		.byte	0x6
 2315 028c C902     		.2byte	0x2c9
 2316 028e 66030000 		.4byte	0x366
 2317 0292 02       		.byte	0x2
 2318 0293 23       		.byte	0x23
 2319 0294 20       		.uleb128 0x20
 2320 0295 0E       		.uleb128 0xe
 2321 0296 E0000000 		.4byte	.LASF35
 2322 029a 06       		.byte	0x6
ARM GAS  G:\Users\Jaxb\AppData\Local\Temp\cctfzRXv.s 			page 69


 2323 029b CA02     		.2byte	0x2ca
 2324 029d 76030000 		.4byte	0x376
 2325 02a1 03       		.byte	0x3
 2326 02a2 23       		.byte	0x23
 2327 02a3 8003     		.uleb128 0x180
 2328 02a5 0E       		.uleb128 0xe
 2329 02a6 7E030000 		.4byte	.LASF36
 2330 02aa 06       		.byte	0x6
 2331 02ab CB02     		.2byte	0x2cb
 2332 02ad 86030000 		.4byte	0x386
 2333 02b1 03       		.byte	0x3
 2334 02b2 23       		.byte	0x23
 2335 02b3 B003     		.uleb128 0x1b0
 2336 02b5 0E       		.uleb128 0xe
 2337 02b6 37050000 		.4byte	.LASF37
 2338 02ba 06       		.byte	0x6
 2339 02bb CC02     		.2byte	0x2cc
 2340 02bd 96030000 		.4byte	0x396
 2341 02c1 03       		.byte	0x3
 2342 02c2 23       		.byte	0x23
 2343 02c3 D003     		.uleb128 0x1d0
 2344 02c5 0D       		.uleb128 0xd
 2345 02c6 464D5200 		.ascii	"FMR\000"
 2346 02ca 06       		.byte	0x6
 2347 02cb CD02     		.2byte	0x2cd
 2348 02cd B2000000 		.4byte	0xb2
 2349 02d1 03       		.byte	0x3
 2350 02d2 23       		.byte	0x23
 2351 02d3 8004     		.uleb128 0x200
 2352 02d5 0E       		.uleb128 0xe
 2353 02d6 4B060000 		.4byte	.LASF38
 2354 02da 06       		.byte	0x6
 2355 02db CE02     		.2byte	0x2ce
 2356 02dd B2000000 		.4byte	0xb2
 2357 02e1 03       		.byte	0x3
 2358 02e2 23       		.byte	0x23
 2359 02e3 8404     		.uleb128 0x204
 2360 02e5 0E       		.uleb128 0xe
 2361 02e6 41050000 		.4byte	.LASF39
 2362 02ea 06       		.byte	0x6
 2363 02eb CF02     		.2byte	0x2cf
 2364 02ed A7000000 		.4byte	0xa7
 2365 02f1 03       		.byte	0x3
 2366 02f2 23       		.byte	0x23
 2367 02f3 8804     		.uleb128 0x208
 2368 02f5 0E       		.uleb128 0xe
 2369 02f6 21010000 		.4byte	.LASF40
 2370 02fa 06       		.byte	0x6
 2371 02fb D002     		.2byte	0x2d0
 2372 02fd B2000000 		.4byte	0xb2
 2373 0301 03       		.byte	0x3
 2374 0302 23       		.byte	0x23
 2375 0303 8C04     		.uleb128 0x20c
 2376 0305 0E       		.uleb128 0xe
 2377 0306 7F010000 		.4byte	.LASF41
 2378 030a 06       		.byte	0x6
 2379 030b D102     		.2byte	0x2d1
ARM GAS  G:\Users\Jaxb\AppData\Local\Temp\cctfzRXv.s 			page 70


 2380 030d A7000000 		.4byte	0xa7
 2381 0311 03       		.byte	0x3
 2382 0312 23       		.byte	0x23
 2383 0313 9004     		.uleb128 0x210
 2384 0315 0E       		.uleb128 0xe
 2385 0316 20000000 		.4byte	.LASF42
 2386 031a 06       		.byte	0x6
 2387 031b D202     		.2byte	0x2d2
 2388 031d B2000000 		.4byte	0xb2
 2389 0321 03       		.byte	0x3
 2390 0322 23       		.byte	0x23
 2391 0323 9404     		.uleb128 0x214
 2392 0325 0E       		.uleb128 0xe
 2393 0326 76050000 		.4byte	.LASF43
 2394 032a 06       		.byte	0x6
 2395 032b D302     		.2byte	0x2d3
 2396 032d A7000000 		.4byte	0xa7
 2397 0331 03       		.byte	0x3
 2398 0332 23       		.byte	0x23
 2399 0333 9804     		.uleb128 0x218
 2400 0335 0E       		.uleb128 0xe
 2401 0336 26000000 		.4byte	.LASF44
 2402 033a 06       		.byte	0x6
 2403 033b D402     		.2byte	0x2d4
 2404 033d B2000000 		.4byte	0xb2
 2405 0341 03       		.byte	0x3
 2406 0342 23       		.byte	0x23
 2407 0343 9C04     		.uleb128 0x21c
 2408 0345 0E       		.uleb128 0xe
 2409 0346 80050000 		.4byte	.LASF45
 2410 034a 06       		.byte	0x6
 2411 034b D502     		.2byte	0x2d5
 2412 034d A6030000 		.4byte	0x3a6
 2413 0351 03       		.byte	0x3
 2414 0352 23       		.byte	0x23
 2415 0353 A004     		.uleb128 0x220
 2416 0355 0E       		.uleb128 0xe
 2417 0356 26010000 		.4byte	.LASF46
 2418 035a 06       		.byte	0x6
 2419 035b D702     		.2byte	0x2d7
 2420 035d B6030000 		.4byte	0x3b6
 2421 0361 03       		.byte	0x3
 2422 0362 23       		.byte	0x23
 2423 0363 C004     		.uleb128 0x240
 2424 0365 00       		.byte	0
 2425 0366 10       		.uleb128 0x10
 2426 0367 A7000000 		.4byte	0xa7
 2427 036b 76030000 		.4byte	0x376
 2428 036f 11       		.uleb128 0x11
 2429 0370 8A000000 		.4byte	0x8a
 2430 0374 57       		.byte	0x57
 2431 0375 00       		.byte	0
 2432 0376 10       		.uleb128 0x10
 2433 0377 72010000 		.4byte	0x172
 2434 037b 86030000 		.4byte	0x386
 2435 037f 11       		.uleb128 0x11
 2436 0380 8A000000 		.4byte	0x8a
ARM GAS  G:\Users\Jaxb\AppData\Local\Temp\cctfzRXv.s 			page 71


 2437 0384 02       		.byte	0x2
 2438 0385 00       		.byte	0
 2439 0386 10       		.uleb128 0x10
 2440 0387 C4010000 		.4byte	0x1c4
 2441 038b 96030000 		.4byte	0x396
 2442 038f 11       		.uleb128 0x11
 2443 0390 8A000000 		.4byte	0x8a
 2444 0394 01       		.byte	0x1
 2445 0395 00       		.byte	0
 2446 0396 10       		.uleb128 0x10
 2447 0397 A7000000 		.4byte	0xa7
 2448 039b A6030000 		.4byte	0x3a6
 2449 039f 11       		.uleb128 0x11
 2450 03a0 8A000000 		.4byte	0x8a
 2451 03a4 0B       		.byte	0xb
 2452 03a5 00       		.byte	0
 2453 03a6 10       		.uleb128 0x10
 2454 03a7 A7000000 		.4byte	0xa7
 2455 03ab B6030000 		.4byte	0x3b6
 2456 03af 11       		.uleb128 0x11
 2457 03b0 8A000000 		.4byte	0x8a
 2458 03b4 07       		.byte	0x7
 2459 03b5 00       		.byte	0
 2460 03b6 10       		.uleb128 0x10
 2461 03b7 F8010000 		.4byte	0x1f8
 2462 03bb C6030000 		.4byte	0x3c6
 2463 03bf 11       		.uleb128 0x11
 2464 03c0 8A000000 		.4byte	0x8a
 2465 03c4 0D       		.byte	0xd
 2466 03c5 00       		.byte	0
 2467 03c6 0B       		.uleb128 0xb
 2468 03c7 AB040000 		.4byte	.LASF47
 2469 03cb 06       		.byte	0x6
 2470 03cc DB02     		.2byte	0x2db
 2471 03ce 04020000 		.4byte	0x204
 2472 03d2 12       		.uleb128 0x12
 2473 03d3 0C       		.byte	0xc
 2474 03d4 07       		.byte	0x7
 2475 03d5 35       		.byte	0x35
 2476 03d6 75040000 		.4byte	0x475
 2477 03da 13       		.uleb128 0x13
 2478 03db 1F050000 		.4byte	.LASF48
 2479 03df 07       		.byte	0x7
 2480 03e0 37       		.byte	0x37
 2481 03e1 9C000000 		.4byte	0x9c
 2482 03e5 02       		.byte	0x2
 2483 03e6 23       		.byte	0x23
 2484 03e7 00       		.uleb128 0
 2485 03e8 13       		.uleb128 0x13
 2486 03e9 03020000 		.4byte	.LASF49
 2487 03ed 07       		.byte	0x7
 2488 03ee 3A       		.byte	0x3a
 2489 03ef 91000000 		.4byte	0x91
 2490 03f3 02       		.byte	0x2
 2491 03f4 23       		.byte	0x23
 2492 03f5 02       		.uleb128 0x2
 2493 03f6 13       		.uleb128 0x13
ARM GAS  G:\Users\Jaxb\AppData\Local\Temp\cctfzRXv.s 			page 72


 2494 03f7 11060000 		.4byte	.LASF50
 2495 03fb 07       		.byte	0x7
 2496 03fc 3E       		.byte	0x3e
 2497 03fd 91000000 		.4byte	0x91
 2498 0401 02       		.byte	0x2
 2499 0402 23       		.byte	0x23
 2500 0403 03       		.uleb128 0x3
 2501 0404 13       		.uleb128 0x13
 2502 0405 82040000 		.4byte	.LASF51
 2503 0409 07       		.byte	0x7
 2504 040a 44       		.byte	0x44
 2505 040b 91000000 		.4byte	0x91
 2506 040f 02       		.byte	0x2
 2507 0410 23       		.byte	0x23
 2508 0411 04       		.uleb128 0x4
 2509 0412 13       		.uleb128 0x13
 2510 0413 8A040000 		.4byte	.LASF52
 2511 0417 07       		.byte	0x7
 2512 0418 48       		.byte	0x48
 2513 0419 91000000 		.4byte	0x91
 2514 041d 02       		.byte	0x2
 2515 041e 23       		.byte	0x23
 2516 041f 05       		.uleb128 0x5
 2517 0420 13       		.uleb128 0x13
 2518 0421 02030000 		.4byte	.LASF53
 2519 0425 07       		.byte	0x7
 2520 0426 4D       		.byte	0x4d
 2521 0427 20010000 		.4byte	0x120
 2522 042b 02       		.byte	0x2
 2523 042c 23       		.byte	0x23
 2524 042d 06       		.uleb128 0x6
 2525 042e 13       		.uleb128 0x13
 2526 042f D7000000 		.4byte	.LASF54
 2527 0433 07       		.byte	0x7
 2528 0434 51       		.byte	0x51
 2529 0435 20010000 		.4byte	0x120
 2530 0439 02       		.byte	0x2
 2531 043a 23       		.byte	0x23
 2532 043b 07       		.uleb128 0x7
 2533 043c 13       		.uleb128 0x13
 2534 043d 9A060000 		.4byte	.LASF55
 2535 0441 07       		.byte	0x7
 2536 0442 55       		.byte	0x55
 2537 0443 20010000 		.4byte	0x120
 2538 0447 02       		.byte	0x2
 2539 0448 23       		.byte	0x23
 2540 0449 08       		.uleb128 0x8
 2541 044a 13       		.uleb128 0x13
 2542 044b F1020000 		.4byte	.LASF56
 2543 044f 07       		.byte	0x7
 2544 0450 59       		.byte	0x59
 2545 0451 20010000 		.4byte	0x120
 2546 0455 02       		.byte	0x2
 2547 0456 23       		.byte	0x23
 2548 0457 09       		.uleb128 0x9
 2549 0458 13       		.uleb128 0x13
 2550 0459 2D020000 		.4byte	.LASF57
ARM GAS  G:\Users\Jaxb\AppData\Local\Temp\cctfzRXv.s 			page 73


 2551 045d 07       		.byte	0x7
 2552 045e 5D       		.byte	0x5d
 2553 045f 20010000 		.4byte	0x120
 2554 0463 02       		.byte	0x2
 2555 0464 23       		.byte	0x23
 2556 0465 0A       		.uleb128 0xa
 2557 0466 13       		.uleb128 0x13
 2558 0467 4A010000 		.4byte	.LASF58
 2559 046b 07       		.byte	0x7
 2560 046c 61       		.byte	0x61
 2561 046d 20010000 		.4byte	0x120
 2562 0471 02       		.byte	0x2
 2563 0472 23       		.byte	0x23
 2564 0473 0B       		.uleb128 0xb
 2565 0474 00       		.byte	0
 2566 0475 03       		.uleb128 0x3
 2567 0476 0C020000 		.4byte	.LASF59
 2568 047a 07       		.byte	0x7
 2569 047b 64       		.byte	0x64
 2570 047c D2030000 		.4byte	0x3d2
 2571 0480 12       		.uleb128 0x12
 2572 0481 0E       		.byte	0xe
 2573 0482 07       		.byte	0x7
 2574 0483 6A       		.byte	0x6a
 2575 0484 07050000 		.4byte	0x507
 2576 0488 13       		.uleb128 0x13
 2577 0489 54020000 		.4byte	.LASF60
 2578 048d 07       		.byte	0x7
 2579 048e 6C       		.byte	0x6c
 2580 048f 9C000000 		.4byte	0x9c
 2581 0493 02       		.byte	0x2
 2582 0494 23       		.byte	0x23
 2583 0495 00       		.uleb128 0
 2584 0496 13       		.uleb128 0x13
 2585 0497 EC040000 		.4byte	.LASF61
 2586 049b 07       		.byte	0x7
 2587 049c 70       		.byte	0x70
 2588 049d 9C000000 		.4byte	0x9c
 2589 04a1 02       		.byte	0x2
 2590 04a2 23       		.byte	0x23
 2591 04a3 02       		.uleb128 0x2
 2592 04a4 13       		.uleb128 0x13
 2593 04a5 A8020000 		.4byte	.LASF62
 2594 04a9 07       		.byte	0x7
 2595 04aa 74       		.byte	0x74
 2596 04ab 9C000000 		.4byte	0x9c
 2597 04af 02       		.byte	0x2
 2598 04b0 23       		.byte	0x23
 2599 04b1 04       		.uleb128 0x4
 2600 04b2 13       		.uleb128 0x13
 2601 04b3 DD020000 		.4byte	.LASF63
 2602 04b7 07       		.byte	0x7
 2603 04b8 79       		.byte	0x79
 2604 04b9 9C000000 		.4byte	0x9c
 2605 04bd 02       		.byte	0x2
 2606 04be 23       		.byte	0x23
 2607 04bf 06       		.uleb128 0x6
ARM GAS  G:\Users\Jaxb\AppData\Local\Temp\cctfzRXv.s 			page 74


 2608 04c0 13       		.uleb128 0x13
 2609 04c1 92040000 		.4byte	.LASF64
 2610 04c5 07       		.byte	0x7
 2611 04c6 7E       		.byte	0x7e
 2612 04c7 9C000000 		.4byte	0x9c
 2613 04cb 02       		.byte	0x2
 2614 04cc 23       		.byte	0x23
 2615 04cd 08       		.uleb128 0x8
 2616 04ce 13       		.uleb128 0x13
 2617 04cf DD060000 		.4byte	.LASF65
 2618 04d3 07       		.byte	0x7
 2619 04d4 81       		.byte	0x81
 2620 04d5 91000000 		.4byte	0x91
 2621 04d9 02       		.byte	0x2
 2622 04da 23       		.byte	0x23
 2623 04db 0A       		.uleb128 0xa
 2624 04dc 13       		.uleb128 0x13
 2625 04dd 99020000 		.4byte	.LASF66
 2626 04e1 07       		.byte	0x7
 2627 04e2 83       		.byte	0x83
 2628 04e3 91000000 		.4byte	0x91
 2629 04e7 02       		.byte	0x2
 2630 04e8 23       		.byte	0x23
 2631 04e9 0B       		.uleb128 0xb
 2632 04ea 13       		.uleb128 0x13
 2633 04eb 9D050000 		.4byte	.LASF67
 2634 04ef 07       		.byte	0x7
 2635 04f0 86       		.byte	0x86
 2636 04f1 91000000 		.4byte	0x91
 2637 04f5 02       		.byte	0x2
 2638 04f6 23       		.byte	0x23
 2639 04f7 0C       		.uleb128 0xc
 2640 04f8 13       		.uleb128 0x13
 2641 04f9 B7040000 		.4byte	.LASF68
 2642 04fd 07       		.byte	0x7
 2643 04fe 89       		.byte	0x89
 2644 04ff 20010000 		.4byte	0x120
 2645 0503 02       		.byte	0x2
 2646 0504 23       		.byte	0x23
 2647 0505 0D       		.uleb128 0xd
 2648 0506 00       		.byte	0
 2649 0507 03       		.uleb128 0x3
 2650 0508 36020000 		.4byte	.LASF69
 2651 050c 07       		.byte	0x7
 2652 050d 8B       		.byte	0x8b
 2653 050e 80040000 		.4byte	0x480
 2654 0512 12       		.uleb128 0x12
 2655 0513 14       		.byte	0x14
 2656 0514 07       		.byte	0x7
 2657 0515 91       		.byte	0x91
 2658 0516 6F050000 		.4byte	0x56f
 2659 051a 13       		.uleb128 0x13
 2660 051b BC030000 		.4byte	.LASF70
 2661 051f 07       		.byte	0x7
 2662 0520 93       		.byte	0x93
 2663 0521 A7000000 		.4byte	0xa7
 2664 0525 02       		.byte	0x2
ARM GAS  G:\Users\Jaxb\AppData\Local\Temp\cctfzRXv.s 			page 75


 2665 0526 23       		.byte	0x23
 2666 0527 00       		.uleb128 0
 2667 0528 13       		.uleb128 0x13
 2668 0529 34000000 		.4byte	.LASF71
 2669 052d 07       		.byte	0x7
 2670 052e 96       		.byte	0x96
 2671 052f A7000000 		.4byte	0xa7
 2672 0533 02       		.byte	0x2
 2673 0534 23       		.byte	0x23
 2674 0535 04       		.uleb128 0x4
 2675 0536 14       		.uleb128 0x14
 2676 0537 49444500 		.ascii	"IDE\000"
 2677 053b 07       		.byte	0x7
 2678 053c 99       		.byte	0x99
 2679 053d 91000000 		.4byte	0x91
 2680 0541 02       		.byte	0x2
 2681 0542 23       		.byte	0x23
 2682 0543 08       		.uleb128 0x8
 2683 0544 14       		.uleb128 0x14
 2684 0545 52545200 		.ascii	"RTR\000"
 2685 0549 07       		.byte	0x7
 2686 054a 9D       		.byte	0x9d
 2687 054b 91000000 		.4byte	0x91
 2688 054f 02       		.byte	0x2
 2689 0550 23       		.byte	0x23
 2690 0551 09       		.uleb128 0x9
 2691 0552 14       		.uleb128 0x14
 2692 0553 444C4300 		.ascii	"DLC\000"
 2693 0557 07       		.byte	0x7
 2694 0558 A1       		.byte	0xa1
 2695 0559 91000000 		.4byte	0x91
 2696 055d 02       		.byte	0x2
 2697 055e 23       		.byte	0x23
 2698 055f 0A       		.uleb128 0xa
 2699 0560 13       		.uleb128 0x13
 2700 0561 70070000 		.4byte	.LASF72
 2701 0565 07       		.byte	0x7
 2702 0566 A5       		.byte	0xa5
 2703 0567 6F050000 		.4byte	0x56f
 2704 056b 02       		.byte	0x2
 2705 056c 23       		.byte	0x23
 2706 056d 0B       		.uleb128 0xb
 2707 056e 00       		.byte	0
 2708 056f 10       		.uleb128 0x10
 2709 0570 91000000 		.4byte	0x91
 2710 0574 7F050000 		.4byte	0x57f
 2711 0578 11       		.uleb128 0x11
 2712 0579 8A000000 		.4byte	0x8a
 2713 057d 07       		.byte	0x7
 2714 057e 00       		.byte	0
 2715 057f 03       		.uleb128 0x3
 2716 0580 09050000 		.4byte	.LASF73
 2717 0584 07       		.byte	0x7
 2718 0585 A7       		.byte	0xa7
 2719 0586 12050000 		.4byte	0x512
 2720 058a 12       		.uleb128 0x12
 2721 058b 14       		.byte	0x14
ARM GAS  G:\Users\Jaxb\AppData\Local\Temp\cctfzRXv.s 			page 76


 2722 058c 07       		.byte	0x7
 2723 058d AD       		.byte	0xad
 2724 058e F5050000 		.4byte	0x5f5
 2725 0592 13       		.uleb128 0x13
 2726 0593 BC030000 		.4byte	.LASF70
 2727 0597 07       		.byte	0x7
 2728 0598 AF       		.byte	0xaf
 2729 0599 A7000000 		.4byte	0xa7
 2730 059d 02       		.byte	0x2
 2731 059e 23       		.byte	0x23
 2732 059f 00       		.uleb128 0
 2733 05a0 13       		.uleb128 0x13
 2734 05a1 34000000 		.4byte	.LASF71
 2735 05a5 07       		.byte	0x7
 2736 05a6 B2       		.byte	0xb2
 2737 05a7 A7000000 		.4byte	0xa7
 2738 05ab 02       		.byte	0x2
 2739 05ac 23       		.byte	0x23
 2740 05ad 04       		.uleb128 0x4
 2741 05ae 14       		.uleb128 0x14
 2742 05af 49444500 		.ascii	"IDE\000"
 2743 05b3 07       		.byte	0x7
 2744 05b4 B5       		.byte	0xb5
 2745 05b5 91000000 		.4byte	0x91
 2746 05b9 02       		.byte	0x2
 2747 05ba 23       		.byte	0x23
 2748 05bb 08       		.uleb128 0x8
 2749 05bc 14       		.uleb128 0x14
 2750 05bd 52545200 		.ascii	"RTR\000"
 2751 05c1 07       		.byte	0x7
 2752 05c2 B9       		.byte	0xb9
 2753 05c3 91000000 		.4byte	0x91
 2754 05c7 02       		.byte	0x2
 2755 05c8 23       		.byte	0x23
 2756 05c9 09       		.uleb128 0x9
 2757 05ca 14       		.uleb128 0x14
 2758 05cb 444C4300 		.ascii	"DLC\000"
 2759 05cf 07       		.byte	0x7
 2760 05d0 BD       		.byte	0xbd
 2761 05d1 91000000 		.4byte	0x91
 2762 05d5 02       		.byte	0x2
 2763 05d6 23       		.byte	0x23
 2764 05d7 0A       		.uleb128 0xa
 2765 05d8 13       		.uleb128 0x13
 2766 05d9 70070000 		.4byte	.LASF72
 2767 05dd 07       		.byte	0x7
 2768 05de C0       		.byte	0xc0
 2769 05df 6F050000 		.4byte	0x56f
 2770 05e3 02       		.byte	0x2
 2771 05e4 23       		.byte	0x23
 2772 05e5 0B       		.uleb128 0xb
 2773 05e6 14       		.uleb128 0x14
 2774 05e7 464D4900 		.ascii	"FMI\000"
 2775 05eb 07       		.byte	0x7
 2776 05ec C3       		.byte	0xc3
 2777 05ed 91000000 		.4byte	0x91
 2778 05f1 02       		.byte	0x2
ARM GAS  G:\Users\Jaxb\AppData\Local\Temp\cctfzRXv.s 			page 77


 2779 05f2 23       		.byte	0x23
 2780 05f3 13       		.uleb128 0x13
 2781 05f4 00       		.byte	0
 2782 05f5 03       		.uleb128 0x3
 2783 05f6 65020000 		.4byte	.LASF74
 2784 05fa 07       		.byte	0x7
 2785 05fb C6       		.byte	0xc6
 2786 05fc 8A050000 		.4byte	0x58a
 2787 0600 15       		.uleb128 0x15
 2788 0601 C5050000 		.4byte	.LASF133
 2789 0605 01       		.byte	0x1
 2790 0606 6905     		.2byte	0x569
 2791 0608 01       		.byte	0x1
 2792 0609 F9000000 		.4byte	0xf9
 2793 060d 01       		.byte	0x1
 2794 060e 37060000 		.4byte	0x637
 2795 0612 16       		.uleb128 0x16
 2796 0613 F6000000 		.4byte	.LASF75
 2797 0617 01       		.byte	0x1
 2798 0618 6905     		.2byte	0x569
 2799 061a A7000000 		.4byte	0xa7
 2800 061e 16       		.uleb128 0x16
 2801 061f 78010000 		.4byte	.LASF76
 2802 0623 01       		.byte	0x1
 2803 0624 6905     		.2byte	0x569
 2804 0626 A7000000 		.4byte	0xa7
 2805 062a 17       		.uleb128 0x17
 2806 062b 1C020000 		.4byte	.LASF134
 2807 062f 01       		.byte	0x1
 2808 0630 6B05     		.2byte	0x56b
 2809 0632 F9000000 		.4byte	0xf9
 2810 0636 00       		.byte	0
 2811 0637 18       		.uleb128 0x18
 2812 0638 01       		.byte	0x1
 2813 0639 62010000 		.4byte	.LASF79
 2814 063d 01       		.byte	0x1
 2815 063e 1A05     		.2byte	0x51a
 2816 0640 01       		.byte	0x1
 2817 0641 58070000 		.4byte	.LFB52
 2818 0645 E4070000 		.4byte	.LFE52
 2819 0649 02       		.byte	0x2
 2820 064a 7D       		.byte	0x7d
 2821 064b 00       		.sleb128 0
 2822 064c 01       		.byte	0x1
 2823 064d 6E060000 		.4byte	0x66e
 2824 0651 19       		.uleb128 0x19
 2825 0652 A8010000 		.4byte	.LASF77
 2826 0656 01       		.byte	0x1
 2827 0657 1A05     		.2byte	0x51a
 2828 0659 6E060000 		.4byte	0x66e
 2829 065d 01       		.byte	0x1
 2830 065e 50       		.byte	0x50
 2831 065f 19       		.uleb128 0x19
 2832 0660 69070000 		.4byte	.LASF78
 2833 0664 01       		.byte	0x1
 2834 0665 1A05     		.2byte	0x51a
 2835 0667 A7000000 		.4byte	0xa7
ARM GAS  G:\Users\Jaxb\AppData\Local\Temp\cctfzRXv.s 			page 78


 2836 066b 01       		.byte	0x1
 2837 066c 51       		.byte	0x51
 2838 066d 00       		.byte	0
 2839 066e 1A       		.uleb128 0x1a
 2840 066f 04       		.byte	0x4
 2841 0670 C6030000 		.4byte	0x3c6
 2842 0674 1B       		.uleb128 0x1b
 2843 0675 01       		.byte	0x1
 2844 0676 8B030000 		.4byte	.LASF84
 2845 067a 01       		.byte	0x1
 2846 067b B304     		.2byte	0x4b3
 2847 067d 01       		.byte	0x1
 2848 067e F9000000 		.4byte	0xf9
 2849 0682 78060000 		.4byte	.LFB51
 2850 0686 56070000 		.4byte	.LFE51
 2851 068a 02       		.byte	0x2
 2852 068b 7D       		.byte	0x7d
 2853 068c 00       		.sleb128 0
 2854 068d 01       		.byte	0x1
 2855 068e 5B070000 		.4byte	0x75b
 2856 0692 1C       		.uleb128 0x1c
 2857 0693 A8010000 		.4byte	.LASF77
 2858 0697 01       		.byte	0x1
 2859 0698 B304     		.2byte	0x4b3
 2860 069a 6E060000 		.4byte	0x66e
 2861 069e 00000000 		.4byte	.LLST37
 2862 06a2 19       		.uleb128 0x19
 2863 06a3 69070000 		.4byte	.LASF78
 2864 06a7 01       		.byte	0x1
 2865 06a8 B304     		.2byte	0x4b3
 2866 06aa A7000000 		.4byte	0xa7
 2867 06ae 01       		.byte	0x1
 2868 06af 51       		.byte	0x51
 2869 06b0 1D       		.uleb128 0x1d
 2870 06b1 DE010000 		.4byte	.LASF82
 2871 06b5 01       		.byte	0x1
 2872 06b6 B504     		.2byte	0x4b5
 2873 06b8 F9000000 		.4byte	0xf9
 2874 06bc 7F010000 		.4byte	.LLST38
 2875 06c0 1E       		.uleb128 0x1e
 2876 06c1 00060000 		.4byte	0x600
 2877 06c5 A0060000 		.4byte	.LBB30
 2878 06c9 00000000 		.4byte	.Ldebug_ranges0+0
 2879 06cd 01       		.byte	0x1
 2880 06ce C604     		.2byte	0x4c6
 2881 06d0 F6060000 		.4byte	0x6f6
 2882 06d4 1F       		.uleb128 0x1f
 2883 06d5 1E060000 		.4byte	0x61e
 2884 06d9 AA010000 		.4byte	.LLST39
 2885 06dd 1F       		.uleb128 0x1f
 2886 06de 12060000 		.4byte	0x612
 2887 06e2 BE010000 		.4byte	.LLST40
 2888 06e6 20       		.uleb128 0x20
 2889 06e7 00000000 		.4byte	.Ldebug_ranges0+0
 2890 06eb 21       		.uleb128 0x21
 2891 06ec 2A060000 		.4byte	0x62a
 2892 06f0 D1010000 		.4byte	.LLST41
ARM GAS  G:\Users\Jaxb\AppData\Local\Temp\cctfzRXv.s 			page 79


 2893 06f4 00       		.byte	0
 2894 06f5 00       		.byte	0
 2895 06f6 22       		.uleb128 0x22
 2896 06f7 00060000 		.4byte	0x600
 2897 06fb F4060000 		.4byte	.LBB47
 2898 06ff FC060000 		.4byte	.LBE47
 2899 0703 01       		.byte	0x1
 2900 0704 C204     		.2byte	0x4c2
 2901 0706 30070000 		.4byte	0x730
 2902 070a 1F       		.uleb128 0x1f
 2903 070b 1E060000 		.4byte	0x61e
 2904 070f E5010000 		.4byte	.LLST42
 2905 0713 1F       		.uleb128 0x1f
 2906 0714 12060000 		.4byte	0x612
 2907 0718 FD010000 		.4byte	.LLST43
 2908 071c 23       		.uleb128 0x23
 2909 071d F4060000 		.4byte	.LBB48
 2910 0721 FC060000 		.4byte	.LBE48
 2911 0725 21       		.uleb128 0x21
 2912 0726 2A060000 		.4byte	0x62a
 2913 072a 10020000 		.4byte	.LLST44
 2914 072e 00       		.byte	0
 2915 072f 00       		.byte	0
 2916 0730 24       		.uleb128 0x24
 2917 0731 00060000 		.4byte	0x600
 2918 0735 FC060000 		.4byte	.LBB49
 2919 0739 70000000 		.4byte	.Ldebug_ranges0+0x70
 2920 073d 01       		.byte	0x1
 2921 073e F204     		.2byte	0x4f2
 2922 0740 25       		.uleb128 0x25
 2923 0741 1E060000 		.4byte	0x61e
 2924 0745 70       		.byte	0x70
 2925 0746 26       		.uleb128 0x26
 2926 0747 12060000 		.4byte	0x612
 2927 074b 01       		.byte	0x1
 2928 074c 53       		.byte	0x53
 2929 074d 20       		.uleb128 0x20
 2930 074e 70000000 		.4byte	.Ldebug_ranges0+0x70
 2931 0752 27       		.uleb128 0x27
 2932 0753 2A060000 		.4byte	0x62a
 2933 0757 00       		.byte	0
 2934 0758 00       		.byte	0
 2935 0759 00       		.byte	0
 2936 075a 00       		.byte	0
 2937 075b 18       		.uleb128 0x18
 2938 075c 01       		.byte	0x1
 2939 075d 01070000 		.4byte	.LASF80
 2940 0761 01       		.byte	0x1
 2941 0762 7704     		.2byte	0x477
 2942 0764 01       		.byte	0x1
 2943 0765 48060000 		.4byte	.LFB50
 2944 0769 78060000 		.4byte	.LFE50
 2945 076d 02       		.byte	0x2
 2946 076e 7D       		.byte	0x7d
 2947 076f 00       		.sleb128 0
 2948 0770 01       		.byte	0x1
 2949 0771 A2070000 		.4byte	0x7a2
ARM GAS  G:\Users\Jaxb\AppData\Local\Temp\cctfzRXv.s 			page 80


 2950 0775 19       		.uleb128 0x19
 2951 0776 A8010000 		.4byte	.LASF77
 2952 077a 01       		.byte	0x1
 2953 077b 7704     		.2byte	0x477
 2954 077d 6E060000 		.4byte	0x66e
 2955 0781 01       		.byte	0x1
 2956 0782 50       		.byte	0x50
 2957 0783 19       		.uleb128 0x19
 2958 0784 2B000000 		.4byte	.LASF81
 2959 0788 01       		.byte	0x1
 2960 0789 7704     		.2byte	0x477
 2961 078b A7000000 		.4byte	0xa7
 2962 078f 01       		.byte	0x1
 2963 0790 51       		.byte	0x51
 2964 0791 1D       		.uleb128 0x1d
 2965 0792 17050000 		.4byte	.LASF83
 2966 0796 01       		.byte	0x1
 2967 0797 7904     		.2byte	0x479
 2968 0799 A7000000 		.4byte	0xa7
 2969 079d 24020000 		.4byte	.LLST36
 2970 07a1 00       		.byte	0
 2971 07a2 1B       		.uleb128 0x1b
 2972 07a3 01       		.byte	0x1
 2973 07a4 D3050000 		.4byte	.LASF85
 2974 07a8 01       		.byte	0x1
 2975 07a9 1304     		.2byte	0x413
 2976 07ab 01       		.byte	0x1
 2977 07ac ED000000 		.4byte	0xed
 2978 07b0 F4050000 		.4byte	.LFB49
 2979 07b4 48060000 		.4byte	.LFE49
 2980 07b8 02       		.byte	0x2
 2981 07b9 7D       		.byte	0x7d
 2982 07ba 00       		.sleb128 0
 2983 07bb 01       		.byte	0x1
 2984 07bc EF070000 		.4byte	0x7ef
 2985 07c0 1C       		.uleb128 0x1c
 2986 07c1 A8010000 		.4byte	.LASF77
 2987 07c5 01       		.byte	0x1
 2988 07c6 1304     		.2byte	0x413
 2989 07c8 6E060000 		.4byte	0x66e
 2990 07cc 5A020000 		.4byte	.LLST34
 2991 07d0 19       		.uleb128 0x19
 2992 07d1 2B000000 		.4byte	.LASF81
 2993 07d5 01       		.byte	0x1
 2994 07d6 1304     		.2byte	0x413
 2995 07d8 A7000000 		.4byte	0xa7
 2996 07dc 01       		.byte	0x1
 2997 07dd 51       		.byte	0x51
 2998 07de 1D       		.uleb128 0x1d
 2999 07df 4C070000 		.4byte	.LASF86
 3000 07e3 01       		.byte	0x1
 3001 07e4 1504     		.2byte	0x415
 3002 07e6 ED000000 		.4byte	0xed
 3003 07ea C6020000 		.4byte	.LLST35
 3004 07ee 00       		.byte	0
 3005 07ef 18       		.uleb128 0x18
 3006 07f0 01       		.byte	0x1
ARM GAS  G:\Users\Jaxb\AppData\Local\Temp\cctfzRXv.s 			page 81


 3007 07f1 BD020000 		.4byte	.LASF87
 3008 07f5 01       		.byte	0x1
 3009 07f6 EB03     		.2byte	0x3eb
 3010 07f8 01       		.byte	0x1
 3011 07f9 E0050000 		.4byte	.LFB48
 3012 07fd F2050000 		.4byte	.LFE48
 3013 0801 02       		.byte	0x2
 3014 0802 7D       		.byte	0x7d
 3015 0803 00       		.sleb128 0
 3016 0804 01       		.byte	0x1
 3017 0805 36080000 		.4byte	0x836
 3018 0809 19       		.uleb128 0x19
 3019 080a A8010000 		.4byte	.LASF77
 3020 080e 01       		.byte	0x1
 3021 080f EB03     		.2byte	0x3eb
 3022 0811 6E060000 		.4byte	0x66e
 3023 0815 01       		.byte	0x1
 3024 0816 50       		.byte	0x50
 3025 0817 1C       		.uleb128 0x1c
 3026 0818 69070000 		.4byte	.LASF78
 3027 081c 01       		.byte	0x1
 3028 081d EB03     		.2byte	0x3eb
 3029 081f A7000000 		.4byte	0xa7
 3030 0823 E5020000 		.4byte	.LLST33
 3031 0827 19       		.uleb128 0x19
 3032 0828 D4020000 		.4byte	.LASF88
 3033 082c 01       		.byte	0x1
 3034 082d EB03     		.2byte	0x3eb
 3035 082f 20010000 		.4byte	0x120
 3036 0833 01       		.byte	0x1
 3037 0834 52       		.byte	0x52
 3038 0835 00       		.byte	0
 3039 0836 1B       		.uleb128 0x1b
 3040 0837 01       		.byte	0x1
 3041 0838 89010000 		.4byte	.LASF89
 3042 083c 01       		.byte	0x1
 3043 083d C603     		.2byte	0x3c6
 3044 083f 01       		.byte	0x1
 3045 0840 91000000 		.4byte	0x91
 3046 0844 D8050000 		.4byte	.LFB47
 3047 0848 E0050000 		.4byte	.LFE47
 3048 084c 02       		.byte	0x2
 3049 084d 7D       		.byte	0x7d
 3050 084e 00       		.sleb128 0
 3051 084f 01       		.byte	0x1
 3052 0850 75080000 		.4byte	0x875
 3053 0854 1C       		.uleb128 0x1c
 3054 0855 A8010000 		.4byte	.LASF77
 3055 0859 01       		.byte	0x1
 3056 085a C603     		.2byte	0x3c6
 3057 085c 6E060000 		.4byte	0x66e
 3058 0860 1F030000 		.4byte	.LLST31
 3059 0864 1D       		.uleb128 0x1d
 3060 0865 4C020000 		.4byte	.LASF90
 3061 0869 01       		.byte	0x1
 3062 086a C803     		.2byte	0x3c8
 3063 086c 91000000 		.4byte	0x91
ARM GAS  G:\Users\Jaxb\AppData\Local\Temp\cctfzRXv.s 			page 82


 3064 0870 40030000 		.4byte	.LLST32
 3065 0874 00       		.byte	0
 3066 0875 1B       		.uleb128 0x1b
 3067 0876 01       		.byte	0x1
 3068 0877 06010000 		.4byte	.LASF91
 3069 087b 01       		.byte	0x1
 3070 087c B203     		.2byte	0x3b2
 3071 087e 01       		.byte	0x1
 3072 087f 91000000 		.4byte	0x91
 3073 0883 D0050000 		.4byte	.LFB46
 3074 0887 D6050000 		.4byte	.LFE46
 3075 088b 02       		.byte	0x2
 3076 088c 7D       		.byte	0x7d
 3077 088d 00       		.sleb128 0
 3078 088e 01       		.byte	0x1
 3079 088f B4080000 		.4byte	0x8b4
 3080 0893 1C       		.uleb128 0x1c
 3081 0894 A8010000 		.4byte	.LASF77
 3082 0898 01       		.byte	0x1
 3083 0899 B203     		.2byte	0x3b2
 3084 089b 6E060000 		.4byte	0x66e
 3085 089f 63030000 		.4byte	.LLST29
 3086 08a3 1D       		.uleb128 0x1d
 3087 08a4 4C020000 		.4byte	.LASF90
 3088 08a8 01       		.byte	0x1
 3089 08a9 B403     		.2byte	0x3b4
 3090 08ab 91000000 		.4byte	0x91
 3091 08af 84030000 		.4byte	.LLST30
 3092 08b3 00       		.byte	0
 3093 08b4 1B       		.uleb128 0x1b
 3094 08b5 01       		.byte	0x1
 3095 08b6 6E020000 		.4byte	.LASF92
 3096 08ba 01       		.byte	0x1
 3097 08bb 9A03     		.2byte	0x39a
 3098 08bd 01       		.byte	0x1
 3099 08be 91000000 		.4byte	0x91
 3100 08c2 C8050000 		.4byte	.LFB45
 3101 08c6 D0050000 		.4byte	.LFE45
 3102 08ca 02       		.byte	0x2
 3103 08cb 7D       		.byte	0x7d
 3104 08cc 00       		.sleb128 0
 3105 08cd 01       		.byte	0x1
 3106 08ce F3080000 		.4byte	0x8f3
 3107 08d2 1C       		.uleb128 0x1c
 3108 08d3 A8010000 		.4byte	.LASF77
 3109 08d7 01       		.byte	0x1
 3110 08d8 9A03     		.2byte	0x39a
 3111 08da 6E060000 		.4byte	0x66e
 3112 08de A7030000 		.4byte	.LLST27
 3113 08e2 1D       		.uleb128 0x1d
 3114 08e3 AD010000 		.4byte	.LASF93
 3115 08e7 01       		.byte	0x1
 3116 08e8 9C03     		.2byte	0x39c
 3117 08ea 91000000 		.4byte	0x91
 3118 08ee C8030000 		.4byte	.LLST28
 3119 08f2 00       		.byte	0
 3120 08f3 1B       		.uleb128 0x1b
ARM GAS  G:\Users\Jaxb\AppData\Local\Temp\cctfzRXv.s 			page 83


 3121 08f4 01       		.byte	0x1
 3122 08f5 5A030000 		.4byte	.LASF94
 3123 08f9 01       		.byte	0x1
 3124 08fa 7203     		.2byte	0x372
 3125 08fc 01       		.byte	0x1
 3126 08fd 91000000 		.4byte	0x91
 3127 0901 9C050000 		.4byte	.LFB44
 3128 0905 C6050000 		.4byte	.LFE44
 3129 0909 02       		.byte	0x2
 3130 090a 7D       		.byte	0x7d
 3131 090b 00       		.sleb128 0
 3132 090c 01       		.byte	0x1
 3133 090d 42090000 		.4byte	0x942
 3134 0911 1C       		.uleb128 0x1c
 3135 0912 A8010000 		.4byte	.LASF77
 3136 0916 01       		.byte	0x1
 3137 0917 7203     		.2byte	0x372
 3138 0919 6E060000 		.4byte	0x66e
 3139 091d EC030000 		.4byte	.LLST24
 3140 0921 1D       		.uleb128 0x1d
 3141 0922 EB050000 		.4byte	.LASF95
 3142 0926 01       		.byte	0x1
 3143 0927 7403     		.2byte	0x374
 3144 0929 A7000000 		.4byte	0xa7
 3145 092d 0D040000 		.4byte	.LLST25
 3146 0931 1D       		.uleb128 0x1d
 3147 0932 83020000 		.4byte	.LASF96
 3148 0936 01       		.byte	0x1
 3149 0937 7503     		.2byte	0x375
 3150 0939 91000000 		.4byte	0x91
 3151 093d 48040000 		.4byte	.LLST26
 3152 0941 00       		.byte	0
 3153 0942 1B       		.uleb128 0x1b
 3154 0943 01       		.byte	0x1
 3155 0944 9A000000 		.4byte	.LASF97
 3156 0948 01       		.byte	0x1
 3157 0949 5803     		.2byte	0x358
 3158 094b 01       		.byte	0x1
 3159 094c 91000000 		.4byte	0x91
 3160 0950 7C050000 		.4byte	.LFB43
 3161 0954 9A050000 		.4byte	.LFE43
 3162 0958 02       		.byte	0x2
 3163 0959 7D       		.byte	0x7d
 3164 095a 00       		.sleb128 0
 3165 095b 01       		.byte	0x1
 3166 095c 81090000 		.4byte	0x981
 3167 0960 1C       		.uleb128 0x1c
 3168 0961 A8010000 		.4byte	.LASF77
 3169 0965 01       		.byte	0x1
 3170 0966 5803     		.2byte	0x358
 3171 0968 6E060000 		.4byte	0x66e
 3172 096c 7F040000 		.4byte	.LLST22
 3173 0970 1D       		.uleb128 0x1d
 3174 0971 C2030000 		.4byte	.LASF98
 3175 0975 01       		.byte	0x1
 3176 0976 5A03     		.2byte	0x35a
 3177 0978 91000000 		.4byte	0x91
ARM GAS  G:\Users\Jaxb\AppData\Local\Temp\cctfzRXv.s 			page 84


 3178 097c A0040000 		.4byte	.LLST23
 3179 0980 00       		.byte	0
 3180 0981 1B       		.uleb128 0x1b
 3181 0982 01       		.byte	0x1
 3182 0983 65030000 		.4byte	.LASF99
 3183 0987 01       		.byte	0x1
 3184 0988 0603     		.2byte	0x306
 3185 098a 01       		.byte	0x1
 3186 098b 91000000 		.4byte	0x91
 3187 098f C8040000 		.4byte	.LFB42
 3188 0993 7A050000 		.4byte	.LFE42
 3189 0997 02       		.byte	0x2
 3190 0998 7D       		.byte	0x7d
 3191 0999 00       		.sleb128 0
 3192 099a 01       		.byte	0x1
 3193 099b E0090000 		.4byte	0x9e0
 3194 099f 1C       		.uleb128 0x1c
 3195 09a0 A8010000 		.4byte	.LASF77
 3196 09a4 01       		.byte	0x1
 3197 09a5 0603     		.2byte	0x306
 3198 09a7 6E060000 		.4byte	0x66e
 3199 09ab C5040000 		.4byte	.LLST18
 3200 09af 1C       		.uleb128 0x1c
 3201 09b0 CC040000 		.4byte	.LASF100
 3202 09b4 01       		.byte	0x1
 3203 09b5 0603     		.2byte	0x306
 3204 09b7 91000000 		.4byte	0x91
 3205 09bb 31050000 		.4byte	.LLST19
 3206 09bf 1D       		.uleb128 0x1d
 3207 09c0 2E030000 		.4byte	.LASF101
 3208 09c4 01       		.byte	0x1
 3209 09c5 0803     		.2byte	0x308
 3210 09c7 91000000 		.4byte	0x91
 3211 09cb 5D050000 		.4byte	.LLST20
 3212 09cf 1D       		.uleb128 0x1d
 3213 09d0 F9060000 		.4byte	.LASF102
 3214 09d4 01       		.byte	0x1
 3215 09d5 0B03     		.2byte	0x30b
 3216 09d7 A7000000 		.4byte	0xa7
 3217 09db 88050000 		.4byte	.LLST21
 3218 09df 00       		.byte	0
 3219 09e0 1B       		.uleb128 0x1b
 3220 09e1 01       		.byte	0x1
 3221 09e2 77000000 		.4byte	.LASF103
 3222 09e6 01       		.byte	0x1
 3223 09e7 E702     		.2byte	0x2e7
 3224 09e9 01       		.byte	0x1
 3225 09ea 91000000 		.4byte	0x91
 3226 09ee B0040000 		.4byte	.LFB41
 3227 09f2 C8040000 		.4byte	.LFE41
 3228 09f6 02       		.byte	0x2
 3229 09f7 7D       		.byte	0x7d
 3230 09f8 00       		.sleb128 0
 3231 09f9 01       		.byte	0x1
 3232 09fa 2D0A0000 		.4byte	0xa2d
 3233 09fe 1C       		.uleb128 0x1c
 3234 09ff A8010000 		.4byte	.LASF77
ARM GAS  G:\Users\Jaxb\AppData\Local\Temp\cctfzRXv.s 			page 85


 3235 0a03 01       		.byte	0x1
 3236 0a04 E702     		.2byte	0x2e7
 3237 0a06 6E060000 		.4byte	0x66e
 3238 0a0a 29060000 		.4byte	.LLST16
 3239 0a0e 19       		.uleb128 0x19
 3240 0a0f 36010000 		.4byte	.LASF104
 3241 0a13 01       		.byte	0x1
 3242 0a14 E702     		.2byte	0x2e7
 3243 0a16 91000000 		.4byte	0x91
 3244 0a1a 01       		.byte	0x1
 3245 0a1b 51       		.byte	0x51
 3246 0a1c 1D       		.uleb128 0x1d
 3247 0a1d 00000000 		.4byte	.LASF105
 3248 0a21 01       		.byte	0x1
 3249 0a22 E902     		.2byte	0x2e9
 3250 0a24 91000000 		.4byte	0x91
 3251 0a28 63060000 		.4byte	.LLST17
 3252 0a2c 00       		.byte	0
 3253 0a2d 18       		.uleb128 0x18
 3254 0a2e 01       		.byte	0x1
 3255 0a2f CE010000 		.4byte	.LASF106
 3256 0a33 01       		.byte	0x1
 3257 0a34 D002     		.2byte	0x2d0
 3258 0a36 01       		.byte	0x1
 3259 0a37 98040000 		.4byte	.LFB40
 3260 0a3b AE040000 		.4byte	.LFE40
 3261 0a3f 02       		.byte	0x2
 3262 0a40 7D       		.byte	0x7d
 3263 0a41 00       		.sleb128 0
 3264 0a42 01       		.byte	0x1
 3265 0a43 640A0000 		.4byte	0xa64
 3266 0a47 19       		.uleb128 0x19
 3267 0a48 A8010000 		.4byte	.LASF77
 3268 0a4c 01       		.byte	0x1
 3269 0a4d D002     		.2byte	0x2d0
 3270 0a4f 6E060000 		.4byte	0x66e
 3271 0a53 01       		.byte	0x1
 3272 0a54 50       		.byte	0x50
 3273 0a55 19       		.uleb128 0x19
 3274 0a56 36010000 		.4byte	.LASF104
 3275 0a5a 01       		.byte	0x1
 3276 0a5b D002     		.2byte	0x2d0
 3277 0a5d 91000000 		.4byte	0x91
 3278 0a61 01       		.byte	0x1
 3279 0a62 51       		.byte	0x51
 3280 0a63 00       		.byte	0
 3281 0a64 28       		.uleb128 0x28
 3282 0a65 01       		.byte	0x1
 3283 0a66 19060000 		.4byte	.LASF107
 3284 0a6a 01       		.byte	0x1
 3285 0a6b 9F02     		.2byte	0x29f
 3286 0a6d 01       		.byte	0x1
 3287 0a6e 00040000 		.4byte	.LFB39
 3288 0a72 98040000 		.4byte	.LFE39
 3289 0a76 99060000 		.4byte	.LLST15
 3290 0a7a 01       		.byte	0x1
 3291 0a7b AA0A0000 		.4byte	0xaaa
ARM GAS  G:\Users\Jaxb\AppData\Local\Temp\cctfzRXv.s 			page 86


 3292 0a7f 19       		.uleb128 0x19
 3293 0a80 A8010000 		.4byte	.LASF77
 3294 0a84 01       		.byte	0x1
 3295 0a85 9F02     		.2byte	0x29f
 3296 0a87 6E060000 		.4byte	0x66e
 3297 0a8b 01       		.byte	0x1
 3298 0a8c 50       		.byte	0x50
 3299 0a8d 19       		.uleb128 0x19
 3300 0a8e 36010000 		.4byte	.LASF104
 3301 0a92 01       		.byte	0x1
 3302 0a93 9F02     		.2byte	0x29f
 3303 0a95 91000000 		.4byte	0x91
 3304 0a99 01       		.byte	0x1
 3305 0a9a 51       		.byte	0x51
 3306 0a9b 19       		.uleb128 0x19
 3307 0a9c C8060000 		.4byte	.LASF108
 3308 0aa0 01       		.byte	0x1
 3309 0aa1 9F02     		.2byte	0x29f
 3310 0aa3 AA0A0000 		.4byte	0xaaa
 3311 0aa7 01       		.byte	0x1
 3312 0aa8 52       		.byte	0x52
 3313 0aa9 00       		.byte	0
 3314 0aaa 1A       		.uleb128 0x1a
 3315 0aab 04       		.byte	0x4
 3316 0aac F5050000 		.4byte	0x5f5
 3317 0ab0 18       		.uleb128 0x18
 3318 0ab1 01       		.byte	0x1
 3319 0ab2 56070000 		.4byte	.LASF109
 3320 0ab6 01       		.byte	0x1
 3321 0ab7 8302     		.2byte	0x283
 3322 0ab9 01       		.byte	0x1
 3323 0aba D4030000 		.4byte	.LFB38
 3324 0abe FE030000 		.4byte	.LFE38
 3325 0ac2 02       		.byte	0x2
 3326 0ac3 7D       		.byte	0x7d
 3327 0ac4 00       		.sleb128 0
 3328 0ac5 01       		.byte	0x1
 3329 0ac6 E70A0000 		.4byte	0xae7
 3330 0aca 19       		.uleb128 0x19
 3331 0acb A8010000 		.4byte	.LASF77
 3332 0acf 01       		.byte	0x1
 3333 0ad0 8302     		.2byte	0x283
 3334 0ad2 6E060000 		.4byte	0x66e
 3335 0ad6 01       		.byte	0x1
 3336 0ad7 50       		.byte	0x50
 3337 0ad8 19       		.uleb128 0x19
 3338 0ad9 FE000000 		.4byte	.LASF110
 3339 0add 01       		.byte	0x1
 3340 0ade 8302     		.2byte	0x283
 3341 0ae0 91000000 		.4byte	0x91
 3342 0ae4 01       		.byte	0x1
 3343 0ae5 51       		.byte	0x51
 3344 0ae6 00       		.byte	0
 3345 0ae7 1B       		.uleb128 0x1b
 3346 0ae8 01       		.byte	0x1
 3347 0ae9 9B030000 		.4byte	.LASF111
 3348 0aed 01       		.byte	0x1
ARM GAS  G:\Users\Jaxb\AppData\Local\Temp\cctfzRXv.s 			page 87


 3349 0aee 4D02     		.2byte	0x24d
 3350 0af0 01       		.byte	0x1
 3351 0af1 91000000 		.4byte	0x91
 3352 0af5 84030000 		.4byte	.LFB37
 3353 0af9 D4030000 		.4byte	.LFE37
 3354 0afd 02       		.byte	0x2
 3355 0afe 7D       		.byte	0x7d
 3356 0aff 00       		.sleb128 0
 3357 0b00 01       		.byte	0x1
 3358 0b01 340B0000 		.4byte	0xb34
 3359 0b05 1C       		.uleb128 0x1c
 3360 0b06 A8010000 		.4byte	.LASF77
 3361 0b0a 01       		.byte	0x1
 3362 0b0b 4D02     		.2byte	0x24d
 3363 0b0d 6E060000 		.4byte	0x66e
 3364 0b11 DD060000 		.4byte	.LLST13
 3365 0b15 19       		.uleb128 0x19
 3366 0b16 8A000000 		.4byte	.LASF112
 3367 0b1a 01       		.byte	0x1
 3368 0b1b 4D02     		.2byte	0x24d
 3369 0b1d 91000000 		.4byte	0x91
 3370 0b21 01       		.byte	0x1
 3371 0b22 51       		.byte	0x51
 3372 0b23 1D       		.uleb128 0x1d
 3373 0b24 14070000 		.4byte	.LASF113
 3374 0b28 01       		.byte	0x1
 3375 0b29 4F02     		.2byte	0x24f
 3376 0b2b A7000000 		.4byte	0xa7
 3377 0b2f 3B070000 		.4byte	.LLST14
 3378 0b33 00       		.byte	0
 3379 0b34 29       		.uleb128 0x29
 3380 0b35 01       		.byte	0x1
 3381 0b36 FC040000 		.4byte	.LASF114
 3382 0b3a 01       		.byte	0x1
 3383 0b3b 0302     		.2byte	0x203
 3384 0b3d 01       		.byte	0x1
 3385 0b3e 91000000 		.4byte	0x91
 3386 0b42 DC020000 		.4byte	.LFB36
 3387 0b46 82030000 		.4byte	.LFE36
 3388 0b4a 9E070000 		.4byte	.LLST10
 3389 0b4e 01       		.byte	0x1
 3390 0b4f 810B0000 		.4byte	0xb81
 3391 0b53 1C       		.uleb128 0x1c
 3392 0b54 A8010000 		.4byte	.LASF77
 3393 0b58 01       		.byte	0x1
 3394 0b59 0302     		.2byte	0x203
 3395 0b5b 6E060000 		.4byte	0x66e
 3396 0b5f D6070000 		.4byte	.LLST11
 3397 0b63 1C       		.uleb128 0x1c
 3398 0b64 CA020000 		.4byte	.LASF115
 3399 0b68 01       		.byte	0x1
 3400 0b69 0302     		.2byte	0x203
 3401 0b6b 810B0000 		.4byte	0xb81
 3402 0b6f 23080000 		.4byte	.LLST12
 3403 0b73 2A       		.uleb128 0x2a
 3404 0b74 E7010000 		.4byte	.LASF116
 3405 0b78 01       		.byte	0x1
ARM GAS  G:\Users\Jaxb\AppData\Local\Temp\cctfzRXv.s 			page 88


 3406 0b79 0502     		.2byte	0x205
 3407 0b7b 91000000 		.4byte	0x91
 3408 0b7f 00       		.byte	0
 3409 0b80 00       		.byte	0
 3410 0b81 1A       		.uleb128 0x1a
 3411 0b82 04       		.byte	0x4
 3412 0b83 7F050000 		.4byte	0x57f
 3413 0b87 18       		.uleb128 0x18
 3414 0b88 01       		.byte	0x1
 3415 0b89 A4000000 		.4byte	.LASF117
 3416 0b8d 01       		.byte	0x1
 3417 0b8e E101     		.2byte	0x1e1
 3418 0b90 01       		.byte	0x1
 3419 0b91 80020000 		.4byte	.LFB35
 3420 0b95 DC020000 		.4byte	.LFE35
 3421 0b99 02       		.byte	0x2
 3422 0b9a 7D       		.byte	0x7d
 3423 0b9b 00       		.sleb128 0
 3424 0b9c 01       		.byte	0x1
 3425 0b9d BE0B0000 		.4byte	0xbbe
 3426 0ba1 19       		.uleb128 0x19
 3427 0ba2 A8010000 		.4byte	.LASF77
 3428 0ba6 01       		.byte	0x1
 3429 0ba7 E101     		.2byte	0x1e1
 3430 0ba9 6E060000 		.4byte	0x66e
 3431 0bad 01       		.byte	0x1
 3432 0bae 50       		.byte	0x50
 3433 0baf 19       		.uleb128 0x19
 3434 0bb0 D4020000 		.4byte	.LASF88
 3435 0bb4 01       		.byte	0x1
 3436 0bb5 E101     		.2byte	0x1e1
 3437 0bb7 20010000 		.4byte	0x120
 3438 0bbb 01       		.byte	0x1
 3439 0bbc 51       		.byte	0x51
 3440 0bbd 00       		.byte	0
 3441 0bbe 18       		.uleb128 0x18
 3442 0bbf 01       		.byte	0x1
 3443 0bc0 74040000 		.4byte	.LASF118
 3444 0bc4 01       		.byte	0x1
 3445 0bc5 C301     		.2byte	0x1c3
 3446 0bc7 01       		.byte	0x1
 3447 0bc8 6C020000 		.4byte	.LFB34
 3448 0bcc 80020000 		.4byte	.LFE34
 3449 0bd0 02       		.byte	0x2
 3450 0bd1 7D       		.byte	0x7d
 3451 0bd2 00       		.sleb128 0
 3452 0bd3 01       		.byte	0x1
 3453 0bd4 F50B0000 		.4byte	0xbf5
 3454 0bd8 19       		.uleb128 0x19
 3455 0bd9 A8010000 		.4byte	.LASF77
 3456 0bdd 01       		.byte	0x1
 3457 0bde C301     		.2byte	0x1c3
 3458 0be0 6E060000 		.4byte	0x66e
 3459 0be4 01       		.byte	0x1
 3460 0be5 50       		.byte	0x50
 3461 0be6 19       		.uleb128 0x19
 3462 0be7 D4020000 		.4byte	.LASF88
ARM GAS  G:\Users\Jaxb\AppData\Local\Temp\cctfzRXv.s 			page 89


 3463 0beb 01       		.byte	0x1
 3464 0bec C301     		.2byte	0x1c3
 3465 0bee 20010000 		.4byte	0x120
 3466 0bf2 01       		.byte	0x1
 3467 0bf3 51       		.byte	0x51
 3468 0bf4 00       		.byte	0
 3469 0bf5 18       		.uleb128 0x18
 3470 0bf6 01       		.byte	0x1
 3471 0bf7 FE050000 		.4byte	.LASF119
 3472 0bfb 01       		.byte	0x1
 3473 0bfc AC01     		.2byte	0x1ac
 3474 0bfe 01       		.byte	0x1
 3475 0bff 30020000 		.4byte	.LFB33
 3476 0c03 6C020000 		.4byte	.LFE33
 3477 0c07 02       		.byte	0x2
 3478 0c08 7D       		.byte	0x7d
 3479 0c09 00       		.sleb128 0
 3480 0c0a 01       		.byte	0x1
 3481 0c0b 200C0000 		.4byte	0xc20
 3482 0c0f 1C       		.uleb128 0x1c
 3483 0c10 53010000 		.4byte	.LASF120
 3484 0c14 01       		.byte	0x1
 3485 0c15 AC01     		.2byte	0x1ac
 3486 0c17 91000000 		.4byte	0x91
 3487 0c1b 4F080000 		.4byte	.LLST9
 3488 0c1f 00       		.byte	0
 3489 0c20 18       		.uleb128 0x18
 3490 0c21 01       		.byte	0x1
 3491 0c22 3A000000 		.4byte	.LASF121
 3492 0c26 01       		.byte	0x1
 3493 0c27 8001     		.2byte	0x180
 3494 0c29 01       		.byte	0x1
 3495 0c2a 14020000 		.4byte	.LFB32
 3496 0c2e 30020000 		.4byte	.LFE32
 3497 0c32 02       		.byte	0x2
 3498 0c33 7D       		.byte	0x7d
 3499 0c34 00       		.sleb128 0
 3500 0c35 01       		.byte	0x1
 3501 0c36 490C0000 		.4byte	0xc49
 3502 0c3a 19       		.uleb128 0x19
 3503 0c3b 4B030000 		.4byte	.LASF122
 3504 0c3f 01       		.byte	0x1
 3505 0c40 8001     		.2byte	0x180
 3506 0c42 490C0000 		.4byte	0xc49
 3507 0c46 01       		.byte	0x1
 3508 0c47 50       		.byte	0x50
 3509 0c48 00       		.byte	0
 3510 0c49 1A       		.uleb128 0x1a
 3511 0c4a 04       		.byte	0x4
 3512 0c4b 75040000 		.4byte	0x475
 3513 0c4f 28       		.uleb128 0x28
 3514 0c50 01       		.byte	0x1
 3515 0c51 75070000 		.4byte	.LASF123
 3516 0c55 01       		.byte	0x1
 3517 0c56 2401     		.2byte	0x124
 3518 0c58 01       		.byte	0x1
 3519 0c59 28010000 		.4byte	.LFB31
ARM GAS  G:\Users\Jaxb\AppData\Local\Temp\cctfzRXv.s 			page 90


 3520 0c5d 14020000 		.4byte	.LFE31
 3521 0c61 70080000 		.4byte	.LLST7
 3522 0c65 01       		.byte	0x1
 3523 0c66 890C0000 		.4byte	0xc89
 3524 0c6a 19       		.uleb128 0x19
 3525 0c6b 2F060000 		.4byte	.LASF124
 3526 0c6f 01       		.byte	0x1
 3527 0c70 2401     		.2byte	0x124
 3528 0c72 890C0000 		.4byte	0xc89
 3529 0c76 01       		.byte	0x1
 3530 0c77 50       		.byte	0x50
 3531 0c78 1D       		.uleb128 0x1d
 3532 0c79 0B030000 		.4byte	.LASF125
 3533 0c7d 01       		.byte	0x1
 3534 0c7e 2601     		.2byte	0x126
 3535 0c80 A7000000 		.4byte	0xa7
 3536 0c84 A8080000 		.4byte	.LLST8
 3537 0c88 00       		.byte	0
 3538 0c89 1A       		.uleb128 0x1a
 3539 0c8a 04       		.byte	0x4
 3540 0c8b 07050000 		.4byte	0x507
 3541 0c8f 2B       		.uleb128 0x2b
 3542 0c90 01       		.byte	0x1
 3543 0c91 3E070000 		.4byte	.LASF126
 3544 0c95 01       		.byte	0x1
 3545 0c96 9A       		.byte	0x9a
 3546 0c97 01       		.byte	0x1
 3547 0c98 91000000 		.4byte	0x91
 3548 0c9c 3C000000 		.4byte	.LFB30
 3549 0ca0 26010000 		.4byte	.LFE30
 3550 0ca4 D2080000 		.4byte	.LLST2
 3551 0ca8 01       		.byte	0x1
 3552 0ca9 EA0C0000 		.4byte	0xcea
 3553 0cad 2C       		.uleb128 0x2c
 3554 0cae A8010000 		.4byte	.LASF77
 3555 0cb2 01       		.byte	0x1
 3556 0cb3 9A       		.byte	0x9a
 3557 0cb4 6E060000 		.4byte	0x66e
 3558 0cb8 16090000 		.4byte	.LLST3
 3559 0cbc 2C       		.uleb128 0x2c
 3560 0cbd 4B030000 		.4byte	.LASF122
 3561 0cc1 01       		.byte	0x1
 3562 0cc2 9A       		.byte	0x9a
 3563 0cc3 490C0000 		.4byte	0xc49
 3564 0cc7 50090000 		.4byte	.LLST4
 3565 0ccb 2D       		.uleb128 0x2d
 3566 0ccc AD050000 		.4byte	.LASF127
 3567 0cd0 01       		.byte	0x1
 3568 0cd1 9C       		.byte	0x9c
 3569 0cd2 91000000 		.4byte	0x91
 3570 0cd6 7C090000 		.4byte	.LLST5
 3571 0cda 2D       		.uleb128 0x2d
 3572 0cdb F5050000 		.4byte	.LASF128
 3573 0cdf 01       		.byte	0x1
 3574 0ce0 9D       		.byte	0x9d
 3575 0ce1 A7000000 		.4byte	0xa7
 3576 0ce5 B2090000 		.4byte	.LLST6
ARM GAS  G:\Users\Jaxb\AppData\Local\Temp\cctfzRXv.s 			page 91


 3577 0ce9 00       		.byte	0
 3578 0cea 2E       		.uleb128 0x2e
 3579 0ceb 01       		.byte	0x1
 3580 0cec EE060000 		.4byte	.LASF129
 3581 0cf0 01       		.byte	0x1
 3582 0cf1 7A       		.byte	0x7a
 3583 0cf2 01       		.byte	0x1
 3584 0cf3 00000000 		.4byte	.LFB29
 3585 0cf7 3C000000 		.4byte	.LFE29
 3586 0cfb 380A0000 		.4byte	.LLST0
 3587 0cff 01       		.byte	0x1
 3588 0d00 750D0000 		.4byte	0xd75
 3589 0d04 2C       		.uleb128 0x2c
 3590 0d05 A8010000 		.4byte	.LASF77
 3591 0d09 01       		.byte	0x1
 3592 0d0a 7A       		.byte	0x7a
 3593 0d0b 6E060000 		.4byte	0x66e
 3594 0d0f 7C0A0000 		.4byte	.LLST1
 3595 0d13 2F       		.uleb128 0x2f
 3596 0d14 12000000 		.4byte	.LVL2
 3597 0d18 750D0000 		.4byte	0xd75
 3598 0d1c 2D0D0000 		.4byte	0xd2d
 3599 0d20 30       		.uleb128 0x30
 3600 0d21 01       		.byte	0x1
 3601 0d22 50       		.byte	0x50
 3602 0d23 03       		.byte	0x3
 3603 0d24 40       		.byte	0x40
 3604 0d25 46       		.byte	0x46
 3605 0d26 24       		.byte	0x24
 3606 0d27 30       		.uleb128 0x30
 3607 0d28 01       		.byte	0x1
 3608 0d29 51       		.byte	0x51
 3609 0d2a 01       		.byte	0x1
 3610 0d2b 31       		.byte	0x31
 3611 0d2c 00       		.byte	0
 3612 0d2d 31       		.uleb128 0x31
 3613 0d2e 20000000 		.4byte	.LVL3
 3614 0d32 01       		.byte	0x1
 3615 0d33 750D0000 		.4byte	0xd75
 3616 0d37 480D0000 		.4byte	0xd48
 3617 0d3b 30       		.uleb128 0x30
 3618 0d3c 01       		.byte	0x1
 3619 0d3d 50       		.byte	0x50
 3620 0d3e 03       		.byte	0x3
 3621 0d3f 40       		.byte	0x40
 3622 0d40 46       		.byte	0x46
 3623 0d41 24       		.byte	0x24
 3624 0d42 30       		.uleb128 0x30
 3625 0d43 01       		.byte	0x1
 3626 0d44 51       		.byte	0x51
 3627 0d45 01       		.byte	0x1
 3628 0d46 30       		.byte	0x30
 3629 0d47 00       		.byte	0
 3630 0d48 2F       		.uleb128 0x2f
 3631 0d49 28000000 		.4byte	.LVL5
 3632 0d4d 750D0000 		.4byte	0xd75
 3633 0d51 5D0D0000 		.4byte	0xd5d
ARM GAS  G:\Users\Jaxb\AppData\Local\Temp\cctfzRXv.s 			page 92


 3634 0d55 30       		.uleb128 0x30
 3635 0d56 01       		.byte	0x1
 3636 0d57 50       		.byte	0x50
 3637 0d58 03       		.byte	0x3
 3638 0d59 40       		.byte	0x40
 3639 0d5a 45       		.byte	0x45
 3640 0d5b 24       		.byte	0x24
 3641 0d5c 00       		.byte	0
 3642 0d5d 32       		.uleb128 0x32
 3643 0d5e 36000000 		.4byte	.LVL6
 3644 0d62 01       		.byte	0x1
 3645 0d63 750D0000 		.4byte	0xd75
 3646 0d67 30       		.uleb128 0x30
 3647 0d68 01       		.byte	0x1
 3648 0d69 50       		.byte	0x50
 3649 0d6a 03       		.byte	0x3
 3650 0d6b 40       		.byte	0x40
 3651 0d6c 45       		.byte	0x45
 3652 0d6d 24       		.byte	0x24
 3653 0d6e 30       		.uleb128 0x30
 3654 0d6f 01       		.byte	0x1
 3655 0d70 51       		.byte	0x51
 3656 0d71 01       		.byte	0x1
 3657 0d72 30       		.byte	0x30
 3658 0d73 00       		.byte	0
 3659 0d74 00       		.byte	0
 3660 0d75 33       		.uleb128 0x33
 3661 0d76 01       		.byte	0x1
 3662 0d77 01       		.byte	0x1
 3663 0d78 B1060000 		.4byte	.LASF135
 3664 0d7c B1060000 		.4byte	.LASF135
 3665 0d80 08       		.byte	0x8
 3666 0d81 BD02     		.2byte	0x2bd
 3667 0d83 00       		.byte	0
 3668              		.section	.debug_abbrev,"",%progbits
 3669              	.Ldebug_abbrev0:
 3670 0000 01       		.uleb128 0x1
 3671 0001 11       		.uleb128 0x11
 3672 0002 01       		.byte	0x1
 3673 0003 25       		.uleb128 0x25
 3674 0004 0E       		.uleb128 0xe
 3675 0005 13       		.uleb128 0x13
 3676 0006 0B       		.uleb128 0xb
 3677 0007 03       		.uleb128 0x3
 3678 0008 0E       		.uleb128 0xe
 3679 0009 1B       		.uleb128 0x1b
 3680 000a 0E       		.uleb128 0xe
 3681 000b 11       		.uleb128 0x11
 3682 000c 01       		.uleb128 0x1
 3683 000d 12       		.uleb128 0x12
 3684 000e 01       		.uleb128 0x1
 3685 000f 10       		.uleb128 0x10
 3686 0010 06       		.uleb128 0x6
 3687 0011 00       		.byte	0
 3688 0012 00       		.byte	0
 3689 0013 02       		.uleb128 0x2
 3690 0014 24       		.uleb128 0x24
ARM GAS  G:\Users\Jaxb\AppData\Local\Temp\cctfzRXv.s 			page 93


 3691 0015 00       		.byte	0
 3692 0016 0B       		.uleb128 0xb
 3693 0017 0B       		.uleb128 0xb
 3694 0018 3E       		.uleb128 0x3e
 3695 0019 0B       		.uleb128 0xb
 3696 001a 03       		.uleb128 0x3
 3697 001b 0E       		.uleb128 0xe
 3698 001c 00       		.byte	0
 3699 001d 00       		.byte	0
 3700 001e 03       		.uleb128 0x3
 3701 001f 16       		.uleb128 0x16
 3702 0020 00       		.byte	0
 3703 0021 03       		.uleb128 0x3
 3704 0022 0E       		.uleb128 0xe
 3705 0023 3A       		.uleb128 0x3a
 3706 0024 0B       		.uleb128 0xb
 3707 0025 3B       		.uleb128 0x3b
 3708 0026 0B       		.uleb128 0xb
 3709 0027 49       		.uleb128 0x49
 3710 0028 13       		.uleb128 0x13
 3711 0029 00       		.byte	0
 3712 002a 00       		.byte	0
 3713 002b 04       		.uleb128 0x4
 3714 002c 24       		.uleb128 0x24
 3715 002d 00       		.byte	0
 3716 002e 0B       		.uleb128 0xb
 3717 002f 0B       		.uleb128 0xb
 3718 0030 3E       		.uleb128 0x3e
 3719 0031 0B       		.uleb128 0xb
 3720 0032 03       		.uleb128 0x3
 3721 0033 08       		.uleb128 0x8
 3722 0034 00       		.byte	0
 3723 0035 00       		.byte	0
 3724 0036 05       		.uleb128 0x5
 3725 0037 35       		.uleb128 0x35
 3726 0038 00       		.byte	0
 3727 0039 49       		.uleb128 0x49
 3728 003a 13       		.uleb128 0x13
 3729 003b 00       		.byte	0
 3730 003c 00       		.byte	0
 3731 003d 06       		.uleb128 0x6
 3732 003e 34       		.uleb128 0x34
 3733 003f 00       		.byte	0
 3734 0040 03       		.uleb128 0x3
 3735 0041 0E       		.uleb128 0xe
 3736 0042 3A       		.uleb128 0x3a
 3737 0043 0B       		.uleb128 0xb
 3738 0044 3B       		.uleb128 0x3b
 3739 0045 05       		.uleb128 0x5
 3740 0046 49       		.uleb128 0x49
 3741 0047 13       		.uleb128 0x13
 3742 0048 3F       		.uleb128 0x3f
 3743 0049 0C       		.uleb128 0xc
 3744 004a 3C       		.uleb128 0x3c
 3745 004b 0C       		.uleb128 0xc
 3746 004c 00       		.byte	0
 3747 004d 00       		.byte	0
ARM GAS  G:\Users\Jaxb\AppData\Local\Temp\cctfzRXv.s 			page 94


 3748 004e 07       		.uleb128 0x7
 3749 004f 34       		.uleb128 0x34
 3750 0050 00       		.byte	0
 3751 0051 03       		.uleb128 0x3
 3752 0052 0E       		.uleb128 0xe
 3753 0053 3A       		.uleb128 0x3a
 3754 0054 0B       		.uleb128 0xb
 3755 0055 3B       		.uleb128 0x3b
 3756 0056 0B       		.uleb128 0xb
 3757 0057 49       		.uleb128 0x49
 3758 0058 13       		.uleb128 0x13
 3759 0059 3F       		.uleb128 0x3f
 3760 005a 0C       		.uleb128 0xc
 3761 005b 3C       		.uleb128 0x3c
 3762 005c 0C       		.uleb128 0xc
 3763 005d 00       		.byte	0
 3764 005e 00       		.byte	0
 3765 005f 08       		.uleb128 0x8
 3766 0060 04       		.uleb128 0x4
 3767 0061 01       		.byte	0x1
 3768 0062 3E       		.uleb128 0x3e
 3769 0063 0B       		.uleb128 0xb
 3770 0064 0B       		.uleb128 0xb
 3771 0065 0B       		.uleb128 0xb
 3772 0066 49       		.uleb128 0x49
 3773 0067 13       		.uleb128 0x13
 3774 0068 3A       		.uleb128 0x3a
 3775 0069 0B       		.uleb128 0xb
 3776 006a 3B       		.uleb128 0x3b
 3777 006b 05       		.uleb128 0x5
 3778 006c 01       		.uleb128 0x1
 3779 006d 13       		.uleb128 0x13
 3780 006e 00       		.byte	0
 3781 006f 00       		.byte	0
 3782 0070 09       		.uleb128 0x9
 3783 0071 28       		.uleb128 0x28
 3784 0072 00       		.byte	0
 3785 0073 03       		.uleb128 0x3
 3786 0074 0E       		.uleb128 0xe
 3787 0075 1C       		.uleb128 0x1c
 3788 0076 0B       		.uleb128 0xb
 3789 0077 00       		.byte	0
 3790 0078 00       		.byte	0
 3791 0079 0A       		.uleb128 0xa
 3792 007a 28       		.uleb128 0x28
 3793 007b 00       		.byte	0
 3794 007c 03       		.uleb128 0x3
 3795 007d 08       		.uleb128 0x8
 3796 007e 1C       		.uleb128 0x1c
 3797 007f 0B       		.uleb128 0xb
 3798 0080 00       		.byte	0
 3799 0081 00       		.byte	0
 3800 0082 0B       		.uleb128 0xb
 3801 0083 16       		.uleb128 0x16
 3802 0084 00       		.byte	0
 3803 0085 03       		.uleb128 0x3
 3804 0086 0E       		.uleb128 0xe
ARM GAS  G:\Users\Jaxb\AppData\Local\Temp\cctfzRXv.s 			page 95


 3805 0087 3A       		.uleb128 0x3a
 3806 0088 0B       		.uleb128 0xb
 3807 0089 3B       		.uleb128 0x3b
 3808 008a 05       		.uleb128 0x5
 3809 008b 49       		.uleb128 0x49
 3810 008c 13       		.uleb128 0x13
 3811 008d 00       		.byte	0
 3812 008e 00       		.byte	0
 3813 008f 0C       		.uleb128 0xc
 3814 0090 13       		.uleb128 0x13
 3815 0091 01       		.byte	0x1
 3816 0092 0B       		.uleb128 0xb
 3817 0093 0B       		.uleb128 0xb
 3818 0094 3A       		.uleb128 0x3a
 3819 0095 0B       		.uleb128 0xb
 3820 0096 3B       		.uleb128 0x3b
 3821 0097 05       		.uleb128 0x5
 3822 0098 01       		.uleb128 0x1
 3823 0099 13       		.uleb128 0x13
 3824 009a 00       		.byte	0
 3825 009b 00       		.byte	0
 3826 009c 0D       		.uleb128 0xd
 3827 009d 0D       		.uleb128 0xd
 3828 009e 00       		.byte	0
 3829 009f 03       		.uleb128 0x3
 3830 00a0 08       		.uleb128 0x8
 3831 00a1 3A       		.uleb128 0x3a
 3832 00a2 0B       		.uleb128 0xb
 3833 00a3 3B       		.uleb128 0x3b
 3834 00a4 05       		.uleb128 0x5
 3835 00a5 49       		.uleb128 0x49
 3836 00a6 13       		.uleb128 0x13
 3837 00a7 38       		.uleb128 0x38
 3838 00a8 0A       		.uleb128 0xa
 3839 00a9 00       		.byte	0
 3840 00aa 00       		.byte	0
 3841 00ab 0E       		.uleb128 0xe
 3842 00ac 0D       		.uleb128 0xd
 3843 00ad 00       		.byte	0
 3844 00ae 03       		.uleb128 0x3
 3845 00af 0E       		.uleb128 0xe
 3846 00b0 3A       		.uleb128 0x3a
 3847 00b1 0B       		.uleb128 0xb
 3848 00b2 3B       		.uleb128 0x3b
 3849 00b3 05       		.uleb128 0x5
 3850 00b4 49       		.uleb128 0x49
 3851 00b5 13       		.uleb128 0x13
 3852 00b6 38       		.uleb128 0x38
 3853 00b7 0A       		.uleb128 0xa
 3854 00b8 00       		.byte	0
 3855 00b9 00       		.byte	0
 3856 00ba 0F       		.uleb128 0xf
 3857 00bb 13       		.uleb128 0x13
 3858 00bc 01       		.byte	0x1
 3859 00bd 0B       		.uleb128 0xb
 3860 00be 05       		.uleb128 0x5
 3861 00bf 3A       		.uleb128 0x3a
ARM GAS  G:\Users\Jaxb\AppData\Local\Temp\cctfzRXv.s 			page 96


 3862 00c0 0B       		.uleb128 0xb
 3863 00c1 3B       		.uleb128 0x3b
 3864 00c2 05       		.uleb128 0x5
 3865 00c3 01       		.uleb128 0x1
 3866 00c4 13       		.uleb128 0x13
 3867 00c5 00       		.byte	0
 3868 00c6 00       		.byte	0
 3869 00c7 10       		.uleb128 0x10
 3870 00c8 01       		.uleb128 0x1
 3871 00c9 01       		.byte	0x1
 3872 00ca 49       		.uleb128 0x49
 3873 00cb 13       		.uleb128 0x13
 3874 00cc 01       		.uleb128 0x1
 3875 00cd 13       		.uleb128 0x13
 3876 00ce 00       		.byte	0
 3877 00cf 00       		.byte	0
 3878 00d0 11       		.uleb128 0x11
 3879 00d1 21       		.uleb128 0x21
 3880 00d2 00       		.byte	0
 3881 00d3 49       		.uleb128 0x49
 3882 00d4 13       		.uleb128 0x13
 3883 00d5 2F       		.uleb128 0x2f
 3884 00d6 0B       		.uleb128 0xb
 3885 00d7 00       		.byte	0
 3886 00d8 00       		.byte	0
 3887 00d9 12       		.uleb128 0x12
 3888 00da 13       		.uleb128 0x13
 3889 00db 01       		.byte	0x1
 3890 00dc 0B       		.uleb128 0xb
 3891 00dd 0B       		.uleb128 0xb
 3892 00de 3A       		.uleb128 0x3a
 3893 00df 0B       		.uleb128 0xb
 3894 00e0 3B       		.uleb128 0x3b
 3895 00e1 0B       		.uleb128 0xb
 3896 00e2 01       		.uleb128 0x1
 3897 00e3 13       		.uleb128 0x13
 3898 00e4 00       		.byte	0
 3899 00e5 00       		.byte	0
 3900 00e6 13       		.uleb128 0x13
 3901 00e7 0D       		.uleb128 0xd
 3902 00e8 00       		.byte	0
 3903 00e9 03       		.uleb128 0x3
 3904 00ea 0E       		.uleb128 0xe
 3905 00eb 3A       		.uleb128 0x3a
 3906 00ec 0B       		.uleb128 0xb
 3907 00ed 3B       		.uleb128 0x3b
 3908 00ee 0B       		.uleb128 0xb
 3909 00ef 49       		.uleb128 0x49
 3910 00f0 13       		.uleb128 0x13
 3911 00f1 38       		.uleb128 0x38
 3912 00f2 0A       		.uleb128 0xa
 3913 00f3 00       		.byte	0
 3914 00f4 00       		.byte	0
 3915 00f5 14       		.uleb128 0x14
 3916 00f6 0D       		.uleb128 0xd
 3917 00f7 00       		.byte	0
 3918 00f8 03       		.uleb128 0x3
ARM GAS  G:\Users\Jaxb\AppData\Local\Temp\cctfzRXv.s 			page 97


 3919 00f9 08       		.uleb128 0x8
 3920 00fa 3A       		.uleb128 0x3a
 3921 00fb 0B       		.uleb128 0xb
 3922 00fc 3B       		.uleb128 0x3b
 3923 00fd 0B       		.uleb128 0xb
 3924 00fe 49       		.uleb128 0x49
 3925 00ff 13       		.uleb128 0x13
 3926 0100 38       		.uleb128 0x38
 3927 0101 0A       		.uleb128 0xa
 3928 0102 00       		.byte	0
 3929 0103 00       		.byte	0
 3930 0104 15       		.uleb128 0x15
 3931 0105 2E       		.uleb128 0x2e
 3932 0106 01       		.byte	0x1
 3933 0107 03       		.uleb128 0x3
 3934 0108 0E       		.uleb128 0xe
 3935 0109 3A       		.uleb128 0x3a
 3936 010a 0B       		.uleb128 0xb
 3937 010b 3B       		.uleb128 0x3b
 3938 010c 05       		.uleb128 0x5
 3939 010d 27       		.uleb128 0x27
 3940 010e 0C       		.uleb128 0xc
 3941 010f 49       		.uleb128 0x49
 3942 0110 13       		.uleb128 0x13
 3943 0111 20       		.uleb128 0x20
 3944 0112 0B       		.uleb128 0xb
 3945 0113 01       		.uleb128 0x1
 3946 0114 13       		.uleb128 0x13
 3947 0115 00       		.byte	0
 3948 0116 00       		.byte	0
 3949 0117 16       		.uleb128 0x16
 3950 0118 05       		.uleb128 0x5
 3951 0119 00       		.byte	0
 3952 011a 03       		.uleb128 0x3
 3953 011b 0E       		.uleb128 0xe
 3954 011c 3A       		.uleb128 0x3a
 3955 011d 0B       		.uleb128 0xb
 3956 011e 3B       		.uleb128 0x3b
 3957 011f 05       		.uleb128 0x5
 3958 0120 49       		.uleb128 0x49
 3959 0121 13       		.uleb128 0x13
 3960 0122 00       		.byte	0
 3961 0123 00       		.byte	0
 3962 0124 17       		.uleb128 0x17
 3963 0125 34       		.uleb128 0x34
 3964 0126 00       		.byte	0
 3965 0127 03       		.uleb128 0x3
 3966 0128 0E       		.uleb128 0xe
 3967 0129 3A       		.uleb128 0x3a
 3968 012a 0B       		.uleb128 0xb
 3969 012b 3B       		.uleb128 0x3b
 3970 012c 05       		.uleb128 0x5
 3971 012d 49       		.uleb128 0x49
 3972 012e 13       		.uleb128 0x13
 3973 012f 00       		.byte	0
 3974 0130 00       		.byte	0
 3975 0131 18       		.uleb128 0x18
ARM GAS  G:\Users\Jaxb\AppData\Local\Temp\cctfzRXv.s 			page 98


 3976 0132 2E       		.uleb128 0x2e
 3977 0133 01       		.byte	0x1
 3978 0134 3F       		.uleb128 0x3f
 3979 0135 0C       		.uleb128 0xc
 3980 0136 03       		.uleb128 0x3
 3981 0137 0E       		.uleb128 0xe
 3982 0138 3A       		.uleb128 0x3a
 3983 0139 0B       		.uleb128 0xb
 3984 013a 3B       		.uleb128 0x3b
 3985 013b 05       		.uleb128 0x5
 3986 013c 27       		.uleb128 0x27
 3987 013d 0C       		.uleb128 0xc
 3988 013e 11       		.uleb128 0x11
 3989 013f 01       		.uleb128 0x1
 3990 0140 12       		.uleb128 0x12
 3991 0141 01       		.uleb128 0x1
 3992 0142 40       		.uleb128 0x40
 3993 0143 0A       		.uleb128 0xa
 3994 0144 9742     		.uleb128 0x2117
 3995 0146 0C       		.uleb128 0xc
 3996 0147 01       		.uleb128 0x1
 3997 0148 13       		.uleb128 0x13
 3998 0149 00       		.byte	0
 3999 014a 00       		.byte	0
 4000 014b 19       		.uleb128 0x19
 4001 014c 05       		.uleb128 0x5
 4002 014d 00       		.byte	0
 4003 014e 03       		.uleb128 0x3
 4004 014f 0E       		.uleb128 0xe
 4005 0150 3A       		.uleb128 0x3a
 4006 0151 0B       		.uleb128 0xb
 4007 0152 3B       		.uleb128 0x3b
 4008 0153 05       		.uleb128 0x5
 4009 0154 49       		.uleb128 0x49
 4010 0155 13       		.uleb128 0x13
 4011 0156 02       		.uleb128 0x2
 4012 0157 0A       		.uleb128 0xa
 4013 0158 00       		.byte	0
 4014 0159 00       		.byte	0
 4015 015a 1A       		.uleb128 0x1a
 4016 015b 0F       		.uleb128 0xf
 4017 015c 00       		.byte	0
 4018 015d 0B       		.uleb128 0xb
 4019 015e 0B       		.uleb128 0xb
 4020 015f 49       		.uleb128 0x49
 4021 0160 13       		.uleb128 0x13
 4022 0161 00       		.byte	0
 4023 0162 00       		.byte	0
 4024 0163 1B       		.uleb128 0x1b
 4025 0164 2E       		.uleb128 0x2e
 4026 0165 01       		.byte	0x1
 4027 0166 3F       		.uleb128 0x3f
 4028 0167 0C       		.uleb128 0xc
 4029 0168 03       		.uleb128 0x3
 4030 0169 0E       		.uleb128 0xe
 4031 016a 3A       		.uleb128 0x3a
 4032 016b 0B       		.uleb128 0xb
ARM GAS  G:\Users\Jaxb\AppData\Local\Temp\cctfzRXv.s 			page 99


 4033 016c 3B       		.uleb128 0x3b
 4034 016d 05       		.uleb128 0x5
 4035 016e 27       		.uleb128 0x27
 4036 016f 0C       		.uleb128 0xc
 4037 0170 49       		.uleb128 0x49
 4038 0171 13       		.uleb128 0x13
 4039 0172 11       		.uleb128 0x11
 4040 0173 01       		.uleb128 0x1
 4041 0174 12       		.uleb128 0x12
 4042 0175 01       		.uleb128 0x1
 4043 0176 40       		.uleb128 0x40
 4044 0177 0A       		.uleb128 0xa
 4045 0178 9742     		.uleb128 0x2117
 4046 017a 0C       		.uleb128 0xc
 4047 017b 01       		.uleb128 0x1
 4048 017c 13       		.uleb128 0x13
 4049 017d 00       		.byte	0
 4050 017e 00       		.byte	0
 4051 017f 1C       		.uleb128 0x1c
 4052 0180 05       		.uleb128 0x5
 4053 0181 00       		.byte	0
 4054 0182 03       		.uleb128 0x3
 4055 0183 0E       		.uleb128 0xe
 4056 0184 3A       		.uleb128 0x3a
 4057 0185 0B       		.uleb128 0xb
 4058 0186 3B       		.uleb128 0x3b
 4059 0187 05       		.uleb128 0x5
 4060 0188 49       		.uleb128 0x49
 4061 0189 13       		.uleb128 0x13
 4062 018a 02       		.uleb128 0x2
 4063 018b 06       		.uleb128 0x6
 4064 018c 00       		.byte	0
 4065 018d 00       		.byte	0
 4066 018e 1D       		.uleb128 0x1d
 4067 018f 34       		.uleb128 0x34
 4068 0190 00       		.byte	0
 4069 0191 03       		.uleb128 0x3
 4070 0192 0E       		.uleb128 0xe
 4071 0193 3A       		.uleb128 0x3a
 4072 0194 0B       		.uleb128 0xb
 4073 0195 3B       		.uleb128 0x3b
 4074 0196 05       		.uleb128 0x5
 4075 0197 49       		.uleb128 0x49
 4076 0198 13       		.uleb128 0x13
 4077 0199 02       		.uleb128 0x2
 4078 019a 06       		.uleb128 0x6
 4079 019b 00       		.byte	0
 4080 019c 00       		.byte	0
 4081 019d 1E       		.uleb128 0x1e
 4082 019e 1D       		.uleb128 0x1d
 4083 019f 01       		.byte	0x1
 4084 01a0 31       		.uleb128 0x31
 4085 01a1 13       		.uleb128 0x13
 4086 01a2 52       		.uleb128 0x52
 4087 01a3 01       		.uleb128 0x1
 4088 01a4 55       		.uleb128 0x55
 4089 01a5 06       		.uleb128 0x6
ARM GAS  G:\Users\Jaxb\AppData\Local\Temp\cctfzRXv.s 			page 100


 4090 01a6 58       		.uleb128 0x58
 4091 01a7 0B       		.uleb128 0xb
 4092 01a8 59       		.uleb128 0x59
 4093 01a9 05       		.uleb128 0x5
 4094 01aa 01       		.uleb128 0x1
 4095 01ab 13       		.uleb128 0x13
 4096 01ac 00       		.byte	0
 4097 01ad 00       		.byte	0
 4098 01ae 1F       		.uleb128 0x1f
 4099 01af 05       		.uleb128 0x5
 4100 01b0 00       		.byte	0
 4101 01b1 31       		.uleb128 0x31
 4102 01b2 13       		.uleb128 0x13
 4103 01b3 02       		.uleb128 0x2
 4104 01b4 06       		.uleb128 0x6
 4105 01b5 00       		.byte	0
 4106 01b6 00       		.byte	0
 4107 01b7 20       		.uleb128 0x20
 4108 01b8 0B       		.uleb128 0xb
 4109 01b9 01       		.byte	0x1
 4110 01ba 55       		.uleb128 0x55
 4111 01bb 06       		.uleb128 0x6
 4112 01bc 00       		.byte	0
 4113 01bd 00       		.byte	0
 4114 01be 21       		.uleb128 0x21
 4115 01bf 34       		.uleb128 0x34
 4116 01c0 00       		.byte	0
 4117 01c1 31       		.uleb128 0x31
 4118 01c2 13       		.uleb128 0x13
 4119 01c3 02       		.uleb128 0x2
 4120 01c4 06       		.uleb128 0x6
 4121 01c5 00       		.byte	0
 4122 01c6 00       		.byte	0
 4123 01c7 22       		.uleb128 0x22
 4124 01c8 1D       		.uleb128 0x1d
 4125 01c9 01       		.byte	0x1
 4126 01ca 31       		.uleb128 0x31
 4127 01cb 13       		.uleb128 0x13
 4128 01cc 11       		.uleb128 0x11
 4129 01cd 01       		.uleb128 0x1
 4130 01ce 12       		.uleb128 0x12
 4131 01cf 01       		.uleb128 0x1
 4132 01d0 58       		.uleb128 0x58
 4133 01d1 0B       		.uleb128 0xb
 4134 01d2 59       		.uleb128 0x59
 4135 01d3 05       		.uleb128 0x5
 4136 01d4 01       		.uleb128 0x1
 4137 01d5 13       		.uleb128 0x13
 4138 01d6 00       		.byte	0
 4139 01d7 00       		.byte	0
 4140 01d8 23       		.uleb128 0x23
 4141 01d9 0B       		.uleb128 0xb
 4142 01da 01       		.byte	0x1
 4143 01db 11       		.uleb128 0x11
 4144 01dc 01       		.uleb128 0x1
 4145 01dd 12       		.uleb128 0x12
 4146 01de 01       		.uleb128 0x1
ARM GAS  G:\Users\Jaxb\AppData\Local\Temp\cctfzRXv.s 			page 101


 4147 01df 00       		.byte	0
 4148 01e0 00       		.byte	0
 4149 01e1 24       		.uleb128 0x24
 4150 01e2 1D       		.uleb128 0x1d
 4151 01e3 01       		.byte	0x1
 4152 01e4 31       		.uleb128 0x31
 4153 01e5 13       		.uleb128 0x13
 4154 01e6 52       		.uleb128 0x52
 4155 01e7 01       		.uleb128 0x1
 4156 01e8 55       		.uleb128 0x55
 4157 01e9 06       		.uleb128 0x6
 4158 01ea 58       		.uleb128 0x58
 4159 01eb 0B       		.uleb128 0xb
 4160 01ec 59       		.uleb128 0x59
 4161 01ed 05       		.uleb128 0x5
 4162 01ee 00       		.byte	0
 4163 01ef 00       		.byte	0
 4164 01f0 25       		.uleb128 0x25
 4165 01f1 05       		.uleb128 0x5
 4166 01f2 00       		.byte	0
 4167 01f3 31       		.uleb128 0x31
 4168 01f4 13       		.uleb128 0x13
 4169 01f5 1C       		.uleb128 0x1c
 4170 01f6 0B       		.uleb128 0xb
 4171 01f7 00       		.byte	0
 4172 01f8 00       		.byte	0
 4173 01f9 26       		.uleb128 0x26
 4174 01fa 05       		.uleb128 0x5
 4175 01fb 00       		.byte	0
 4176 01fc 31       		.uleb128 0x31
 4177 01fd 13       		.uleb128 0x13
 4178 01fe 02       		.uleb128 0x2
 4179 01ff 0A       		.uleb128 0xa
 4180 0200 00       		.byte	0
 4181 0201 00       		.byte	0
 4182 0202 27       		.uleb128 0x27
 4183 0203 34       		.uleb128 0x34
 4184 0204 00       		.byte	0
 4185 0205 31       		.uleb128 0x31
 4186 0206 13       		.uleb128 0x13
 4187 0207 1C       		.uleb128 0x1c
 4188 0208 0B       		.uleb128 0xb
 4189 0209 00       		.byte	0
 4190 020a 00       		.byte	0
 4191 020b 28       		.uleb128 0x28
 4192 020c 2E       		.uleb128 0x2e
 4193 020d 01       		.byte	0x1
 4194 020e 3F       		.uleb128 0x3f
 4195 020f 0C       		.uleb128 0xc
 4196 0210 03       		.uleb128 0x3
 4197 0211 0E       		.uleb128 0xe
 4198 0212 3A       		.uleb128 0x3a
 4199 0213 0B       		.uleb128 0xb
 4200 0214 3B       		.uleb128 0x3b
 4201 0215 05       		.uleb128 0x5
 4202 0216 27       		.uleb128 0x27
 4203 0217 0C       		.uleb128 0xc
ARM GAS  G:\Users\Jaxb\AppData\Local\Temp\cctfzRXv.s 			page 102


 4204 0218 11       		.uleb128 0x11
 4205 0219 01       		.uleb128 0x1
 4206 021a 12       		.uleb128 0x12
 4207 021b 01       		.uleb128 0x1
 4208 021c 40       		.uleb128 0x40
 4209 021d 06       		.uleb128 0x6
 4210 021e 9742     		.uleb128 0x2117
 4211 0220 0C       		.uleb128 0xc
 4212 0221 01       		.uleb128 0x1
 4213 0222 13       		.uleb128 0x13
 4214 0223 00       		.byte	0
 4215 0224 00       		.byte	0
 4216 0225 29       		.uleb128 0x29
 4217 0226 2E       		.uleb128 0x2e
 4218 0227 01       		.byte	0x1
 4219 0228 3F       		.uleb128 0x3f
 4220 0229 0C       		.uleb128 0xc
 4221 022a 03       		.uleb128 0x3
 4222 022b 0E       		.uleb128 0xe
 4223 022c 3A       		.uleb128 0x3a
 4224 022d 0B       		.uleb128 0xb
 4225 022e 3B       		.uleb128 0x3b
 4226 022f 05       		.uleb128 0x5
 4227 0230 27       		.uleb128 0x27
 4228 0231 0C       		.uleb128 0xc
 4229 0232 49       		.uleb128 0x49
 4230 0233 13       		.uleb128 0x13
 4231 0234 11       		.uleb128 0x11
 4232 0235 01       		.uleb128 0x1
 4233 0236 12       		.uleb128 0x12
 4234 0237 01       		.uleb128 0x1
 4235 0238 40       		.uleb128 0x40
 4236 0239 06       		.uleb128 0x6
 4237 023a 9742     		.uleb128 0x2117
 4238 023c 0C       		.uleb128 0xc
 4239 023d 01       		.uleb128 0x1
 4240 023e 13       		.uleb128 0x13
 4241 023f 00       		.byte	0
 4242 0240 00       		.byte	0
 4243 0241 2A       		.uleb128 0x2a
 4244 0242 34       		.uleb128 0x34
 4245 0243 00       		.byte	0
 4246 0244 03       		.uleb128 0x3
 4247 0245 0E       		.uleb128 0xe
 4248 0246 3A       		.uleb128 0x3a
 4249 0247 0B       		.uleb128 0xb
 4250 0248 3B       		.uleb128 0x3b
 4251 0249 05       		.uleb128 0x5
 4252 024a 49       		.uleb128 0x49
 4253 024b 13       		.uleb128 0x13
 4254 024c 1C       		.uleb128 0x1c
 4255 024d 0B       		.uleb128 0xb
 4256 024e 00       		.byte	0
 4257 024f 00       		.byte	0
 4258 0250 2B       		.uleb128 0x2b
 4259 0251 2E       		.uleb128 0x2e
 4260 0252 01       		.byte	0x1
ARM GAS  G:\Users\Jaxb\AppData\Local\Temp\cctfzRXv.s 			page 103


 4261 0253 3F       		.uleb128 0x3f
 4262 0254 0C       		.uleb128 0xc
 4263 0255 03       		.uleb128 0x3
 4264 0256 0E       		.uleb128 0xe
 4265 0257 3A       		.uleb128 0x3a
 4266 0258 0B       		.uleb128 0xb
 4267 0259 3B       		.uleb128 0x3b
 4268 025a 0B       		.uleb128 0xb
 4269 025b 27       		.uleb128 0x27
 4270 025c 0C       		.uleb128 0xc
 4271 025d 49       		.uleb128 0x49
 4272 025e 13       		.uleb128 0x13
 4273 025f 11       		.uleb128 0x11
 4274 0260 01       		.uleb128 0x1
 4275 0261 12       		.uleb128 0x12
 4276 0262 01       		.uleb128 0x1
 4277 0263 40       		.uleb128 0x40
 4278 0264 06       		.uleb128 0x6
 4279 0265 9742     		.uleb128 0x2117
 4280 0267 0C       		.uleb128 0xc
 4281 0268 01       		.uleb128 0x1
 4282 0269 13       		.uleb128 0x13
 4283 026a 00       		.byte	0
 4284 026b 00       		.byte	0
 4285 026c 2C       		.uleb128 0x2c
 4286 026d 05       		.uleb128 0x5
 4287 026e 00       		.byte	0
 4288 026f 03       		.uleb128 0x3
 4289 0270 0E       		.uleb128 0xe
 4290 0271 3A       		.uleb128 0x3a
 4291 0272 0B       		.uleb128 0xb
 4292 0273 3B       		.uleb128 0x3b
 4293 0274 0B       		.uleb128 0xb
 4294 0275 49       		.uleb128 0x49
 4295 0276 13       		.uleb128 0x13
 4296 0277 02       		.uleb128 0x2
 4297 0278 06       		.uleb128 0x6
 4298 0279 00       		.byte	0
 4299 027a 00       		.byte	0
 4300 027b 2D       		.uleb128 0x2d
 4301 027c 34       		.uleb128 0x34
 4302 027d 00       		.byte	0
 4303 027e 03       		.uleb128 0x3
 4304 027f 0E       		.uleb128 0xe
 4305 0280 3A       		.uleb128 0x3a
 4306 0281 0B       		.uleb128 0xb
 4307 0282 3B       		.uleb128 0x3b
 4308 0283 0B       		.uleb128 0xb
 4309 0284 49       		.uleb128 0x49
 4310 0285 13       		.uleb128 0x13
 4311 0286 02       		.uleb128 0x2
 4312 0287 06       		.uleb128 0x6
 4313 0288 00       		.byte	0
 4314 0289 00       		.byte	0
 4315 028a 2E       		.uleb128 0x2e
 4316 028b 2E       		.uleb128 0x2e
 4317 028c 01       		.byte	0x1
ARM GAS  G:\Users\Jaxb\AppData\Local\Temp\cctfzRXv.s 			page 104


 4318 028d 3F       		.uleb128 0x3f
 4319 028e 0C       		.uleb128 0xc
 4320 028f 03       		.uleb128 0x3
 4321 0290 0E       		.uleb128 0xe
 4322 0291 3A       		.uleb128 0x3a
 4323 0292 0B       		.uleb128 0xb
 4324 0293 3B       		.uleb128 0x3b
 4325 0294 0B       		.uleb128 0xb
 4326 0295 27       		.uleb128 0x27
 4327 0296 0C       		.uleb128 0xc
 4328 0297 11       		.uleb128 0x11
 4329 0298 01       		.uleb128 0x1
 4330 0299 12       		.uleb128 0x12
 4331 029a 01       		.uleb128 0x1
 4332 029b 40       		.uleb128 0x40
 4333 029c 06       		.uleb128 0x6
 4334 029d 9742     		.uleb128 0x2117
 4335 029f 0C       		.uleb128 0xc
 4336 02a0 01       		.uleb128 0x1
 4337 02a1 13       		.uleb128 0x13
 4338 02a2 00       		.byte	0
 4339 02a3 00       		.byte	0
 4340 02a4 2F       		.uleb128 0x2f
 4341 02a5 898201   		.uleb128 0x4109
 4342 02a8 01       		.byte	0x1
 4343 02a9 11       		.uleb128 0x11
 4344 02aa 01       		.uleb128 0x1
 4345 02ab 31       		.uleb128 0x31
 4346 02ac 13       		.uleb128 0x13
 4347 02ad 01       		.uleb128 0x1
 4348 02ae 13       		.uleb128 0x13
 4349 02af 00       		.byte	0
 4350 02b0 00       		.byte	0
 4351 02b1 30       		.uleb128 0x30
 4352 02b2 8A8201   		.uleb128 0x410a
 4353 02b5 00       		.byte	0
 4354 02b6 02       		.uleb128 0x2
 4355 02b7 0A       		.uleb128 0xa
 4356 02b8 9142     		.uleb128 0x2111
 4357 02ba 0A       		.uleb128 0xa
 4358 02bb 00       		.byte	0
 4359 02bc 00       		.byte	0
 4360 02bd 31       		.uleb128 0x31
 4361 02be 898201   		.uleb128 0x4109
 4362 02c1 01       		.byte	0x1
 4363 02c2 11       		.uleb128 0x11
 4364 02c3 01       		.uleb128 0x1
 4365 02c4 9542     		.uleb128 0x2115
 4366 02c6 0C       		.uleb128 0xc
 4367 02c7 31       		.uleb128 0x31
 4368 02c8 13       		.uleb128 0x13
 4369 02c9 01       		.uleb128 0x1
 4370 02ca 13       		.uleb128 0x13
 4371 02cb 00       		.byte	0
 4372 02cc 00       		.byte	0
 4373 02cd 32       		.uleb128 0x32
 4374 02ce 898201   		.uleb128 0x4109
ARM GAS  G:\Users\Jaxb\AppData\Local\Temp\cctfzRXv.s 			page 105


 4375 02d1 01       		.byte	0x1
 4376 02d2 11       		.uleb128 0x11
 4377 02d3 01       		.uleb128 0x1
 4378 02d4 9542     		.uleb128 0x2115
 4379 02d6 0C       		.uleb128 0xc
 4380 02d7 31       		.uleb128 0x31
 4381 02d8 13       		.uleb128 0x13
 4382 02d9 00       		.byte	0
 4383 02da 00       		.byte	0
 4384 02db 33       		.uleb128 0x33
 4385 02dc 2E       		.uleb128 0x2e
 4386 02dd 00       		.byte	0
 4387 02de 3F       		.uleb128 0x3f
 4388 02df 0C       		.uleb128 0xc
 4389 02e0 3C       		.uleb128 0x3c
 4390 02e1 0C       		.uleb128 0xc
 4391 02e2 8740     		.uleb128 0x2007
 4392 02e4 0E       		.uleb128 0xe
 4393 02e5 03       		.uleb128 0x3
 4394 02e6 0E       		.uleb128 0xe
 4395 02e7 3A       		.uleb128 0x3a
 4396 02e8 0B       		.uleb128 0xb
 4397 02e9 3B       		.uleb128 0x3b
 4398 02ea 05       		.uleb128 0x5
 4399 02eb 00       		.byte	0
 4400 02ec 00       		.byte	0
 4401 02ed 00       		.byte	0
 4402              		.section	.debug_loc,"",%progbits
 4403              	.Ldebug_loc0:
 4404              	.LLST37:
 4405 0000 78060000 		.4byte	.LVL118-.Ltext0
 4406 0004 A0060000 		.4byte	.LVL119-.Ltext0
 4407 0008 0100     		.2byte	0x1
 4408 000a 50       		.byte	0x50
 4409 000b A0060000 		.4byte	.LVL119-.Ltext0
 4410 000f A6060000 		.4byte	.LVL121-.Ltext0
 4411 0013 0400     		.2byte	0x4
 4412 0015 F3       		.byte	0xf3
 4413 0016 01       		.uleb128 0x1
 4414 0017 50       		.byte	0x50
 4415 0018 9F       		.byte	0x9f
 4416 0019 A6060000 		.4byte	.LVL121-.Ltext0
 4417 001d BA060000 		.4byte	.LVL122-.Ltext0
 4418 0021 0100     		.2byte	0x1
 4419 0023 50       		.byte	0x50
 4420 0024 BA060000 		.4byte	.LVL122-.Ltext0
 4421 0028 C0060000 		.4byte	.LVL124-.Ltext0
 4422 002c 0400     		.2byte	0x4
 4423 002e F3       		.byte	0xf3
 4424 002f 01       		.uleb128 0x1
 4425 0030 50       		.byte	0x50
 4426 0031 9F       		.byte	0x9f
 4427 0032 C0060000 		.4byte	.LVL124-.Ltext0
 4428 0036 C2060000 		.4byte	.LVL125-.Ltext0
 4429 003a 0100     		.2byte	0x1
 4430 003c 50       		.byte	0x50
 4431 003d C2060000 		.4byte	.LVL125-.Ltext0
ARM GAS  G:\Users\Jaxb\AppData\Local\Temp\cctfzRXv.s 			page 106


 4432 0041 C4060000 		.4byte	.LVL126-.Ltext0
 4433 0045 0400     		.2byte	0x4
 4434 0047 F3       		.byte	0xf3
 4435 0048 01       		.uleb128 0x1
 4436 0049 50       		.byte	0x50
 4437 004a 9F       		.byte	0x9f
 4438 004b C4060000 		.4byte	.LVL126-.Ltext0
 4439 004f D8060000 		.4byte	.LVL127-.Ltext0
 4440 0053 0100     		.2byte	0x1
 4441 0055 50       		.byte	0x50
 4442 0056 D8060000 		.4byte	.LVL127-.Ltext0
 4443 005a DE060000 		.4byte	.LVL129-.Ltext0
 4444 005e 0400     		.2byte	0x4
 4445 0060 F3       		.byte	0xf3
 4446 0061 01       		.uleb128 0x1
 4447 0062 50       		.byte	0x50
 4448 0063 9F       		.byte	0x9f
 4449 0064 DE060000 		.4byte	.LVL129-.Ltext0
 4450 0068 E8060000 		.4byte	.LVL130-.Ltext0
 4451 006c 0100     		.2byte	0x1
 4452 006e 50       		.byte	0x50
 4453 006f E8060000 		.4byte	.LVL130-.Ltext0
 4454 0073 F2060000 		.4byte	.LVL132-.Ltext0
 4455 0077 0400     		.2byte	0x4
 4456 0079 F3       		.byte	0xf3
 4457 007a 01       		.uleb128 0x1
 4458 007b 50       		.byte	0x50
 4459 007c 9F       		.byte	0x9f
 4460 007d F2060000 		.4byte	.LVL132-.Ltext0
 4461 0081 F4060000 		.4byte	.LVL133-.Ltext0
 4462 0085 0100     		.2byte	0x1
 4463 0087 50       		.byte	0x50
 4464 0088 F4060000 		.4byte	.LVL133-.Ltext0
 4465 008c 04070000 		.4byte	.LVL135-.Ltext0
 4466 0090 0400     		.2byte	0x4
 4467 0092 F3       		.byte	0xf3
 4468 0093 01       		.uleb128 0x1
 4469 0094 50       		.byte	0x50
 4470 0095 9F       		.byte	0x9f
 4471 0096 04070000 		.4byte	.LVL135-.Ltext0
 4472 009a 06070000 		.4byte	.LVL136-.Ltext0
 4473 009e 0100     		.2byte	0x1
 4474 00a0 50       		.byte	0x50
 4475 00a1 06070000 		.4byte	.LVL136-.Ltext0
 4476 00a5 0C070000 		.4byte	.LVL138-.Ltext0
 4477 00a9 0400     		.2byte	0x4
 4478 00ab F3       		.byte	0xf3
 4479 00ac 01       		.uleb128 0x1
 4480 00ad 50       		.byte	0x50
 4481 00ae 9F       		.byte	0x9f
 4482 00af 0C070000 		.4byte	.LVL138-.Ltext0
 4483 00b3 0E070000 		.4byte	.LVL139-.Ltext0
 4484 00b7 0100     		.2byte	0x1
 4485 00b9 50       		.byte	0x50
 4486 00ba 0E070000 		.4byte	.LVL139-.Ltext0
 4487 00be 14070000 		.4byte	.LVL141-.Ltext0
 4488 00c2 0400     		.2byte	0x4
ARM GAS  G:\Users\Jaxb\AppData\Local\Temp\cctfzRXv.s 			page 107


 4489 00c4 F3       		.byte	0xf3
 4490 00c5 01       		.uleb128 0x1
 4491 00c6 50       		.byte	0x50
 4492 00c7 9F       		.byte	0x9f
 4493 00c8 14070000 		.4byte	.LVL141-.Ltext0
 4494 00cc 16070000 		.4byte	.LVL142-.Ltext0
 4495 00d0 0100     		.2byte	0x1
 4496 00d2 50       		.byte	0x50
 4497 00d3 16070000 		.4byte	.LVL142-.Ltext0
 4498 00d7 1C070000 		.4byte	.LVL144-.Ltext0
 4499 00db 0400     		.2byte	0x4
 4500 00dd F3       		.byte	0xf3
 4501 00de 01       		.uleb128 0x1
 4502 00df 50       		.byte	0x50
 4503 00e0 9F       		.byte	0x9f
 4504 00e1 1C070000 		.4byte	.LVL144-.Ltext0
 4505 00e5 1E070000 		.4byte	.LVL145-.Ltext0
 4506 00e9 0100     		.2byte	0x1
 4507 00eb 50       		.byte	0x50
 4508 00ec 1E070000 		.4byte	.LVL145-.Ltext0
 4509 00f0 24070000 		.4byte	.LVL147-.Ltext0
 4510 00f4 0400     		.2byte	0x4
 4511 00f6 F3       		.byte	0xf3
 4512 00f7 01       		.uleb128 0x1
 4513 00f8 50       		.byte	0x50
 4514 00f9 9F       		.byte	0x9f
 4515 00fa 24070000 		.4byte	.LVL147-.Ltext0
 4516 00fe 26070000 		.4byte	.LVL148-.Ltext0
 4517 0102 0100     		.2byte	0x1
 4518 0104 50       		.byte	0x50
 4519 0105 26070000 		.4byte	.LVL148-.Ltext0
 4520 0109 30070000 		.4byte	.LVL150-.Ltext0
 4521 010d 0400     		.2byte	0x4
 4522 010f F3       		.byte	0xf3
 4523 0110 01       		.uleb128 0x1
 4524 0111 50       		.byte	0x50
 4525 0112 9F       		.byte	0x9f
 4526 0113 30070000 		.4byte	.LVL150-.Ltext0
 4527 0117 32070000 		.4byte	.LVL151-.Ltext0
 4528 011b 0100     		.2byte	0x1
 4529 011d 50       		.byte	0x50
 4530 011e 32070000 		.4byte	.LVL151-.Ltext0
 4531 0122 38070000 		.4byte	.LVL153-.Ltext0
 4532 0126 0400     		.2byte	0x4
 4533 0128 F3       		.byte	0xf3
 4534 0129 01       		.uleb128 0x1
 4535 012a 50       		.byte	0x50
 4536 012b 9F       		.byte	0x9f
 4537 012c 38070000 		.4byte	.LVL153-.Ltext0
 4538 0130 3A070000 		.4byte	.LVL154-.Ltext0
 4539 0134 0100     		.2byte	0x1
 4540 0136 50       		.byte	0x50
 4541 0137 3A070000 		.4byte	.LVL154-.Ltext0
 4542 013b 40070000 		.4byte	.LVL156-.Ltext0
 4543 013f 0400     		.2byte	0x4
 4544 0141 F3       		.byte	0xf3
 4545 0142 01       		.uleb128 0x1
ARM GAS  G:\Users\Jaxb\AppData\Local\Temp\cctfzRXv.s 			page 108


 4546 0143 50       		.byte	0x50
 4547 0144 9F       		.byte	0x9f
 4548 0145 40070000 		.4byte	.LVL156-.Ltext0
 4549 0149 42070000 		.4byte	.LVL157-.Ltext0
 4550 014d 0100     		.2byte	0x1
 4551 014f 50       		.byte	0x50
 4552 0150 42070000 		.4byte	.LVL157-.Ltext0
 4553 0154 48070000 		.4byte	.LVL159-.Ltext0
 4554 0158 0400     		.2byte	0x4
 4555 015a F3       		.byte	0xf3
 4556 015b 01       		.uleb128 0x1
 4557 015c 50       		.byte	0x50
 4558 015d 9F       		.byte	0x9f
 4559 015e 48070000 		.4byte	.LVL159-.Ltext0
 4560 0162 52070000 		.4byte	.LVL161-.Ltext0
 4561 0166 0100     		.2byte	0x1
 4562 0168 50       		.byte	0x50
 4563 0169 52070000 		.4byte	.LVL161-.Ltext0
 4564 016d 56070000 		.4byte	.LFE51-.Ltext0
 4565 0171 0400     		.2byte	0x4
 4566 0173 F3       		.byte	0xf3
 4567 0174 01       		.uleb128 0x1
 4568 0175 50       		.byte	0x50
 4569 0176 9F       		.byte	0x9f
 4570 0177 00000000 		.4byte	0
 4571 017b 00000000 		.4byte	0
 4572              	.LLST38:
 4573 017f 78060000 		.4byte	.LVL118-.Ltext0
 4574 0183 C2060000 		.4byte	.LVL125-.Ltext0
 4575 0187 0200     		.2byte	0x2
 4576 0189 30       		.byte	0x30
 4577 018a 9F       		.byte	0x9f
 4578 018b C2060000 		.4byte	.LVL125-.Ltext0
 4579 018f C4060000 		.4byte	.LVL126-.Ltext0
 4580 0193 0100     		.2byte	0x1
 4581 0195 50       		.byte	0x50
 4582 0196 C4060000 		.4byte	.LVL126-.Ltext0
 4583 019a 56070000 		.4byte	.LFE51-.Ltext0
 4584 019e 0200     		.2byte	0x2
 4585 01a0 30       		.byte	0x30
 4586 01a1 9F       		.byte	0x9f
 4587 01a2 00000000 		.4byte	0
 4588 01a6 00000000 		.4byte	0
 4589              	.LLST39:
 4590 01aa E8060000 		.4byte	.LVL130-.Ltext0
 4591 01ae F2060000 		.4byte	.LVL132-.Ltext0
 4592 01b2 0200     		.2byte	0x2
 4593 01b4 33       		.byte	0x33
 4594 01b5 9F       		.byte	0x9f
 4595 01b6 00000000 		.4byte	0
 4596 01ba 00000000 		.4byte	0
 4597              	.LLST40:
 4598 01be E8060000 		.4byte	.LVL130-.Ltext0
 4599 01c2 EC060000 		.4byte	.LVL131-.Ltext0
 4600 01c6 0100     		.2byte	0x1
 4601 01c8 50       		.byte	0x50
 4602 01c9 00000000 		.4byte	0
ARM GAS  G:\Users\Jaxb\AppData\Local\Temp\cctfzRXv.s 			page 109


 4603 01cd 00000000 		.4byte	0
 4604              	.LLST41:
 4605 01d1 E8060000 		.4byte	.LVL130-.Ltext0
 4606 01d5 F2060000 		.4byte	.LVL132-.Ltext0
 4607 01d9 0200     		.2byte	0x2
 4608 01db 30       		.byte	0x30
 4609 01dc 9F       		.byte	0x9f
 4610 01dd 00000000 		.4byte	0
 4611 01e1 00000000 		.4byte	0
 4612              	.LLST42:
 4613 01e5 F4060000 		.4byte	.LVL133-.Ltext0
 4614 01e9 04070000 		.4byte	.LVL135-.Ltext0
 4615 01ed 0600     		.2byte	0x6
 4616 01ef 0C       		.byte	0xc
 4617 01f0 01010100 		.4byte	0x10101
 4618 01f4 9F       		.byte	0x9f
 4619 01f5 00000000 		.4byte	0
 4620 01f9 00000000 		.4byte	0
 4621              	.LLST43:
 4622 01fd F4060000 		.4byte	.LVL133-.Ltext0
 4623 0201 F8060000 		.4byte	.LVL134-.Ltext0
 4624 0205 0100     		.2byte	0x1
 4625 0207 50       		.byte	0x50
 4626 0208 00000000 		.4byte	0
 4627 020c 00000000 		.4byte	0
 4628              	.LLST44:
 4629 0210 F4060000 		.4byte	.LVL133-.Ltext0
 4630 0214 04070000 		.4byte	.LVL135-.Ltext0
 4631 0218 0200     		.2byte	0x2
 4632 021a 30       		.byte	0x30
 4633 021b 9F       		.byte	0x9f
 4634 021c 00000000 		.4byte	0
 4635 0220 00000000 		.4byte	0
 4636              	.LLST36:
 4637 0224 48060000 		.4byte	.LVL114-.Ltext0
 4638 0228 54060000 		.4byte	.LVL115-.Ltext0
 4639 022c 0200     		.2byte	0x2
 4640 022e 30       		.byte	0x30
 4641 022f 9F       		.byte	0x9f
 4642 0230 54060000 		.4byte	.LVL115-.Ltext0
 4643 0234 68060000 		.4byte	.LVL116-.Ltext0
 4644 0238 0100     		.2byte	0x1
 4645 023a 53       		.byte	0x53
 4646 023b 68060000 		.4byte	.LVL116-.Ltext0
 4647 023f 6E060000 		.4byte	.LVL117-.Ltext0
 4648 0243 0200     		.2byte	0x2
 4649 0245 30       		.byte	0x30
 4650 0246 9F       		.byte	0x9f
 4651 0247 6E060000 		.4byte	.LVL117-.Ltext0
 4652 024b 78060000 		.4byte	.LFE50-.Ltext0
 4653 024f 0100     		.2byte	0x1
 4654 0251 53       		.byte	0x53
 4655 0252 00000000 		.4byte	0
 4656 0256 00000000 		.4byte	0
 4657              	.LLST34:
 4658 025a F4050000 		.4byte	.LVL105-.Ltext0
 4659 025e 06060000 		.4byte	.LVL106-.Ltext0
ARM GAS  G:\Users\Jaxb\AppData\Local\Temp\cctfzRXv.s 			page 110


 4660 0262 0100     		.2byte	0x1
 4661 0264 50       		.byte	0x50
 4662 0265 06060000 		.4byte	.LVL106-.Ltext0
 4663 0269 0A060000 		.4byte	.LVL107-.Ltext0
 4664 026d 0400     		.2byte	0x4
 4665 026f F3       		.byte	0xf3
 4666 0270 01       		.uleb128 0x1
 4667 0271 50       		.byte	0x50
 4668 0272 9F       		.byte	0x9f
 4669 0273 0A060000 		.4byte	.LVL107-.Ltext0
 4670 0277 1A060000 		.4byte	.LVL108-.Ltext0
 4671 027b 0100     		.2byte	0x1
 4672 027d 50       		.byte	0x50
 4673 027e 1A060000 		.4byte	.LVL108-.Ltext0
 4674 0282 1E060000 		.4byte	.LVL109-.Ltext0
 4675 0286 0400     		.2byte	0x4
 4676 0288 F3       		.byte	0xf3
 4677 0289 01       		.uleb128 0x1
 4678 028a 50       		.byte	0x50
 4679 028b 9F       		.byte	0x9f
 4680 028c 1E060000 		.4byte	.LVL109-.Ltext0
 4681 0290 2E060000 		.4byte	.LVL110-.Ltext0
 4682 0294 0100     		.2byte	0x1
 4683 0296 50       		.byte	0x50
 4684 0297 2E060000 		.4byte	.LVL110-.Ltext0
 4685 029b 32060000 		.4byte	.LVL111-.Ltext0
 4686 029f 0400     		.2byte	0x4
 4687 02a1 F3       		.byte	0xf3
 4688 02a2 01       		.uleb128 0x1
 4689 02a3 50       		.byte	0x50
 4690 02a4 9F       		.byte	0x9f
 4691 02a5 32060000 		.4byte	.LVL111-.Ltext0
 4692 02a9 44060000 		.4byte	.LVL112-.Ltext0
 4693 02ad 0100     		.2byte	0x1
 4694 02af 50       		.byte	0x50
 4695 02b0 44060000 		.4byte	.LVL112-.Ltext0
 4696 02b4 48060000 		.4byte	.LFE49-.Ltext0
 4697 02b8 0400     		.2byte	0x4
 4698 02ba F3       		.byte	0xf3
 4699 02bb 01       		.uleb128 0x1
 4700 02bc 50       		.byte	0x50
 4701 02bd 9F       		.byte	0x9f
 4702 02be 00000000 		.4byte	0
 4703 02c2 00000000 		.4byte	0
 4704              	.LLST35:
 4705 02c6 F4050000 		.4byte	.LVL105-.Ltext0
 4706 02ca 46060000 		.4byte	.LVL113-.Ltext0
 4707 02ce 0200     		.2byte	0x2
 4708 02d0 30       		.byte	0x30
 4709 02d1 9F       		.byte	0x9f
 4710 02d2 46060000 		.4byte	.LVL113-.Ltext0
 4711 02d6 48060000 		.4byte	.LFE49-.Ltext0
 4712 02da 0100     		.2byte	0x1
 4713 02dc 50       		.byte	0x50
 4714 02dd 00000000 		.4byte	0
 4715 02e1 00000000 		.4byte	0
 4716              	.LLST33:
ARM GAS  G:\Users\Jaxb\AppData\Local\Temp\cctfzRXv.s 			page 111


 4717 02e5 E0050000 		.4byte	.LVL101-.Ltext0
 4718 02e9 E8050000 		.4byte	.LVL102-.Ltext0
 4719 02ed 0100     		.2byte	0x1
 4720 02ef 51       		.byte	0x51
 4721 02f0 E8050000 		.4byte	.LVL102-.Ltext0
 4722 02f4 EC050000 		.4byte	.LVL103-.Ltext0
 4723 02f8 0400     		.2byte	0x4
 4724 02fa F3       		.byte	0xf3
 4725 02fb 01       		.uleb128 0x1
 4726 02fc 51       		.byte	0x51
 4727 02fd 9F       		.byte	0x9f
 4728 02fe EC050000 		.4byte	.LVL103-.Ltext0
 4729 0302 EE050000 		.4byte	.LVL104-.Ltext0
 4730 0306 0100     		.2byte	0x1
 4731 0308 51       		.byte	0x51
 4732 0309 EE050000 		.4byte	.LVL104-.Ltext0
 4733 030d F2050000 		.4byte	.LFE48-.Ltext0
 4734 0311 0400     		.2byte	0x4
 4735 0313 F3       		.byte	0xf3
 4736 0314 01       		.uleb128 0x1
 4737 0315 51       		.byte	0x51
 4738 0316 9F       		.byte	0x9f
 4739 0317 00000000 		.4byte	0
 4740 031b 00000000 		.4byte	0
 4741              	.LLST31:
 4742 031f D8050000 		.4byte	.LVL98-.Ltext0
 4743 0323 DA050000 		.4byte	.LVL99-.Ltext0
 4744 0327 0100     		.2byte	0x1
 4745 0329 50       		.byte	0x50
 4746 032a DA050000 		.4byte	.LVL99-.Ltext0
 4747 032e E0050000 		.4byte	.LFE47-.Ltext0
 4748 0332 0400     		.2byte	0x4
 4749 0334 F3       		.byte	0xf3
 4750 0335 01       		.uleb128 0x1
 4751 0336 50       		.byte	0x50
 4752 0337 9F       		.byte	0x9f
 4753 0338 00000000 		.4byte	0
 4754 033c 00000000 		.4byte	0
 4755              	.LLST32:
 4756 0340 D8050000 		.4byte	.LVL98-.Ltext0
 4757 0344 DA050000 		.4byte	.LVL99-.Ltext0
 4758 0348 0200     		.2byte	0x2
 4759 034a 30       		.byte	0x30
 4760 034b 9F       		.byte	0x9f
 4761 034c DA050000 		.4byte	.LVL99-.Ltext0
 4762 0350 DE050000 		.4byte	.LVL100-.Ltext0
 4763 0354 0500     		.2byte	0x5
 4764 0356 70       		.byte	0x70
 4765 0357 00       		.sleb128 0
 4766 0358 40       		.byte	0x40
 4767 0359 25       		.byte	0x25
 4768 035a 9F       		.byte	0x9f
 4769 035b 00000000 		.4byte	0
 4770 035f 00000000 		.4byte	0
 4771              	.LLST29:
 4772 0363 D0050000 		.4byte	.LVL95-.Ltext0
 4773 0367 D2050000 		.4byte	.LVL96-.Ltext0
ARM GAS  G:\Users\Jaxb\AppData\Local\Temp\cctfzRXv.s 			page 112


 4774 036b 0100     		.2byte	0x1
 4775 036d 50       		.byte	0x50
 4776 036e D2050000 		.4byte	.LVL96-.Ltext0
 4777 0372 D6050000 		.4byte	.LFE46-.Ltext0
 4778 0376 0400     		.2byte	0x4
 4779 0378 F3       		.byte	0xf3
 4780 0379 01       		.uleb128 0x1
 4781 037a 50       		.byte	0x50
 4782 037b 9F       		.byte	0x9f
 4783 037c 00000000 		.4byte	0
 4784 0380 00000000 		.4byte	0
 4785              	.LLST30:
 4786 0384 D0050000 		.4byte	.LVL95-.Ltext0
 4787 0388 D2050000 		.4byte	.LVL96-.Ltext0
 4788 038c 0200     		.2byte	0x2
 4789 038e 30       		.byte	0x30
 4790 038f 9F       		.byte	0x9f
 4791 0390 D2050000 		.4byte	.LVL96-.Ltext0
 4792 0394 D4050000 		.4byte	.LVL97-.Ltext0
 4793 0398 0500     		.2byte	0x5
 4794 039a 70       		.byte	0x70
 4795 039b 00       		.sleb128 0
 4796 039c 48       		.byte	0x48
 4797 039d 25       		.byte	0x25
 4798 039e 9F       		.byte	0x9f
 4799 039f 00000000 		.4byte	0
 4800 03a3 00000000 		.4byte	0
 4801              	.LLST27:
 4802 03a7 C8050000 		.4byte	.LVL92-.Ltext0
 4803 03ab CA050000 		.4byte	.LVL93-.Ltext0
 4804 03af 0100     		.2byte	0x1
 4805 03b1 50       		.byte	0x50
 4806 03b2 CA050000 		.4byte	.LVL93-.Ltext0
 4807 03b6 D0050000 		.4byte	.LFE45-.Ltext0
 4808 03ba 0400     		.2byte	0x4
 4809 03bc F3       		.byte	0xf3
 4810 03bd 01       		.uleb128 0x1
 4811 03be 50       		.byte	0x50
 4812 03bf 9F       		.byte	0x9f
 4813 03c0 00000000 		.4byte	0
 4814 03c4 00000000 		.4byte	0
 4815              	.LLST28:
 4816 03c8 C8050000 		.4byte	.LVL92-.Ltext0
 4817 03cc CA050000 		.4byte	.LVL93-.Ltext0
 4818 03d0 0200     		.2byte	0x2
 4819 03d2 30       		.byte	0x30
 4820 03d3 9F       		.byte	0x9f
 4821 03d4 CA050000 		.4byte	.LVL93-.Ltext0
 4822 03d8 CE050000 		.4byte	.LVL94-.Ltext0
 4823 03dc 0600     		.2byte	0x6
 4824 03de 70       		.byte	0x70
 4825 03df 00       		.sleb128 0
 4826 03e0 08       		.byte	0x8
 4827 03e1 70       		.byte	0x70
 4828 03e2 1A       		.byte	0x1a
 4829 03e3 9F       		.byte	0x9f
 4830 03e4 00000000 		.4byte	0
ARM GAS  G:\Users\Jaxb\AppData\Local\Temp\cctfzRXv.s 			page 113


 4831 03e8 00000000 		.4byte	0
 4832              	.LLST24:
 4833 03ec 9C050000 		.4byte	.LVL84-.Ltext0
 4834 03f0 BC050000 		.4byte	.LVL89-.Ltext0
 4835 03f4 0100     		.2byte	0x1
 4836 03f6 50       		.byte	0x50
 4837 03f7 BC050000 		.4byte	.LVL89-.Ltext0
 4838 03fb C6050000 		.4byte	.LFE44-.Ltext0
 4839 03ff 0400     		.2byte	0x4
 4840 0401 F3       		.byte	0xf3
 4841 0402 01       		.uleb128 0x1
 4842 0403 50       		.byte	0x50
 4843 0404 9F       		.byte	0x9f
 4844 0405 00000000 		.4byte	0
 4845 0409 00000000 		.4byte	0
 4846              	.LLST25:
 4847 040d 9C050000 		.4byte	.LVL84-.Ltext0
 4848 0411 B0050000 		.4byte	.LVL85-.Ltext0
 4849 0415 0400     		.2byte	0x4
 4850 0417 0A       		.byte	0xa
 4851 0418 FFFF     		.2byte	0xffff
 4852 041a 9F       		.byte	0x9f
 4853 041b B0050000 		.4byte	.LVL85-.Ltext0
 4854 041f B2050000 		.4byte	.LVL86-.Ltext0
 4855 0423 0300     		.2byte	0x3
 4856 0425 73       		.byte	0x73
 4857 0426 7F       		.sleb128 -1
 4858 0427 9F       		.byte	0x9f
 4859 0428 B2050000 		.4byte	.LVL86-.Ltext0
 4860 042c B4050000 		.4byte	.LVL87-.Ltext0
 4861 0430 0100     		.2byte	0x1
 4862 0432 53       		.byte	0x53
 4863 0433 B4050000 		.4byte	.LVL87-.Ltext0
 4864 0437 BA050000 		.4byte	.LVL88-.Ltext0
 4865 043b 0300     		.2byte	0x3
 4866 043d 73       		.byte	0x73
 4867 043e 7F       		.sleb128 -1
 4868 043f 9F       		.byte	0x9f
 4869 0440 00000000 		.4byte	0
 4870 0444 00000000 		.4byte	0
 4871              	.LLST26:
 4872 0448 9C050000 		.4byte	.LVL84-.Ltext0
 4873 044c BC050000 		.4byte	.LVL89-.Ltext0
 4874 0450 0200     		.2byte	0x2
 4875 0452 30       		.byte	0x30
 4876 0453 9F       		.byte	0x9f
 4877 0454 BC050000 		.4byte	.LVL89-.Ltext0
 4878 0458 C0050000 		.4byte	.LVL90-.Ltext0
 4879 045c 0700     		.2byte	0x7
 4880 045e 70       		.byte	0x70
 4881 045f 00       		.sleb128 0
 4882 0460 32       		.byte	0x32
 4883 0461 1A       		.byte	0x1a
 4884 0462 30       		.byte	0x30
 4885 0463 29       		.byte	0x29
 4886 0464 9F       		.byte	0x9f
 4887 0465 C0050000 		.4byte	.LVL90-.Ltext0
ARM GAS  G:\Users\Jaxb\AppData\Local\Temp\cctfzRXv.s 			page 114


 4888 0469 C4050000 		.4byte	.LVL91-.Ltext0
 4889 046d 0800     		.2byte	0x8
 4890 046f 70       		.byte	0x70
 4891 0470 00       		.sleb128 0
 4892 0471 20       		.byte	0x20
 4893 0472 32       		.byte	0x32
 4894 0473 1A       		.byte	0x1a
 4895 0474 30       		.byte	0x30
 4896 0475 29       		.byte	0x29
 4897 0476 9F       		.byte	0x9f
 4898 0477 00000000 		.4byte	0
 4899 047b 00000000 		.4byte	0
 4900              	.LLST22:
 4901 047f 7C050000 		.4byte	.LVL81-.Ltext0
 4902 0483 8A050000 		.4byte	.LVL82-.Ltext0
 4903 0487 0100     		.2byte	0x1
 4904 0489 50       		.byte	0x50
 4905 048a 8A050000 		.4byte	.LVL82-.Ltext0
 4906 048e 9A050000 		.4byte	.LFE43-.Ltext0
 4907 0492 0400     		.2byte	0x4
 4908 0494 F3       		.byte	0xf3
 4909 0495 01       		.uleb128 0x1
 4910 0496 50       		.byte	0x50
 4911 0497 9F       		.byte	0x9f
 4912 0498 00000000 		.4byte	0
 4913 049c 00000000 		.4byte	0
 4914              	.LLST23:
 4915 04a0 7C050000 		.4byte	.LVL81-.Ltext0
 4916 04a4 8A050000 		.4byte	.LVL82-.Ltext0
 4917 04a8 0200     		.2byte	0x2
 4918 04aa 30       		.byte	0x30
 4919 04ab 9F       		.byte	0x9f
 4920 04ac 8A050000 		.4byte	.LVL82-.Ltext0
 4921 04b0 8E050000 		.4byte	.LVL83-.Ltext0
 4922 04b4 0700     		.2byte	0x7
 4923 04b6 70       		.byte	0x70
 4924 04b7 00       		.sleb128 0
 4925 04b8 33       		.byte	0x33
 4926 04b9 1A       		.byte	0x1a
 4927 04ba 32       		.byte	0x32
 4928 04bb 29       		.byte	0x29
 4929 04bc 9F       		.byte	0x9f
 4930 04bd 00000000 		.4byte	0
 4931 04c1 00000000 		.4byte	0
 4932              	.LLST18:
 4933 04c5 C8040000 		.4byte	.LVL60-.Ltext0
 4934 04c9 F6040000 		.4byte	.LVL65-.Ltext0
 4935 04cd 0100     		.2byte	0x1
 4936 04cf 50       		.byte	0x50
 4937 04d0 F6040000 		.4byte	.LVL65-.Ltext0
 4938 04d4 06050000 		.4byte	.LVL66-.Ltext0
 4939 04d8 0400     		.2byte	0x4
 4940 04da F3       		.byte	0xf3
 4941 04db 01       		.uleb128 0x1
 4942 04dc 50       		.byte	0x50
 4943 04dd 9F       		.byte	0x9f
 4944 04de 06050000 		.4byte	.LVL66-.Ltext0
ARM GAS  G:\Users\Jaxb\AppData\Local\Temp\cctfzRXv.s 			page 115


 4945 04e2 10050000 		.4byte	.LVL67-.Ltext0
 4946 04e6 0100     		.2byte	0x1
 4947 04e8 50       		.byte	0x50
 4948 04e9 10050000 		.4byte	.LVL67-.Ltext0
 4949 04ed 12050000 		.4byte	.LVL68-.Ltext0
 4950 04f1 0400     		.2byte	0x4
 4951 04f3 F3       		.byte	0xf3
 4952 04f4 01       		.uleb128 0x1
 4953 04f5 50       		.byte	0x50
 4954 04f6 9F       		.byte	0x9f
 4955 04f7 12050000 		.4byte	.LVL68-.Ltext0
 4956 04fb 3A050000 		.4byte	.LVL74-.Ltext0
 4957 04ff 0100     		.2byte	0x1
 4958 0501 50       		.byte	0x50
 4959 0502 3A050000 		.4byte	.LVL74-.Ltext0
 4960 0506 3E050000 		.4byte	.LVL75-.Ltext0
 4961 050a 0400     		.2byte	0x4
 4962 050c F3       		.byte	0xf3
 4963 050d 01       		.uleb128 0x1
 4964 050e 50       		.byte	0x50
 4965 050f 9F       		.byte	0x9f
 4966 0510 3E050000 		.4byte	.LVL75-.Ltext0
 4967 0514 6A050000 		.4byte	.LVL80-.Ltext0
 4968 0518 0100     		.2byte	0x1
 4969 051a 50       		.byte	0x50
 4970 051b 6A050000 		.4byte	.LVL80-.Ltext0
 4971 051f 7A050000 		.4byte	.LFE42-.Ltext0
 4972 0523 0400     		.2byte	0x4
 4973 0525 F3       		.byte	0xf3
 4974 0526 01       		.uleb128 0x1
 4975 0527 50       		.byte	0x50
 4976 0528 9F       		.byte	0x9f
 4977 0529 00000000 		.4byte	0
 4978 052d 00000000 		.4byte	0
 4979              	.LLST19:
 4980 0531 C8040000 		.4byte	.LVL60-.Ltext0
 4981 0535 1E050000 		.4byte	.LVL69-.Ltext0
 4982 0539 0100     		.2byte	0x1
 4983 053b 51       		.byte	0x51
 4984 053c 1E050000 		.4byte	.LVL69-.Ltext0
 4985 0540 3E050000 		.4byte	.LVL75-.Ltext0
 4986 0544 0400     		.2byte	0x4
 4987 0546 F3       		.byte	0xf3
 4988 0547 01       		.uleb128 0x1
 4989 0548 51       		.byte	0x51
 4990 0549 9F       		.byte	0x9f
 4991 054a 3E050000 		.4byte	.LVL75-.Ltext0
 4992 054e 7A050000 		.4byte	.LFE42-.Ltext0
 4993 0552 0100     		.2byte	0x1
 4994 0554 51       		.byte	0x51
 4995 0555 00000000 		.4byte	0
 4996 0559 00000000 		.4byte	0
 4997              	.LLST20:
 4998 055d C8040000 		.4byte	.LVL60-.Ltext0
 4999 0561 10050000 		.4byte	.LVL67-.Ltext0
 5000 0565 0200     		.2byte	0x2
 5001 0567 30       		.byte	0x30
ARM GAS  G:\Users\Jaxb\AppData\Local\Temp\cctfzRXv.s 			page 116


 5002 0568 9F       		.byte	0x9f
 5003 0569 10050000 		.4byte	.LVL67-.Ltext0
 5004 056d 12050000 		.4byte	.LVL68-.Ltext0
 5005 0571 0100     		.2byte	0x1
 5006 0573 50       		.byte	0x50
 5007 0574 12050000 		.4byte	.LVL68-.Ltext0
 5008 0578 7A050000 		.4byte	.LFE42-.Ltext0
 5009 057c 0200     		.2byte	0x2
 5010 057e 30       		.byte	0x30
 5011 057f 9F       		.byte	0x9f
 5012 0580 00000000 		.4byte	0
 5013 0584 00000000 		.4byte	0
 5014              	.LLST21:
 5015 0588 C8040000 		.4byte	.LVL60-.Ltext0
 5016 058c E6040000 		.4byte	.LVL61-.Ltext0
 5017 0590 0400     		.2byte	0x4
 5018 0592 0A       		.byte	0xa
 5019 0593 FFFF     		.2byte	0xffff
 5020 0595 9F       		.byte	0x9f
 5021 0596 E6040000 		.4byte	.LVL61-.Ltext0
 5022 059a E8040000 		.4byte	.LVL62-.Ltext0
 5023 059e 0300     		.2byte	0x3
 5024 05a0 72       		.byte	0x72
 5025 05a1 7F       		.sleb128 -1
 5026 05a2 9F       		.byte	0x9f
 5027 05a3 E8040000 		.4byte	.LVL62-.Ltext0
 5028 05a7 EA040000 		.4byte	.LVL63-.Ltext0
 5029 05ab 0100     		.2byte	0x1
 5030 05ad 52       		.byte	0x52
 5031 05ae EA040000 		.4byte	.LVL63-.Ltext0
 5032 05b2 F4040000 		.4byte	.LVL64-.Ltext0
 5033 05b6 0300     		.2byte	0x3
 5034 05b8 72       		.byte	0x72
 5035 05b9 7F       		.sleb128 -1
 5036 05ba 9F       		.byte	0x9f
 5037 05bb 06050000 		.4byte	.LVL66-.Ltext0
 5038 05bf 26050000 		.4byte	.LVL70-.Ltext0
 5039 05c3 0400     		.2byte	0x4
 5040 05c5 0A       		.byte	0xa
 5041 05c6 FFFF     		.2byte	0xffff
 5042 05c8 9F       		.byte	0x9f
 5043 05c9 26050000 		.4byte	.LVL70-.Ltext0
 5044 05cd 28050000 		.4byte	.LVL71-.Ltext0
 5045 05d1 0300     		.2byte	0x3
 5046 05d3 73       		.byte	0x73
 5047 05d4 7F       		.sleb128 -1
 5048 05d5 9F       		.byte	0x9f
 5049 05d6 28050000 		.4byte	.LVL71-.Ltext0
 5050 05da 2A050000 		.4byte	.LVL72-.Ltext0
 5051 05de 0100     		.2byte	0x1
 5052 05e0 53       		.byte	0x53
 5053 05e1 2A050000 		.4byte	.LVL72-.Ltext0
 5054 05e5 30050000 		.4byte	.LVL73-.Ltext0
 5055 05e9 0300     		.2byte	0x3
 5056 05eb 73       		.byte	0x73
 5057 05ec 7F       		.sleb128 -1
 5058 05ed 9F       		.byte	0x9f
ARM GAS  G:\Users\Jaxb\AppData\Local\Temp\cctfzRXv.s 			page 117


 5059 05ee 3E050000 		.4byte	.LVL75-.Ltext0
 5060 05f2 5A050000 		.4byte	.LVL76-.Ltext0
 5061 05f6 0400     		.2byte	0x4
 5062 05f8 0A       		.byte	0xa
 5063 05f9 FFFF     		.2byte	0xffff
 5064 05fb 9F       		.byte	0x9f
 5065 05fc 5A050000 		.4byte	.LVL76-.Ltext0
 5066 0600 5C050000 		.4byte	.LVL77-.Ltext0
 5067 0604 0300     		.2byte	0x3
 5068 0606 72       		.byte	0x72
 5069 0607 7F       		.sleb128 -1
 5070 0608 9F       		.byte	0x9f
 5071 0609 5C050000 		.4byte	.LVL77-.Ltext0
 5072 060d 5E050000 		.4byte	.LVL78-.Ltext0
 5073 0611 0100     		.2byte	0x1
 5074 0613 52       		.byte	0x52
 5075 0614 5E050000 		.4byte	.LVL78-.Ltext0
 5076 0618 68050000 		.4byte	.LVL79-.Ltext0
 5077 061c 0300     		.2byte	0x3
 5078 061e 72       		.byte	0x72
 5079 061f 7F       		.sleb128 -1
 5080 0620 9F       		.byte	0x9f
 5081 0621 00000000 		.4byte	0
 5082 0625 00000000 		.4byte	0
 5083              	.LLST16:
 5084 0629 B0040000 		.4byte	.LVL53-.Ltext0
 5085 062d B8040000 		.4byte	.LVL54-.Ltext0
 5086 0631 0100     		.2byte	0x1
 5087 0633 50       		.byte	0x50
 5088 0634 B8040000 		.4byte	.LVL54-.Ltext0
 5089 0638 C0040000 		.4byte	.LVL57-.Ltext0
 5090 063c 0400     		.2byte	0x4
 5091 063e F3       		.byte	0xf3
 5092 063f 01       		.uleb128 0x1
 5093 0640 50       		.byte	0x50
 5094 0641 9F       		.byte	0x9f
 5095 0642 C0040000 		.4byte	.LVL57-.Ltext0
 5096 0646 C2040000 		.4byte	.LVL58-.Ltext0
 5097 064a 0100     		.2byte	0x1
 5098 064c 50       		.byte	0x50
 5099 064d C2040000 		.4byte	.LVL58-.Ltext0
 5100 0651 C8040000 		.4byte	.LFE41-.Ltext0
 5101 0655 0400     		.2byte	0x4
 5102 0657 F3       		.byte	0xf3
 5103 0658 01       		.uleb128 0x1
 5104 0659 50       		.byte	0x50
 5105 065a 9F       		.byte	0x9f
 5106 065b 00000000 		.4byte	0
 5107 065f 00000000 		.4byte	0
 5108              	.LLST17:
 5109 0663 B0040000 		.4byte	.LVL53-.Ltext0
 5110 0667 BC040000 		.4byte	.LVL55-.Ltext0
 5111 066b 0200     		.2byte	0x2
 5112 066d 30       		.byte	0x30
 5113 066e 9F       		.byte	0x9f
 5114 066f BC040000 		.4byte	.LVL55-.Ltext0
 5115 0673 C0040000 		.4byte	.LVL57-.Ltext0
ARM GAS  G:\Users\Jaxb\AppData\Local\Temp\cctfzRXv.s 			page 118


 5116 0677 0100     		.2byte	0x1
 5117 0679 50       		.byte	0x50
 5118 067a C0040000 		.4byte	.LVL57-.Ltext0
 5119 067e C6040000 		.4byte	.LVL59-.Ltext0
 5120 0682 0200     		.2byte	0x2
 5121 0684 30       		.byte	0x30
 5122 0685 9F       		.byte	0x9f
 5123 0686 C6040000 		.4byte	.LVL59-.Ltext0
 5124 068a C8040000 		.4byte	.LFE41-.Ltext0
 5125 068e 0100     		.2byte	0x1
 5126 0690 50       		.byte	0x50
 5127 0691 00000000 		.4byte	0
 5128 0695 00000000 		.4byte	0
 5129              	.LLST15:
 5130 0699 00040000 		.4byte	.LFB39-.Ltext0
 5131 069d 04040000 		.4byte	.LCFI14-.Ltext0
 5132 06a1 0200     		.2byte	0x2
 5133 06a3 7D       		.byte	0x7d
 5134 06a4 00       		.sleb128 0
 5135 06a5 04040000 		.4byte	.LCFI14-.Ltext0
 5136 06a9 78040000 		.4byte	.LCFI15-.Ltext0
 5137 06ad 0200     		.2byte	0x2
 5138 06af 7D       		.byte	0x7d
 5139 06b0 08       		.sleb128 8
 5140 06b1 78040000 		.4byte	.LCFI15-.Ltext0
 5141 06b5 82040000 		.4byte	.LCFI16-.Ltext0
 5142 06b9 0200     		.2byte	0x2
 5143 06bb 7D       		.byte	0x7d
 5144 06bc 00       		.sleb128 0
 5145 06bd 82040000 		.4byte	.LCFI16-.Ltext0
 5146 06c1 90040000 		.4byte	.LCFI17-.Ltext0
 5147 06c5 0200     		.2byte	0x2
 5148 06c7 7D       		.byte	0x7d
 5149 06c8 08       		.sleb128 8
 5150 06c9 90040000 		.4byte	.LCFI17-.Ltext0
 5151 06cd 98040000 		.4byte	.LFE39-.Ltext0
 5152 06d1 0200     		.2byte	0x2
 5153 06d3 7D       		.byte	0x7d
 5154 06d4 00       		.sleb128 0
 5155 06d5 00000000 		.4byte	0
 5156 06d9 00000000 		.4byte	0
 5157              	.LLST13:
 5158 06dd 84030000 		.4byte	.LVL38-.Ltext0
 5159 06e1 AA030000 		.4byte	.LVL40-.Ltext0
 5160 06e5 0100     		.2byte	0x1
 5161 06e7 50       		.byte	0x50
 5162 06e8 AA030000 		.4byte	.LVL40-.Ltext0
 5163 06ec AC030000 		.4byte	.LVL41-.Ltext0
 5164 06f0 0400     		.2byte	0x4
 5165 06f2 F3       		.byte	0xf3
 5166 06f3 01       		.uleb128 0x1
 5167 06f4 50       		.byte	0x50
 5168 06f5 9F       		.byte	0x9f
 5169 06f6 AC030000 		.4byte	.LVL41-.Ltext0
 5170 06fa B2030000 		.4byte	.LVL43-.Ltext0
 5171 06fe 0100     		.2byte	0x1
 5172 0700 50       		.byte	0x50
ARM GAS  G:\Users\Jaxb\AppData\Local\Temp\cctfzRXv.s 			page 119


 5173 0701 B2030000 		.4byte	.LVL43-.Ltext0
 5174 0705 B4030000 		.4byte	.LVL44-.Ltext0
 5175 0709 0400     		.2byte	0x4
 5176 070b F3       		.byte	0xf3
 5177 070c 01       		.uleb128 0x1
 5178 070d 50       		.byte	0x50
 5179 070e 9F       		.byte	0x9f
 5180 070f B4030000 		.4byte	.LVL44-.Ltext0
 5181 0713 B6030000 		.4byte	.LVL45-.Ltext0
 5182 0717 0100     		.2byte	0x1
 5183 0719 50       		.byte	0x50
 5184 071a B6030000 		.4byte	.LVL45-.Ltext0
 5185 071e B8030000 		.4byte	.LVL46-.Ltext0
 5186 0722 0400     		.2byte	0x4
 5187 0724 F3       		.byte	0xf3
 5188 0725 01       		.uleb128 0x1
 5189 0726 50       		.byte	0x50
 5190 0727 9F       		.byte	0x9f
 5191 0728 B8030000 		.4byte	.LVL46-.Ltext0
 5192 072c D4030000 		.4byte	.LFE37-.Ltext0
 5193 0730 0100     		.2byte	0x1
 5194 0732 50       		.byte	0x50
 5195 0733 00000000 		.4byte	0
 5196 0737 00000000 		.4byte	0
 5197              	.LLST14:
 5198 073b 84030000 		.4byte	.LVL38-.Ltext0
 5199 073f 94030000 		.4byte	.LVL39-.Ltext0
 5200 0743 0200     		.2byte	0x2
 5201 0745 30       		.byte	0x30
 5202 0746 9F       		.byte	0x9f
 5203 0747 94030000 		.4byte	.LVL39-.Ltext0
 5204 074b AA030000 		.4byte	.LVL40-.Ltext0
 5205 074f 0100     		.2byte	0x1
 5206 0751 53       		.byte	0x53
 5207 0752 AC030000 		.4byte	.LVL41-.Ltext0
 5208 0756 B0030000 		.4byte	.LVL42-.Ltext0
 5209 075a 0100     		.2byte	0x1
 5210 075c 53       		.byte	0x53
 5211 075d B4030000 		.4byte	.LVL44-.Ltext0
 5212 0761 B8030000 		.4byte	.LVL46-.Ltext0
 5213 0765 0100     		.2byte	0x1
 5214 0767 53       		.byte	0x53
 5215 0768 B8030000 		.4byte	.LVL46-.Ltext0
 5216 076c BE030000 		.4byte	.LVL47-.Ltext0
 5217 0770 0200     		.2byte	0x2
 5218 0772 30       		.byte	0x30
 5219 0773 9F       		.byte	0x9f
 5220 0774 BE030000 		.4byte	.LVL47-.Ltext0
 5221 0778 C0030000 		.4byte	.LVL48-.Ltext0
 5222 077c 0100     		.2byte	0x1
 5223 077e 53       		.byte	0x53
 5224 077f C0030000 		.4byte	.LVL48-.Ltext0
 5225 0783 C6030000 		.4byte	.LVL49-.Ltext0
 5226 0787 0200     		.2byte	0x2
 5227 0789 30       		.byte	0x30
 5228 078a 9F       		.byte	0x9f
 5229 078b C6030000 		.4byte	.LVL49-.Ltext0
ARM GAS  G:\Users\Jaxb\AppData\Local\Temp\cctfzRXv.s 			page 120


 5230 078f D4030000 		.4byte	.LFE37-.Ltext0
 5231 0793 0100     		.2byte	0x1
 5232 0795 53       		.byte	0x53
 5233 0796 00000000 		.4byte	0
 5234 079a 00000000 		.4byte	0
 5235              	.LLST10:
 5236 079e DC020000 		.4byte	.LFB36-.Ltext0
 5237 07a2 E0020000 		.4byte	.LCFI11-.Ltext0
 5238 07a6 0200     		.2byte	0x2
 5239 07a8 7D       		.byte	0x7d
 5240 07a9 00       		.sleb128 0
 5241 07aa E0020000 		.4byte	.LCFI11-.Ltext0
 5242 07ae 5E030000 		.4byte	.LCFI12-.Ltext0
 5243 07b2 0200     		.2byte	0x2
 5244 07b4 7D       		.byte	0x7d
 5245 07b5 10       		.sleb128 16
 5246 07b6 5E030000 		.4byte	.LCFI12-.Ltext0
 5247 07ba 60030000 		.4byte	.LCFI13-.Ltext0
 5248 07be 0200     		.2byte	0x2
 5249 07c0 7D       		.byte	0x7d
 5250 07c1 00       		.sleb128 0
 5251 07c2 60030000 		.4byte	.LCFI13-.Ltext0
 5252 07c6 82030000 		.4byte	.LFE36-.Ltext0
 5253 07ca 0200     		.2byte	0x2
 5254 07cc 7D       		.byte	0x7d
 5255 07cd 10       		.sleb128 16
 5256 07ce 00000000 		.4byte	0
 5257 07d2 00000000 		.4byte	0
 5258              	.LLST11:
 5259 07d6 DC020000 		.4byte	.LVL31-.Ltext0
 5260 07da EA020000 		.4byte	.LVL32-.Ltext0
 5261 07de 0100     		.2byte	0x1
 5262 07e0 50       		.byte	0x50
 5263 07e1 EA020000 		.4byte	.LVL32-.Ltext0
 5264 07e5 F2020000 		.4byte	.LVL33-.Ltext0
 5265 07e9 0100     		.2byte	0x1
 5266 07eb 52       		.byte	0x52
 5267 07ec F2020000 		.4byte	.LVL33-.Ltext0
 5268 07f0 F6020000 		.4byte	.LVL34-.Ltext0
 5269 07f4 0100     		.2byte	0x1
 5270 07f6 50       		.byte	0x50
 5271 07f7 F6020000 		.4byte	.LVL34-.Ltext0
 5272 07fb 24030000 		.4byte	.LVL35-.Ltext0
 5273 07ff 0100     		.2byte	0x1
 5274 0801 52       		.byte	0x52
 5275 0802 24030000 		.4byte	.LVL35-.Ltext0
 5276 0806 60030000 		.4byte	.LVL37-.Ltext0
 5277 080a 0400     		.2byte	0x4
 5278 080c F3       		.byte	0xf3
 5279 080d 01       		.uleb128 0x1
 5280 080e 50       		.byte	0x50
 5281 080f 9F       		.byte	0x9f
 5282 0810 60030000 		.4byte	.LVL37-.Ltext0
 5283 0814 82030000 		.4byte	.LFE36-.Ltext0
 5284 0818 0100     		.2byte	0x1
 5285 081a 52       		.byte	0x52
 5286 081b 00000000 		.4byte	0
ARM GAS  G:\Users\Jaxb\AppData\Local\Temp\cctfzRXv.s 			page 121


 5287 081f 00000000 		.4byte	0
 5288              	.LLST12:
 5289 0823 DC020000 		.4byte	.LVL31-.Ltext0
 5290 0827 4C030000 		.4byte	.LVL36-.Ltext0
 5291 082b 0100     		.2byte	0x1
 5292 082d 51       		.byte	0x51
 5293 082e 4C030000 		.4byte	.LVL36-.Ltext0
 5294 0832 60030000 		.4byte	.LVL37-.Ltext0
 5295 0836 0400     		.2byte	0x4
 5296 0838 F3       		.byte	0xf3
 5297 0839 01       		.uleb128 0x1
 5298 083a 51       		.byte	0x51
 5299 083b 9F       		.byte	0x9f
 5300 083c 60030000 		.4byte	.LVL37-.Ltext0
 5301 0840 82030000 		.4byte	.LFE36-.Ltext0
 5302 0844 0100     		.2byte	0x1
 5303 0846 51       		.byte	0x51
 5304 0847 00000000 		.4byte	0
 5305 084b 00000000 		.4byte	0
 5306              	.LLST9:
 5307 084f 30020000 		.4byte	.LVL27-.Ltext0
 5308 0853 56020000 		.4byte	.LVL28-.Ltext0
 5309 0857 0100     		.2byte	0x1
 5310 0859 50       		.byte	0x50
 5311 085a 56020000 		.4byte	.LVL28-.Ltext0
 5312 085e 6C020000 		.4byte	.LFE33-.Ltext0
 5313 0862 0400     		.2byte	0x4
 5314 0864 F3       		.byte	0xf3
 5315 0865 01       		.uleb128 0x1
 5316 0866 50       		.byte	0x50
 5317 0867 9F       		.byte	0x9f
 5318 0868 00000000 		.4byte	0
 5319 086c 00000000 		.4byte	0
 5320              	.LLST7:
 5321 0870 28010000 		.4byte	.LFB31-.Ltext0
 5322 0874 2E010000 		.4byte	.LCFI8-.Ltext0
 5323 0878 0200     		.2byte	0x2
 5324 087a 7D       		.byte	0x7d
 5325 087b 00       		.sleb128 0
 5326 087c 2E010000 		.4byte	.LCFI8-.Ltext0
 5327 0880 B2010000 		.4byte	.LCFI9-.Ltext0
 5328 0884 0200     		.2byte	0x2
 5329 0886 7D       		.byte	0x7d
 5330 0887 10       		.sleb128 16
 5331 0888 B2010000 		.4byte	.LCFI9-.Ltext0
 5332 088c C0010000 		.4byte	.LCFI10-.Ltext0
 5333 0890 0200     		.2byte	0x2
 5334 0892 7D       		.byte	0x7d
 5335 0893 00       		.sleb128 0
 5336 0894 C0010000 		.4byte	.LCFI10-.Ltext0
 5337 0898 14020000 		.4byte	.LFE31-.Ltext0
 5338 089c 0200     		.2byte	0x2
 5339 089e 7D       		.byte	0x7d
 5340 089f 10       		.sleb128 16
 5341 08a0 00000000 		.4byte	0
 5342 08a4 00000000 		.4byte	0
 5343              	.LLST8:
ARM GAS  G:\Users\Jaxb\AppData\Local\Temp\cctfzRXv.s 			page 122


 5344 08a8 28010000 		.4byte	.LVL22-.Ltext0
 5345 08ac 30010000 		.4byte	.LVL23-.Ltext0
 5346 08b0 0200     		.2byte	0x2
 5347 08b2 30       		.byte	0x30
 5348 08b3 9F       		.byte	0x9f
 5349 08b4 30010000 		.4byte	.LVL23-.Ltext0
 5350 08b8 AA010000 		.4byte	.LVL24-.Ltext0
 5351 08bc 0100     		.2byte	0x1
 5352 08be 51       		.byte	0x51
 5353 08bf C0010000 		.4byte	.LVL25-.Ltext0
 5354 08c3 14020000 		.4byte	.LFE31-.Ltext0
 5355 08c7 0100     		.2byte	0x1
 5356 08c9 51       		.byte	0x51
 5357 08ca 00000000 		.4byte	0
 5358 08ce 00000000 		.4byte	0
 5359              	.LLST2:
 5360 08d2 3C000000 		.4byte	.LFB30-.Ltext0
 5361 08d6 40000000 		.4byte	.LCFI4-.Ltext0
 5362 08da 0200     		.2byte	0x2
 5363 08dc 7D       		.byte	0x7d
 5364 08dd 00       		.sleb128 0
 5365 08de 40000000 		.4byte	.LCFI4-.Ltext0
 5366 08e2 18010000 		.4byte	.LCFI5-.Ltext0
 5367 08e6 0200     		.2byte	0x2
 5368 08e8 7D       		.byte	0x7d
 5369 08e9 08       		.sleb128 8
 5370 08ea 18010000 		.4byte	.LCFI5-.Ltext0
 5371 08ee 20010000 		.4byte	.LCFI6-.Ltext0
 5372 08f2 0200     		.2byte	0x2
 5373 08f4 7D       		.byte	0x7d
 5374 08f5 00       		.sleb128 0
 5375 08f6 20010000 		.4byte	.LCFI6-.Ltext0
 5376 08fa 24010000 		.4byte	.LCFI7-.Ltext0
 5377 08fe 0200     		.2byte	0x2
 5378 0900 7D       		.byte	0x7d
 5379 0901 08       		.sleb128 8
 5380 0902 24010000 		.4byte	.LCFI7-.Ltext0
 5381 0906 26010000 		.4byte	.LFE30-.Ltext0
 5382 090a 0200     		.2byte	0x2
 5383 090c 7D       		.byte	0x7d
 5384 090d 00       		.sleb128 0
 5385 090e 00000000 		.4byte	0
 5386 0912 00000000 		.4byte	0
 5387              	.LLST3:
 5388 0916 3C000000 		.4byte	.LVL7-.Ltext0
 5389 091a 16010000 		.4byte	.LVL18-.Ltext0
 5390 091e 0100     		.2byte	0x1
 5391 0920 50       		.byte	0x50
 5392 0921 16010000 		.4byte	.LVL18-.Ltext0
 5393 0925 20010000 		.4byte	.LVL20-.Ltext0
 5394 0929 0400     		.2byte	0x4
 5395 092b F3       		.byte	0xf3
 5396 092c 01       		.uleb128 0x1
 5397 092d 50       		.byte	0x50
 5398 092e 9F       		.byte	0x9f
 5399 092f 20010000 		.4byte	.LVL20-.Ltext0
 5400 0933 22010000 		.4byte	.LVL21-.Ltext0
ARM GAS  G:\Users\Jaxb\AppData\Local\Temp\cctfzRXv.s 			page 123


 5401 0937 0100     		.2byte	0x1
 5402 0939 50       		.byte	0x50
 5403 093a 22010000 		.4byte	.LVL21-.Ltext0
 5404 093e 26010000 		.4byte	.LFE30-.Ltext0
 5405 0942 0400     		.2byte	0x4
 5406 0944 F3       		.byte	0xf3
 5407 0945 01       		.uleb128 0x1
 5408 0946 50       		.byte	0x50
 5409 0947 9F       		.byte	0x9f
 5410 0948 00000000 		.4byte	0
 5411 094c 00000000 		.4byte	0
 5412              	.LLST4:
 5413 0950 3C000000 		.4byte	.LVL7-.Ltext0
 5414 0954 02010000 		.4byte	.LVL13-.Ltext0
 5415 0958 0100     		.2byte	0x1
 5416 095a 51       		.byte	0x51
 5417 095b 02010000 		.4byte	.LVL13-.Ltext0
 5418 095f 20010000 		.4byte	.LVL20-.Ltext0
 5419 0963 0400     		.2byte	0x4
 5420 0965 F3       		.byte	0xf3
 5421 0966 01       		.uleb128 0x1
 5422 0967 51       		.byte	0x51
 5423 0968 9F       		.byte	0x9f
 5424 0969 20010000 		.4byte	.LVL20-.Ltext0
 5425 096d 26010000 		.4byte	.LFE30-.Ltext0
 5426 0971 0100     		.2byte	0x1
 5427 0973 51       		.byte	0x51
 5428 0974 00000000 		.4byte	0
 5429 0978 00000000 		.4byte	0
 5430              	.LLST5:
 5431 097c 3C000000 		.4byte	.LVL7-.Ltext0
 5432 0980 1E010000 		.4byte	.LVL19-.Ltext0
 5433 0984 0200     		.2byte	0x2
 5434 0986 30       		.byte	0x30
 5435 0987 9F       		.byte	0x9f
 5436 0988 1E010000 		.4byte	.LVL19-.Ltext0
 5437 098c 20010000 		.4byte	.LVL20-.Ltext0
 5438 0990 0100     		.2byte	0x1
 5439 0992 50       		.byte	0x50
 5440 0993 20010000 		.4byte	.LVL20-.Ltext0
 5441 0997 22010000 		.4byte	.LVL21-.Ltext0
 5442 099b 0200     		.2byte	0x2
 5443 099d 30       		.byte	0x30
 5444 099e 9F       		.byte	0x9f
 5445 099f 22010000 		.4byte	.LVL21-.Ltext0
 5446 09a3 26010000 		.4byte	.LFE30-.Ltext0
 5447 09a7 0100     		.2byte	0x1
 5448 09a9 50       		.byte	0x50
 5449 09aa 00000000 		.4byte	0
 5450 09ae 00000000 		.4byte	0
 5451              	.LLST6:
 5452 09b2 3C000000 		.4byte	.LVL7-.Ltext0
 5453 09b6 5A000000 		.4byte	.LVL8-.Ltext0
 5454 09ba 0200     		.2byte	0x2
 5455 09bc 30       		.byte	0x30
 5456 09bd 9F       		.byte	0x9f
 5457 09be 5A000000 		.4byte	.LVL8-.Ltext0
ARM GAS  G:\Users\Jaxb\AppData\Local\Temp\cctfzRXv.s 			page 124


 5458 09c2 5C000000 		.4byte	.LVL9-.Ltext0
 5459 09c6 0700     		.2byte	0x7
 5460 09c8 40       		.byte	0x40
 5461 09c9 3C       		.byte	0x3c
 5462 09ca 24       		.byte	0x24
 5463 09cb 73       		.byte	0x73
 5464 09cc 00       		.sleb128 0
 5465 09cd 1C       		.byte	0x1c
 5466 09ce 9F       		.byte	0x9f
 5467 09cf 5C000000 		.4byte	.LVL9-.Ltext0
 5468 09d3 5E000000 		.4byte	.LVL10-.Ltext0
 5469 09d7 0700     		.2byte	0x7
 5470 09d9 0A       		.byte	0xa
 5471 09da FFFF     		.2byte	0xffff
 5472 09dc 73       		.byte	0x73
 5473 09dd 00       		.sleb128 0
 5474 09de 1C       		.byte	0x1c
 5475 09df 9F       		.byte	0x9f
 5476 09e0 5E000000 		.4byte	.LVL10-.Ltext0
 5477 09e4 64000000 		.4byte	.LVL11-.Ltext0
 5478 09e8 0700     		.2byte	0x7
 5479 09ea 40       		.byte	0x40
 5480 09eb 3C       		.byte	0x3c
 5481 09ec 24       		.byte	0x24
 5482 09ed 73       		.byte	0x73
 5483 09ee 00       		.sleb128 0
 5484 09ef 1C       		.byte	0x1c
 5485 09f0 9F       		.byte	0x9f
 5486 09f1 FE000000 		.4byte	.LVL12-.Ltext0
 5487 09f5 0A010000 		.4byte	.LVL14-.Ltext0
 5488 09f9 0200     		.2byte	0x2
 5489 09fb 30       		.byte	0x30
 5490 09fc 9F       		.byte	0x9f
 5491 09fd 0A010000 		.4byte	.LVL14-.Ltext0
 5492 0a01 0C010000 		.4byte	.LVL15-.Ltext0
 5493 0a05 0700     		.2byte	0x7
 5494 0a07 40       		.byte	0x40
 5495 0a08 3C       		.byte	0x3c
 5496 0a09 24       		.byte	0x24
 5497 0a0a 73       		.byte	0x73
 5498 0a0b 00       		.sleb128 0
 5499 0a0c 1C       		.byte	0x1c
 5500 0a0d 9F       		.byte	0x9f
 5501 0a0e 0C010000 		.4byte	.LVL15-.Ltext0
 5502 0a12 0E010000 		.4byte	.LVL16-.Ltext0
 5503 0a16 0700     		.2byte	0x7
 5504 0a18 0A       		.byte	0xa
 5505 0a19 FFFF     		.2byte	0xffff
 5506 0a1b 73       		.byte	0x73
 5507 0a1c 00       		.sleb128 0
 5508 0a1d 1C       		.byte	0x1c
 5509 0a1e 9F       		.byte	0x9f
 5510 0a1f 0E010000 		.4byte	.LVL16-.Ltext0
 5511 0a23 14010000 		.4byte	.LVL17-.Ltext0
 5512 0a27 0700     		.2byte	0x7
 5513 0a29 40       		.byte	0x40
 5514 0a2a 3C       		.byte	0x3c
ARM GAS  G:\Users\Jaxb\AppData\Local\Temp\cctfzRXv.s 			page 125


 5515 0a2b 24       		.byte	0x24
 5516 0a2c 73       		.byte	0x73
 5517 0a2d 00       		.sleb128 0
 5518 0a2e 1C       		.byte	0x1c
 5519 0a2f 9F       		.byte	0x9f
 5520 0a30 00000000 		.4byte	0
 5521 0a34 00000000 		.4byte	0
 5522              	.LLST0:
 5523 0a38 00000000 		.4byte	.LFB29-.Ltext0
 5524 0a3c 02000000 		.4byte	.LCFI0-.Ltext0
 5525 0a40 0200     		.2byte	0x2
 5526 0a42 7D       		.byte	0x7d
 5527 0a43 00       		.sleb128 0
 5528 0a44 02000000 		.4byte	.LCFI0-.Ltext0
 5529 0a48 16000000 		.4byte	.LCFI1-.Ltext0
 5530 0a4c 0200     		.2byte	0x2
 5531 0a4e 7D       		.byte	0x7d
 5532 0a4f 08       		.sleb128 8
 5533 0a50 16000000 		.4byte	.LCFI1-.Ltext0
 5534 0a54 20000000 		.4byte	.LCFI2-.Ltext0
 5535 0a58 0200     		.2byte	0x2
 5536 0a5a 7D       		.byte	0x7d
 5537 0a5b 00       		.sleb128 0
 5538 0a5c 20000000 		.4byte	.LCFI2-.Ltext0
 5539 0a60 2C000000 		.4byte	.LCFI3-.Ltext0
 5540 0a64 0200     		.2byte	0x2
 5541 0a66 7D       		.byte	0x7d
 5542 0a67 08       		.sleb128 8
 5543 0a68 2C000000 		.4byte	.LCFI3-.Ltext0
 5544 0a6c 3C000000 		.4byte	.LFE29-.Ltext0
 5545 0a70 0200     		.2byte	0x2
 5546 0a72 7D       		.byte	0x7d
 5547 0a73 00       		.sleb128 0
 5548 0a74 00000000 		.4byte	0
 5549 0a78 00000000 		.4byte	0
 5550              	.LLST1:
 5551 0a7c 00000000 		.4byte	.LVL0-.Ltext0
 5552 0a80 0E000000 		.4byte	.LVL1-.Ltext0
 5553 0a84 0100     		.2byte	0x1
 5554 0a86 50       		.byte	0x50
 5555 0a87 0E000000 		.4byte	.LVL1-.Ltext0
 5556 0a8b 20000000 		.4byte	.LVL3-.Ltext0
 5557 0a8f 0400     		.2byte	0x4
 5558 0a91 F3       		.byte	0xf3
 5559 0a92 01       		.uleb128 0x1
 5560 0a93 50       		.byte	0x50
 5561 0a94 9F       		.byte	0x9f
 5562 0a95 20000000 		.4byte	.LVL3-.Ltext0
 5563 0a99 24000000 		.4byte	.LVL4-.Ltext0
 5564 0a9d 0100     		.2byte	0x1
 5565 0a9f 50       		.byte	0x50
 5566 0aa0 24000000 		.4byte	.LVL4-.Ltext0
 5567 0aa4 3C000000 		.4byte	.LFE29-.Ltext0
 5568 0aa8 0400     		.2byte	0x4
 5569 0aaa F3       		.byte	0xf3
 5570 0aab 01       		.uleb128 0x1
 5571 0aac 50       		.byte	0x50
ARM GAS  G:\Users\Jaxb\AppData\Local\Temp\cctfzRXv.s 			page 126


 5572 0aad 9F       		.byte	0x9f
 5573 0aae 00000000 		.4byte	0
 5574 0ab2 00000000 		.4byte	0
 5575              		.section	.debug_aranges,"",%progbits
 5576 0000 1C000000 		.4byte	0x1c
 5577 0004 0200     		.2byte	0x2
 5578 0006 00000000 		.4byte	.Ldebug_info0
 5579 000a 04       		.byte	0x4
 5580 000b 00       		.byte	0
 5581 000c 0000     		.2byte	0
 5582 000e 0000     		.2byte	0
 5583 0010 00000000 		.4byte	.Ltext0
 5584 0014 E4070000 		.4byte	.Letext0-.Ltext0
 5585 0018 00000000 		.4byte	0
 5586 001c 00000000 		.4byte	0
 5587              		.section	.debug_ranges,"",%progbits
 5588              	.Ldebug_ranges0:
 5589 0000 A0060000 		.4byte	.LBB30-.Ltext0
 5590 0004 A6060000 		.4byte	.LBE30-.Ltext0
 5591 0008 BA060000 		.4byte	.LBB44-.Ltext0
 5592 000c C0060000 		.4byte	.LBE44-.Ltext0
 5593 0010 D8060000 		.4byte	.LBB45-.Ltext0
 5594 0014 DE060000 		.4byte	.LBE45-.Ltext0
 5595 0018 E8060000 		.4byte	.LBB46-.Ltext0
 5596 001c F2060000 		.4byte	.LBE46-.Ltext0
 5597 0020 06070000 		.4byte	.LBB52-.Ltext0
 5598 0024 0C070000 		.4byte	.LBE52-.Ltext0
 5599 0028 0E070000 		.4byte	.LBB53-.Ltext0
 5600 002c 14070000 		.4byte	.LBE53-.Ltext0
 5601 0030 16070000 		.4byte	.LBB54-.Ltext0
 5602 0034 1C070000 		.4byte	.LBE54-.Ltext0
 5603 0038 1E070000 		.4byte	.LBB55-.Ltext0
 5604 003c 24070000 		.4byte	.LBE55-.Ltext0
 5605 0040 26070000 		.4byte	.LBB56-.Ltext0
 5606 0044 30070000 		.4byte	.LBE56-.Ltext0
 5607 0048 32070000 		.4byte	.LBB57-.Ltext0
 5608 004c 38070000 		.4byte	.LBE57-.Ltext0
 5609 0050 3A070000 		.4byte	.LBB58-.Ltext0
 5610 0054 40070000 		.4byte	.LBE58-.Ltext0
 5611 0058 42070000 		.4byte	.LBB59-.Ltext0
 5612 005c 48070000 		.4byte	.LBE59-.Ltext0
 5613 0060 4E070000 		.4byte	.LBB61-.Ltext0
 5614 0064 56070000 		.4byte	.LBE61-.Ltext0
 5615 0068 00000000 		.4byte	0
 5616 006c 00000000 		.4byte	0
 5617 0070 FC060000 		.4byte	.LBB49-.Ltext0
 5618 0074 04070000 		.4byte	.LBE49-.Ltext0
 5619 0078 4A070000 		.4byte	.LBB60-.Ltext0
 5620 007c 4E070000 		.4byte	.LBE60-.Ltext0
 5621 0080 00000000 		.4byte	0
 5622 0084 00000000 		.4byte	0
 5623              		.section	.debug_line,"",%progbits
 5624              	.Ldebug_line0:
 5625 0000 36040000 		.section	.debug_str,"MS",%progbits,1
 5625      02004101 
 5625      00000201 
 5625      FB0E0D00 
ARM GAS  G:\Users\Jaxb\AppData\Local\Temp\cctfzRXv.s 			page 127


 5625      01010101 
 5626              	.LASF105:
 5627 0000 6D657373 		.ascii	"message_pending\000"
 5627      6167655F 
 5627      70656E64 
 5627      696E6700 
 5628              	.LASF16:
 5629 0010 53797374 		.ascii	"SystemCoreClock\000"
 5629      656D436F 
 5629      7265436C 
 5629      6F636B00 
 5630              	.LASF42:
 5631 0020 46464131 		.ascii	"FFA1R\000"
 5631      5200
 5632              	.LASF44:
 5633 0026 46413152 		.ascii	"FA1R\000"
 5633      00
 5634              	.LASF81:
 5635 002b 43414E5F 		.ascii	"CAN_FLAG\000"
 5635      464C4147 
 5635      00
 5636              	.LASF71:
 5637 0034 45787449 		.ascii	"ExtId\000"
 5637      6400
 5638              	.LASF121:
 5639 003a 43414E5F 		.ascii	"CAN_StructInit\000"
 5639      53747275 
 5639      6374496E 
 5639      697400
 5640              	.LASF132:
 5641 0049 463A5C6B 		.ascii	"F:\\kaka\\KAKAOS\\C\\windows\\Project\\RVMDK\243\250"
 5641      616B615C 
 5641      4B414B41 
 5641      4F535C43 
 5641      5C77696E 
 5642 0071 757635A3 		.ascii	"uv5\243\251\000"
 5642      A900
 5643              	.LASF103:
 5644 0077 43414E5F 		.ascii	"CAN_MessagePending\000"
 5644      4D657373 
 5644      61676550 
 5644      656E6469 
 5644      6E6700
 5645              	.LASF112:
 5646 008a 5472616E 		.ascii	"TransmitMailbox\000"
 5646      736D6974 
 5646      4D61696C 
 5646      626F7800 
 5647              	.LASF97:
 5648 009a 43414E5F 		.ascii	"CAN_Sleep\000"
 5648      536C6565 
 5648      7000
 5649              	.LASF117:
 5650 00a4 43414E5F 		.ascii	"CAN_TTComModeCmd\000"
 5650      5454436F 
 5650      6D4D6F64 
 5650      65436D64 
ARM GAS  G:\Users\Jaxb\AppData\Local\Temp\cctfzRXv.s 			page 128


 5650      00
 5651              	.LASF24:
 5652 00b5 54444C52 		.ascii	"TDLR\000"
 5652      00
 5653              	.LASF11:
 5654 00ba 756E7369 		.ascii	"unsigned int\000"
 5654      676E6564 
 5654      20696E74 
 5654      00
 5655              	.LASF22:
 5656 00c7 46756E63 		.ascii	"FunctionalState\000"
 5656      74696F6E 
 5656      616C5374 
 5656      61746500 
 5657              	.LASF54:
 5658 00d7 43414E5F 		.ascii	"CAN_ABOM\000"
 5658      41424F4D 
 5658      00
 5659              	.LASF35:
 5660 00e0 7354784D 		.ascii	"sTxMailBox\000"
 5660      61696C42 
 5660      6F7800
 5661              	.LASF18:
 5662 00eb 466C6167 		.ascii	"FlagStatus\000"
 5662      53746174 
 5662      757300
 5663              	.LASF75:
 5664 00f6 43414E5F 		.ascii	"CAN_Reg\000"
 5664      52656700 
 5665              	.LASF110:
 5666 00fe 4D61696C 		.ascii	"Mailbox\000"
 5666      626F7800 
 5667              	.LASF91:
 5668 0106 43414E5F 		.ascii	"CAN_GetReceiveErrorCounter\000"
 5668      47657452 
 5668      65636569 
 5668      76654572 
 5668      726F7243 
 5669              	.LASF40:
 5670 0121 46533152 		.ascii	"FS1R\000"
 5670      00
 5671              	.LASF46:
 5672 0126 7346696C 		.ascii	"sFilterRegister\000"
 5672      74657252 
 5672      65676973 
 5672      74657200 
 5673              	.LASF104:
 5674 0136 4649464F 		.ascii	"FIFONumber\000"
 5674      4E756D62 
 5674      657200
 5675              	.LASF14:
 5676 0141 75696E74 		.ascii	"uint32_t\000"
 5676      33325F74 
 5676      00
 5677              	.LASF58:
 5678 014a 43414E5F 		.ascii	"CAN_TXFP\000"
 5678      54584650 
ARM GAS  G:\Users\Jaxb\AppData\Local\Temp\cctfzRXv.s 			page 129


 5678      00
 5679              	.LASF120:
 5680 0153 43414E5F 		.ascii	"CAN_BankNumber\000"
 5680      42616E6B 
 5680      4E756D62 
 5680      657200
 5681              	.LASF79:
 5682 0162 43414E5F 		.ascii	"CAN_ClearITPendingBit\000"
 5682      436C6561 
 5682      72495450 
 5682      656E6469 
 5682      6E674269 
 5683              	.LASF76:
 5684 0178 49745F42 		.ascii	"It_Bit\000"
 5684      697400
 5685              	.LASF41:
 5686 017f 52455345 		.ascii	"RESERVED3\000"
 5686      52564544 
 5686      3300
 5687              	.LASF89:
 5688 0189 43414E5F 		.ascii	"CAN_GetLSBTransmitErrorCounter\000"
 5688      4765744C 
 5688      53425472 
 5688      616E736D 
 5688      69744572 
 5689              	.LASF77:
 5690 01a8 43414E78 		.ascii	"CANx\000"
 5690      00
 5691              	.LASF93:
 5692 01ad 6572726F 		.ascii	"errorcode\000"
 5692      72636F64 
 5692      6500
 5693              	.LASF10:
 5694 01b7 6C6F6E67 		.ascii	"long long unsigned int\000"
 5694      206C6F6E 
 5694      6720756E 
 5694      7369676E 
 5694      65642069 
 5695              	.LASF106:
 5696 01ce 43414E5F 		.ascii	"CAN_FIFORelease\000"
 5696      4649464F 
 5696      52656C65 
 5696      61736500 
 5697              	.LASF82:
 5698 01de 69747374 		.ascii	"itstatus\000"
 5698      61747573 
 5698      00
 5699              	.LASF116:
 5700 01e7 7472616E 		.ascii	"transmit_mailbox\000"
 5700      736D6974 
 5700      5F6D6169 
 5700      6C626F78 
 5700      00
 5701              	.LASF4:
 5702 01f8 5F5F7569 		.ascii	"__uint16_t\000"
 5702      6E743136 
 5702      5F7400
ARM GAS  G:\Users\Jaxb\AppData\Local\Temp\cctfzRXv.s 			page 130


 5703              	.LASF49:
 5704 0203 43414E5F 		.ascii	"CAN_Mode\000"
 5704      4D6F6465 
 5704      00
 5705              	.LASF59:
 5706 020c 43414E5F 		.ascii	"CAN_InitTypeDef\000"
 5706      496E6974 
 5706      54797065 
 5706      44656600 
 5707              	.LASF134:
 5708 021c 70656E64 		.ascii	"pendingbitstatus\000"
 5708      696E6762 
 5708      69747374 
 5708      61747573 
 5708      00
 5709              	.LASF57:
 5710 022d 43414E5F 		.ascii	"CAN_RFLM\000"
 5710      52464C4D 
 5710      00
 5711              	.LASF69:
 5712 0236 43414E5F 		.ascii	"CAN_FilterInitTypeDef\000"
 5712      46696C74 
 5712      6572496E 
 5712      69745479 
 5712      70654465 
 5713              	.LASF90:
 5714 024c 636F756E 		.ascii	"counter\000"
 5714      74657200 
 5715              	.LASF60:
 5716 0254 43414E5F 		.ascii	"CAN_FilterIdHigh\000"
 5716      46696C74 
 5716      65724964 
 5716      48696768 
 5716      00
 5717              	.LASF74:
 5718 0265 43616E52 		.ascii	"CanRxMsg\000"
 5718      784D7367 
 5718      00
 5719              	.LASF92:
 5720 026e 43414E5F 		.ascii	"CAN_GetLastErrorCode\000"
 5720      4765744C 
 5720      61737445 
 5720      72726F72 
 5720      436F6465 
 5721              	.LASF96:
 5722 0283 77616B65 		.ascii	"wakeupstatus\000"
 5722      75707374 
 5722      61747573 
 5722      00
 5723              	.LASF19:
 5724 0290 49545374 		.ascii	"ITStatus\000"
 5724      61747573 
 5724      00
 5725              	.LASF66:
 5726 0299 43414E5F 		.ascii	"CAN_FilterMode\000"
 5726      46696C74 
 5726      65724D6F 
ARM GAS  G:\Users\Jaxb\AppData\Local\Temp\cctfzRXv.s 			page 131


 5726      646500
 5727              	.LASF62:
 5728 02a8 43414E5F 		.ascii	"CAN_FilterMaskIdHigh\000"
 5728      46696C74 
 5728      65724D61 
 5728      736B4964 
 5728      48696768 
 5729              	.LASF87:
 5730 02bd 43414E5F 		.ascii	"CAN_ITConfig\000"
 5730      4954436F 
 5730      6E666967 
 5730      00
 5731              	.LASF115:
 5732 02ca 54784D65 		.ascii	"TxMessage\000"
 5732      73736167 
 5732      6500
 5733              	.LASF88:
 5734 02d4 4E657753 		.ascii	"NewState\000"
 5734      74617465 
 5734      00
 5735              	.LASF63:
 5736 02dd 43414E5F 		.ascii	"CAN_FilterMaskIdLow\000"
 5736      46696C74 
 5736      65724D61 
 5736      736B4964 
 5736      4C6F7700 
 5737              	.LASF56:
 5738 02f1 43414E5F 		.ascii	"CAN_NART\000"
 5738      4E415254 
 5738      00
 5739              	.LASF20:
 5740 02fa 44495341 		.ascii	"DISABLE\000"
 5740      424C4500 
 5741              	.LASF53:
 5742 0302 43414E5F 		.ascii	"CAN_TTCM\000"
 5742      5454434D 
 5742      00
 5743              	.LASF125:
 5744 030b 66696C74 		.ascii	"filter_number_bit_pos\000"
 5744      65725F6E 
 5744      756D6265 
 5744      725F6269 
 5744      745F706F 
 5745              	.LASF27:
 5746 0321 52445452 		.ascii	"RDTR\000"
 5746      00
 5747              	.LASF12:
 5748 0326 75696E74 		.ascii	"uint8_t\000"
 5748      385F7400 
 5749              	.LASF101:
 5750 032e 73746174 		.ascii	"status\000"
 5750      757300
 5751              	.LASF26:
 5752 0335 43414E5F 		.ascii	"CAN_TxMailBox_TypeDef\000"
 5752      54784D61 
 5752      696C426F 
 5752      785F5479 
ARM GAS  G:\Users\Jaxb\AppData\Local\Temp\cctfzRXv.s 			page 132


 5752      70654465 
 5753              	.LASF122:
 5754 034b 43414E5F 		.ascii	"CAN_InitStruct\000"
 5754      496E6974 
 5754      53747275 
 5754      637400
 5755              	.LASF94:
 5756 035a 43414E5F 		.ascii	"CAN_WakeUp\000"
 5756      57616B65 
 5756      557000
 5757              	.LASF99:
 5758 0365 43414E5F 		.ascii	"CAN_OperatingModeRequest\000"
 5758      4F706572 
 5758      6174696E 
 5758      674D6F64 
 5758      65526571 
 5759              	.LASF36:
 5760 037e 73464946 		.ascii	"sFIFOMailBox\000"
 5760      4F4D6169 
 5760      6C426F78 
 5760      00
 5761              	.LASF84:
 5762 038b 43414E5F 		.ascii	"CAN_GetITStatus\000"
 5762      47657449 
 5762      54537461 
 5762      74757300 
 5763              	.LASF111:
 5764 039b 43414E5F 		.ascii	"CAN_TransmitStatus\000"
 5764      5472616E 
 5764      736D6974 
 5764      53746174 
 5764      757300
 5765              	.LASF9:
 5766 03ae 6C6F6E67 		.ascii	"long long int\000"
 5766      206C6F6E 
 5766      6720696E 
 5766      7400
 5767              	.LASF70:
 5768 03bc 53746449 		.ascii	"StdId\000"
 5768      6400
 5769              	.LASF98:
 5770 03c2 736C6565 		.ascii	"sleepstatus\000"
 5770      70737461 
 5770      74757300 
 5771              	.LASF130:
 5772 03ce 474E5520 		.ascii	"GNU C11 7.3.1 20180622 (release) [ARM/embedded-7-br"
 5772      43313120 
 5772      372E332E 
 5772      31203230 
 5772      31383036 
 5773 0401 616E6368 		.ascii	"anch revision 261907] -mcpu=cortex-m3 -mthumb -mapc"
 5773      20726576 
 5773      6973696F 
 5773      6E203236 
 5773      31393037 
 5774 0434 732D6672 		.ascii	"s-frame -mthumb-interwork -mcpu=cortex-m3 -mthumb -"
 5774      616D6520 
ARM GAS  G:\Users\Jaxb\AppData\Local\Temp\cctfzRXv.s 			page 133


 5774      2D6D7468 
 5774      756D622D 
 5774      696E7465 
 5775 0467 67647761 		.ascii	"gdwarf-2 -O2\000"
 5775      72662D32 
 5775      202D4F32 
 5775      00
 5776              	.LASF118:
 5777 0474 43414E5F 		.ascii	"CAN_DBGFreeze\000"
 5777      44424746 
 5777      7265657A 
 5777      6500
 5778              	.LASF51:
 5779 0482 43414E5F 		.ascii	"CAN_BS1\000"
 5779      42533100 
 5780              	.LASF52:
 5781 048a 43414E5F 		.ascii	"CAN_BS2\000"
 5781      42533200 
 5782              	.LASF64:
 5783 0492 43414E5F 		.ascii	"CAN_FilterFIFOAssignment\000"
 5783      46696C74 
 5783      65724649 
 5783      464F4173 
 5783      7369676E 
 5784              	.LASF47:
 5785 04ab 43414E5F 		.ascii	"CAN_TypeDef\000"
 5785      54797065 
 5785      44656600 
 5786              	.LASF68:
 5787 04b7 43414E5F 		.ascii	"CAN_FilterActivation\000"
 5787      46696C74 
 5787      65724163 
 5787      74697661 
 5787      74696F6E 
 5788              	.LASF100:
 5789 04cc 43414E5F 		.ascii	"CAN_OperatingMode\000"
 5789      4F706572 
 5789      6174696E 
 5789      674D6F64 
 5789      6500
 5790              	.LASF23:
 5791 04de 54445452 		.ascii	"TDTR\000"
 5791      00
 5792              	.LASF13:
 5793 04e3 75696E74 		.ascii	"uint16_t\000"
 5793      31365F74 
 5793      00
 5794              	.LASF61:
 5795 04ec 43414E5F 		.ascii	"CAN_FilterIdLow\000"
 5795      46696C74 
 5795      65724964 
 5795      4C6F7700 
 5796              	.LASF114:
 5797 04fc 43414E5F 		.ascii	"CAN_Transmit\000"
 5797      5472616E 
 5797      736D6974 
 5797      00
ARM GAS  G:\Users\Jaxb\AppData\Local\Temp\cctfzRXv.s 			page 134


 5798              	.LASF73:
 5799 0509 43616E54 		.ascii	"CanTxMsg\000"
 5799      784D7367 
 5799      00
 5800              	.LASF29:
 5801 0512 52444852 		.ascii	"RDHR\000"
 5801      00
 5802              	.LASF83:
 5803 0517 666C6167 		.ascii	"flagtmp\000"
 5803      746D7000 
 5804              	.LASF48:
 5805 051f 43414E5F 		.ascii	"CAN_Prescaler\000"
 5805      50726573 
 5805      63616C65 
 5805      7200
 5806              	.LASF34:
 5807 052d 52455345 		.ascii	"RESERVED0\000"
 5807      52564544 
 5807      3000
 5808              	.LASF37:
 5809 0537 52455345 		.ascii	"RESERVED1\000"
 5809      52564544 
 5809      3100
 5810              	.LASF39:
 5811 0541 52455345 		.ascii	"RESERVED2\000"
 5811      52564544 
 5811      3200
 5812              	.LASF131:
 5813 054b 2E2E2F2E 		.ascii	"../../source/src/FWlib/src/stm32f10x_can.c\000"
 5813      2E2F736F 
 5813      75726365 
 5813      2F737263 
 5813      2F46576C 
 5814              	.LASF43:
 5815 0576 52455345 		.ascii	"RESERVED4\000"
 5815      52564544 
 5815      3400
 5816              	.LASF45:
 5817 0580 52455345 		.ascii	"RESERVED5\000"
 5817      52564544 
 5817      3500
 5818              	.LASF2:
 5819 058a 73686F72 		.ascii	"short int\000"
 5819      7420696E 
 5819      7400
 5820              	.LASF6:
 5821 0594 6C6F6E67 		.ascii	"long int\000"
 5821      20696E74 
 5821      00
 5822              	.LASF67:
 5823 059d 43414E5F 		.ascii	"CAN_FilterScale\000"
 5823      46696C74 
 5823      65725363 
 5823      616C6500 
 5824              	.LASF127:
 5825 05ad 496E6974 		.ascii	"InitStatus\000"
 5825      53746174 
ARM GAS  G:\Users\Jaxb\AppData\Local\Temp\cctfzRXv.s 			page 135


 5825      757300
 5826              	.LASF15:
 5827 05b8 49544D5F 		.ascii	"ITM_RxBuffer\000"
 5827      52784275 
 5827      66666572 
 5827      00
 5828              	.LASF133:
 5829 05c5 43686563 		.ascii	"CheckITStatus\000"
 5829      6B495453 
 5829      74617475 
 5829      7300
 5830              	.LASF85:
 5831 05d3 43414E5F 		.ascii	"CAN_GetFlagStatus\000"
 5831      47657446 
 5831      6C616753 
 5831      74617475 
 5831      7300
 5832              	.LASF17:
 5833 05e5 52455345 		.ascii	"RESET\000"
 5833      5400
 5834              	.LASF95:
 5835 05eb 77616974 		.ascii	"wait_slak\000"
 5835      5F736C61 
 5835      6B00
 5836              	.LASF128:
 5837 05f5 77616974 		.ascii	"wait_ack\000"
 5837      5F61636B 
 5837      00
 5838              	.LASF119:
 5839 05fe 43414E5F 		.ascii	"CAN_SlaveStartBank\000"
 5839      536C6176 
 5839      65537461 
 5839      72744261 
 5839      6E6B00
 5840              	.LASF50:
 5841 0611 43414E5F 		.ascii	"CAN_SJW\000"
 5841      534A5700 
 5842              	.LASF107:
 5843 0619 43414E5F 		.ascii	"CAN_Receive\000"
 5843      52656365 
 5843      69766500 
 5844              	.LASF3:
 5845 0625 5F5F7569 		.ascii	"__uint8_t\000"
 5845      6E74385F 
 5845      7400
 5846              	.LASF124:
 5847 062f 43414E5F 		.ascii	"CAN_FilterInitStruct\000"
 5847      46696C74 
 5847      6572496E 
 5847      69745374 
 5847      72756374 
 5848              	.LASF21:
 5849 0644 454E4142 		.ascii	"ENABLE\000"
 5849      4C4500
 5850              	.LASF38:
 5851 064b 464D3152 		.ascii	"FM1R\000"
 5851      00
ARM GAS  G:\Users\Jaxb\AppData\Local\Temp\cctfzRXv.s 			page 136


 5852              	.LASF8:
 5853 0650 6C6F6E67 		.ascii	"long unsigned int\000"
 5853      20756E73 
 5853      69676E65 
 5853      6420696E 
 5853      7400
 5854              	.LASF31:
 5855 0662 43414E5F 		.ascii	"CAN_FilterRegister_TypeDef\000"
 5855      46696C74 
 5855      65725265 
 5855      67697374 
 5855      65725F54 
 5856              	.LASF25:
 5857 067d 54444852 		.ascii	"TDHR\000"
 5857      00
 5858              	.LASF30:
 5859 0682 43414E5F 		.ascii	"CAN_FIFOMailBox_TypeDef\000"
 5859      4649464F 
 5859      4D61696C 
 5859      426F785F 
 5859      54797065 
 5860              	.LASF55:
 5861 069a 43414E5F 		.ascii	"CAN_AWUM\000"
 5861      4157554D 
 5861      00
 5862              	.LASF1:
 5863 06a3 756E7369 		.ascii	"unsigned char\000"
 5863      676E6564 
 5863      20636861 
 5863      7200
 5864              	.LASF135:
 5865 06b1 5243435F 		.ascii	"RCC_APB1PeriphResetCmd\000"
 5865      41504231 
 5865      50657269 
 5865      70685265 
 5865      73657443 
 5866              	.LASF108:
 5867 06c8 52784D65 		.ascii	"RxMessage\000"
 5867      73736167 
 5867      6500
 5868              	.LASF7:
 5869 06d2 5F5F7569 		.ascii	"__uint32_t\000"
 5869      6E743332 
 5869      5F7400
 5870              	.LASF65:
 5871 06dd 43414E5F 		.ascii	"CAN_FilterNumber\000"
 5871      46696C74 
 5871      65724E75 
 5871      6D626572 
 5871      00
 5872              	.LASF129:
 5873 06ee 43414E5F 		.ascii	"CAN_DeInit\000"
 5873      4465496E 
 5873      697400
 5874              	.LASF102:
 5875 06f9 74696D65 		.ascii	"timeout\000"
 5875      6F757400 
ARM GAS  G:\Users\Jaxb\AppData\Local\Temp\cctfzRXv.s 			page 137


 5876              	.LASF80:
 5877 0701 43414E5F 		.ascii	"CAN_ClearFlag\000"
 5877      436C6561 
 5877      72466C61 
 5877      6700
 5878              	.LASF32:
 5879 070f 52463052 		.ascii	"RF0R\000"
 5879      00
 5880              	.LASF113:
 5881 0714 73746174 		.ascii	"state\000"
 5881      6500
 5882              	.LASF0:
 5883 071a 7369676E 		.ascii	"signed char\000"
 5883      65642063 
 5883      68617200 
 5884              	.LASF28:
 5885 0726 52444C52 		.ascii	"RDLR\000"
 5885      00
 5886              	.LASF5:
 5887 072b 73686F72 		.ascii	"short unsigned int\000"
 5887      7420756E 
 5887      7369676E 
 5887      65642069 
 5887      6E7400
 5888              	.LASF126:
 5889 073e 43414E5F 		.ascii	"CAN_Init\000"
 5889      496E6974 
 5889      00
 5890              	.LASF33:
 5891 0747 52463152 		.ascii	"RF1R\000"
 5891      00
 5892              	.LASF86:
 5893 074c 62697473 		.ascii	"bitstatus\000"
 5893      74617475 
 5893      7300
 5894              	.LASF109:
 5895 0756 43414E5F 		.ascii	"CAN_CancelTransmit\000"
 5895      43616E63 
 5895      656C5472 
 5895      616E736D 
 5895      697400
 5896              	.LASF78:
 5897 0769 43414E5F 		.ascii	"CAN_IT\000"
 5897      495400
 5898              	.LASF72:
 5899 0770 44617461 		.ascii	"Data\000"
 5899      00
 5900              	.LASF123:
 5901 0775 43414E5F 		.ascii	"CAN_FilterInit\000"
 5901      46696C74 
 5901      6572496E 
 5901      697400
 5902              		.ident	"GCC: (GNU Tools for Arm Embedded Processors 7-2018-q2-update) 7.3.1 20180622 (release) [AR
ARM GAS  G:\Users\Jaxb\AppData\Local\Temp\cctfzRXv.s 			page 138


DEFINED SYMBOLS
                            *ABS*:00000000 stm32f10x_can.c
G:\Users\Jaxb\AppData\Local\Temp\cctfzRXv.s:15     .text:00000000 $t
G:\Users\Jaxb\AppData\Local\Temp\cctfzRXv.s:23     .text:00000000 CAN_DeInit
G:\Users\Jaxb\AppData\Local\Temp\cctfzRXv.s:82     .text:00000038 $d
G:\Users\Jaxb\AppData\Local\Temp\cctfzRXv.s:86     .text:0000003c $t
G:\Users\Jaxb\AppData\Local\Temp\cctfzRXv.s:94     .text:0000003c CAN_Init
G:\Users\Jaxb\AppData\Local\Temp\cctfzRXv.s:292    .text:00000128 CAN_FilterInit
G:\Users\Jaxb\AppData\Local\Temp\cctfzRXv.s:455    .text:00000210 $d
G:\Users\Jaxb\AppData\Local\Temp\cctfzRXv.s:459    .text:00000214 $t
G:\Users\Jaxb\AppData\Local\Temp\cctfzRXv.s:467    .text:00000214 CAN_StructInit
G:\Users\Jaxb\AppData\Local\Temp\cctfzRXv.s:512    .text:00000230 CAN_SlaveStartBank
G:\Users\Jaxb\AppData\Local\Temp\cctfzRXv.s:544    .text:00000268 $d
G:\Users\Jaxb\AppData\Local\Temp\cctfzRXv.s:548    .text:0000026c $t
G:\Users\Jaxb\AppData\Local\Temp\cctfzRXv.s:556    .text:0000026c CAN_DBGFreeze
G:\Users\Jaxb\AppData\Local\Temp\cctfzRXv.s:589    .text:00000280 CAN_TTComModeCmd
G:\Users\Jaxb\AppData\Local\Temp\cctfzRXv.s:646    .text:000002dc CAN_Transmit
G:\Users\Jaxb\AppData\Local\Temp\cctfzRXv.s:782    .text:00000384 CAN_TransmitStatus
G:\Users\Jaxb\AppData\Local\Temp\cctfzRXv.s:856    .text:000003c8 $d
G:\Users\Jaxb\AppData\Local\Temp\cctfzRXv.s:862    .text:000003d4 $t
G:\Users\Jaxb\AppData\Local\Temp\cctfzRXv.s:870    .text:000003d4 CAN_CancelTransmit
G:\Users\Jaxb\AppData\Local\Temp\cctfzRXv.s:917    .text:00000400 CAN_Receive
G:\Users\Jaxb\AppData\Local\Temp\cctfzRXv.s:1036   .text:00000498 CAN_FIFORelease
G:\Users\Jaxb\AppData\Local\Temp\cctfzRXv.s:1069   .text:000004b0 CAN_MessagePending
G:\Users\Jaxb\AppData\Local\Temp\cctfzRXv.s:1111   .text:000004c8 CAN_OperatingModeRequest
G:\Users\Jaxb\AppData\Local\Temp\cctfzRXv.s:1255   .text:0000057c CAN_Sleep
G:\Users\Jaxb\AppData\Local\Temp\cctfzRXv.s:1289   .text:0000059c CAN_WakeUp
G:\Users\Jaxb\AppData\Local\Temp\cctfzRXv.s:1341   .text:000005c8 CAN_GetLastErrorCode
G:\Users\Jaxb\AppData\Local\Temp\cctfzRXv.s:1367   .text:000005d0 CAN_GetReceiveErrorCounter
G:\Users\Jaxb\AppData\Local\Temp\cctfzRXv.s:1393   .text:000005d8 CAN_GetLSBTransmitErrorCounter
G:\Users\Jaxb\AppData\Local\Temp\cctfzRXv.s:1419   .text:000005e0 CAN_ITConfig
G:\Users\Jaxb\AppData\Local\Temp\cctfzRXv.s:1455   .text:000005f4 CAN_GetFlagStatus
G:\Users\Jaxb\AppData\Local\Temp\cctfzRXv.s:1536   .text:00000648 CAN_ClearFlag
G:\Users\Jaxb\AppData\Local\Temp\cctfzRXv.s:1585   .text:00000674 $d
G:\Users\Jaxb\AppData\Local\Temp\cctfzRXv.s:1589   .text:00000678 $t
G:\Users\Jaxb\AppData\Local\Temp\cctfzRXv.s:1597   .text:00000678 CAN_GetITStatus
G:\Users\Jaxb\AppData\Local\Temp\cctfzRXv.s:1863   .text:00000758 CAN_ClearITPendingBit
G:\Users\Jaxb\AppData\Local\Temp\cctfzRXv.s:1973   .text:000007e0 $d

UNDEFINED SYMBOLS
RCC_APB1PeriphResetCmd
