ARM GAS  G:\Users\Jaxb\AppData\Local\Temp\ccznmST2.s 			page 1


   1              		.cpu cortex-m3
   2              		.eabi_attribute 20, 1
   3              		.eabi_attribute 21, 1
   4              		.eabi_attribute 23, 3
   5              		.eabi_attribute 24, 1
   6              		.eabi_attribute 25, 1
   7              		.eabi_attribute 26, 1
   8              		.eabi_attribute 30, 2
   9              		.eabi_attribute 34, 1
  10              		.eabi_attribute 18, 4
  11              		.file	"stm32f10x_dac.c"
  12              		.text
  13              	.Ltext0:
  14              		.cfi_sections	.debug_frame
  15              		.align	1
  16              		.p2align 2,,3
  17              		.global	DAC_DeInit
  18              		.syntax unified
  19              		.thumb
  20              		.thumb_func
  21              		.fpu softvfp
  22              		.type	DAC_DeInit, %function
  23              	DAC_DeInit:
  24              	.LFB29:
  25              		.file 1 "../../source/src/FWlib/src/stm32f10x_dac.c"
   1:../../source/src/FWlib/src/stm32f10x_dac.c **** /**
   2:../../source/src/FWlib/src/stm32f10x_dac.c ****   ******************************************************************************
   3:../../source/src/FWlib/src/stm32f10x_dac.c ****   * @file    stm32f10x_dac.c
   4:../../source/src/FWlib/src/stm32f10x_dac.c ****   * @author  MCD Application Team
   5:../../source/src/FWlib/src/stm32f10x_dac.c ****   * @version V3.5.0
   6:../../source/src/FWlib/src/stm32f10x_dac.c ****   * @date    11-March-2011
   7:../../source/src/FWlib/src/stm32f10x_dac.c ****   * @brief   This file provides all the DAC firmware functions.
   8:../../source/src/FWlib/src/stm32f10x_dac.c ****   ******************************************************************************
   9:../../source/src/FWlib/src/stm32f10x_dac.c ****   * @attention
  10:../../source/src/FWlib/src/stm32f10x_dac.c ****   *
  11:../../source/src/FWlib/src/stm32f10x_dac.c ****   * THE PRESENT FIRMWARE WHICH IS FOR GUIDANCE ONLY AIMS AT PROVIDING CUSTOMERS
  12:../../source/src/FWlib/src/stm32f10x_dac.c ****   * WITH CODING INFORMATION REGARDING THEIR PRODUCTS IN ORDER FOR THEM TO SAVE
  13:../../source/src/FWlib/src/stm32f10x_dac.c ****   * TIME. AS A RESULT, STMICROELECTRONICS SHALL NOT BE HELD LIABLE FOR ANY
  14:../../source/src/FWlib/src/stm32f10x_dac.c ****   * DIRECT, INDIRECT OR CONSEQUENTIAL DAMAGES WITH RESPECT TO ANY CLAIMS ARISING
  15:../../source/src/FWlib/src/stm32f10x_dac.c ****   * FROM THE CONTENT OF SUCH FIRMWARE AND/OR THE USE MADE BY CUSTOMERS OF THE
  16:../../source/src/FWlib/src/stm32f10x_dac.c ****   * CODING INFORMATION CONTAINED HEREIN IN CONNECTION WITH THEIR PRODUCTS.
  17:../../source/src/FWlib/src/stm32f10x_dac.c ****   *
  18:../../source/src/FWlib/src/stm32f10x_dac.c ****   * <h2><center>&copy; COPYRIGHT 2011 STMicroelectronics</center></h2>
  19:../../source/src/FWlib/src/stm32f10x_dac.c ****   ******************************************************************************
  20:../../source/src/FWlib/src/stm32f10x_dac.c ****   */
  21:../../source/src/FWlib/src/stm32f10x_dac.c **** 
  22:../../source/src/FWlib/src/stm32f10x_dac.c **** /* Includes ------------------------------------------------------------------*/
  23:../../source/src/FWlib/src/stm32f10x_dac.c **** #include "stm32f10x_dac.h"
  24:../../source/src/FWlib/src/stm32f10x_dac.c **** #include "stm32f10x_rcc.h"
  25:../../source/src/FWlib/src/stm32f10x_dac.c **** 
  26:../../source/src/FWlib/src/stm32f10x_dac.c **** /** @addtogroup STM32F10x_StdPeriph_Driver
  27:../../source/src/FWlib/src/stm32f10x_dac.c ****   * @{
  28:../../source/src/FWlib/src/stm32f10x_dac.c ****   */
  29:../../source/src/FWlib/src/stm32f10x_dac.c **** 
  30:../../source/src/FWlib/src/stm32f10x_dac.c **** /** @defgroup DAC 
  31:../../source/src/FWlib/src/stm32f10x_dac.c ****   * @brief DAC driver modules
  32:../../source/src/FWlib/src/stm32f10x_dac.c ****   * @{
ARM GAS  G:\Users\Jaxb\AppData\Local\Temp\ccznmST2.s 			page 2


  33:../../source/src/FWlib/src/stm32f10x_dac.c ****   */ 
  34:../../source/src/FWlib/src/stm32f10x_dac.c **** 
  35:../../source/src/FWlib/src/stm32f10x_dac.c **** /** @defgroup DAC_Private_TypesDefinitions
  36:../../source/src/FWlib/src/stm32f10x_dac.c ****   * @{
  37:../../source/src/FWlib/src/stm32f10x_dac.c ****   */
  38:../../source/src/FWlib/src/stm32f10x_dac.c **** 
  39:../../source/src/FWlib/src/stm32f10x_dac.c **** /**
  40:../../source/src/FWlib/src/stm32f10x_dac.c ****   * @}
  41:../../source/src/FWlib/src/stm32f10x_dac.c ****   */
  42:../../source/src/FWlib/src/stm32f10x_dac.c **** 
  43:../../source/src/FWlib/src/stm32f10x_dac.c **** /** @defgroup DAC_Private_Defines
  44:../../source/src/FWlib/src/stm32f10x_dac.c ****   * @{
  45:../../source/src/FWlib/src/stm32f10x_dac.c ****   */
  46:../../source/src/FWlib/src/stm32f10x_dac.c **** 
  47:../../source/src/FWlib/src/stm32f10x_dac.c **** /* CR register Mask */
  48:../../source/src/FWlib/src/stm32f10x_dac.c **** #define CR_CLEAR_MASK              ((uint32_t)0x00000FFE)
  49:../../source/src/FWlib/src/stm32f10x_dac.c **** 
  50:../../source/src/FWlib/src/stm32f10x_dac.c **** /* DAC Dual Channels SWTRIG masks */
  51:../../source/src/FWlib/src/stm32f10x_dac.c **** #define DUAL_SWTRIG_SET            ((uint32_t)0x00000003)
  52:../../source/src/FWlib/src/stm32f10x_dac.c **** #define DUAL_SWTRIG_RESET          ((uint32_t)0xFFFFFFFC)
  53:../../source/src/FWlib/src/stm32f10x_dac.c **** 
  54:../../source/src/FWlib/src/stm32f10x_dac.c **** /* DHR registers offsets */
  55:../../source/src/FWlib/src/stm32f10x_dac.c **** #define DHR12R1_OFFSET             ((uint32_t)0x00000008)
  56:../../source/src/FWlib/src/stm32f10x_dac.c **** #define DHR12R2_OFFSET             ((uint32_t)0x00000014)
  57:../../source/src/FWlib/src/stm32f10x_dac.c **** #define DHR12RD_OFFSET             ((uint32_t)0x00000020)
  58:../../source/src/FWlib/src/stm32f10x_dac.c **** 
  59:../../source/src/FWlib/src/stm32f10x_dac.c **** /* DOR register offset */
  60:../../source/src/FWlib/src/stm32f10x_dac.c **** #define DOR_OFFSET                 ((uint32_t)0x0000002C)
  61:../../source/src/FWlib/src/stm32f10x_dac.c **** /**
  62:../../source/src/FWlib/src/stm32f10x_dac.c ****   * @}
  63:../../source/src/FWlib/src/stm32f10x_dac.c ****   */
  64:../../source/src/FWlib/src/stm32f10x_dac.c **** 
  65:../../source/src/FWlib/src/stm32f10x_dac.c **** /** @defgroup DAC_Private_Macros
  66:../../source/src/FWlib/src/stm32f10x_dac.c ****   * @{
  67:../../source/src/FWlib/src/stm32f10x_dac.c ****   */
  68:../../source/src/FWlib/src/stm32f10x_dac.c **** 
  69:../../source/src/FWlib/src/stm32f10x_dac.c **** /**
  70:../../source/src/FWlib/src/stm32f10x_dac.c ****   * @}
  71:../../source/src/FWlib/src/stm32f10x_dac.c ****   */
  72:../../source/src/FWlib/src/stm32f10x_dac.c **** 
  73:../../source/src/FWlib/src/stm32f10x_dac.c **** /** @defgroup DAC_Private_Variables
  74:../../source/src/FWlib/src/stm32f10x_dac.c ****   * @{
  75:../../source/src/FWlib/src/stm32f10x_dac.c ****   */
  76:../../source/src/FWlib/src/stm32f10x_dac.c **** 
  77:../../source/src/FWlib/src/stm32f10x_dac.c **** /**
  78:../../source/src/FWlib/src/stm32f10x_dac.c ****   * @}
  79:../../source/src/FWlib/src/stm32f10x_dac.c ****   */
  80:../../source/src/FWlib/src/stm32f10x_dac.c **** 
  81:../../source/src/FWlib/src/stm32f10x_dac.c **** /** @defgroup DAC_Private_FunctionPrototypes
  82:../../source/src/FWlib/src/stm32f10x_dac.c ****   * @{
  83:../../source/src/FWlib/src/stm32f10x_dac.c ****   */
  84:../../source/src/FWlib/src/stm32f10x_dac.c **** 
  85:../../source/src/FWlib/src/stm32f10x_dac.c **** /**
  86:../../source/src/FWlib/src/stm32f10x_dac.c ****   * @}
  87:../../source/src/FWlib/src/stm32f10x_dac.c ****   */
  88:../../source/src/FWlib/src/stm32f10x_dac.c **** 
  89:../../source/src/FWlib/src/stm32f10x_dac.c **** /** @defgroup DAC_Private_Functions
ARM GAS  G:\Users\Jaxb\AppData\Local\Temp\ccznmST2.s 			page 3


  90:../../source/src/FWlib/src/stm32f10x_dac.c ****   * @{
  91:../../source/src/FWlib/src/stm32f10x_dac.c ****   */
  92:../../source/src/FWlib/src/stm32f10x_dac.c **** 
  93:../../source/src/FWlib/src/stm32f10x_dac.c **** /**
  94:../../source/src/FWlib/src/stm32f10x_dac.c ****   * @brief  Deinitializes the DAC peripheral registers to their default reset values.
  95:../../source/src/FWlib/src/stm32f10x_dac.c ****   * @param  None
  96:../../source/src/FWlib/src/stm32f10x_dac.c ****   * @retval None
  97:../../source/src/FWlib/src/stm32f10x_dac.c ****   */
  98:../../source/src/FWlib/src/stm32f10x_dac.c **** void DAC_DeInit(void)
  99:../../source/src/FWlib/src/stm32f10x_dac.c **** {
  26              		.loc 1 99 0
  27              		.cfi_startproc
  28              		@ args = 0, pretend = 0, frame = 0
  29              		@ frame_needed = 0, uses_anonymous_args = 0
  30 0000 08B5     		push	{r3, lr}
  31              	.LCFI0:
  32              		.cfi_def_cfa_offset 8
  33              		.cfi_offset 3, -8
  34              		.cfi_offset 14, -4
 100:../../source/src/FWlib/src/stm32f10x_dac.c ****   /* Enable DAC reset state */
 101:../../source/src/FWlib/src/stm32f10x_dac.c ****   RCC_APB1PeriphResetCmd(RCC_APB1Periph_DAC, ENABLE);
  35              		.loc 1 101 0
  36 0002 0121     		movs	r1, #1
  37 0004 4FF00050 		mov	r0, #536870912
  38 0008 FFF7FEFF 		bl	RCC_APB1PeriphResetCmd
  39              	.LVL0:
 102:../../source/src/FWlib/src/stm32f10x_dac.c ****   /* Release DAC from reset state */
 103:../../source/src/FWlib/src/stm32f10x_dac.c ****   RCC_APB1PeriphResetCmd(RCC_APB1Periph_DAC, DISABLE);
 104:../../source/src/FWlib/src/stm32f10x_dac.c **** }
  40              		.loc 1 104 0
  41 000c BDE80840 		pop	{r3, lr}
  42              	.LCFI1:
  43              		.cfi_restore 14
  44              		.cfi_restore 3
  45              		.cfi_def_cfa_offset 0
 103:../../source/src/FWlib/src/stm32f10x_dac.c **** }
  46              		.loc 1 103 0
  47 0010 0021     		movs	r1, #0
  48 0012 4FF00050 		mov	r0, #536870912
  49 0016 FFF7FEBF 		b	RCC_APB1PeriphResetCmd
  50              	.LVL1:
  51              		.cfi_endproc
  52              	.LFE29:
  53              		.size	DAC_DeInit, .-DAC_DeInit
  54              		.align	1
  55 001a 00BF     		.p2align 2,,3
  56              		.global	DAC_Init
  57              		.syntax unified
  58              		.thumb
  59              		.thumb_func
  60              		.fpu softvfp
  61              		.type	DAC_Init, %function
  62              	DAC_Init:
  63              	.LFB30:
 105:../../source/src/FWlib/src/stm32f10x_dac.c **** 
 106:../../source/src/FWlib/src/stm32f10x_dac.c **** /**
 107:../../source/src/FWlib/src/stm32f10x_dac.c ****   * @brief  Initializes the DAC peripheral according to the specified 
ARM GAS  G:\Users\Jaxb\AppData\Local\Temp\ccznmST2.s 			page 4


 108:../../source/src/FWlib/src/stm32f10x_dac.c ****   *         parameters in the DAC_InitStruct.
 109:../../source/src/FWlib/src/stm32f10x_dac.c ****   * @param  DAC_Channel: the selected DAC channel. 
 110:../../source/src/FWlib/src/stm32f10x_dac.c ****   *   This parameter can be one of the following values:
 111:../../source/src/FWlib/src/stm32f10x_dac.c ****   *     @arg DAC_Channel_1: DAC Channel1 selected
 112:../../source/src/FWlib/src/stm32f10x_dac.c ****   *     @arg DAC_Channel_2: DAC Channel2 selected
 113:../../source/src/FWlib/src/stm32f10x_dac.c ****   * @param  DAC_InitStruct: pointer to a DAC_InitTypeDef structure that
 114:../../source/src/FWlib/src/stm32f10x_dac.c ****   *        contains the configuration information for the specified DAC channel.
 115:../../source/src/FWlib/src/stm32f10x_dac.c ****   * @retval None
 116:../../source/src/FWlib/src/stm32f10x_dac.c ****   */
 117:../../source/src/FWlib/src/stm32f10x_dac.c **** void DAC_Init(uint32_t DAC_Channel, DAC_InitTypeDef* DAC_InitStruct)
 118:../../source/src/FWlib/src/stm32f10x_dac.c **** {
  64              		.loc 1 118 0
  65              		.cfi_startproc
  66              		@ args = 0, pretend = 0, frame = 0
  67              		@ frame_needed = 0, uses_anonymous_args = 0
  68              		@ link register save eliminated.
  69              	.LVL2:
  70 001c 30B4     		push	{r4, r5}
  71              	.LCFI2:
  72              		.cfi_def_cfa_offset 8
  73              		.cfi_offset 4, -8
  74              		.cfi_offset 5, -4
 119:../../source/src/FWlib/src/stm32f10x_dac.c ****   uint32_t tmpreg1 = 0, tmpreg2 = 0;
 120:../../source/src/FWlib/src/stm32f10x_dac.c ****   /* Check the DAC parameters */
 121:../../source/src/FWlib/src/stm32f10x_dac.c ****   assert_param(IS_DAC_TRIGGER(DAC_InitStruct->DAC_Trigger));
 122:../../source/src/FWlib/src/stm32f10x_dac.c ****   assert_param(IS_DAC_GENERATE_WAVE(DAC_InitStruct->DAC_WaveGeneration));
 123:../../source/src/FWlib/src/stm32f10x_dac.c ****   assert_param(IS_DAC_LFSR_UNMASK_TRIANGLE_AMPLITUDE(DAC_InitStruct->DAC_LFSRUnmask_TriangleAmplitu
 124:../../source/src/FWlib/src/stm32f10x_dac.c ****   assert_param(IS_DAC_OUTPUT_BUFFER_STATE(DAC_InitStruct->DAC_OutputBuffer));
 125:../../source/src/FWlib/src/stm32f10x_dac.c **** /*---------------------------- DAC CR Configuration --------------------------*/
 126:../../source/src/FWlib/src/stm32f10x_dac.c ****   /* Get the DAC CR value */
 127:../../source/src/FWlib/src/stm32f10x_dac.c ****   tmpreg1 = DAC->CR;
 128:../../source/src/FWlib/src/stm32f10x_dac.c ****   /* Clear BOFFx, TENx, TSELx, WAVEx and MAMPx bits */
 129:../../source/src/FWlib/src/stm32f10x_dac.c ****   tmpreg1 &= ~(CR_CLEAR_MASK << DAC_Channel);
 130:../../source/src/FWlib/src/stm32f10x_dac.c ****   /* Configure for the selected DAC channel: buffer output, trigger, wave generation,
 131:../../source/src/FWlib/src/stm32f10x_dac.c ****      mask/amplitude for wave generation */
 132:../../source/src/FWlib/src/stm32f10x_dac.c ****   /* Set TSELx and TENx bits according to DAC_Trigger value */
 133:../../source/src/FWlib/src/stm32f10x_dac.c ****   /* Set WAVEx bits according to DAC_WaveGeneration value */
 134:../../source/src/FWlib/src/stm32f10x_dac.c ****   /* Set MAMPx bits according to DAC_LFSRUnmask_TriangleAmplitude value */ 
 135:../../source/src/FWlib/src/stm32f10x_dac.c ****   /* Set BOFFx bit according to DAC_OutputBuffer value */   
 136:../../source/src/FWlib/src/stm32f10x_dac.c ****   tmpreg2 = (DAC_InitStruct->DAC_Trigger | DAC_InitStruct->DAC_WaveGeneration |
  75              		.loc 1 136 0
  76 001e D1E90035 		ldrd	r3, r5, [r1]
 129:../../source/src/FWlib/src/stm32f10x_dac.c ****   /* Configure for the selected DAC channel: buffer output, trigger, wave generation,
  77              		.loc 1 129 0
  78 0022 40F6FE74 		movw	r4, #4094
  79              		.loc 1 136 0
  80 0026 8A68     		ldr	r2, [r1, #8]
  81 0028 2B43     		orrs	r3, r3, r5
 127:../../source/src/FWlib/src/stm32f10x_dac.c ****   /* Clear BOFFx, TENx, TSELx, WAVEx and MAMPx bits */
  82              		.loc 1 127 0
  83 002a 074D     		ldr	r5, .L4
  84              		.loc 1 136 0
  85 002c C968     		ldr	r1, [r1, #12]
  86              	.LVL3:
  87 002e 1343     		orrs	r3, r3, r2
 127:../../source/src/FWlib/src/stm32f10x_dac.c ****   /* Clear BOFFx, TENx, TSELx, WAVEx and MAMPx bits */
  88              		.loc 1 127 0
ARM GAS  G:\Users\Jaxb\AppData\Local\Temp\ccznmST2.s 			page 5


  89 0030 2A68     		ldr	r2, [r5]
  90              	.LVL4:
  91              		.loc 1 136 0
  92 0032 0B43     		orrs	r3, r3, r1
 129:../../source/src/FWlib/src/stm32f10x_dac.c ****   /* Configure for the selected DAC channel: buffer output, trigger, wave generation,
  93              		.loc 1 129 0
  94 0034 04FA00F1 		lsl	r1, r4, r0
 137:../../source/src/FWlib/src/stm32f10x_dac.c ****              DAC_InitStruct->DAC_LFSRUnmask_TriangleAmplitude | DAC_InitStruct->DAC_OutputBuffer);
 138:../../source/src/FWlib/src/stm32f10x_dac.c ****   /* Calculate CR register value depending on DAC_Channel */
 139:../../source/src/FWlib/src/stm32f10x_dac.c ****   tmpreg1 |= tmpreg2 << DAC_Channel;
  95              		.loc 1 139 0
  96 0038 03FA00F0 		lsl	r0, r3, r0
  97              	.LVL5:
 129:../../source/src/FWlib/src/stm32f10x_dac.c ****   /* Configure for the selected DAC channel: buffer output, trigger, wave generation,
  98              		.loc 1 129 0
  99 003c 22EA0103 		bic	r3, r2, r1
 100              	.LVL6:
 101              		.loc 1 139 0
 102 0040 1843     		orrs	r0, r0, r3
 103              	.LVL7:
 140:../../source/src/FWlib/src/stm32f10x_dac.c ****   /* Write to DAC CR */
 141:../../source/src/FWlib/src/stm32f10x_dac.c ****   DAC->CR = tmpreg1;
 104              		.loc 1 141 0
 105 0042 2860     		str	r0, [r5]
 106              	.LVL8:
 142:../../source/src/FWlib/src/stm32f10x_dac.c **** }
 107              		.loc 1 142 0
 108 0044 30BC     		pop	{r4, r5}
 109              	.LCFI3:
 110              		.cfi_restore 5
 111              		.cfi_restore 4
 112              		.cfi_def_cfa_offset 0
 113 0046 7047     		bx	lr
 114              	.L5:
 115              		.align	2
 116              	.L4:
 117 0048 00740040 		.word	1073771520
 118              		.cfi_endproc
 119              	.LFE30:
 120              		.size	DAC_Init, .-DAC_Init
 121              		.align	1
 122              		.p2align 2,,3
 123              		.global	DAC_StructInit
 124              		.syntax unified
 125              		.thumb
 126              		.thumb_func
 127              		.fpu softvfp
 128              		.type	DAC_StructInit, %function
 129              	DAC_StructInit:
 130              	.LFB31:
 143:../../source/src/FWlib/src/stm32f10x_dac.c **** 
 144:../../source/src/FWlib/src/stm32f10x_dac.c **** /**
 145:../../source/src/FWlib/src/stm32f10x_dac.c ****   * @brief  Fills each DAC_InitStruct member with its default value.
 146:../../source/src/FWlib/src/stm32f10x_dac.c ****   * @param  DAC_InitStruct : pointer to a DAC_InitTypeDef structure which will
 147:../../source/src/FWlib/src/stm32f10x_dac.c ****   *         be initialized.
 148:../../source/src/FWlib/src/stm32f10x_dac.c ****   * @retval None
 149:../../source/src/FWlib/src/stm32f10x_dac.c ****   */
ARM GAS  G:\Users\Jaxb\AppData\Local\Temp\ccznmST2.s 			page 6


 150:../../source/src/FWlib/src/stm32f10x_dac.c **** void DAC_StructInit(DAC_InitTypeDef* DAC_InitStruct)
 151:../../source/src/FWlib/src/stm32f10x_dac.c **** {
 131              		.loc 1 151 0
 132              		.cfi_startproc
 133              		@ args = 0, pretend = 0, frame = 0
 134              		@ frame_needed = 0, uses_anonymous_args = 0
 135              		@ link register save eliminated.
 136              	.LVL9:
 152:../../source/src/FWlib/src/stm32f10x_dac.c **** /*--------------- Reset DAC init structure parameters values -----------------*/
 153:../../source/src/FWlib/src/stm32f10x_dac.c ****   /* Initialize the DAC_Trigger member */
 154:../../source/src/FWlib/src/stm32f10x_dac.c ****   DAC_InitStruct->DAC_Trigger = DAC_Trigger_None;
 137              		.loc 1 154 0
 138 004c 0023     		movs	r3, #0
 155:../../source/src/FWlib/src/stm32f10x_dac.c ****   /* Initialize the DAC_WaveGeneration member */
 156:../../source/src/FWlib/src/stm32f10x_dac.c ****   DAC_InitStruct->DAC_WaveGeneration = DAC_WaveGeneration_None;
 139              		.loc 1 156 0
 140 004e C0E90033 		strd	r3, r3, [r0]
 157:../../source/src/FWlib/src/stm32f10x_dac.c ****   /* Initialize the DAC_LFSRUnmask_TriangleAmplitude member */
 158:../../source/src/FWlib/src/stm32f10x_dac.c ****   DAC_InitStruct->DAC_LFSRUnmask_TriangleAmplitude = DAC_LFSRUnmask_Bit0;
 159:../../source/src/FWlib/src/stm32f10x_dac.c ****   /* Initialize the DAC_OutputBuffer member */
 160:../../source/src/FWlib/src/stm32f10x_dac.c ****   DAC_InitStruct->DAC_OutputBuffer = DAC_OutputBuffer_Enable;
 141              		.loc 1 160 0
 142 0052 C0E90233 		strd	r3, r3, [r0, #8]
 161:../../source/src/FWlib/src/stm32f10x_dac.c **** }
 143              		.loc 1 161 0
 144 0056 7047     		bx	lr
 145              		.cfi_endproc
 146              	.LFE31:
 147              		.size	DAC_StructInit, .-DAC_StructInit
 148              		.align	1
 149              		.p2align 2,,3
 150              		.global	DAC_Cmd
 151              		.syntax unified
 152              		.thumb
 153              		.thumb_func
 154              		.fpu softvfp
 155              		.type	DAC_Cmd, %function
 156              	DAC_Cmd:
 157              	.LFB32:
 162:../../source/src/FWlib/src/stm32f10x_dac.c **** 
 163:../../source/src/FWlib/src/stm32f10x_dac.c **** /**
 164:../../source/src/FWlib/src/stm32f10x_dac.c ****   * @brief  Enables or disables the specified DAC channel.
 165:../../source/src/FWlib/src/stm32f10x_dac.c ****   * @param  DAC_Channel: the selected DAC channel. 
 166:../../source/src/FWlib/src/stm32f10x_dac.c ****   *   This parameter can be one of the following values:
 167:../../source/src/FWlib/src/stm32f10x_dac.c ****   *     @arg DAC_Channel_1: DAC Channel1 selected
 168:../../source/src/FWlib/src/stm32f10x_dac.c ****   *     @arg DAC_Channel_2: DAC Channel2 selected
 169:../../source/src/FWlib/src/stm32f10x_dac.c ****   * @param  NewState: new state of the DAC channel. 
 170:../../source/src/FWlib/src/stm32f10x_dac.c ****   *   This parameter can be: ENABLE or DISABLE.
 171:../../source/src/FWlib/src/stm32f10x_dac.c ****   * @retval None
 172:../../source/src/FWlib/src/stm32f10x_dac.c ****   */
 173:../../source/src/FWlib/src/stm32f10x_dac.c **** void DAC_Cmd(uint32_t DAC_Channel, FunctionalState NewState)
 174:../../source/src/FWlib/src/stm32f10x_dac.c **** {
 158              		.loc 1 174 0
 159              		.cfi_startproc
 160              		@ args = 0, pretend = 0, frame = 0
 161              		@ frame_needed = 0, uses_anonymous_args = 0
 162              		@ link register save eliminated.
ARM GAS  G:\Users\Jaxb\AppData\Local\Temp\ccznmST2.s 			page 7


 163              	.LVL10:
 164 0058 0123     		movs	r3, #1
 175:../../source/src/FWlib/src/stm32f10x_dac.c ****   /* Check the parameters */
 176:../../source/src/FWlib/src/stm32f10x_dac.c ****   assert_param(IS_DAC_CHANNEL(DAC_Channel));
 177:../../source/src/FWlib/src/stm32f10x_dac.c ****   assert_param(IS_FUNCTIONAL_STATE(NewState));
 178:../../source/src/FWlib/src/stm32f10x_dac.c ****   if (NewState != DISABLE)
 179:../../source/src/FWlib/src/stm32f10x_dac.c ****   {
 180:../../source/src/FWlib/src/stm32f10x_dac.c ****     /* Enable the selected DAC channel */
 181:../../source/src/FWlib/src/stm32f10x_dac.c ****     DAC->CR |= (DAC_CR_EN1 << DAC_Channel);
 165              		.loc 1 181 0
 166 005a 064A     		ldr	r2, .L11
 167 005c 03FA00F0 		lsl	r0, r3, r0
 168              	.LVL11:
 169 0060 1368     		ldr	r3, [r2]
 178:../../source/src/FWlib/src/stm32f10x_dac.c ****   {
 170              		.loc 1 178 0
 171 0062 19B9     		cbnz	r1, .L10
 182:../../source/src/FWlib/src/stm32f10x_dac.c ****   }
 183:../../source/src/FWlib/src/stm32f10x_dac.c ****   else
 184:../../source/src/FWlib/src/stm32f10x_dac.c ****   {
 185:../../source/src/FWlib/src/stm32f10x_dac.c ****     /* Disable the selected DAC channel */
 186:../../source/src/FWlib/src/stm32f10x_dac.c ****     DAC->CR &= ~(DAC_CR_EN1 << DAC_Channel);
 172              		.loc 1 186 0
 173 0064 23EA0000 		bic	r0, r3, r0
 174 0068 1060     		str	r0, [r2]
 187:../../source/src/FWlib/src/stm32f10x_dac.c ****   }
 188:../../source/src/FWlib/src/stm32f10x_dac.c **** }
 175              		.loc 1 188 0
 176 006a 7047     		bx	lr
 177              	.L10:
 181:../../source/src/FWlib/src/stm32f10x_dac.c ****   }
 178              		.loc 1 181 0
 179 006c 1843     		orrs	r0, r0, r3
 180 006e 1060     		str	r0, [r2]
 181 0070 7047     		bx	lr
 182              	.L12:
 183 0072 00BF     		.align	2
 184              	.L11:
 185 0074 00740040 		.word	1073771520
 186              		.cfi_endproc
 187              	.LFE32:
 188              		.size	DAC_Cmd, .-DAC_Cmd
 189              		.align	1
 190              		.p2align 2,,3
 191              		.global	DAC_DMACmd
 192              		.syntax unified
 193              		.thumb
 194              		.thumb_func
 195              		.fpu softvfp
 196              		.type	DAC_DMACmd, %function
 197              	DAC_DMACmd:
 198              	.LFB33:
 189:../../source/src/FWlib/src/stm32f10x_dac.c **** #if defined (STM32F10X_LD_VL) || defined (STM32F10X_MD_VL) || defined (STM32F10X_HD_VL)
 190:../../source/src/FWlib/src/stm32f10x_dac.c **** /**
 191:../../source/src/FWlib/src/stm32f10x_dac.c ****   * @brief  Enables or disables the specified DAC interrupts.
 192:../../source/src/FWlib/src/stm32f10x_dac.c ****   * @param  DAC_Channel: the selected DAC channel. 
 193:../../source/src/FWlib/src/stm32f10x_dac.c ****   *   This parameter can be one of the following values:
ARM GAS  G:\Users\Jaxb\AppData\Local\Temp\ccznmST2.s 			page 8


 194:../../source/src/FWlib/src/stm32f10x_dac.c ****   *     @arg DAC_Channel_1: DAC Channel1 selected
 195:../../source/src/FWlib/src/stm32f10x_dac.c ****   *     @arg DAC_Channel_2: DAC Channel2 selected
 196:../../source/src/FWlib/src/stm32f10x_dac.c ****   * @param  DAC_IT: specifies the DAC interrupt sources to be enabled or disabled. 
 197:../../source/src/FWlib/src/stm32f10x_dac.c ****   *   This parameter can be the following values:
 198:../../source/src/FWlib/src/stm32f10x_dac.c ****   *     @arg DAC_IT_DMAUDR: DMA underrun interrupt mask                      
 199:../../source/src/FWlib/src/stm32f10x_dac.c ****   * @param  NewState: new state of the specified DAC interrupts.
 200:../../source/src/FWlib/src/stm32f10x_dac.c ****   *   This parameter can be: ENABLE or DISABLE.
 201:../../source/src/FWlib/src/stm32f10x_dac.c ****   * @retval None
 202:../../source/src/FWlib/src/stm32f10x_dac.c ****   */ 
 203:../../source/src/FWlib/src/stm32f10x_dac.c **** void DAC_ITConfig(uint32_t DAC_Channel, uint32_t DAC_IT, FunctionalState NewState)  
 204:../../source/src/FWlib/src/stm32f10x_dac.c **** {
 205:../../source/src/FWlib/src/stm32f10x_dac.c ****   /* Check the parameters */
 206:../../source/src/FWlib/src/stm32f10x_dac.c ****   assert_param(IS_DAC_CHANNEL(DAC_Channel));
 207:../../source/src/FWlib/src/stm32f10x_dac.c ****   assert_param(IS_FUNCTIONAL_STATE(NewState));
 208:../../source/src/FWlib/src/stm32f10x_dac.c ****   assert_param(IS_DAC_IT(DAC_IT)); 
 209:../../source/src/FWlib/src/stm32f10x_dac.c **** 
 210:../../source/src/FWlib/src/stm32f10x_dac.c ****   if (NewState != DISABLE)
 211:../../source/src/FWlib/src/stm32f10x_dac.c ****   {
 212:../../source/src/FWlib/src/stm32f10x_dac.c ****     /* Enable the selected DAC interrupts */
 213:../../source/src/FWlib/src/stm32f10x_dac.c ****     DAC->CR |=  (DAC_IT << DAC_Channel);
 214:../../source/src/FWlib/src/stm32f10x_dac.c ****   }
 215:../../source/src/FWlib/src/stm32f10x_dac.c ****   else
 216:../../source/src/FWlib/src/stm32f10x_dac.c ****   {
 217:../../source/src/FWlib/src/stm32f10x_dac.c ****     /* Disable the selected DAC interrupts */
 218:../../source/src/FWlib/src/stm32f10x_dac.c ****     DAC->CR &= (~(uint32_t)(DAC_IT << DAC_Channel));
 219:../../source/src/FWlib/src/stm32f10x_dac.c ****   }
 220:../../source/src/FWlib/src/stm32f10x_dac.c **** }
 221:../../source/src/FWlib/src/stm32f10x_dac.c **** #endif
 222:../../source/src/FWlib/src/stm32f10x_dac.c **** 
 223:../../source/src/FWlib/src/stm32f10x_dac.c **** /**
 224:../../source/src/FWlib/src/stm32f10x_dac.c ****   * @brief  Enables or disables the specified DAC channel DMA request.
 225:../../source/src/FWlib/src/stm32f10x_dac.c ****   * @param  DAC_Channel: the selected DAC channel. 
 226:../../source/src/FWlib/src/stm32f10x_dac.c ****   *   This parameter can be one of the following values:
 227:../../source/src/FWlib/src/stm32f10x_dac.c ****   *     @arg DAC_Channel_1: DAC Channel1 selected
 228:../../source/src/FWlib/src/stm32f10x_dac.c ****   *     @arg DAC_Channel_2: DAC Channel2 selected
 229:../../source/src/FWlib/src/stm32f10x_dac.c ****   * @param  NewState: new state of the selected DAC channel DMA request.
 230:../../source/src/FWlib/src/stm32f10x_dac.c ****   *   This parameter can be: ENABLE or DISABLE.
 231:../../source/src/FWlib/src/stm32f10x_dac.c ****   * @retval None
 232:../../source/src/FWlib/src/stm32f10x_dac.c ****   */
 233:../../source/src/FWlib/src/stm32f10x_dac.c **** void DAC_DMACmd(uint32_t DAC_Channel, FunctionalState NewState)
 234:../../source/src/FWlib/src/stm32f10x_dac.c **** {
 199              		.loc 1 234 0
 200              		.cfi_startproc
 201              		@ args = 0, pretend = 0, frame = 0
 202              		@ frame_needed = 0, uses_anonymous_args = 0
 203              		@ link register save eliminated.
 204              	.LVL12:
 205 0078 4FF48053 		mov	r3, #4096
 235:../../source/src/FWlib/src/stm32f10x_dac.c ****   /* Check the parameters */
 236:../../source/src/FWlib/src/stm32f10x_dac.c ****   assert_param(IS_DAC_CHANNEL(DAC_Channel));
 237:../../source/src/FWlib/src/stm32f10x_dac.c ****   assert_param(IS_FUNCTIONAL_STATE(NewState));
 238:../../source/src/FWlib/src/stm32f10x_dac.c ****   if (NewState != DISABLE)
 239:../../source/src/FWlib/src/stm32f10x_dac.c ****   {
 240:../../source/src/FWlib/src/stm32f10x_dac.c ****     /* Enable the selected DAC channel DMA request */
 241:../../source/src/FWlib/src/stm32f10x_dac.c ****     DAC->CR |= (DAC_CR_DMAEN1 << DAC_Channel);
 206              		.loc 1 241 0
 207 007c 054A     		ldr	r2, .L17
ARM GAS  G:\Users\Jaxb\AppData\Local\Temp\ccznmST2.s 			page 9


 208 007e 03FA00F0 		lsl	r0, r3, r0
 209              	.LVL13:
 210 0082 1368     		ldr	r3, [r2]
 238:../../source/src/FWlib/src/stm32f10x_dac.c ****   {
 211              		.loc 1 238 0
 212 0084 19B9     		cbnz	r1, .L16
 242:../../source/src/FWlib/src/stm32f10x_dac.c ****   }
 243:../../source/src/FWlib/src/stm32f10x_dac.c ****   else
 244:../../source/src/FWlib/src/stm32f10x_dac.c ****   {
 245:../../source/src/FWlib/src/stm32f10x_dac.c ****     /* Disable the selected DAC channel DMA request */
 246:../../source/src/FWlib/src/stm32f10x_dac.c ****     DAC->CR &= ~(DAC_CR_DMAEN1 << DAC_Channel);
 213              		.loc 1 246 0
 214 0086 23EA0000 		bic	r0, r3, r0
 215 008a 1060     		str	r0, [r2]
 247:../../source/src/FWlib/src/stm32f10x_dac.c ****   }
 248:../../source/src/FWlib/src/stm32f10x_dac.c **** }
 216              		.loc 1 248 0
 217 008c 7047     		bx	lr
 218              	.L16:
 241:../../source/src/FWlib/src/stm32f10x_dac.c ****   }
 219              		.loc 1 241 0
 220 008e 1843     		orrs	r0, r0, r3
 221 0090 1060     		str	r0, [r2]
 222 0092 7047     		bx	lr
 223              	.L18:
 224              		.align	2
 225              	.L17:
 226 0094 00740040 		.word	1073771520
 227              		.cfi_endproc
 228              	.LFE33:
 229              		.size	DAC_DMACmd, .-DAC_DMACmd
 230              		.align	1
 231              		.p2align 2,,3
 232              		.global	DAC_SoftwareTriggerCmd
 233              		.syntax unified
 234              		.thumb
 235              		.thumb_func
 236              		.fpu softvfp
 237              		.type	DAC_SoftwareTriggerCmd, %function
 238              	DAC_SoftwareTriggerCmd:
 239              	.LFB34:
 249:../../source/src/FWlib/src/stm32f10x_dac.c **** 
 250:../../source/src/FWlib/src/stm32f10x_dac.c **** /**
 251:../../source/src/FWlib/src/stm32f10x_dac.c ****   * @brief  Enables or disables the selected DAC channel software trigger.
 252:../../source/src/FWlib/src/stm32f10x_dac.c ****   * @param  DAC_Channel: the selected DAC channel. 
 253:../../source/src/FWlib/src/stm32f10x_dac.c ****   *   This parameter can be one of the following values:
 254:../../source/src/FWlib/src/stm32f10x_dac.c ****   *     @arg DAC_Channel_1: DAC Channel1 selected
 255:../../source/src/FWlib/src/stm32f10x_dac.c ****   *     @arg DAC_Channel_2: DAC Channel2 selected
 256:../../source/src/FWlib/src/stm32f10x_dac.c ****   * @param  NewState: new state of the selected DAC channel software trigger.
 257:../../source/src/FWlib/src/stm32f10x_dac.c ****   *   This parameter can be: ENABLE or DISABLE.
 258:../../source/src/FWlib/src/stm32f10x_dac.c ****   * @retval None
 259:../../source/src/FWlib/src/stm32f10x_dac.c ****   */
 260:../../source/src/FWlib/src/stm32f10x_dac.c **** void DAC_SoftwareTriggerCmd(uint32_t DAC_Channel, FunctionalState NewState)
 261:../../source/src/FWlib/src/stm32f10x_dac.c **** {
 240              		.loc 1 261 0
 241              		.cfi_startproc
 242              		@ args = 0, pretend = 0, frame = 0
ARM GAS  G:\Users\Jaxb\AppData\Local\Temp\ccznmST2.s 			page 10


 243              		@ frame_needed = 0, uses_anonymous_args = 0
 244              		@ link register save eliminated.
 245              	.LVL14:
 246 0098 0123     		movs	r3, #1
 262:../../source/src/FWlib/src/stm32f10x_dac.c ****   /* Check the parameters */
 263:../../source/src/FWlib/src/stm32f10x_dac.c ****   assert_param(IS_DAC_CHANNEL(DAC_Channel));
 264:../../source/src/FWlib/src/stm32f10x_dac.c ****   assert_param(IS_FUNCTIONAL_STATE(NewState));
 265:../../source/src/FWlib/src/stm32f10x_dac.c ****   if (NewState != DISABLE)
 266:../../source/src/FWlib/src/stm32f10x_dac.c ****   {
 267:../../source/src/FWlib/src/stm32f10x_dac.c ****     /* Enable software trigger for the selected DAC channel */
 268:../../source/src/FWlib/src/stm32f10x_dac.c ****     DAC->SWTRIGR |= (uint32_t)DAC_SWTRIGR_SWTRIG1 << (DAC_Channel >> 4);
 247              		.loc 1 268 0
 248 009a 064A     		ldr	r2, .L23
 249 009c 0009     		lsrs	r0, r0, #4
 250              	.LVL15:
 251 009e 8340     		lsls	r3, r3, r0
 252 00a0 5068     		ldr	r0, [r2, #4]
 265:../../source/src/FWlib/src/stm32f10x_dac.c ****   {
 253              		.loc 1 265 0
 254 00a2 19B9     		cbnz	r1, .L22
 269:../../source/src/FWlib/src/stm32f10x_dac.c ****   }
 270:../../source/src/FWlib/src/stm32f10x_dac.c ****   else
 271:../../source/src/FWlib/src/stm32f10x_dac.c ****   {
 272:../../source/src/FWlib/src/stm32f10x_dac.c ****     /* Disable software trigger for the selected DAC channel */
 273:../../source/src/FWlib/src/stm32f10x_dac.c ****     DAC->SWTRIGR &= ~((uint32_t)DAC_SWTRIGR_SWTRIG1 << (DAC_Channel >> 4));
 255              		.loc 1 273 0
 256 00a4 20EA0303 		bic	r3, r0, r3
 257 00a8 5360     		str	r3, [r2, #4]
 274:../../source/src/FWlib/src/stm32f10x_dac.c ****   }
 275:../../source/src/FWlib/src/stm32f10x_dac.c **** }
 258              		.loc 1 275 0
 259 00aa 7047     		bx	lr
 260              	.L22:
 268:../../source/src/FWlib/src/stm32f10x_dac.c ****   }
 261              		.loc 1 268 0
 262 00ac 0343     		orrs	r3, r3, r0
 263 00ae 5360     		str	r3, [r2, #4]
 264 00b0 7047     		bx	lr
 265              	.L24:
 266 00b2 00BF     		.align	2
 267              	.L23:
 268 00b4 00740040 		.word	1073771520
 269              		.cfi_endproc
 270              	.LFE34:
 271              		.size	DAC_SoftwareTriggerCmd, .-DAC_SoftwareTriggerCmd
 272              		.align	1
 273              		.p2align 2,,3
 274              		.global	DAC_DualSoftwareTriggerCmd
 275              		.syntax unified
 276              		.thumb
 277              		.thumb_func
 278              		.fpu softvfp
 279              		.type	DAC_DualSoftwareTriggerCmd, %function
 280              	DAC_DualSoftwareTriggerCmd:
 281              	.LFB35:
 276:../../source/src/FWlib/src/stm32f10x_dac.c **** 
 277:../../source/src/FWlib/src/stm32f10x_dac.c **** /**
ARM GAS  G:\Users\Jaxb\AppData\Local\Temp\ccznmST2.s 			page 11


 278:../../source/src/FWlib/src/stm32f10x_dac.c ****   * @brief  Enables or disables simultaneously the two DAC channels software
 279:../../source/src/FWlib/src/stm32f10x_dac.c ****   *   triggers.
 280:../../source/src/FWlib/src/stm32f10x_dac.c ****   * @param  NewState: new state of the DAC channels software triggers.
 281:../../source/src/FWlib/src/stm32f10x_dac.c ****   *   This parameter can be: ENABLE or DISABLE.
 282:../../source/src/FWlib/src/stm32f10x_dac.c ****   * @retval None
 283:../../source/src/FWlib/src/stm32f10x_dac.c ****   */
 284:../../source/src/FWlib/src/stm32f10x_dac.c **** void DAC_DualSoftwareTriggerCmd(FunctionalState NewState)
 285:../../source/src/FWlib/src/stm32f10x_dac.c **** {
 282              		.loc 1 285 0
 283              		.cfi_startproc
 284              		@ args = 0, pretend = 0, frame = 0
 285              		@ frame_needed = 0, uses_anonymous_args = 0
 286              		@ link register save eliminated.
 287              	.LVL16:
 286:../../source/src/FWlib/src/stm32f10x_dac.c ****   /* Check the parameters */
 287:../../source/src/FWlib/src/stm32f10x_dac.c ****   assert_param(IS_FUNCTIONAL_STATE(NewState));
 288:../../source/src/FWlib/src/stm32f10x_dac.c ****   if (NewState != DISABLE)
 289:../../source/src/FWlib/src/stm32f10x_dac.c ****   {
 290:../../source/src/FWlib/src/stm32f10x_dac.c ****     /* Enable software trigger for both DAC channels */
 291:../../source/src/FWlib/src/stm32f10x_dac.c ****     DAC->SWTRIGR |= DUAL_SWTRIG_SET ;
 288              		.loc 1 291 0
 289 00b8 054A     		ldr	r2, .L29
 290 00ba 5368     		ldr	r3, [r2, #4]
 288:../../source/src/FWlib/src/stm32f10x_dac.c ****   {
 291              		.loc 1 288 0
 292 00bc 18B9     		cbnz	r0, .L28
 292:../../source/src/FWlib/src/stm32f10x_dac.c ****   }
 293:../../source/src/FWlib/src/stm32f10x_dac.c ****   else
 294:../../source/src/FWlib/src/stm32f10x_dac.c ****   {
 295:../../source/src/FWlib/src/stm32f10x_dac.c ****     /* Disable software trigger for both DAC channels */
 296:../../source/src/FWlib/src/stm32f10x_dac.c ****     DAC->SWTRIGR &= DUAL_SWTRIG_RESET;
 293              		.loc 1 296 0
 294 00be 23F00303 		bic	r3, r3, #3
 295 00c2 5360     		str	r3, [r2, #4]
 297:../../source/src/FWlib/src/stm32f10x_dac.c ****   }
 298:../../source/src/FWlib/src/stm32f10x_dac.c **** }
 296              		.loc 1 298 0
 297 00c4 7047     		bx	lr
 298              	.L28:
 291:../../source/src/FWlib/src/stm32f10x_dac.c ****   }
 299              		.loc 1 291 0
 300 00c6 43F00303 		orr	r3, r3, #3
 301 00ca 5360     		str	r3, [r2, #4]
 302 00cc 7047     		bx	lr
 303              	.L30:
 304 00ce 00BF     		.align	2
 305              	.L29:
 306 00d0 00740040 		.word	1073771520
 307              		.cfi_endproc
 308              	.LFE35:
 309              		.size	DAC_DualSoftwareTriggerCmd, .-DAC_DualSoftwareTriggerCmd
 310              		.align	1
 311              		.p2align 2,,3
 312              		.global	DAC_WaveGenerationCmd
 313              		.syntax unified
 314              		.thumb
 315              		.thumb_func
ARM GAS  G:\Users\Jaxb\AppData\Local\Temp\ccznmST2.s 			page 12


 316              		.fpu softvfp
 317              		.type	DAC_WaveGenerationCmd, %function
 318              	DAC_WaveGenerationCmd:
 319              	.LFB36:
 299:../../source/src/FWlib/src/stm32f10x_dac.c **** 
 300:../../source/src/FWlib/src/stm32f10x_dac.c **** /**
 301:../../source/src/FWlib/src/stm32f10x_dac.c ****   * @brief  Enables or disables the selected DAC channel wave generation.
 302:../../source/src/FWlib/src/stm32f10x_dac.c ****   * @param  DAC_Channel: the selected DAC channel. 
 303:../../source/src/FWlib/src/stm32f10x_dac.c ****   *   This parameter can be one of the following values:
 304:../../source/src/FWlib/src/stm32f10x_dac.c ****   *     @arg DAC_Channel_1: DAC Channel1 selected
 305:../../source/src/FWlib/src/stm32f10x_dac.c ****   *     @arg DAC_Channel_2: DAC Channel2 selected
 306:../../source/src/FWlib/src/stm32f10x_dac.c ****   * @param  DAC_Wave: Specifies the wave type to enable or disable.
 307:../../source/src/FWlib/src/stm32f10x_dac.c ****   *   This parameter can be one of the following values:
 308:../../source/src/FWlib/src/stm32f10x_dac.c ****   *     @arg DAC_Wave_Noise: noise wave generation
 309:../../source/src/FWlib/src/stm32f10x_dac.c ****   *     @arg DAC_Wave_Triangle: triangle wave generation
 310:../../source/src/FWlib/src/stm32f10x_dac.c ****   * @param  NewState: new state of the selected DAC channel wave generation.
 311:../../source/src/FWlib/src/stm32f10x_dac.c ****   *   This parameter can be: ENABLE or DISABLE.
 312:../../source/src/FWlib/src/stm32f10x_dac.c ****   * @retval None
 313:../../source/src/FWlib/src/stm32f10x_dac.c ****   */
 314:../../source/src/FWlib/src/stm32f10x_dac.c **** void DAC_WaveGenerationCmd(uint32_t DAC_Channel, uint32_t DAC_Wave, FunctionalState NewState)
 315:../../source/src/FWlib/src/stm32f10x_dac.c **** {
 320              		.loc 1 315 0
 321              		.cfi_startproc
 322              		@ args = 0, pretend = 0, frame = 0
 323              		@ frame_needed = 0, uses_anonymous_args = 0
 324              		@ link register save eliminated.
 325              	.LVL17:
 326 00d4 8140     		lsls	r1, r1, r0
 327              	.LVL18:
 316:../../source/src/FWlib/src/stm32f10x_dac.c ****   /* Check the parameters */
 317:../../source/src/FWlib/src/stm32f10x_dac.c ****   assert_param(IS_DAC_CHANNEL(DAC_Channel));
 318:../../source/src/FWlib/src/stm32f10x_dac.c ****   assert_param(IS_DAC_WAVE(DAC_Wave)); 
 319:../../source/src/FWlib/src/stm32f10x_dac.c ****   assert_param(IS_FUNCTIONAL_STATE(NewState));
 320:../../source/src/FWlib/src/stm32f10x_dac.c ****   if (NewState != DISABLE)
 328              		.loc 1 320 0
 329 00d6 2AB9     		cbnz	r2, .L34
 321:../../source/src/FWlib/src/stm32f10x_dac.c ****   {
 322:../../source/src/FWlib/src/stm32f10x_dac.c ****     /* Enable the selected wave generation for the selected DAC channel */
 323:../../source/src/FWlib/src/stm32f10x_dac.c ****     DAC->CR |= DAC_Wave << DAC_Channel;
 324:../../source/src/FWlib/src/stm32f10x_dac.c ****   }
 325:../../source/src/FWlib/src/stm32f10x_dac.c ****   else
 326:../../source/src/FWlib/src/stm32f10x_dac.c ****   {
 327:../../source/src/FWlib/src/stm32f10x_dac.c ****     /* Disable the selected wave generation for the selected DAC channel */
 328:../../source/src/FWlib/src/stm32f10x_dac.c ****     DAC->CR &= ~(DAC_Wave << DAC_Channel);
 330              		.loc 1 328 0
 331 00d8 054A     		ldr	r2, .L35
 332              	.LVL19:
 333 00da 1368     		ldr	r3, [r2]
 334 00dc 23EA0101 		bic	r1, r3, r1
 335 00e0 1160     		str	r1, [r2]
 329:../../source/src/FWlib/src/stm32f10x_dac.c ****   }
 330:../../source/src/FWlib/src/stm32f10x_dac.c **** }
 336              		.loc 1 330 0
 337 00e2 7047     		bx	lr
 338              	.LVL20:
 339              	.L34:
 323:../../source/src/FWlib/src/stm32f10x_dac.c ****   }
ARM GAS  G:\Users\Jaxb\AppData\Local\Temp\ccznmST2.s 			page 13


 340              		.loc 1 323 0
 341 00e4 024B     		ldr	r3, .L35
 342 00e6 1868     		ldr	r0, [r3]
 343              	.LVL21:
 344 00e8 0143     		orrs	r1, r1, r0
 345 00ea 1960     		str	r1, [r3]
 346 00ec 7047     		bx	lr
 347              	.L36:
 348 00ee 00BF     		.align	2
 349              	.L35:
 350 00f0 00740040 		.word	1073771520
 351              		.cfi_endproc
 352              	.LFE36:
 353              		.size	DAC_WaveGenerationCmd, .-DAC_WaveGenerationCmd
 354              		.align	1
 355              		.p2align 2,,3
 356              		.global	DAC_SetChannel1Data
 357              		.syntax unified
 358              		.thumb
 359              		.thumb_func
 360              		.fpu softvfp
 361              		.type	DAC_SetChannel1Data, %function
 362              	DAC_SetChannel1Data:
 363              	.LFB37:
 331:../../source/src/FWlib/src/stm32f10x_dac.c **** 
 332:../../source/src/FWlib/src/stm32f10x_dac.c **** /**
 333:../../source/src/FWlib/src/stm32f10x_dac.c ****   * @brief  Set the specified data holding register value for DAC channel1.
 334:../../source/src/FWlib/src/stm32f10x_dac.c ****   * @param  DAC_Align: Specifies the data alignment for DAC channel1.
 335:../../source/src/FWlib/src/stm32f10x_dac.c ****   *   This parameter can be one of the following values:
 336:../../source/src/FWlib/src/stm32f10x_dac.c ****   *     @arg DAC_Align_8b_R: 8bit right data alignment selected
 337:../../source/src/FWlib/src/stm32f10x_dac.c ****   *     @arg DAC_Align_12b_L: 12bit left data alignment selected
 338:../../source/src/FWlib/src/stm32f10x_dac.c ****   *     @arg DAC_Align_12b_R: 12bit right data alignment selected
 339:../../source/src/FWlib/src/stm32f10x_dac.c ****   * @param  Data : Data to be loaded in the selected data holding register.
 340:../../source/src/FWlib/src/stm32f10x_dac.c ****   * @retval None
 341:../../source/src/FWlib/src/stm32f10x_dac.c ****   */
 342:../../source/src/FWlib/src/stm32f10x_dac.c **** void DAC_SetChannel1Data(uint32_t DAC_Align, uint16_t Data)
 343:../../source/src/FWlib/src/stm32f10x_dac.c **** {  
 364              		.loc 1 343 0
 365              		.cfi_startproc
 366              		@ args = 0, pretend = 0, frame = 8
 367              		@ frame_needed = 0, uses_anonymous_args = 0
 368              		@ link register save eliminated.
 369              	.LVL22:
 344:../../source/src/FWlib/src/stm32f10x_dac.c ****   __IO uint32_t tmp = 0;
 370              		.loc 1 344 0
 371 00f4 0022     		movs	r2, #0
 345:../../source/src/FWlib/src/stm32f10x_dac.c ****   
 346:../../source/src/FWlib/src/stm32f10x_dac.c ****   /* Check the parameters */
 347:../../source/src/FWlib/src/stm32f10x_dac.c ****   assert_param(IS_DAC_ALIGN(DAC_Align));
 348:../../source/src/FWlib/src/stm32f10x_dac.c ****   assert_param(IS_DAC_DATA(Data));
 349:../../source/src/FWlib/src/stm32f10x_dac.c ****   
 350:../../source/src/FWlib/src/stm32f10x_dac.c ****   tmp = (uint32_t)DAC_BASE; 
 372              		.loc 1 350 0
 373 00f6 064B     		ldr	r3, .L38
 343:../../source/src/FWlib/src/stm32f10x_dac.c ****   __IO uint32_t tmp = 0;
 374              		.loc 1 343 0
 375 00f8 82B0     		sub	sp, sp, #8
ARM GAS  G:\Users\Jaxb\AppData\Local\Temp\ccznmST2.s 			page 14


 376              	.LCFI4:
 377              		.cfi_def_cfa_offset 8
 344:../../source/src/FWlib/src/stm32f10x_dac.c ****   __IO uint32_t tmp = 0;
 378              		.loc 1 344 0
 379 00fa 0192     		str	r2, [sp, #4]
 380              		.loc 1 350 0
 381 00fc 0193     		str	r3, [sp, #4]
 351:../../source/src/FWlib/src/stm32f10x_dac.c ****   tmp += DHR12R1_OFFSET + DAC_Align;
 382              		.loc 1 351 0
 383 00fe 019B     		ldr	r3, [sp, #4]
 384 0100 0833     		adds	r3, r3, #8
 385 0102 1844     		add	r0, r0, r3
 386              	.LVL23:
 387 0104 0190     		str	r0, [sp, #4]
 352:../../source/src/FWlib/src/stm32f10x_dac.c **** 
 353:../../source/src/FWlib/src/stm32f10x_dac.c ****   /* Set the DAC channel1 selected data holding register */
 354:../../source/src/FWlib/src/stm32f10x_dac.c ****   *(__IO uint32_t *) tmp = Data;
 388              		.loc 1 354 0
 389 0106 019B     		ldr	r3, [sp, #4]
 390 0108 1960     		str	r1, [r3]
 355:../../source/src/FWlib/src/stm32f10x_dac.c **** }
 391              		.loc 1 355 0
 392 010a 02B0     		add	sp, sp, #8
 393              	.LCFI5:
 394              		.cfi_def_cfa_offset 0
 395              		@ sp needed
 396 010c 7047     		bx	lr
 397              	.L39:
 398 010e 00BF     		.align	2
 399              	.L38:
 400 0110 00740040 		.word	1073771520
 401              		.cfi_endproc
 402              	.LFE37:
 403              		.size	DAC_SetChannel1Data, .-DAC_SetChannel1Data
 404              		.align	1
 405              		.p2align 2,,3
 406              		.global	DAC_SetChannel2Data
 407              		.syntax unified
 408              		.thumb
 409              		.thumb_func
 410              		.fpu softvfp
 411              		.type	DAC_SetChannel2Data, %function
 412              	DAC_SetChannel2Data:
 413              	.LFB38:
 356:../../source/src/FWlib/src/stm32f10x_dac.c **** 
 357:../../source/src/FWlib/src/stm32f10x_dac.c **** /**
 358:../../source/src/FWlib/src/stm32f10x_dac.c ****   * @brief  Set the specified data holding register value for DAC channel2.
 359:../../source/src/FWlib/src/stm32f10x_dac.c ****   * @param  DAC_Align: Specifies the data alignment for DAC channel2.
 360:../../source/src/FWlib/src/stm32f10x_dac.c ****   *   This parameter can be one of the following values:
 361:../../source/src/FWlib/src/stm32f10x_dac.c ****   *     @arg DAC_Align_8b_R: 8bit right data alignment selected
 362:../../source/src/FWlib/src/stm32f10x_dac.c ****   *     @arg DAC_Align_12b_L: 12bit left data alignment selected
 363:../../source/src/FWlib/src/stm32f10x_dac.c ****   *     @arg DAC_Align_12b_R: 12bit right data alignment selected
 364:../../source/src/FWlib/src/stm32f10x_dac.c ****   * @param  Data : Data to be loaded in the selected data holding register.
 365:../../source/src/FWlib/src/stm32f10x_dac.c ****   * @retval None
 366:../../source/src/FWlib/src/stm32f10x_dac.c ****   */
 367:../../source/src/FWlib/src/stm32f10x_dac.c **** void DAC_SetChannel2Data(uint32_t DAC_Align, uint16_t Data)
 368:../../source/src/FWlib/src/stm32f10x_dac.c **** {
ARM GAS  G:\Users\Jaxb\AppData\Local\Temp\ccznmST2.s 			page 15


 414              		.loc 1 368 0
 415              		.cfi_startproc
 416              		@ args = 0, pretend = 0, frame = 8
 417              		@ frame_needed = 0, uses_anonymous_args = 0
 418              		@ link register save eliminated.
 419              	.LVL24:
 369:../../source/src/FWlib/src/stm32f10x_dac.c ****   __IO uint32_t tmp = 0;
 420              		.loc 1 369 0
 421 0114 0022     		movs	r2, #0
 370:../../source/src/FWlib/src/stm32f10x_dac.c **** 
 371:../../source/src/FWlib/src/stm32f10x_dac.c ****   /* Check the parameters */
 372:../../source/src/FWlib/src/stm32f10x_dac.c ****   assert_param(IS_DAC_ALIGN(DAC_Align));
 373:../../source/src/FWlib/src/stm32f10x_dac.c ****   assert_param(IS_DAC_DATA(Data));
 374:../../source/src/FWlib/src/stm32f10x_dac.c ****   
 375:../../source/src/FWlib/src/stm32f10x_dac.c ****   tmp = (uint32_t)DAC_BASE;
 422              		.loc 1 375 0
 423 0116 064B     		ldr	r3, .L41
 368:../../source/src/FWlib/src/stm32f10x_dac.c ****   __IO uint32_t tmp = 0;
 424              		.loc 1 368 0
 425 0118 82B0     		sub	sp, sp, #8
 426              	.LCFI6:
 427              		.cfi_def_cfa_offset 8
 369:../../source/src/FWlib/src/stm32f10x_dac.c ****   __IO uint32_t tmp = 0;
 428              		.loc 1 369 0
 429 011a 0192     		str	r2, [sp, #4]
 430              		.loc 1 375 0
 431 011c 0193     		str	r3, [sp, #4]
 376:../../source/src/FWlib/src/stm32f10x_dac.c ****   tmp += DHR12R2_OFFSET + DAC_Align;
 432              		.loc 1 376 0
 433 011e 019B     		ldr	r3, [sp, #4]
 434 0120 1433     		adds	r3, r3, #20
 435 0122 1844     		add	r0, r0, r3
 436              	.LVL25:
 437 0124 0190     		str	r0, [sp, #4]
 377:../../source/src/FWlib/src/stm32f10x_dac.c **** 
 378:../../source/src/FWlib/src/stm32f10x_dac.c ****   /* Set the DAC channel2 selected data holding register */
 379:../../source/src/FWlib/src/stm32f10x_dac.c ****   *(__IO uint32_t *)tmp = Data;
 438              		.loc 1 379 0
 439 0126 019B     		ldr	r3, [sp, #4]
 440 0128 1960     		str	r1, [r3]
 380:../../source/src/FWlib/src/stm32f10x_dac.c **** }
 441              		.loc 1 380 0
 442 012a 02B0     		add	sp, sp, #8
 443              	.LCFI7:
 444              		.cfi_def_cfa_offset 0
 445              		@ sp needed
 446 012c 7047     		bx	lr
 447              	.L42:
 448 012e 00BF     		.align	2
 449              	.L41:
 450 0130 00740040 		.word	1073771520
 451              		.cfi_endproc
 452              	.LFE38:
 453              		.size	DAC_SetChannel2Data, .-DAC_SetChannel2Data
 454              		.align	1
 455              		.p2align 2,,3
 456              		.global	DAC_SetDualChannelData
ARM GAS  G:\Users\Jaxb\AppData\Local\Temp\ccznmST2.s 			page 16


 457              		.syntax unified
 458              		.thumb
 459              		.thumb_func
 460              		.fpu softvfp
 461              		.type	DAC_SetDualChannelData, %function
 462              	DAC_SetDualChannelData:
 463              	.LFB39:
 381:../../source/src/FWlib/src/stm32f10x_dac.c **** 
 382:../../source/src/FWlib/src/stm32f10x_dac.c **** /**
 383:../../source/src/FWlib/src/stm32f10x_dac.c ****   * @brief  Set the specified data holding register value for dual channel
 384:../../source/src/FWlib/src/stm32f10x_dac.c ****   *   DAC.
 385:../../source/src/FWlib/src/stm32f10x_dac.c ****   * @param  DAC_Align: Specifies the data alignment for dual channel DAC.
 386:../../source/src/FWlib/src/stm32f10x_dac.c ****   *   This parameter can be one of the following values:
 387:../../source/src/FWlib/src/stm32f10x_dac.c ****   *     @arg DAC_Align_8b_R: 8bit right data alignment selected
 388:../../source/src/FWlib/src/stm32f10x_dac.c ****   *     @arg DAC_Align_12b_L: 12bit left data alignment selected
 389:../../source/src/FWlib/src/stm32f10x_dac.c ****   *     @arg DAC_Align_12b_R: 12bit right data alignment selected
 390:../../source/src/FWlib/src/stm32f10x_dac.c ****   * @param  Data2: Data for DAC Channel2 to be loaded in the selected data 
 391:../../source/src/FWlib/src/stm32f10x_dac.c ****   *   holding register.
 392:../../source/src/FWlib/src/stm32f10x_dac.c ****   * @param  Data1: Data for DAC Channel1 to be loaded in the selected data 
 393:../../source/src/FWlib/src/stm32f10x_dac.c ****   *   holding register.
 394:../../source/src/FWlib/src/stm32f10x_dac.c ****   * @retval None
 395:../../source/src/FWlib/src/stm32f10x_dac.c ****   */
 396:../../source/src/FWlib/src/stm32f10x_dac.c **** void DAC_SetDualChannelData(uint32_t DAC_Align, uint16_t Data2, uint16_t Data1)
 397:../../source/src/FWlib/src/stm32f10x_dac.c **** {
 464              		.loc 1 397 0
 465              		.cfi_startproc
 466              		@ args = 0, pretend = 0, frame = 0
 467              		@ frame_needed = 0, uses_anonymous_args = 0
 468              		@ link register save eliminated.
 469              	.LVL26:
 398:../../source/src/FWlib/src/stm32f10x_dac.c ****   uint32_t data = 0, tmp = 0;
 399:../../source/src/FWlib/src/stm32f10x_dac.c ****   
 400:../../source/src/FWlib/src/stm32f10x_dac.c ****   /* Check the parameters */
 401:../../source/src/FWlib/src/stm32f10x_dac.c ****   assert_param(IS_DAC_ALIGN(DAC_Align));
 402:../../source/src/FWlib/src/stm32f10x_dac.c ****   assert_param(IS_DAC_DATA(Data1));
 403:../../source/src/FWlib/src/stm32f10x_dac.c ****   assert_param(IS_DAC_DATA(Data2));
 404:../../source/src/FWlib/src/stm32f10x_dac.c ****   
 405:../../source/src/FWlib/src/stm32f10x_dac.c ****   /* Calculate and set dual DAC data holding register value */
 406:../../source/src/FWlib/src/stm32f10x_dac.c ****   if (DAC_Align == DAC_Align_8b_R)
 470              		.loc 1 406 0
 471 0134 0828     		cmp	r0, #8
 407:../../source/src/FWlib/src/stm32f10x_dac.c ****   {
 408:../../source/src/FWlib/src/stm32f10x_dac.c ****     data = ((uint32_t)Data2 << 8) | Data1; 
 409:../../source/src/FWlib/src/stm32f10x_dac.c ****   }
 410:../../source/src/FWlib/src/stm32f10x_dac.c ****   else
 411:../../source/src/FWlib/src/stm32f10x_dac.c ****   {
 412:../../source/src/FWlib/src/stm32f10x_dac.c ****     data = ((uint32_t)Data2 << 16) | Data1;
 413:../../source/src/FWlib/src/stm32f10x_dac.c ****   }
 414:../../source/src/FWlib/src/stm32f10x_dac.c ****   
 415:../../source/src/FWlib/src/stm32f10x_dac.c ****   tmp = (uint32_t)DAC_BASE;
 416:../../source/src/FWlib/src/stm32f10x_dac.c ****   tmp += DHR12RD_OFFSET + DAC_Align;
 472              		.loc 1 416 0
 473 0136 044B     		ldr	r3, .L46
 408:../../source/src/FWlib/src/stm32f10x_dac.c ****   }
 474              		.loc 1 408 0
 475 0138 0CBF     		ite	eq
 476 013a 42EA0122 		orreq	r2, r2, r1, lsl #8
ARM GAS  G:\Users\Jaxb\AppData\Local\Temp\ccznmST2.s 			page 17


 477              	.LVL27:
 412:../../source/src/FWlib/src/stm32f10x_dac.c ****   }
 478              		.loc 1 412 0
 479 013e 42EA0142 		orrne	r2, r2, r1, lsl #16
 480              	.LVL28:
 417:../../source/src/FWlib/src/stm32f10x_dac.c **** 
 418:../../source/src/FWlib/src/stm32f10x_dac.c ****   /* Set the dual DAC selected data holding register */
 419:../../source/src/FWlib/src/stm32f10x_dac.c ****   *(__IO uint32_t *)tmp = data;
 481              		.loc 1 419 0
 482 0142 C250     		str	r2, [r0, r3]
 420:../../source/src/FWlib/src/stm32f10x_dac.c **** }
 483              		.loc 1 420 0
 484 0144 7047     		bx	lr
 485              	.L47:
 486 0146 00BF     		.align	2
 487              	.L46:
 488 0148 20740040 		.word	1073771552
 489              		.cfi_endproc
 490              	.LFE39:
 491              		.size	DAC_SetDualChannelData, .-DAC_SetDualChannelData
 492              		.align	1
 493              		.p2align 2,,3
 494              		.global	DAC_GetDataOutputValue
 495              		.syntax unified
 496              		.thumb
 497              		.thumb_func
 498              		.fpu softvfp
 499              		.type	DAC_GetDataOutputValue, %function
 500              	DAC_GetDataOutputValue:
 501              	.LFB40:
 421:../../source/src/FWlib/src/stm32f10x_dac.c **** 
 422:../../source/src/FWlib/src/stm32f10x_dac.c **** /**
 423:../../source/src/FWlib/src/stm32f10x_dac.c ****   * @brief  Returns the last data output value of the selected DAC channel.
 424:../../source/src/FWlib/src/stm32f10x_dac.c ****   * @param  DAC_Channel: the selected DAC channel. 
 425:../../source/src/FWlib/src/stm32f10x_dac.c ****   *   This parameter can be one of the following values:
 426:../../source/src/FWlib/src/stm32f10x_dac.c ****   *     @arg DAC_Channel_1: DAC Channel1 selected
 427:../../source/src/FWlib/src/stm32f10x_dac.c ****   *     @arg DAC_Channel_2: DAC Channel2 selected
 428:../../source/src/FWlib/src/stm32f10x_dac.c ****   * @retval The selected DAC channel data output value.
 429:../../source/src/FWlib/src/stm32f10x_dac.c ****   */
 430:../../source/src/FWlib/src/stm32f10x_dac.c **** uint16_t DAC_GetDataOutputValue(uint32_t DAC_Channel)
 431:../../source/src/FWlib/src/stm32f10x_dac.c **** {
 502              		.loc 1 431 0
 503              		.cfi_startproc
 504              		@ args = 0, pretend = 0, frame = 8
 505              		@ frame_needed = 0, uses_anonymous_args = 0
 506              		@ link register save eliminated.
 507              	.LVL29:
 432:../../source/src/FWlib/src/stm32f10x_dac.c ****   __IO uint32_t tmp = 0;
 508              		.loc 1 432 0
 509 014c 0022     		movs	r2, #0
 433:../../source/src/FWlib/src/stm32f10x_dac.c ****   
 434:../../source/src/FWlib/src/stm32f10x_dac.c ****   /* Check the parameters */
 435:../../source/src/FWlib/src/stm32f10x_dac.c ****   assert_param(IS_DAC_CHANNEL(DAC_Channel));
 436:../../source/src/FWlib/src/stm32f10x_dac.c ****   
 437:../../source/src/FWlib/src/stm32f10x_dac.c ****   tmp = (uint32_t) DAC_BASE ;
 510              		.loc 1 437 0
 511 014e 074B     		ldr	r3, .L49
ARM GAS  G:\Users\Jaxb\AppData\Local\Temp\ccznmST2.s 			page 18


 431:../../source/src/FWlib/src/stm32f10x_dac.c ****   __IO uint32_t tmp = 0;
 512              		.loc 1 431 0
 513 0150 82B0     		sub	sp, sp, #8
 514              	.LCFI8:
 515              		.cfi_def_cfa_offset 8
 432:../../source/src/FWlib/src/stm32f10x_dac.c ****   __IO uint32_t tmp = 0;
 516              		.loc 1 432 0
 517 0152 0192     		str	r2, [sp, #4]
 518              		.loc 1 437 0
 519 0154 0193     		str	r3, [sp, #4]
 438:../../source/src/FWlib/src/stm32f10x_dac.c ****   tmp += DOR_OFFSET + ((uint32_t)DAC_Channel >> 2);
 520              		.loc 1 438 0
 521 0156 019B     		ldr	r3, [sp, #4]
 522 0158 2C33     		adds	r3, r3, #44
 523 015a 03EB9000 		add	r0, r3, r0, lsr #2
 524              	.LVL30:
 525 015e 0190     		str	r0, [sp, #4]
 439:../../source/src/FWlib/src/stm32f10x_dac.c ****   
 440:../../source/src/FWlib/src/stm32f10x_dac.c ****   /* Returns the DAC channel data output register value */
 441:../../source/src/FWlib/src/stm32f10x_dac.c ****   return (uint16_t) (*(__IO uint32_t*) tmp);
 526              		.loc 1 441 0
 527 0160 019B     		ldr	r3, [sp, #4]
 528 0162 1868     		ldr	r0, [r3]
 442:../../source/src/FWlib/src/stm32f10x_dac.c **** }
 529              		.loc 1 442 0
 530 0164 80B2     		uxth	r0, r0
 531 0166 02B0     		add	sp, sp, #8
 532              	.LCFI9:
 533              		.cfi_def_cfa_offset 0
 534              		@ sp needed
 535 0168 7047     		bx	lr
 536              	.L50:
 537 016a 00BF     		.align	2
 538              	.L49:
 539 016c 00740040 		.word	1073771520
 540              		.cfi_endproc
 541              	.LFE40:
 542              		.size	DAC_GetDataOutputValue, .-DAC_GetDataOutputValue
 543              	.Letext0:
 544              		.file 2 "f:\\arm\\gcc2018\\arm-none-eabi\\include\\machine\\_default_types.h"
 545              		.file 3 "f:\\arm\\gcc2018\\arm-none-eabi\\include\\sys\\_stdint.h"
 546              		.file 4 "../../source/include/core_cm3.h"
 547              		.file 5 "../../source/include/system_stm32f10x.h"
 548              		.file 6 "../../source/include/stm32f10x.h"
 549              		.file 7 "../../source/src/FWlib/inc/stm32f10x_dac.h"
 550              		.file 8 "../../source/src/FWlib/inc/stm32f10x_rcc.h"