ARM GAS  G:\Users\Jaxb\AppData\Local\Temp\cc0t8LPX.s 			page 1


   1              		.cpu cortex-m3
   2              		.eabi_attribute 20, 1
   3              		.eabi_attribute 21, 1
   4              		.eabi_attribute 23, 3
   5              		.eabi_attribute 24, 1
   6              		.eabi_attribute 25, 1
   7              		.eabi_attribute 26, 1
   8              		.eabi_attribute 30, 6
   9              		.eabi_attribute 34, 1
  10              		.eabi_attribute 18, 4
  11              		.file	"stm32f10x_wwdg.c"
  12              		.text
  13              	.Ltext0:
  14              		.cfi_sections	.debug_frame
  15              		.align	1
  16              		.global	WWDG_DeInit
  17              		.syntax unified
  18              		.thumb
  19              		.thumb_func
  20              		.fpu softvfp
  21              		.type	WWDG_DeInit, %function
  22              	WWDG_DeInit:
  23              	.LFB29:
  24              		.file 1 "../../source/src/FWlib/src/stm32f10x_wwdg.c"
   1:../../source/src/FWlib/src/stm32f10x_wwdg.c **** /**
   2:../../source/src/FWlib/src/stm32f10x_wwdg.c ****   ******************************************************************************
   3:../../source/src/FWlib/src/stm32f10x_wwdg.c ****   * @file    stm32f10x_wwdg.c
   4:../../source/src/FWlib/src/stm32f10x_wwdg.c ****   * @author  MCD Application Team
   5:../../source/src/FWlib/src/stm32f10x_wwdg.c ****   * @version V3.5.0
   6:../../source/src/FWlib/src/stm32f10x_wwdg.c ****   * @date    11-March-2011
   7:../../source/src/FWlib/src/stm32f10x_wwdg.c ****   * @brief   This file provides all the WWDG firmware functions.
   8:../../source/src/FWlib/src/stm32f10x_wwdg.c ****   ******************************************************************************
   9:../../source/src/FWlib/src/stm32f10x_wwdg.c ****   * @attention
  10:../../source/src/FWlib/src/stm32f10x_wwdg.c ****   *
  11:../../source/src/FWlib/src/stm32f10x_wwdg.c ****   * THE PRESENT FIRMWARE WHICH IS FOR GUIDANCE ONLY AIMS AT PROVIDING CUSTOMERS
  12:../../source/src/FWlib/src/stm32f10x_wwdg.c ****   * WITH CODING INFORMATION REGARDING THEIR PRODUCTS IN ORDER FOR THEM TO SAVE
  13:../../source/src/FWlib/src/stm32f10x_wwdg.c ****   * TIME. AS A RESULT, STMICROELECTRONICS SHALL NOT BE HELD LIABLE FOR ANY
  14:../../source/src/FWlib/src/stm32f10x_wwdg.c ****   * DIRECT, INDIRECT OR CONSEQUENTIAL DAMAGES WITH RESPECT TO ANY CLAIMS ARISING
  15:../../source/src/FWlib/src/stm32f10x_wwdg.c ****   * FROM THE CONTENT OF SUCH FIRMWARE AND/OR THE USE MADE BY CUSTOMERS OF THE
  16:../../source/src/FWlib/src/stm32f10x_wwdg.c ****   * CODING INFORMATION CONTAINED HEREIN IN CONNECTION WITH THEIR PRODUCTS.
  17:../../source/src/FWlib/src/stm32f10x_wwdg.c ****   *
  18:../../source/src/FWlib/src/stm32f10x_wwdg.c ****   * <h2><center>&copy; COPYRIGHT 2011 STMicroelectronics</center></h2>
  19:../../source/src/FWlib/src/stm32f10x_wwdg.c ****   ******************************************************************************
  20:../../source/src/FWlib/src/stm32f10x_wwdg.c ****   */
  21:../../source/src/FWlib/src/stm32f10x_wwdg.c **** 
  22:../../source/src/FWlib/src/stm32f10x_wwdg.c **** /* Includes ------------------------------------------------------------------*/
  23:../../source/src/FWlib/src/stm32f10x_wwdg.c **** #include "stm32f10x_wwdg.h"
  24:../../source/src/FWlib/src/stm32f10x_wwdg.c **** #include "stm32f10x_rcc.h"
  25:../../source/src/FWlib/src/stm32f10x_wwdg.c **** 
  26:../../source/src/FWlib/src/stm32f10x_wwdg.c **** /** @addtogroup STM32F10x_StdPeriph_Driver
  27:../../source/src/FWlib/src/stm32f10x_wwdg.c ****   * @{
  28:../../source/src/FWlib/src/stm32f10x_wwdg.c ****   */
  29:../../source/src/FWlib/src/stm32f10x_wwdg.c **** 
  30:../../source/src/FWlib/src/stm32f10x_wwdg.c **** /** @defgroup WWDG 
  31:../../source/src/FWlib/src/stm32f10x_wwdg.c ****   * @brief WWDG driver modules
  32:../../source/src/FWlib/src/stm32f10x_wwdg.c ****   * @{
  33:../../source/src/FWlib/src/stm32f10x_wwdg.c ****   */
ARM GAS  G:\Users\Jaxb\AppData\Local\Temp\cc0t8LPX.s 			page 2


  34:../../source/src/FWlib/src/stm32f10x_wwdg.c **** 
  35:../../source/src/FWlib/src/stm32f10x_wwdg.c **** /** @defgroup WWDG_Private_TypesDefinitions
  36:../../source/src/FWlib/src/stm32f10x_wwdg.c ****   * @{
  37:../../source/src/FWlib/src/stm32f10x_wwdg.c ****   */
  38:../../source/src/FWlib/src/stm32f10x_wwdg.c **** 
  39:../../source/src/FWlib/src/stm32f10x_wwdg.c **** /**
  40:../../source/src/FWlib/src/stm32f10x_wwdg.c ****   * @}
  41:../../source/src/FWlib/src/stm32f10x_wwdg.c ****   */
  42:../../source/src/FWlib/src/stm32f10x_wwdg.c **** 
  43:../../source/src/FWlib/src/stm32f10x_wwdg.c **** /** @defgroup WWDG_Private_Defines
  44:../../source/src/FWlib/src/stm32f10x_wwdg.c ****   * @{
  45:../../source/src/FWlib/src/stm32f10x_wwdg.c ****   */
  46:../../source/src/FWlib/src/stm32f10x_wwdg.c **** 
  47:../../source/src/FWlib/src/stm32f10x_wwdg.c **** /* ----------- WWDG registers bit address in the alias region ----------- */
  48:../../source/src/FWlib/src/stm32f10x_wwdg.c **** #define WWDG_OFFSET       (WWDG_BASE - PERIPH_BASE)
  49:../../source/src/FWlib/src/stm32f10x_wwdg.c **** 
  50:../../source/src/FWlib/src/stm32f10x_wwdg.c **** /* Alias word address of EWI bit */
  51:../../source/src/FWlib/src/stm32f10x_wwdg.c **** #define CFR_OFFSET        (WWDG_OFFSET + 0x04)
  52:../../source/src/FWlib/src/stm32f10x_wwdg.c **** #define EWI_BitNumber     0x09
  53:../../source/src/FWlib/src/stm32f10x_wwdg.c **** #define CFR_EWI_BB        (PERIPH_BB_BASE + (CFR_OFFSET * 32) + (EWI_BitNumber * 4))
  54:../../source/src/FWlib/src/stm32f10x_wwdg.c **** 
  55:../../source/src/FWlib/src/stm32f10x_wwdg.c **** /* --------------------- WWDG registers bit mask ------------------------ */
  56:../../source/src/FWlib/src/stm32f10x_wwdg.c **** 
  57:../../source/src/FWlib/src/stm32f10x_wwdg.c **** /* CR register bit mask */
  58:../../source/src/FWlib/src/stm32f10x_wwdg.c **** #define CR_WDGA_Set       ((uint32_t)0x00000080)
  59:../../source/src/FWlib/src/stm32f10x_wwdg.c **** 
  60:../../source/src/FWlib/src/stm32f10x_wwdg.c **** /* CFR register bit mask */
  61:../../source/src/FWlib/src/stm32f10x_wwdg.c **** #define CFR_WDGTB_Mask    ((uint32_t)0xFFFFFE7F)
  62:../../source/src/FWlib/src/stm32f10x_wwdg.c **** #define CFR_W_Mask        ((uint32_t)0xFFFFFF80)
  63:../../source/src/FWlib/src/stm32f10x_wwdg.c **** #define BIT_Mask          ((uint8_t)0x7F)
  64:../../source/src/FWlib/src/stm32f10x_wwdg.c **** 
  65:../../source/src/FWlib/src/stm32f10x_wwdg.c **** /**
  66:../../source/src/FWlib/src/stm32f10x_wwdg.c ****   * @}
  67:../../source/src/FWlib/src/stm32f10x_wwdg.c ****   */
  68:../../source/src/FWlib/src/stm32f10x_wwdg.c **** 
  69:../../source/src/FWlib/src/stm32f10x_wwdg.c **** /** @defgroup WWDG_Private_Macros
  70:../../source/src/FWlib/src/stm32f10x_wwdg.c ****   * @{
  71:../../source/src/FWlib/src/stm32f10x_wwdg.c ****   */
  72:../../source/src/FWlib/src/stm32f10x_wwdg.c **** 
  73:../../source/src/FWlib/src/stm32f10x_wwdg.c **** /**
  74:../../source/src/FWlib/src/stm32f10x_wwdg.c ****   * @}
  75:../../source/src/FWlib/src/stm32f10x_wwdg.c ****   */
  76:../../source/src/FWlib/src/stm32f10x_wwdg.c **** 
  77:../../source/src/FWlib/src/stm32f10x_wwdg.c **** /** @defgroup WWDG_Private_Variables
  78:../../source/src/FWlib/src/stm32f10x_wwdg.c ****   * @{
  79:../../source/src/FWlib/src/stm32f10x_wwdg.c ****   */
  80:../../source/src/FWlib/src/stm32f10x_wwdg.c **** 
  81:../../source/src/FWlib/src/stm32f10x_wwdg.c **** /**
  82:../../source/src/FWlib/src/stm32f10x_wwdg.c ****   * @}
  83:../../source/src/FWlib/src/stm32f10x_wwdg.c ****   */
  84:../../source/src/FWlib/src/stm32f10x_wwdg.c **** 
  85:../../source/src/FWlib/src/stm32f10x_wwdg.c **** /** @defgroup WWDG_Private_FunctionPrototypes
  86:../../source/src/FWlib/src/stm32f10x_wwdg.c ****   * @{
  87:../../source/src/FWlib/src/stm32f10x_wwdg.c ****   */
  88:../../source/src/FWlib/src/stm32f10x_wwdg.c **** 
  89:../../source/src/FWlib/src/stm32f10x_wwdg.c **** /**
  90:../../source/src/FWlib/src/stm32f10x_wwdg.c ****   * @}
ARM GAS  G:\Users\Jaxb\AppData\Local\Temp\cc0t8LPX.s 			page 3


  91:../../source/src/FWlib/src/stm32f10x_wwdg.c ****   */
  92:../../source/src/FWlib/src/stm32f10x_wwdg.c **** 
  93:../../source/src/FWlib/src/stm32f10x_wwdg.c **** /** @defgroup WWDG_Private_Functions
  94:../../source/src/FWlib/src/stm32f10x_wwdg.c ****   * @{
  95:../../source/src/FWlib/src/stm32f10x_wwdg.c ****   */
  96:../../source/src/FWlib/src/stm32f10x_wwdg.c **** 
  97:../../source/src/FWlib/src/stm32f10x_wwdg.c **** /**
  98:../../source/src/FWlib/src/stm32f10x_wwdg.c ****   * @brief  Deinitializes the WWDG peripheral registers to their default reset values.
  99:../../source/src/FWlib/src/stm32f10x_wwdg.c ****   * @param  None
 100:../../source/src/FWlib/src/stm32f10x_wwdg.c ****   * @retval None
 101:../../source/src/FWlib/src/stm32f10x_wwdg.c ****   */
 102:../../source/src/FWlib/src/stm32f10x_wwdg.c **** void WWDG_DeInit(void)
 103:../../source/src/FWlib/src/stm32f10x_wwdg.c **** {
  25              		.loc 1 103 0
  26              		.cfi_startproc
  27              		@ args = 0, pretend = 0, frame = 0
  28              		@ frame_needed = 1, uses_anonymous_args = 0
  29 0000 80B5     		push	{r7, lr}
  30              	.LCFI0:
  31              		.cfi_def_cfa_offset 8
  32              		.cfi_offset 7, -8
  33              		.cfi_offset 14, -4
  34 0002 00AF     		add	r7, sp, #0
  35              	.LCFI1:
  36              		.cfi_def_cfa_register 7
 104:../../source/src/FWlib/src/stm32f10x_wwdg.c ****   RCC_APB1PeriphResetCmd(RCC_APB1Periph_WWDG, ENABLE);
  37              		.loc 1 104 0
  38 0004 0121     		movs	r1, #1
  39 0006 4FF40060 		mov	r0, #2048
  40 000a FFF7FEFF 		bl	RCC_APB1PeriphResetCmd
 105:../../source/src/FWlib/src/stm32f10x_wwdg.c ****   RCC_APB1PeriphResetCmd(RCC_APB1Periph_WWDG, DISABLE);
  41              		.loc 1 105 0
  42 000e 0021     		movs	r1, #0
  43 0010 4FF40060 		mov	r0, #2048
  44 0014 FFF7FEFF 		bl	RCC_APB1PeriphResetCmd
 106:../../source/src/FWlib/src/stm32f10x_wwdg.c **** }
  45              		.loc 1 106 0
  46 0018 00BF     		nop
  47 001a 80BD     		pop	{r7, pc}
  48              		.cfi_endproc
  49              	.LFE29:
  50              		.size	WWDG_DeInit, .-WWDG_DeInit
  51              		.align	1
  52              		.global	WWDG_SetPrescaler
  53              		.syntax unified
  54              		.thumb
  55              		.thumb_func
  56              		.fpu softvfp
  57              		.type	WWDG_SetPrescaler, %function
  58              	WWDG_SetPrescaler:
  59              	.LFB30:
 107:../../source/src/FWlib/src/stm32f10x_wwdg.c **** 
 108:../../source/src/FWlib/src/stm32f10x_wwdg.c **** /**
 109:../../source/src/FWlib/src/stm32f10x_wwdg.c ****   * @brief  Sets the WWDG Prescaler.
 110:../../source/src/FWlib/src/stm32f10x_wwdg.c ****   * @param  WWDG_Prescaler: specifies the WWDG Prescaler.
 111:../../source/src/FWlib/src/stm32f10x_wwdg.c ****   *   This parameter can be one of the following values:
 112:../../source/src/FWlib/src/stm32f10x_wwdg.c ****   *     @arg WWDG_Prescaler_1: WWDG counter clock = (PCLK1/4096)/1
ARM GAS  G:\Users\Jaxb\AppData\Local\Temp\cc0t8LPX.s 			page 4


 113:../../source/src/FWlib/src/stm32f10x_wwdg.c ****   *     @arg WWDG_Prescaler_2: WWDG counter clock = (PCLK1/4096)/2
 114:../../source/src/FWlib/src/stm32f10x_wwdg.c ****   *     @arg WWDG_Prescaler_4: WWDG counter clock = (PCLK1/4096)/4
 115:../../source/src/FWlib/src/stm32f10x_wwdg.c ****   *     @arg WWDG_Prescaler_8: WWDG counter clock = (PCLK1/4096)/8
 116:../../source/src/FWlib/src/stm32f10x_wwdg.c ****   * @retval None
 117:../../source/src/FWlib/src/stm32f10x_wwdg.c ****   */
 118:../../source/src/FWlib/src/stm32f10x_wwdg.c **** void WWDG_SetPrescaler(uint32_t WWDG_Prescaler)
 119:../../source/src/FWlib/src/stm32f10x_wwdg.c **** {
  60              		.loc 1 119 0
  61              		.cfi_startproc
  62              		@ args = 0, pretend = 0, frame = 16
  63              		@ frame_needed = 1, uses_anonymous_args = 0
  64              		@ link register save eliminated.
  65 001c 80B4     		push	{r7}
  66              	.LCFI2:
  67              		.cfi_def_cfa_offset 4
  68              		.cfi_offset 7, -4
  69 001e 85B0     		sub	sp, sp, #20
  70              	.LCFI3:
  71              		.cfi_def_cfa_offset 24
  72 0020 00AF     		add	r7, sp, #0
  73              	.LCFI4:
  74              		.cfi_def_cfa_register 7
  75 0022 7860     		str	r0, [r7, #4]
 120:../../source/src/FWlib/src/stm32f10x_wwdg.c ****   uint32_t tmpreg = 0;
  76              		.loc 1 120 0
  77 0024 0023     		movs	r3, #0
  78 0026 FB60     		str	r3, [r7, #12]
 121:../../source/src/FWlib/src/stm32f10x_wwdg.c ****   /* Check the parameters */
 122:../../source/src/FWlib/src/stm32f10x_wwdg.c ****   assert_param(IS_WWDG_PRESCALER(WWDG_Prescaler));
 123:../../source/src/FWlib/src/stm32f10x_wwdg.c ****   /* Clear WDGTB[1:0] bits */
 124:../../source/src/FWlib/src/stm32f10x_wwdg.c ****   tmpreg = WWDG->CFR & CFR_WDGTB_Mask;
  79              		.loc 1 124 0
  80 0028 084B     		ldr	r3, .L3
  81 002a 5B68     		ldr	r3, [r3, #4]
  82 002c 23F4C073 		bic	r3, r3, #384
  83 0030 FB60     		str	r3, [r7, #12]
 125:../../source/src/FWlib/src/stm32f10x_wwdg.c ****   /* Set WDGTB[1:0] bits according to WWDG_Prescaler value */
 126:../../source/src/FWlib/src/stm32f10x_wwdg.c ****   tmpreg |= WWDG_Prescaler;
  84              		.loc 1 126 0
  85 0032 FA68     		ldr	r2, [r7, #12]
  86 0034 7B68     		ldr	r3, [r7, #4]
  87 0036 1343     		orrs	r3, r3, r2
  88 0038 FB60     		str	r3, [r7, #12]
 127:../../source/src/FWlib/src/stm32f10x_wwdg.c ****   /* Store the new value */
 128:../../source/src/FWlib/src/stm32f10x_wwdg.c ****   WWDG->CFR = tmpreg;
  89              		.loc 1 128 0
  90 003a 044A     		ldr	r2, .L3
  91 003c FB68     		ldr	r3, [r7, #12]
  92 003e 5360     		str	r3, [r2, #4]
 129:../../source/src/FWlib/src/stm32f10x_wwdg.c **** }
  93              		.loc 1 129 0
  94 0040 00BF     		nop
  95 0042 1437     		adds	r7, r7, #20
  96              	.LCFI5:
  97              		.cfi_def_cfa_offset 4
  98 0044 BD46     		mov	sp, r7
  99              	.LCFI6:
ARM GAS  G:\Users\Jaxb\AppData\Local\Temp\cc0t8LPX.s 			page 5


 100              		.cfi_def_cfa_register 13
 101              		@ sp needed
 102 0046 80BC     		pop	{r7}
 103              	.LCFI7:
 104              		.cfi_restore 7
 105              		.cfi_def_cfa_offset 0
 106 0048 7047     		bx	lr
 107              	.L4:
 108 004a 00BF     		.align	2
 109              	.L3:
 110 004c 002C0040 		.word	1073753088
 111              		.cfi_endproc
 112              	.LFE30:
 113              		.size	WWDG_SetPrescaler, .-WWDG_SetPrescaler
 114              		.align	1
 115              		.global	WWDG_SetWindowValue
 116              		.syntax unified
 117              		.thumb
 118              		.thumb_func
 119              		.fpu softvfp
 120              		.type	WWDG_SetWindowValue, %function
 121              	WWDG_SetWindowValue:
 122              	.LFB31:
 130:../../source/src/FWlib/src/stm32f10x_wwdg.c **** 
 131:../../source/src/FWlib/src/stm32f10x_wwdg.c **** /**
 132:../../source/src/FWlib/src/stm32f10x_wwdg.c ****   * @brief  Sets the WWDG window value.
 133:../../source/src/FWlib/src/stm32f10x_wwdg.c ****   * @param  WindowValue: specifies the window value to be compared to the downcounter.
 134:../../source/src/FWlib/src/stm32f10x_wwdg.c ****   *   This parameter value must be lower than 0x80.
 135:../../source/src/FWlib/src/stm32f10x_wwdg.c ****   * @retval None
 136:../../source/src/FWlib/src/stm32f10x_wwdg.c ****   */
 137:../../source/src/FWlib/src/stm32f10x_wwdg.c **** void WWDG_SetWindowValue(uint8_t WindowValue)
 138:../../source/src/FWlib/src/stm32f10x_wwdg.c **** {
 123              		.loc 1 138 0
 124              		.cfi_startproc
 125              		@ args = 0, pretend = 0, frame = 16
 126              		@ frame_needed = 1, uses_anonymous_args = 0
 127              		@ link register save eliminated.
 128 0050 80B4     		push	{r7}
 129              	.LCFI8:
 130              		.cfi_def_cfa_offset 4
 131              		.cfi_offset 7, -4
 132 0052 85B0     		sub	sp, sp, #20
 133              	.LCFI9:
 134              		.cfi_def_cfa_offset 24
 135 0054 00AF     		add	r7, sp, #0
 136              	.LCFI10:
 137              		.cfi_def_cfa_register 7
 138 0056 0346     		mov	r3, r0
 139 0058 FB71     		strb	r3, [r7, #7]
 139:../../source/src/FWlib/src/stm32f10x_wwdg.c ****   __IO uint32_t tmpreg = 0;
 140              		.loc 1 139 0
 141 005a 0023     		movs	r3, #0
 142 005c FB60     		str	r3, [r7, #12]
 140:../../source/src/FWlib/src/stm32f10x_wwdg.c **** 
 141:../../source/src/FWlib/src/stm32f10x_wwdg.c ****   /* Check the parameters */
 142:../../source/src/FWlib/src/stm32f10x_wwdg.c ****   assert_param(IS_WWDG_WINDOW_VALUE(WindowValue));
 143:../../source/src/FWlib/src/stm32f10x_wwdg.c ****   /* Clear W[6:0] bits */
ARM GAS  G:\Users\Jaxb\AppData\Local\Temp\cc0t8LPX.s 			page 6


 144:../../source/src/FWlib/src/stm32f10x_wwdg.c **** 
 145:../../source/src/FWlib/src/stm32f10x_wwdg.c ****   tmpreg = WWDG->CFR & CFR_W_Mask;
 143              		.loc 1 145 0
 144 005e 094B     		ldr	r3, .L6
 145 0060 5B68     		ldr	r3, [r3, #4]
 146 0062 23F07F03 		bic	r3, r3, #127
 147 0066 FB60     		str	r3, [r7, #12]
 146:../../source/src/FWlib/src/stm32f10x_wwdg.c **** 
 147:../../source/src/FWlib/src/stm32f10x_wwdg.c ****   /* Set W[6:0] bits according to WindowValue value */
 148:../../source/src/FWlib/src/stm32f10x_wwdg.c ****   tmpreg |= WindowValue & (uint32_t) BIT_Mask;
 148              		.loc 1 148 0
 149 0068 FB79     		ldrb	r3, [r7, #7]	@ zero_extendqisi2
 150 006a 03F07F02 		and	r2, r3, #127
 151 006e FB68     		ldr	r3, [r7, #12]
 152 0070 1343     		orrs	r3, r3, r2
 153 0072 FB60     		str	r3, [r7, #12]
 149:../../source/src/FWlib/src/stm32f10x_wwdg.c **** 
 150:../../source/src/FWlib/src/stm32f10x_wwdg.c ****   /* Store the new value */
 151:../../source/src/FWlib/src/stm32f10x_wwdg.c ****   WWDG->CFR = tmpreg;
 154              		.loc 1 151 0
 155 0074 034A     		ldr	r2, .L6
 156 0076 FB68     		ldr	r3, [r7, #12]
 157 0078 5360     		str	r3, [r2, #4]
 152:../../source/src/FWlib/src/stm32f10x_wwdg.c **** }
 158              		.loc 1 152 0
 159 007a 00BF     		nop
 160 007c 1437     		adds	r7, r7, #20
 161              	.LCFI11:
 162              		.cfi_def_cfa_offset 4
 163 007e BD46     		mov	sp, r7
 164              	.LCFI12:
 165              		.cfi_def_cfa_register 13
 166              		@ sp needed
 167 0080 80BC     		pop	{r7}
 168              	.LCFI13:
 169              		.cfi_restore 7
 170              		.cfi_def_cfa_offset 0
 171 0082 7047     		bx	lr
 172              	.L7:
 173              		.align	2
 174              	.L6:
 175 0084 002C0040 		.word	1073753088
 176              		.cfi_endproc
 177              	.LFE31:
 178              		.size	WWDG_SetWindowValue, .-WWDG_SetWindowValue
 179              		.align	1
 180              		.global	WWDG_EnableIT
 181              		.syntax unified
 182              		.thumb
 183              		.thumb_func
 184              		.fpu softvfp
 185              		.type	WWDG_EnableIT, %function
 186              	WWDG_EnableIT:
 187              	.LFB32:
 153:../../source/src/FWlib/src/stm32f10x_wwdg.c **** 
 154:../../source/src/FWlib/src/stm32f10x_wwdg.c **** /**
 155:../../source/src/FWlib/src/stm32f10x_wwdg.c ****   * @brief  Enables the WWDG Early Wakeup interrupt(EWI).
ARM GAS  G:\Users\Jaxb\AppData\Local\Temp\cc0t8LPX.s 			page 7


 156:../../source/src/FWlib/src/stm32f10x_wwdg.c ****   * @param  None
 157:../../source/src/FWlib/src/stm32f10x_wwdg.c ****   * @retval None
 158:../../source/src/FWlib/src/stm32f10x_wwdg.c ****   */
 159:../../source/src/FWlib/src/stm32f10x_wwdg.c **** void WWDG_EnableIT(void)
 160:../../source/src/FWlib/src/stm32f10x_wwdg.c **** {
 188              		.loc 1 160 0
 189              		.cfi_startproc
 190              		@ args = 0, pretend = 0, frame = 0
 191              		@ frame_needed = 1, uses_anonymous_args = 0
 192              		@ link register save eliminated.
 193 0088 80B4     		push	{r7}
 194              	.LCFI14:
 195              		.cfi_def_cfa_offset 4
 196              		.cfi_offset 7, -4
 197 008a 00AF     		add	r7, sp, #0
 198              	.LCFI15:
 199              		.cfi_def_cfa_register 7
 161:../../source/src/FWlib/src/stm32f10x_wwdg.c ****   *(__IO uint32_t *) CFR_EWI_BB = (uint32_t)ENABLE;
 200              		.loc 1 161 0
 201 008c 034B     		ldr	r3, .L9
 202 008e 0122     		movs	r2, #1
 203 0090 1A60     		str	r2, [r3]
 162:../../source/src/FWlib/src/stm32f10x_wwdg.c **** }
 204              		.loc 1 162 0
 205 0092 00BF     		nop
 206 0094 BD46     		mov	sp, r7
 207              	.LCFI16:
 208              		.cfi_def_cfa_register 13
 209              		@ sp needed
 210 0096 80BC     		pop	{r7}
 211              	.LCFI17:
 212              		.cfi_restore 7
 213              		.cfi_def_cfa_offset 0
 214 0098 7047     		bx	lr
 215              	.L10:
 216 009a 00BF     		.align	2
 217              	.L9:
 218 009c A4800542 		.word	1107656868
 219              		.cfi_endproc
 220              	.LFE32:
 221              		.size	WWDG_EnableIT, .-WWDG_EnableIT
 222              		.align	1
 223              		.global	WWDG_SetCounter
 224              		.syntax unified
 225              		.thumb
 226              		.thumb_func
 227              		.fpu softvfp
 228              		.type	WWDG_SetCounter, %function
 229              	WWDG_SetCounter:
 230              	.LFB33:
 163:../../source/src/FWlib/src/stm32f10x_wwdg.c **** 
 164:../../source/src/FWlib/src/stm32f10x_wwdg.c **** /**
 165:../../source/src/FWlib/src/stm32f10x_wwdg.c ****   * @brief  Sets the WWDG counter value.
 166:../../source/src/FWlib/src/stm32f10x_wwdg.c ****   * @param  Counter: specifies the watchdog counter value.
 167:../../source/src/FWlib/src/stm32f10x_wwdg.c ****   *   This parameter must be a number between 0x40 and 0x7F.
 168:../../source/src/FWlib/src/stm32f10x_wwdg.c ****   * @retval None
 169:../../source/src/FWlib/src/stm32f10x_wwdg.c ****   */
ARM GAS  G:\Users\Jaxb\AppData\Local\Temp\cc0t8LPX.s 			page 8


 170:../../source/src/FWlib/src/stm32f10x_wwdg.c **** void WWDG_SetCounter(uint8_t Counter)
 171:../../source/src/FWlib/src/stm32f10x_wwdg.c **** {
 231              		.loc 1 171 0
 232              		.cfi_startproc
 233              		@ args = 0, pretend = 0, frame = 8
 234              		@ frame_needed = 1, uses_anonymous_args = 0
 235              		@ link register save eliminated.
 236 00a0 80B4     		push	{r7}
 237              	.LCFI18:
 238              		.cfi_def_cfa_offset 4
 239              		.cfi_offset 7, -4
 240 00a2 83B0     		sub	sp, sp, #12
 241              	.LCFI19:
 242              		.cfi_def_cfa_offset 16
 243 00a4 00AF     		add	r7, sp, #0
 244              	.LCFI20:
 245              		.cfi_def_cfa_register 7
 246 00a6 0346     		mov	r3, r0
 247 00a8 FB71     		strb	r3, [r7, #7]
 172:../../source/src/FWlib/src/stm32f10x_wwdg.c ****   /* Check the parameters */
 173:../../source/src/FWlib/src/stm32f10x_wwdg.c ****   assert_param(IS_WWDG_COUNTER(Counter));
 174:../../source/src/FWlib/src/stm32f10x_wwdg.c ****   /* Write to T[6:0] bits to configure the counter value, no need to do
 175:../../source/src/FWlib/src/stm32f10x_wwdg.c ****      a read-modify-write; writing a 0 to WDGA bit does nothing */
 176:../../source/src/FWlib/src/stm32f10x_wwdg.c ****   WWDG->CR = Counter & BIT_Mask;
 248              		.loc 1 176 0
 249 00aa FB79     		ldrb	r3, [r7, #7]	@ zero_extendqisi2
 250 00ac 044A     		ldr	r2, .L12
 251 00ae 03F07F03 		and	r3, r3, #127
 252 00b2 1360     		str	r3, [r2]
 177:../../source/src/FWlib/src/stm32f10x_wwdg.c **** }
 253              		.loc 1 177 0
 254 00b4 00BF     		nop
 255 00b6 0C37     		adds	r7, r7, #12
 256              	.LCFI21:
 257              		.cfi_def_cfa_offset 4
 258 00b8 BD46     		mov	sp, r7
 259              	.LCFI22:
 260              		.cfi_def_cfa_register 13
 261              		@ sp needed
 262 00ba 80BC     		pop	{r7}
 263              	.LCFI23:
 264              		.cfi_restore 7
 265              		.cfi_def_cfa_offset 0
 266 00bc 7047     		bx	lr
 267              	.L13:
 268 00be 00BF     		.align	2
 269              	.L12:
 270 00c0 002C0040 		.word	1073753088
 271              		.cfi_endproc
 272              	.LFE33:
 273              		.size	WWDG_SetCounter, .-WWDG_SetCounter
 274              		.align	1
 275              		.global	WWDG_Enable
 276              		.syntax unified
 277              		.thumb
 278              		.thumb_func
 279              		.fpu softvfp
ARM GAS  G:\Users\Jaxb\AppData\Local\Temp\cc0t8LPX.s 			page 9


 280              		.type	WWDG_Enable, %function
 281              	WWDG_Enable:
 282              	.LFB34:
 178:../../source/src/FWlib/src/stm32f10x_wwdg.c **** 
 179:../../source/src/FWlib/src/stm32f10x_wwdg.c **** /**
 180:../../source/src/FWlib/src/stm32f10x_wwdg.c ****   * @brief  Enables WWDG and load the counter value.                  
 181:../../source/src/FWlib/src/stm32f10x_wwdg.c ****   * @param  Counter: specifies the watchdog counter value.
 182:../../source/src/FWlib/src/stm32f10x_wwdg.c ****   *   This parameter must be a number between 0x40 and 0x7F.
 183:../../source/src/FWlib/src/stm32f10x_wwdg.c ****   * @retval None
 184:../../source/src/FWlib/src/stm32f10x_wwdg.c ****   */
 185:../../source/src/FWlib/src/stm32f10x_wwdg.c **** void WWDG_Enable(uint8_t Counter)
 186:../../source/src/FWlib/src/stm32f10x_wwdg.c **** {
 283              		.loc 1 186 0
 284              		.cfi_startproc
 285              		@ args = 0, pretend = 0, frame = 8
 286              		@ frame_needed = 1, uses_anonymous_args = 0
 287              		@ link register save eliminated.
 288 00c4 80B4     		push	{r7}
 289              	.LCFI24:
 290              		.cfi_def_cfa_offset 4
 291              		.cfi_offset 7, -4
 292 00c6 83B0     		sub	sp, sp, #12
 293              	.LCFI25:
 294              		.cfi_def_cfa_offset 16
 295 00c8 00AF     		add	r7, sp, #0
 296              	.LCFI26:
 297              		.cfi_def_cfa_register 7
 298 00ca 0346     		mov	r3, r0
 299 00cc FB71     		strb	r3, [r7, #7]
 187:../../source/src/FWlib/src/stm32f10x_wwdg.c ****   /* Check the parameters */
 188:../../source/src/FWlib/src/stm32f10x_wwdg.c ****   assert_param(IS_WWDG_COUNTER(Counter));
 189:../../source/src/FWlib/src/stm32f10x_wwdg.c ****   WWDG->CR = CR_WDGA_Set | Counter;
 300              		.loc 1 189 0
 301 00ce FB79     		ldrb	r3, [r7, #7]
 302 00d0 63F07F03 		orn	r3, r3, #127
 303 00d4 DAB2     		uxtb	r2, r3
 304 00d6 034B     		ldr	r3, .L15
 305 00d8 1A60     		str	r2, [r3]
 190:../../source/src/FWlib/src/stm32f10x_wwdg.c **** }
 306              		.loc 1 190 0
 307 00da 00BF     		nop
 308 00dc 0C37     		adds	r7, r7, #12
 309              	.LCFI27:
 310              		.cfi_def_cfa_offset 4
 311 00de BD46     		mov	sp, r7
 312              	.LCFI28:
 313              		.cfi_def_cfa_register 13
 314              		@ sp needed
 315 00e0 80BC     		pop	{r7}
 316              	.LCFI29:
 317              		.cfi_restore 7
 318              		.cfi_def_cfa_offset 0
 319 00e2 7047     		bx	lr
 320              	.L16:
 321              		.align	2
 322              	.L15:
 323 00e4 002C0040 		.word	1073753088
ARM GAS  G:\Users\Jaxb\AppData\Local\Temp\cc0t8LPX.s 			page 10


 324              		.cfi_endproc
 325              	.LFE34:
 326              		.size	WWDG_Enable, .-WWDG_Enable
 327              		.align	1
 328              		.global	WWDG_GetFlagStatus
 329              		.syntax unified
 330              		.thumb
 331              		.thumb_func
 332              		.fpu softvfp
 333              		.type	WWDG_GetFlagStatus, %function
 334              	WWDG_GetFlagStatus:
 335              	.LFB35:
 191:../../source/src/FWlib/src/stm32f10x_wwdg.c **** 
 192:../../source/src/FWlib/src/stm32f10x_wwdg.c **** /**
 193:../../source/src/FWlib/src/stm32f10x_wwdg.c ****   * @brief  Checks whether the Early Wakeup interrupt flag is set or not.
 194:../../source/src/FWlib/src/stm32f10x_wwdg.c ****   * @param  None
 195:../../source/src/FWlib/src/stm32f10x_wwdg.c ****   * @retval The new state of the Early Wakeup interrupt flag (SET or RESET)
 196:../../source/src/FWlib/src/stm32f10x_wwdg.c ****   */
 197:../../source/src/FWlib/src/stm32f10x_wwdg.c **** FlagStatus WWDG_GetFlagStatus(void)
 198:../../source/src/FWlib/src/stm32f10x_wwdg.c **** {
 336              		.loc 1 198 0
 337              		.cfi_startproc
 338              		@ args = 0, pretend = 0, frame = 0
 339              		@ frame_needed = 1, uses_anonymous_args = 0
 340              		@ link register save eliminated.
 341 00e8 80B4     		push	{r7}
 342              	.LCFI30:
 343              		.cfi_def_cfa_offset 4
 344              		.cfi_offset 7, -4
 345 00ea 00AF     		add	r7, sp, #0
 346              	.LCFI31:
 347              		.cfi_def_cfa_register 7
 199:../../source/src/FWlib/src/stm32f10x_wwdg.c ****   return (FlagStatus)(WWDG->SR);
 348              		.loc 1 199 0
 349 00ec 034B     		ldr	r3, .L19
 350 00ee 9B68     		ldr	r3, [r3, #8]
 351 00f0 DBB2     		uxtb	r3, r3
 200:../../source/src/FWlib/src/stm32f10x_wwdg.c **** }
 352              		.loc 1 200 0
 353 00f2 1846     		mov	r0, r3
 354 00f4 BD46     		mov	sp, r7
 355              	.LCFI32:
 356              		.cfi_def_cfa_register 13
 357              		@ sp needed
 358 00f6 80BC     		pop	{r7}
 359              	.LCFI33:
 360              		.cfi_restore 7
 361              		.cfi_def_cfa_offset 0
 362 00f8 7047     		bx	lr
 363              	.L20:
 364 00fa 00BF     		.align	2
 365              	.L19:
 366 00fc 002C0040 		.word	1073753088
 367              		.cfi_endproc
 368              	.LFE35:
 369              		.size	WWDG_GetFlagStatus, .-WWDG_GetFlagStatus
 370              		.align	1
ARM GAS  G:\Users\Jaxb\AppData\Local\Temp\cc0t8LPX.s 			page 11


 371              		.global	WWDG_ClearFlag
 372              		.syntax unified
 373              		.thumb
 374              		.thumb_func
 375              		.fpu softvfp
 376              		.type	WWDG_ClearFlag, %function
 377              	WWDG_ClearFlag:
 378              	.LFB36:
 201:../../source/src/FWlib/src/stm32f10x_wwdg.c **** 
 202:../../source/src/FWlib/src/stm32f10x_wwdg.c **** /**
 203:../../source/src/FWlib/src/stm32f10x_wwdg.c ****   * @brief  Clears Early Wakeup interrupt flag.
 204:../../source/src/FWlib/src/stm32f10x_wwdg.c ****   * @param  None
 205:../../source/src/FWlib/src/stm32f10x_wwdg.c ****   * @retval None
 206:../../source/src/FWlib/src/stm32f10x_wwdg.c ****   */
 207:../../source/src/FWlib/src/stm32f10x_wwdg.c **** void WWDG_ClearFlag(void)
 208:../../source/src/FWlib/src/stm32f10x_wwdg.c **** {
 379              		.loc 1 208 0
 380              		.cfi_startproc
 381              		@ args = 0, pretend = 0, frame = 0
 382              		@ frame_needed = 1, uses_anonymous_args = 0
 383              		@ link register save eliminated.
 384 0100 80B4     		push	{r7}
 385              	.LCFI34:
 386              		.cfi_def_cfa_offset 4
 387              		.cfi_offset 7, -4
 388 0102 00AF     		add	r7, sp, #0
 389              	.LCFI35:
 390              		.cfi_def_cfa_register 7
 209:../../source/src/FWlib/src/stm32f10x_wwdg.c ****   WWDG->SR = (uint32_t)RESET;
 391              		.loc 1 209 0
 392 0104 034B     		ldr	r3, .L22
 393 0106 0022     		movs	r2, #0
 394 0108 9A60     		str	r2, [r3, #8]
 210:../../source/src/FWlib/src/stm32f10x_wwdg.c **** }
 395              		.loc 1 210 0
 396 010a 00BF     		nop
 397 010c BD46     		mov	sp, r7
 398              	.LCFI36:
 399              		.cfi_def_cfa_register 13
 400              		@ sp needed
 401 010e 80BC     		pop	{r7}
 402              	.LCFI37:
 403              		.cfi_restore 7
 404              		.cfi_def_cfa_offset 0
 405 0110 7047     		bx	lr
 406              	.L23:
 407 0112 00BF     		.align	2
 408              	.L22:
 409 0114 002C0040 		.word	1073753088
 410              		.cfi_endproc
 411              	.LFE36:
 412              		.size	WWDG_ClearFlag, .-WWDG_ClearFlag
 413              	.Letext0:
 414              		.file 2 "f:\\arm\\gcc2018\\arm-none-eabi\\include\\machine\\_default_types.h"
 415              		.file 3 "f:\\arm\\gcc2018\\arm-none-eabi\\include\\sys\\_stdint.h"
 416              		.file 4 "../../source/include/os_cpu/core_cm3.h"
 417              		.file 5 "../../source/include/os_cpu/system_stm32f10x.h"
ARM GAS  G:\Users\Jaxb\AppData\Local\Temp\cc0t8LPX.s 			page 12


 418              		.file 6 "../../source/include/os_cpu/stm32f10x.h"
 419              		.section	.debug_info,"",%progbits
 420              	.Ldebug_info0:
 421 0000 58020000 		.4byte	0x258
 422 0004 0200     		.2byte	0x2
 423 0006 00000000 		.4byte	.Ldebug_abbrev0
 424 000a 04       		.byte	0x4
 425 000b 01       		.uleb128 0x1
 426 000c C0010000 		.4byte	.LASF31
 427 0010 0C       		.byte	0xc
 428 0011 6B010000 		.4byte	.LASF32
 429 0015 6E020000 		.4byte	.LASF33
 430 0019 00000000 		.4byte	.Ltext0
 431 001d 18010000 		.4byte	.Letext0
 432 0021 00000000 		.4byte	.Ldebug_line0
 433 0025 02       		.uleb128 0x2
 434 0026 01       		.byte	0x1
 435 0027 06       		.byte	0x6
 436 0028 51000000 		.4byte	.LASF0
 437 002c 03       		.uleb128 0x3
 438 002d 00000000 		.4byte	.LASF5
 439 0031 02       		.byte	0x2
 440 0032 2B       		.byte	0x2b
 441 0033 37000000 		.4byte	0x37
 442 0037 02       		.uleb128 0x2
 443 0038 01       		.byte	0x1
 444 0039 08       		.byte	0x8
 445 003a AE000000 		.4byte	.LASF1
 446 003e 02       		.uleb128 0x2
 447 003f 02       		.byte	0x2
 448 0040 05       		.byte	0x5
 449 0041 4B010000 		.4byte	.LASF2
 450 0045 02       		.uleb128 0x2
 451 0046 02       		.byte	0x2
 452 0047 07       		.byte	0x7
 453 0048 13000000 		.4byte	.LASF3
 454 004c 02       		.uleb128 0x2
 455 004d 04       		.byte	0x4
 456 004e 05       		.byte	0x5
 457 004f 0A000000 		.4byte	.LASF4
 458 0053 03       		.uleb128 0x3
 459 0054 3F000000 		.4byte	.LASF6
 460 0058 02       		.byte	0x2
 461 0059 4F       		.byte	0x4f
 462 005a 5E000000 		.4byte	0x5e
 463 005e 02       		.uleb128 0x2
 464 005f 04       		.byte	0x4
 465 0060 07       		.byte	0x7
 466 0061 89000000 		.4byte	.LASF7
 467 0065 02       		.uleb128 0x2
 468 0066 08       		.byte	0x8
 469 0067 05       		.byte	0x5
 470 0068 2D010000 		.4byte	.LASF8
 471 006c 02       		.uleb128 0x2
 472 006d 08       		.byte	0x8
 473 006e 07       		.byte	0x7
 474 006f DD000000 		.4byte	.LASF9
ARM GAS  G:\Users\Jaxb\AppData\Local\Temp\cc0t8LPX.s 			page 13


 475 0073 04       		.uleb128 0x4
 476 0074 04       		.byte	0x4
 477 0075 05       		.byte	0x5
 478 0076 696E7400 		.ascii	"int\000"
 479 007a 05       		.uleb128 0x5
 480 007b 73000000 		.4byte	0x73
 481 007f 02       		.uleb128 0x2
 482 0080 04       		.byte	0x4
 483 0081 07       		.byte	0x7
 484 0082 D0000000 		.4byte	.LASF10
 485 0086 03       		.uleb128 0x3
 486 0087 F4000000 		.4byte	.LASF11
 487 008b 03       		.byte	0x3
 488 008c 18       		.byte	0x18
 489 008d 2C000000 		.4byte	0x2c
 490 0091 03       		.uleb128 0x3
 491 0092 B7010000 		.4byte	.LASF12
 492 0096 03       		.byte	0x3
 493 0097 30       		.byte	0x30
 494 0098 53000000 		.4byte	0x53
 495 009c 05       		.uleb128 0x5
 496 009d 91000000 		.4byte	0x91
 497 00a1 06       		.uleb128 0x6
 498 00a2 A1000000 		.4byte	.LASF13
 499 00a6 04       		.byte	0x4
 500 00a7 CE06     		.2byte	0x6ce
 501 00a9 7A000000 		.4byte	0x7a
 502 00ad 01       		.byte	0x1
 503 00ae 01       		.byte	0x1
 504 00af 07       		.uleb128 0x7
 505 00b0 3B010000 		.4byte	.LASF14
 506 00b4 05       		.byte	0x5
 507 00b5 35       		.byte	0x35
 508 00b6 91000000 		.4byte	0x91
 509 00ba 01       		.byte	0x1
 510 00bb 01       		.byte	0x1
 511 00bc 08       		.uleb128 0x8
 512 00bd 07       		.byte	0x7
 513 00be 01       		.byte	0x1
 514 00bf 37000000 		.4byte	0x37
 515 00c3 06       		.byte	0x6
 516 00c4 0702     		.2byte	0x207
 517 00c6 D7000000 		.4byte	0xd7
 518 00ca 09       		.uleb128 0x9
 519 00cb 9B000000 		.4byte	.LASF15
 520 00cf 00       		.byte	0
 521 00d0 0A       		.uleb128 0xa
 522 00d1 53455400 		.ascii	"SET\000"
 523 00d5 01       		.byte	0x1
 524 00d6 00       		.byte	0
 525 00d7 0B       		.uleb128 0xb
 526 00d8 6B000000 		.4byte	.LASF16
 527 00dc 06       		.byte	0x6
 528 00dd 0702     		.2byte	0x207
 529 00df BC000000 		.4byte	0xbc
 530 00e3 08       		.uleb128 0x8
 531 00e4 07       		.byte	0x7
ARM GAS  G:\Users\Jaxb\AppData\Local\Temp\cc0t8LPX.s 			page 14


 532 00e5 01       		.byte	0x1
 533 00e6 37000000 		.4byte	0x37
 534 00ea 06       		.byte	0x6
 535 00eb 0902     		.2byte	0x209
 536 00ed FE000000 		.4byte	0xfe
 537 00f1 09       		.uleb128 0x9
 538 00f2 66020000 		.4byte	.LASF17
 539 00f6 00       		.byte	0
 540 00f7 09       		.uleb128 0x9
 541 00f8 4A000000 		.4byte	.LASF18
 542 00fc 01       		.byte	0x1
 543 00fd 00       		.byte	0
 544 00fe 0C       		.uleb128 0xc
 545 00ff 0C       		.byte	0xc
 546 0100 06       		.byte	0x6
 547 0101 E804     		.2byte	0x4e8
 548 0103 33010000 		.4byte	0x133
 549 0107 0D       		.uleb128 0xd
 550 0108 435200   		.ascii	"CR\000"
 551 010b 06       		.byte	0x6
 552 010c EA04     		.2byte	0x4ea
 553 010e 9C000000 		.4byte	0x9c
 554 0112 02       		.byte	0x2
 555 0113 23       		.byte	0x23
 556 0114 00       		.uleb128 0
 557 0115 0D       		.uleb128 0xd
 558 0116 43465200 		.ascii	"CFR\000"
 559 011a 06       		.byte	0x6
 560 011b EB04     		.2byte	0x4eb
 561 011d 9C000000 		.4byte	0x9c
 562 0121 02       		.byte	0x2
 563 0122 23       		.byte	0x23
 564 0123 04       		.uleb128 0x4
 565 0124 0D       		.uleb128 0xd
 566 0125 535200   		.ascii	"SR\000"
 567 0128 06       		.byte	0x6
 568 0129 EC04     		.2byte	0x4ec
 569 012b 9C000000 		.4byte	0x9c
 570 012f 02       		.byte	0x2
 571 0130 23       		.byte	0x23
 572 0131 08       		.uleb128 0x8
 573 0132 00       		.byte	0
 574 0133 0B       		.uleb128 0xb
 575 0134 26000000 		.4byte	.LASF19
 576 0138 06       		.byte	0x6
 577 0139 ED04     		.2byte	0x4ed
 578 013b FE000000 		.4byte	0xfe
 579 013f 0E       		.uleb128 0xe
 580 0140 01       		.byte	0x1
 581 0141 5C010000 		.4byte	.LASF23
 582 0145 01       		.byte	0x1
 583 0146 CF       		.byte	0xcf
 584 0147 01       		.byte	0x1
 585 0148 00010000 		.4byte	.LFB36
 586 014c 18010000 		.4byte	.LFE36
 587 0150 00000000 		.4byte	.LLST7
 588 0154 01       		.byte	0x1
ARM GAS  G:\Users\Jaxb\AppData\Local\Temp\cc0t8LPX.s 			page 15


 589 0155 0F       		.uleb128 0xf
 590 0156 01       		.byte	0x1
 591 0157 76000000 		.4byte	.LASF34
 592 015b 01       		.byte	0x1
 593 015c C5       		.byte	0xc5
 594 015d 01       		.byte	0x1
 595 015e D7000000 		.4byte	0xd7
 596 0162 E8000000 		.4byte	.LFB35
 597 0166 00010000 		.4byte	.LFE35
 598 016a 44000000 		.4byte	.LLST6
 599 016e 01       		.byte	0x1
 600 016f 10       		.uleb128 0x10
 601 0170 01       		.byte	0x1
 602 0171 33000000 		.4byte	.LASF20
 603 0175 01       		.byte	0x1
 604 0176 B9       		.byte	0xb9
 605 0177 01       		.byte	0x1
 606 0178 C4000000 		.4byte	.LFB34
 607 017c E8000000 		.4byte	.LFE34
 608 0180 88000000 		.4byte	.LLST5
 609 0184 01       		.byte	0x1
 610 0185 98010000 		.4byte	0x198
 611 0189 11       		.uleb128 0x11
 612 018a C8000000 		.4byte	.LASF22
 613 018e 01       		.byte	0x1
 614 018f B9       		.byte	0xb9
 615 0190 86000000 		.4byte	0x86
 616 0194 02       		.byte	0x2
 617 0195 91       		.byte	0x91
 618 0196 77       		.sleb128 -9
 619 0197 00       		.byte	0
 620 0198 10       		.uleb128 0x10
 621 0199 01       		.byte	0x1
 622 019a 0E010000 		.4byte	.LASF21
 623 019e 01       		.byte	0x1
 624 019f AA       		.byte	0xaa
 625 01a0 01       		.byte	0x1
 626 01a1 A0000000 		.4byte	.LFB33
 627 01a5 C4000000 		.4byte	.LFE33
 628 01a9 E4000000 		.4byte	.LLST4
 629 01ad 01       		.byte	0x1
 630 01ae C1010000 		.4byte	0x1c1
 631 01b2 11       		.uleb128 0x11
 632 01b3 C8000000 		.4byte	.LASF22
 633 01b7 01       		.byte	0x1
 634 01b8 AA       		.byte	0xaa
 635 01b9 86000000 		.4byte	0x86
 636 01bd 02       		.byte	0x2
 637 01be 91       		.byte	0x91
 638 01bf 77       		.sleb128 -9
 639 01c0 00       		.byte	0
 640 01c1 0E       		.uleb128 0xe
 641 01c2 01       		.byte	0x1
 642 01c3 5D000000 		.4byte	.LASF24
 643 01c7 01       		.byte	0x1
 644 01c8 9F       		.byte	0x9f
 645 01c9 01       		.byte	0x1
ARM GAS  G:\Users\Jaxb\AppData\Local\Temp\cc0t8LPX.s 			page 16


 646 01ca 88000000 		.4byte	.LFB32
 647 01ce A0000000 		.4byte	.LFE32
 648 01d2 40010000 		.4byte	.LLST3
 649 01d6 01       		.byte	0x1
 650 01d7 10       		.uleb128 0x10
 651 01d8 01       		.byte	0x1
 652 01d9 97010000 		.4byte	.LASF25
 653 01dd 01       		.byte	0x1
 654 01de 89       		.byte	0x89
 655 01df 01       		.byte	0x1
 656 01e0 50000000 		.4byte	.LFB31
 657 01e4 88000000 		.4byte	.LFE31
 658 01e8 84010000 		.4byte	.LLST2
 659 01ec 01       		.byte	0x1
 660 01ed 0E020000 		.4byte	0x20e
 661 01f1 11       		.uleb128 0x11
 662 01f2 BC000000 		.4byte	.LASF26
 663 01f6 01       		.byte	0x1
 664 01f7 89       		.byte	0x89
 665 01f8 86000000 		.4byte	0x86
 666 01fc 02       		.byte	0x2
 667 01fd 91       		.byte	0x91
 668 01fe 6F       		.sleb128 -17
 669 01ff 12       		.uleb128 0x12
 670 0200 55010000 		.4byte	.LASF29
 671 0204 01       		.byte	0x1
 672 0205 8B       		.byte	0x8b
 673 0206 9C000000 		.4byte	0x9c
 674 020a 02       		.byte	0x2
 675 020b 91       		.byte	0x91
 676 020c 74       		.sleb128 -12
 677 020d 00       		.byte	0
 678 020e 10       		.uleb128 0x10
 679 020f 01       		.byte	0x1
 680 0210 FC000000 		.4byte	.LASF27
 681 0214 01       		.byte	0x1
 682 0215 76       		.byte	0x76
 683 0216 01       		.byte	0x1
 684 0217 1C000000 		.4byte	.LFB30
 685 021b 50000000 		.4byte	.LFE30
 686 021f E0010000 		.4byte	.LLST1
 687 0223 01       		.byte	0x1
 688 0224 45020000 		.4byte	0x245
 689 0228 11       		.uleb128 0x11
 690 0229 1E010000 		.4byte	.LASF28
 691 022d 01       		.byte	0x1
 692 022e 76       		.byte	0x76
 693 022f 91000000 		.4byte	0x91
 694 0233 02       		.byte	0x2
 695 0234 91       		.byte	0x91
 696 0235 6C       		.sleb128 -20
 697 0236 12       		.uleb128 0x12
 698 0237 55010000 		.4byte	.LASF29
 699 023b 01       		.byte	0x1
 700 023c 78       		.byte	0x78
 701 023d 91000000 		.4byte	0x91
 702 0241 02       		.byte	0x2
ARM GAS  G:\Users\Jaxb\AppData\Local\Temp\cc0t8LPX.s 			page 17


 703 0242 91       		.byte	0x91
 704 0243 74       		.sleb128 -12
 705 0244 00       		.byte	0
 706 0245 13       		.uleb128 0x13
 707 0246 01       		.byte	0x1
 708 0247 AB010000 		.4byte	.LASF30
 709 024b 01       		.byte	0x1
 710 024c 66       		.byte	0x66
 711 024d 01       		.byte	0x1
 712 024e 00000000 		.4byte	.LFB29
 713 0252 1C000000 		.4byte	.LFE29
 714 0256 3C020000 		.4byte	.LLST0
 715 025a 01       		.byte	0x1
 716 025b 00       		.byte	0
 717              		.section	.debug_abbrev,"",%progbits
 718              	.Ldebug_abbrev0:
 719 0000 01       		.uleb128 0x1
 720 0001 11       		.uleb128 0x11
 721 0002 01       		.byte	0x1
 722 0003 25       		.uleb128 0x25
 723 0004 0E       		.uleb128 0xe
 724 0005 13       		.uleb128 0x13
 725 0006 0B       		.uleb128 0xb
 726 0007 03       		.uleb128 0x3
 727 0008 0E       		.uleb128 0xe
 728 0009 1B       		.uleb128 0x1b
 729 000a 0E       		.uleb128 0xe
 730 000b 11       		.uleb128 0x11
 731 000c 01       		.uleb128 0x1
 732 000d 12       		.uleb128 0x12
 733 000e 01       		.uleb128 0x1
 734 000f 10       		.uleb128 0x10
 735 0010 06       		.uleb128 0x6
 736 0011 00       		.byte	0
 737 0012 00       		.byte	0
 738 0013 02       		.uleb128 0x2
 739 0014 24       		.uleb128 0x24
 740 0015 00       		.byte	0
 741 0016 0B       		.uleb128 0xb
 742 0017 0B       		.uleb128 0xb
 743 0018 3E       		.uleb128 0x3e
 744 0019 0B       		.uleb128 0xb
 745 001a 03       		.uleb128 0x3
 746 001b 0E       		.uleb128 0xe
 747 001c 00       		.byte	0
 748 001d 00       		.byte	0
 749 001e 03       		.uleb128 0x3
 750 001f 16       		.uleb128 0x16
 751 0020 00       		.byte	0
 752 0021 03       		.uleb128 0x3
 753 0022 0E       		.uleb128 0xe
 754 0023 3A       		.uleb128 0x3a
 755 0024 0B       		.uleb128 0xb
 756 0025 3B       		.uleb128 0x3b
 757 0026 0B       		.uleb128 0xb
 758 0027 49       		.uleb128 0x49
 759 0028 13       		.uleb128 0x13
ARM GAS  G:\Users\Jaxb\AppData\Local\Temp\cc0t8LPX.s 			page 18


 760 0029 00       		.byte	0
 761 002a 00       		.byte	0
 762 002b 04       		.uleb128 0x4
 763 002c 24       		.uleb128 0x24
 764 002d 00       		.byte	0
 765 002e 0B       		.uleb128 0xb
 766 002f 0B       		.uleb128 0xb
 767 0030 3E       		.uleb128 0x3e
 768 0031 0B       		.uleb128 0xb
 769 0032 03       		.uleb128 0x3
 770 0033 08       		.uleb128 0x8
 771 0034 00       		.byte	0
 772 0035 00       		.byte	0
 773 0036 05       		.uleb128 0x5
 774 0037 35       		.uleb128 0x35
 775 0038 00       		.byte	0
 776 0039 49       		.uleb128 0x49
 777 003a 13       		.uleb128 0x13
 778 003b 00       		.byte	0
 779 003c 00       		.byte	0
 780 003d 06       		.uleb128 0x6
 781 003e 34       		.uleb128 0x34
 782 003f 00       		.byte	0
 783 0040 03       		.uleb128 0x3
 784 0041 0E       		.uleb128 0xe
 785 0042 3A       		.uleb128 0x3a
 786 0043 0B       		.uleb128 0xb
 787 0044 3B       		.uleb128 0x3b
 788 0045 05       		.uleb128 0x5
 789 0046 49       		.uleb128 0x49
 790 0047 13       		.uleb128 0x13
 791 0048 3F       		.uleb128 0x3f
 792 0049 0C       		.uleb128 0xc
 793 004a 3C       		.uleb128 0x3c
 794 004b 0C       		.uleb128 0xc
 795 004c 00       		.byte	0
 796 004d 00       		.byte	0
 797 004e 07       		.uleb128 0x7
 798 004f 34       		.uleb128 0x34
 799 0050 00       		.byte	0
 800 0051 03       		.uleb128 0x3
 801 0052 0E       		.uleb128 0xe
 802 0053 3A       		.uleb128 0x3a
 803 0054 0B       		.uleb128 0xb
 804 0055 3B       		.uleb128 0x3b
 805 0056 0B       		.uleb128 0xb
 806 0057 49       		.uleb128 0x49
 807 0058 13       		.uleb128 0x13
 808 0059 3F       		.uleb128 0x3f
 809 005a 0C       		.uleb128 0xc
 810 005b 3C       		.uleb128 0x3c
 811 005c 0C       		.uleb128 0xc
 812 005d 00       		.byte	0
 813 005e 00       		.byte	0
 814 005f 08       		.uleb128 0x8
 815 0060 04       		.uleb128 0x4
 816 0061 01       		.byte	0x1
ARM GAS  G:\Users\Jaxb\AppData\Local\Temp\cc0t8LPX.s 			page 19


 817 0062 3E       		.uleb128 0x3e
 818 0063 0B       		.uleb128 0xb
 819 0064 0B       		.uleb128 0xb
 820 0065 0B       		.uleb128 0xb
 821 0066 49       		.uleb128 0x49
 822 0067 13       		.uleb128 0x13
 823 0068 3A       		.uleb128 0x3a
 824 0069 0B       		.uleb128 0xb
 825 006a 3B       		.uleb128 0x3b
 826 006b 05       		.uleb128 0x5
 827 006c 01       		.uleb128 0x1
 828 006d 13       		.uleb128 0x13
 829 006e 00       		.byte	0
 830 006f 00       		.byte	0
 831 0070 09       		.uleb128 0x9
 832 0071 28       		.uleb128 0x28
 833 0072 00       		.byte	0
 834 0073 03       		.uleb128 0x3
 835 0074 0E       		.uleb128 0xe
 836 0075 1C       		.uleb128 0x1c
 837 0076 0B       		.uleb128 0xb
 838 0077 00       		.byte	0
 839 0078 00       		.byte	0
 840 0079 0A       		.uleb128 0xa
 841 007a 28       		.uleb128 0x28
 842 007b 00       		.byte	0
 843 007c 03       		.uleb128 0x3
 844 007d 08       		.uleb128 0x8
 845 007e 1C       		.uleb128 0x1c
 846 007f 0B       		.uleb128 0xb
 847 0080 00       		.byte	0
 848 0081 00       		.byte	0
 849 0082 0B       		.uleb128 0xb
 850 0083 16       		.uleb128 0x16
 851 0084 00       		.byte	0
 852 0085 03       		.uleb128 0x3
 853 0086 0E       		.uleb128 0xe
 854 0087 3A       		.uleb128 0x3a
 855 0088 0B       		.uleb128 0xb
 856 0089 3B       		.uleb128 0x3b
 857 008a 05       		.uleb128 0x5
 858 008b 49       		.uleb128 0x49
 859 008c 13       		.uleb128 0x13
 860 008d 00       		.byte	0
 861 008e 00       		.byte	0
 862 008f 0C       		.uleb128 0xc
 863 0090 13       		.uleb128 0x13
 864 0091 01       		.byte	0x1
 865 0092 0B       		.uleb128 0xb
 866 0093 0B       		.uleb128 0xb
 867 0094 3A       		.uleb128 0x3a
 868 0095 0B       		.uleb128 0xb
 869 0096 3B       		.uleb128 0x3b
 870 0097 05       		.uleb128 0x5
 871 0098 01       		.uleb128 0x1
 872 0099 13       		.uleb128 0x13
 873 009a 00       		.byte	0
ARM GAS  G:\Users\Jaxb\AppData\Local\Temp\cc0t8LPX.s 			page 20


 874 009b 00       		.byte	0
 875 009c 0D       		.uleb128 0xd
 876 009d 0D       		.uleb128 0xd
 877 009e 00       		.byte	0
 878 009f 03       		.uleb128 0x3
 879 00a0 08       		.uleb128 0x8
 880 00a1 3A       		.uleb128 0x3a
 881 00a2 0B       		.uleb128 0xb
 882 00a3 3B       		.uleb128 0x3b
 883 00a4 05       		.uleb128 0x5
 884 00a5 49       		.uleb128 0x49
 885 00a6 13       		.uleb128 0x13
 886 00a7 38       		.uleb128 0x38
 887 00a8 0A       		.uleb128 0xa
 888 00a9 00       		.byte	0
 889 00aa 00       		.byte	0
 890 00ab 0E       		.uleb128 0xe
 891 00ac 2E       		.uleb128 0x2e
 892 00ad 00       		.byte	0
 893 00ae 3F       		.uleb128 0x3f
 894 00af 0C       		.uleb128 0xc
 895 00b0 03       		.uleb128 0x3
 896 00b1 0E       		.uleb128 0xe
 897 00b2 3A       		.uleb128 0x3a
 898 00b3 0B       		.uleb128 0xb
 899 00b4 3B       		.uleb128 0x3b
 900 00b5 0B       		.uleb128 0xb
 901 00b6 27       		.uleb128 0x27
 902 00b7 0C       		.uleb128 0xc
 903 00b8 11       		.uleb128 0x11
 904 00b9 01       		.uleb128 0x1
 905 00ba 12       		.uleb128 0x12
 906 00bb 01       		.uleb128 0x1
 907 00bc 40       		.uleb128 0x40
 908 00bd 06       		.uleb128 0x6
 909 00be 9742     		.uleb128 0x2117
 910 00c0 0C       		.uleb128 0xc
 911 00c1 00       		.byte	0
 912 00c2 00       		.byte	0
 913 00c3 0F       		.uleb128 0xf
 914 00c4 2E       		.uleb128 0x2e
 915 00c5 00       		.byte	0
 916 00c6 3F       		.uleb128 0x3f
 917 00c7 0C       		.uleb128 0xc
 918 00c8 03       		.uleb128 0x3
 919 00c9 0E       		.uleb128 0xe
 920 00ca 3A       		.uleb128 0x3a
 921 00cb 0B       		.uleb128 0xb
 922 00cc 3B       		.uleb128 0x3b
 923 00cd 0B       		.uleb128 0xb
 924 00ce 27       		.uleb128 0x27
 925 00cf 0C       		.uleb128 0xc
 926 00d0 49       		.uleb128 0x49
 927 00d1 13       		.uleb128 0x13
 928 00d2 11       		.uleb128 0x11
 929 00d3 01       		.uleb128 0x1
 930 00d4 12       		.uleb128 0x12
ARM GAS  G:\Users\Jaxb\AppData\Local\Temp\cc0t8LPX.s 			page 21


 931 00d5 01       		.uleb128 0x1
 932 00d6 40       		.uleb128 0x40
 933 00d7 06       		.uleb128 0x6
 934 00d8 9742     		.uleb128 0x2117
 935 00da 0C       		.uleb128 0xc
 936 00db 00       		.byte	0
 937 00dc 00       		.byte	0
 938 00dd 10       		.uleb128 0x10
 939 00de 2E       		.uleb128 0x2e
 940 00df 01       		.byte	0x1
 941 00e0 3F       		.uleb128 0x3f
 942 00e1 0C       		.uleb128 0xc
 943 00e2 03       		.uleb128 0x3
 944 00e3 0E       		.uleb128 0xe
 945 00e4 3A       		.uleb128 0x3a
 946 00e5 0B       		.uleb128 0xb
 947 00e6 3B       		.uleb128 0x3b
 948 00e7 0B       		.uleb128 0xb
 949 00e8 27       		.uleb128 0x27
 950 00e9 0C       		.uleb128 0xc
 951 00ea 11       		.uleb128 0x11
 952 00eb 01       		.uleb128 0x1
 953 00ec 12       		.uleb128 0x12
 954 00ed 01       		.uleb128 0x1
 955 00ee 40       		.uleb128 0x40
 956 00ef 06       		.uleb128 0x6
 957 00f0 9742     		.uleb128 0x2117
 958 00f2 0C       		.uleb128 0xc
 959 00f3 01       		.uleb128 0x1
 960 00f4 13       		.uleb128 0x13
 961 00f5 00       		.byte	0
 962 00f6 00       		.byte	0
 963 00f7 11       		.uleb128 0x11
 964 00f8 05       		.uleb128 0x5
 965 00f9 00       		.byte	0
 966 00fa 03       		.uleb128 0x3
 967 00fb 0E       		.uleb128 0xe
 968 00fc 3A       		.uleb128 0x3a
 969 00fd 0B       		.uleb128 0xb
 970 00fe 3B       		.uleb128 0x3b
 971 00ff 0B       		.uleb128 0xb
 972 0100 49       		.uleb128 0x49
 973 0101 13       		.uleb128 0x13
 974 0102 02       		.uleb128 0x2
 975 0103 0A       		.uleb128 0xa
 976 0104 00       		.byte	0
 977 0105 00       		.byte	0
 978 0106 12       		.uleb128 0x12
 979 0107 34       		.uleb128 0x34
 980 0108 00       		.byte	0
 981 0109 03       		.uleb128 0x3
 982 010a 0E       		.uleb128 0xe
 983 010b 3A       		.uleb128 0x3a
 984 010c 0B       		.uleb128 0xb
 985 010d 3B       		.uleb128 0x3b
 986 010e 0B       		.uleb128 0xb
 987 010f 49       		.uleb128 0x49
ARM GAS  G:\Users\Jaxb\AppData\Local\Temp\cc0t8LPX.s 			page 22


 988 0110 13       		.uleb128 0x13
 989 0111 02       		.uleb128 0x2
 990 0112 0A       		.uleb128 0xa
 991 0113 00       		.byte	0
 992 0114 00       		.byte	0
 993 0115 13       		.uleb128 0x13
 994 0116 2E       		.uleb128 0x2e
 995 0117 00       		.byte	0
 996 0118 3F       		.uleb128 0x3f
 997 0119 0C       		.uleb128 0xc
 998 011a 03       		.uleb128 0x3
 999 011b 0E       		.uleb128 0xe
 1000 011c 3A       		.uleb128 0x3a
 1001 011d 0B       		.uleb128 0xb
 1002 011e 3B       		.uleb128 0x3b
 1003 011f 0B       		.uleb128 0xb
 1004 0120 27       		.uleb128 0x27
 1005 0121 0C       		.uleb128 0xc
 1006 0122 11       		.uleb128 0x11
 1007 0123 01       		.uleb128 0x1
 1008 0124 12       		.uleb128 0x12
 1009 0125 01       		.uleb128 0x1
 1010 0126 40       		.uleb128 0x40
 1011 0127 06       		.uleb128 0x6
 1012 0128 9642     		.uleb128 0x2116
 1013 012a 0C       		.uleb128 0xc
 1014 012b 00       		.byte	0
 1015 012c 00       		.byte	0
 1016 012d 00       		.byte	0
 1017              		.section	.debug_loc,"",%progbits
 1018              	.Ldebug_loc0:
 1019              	.LLST7:
 1020 0000 00010000 		.4byte	.LFB36-.Ltext0
 1021 0004 02010000 		.4byte	.LCFI34-.Ltext0
 1022 0008 0200     		.2byte	0x2
 1023 000a 7D       		.byte	0x7d
 1024 000b 00       		.sleb128 0
 1025 000c 02010000 		.4byte	.LCFI34-.Ltext0
 1026 0010 04010000 		.4byte	.LCFI35-.Ltext0
 1027 0014 0200     		.2byte	0x2
 1028 0016 7D       		.byte	0x7d
 1029 0017 04       		.sleb128 4
 1030 0018 04010000 		.4byte	.LCFI35-.Ltext0
 1031 001c 0E010000 		.4byte	.LCFI36-.Ltext0
 1032 0020 0200     		.2byte	0x2
 1033 0022 77       		.byte	0x77
 1034 0023 04       		.sleb128 4
 1035 0024 0E010000 		.4byte	.LCFI36-.Ltext0
 1036 0028 10010000 		.4byte	.LCFI37-.Ltext0
 1037 002c 0200     		.2byte	0x2
 1038 002e 7D       		.byte	0x7d
 1039 002f 04       		.sleb128 4
 1040 0030 10010000 		.4byte	.LCFI37-.Ltext0
 1041 0034 18010000 		.4byte	.LFE36-.Ltext0
 1042 0038 0200     		.2byte	0x2
 1043 003a 7D       		.byte	0x7d
 1044 003b 00       		.sleb128 0
ARM GAS  G:\Users\Jaxb\AppData\Local\Temp\cc0t8LPX.s 			page 23


 1045 003c 00000000 		.4byte	0
 1046 0040 00000000 		.4byte	0
 1047              	.LLST6:
 1048 0044 E8000000 		.4byte	.LFB35-.Ltext0
 1049 0048 EA000000 		.4byte	.LCFI30-.Ltext0
 1050 004c 0200     		.2byte	0x2
 1051 004e 7D       		.byte	0x7d
 1052 004f 00       		.sleb128 0
 1053 0050 EA000000 		.4byte	.LCFI30-.Ltext0
 1054 0054 EC000000 		.4byte	.LCFI31-.Ltext0
 1055 0058 0200     		.2byte	0x2
 1056 005a 7D       		.byte	0x7d
 1057 005b 04       		.sleb128 4
 1058 005c EC000000 		.4byte	.LCFI31-.Ltext0
 1059 0060 F6000000 		.4byte	.LCFI32-.Ltext0
 1060 0064 0200     		.2byte	0x2
 1061 0066 77       		.byte	0x77
 1062 0067 04       		.sleb128 4
 1063 0068 F6000000 		.4byte	.LCFI32-.Ltext0
 1064 006c F8000000 		.4byte	.LCFI33-.Ltext0
 1065 0070 0200     		.2byte	0x2
 1066 0072 7D       		.byte	0x7d
 1067 0073 04       		.sleb128 4
 1068 0074 F8000000 		.4byte	.LCFI33-.Ltext0
 1069 0078 00010000 		.4byte	.LFE35-.Ltext0
 1070 007c 0200     		.2byte	0x2
 1071 007e 7D       		.byte	0x7d
 1072 007f 00       		.sleb128 0
 1073 0080 00000000 		.4byte	0
 1074 0084 00000000 		.4byte	0
 1075              	.LLST5:
 1076 0088 C4000000 		.4byte	.LFB34-.Ltext0
 1077 008c C6000000 		.4byte	.LCFI24-.Ltext0
 1078 0090 0200     		.2byte	0x2
 1079 0092 7D       		.byte	0x7d
 1080 0093 00       		.sleb128 0
 1081 0094 C6000000 		.4byte	.LCFI24-.Ltext0
 1082 0098 C8000000 		.4byte	.LCFI25-.Ltext0
 1083 009c 0200     		.2byte	0x2
 1084 009e 7D       		.byte	0x7d
 1085 009f 04       		.sleb128 4
 1086 00a0 C8000000 		.4byte	.LCFI25-.Ltext0
 1087 00a4 CA000000 		.4byte	.LCFI26-.Ltext0
 1088 00a8 0200     		.2byte	0x2
 1089 00aa 7D       		.byte	0x7d
 1090 00ab 10       		.sleb128 16
 1091 00ac CA000000 		.4byte	.LCFI26-.Ltext0
 1092 00b0 DE000000 		.4byte	.LCFI27-.Ltext0
 1093 00b4 0200     		.2byte	0x2
 1094 00b6 77       		.byte	0x77
 1095 00b7 10       		.sleb128 16
 1096 00b8 DE000000 		.4byte	.LCFI27-.Ltext0
 1097 00bc E0000000 		.4byte	.LCFI28-.Ltext0
 1098 00c0 0200     		.2byte	0x2
 1099 00c2 77       		.byte	0x77
 1100 00c3 04       		.sleb128 4
 1101 00c4 E0000000 		.4byte	.LCFI28-.Ltext0
ARM GAS  G:\Users\Jaxb\AppData\Local\Temp\cc0t8LPX.s 			page 24


 1102 00c8 E2000000 		.4byte	.LCFI29-.Ltext0
 1103 00cc 0200     		.2byte	0x2
 1104 00ce 7D       		.byte	0x7d
 1105 00cf 04       		.sleb128 4
 1106 00d0 E2000000 		.4byte	.LCFI29-.Ltext0
 1107 00d4 E8000000 		.4byte	.LFE34-.Ltext0
 1108 00d8 0200     		.2byte	0x2
 1109 00da 7D       		.byte	0x7d
 1110 00db 00       		.sleb128 0
 1111 00dc 00000000 		.4byte	0
 1112 00e0 00000000 		.4byte	0
 1113              	.LLST4:
 1114 00e4 A0000000 		.4byte	.LFB33-.Ltext0
 1115 00e8 A2000000 		.4byte	.LCFI18-.Ltext0
 1116 00ec 0200     		.2byte	0x2
 1117 00ee 7D       		.byte	0x7d
 1118 00ef 00       		.sleb128 0
 1119 00f0 A2000000 		.4byte	.LCFI18-.Ltext0
 1120 00f4 A4000000 		.4byte	.LCFI19-.Ltext0
 1121 00f8 0200     		.2byte	0x2
 1122 00fa 7D       		.byte	0x7d
 1123 00fb 04       		.sleb128 4
 1124 00fc A4000000 		.4byte	.LCFI19-.Ltext0
 1125 0100 A6000000 		.4byte	.LCFI20-.Ltext0
 1126 0104 0200     		.2byte	0x2
 1127 0106 7D       		.byte	0x7d
 1128 0107 10       		.sleb128 16
 1129 0108 A6000000 		.4byte	.LCFI20-.Ltext0
 1130 010c B8000000 		.4byte	.LCFI21-.Ltext0
 1131 0110 0200     		.2byte	0x2
 1132 0112 77       		.byte	0x77
 1133 0113 10       		.sleb128 16
 1134 0114 B8000000 		.4byte	.LCFI21-.Ltext0
 1135 0118 BA000000 		.4byte	.LCFI22-.Ltext0
 1136 011c 0200     		.2byte	0x2
 1137 011e 77       		.byte	0x77
 1138 011f 04       		.sleb128 4
 1139 0120 BA000000 		.4byte	.LCFI22-.Ltext0
 1140 0124 BC000000 		.4byte	.LCFI23-.Ltext0
 1141 0128 0200     		.2byte	0x2
 1142 012a 7D       		.byte	0x7d
 1143 012b 04       		.sleb128 4
 1144 012c BC000000 		.4byte	.LCFI23-.Ltext0
 1145 0130 C4000000 		.4byte	.LFE33-.Ltext0
 1146 0134 0200     		.2byte	0x2
 1147 0136 7D       		.byte	0x7d
 1148 0137 00       		.sleb128 0
 1149 0138 00000000 		.4byte	0
 1150 013c 00000000 		.4byte	0
 1151              	.LLST3:
 1152 0140 88000000 		.4byte	.LFB32-.Ltext0
 1153 0144 8A000000 		.4byte	.LCFI14-.Ltext0
 1154 0148 0200     		.2byte	0x2
 1155 014a 7D       		.byte	0x7d
 1156 014b 00       		.sleb128 0
 1157 014c 8A000000 		.4byte	.LCFI14-.Ltext0
 1158 0150 8C000000 		.4byte	.LCFI15-.Ltext0
ARM GAS  G:\Users\Jaxb\AppData\Local\Temp\cc0t8LPX.s 			page 25


 1159 0154 0200     		.2byte	0x2
 1160 0156 7D       		.byte	0x7d
 1161 0157 04       		.sleb128 4
 1162 0158 8C000000 		.4byte	.LCFI15-.Ltext0
 1163 015c 96000000 		.4byte	.LCFI16-.Ltext0
 1164 0160 0200     		.2byte	0x2
 1165 0162 77       		.byte	0x77
 1166 0163 04       		.sleb128 4
 1167 0164 96000000 		.4byte	.LCFI16-.Ltext0
 1168 0168 98000000 		.4byte	.LCFI17-.Ltext0
 1169 016c 0200     		.2byte	0x2
 1170 016e 7D       		.byte	0x7d
 1171 016f 04       		.sleb128 4
 1172 0170 98000000 		.4byte	.LCFI17-.Ltext0
 1173 0174 A0000000 		.4byte	.LFE32-.Ltext0
 1174 0178 0200     		.2byte	0x2
 1175 017a 7D       		.byte	0x7d
 1176 017b 00       		.sleb128 0
 1177 017c 00000000 		.4byte	0
 1178 0180 00000000 		.4byte	0
 1179              	.LLST2:
 1180 0184 50000000 		.4byte	.LFB31-.Ltext0
 1181 0188 52000000 		.4byte	.LCFI8-.Ltext0
 1182 018c 0200     		.2byte	0x2
 1183 018e 7D       		.byte	0x7d
 1184 018f 00       		.sleb128 0
 1185 0190 52000000 		.4byte	.LCFI8-.Ltext0
 1186 0194 54000000 		.4byte	.LCFI9-.Ltext0
 1187 0198 0200     		.2byte	0x2
 1188 019a 7D       		.byte	0x7d
 1189 019b 04       		.sleb128 4
 1190 019c 54000000 		.4byte	.LCFI9-.Ltext0
 1191 01a0 56000000 		.4byte	.LCFI10-.Ltext0
 1192 01a4 0200     		.2byte	0x2
 1193 01a6 7D       		.byte	0x7d
 1194 01a7 18       		.sleb128 24
 1195 01a8 56000000 		.4byte	.LCFI10-.Ltext0
 1196 01ac 7E000000 		.4byte	.LCFI11-.Ltext0
 1197 01b0 0200     		.2byte	0x2
 1198 01b2 77       		.byte	0x77
 1199 01b3 18       		.sleb128 24
 1200 01b4 7E000000 		.4byte	.LCFI11-.Ltext0
 1201 01b8 80000000 		.4byte	.LCFI12-.Ltext0
 1202 01bc 0200     		.2byte	0x2
 1203 01be 77       		.byte	0x77
 1204 01bf 04       		.sleb128 4
 1205 01c0 80000000 		.4byte	.LCFI12-.Ltext0
 1206 01c4 82000000 		.4byte	.LCFI13-.Ltext0
 1207 01c8 0200     		.2byte	0x2
 1208 01ca 7D       		.byte	0x7d
 1209 01cb 04       		.sleb128 4
 1210 01cc 82000000 		.4byte	.LCFI13-.Ltext0
 1211 01d0 88000000 		.4byte	.LFE31-.Ltext0
 1212 01d4 0200     		.2byte	0x2
 1213 01d6 7D       		.byte	0x7d
 1214 01d7 00       		.sleb128 0
 1215 01d8 00000000 		.4byte	0
ARM GAS  G:\Users\Jaxb\AppData\Local\Temp\cc0t8LPX.s 			page 26


 1216 01dc 00000000 		.4byte	0
 1217              	.LLST1:
 1218 01e0 1C000000 		.4byte	.LFB30-.Ltext0
 1219 01e4 1E000000 		.4byte	.LCFI2-.Ltext0
 1220 01e8 0200     		.2byte	0x2
 1221 01ea 7D       		.byte	0x7d
 1222 01eb 00       		.sleb128 0
 1223 01ec 1E000000 		.4byte	.LCFI2-.Ltext0
 1224 01f0 20000000 		.4byte	.LCFI3-.Ltext0
 1225 01f4 0200     		.2byte	0x2
 1226 01f6 7D       		.byte	0x7d
 1227 01f7 04       		.sleb128 4
 1228 01f8 20000000 		.4byte	.LCFI3-.Ltext0
 1229 01fc 22000000 		.4byte	.LCFI4-.Ltext0
 1230 0200 0200     		.2byte	0x2
 1231 0202 7D       		.byte	0x7d
 1232 0203 18       		.sleb128 24
 1233 0204 22000000 		.4byte	.LCFI4-.Ltext0
 1234 0208 44000000 		.4byte	.LCFI5-.Ltext0
 1235 020c 0200     		.2byte	0x2
 1236 020e 77       		.byte	0x77
 1237 020f 18       		.sleb128 24
 1238 0210 44000000 		.4byte	.LCFI5-.Ltext0
 1239 0214 46000000 		.4byte	.LCFI6-.Ltext0
 1240 0218 0200     		.2byte	0x2
 1241 021a 77       		.byte	0x77
 1242 021b 04       		.sleb128 4
 1243 021c 46000000 		.4byte	.LCFI6-.Ltext0
 1244 0220 48000000 		.4byte	.LCFI7-.Ltext0
 1245 0224 0200     		.2byte	0x2
 1246 0226 7D       		.byte	0x7d
 1247 0227 04       		.sleb128 4
 1248 0228 48000000 		.4byte	.LCFI7-.Ltext0
 1249 022c 50000000 		.4byte	.LFE30-.Ltext0
 1250 0230 0200     		.2byte	0x2
 1251 0232 7D       		.byte	0x7d
 1252 0233 00       		.sleb128 0
 1253 0234 00000000 		.4byte	0
 1254 0238 00000000 		.4byte	0
 1255              	.LLST0:
 1256 023c 00000000 		.4byte	.LFB29-.Ltext0
 1257 0240 02000000 		.4byte	.LCFI0-.Ltext0
 1258 0244 0200     		.2byte	0x2
 1259 0246 7D       		.byte	0x7d
 1260 0247 00       		.sleb128 0
 1261 0248 02000000 		.4byte	.LCFI0-.Ltext0
 1262 024c 04000000 		.4byte	.LCFI1-.Ltext0
 1263 0250 0200     		.2byte	0x2
 1264 0252 7D       		.byte	0x7d
 1265 0253 08       		.sleb128 8
 1266 0254 04000000 		.4byte	.LCFI1-.Ltext0
 1267 0258 1C000000 		.4byte	.LFE29-.Ltext0
 1268 025c 0200     		.2byte	0x2
 1269 025e 77       		.byte	0x77
 1270 025f 08       		.sleb128 8
 1271 0260 00000000 		.4byte	0
 1272 0264 00000000 		.4byte	0
ARM GAS  G:\Users\Jaxb\AppData\Local\Temp\cc0t8LPX.s 			page 27


 1273              		.section	.debug_aranges,"",%progbits
 1274 0000 1C000000 		.4byte	0x1c
 1275 0004 0200     		.2byte	0x2
 1276 0006 00000000 		.4byte	.Ldebug_info0
 1277 000a 04       		.byte	0x4
 1278 000b 00       		.byte	0
 1279 000c 0000     		.2byte	0
 1280 000e 0000     		.2byte	0
 1281 0010 00000000 		.4byte	.Ltext0
 1282 0014 18010000 		.4byte	.Letext0-.Ltext0
 1283 0018 00000000 		.4byte	0
 1284 001c 00000000 		.4byte	0
 1285              		.section	.debug_line,"",%progbits
 1286              	.Ldebug_line0:
 1287 0000 44010000 		.section	.debug_str,"MS",%progbits,1
 1287      02000801 
 1287      00000201 
 1287      FB0E0D00 
 1287      01010101 
 1288              	.LASF5:
 1289 0000 5F5F7569 		.ascii	"__uint8_t\000"
 1289      6E74385F 
 1289      7400
 1290              	.LASF4:
 1291 000a 6C6F6E67 		.ascii	"long int\000"
 1291      20696E74 
 1291      00
 1292              	.LASF3:
 1293 0013 73686F72 		.ascii	"short unsigned int\000"
 1293      7420756E 
 1293      7369676E 
 1293      65642069 
 1293      6E7400
 1294              	.LASF19:
 1295 0026 57574447 		.ascii	"WWDG_TypeDef\000"
 1295      5F547970 
 1295      65446566 
 1295      00
 1296              	.LASF20:
 1297 0033 57574447 		.ascii	"WWDG_Enable\000"
 1297      5F456E61 
 1297      626C6500 
 1298              	.LASF6:
 1299 003f 5F5F7569 		.ascii	"__uint32_t\000"
 1299      6E743332 
 1299      5F7400
 1300              	.LASF18:
 1301 004a 454E4142 		.ascii	"ENABLE\000"
 1301      4C4500
 1302              	.LASF0:
 1303 0051 7369676E 		.ascii	"signed char\000"
 1303      65642063 
 1303      68617200 
 1304              	.LASF24:
 1305 005d 57574447 		.ascii	"WWDG_EnableIT\000"
 1305      5F456E61 
 1305      626C6549 
ARM GAS  G:\Users\Jaxb\AppData\Local\Temp\cc0t8LPX.s 			page 28


 1305      5400
 1306              	.LASF16:
 1307 006b 466C6167 		.ascii	"FlagStatus\000"
 1307      53746174 
 1307      757300
 1308              	.LASF34:
 1309 0076 57574447 		.ascii	"WWDG_GetFlagStatus\000"
 1309      5F476574 
 1309      466C6167 
 1309      53746174 
 1309      757300
 1310              	.LASF7:
 1311 0089 6C6F6E67 		.ascii	"long unsigned int\000"
 1311      20756E73 
 1311      69676E65 
 1311      6420696E 
 1311      7400
 1312              	.LASF15:
 1313 009b 52455345 		.ascii	"RESET\000"
 1313      5400
 1314              	.LASF13:
 1315 00a1 49544D5F 		.ascii	"ITM_RxBuffer\000"
 1315      52784275 
 1315      66666572 
 1315      00
 1316              	.LASF1:
 1317 00ae 756E7369 		.ascii	"unsigned char\000"
 1317      676E6564 
 1317      20636861 
 1317      7200
 1318              	.LASF26:
 1319 00bc 57696E64 		.ascii	"WindowValue\000"
 1319      6F775661 
 1319      6C756500 
 1320              	.LASF22:
 1321 00c8 436F756E 		.ascii	"Counter\000"
 1321      74657200 
 1322              	.LASF10:
 1323 00d0 756E7369 		.ascii	"unsigned int\000"
 1323      676E6564 
 1323      20696E74 
 1323      00
 1324              	.LASF9:
 1325 00dd 6C6F6E67 		.ascii	"long long unsigned int\000"
 1325      206C6F6E 
 1325      6720756E 
 1325      7369676E 
 1325      65642069 
 1326              	.LASF11:
 1327 00f4 75696E74 		.ascii	"uint8_t\000"
 1327      385F7400 
 1328              	.LASF27:
 1329 00fc 57574447 		.ascii	"WWDG_SetPrescaler\000"
 1329      5F536574 
 1329      50726573 
 1329      63616C65 
 1329      7200
ARM GAS  G:\Users\Jaxb\AppData\Local\Temp\cc0t8LPX.s 			page 29


 1330              	.LASF21:
 1331 010e 57574447 		.ascii	"WWDG_SetCounter\000"
 1331      5F536574 
 1331      436F756E 
 1331      74657200 
 1332              	.LASF28:
 1333 011e 57574447 		.ascii	"WWDG_Prescaler\000"
 1333      5F507265 
 1333      7363616C 
 1333      657200
 1334              	.LASF8:
 1335 012d 6C6F6E67 		.ascii	"long long int\000"
 1335      206C6F6E 
 1335      6720696E 
 1335      7400
 1336              	.LASF14:
 1337 013b 53797374 		.ascii	"SystemCoreClock\000"
 1337      656D436F 
 1337      7265436C 
 1337      6F636B00 
 1338              	.LASF2:
 1339 014b 73686F72 		.ascii	"short int\000"
 1339      7420696E 
 1339      7400
 1340              	.LASF29:
 1341 0155 746D7072 		.ascii	"tmpreg\000"
 1341      656700
 1342              	.LASF23:
 1343 015c 57574447 		.ascii	"WWDG_ClearFlag\000"
 1343      5F436C65 
 1343      6172466C 
 1343      616700
 1344              	.LASF32:
 1345 016b 2E2E2F2E 		.ascii	"../../source/src/FWlib/src/stm32f10x_wwdg.c\000"
 1345      2E2F736F 
 1345      75726365 
 1345      2F737263 
 1345      2F46576C 
 1346              	.LASF25:
 1347 0197 57574447 		.ascii	"WWDG_SetWindowValue\000"
 1347      5F536574 
 1347      57696E64 
 1347      6F775661 
 1347      6C756500 
 1348              	.LASF30:
 1349 01ab 57574447 		.ascii	"WWDG_DeInit\000"
 1349      5F446549 
 1349      6E697400 
 1350              	.LASF12:
 1351 01b7 75696E74 		.ascii	"uint32_t\000"
 1351      33325F74 
 1351      00
 1352              	.LASF31:
 1353 01c0 474E5520 		.ascii	"GNU C11 7.3.1 20180622 (release) [ARM/embedded-7-br"
 1353      43313120 
 1353      372E332E 
 1353      31203230 
ARM GAS  G:\Users\Jaxb\AppData\Local\Temp\cc0t8LPX.s 			page 30


 1353      31383036 
 1354 01f3 616E6368 		.ascii	"anch revision 261907] -mcpu=cortex-m3 -mthumb -mapc"
 1354      20726576 
 1354      6973696F 
 1354      6E203236 
 1354      31393037 
 1355 0226 732D6672 		.ascii	"s-frame -mthumb-interwork -mcpu=cortex-m3 -mthumb -"
 1355      616D6520 
 1355      2D6D7468 
 1355      756D622D 
 1355      696E7465 
 1356 0259 67647761 		.ascii	"gdwarf-2 -O0\000"
 1356      72662D32 
 1356      202D4F30 
 1356      00
 1357              	.LASF17:
 1358 0266 44495341 		.ascii	"DISABLE\000"
 1358      424C4500 
 1359              	.LASF33:
 1360 026e 463A5C6B 		.ascii	"F:\\kaka\\KAKAOS\\C\\windows\\Project\\RVMDK\243\250"
 1360      616B615C 
 1360      4B414B41 
 1360      4F535C43 
 1360      5C77696E 
 1361 0296 757635A3 		.ascii	"uv5\243\251\000"
 1361      A900
 1362              		.ident	"GCC: (GNU Tools for Arm Embedded Processors 7-2018-q2-update) 7.3.1 20180622 (release) [AR
ARM GAS  G:\Users\Jaxb\AppData\Local\Temp\cc0t8LPX.s 			page 31


DEFINED SYMBOLS
                            *ABS*:00000000 stm32f10x_wwdg.c
G:\Users\Jaxb\AppData\Local\Temp\cc0t8LPX.s:15     .text:00000000 $t
G:\Users\Jaxb\AppData\Local\Temp\cc0t8LPX.s:22     .text:00000000 WWDG_DeInit
G:\Users\Jaxb\AppData\Local\Temp\cc0t8LPX.s:58     .text:0000001c WWDG_SetPrescaler
G:\Users\Jaxb\AppData\Local\Temp\cc0t8LPX.s:110    .text:0000004c $d
G:\Users\Jaxb\AppData\Local\Temp\cc0t8LPX.s:114    .text:00000050 $t
G:\Users\Jaxb\AppData\Local\Temp\cc0t8LPX.s:121    .text:00000050 WWDG_SetWindowValue
G:\Users\Jaxb\AppData\Local\Temp\cc0t8LPX.s:175    .text:00000084 $d
G:\Users\Jaxb\AppData\Local\Temp\cc0t8LPX.s:179    .text:00000088 $t
G:\Users\Jaxb\AppData\Local\Temp\cc0t8LPX.s:186    .text:00000088 WWDG_EnableIT
G:\Users\Jaxb\AppData\Local\Temp\cc0t8LPX.s:218    .text:0000009c $d
G:\Users\Jaxb\AppData\Local\Temp\cc0t8LPX.s:222    .text:000000a0 $t
G:\Users\Jaxb\AppData\Local\Temp\cc0t8LPX.s:229    .text:000000a0 WWDG_SetCounter
G:\Users\Jaxb\AppData\Local\Temp\cc0t8LPX.s:270    .text:000000c0 $d
G:\Users\Jaxb\AppData\Local\Temp\cc0t8LPX.s:274    .text:000000c4 $t
G:\Users\Jaxb\AppData\Local\Temp\cc0t8LPX.s:281    .text:000000c4 WWDG_Enable
G:\Users\Jaxb\AppData\Local\Temp\cc0t8LPX.s:323    .text:000000e4 $d
G:\Users\Jaxb\AppData\Local\Temp\cc0t8LPX.s:327    .text:000000e8 $t
G:\Users\Jaxb\AppData\Local\Temp\cc0t8LPX.s:334    .text:000000e8 WWDG_GetFlagStatus
G:\Users\Jaxb\AppData\Local\Temp\cc0t8LPX.s:366    .text:000000fc $d
G:\Users\Jaxb\AppData\Local\Temp\cc0t8LPX.s:370    .text:00000100 $t
G:\Users\Jaxb\AppData\Local\Temp\cc0t8LPX.s:377    .text:00000100 WWDG_ClearFlag
G:\Users\Jaxb\AppData\Local\Temp\cc0t8LPX.s:409    .text:00000114 $d

UNDEFINED SYMBOLS
RCC_APB1PeriphResetCmd
