ARM GAS  G:\Users\Jaxb\AppData\Local\Temp\ccPoYyub.s 			page 1


   1              		.cpu cortex-m3
   2              		.eabi_attribute 20, 1
   3              		.eabi_attribute 21, 1
   4              		.eabi_attribute 23, 3
   5              		.eabi_attribute 24, 1
   6              		.eabi_attribute 25, 1
   7              		.eabi_attribute 26, 1
   8              		.eabi_attribute 30, 6
   9              		.eabi_attribute 34, 1
  10              		.eabi_attribute 18, 4
  11              		.file	"stm32f10x_exti.c"
  12              		.text
  13              	.Ltext0:
  14              		.cfi_sections	.debug_frame
  15              		.align	1
  16              		.global	EXTI_DeInit
  17              		.syntax unified
  18              		.thumb
  19              		.thumb_func
  20              		.fpu softvfp
  21              		.type	EXTI_DeInit, %function
  22              	EXTI_DeInit:
  23              	.LFB29:
  24              		.file 1 "../../source/src/FWlib/src/stm32f10x_exti.c"
   1:../../source/src/FWlib/src/stm32f10x_exti.c **** /**
   2:../../source/src/FWlib/src/stm32f10x_exti.c ****   ******************************************************************************
   3:../../source/src/FWlib/src/stm32f10x_exti.c ****   * @file    stm32f10x_exti.c
   4:../../source/src/FWlib/src/stm32f10x_exti.c ****   * @author  MCD Application Team
   5:../../source/src/FWlib/src/stm32f10x_exti.c ****   * @version V3.5.0
   6:../../source/src/FWlib/src/stm32f10x_exti.c ****   * @date    11-March-2011
   7:../../source/src/FWlib/src/stm32f10x_exti.c ****   * @brief   This file provides all the EXTI firmware functions.
   8:../../source/src/FWlib/src/stm32f10x_exti.c ****   ******************************************************************************
   9:../../source/src/FWlib/src/stm32f10x_exti.c ****   * @attention
  10:../../source/src/FWlib/src/stm32f10x_exti.c ****   *
  11:../../source/src/FWlib/src/stm32f10x_exti.c ****   * THE PRESENT FIRMWARE WHICH IS FOR GUIDANCE ONLY AIMS AT PROVIDING CUSTOMERS
  12:../../source/src/FWlib/src/stm32f10x_exti.c ****   * WITH CODING INFORMATION REGARDING THEIR PRODUCTS IN ORDER FOR THEM TO SAVE
  13:../../source/src/FWlib/src/stm32f10x_exti.c ****   * TIME. AS A RESULT, STMICROELECTRONICS SHALL NOT BE HELD LIABLE FOR ANY
  14:../../source/src/FWlib/src/stm32f10x_exti.c ****   * DIRECT, INDIRECT OR CONSEQUENTIAL DAMAGES WITH RESPECT TO ANY CLAIMS ARISING
  15:../../source/src/FWlib/src/stm32f10x_exti.c ****   * FROM THE CONTENT OF SUCH FIRMWARE AND/OR THE USE MADE BY CUSTOMERS OF THE
  16:../../source/src/FWlib/src/stm32f10x_exti.c ****   * CODING INFORMATION CONTAINED HEREIN IN CONNECTION WITH THEIR PRODUCTS.
  17:../../source/src/FWlib/src/stm32f10x_exti.c ****   *
  18:../../source/src/FWlib/src/stm32f10x_exti.c ****   * <h2><center>&copy; COPYRIGHT 2011 STMicroelectronics</center></h2>
  19:../../source/src/FWlib/src/stm32f10x_exti.c ****   ******************************************************************************
  20:../../source/src/FWlib/src/stm32f10x_exti.c ****   */
  21:../../source/src/FWlib/src/stm32f10x_exti.c **** 
  22:../../source/src/FWlib/src/stm32f10x_exti.c **** /* Includes ------------------------------------------------------------------*/
  23:../../source/src/FWlib/src/stm32f10x_exti.c **** #include "stm32f10x_exti.h"
  24:../../source/src/FWlib/src/stm32f10x_exti.c **** 
  25:../../source/src/FWlib/src/stm32f10x_exti.c **** /** @addtogroup STM32F10x_StdPeriph_Driver
  26:../../source/src/FWlib/src/stm32f10x_exti.c ****   * @{
  27:../../source/src/FWlib/src/stm32f10x_exti.c ****   */
  28:../../source/src/FWlib/src/stm32f10x_exti.c **** 
  29:../../source/src/FWlib/src/stm32f10x_exti.c **** /** @defgroup EXTI 
  30:../../source/src/FWlib/src/stm32f10x_exti.c ****   * @brief EXTI driver modules
  31:../../source/src/FWlib/src/stm32f10x_exti.c ****   * @{
  32:../../source/src/FWlib/src/stm32f10x_exti.c ****   */
  33:../../source/src/FWlib/src/stm32f10x_exti.c **** 
ARM GAS  G:\Users\Jaxb\AppData\Local\Temp\ccPoYyub.s 			page 2


  34:../../source/src/FWlib/src/stm32f10x_exti.c **** /** @defgroup EXTI_Private_TypesDefinitions
  35:../../source/src/FWlib/src/stm32f10x_exti.c ****   * @{
  36:../../source/src/FWlib/src/stm32f10x_exti.c ****   */
  37:../../source/src/FWlib/src/stm32f10x_exti.c **** 
  38:../../source/src/FWlib/src/stm32f10x_exti.c **** /**
  39:../../source/src/FWlib/src/stm32f10x_exti.c ****   * @}
  40:../../source/src/FWlib/src/stm32f10x_exti.c ****   */
  41:../../source/src/FWlib/src/stm32f10x_exti.c **** 
  42:../../source/src/FWlib/src/stm32f10x_exti.c **** /** @defgroup EXTI_Private_Defines
  43:../../source/src/FWlib/src/stm32f10x_exti.c ****   * @{
  44:../../source/src/FWlib/src/stm32f10x_exti.c ****   */
  45:../../source/src/FWlib/src/stm32f10x_exti.c **** 
  46:../../source/src/FWlib/src/stm32f10x_exti.c **** #define EXTI_LINENONE    ((uint32_t)0x00000)  /* No interrupt selected */
  47:../../source/src/FWlib/src/stm32f10x_exti.c **** 
  48:../../source/src/FWlib/src/stm32f10x_exti.c **** /**
  49:../../source/src/FWlib/src/stm32f10x_exti.c ****   * @}
  50:../../source/src/FWlib/src/stm32f10x_exti.c ****   */
  51:../../source/src/FWlib/src/stm32f10x_exti.c **** 
  52:../../source/src/FWlib/src/stm32f10x_exti.c **** /** @defgroup EXTI_Private_Macros
  53:../../source/src/FWlib/src/stm32f10x_exti.c ****   * @{
  54:../../source/src/FWlib/src/stm32f10x_exti.c ****   */
  55:../../source/src/FWlib/src/stm32f10x_exti.c **** 
  56:../../source/src/FWlib/src/stm32f10x_exti.c **** /**
  57:../../source/src/FWlib/src/stm32f10x_exti.c ****   * @}
  58:../../source/src/FWlib/src/stm32f10x_exti.c ****   */
  59:../../source/src/FWlib/src/stm32f10x_exti.c **** 
  60:../../source/src/FWlib/src/stm32f10x_exti.c **** /** @defgroup EXTI_Private_Variables
  61:../../source/src/FWlib/src/stm32f10x_exti.c ****   * @{
  62:../../source/src/FWlib/src/stm32f10x_exti.c ****   */
  63:../../source/src/FWlib/src/stm32f10x_exti.c **** 
  64:../../source/src/FWlib/src/stm32f10x_exti.c **** /**
  65:../../source/src/FWlib/src/stm32f10x_exti.c ****   * @}
  66:../../source/src/FWlib/src/stm32f10x_exti.c ****   */
  67:../../source/src/FWlib/src/stm32f10x_exti.c **** 
  68:../../source/src/FWlib/src/stm32f10x_exti.c **** /** @defgroup EXTI_Private_FunctionPrototypes
  69:../../source/src/FWlib/src/stm32f10x_exti.c ****   * @{
  70:../../source/src/FWlib/src/stm32f10x_exti.c ****   */
  71:../../source/src/FWlib/src/stm32f10x_exti.c **** 
  72:../../source/src/FWlib/src/stm32f10x_exti.c **** /**
  73:../../source/src/FWlib/src/stm32f10x_exti.c ****   * @}
  74:../../source/src/FWlib/src/stm32f10x_exti.c ****   */
  75:../../source/src/FWlib/src/stm32f10x_exti.c **** 
  76:../../source/src/FWlib/src/stm32f10x_exti.c **** /** @defgroup EXTI_Private_Functions
  77:../../source/src/FWlib/src/stm32f10x_exti.c ****   * @{
  78:../../source/src/FWlib/src/stm32f10x_exti.c ****   */
  79:../../source/src/FWlib/src/stm32f10x_exti.c **** 
  80:../../source/src/FWlib/src/stm32f10x_exti.c **** /**
  81:../../source/src/FWlib/src/stm32f10x_exti.c ****   * @brief  Deinitializes the EXTI peripheral registers to their default reset values.
  82:../../source/src/FWlib/src/stm32f10x_exti.c ****   * @param  None
  83:../../source/src/FWlib/src/stm32f10x_exti.c ****   * @retval None
  84:../../source/src/FWlib/src/stm32f10x_exti.c ****   */
  85:../../source/src/FWlib/src/stm32f10x_exti.c **** void EXTI_DeInit(void)
  86:../../source/src/FWlib/src/stm32f10x_exti.c **** {
  25              		.loc 1 86 0
  26              		.cfi_startproc
  27              		@ args = 0, pretend = 0, frame = 0
  28              		@ frame_needed = 1, uses_anonymous_args = 0
ARM GAS  G:\Users\Jaxb\AppData\Local\Temp\ccPoYyub.s 			page 3


  29              		@ link register save eliminated.
  30 0000 80B4     		push	{r7}
  31              	.LCFI0:
  32              		.cfi_def_cfa_offset 4
  33              		.cfi_offset 7, -4
  34 0002 00AF     		add	r7, sp, #0
  35              	.LCFI1:
  36              		.cfi_def_cfa_register 7
  87:../../source/src/FWlib/src/stm32f10x_exti.c ****   EXTI->IMR = 0x00000000;
  37              		.loc 1 87 0
  38 0004 094B     		ldr	r3, .L2
  39 0006 0022     		movs	r2, #0
  40 0008 1A60     		str	r2, [r3]
  88:../../source/src/FWlib/src/stm32f10x_exti.c ****   EXTI->EMR = 0x00000000;
  41              		.loc 1 88 0
  42 000a 084B     		ldr	r3, .L2
  43 000c 0022     		movs	r2, #0
  44 000e 5A60     		str	r2, [r3, #4]
  89:../../source/src/FWlib/src/stm32f10x_exti.c ****   EXTI->RTSR = 0x00000000; 
  45              		.loc 1 89 0
  46 0010 064B     		ldr	r3, .L2
  47 0012 0022     		movs	r2, #0
  48 0014 9A60     		str	r2, [r3, #8]
  90:../../source/src/FWlib/src/stm32f10x_exti.c ****   EXTI->FTSR = 0x00000000; 
  49              		.loc 1 90 0
  50 0016 054B     		ldr	r3, .L2
  51 0018 0022     		movs	r2, #0
  52 001a DA60     		str	r2, [r3, #12]
  91:../../source/src/FWlib/src/stm32f10x_exti.c ****   EXTI->PR = 0x000FFFFF;
  53              		.loc 1 91 0
  54 001c 034B     		ldr	r3, .L2
  55 001e 044A     		ldr	r2, .L2+4
  56 0020 5A61     		str	r2, [r3, #20]
  92:../../source/src/FWlib/src/stm32f10x_exti.c **** }
  57              		.loc 1 92 0
  58 0022 00BF     		nop
  59 0024 BD46     		mov	sp, r7
  60              	.LCFI2:
  61              		.cfi_def_cfa_register 13
  62              		@ sp needed
  63 0026 80BC     		pop	{r7}
  64              	.LCFI3:
  65              		.cfi_restore 7
  66              		.cfi_def_cfa_offset 0
  67 0028 7047     		bx	lr
  68              	.L3:
  69 002a 00BF     		.align	2
  70              	.L2:
  71 002c 00040140 		.word	1073808384
  72 0030 FFFF0F00 		.word	1048575
  73              		.cfi_endproc
  74              	.LFE29:
  75              		.size	EXTI_DeInit, .-EXTI_DeInit
  76              		.align	1
  77              		.global	EXTI_Init
  78              		.syntax unified
  79              		.thumb
ARM GAS  G:\Users\Jaxb\AppData\Local\Temp\ccPoYyub.s 			page 4


  80              		.thumb_func
  81              		.fpu softvfp
  82              		.type	EXTI_Init, %function
  83              	EXTI_Init:
  84              	.LFB30:
  93:../../source/src/FWlib/src/stm32f10x_exti.c **** 
  94:../../source/src/FWlib/src/stm32f10x_exti.c **** /**
  95:../../source/src/FWlib/src/stm32f10x_exti.c ****   * @brief  Initializes the EXTI peripheral according to the specified
  96:../../source/src/FWlib/src/stm32f10x_exti.c ****   *         parameters in the EXTI_InitStruct.
  97:../../source/src/FWlib/src/stm32f10x_exti.c ****   * @param  EXTI_InitStruct: pointer to a EXTI_InitTypeDef structure
  98:../../source/src/FWlib/src/stm32f10x_exti.c ****   *         that contains the configuration information for the EXTI peripheral.
  99:../../source/src/FWlib/src/stm32f10x_exti.c ****   * @retval None
 100:../../source/src/FWlib/src/stm32f10x_exti.c ****   */
 101:../../source/src/FWlib/src/stm32f10x_exti.c **** void EXTI_Init(EXTI_InitTypeDef* EXTI_InitStruct)
 102:../../source/src/FWlib/src/stm32f10x_exti.c **** {
  85              		.loc 1 102 0
  86              		.cfi_startproc
  87              		@ args = 0, pretend = 0, frame = 16
  88              		@ frame_needed = 1, uses_anonymous_args = 0
  89              		@ link register save eliminated.
  90 0034 80B4     		push	{r7}
  91              	.LCFI4:
  92              		.cfi_def_cfa_offset 4
  93              		.cfi_offset 7, -4
  94 0036 85B0     		sub	sp, sp, #20
  95              	.LCFI5:
  96              		.cfi_def_cfa_offset 24
  97 0038 00AF     		add	r7, sp, #0
  98              	.LCFI6:
  99              		.cfi_def_cfa_register 7
 100 003a 7860     		str	r0, [r7, #4]
 103:../../source/src/FWlib/src/stm32f10x_exti.c ****   uint32_t tmp = 0;
 101              		.loc 1 103 0
 102 003c 0023     		movs	r3, #0
 103 003e FB60     		str	r3, [r7, #12]
 104:../../source/src/FWlib/src/stm32f10x_exti.c **** 
 105:../../source/src/FWlib/src/stm32f10x_exti.c ****   /* Check the parameters */
 106:../../source/src/FWlib/src/stm32f10x_exti.c ****   assert_param(IS_EXTI_MODE(EXTI_InitStruct->EXTI_Mode));
 107:../../source/src/FWlib/src/stm32f10x_exti.c ****   assert_param(IS_EXTI_TRIGGER(EXTI_InitStruct->EXTI_Trigger));
 108:../../source/src/FWlib/src/stm32f10x_exti.c ****   assert_param(IS_EXTI_LINE(EXTI_InitStruct->EXTI_Line));  
 109:../../source/src/FWlib/src/stm32f10x_exti.c ****   assert_param(IS_FUNCTIONAL_STATE(EXTI_InitStruct->EXTI_LineCmd));
 110:../../source/src/FWlib/src/stm32f10x_exti.c **** 
 111:../../source/src/FWlib/src/stm32f10x_exti.c ****   tmp = (uint32_t)EXTI_BASE;
 104              		.loc 1 111 0
 105 0040 344B     		ldr	r3, .L10
 106 0042 FB60     		str	r3, [r7, #12]
 112:../../source/src/FWlib/src/stm32f10x_exti.c ****      
 113:../../source/src/FWlib/src/stm32f10x_exti.c ****   if (EXTI_InitStruct->EXTI_LineCmd != DISABLE)
 107              		.loc 1 113 0
 108 0044 7B68     		ldr	r3, [r7, #4]
 109 0046 9B79     		ldrb	r3, [r3, #6]	@ zero_extendqisi2
 110 0048 002B     		cmp	r3, #0
 111 004a 4FD0     		beq	.L5
 114:../../source/src/FWlib/src/stm32f10x_exti.c ****   {
 115:../../source/src/FWlib/src/stm32f10x_exti.c ****     /* Clear EXTI line configuration */
 116:../../source/src/FWlib/src/stm32f10x_exti.c ****     EXTI->IMR &= ~EXTI_InitStruct->EXTI_Line;
 112              		.loc 1 116 0
ARM GAS  G:\Users\Jaxb\AppData\Local\Temp\ccPoYyub.s 			page 5


 113 004c 314B     		ldr	r3, .L10
 114 004e 1A68     		ldr	r2, [r3]
 115 0050 7B68     		ldr	r3, [r7, #4]
 116 0052 1B68     		ldr	r3, [r3]
 117 0054 DB43     		mvns	r3, r3
 118 0056 2F49     		ldr	r1, .L10
 119 0058 1340     		ands	r3, r3, r2
 120 005a 0B60     		str	r3, [r1]
 117:../../source/src/FWlib/src/stm32f10x_exti.c ****     EXTI->EMR &= ~EXTI_InitStruct->EXTI_Line;
 121              		.loc 1 117 0
 122 005c 2D4B     		ldr	r3, .L10
 123 005e 5A68     		ldr	r2, [r3, #4]
 124 0060 7B68     		ldr	r3, [r7, #4]
 125 0062 1B68     		ldr	r3, [r3]
 126 0064 DB43     		mvns	r3, r3
 127 0066 2B49     		ldr	r1, .L10
 128 0068 1340     		ands	r3, r3, r2
 129 006a 4B60     		str	r3, [r1, #4]
 118:../../source/src/FWlib/src/stm32f10x_exti.c ****     
 119:../../source/src/FWlib/src/stm32f10x_exti.c ****     tmp += EXTI_InitStruct->EXTI_Mode;
 130              		.loc 1 119 0
 131 006c 7B68     		ldr	r3, [r7, #4]
 132 006e 1B79     		ldrb	r3, [r3, #4]	@ zero_extendqisi2
 133 0070 1A46     		mov	r2, r3
 134 0072 FB68     		ldr	r3, [r7, #12]
 135 0074 1344     		add	r3, r3, r2
 136 0076 FB60     		str	r3, [r7, #12]
 120:../../source/src/FWlib/src/stm32f10x_exti.c **** 
 121:../../source/src/FWlib/src/stm32f10x_exti.c ****     *(__IO uint32_t *) tmp |= EXTI_InitStruct->EXTI_Line;
 137              		.loc 1 121 0
 138 0078 FB68     		ldr	r3, [r7, #12]
 139 007a 1968     		ldr	r1, [r3]
 140 007c 7B68     		ldr	r3, [r7, #4]
 141 007e 1A68     		ldr	r2, [r3]
 142 0080 FB68     		ldr	r3, [r7, #12]
 143 0082 0A43     		orrs	r2, r2, r1
 144 0084 1A60     		str	r2, [r3]
 122:../../source/src/FWlib/src/stm32f10x_exti.c **** 
 123:../../source/src/FWlib/src/stm32f10x_exti.c ****     /* Clear Rising Falling edge configuration */
 124:../../source/src/FWlib/src/stm32f10x_exti.c ****     EXTI->RTSR &= ~EXTI_InitStruct->EXTI_Line;
 145              		.loc 1 124 0
 146 0086 234B     		ldr	r3, .L10
 147 0088 9A68     		ldr	r2, [r3, #8]
 148 008a 7B68     		ldr	r3, [r7, #4]
 149 008c 1B68     		ldr	r3, [r3]
 150 008e DB43     		mvns	r3, r3
 151 0090 2049     		ldr	r1, .L10
 152 0092 1340     		ands	r3, r3, r2
 153 0094 8B60     		str	r3, [r1, #8]
 125:../../source/src/FWlib/src/stm32f10x_exti.c ****     EXTI->FTSR &= ~EXTI_InitStruct->EXTI_Line;
 154              		.loc 1 125 0
 155 0096 1F4B     		ldr	r3, .L10
 156 0098 DA68     		ldr	r2, [r3, #12]
 157 009a 7B68     		ldr	r3, [r7, #4]
 158 009c 1B68     		ldr	r3, [r3]
 159 009e DB43     		mvns	r3, r3
 160 00a0 1C49     		ldr	r1, .L10
ARM GAS  G:\Users\Jaxb\AppData\Local\Temp\ccPoYyub.s 			page 6


 161 00a2 1340     		ands	r3, r3, r2
 162 00a4 CB60     		str	r3, [r1, #12]
 126:../../source/src/FWlib/src/stm32f10x_exti.c ****     
 127:../../source/src/FWlib/src/stm32f10x_exti.c ****     /* Select the trigger for the selected external interrupts */
 128:../../source/src/FWlib/src/stm32f10x_exti.c ****     if (EXTI_InitStruct->EXTI_Trigger == EXTI_Trigger_Rising_Falling)
 163              		.loc 1 128 0
 164 00a6 7B68     		ldr	r3, [r7, #4]
 165 00a8 5B79     		ldrb	r3, [r3, #5]	@ zero_extendqisi2
 166 00aa 102B     		cmp	r3, #16
 167 00ac 0ED1     		bne	.L6
 129:../../source/src/FWlib/src/stm32f10x_exti.c ****     {
 130:../../source/src/FWlib/src/stm32f10x_exti.c ****       /* Rising Falling edge */
 131:../../source/src/FWlib/src/stm32f10x_exti.c ****       EXTI->RTSR |= EXTI_InitStruct->EXTI_Line;
 168              		.loc 1 131 0
 169 00ae 194B     		ldr	r3, .L10
 170 00b0 9A68     		ldr	r2, [r3, #8]
 171 00b2 7B68     		ldr	r3, [r7, #4]
 172 00b4 1B68     		ldr	r3, [r3]
 173 00b6 1749     		ldr	r1, .L10
 174 00b8 1343     		orrs	r3, r3, r2
 175 00ba 8B60     		str	r3, [r1, #8]
 132:../../source/src/FWlib/src/stm32f10x_exti.c ****       EXTI->FTSR |= EXTI_InitStruct->EXTI_Line;
 176              		.loc 1 132 0
 177 00bc 154B     		ldr	r3, .L10
 178 00be DA68     		ldr	r2, [r3, #12]
 179 00c0 7B68     		ldr	r3, [r7, #4]
 180 00c2 1B68     		ldr	r3, [r3]
 181 00c4 1349     		ldr	r1, .L10
 182 00c6 1343     		orrs	r3, r3, r2
 183 00c8 CB60     		str	r3, [r1, #12]
 133:../../source/src/FWlib/src/stm32f10x_exti.c ****     }
 134:../../source/src/FWlib/src/stm32f10x_exti.c ****     else
 135:../../source/src/FWlib/src/stm32f10x_exti.c ****     {
 136:../../source/src/FWlib/src/stm32f10x_exti.c ****       tmp = (uint32_t)EXTI_BASE;
 137:../../source/src/FWlib/src/stm32f10x_exti.c ****       tmp += EXTI_InitStruct->EXTI_Trigger;
 138:../../source/src/FWlib/src/stm32f10x_exti.c **** 
 139:../../source/src/FWlib/src/stm32f10x_exti.c ****       *(__IO uint32_t *) tmp |= EXTI_InitStruct->EXTI_Line;
 140:../../source/src/FWlib/src/stm32f10x_exti.c ****     }
 141:../../source/src/FWlib/src/stm32f10x_exti.c ****   }
 142:../../source/src/FWlib/src/stm32f10x_exti.c ****   else
 143:../../source/src/FWlib/src/stm32f10x_exti.c ****   {
 144:../../source/src/FWlib/src/stm32f10x_exti.c ****     tmp += EXTI_InitStruct->EXTI_Mode;
 145:../../source/src/FWlib/src/stm32f10x_exti.c **** 
 146:../../source/src/FWlib/src/stm32f10x_exti.c ****     /* Disable the selected external lines */
 147:../../source/src/FWlib/src/stm32f10x_exti.c ****     *(__IO uint32_t *) tmp &= ~EXTI_InitStruct->EXTI_Line;
 148:../../source/src/FWlib/src/stm32f10x_exti.c ****   }
 149:../../source/src/FWlib/src/stm32f10x_exti.c **** }
 184              		.loc 1 149 0
 185 00ca 1DE0     		b	.L9
 186              	.L6:
 136:../../source/src/FWlib/src/stm32f10x_exti.c ****       tmp += EXTI_InitStruct->EXTI_Trigger;
 187              		.loc 1 136 0
 188 00cc 114B     		ldr	r3, .L10
 189 00ce FB60     		str	r3, [r7, #12]
 137:../../source/src/FWlib/src/stm32f10x_exti.c **** 
 190              		.loc 1 137 0
 191 00d0 7B68     		ldr	r3, [r7, #4]
ARM GAS  G:\Users\Jaxb\AppData\Local\Temp\ccPoYyub.s 			page 7


 192 00d2 5B79     		ldrb	r3, [r3, #5]	@ zero_extendqisi2
 193 00d4 1A46     		mov	r2, r3
 194 00d6 FB68     		ldr	r3, [r7, #12]
 195 00d8 1344     		add	r3, r3, r2
 196 00da FB60     		str	r3, [r7, #12]
 139:../../source/src/FWlib/src/stm32f10x_exti.c ****     }
 197              		.loc 1 139 0
 198 00dc FB68     		ldr	r3, [r7, #12]
 199 00de 1968     		ldr	r1, [r3]
 200 00e0 7B68     		ldr	r3, [r7, #4]
 201 00e2 1A68     		ldr	r2, [r3]
 202 00e4 FB68     		ldr	r3, [r7, #12]
 203 00e6 0A43     		orrs	r2, r2, r1
 204 00e8 1A60     		str	r2, [r3]
 205              		.loc 1 149 0
 206 00ea 0DE0     		b	.L9
 207              	.L5:
 144:../../source/src/FWlib/src/stm32f10x_exti.c **** 
 208              		.loc 1 144 0
 209 00ec 7B68     		ldr	r3, [r7, #4]
 210 00ee 1B79     		ldrb	r3, [r3, #4]	@ zero_extendqisi2
 211 00f0 1A46     		mov	r2, r3
 212 00f2 FB68     		ldr	r3, [r7, #12]
 213 00f4 1344     		add	r3, r3, r2
 214 00f6 FB60     		str	r3, [r7, #12]
 147:../../source/src/FWlib/src/stm32f10x_exti.c ****   }
 215              		.loc 1 147 0
 216 00f8 FB68     		ldr	r3, [r7, #12]
 217 00fa 1968     		ldr	r1, [r3]
 218 00fc 7B68     		ldr	r3, [r7, #4]
 219 00fe 1B68     		ldr	r3, [r3]
 220 0100 DA43     		mvns	r2, r3
 221 0102 FB68     		ldr	r3, [r7, #12]
 222 0104 0A40     		ands	r2, r2, r1
 223 0106 1A60     		str	r2, [r3]
 224              	.L9:
 225              		.loc 1 149 0
 226 0108 00BF     		nop
 227 010a 1437     		adds	r7, r7, #20
 228              	.LCFI7:
 229              		.cfi_def_cfa_offset 4
 230 010c BD46     		mov	sp, r7
 231              	.LCFI8:
 232              		.cfi_def_cfa_register 13
 233              		@ sp needed
 234 010e 80BC     		pop	{r7}
 235              	.LCFI9:
 236              		.cfi_restore 7
 237              		.cfi_def_cfa_offset 0
 238 0110 7047     		bx	lr
 239              	.L11:
 240 0112 00BF     		.align	2
 241              	.L10:
 242 0114 00040140 		.word	1073808384
 243              		.cfi_endproc
 244              	.LFE30:
 245              		.size	EXTI_Init, .-EXTI_Init
ARM GAS  G:\Users\Jaxb\AppData\Local\Temp\ccPoYyub.s 			page 8


 246              		.align	1
 247              		.global	EXTI_StructInit
 248              		.syntax unified
 249              		.thumb
 250              		.thumb_func
 251              		.fpu softvfp
 252              		.type	EXTI_StructInit, %function
 253              	EXTI_StructInit:
 254              	.LFB31:
 150:../../source/src/FWlib/src/stm32f10x_exti.c **** 
 151:../../source/src/FWlib/src/stm32f10x_exti.c **** /**
 152:../../source/src/FWlib/src/stm32f10x_exti.c ****   * @brief  Fills each EXTI_InitStruct member with its reset value.
 153:../../source/src/FWlib/src/stm32f10x_exti.c ****   * @param  EXTI_InitStruct: pointer to a EXTI_InitTypeDef structure which will
 154:../../source/src/FWlib/src/stm32f10x_exti.c ****   *         be initialized.
 155:../../source/src/FWlib/src/stm32f10x_exti.c ****   * @retval None
 156:../../source/src/FWlib/src/stm32f10x_exti.c ****   */
 157:../../source/src/FWlib/src/stm32f10x_exti.c **** void EXTI_StructInit(EXTI_InitTypeDef* EXTI_InitStruct)
 158:../../source/src/FWlib/src/stm32f10x_exti.c **** {
 255              		.loc 1 158 0
 256              		.cfi_startproc
 257              		@ args = 0, pretend = 0, frame = 8
 258              		@ frame_needed = 1, uses_anonymous_args = 0
 259              		@ link register save eliminated.
 260 0118 80B4     		push	{r7}
 261              	.LCFI10:
 262              		.cfi_def_cfa_offset 4
 263              		.cfi_offset 7, -4
 264 011a 83B0     		sub	sp, sp, #12
 265              	.LCFI11:
 266              		.cfi_def_cfa_offset 16
 267 011c 00AF     		add	r7, sp, #0
 268              	.LCFI12:
 269              		.cfi_def_cfa_register 7
 270 011e 7860     		str	r0, [r7, #4]
 159:../../source/src/FWlib/src/stm32f10x_exti.c ****   EXTI_InitStruct->EXTI_Line = EXTI_LINENONE;
 271              		.loc 1 159 0
 272 0120 7B68     		ldr	r3, [r7, #4]
 273 0122 0022     		movs	r2, #0
 274 0124 1A60     		str	r2, [r3]
 160:../../source/src/FWlib/src/stm32f10x_exti.c ****   EXTI_InitStruct->EXTI_Mode = EXTI_Mode_Interrupt;
 275              		.loc 1 160 0
 276 0126 7B68     		ldr	r3, [r7, #4]
 277 0128 0022     		movs	r2, #0
 278 012a 1A71     		strb	r2, [r3, #4]
 161:../../source/src/FWlib/src/stm32f10x_exti.c ****   EXTI_InitStruct->EXTI_Trigger = EXTI_Trigger_Falling;
 279              		.loc 1 161 0
 280 012c 7B68     		ldr	r3, [r7, #4]
 281 012e 0C22     		movs	r2, #12
 282 0130 5A71     		strb	r2, [r3, #5]
 162:../../source/src/FWlib/src/stm32f10x_exti.c ****   EXTI_InitStruct->EXTI_LineCmd = DISABLE;
 283              		.loc 1 162 0
 284 0132 7B68     		ldr	r3, [r7, #4]
 285 0134 0022     		movs	r2, #0
 286 0136 9A71     		strb	r2, [r3, #6]
 163:../../source/src/FWlib/src/stm32f10x_exti.c **** }
 287              		.loc 1 163 0
 288 0138 00BF     		nop
ARM GAS  G:\Users\Jaxb\AppData\Local\Temp\ccPoYyub.s 			page 9


 289 013a 0C37     		adds	r7, r7, #12
 290              	.LCFI13:
 291              		.cfi_def_cfa_offset 4
 292 013c BD46     		mov	sp, r7
 293              	.LCFI14:
 294              		.cfi_def_cfa_register 13
 295              		@ sp needed
 296 013e 80BC     		pop	{r7}
 297              	.LCFI15:
 298              		.cfi_restore 7
 299              		.cfi_def_cfa_offset 0
 300 0140 7047     		bx	lr
 301              		.cfi_endproc
 302              	.LFE31:
 303              		.size	EXTI_StructInit, .-EXTI_StructInit
 304              		.align	1
 305              		.global	EXTI_GenerateSWInterrupt
 306              		.syntax unified
 307              		.thumb
 308              		.thumb_func
 309              		.fpu softvfp
 310              		.type	EXTI_GenerateSWInterrupt, %function
 311              	EXTI_GenerateSWInterrupt:
 312              	.LFB32:
 164:../../source/src/FWlib/src/stm32f10x_exti.c **** 
 165:../../source/src/FWlib/src/stm32f10x_exti.c **** /**
 166:../../source/src/FWlib/src/stm32f10x_exti.c ****   * @brief  Generates a Software interrupt.
 167:../../source/src/FWlib/src/stm32f10x_exti.c ****   * @param  EXTI_Line: specifies the EXTI lines to be enabled or disabled.
 168:../../source/src/FWlib/src/stm32f10x_exti.c ****   *   This parameter can be any combination of EXTI_Linex where x can be (0..19).
 169:../../source/src/FWlib/src/stm32f10x_exti.c ****   * @retval None
 170:../../source/src/FWlib/src/stm32f10x_exti.c ****   */
 171:../../source/src/FWlib/src/stm32f10x_exti.c **** void EXTI_GenerateSWInterrupt(uint32_t EXTI_Line)
 172:../../source/src/FWlib/src/stm32f10x_exti.c **** {
 313              		.loc 1 172 0
 314              		.cfi_startproc
 315              		@ args = 0, pretend = 0, frame = 8
 316              		@ frame_needed = 1, uses_anonymous_args = 0
 317              		@ link register save eliminated.
 318 0142 80B4     		push	{r7}
 319              	.LCFI16:
 320              		.cfi_def_cfa_offset 4
 321              		.cfi_offset 7, -4
 322 0144 83B0     		sub	sp, sp, #12
 323              	.LCFI17:
 324              		.cfi_def_cfa_offset 16
 325 0146 00AF     		add	r7, sp, #0
 326              	.LCFI18:
 327              		.cfi_def_cfa_register 7
 328 0148 7860     		str	r0, [r7, #4]
 173:../../source/src/FWlib/src/stm32f10x_exti.c ****   /* Check the parameters */
 174:../../source/src/FWlib/src/stm32f10x_exti.c ****   assert_param(IS_EXTI_LINE(EXTI_Line));
 175:../../source/src/FWlib/src/stm32f10x_exti.c ****   
 176:../../source/src/FWlib/src/stm32f10x_exti.c ****   EXTI->SWIER |= EXTI_Line;
 329              		.loc 1 176 0
 330 014a 054B     		ldr	r3, .L14
 331 014c 1A69     		ldr	r2, [r3, #16]
 332 014e 0449     		ldr	r1, .L14
ARM GAS  G:\Users\Jaxb\AppData\Local\Temp\ccPoYyub.s 			page 10


 333 0150 7B68     		ldr	r3, [r7, #4]
 334 0152 1343     		orrs	r3, r3, r2
 335 0154 0B61     		str	r3, [r1, #16]
 177:../../source/src/FWlib/src/stm32f10x_exti.c **** }
 336              		.loc 1 177 0
 337 0156 00BF     		nop
 338 0158 0C37     		adds	r7, r7, #12
 339              	.LCFI19:
 340              		.cfi_def_cfa_offset 4
 341 015a BD46     		mov	sp, r7
 342              	.LCFI20:
 343              		.cfi_def_cfa_register 13
 344              		@ sp needed
 345 015c 80BC     		pop	{r7}
 346              	.LCFI21:
 347              		.cfi_restore 7
 348              		.cfi_def_cfa_offset 0
 349 015e 7047     		bx	lr
 350              	.L15:
 351              		.align	2
 352              	.L14:
 353 0160 00040140 		.word	1073808384
 354              		.cfi_endproc
 355              	.LFE32:
 356              		.size	EXTI_GenerateSWInterrupt, .-EXTI_GenerateSWInterrupt
 357              		.align	1
 358              		.global	EXTI_GetFlagStatus
 359              		.syntax unified
 360              		.thumb
 361              		.thumb_func
 362              		.fpu softvfp
 363              		.type	EXTI_GetFlagStatus, %function
 364              	EXTI_GetFlagStatus:
 365              	.LFB33:
 178:../../source/src/FWlib/src/stm32f10x_exti.c **** 
 179:../../source/src/FWlib/src/stm32f10x_exti.c **** /**
 180:../../source/src/FWlib/src/stm32f10x_exti.c ****   * @brief  Checks whether the specified EXTI line flag is set or not.
 181:../../source/src/FWlib/src/stm32f10x_exti.c ****   * @param  EXTI_Line: specifies the EXTI line flag to check.
 182:../../source/src/FWlib/src/stm32f10x_exti.c ****   *   This parameter can be:
 183:../../source/src/FWlib/src/stm32f10x_exti.c ****   *     @arg EXTI_Linex: External interrupt line x where x(0..19)
 184:../../source/src/FWlib/src/stm32f10x_exti.c ****   * @retval The new state of EXTI_Line (SET or RESET).
 185:../../source/src/FWlib/src/stm32f10x_exti.c ****   */
 186:../../source/src/FWlib/src/stm32f10x_exti.c **** FlagStatus EXTI_GetFlagStatus(uint32_t EXTI_Line)
 187:../../source/src/FWlib/src/stm32f10x_exti.c **** {
 366              		.loc 1 187 0
 367              		.cfi_startproc
 368              		@ args = 0, pretend = 0, frame = 16
 369              		@ frame_needed = 1, uses_anonymous_args = 0
 370              		@ link register save eliminated.
 371 0164 80B4     		push	{r7}
 372              	.LCFI22:
 373              		.cfi_def_cfa_offset 4
 374              		.cfi_offset 7, -4
 375 0166 85B0     		sub	sp, sp, #20
 376              	.LCFI23:
 377              		.cfi_def_cfa_offset 24
 378 0168 00AF     		add	r7, sp, #0
ARM GAS  G:\Users\Jaxb\AppData\Local\Temp\ccPoYyub.s 			page 11


 379              	.LCFI24:
 380              		.cfi_def_cfa_register 7
 381 016a 7860     		str	r0, [r7, #4]
 188:../../source/src/FWlib/src/stm32f10x_exti.c ****   FlagStatus bitstatus = RESET;
 382              		.loc 1 188 0
 383 016c 0023     		movs	r3, #0
 384 016e FB73     		strb	r3, [r7, #15]
 189:../../source/src/FWlib/src/stm32f10x_exti.c ****   /* Check the parameters */
 190:../../source/src/FWlib/src/stm32f10x_exti.c ****   assert_param(IS_GET_EXTI_LINE(EXTI_Line));
 191:../../source/src/FWlib/src/stm32f10x_exti.c ****   
 192:../../source/src/FWlib/src/stm32f10x_exti.c ****   if ((EXTI->PR & EXTI_Line) != (uint32_t)RESET)
 385              		.loc 1 192 0
 386 0170 084B     		ldr	r3, .L20
 387 0172 5A69     		ldr	r2, [r3, #20]
 388 0174 7B68     		ldr	r3, [r7, #4]
 389 0176 1340     		ands	r3, r3, r2
 390 0178 002B     		cmp	r3, #0
 391 017a 02D0     		beq	.L17
 193:../../source/src/FWlib/src/stm32f10x_exti.c ****   {
 194:../../source/src/FWlib/src/stm32f10x_exti.c ****     bitstatus = SET;
 392              		.loc 1 194 0
 393 017c 0123     		movs	r3, #1
 394 017e FB73     		strb	r3, [r7, #15]
 395 0180 01E0     		b	.L18
 396              	.L17:
 195:../../source/src/FWlib/src/stm32f10x_exti.c ****   }
 196:../../source/src/FWlib/src/stm32f10x_exti.c ****   else
 197:../../source/src/FWlib/src/stm32f10x_exti.c ****   {
 198:../../source/src/FWlib/src/stm32f10x_exti.c ****     bitstatus = RESET;
 397              		.loc 1 198 0
 398 0182 0023     		movs	r3, #0
 399 0184 FB73     		strb	r3, [r7, #15]
 400              	.L18:
 199:../../source/src/FWlib/src/stm32f10x_exti.c ****   }
 200:../../source/src/FWlib/src/stm32f10x_exti.c ****   return bitstatus;
 401              		.loc 1 200 0
 402 0186 FB7B     		ldrb	r3, [r7, #15]	@ zero_extendqisi2
 201:../../source/src/FWlib/src/stm32f10x_exti.c **** }
 403              		.loc 1 201 0
 404 0188 1846     		mov	r0, r3
 405 018a 1437     		adds	r7, r7, #20
 406              	.LCFI25:
 407              		.cfi_def_cfa_offset 4
 408 018c BD46     		mov	sp, r7
 409              	.LCFI26:
 410              		.cfi_def_cfa_register 13
 411              		@ sp needed
 412 018e 80BC     		pop	{r7}
 413              	.LCFI27:
 414              		.cfi_restore 7
 415              		.cfi_def_cfa_offset 0
 416 0190 7047     		bx	lr
 417              	.L21:
 418 0192 00BF     		.align	2
 419              	.L20:
 420 0194 00040140 		.word	1073808384
 421              		.cfi_endproc
ARM GAS  G:\Users\Jaxb\AppData\Local\Temp\ccPoYyub.s 			page 12


 422              	.LFE33:
 423              		.size	EXTI_GetFlagStatus, .-EXTI_GetFlagStatus
 424              		.align	1
 425              		.global	EXTI_ClearFlag
 426              		.syntax unified
 427              		.thumb
 428              		.thumb_func
 429              		.fpu softvfp
 430              		.type	EXTI_ClearFlag, %function
 431              	EXTI_ClearFlag:
 432              	.LFB34:
 202:../../source/src/FWlib/src/stm32f10x_exti.c **** 
 203:../../source/src/FWlib/src/stm32f10x_exti.c **** /**
 204:../../source/src/FWlib/src/stm32f10x_exti.c ****   * @brief  Clears the EXTI's line pending flags.
 205:../../source/src/FWlib/src/stm32f10x_exti.c ****   * @param  EXTI_Line: specifies the EXTI lines flags to clear.
 206:../../source/src/FWlib/src/stm32f10x_exti.c ****   *   This parameter can be any combination of EXTI_Linex where x can be (0..19).
 207:../../source/src/FWlib/src/stm32f10x_exti.c ****   * @retval None
 208:../../source/src/FWlib/src/stm32f10x_exti.c ****   */
 209:../../source/src/FWlib/src/stm32f10x_exti.c **** void EXTI_ClearFlag(uint32_t EXTI_Line)
 210:../../source/src/FWlib/src/stm32f10x_exti.c **** {
 433              		.loc 1 210 0
 434              		.cfi_startproc
 435              		@ args = 0, pretend = 0, frame = 8
 436              		@ frame_needed = 1, uses_anonymous_args = 0
 437              		@ link register save eliminated.
 438 0198 80B4     		push	{r7}
 439              	.LCFI28:
 440              		.cfi_def_cfa_offset 4
 441              		.cfi_offset 7, -4
 442 019a 83B0     		sub	sp, sp, #12
 443              	.LCFI29:
 444              		.cfi_def_cfa_offset 16
 445 019c 00AF     		add	r7, sp, #0
 446              	.LCFI30:
 447              		.cfi_def_cfa_register 7
 448 019e 7860     		str	r0, [r7, #4]
 211:../../source/src/FWlib/src/stm32f10x_exti.c ****   /* Check the parameters */
 212:../../source/src/FWlib/src/stm32f10x_exti.c ****   assert_param(IS_EXTI_LINE(EXTI_Line));
 213:../../source/src/FWlib/src/stm32f10x_exti.c ****   
 214:../../source/src/FWlib/src/stm32f10x_exti.c ****   EXTI->PR = EXTI_Line;
 449              		.loc 1 214 0
 450 01a0 034A     		ldr	r2, .L23
 451 01a2 7B68     		ldr	r3, [r7, #4]
 452 01a4 5361     		str	r3, [r2, #20]
 215:../../source/src/FWlib/src/stm32f10x_exti.c **** }
 453              		.loc 1 215 0
 454 01a6 00BF     		nop
 455 01a8 0C37     		adds	r7, r7, #12
 456              	.LCFI31:
 457              		.cfi_def_cfa_offset 4
 458 01aa BD46     		mov	sp, r7
 459              	.LCFI32:
 460              		.cfi_def_cfa_register 13
 461              		@ sp needed
 462 01ac 80BC     		pop	{r7}
 463              	.LCFI33:
 464              		.cfi_restore 7
ARM GAS  G:\Users\Jaxb\AppData\Local\Temp\ccPoYyub.s 			page 13


 465              		.cfi_def_cfa_offset 0
 466 01ae 7047     		bx	lr
 467              	.L24:
 468              		.align	2
 469              	.L23:
 470 01b0 00040140 		.word	1073808384
 471              		.cfi_endproc
 472              	.LFE34:
 473              		.size	EXTI_ClearFlag, .-EXTI_ClearFlag
 474              		.align	1
 475              		.global	EXTI_GetITStatus
 476              		.syntax unified
 477              		.thumb
 478              		.thumb_func
 479              		.fpu softvfp
 480              		.type	EXTI_GetITStatus, %function
 481              	EXTI_GetITStatus:
 482              	.LFB35:
 216:../../source/src/FWlib/src/stm32f10x_exti.c **** 
 217:../../source/src/FWlib/src/stm32f10x_exti.c **** /**
 218:../../source/src/FWlib/src/stm32f10x_exti.c ****   * @brief  Checks whether the specified EXTI line is asserted or not.
 219:../../source/src/FWlib/src/stm32f10x_exti.c ****   * @param  EXTI_Line: specifies the EXTI line to check.
 220:../../source/src/FWlib/src/stm32f10x_exti.c ****   *   This parameter can be:
 221:../../source/src/FWlib/src/stm32f10x_exti.c ****   *     @arg EXTI_Linex: External interrupt line x where x(0..19)
 222:../../source/src/FWlib/src/stm32f10x_exti.c ****   * @retval The new state of EXTI_Line (SET or RESET).
 223:../../source/src/FWlib/src/stm32f10x_exti.c ****   */
 224:../../source/src/FWlib/src/stm32f10x_exti.c **** ITStatus EXTI_GetITStatus(uint32_t EXTI_Line)
 225:../../source/src/FWlib/src/stm32f10x_exti.c **** {
 483              		.loc 1 225 0
 484              		.cfi_startproc
 485              		@ args = 0, pretend = 0, frame = 16
 486              		@ frame_needed = 1, uses_anonymous_args = 0
 487              		@ link register save eliminated.
 488 01b4 80B4     		push	{r7}
 489              	.LCFI34:
 490              		.cfi_def_cfa_offset 4
 491              		.cfi_offset 7, -4
 492 01b6 85B0     		sub	sp, sp, #20
 493              	.LCFI35:
 494              		.cfi_def_cfa_offset 24
 495 01b8 00AF     		add	r7, sp, #0
 496              	.LCFI36:
 497              		.cfi_def_cfa_register 7
 498 01ba 7860     		str	r0, [r7, #4]
 226:../../source/src/FWlib/src/stm32f10x_exti.c ****   ITStatus bitstatus = RESET;
 499              		.loc 1 226 0
 500 01bc 0023     		movs	r3, #0
 501 01be FB73     		strb	r3, [r7, #15]
 227:../../source/src/FWlib/src/stm32f10x_exti.c ****   uint32_t enablestatus = 0;
 502              		.loc 1 227 0
 503 01c0 0023     		movs	r3, #0
 504 01c2 BB60     		str	r3, [r7, #8]
 228:../../source/src/FWlib/src/stm32f10x_exti.c ****   /* Check the parameters */
 229:../../source/src/FWlib/src/stm32f10x_exti.c ****   assert_param(IS_GET_EXTI_LINE(EXTI_Line));
 230:../../source/src/FWlib/src/stm32f10x_exti.c ****   
 231:../../source/src/FWlib/src/stm32f10x_exti.c ****   enablestatus =  EXTI->IMR & EXTI_Line;
 505              		.loc 1 231 0
ARM GAS  G:\Users\Jaxb\AppData\Local\Temp\ccPoYyub.s 			page 14


 506 01c4 0C4B     		ldr	r3, .L29
 507 01c6 1B68     		ldr	r3, [r3]
 508 01c8 7A68     		ldr	r2, [r7, #4]
 509 01ca 1340     		ands	r3, r3, r2
 510 01cc BB60     		str	r3, [r7, #8]
 232:../../source/src/FWlib/src/stm32f10x_exti.c ****   if (((EXTI->PR & EXTI_Line) != (uint32_t)RESET) && (enablestatus != (uint32_t)RESET))
 511              		.loc 1 232 0
 512 01ce 0A4B     		ldr	r3, .L29
 513 01d0 5A69     		ldr	r2, [r3, #20]
 514 01d2 7B68     		ldr	r3, [r7, #4]
 515 01d4 1340     		ands	r3, r3, r2
 516 01d6 002B     		cmp	r3, #0
 517 01d8 05D0     		beq	.L26
 518              		.loc 1 232 0 is_stmt 0 discriminator 1
 519 01da BB68     		ldr	r3, [r7, #8]
 520 01dc 002B     		cmp	r3, #0
 521 01de 02D0     		beq	.L26
 233:../../source/src/FWlib/src/stm32f10x_exti.c ****   {
 234:../../source/src/FWlib/src/stm32f10x_exti.c ****     bitstatus = SET;
 522              		.loc 1 234 0 is_stmt 1
 523 01e0 0123     		movs	r3, #1
 524 01e2 FB73     		strb	r3, [r7, #15]
 525 01e4 01E0     		b	.L27
 526              	.L26:
 235:../../source/src/FWlib/src/stm32f10x_exti.c ****   }
 236:../../source/src/FWlib/src/stm32f10x_exti.c ****   else
 237:../../source/src/FWlib/src/stm32f10x_exti.c ****   {
 238:../../source/src/FWlib/src/stm32f10x_exti.c ****     bitstatus = RESET;
 527              		.loc 1 238 0
 528 01e6 0023     		movs	r3, #0
 529 01e8 FB73     		strb	r3, [r7, #15]
 530              	.L27:
 239:../../source/src/FWlib/src/stm32f10x_exti.c ****   }
 240:../../source/src/FWlib/src/stm32f10x_exti.c ****   return bitstatus;
 531              		.loc 1 240 0
 532 01ea FB7B     		ldrb	r3, [r7, #15]	@ zero_extendqisi2
 241:../../source/src/FWlib/src/stm32f10x_exti.c **** }
 533              		.loc 1 241 0
 534 01ec 1846     		mov	r0, r3
 535 01ee 1437     		adds	r7, r7, #20
 536              	.LCFI37:
 537              		.cfi_def_cfa_offset 4
 538 01f0 BD46     		mov	sp, r7
 539              	.LCFI38:
 540              		.cfi_def_cfa_register 13
 541              		@ sp needed
 542 01f2 80BC     		pop	{r7}
 543              	.LCFI39:
 544              		.cfi_restore 7
 545              		.cfi_def_cfa_offset 0
 546 01f4 7047     		bx	lr
 547              	.L30:
 548 01f6 00BF     		.align	2
 549              	.L29:
 550 01f8 00040140 		.word	1073808384
 551              		.cfi_endproc
 552              	.LFE35:
ARM GAS  G:\Users\Jaxb\AppData\Local\Temp\ccPoYyub.s 			page 15


 553              		.size	EXTI_GetITStatus, .-EXTI_GetITStatus
 554              		.align	1
 555              		.global	EXTI_ClearITPendingBit
 556              		.syntax unified
 557              		.thumb
 558              		.thumb_func
 559              		.fpu softvfp
 560              		.type	EXTI_ClearITPendingBit, %function
 561              	EXTI_ClearITPendingBit:
 562              	.LFB36:
 242:../../source/src/FWlib/src/stm32f10x_exti.c **** 
 243:../../source/src/FWlib/src/stm32f10x_exti.c **** /**
 244:../../source/src/FWlib/src/stm32f10x_exti.c ****   * @brief  Clears the EXTI's line pending bits.
 245:../../source/src/FWlib/src/stm32f10x_exti.c ****   * @param  EXTI_Line: specifies the EXTI lines to clear.
 246:../../source/src/FWlib/src/stm32f10x_exti.c ****   *   This parameter can be any combination of EXTI_Linex where x can be (0..19).
 247:../../source/src/FWlib/src/stm32f10x_exti.c ****   * @retval None
 248:../../source/src/FWlib/src/stm32f10x_exti.c ****   */
 249:../../source/src/FWlib/src/stm32f10x_exti.c **** void EXTI_ClearITPendingBit(uint32_t EXTI_Line)
 250:../../source/src/FWlib/src/stm32f10x_exti.c **** {
 563              		.loc 1 250 0
 564              		.cfi_startproc
 565              		@ args = 0, pretend = 0, frame = 8
 566              		@ frame_needed = 1, uses_anonymous_args = 0
 567              		@ link register save eliminated.
 568 01fc 80B4     		push	{r7}
 569              	.LCFI40:
 570              		.cfi_def_cfa_offset 4
 571              		.cfi_offset 7, -4
 572 01fe 83B0     		sub	sp, sp, #12
 573              	.LCFI41:
 574              		.cfi_def_cfa_offset 16
 575 0200 00AF     		add	r7, sp, #0
 576              	.LCFI42:
 577              		.cfi_def_cfa_register 7
 578 0202 7860     		str	r0, [r7, #4]
 251:../../source/src/FWlib/src/stm32f10x_exti.c ****   /* Check the parameters */
 252:../../source/src/FWlib/src/stm32f10x_exti.c ****   assert_param(IS_EXTI_LINE(EXTI_Line));
 253:../../source/src/FWlib/src/stm32f10x_exti.c ****   
 254:../../source/src/FWlib/src/stm32f10x_exti.c ****   EXTI->PR = EXTI_Line;
 579              		.loc 1 254 0
 580 0204 034A     		ldr	r2, .L32
 581 0206 7B68     		ldr	r3, [r7, #4]
 582 0208 5361     		str	r3, [r2, #20]
 255:../../source/src/FWlib/src/stm32f10x_exti.c **** }
 583              		.loc 1 255 0
 584 020a 00BF     		nop
 585 020c 0C37     		adds	r7, r7, #12
 586              	.LCFI43:
 587              		.cfi_def_cfa_offset 4
 588 020e BD46     		mov	sp, r7
 589              	.LCFI44:
 590              		.cfi_def_cfa_register 13
 591              		@ sp needed
 592 0210 80BC     		pop	{r7}
 593              	.LCFI45:
 594              		.cfi_restore 7
 595              		.cfi_def_cfa_offset 0
ARM GAS  G:\Users\Jaxb\AppData\Local\Temp\ccPoYyub.s 			page 16


 596 0212 7047     		bx	lr
 597              	.L33:
 598              		.align	2
 599              	.L32:
 600 0214 00040140 		.word	1073808384
 601              		.cfi_endproc
 602              	.LFE36:
 603              		.size	EXTI_ClearITPendingBit, .-EXTI_ClearITPendingBit
 604              	.Letext0:
 605              		.file 2 "f:\\arm\\gcc2018\\arm-none-eabi\\include\\machine\\_default_types.h"
 606              		.file 3 "f:\\arm\\gcc2018\\arm-none-eabi\\include\\sys\\_stdint.h"
 607              		.file 4 "../../source/include/core_cm3.h"
 608              		.file 5 "../../source/include/system_stm32f10x.h"
 609              		.file 6 "../../source/include/stm32f10x.h"
 610              		.file 7 "../../source/src/FWlib/inc/stm32f10x_exti.h"
 611              		.section	.debug_info,"",%progbits
 612              	.Ldebug_info0:
 613 0000 83030000 		.4byte	0x383
 614 0004 0200     		.2byte	0x2
 615 0006 00000000 		.4byte	.Ldebug_abbrev0
 616 000a 04       		.byte	0x4
 617 000b 01       		.uleb128 0x1
 618 000c 61020000 		.4byte	.LASF45
 619 0010 0C       		.byte	0xc
 620 0011 0F030000 		.4byte	.LASF46
 621 0015 55030000 		.4byte	.LASF47
 622 0019 00000000 		.4byte	.Ltext0
 623 001d 18020000 		.4byte	.Letext0
 624 0021 00000000 		.4byte	.Ldebug_line0
 625 0025 02       		.uleb128 0x2
 626 0026 01       		.byte	0x1
 627 0027 06       		.byte	0x6
 628 0028 14000000 		.4byte	.LASF0
 629 002c 02       		.uleb128 0x2
 630 002d 01       		.byte	0x1
 631 002e 08       		.byte	0x8
 632 002f F2000000 		.4byte	.LASF1
 633 0033 02       		.uleb128 0x2
 634 0034 02       		.byte	0x2
 635 0035 05       		.byte	0x5
 636 0036 4E020000 		.4byte	.LASF2
 637 003a 02       		.uleb128 0x2
 638 003b 02       		.byte	0x2
 639 003c 07       		.byte	0x7
 640 003d 70000000 		.4byte	.LASF3
 641 0041 02       		.uleb128 0x2
 642 0042 04       		.byte	0x4
 643 0043 05       		.byte	0x5
 644 0044 DE010000 		.4byte	.LASF4
 645 0048 03       		.uleb128 0x3
 646 0049 62010000 		.4byte	.LASF9
 647 004d 02       		.byte	0x2
 648 004e 4F       		.byte	0x4f
 649 004f 53000000 		.4byte	0x53
 650 0053 02       		.uleb128 0x2
 651 0054 04       		.byte	0x4
 652 0055 07       		.byte	0x7
ARM GAS  G:\Users\Jaxb\AppData\Local\Temp\ccPoYyub.s 			page 17


 653 0056 1A010000 		.4byte	.LASF5
 654 005a 02       		.uleb128 0x2
 655 005b 08       		.byte	0x8
 656 005c 05       		.byte	0x5
 657 005d 08020000 		.4byte	.LASF6
 658 0061 02       		.uleb128 0x2
 659 0062 08       		.byte	0x8
 660 0063 07       		.byte	0x7
 661 0064 C7010000 		.4byte	.LASF7
 662 0068 04       		.uleb128 0x4
 663 0069 04       		.byte	0x4
 664 006a 05       		.byte	0x5
 665 006b 696E7400 		.ascii	"int\000"
 666 006f 05       		.uleb128 0x5
 667 0070 68000000 		.4byte	0x68
 668 0074 02       		.uleb128 0x2
 669 0075 04       		.byte	0x4
 670 0076 07       		.byte	0x7
 671 0077 9D010000 		.4byte	.LASF8
 672 007b 03       		.uleb128 0x3
 673 007c 58020000 		.4byte	.LASF10
 674 0080 03       		.byte	0x3
 675 0081 30       		.byte	0x30
 676 0082 48000000 		.4byte	0x48
 677 0086 05       		.uleb128 0x5
 678 0087 7B000000 		.4byte	0x7b
 679 008b 06       		.uleb128 0x6
 680 008c 50010000 		.4byte	.LASF11
 681 0090 04       		.byte	0x4
 682 0091 CE06     		.2byte	0x6ce
 683 0093 6F000000 		.4byte	0x6f
 684 0097 01       		.byte	0x1
 685 0098 01       		.byte	0x1
 686 0099 07       		.uleb128 0x7
 687 009a 16020000 		.4byte	.LASF12
 688 009e 05       		.byte	0x5
 689 009f 35       		.byte	0x35
 690 00a0 7B000000 		.4byte	0x7b
 691 00a4 01       		.byte	0x1
 692 00a5 01       		.byte	0x1
 693 00a6 08       		.uleb128 0x8
 694 00a7 07       		.byte	0x7
 695 00a8 01       		.byte	0x1
 696 00a9 2C000000 		.4byte	0x2c
 697 00ad 06       		.byte	0x6
 698 00ae 0702     		.2byte	0x207
 699 00b0 C1000000 		.4byte	0xc1
 700 00b4 09       		.uleb128 0x9
 701 00b5 2C010000 		.4byte	.LASF13
 702 00b9 00       		.byte	0
 703 00ba 0A       		.uleb128 0xa
 704 00bb 53455400 		.ascii	"SET\000"
 705 00bf 01       		.byte	0x1
 706 00c0 00       		.byte	0
 707 00c1 0B       		.uleb128 0xb
 708 00c2 00010000 		.4byte	.LASF14
 709 00c6 06       		.byte	0x6
ARM GAS  G:\Users\Jaxb\AppData\Local\Temp\ccPoYyub.s 			page 18


 710 00c7 0702     		.2byte	0x207
 711 00c9 A6000000 		.4byte	0xa6
 712 00cd 0B       		.uleb128 0xb
 713 00ce 20000000 		.4byte	.LASF15
 714 00d2 06       		.byte	0x6
 715 00d3 0702     		.2byte	0x207
 716 00d5 A6000000 		.4byte	0xa6
 717 00d9 08       		.uleb128 0x8
 718 00da 07       		.byte	0x7
 719 00db 01       		.byte	0x1
 720 00dc 2C000000 		.4byte	0x2c
 721 00e0 06       		.byte	0x6
 722 00e1 0902     		.2byte	0x209
 723 00e3 F4000000 		.4byte	0xf4
 724 00e7 09       		.uleb128 0x9
 725 00e8 07030000 		.4byte	.LASF16
 726 00ec 00       		.byte	0
 727 00ed 09       		.uleb128 0x9
 728 00ee EB000000 		.4byte	.LASF17
 729 00f2 01       		.byte	0x1
 730 00f3 00       		.byte	0
 731 00f4 0B       		.uleb128 0xb
 732 00f5 97000000 		.4byte	.LASF18
 733 00f9 06       		.byte	0x6
 734 00fa 0902     		.2byte	0x209
 735 00fc D9000000 		.4byte	0xd9
 736 0100 0C       		.uleb128 0xc
 737 0101 18       		.byte	0x18
 738 0102 06       		.byte	0x6
 739 0103 7703     		.2byte	0x377
 740 0105 63010000 		.4byte	0x163
 741 0109 0D       		.uleb128 0xd
 742 010a 494D5200 		.ascii	"IMR\000"
 743 010e 06       		.byte	0x6
 744 010f 7903     		.2byte	0x379
 745 0111 86000000 		.4byte	0x86
 746 0115 02       		.byte	0x2
 747 0116 23       		.byte	0x23
 748 0117 00       		.uleb128 0
 749 0118 0D       		.uleb128 0xd
 750 0119 454D5200 		.ascii	"EMR\000"
 751 011d 06       		.byte	0x6
 752 011e 7A03     		.2byte	0x37a
 753 0120 86000000 		.4byte	0x86
 754 0124 02       		.byte	0x2
 755 0125 23       		.byte	0x23
 756 0126 04       		.uleb128 0x4
 757 0127 0E       		.uleb128 0xe
 758 0128 5D010000 		.4byte	.LASF19
 759 012c 06       		.byte	0x6
 760 012d 7B03     		.2byte	0x37b
 761 012f 86000000 		.4byte	0x86
 762 0133 02       		.byte	0x2
 763 0134 23       		.byte	0x23
 764 0135 08       		.uleb128 0x8
 765 0136 0E       		.uleb128 0xe
 766 0137 83030000 		.4byte	.LASF20
ARM GAS  G:\Users\Jaxb\AppData\Local\Temp\ccPoYyub.s 			page 19


 767 013b 06       		.byte	0x6
 768 013c 7C03     		.2byte	0x37c
 769 013e 86000000 		.4byte	0x86
 770 0142 02       		.byte	0x2
 771 0143 23       		.byte	0x23
 772 0144 0C       		.uleb128 0xc
 773 0145 0E       		.uleb128 0xe
 774 0146 4F030000 		.4byte	.LASF21
 775 014a 06       		.byte	0x6
 776 014b 7D03     		.2byte	0x37d
 777 014d 86000000 		.4byte	0x86
 778 0151 02       		.byte	0x2
 779 0152 23       		.byte	0x23
 780 0153 10       		.uleb128 0x10
 781 0154 0D       		.uleb128 0xd
 782 0155 505200   		.ascii	"PR\000"
 783 0158 06       		.byte	0x6
 784 0159 7E03     		.2byte	0x37e
 785 015b 86000000 		.4byte	0x86
 786 015f 02       		.byte	0x2
 787 0160 23       		.byte	0x23
 788 0161 14       		.uleb128 0x14
 789 0162 00       		.byte	0
 790 0163 0B       		.uleb128 0xb
 791 0164 43010000 		.4byte	.LASF22
 792 0168 06       		.byte	0x6
 793 0169 7F03     		.2byte	0x37f
 794 016b 00010000 		.4byte	0x100
 795 016f 0F       		.uleb128 0xf
 796 0170 07       		.byte	0x7
 797 0171 01       		.byte	0x1
 798 0172 2C000000 		.4byte	0x2c
 799 0176 07       		.byte	0x7
 800 0177 33       		.byte	0x33
 801 0178 89010000 		.4byte	0x189
 802 017c 09       		.uleb128 0x9
 803 017d 83000000 		.4byte	.LASF23
 804 0181 00       		.byte	0
 805 0182 09       		.uleb128 0x9
 806 0183 60000000 		.4byte	.LASF24
 807 0187 04       		.byte	0x4
 808 0188 00       		.byte	0
 809 0189 03       		.uleb128 0x3
 810 018a 32010000 		.4byte	.LASF25
 811 018e 07       		.byte	0x7
 812 018f 36       		.byte	0x36
 813 0190 6F010000 		.4byte	0x16f
 814 0194 0F       		.uleb128 0xf
 815 0195 07       		.byte	0x7
 816 0196 01       		.byte	0x1
 817 0197 2C000000 		.4byte	0x2c
 818 019b 07       		.byte	0x7
 819 019c 3F       		.byte	0x3f
 820 019d B4010000 		.4byte	0x1b4
 821 01a1 09       		.uleb128 0x9
 822 01a2 6D010000 		.4byte	.LASF26
 823 01a6 08       		.byte	0x8
ARM GAS  G:\Users\Jaxb\AppData\Local\Temp\ccPoYyub.s 			page 20


 824 01a7 09       		.uleb128 0x9
 825 01a8 F3010000 		.4byte	.LASF27
 826 01ac 0C       		.byte	0xc
 827 01ad 09       		.uleb128 0x9
 828 01ae 81010000 		.4byte	.LASF28
 829 01b2 10       		.byte	0x10
 830 01b3 00       		.byte	0
 831 01b4 03       		.uleb128 0x3
 832 01b5 3B030000 		.4byte	.LASF29
 833 01b9 07       		.byte	0x7
 834 01ba 43       		.byte	0x43
 835 01bb 94010000 		.4byte	0x194
 836 01bf 10       		.uleb128 0x10
 837 01c0 08       		.byte	0x8
 838 01c1 07       		.byte	0x7
 839 01c2 4C       		.byte	0x4c
 840 01c3 00020000 		.4byte	0x200
 841 01c7 11       		.uleb128 0x11
 842 01c8 00000000 		.4byte	.LASF30
 843 01cc 07       		.byte	0x7
 844 01cd 4E       		.byte	0x4e
 845 01ce 7B000000 		.4byte	0x7b
 846 01d2 02       		.byte	0x2
 847 01d3 23       		.byte	0x23
 848 01d4 00       		.uleb128 0
 849 01d5 11       		.uleb128 0x11
 850 01d6 0A000000 		.4byte	.LASF31
 851 01da 07       		.byte	0x7
 852 01db 51       		.byte	0x51
 853 01dc 89010000 		.4byte	0x189
 854 01e0 02       		.byte	0x2
 855 01e1 23       		.byte	0x23
 856 01e2 04       		.uleb128 0x4
 857 01e3 11       		.uleb128 0x11
 858 01e4 43000000 		.4byte	.LASF32
 859 01e8 07       		.byte	0x7
 860 01e9 54       		.byte	0x54
 861 01ea B4010000 		.4byte	0x1b4
 862 01ee 02       		.byte	0x2
 863 01ef 23       		.byte	0x23
 864 01f0 05       		.uleb128 0x5
 865 01f1 11       		.uleb128 0x11
 866 01f2 36000000 		.4byte	.LASF33
 867 01f6 07       		.byte	0x7
 868 01f7 57       		.byte	0x57
 869 01f8 F4000000 		.4byte	0xf4
 870 01fc 02       		.byte	0x2
 871 01fd 23       		.byte	0x23
 872 01fe 06       		.uleb128 0x6
 873 01ff 00       		.byte	0
 874 0200 03       		.uleb128 0x3
 875 0201 CA000000 		.4byte	.LASF34
 876 0205 07       		.byte	0x7
 877 0206 59       		.byte	0x59
 878 0207 BF010000 		.4byte	0x1bf
 879 020b 12       		.uleb128 0x12
 880 020c 01       		.byte	0x1
ARM GAS  G:\Users\Jaxb\AppData\Local\Temp\ccPoYyub.s 			page 21


 881 020d 37020000 		.4byte	.LASF37
 882 0211 01       		.byte	0x1
 883 0212 F9       		.byte	0xf9
 884 0213 01       		.byte	0x1
 885 0214 FC010000 		.4byte	.LFB36
 886 0218 18020000 		.4byte	.LFE36
 887 021c 00000000 		.4byte	.LLST7
 888 0220 01       		.byte	0x1
 889 0221 34020000 		.4byte	0x234
 890 0225 13       		.uleb128 0x13
 891 0226 00000000 		.4byte	.LASF30
 892 022a 01       		.byte	0x1
 893 022b F9       		.byte	0xf9
 894 022c 7B000000 		.4byte	0x7b
 895 0230 02       		.byte	0x2
 896 0231 91       		.byte	0x91
 897 0232 74       		.sleb128 -12
 898 0233 00       		.byte	0
 899 0234 14       		.uleb128 0x14
 900 0235 01       		.byte	0x1
 901 0236 26020000 		.4byte	.LASF39
 902 023a 01       		.byte	0x1
 903 023b E0       		.byte	0xe0
 904 023c 01       		.byte	0x1
 905 023d CD000000 		.4byte	0xcd
 906 0241 B4010000 		.4byte	.LFB35
 907 0245 FC010000 		.4byte	.LFE35
 908 0249 5C000000 		.4byte	.LLST6
 909 024d 01       		.byte	0x1
 910 024e 7D020000 		.4byte	0x27d
 911 0252 13       		.uleb128 0x13
 912 0253 00000000 		.4byte	.LASF30
 913 0257 01       		.byte	0x1
 914 0258 E0       		.byte	0xe0
 915 0259 7B000000 		.4byte	0x7b
 916 025d 02       		.byte	0x2
 917 025e 91       		.byte	0x91
 918 025f 6C       		.sleb128 -20
 919 0260 15       		.uleb128 0x15
 920 0261 A7000000 		.4byte	.LASF35
 921 0265 01       		.byte	0x1
 922 0266 E2       		.byte	0xe2
 923 0267 CD000000 		.4byte	0xcd
 924 026b 02       		.byte	0x2
 925 026c 91       		.byte	0x91
 926 026d 77       		.sleb128 -9
 927 026e 15       		.uleb128 0x15
 928 026f 29000000 		.4byte	.LASF36
 929 0273 01       		.byte	0x1
 930 0274 E3       		.byte	0xe3
 931 0275 7B000000 		.4byte	0x7b
 932 0279 02       		.byte	0x2
 933 027a 91       		.byte	0x91
 934 027b 70       		.sleb128 -16
 935 027c 00       		.byte	0
 936 027d 12       		.uleb128 0x12
 937 027e 01       		.byte	0x1
ARM GAS  G:\Users\Jaxb\AppData\Local\Temp\ccPoYyub.s 			page 22


 938 027f 0B010000 		.4byte	.LASF38
 939 0283 01       		.byte	0x1
 940 0284 D1       		.byte	0xd1
 941 0285 01       		.byte	0x1
 942 0286 98010000 		.4byte	.LFB34
 943 028a B4010000 		.4byte	.LFE34
 944 028e B8000000 		.4byte	.LLST5
 945 0292 01       		.byte	0x1
 946 0293 A6020000 		.4byte	0x2a6
 947 0297 13       		.uleb128 0x13
 948 0298 00000000 		.4byte	.LASF30
 949 029c 01       		.byte	0x1
 950 029d D1       		.byte	0xd1
 951 029e 7B000000 		.4byte	0x7b
 952 02a2 02       		.byte	0x2
 953 02a3 91       		.byte	0x91
 954 02a4 74       		.sleb128 -12
 955 02a5 00       		.byte	0
 956 02a6 14       		.uleb128 0x14
 957 02a7 01       		.byte	0x1
 958 02a8 B4010000 		.4byte	.LASF40
 959 02ac 01       		.byte	0x1
 960 02ad BA       		.byte	0xba
 961 02ae 01       		.byte	0x1
 962 02af C1000000 		.4byte	0xc1
 963 02b3 64010000 		.4byte	.LFB33
 964 02b7 98010000 		.4byte	.LFE33
 965 02bb 14010000 		.4byte	.LLST4
 966 02bf 01       		.byte	0x1
 967 02c0 E1020000 		.4byte	0x2e1
 968 02c4 13       		.uleb128 0x13
 969 02c5 00000000 		.4byte	.LASF30
 970 02c9 01       		.byte	0x1
 971 02ca BA       		.byte	0xba
 972 02cb 7B000000 		.4byte	0x7b
 973 02cf 02       		.byte	0x2
 974 02d0 91       		.byte	0x91
 975 02d1 6C       		.sleb128 -20
 976 02d2 15       		.uleb128 0x15
 977 02d3 A7000000 		.4byte	.LASF35
 978 02d7 01       		.byte	0x1
 979 02d8 BC       		.byte	0xbc
 980 02d9 C1000000 		.4byte	0xc1
 981 02dd 02       		.byte	0x2
 982 02de 91       		.byte	0x91
 983 02df 77       		.sleb128 -9
 984 02e0 00       		.byte	0
 985 02e1 12       		.uleb128 0x12
 986 02e2 01       		.byte	0x1
 987 02e3 B1000000 		.4byte	.LASF41
 988 02e7 01       		.byte	0x1
 989 02e8 AB       		.byte	0xab
 990 02e9 01       		.byte	0x1
 991 02ea 42010000 		.4byte	.LFB32
 992 02ee 64010000 		.4byte	.LFE32
 993 02f2 70010000 		.4byte	.LLST3
 994 02f6 01       		.byte	0x1
ARM GAS  G:\Users\Jaxb\AppData\Local\Temp\ccPoYyub.s 			page 23


 995 02f7 0A030000 		.4byte	0x30a
 996 02fb 13       		.uleb128 0x13
 997 02fc 00000000 		.4byte	.LASF30
 998 0300 01       		.byte	0x1
 999 0301 AB       		.byte	0xab
 1000 0302 7B000000 		.4byte	0x7b
 1001 0306 02       		.byte	0x2
 1002 0307 91       		.byte	0x91
 1003 0308 74       		.sleb128 -12
 1004 0309 00       		.byte	0
 1005 030a 12       		.uleb128 0x12
 1006 030b 01       		.byte	0x1
 1007 030c 50000000 		.4byte	.LASF42
 1008 0310 01       		.byte	0x1
 1009 0311 9D       		.byte	0x9d
 1010 0312 01       		.byte	0x1
 1011 0313 18010000 		.4byte	.LFB31
 1012 0317 42010000 		.4byte	.LFE31
 1013 031b CC010000 		.4byte	.LLST2
 1014 031f 01       		.byte	0x1
 1015 0320 33030000 		.4byte	0x333
 1016 0324 13       		.uleb128 0x13
 1017 0325 DB000000 		.4byte	.LASF43
 1018 0329 01       		.byte	0x1
 1019 032a 9D       		.byte	0x9d
 1020 032b 33030000 		.4byte	0x333
 1021 032f 02       		.byte	0x2
 1022 0330 91       		.byte	0x91
 1023 0331 74       		.sleb128 -12
 1024 0332 00       		.byte	0
 1025 0333 16       		.uleb128 0x16
 1026 0334 04       		.byte	0x4
 1027 0335 00020000 		.4byte	0x200
 1028 0339 12       		.uleb128 0x12
 1029 033a 01       		.byte	0x1
 1030 033b AA010000 		.4byte	.LASF44
 1031 033f 01       		.byte	0x1
 1032 0340 65       		.byte	0x65
 1033 0341 01       		.byte	0x1
 1034 0342 34000000 		.4byte	.LFB30
 1035 0346 18010000 		.4byte	.LFE30
 1036 034a 28020000 		.4byte	.LLST1
 1037 034e 01       		.byte	0x1
 1038 034f 70030000 		.4byte	0x370
 1039 0353 13       		.uleb128 0x13
 1040 0354 DB000000 		.4byte	.LASF43
 1041 0358 01       		.byte	0x1
 1042 0359 65       		.byte	0x65
 1043 035a 33030000 		.4byte	0x333
 1044 035e 02       		.byte	0x2
 1045 035f 91       		.byte	0x91
 1046 0360 6C       		.sleb128 -20
 1047 0361 17       		.uleb128 0x17
 1048 0362 746D7000 		.ascii	"tmp\000"
 1049 0366 01       		.byte	0x1
 1050 0367 67       		.byte	0x67
 1051 0368 7B000000 		.4byte	0x7b
ARM GAS  G:\Users\Jaxb\AppData\Local\Temp\ccPoYyub.s 			page 24


 1052 036c 02       		.byte	0x2
 1053 036d 91       		.byte	0x91
 1054 036e 74       		.sleb128 -12
 1055 036f 00       		.byte	0
 1056 0370 18       		.uleb128 0x18
 1057 0371 01       		.byte	0x1
 1058 0372 E7010000 		.4byte	.LASF48
 1059 0376 01       		.byte	0x1
 1060 0377 55       		.byte	0x55
 1061 0378 01       		.byte	0x1
 1062 0379 00000000 		.4byte	.LFB29
 1063 037d 34000000 		.4byte	.LFE29
 1064 0381 84020000 		.4byte	.LLST0
 1065 0385 01       		.byte	0x1
 1066 0386 00       		.byte	0
 1067              		.section	.debug_abbrev,"",%progbits
 1068              	.Ldebug_abbrev0:
 1069 0000 01       		.uleb128 0x1
 1070 0001 11       		.uleb128 0x11
 1071 0002 01       		.byte	0x1
 1072 0003 25       		.uleb128 0x25
 1073 0004 0E       		.uleb128 0xe
 1074 0005 13       		.uleb128 0x13
 1075 0006 0B       		.uleb128 0xb
 1076 0007 03       		.uleb128 0x3
 1077 0008 0E       		.uleb128 0xe
 1078 0009 1B       		.uleb128 0x1b
 1079 000a 0E       		.uleb128 0xe
 1080 000b 11       		.uleb128 0x11
 1081 000c 01       		.uleb128 0x1
 1082 000d 12       		.uleb128 0x12
 1083 000e 01       		.uleb128 0x1
 1084 000f 10       		.uleb128 0x10
 1085 0010 06       		.uleb128 0x6
 1086 0011 00       		.byte	0
 1087 0012 00       		.byte	0
 1088 0013 02       		.uleb128 0x2
 1089 0014 24       		.uleb128 0x24
 1090 0015 00       		.byte	0
 1091 0016 0B       		.uleb128 0xb
 1092 0017 0B       		.uleb128 0xb
 1093 0018 3E       		.uleb128 0x3e
 1094 0019 0B       		.uleb128 0xb
 1095 001a 03       		.uleb128 0x3
 1096 001b 0E       		.uleb128 0xe
 1097 001c 00       		.byte	0
 1098 001d 00       		.byte	0
 1099 001e 03       		.uleb128 0x3
 1100 001f 16       		.uleb128 0x16
 1101 0020 00       		.byte	0
 1102 0021 03       		.uleb128 0x3
 1103 0022 0E       		.uleb128 0xe
 1104 0023 3A       		.uleb128 0x3a
 1105 0024 0B       		.uleb128 0xb
 1106 0025 3B       		.uleb128 0x3b
 1107 0026 0B       		.uleb128 0xb
 1108 0027 49       		.uleb128 0x49
ARM GAS  G:\Users\Jaxb\AppData\Local\Temp\ccPoYyub.s 			page 25


 1109 0028 13       		.uleb128 0x13
 1110 0029 00       		.byte	0
 1111 002a 00       		.byte	0
 1112 002b 04       		.uleb128 0x4
 1113 002c 24       		.uleb128 0x24
 1114 002d 00       		.byte	0
 1115 002e 0B       		.uleb128 0xb
 1116 002f 0B       		.uleb128 0xb
 1117 0030 3E       		.uleb128 0x3e
 1118 0031 0B       		.uleb128 0xb
 1119 0032 03       		.uleb128 0x3
 1120 0033 08       		.uleb128 0x8
 1121 0034 00       		.byte	0
 1122 0035 00       		.byte	0
 1123 0036 05       		.uleb128 0x5
 1124 0037 35       		.uleb128 0x35
 1125 0038 00       		.byte	0
 1126 0039 49       		.uleb128 0x49
 1127 003a 13       		.uleb128 0x13
 1128 003b 00       		.byte	0
 1129 003c 00       		.byte	0
 1130 003d 06       		.uleb128 0x6
 1131 003e 34       		.uleb128 0x34
 1132 003f 00       		.byte	0
 1133 0040 03       		.uleb128 0x3
 1134 0041 0E       		.uleb128 0xe
 1135 0042 3A       		.uleb128 0x3a
 1136 0043 0B       		.uleb128 0xb
 1137 0044 3B       		.uleb128 0x3b
 1138 0045 05       		.uleb128 0x5
 1139 0046 49       		.uleb128 0x49
 1140 0047 13       		.uleb128 0x13
 1141 0048 3F       		.uleb128 0x3f
 1142 0049 0C       		.uleb128 0xc
 1143 004a 3C       		.uleb128 0x3c
 1144 004b 0C       		.uleb128 0xc
 1145 004c 00       		.byte	0
 1146 004d 00       		.byte	0
 1147 004e 07       		.uleb128 0x7
 1148 004f 34       		.uleb128 0x34
 1149 0050 00       		.byte	0
 1150 0051 03       		.uleb128 0x3
 1151 0052 0E       		.uleb128 0xe
 1152 0053 3A       		.uleb128 0x3a
 1153 0054 0B       		.uleb128 0xb
 1154 0055 3B       		.uleb128 0x3b
 1155 0056 0B       		.uleb128 0xb
 1156 0057 49       		.uleb128 0x49
 1157 0058 13       		.uleb128 0x13
 1158 0059 3F       		.uleb128 0x3f
 1159 005a 0C       		.uleb128 0xc
 1160 005b 3C       		.uleb128 0x3c
 1161 005c 0C       		.uleb128 0xc
 1162 005d 00       		.byte	0
 1163 005e 00       		.byte	0
 1164 005f 08       		.uleb128 0x8
 1165 0060 04       		.uleb128 0x4
ARM GAS  G:\Users\Jaxb\AppData\Local\Temp\ccPoYyub.s 			page 26


 1166 0061 01       		.byte	0x1
 1167 0062 3E       		.uleb128 0x3e
 1168 0063 0B       		.uleb128 0xb
 1169 0064 0B       		.uleb128 0xb
 1170 0065 0B       		.uleb128 0xb
 1171 0066 49       		.uleb128 0x49
 1172 0067 13       		.uleb128 0x13
 1173 0068 3A       		.uleb128 0x3a
 1174 0069 0B       		.uleb128 0xb
 1175 006a 3B       		.uleb128 0x3b
 1176 006b 05       		.uleb128 0x5
 1177 006c 01       		.uleb128 0x1
 1178 006d 13       		.uleb128 0x13
 1179 006e 00       		.byte	0
 1180 006f 00       		.byte	0
 1181 0070 09       		.uleb128 0x9
 1182 0071 28       		.uleb128 0x28
 1183 0072 00       		.byte	0
 1184 0073 03       		.uleb128 0x3
 1185 0074 0E       		.uleb128 0xe
 1186 0075 1C       		.uleb128 0x1c
 1187 0076 0B       		.uleb128 0xb
 1188 0077 00       		.byte	0
 1189 0078 00       		.byte	0
 1190 0079 0A       		.uleb128 0xa
 1191 007a 28       		.uleb128 0x28
 1192 007b 00       		.byte	0
 1193 007c 03       		.uleb128 0x3
 1194 007d 08       		.uleb128 0x8
 1195 007e 1C       		.uleb128 0x1c
 1196 007f 0B       		.uleb128 0xb
 1197 0080 00       		.byte	0
 1198 0081 00       		.byte	0
 1199 0082 0B       		.uleb128 0xb
 1200 0083 16       		.uleb128 0x16
 1201 0084 00       		.byte	0
 1202 0085 03       		.uleb128 0x3
 1203 0086 0E       		.uleb128 0xe
 1204 0087 3A       		.uleb128 0x3a
 1205 0088 0B       		.uleb128 0xb
 1206 0089 3B       		.uleb128 0x3b
 1207 008a 05       		.uleb128 0x5
 1208 008b 49       		.uleb128 0x49
 1209 008c 13       		.uleb128 0x13
 1210 008d 00       		.byte	0
 1211 008e 00       		.byte	0
 1212 008f 0C       		.uleb128 0xc
 1213 0090 13       		.uleb128 0x13
 1214 0091 01       		.byte	0x1
 1215 0092 0B       		.uleb128 0xb
 1216 0093 0B       		.uleb128 0xb
 1217 0094 3A       		.uleb128 0x3a
 1218 0095 0B       		.uleb128 0xb
 1219 0096 3B       		.uleb128 0x3b
 1220 0097 05       		.uleb128 0x5
 1221 0098 01       		.uleb128 0x1
 1222 0099 13       		.uleb128 0x13
ARM GAS  G:\Users\Jaxb\AppData\Local\Temp\ccPoYyub.s 			page 27


 1223 009a 00       		.byte	0
 1224 009b 00       		.byte	0
 1225 009c 0D       		.uleb128 0xd
 1226 009d 0D       		.uleb128 0xd
 1227 009e 00       		.byte	0
 1228 009f 03       		.uleb128 0x3
 1229 00a0 08       		.uleb128 0x8
 1230 00a1 3A       		.uleb128 0x3a
 1231 00a2 0B       		.uleb128 0xb
 1232 00a3 3B       		.uleb128 0x3b
 1233 00a4 05       		.uleb128 0x5
 1234 00a5 49       		.uleb128 0x49
 1235 00a6 13       		.uleb128 0x13
 1236 00a7 38       		.uleb128 0x38
 1237 00a8 0A       		.uleb128 0xa
 1238 00a9 00       		.byte	0
 1239 00aa 00       		.byte	0
 1240 00ab 0E       		.uleb128 0xe
 1241 00ac 0D       		.uleb128 0xd
 1242 00ad 00       		.byte	0
 1243 00ae 03       		.uleb128 0x3
 1244 00af 0E       		.uleb128 0xe
 1245 00b0 3A       		.uleb128 0x3a
 1246 00b1 0B       		.uleb128 0xb
 1247 00b2 3B       		.uleb128 0x3b
 1248 00b3 05       		.uleb128 0x5
 1249 00b4 49       		.uleb128 0x49
 1250 00b5 13       		.uleb128 0x13
 1251 00b6 38       		.uleb128 0x38
 1252 00b7 0A       		.uleb128 0xa
 1253 00b8 00       		.byte	0
 1254 00b9 00       		.byte	0
 1255 00ba 0F       		.uleb128 0xf
 1256 00bb 04       		.uleb128 0x4
 1257 00bc 01       		.byte	0x1
 1258 00bd 3E       		.uleb128 0x3e
 1259 00be 0B       		.uleb128 0xb
 1260 00bf 0B       		.uleb128 0xb
 1261 00c0 0B       		.uleb128 0xb
 1262 00c1 49       		.uleb128 0x49
 1263 00c2 13       		.uleb128 0x13
 1264 00c3 3A       		.uleb128 0x3a
 1265 00c4 0B       		.uleb128 0xb
 1266 00c5 3B       		.uleb128 0x3b
 1267 00c6 0B       		.uleb128 0xb
 1268 00c7 01       		.uleb128 0x1
 1269 00c8 13       		.uleb128 0x13
 1270 00c9 00       		.byte	0
 1271 00ca 00       		.byte	0
 1272 00cb 10       		.uleb128 0x10
 1273 00cc 13       		.uleb128 0x13
 1274 00cd 01       		.byte	0x1
 1275 00ce 0B       		.uleb128 0xb
 1276 00cf 0B       		.uleb128 0xb
 1277 00d0 3A       		.uleb128 0x3a
 1278 00d1 0B       		.uleb128 0xb
 1279 00d2 3B       		.uleb128 0x3b
ARM GAS  G:\Users\Jaxb\AppData\Local\Temp\ccPoYyub.s 			page 28


 1280 00d3 0B       		.uleb128 0xb
 1281 00d4 01       		.uleb128 0x1
 1282 00d5 13       		.uleb128 0x13
 1283 00d6 00       		.byte	0
 1284 00d7 00       		.byte	0
 1285 00d8 11       		.uleb128 0x11
 1286 00d9 0D       		.uleb128 0xd
 1287 00da 00       		.byte	0
 1288 00db 03       		.uleb128 0x3
 1289 00dc 0E       		.uleb128 0xe
 1290 00dd 3A       		.uleb128 0x3a
 1291 00de 0B       		.uleb128 0xb
 1292 00df 3B       		.uleb128 0x3b
 1293 00e0 0B       		.uleb128 0xb
 1294 00e1 49       		.uleb128 0x49
 1295 00e2 13       		.uleb128 0x13
 1296 00e3 38       		.uleb128 0x38
 1297 00e4 0A       		.uleb128 0xa
 1298 00e5 00       		.byte	0
 1299 00e6 00       		.byte	0
 1300 00e7 12       		.uleb128 0x12
 1301 00e8 2E       		.uleb128 0x2e
 1302 00e9 01       		.byte	0x1
 1303 00ea 3F       		.uleb128 0x3f
 1304 00eb 0C       		.uleb128 0xc
 1305 00ec 03       		.uleb128 0x3
 1306 00ed 0E       		.uleb128 0xe
 1307 00ee 3A       		.uleb128 0x3a
 1308 00ef 0B       		.uleb128 0xb
 1309 00f0 3B       		.uleb128 0x3b
 1310 00f1 0B       		.uleb128 0xb
 1311 00f2 27       		.uleb128 0x27
 1312 00f3 0C       		.uleb128 0xc
 1313 00f4 11       		.uleb128 0x11
 1314 00f5 01       		.uleb128 0x1
 1315 00f6 12       		.uleb128 0x12
 1316 00f7 01       		.uleb128 0x1
 1317 00f8 40       		.uleb128 0x40
 1318 00f9 06       		.uleb128 0x6
 1319 00fa 9742     		.uleb128 0x2117
 1320 00fc 0C       		.uleb128 0xc
 1321 00fd 01       		.uleb128 0x1
 1322 00fe 13       		.uleb128 0x13
 1323 00ff 00       		.byte	0
 1324 0100 00       		.byte	0
 1325 0101 13       		.uleb128 0x13
 1326 0102 05       		.uleb128 0x5
 1327 0103 00       		.byte	0
 1328 0104 03       		.uleb128 0x3
 1329 0105 0E       		.uleb128 0xe
 1330 0106 3A       		.uleb128 0x3a
 1331 0107 0B       		.uleb128 0xb
 1332 0108 3B       		.uleb128 0x3b
 1333 0109 0B       		.uleb128 0xb
 1334 010a 49       		.uleb128 0x49
 1335 010b 13       		.uleb128 0x13
 1336 010c 02       		.uleb128 0x2
ARM GAS  G:\Users\Jaxb\AppData\Local\Temp\ccPoYyub.s 			page 29


 1337 010d 0A       		.uleb128 0xa
 1338 010e 00       		.byte	0
 1339 010f 00       		.byte	0
 1340 0110 14       		.uleb128 0x14
 1341 0111 2E       		.uleb128 0x2e
 1342 0112 01       		.byte	0x1
 1343 0113 3F       		.uleb128 0x3f
 1344 0114 0C       		.uleb128 0xc
 1345 0115 03       		.uleb128 0x3
 1346 0116 0E       		.uleb128 0xe
 1347 0117 3A       		.uleb128 0x3a
 1348 0118 0B       		.uleb128 0xb
 1349 0119 3B       		.uleb128 0x3b
 1350 011a 0B       		.uleb128 0xb
 1351 011b 27       		.uleb128 0x27
 1352 011c 0C       		.uleb128 0xc
 1353 011d 49       		.uleb128 0x49
 1354 011e 13       		.uleb128 0x13
 1355 011f 11       		.uleb128 0x11
 1356 0120 01       		.uleb128 0x1
 1357 0121 12       		.uleb128 0x12
 1358 0122 01       		.uleb128 0x1
 1359 0123 40       		.uleb128 0x40
 1360 0124 06       		.uleb128 0x6
 1361 0125 9742     		.uleb128 0x2117
 1362 0127 0C       		.uleb128 0xc
 1363 0128 01       		.uleb128 0x1
 1364 0129 13       		.uleb128 0x13
 1365 012a 00       		.byte	0
 1366 012b 00       		.byte	0
 1367 012c 15       		.uleb128 0x15
 1368 012d 34       		.uleb128 0x34
 1369 012e 00       		.byte	0
 1370 012f 03       		.uleb128 0x3
 1371 0130 0E       		.uleb128 0xe
 1372 0131 3A       		.uleb128 0x3a
 1373 0132 0B       		.uleb128 0xb
 1374 0133 3B       		.uleb128 0x3b
 1375 0134 0B       		.uleb128 0xb
 1376 0135 49       		.uleb128 0x49
 1377 0136 13       		.uleb128 0x13
 1378 0137 02       		.uleb128 0x2
 1379 0138 0A       		.uleb128 0xa
 1380 0139 00       		.byte	0
 1381 013a 00       		.byte	0
 1382 013b 16       		.uleb128 0x16
 1383 013c 0F       		.uleb128 0xf
 1384 013d 00       		.byte	0
 1385 013e 0B       		.uleb128 0xb
 1386 013f 0B       		.uleb128 0xb
 1387 0140 49       		.uleb128 0x49
 1388 0141 13       		.uleb128 0x13
 1389 0142 00       		.byte	0
 1390 0143 00       		.byte	0
 1391 0144 17       		.uleb128 0x17
 1392 0145 34       		.uleb128 0x34
 1393 0146 00       		.byte	0
ARM GAS  G:\Users\Jaxb\AppData\Local\Temp\ccPoYyub.s 			page 30


 1394 0147 03       		.uleb128 0x3
 1395 0148 08       		.uleb128 0x8
 1396 0149 3A       		.uleb128 0x3a
 1397 014a 0B       		.uleb128 0xb
 1398 014b 3B       		.uleb128 0x3b
 1399 014c 0B       		.uleb128 0xb
 1400 014d 49       		.uleb128 0x49
 1401 014e 13       		.uleb128 0x13
 1402 014f 02       		.uleb128 0x2
 1403 0150 0A       		.uleb128 0xa
 1404 0151 00       		.byte	0
 1405 0152 00       		.byte	0
 1406 0153 18       		.uleb128 0x18
 1407 0154 2E       		.uleb128 0x2e
 1408 0155 00       		.byte	0
 1409 0156 3F       		.uleb128 0x3f
 1410 0157 0C       		.uleb128 0xc
 1411 0158 03       		.uleb128 0x3
 1412 0159 0E       		.uleb128 0xe
 1413 015a 3A       		.uleb128 0x3a
 1414 015b 0B       		.uleb128 0xb
 1415 015c 3B       		.uleb128 0x3b
 1416 015d 0B       		.uleb128 0xb
 1417 015e 27       		.uleb128 0x27
 1418 015f 0C       		.uleb128 0xc
 1419 0160 11       		.uleb128 0x11
 1420 0161 01       		.uleb128 0x1
 1421 0162 12       		.uleb128 0x12
 1422 0163 01       		.uleb128 0x1
 1423 0164 40       		.uleb128 0x40
 1424 0165 06       		.uleb128 0x6
 1425 0166 9742     		.uleb128 0x2117
 1426 0168 0C       		.uleb128 0xc
 1427 0169 00       		.byte	0
 1428 016a 00       		.byte	0
 1429 016b 00       		.byte	0
 1430              		.section	.debug_loc,"",%progbits
 1431              	.Ldebug_loc0:
 1432              	.LLST7:
 1433 0000 FC010000 		.4byte	.LFB36-.Ltext0
 1434 0004 FE010000 		.4byte	.LCFI40-.Ltext0
 1435 0008 0200     		.2byte	0x2
 1436 000a 7D       		.byte	0x7d
 1437 000b 00       		.sleb128 0
 1438 000c FE010000 		.4byte	.LCFI40-.Ltext0
 1439 0010 00020000 		.4byte	.LCFI41-.Ltext0
 1440 0014 0200     		.2byte	0x2
 1441 0016 7D       		.byte	0x7d
 1442 0017 04       		.sleb128 4
 1443 0018 00020000 		.4byte	.LCFI41-.Ltext0
 1444 001c 02020000 		.4byte	.LCFI42-.Ltext0
 1445 0020 0200     		.2byte	0x2
 1446 0022 7D       		.byte	0x7d
 1447 0023 10       		.sleb128 16
 1448 0024 02020000 		.4byte	.LCFI42-.Ltext0
 1449 0028 0E020000 		.4byte	.LCFI43-.Ltext0
 1450 002c 0200     		.2byte	0x2
ARM GAS  G:\Users\Jaxb\AppData\Local\Temp\ccPoYyub.s 			page 31


 1451 002e 77       		.byte	0x77
 1452 002f 10       		.sleb128 16
 1453 0030 0E020000 		.4byte	.LCFI43-.Ltext0
 1454 0034 10020000 		.4byte	.LCFI44-.Ltext0
 1455 0038 0200     		.2byte	0x2
 1456 003a 77       		.byte	0x77
 1457 003b 04       		.sleb128 4
 1458 003c 10020000 		.4byte	.LCFI44-.Ltext0
 1459 0040 12020000 		.4byte	.LCFI45-.Ltext0
 1460 0044 0200     		.2byte	0x2
 1461 0046 7D       		.byte	0x7d
 1462 0047 04       		.sleb128 4
 1463 0048 12020000 		.4byte	.LCFI45-.Ltext0
 1464 004c 18020000 		.4byte	.LFE36-.Ltext0
 1465 0050 0200     		.2byte	0x2
 1466 0052 7D       		.byte	0x7d
 1467 0053 00       		.sleb128 0
 1468 0054 00000000 		.4byte	0
 1469 0058 00000000 		.4byte	0
 1470              	.LLST6:
 1471 005c B4010000 		.4byte	.LFB35-.Ltext0
 1472 0060 B6010000 		.4byte	.LCFI34-.Ltext0
 1473 0064 0200     		.2byte	0x2
 1474 0066 7D       		.byte	0x7d
 1475 0067 00       		.sleb128 0
 1476 0068 B6010000 		.4byte	.LCFI34-.Ltext0
 1477 006c B8010000 		.4byte	.LCFI35-.Ltext0
 1478 0070 0200     		.2byte	0x2
 1479 0072 7D       		.byte	0x7d
 1480 0073 04       		.sleb128 4
 1481 0074 B8010000 		.4byte	.LCFI35-.Ltext0
 1482 0078 BA010000 		.4byte	.LCFI36-.Ltext0
 1483 007c 0200     		.2byte	0x2
 1484 007e 7D       		.byte	0x7d
 1485 007f 18       		.sleb128 24
 1486 0080 BA010000 		.4byte	.LCFI36-.Ltext0
 1487 0084 F0010000 		.4byte	.LCFI37-.Ltext0
 1488 0088 0200     		.2byte	0x2
 1489 008a 77       		.byte	0x77
 1490 008b 18       		.sleb128 24
 1491 008c F0010000 		.4byte	.LCFI37-.Ltext0
 1492 0090 F2010000 		.4byte	.LCFI38-.Ltext0
 1493 0094 0200     		.2byte	0x2
 1494 0096 77       		.byte	0x77
 1495 0097 04       		.sleb128 4
 1496 0098 F2010000 		.4byte	.LCFI38-.Ltext0
 1497 009c F4010000 		.4byte	.LCFI39-.Ltext0
 1498 00a0 0200     		.2byte	0x2
 1499 00a2 7D       		.byte	0x7d
 1500 00a3 04       		.sleb128 4
 1501 00a4 F4010000 		.4byte	.LCFI39-.Ltext0
 1502 00a8 FC010000 		.4byte	.LFE35-.Ltext0
 1503 00ac 0200     		.2byte	0x2
 1504 00ae 7D       		.byte	0x7d
 1505 00af 00       		.sleb128 0
 1506 00b0 00000000 		.4byte	0
 1507 00b4 00000000 		.4byte	0
ARM GAS  G:\Users\Jaxb\AppData\Local\Temp\ccPoYyub.s 			page 32


 1508              	.LLST5:
 1509 00b8 98010000 		.4byte	.LFB34-.Ltext0
 1510 00bc 9A010000 		.4byte	.LCFI28-.Ltext0
 1511 00c0 0200     		.2byte	0x2
 1512 00c2 7D       		.byte	0x7d
 1513 00c3 00       		.sleb128 0
 1514 00c4 9A010000 		.4byte	.LCFI28-.Ltext0
 1515 00c8 9C010000 		.4byte	.LCFI29-.Ltext0
 1516 00cc 0200     		.2byte	0x2
 1517 00ce 7D       		.byte	0x7d
 1518 00cf 04       		.sleb128 4
 1519 00d0 9C010000 		.4byte	.LCFI29-.Ltext0
 1520 00d4 9E010000 		.4byte	.LCFI30-.Ltext0
 1521 00d8 0200     		.2byte	0x2
 1522 00da 7D       		.byte	0x7d
 1523 00db 10       		.sleb128 16
 1524 00dc 9E010000 		.4byte	.LCFI30-.Ltext0
 1525 00e0 AA010000 		.4byte	.LCFI31-.Ltext0
 1526 00e4 0200     		.2byte	0x2
 1527 00e6 77       		.byte	0x77
 1528 00e7 10       		.sleb128 16
 1529 00e8 AA010000 		.4byte	.LCFI31-.Ltext0
 1530 00ec AC010000 		.4byte	.LCFI32-.Ltext0
 1531 00f0 0200     		.2byte	0x2
 1532 00f2 77       		.byte	0x77
 1533 00f3 04       		.sleb128 4
 1534 00f4 AC010000 		.4byte	.LCFI32-.Ltext0
 1535 00f8 AE010000 		.4byte	.LCFI33-.Ltext0
 1536 00fc 0200     		.2byte	0x2
 1537 00fe 7D       		.byte	0x7d
 1538 00ff 04       		.sleb128 4
 1539 0100 AE010000 		.4byte	.LCFI33-.Ltext0
 1540 0104 B4010000 		.4byte	.LFE34-.Ltext0
 1541 0108 0200     		.2byte	0x2
 1542 010a 7D       		.byte	0x7d
 1543 010b 00       		.sleb128 0
 1544 010c 00000000 		.4byte	0
 1545 0110 00000000 		.4byte	0
 1546              	.LLST4:
 1547 0114 64010000 		.4byte	.LFB33-.Ltext0
 1548 0118 66010000 		.4byte	.LCFI22-.Ltext0
 1549 011c 0200     		.2byte	0x2
 1550 011e 7D       		.byte	0x7d
 1551 011f 00       		.sleb128 0
 1552 0120 66010000 		.4byte	.LCFI22-.Ltext0
 1553 0124 68010000 		.4byte	.LCFI23-.Ltext0
 1554 0128 0200     		.2byte	0x2
 1555 012a 7D       		.byte	0x7d
 1556 012b 04       		.sleb128 4
 1557 012c 68010000 		.4byte	.LCFI23-.Ltext0
 1558 0130 6A010000 		.4byte	.LCFI24-.Ltext0
 1559 0134 0200     		.2byte	0x2
 1560 0136 7D       		.byte	0x7d
 1561 0137 18       		.sleb128 24
 1562 0138 6A010000 		.4byte	.LCFI24-.Ltext0
 1563 013c 8C010000 		.4byte	.LCFI25-.Ltext0
 1564 0140 0200     		.2byte	0x2
ARM GAS  G:\Users\Jaxb\AppData\Local\Temp\ccPoYyub.s 			page 33


 1565 0142 77       		.byte	0x77
 1566 0143 18       		.sleb128 24
 1567 0144 8C010000 		.4byte	.LCFI25-.Ltext0
 1568 0148 8E010000 		.4byte	.LCFI26-.Ltext0
 1569 014c 0200     		.2byte	0x2
 1570 014e 77       		.byte	0x77
 1571 014f 04       		.sleb128 4
 1572 0150 8E010000 		.4byte	.LCFI26-.Ltext0
 1573 0154 90010000 		.4byte	.LCFI27-.Ltext0
 1574 0158 0200     		.2byte	0x2
 1575 015a 7D       		.byte	0x7d
 1576 015b 04       		.sleb128 4
 1577 015c 90010000 		.4byte	.LCFI27-.Ltext0
 1578 0160 98010000 		.4byte	.LFE33-.Ltext0
 1579 0164 0200     		.2byte	0x2
 1580 0166 7D       		.byte	0x7d
 1581 0167 00       		.sleb128 0
 1582 0168 00000000 		.4byte	0
 1583 016c 00000000 		.4byte	0
 1584              	.LLST3:
 1585 0170 42010000 		.4byte	.LFB32-.Ltext0
 1586 0174 44010000 		.4byte	.LCFI16-.Ltext0
 1587 0178 0200     		.2byte	0x2
 1588 017a 7D       		.byte	0x7d
 1589 017b 00       		.sleb128 0
 1590 017c 44010000 		.4byte	.LCFI16-.Ltext0
 1591 0180 46010000 		.4byte	.LCFI17-.Ltext0
 1592 0184 0200     		.2byte	0x2
 1593 0186 7D       		.byte	0x7d
 1594 0187 04       		.sleb128 4
 1595 0188 46010000 		.4byte	.LCFI17-.Ltext0
 1596 018c 48010000 		.4byte	.LCFI18-.Ltext0
 1597 0190 0200     		.2byte	0x2
 1598 0192 7D       		.byte	0x7d
 1599 0193 10       		.sleb128 16
 1600 0194 48010000 		.4byte	.LCFI18-.Ltext0
 1601 0198 5A010000 		.4byte	.LCFI19-.Ltext0
 1602 019c 0200     		.2byte	0x2
 1603 019e 77       		.byte	0x77
 1604 019f 10       		.sleb128 16
 1605 01a0 5A010000 		.4byte	.LCFI19-.Ltext0
 1606 01a4 5C010000 		.4byte	.LCFI20-.Ltext0
 1607 01a8 0200     		.2byte	0x2
 1608 01aa 77       		.byte	0x77
 1609 01ab 04       		.sleb128 4
 1610 01ac 5C010000 		.4byte	.LCFI20-.Ltext0
 1611 01b0 5E010000 		.4byte	.LCFI21-.Ltext0
 1612 01b4 0200     		.2byte	0x2
 1613 01b6 7D       		.byte	0x7d
 1614 01b7 04       		.sleb128 4
 1615 01b8 5E010000 		.4byte	.LCFI21-.Ltext0
 1616 01bc 64010000 		.4byte	.LFE32-.Ltext0
 1617 01c0 0200     		.2byte	0x2
 1618 01c2 7D       		.byte	0x7d
 1619 01c3 00       		.sleb128 0
 1620 01c4 00000000 		.4byte	0
 1621 01c8 00000000 		.4byte	0
ARM GAS  G:\Users\Jaxb\AppData\Local\Temp\ccPoYyub.s 			page 34


 1622              	.LLST2:
 1623 01cc 18010000 		.4byte	.LFB31-.Ltext0
 1624 01d0 1A010000 		.4byte	.LCFI10-.Ltext0
 1625 01d4 0200     		.2byte	0x2
 1626 01d6 7D       		.byte	0x7d
 1627 01d7 00       		.sleb128 0
 1628 01d8 1A010000 		.4byte	.LCFI10-.Ltext0
 1629 01dc 1C010000 		.4byte	.LCFI11-.Ltext0
 1630 01e0 0200     		.2byte	0x2
 1631 01e2 7D       		.byte	0x7d
 1632 01e3 04       		.sleb128 4
 1633 01e4 1C010000 		.4byte	.LCFI11-.Ltext0
 1634 01e8 1E010000 		.4byte	.LCFI12-.Ltext0
 1635 01ec 0200     		.2byte	0x2
 1636 01ee 7D       		.byte	0x7d
 1637 01ef 10       		.sleb128 16
 1638 01f0 1E010000 		.4byte	.LCFI12-.Ltext0
 1639 01f4 3C010000 		.4byte	.LCFI13-.Ltext0
 1640 01f8 0200     		.2byte	0x2
 1641 01fa 77       		.byte	0x77
 1642 01fb 10       		.sleb128 16
 1643 01fc 3C010000 		.4byte	.LCFI13-.Ltext0
 1644 0200 3E010000 		.4byte	.LCFI14-.Ltext0
 1645 0204 0200     		.2byte	0x2
 1646 0206 77       		.byte	0x77
 1647 0207 04       		.sleb128 4
 1648 0208 3E010000 		.4byte	.LCFI14-.Ltext0
 1649 020c 40010000 		.4byte	.LCFI15-.Ltext0
 1650 0210 0200     		.2byte	0x2
 1651 0212 7D       		.byte	0x7d
 1652 0213 04       		.sleb128 4
 1653 0214 40010000 		.4byte	.LCFI15-.Ltext0
 1654 0218 42010000 		.4byte	.LFE31-.Ltext0
 1655 021c 0200     		.2byte	0x2
 1656 021e 7D       		.byte	0x7d
 1657 021f 00       		.sleb128 0
 1658 0220 00000000 		.4byte	0
 1659 0224 00000000 		.4byte	0
 1660              	.LLST1:
 1661 0228 34000000 		.4byte	.LFB30-.Ltext0
 1662 022c 36000000 		.4byte	.LCFI4-.Ltext0
 1663 0230 0200     		.2byte	0x2
 1664 0232 7D       		.byte	0x7d
 1665 0233 00       		.sleb128 0
 1666 0234 36000000 		.4byte	.LCFI4-.Ltext0
 1667 0238 38000000 		.4byte	.LCFI5-.Ltext0
 1668 023c 0200     		.2byte	0x2
 1669 023e 7D       		.byte	0x7d
 1670 023f 04       		.sleb128 4
 1671 0240 38000000 		.4byte	.LCFI5-.Ltext0
 1672 0244 3A000000 		.4byte	.LCFI6-.Ltext0
 1673 0248 0200     		.2byte	0x2
 1674 024a 7D       		.byte	0x7d
 1675 024b 18       		.sleb128 24
 1676 024c 3A000000 		.4byte	.LCFI6-.Ltext0
 1677 0250 0C010000 		.4byte	.LCFI7-.Ltext0
 1678 0254 0200     		.2byte	0x2
ARM GAS  G:\Users\Jaxb\AppData\Local\Temp\ccPoYyub.s 			page 35


 1679 0256 77       		.byte	0x77
 1680 0257 18       		.sleb128 24
 1681 0258 0C010000 		.4byte	.LCFI7-.Ltext0
 1682 025c 0E010000 		.4byte	.LCFI8-.Ltext0
 1683 0260 0200     		.2byte	0x2
 1684 0262 77       		.byte	0x77
 1685 0263 04       		.sleb128 4
 1686 0264 0E010000 		.4byte	.LCFI8-.Ltext0
 1687 0268 10010000 		.4byte	.LCFI9-.Ltext0
 1688 026c 0200     		.2byte	0x2
 1689 026e 7D       		.byte	0x7d
 1690 026f 04       		.sleb128 4
 1691 0270 10010000 		.4byte	.LCFI9-.Ltext0
 1692 0274 18010000 		.4byte	.LFE30-.Ltext0
 1693 0278 0200     		.2byte	0x2
 1694 027a 7D       		.byte	0x7d
 1695 027b 00       		.sleb128 0
 1696 027c 00000000 		.4byte	0
 1697 0280 00000000 		.4byte	0
 1698              	.LLST0:
 1699 0284 00000000 		.4byte	.LFB29-.Ltext0
 1700 0288 02000000 		.4byte	.LCFI0-.Ltext0
 1701 028c 0200     		.2byte	0x2
 1702 028e 7D       		.byte	0x7d
 1703 028f 00       		.sleb128 0
 1704 0290 02000000 		.4byte	.LCFI0-.Ltext0
 1705 0294 04000000 		.4byte	.LCFI1-.Ltext0
 1706 0298 0200     		.2byte	0x2
 1707 029a 7D       		.byte	0x7d
 1708 029b 04       		.sleb128 4
 1709 029c 04000000 		.4byte	.LCFI1-.Ltext0
 1710 02a0 26000000 		.4byte	.LCFI2-.Ltext0
 1711 02a4 0200     		.2byte	0x2
 1712 02a6 77       		.byte	0x77
 1713 02a7 04       		.sleb128 4
 1714 02a8 26000000 		.4byte	.LCFI2-.Ltext0
 1715 02ac 28000000 		.4byte	.LCFI3-.Ltext0
 1716 02b0 0200     		.2byte	0x2
 1717 02b2 7D       		.byte	0x7d
 1718 02b3 04       		.sleb128 4
 1719 02b4 28000000 		.4byte	.LCFI3-.Ltext0
 1720 02b8 34000000 		.4byte	.LFE29-.Ltext0
 1721 02bc 0200     		.2byte	0x2
 1722 02be 7D       		.byte	0x7d
 1723 02bf 00       		.sleb128 0
 1724 02c0 00000000 		.4byte	0
 1725 02c4 00000000 		.4byte	0
 1726              		.section	.debug_aranges,"",%progbits
 1727 0000 1C000000 		.4byte	0x1c
 1728 0004 0200     		.2byte	0x2
 1729 0006 00000000 		.4byte	.Ldebug_info0
 1730 000a 04       		.byte	0x4
 1731 000b 00       		.byte	0
 1732 000c 0000     		.2byte	0
 1733 000e 0000     		.2byte	0
 1734 0010 00000000 		.4byte	.Ltext0
 1735 0014 18020000 		.4byte	.Letext0-.Ltext0
ARM GAS  G:\Users\Jaxb\AppData\Local\Temp\ccPoYyub.s 			page 36


 1736 0018 00000000 		.4byte	0
 1737 001c 00000000 		.4byte	0
 1738              		.section	.debug_line,"",%progbits
 1739              	.Ldebug_line0:
 1740 0000 9B010000 		.section	.debug_str,"MS",%progbits,1
 1740      02003001 
 1740      00000201 
 1740      FB0E0D00 
 1740      01010101 
 1741              	.LASF30:
 1742 0000 45585449 		.ascii	"EXTI_Line\000"
 1742      5F4C696E 
 1742      6500
 1743              	.LASF31:
 1744 000a 45585449 		.ascii	"EXTI_Mode\000"
 1744      5F4D6F64 
 1744      6500
 1745              	.LASF0:
 1746 0014 7369676E 		.ascii	"signed char\000"
 1746      65642063 
 1746      68617200 
 1747              	.LASF15:
 1748 0020 49545374 		.ascii	"ITStatus\000"
 1748      61747573 
 1748      00
 1749              	.LASF36:
 1750 0029 656E6162 		.ascii	"enablestatus\000"
 1750      6C657374 
 1750      61747573 
 1750      00
 1751              	.LASF33:
 1752 0036 45585449 		.ascii	"EXTI_LineCmd\000"
 1752      5F4C696E 
 1752      65436D64 
 1752      00
 1753              	.LASF32:
 1754 0043 45585449 		.ascii	"EXTI_Trigger\000"
 1754      5F547269 
 1754      67676572 
 1754      00
 1755              	.LASF42:
 1756 0050 45585449 		.ascii	"EXTI_StructInit\000"
 1756      5F537472 
 1756      75637449 
 1756      6E697400 
 1757              	.LASF24:
 1758 0060 45585449 		.ascii	"EXTI_Mode_Event\000"
 1758      5F4D6F64 
 1758      655F4576 
 1758      656E7400 
 1759              	.LASF3:
 1760 0070 73686F72 		.ascii	"short unsigned int\000"
 1760      7420756E 
 1760      7369676E 
 1760      65642069 
 1760      6E7400
 1761              	.LASF23:
ARM GAS  G:\Users\Jaxb\AppData\Local\Temp\ccPoYyub.s 			page 37


 1762 0083 45585449 		.ascii	"EXTI_Mode_Interrupt\000"
 1762      5F4D6F64 
 1762      655F496E 
 1762      74657272 
 1762      75707400 
 1763              	.LASF18:
 1764 0097 46756E63 		.ascii	"FunctionalState\000"
 1764      74696F6E 
 1764      616C5374 
 1764      61746500 
 1765              	.LASF35:
 1766 00a7 62697473 		.ascii	"bitstatus\000"
 1766      74617475 
 1766      7300
 1767              	.LASF41:
 1768 00b1 45585449 		.ascii	"EXTI_GenerateSWInterrupt\000"
 1768      5F47656E 
 1768      65726174 
 1768      65535749 
 1768      6E746572 
 1769              	.LASF34:
 1770 00ca 45585449 		.ascii	"EXTI_InitTypeDef\000"
 1770      5F496E69 
 1770      74547970 
 1770      65446566 
 1770      00
 1771              	.LASF43:
 1772 00db 45585449 		.ascii	"EXTI_InitStruct\000"
 1772      5F496E69 
 1772      74537472 
 1772      75637400 
 1773              	.LASF17:
 1774 00eb 454E4142 		.ascii	"ENABLE\000"
 1774      4C4500
 1775              	.LASF1:
 1776 00f2 756E7369 		.ascii	"unsigned char\000"
 1776      676E6564 
 1776      20636861 
 1776      7200
 1777              	.LASF14:
 1778 0100 466C6167 		.ascii	"FlagStatus\000"
 1778      53746174 
 1778      757300
 1779              	.LASF38:
 1780 010b 45585449 		.ascii	"EXTI_ClearFlag\000"
 1780      5F436C65 
 1780      6172466C 
 1780      616700
 1781              	.LASF5:
 1782 011a 6C6F6E67 		.ascii	"long unsigned int\000"
 1782      20756E73 
 1782      69676E65 
 1782      6420696E 
 1782      7400
 1783              	.LASF13:
 1784 012c 52455345 		.ascii	"RESET\000"
 1784      5400
ARM GAS  G:\Users\Jaxb\AppData\Local\Temp\ccPoYyub.s 			page 38


 1785              	.LASF25:
 1786 0132 45585449 		.ascii	"EXTIMode_TypeDef\000"
 1786      4D6F6465 
 1786      5F547970 
 1786      65446566 
 1786      00
 1787              	.LASF22:
 1788 0143 45585449 		.ascii	"EXTI_TypeDef\000"
 1788      5F547970 
 1788      65446566 
 1788      00
 1789              	.LASF11:
 1790 0150 49544D5F 		.ascii	"ITM_RxBuffer\000"
 1790      52784275 
 1790      66666572 
 1790      00
 1791              	.LASF19:
 1792 015d 52545352 		.ascii	"RTSR\000"
 1792      00
 1793              	.LASF9:
 1794 0162 5F5F7569 		.ascii	"__uint32_t\000"
 1794      6E743332 
 1794      5F7400
 1795              	.LASF26:
 1796 016d 45585449 		.ascii	"EXTI_Trigger_Rising\000"
 1796      5F547269 
 1796      67676572 
 1796      5F526973 
 1796      696E6700 
 1797              	.LASF28:
 1798 0181 45585449 		.ascii	"EXTI_Trigger_Rising_Falling\000"
 1798      5F547269 
 1798      67676572 
 1798      5F526973 
 1798      696E675F 
 1799              	.LASF8:
 1800 019d 756E7369 		.ascii	"unsigned int\000"
 1800      676E6564 
 1800      20696E74 
 1800      00
 1801              	.LASF44:
 1802 01aa 45585449 		.ascii	"EXTI_Init\000"
 1802      5F496E69 
 1802      7400
 1803              	.LASF40:
 1804 01b4 45585449 		.ascii	"EXTI_GetFlagStatus\000"
 1804      5F476574 
 1804      466C6167 
 1804      53746174 
 1804      757300
 1805              	.LASF7:
 1806 01c7 6C6F6E67 		.ascii	"long long unsigned int\000"
 1806      206C6F6E 
 1806      6720756E 
 1806      7369676E 
 1806      65642069 
 1807              	.LASF4:
ARM GAS  G:\Users\Jaxb\AppData\Local\Temp\ccPoYyub.s 			page 39


 1808 01de 6C6F6E67 		.ascii	"long int\000"
 1808      20696E74 
 1808      00
 1809              	.LASF48:
 1810 01e7 45585449 		.ascii	"EXTI_DeInit\000"
 1810      5F446549 
 1810      6E697400 
 1811              	.LASF27:
 1812 01f3 45585449 		.ascii	"EXTI_Trigger_Falling\000"
 1812      5F547269 
 1812      67676572 
 1812      5F46616C 
 1812      6C696E67 
 1813              	.LASF6:
 1814 0208 6C6F6E67 		.ascii	"long long int\000"
 1814      206C6F6E 
 1814      6720696E 
 1814      7400
 1815              	.LASF12:
 1816 0216 53797374 		.ascii	"SystemCoreClock\000"
 1816      656D436F 
 1816      7265436C 
 1816      6F636B00 
 1817              	.LASF39:
 1818 0226 45585449 		.ascii	"EXTI_GetITStatus\000"
 1818      5F476574 
 1818      49545374 
 1818      61747573 
 1818      00
 1819              	.LASF37:
 1820 0237 45585449 		.ascii	"EXTI_ClearITPendingBit\000"
 1820      5F436C65 
 1820      61724954 
 1820      50656E64 
 1820      696E6742 
 1821              	.LASF2:
 1822 024e 73686F72 		.ascii	"short int\000"
 1822      7420696E 
 1822      7400
 1823              	.LASF10:
 1824 0258 75696E74 		.ascii	"uint32_t\000"
 1824      33325F74 
 1824      00
 1825              	.LASF45:
 1826 0261 474E5520 		.ascii	"GNU C11 7.3.1 20180622 (release) [ARM/embedded-7-br"
 1826      43313120 
 1826      372E332E 
 1826      31203230 
 1826      31383036 
 1827 0294 616E6368 		.ascii	"anch revision 261907] -mcpu=cortex-m3 -mthumb -mapc"
 1827      20726576 
 1827      6973696F 
 1827      6E203236 
 1827      31393037 
 1828 02c7 732D6672 		.ascii	"s-frame -mthumb-interwork -mcpu=cortex-m3 -mthumb -"
 1828      616D6520 
 1828      2D6D7468 
ARM GAS  G:\Users\Jaxb\AppData\Local\Temp\ccPoYyub.s 			page 40


 1828      756D622D 
 1828      696E7465 
 1829 02fa 67647761 		.ascii	"gdwarf-2 -O0\000"
 1829      72662D32 
 1829      202D4F30 
 1829      00
 1830              	.LASF16:
 1831 0307 44495341 		.ascii	"DISABLE\000"
 1831      424C4500 
 1832              	.LASF46:
 1833 030f 2E2E2F2E 		.ascii	"../../source/src/FWlib/src/stm32f10x_exti.c\000"
 1833      2E2F736F 
 1833      75726365 
 1833      2F737263 
 1833      2F46576C 
 1834              	.LASF29:
 1835 033b 45585449 		.ascii	"EXTITrigger_TypeDef\000"
 1835      54726967 
 1835      6765725F 
 1835      54797065 
 1835      44656600 
 1836              	.LASF21:
 1837 034f 53574945 		.ascii	"SWIER\000"
 1837      5200
 1838              	.LASF47:
 1839 0355 463A5C6B 		.ascii	"F:\\kaka\\KAKAOS\\C\\windows\\Project\\RVMDK\243\250"
 1839      616B615C 
 1839      4B414B41 
 1839      4F535C43 
 1839      5C77696E 
 1840 037d 757635A3 		.ascii	"uv5\243\251\000"
 1840      A900
 1841              	.LASF20:
 1842 0383 46545352 		.ascii	"FTSR\000"
 1842      00
 1843              		.ident	"GCC: (GNU Tools for Arm Embedded Processors 7-2018-q2-update) 7.3.1 20180622 (release) [AR
ARM GAS  G:\Users\Jaxb\AppData\Local\Temp\ccPoYyub.s 			page 41


DEFINED SYMBOLS
                            *ABS*:00000000 stm32f10x_exti.c
G:\Users\Jaxb\AppData\Local\Temp\ccPoYyub.s:15     .text:00000000 $t
G:\Users\Jaxb\AppData\Local\Temp\ccPoYyub.s:22     .text:00000000 EXTI_DeInit
G:\Users\Jaxb\AppData\Local\Temp\ccPoYyub.s:71     .text:0000002c $d
G:\Users\Jaxb\AppData\Local\Temp\ccPoYyub.s:76     .text:00000034 $t
G:\Users\Jaxb\AppData\Local\Temp\ccPoYyub.s:83     .text:00000034 EXTI_Init
G:\Users\Jaxb\AppData\Local\Temp\ccPoYyub.s:242    .text:00000114 $d
G:\Users\Jaxb\AppData\Local\Temp\ccPoYyub.s:246    .text:00000118 $t
G:\Users\Jaxb\AppData\Local\Temp\ccPoYyub.s:253    .text:00000118 EXTI_StructInit
G:\Users\Jaxb\AppData\Local\Temp\ccPoYyub.s:311    .text:00000142 EXTI_GenerateSWInterrupt
G:\Users\Jaxb\AppData\Local\Temp\ccPoYyub.s:353    .text:00000160 $d
G:\Users\Jaxb\AppData\Local\Temp\ccPoYyub.s:357    .text:00000164 $t
G:\Users\Jaxb\AppData\Local\Temp\ccPoYyub.s:364    .text:00000164 EXTI_GetFlagStatus
G:\Users\Jaxb\AppData\Local\Temp\ccPoYyub.s:420    .text:00000194 $d
G:\Users\Jaxb\AppData\Local\Temp\ccPoYyub.s:424    .text:00000198 $t
G:\Users\Jaxb\AppData\Local\Temp\ccPoYyub.s:431    .text:00000198 EXTI_ClearFlag
G:\Users\Jaxb\AppData\Local\Temp\ccPoYyub.s:470    .text:000001b0 $d
G:\Users\Jaxb\AppData\Local\Temp\ccPoYyub.s:474    .text:000001b4 $t
G:\Users\Jaxb\AppData\Local\Temp\ccPoYyub.s:481    .text:000001b4 EXTI_GetITStatus
G:\Users\Jaxb\AppData\Local\Temp\ccPoYyub.s:550    .text:000001f8 $d
G:\Users\Jaxb\AppData\Local\Temp\ccPoYyub.s:554    .text:000001fc $t
G:\Users\Jaxb\AppData\Local\Temp\ccPoYyub.s:561    .text:000001fc EXTI_ClearITPendingBit
G:\Users\Jaxb\AppData\Local\Temp\ccPoYyub.s:600    .text:00000214 $d

NO UNDEFINED SYMBOLS
