ARM GAS  G:\Users\Jaxb\AppData\Local\Temp\ccIu7BO8.s 			page 1


   1              		.cpu cortex-m3
   2              		.eabi_attribute 20, 1
   3              		.eabi_attribute 21, 1
   4              		.eabi_attribute 23, 3
   5              		.eabi_attribute 24, 1
   6              		.eabi_attribute 25, 1
   7              		.eabi_attribute 26, 1
   8              		.eabi_attribute 30, 2
   9              		.eabi_attribute 34, 1
  10              		.eabi_attribute 18, 4
  11              		.file	"stm32f10x_it.c"
  12              		.text
  13              	.Ltext0:
  14              		.cfi_sections	.debug_frame
  15              		.align	1
  16              		.p2align 2,,3
  17              		.global	NMI_Handler
  18              		.syntax unified
  19              		.thumb
  20              		.thumb_func
  21              		.fpu softvfp
  22              		.type	NMI_Handler, %function
  23              	NMI_Handler:
  24              	.LFB39:
  25              		.file 1 "../../source/src/user/OS_CPU/stm32f10x_it.c"
   1:../../source/src/user/OS_CPU/stm32f10x_it.c **** /**
   2:../../source/src/user/OS_CPU/stm32f10x_it.c ****   ******************************************************************************
   3:../../source/src/user/OS_CPU/stm32f10x_it.c ****   * @file    Project/STM32F10x_StdPeriph_Template/stm32f10x_it.c 
   4:../../source/src/user/OS_CPU/stm32f10x_it.c ****   * @author  MCD Application Team
   5:../../source/src/user/OS_CPU/stm32f10x_it.c ****   * @version V3.5.0
   6:../../source/src/user/OS_CPU/stm32f10x_it.c ****   * @date    08-April-2011
   7:../../source/src/user/OS_CPU/stm32f10x_it.c ****   * @brief   Main Interrupt Service Routines.
   8:../../source/src/user/OS_CPU/stm32f10x_it.c ****   *          This file provides template for all exceptions handler and 
   9:../../source/src/user/OS_CPU/stm32f10x_it.c ****   *          peripherals interrupt service routine.
  10:../../source/src/user/OS_CPU/stm32f10x_it.c ****   ******************************************************************************
  11:../../source/src/user/OS_CPU/stm32f10x_it.c ****   * @attention
  12:../../source/src/user/OS_CPU/stm32f10x_it.c ****   *
  13:../../source/src/user/OS_CPU/stm32f10x_it.c ****   * THE PRESENT FIRMWARE WHICH IS FOR GUIDANCE ONLY AIMS AT PROVIDING CUSTOMERS
  14:../../source/src/user/OS_CPU/stm32f10x_it.c ****   * WITH CODING INFORMATION REGARDING THEIR PRODUCTS IN ORDER FOR THEM TO SAVE
  15:../../source/src/user/OS_CPU/stm32f10x_it.c ****   * TIME. AS A RESULT, STMICROELECTRONICS SHALL NOT BE HELD LIABLE FOR ANY
  16:../../source/src/user/OS_CPU/stm32f10x_it.c ****   * DIRECT, INDIRECT OR CONSEQUENTI
  17:../../source/src/user/OS_CPU/stm32f10x_it.c ****   
  18:../../source/src/user/OS_CPU/stm32f10x_it.c ****   AL DAMAGES WITH RESPECT TO ANY CLAIMS ARISING
  19:../../source/src/user/OS_CPU/stm32f10x_it.c ****   * FROM THE CONTENT OF SUCH FIRMWARE AND/OR THE USE MADE BY CUSTOMERS OF THE
  20:../../source/src/user/OS_CPU/stm32f10x_it.c ****   * CODING INFORMATION CONTAINED HEREIN IN CONNECTION WITH THEIR PRODUCTS.
  21:../../source/src/user/OS_CPU/stm32f10x_it.c ****   *
  22:../../source/src/user/OS_CPU/stm32f10x_it.c ****   * <h2><center>&copy; COPYRIGHT 2011 STMicroelectronics</center></h2>
  23:../../source/src/user/OS_CPU/stm32f10x_it.c ****   ******************************************************************************
  24:../../source/src/user/OS_CPU/stm32f10x_it.c ****   */
  25:../../source/src/user/OS_CPU/stm32f10x_it.c **** 
  26:../../source/src/user/OS_CPU/stm32f10x_it.c **** /* Includes ------------------------------------------------------------------*/
  27:../../source/src/user/OS_CPU/stm32f10x_it.c **** #include "stm32f10x_it.h"
  28:../../source/src/user/OS_CPU/stm32f10x_it.c **** #include "bsp_usart.h"
  29:../../source/src/user/OS_CPU/stm32f10x_it.c **** #include "myMicroLIB.h"
  30:../../source/src/user/OS_CPU/stm32f10x_it.c **** #include "myassert.h"
  31:../../source/src/user/OS_CPU/stm32f10x_it.c **** #include "TCB.h"
  32:../../source/src/user/OS_CPU/stm32f10x_it.c **** /** @addtogroup STM32F10x_StdPeriph_Template
ARM GAS  G:\Users\Jaxb\AppData\Local\Temp\ccIu7BO8.s 			page 2


  33:../../source/src/user/OS_CPU/stm32f10x_it.c ****   * @{
  34:../../source/src/user/OS_CPU/stm32f10x_it.c ****   */
  35:../../source/src/user/OS_CPU/stm32f10x_it.c **** 
  36:../../source/src/user/OS_CPU/stm32f10x_it.c **** /* Private typedef -----------------------------------------------------------*/
  37:../../source/src/user/OS_CPU/stm32f10x_it.c **** /* Private define ------------------------------------------------------------*/
  38:../../source/src/user/OS_CPU/stm32f10x_it.c **** /* Private macro -------------------------------------------------------------*/
  39:../../source/src/user/OS_CPU/stm32f10x_it.c **** /* Private variables ---------------------------------------------------------*/
  40:../../source/src/user/OS_CPU/stm32f10x_it.c **** /* Private function prototypes -----------------------------------------------*/
  41:../../source/src/user/OS_CPU/stm32f10x_it.c **** /* Private functions ---------------------------------------------------------*/
  42:../../source/src/user/OS_CPU/stm32f10x_it.c **** 
  43:../../source/src/user/OS_CPU/stm32f10x_it.c **** /******************************************************************************/
  44:../../source/src/user/OS_CPU/stm32f10x_it.c **** /*            Cortex-M3 Processor Exceptions Handlers                         */
  45:../../source/src/user/OS_CPU/stm32f10x_it.c **** /******************************************************************************/
  46:../../source/src/user/OS_CPU/stm32f10x_it.c **** 
  47:../../source/src/user/OS_CPU/stm32f10x_it.c **** /**
  48:../../source/src/user/OS_CPU/stm32f10x_it.c ****   * @brief  This function handles NMI exception.
  49:../../source/src/user/OS_CPU/stm32f10x_it.c ****   * @param  None
  50:../../source/src/user/OS_CPU/stm32f10x_it.c ****   * @retval None
  51:../../source/src/user/OS_CPU/stm32f10x_it.c ****   */
  52:../../source/src/user/OS_CPU/stm32f10x_it.c **** void NMI_Handler(void)
  53:../../source/src/user/OS_CPU/stm32f10x_it.c **** {
  26              		.loc 1 53 0
  27              		.cfi_startproc
  28              		@ args = 0, pretend = 0, frame = 0
  29              		@ frame_needed = 0, uses_anonymous_args = 0
  30              		@ link register save eliminated.
  54:../../source/src/user/OS_CPU/stm32f10x_it.c **** }
  31              		.loc 1 54 0
  32 0000 7047     		bx	lr
  33              		.cfi_endproc
  34              	.LFE39:
  35              		.size	NMI_Handler, .-NMI_Handler
  36              		.align	1
  37 0002 00BF     		.p2align 2,,3
  38              		.global	hard_fault_handler_c
  39              		.syntax unified
  40              		.thumb
  41              		.thumb_func
  42              		.fpu softvfp
  43              		.type	hard_fault_handler_c, %function
  44              	hard_fault_handler_c:
  45              	.LFB40:
  55:../../source/src/user/OS_CPU/stm32f10x_it.c **** 
  56:../../source/src/user/OS_CPU/stm32f10x_it.c **** /**
  57:../../source/src/user/OS_CPU/stm32f10x_it.c ****   * @brief  This function handles Hard Fault exception.
  58:../../source/src/user/OS_CPU/stm32f10x_it.c ****   * @param  None
  59:../../source/src/user/OS_CPU/stm32f10x_it.c ****   * @retval None
  60:../../source/src/user/OS_CPU/stm32f10x_it.c ****   */
  61:../../source/src/user/OS_CPU/stm32f10x_it.c **** //void HardFault_Handler(void)
  62:../../source/src/user/OS_CPU/stm32f10x_it.c **** //{
  63:../../source/src/user/OS_CPU/stm32f10x_it.c **** //  /* Go to infinite loop when Hard Fault exception occurs */
  64:../../source/src/user/OS_CPU/stm32f10x_it.c **** //  while (1)
  65:../../source/src/user/OS_CPU/stm32f10x_it.c **** //  {
  66:../../source/src/user/OS_CPU/stm32f10x_it.c **** //  }
  67:../../source/src/user/OS_CPU/stm32f10x_it.c **** //}
  68:../../source/src/user/OS_CPU/stm32f10x_it.c **** 
  69:../../source/src/user/OS_CPU/stm32f10x_it.c **** void hard_fault_handler_c(unsigned int * hardfault_args)   
ARM GAS  G:\Users\Jaxb\AppData\Local\Temp\ccIu7BO8.s 			page 3


  70:../../source/src/user/OS_CPU/stm32f10x_it.c **** 
  71:../../source/src/user/OS_CPU/stm32f10x_it.c **** {   
  46              		.loc 1 71 0
  47              		.cfi_startproc
  48              		@ args = 0, pretend = 0, frame = 0
  49              		@ frame_needed = 0, uses_anonymous_args = 0
  50              	.LVL0:
  51 0004 2DE9F84F 		push	{r3, r4, r5, r6, r7, r8, r9, r10, fp, lr}
  52              	.LCFI0:
  53              		.cfi_def_cfa_offset 40
  54              		.cfi_offset 3, -40
  55              		.cfi_offset 4, -36
  56              		.cfi_offset 5, -32
  57              		.cfi_offset 6, -28
  58              		.cfi_offset 7, -24
  59              		.cfi_offset 8, -20
  60              		.cfi_offset 9, -16
  61              		.cfi_offset 10, -12
  62              		.cfi_offset 11, -8
  63              		.cfi_offset 14, -4
  64              		.loc 1 71 0
  65 0008 0346     		mov	r3, r0
  72:../../source/src/user/OS_CPU/stm32f10x_it.c **** 
  73:../../source/src/user/OS_CPU/stm32f10x_it.c **** unsigned int stacked_r0;   
  74:../../source/src/user/OS_CPU/stm32f10x_it.c **** 
  75:../../source/src/user/OS_CPU/stm32f10x_it.c **** unsigned int stacked_r1;   
  76:../../source/src/user/OS_CPU/stm32f10x_it.c **** 
  77:../../source/src/user/OS_CPU/stm32f10x_it.c **** unsigned int stacked_r2;   
  78:../../source/src/user/OS_CPU/stm32f10x_it.c **** 
  79:../../source/src/user/OS_CPU/stm32f10x_it.c **** unsigned int stacked_r3;   
  80:../../source/src/user/OS_CPU/stm32f10x_it.c **** 
  81:../../source/src/user/OS_CPU/stm32f10x_it.c **** unsigned int stacked_r12;   
  82:../../source/src/user/OS_CPU/stm32f10x_it.c **** 
  83:../../source/src/user/OS_CPU/stm32f10x_it.c **** unsigned int stacked_lr;   
  84:../../source/src/user/OS_CPU/stm32f10x_it.c **** 
  85:../../source/src/user/OS_CPU/stm32f10x_it.c **** unsigned int stacked_pc;   
  86:../../source/src/user/OS_CPU/stm32f10x_it.c **** 
  87:../../source/src/user/OS_CPU/stm32f10x_it.c **** unsigned int stacked_psr;   
  88:../../source/src/user/OS_CPU/stm32f10x_it.c **** 
  89:../../source/src/user/OS_CPU/stm32f10x_it.c ****   
  90:../../source/src/user/OS_CPU/stm32f10x_it.c **** 
  91:../../source/src/user/OS_CPU/stm32f10x_it.c **** stacked_r0 = ((unsigned long) hardfault_args[0]);   
  92:../../source/src/user/OS_CPU/stm32f10x_it.c **** 
  93:../../source/src/user/OS_CPU/stm32f10x_it.c **** stacked_r1 = ((unsigned long) hardfault_args[1]);   
  94:../../source/src/user/OS_CPU/stm32f10x_it.c **** 
  95:../../source/src/user/OS_CPU/stm32f10x_it.c **** stacked_r2 = ((unsigned long) hardfault_args[2]);   
  96:../../source/src/user/OS_CPU/stm32f10x_it.c **** 
  97:../../source/src/user/OS_CPU/stm32f10x_it.c **** stacked_r3 = ((unsigned long) hardfault_args[3]);   
  98:../../source/src/user/OS_CPU/stm32f10x_it.c **** 
  99:../../source/src/user/OS_CPU/stm32f10x_it.c ****   
 100:../../source/src/user/OS_CPU/stm32f10x_it.c **** 
 101:../../source/src/user/OS_CPU/stm32f10x_it.c **** stacked_r12 = ((unsigned long) hardfault_args[4]);   
 102:../../source/src/user/OS_CPU/stm32f10x_it.c **** 
 103:../../source/src/user/OS_CPU/stm32f10x_it.c **** stacked_lr = ((unsigned long) hardfault_args[5]);   
 104:../../source/src/user/OS_CPU/stm32f10x_it.c **** 
 105:../../source/src/user/OS_CPU/stm32f10x_it.c **** stacked_pc = ((unsigned long) hardfault_args[6]);   
 106:../../source/src/user/OS_CPU/stm32f10x_it.c **** 
ARM GAS  G:\Users\Jaxb\AppData\Local\Temp\ccIu7BO8.s 			page 4


 107:../../source/src/user/OS_CPU/stm32f10x_it.c **** stacked_psr = ((unsigned long) hardfault_args[7]);   
 108:../../source/src/user/OS_CPU/stm32f10x_it.c **** 
 109:../../source/src/user/OS_CPU/stm32f10x_it.c ****   
 110:../../source/src/user/OS_CPU/stm32f10x_it.c **** 
 111:../../source/src/user/OS_CPU/stm32f10x_it.c **** ka_printf ("[Hard fault handler]\n");   
  66              		.loc 1 111 0
  67 000a 2248     		ldr	r0, .L5
  68              	.LVL1:
  93:../../source/src/user/OS_CPU/stm32f10x_it.c **** 
  69              		.loc 1 93 0
  70 000c D3E900BA 		ldrd	fp, r10, [r3]
  71              	.LVL2:
  97:../../source/src/user/OS_CPU/stm32f10x_it.c **** 
  72              		.loc 1 97 0
  73 0010 D3E90298 		ldrd	r9, r8, [r3, #8]
  74              	.LVL3:
 103:../../source/src/user/OS_CPU/stm32f10x_it.c **** 
  75              		.loc 1 103 0
  76 0014 D3E90476 		ldrd	r7, r6, [r3, #16]
  77              	.LVL4:
 107:../../source/src/user/OS_CPU/stm32f10x_it.c **** 
  78              		.loc 1 107 0
  79 0018 D3E90654 		ldrd	r5, r4, [r3, #24]
  80              	.LVL5:
  81              		.loc 1 111 0
  82 001c FFF7FEFF 		bl	ka_printf
  83              	.LVL6:
 112:../../source/src/user/OS_CPU/stm32f10x_it.c **** 
 113:../../source/src/user/OS_CPU/stm32f10x_it.c **** ka_printf ("R0 = %x\r\n", stacked_r0);   
  84              		.loc 1 113 0
  85 0020 5946     		mov	r1, fp
  86 0022 1D48     		ldr	r0, .L5+4
  87 0024 FFF7FEFF 		bl	ka_printf
  88              	.LVL7:
 114:../../source/src/user/OS_CPU/stm32f10x_it.c **** 
 115:../../source/src/user/OS_CPU/stm32f10x_it.c **** ka_printf ("R1 = %x\r\n", stacked_r1);   
  89              		.loc 1 115 0
  90 0028 5146     		mov	r1, r10
  91 002a 1C48     		ldr	r0, .L5+8
  92 002c FFF7FEFF 		bl	ka_printf
  93              	.LVL8:
 116:../../source/src/user/OS_CPU/stm32f10x_it.c **** 
 117:../../source/src/user/OS_CPU/stm32f10x_it.c **** ka_printf ("R2 = %x\r\n", stacked_r2);   
  94              		.loc 1 117 0
  95 0030 4946     		mov	r1, r9
  96 0032 1B48     		ldr	r0, .L5+12
  97 0034 FFF7FEFF 		bl	ka_printf
  98              	.LVL9:
 118:../../source/src/user/OS_CPU/stm32f10x_it.c **** 
 119:../../source/src/user/OS_CPU/stm32f10x_it.c **** ka_printf ("R3 = %x\r\n", stacked_r3);   
  99              		.loc 1 119 0
 100 0038 4146     		mov	r1, r8
 101 003a 1A48     		ldr	r0, .L5+16
 102 003c FFF7FEFF 		bl	ka_printf
 103              	.LVL10:
 120:../../source/src/user/OS_CPU/stm32f10x_it.c **** 
 121:../../source/src/user/OS_CPU/stm32f10x_it.c **** ka_printf ("R12 = %x\r\n", stacked_r12);   
ARM GAS  G:\Users\Jaxb\AppData\Local\Temp\ccIu7BO8.s 			page 5


 104              		.loc 1 121 0
 105 0040 3946     		mov	r1, r7
 106 0042 1948     		ldr	r0, .L5+20
 107 0044 FFF7FEFF 		bl	ka_printf
 108              	.LVL11:
 122:../../source/src/user/OS_CPU/stm32f10x_it.c **** 
 123:../../source/src/user/OS_CPU/stm32f10x_it.c **** ka_printf ("LR = %x\r\n", stacked_lr);   
 109              		.loc 1 123 0
 110 0048 3146     		mov	r1, r6
 111 004a 1848     		ldr	r0, .L5+24
 112 004c FFF7FEFF 		bl	ka_printf
 113              	.LVL12:
 124:../../source/src/user/OS_CPU/stm32f10x_it.c **** 
 125:../../source/src/user/OS_CPU/stm32f10x_it.c **** ka_printf ("PC = %x\r\n", stacked_pc);   
 114              		.loc 1 125 0
 115 0050 2946     		mov	r1, r5
 116 0052 1748     		ldr	r0, .L5+28
 117 0054 FFF7FEFF 		bl	ka_printf
 118              	.LVL13:
 126:../../source/src/user/OS_CPU/stm32f10x_it.c **** 
 127:../../source/src/user/OS_CPU/stm32f10x_it.c **** ka_printf ("PSR = %x\r\n", stacked_psr);   
 119              		.loc 1 127 0
 120 0058 2146     		mov	r1, r4
 121 005a 1648     		ldr	r0, .L5+32
 122 005c FFF7FEFF 		bl	ka_printf
 123              	.LVL14:
 128:../../source/src/user/OS_CPU/stm32f10x_it.c **** 
 129:../../source/src/user/OS_CPU/stm32f10x_it.c **** ka_printf ("BFAR = %x\r\n", (*((volatile unsigned long *)(0xE000ED38))));   
 124              		.loc 1 129 0
 125 0060 154B     		ldr	r3, .L5+36
 126 0062 1648     		ldr	r0, .L5+40
 127 0064 1968     		ldr	r1, [r3]
 128 0066 FFF7FEFF 		bl	ka_printf
 129              	.LVL15:
 130:../../source/src/user/OS_CPU/stm32f10x_it.c **** 
 131:../../source/src/user/OS_CPU/stm32f10x_it.c **** ka_printf ("CFSR = %x\r\n", (*((volatile unsigned long *)(0xE000ED28))));   
 130              		.loc 1 131 0
 131 006a 154B     		ldr	r3, .L5+44
 132 006c 1548     		ldr	r0, .L5+48
 133 006e 1968     		ldr	r1, [r3]
 134 0070 FFF7FEFF 		bl	ka_printf
 135              	.LVL16:
 132:../../source/src/user/OS_CPU/stm32f10x_it.c **** 
 133:../../source/src/user/OS_CPU/stm32f10x_it.c **** ka_printf ("HFSR = %x\r\n", (*((volatile unsigned long *)(0xE000ED2C))));   
 136              		.loc 1 133 0
 137 0074 144B     		ldr	r3, .L5+52
 138 0076 1548     		ldr	r0, .L5+56
 139 0078 1968     		ldr	r1, [r3]
 140 007a FFF7FEFF 		bl	ka_printf
 141              	.LVL17:
 134:../../source/src/user/OS_CPU/stm32f10x_it.c **** 
 135:../../source/src/user/OS_CPU/stm32f10x_it.c **** ka_printf ("DFSR = %x\r\n", (*((volatile unsigned long *)(0xE000ED30))));   
 142              		.loc 1 135 0
 143 007e 144B     		ldr	r3, .L5+60
 144 0080 1448     		ldr	r0, .L5+64
 145 0082 1968     		ldr	r1, [r3]
 146 0084 FFF7FEFF 		bl	ka_printf
ARM GAS  G:\Users\Jaxb\AppData\Local\Temp\ccIu7BO8.s 			page 6


 147              	.LVL18:
 136:../../source/src/user/OS_CPU/stm32f10x_it.c **** 
 137:../../source/src/user/OS_CPU/stm32f10x_it.c **** ka_printf ("AFSR = %x\r\n", (*((volatile unsigned long *)(0xE000ED3C))));   
 148              		.loc 1 137 0
 149 0088 134B     		ldr	r3, .L5+68
 150 008a 1448     		ldr	r0, .L5+72
 151 008c 1968     		ldr	r1, [r3]
 152 008e FFF7FEFF 		bl	ka_printf
 153              	.LVL19:
 154              	.L4:
 155 0092 FEE7     		b	.L4
 156              	.L6:
 157              		.align	2
 158              	.L5:
 159 0094 00000000 		.word	.LC0
 160 0098 18000000 		.word	.LC1
 161 009c 24000000 		.word	.LC2
 162 00a0 30000000 		.word	.LC3
 163 00a4 3C000000 		.word	.LC4
 164 00a8 48000000 		.word	.LC5
 165 00ac 54000000 		.word	.LC6
 166 00b0 60000000 		.word	.LC7
 167 00b4 6C000000 		.word	.LC8
 168 00b8 38ED00E0 		.word	-536810184
 169 00bc 78000000 		.word	.LC9
 170 00c0 28ED00E0 		.word	-536810200
 171 00c4 84000000 		.word	.LC10
 172 00c8 2CED00E0 		.word	-536810196
 173 00cc 90000000 		.word	.LC11
 174 00d0 30ED00E0 		.word	-536810192
 175 00d4 9C000000 		.word	.LC12
 176 00d8 3CED00E0 		.word	-536810180
 177 00dc A8000000 		.word	.LC13
 178              		.cfi_endproc
 179              	.LFE40:
 180              		.size	hard_fault_handler_c, .-hard_fault_handler_c
 181              		.align	1
 182              		.p2align 2,,3
 183              		.global	MemManage_Handler
 184              		.syntax unified
 185              		.thumb
 186              		.thumb_func
 187              		.fpu softvfp
 188              		.type	MemManage_Handler, %function
 189              	MemManage_Handler:
 190              	.LFB41:
 138:../../source/src/user/OS_CPU/stm32f10x_it.c **** 
 139:../../source/src/user/OS_CPU/stm32f10x_it.c ****   
 140:../../source/src/user/OS_CPU/stm32f10x_it.c **** 
 141:../../source/src/user/OS_CPU/stm32f10x_it.c ****     
 142:../../source/src/user/OS_CPU/stm32f10x_it.c **** 
 143:../../source/src/user/OS_CPU/stm32f10x_it.c **** while(1) 
 144:../../source/src/user/OS_CPU/stm32f10x_it.c **** 
 145:../../source/src/user/OS_CPU/stm32f10x_it.c **** { 
 146:../../source/src/user/OS_CPU/stm32f10x_it.c **** 
 147:../../source/src/user/OS_CPU/stm32f10x_it.c ****         ;; 
 148:../../source/src/user/OS_CPU/stm32f10x_it.c **** 
ARM GAS  G:\Users\Jaxb\AppData\Local\Temp\ccIu7BO8.s 			page 7


 149:../../source/src/user/OS_CPU/stm32f10x_it.c **** } 
 150:../../source/src/user/OS_CPU/stm32f10x_it.c **** 
 151:../../source/src/user/OS_CPU/stm32f10x_it.c ****   
 152:../../source/src/user/OS_CPU/stm32f10x_it.c **** 
 153:../../source/src/user/OS_CPU/stm32f10x_it.c **** } 
 154:../../source/src/user/OS_CPU/stm32f10x_it.c **** 
 155:../../source/src/user/OS_CPU/stm32f10x_it.c **** /**
 156:../../source/src/user/OS_CPU/stm32f10x_it.c ****   * @brief  This function handles Memory Manage exception.
 157:../../source/src/user/OS_CPU/stm32f10x_it.c ****   * @param  None
 158:../../source/src/user/OS_CPU/stm32f10x_it.c ****   * @retval None
 159:../../source/src/user/OS_CPU/stm32f10x_it.c ****   */
 160:../../source/src/user/OS_CPU/stm32f10x_it.c **** void MemManage_Handler(void)
 161:../../source/src/user/OS_CPU/stm32f10x_it.c **** {
 191              		.loc 1 161 0
 192              		.cfi_startproc
 193              		@ Volatile: function does not return.
 194              		@ args = 0, pretend = 0, frame = 0
 195              		@ frame_needed = 0, uses_anonymous_args = 0
 196              		@ link register save eliminated.
 197              	.L8:
 198 00e0 FEE7     		b	.L8
 199              		.cfi_endproc
 200              	.LFE41:
 201              		.size	MemManage_Handler, .-MemManage_Handler
 202              		.align	1
 203 00e2 00BF     		.p2align 2,,3
 204              		.global	BusFault_Handler
 205              		.syntax unified
 206              		.thumb
 207              		.thumb_func
 208              		.fpu softvfp
 209              		.type	BusFault_Handler, %function
 210              	BusFault_Handler:
 211              	.LFB42:
 162:../../source/src/user/OS_CPU/stm32f10x_it.c ****   /* Go to infinite loop when Memory Manage exception occurs */
 163:../../source/src/user/OS_CPU/stm32f10x_it.c ****   while (1)
 164:../../source/src/user/OS_CPU/stm32f10x_it.c ****   {
 165:../../source/src/user/OS_CPU/stm32f10x_it.c ****   }
 166:../../source/src/user/OS_CPU/stm32f10x_it.c **** }
 167:../../source/src/user/OS_CPU/stm32f10x_it.c **** 
 168:../../source/src/user/OS_CPU/stm32f10x_it.c **** /**
 169:../../source/src/user/OS_CPU/stm32f10x_it.c ****   * @brief  This function handles Bus Fault exception.
 170:../../source/src/user/OS_CPU/stm32f10x_it.c ****   * @param  None
 171:../../source/src/user/OS_CPU/stm32f10x_it.c ****   * @retval None
 172:../../source/src/user/OS_CPU/stm32f10x_it.c ****   */
 173:../../source/src/user/OS_CPU/stm32f10x_it.c **** void BusFault_Handler(void)
 174:../../source/src/user/OS_CPU/stm32f10x_it.c **** {
 212              		.loc 1 174 0
 213              		.cfi_startproc
 214              		@ Volatile: function does not return.
 215              		@ args = 0, pretend = 0, frame = 0
 216              		@ frame_needed = 0, uses_anonymous_args = 0
 217              		@ link register save eliminated.
 218              	.L10:
 219 00e4 FEE7     		b	.L10
 220              		.cfi_endproc
 221              	.LFE42:
ARM GAS  G:\Users\Jaxb\AppData\Local\Temp\ccIu7BO8.s 			page 8


 222              		.size	BusFault_Handler, .-BusFault_Handler
 223              		.align	1
 224 00e6 00BF     		.p2align 2,,3
 225              		.global	UsageFault_Handler
 226              		.syntax unified
 227              		.thumb
 228              		.thumb_func
 229              		.fpu softvfp
 230              		.type	UsageFault_Handler, %function
 231              	UsageFault_Handler:
 232              	.LFB43:
 175:../../source/src/user/OS_CPU/stm32f10x_it.c ****   /* Go to infinite loop when Bus Fault exception occurs */
 176:../../source/src/user/OS_CPU/stm32f10x_it.c ****   while (1)
 177:../../source/src/user/OS_CPU/stm32f10x_it.c ****   {
 178:../../source/src/user/OS_CPU/stm32f10x_it.c ****   }
 179:../../source/src/user/OS_CPU/stm32f10x_it.c **** }
 180:../../source/src/user/OS_CPU/stm32f10x_it.c **** 
 181:../../source/src/user/OS_CPU/stm32f10x_it.c **** /**
 182:../../source/src/user/OS_CPU/stm32f10x_it.c ****   * @brief  This function handles Usage Fault exception.
 183:../../source/src/user/OS_CPU/stm32f10x_it.c ****   * @param  None
 184:../../source/src/user/OS_CPU/stm32f10x_it.c ****   * @retval None
 185:../../source/src/user/OS_CPU/stm32f10x_it.c ****   */
 186:../../source/src/user/OS_CPU/stm32f10x_it.c **** void UsageFault_Handler(void)
 187:../../source/src/user/OS_CPU/stm32f10x_it.c **** {
 233              		.loc 1 187 0
 234              		.cfi_startproc
 235              		@ Volatile: function does not return.
 236              		@ args = 0, pretend = 0, frame = 0
 237              		@ frame_needed = 0, uses_anonymous_args = 0
 238              		@ link register save eliminated.
 239              	.L12:
 240 00e8 FEE7     		b	.L12
 241              		.cfi_endproc
 242              	.LFE43:
 243              		.size	UsageFault_Handler, .-UsageFault_Handler
 244              		.align	1
 245 00ea 00BF     		.p2align 2,,3
 246              		.global	SVC_Handler
 247              		.syntax unified
 248              		.thumb
 249              		.thumb_func
 250              		.fpu softvfp
 251              		.type	SVC_Handler, %function
 252              	SVC_Handler:
 253              	.LFB50:
 254              		.cfi_startproc
 255              		@ args = 0, pretend = 0, frame = 0
 256              		@ frame_needed = 0, uses_anonymous_args = 0
 257              		@ link register save eliminated.
 258 00ec 7047     		bx	lr
 259              		.cfi_endproc
 260              	.LFE50:
 261              		.size	SVC_Handler, .-SVC_Handler
 262              		.align	1
 263 00ee 00BF     		.p2align 2,,3
 264              		.global	DebugMon_Handler
 265              		.syntax unified
ARM GAS  G:\Users\Jaxb\AppData\Local\Temp\ccIu7BO8.s 			page 9


 266              		.thumb
 267              		.thumb_func
 268              		.fpu softvfp
 269              		.type	DebugMon_Handler, %function
 270              	DebugMon_Handler:
 271              	.LFB52:
 272              		.cfi_startproc
 273              		@ args = 0, pretend = 0, frame = 0
 274              		@ frame_needed = 0, uses_anonymous_args = 0
 275              		@ link register save eliminated.
 276 00f0 7047     		bx	lr
 277              		.cfi_endproc
 278              	.LFE52:
 279              		.size	DebugMon_Handler, .-DebugMon_Handler
 280              		.align	1
 281 00f2 00BF     		.p2align 2,,3
 282              		.global	PendSV_Handler
 283              		.syntax unified
 284              		.thumb
 285              		.thumb_func
 286              		.fpu softvfp
 287              		.type	PendSV_Handler, %function
 288              	PendSV_Handler:
 289              	.LFB54:
 290              		.cfi_startproc
 291              		@ args = 0, pretend = 0, frame = 0
 292              		@ frame_needed = 0, uses_anonymous_args = 0
 293              		@ link register save eliminated.
 294 00f4 7047     		bx	lr
 295              		.cfi_endproc
 296              	.LFE54:
 297              		.size	PendSV_Handler, .-PendSV_Handler
 298              		.align	1
 299 00f6 00BF     		.p2align 2,,3
 300              		.global	SysTick_Handler
 301              		.syntax unified
 302              		.thumb
 303              		.thumb_func
 304              		.fpu softvfp
 305              		.type	SysTick_Handler, %function
 306              	SysTick_Handler:
 307              	.LFB56:
 308              		.cfi_startproc
 309              		@ args = 0, pretend = 0, frame = 0
 310              		@ frame_needed = 0, uses_anonymous_args = 0
 311              		@ link register save eliminated.
 312 00f8 7047     		bx	lr
 313              		.cfi_endproc
 314              	.LFE56:
 315              		.size	SysTick_Handler, .-SysTick_Handler
 316              		.align	1
 317 00fa 00BF     		.p2align 2,,3
 318              		.global	USART1_IRQHandler
 319              		.syntax unified
 320              		.thumb
 321              		.thumb_func
 322              		.fpu softvfp
ARM GAS  G:\Users\Jaxb\AppData\Local\Temp\ccIu7BO8.s 			page 10


 323              		.type	USART1_IRQHandler, %function
 324              	USART1_IRQHandler:
 325              	.LFB48:
 188:../../source/src/user/OS_CPU/stm32f10x_it.c ****   /* Go to infinite loop when Usage Fault exception occurs */
 189:../../source/src/user/OS_CPU/stm32f10x_it.c ****   while (1)
 190:../../source/src/user/OS_CPU/stm32f10x_it.c ****   {
 191:../../source/src/user/OS_CPU/stm32f10x_it.c ****   }
 192:../../source/src/user/OS_CPU/stm32f10x_it.c **** }
 193:../../source/src/user/OS_CPU/stm32f10x_it.c **** 
 194:../../source/src/user/OS_CPU/stm32f10x_it.c **** /**
 195:../../source/src/user/OS_CPU/stm32f10x_it.c ****   * @brief  This function handles SVCall exception.
 196:../../source/src/user/OS_CPU/stm32f10x_it.c ****   * @param  None
 197:../../source/src/user/OS_CPU/stm32f10x_it.c ****   * @retval None
 198:../../source/src/user/OS_CPU/stm32f10x_it.c ****   */
 199:../../source/src/user/OS_CPU/stm32f10x_it.c **** 
 200:../../source/src/user/OS_CPU/stm32f10x_it.c **** void SVC_Handler(void)
 201:../../source/src/user/OS_CPU/stm32f10x_it.c **** {
 202:../../source/src/user/OS_CPU/stm32f10x_it.c **** 
 203:../../source/src/user/OS_CPU/stm32f10x_it.c **** }
 204:../../source/src/user/OS_CPU/stm32f10x_it.c **** 
 205:../../source/src/user/OS_CPU/stm32f10x_it.c **** /**
 206:../../source/src/user/OS_CPU/stm32f10x_it.c ****   * @brief  This function handles Debug Monitor exception.
 207:../../source/src/user/OS_CPU/stm32f10x_it.c ****   * @param  None
 208:../../source/src/user/OS_CPU/stm32f10x_it.c ****   * @retval None
 209:../../source/src/user/OS_CPU/stm32f10x_it.c ****   */
 210:../../source/src/user/OS_CPU/stm32f10x_it.c **** void DebugMon_Handler(void)
 211:../../source/src/user/OS_CPU/stm32f10x_it.c **** {
 212:../../source/src/user/OS_CPU/stm32f10x_it.c **** }
 213:../../source/src/user/OS_CPU/stm32f10x_it.c **** 
 214:../../source/src/user/OS_CPU/stm32f10x_it.c **** /**
 215:../../source/src/user/OS_CPU/stm32f10x_it.c ****   * @brief  This function handles PendSVC exception.
 216:../../source/src/user/OS_CPU/stm32f10x_it.c ****   * @param  None
 217:../../source/src/user/OS_CPU/stm32f10x_it.c ****   * @retval None
 218:../../source/src/user/OS_CPU/stm32f10x_it.c ****   */
 219:../../source/src/user/OS_CPU/stm32f10x_it.c **** void PendSV_Handler(void)
 220:../../source/src/user/OS_CPU/stm32f10x_it.c **** {
 221:../../source/src/user/OS_CPU/stm32f10x_it.c **** }
 222:../../source/src/user/OS_CPU/stm32f10x_it.c **** 
 223:../../source/src/user/OS_CPU/stm32f10x_it.c **** /**
 224:../../source/src/user/OS_CPU/stm32f10x_it.c ****   * @brief  This function handles SysTick Handler.
 225:../../source/src/user/OS_CPU/stm32f10x_it.c ****   * @param  None
 226:../../source/src/user/OS_CPU/stm32f10x_it.c ****   * @retval None
 227:../../source/src/user/OS_CPU/stm32f10x_it.c ****   */
 228:../../source/src/user/OS_CPU/stm32f10x_it.c **** 
 229:../../source/src/user/OS_CPU/stm32f10x_it.c **** 
 230:../../source/src/user/OS_CPU/stm32f10x_it.c **** 
 231:../../source/src/user/OS_CPU/stm32f10x_it.c **** void SysTick_Handler(void)
 232:../../source/src/user/OS_CPU/stm32f10x_it.c **** {
 233:../../source/src/user/OS_CPU/stm32f10x_it.c **** }
 234:../../source/src/user/OS_CPU/stm32f10x_it.c **** 
 235:../../source/src/user/OS_CPU/stm32f10x_it.c **** #include "shell.h"
 236:../../source/src/user/OS_CPU/stm32f10x_it.c **** #include "os_cpu.h"
 237:../../source/src/user/OS_CPU/stm32f10x_it.c **** #include "myMicroLIB.h"
 238:../../source/src/user/OS_CPU/stm32f10x_it.c **** //extern MACB MACB_test;
 239:../../source/src/user/OS_CPU/stm32f10x_it.c **** // 串口中断服务函数
 240:../../source/src/user/OS_CPU/stm32f10x_it.c **** // 把接收到的数据存在一个数组缓冲区里面，当接收到的的值等于0XFF时，把值返回
 241:../../source/src/user/OS_CPU/stm32f10x_it.c **** void DEBUG_USART_IRQHandler(void)
ARM GAS  G:\Users\Jaxb\AppData\Local\Temp\ccIu7BO8.s 			page 11


 242:../../source/src/user/OS_CPU/stm32f10x_it.c **** {	
 326              		.loc 1 242 0
 327              		.cfi_startproc
 328              		@ args = 0, pretend = 0, frame = 0
 329              		@ frame_needed = 0, uses_anonymous_args = 0
 330              		.loc 1 242 0
 331 00fc 10B5     		push	{r4, lr}
 332              	.LCFI1:
 333              		.cfi_def_cfa_offset 8
 334              		.cfi_offset 4, -8
 335              		.cfi_offset 14, -4
 243:../../source/src/user/OS_CPU/stm32f10x_it.c **** #if CONFIG_SHELL_EN
 244:../../source/src/user/OS_CPU/stm32f10x_it.c **** 	SYS_ENTER_INTERRUPT();
 336              		.loc 1 244 0
 337 00fe 0A4C     		ldr	r4, .L22
 245:../../source/src/user/OS_CPU/stm32f10x_it.c **** 
 246:../../source/src/user/OS_CPU/stm32f10x_it.c **** 	if(USART_GetITStatus(DEBUG_USARTx,USART_IT_RXNE)!=RESET)
 338              		.loc 1 246 0
 339 0100 40F22551 		movw	r1, #1317
 244:../../source/src/user/OS_CPU/stm32f10x_it.c **** 
 340              		.loc 1 244 0
 341 0104 2368     		ldr	r3, [r4]
 342              		.loc 1 246 0
 343 0106 0948     		ldr	r0, .L22+4
 244:../../source/src/user/OS_CPU/stm32f10x_it.c **** 
 344              		.loc 1 244 0
 345 0108 0133     		adds	r3, r3, #1
 346 010a 2360     		str	r3, [r4]
 347              		.loc 1 246 0
 348 010c FFF7FEFF 		bl	USART_GetITStatus
 349              	.LVL20:
 350 0110 28B1     		cbz	r0, .L18
 247:../../source/src/user/OS_CPU/stm32f10x_it.c **** 	{
 248:../../source/src/user/OS_CPU/stm32f10x_it.c **** 		put_in_shell_buffer(USART_ReceiveData(DEBUG_USARTx));			
 351              		.loc 1 248 0
 352 0112 0648     		ldr	r0, .L22+4
 353 0114 FFF7FEFF 		bl	USART_ReceiveData
 354              	.LVL21:
 355 0118 C0B2     		uxtb	r0, r0
 356 011a FFF7FEFF 		bl	put_in_shell_buffer
 357              	.LVL22:
 358              	.L18:
 249:../../source/src/user/OS_CPU/stm32f10x_it.c **** 	}
 250:../../source/src/user/OS_CPU/stm32f10x_it.c **** 
 251:../../source/src/user/OS_CPU/stm32f10x_it.c **** 	SYS_EXIT_INTERRUPT();
 359              		.loc 1 251 0
 360 011e 2368     		ldr	r3, [r4]
 361 0120 013B     		subs	r3, r3, #1
 362 0122 2360     		str	r3, [r4]
 252:../../source/src/user/OS_CPU/stm32f10x_it.c **** #endif
 253:../../source/src/user/OS_CPU/stm32f10x_it.c **** }
 363              		.loc 1 253 0
 364 0124 10BD     		pop	{r4, pc}
 365              	.L23:
 366 0126 00BF     		.align	2
 367              	.L22:
 368 0128 00000000 		.word	g_interrupt_count
ARM GAS  G:\Users\Jaxb\AppData\Local\Temp\ccIu7BO8.s 			page 12


 369 012c 00380140 		.word	1073821696
 370              		.cfi_endproc
 371              	.LFE48:
 372              		.size	USART1_IRQHandler, .-USART1_IRQHandler
 373              		.section	.rodata.str1.4,"aMS",%progbits,1
 374              		.align	2
 375              	.LC0:
 376 0000 5B486172 		.ascii	"[Hard fault handler]\012\000"
 376      64206661 
 376      756C7420 
 376      68616E64 
 376      6C65725D 
 377 0016 0000     		.space	2
 378              	.LC1:
 379 0018 5230203D 		.ascii	"R0 = %x\015\012\000"
 379      2025780D 
 379      0A00
 380 0022 0000     		.space	2
 381              	.LC2:
 382 0024 5231203D 		.ascii	"R1 = %x\015\012\000"
 382      2025780D 
 382      0A00
 383 002e 0000     		.space	2
 384              	.LC3:
 385 0030 5232203D 		.ascii	"R2 = %x\015\012\000"
 385      2025780D 
 385      0A00
 386 003a 0000     		.space	2
 387              	.LC4:
 388 003c 5233203D 		.ascii	"R3 = %x\015\012\000"
 388      2025780D 
 388      0A00
 389 0046 0000     		.space	2
 390              	.LC5:
 391 0048 52313220 		.ascii	"R12 = %x\015\012\000"
 391      3D202578 
 391      0D0A00
 392 0053 00       		.space	1
 393              	.LC6:
 394 0054 4C52203D 		.ascii	"LR = %x\015\012\000"
 394      2025780D 
 394      0A00
 395 005e 0000     		.space	2
 396              	.LC7:
 397 0060 5043203D 		.ascii	"PC = %x\015\012\000"
 397      2025780D 
 397      0A00
 398 006a 0000     		.space	2
 399              	.LC8:
 400 006c 50535220 		.ascii	"PSR = %x\015\012\000"
 400      3D202578 
 400      0D0A00
 401 0077 00       		.space	1
 402              	.LC9:
 403 0078 42464152 		.ascii	"BFAR = %x\015\012\000"
 403      203D2025 
 403      780D0A00 
ARM GAS  G:\Users\Jaxb\AppData\Local\Temp\ccIu7BO8.s 			page 13


 404              	.LC10:
 405 0084 43465352 		.ascii	"CFSR = %x\015\012\000"
 405      203D2025 
 405      780D0A00 
 406              	.LC11:
 407 0090 48465352 		.ascii	"HFSR = %x\015\012\000"
 407      203D2025 
 407      780D0A00 
 408              	.LC12:
 409 009c 44465352 		.ascii	"DFSR = %x\015\012\000"
 409      203D2025 
 409      780D0A00 
 410              	.LC13:
 411 00a8 41465352 		.ascii	"AFSR = %x\015\012\000"
 411      203D2025 
 411      780D0A00 
 412              		.text
 413              	.Letext0:
 414              		.file 2 "f:\\arm\\gcc2018\\arm-none-eabi\\include\\machine\\_default_types.h"
 415              		.file 3 "f:\\arm\\gcc2018\\arm-none-eabi\\include\\sys\\_stdint.h"
 416              		.file 4 "../../source/include/core_cm3.h"
 417              		.file 5 "../../source/include/system_stm32f10x.h"
 418              		.file 6 "../../source/include/stm32f10x.h"
 419              		.file 7 "../../source/include/os_core/TCB.h"
 420              		.file 8 "../../source/src/FWlib/inc/stm32f10x_usart.h"
 421              		.file 9 "../../source/include/shell/shell.h"
 422              		.file 10 "../../source/include/os_lib/myMicroLIB.h"
 423              		.section	.debug_info,"",%progbits
 424              	.Ldebug_info0:
 425 0000 E1040000 		.4byte	0x4e1
 426 0004 0200     		.2byte	0x2
 427 0006 00000000 		.4byte	.Ldebug_abbrev0
 428 000a 04       		.byte	0x4
 429 000b 01       		.uleb128 0x1
 430 000c 71020000 		.4byte	.LASF48
 431 0010 0C       		.byte	0xc
 432 0011 4E010000 		.4byte	.LASF49
 433 0015 56030000 		.4byte	.LASF50
 434 0019 00000000 		.4byte	.Ltext0
 435 001d 30010000 		.4byte	.Letext0
 436 0021 00000000 		.4byte	.Ldebug_line0
 437 0025 02       		.uleb128 0x2
 438 0026 01       		.byte	0x1
 439 0027 06       		.byte	0x6
 440 0028 BE000000 		.4byte	.LASF0
 441 002c 02       		.uleb128 0x2
 442 002d 01       		.byte	0x1
 443 002e 08       		.byte	0x8
 444 002f CA000000 		.4byte	.LASF1
 445 0033 02       		.uleb128 0x2
 446 0034 02       		.byte	0x2
 447 0035 05       		.byte	0x5
 448 0036 26020000 		.4byte	.LASF2
 449 003a 03       		.uleb128 0x3
 450 003b 25010000 		.4byte	.LASF5
 451 003f 02       		.byte	0x2
 452 0040 39       		.byte	0x39
ARM GAS  G:\Users\Jaxb\AppData\Local\Temp\ccIu7BO8.s 			page 14


 453 0041 45000000 		.4byte	0x45
 454 0045 02       		.uleb128 0x2
 455 0046 02       		.byte	0x2
 456 0047 07       		.byte	0x7
 457 0048 51000000 		.4byte	.LASF3
 458 004c 02       		.uleb128 0x2
 459 004d 04       		.byte	0x4
 460 004e 05       		.byte	0x5
 461 004f 68020000 		.4byte	.LASF4
 462 0053 03       		.uleb128 0x3
 463 0054 25000000 		.4byte	.LASF6
 464 0058 02       		.byte	0x2
 465 0059 4F       		.byte	0x4f
 466 005a 5E000000 		.4byte	0x5e
 467 005e 02       		.uleb128 0x2
 468 005f 04       		.byte	0x4
 469 0060 07       		.byte	0x7
 470 0061 D8000000 		.4byte	.LASF7
 471 0065 02       		.uleb128 0x2
 472 0066 08       		.byte	0x8
 473 0067 05       		.byte	0x5
 474 0068 F4010000 		.4byte	.LASF8
 475 006c 02       		.uleb128 0x2
 476 006d 08       		.byte	0x8
 477 006e 07       		.byte	0x7
 478 006f 7A010000 		.4byte	.LASF9
 479 0073 04       		.uleb128 0x4
 480 0074 04       		.byte	0x4
 481 0075 05       		.byte	0x5
 482 0076 696E7400 		.ascii	"int\000"
 483 007a 05       		.uleb128 0x5
 484 007b 73000000 		.4byte	0x73
 485 007f 02       		.uleb128 0x2
 486 0080 04       		.byte	0x4
 487 0081 07       		.byte	0x7
 488 0082 41010000 		.4byte	.LASF10
 489 0086 03       		.uleb128 0x3
 490 0087 44020000 		.4byte	.LASF11
 491 008b 03       		.byte	0x3
 492 008c 24       		.byte	0x24
 493 008d 3A000000 		.4byte	0x3a
 494 0091 05       		.uleb128 0x5
 495 0092 86000000 		.4byte	0x86
 496 0096 03       		.uleb128 0x3
 497 0097 5F020000 		.4byte	.LASF12
 498 009b 03       		.byte	0x3
 499 009c 30       		.byte	0x30
 500 009d 53000000 		.4byte	0x53
 501 00a1 06       		.uleb128 0x6
 502 00a2 02010000 		.4byte	.LASF13
 503 00a6 04       		.byte	0x4
 504 00a7 CE06     		.2byte	0x6ce
 505 00a9 7A000000 		.4byte	0x7a
 506 00ad 01       		.byte	0x1
 507 00ae 01       		.byte	0x1
 508 00af 07       		.uleb128 0x7
 509 00b0 07020000 		.4byte	.LASF14
ARM GAS  G:\Users\Jaxb\AppData\Local\Temp\ccIu7BO8.s 			page 15


 510 00b4 05       		.byte	0x5
 511 00b5 35       		.byte	0x35
 512 00b6 96000000 		.4byte	0x96
 513 00ba 01       		.byte	0x1
 514 00bb 01       		.byte	0x1
 515 00bc 08       		.uleb128 0x8
 516 00bd 07       		.byte	0x7
 517 00be 01       		.byte	0x1
 518 00bf 2C000000 		.4byte	0x2c
 519 00c3 06       		.byte	0x6
 520 00c4 0702     		.2byte	0x207
 521 00c6 D7000000 		.4byte	0xd7
 522 00ca 09       		.uleb128 0x9
 523 00cb EA000000 		.4byte	.LASF15
 524 00cf 00       		.byte	0
 525 00d0 0A       		.uleb128 0xa
 526 00d1 53455400 		.ascii	"SET\000"
 527 00d5 01       		.byte	0x1
 528 00d6 00       		.byte	0
 529 00d7 0B       		.uleb128 0xb
 530 00d8 1C       		.byte	0x1c
 531 00d9 06       		.byte	0x6
 532 00da D204     		.2byte	0x4d2
 533 00dc B1010000 		.4byte	0x1b1
 534 00e0 0C       		.uleb128 0xc
 535 00e1 535200   		.ascii	"SR\000"
 536 00e4 06       		.byte	0x6
 537 00e5 D404     		.2byte	0x4d4
 538 00e7 91000000 		.4byte	0x91
 539 00eb 02       		.byte	0x2
 540 00ec 23       		.byte	0x23
 541 00ed 00       		.uleb128 0
 542 00ee 0D       		.uleb128 0xd
 543 00ef 72000000 		.4byte	.LASF16
 544 00f3 06       		.byte	0x6
 545 00f4 D504     		.2byte	0x4d5
 546 00f6 86000000 		.4byte	0x86
 547 00fa 02       		.byte	0x2
 548 00fb 23       		.byte	0x23
 549 00fc 02       		.uleb128 0x2
 550 00fd 0C       		.uleb128 0xc
 551 00fe 445200   		.ascii	"DR\000"
 552 0101 06       		.byte	0x6
 553 0102 D604     		.2byte	0x4d6
 554 0104 91000000 		.4byte	0x91
 555 0108 02       		.byte	0x2
 556 0109 23       		.byte	0x23
 557 010a 04       		.uleb128 0x4
 558 010b 0D       		.uleb128 0xd
 559 010c 7C000000 		.4byte	.LASF17
 560 0110 06       		.byte	0x6
 561 0111 D704     		.2byte	0x4d7
 562 0113 86000000 		.4byte	0x86
 563 0117 02       		.byte	0x2
 564 0118 23       		.byte	0x23
 565 0119 06       		.uleb128 0x6
 566 011a 0C       		.uleb128 0xc
ARM GAS  G:\Users\Jaxb\AppData\Local\Temp\ccIu7BO8.s 			page 16


 567 011b 42525200 		.ascii	"BRR\000"
 568 011f 06       		.byte	0x6
 569 0120 D804     		.2byte	0x4d8
 570 0122 91000000 		.4byte	0x91
 571 0126 02       		.byte	0x2
 572 0127 23       		.byte	0x23
 573 0128 08       		.uleb128 0x8
 574 0129 0D       		.uleb128 0xd
 575 012a 86000000 		.4byte	.LASF18
 576 012e 06       		.byte	0x6
 577 012f D904     		.2byte	0x4d9
 578 0131 86000000 		.4byte	0x86
 579 0135 02       		.byte	0x2
 580 0136 23       		.byte	0x23
 581 0137 0A       		.uleb128 0xa
 582 0138 0C       		.uleb128 0xc
 583 0139 43523100 		.ascii	"CR1\000"
 584 013d 06       		.byte	0x6
 585 013e DA04     		.2byte	0x4da
 586 0140 91000000 		.4byte	0x91
 587 0144 02       		.byte	0x2
 588 0145 23       		.byte	0x23
 589 0146 0C       		.uleb128 0xc
 590 0147 0D       		.uleb128 0xd
 591 0148 90000000 		.4byte	.LASF19
 592 014c 06       		.byte	0x6
 593 014d DB04     		.2byte	0x4db
 594 014f 86000000 		.4byte	0x86
 595 0153 02       		.byte	0x2
 596 0154 23       		.byte	0x23
 597 0155 0E       		.uleb128 0xe
 598 0156 0C       		.uleb128 0xc
 599 0157 43523200 		.ascii	"CR2\000"
 600 015b 06       		.byte	0x6
 601 015c DC04     		.2byte	0x4dc
 602 015e 91000000 		.4byte	0x91
 603 0162 02       		.byte	0x2
 604 0163 23       		.byte	0x23
 605 0164 10       		.uleb128 0x10
 606 0165 0D       		.uleb128 0xd
 607 0166 9A000000 		.4byte	.LASF20
 608 016a 06       		.byte	0x6
 609 016b DD04     		.2byte	0x4dd
 610 016d 86000000 		.4byte	0x86
 611 0171 02       		.byte	0x2
 612 0172 23       		.byte	0x23
 613 0173 12       		.uleb128 0x12
 614 0174 0C       		.uleb128 0xc
 615 0175 43523300 		.ascii	"CR3\000"
 616 0179 06       		.byte	0x6
 617 017a DE04     		.2byte	0x4de
 618 017c 91000000 		.4byte	0x91
 619 0180 02       		.byte	0x2
 620 0181 23       		.byte	0x23
 621 0182 14       		.uleb128 0x14
 622 0183 0D       		.uleb128 0xd
 623 0184 11000000 		.4byte	.LASF21
ARM GAS  G:\Users\Jaxb\AppData\Local\Temp\ccIu7BO8.s 			page 17


 624 0188 06       		.byte	0x6
 625 0189 DF04     		.2byte	0x4df
 626 018b 86000000 		.4byte	0x86
 627 018f 02       		.byte	0x2
 628 0190 23       		.byte	0x23
 629 0191 16       		.uleb128 0x16
 630 0192 0D       		.uleb128 0xd
 631 0193 3C010000 		.4byte	.LASF22
 632 0197 06       		.byte	0x6
 633 0198 E004     		.2byte	0x4e0
 634 019a 91000000 		.4byte	0x91
 635 019e 02       		.byte	0x2
 636 019f 23       		.byte	0x23
 637 01a0 18       		.uleb128 0x18
 638 01a1 0D       		.uleb128 0xd
 639 01a2 1B000000 		.4byte	.LASF23
 640 01a6 06       		.byte	0x6
 641 01a7 E104     		.2byte	0x4e1
 642 01a9 86000000 		.4byte	0x86
 643 01ad 02       		.byte	0x2
 644 01ae 23       		.byte	0x23
 645 01af 1A       		.uleb128 0x1a
 646 01b0 00       		.byte	0
 647 01b1 0E       		.uleb128 0xe
 648 01b2 64000000 		.4byte	.LASF24
 649 01b6 06       		.byte	0x6
 650 01b7 E204     		.2byte	0x4e2
 651 01b9 D7000000 		.4byte	0xd7
 652 01bd 07       		.uleb128 0x7
 653 01be 44030000 		.4byte	.LASF25
 654 01c2 07       		.byte	0x7
 655 01c3 12       		.byte	0x12
 656 01c4 7A000000 		.4byte	0x7a
 657 01c8 01       		.byte	0x1
 658 01c9 01       		.byte	0x1
 659 01ca 02       		.uleb128 0x2
 660 01cb 01       		.byte	0x1
 661 01cc 08       		.byte	0x8
 662 01cd 02020000 		.4byte	.LASF26
 663 01d1 0F       		.uleb128 0xf
 664 01d2 01       		.byte	0x1
 665 01d3 BA010000 		.4byte	.LASF34
 666 01d7 01       		.byte	0x1
 667 01d8 F1       		.byte	0xf1
 668 01d9 01       		.byte	0x1
 669 01da FC000000 		.4byte	.LFB48
 670 01de 30010000 		.4byte	.LFE48
 671 01e2 00000000 		.4byte	.LLST2
 672 01e6 01       		.byte	0x1
 673 01e7 2A020000 		.4byte	0x22a
 674 01eb 10       		.uleb128 0x10
 675 01ec 10010000 		.4byte	.LVL20
 676 01f0 AE040000 		.4byte	0x4ae
 677 01f4 09020000 		.4byte	0x209
 678 01f8 11       		.uleb128 0x11
 679 01f9 01       		.byte	0x1
 680 01fa 50       		.byte	0x50
ARM GAS  G:\Users\Jaxb\AppData\Local\Temp\ccIu7BO8.s 			page 18


 681 01fb 05       		.byte	0x5
 682 01fc 0C       		.byte	0xc
 683 01fd 00380140 		.4byte	0x40013800
 684 0201 11       		.uleb128 0x11
 685 0202 01       		.byte	0x1
 686 0203 51       		.byte	0x51
 687 0204 03       		.byte	0x3
 688 0205 0A       		.byte	0xa
 689 0206 2505     		.2byte	0x525
 690 0208 00       		.byte	0
 691 0209 10       		.uleb128 0x10
 692 020a 18010000 		.4byte	.LVL21
 693 020e BC040000 		.4byte	0x4bc
 694 0212 20020000 		.4byte	0x220
 695 0216 11       		.uleb128 0x11
 696 0217 01       		.byte	0x1
 697 0218 50       		.byte	0x50
 698 0219 05       		.byte	0x5
 699 021a 0C       		.byte	0xc
 700 021b 00380140 		.4byte	0x40013800
 701 021f 00       		.byte	0
 702 0220 12       		.uleb128 0x12
 703 0221 1E010000 		.4byte	.LVL22
 704 0225 CA040000 		.4byte	0x4ca
 705 0229 00       		.byte	0
 706 022a 13       		.uleb128 0x13
 707 022b 01       		.byte	0x1
 708 022c 41000000 		.4byte	.LASF27
 709 0230 01       		.byte	0x1
 710 0231 E7       		.byte	0xe7
 711 0232 01       		.byte	0x1
 712 0233 13       		.uleb128 0x13
 713 0234 01       		.byte	0x1
 714 0235 17020000 		.4byte	.LASF28
 715 0239 01       		.byte	0x1
 716 023a DB       		.byte	0xdb
 717 023b 01       		.byte	0x1
 718 023c 13       		.uleb128 0x13
 719 023d 01       		.byte	0x1
 720 023e 30000000 		.4byte	.LASF29
 721 0242 01       		.byte	0x1
 722 0243 D2       		.byte	0xd2
 723 0244 01       		.byte	0x1
 724 0245 13       		.uleb128 0x13
 725 0246 01       		.byte	0x1
 726 0247 30010000 		.4byte	.LASF30
 727 024b 01       		.byte	0x1
 728 024c C8       		.byte	0xc8
 729 024d 01       		.byte	0x1
 730 024e 14       		.uleb128 0x14
 731 024f 01       		.byte	0x1
 732 0250 CC010000 		.4byte	.LASF31
 733 0254 01       		.byte	0x1
 734 0255 BA       		.byte	0xba
 735 0256 01       		.byte	0x1
 736 0257 E8000000 		.4byte	.LFB43
 737 025b EA000000 		.4byte	.LFE43
ARM GAS  G:\Users\Jaxb\AppData\Local\Temp\ccIu7BO8.s 			page 19


 738 025f 02       		.byte	0x2
 739 0260 7D       		.byte	0x7d
 740 0261 00       		.sleb128 0
 741 0262 01       		.byte	0x1
 742 0263 14       		.uleb128 0x14
 743 0264 01       		.byte	0x1
 744 0265 00000000 		.4byte	.LASF32
 745 0269 01       		.byte	0x1
 746 026a AD       		.byte	0xad
 747 026b 01       		.byte	0x1
 748 026c E4000000 		.4byte	.LFB42
 749 0270 E6000000 		.4byte	.LFE42
 750 0274 02       		.byte	0x2
 751 0275 7D       		.byte	0x7d
 752 0276 00       		.sleb128 0
 753 0277 01       		.byte	0x1
 754 0278 14       		.uleb128 0x14
 755 0279 01       		.byte	0x1
 756 027a A8010000 		.4byte	.LASF33
 757 027e 01       		.byte	0x1
 758 027f A0       		.byte	0xa0
 759 0280 01       		.byte	0x1
 760 0281 E0000000 		.4byte	.LFB41
 761 0285 E2000000 		.4byte	.LFE41
 762 0289 02       		.byte	0x2
 763 028a 7D       		.byte	0x7d
 764 028b 00       		.sleb128 0
 765 028c 01       		.byte	0x1
 766 028d 0F       		.uleb128 0xf
 767 028e 01       		.byte	0x1
 768 028f DF010000 		.4byte	.LASF35
 769 0293 01       		.byte	0x1
 770 0294 45       		.byte	0x45
 771 0295 01       		.byte	0x1
 772 0296 04000000 		.4byte	.LFB40
 773 029a E0000000 		.4byte	.LFE40
 774 029e 20000000 		.4byte	.LLST0
 775 02a2 01       		.byte	0x1
 776 02a3 8D040000 		.4byte	0x48d
 777 02a7 15       		.uleb128 0x15
 778 02a8 A4000000 		.4byte	.LASF51
 779 02ac 01       		.byte	0x1
 780 02ad 45       		.byte	0x45
 781 02ae 8D040000 		.4byte	0x48d
 782 02b2 40000000 		.4byte	.LLST1
 783 02b6 16       		.uleb128 0x16
 784 02b7 17030000 		.4byte	.LASF36
 785 02bb 01       		.byte	0x1
 786 02bc 49       		.byte	0x49
 787 02bd 7F000000 		.4byte	0x7f
 788 02c1 01       		.byte	0x1
 789 02c2 5B       		.byte	0x5b
 790 02c3 16       		.uleb128 0x16
 791 02c4 22030000 		.4byte	.LASF37
 792 02c8 01       		.byte	0x1
 793 02c9 4B       		.byte	0x4b
 794 02ca 7F000000 		.4byte	0x7f
ARM GAS  G:\Users\Jaxb\AppData\Local\Temp\ccIu7BO8.s 			page 20


 795 02ce 01       		.byte	0x1
 796 02cf 5A       		.byte	0x5a
 797 02d0 16       		.uleb128 0x16
 798 02d1 2D030000 		.4byte	.LASF38
 799 02d5 01       		.byte	0x1
 800 02d6 4D       		.byte	0x4d
 801 02d7 7F000000 		.4byte	0x7f
 802 02db 01       		.byte	0x1
 803 02dc 59       		.byte	0x59
 804 02dd 16       		.uleb128 0x16
 805 02de A1030000 		.4byte	.LASF39
 806 02e2 01       		.byte	0x1
 807 02e3 4F       		.byte	0x4f
 808 02e4 7F000000 		.4byte	0x7f
 809 02e8 01       		.byte	0x1
 810 02e9 58       		.byte	0x58
 811 02ea 16       		.uleb128 0x16
 812 02eb 19010000 		.4byte	.LASF40
 813 02ef 01       		.byte	0x1
 814 02f0 51       		.byte	0x51
 815 02f1 7F000000 		.4byte	0x7f
 816 02f5 01       		.byte	0x1
 817 02f6 57       		.byte	0x57
 818 02f7 16       		.uleb128 0x16
 819 02f8 B3000000 		.4byte	.LASF41
 820 02fc 01       		.byte	0x1
 821 02fd 53       		.byte	0x53
 822 02fe 7F000000 		.4byte	0x7f
 823 0302 01       		.byte	0x1
 824 0303 56       		.byte	0x56
 825 0304 16       		.uleb128 0x16
 826 0305 9D010000 		.4byte	.LASF42
 827 0309 01       		.byte	0x1
 828 030a 55       		.byte	0x55
 829 030b 7F000000 		.4byte	0x7f
 830 030f 01       		.byte	0x1
 831 0310 55       		.byte	0x55
 832 0311 16       		.uleb128 0x16
 833 0312 38030000 		.4byte	.LASF43
 834 0316 01       		.byte	0x1
 835 0317 57       		.byte	0x57
 836 0318 7F000000 		.4byte	0x7f
 837 031c 01       		.byte	0x1
 838 031d 54       		.byte	0x54
 839 031e 10       		.uleb128 0x10
 840 031f 20000000 		.4byte	.LVL6
 841 0323 D7040000 		.4byte	0x4d7
 842 0327 35030000 		.4byte	0x335
 843 032b 11       		.uleb128 0x11
 844 032c 01       		.byte	0x1
 845 032d 50       		.byte	0x50
 846 032e 05       		.byte	0x5
 847 032f 03       		.byte	0x3
 848 0330 00000000 		.4byte	.LC0
 849 0334 00       		.byte	0
 850 0335 10       		.uleb128 0x10
 851 0336 28000000 		.4byte	.LVL7
ARM GAS  G:\Users\Jaxb\AppData\Local\Temp\ccIu7BO8.s 			page 21


 852 033a D7040000 		.4byte	0x4d7
 853 033e 52030000 		.4byte	0x352
 854 0342 11       		.uleb128 0x11
 855 0343 01       		.byte	0x1
 856 0344 50       		.byte	0x50
 857 0345 05       		.byte	0x5
 858 0346 03       		.byte	0x3
 859 0347 18000000 		.4byte	.LC1
 860 034b 11       		.uleb128 0x11
 861 034c 01       		.byte	0x1
 862 034d 51       		.byte	0x51
 863 034e 02       		.byte	0x2
 864 034f 7B       		.byte	0x7b
 865 0350 00       		.sleb128 0
 866 0351 00       		.byte	0
 867 0352 10       		.uleb128 0x10
 868 0353 30000000 		.4byte	.LVL8
 869 0357 D7040000 		.4byte	0x4d7
 870 035b 6F030000 		.4byte	0x36f
 871 035f 11       		.uleb128 0x11
 872 0360 01       		.byte	0x1
 873 0361 50       		.byte	0x50
 874 0362 05       		.byte	0x5
 875 0363 03       		.byte	0x3
 876 0364 24000000 		.4byte	.LC2
 877 0368 11       		.uleb128 0x11
 878 0369 01       		.byte	0x1
 879 036a 51       		.byte	0x51
 880 036b 02       		.byte	0x2
 881 036c 7A       		.byte	0x7a
 882 036d 00       		.sleb128 0
 883 036e 00       		.byte	0
 884 036f 10       		.uleb128 0x10
 885 0370 38000000 		.4byte	.LVL9
 886 0374 D7040000 		.4byte	0x4d7
 887 0378 8C030000 		.4byte	0x38c
 888 037c 11       		.uleb128 0x11
 889 037d 01       		.byte	0x1
 890 037e 50       		.byte	0x50
 891 037f 05       		.byte	0x5
 892 0380 03       		.byte	0x3
 893 0381 30000000 		.4byte	.LC3
 894 0385 11       		.uleb128 0x11
 895 0386 01       		.byte	0x1
 896 0387 51       		.byte	0x51
 897 0388 02       		.byte	0x2
 898 0389 79       		.byte	0x79
 899 038a 00       		.sleb128 0
 900 038b 00       		.byte	0
 901 038c 10       		.uleb128 0x10
 902 038d 40000000 		.4byte	.LVL10
 903 0391 D7040000 		.4byte	0x4d7
 904 0395 A9030000 		.4byte	0x3a9
 905 0399 11       		.uleb128 0x11
 906 039a 01       		.byte	0x1
 907 039b 50       		.byte	0x50
 908 039c 05       		.byte	0x5
ARM GAS  G:\Users\Jaxb\AppData\Local\Temp\ccIu7BO8.s 			page 22


 909 039d 03       		.byte	0x3
 910 039e 3C000000 		.4byte	.LC4
 911 03a2 11       		.uleb128 0x11
 912 03a3 01       		.byte	0x1
 913 03a4 51       		.byte	0x51
 914 03a5 02       		.byte	0x2
 915 03a6 78       		.byte	0x78
 916 03a7 00       		.sleb128 0
 917 03a8 00       		.byte	0
 918 03a9 10       		.uleb128 0x10
 919 03aa 48000000 		.4byte	.LVL11
 920 03ae D7040000 		.4byte	0x4d7
 921 03b2 C6030000 		.4byte	0x3c6
 922 03b6 11       		.uleb128 0x11
 923 03b7 01       		.byte	0x1
 924 03b8 50       		.byte	0x50
 925 03b9 05       		.byte	0x5
 926 03ba 03       		.byte	0x3
 927 03bb 48000000 		.4byte	.LC5
 928 03bf 11       		.uleb128 0x11
 929 03c0 01       		.byte	0x1
 930 03c1 51       		.byte	0x51
 931 03c2 02       		.byte	0x2
 932 03c3 77       		.byte	0x77
 933 03c4 00       		.sleb128 0
 934 03c5 00       		.byte	0
 935 03c6 10       		.uleb128 0x10
 936 03c7 50000000 		.4byte	.LVL12
 937 03cb D7040000 		.4byte	0x4d7
 938 03cf E3030000 		.4byte	0x3e3
 939 03d3 11       		.uleb128 0x11
 940 03d4 01       		.byte	0x1
 941 03d5 50       		.byte	0x50
 942 03d6 05       		.byte	0x5
 943 03d7 03       		.byte	0x3
 944 03d8 54000000 		.4byte	.LC6
 945 03dc 11       		.uleb128 0x11
 946 03dd 01       		.byte	0x1
 947 03de 51       		.byte	0x51
 948 03df 02       		.byte	0x2
 949 03e0 76       		.byte	0x76
 950 03e1 00       		.sleb128 0
 951 03e2 00       		.byte	0
 952 03e3 10       		.uleb128 0x10
 953 03e4 58000000 		.4byte	.LVL13
 954 03e8 D7040000 		.4byte	0x4d7
 955 03ec 00040000 		.4byte	0x400
 956 03f0 11       		.uleb128 0x11
 957 03f1 01       		.byte	0x1
 958 03f2 50       		.byte	0x50
 959 03f3 05       		.byte	0x5
 960 03f4 03       		.byte	0x3
 961 03f5 60000000 		.4byte	.LC7
 962 03f9 11       		.uleb128 0x11
 963 03fa 01       		.byte	0x1
 964 03fb 51       		.byte	0x51
 965 03fc 02       		.byte	0x2
ARM GAS  G:\Users\Jaxb\AppData\Local\Temp\ccIu7BO8.s 			page 23


 966 03fd 75       		.byte	0x75
 967 03fe 00       		.sleb128 0
 968 03ff 00       		.byte	0
 969 0400 10       		.uleb128 0x10
 970 0401 60000000 		.4byte	.LVL14
 971 0405 D7040000 		.4byte	0x4d7
 972 0409 1D040000 		.4byte	0x41d
 973 040d 11       		.uleb128 0x11
 974 040e 01       		.byte	0x1
 975 040f 50       		.byte	0x50
 976 0410 05       		.byte	0x5
 977 0411 03       		.byte	0x3
 978 0412 6C000000 		.4byte	.LC8
 979 0416 11       		.uleb128 0x11
 980 0417 01       		.byte	0x1
 981 0418 51       		.byte	0x51
 982 0419 02       		.byte	0x2
 983 041a 74       		.byte	0x74
 984 041b 00       		.sleb128 0
 985 041c 00       		.byte	0
 986 041d 10       		.uleb128 0x10
 987 041e 6A000000 		.4byte	.LVL15
 988 0422 D7040000 		.4byte	0x4d7
 989 0426 34040000 		.4byte	0x434
 990 042a 11       		.uleb128 0x11
 991 042b 01       		.byte	0x1
 992 042c 50       		.byte	0x50
 993 042d 05       		.byte	0x5
 994 042e 03       		.byte	0x3
 995 042f 78000000 		.4byte	.LC9
 996 0433 00       		.byte	0
 997 0434 10       		.uleb128 0x10
 998 0435 74000000 		.4byte	.LVL16
 999 0439 D7040000 		.4byte	0x4d7
 1000 043d 4B040000 		.4byte	0x44b
 1001 0441 11       		.uleb128 0x11
 1002 0442 01       		.byte	0x1
 1003 0443 50       		.byte	0x50
 1004 0444 05       		.byte	0x5
 1005 0445 03       		.byte	0x3
 1006 0446 84000000 		.4byte	.LC10
 1007 044a 00       		.byte	0
 1008 044b 10       		.uleb128 0x10
 1009 044c 7E000000 		.4byte	.LVL17
 1010 0450 D7040000 		.4byte	0x4d7
 1011 0454 62040000 		.4byte	0x462
 1012 0458 11       		.uleb128 0x11
 1013 0459 01       		.byte	0x1
 1014 045a 50       		.byte	0x50
 1015 045b 05       		.byte	0x5
 1016 045c 03       		.byte	0x3
 1017 045d 90000000 		.4byte	.LC11
 1018 0461 00       		.byte	0
 1019 0462 10       		.uleb128 0x10
 1020 0463 88000000 		.4byte	.LVL18
 1021 0467 D7040000 		.4byte	0x4d7
 1022 046b 79040000 		.4byte	0x479
ARM GAS  G:\Users\Jaxb\AppData\Local\Temp\ccIu7BO8.s 			page 24


 1023 046f 11       		.uleb128 0x11
 1024 0470 01       		.byte	0x1
 1025 0471 50       		.byte	0x50
 1026 0472 05       		.byte	0x5
 1027 0473 03       		.byte	0x3
 1028 0474 9C000000 		.4byte	.LC12
 1029 0478 00       		.byte	0
 1030 0479 17       		.uleb128 0x17
 1031 047a 92000000 		.4byte	.LVL19
 1032 047e D7040000 		.4byte	0x4d7
 1033 0482 11       		.uleb128 0x11
 1034 0483 01       		.byte	0x1
 1035 0484 50       		.byte	0x50
 1036 0485 05       		.byte	0x5
 1037 0486 03       		.byte	0x3
 1038 0487 A8000000 		.4byte	.LC13
 1039 048b 00       		.byte	0
 1040 048c 00       		.byte	0
 1041 048d 18       		.uleb128 0x18
 1042 048e 04       		.byte	0x4
 1043 048f 7F000000 		.4byte	0x7f
 1044 0493 19       		.uleb128 0x19
 1045 0494 01       		.byte	0x1
 1046 0495 91010000 		.4byte	.LASF52
 1047 0499 01       		.byte	0x1
 1048 049a 34       		.byte	0x34
 1049 049b 01       		.byte	0x1
 1050 049c 01       		.byte	0x1
 1051 049d 1A       		.uleb128 0x1a
 1052 049e 93040000 		.4byte	0x493
 1053 04a2 00000000 		.4byte	.LFB39
 1054 04a6 02000000 		.4byte	.LFE39
 1055 04aa 02       		.byte	0x2
 1056 04ab 7D       		.byte	0x7d
 1057 04ac 00       		.sleb128 0
 1058 04ad 01       		.byte	0x1
 1059 04ae 1B       		.uleb128 0x1b
 1060 04af 01       		.byte	0x1
 1061 04b0 01       		.byte	0x1
 1062 04b1 4D020000 		.4byte	.LASF44
 1063 04b5 4D020000 		.4byte	.LASF44
 1064 04b9 08       		.byte	0x8
 1065 04ba 8801     		.2byte	0x188
 1066 04bc 1B       		.uleb128 0x1b
 1067 04bd 01       		.byte	0x1
 1068 04be 01       		.byte	0x1
 1069 04bf F0000000 		.4byte	.LASF45
 1070 04c3 F0000000 		.4byte	.LASF45
 1071 04c7 08       		.byte	0x8
 1072 04c8 7B01     		.2byte	0x17b
 1073 04ca 1C       		.uleb128 0x1c
 1074 04cb 01       		.byte	0x1
 1075 04cc 01       		.byte	0x1
 1076 04cd 30020000 		.4byte	.LASF46
 1077 04d1 30020000 		.4byte	.LASF46
 1078 04d5 09       		.byte	0x9
 1079 04d6 09       		.byte	0x9
ARM GAS  G:\Users\Jaxb\AppData\Local\Temp\ccIu7BO8.s 			page 25


 1080 04d7 1C       		.uleb128 0x1c
 1081 04d8 01       		.byte	0x1
 1082 04d9 01       		.byte	0x1
 1083 04da 0F010000 		.4byte	.LASF47
 1084 04de 0F010000 		.4byte	.LASF47
 1085 04e2 0A       		.byte	0xa
 1086 04e3 0C       		.byte	0xc
 1087 04e4 00       		.byte	0
 1088              		.section	.debug_abbrev,"",%progbits
 1089              	.Ldebug_abbrev0:
 1090 0000 01       		.uleb128 0x1
 1091 0001 11       		.uleb128 0x11
 1092 0002 01       		.byte	0x1
 1093 0003 25       		.uleb128 0x25
 1094 0004 0E       		.uleb128 0xe
 1095 0005 13       		.uleb128 0x13
 1096 0006 0B       		.uleb128 0xb
 1097 0007 03       		.uleb128 0x3
 1098 0008 0E       		.uleb128 0xe
 1099 0009 1B       		.uleb128 0x1b
 1100 000a 0E       		.uleb128 0xe
 1101 000b 11       		.uleb128 0x11
 1102 000c 01       		.uleb128 0x1
 1103 000d 12       		.uleb128 0x12
 1104 000e 01       		.uleb128 0x1
 1105 000f 10       		.uleb128 0x10
 1106 0010 06       		.uleb128 0x6
 1107 0011 00       		.byte	0
 1108 0012 00       		.byte	0
 1109 0013 02       		.uleb128 0x2
 1110 0014 24       		.uleb128 0x24
 1111 0015 00       		.byte	0
 1112 0016 0B       		.uleb128 0xb
 1113 0017 0B       		.uleb128 0xb
 1114 0018 3E       		.uleb128 0x3e
 1115 0019 0B       		.uleb128 0xb
 1116 001a 03       		.uleb128 0x3
 1117 001b 0E       		.uleb128 0xe
 1118 001c 00       		.byte	0
 1119 001d 00       		.byte	0
 1120 001e 03       		.uleb128 0x3
 1121 001f 16       		.uleb128 0x16
 1122 0020 00       		.byte	0
 1123 0021 03       		.uleb128 0x3
 1124 0022 0E       		.uleb128 0xe
 1125 0023 3A       		.uleb128 0x3a
 1126 0024 0B       		.uleb128 0xb
 1127 0025 3B       		.uleb128 0x3b
 1128 0026 0B       		.uleb128 0xb
 1129 0027 49       		.uleb128 0x49
 1130 0028 13       		.uleb128 0x13
 1131 0029 00       		.byte	0
 1132 002a 00       		.byte	0
 1133 002b 04       		.uleb128 0x4
 1134 002c 24       		.uleb128 0x24
 1135 002d 00       		.byte	0
 1136 002e 0B       		.uleb128 0xb
ARM GAS  G:\Users\Jaxb\AppData\Local\Temp\ccIu7BO8.s 			page 26


 1137 002f 0B       		.uleb128 0xb
 1138 0030 3E       		.uleb128 0x3e
 1139 0031 0B       		.uleb128 0xb
 1140 0032 03       		.uleb128 0x3
 1141 0033 08       		.uleb128 0x8
 1142 0034 00       		.byte	0
 1143 0035 00       		.byte	0
 1144 0036 05       		.uleb128 0x5
 1145 0037 35       		.uleb128 0x35
 1146 0038 00       		.byte	0
 1147 0039 49       		.uleb128 0x49
 1148 003a 13       		.uleb128 0x13
 1149 003b 00       		.byte	0
 1150 003c 00       		.byte	0
 1151 003d 06       		.uleb128 0x6
 1152 003e 34       		.uleb128 0x34
 1153 003f 00       		.byte	0
 1154 0040 03       		.uleb128 0x3
 1155 0041 0E       		.uleb128 0xe
 1156 0042 3A       		.uleb128 0x3a
 1157 0043 0B       		.uleb128 0xb
 1158 0044 3B       		.uleb128 0x3b
 1159 0045 05       		.uleb128 0x5
 1160 0046 49       		.uleb128 0x49
 1161 0047 13       		.uleb128 0x13
 1162 0048 3F       		.uleb128 0x3f
 1163 0049 0C       		.uleb128 0xc
 1164 004a 3C       		.uleb128 0x3c
 1165 004b 0C       		.uleb128 0xc
 1166 004c 00       		.byte	0
 1167 004d 00       		.byte	0
 1168 004e 07       		.uleb128 0x7
 1169 004f 34       		.uleb128 0x34
 1170 0050 00       		.byte	0
 1171 0051 03       		.uleb128 0x3
 1172 0052 0E       		.uleb128 0xe
 1173 0053 3A       		.uleb128 0x3a
 1174 0054 0B       		.uleb128 0xb
 1175 0055 3B       		.uleb128 0x3b
 1176 0056 0B       		.uleb128 0xb
 1177 0057 49       		.uleb128 0x49
 1178 0058 13       		.uleb128 0x13
 1179 0059 3F       		.uleb128 0x3f
 1180 005a 0C       		.uleb128 0xc
 1181 005b 3C       		.uleb128 0x3c
 1182 005c 0C       		.uleb128 0xc
 1183 005d 00       		.byte	0
 1184 005e 00       		.byte	0
 1185 005f 08       		.uleb128 0x8
 1186 0060 04       		.uleb128 0x4
 1187 0061 01       		.byte	0x1
 1188 0062 3E       		.uleb128 0x3e
 1189 0063 0B       		.uleb128 0xb
 1190 0064 0B       		.uleb128 0xb
 1191 0065 0B       		.uleb128 0xb
 1192 0066 49       		.uleb128 0x49
 1193 0067 13       		.uleb128 0x13
ARM GAS  G:\Users\Jaxb\AppData\Local\Temp\ccIu7BO8.s 			page 27


 1194 0068 3A       		.uleb128 0x3a
 1195 0069 0B       		.uleb128 0xb
 1196 006a 3B       		.uleb128 0x3b
 1197 006b 05       		.uleb128 0x5
 1198 006c 01       		.uleb128 0x1
 1199 006d 13       		.uleb128 0x13
 1200 006e 00       		.byte	0
 1201 006f 00       		.byte	0
 1202 0070 09       		.uleb128 0x9
 1203 0071 28       		.uleb128 0x28
 1204 0072 00       		.byte	0
 1205 0073 03       		.uleb128 0x3
 1206 0074 0E       		.uleb128 0xe
 1207 0075 1C       		.uleb128 0x1c
 1208 0076 0B       		.uleb128 0xb
 1209 0077 00       		.byte	0
 1210 0078 00       		.byte	0
 1211 0079 0A       		.uleb128 0xa
 1212 007a 28       		.uleb128 0x28
 1213 007b 00       		.byte	0
 1214 007c 03       		.uleb128 0x3
 1215 007d 08       		.uleb128 0x8
 1216 007e 1C       		.uleb128 0x1c
 1217 007f 0B       		.uleb128 0xb
 1218 0080 00       		.byte	0
 1219 0081 00       		.byte	0
 1220 0082 0B       		.uleb128 0xb
 1221 0083 13       		.uleb128 0x13
 1222 0084 01       		.byte	0x1
 1223 0085 0B       		.uleb128 0xb
 1224 0086 0B       		.uleb128 0xb
 1225 0087 3A       		.uleb128 0x3a
 1226 0088 0B       		.uleb128 0xb
 1227 0089 3B       		.uleb128 0x3b
 1228 008a 05       		.uleb128 0x5
 1229 008b 01       		.uleb128 0x1
 1230 008c 13       		.uleb128 0x13
 1231 008d 00       		.byte	0
 1232 008e 00       		.byte	0
 1233 008f 0C       		.uleb128 0xc
 1234 0090 0D       		.uleb128 0xd
 1235 0091 00       		.byte	0
 1236 0092 03       		.uleb128 0x3
 1237 0093 08       		.uleb128 0x8
 1238 0094 3A       		.uleb128 0x3a
 1239 0095 0B       		.uleb128 0xb
 1240 0096 3B       		.uleb128 0x3b
 1241 0097 05       		.uleb128 0x5
 1242 0098 49       		.uleb128 0x49
 1243 0099 13       		.uleb128 0x13
 1244 009a 38       		.uleb128 0x38
 1245 009b 0A       		.uleb128 0xa
 1246 009c 00       		.byte	0
 1247 009d 00       		.byte	0
 1248 009e 0D       		.uleb128 0xd
 1249 009f 0D       		.uleb128 0xd
 1250 00a0 00       		.byte	0
ARM GAS  G:\Users\Jaxb\AppData\Local\Temp\ccIu7BO8.s 			page 28


 1251 00a1 03       		.uleb128 0x3
 1252 00a2 0E       		.uleb128 0xe
 1253 00a3 3A       		.uleb128 0x3a
 1254 00a4 0B       		.uleb128 0xb
 1255 00a5 3B       		.uleb128 0x3b
 1256 00a6 05       		.uleb128 0x5
 1257 00a7 49       		.uleb128 0x49
 1258 00a8 13       		.uleb128 0x13
 1259 00a9 38       		.uleb128 0x38
 1260 00aa 0A       		.uleb128 0xa
 1261 00ab 00       		.byte	0
 1262 00ac 00       		.byte	0
 1263 00ad 0E       		.uleb128 0xe
 1264 00ae 16       		.uleb128 0x16
 1265 00af 00       		.byte	0
 1266 00b0 03       		.uleb128 0x3
 1267 00b1 0E       		.uleb128 0xe
 1268 00b2 3A       		.uleb128 0x3a
 1269 00b3 0B       		.uleb128 0xb
 1270 00b4 3B       		.uleb128 0x3b
 1271 00b5 05       		.uleb128 0x5
 1272 00b6 49       		.uleb128 0x49
 1273 00b7 13       		.uleb128 0x13
 1274 00b8 00       		.byte	0
 1275 00b9 00       		.byte	0
 1276 00ba 0F       		.uleb128 0xf
 1277 00bb 2E       		.uleb128 0x2e
 1278 00bc 01       		.byte	0x1
 1279 00bd 3F       		.uleb128 0x3f
 1280 00be 0C       		.uleb128 0xc
 1281 00bf 03       		.uleb128 0x3
 1282 00c0 0E       		.uleb128 0xe
 1283 00c1 3A       		.uleb128 0x3a
 1284 00c2 0B       		.uleb128 0xb
 1285 00c3 3B       		.uleb128 0x3b
 1286 00c4 0B       		.uleb128 0xb
 1287 00c5 27       		.uleb128 0x27
 1288 00c6 0C       		.uleb128 0xc
 1289 00c7 11       		.uleb128 0x11
 1290 00c8 01       		.uleb128 0x1
 1291 00c9 12       		.uleb128 0x12
 1292 00ca 01       		.uleb128 0x1
 1293 00cb 40       		.uleb128 0x40
 1294 00cc 06       		.uleb128 0x6
 1295 00cd 9742     		.uleb128 0x2117
 1296 00cf 0C       		.uleb128 0xc
 1297 00d0 01       		.uleb128 0x1
 1298 00d1 13       		.uleb128 0x13
 1299 00d2 00       		.byte	0
 1300 00d3 00       		.byte	0
 1301 00d4 10       		.uleb128 0x10
 1302 00d5 898201   		.uleb128 0x4109
 1303 00d8 01       		.byte	0x1
 1304 00d9 11       		.uleb128 0x11
 1305 00da 01       		.uleb128 0x1
 1306 00db 31       		.uleb128 0x31
 1307 00dc 13       		.uleb128 0x13
ARM GAS  G:\Users\Jaxb\AppData\Local\Temp\ccIu7BO8.s 			page 29


 1308 00dd 01       		.uleb128 0x1
 1309 00de 13       		.uleb128 0x13
 1310 00df 00       		.byte	0
 1311 00e0 00       		.byte	0
 1312 00e1 11       		.uleb128 0x11
 1313 00e2 8A8201   		.uleb128 0x410a
 1314 00e5 00       		.byte	0
 1315 00e6 02       		.uleb128 0x2
 1316 00e7 0A       		.uleb128 0xa
 1317 00e8 9142     		.uleb128 0x2111
 1318 00ea 0A       		.uleb128 0xa
 1319 00eb 00       		.byte	0
 1320 00ec 00       		.byte	0
 1321 00ed 12       		.uleb128 0x12
 1322 00ee 898201   		.uleb128 0x4109
 1323 00f1 00       		.byte	0
 1324 00f2 11       		.uleb128 0x11
 1325 00f3 01       		.uleb128 0x1
 1326 00f4 31       		.uleb128 0x31
 1327 00f5 13       		.uleb128 0x13
 1328 00f6 00       		.byte	0
 1329 00f7 00       		.byte	0
 1330 00f8 13       		.uleb128 0x13
 1331 00f9 2E       		.uleb128 0x2e
 1332 00fa 00       		.byte	0
 1333 00fb 3F       		.uleb128 0x3f
 1334 00fc 0C       		.uleb128 0xc
 1335 00fd 03       		.uleb128 0x3
 1336 00fe 0E       		.uleb128 0xe
 1337 00ff 3A       		.uleb128 0x3a
 1338 0100 0B       		.uleb128 0xb
 1339 0101 3B       		.uleb128 0x3b
 1340 0102 0B       		.uleb128 0xb
 1341 0103 27       		.uleb128 0x27
 1342 0104 0C       		.uleb128 0xc
 1343 0105 00       		.byte	0
 1344 0106 00       		.byte	0
 1345 0107 14       		.uleb128 0x14
 1346 0108 2E       		.uleb128 0x2e
 1347 0109 00       		.byte	0
 1348 010a 3F       		.uleb128 0x3f
 1349 010b 0C       		.uleb128 0xc
 1350 010c 03       		.uleb128 0x3
 1351 010d 0E       		.uleb128 0xe
 1352 010e 3A       		.uleb128 0x3a
 1353 010f 0B       		.uleb128 0xb
 1354 0110 3B       		.uleb128 0x3b
 1355 0111 0B       		.uleb128 0xb
 1356 0112 27       		.uleb128 0x27
 1357 0113 0C       		.uleb128 0xc
 1358 0114 11       		.uleb128 0x11
 1359 0115 01       		.uleb128 0x1
 1360 0116 12       		.uleb128 0x12
 1361 0117 01       		.uleb128 0x1
 1362 0118 40       		.uleb128 0x40
 1363 0119 0A       		.uleb128 0xa
 1364 011a 9742     		.uleb128 0x2117
ARM GAS  G:\Users\Jaxb\AppData\Local\Temp\ccIu7BO8.s 			page 30


 1365 011c 0C       		.uleb128 0xc
 1366 011d 00       		.byte	0
 1367 011e 00       		.byte	0
 1368 011f 15       		.uleb128 0x15
 1369 0120 05       		.uleb128 0x5
 1370 0121 00       		.byte	0
 1371 0122 03       		.uleb128 0x3
 1372 0123 0E       		.uleb128 0xe
 1373 0124 3A       		.uleb128 0x3a
 1374 0125 0B       		.uleb128 0xb
 1375 0126 3B       		.uleb128 0x3b
 1376 0127 0B       		.uleb128 0xb
 1377 0128 49       		.uleb128 0x49
 1378 0129 13       		.uleb128 0x13
 1379 012a 02       		.uleb128 0x2
 1380 012b 06       		.uleb128 0x6
 1381 012c 00       		.byte	0
 1382 012d 00       		.byte	0
 1383 012e 16       		.uleb128 0x16
 1384 012f 34       		.uleb128 0x34
 1385 0130 00       		.byte	0
 1386 0131 03       		.uleb128 0x3
 1387 0132 0E       		.uleb128 0xe
 1388 0133 3A       		.uleb128 0x3a
 1389 0134 0B       		.uleb128 0xb
 1390 0135 3B       		.uleb128 0x3b
 1391 0136 0B       		.uleb128 0xb
 1392 0137 49       		.uleb128 0x49
 1393 0138 13       		.uleb128 0x13
 1394 0139 02       		.uleb128 0x2
 1395 013a 0A       		.uleb128 0xa
 1396 013b 00       		.byte	0
 1397 013c 00       		.byte	0
 1398 013d 17       		.uleb128 0x17
 1399 013e 898201   		.uleb128 0x4109
 1400 0141 01       		.byte	0x1
 1401 0142 11       		.uleb128 0x11
 1402 0143 01       		.uleb128 0x1
 1403 0144 31       		.uleb128 0x31
 1404 0145 13       		.uleb128 0x13
 1405 0146 00       		.byte	0
 1406 0147 00       		.byte	0
 1407 0148 18       		.uleb128 0x18
 1408 0149 0F       		.uleb128 0xf
 1409 014a 00       		.byte	0
 1410 014b 0B       		.uleb128 0xb
 1411 014c 0B       		.uleb128 0xb
 1412 014d 49       		.uleb128 0x49
 1413 014e 13       		.uleb128 0x13
 1414 014f 00       		.byte	0
 1415 0150 00       		.byte	0
 1416 0151 19       		.uleb128 0x19
 1417 0152 2E       		.uleb128 0x2e
 1418 0153 00       		.byte	0
 1419 0154 3F       		.uleb128 0x3f
 1420 0155 0C       		.uleb128 0xc
 1421 0156 03       		.uleb128 0x3
ARM GAS  G:\Users\Jaxb\AppData\Local\Temp\ccIu7BO8.s 			page 31


 1422 0157 0E       		.uleb128 0xe
 1423 0158 3A       		.uleb128 0x3a
 1424 0159 0B       		.uleb128 0xb
 1425 015a 3B       		.uleb128 0x3b
 1426 015b 0B       		.uleb128 0xb
 1427 015c 27       		.uleb128 0x27
 1428 015d 0C       		.uleb128 0xc
 1429 015e 20       		.uleb128 0x20
 1430 015f 0B       		.uleb128 0xb
 1431 0160 00       		.byte	0
 1432 0161 00       		.byte	0
 1433 0162 1A       		.uleb128 0x1a
 1434 0163 2E       		.uleb128 0x2e
 1435 0164 00       		.byte	0
 1436 0165 31       		.uleb128 0x31
 1437 0166 13       		.uleb128 0x13
 1438 0167 11       		.uleb128 0x11
 1439 0168 01       		.uleb128 0x1
 1440 0169 12       		.uleb128 0x12
 1441 016a 01       		.uleb128 0x1
 1442 016b 40       		.uleb128 0x40
 1443 016c 0A       		.uleb128 0xa
 1444 016d 9742     		.uleb128 0x2117
 1445 016f 0C       		.uleb128 0xc
 1446 0170 00       		.byte	0
 1447 0171 00       		.byte	0
 1448 0172 1B       		.uleb128 0x1b
 1449 0173 2E       		.uleb128 0x2e
 1450 0174 00       		.byte	0
 1451 0175 3F       		.uleb128 0x3f
 1452 0176 0C       		.uleb128 0xc
 1453 0177 3C       		.uleb128 0x3c
 1454 0178 0C       		.uleb128 0xc
 1455 0179 8740     		.uleb128 0x2007
 1456 017b 0E       		.uleb128 0xe
 1457 017c 03       		.uleb128 0x3
 1458 017d 0E       		.uleb128 0xe
 1459 017e 3A       		.uleb128 0x3a
 1460 017f 0B       		.uleb128 0xb
 1461 0180 3B       		.uleb128 0x3b
 1462 0181 05       		.uleb128 0x5
 1463 0182 00       		.byte	0
 1464 0183 00       		.byte	0
 1465 0184 1C       		.uleb128 0x1c
 1466 0185 2E       		.uleb128 0x2e
 1467 0186 00       		.byte	0
 1468 0187 3F       		.uleb128 0x3f
 1469 0188 0C       		.uleb128 0xc
 1470 0189 3C       		.uleb128 0x3c
 1471 018a 0C       		.uleb128 0xc
 1472 018b 8740     		.uleb128 0x2007
 1473 018d 0E       		.uleb128 0xe
 1474 018e 03       		.uleb128 0x3
 1475 018f 0E       		.uleb128 0xe
 1476 0190 3A       		.uleb128 0x3a
 1477 0191 0B       		.uleb128 0xb
 1478 0192 3B       		.uleb128 0x3b
ARM GAS  G:\Users\Jaxb\AppData\Local\Temp\ccIu7BO8.s 			page 32


 1479 0193 0B       		.uleb128 0xb
 1480 0194 00       		.byte	0
 1481 0195 00       		.byte	0
 1482 0196 00       		.byte	0
 1483              		.section	.debug_loc,"",%progbits
 1484              	.Ldebug_loc0:
 1485              	.LLST2:
 1486 0000 FC000000 		.4byte	.LFB48-.Ltext0
 1487 0004 FE000000 		.4byte	.LCFI1-.Ltext0
 1488 0008 0200     		.2byte	0x2
 1489 000a 7D       		.byte	0x7d
 1490 000b 00       		.sleb128 0
 1491 000c FE000000 		.4byte	.LCFI1-.Ltext0
 1492 0010 30010000 		.4byte	.LFE48-.Ltext0
 1493 0014 0200     		.2byte	0x2
 1494 0016 7D       		.byte	0x7d
 1495 0017 08       		.sleb128 8
 1496 0018 00000000 		.4byte	0
 1497 001c 00000000 		.4byte	0
 1498              	.LLST0:
 1499 0020 04000000 		.4byte	.LFB40-.Ltext0
 1500 0024 08000000 		.4byte	.LCFI0-.Ltext0
 1501 0028 0200     		.2byte	0x2
 1502 002a 7D       		.byte	0x7d
 1503 002b 00       		.sleb128 0
 1504 002c 08000000 		.4byte	.LCFI0-.Ltext0
 1505 0030 E0000000 		.4byte	.LFE40-.Ltext0
 1506 0034 0200     		.2byte	0x2
 1507 0036 7D       		.byte	0x7d
 1508 0037 28       		.sleb128 40
 1509 0038 00000000 		.4byte	0
 1510 003c 00000000 		.4byte	0
 1511              	.LLST1:
 1512 0040 04000000 		.4byte	.LVL0-.Ltext0
 1513 0044 0C000000 		.4byte	.LVL1-.Ltext0
 1514 0048 0100     		.2byte	0x1
 1515 004a 50       		.byte	0x50
 1516 004b 0C000000 		.4byte	.LVL1-.Ltext0
 1517 004f 1F000000 		.4byte	.LVL6-1-.Ltext0
 1518 0053 0100     		.2byte	0x1
 1519 0055 53       		.byte	0x53
 1520 0056 1F000000 		.4byte	.LVL6-1-.Ltext0
 1521 005a E0000000 		.4byte	.LFE40-.Ltext0
 1522 005e 0400     		.2byte	0x4
 1523 0060 F3       		.byte	0xf3
 1524 0061 01       		.uleb128 0x1
 1525 0062 50       		.byte	0x50
 1526 0063 9F       		.byte	0x9f
 1527 0064 00000000 		.4byte	0
 1528 0068 00000000 		.4byte	0
 1529              		.section	.debug_aranges,"",%progbits
 1530 0000 1C000000 		.4byte	0x1c
 1531 0004 0200     		.2byte	0x2
 1532 0006 00000000 		.4byte	.Ldebug_info0
 1533 000a 04       		.byte	0x4
 1534 000b 00       		.byte	0
 1535 000c 0000     		.2byte	0
ARM GAS  G:\Users\Jaxb\AppData\Local\Temp\ccIu7BO8.s 			page 33


 1536 000e 0000     		.2byte	0
 1537 0010 00000000 		.4byte	.Ltext0
 1538 0014 30010000 		.4byte	.Letext0-.Ltext0
 1539 0018 00000000 		.4byte	0
 1540 001c 00000000 		.4byte	0
 1541              		.section	.debug_line,"",%progbits
 1542              	.Ldebug_line0:
 1543 0000 F2010000 		.section	.debug_str,"MS",%progbits,1
 1543      0200A901 
 1543      00000201 
 1543      FB0E0D00 
 1543      01010101 
 1544              	.LASF32:
 1545 0000 42757346 		.ascii	"BusFault_Handler\000"
 1545      61756C74 
 1545      5F48616E 
 1545      646C6572 
 1545      00
 1546              	.LASF21:
 1547 0011 52455345 		.ascii	"RESERVED5\000"
 1547      52564544 
 1547      3500
 1548              	.LASF23:
 1549 001b 52455345 		.ascii	"RESERVED6\000"
 1549      52564544 
 1549      3600
 1550              	.LASF6:
 1551 0025 5F5F7569 		.ascii	"__uint32_t\000"
 1551      6E743332 
 1551      5F7400
 1552              	.LASF29:
 1553 0030 44656275 		.ascii	"DebugMon_Handler\000"
 1553      674D6F6E 
 1553      5F48616E 
 1553      646C6572 
 1553      00
 1554              	.LASF27:
 1555 0041 53797354 		.ascii	"SysTick_Handler\000"
 1555      69636B5F 
 1555      48616E64 
 1555      6C657200 
 1556              	.LASF3:
 1557 0051 73686F72 		.ascii	"short unsigned int\000"
 1557      7420756E 
 1557      7369676E 
 1557      65642069 
 1557      6E7400
 1558              	.LASF24:
 1559 0064 55534152 		.ascii	"USART_TypeDef\000"
 1559      545F5479 
 1559      70654465 
 1559      6600
 1560              	.LASF16:
 1561 0072 52455345 		.ascii	"RESERVED0\000"
 1561      52564544 
 1561      3000
 1562              	.LASF17:
ARM GAS  G:\Users\Jaxb\AppData\Local\Temp\ccIu7BO8.s 			page 34


 1563 007c 52455345 		.ascii	"RESERVED1\000"
 1563      52564544 
 1563      3100
 1564              	.LASF18:
 1565 0086 52455345 		.ascii	"RESERVED2\000"
 1565      52564544 
 1565      3200
 1566              	.LASF19:
 1567 0090 52455345 		.ascii	"RESERVED3\000"
 1567      52564544 
 1567      3300
 1568              	.LASF20:
 1569 009a 52455345 		.ascii	"RESERVED4\000"
 1569      52564544 
 1569      3400
 1570              	.LASF51:
 1571 00a4 68617264 		.ascii	"hardfault_args\000"
 1571      6661756C 
 1571      745F6172 
 1571      677300
 1572              	.LASF41:
 1573 00b3 73746163 		.ascii	"stacked_lr\000"
 1573      6B65645F 
 1573      6C7200
 1574              	.LASF0:
 1575 00be 7369676E 		.ascii	"signed char\000"
 1575      65642063 
 1575      68617200 
 1576              	.LASF1:
 1577 00ca 756E7369 		.ascii	"unsigned char\000"
 1577      676E6564 
 1577      20636861 
 1577      7200
 1578              	.LASF7:
 1579 00d8 6C6F6E67 		.ascii	"long unsigned int\000"
 1579      20756E73 
 1579      69676E65 
 1579      6420696E 
 1579      7400
 1580              	.LASF15:
 1581 00ea 52455345 		.ascii	"RESET\000"
 1581      5400
 1582              	.LASF45:
 1583 00f0 55534152 		.ascii	"USART_ReceiveData\000"
 1583      545F5265 
 1583      63656976 
 1583      65446174 
 1583      6100
 1584              	.LASF13:
 1585 0102 49544D5F 		.ascii	"ITM_RxBuffer\000"
 1585      52784275 
 1585      66666572 
 1585      00
 1586              	.LASF47:
 1587 010f 6B615F70 		.ascii	"ka_printf\000"
 1587      72696E74 
 1587      6600
ARM GAS  G:\Users\Jaxb\AppData\Local\Temp\ccIu7BO8.s 			page 35


 1588              	.LASF40:
 1589 0119 73746163 		.ascii	"stacked_r12\000"
 1589      6B65645F 
 1589      72313200 
 1590              	.LASF5:
 1591 0125 5F5F7569 		.ascii	"__uint16_t\000"
 1591      6E743136 
 1591      5F7400
 1592              	.LASF30:
 1593 0130 5356435F 		.ascii	"SVC_Handler\000"
 1593      48616E64 
 1593      6C657200 
 1594              	.LASF22:
 1595 013c 47545052 		.ascii	"GTPR\000"
 1595      00
 1596              	.LASF10:
 1597 0141 756E7369 		.ascii	"unsigned int\000"
 1597      676E6564 
 1597      20696E74 
 1597      00
 1598              	.LASF49:
 1599 014e 2E2E2F2E 		.ascii	"../../source/src/user/OS_CPU/stm32f10x_it.c\000"
 1599      2E2F736F 
 1599      75726365 
 1599      2F737263 
 1599      2F757365 
 1600              	.LASF9:
 1601 017a 6C6F6E67 		.ascii	"long long unsigned int\000"
 1601      206C6F6E 
 1601      6720756E 
 1601      7369676E 
 1601      65642069 
 1602              	.LASF52:
 1603 0191 4E4D495F 		.ascii	"NMI_Handler\000"
 1603      48616E64 
 1603      6C657200 
 1604              	.LASF42:
 1605 019d 73746163 		.ascii	"stacked_pc\000"
 1605      6B65645F 
 1605      706300
 1606              	.LASF33:
 1607 01a8 4D656D4D 		.ascii	"MemManage_Handler\000"
 1607      616E6167 
 1607      655F4861 
 1607      6E646C65 
 1607      7200
 1608              	.LASF34:
 1609 01ba 55534152 		.ascii	"USART1_IRQHandler\000"
 1609      54315F49 
 1609      52514861 
 1609      6E646C65 
 1609      7200
 1610              	.LASF31:
 1611 01cc 55736167 		.ascii	"UsageFault_Handler\000"
 1611      65466175 
 1611      6C745F48 
 1611      616E646C 
ARM GAS  G:\Users\Jaxb\AppData\Local\Temp\ccIu7BO8.s 			page 36


 1611      657200
 1612              	.LASF35:
 1613 01df 68617264 		.ascii	"hard_fault_handler_c\000"
 1613      5F666175 
 1613      6C745F68 
 1613      616E646C 
 1613      65725F63 
 1614              	.LASF8:
 1615 01f4 6C6F6E67 		.ascii	"long long int\000"
 1615      206C6F6E 
 1615      6720696E 
 1615      7400
 1616              	.LASF26:
 1617 0202 63686172 		.ascii	"char\000"
 1617      00
 1618              	.LASF14:
 1619 0207 53797374 		.ascii	"SystemCoreClock\000"
 1619      656D436F 
 1619      7265436C 
 1619      6F636B00 
 1620              	.LASF28:
 1621 0217 50656E64 		.ascii	"PendSV_Handler\000"
 1621      53565F48 
 1621      616E646C 
 1621      657200
 1622              	.LASF2:
 1623 0226 73686F72 		.ascii	"short int\000"
 1623      7420696E 
 1623      7400
 1624              	.LASF46:
 1625 0230 7075745F 		.ascii	"put_in_shell_buffer\000"
 1625      696E5F73 
 1625      68656C6C 
 1625      5F627566 
 1625      66657200 
 1626              	.LASF11:
 1627 0244 75696E74 		.ascii	"uint16_t\000"
 1627      31365F74 
 1627      00
 1628              	.LASF44:
 1629 024d 55534152 		.ascii	"USART_GetITStatus\000"
 1629      545F4765 
 1629      74495453 
 1629      74617475 
 1629      7300
 1630              	.LASF12:
 1631 025f 75696E74 		.ascii	"uint32_t\000"
 1631      33325F74 
 1631      00
 1632              	.LASF4:
 1633 0268 6C6F6E67 		.ascii	"long int\000"
 1633      20696E74 
 1633      00
 1634              	.LASF48:
 1635 0271 474E5520 		.ascii	"GNU C11 7.3.1 20180622 (release) [ARM/embedded-7-br"
 1635      43313120 
 1635      372E332E 
ARM GAS  G:\Users\Jaxb\AppData\Local\Temp\ccIu7BO8.s 			page 37


 1635      31203230 
 1635      31383036 
 1636 02a4 616E6368 		.ascii	"anch revision 261907] -mcpu=cortex-m3 -mthumb -mapc"
 1636      20726576 
 1636      6973696F 
 1636      6E203236 
 1636      31393037 
 1637 02d7 732D6672 		.ascii	"s-frame -mthumb-interwork -mcpu=cortex-m3 -mthumb -"
 1637      616D6520 
 1637      2D6D7468 
 1637      756D622D 
 1637      696E7465 
 1638 030a 67647761 		.ascii	"gdwarf-2 -O2\000"
 1638      72662D32 
 1638      202D4F32 
 1638      00
 1639              	.LASF36:
 1640 0317 73746163 		.ascii	"stacked_r0\000"
 1640      6B65645F 
 1640      723000
 1641              	.LASF37:
 1642 0322 73746163 		.ascii	"stacked_r1\000"
 1642      6B65645F 
 1642      723100
 1643              	.LASF38:
 1644 032d 73746163 		.ascii	"stacked_r2\000"
 1644      6B65645F 
 1644      723200
 1645              	.LASF43:
 1646 0338 73746163 		.ascii	"stacked_psr\000"
 1646      6B65645F 
 1646      70737200 
 1647              	.LASF25:
 1648 0344 675F696E 		.ascii	"g_interrupt_count\000"
 1648      74657272 
 1648      7570745F 
 1648      636F756E 
 1648      7400
 1649              	.LASF50:
 1650 0356 473A5C55 		.ascii	"G:\\Users\\Jaxb\\Desktop\\KAKAOS-0.07  2019.2.21  f"
 1650      73657273 
 1650      5C4A6178 
 1650      625C4465 
 1650      736B746F 
 1651 0385 6F722067 		.ascii	"or gcc\\Project\\RVMDK\243\250uv5\243\251\000"
 1651      63635C50 
 1651      726F6A65 
 1651      63745C52 
 1651      564D444B 
 1652              	.LASF39:
 1653 03a1 73746163 		.ascii	"stacked_r3\000"
 1653      6B65645F 
 1653      723300
 1654              		.ident	"GCC: (GNU Tools for Arm Embedded Processors 7-2018-q2-update) 7.3.1 20180622 (release) [AR
ARM GAS  G:\Users\Jaxb\AppData\Local\Temp\ccIu7BO8.s 			page 38


DEFINED SYMBOLS
                            *ABS*:00000000 stm32f10x_it.c
G:\Users\Jaxb\AppData\Local\Temp\ccIu7BO8.s:15     .text:00000000 $t
G:\Users\Jaxb\AppData\Local\Temp\ccIu7BO8.s:23     .text:00000000 NMI_Handler
G:\Users\Jaxb\AppData\Local\Temp\ccIu7BO8.s:44     .text:00000004 hard_fault_handler_c
G:\Users\Jaxb\AppData\Local\Temp\ccIu7BO8.s:159    .text:00000094 $d
G:\Users\Jaxb\AppData\Local\Temp\ccIu7BO8.s:181    .text:000000e0 $t
G:\Users\Jaxb\AppData\Local\Temp\ccIu7BO8.s:189    .text:000000e0 MemManage_Handler
G:\Users\Jaxb\AppData\Local\Temp\ccIu7BO8.s:210    .text:000000e4 BusFault_Handler
G:\Users\Jaxb\AppData\Local\Temp\ccIu7BO8.s:231    .text:000000e8 UsageFault_Handler
G:\Users\Jaxb\AppData\Local\Temp\ccIu7BO8.s:252    .text:000000ec SVC_Handler
G:\Users\Jaxb\AppData\Local\Temp\ccIu7BO8.s:270    .text:000000f0 DebugMon_Handler
G:\Users\Jaxb\AppData\Local\Temp\ccIu7BO8.s:288    .text:000000f4 PendSV_Handler
G:\Users\Jaxb\AppData\Local\Temp\ccIu7BO8.s:306    .text:000000f8 SysTick_Handler
G:\Users\Jaxb\AppData\Local\Temp\ccIu7BO8.s:324    .text:000000fc USART1_IRQHandler
G:\Users\Jaxb\AppData\Local\Temp\ccIu7BO8.s:368    .text:00000128 $d
G:\Users\Jaxb\AppData\Local\Temp\ccIu7BO8.s:374    .rodata.str1.4:00000000 $d

UNDEFINED SYMBOLS
ka_printf
USART_GetITStatus
USART_ReceiveData
put_in_shell_buffer
g_interrupt_count
