ARM GAS  G:\Users\Jaxb\AppData\Local\Temp\ccmT3S8V.s 			page 1


   1              		.cpu cortex-m3
   2              		.eabi_attribute 20, 1
   3              		.eabi_attribute 21, 1
   4              		.eabi_attribute 23, 3
   5              		.eabi_attribute 24, 1
   6              		.eabi_attribute 25, 1
   7              		.eabi_attribute 26, 1
   8              		.eabi_attribute 30, 2
   9              		.eabi_attribute 34, 1
  10              		.eabi_attribute 18, 4
  11              		.file	"stm32f10x_sdio.c"
  12              		.text
  13              	.Ltext0:
  14              		.cfi_sections	.debug_frame
  15              		.align	1
  16              		.p2align 2,,3
  17              		.global	SDIO_DeInit
  18              		.syntax unified
  19              		.thumb
  20              		.thumb_func
  21              		.fpu softvfp
  22              		.type	SDIO_DeInit, %function
  23              	SDIO_DeInit:
  24              	.LFB29:
  25              		.file 1 "../../source/src/FWlib/src/stm32f10x_sdio.c"
   1:../../source/src/FWlib/src/stm32f10x_sdio.c **** /**
   2:../../source/src/FWlib/src/stm32f10x_sdio.c ****   ******************************************************************************
   3:../../source/src/FWlib/src/stm32f10x_sdio.c ****   * @file    stm32f10x_sdio.c
   4:../../source/src/FWlib/src/stm32f10x_sdio.c ****   * @author  MCD Application Team
   5:../../source/src/FWlib/src/stm32f10x_sdio.c ****   * @version V3.5.0
   6:../../source/src/FWlib/src/stm32f10x_sdio.c ****   * @date    11-March-2011
   7:../../source/src/FWlib/src/stm32f10x_sdio.c ****   * @brief   This file provides all the SDIO firmware functions.
   8:../../source/src/FWlib/src/stm32f10x_sdio.c ****   ******************************************************************************
   9:../../source/src/FWlib/src/stm32f10x_sdio.c ****   * @attention
  10:../../source/src/FWlib/src/stm32f10x_sdio.c ****   *
  11:../../source/src/FWlib/src/stm32f10x_sdio.c ****   * THE PRESENT FIRMWARE WHICH IS FOR GUIDANCE ONLY AIMS AT PROVIDING CUSTOMERS
  12:../../source/src/FWlib/src/stm32f10x_sdio.c ****   * WITH CODING INFORMATION REGARDING THEIR PRODUCTS IN ORDER FOR THEM TO SAVE
  13:../../source/src/FWlib/src/stm32f10x_sdio.c ****   * TIME. AS A RESULT, STMICROELECTRONICS SHALL NOT BE HELD LIABLE FOR ANY
  14:../../source/src/FWlib/src/stm32f10x_sdio.c ****   * DIRECT, INDIRECT OR CONSEQUENTIAL DAMAGES WITH RESPECT TO ANY CLAIMS ARISING
  15:../../source/src/FWlib/src/stm32f10x_sdio.c ****   * FROM THE CONTENT OF SUCH FIRMWARE AND/OR THE USE MADE BY CUSTOMERS OF THE
  16:../../source/src/FWlib/src/stm32f10x_sdio.c ****   * CODING INFORMATION CONTAINED HEREIN IN CONNECTION WITH THEIR PRODUCTS.
  17:../../source/src/FWlib/src/stm32f10x_sdio.c ****   *
  18:../../source/src/FWlib/src/stm32f10x_sdio.c ****   * <h2><center>&copy; COPYRIGHT 2011 STMicroelectronics</center></h2>
  19:../../source/src/FWlib/src/stm32f10x_sdio.c ****   ******************************************************************************
  20:../../source/src/FWlib/src/stm32f10x_sdio.c ****   */
  21:../../source/src/FWlib/src/stm32f10x_sdio.c **** 
  22:../../source/src/FWlib/src/stm32f10x_sdio.c **** /* Includes ------------------------------------------------------------------*/
  23:../../source/src/FWlib/src/stm32f10x_sdio.c **** #include "stm32f10x_sdio.h"
  24:../../source/src/FWlib/src/stm32f10x_sdio.c **** #include "stm32f10x_rcc.h"
  25:../../source/src/FWlib/src/stm32f10x_sdio.c **** 
  26:../../source/src/FWlib/src/stm32f10x_sdio.c **** /** @addtogroup STM32F10x_StdPeriph_Driver
  27:../../source/src/FWlib/src/stm32f10x_sdio.c ****   * @{
  28:../../source/src/FWlib/src/stm32f10x_sdio.c ****   */
  29:../../source/src/FWlib/src/stm32f10x_sdio.c **** 
  30:../../source/src/FWlib/src/stm32f10x_sdio.c **** /** @defgroup SDIO 
  31:../../source/src/FWlib/src/stm32f10x_sdio.c ****   * @brief SDIO driver modules
  32:../../source/src/FWlib/src/stm32f10x_sdio.c ****   * @{
ARM GAS  G:\Users\Jaxb\AppData\Local\Temp\ccmT3S8V.s 			page 2


  33:../../source/src/FWlib/src/stm32f10x_sdio.c ****   */ 
  34:../../source/src/FWlib/src/stm32f10x_sdio.c **** 
  35:../../source/src/FWlib/src/stm32f10x_sdio.c **** /** @defgroup SDIO_Private_TypesDefinitions
  36:../../source/src/FWlib/src/stm32f10x_sdio.c ****   * @{
  37:../../source/src/FWlib/src/stm32f10x_sdio.c ****   */ 
  38:../../source/src/FWlib/src/stm32f10x_sdio.c **** 
  39:../../source/src/FWlib/src/stm32f10x_sdio.c **** /* ------------ SDIO registers bit address in the alias region ----------- */
  40:../../source/src/FWlib/src/stm32f10x_sdio.c **** #define SDIO_OFFSET                (SDIO_BASE - PERIPH_BASE)
  41:../../source/src/FWlib/src/stm32f10x_sdio.c **** 
  42:../../source/src/FWlib/src/stm32f10x_sdio.c **** /* --- CLKCR Register ---*/
  43:../../source/src/FWlib/src/stm32f10x_sdio.c **** 
  44:../../source/src/FWlib/src/stm32f10x_sdio.c **** /* Alias word address of CLKEN bit */
  45:../../source/src/FWlib/src/stm32f10x_sdio.c **** #define CLKCR_OFFSET              (SDIO_OFFSET + 0x04)
  46:../../source/src/FWlib/src/stm32f10x_sdio.c **** #define CLKEN_BitNumber           0x08
  47:../../source/src/FWlib/src/stm32f10x_sdio.c **** #define CLKCR_CLKEN_BB            (PERIPH_BB_BASE + (CLKCR_OFFSET * 32) + (CLKEN_BitNumber * 4))
  48:../../source/src/FWlib/src/stm32f10x_sdio.c **** 
  49:../../source/src/FWlib/src/stm32f10x_sdio.c **** /* --- CMD Register ---*/
  50:../../source/src/FWlib/src/stm32f10x_sdio.c **** 
  51:../../source/src/FWlib/src/stm32f10x_sdio.c **** /* Alias word address of SDIOSUSPEND bit */
  52:../../source/src/FWlib/src/stm32f10x_sdio.c **** #define CMD_OFFSET                (SDIO_OFFSET + 0x0C)
  53:../../source/src/FWlib/src/stm32f10x_sdio.c **** #define SDIOSUSPEND_BitNumber     0x0B
  54:../../source/src/FWlib/src/stm32f10x_sdio.c **** #define CMD_SDIOSUSPEND_BB        (PERIPH_BB_BASE + (CMD_OFFSET * 32) + (SDIOSUSPEND_BitNumber * 4)
  55:../../source/src/FWlib/src/stm32f10x_sdio.c **** 
  56:../../source/src/FWlib/src/stm32f10x_sdio.c **** /* Alias word address of ENCMDCOMPL bit */
  57:../../source/src/FWlib/src/stm32f10x_sdio.c **** #define ENCMDCOMPL_BitNumber      0x0C
  58:../../source/src/FWlib/src/stm32f10x_sdio.c **** #define CMD_ENCMDCOMPL_BB         (PERIPH_BB_BASE + (CMD_OFFSET * 32) + (ENCMDCOMPL_BitNumber * 4))
  59:../../source/src/FWlib/src/stm32f10x_sdio.c **** 
  60:../../source/src/FWlib/src/stm32f10x_sdio.c **** /* Alias word address of NIEN bit */
  61:../../source/src/FWlib/src/stm32f10x_sdio.c **** #define NIEN_BitNumber            0x0D
  62:../../source/src/FWlib/src/stm32f10x_sdio.c **** #define CMD_NIEN_BB               (PERIPH_BB_BASE + (CMD_OFFSET * 32) + (NIEN_BitNumber * 4))
  63:../../source/src/FWlib/src/stm32f10x_sdio.c **** 
  64:../../source/src/FWlib/src/stm32f10x_sdio.c **** /* Alias word address of ATACMD bit */
  65:../../source/src/FWlib/src/stm32f10x_sdio.c **** #define ATACMD_BitNumber          0x0E
  66:../../source/src/FWlib/src/stm32f10x_sdio.c **** #define CMD_ATACMD_BB             (PERIPH_BB_BASE + (CMD_OFFSET * 32) + (ATACMD_BitNumber * 4))
  67:../../source/src/FWlib/src/stm32f10x_sdio.c **** 
  68:../../source/src/FWlib/src/stm32f10x_sdio.c **** /* --- DCTRL Register ---*/
  69:../../source/src/FWlib/src/stm32f10x_sdio.c **** 
  70:../../source/src/FWlib/src/stm32f10x_sdio.c **** /* Alias word address of DMAEN bit */
  71:../../source/src/FWlib/src/stm32f10x_sdio.c **** #define DCTRL_OFFSET              (SDIO_OFFSET + 0x2C)
  72:../../source/src/FWlib/src/stm32f10x_sdio.c **** #define DMAEN_BitNumber           0x03
  73:../../source/src/FWlib/src/stm32f10x_sdio.c **** #define DCTRL_DMAEN_BB            (PERIPH_BB_BASE + (DCTRL_OFFSET * 32) + (DMAEN_BitNumber * 4))
  74:../../source/src/FWlib/src/stm32f10x_sdio.c **** 
  75:../../source/src/FWlib/src/stm32f10x_sdio.c **** /* Alias word address of RWSTART bit */
  76:../../source/src/FWlib/src/stm32f10x_sdio.c **** #define RWSTART_BitNumber         0x08
  77:../../source/src/FWlib/src/stm32f10x_sdio.c **** #define DCTRL_RWSTART_BB          (PERIPH_BB_BASE + (DCTRL_OFFSET * 32) + (RWSTART_BitNumber * 4))
  78:../../source/src/FWlib/src/stm32f10x_sdio.c **** 
  79:../../source/src/FWlib/src/stm32f10x_sdio.c **** /* Alias word address of RWSTOP bit */
  80:../../source/src/FWlib/src/stm32f10x_sdio.c **** #define RWSTOP_BitNumber          0x09
  81:../../source/src/FWlib/src/stm32f10x_sdio.c **** #define DCTRL_RWSTOP_BB           (PERIPH_BB_BASE + (DCTRL_OFFSET * 32) + (RWSTOP_BitNumber * 4))
  82:../../source/src/FWlib/src/stm32f10x_sdio.c **** 
  83:../../source/src/FWlib/src/stm32f10x_sdio.c **** /* Alias word address of RWMOD bit */
  84:../../source/src/FWlib/src/stm32f10x_sdio.c **** #define RWMOD_BitNumber           0x0A
  85:../../source/src/FWlib/src/stm32f10x_sdio.c **** #define DCTRL_RWMOD_BB            (PERIPH_BB_BASE + (DCTRL_OFFSET * 32) + (RWMOD_BitNumber * 4))
  86:../../source/src/FWlib/src/stm32f10x_sdio.c **** 
  87:../../source/src/FWlib/src/stm32f10x_sdio.c **** /* Alias word address of SDIOEN bit */
  88:../../source/src/FWlib/src/stm32f10x_sdio.c **** #define SDIOEN_BitNumber          0x0B
  89:../../source/src/FWlib/src/stm32f10x_sdio.c **** #define DCTRL_SDIOEN_BB           (PERIPH_BB_BASE + (DCTRL_OFFSET * 32) + (SDIOEN_BitNumber * 4))
ARM GAS  G:\Users\Jaxb\AppData\Local\Temp\ccmT3S8V.s 			page 3


  90:../../source/src/FWlib/src/stm32f10x_sdio.c **** 
  91:../../source/src/FWlib/src/stm32f10x_sdio.c **** /* ---------------------- SDIO registers bit mask ------------------------ */
  92:../../source/src/FWlib/src/stm32f10x_sdio.c **** 
  93:../../source/src/FWlib/src/stm32f10x_sdio.c **** /* --- CLKCR Register ---*/
  94:../../source/src/FWlib/src/stm32f10x_sdio.c **** 
  95:../../source/src/FWlib/src/stm32f10x_sdio.c **** /* CLKCR register clear mask */
  96:../../source/src/FWlib/src/stm32f10x_sdio.c **** #define CLKCR_CLEAR_MASK         ((uint32_t)0xFFFF8100) 
  97:../../source/src/FWlib/src/stm32f10x_sdio.c **** 
  98:../../source/src/FWlib/src/stm32f10x_sdio.c **** /* --- PWRCTRL Register ---*/
  99:../../source/src/FWlib/src/stm32f10x_sdio.c **** 
 100:../../source/src/FWlib/src/stm32f10x_sdio.c **** /* SDIO PWRCTRL Mask */
 101:../../source/src/FWlib/src/stm32f10x_sdio.c **** #define PWR_PWRCTRL_MASK         ((uint32_t)0xFFFFFFFC)
 102:../../source/src/FWlib/src/stm32f10x_sdio.c **** 
 103:../../source/src/FWlib/src/stm32f10x_sdio.c **** /* --- DCTRL Register ---*/
 104:../../source/src/FWlib/src/stm32f10x_sdio.c **** 
 105:../../source/src/FWlib/src/stm32f10x_sdio.c **** /* SDIO DCTRL Clear Mask */
 106:../../source/src/FWlib/src/stm32f10x_sdio.c **** #define DCTRL_CLEAR_MASK         ((uint32_t)0xFFFFFF08)
 107:../../source/src/FWlib/src/stm32f10x_sdio.c **** 
 108:../../source/src/FWlib/src/stm32f10x_sdio.c **** /* --- CMD Register ---*/
 109:../../source/src/FWlib/src/stm32f10x_sdio.c **** 
 110:../../source/src/FWlib/src/stm32f10x_sdio.c **** /* CMD Register clear mask */
 111:../../source/src/FWlib/src/stm32f10x_sdio.c **** #define CMD_CLEAR_MASK           ((uint32_t)0xFFFFF800)
 112:../../source/src/FWlib/src/stm32f10x_sdio.c **** 
 113:../../source/src/FWlib/src/stm32f10x_sdio.c **** /* SDIO RESP Registers Address */
 114:../../source/src/FWlib/src/stm32f10x_sdio.c **** #define SDIO_RESP_ADDR           ((uint32_t)(SDIO_BASE + 0x14))
 115:../../source/src/FWlib/src/stm32f10x_sdio.c **** 
 116:../../source/src/FWlib/src/stm32f10x_sdio.c **** /**
 117:../../source/src/FWlib/src/stm32f10x_sdio.c ****   * @}
 118:../../source/src/FWlib/src/stm32f10x_sdio.c ****   */
 119:../../source/src/FWlib/src/stm32f10x_sdio.c **** 
 120:../../source/src/FWlib/src/stm32f10x_sdio.c **** /** @defgroup SDIO_Private_Defines
 121:../../source/src/FWlib/src/stm32f10x_sdio.c ****   * @{
 122:../../source/src/FWlib/src/stm32f10x_sdio.c ****   */
 123:../../source/src/FWlib/src/stm32f10x_sdio.c **** 
 124:../../source/src/FWlib/src/stm32f10x_sdio.c **** /**
 125:../../source/src/FWlib/src/stm32f10x_sdio.c ****   * @}
 126:../../source/src/FWlib/src/stm32f10x_sdio.c ****   */
 127:../../source/src/FWlib/src/stm32f10x_sdio.c **** 
 128:../../source/src/FWlib/src/stm32f10x_sdio.c **** /** @defgroup SDIO_Private_Macros
 129:../../source/src/FWlib/src/stm32f10x_sdio.c ****   * @{
 130:../../source/src/FWlib/src/stm32f10x_sdio.c ****   */
 131:../../source/src/FWlib/src/stm32f10x_sdio.c **** 
 132:../../source/src/FWlib/src/stm32f10x_sdio.c **** /**
 133:../../source/src/FWlib/src/stm32f10x_sdio.c ****   * @}
 134:../../source/src/FWlib/src/stm32f10x_sdio.c ****   */
 135:../../source/src/FWlib/src/stm32f10x_sdio.c **** 
 136:../../source/src/FWlib/src/stm32f10x_sdio.c **** /** @defgroup SDIO_Private_Variables
 137:../../source/src/FWlib/src/stm32f10x_sdio.c ****   * @{
 138:../../source/src/FWlib/src/stm32f10x_sdio.c ****   */
 139:../../source/src/FWlib/src/stm32f10x_sdio.c **** 
 140:../../source/src/FWlib/src/stm32f10x_sdio.c **** /**
 141:../../source/src/FWlib/src/stm32f10x_sdio.c ****   * @}
 142:../../source/src/FWlib/src/stm32f10x_sdio.c ****   */
 143:../../source/src/FWlib/src/stm32f10x_sdio.c **** 
 144:../../source/src/FWlib/src/stm32f10x_sdio.c **** /** @defgroup SDIO_Private_FunctionPrototypes
 145:../../source/src/FWlib/src/stm32f10x_sdio.c ****   * @{
 146:../../source/src/FWlib/src/stm32f10x_sdio.c ****   */
ARM GAS  G:\Users\Jaxb\AppData\Local\Temp\ccmT3S8V.s 			page 4


 147:../../source/src/FWlib/src/stm32f10x_sdio.c **** 
 148:../../source/src/FWlib/src/stm32f10x_sdio.c **** /**
 149:../../source/src/FWlib/src/stm32f10x_sdio.c ****   * @}
 150:../../source/src/FWlib/src/stm32f10x_sdio.c ****   */
 151:../../source/src/FWlib/src/stm32f10x_sdio.c **** 
 152:../../source/src/FWlib/src/stm32f10x_sdio.c **** /** @defgroup SDIO_Private_Functions
 153:../../source/src/FWlib/src/stm32f10x_sdio.c ****   * @{
 154:../../source/src/FWlib/src/stm32f10x_sdio.c ****   */
 155:../../source/src/FWlib/src/stm32f10x_sdio.c **** 
 156:../../source/src/FWlib/src/stm32f10x_sdio.c **** /**
 157:../../source/src/FWlib/src/stm32f10x_sdio.c ****   * @brief  Deinitializes the SDIO peripheral registers to their default reset values.
 158:../../source/src/FWlib/src/stm32f10x_sdio.c ****   * @param  None
 159:../../source/src/FWlib/src/stm32f10x_sdio.c ****   * @retval None
 160:../../source/src/FWlib/src/stm32f10x_sdio.c ****   */
 161:../../source/src/FWlib/src/stm32f10x_sdio.c **** void SDIO_DeInit(void)
 162:../../source/src/FWlib/src/stm32f10x_sdio.c **** {
  26              		.loc 1 162 0
  27              		.cfi_startproc
  28              		@ args = 0, pretend = 0, frame = 0
  29              		@ frame_needed = 0, uses_anonymous_args = 0
  30              		@ link register save eliminated.
 163:../../source/src/FWlib/src/stm32f10x_sdio.c ****   SDIO->POWER = 0x00000000;
  31              		.loc 1 163 0
  32 0000 0022     		movs	r2, #0
  33 0002 064B     		ldr	r3, .L3
 164:../../source/src/FWlib/src/stm32f10x_sdio.c ****   SDIO->CLKCR = 0x00000000;
 165:../../source/src/FWlib/src/stm32f10x_sdio.c ****   SDIO->ARG = 0x00000000;
 166:../../source/src/FWlib/src/stm32f10x_sdio.c ****   SDIO->CMD = 0x00000000;
 167:../../source/src/FWlib/src/stm32f10x_sdio.c ****   SDIO->DTIMER = 0x00000000;
 168:../../source/src/FWlib/src/stm32f10x_sdio.c ****   SDIO->DLEN = 0x00000000;
 169:../../source/src/FWlib/src/stm32f10x_sdio.c ****   SDIO->DCTRL = 0x00000000;
 170:../../source/src/FWlib/src/stm32f10x_sdio.c ****   SDIO->ICR = 0x00C007FF;
  34              		.loc 1 170 0
  35 0004 0649     		ldr	r1, .L3+4
 163:../../source/src/FWlib/src/stm32f10x_sdio.c ****   SDIO->POWER = 0x00000000;
  36              		.loc 1 163 0
  37 0006 1A60     		str	r2, [r3]
 164:../../source/src/FWlib/src/stm32f10x_sdio.c ****   SDIO->CLKCR = 0x00000000;
  38              		.loc 1 164 0
  39 0008 5A60     		str	r2, [r3, #4]
 165:../../source/src/FWlib/src/stm32f10x_sdio.c ****   SDIO->CMD = 0x00000000;
  40              		.loc 1 165 0
  41 000a 9A60     		str	r2, [r3, #8]
 166:../../source/src/FWlib/src/stm32f10x_sdio.c ****   SDIO->DTIMER = 0x00000000;
  42              		.loc 1 166 0
  43 000c DA60     		str	r2, [r3, #12]
 167:../../source/src/FWlib/src/stm32f10x_sdio.c ****   SDIO->DLEN = 0x00000000;
  44              		.loc 1 167 0
  45 000e 5A62     		str	r2, [r3, #36]
 168:../../source/src/FWlib/src/stm32f10x_sdio.c ****   SDIO->DCTRL = 0x00000000;
  46              		.loc 1 168 0
  47 0010 9A62     		str	r2, [r3, #40]
 169:../../source/src/FWlib/src/stm32f10x_sdio.c ****   SDIO->ICR = 0x00C007FF;
  48              		.loc 1 169 0
  49 0012 DA62     		str	r2, [r3, #44]
  50              		.loc 1 170 0
  51 0014 9963     		str	r1, [r3, #56]
ARM GAS  G:\Users\Jaxb\AppData\Local\Temp\ccmT3S8V.s 			page 5


 171:../../source/src/FWlib/src/stm32f10x_sdio.c ****   SDIO->MASK = 0x00000000;
  52              		.loc 1 171 0
  53 0016 DA63     		str	r2, [r3, #60]
 172:../../source/src/FWlib/src/stm32f10x_sdio.c **** }
  54              		.loc 1 172 0
  55 0018 7047     		bx	lr
  56              	.L4:
  57 001a 00BF     		.align	2
  58              	.L3:
  59 001c 00800140 		.word	1073840128
  60 0020 FF07C000 		.word	12584959
  61              		.cfi_endproc
  62              	.LFE29:
  63              		.size	SDIO_DeInit, .-SDIO_DeInit
  64              		.align	1
  65              		.p2align 2,,3
  66              		.global	SDIO_Init
  67              		.syntax unified
  68              		.thumb
  69              		.thumb_func
  70              		.fpu softvfp
  71              		.type	SDIO_Init, %function
  72              	SDIO_Init:
  73              	.LFB30:
 173:../../source/src/FWlib/src/stm32f10x_sdio.c **** 
 174:../../source/src/FWlib/src/stm32f10x_sdio.c **** /**
 175:../../source/src/FWlib/src/stm32f10x_sdio.c ****   * @brief  Initializes the SDIO peripheral according to the specified 
 176:../../source/src/FWlib/src/stm32f10x_sdio.c ****   *         parameters in the SDIO_InitStruct.
 177:../../source/src/FWlib/src/stm32f10x_sdio.c ****   * @param  SDIO_InitStruct : pointer to a SDIO_InitTypeDef structure 
 178:../../source/src/FWlib/src/stm32f10x_sdio.c ****   *         that contains the configuration information for the SDIO peripheral.
 179:../../source/src/FWlib/src/stm32f10x_sdio.c ****   * @retval None
 180:../../source/src/FWlib/src/stm32f10x_sdio.c ****   */
 181:../../source/src/FWlib/src/stm32f10x_sdio.c **** void SDIO_Init(SDIO_InitTypeDef* SDIO_InitStruct)
 182:../../source/src/FWlib/src/stm32f10x_sdio.c **** {
  74              		.loc 1 182 0
  75              		.cfi_startproc
  76              		@ args = 0, pretend = 0, frame = 0
  77              		@ frame_needed = 0, uses_anonymous_args = 0
  78              		@ link register save eliminated.
  79              	.LVL0:
 183:../../source/src/FWlib/src/stm32f10x_sdio.c ****   uint32_t tmpreg = 0;
 184:../../source/src/FWlib/src/stm32f10x_sdio.c ****     
 185:../../source/src/FWlib/src/stm32f10x_sdio.c ****   /* Check the parameters */
 186:../../source/src/FWlib/src/stm32f10x_sdio.c ****   assert_param(IS_SDIO_CLOCK_EDGE(SDIO_InitStruct->SDIO_ClockEdge));
 187:../../source/src/FWlib/src/stm32f10x_sdio.c ****   assert_param(IS_SDIO_CLOCK_BYPASS(SDIO_InitStruct->SDIO_ClockBypass));
 188:../../source/src/FWlib/src/stm32f10x_sdio.c ****   assert_param(IS_SDIO_CLOCK_POWER_SAVE(SDIO_InitStruct->SDIO_ClockPowerSave));
 189:../../source/src/FWlib/src/stm32f10x_sdio.c ****   assert_param(IS_SDIO_BUS_WIDE(SDIO_InitStruct->SDIO_BusWide));
 190:../../source/src/FWlib/src/stm32f10x_sdio.c ****   assert_param(IS_SDIO_HARDWARE_FLOW_CONTROL(SDIO_InitStruct->SDIO_HardwareFlowControl)); 
 191:../../source/src/FWlib/src/stm32f10x_sdio.c ****    
 192:../../source/src/FWlib/src/stm32f10x_sdio.c **** /*---------------------------- SDIO CLKCR Configuration ------------------------*/  
 193:../../source/src/FWlib/src/stm32f10x_sdio.c ****   /* Get the SDIO CLKCR value */
 194:../../source/src/FWlib/src/stm32f10x_sdio.c ****   tmpreg = SDIO->CLKCR;
  80              		.loc 1 194 0
  81 0024 0A49     		ldr	r1, .L6
 182:../../source/src/FWlib/src/stm32f10x_sdio.c ****   uint32_t tmpreg = 0;
  82              		.loc 1 182 0
  83 0026 10B4     		push	{r4}
ARM GAS  G:\Users\Jaxb\AppData\Local\Temp\ccmT3S8V.s 			page 6


  84              	.LCFI0:
  85              		.cfi_def_cfa_offset 4
  86              		.cfi_offset 4, -4
  87              		.loc 1 194 0
  88 0028 4A68     		ldr	r2, [r1, #4]
  89              	.LVL1:
  90 002a 4468     		ldr	r4, [r0, #4]
  91 002c 8368     		ldr	r3, [r0, #8]
 195:../../source/src/FWlib/src/stm32f10x_sdio.c ****   
 196:../../source/src/FWlib/src/stm32f10x_sdio.c ****   /* Clear CLKDIV, PWRSAV, BYPASS, WIDBUS, NEGEDGE, HWFC_EN bits */
 197:../../source/src/FWlib/src/stm32f10x_sdio.c ****   tmpreg &= CLKCR_CLEAR_MASK;
  92              		.loc 1 197 0
  93 002e 22F4FD42 		bic	r2, r2, #32384
  94              	.LVL2:
  95 0032 22F07F02 		bic	r2, r2, #127
  96 0036 2343     		orrs	r3, r3, r4
  97 0038 C468     		ldr	r4, [r0, #12]
  98 003a 1343     		orrs	r3, r3, r2
  99 003c 0268     		ldr	r2, [r0]
 100 003e 2343     		orrs	r3, r3, r4
 101 0040 0469     		ldr	r4, [r0, #16]
 102 0042 1343     		orrs	r3, r3, r2
 198:../../source/src/FWlib/src/stm32f10x_sdio.c ****   
 199:../../source/src/FWlib/src/stm32f10x_sdio.c ****   /* Set CLKDIV bits according to SDIO_ClockDiv value */
 200:../../source/src/FWlib/src/stm32f10x_sdio.c ****   /* Set PWRSAV bit according to SDIO_ClockPowerSave value */
 201:../../source/src/FWlib/src/stm32f10x_sdio.c ****   /* Set BYPASS bit according to SDIO_ClockBypass value */
 202:../../source/src/FWlib/src/stm32f10x_sdio.c ****   /* Set WIDBUS bits according to SDIO_BusWide value */
 203:../../source/src/FWlib/src/stm32f10x_sdio.c ****   /* Set NEGEDGE bits according to SDIO_ClockEdge value */
 204:../../source/src/FWlib/src/stm32f10x_sdio.c ****   /* Set HWFC_EN bits according to SDIO_HardwareFlowControl value */
 205:../../source/src/FWlib/src/stm32f10x_sdio.c ****   tmpreg |= (SDIO_InitStruct->SDIO_ClockDiv  | SDIO_InitStruct->SDIO_ClockPowerSave |
 103              		.loc 1 205 0
 104 0044 027D     		ldrb	r2, [r0, #20]	@ zero_extendqisi2
 105 0046 2343     		orrs	r3, r3, r4
 106 0048 1343     		orrs	r3, r3, r2
 107              	.LVL3:
 206:../../source/src/FWlib/src/stm32f10x_sdio.c ****              SDIO_InitStruct->SDIO_ClockBypass | SDIO_InitStruct->SDIO_BusWide |
 207:../../source/src/FWlib/src/stm32f10x_sdio.c ****              SDIO_InitStruct->SDIO_ClockEdge | SDIO_InitStruct->SDIO_HardwareFlowControl); 
 208:../../source/src/FWlib/src/stm32f10x_sdio.c ****   
 209:../../source/src/FWlib/src/stm32f10x_sdio.c ****   /* Write to SDIO CLKCR */
 210:../../source/src/FWlib/src/stm32f10x_sdio.c ****   SDIO->CLKCR = tmpreg;
 108              		.loc 1 210 0
 109 004a 4B60     		str	r3, [r1, #4]
 211:../../source/src/FWlib/src/stm32f10x_sdio.c **** }
 110              		.loc 1 211 0
 111 004c 10BC     		pop	{r4}
 112              	.LCFI1:
 113              		.cfi_restore 4
 114              		.cfi_def_cfa_offset 0
 115 004e 7047     		bx	lr
 116              	.L7:
 117              		.align	2
 118              	.L6:
 119 0050 00800140 		.word	1073840128
 120              		.cfi_endproc
 121              	.LFE30:
 122              		.size	SDIO_Init, .-SDIO_Init
 123              		.align	1
ARM GAS  G:\Users\Jaxb\AppData\Local\Temp\ccmT3S8V.s 			page 7


 124              		.p2align 2,,3
 125              		.global	SDIO_StructInit
 126              		.syntax unified
 127              		.thumb
 128              		.thumb_func
 129              		.fpu softvfp
 130              		.type	SDIO_StructInit, %function
 131              	SDIO_StructInit:
 132              	.LFB31:
 212:../../source/src/FWlib/src/stm32f10x_sdio.c **** 
 213:../../source/src/FWlib/src/stm32f10x_sdio.c **** /**
 214:../../source/src/FWlib/src/stm32f10x_sdio.c ****   * @brief  Fills each SDIO_InitStruct member with its default value.
 215:../../source/src/FWlib/src/stm32f10x_sdio.c ****   * @param  SDIO_InitStruct: pointer to an SDIO_InitTypeDef structure which 
 216:../../source/src/FWlib/src/stm32f10x_sdio.c ****   *   will be initialized.
 217:../../source/src/FWlib/src/stm32f10x_sdio.c ****   * @retval None
 218:../../source/src/FWlib/src/stm32f10x_sdio.c ****   */
 219:../../source/src/FWlib/src/stm32f10x_sdio.c **** void SDIO_StructInit(SDIO_InitTypeDef* SDIO_InitStruct)
 220:../../source/src/FWlib/src/stm32f10x_sdio.c **** {
 133              		.loc 1 220 0
 134              		.cfi_startproc
 135              		@ args = 0, pretend = 0, frame = 0
 136              		@ frame_needed = 0, uses_anonymous_args = 0
 137              		@ link register save eliminated.
 138              	.LVL4:
 221:../../source/src/FWlib/src/stm32f10x_sdio.c ****   /* SDIO_InitStruct members default value */
 222:../../source/src/FWlib/src/stm32f10x_sdio.c ****   SDIO_InitStruct->SDIO_ClockDiv = 0x00;
 139              		.loc 1 222 0
 140 0054 0023     		movs	r3, #0
 141 0056 0375     		strb	r3, [r0, #20]
 223:../../source/src/FWlib/src/stm32f10x_sdio.c ****   SDIO_InitStruct->SDIO_ClockEdge = SDIO_ClockEdge_Rising;
 224:../../source/src/FWlib/src/stm32f10x_sdio.c ****   SDIO_InitStruct->SDIO_ClockBypass = SDIO_ClockBypass_Disable;
 142              		.loc 1 224 0
 143 0058 C0E90033 		strd	r3, r3, [r0]
 225:../../source/src/FWlib/src/stm32f10x_sdio.c ****   SDIO_InitStruct->SDIO_ClockPowerSave = SDIO_ClockPowerSave_Disable;
 226:../../source/src/FWlib/src/stm32f10x_sdio.c ****   SDIO_InitStruct->SDIO_BusWide = SDIO_BusWide_1b;
 144              		.loc 1 226 0
 145 005c C0E90233 		strd	r3, r3, [r0, #8]
 227:../../source/src/FWlib/src/stm32f10x_sdio.c ****   SDIO_InitStruct->SDIO_HardwareFlowControl = SDIO_HardwareFlowControl_Disable;
 146              		.loc 1 227 0
 147 0060 0361     		str	r3, [r0, #16]
 228:../../source/src/FWlib/src/stm32f10x_sdio.c **** }
 148              		.loc 1 228 0
 149 0062 7047     		bx	lr
 150              		.cfi_endproc
 151              	.LFE31:
 152              		.size	SDIO_StructInit, .-SDIO_StructInit
 153              		.align	1
 154              		.p2align 2,,3
 155              		.global	SDIO_ClockCmd
 156              		.syntax unified
 157              		.thumb
 158              		.thumb_func
 159              		.fpu softvfp
 160              		.type	SDIO_ClockCmd, %function
 161              	SDIO_ClockCmd:
 162              	.LFB32:
 229:../../source/src/FWlib/src/stm32f10x_sdio.c **** 
ARM GAS  G:\Users\Jaxb\AppData\Local\Temp\ccmT3S8V.s 			page 8


 230:../../source/src/FWlib/src/stm32f10x_sdio.c **** /**
 231:../../source/src/FWlib/src/stm32f10x_sdio.c ****   * @brief  Enables or disables the SDIO Clock.
 232:../../source/src/FWlib/src/stm32f10x_sdio.c ****   * @param  NewState: new state of the SDIO Clock. This parameter can be: ENABLE or DISABLE.
 233:../../source/src/FWlib/src/stm32f10x_sdio.c ****   * @retval None
 234:../../source/src/FWlib/src/stm32f10x_sdio.c ****   */
 235:../../source/src/FWlib/src/stm32f10x_sdio.c **** void SDIO_ClockCmd(FunctionalState NewState)
 236:../../source/src/FWlib/src/stm32f10x_sdio.c **** {
 163              		.loc 1 236 0
 164              		.cfi_startproc
 165              		@ args = 0, pretend = 0, frame = 0
 166              		@ frame_needed = 0, uses_anonymous_args = 0
 167              		@ link register save eliminated.
 168              	.LVL5:
 237:../../source/src/FWlib/src/stm32f10x_sdio.c ****   /* Check the parameters */
 238:../../source/src/FWlib/src/stm32f10x_sdio.c ****   assert_param(IS_FUNCTIONAL_STATE(NewState));
 239:../../source/src/FWlib/src/stm32f10x_sdio.c ****   
 240:../../source/src/FWlib/src/stm32f10x_sdio.c ****   *(__IO uint32_t *) CLKCR_CLKEN_BB = (uint32_t)NewState;
 169              		.loc 1 240 0
 170 0064 014B     		ldr	r3, .L10
 171 0066 1860     		str	r0, [r3]
 241:../../source/src/FWlib/src/stm32f10x_sdio.c **** }
 172              		.loc 1 241 0
 173 0068 7047     		bx	lr
 174              	.L11:
 175 006a 00BF     		.align	2
 176              	.L10:
 177 006c A0003042 		.word	1110442144
 178              		.cfi_endproc
 179              	.LFE32:
 180              		.size	SDIO_ClockCmd, .-SDIO_ClockCmd
 181              		.align	1
 182              		.p2align 2,,3
 183              		.global	SDIO_SetPowerState
 184              		.syntax unified
 185              		.thumb
 186              		.thumb_func
 187              		.fpu softvfp
 188              		.type	SDIO_SetPowerState, %function
 189              	SDIO_SetPowerState:
 190              	.LFB33:
 242:../../source/src/FWlib/src/stm32f10x_sdio.c **** 
 243:../../source/src/FWlib/src/stm32f10x_sdio.c **** /**
 244:../../source/src/FWlib/src/stm32f10x_sdio.c ****   * @brief  Sets the power status of the controller.
 245:../../source/src/FWlib/src/stm32f10x_sdio.c ****   * @param  SDIO_PowerState: new state of the Power state. 
 246:../../source/src/FWlib/src/stm32f10x_sdio.c ****   *   This parameter can be one of the following values:
 247:../../source/src/FWlib/src/stm32f10x_sdio.c ****   *     @arg SDIO_PowerState_OFF
 248:../../source/src/FWlib/src/stm32f10x_sdio.c ****   *     @arg SDIO_PowerState_ON
 249:../../source/src/FWlib/src/stm32f10x_sdio.c ****   * @retval None
 250:../../source/src/FWlib/src/stm32f10x_sdio.c ****   */
 251:../../source/src/FWlib/src/stm32f10x_sdio.c **** void SDIO_SetPowerState(uint32_t SDIO_PowerState)
 252:../../source/src/FWlib/src/stm32f10x_sdio.c **** {
 191              		.loc 1 252 0
 192              		.cfi_startproc
 193              		@ args = 0, pretend = 0, frame = 0
 194              		@ frame_needed = 0, uses_anonymous_args = 0
 195              		@ link register save eliminated.
 196              	.LVL6:
ARM GAS  G:\Users\Jaxb\AppData\Local\Temp\ccmT3S8V.s 			page 9


 253:../../source/src/FWlib/src/stm32f10x_sdio.c ****   /* Check the parameters */
 254:../../source/src/FWlib/src/stm32f10x_sdio.c ****   assert_param(IS_SDIO_POWER_STATE(SDIO_PowerState));
 255:../../source/src/FWlib/src/stm32f10x_sdio.c ****   
 256:../../source/src/FWlib/src/stm32f10x_sdio.c ****   SDIO->POWER &= PWR_PWRCTRL_MASK;
 197              		.loc 1 256 0
 198 0070 044B     		ldr	r3, .L13
 199 0072 1A68     		ldr	r2, [r3]
 200 0074 22F00302 		bic	r2, r2, #3
 201 0078 1A60     		str	r2, [r3]
 257:../../source/src/FWlib/src/stm32f10x_sdio.c ****   SDIO->POWER |= SDIO_PowerState;
 202              		.loc 1 257 0
 203 007a 1A68     		ldr	r2, [r3]
 204 007c 1043     		orrs	r0, r0, r2
 205              	.LVL7:
 206 007e 1860     		str	r0, [r3]
 258:../../source/src/FWlib/src/stm32f10x_sdio.c **** }
 207              		.loc 1 258 0
 208 0080 7047     		bx	lr
 209              	.L14:
 210 0082 00BF     		.align	2
 211              	.L13:
 212 0084 00800140 		.word	1073840128
 213              		.cfi_endproc
 214              	.LFE33:
 215              		.size	SDIO_SetPowerState, .-SDIO_SetPowerState
 216              		.align	1
 217              		.p2align 2,,3
 218              		.global	SDIO_GetPowerState
 219              		.syntax unified
 220              		.thumb
 221              		.thumb_func
 222              		.fpu softvfp
 223              		.type	SDIO_GetPowerState, %function
 224              	SDIO_GetPowerState:
 225              	.LFB34:
 259:../../source/src/FWlib/src/stm32f10x_sdio.c **** 
 260:../../source/src/FWlib/src/stm32f10x_sdio.c **** /**
 261:../../source/src/FWlib/src/stm32f10x_sdio.c ****   * @brief  Gets the power status of the controller.
 262:../../source/src/FWlib/src/stm32f10x_sdio.c ****   * @param  None
 263:../../source/src/FWlib/src/stm32f10x_sdio.c ****   * @retval Power status of the controller. The returned value can
 264:../../source/src/FWlib/src/stm32f10x_sdio.c ****   *   be one of the following:
 265:../../source/src/FWlib/src/stm32f10x_sdio.c ****   * - 0x00: Power OFF
 266:../../source/src/FWlib/src/stm32f10x_sdio.c ****   * - 0x02: Power UP
 267:../../source/src/FWlib/src/stm32f10x_sdio.c ****   * - 0x03: Power ON 
 268:../../source/src/FWlib/src/stm32f10x_sdio.c ****   */
 269:../../source/src/FWlib/src/stm32f10x_sdio.c **** uint32_t SDIO_GetPowerState(void)
 270:../../source/src/FWlib/src/stm32f10x_sdio.c **** {
 226              		.loc 1 270 0
 227              		.cfi_startproc
 228              		@ args = 0, pretend = 0, frame = 0
 229              		@ frame_needed = 0, uses_anonymous_args = 0
 230              		@ link register save eliminated.
 271:../../source/src/FWlib/src/stm32f10x_sdio.c ****   return (SDIO->POWER & (~PWR_PWRCTRL_MASK));
 231              		.loc 1 271 0
 232 0088 024B     		ldr	r3, .L16
 233 008a 1868     		ldr	r0, [r3]
 272:../../source/src/FWlib/src/stm32f10x_sdio.c **** }
ARM GAS  G:\Users\Jaxb\AppData\Local\Temp\ccmT3S8V.s 			page 10


 234              		.loc 1 272 0
 235 008c 00F00300 		and	r0, r0, #3
 236 0090 7047     		bx	lr
 237              	.L17:
 238 0092 00BF     		.align	2
 239              	.L16:
 240 0094 00800140 		.word	1073840128
 241              		.cfi_endproc
 242              	.LFE34:
 243              		.size	SDIO_GetPowerState, .-SDIO_GetPowerState
 244              		.align	1
 245              		.p2align 2,,3
 246              		.global	SDIO_ITConfig
 247              		.syntax unified
 248              		.thumb
 249              		.thumb_func
 250              		.fpu softvfp
 251              		.type	SDIO_ITConfig, %function
 252              	SDIO_ITConfig:
 253              	.LFB35:
 273:../../source/src/FWlib/src/stm32f10x_sdio.c **** 
 274:../../source/src/FWlib/src/stm32f10x_sdio.c **** /**
 275:../../source/src/FWlib/src/stm32f10x_sdio.c ****   * @brief  Enables or disables the SDIO interrupts.
 276:../../source/src/FWlib/src/stm32f10x_sdio.c ****   * @param  SDIO_IT: specifies the SDIO interrupt sources to be enabled or disabled.
 277:../../source/src/FWlib/src/stm32f10x_sdio.c ****   *   This parameter can be one or a combination of the following values:
 278:../../source/src/FWlib/src/stm32f10x_sdio.c ****   *     @arg SDIO_IT_CCRCFAIL: Command response received (CRC check failed) interrupt
 279:../../source/src/FWlib/src/stm32f10x_sdio.c ****   *     @arg SDIO_IT_DCRCFAIL: Data block sent/received (CRC check failed) interrupt
 280:../../source/src/FWlib/src/stm32f10x_sdio.c ****   *     @arg SDIO_IT_CTIMEOUT: Command response timeout interrupt
 281:../../source/src/FWlib/src/stm32f10x_sdio.c ****   *     @arg SDIO_IT_DTIMEOUT: Data timeout interrupt
 282:../../source/src/FWlib/src/stm32f10x_sdio.c ****   *     @arg SDIO_IT_TXUNDERR: Transmit FIFO underrun error interrupt
 283:../../source/src/FWlib/src/stm32f10x_sdio.c ****   *     @arg SDIO_IT_RXOVERR:  Received FIFO overrun error interrupt
 284:../../source/src/FWlib/src/stm32f10x_sdio.c ****   *     @arg SDIO_IT_CMDREND:  Command response received (CRC check passed) interrupt
 285:../../source/src/FWlib/src/stm32f10x_sdio.c ****   *     @arg SDIO_IT_CMDSENT:  Command sent (no response required) interrupt
 286:../../source/src/FWlib/src/stm32f10x_sdio.c ****   *     @arg SDIO_IT_DATAEND:  Data end (data counter, SDIDCOUNT, is zero) interrupt
 287:../../source/src/FWlib/src/stm32f10x_sdio.c ****   *     @arg SDIO_IT_STBITERR: Start bit not detected on all data signals in wide 
 288:../../source/src/FWlib/src/stm32f10x_sdio.c ****   *                            bus mode interrupt
 289:../../source/src/FWlib/src/stm32f10x_sdio.c ****   *     @arg SDIO_IT_DBCKEND:  Data block sent/received (CRC check passed) interrupt
 290:../../source/src/FWlib/src/stm32f10x_sdio.c ****   *     @arg SDIO_IT_CMDACT:   Command transfer in progress interrupt
 291:../../source/src/FWlib/src/stm32f10x_sdio.c ****   *     @arg SDIO_IT_TXACT:    Data transmit in progress interrupt
 292:../../source/src/FWlib/src/stm32f10x_sdio.c ****   *     @arg SDIO_IT_RXACT:    Data receive in progress interrupt
 293:../../source/src/FWlib/src/stm32f10x_sdio.c ****   *     @arg SDIO_IT_TXFIFOHE: Transmit FIFO Half Empty interrupt
 294:../../source/src/FWlib/src/stm32f10x_sdio.c ****   *     @arg SDIO_IT_RXFIFOHF: Receive FIFO Half Full interrupt
 295:../../source/src/FWlib/src/stm32f10x_sdio.c ****   *     @arg SDIO_IT_TXFIFOF:  Transmit FIFO full interrupt
 296:../../source/src/FWlib/src/stm32f10x_sdio.c ****   *     @arg SDIO_IT_RXFIFOF:  Receive FIFO full interrupt
 297:../../source/src/FWlib/src/stm32f10x_sdio.c ****   *     @arg SDIO_IT_TXFIFOE:  Transmit FIFO empty interrupt
 298:../../source/src/FWlib/src/stm32f10x_sdio.c ****   *     @arg SDIO_IT_RXFIFOE:  Receive FIFO empty interrupt
 299:../../source/src/FWlib/src/stm32f10x_sdio.c ****   *     @arg SDIO_IT_TXDAVL:   Data available in transmit FIFO interrupt
 300:../../source/src/FWlib/src/stm32f10x_sdio.c ****   *     @arg SDIO_IT_RXDAVL:   Data available in receive FIFO interrupt
 301:../../source/src/FWlib/src/stm32f10x_sdio.c ****   *     @arg SDIO_IT_SDIOIT:   SD I/O interrupt received interrupt
 302:../../source/src/FWlib/src/stm32f10x_sdio.c ****   *     @arg SDIO_IT_CEATAEND: CE-ATA command completion signal received for CMD61 interrupt
 303:../../source/src/FWlib/src/stm32f10x_sdio.c ****   * @param  NewState: new state of the specified SDIO interrupts.
 304:../../source/src/FWlib/src/stm32f10x_sdio.c ****   *   This parameter can be: ENABLE or DISABLE.
 305:../../source/src/FWlib/src/stm32f10x_sdio.c ****   * @retval None 
 306:../../source/src/FWlib/src/stm32f10x_sdio.c ****   */
 307:../../source/src/FWlib/src/stm32f10x_sdio.c **** void SDIO_ITConfig(uint32_t SDIO_IT, FunctionalState NewState)
 308:../../source/src/FWlib/src/stm32f10x_sdio.c **** {
 254              		.loc 1 308 0
ARM GAS  G:\Users\Jaxb\AppData\Local\Temp\ccmT3S8V.s 			page 11


 255              		.cfi_startproc
 256              		@ args = 0, pretend = 0, frame = 0
 257              		@ frame_needed = 0, uses_anonymous_args = 0
 258              		@ link register save eliminated.
 259              	.LVL8:
 309:../../source/src/FWlib/src/stm32f10x_sdio.c ****   /* Check the parameters */
 310:../../source/src/FWlib/src/stm32f10x_sdio.c ****   assert_param(IS_SDIO_IT(SDIO_IT));
 311:../../source/src/FWlib/src/stm32f10x_sdio.c ****   assert_param(IS_FUNCTIONAL_STATE(NewState));
 312:../../source/src/FWlib/src/stm32f10x_sdio.c ****   
 313:../../source/src/FWlib/src/stm32f10x_sdio.c ****   if (NewState != DISABLE)
 314:../../source/src/FWlib/src/stm32f10x_sdio.c ****   {
 315:../../source/src/FWlib/src/stm32f10x_sdio.c ****     /* Enable the SDIO interrupts */
 316:../../source/src/FWlib/src/stm32f10x_sdio.c ****     SDIO->MASK |= SDIO_IT;
 260              		.loc 1 316 0
 261 0098 044A     		ldr	r2, .L22
 262 009a D36B     		ldr	r3, [r2, #60]
 313:../../source/src/FWlib/src/stm32f10x_sdio.c ****   {
 263              		.loc 1 313 0
 264 009c 19B9     		cbnz	r1, .L21
 317:../../source/src/FWlib/src/stm32f10x_sdio.c ****   }
 318:../../source/src/FWlib/src/stm32f10x_sdio.c ****   else
 319:../../source/src/FWlib/src/stm32f10x_sdio.c ****   {
 320:../../source/src/FWlib/src/stm32f10x_sdio.c ****     /* Disable the SDIO interrupts */
 321:../../source/src/FWlib/src/stm32f10x_sdio.c ****     SDIO->MASK &= ~SDIO_IT;
 265              		.loc 1 321 0
 266 009e 23EA0000 		bic	r0, r3, r0
 267              	.LVL9:
 268 00a2 D063     		str	r0, [r2, #60]
 322:../../source/src/FWlib/src/stm32f10x_sdio.c ****   } 
 323:../../source/src/FWlib/src/stm32f10x_sdio.c **** }
 269              		.loc 1 323 0
 270 00a4 7047     		bx	lr
 271              	.LVL10:
 272              	.L21:
 316:../../source/src/FWlib/src/stm32f10x_sdio.c ****   }
 273              		.loc 1 316 0
 274 00a6 1843     		orrs	r0, r0, r3
 275              	.LVL11:
 276 00a8 D063     		str	r0, [r2, #60]
 277 00aa 7047     		bx	lr
 278              	.L23:
 279              		.align	2
 280              	.L22:
 281 00ac 00800140 		.word	1073840128
 282              		.cfi_endproc
 283              	.LFE35:
 284              		.size	SDIO_ITConfig, .-SDIO_ITConfig
 285              		.align	1
 286              		.p2align 2,,3
 287              		.global	SDIO_DMACmd
 288              		.syntax unified
 289              		.thumb
 290              		.thumb_func
 291              		.fpu softvfp
 292              		.type	SDIO_DMACmd, %function
 293              	SDIO_DMACmd:
 294              	.LFB36:
ARM GAS  G:\Users\Jaxb\AppData\Local\Temp\ccmT3S8V.s 			page 12


 324:../../source/src/FWlib/src/stm32f10x_sdio.c **** 
 325:../../source/src/FWlib/src/stm32f10x_sdio.c **** /**
 326:../../source/src/FWlib/src/stm32f10x_sdio.c ****   * @brief  Enables or disables the SDIO DMA request.
 327:../../source/src/FWlib/src/stm32f10x_sdio.c ****   * @param  NewState: new state of the selected SDIO DMA request.
 328:../../source/src/FWlib/src/stm32f10x_sdio.c ****   *   This parameter can be: ENABLE or DISABLE.
 329:../../source/src/FWlib/src/stm32f10x_sdio.c ****   * @retval None
 330:../../source/src/FWlib/src/stm32f10x_sdio.c ****   */
 331:../../source/src/FWlib/src/stm32f10x_sdio.c **** void SDIO_DMACmd(FunctionalState NewState)
 332:../../source/src/FWlib/src/stm32f10x_sdio.c **** {
 295              		.loc 1 332 0
 296              		.cfi_startproc
 297              		@ args = 0, pretend = 0, frame = 0
 298              		@ frame_needed = 0, uses_anonymous_args = 0
 299              		@ link register save eliminated.
 300              	.LVL12:
 333:../../source/src/FWlib/src/stm32f10x_sdio.c ****   /* Check the parameters */
 334:../../source/src/FWlib/src/stm32f10x_sdio.c ****   assert_param(IS_FUNCTIONAL_STATE(NewState));
 335:../../source/src/FWlib/src/stm32f10x_sdio.c ****   
 336:../../source/src/FWlib/src/stm32f10x_sdio.c ****   *(__IO uint32_t *) DCTRL_DMAEN_BB = (uint32_t)NewState;
 301              		.loc 1 336 0
 302 00b0 014B     		ldr	r3, .L25
 303 00b2 1860     		str	r0, [r3]
 337:../../source/src/FWlib/src/stm32f10x_sdio.c **** }
 304              		.loc 1 337 0
 305 00b4 7047     		bx	lr
 306              	.L26:
 307 00b6 00BF     		.align	2
 308              	.L25:
 309 00b8 8C053042 		.word	1110443404
 310              		.cfi_endproc
 311              	.LFE36:
 312              		.size	SDIO_DMACmd, .-SDIO_DMACmd
 313              		.align	1
 314              		.p2align 2,,3
 315              		.global	SDIO_SendCommand
 316              		.syntax unified
 317              		.thumb
 318              		.thumb_func
 319              		.fpu softvfp
 320              		.type	SDIO_SendCommand, %function
 321              	SDIO_SendCommand:
 322              	.LFB37:
 338:../../source/src/FWlib/src/stm32f10x_sdio.c **** 
 339:../../source/src/FWlib/src/stm32f10x_sdio.c **** /**
 340:../../source/src/FWlib/src/stm32f10x_sdio.c ****   * @brief  Initializes the SDIO Command according to the specified 
 341:../../source/src/FWlib/src/stm32f10x_sdio.c ****   *         parameters in the SDIO_CmdInitStruct and send the command.
 342:../../source/src/FWlib/src/stm32f10x_sdio.c ****   * @param  SDIO_CmdInitStruct : pointer to a SDIO_CmdInitTypeDef 
 343:../../source/src/FWlib/src/stm32f10x_sdio.c ****   *         structure that contains the configuration information for the SDIO command.
 344:../../source/src/FWlib/src/stm32f10x_sdio.c ****   * @retval None
 345:../../source/src/FWlib/src/stm32f10x_sdio.c ****   */
 346:../../source/src/FWlib/src/stm32f10x_sdio.c **** void SDIO_SendCommand(SDIO_CmdInitTypeDef *SDIO_CmdInitStruct)
 347:../../source/src/FWlib/src/stm32f10x_sdio.c **** {
 323              		.loc 1 347 0
 324              		.cfi_startproc
 325              		@ args = 0, pretend = 0, frame = 0
 326              		@ frame_needed = 0, uses_anonymous_args = 0
 327              		@ link register save eliminated.
ARM GAS  G:\Users\Jaxb\AppData\Local\Temp\ccmT3S8V.s 			page 13


 328              	.LVL13:
 348:../../source/src/FWlib/src/stm32f10x_sdio.c ****   uint32_t tmpreg = 0;
 349:../../source/src/FWlib/src/stm32f10x_sdio.c ****   
 350:../../source/src/FWlib/src/stm32f10x_sdio.c ****   /* Check the parameters */
 351:../../source/src/FWlib/src/stm32f10x_sdio.c ****   assert_param(IS_SDIO_CMD_INDEX(SDIO_CmdInitStruct->SDIO_CmdIndex));
 352:../../source/src/FWlib/src/stm32f10x_sdio.c ****   assert_param(IS_SDIO_RESPONSE(SDIO_CmdInitStruct->SDIO_Response));
 353:../../source/src/FWlib/src/stm32f10x_sdio.c ****   assert_param(IS_SDIO_WAIT(SDIO_CmdInitStruct->SDIO_Wait));
 354:../../source/src/FWlib/src/stm32f10x_sdio.c ****   assert_param(IS_SDIO_CPSM(SDIO_CmdInitStruct->SDIO_CPSM));
 355:../../source/src/FWlib/src/stm32f10x_sdio.c ****   
 356:../../source/src/FWlib/src/stm32f10x_sdio.c **** /*---------------------------- SDIO ARG Configuration ------------------------*/
 357:../../source/src/FWlib/src/stm32f10x_sdio.c ****   /* Set the SDIO Argument value */
 358:../../source/src/FWlib/src/stm32f10x_sdio.c ****   SDIO->ARG = SDIO_CmdInitStruct->SDIO_Argument;
 329              		.loc 1 358 0
 330 00bc 0949     		ldr	r1, .L28
 331 00be 0368     		ldr	r3, [r0]
 347:../../source/src/FWlib/src/stm32f10x_sdio.c ****   uint32_t tmpreg = 0;
 332              		.loc 1 347 0
 333 00c0 10B4     		push	{r4}
 334              	.LCFI2:
 335              		.cfi_def_cfa_offset 4
 336              		.cfi_offset 4, -4
 337              		.loc 1 358 0
 338 00c2 8B60     		str	r3, [r1, #8]
 359:../../source/src/FWlib/src/stm32f10x_sdio.c ****   
 360:../../source/src/FWlib/src/stm32f10x_sdio.c **** /*---------------------------- SDIO CMD Configuration ------------------------*/  
 361:../../source/src/FWlib/src/stm32f10x_sdio.c ****   /* Get the SDIO CMD value */
 362:../../source/src/FWlib/src/stm32f10x_sdio.c ****   tmpreg = SDIO->CMD;
 339              		.loc 1 362 0
 340 00c4 CA68     		ldr	r2, [r1, #12]
 341              	.LVL14:
 363:../../source/src/FWlib/src/stm32f10x_sdio.c ****   /* Clear CMDINDEX, WAITRESP, WAITINT, WAITPEND, CPSMEN bits */
 364:../../source/src/FWlib/src/stm32f10x_sdio.c ****   tmpreg &= CMD_CLEAR_MASK;
 365:../../source/src/FWlib/src/stm32f10x_sdio.c ****   /* Set CMDINDEX bits according to SDIO_CmdIndex value */
 366:../../source/src/FWlib/src/stm32f10x_sdio.c ****   /* Set WAITRESP bits according to SDIO_Response value */
 367:../../source/src/FWlib/src/stm32f10x_sdio.c ****   /* Set WAITINT and WAITPEND bits according to SDIO_Wait value */
 368:../../source/src/FWlib/src/stm32f10x_sdio.c ****   /* Set CPSMEN bits according to SDIO_CPSM value */
 369:../../source/src/FWlib/src/stm32f10x_sdio.c ****   tmpreg |= (uint32_t)SDIO_CmdInitStruct->SDIO_CmdIndex | SDIO_CmdInitStruct->SDIO_Response
 342              		.loc 1 369 0
 343 00c6 D0E90134 		ldrd	r3, r4, [r0, #4]
 364:../../source/src/FWlib/src/stm32f10x_sdio.c ****   /* Set CMDINDEX bits according to SDIO_CmdIndex value */
 344              		.loc 1 364 0
 345 00ca 22F4FF62 		bic	r2, r2, #2040
 346              	.LVL15:
 347 00ce 22F00702 		bic	r2, r2, #7
 348              		.loc 1 369 0
 349 00d2 2343     		orrs	r3, r3, r4
 350 00d4 C468     		ldr	r4, [r0, #12]
 351 00d6 1343     		orrs	r3, r3, r2
 352 00d8 0269     		ldr	r2, [r0, #16]
 353 00da 2343     		orrs	r3, r3, r4
 354 00dc 1343     		orrs	r3, r3, r2
 355              	.LVL16:
 370:../../source/src/FWlib/src/stm32f10x_sdio.c ****            | SDIO_CmdInitStruct->SDIO_Wait | SDIO_CmdInitStruct->SDIO_CPSM;
 371:../../source/src/FWlib/src/stm32f10x_sdio.c ****   
 372:../../source/src/FWlib/src/stm32f10x_sdio.c ****   /* Write to SDIO CMD */
 373:../../source/src/FWlib/src/stm32f10x_sdio.c ****   SDIO->CMD = tmpreg;
 356              		.loc 1 373 0
ARM GAS  G:\Users\Jaxb\AppData\Local\Temp\ccmT3S8V.s 			page 14


 357 00de CB60     		str	r3, [r1, #12]
 374:../../source/src/FWlib/src/stm32f10x_sdio.c **** }
 358              		.loc 1 374 0
 359 00e0 10BC     		pop	{r4}
 360              	.LCFI3:
 361              		.cfi_restore 4
 362              		.cfi_def_cfa_offset 0
 363 00e2 7047     		bx	lr
 364              	.L29:
 365              		.align	2
 366              	.L28:
 367 00e4 00800140 		.word	1073840128
 368              		.cfi_endproc
 369              	.LFE37:
 370              		.size	SDIO_SendCommand, .-SDIO_SendCommand
 371              		.align	1
 372              		.p2align 2,,3
 373              		.global	SDIO_CmdStructInit
 374              		.syntax unified
 375              		.thumb
 376              		.thumb_func
 377              		.fpu softvfp
 378              		.type	SDIO_CmdStructInit, %function
 379              	SDIO_CmdStructInit:
 380              	.LFB38:
 375:../../source/src/FWlib/src/stm32f10x_sdio.c **** 
 376:../../source/src/FWlib/src/stm32f10x_sdio.c **** /**
 377:../../source/src/FWlib/src/stm32f10x_sdio.c ****   * @brief  Fills each SDIO_CmdInitStruct member with its default value.
 378:../../source/src/FWlib/src/stm32f10x_sdio.c ****   * @param  SDIO_CmdInitStruct: pointer to an SDIO_CmdInitTypeDef 
 379:../../source/src/FWlib/src/stm32f10x_sdio.c ****   *         structure which will be initialized.
 380:../../source/src/FWlib/src/stm32f10x_sdio.c ****   * @retval None
 381:../../source/src/FWlib/src/stm32f10x_sdio.c ****   */
 382:../../source/src/FWlib/src/stm32f10x_sdio.c **** void SDIO_CmdStructInit(SDIO_CmdInitTypeDef* SDIO_CmdInitStruct)
 383:../../source/src/FWlib/src/stm32f10x_sdio.c **** {
 381              		.loc 1 383 0
 382              		.cfi_startproc
 383              		@ args = 0, pretend = 0, frame = 0
 384              		@ frame_needed = 0, uses_anonymous_args = 0
 385              		@ link register save eliminated.
 386              	.LVL17:
 384:../../source/src/FWlib/src/stm32f10x_sdio.c ****   /* SDIO_CmdInitStruct members default value */
 385:../../source/src/FWlib/src/stm32f10x_sdio.c ****   SDIO_CmdInitStruct->SDIO_Argument = 0x00;
 387              		.loc 1 385 0
 388 00e8 0023     		movs	r3, #0
 386:../../source/src/FWlib/src/stm32f10x_sdio.c ****   SDIO_CmdInitStruct->SDIO_CmdIndex = 0x00;
 389              		.loc 1 386 0
 390 00ea C0E90033 		strd	r3, r3, [r0]
 387:../../source/src/FWlib/src/stm32f10x_sdio.c ****   SDIO_CmdInitStruct->SDIO_Response = SDIO_Response_No;
 388:../../source/src/FWlib/src/stm32f10x_sdio.c ****   SDIO_CmdInitStruct->SDIO_Wait = SDIO_Wait_No;
 391              		.loc 1 388 0
 392 00ee C0E90233 		strd	r3, r3, [r0, #8]
 389:../../source/src/FWlib/src/stm32f10x_sdio.c ****   SDIO_CmdInitStruct->SDIO_CPSM = SDIO_CPSM_Disable;
 393              		.loc 1 389 0
 394 00f2 0361     		str	r3, [r0, #16]
 390:../../source/src/FWlib/src/stm32f10x_sdio.c **** }
 395              		.loc 1 390 0
 396 00f4 7047     		bx	lr
ARM GAS  G:\Users\Jaxb\AppData\Local\Temp\ccmT3S8V.s 			page 15


 397              		.cfi_endproc
 398              	.LFE38:
 399              		.size	SDIO_CmdStructInit, .-SDIO_CmdStructInit
 400              		.align	1
 401 00f6 00BF     		.p2align 2,,3
 402              		.global	SDIO_GetCommandResponse
 403              		.syntax unified
 404              		.thumb
 405              		.thumb_func
 406              		.fpu softvfp
 407              		.type	SDIO_GetCommandResponse, %function
 408              	SDIO_GetCommandResponse:
 409              	.LFB39:
 391:../../source/src/FWlib/src/stm32f10x_sdio.c **** 
 392:../../source/src/FWlib/src/stm32f10x_sdio.c **** /**
 393:../../source/src/FWlib/src/stm32f10x_sdio.c ****   * @brief  Returns command index of last command for which response received.
 394:../../source/src/FWlib/src/stm32f10x_sdio.c ****   * @param  None
 395:../../source/src/FWlib/src/stm32f10x_sdio.c ****   * @retval Returns the command index of the last command response received.
 396:../../source/src/FWlib/src/stm32f10x_sdio.c ****   */
 397:../../source/src/FWlib/src/stm32f10x_sdio.c **** uint8_t SDIO_GetCommandResponse(void)
 398:../../source/src/FWlib/src/stm32f10x_sdio.c **** {
 410              		.loc 1 398 0
 411              		.cfi_startproc
 412              		@ args = 0, pretend = 0, frame = 0
 413              		@ frame_needed = 0, uses_anonymous_args = 0
 414              		@ link register save eliminated.
 399:../../source/src/FWlib/src/stm32f10x_sdio.c ****   return (uint8_t)(SDIO->RESPCMD);
 415              		.loc 1 399 0
 416 00f8 014B     		ldr	r3, .L32
 417 00fa 1869     		ldr	r0, [r3, #16]
 400:../../source/src/FWlib/src/stm32f10x_sdio.c **** }
 418              		.loc 1 400 0
 419 00fc C0B2     		uxtb	r0, r0
 420 00fe 7047     		bx	lr
 421              	.L33:
 422              		.align	2
 423              	.L32:
 424 0100 00800140 		.word	1073840128
 425              		.cfi_endproc
 426              	.LFE39:
 427              		.size	SDIO_GetCommandResponse, .-SDIO_GetCommandResponse
 428              		.align	1
 429              		.p2align 2,,3
 430              		.global	SDIO_GetResponse
 431              		.syntax unified
 432              		.thumb
 433              		.thumb_func
 434              		.fpu softvfp
 435              		.type	SDIO_GetResponse, %function
 436              	SDIO_GetResponse:
 437              	.LFB40:
 401:../../source/src/FWlib/src/stm32f10x_sdio.c **** 
 402:../../source/src/FWlib/src/stm32f10x_sdio.c **** /**
 403:../../source/src/FWlib/src/stm32f10x_sdio.c ****   * @brief  Returns response received from the card for the last command.
 404:../../source/src/FWlib/src/stm32f10x_sdio.c ****   * @param  SDIO_RESP: Specifies the SDIO response register. 
 405:../../source/src/FWlib/src/stm32f10x_sdio.c ****   *   This parameter can be one of the following values:
 406:../../source/src/FWlib/src/stm32f10x_sdio.c ****   *     @arg SDIO_RESP1: Response Register 1
ARM GAS  G:\Users\Jaxb\AppData\Local\Temp\ccmT3S8V.s 			page 16


 407:../../source/src/FWlib/src/stm32f10x_sdio.c ****   *     @arg SDIO_RESP2: Response Register 2
 408:../../source/src/FWlib/src/stm32f10x_sdio.c ****   *     @arg SDIO_RESP3: Response Register 3
 409:../../source/src/FWlib/src/stm32f10x_sdio.c ****   *     @arg SDIO_RESP4: Response Register 4
 410:../../source/src/FWlib/src/stm32f10x_sdio.c ****   * @retval The Corresponding response register value.
 411:../../source/src/FWlib/src/stm32f10x_sdio.c ****   */
 412:../../source/src/FWlib/src/stm32f10x_sdio.c **** uint32_t SDIO_GetResponse(uint32_t SDIO_RESP)
 413:../../source/src/FWlib/src/stm32f10x_sdio.c **** {
 438              		.loc 1 413 0
 439              		.cfi_startproc
 440              		@ args = 0, pretend = 0, frame = 8
 441              		@ frame_needed = 0, uses_anonymous_args = 0
 442              		@ link register save eliminated.
 443              	.LVL18:
 414:../../source/src/FWlib/src/stm32f10x_sdio.c ****   __IO uint32_t tmp = 0;
 444              		.loc 1 414 0
 445 0104 0022     		movs	r2, #0
 415:../../source/src/FWlib/src/stm32f10x_sdio.c **** 
 416:../../source/src/FWlib/src/stm32f10x_sdio.c ****   /* Check the parameters */
 417:../../source/src/FWlib/src/stm32f10x_sdio.c ****   assert_param(IS_SDIO_RESP(SDIO_RESP));
 418:../../source/src/FWlib/src/stm32f10x_sdio.c **** 
 419:../../source/src/FWlib/src/stm32f10x_sdio.c ****   tmp = SDIO_RESP_ADDR + SDIO_RESP;
 446              		.loc 1 419 0
 447 0106 044B     		ldr	r3, .L35
 413:../../source/src/FWlib/src/stm32f10x_sdio.c ****   __IO uint32_t tmp = 0;
 448              		.loc 1 413 0
 449 0108 82B0     		sub	sp, sp, #8
 450              	.LCFI4:
 451              		.cfi_def_cfa_offset 8
 452              		.loc 1 419 0
 453 010a 0344     		add	r3, r3, r0
 414:../../source/src/FWlib/src/stm32f10x_sdio.c ****   __IO uint32_t tmp = 0;
 454              		.loc 1 414 0
 455 010c 0192     		str	r2, [sp, #4]
 456              		.loc 1 419 0
 457 010e 0193     		str	r3, [sp, #4]
 420:../../source/src/FWlib/src/stm32f10x_sdio.c ****   
 421:../../source/src/FWlib/src/stm32f10x_sdio.c ****   return (*(__IO uint32_t *) tmp); 
 458              		.loc 1 421 0
 459 0110 019B     		ldr	r3, [sp, #4]
 460 0112 1868     		ldr	r0, [r3]
 461              	.LVL19:
 422:../../source/src/FWlib/src/stm32f10x_sdio.c **** }
 462              		.loc 1 422 0
 463 0114 02B0     		add	sp, sp, #8
 464              	.LCFI5:
 465              		.cfi_def_cfa_offset 0
 466              		@ sp needed
 467 0116 7047     		bx	lr
 468              	.L36:
 469              		.align	2
 470              	.L35:
 471 0118 14800140 		.word	1073840148
 472              		.cfi_endproc
 473              	.LFE40:
 474              		.size	SDIO_GetResponse, .-SDIO_GetResponse
 475              		.align	1
 476              		.p2align 2,,3
ARM GAS  G:\Users\Jaxb\AppData\Local\Temp\ccmT3S8V.s 			page 17


 477              		.global	SDIO_DataConfig
 478              		.syntax unified
 479              		.thumb
 480              		.thumb_func
 481              		.fpu softvfp
 482              		.type	SDIO_DataConfig, %function
 483              	SDIO_DataConfig:
 484              	.LFB41:
 423:../../source/src/FWlib/src/stm32f10x_sdio.c **** 
 424:../../source/src/FWlib/src/stm32f10x_sdio.c **** /**
 425:../../source/src/FWlib/src/stm32f10x_sdio.c ****   * @brief  Initializes the SDIO data path according to the specified 
 426:../../source/src/FWlib/src/stm32f10x_sdio.c ****   *   parameters in the SDIO_DataInitStruct.
 427:../../source/src/FWlib/src/stm32f10x_sdio.c ****   * @param  SDIO_DataInitStruct : pointer to a SDIO_DataInitTypeDef structure that
 428:../../source/src/FWlib/src/stm32f10x_sdio.c ****   *   contains the configuration information for the SDIO command.
 429:../../source/src/FWlib/src/stm32f10x_sdio.c ****   * @retval None
 430:../../source/src/FWlib/src/stm32f10x_sdio.c ****   */
 431:../../source/src/FWlib/src/stm32f10x_sdio.c **** void SDIO_DataConfig(SDIO_DataInitTypeDef* SDIO_DataInitStruct)
 432:../../source/src/FWlib/src/stm32f10x_sdio.c **** {
 485              		.loc 1 432 0
 486              		.cfi_startproc
 487              		@ args = 0, pretend = 0, frame = 0
 488              		@ frame_needed = 0, uses_anonymous_args = 0
 489              		@ link register save eliminated.
 490              	.LVL20:
 433:../../source/src/FWlib/src/stm32f10x_sdio.c ****   uint32_t tmpreg = 0;
 434:../../source/src/FWlib/src/stm32f10x_sdio.c ****   
 435:../../source/src/FWlib/src/stm32f10x_sdio.c ****   /* Check the parameters */
 436:../../source/src/FWlib/src/stm32f10x_sdio.c ****   assert_param(IS_SDIO_DATA_LENGTH(SDIO_DataInitStruct->SDIO_DataLength));
 437:../../source/src/FWlib/src/stm32f10x_sdio.c ****   assert_param(IS_SDIO_BLOCK_SIZE(SDIO_DataInitStruct->SDIO_DataBlockSize));
 438:../../source/src/FWlib/src/stm32f10x_sdio.c ****   assert_param(IS_SDIO_TRANSFER_DIR(SDIO_DataInitStruct->SDIO_TransferDir));
 439:../../source/src/FWlib/src/stm32f10x_sdio.c ****   assert_param(IS_SDIO_TRANSFER_MODE(SDIO_DataInitStruct->SDIO_TransferMode));
 440:../../source/src/FWlib/src/stm32f10x_sdio.c ****   assert_param(IS_SDIO_DPSM(SDIO_DataInitStruct->SDIO_DPSM));
 441:../../source/src/FWlib/src/stm32f10x_sdio.c **** 
 442:../../source/src/FWlib/src/stm32f10x_sdio.c **** /*---------------------------- SDIO DTIMER Configuration ---------------------*/
 443:../../source/src/FWlib/src/stm32f10x_sdio.c ****   /* Set the SDIO Data TimeOut value */
 444:../../source/src/FWlib/src/stm32f10x_sdio.c ****   SDIO->DTIMER = SDIO_DataInitStruct->SDIO_DataTimeOut;
 491              		.loc 1 444 0
 492 011c 094A     		ldr	r2, .L38
 493 011e 0368     		ldr	r3, [r0]
 432:../../source/src/FWlib/src/stm32f10x_sdio.c ****   uint32_t tmpreg = 0;
 494              		.loc 1 432 0
 495 0120 10B4     		push	{r4}
 496              	.LCFI6:
 497              		.cfi_def_cfa_offset 4
 498              		.cfi_offset 4, -4
 499              		.loc 1 444 0
 500 0122 5362     		str	r3, [r2, #36]
 445:../../source/src/FWlib/src/stm32f10x_sdio.c **** 
 446:../../source/src/FWlib/src/stm32f10x_sdio.c **** /*---------------------------- SDIO DLEN Configuration -----------------------*/
 447:../../source/src/FWlib/src/stm32f10x_sdio.c ****   /* Set the SDIO DataLength value */
 448:../../source/src/FWlib/src/stm32f10x_sdio.c ****   SDIO->DLEN = SDIO_DataInitStruct->SDIO_DataLength;
 501              		.loc 1 448 0
 502 0124 4368     		ldr	r3, [r0, #4]
 503 0126 9362     		str	r3, [r2, #40]
 449:../../source/src/FWlib/src/stm32f10x_sdio.c **** 
 450:../../source/src/FWlib/src/stm32f10x_sdio.c **** /*---------------------------- SDIO DCTRL Configuration ----------------------*/  
 451:../../source/src/FWlib/src/stm32f10x_sdio.c ****   /* Get the SDIO DCTRL value */
ARM GAS  G:\Users\Jaxb\AppData\Local\Temp\ccmT3S8V.s 			page 18


 452:../../source/src/FWlib/src/stm32f10x_sdio.c ****   tmpreg = SDIO->DCTRL;
 504              		.loc 1 452 0
 505 0128 D16A     		ldr	r1, [r2, #44]
 506              	.LVL21:
 453:../../source/src/FWlib/src/stm32f10x_sdio.c ****   /* Clear DEN, DTMODE, DTDIR and DBCKSIZE bits */
 454:../../source/src/FWlib/src/stm32f10x_sdio.c ****   tmpreg &= DCTRL_CLEAR_MASK;
 455:../../source/src/FWlib/src/stm32f10x_sdio.c ****   /* Set DEN bit according to SDIO_DPSM value */
 456:../../source/src/FWlib/src/stm32f10x_sdio.c ****   /* Set DTMODE bit according to SDIO_TransferMode value */
 457:../../source/src/FWlib/src/stm32f10x_sdio.c ****   /* Set DTDIR bit according to SDIO_TransferDir value */
 458:../../source/src/FWlib/src/stm32f10x_sdio.c ****   /* Set DBCKSIZE bits according to SDIO_DataBlockSize value */
 459:../../source/src/FWlib/src/stm32f10x_sdio.c ****   tmpreg |= (uint32_t)SDIO_DataInitStruct->SDIO_DataBlockSize | SDIO_DataInitStruct->SDIO_TransferD
 507              		.loc 1 459 0
 508 012a D0E90234 		ldrd	r3, r4, [r0, #8]
 454:../../source/src/FWlib/src/stm32f10x_sdio.c ****   /* Set DEN bit according to SDIO_DPSM value */
 509              		.loc 1 454 0
 510 012e 21F0F701 		bic	r1, r1, #247
 511              	.LVL22:
 512              		.loc 1 459 0
 513 0132 2343     		orrs	r3, r3, r4
 514 0134 0469     		ldr	r4, [r0, #16]
 515 0136 0B43     		orrs	r3, r3, r1
 516 0138 4169     		ldr	r1, [r0, #20]
 517              	.LVL23:
 518 013a 2343     		orrs	r3, r3, r4
 519 013c 0B43     		orrs	r3, r3, r1
 520              	.LVL24:
 460:../../source/src/FWlib/src/stm32f10x_sdio.c ****            | SDIO_DataInitStruct->SDIO_TransferMode | SDIO_DataInitStruct->SDIO_DPSM;
 461:../../source/src/FWlib/src/stm32f10x_sdio.c **** 
 462:../../source/src/FWlib/src/stm32f10x_sdio.c ****   /* Write to SDIO DCTRL */
 463:../../source/src/FWlib/src/stm32f10x_sdio.c ****   SDIO->DCTRL = tmpreg;
 521              		.loc 1 463 0
 522 013e D362     		str	r3, [r2, #44]
 464:../../source/src/FWlib/src/stm32f10x_sdio.c **** }
 523              		.loc 1 464 0
 524 0140 10BC     		pop	{r4}
 525              	.LCFI7:
 526              		.cfi_restore 4
 527              		.cfi_def_cfa_offset 0
 528 0142 7047     		bx	lr
 529              	.L39:
 530              		.align	2
 531              	.L38:
 532 0144 00800140 		.word	1073840128
 533              		.cfi_endproc
 534              	.LFE41:
 535              		.size	SDIO_DataConfig, .-SDIO_DataConfig
 536              		.align	1
 537              		.p2align 2,,3
 538              		.global	SDIO_DataStructInit
 539              		.syntax unified
 540              		.thumb
 541              		.thumb_func
 542              		.fpu softvfp
 543              		.type	SDIO_DataStructInit, %function
 544              	SDIO_DataStructInit:
 545              	.LFB42:
 465:../../source/src/FWlib/src/stm32f10x_sdio.c **** 
ARM GAS  G:\Users\Jaxb\AppData\Local\Temp\ccmT3S8V.s 			page 19


 466:../../source/src/FWlib/src/stm32f10x_sdio.c **** /**
 467:../../source/src/FWlib/src/stm32f10x_sdio.c ****   * @brief  Fills each SDIO_DataInitStruct member with its default value.
 468:../../source/src/FWlib/src/stm32f10x_sdio.c ****   * @param  SDIO_DataInitStruct: pointer to an SDIO_DataInitTypeDef structure which
 469:../../source/src/FWlib/src/stm32f10x_sdio.c ****   *         will be initialized.
 470:../../source/src/FWlib/src/stm32f10x_sdio.c ****   * @retval None
 471:../../source/src/FWlib/src/stm32f10x_sdio.c ****   */
 472:../../source/src/FWlib/src/stm32f10x_sdio.c **** void SDIO_DataStructInit(SDIO_DataInitTypeDef* SDIO_DataInitStruct)
 473:../../source/src/FWlib/src/stm32f10x_sdio.c **** {
 546              		.loc 1 473 0
 547              		.cfi_startproc
 548              		@ args = 0, pretend = 0, frame = 0
 549              		@ frame_needed = 0, uses_anonymous_args = 0
 550              		@ link register save eliminated.
 551              	.LVL25:
 474:../../source/src/FWlib/src/stm32f10x_sdio.c ****   /* SDIO_DataInitStruct members default value */
 475:../../source/src/FWlib/src/stm32f10x_sdio.c ****   SDIO_DataInitStruct->SDIO_DataTimeOut = 0xFFFFFFFF;
 476:../../source/src/FWlib/src/stm32f10x_sdio.c ****   SDIO_DataInitStruct->SDIO_DataLength = 0x00;
 552              		.loc 1 476 0
 553 0148 0023     		movs	r3, #0
 554 014a 4FF0FF32 		mov	r2, #-1
 477:../../source/src/FWlib/src/stm32f10x_sdio.c ****   SDIO_DataInitStruct->SDIO_DataBlockSize = SDIO_DataBlockSize_1b;
 478:../../source/src/FWlib/src/stm32f10x_sdio.c ****   SDIO_DataInitStruct->SDIO_TransferDir = SDIO_TransferDir_ToCard;
 555              		.loc 1 478 0
 556 014e C0E90233 		strd	r3, r3, [r0, #8]
 476:../../source/src/FWlib/src/stm32f10x_sdio.c ****   SDIO_DataInitStruct->SDIO_DataBlockSize = SDIO_DataBlockSize_1b;
 557              		.loc 1 476 0
 558 0152 C0E90023 		strd	r2, r3, [r0]
 479:../../source/src/FWlib/src/stm32f10x_sdio.c ****   SDIO_DataInitStruct->SDIO_TransferMode = SDIO_TransferMode_Block;  
 480:../../source/src/FWlib/src/stm32f10x_sdio.c ****   SDIO_DataInitStruct->SDIO_DPSM = SDIO_DPSM_Disable;
 559              		.loc 1 480 0
 560 0156 C0E90433 		strd	r3, r3, [r0, #16]
 481:../../source/src/FWlib/src/stm32f10x_sdio.c **** }
 561              		.loc 1 481 0
 562 015a 7047     		bx	lr
 563              		.cfi_endproc
 564              	.LFE42:
 565              		.size	SDIO_DataStructInit, .-SDIO_DataStructInit
 566              		.align	1
 567              		.p2align 2,,3
 568              		.global	SDIO_GetDataCounter
 569              		.syntax unified
 570              		.thumb
 571              		.thumb_func
 572              		.fpu softvfp
 573              		.type	SDIO_GetDataCounter, %function
 574              	SDIO_GetDataCounter:
 575              	.LFB43:
 482:../../source/src/FWlib/src/stm32f10x_sdio.c **** 
 483:../../source/src/FWlib/src/stm32f10x_sdio.c **** /**
 484:../../source/src/FWlib/src/stm32f10x_sdio.c ****   * @brief  Returns number of remaining data bytes to be transferred.
 485:../../source/src/FWlib/src/stm32f10x_sdio.c ****   * @param  None
 486:../../source/src/FWlib/src/stm32f10x_sdio.c ****   * @retval Number of remaining data bytes to be transferred
 487:../../source/src/FWlib/src/stm32f10x_sdio.c ****   */
 488:../../source/src/FWlib/src/stm32f10x_sdio.c **** uint32_t SDIO_GetDataCounter(void)
 489:../../source/src/FWlib/src/stm32f10x_sdio.c **** { 
 576              		.loc 1 489 0
 577              		.cfi_startproc
ARM GAS  G:\Users\Jaxb\AppData\Local\Temp\ccmT3S8V.s 			page 20


 578              		@ args = 0, pretend = 0, frame = 0
 579              		@ frame_needed = 0, uses_anonymous_args = 0
 580              		@ link register save eliminated.
 490:../../source/src/FWlib/src/stm32f10x_sdio.c ****   return SDIO->DCOUNT;
 581              		.loc 1 490 0
 582 015c 014B     		ldr	r3, .L42
 583 015e 186B     		ldr	r0, [r3, #48]
 491:../../source/src/FWlib/src/stm32f10x_sdio.c **** }
 584              		.loc 1 491 0
 585 0160 7047     		bx	lr
 586              	.L43:
 587 0162 00BF     		.align	2
 588              	.L42:
 589 0164 00800140 		.word	1073840128
 590              		.cfi_endproc
 591              	.LFE43:
 592              		.size	SDIO_GetDataCounter, .-SDIO_GetDataCounter
 593              		.align	1
 594              		.p2align 2,,3
 595              		.global	SDIO_ReadData
 596              		.syntax unified
 597              		.thumb
 598              		.thumb_func
 599              		.fpu softvfp
 600              		.type	SDIO_ReadData, %function
 601              	SDIO_ReadData:
 602              	.LFB44:
 492:../../source/src/FWlib/src/stm32f10x_sdio.c **** 
 493:../../source/src/FWlib/src/stm32f10x_sdio.c **** /**
 494:../../source/src/FWlib/src/stm32f10x_sdio.c ****   * @brief  Read one data word from Rx FIFO.
 495:../../source/src/FWlib/src/stm32f10x_sdio.c ****   * @param  None
 496:../../source/src/FWlib/src/stm32f10x_sdio.c ****   * @retval Data received
 497:../../source/src/FWlib/src/stm32f10x_sdio.c ****   */
 498:../../source/src/FWlib/src/stm32f10x_sdio.c **** uint32_t SDIO_ReadData(void)
 499:../../source/src/FWlib/src/stm32f10x_sdio.c **** { 
 603              		.loc 1 499 0
 604              		.cfi_startproc
 605              		@ args = 0, pretend = 0, frame = 0
 606              		@ frame_needed = 0, uses_anonymous_args = 0
 607              		@ link register save eliminated.
 500:../../source/src/FWlib/src/stm32f10x_sdio.c ****   return SDIO->FIFO;
 608              		.loc 1 500 0
 609 0168 014B     		ldr	r3, .L45
 610 016a D3F88000 		ldr	r0, [r3, #128]
 501:../../source/src/FWlib/src/stm32f10x_sdio.c **** }
 611              		.loc 1 501 0
 612 016e 7047     		bx	lr
 613              	.L46:
 614              		.align	2
 615              	.L45:
 616 0170 00800140 		.word	1073840128
 617              		.cfi_endproc
 618              	.LFE44:
 619              		.size	SDIO_ReadData, .-SDIO_ReadData
 620              		.align	1
 621              		.p2align 2,,3
 622              		.global	SDIO_WriteData
ARM GAS  G:\Users\Jaxb\AppData\Local\Temp\ccmT3S8V.s 			page 21


 623              		.syntax unified
 624              		.thumb
 625              		.thumb_func
 626              		.fpu softvfp
 627              		.type	SDIO_WriteData, %function
 628              	SDIO_WriteData:
 629              	.LFB45:
 502:../../source/src/FWlib/src/stm32f10x_sdio.c **** 
 503:../../source/src/FWlib/src/stm32f10x_sdio.c **** /**
 504:../../source/src/FWlib/src/stm32f10x_sdio.c ****   * @brief  Write one data word to Tx FIFO.
 505:../../source/src/FWlib/src/stm32f10x_sdio.c ****   * @param  Data: 32-bit data word to write.
 506:../../source/src/FWlib/src/stm32f10x_sdio.c ****   * @retval None
 507:../../source/src/FWlib/src/stm32f10x_sdio.c ****   */
 508:../../source/src/FWlib/src/stm32f10x_sdio.c **** void SDIO_WriteData(uint32_t Data)
 509:../../source/src/FWlib/src/stm32f10x_sdio.c **** { 
 630              		.loc 1 509 0
 631              		.cfi_startproc
 632              		@ args = 0, pretend = 0, frame = 0
 633              		@ frame_needed = 0, uses_anonymous_args = 0
 634              		@ link register save eliminated.
 635              	.LVL26:
 510:../../source/src/FWlib/src/stm32f10x_sdio.c ****   SDIO->FIFO = Data;
 636              		.loc 1 510 0
 637 0174 014B     		ldr	r3, .L48
 638 0176 C3F88000 		str	r0, [r3, #128]
 511:../../source/src/FWlib/src/stm32f10x_sdio.c **** }
 639              		.loc 1 511 0
 640 017a 7047     		bx	lr
 641              	.L49:
 642              		.align	2
 643              	.L48:
 644 017c 00800140 		.word	1073840128
 645              		.cfi_endproc
 646              	.LFE45:
 647              		.size	SDIO_WriteData, .-SDIO_WriteData
 648              		.align	1
 649              		.p2align 2,,3
 650              		.global	SDIO_GetFIFOCount
 651              		.syntax unified
 652              		.thumb
 653              		.thumb_func
 654              		.fpu softvfp
 655              		.type	SDIO_GetFIFOCount, %function
 656              	SDIO_GetFIFOCount:
 657              	.LFB46:
 512:../../source/src/FWlib/src/stm32f10x_sdio.c **** 
 513:../../source/src/FWlib/src/stm32f10x_sdio.c **** /**
 514:../../source/src/FWlib/src/stm32f10x_sdio.c ****   * @brief  Returns the number of words left to be written to or read from FIFO.	
 515:../../source/src/FWlib/src/stm32f10x_sdio.c ****   * @param  None
 516:../../source/src/FWlib/src/stm32f10x_sdio.c ****   * @retval Remaining number of words.
 517:../../source/src/FWlib/src/stm32f10x_sdio.c ****   */
 518:../../source/src/FWlib/src/stm32f10x_sdio.c **** uint32_t SDIO_GetFIFOCount(void)
 519:../../source/src/FWlib/src/stm32f10x_sdio.c **** { 
 658              		.loc 1 519 0
 659              		.cfi_startproc
 660              		@ args = 0, pretend = 0, frame = 0
 661              		@ frame_needed = 0, uses_anonymous_args = 0
ARM GAS  G:\Users\Jaxb\AppData\Local\Temp\ccmT3S8V.s 			page 22


 662              		@ link register save eliminated.
 520:../../source/src/FWlib/src/stm32f10x_sdio.c ****   return SDIO->FIFOCNT;
 663              		.loc 1 520 0
 664 0180 014B     		ldr	r3, .L51
 665 0182 986C     		ldr	r0, [r3, #72]
 521:../../source/src/FWlib/src/stm32f10x_sdio.c **** }
 666              		.loc 1 521 0
 667 0184 7047     		bx	lr
 668              	.L52:
 669 0186 00BF     		.align	2
 670              	.L51:
 671 0188 00800140 		.word	1073840128
 672              		.cfi_endproc
 673              	.LFE46:
 674              		.size	SDIO_GetFIFOCount, .-SDIO_GetFIFOCount
 675              		.align	1
 676              		.p2align 2,,3
 677              		.global	SDIO_StartSDIOReadWait
 678              		.syntax unified
 679              		.thumb
 680              		.thumb_func
 681              		.fpu softvfp
 682              		.type	SDIO_StartSDIOReadWait, %function
 683              	SDIO_StartSDIOReadWait:
 684              	.LFB47:
 522:../../source/src/FWlib/src/stm32f10x_sdio.c **** 
 523:../../source/src/FWlib/src/stm32f10x_sdio.c **** /**
 524:../../source/src/FWlib/src/stm32f10x_sdio.c ****   * @brief  Starts the SD I/O Read Wait operation.	
 525:../../source/src/FWlib/src/stm32f10x_sdio.c ****   * @param  NewState: new state of the Start SDIO Read Wait operation. 
 526:../../source/src/FWlib/src/stm32f10x_sdio.c ****   *   This parameter can be: ENABLE or DISABLE.
 527:../../source/src/FWlib/src/stm32f10x_sdio.c ****   * @retval None
 528:../../source/src/FWlib/src/stm32f10x_sdio.c ****   */
 529:../../source/src/FWlib/src/stm32f10x_sdio.c **** void SDIO_StartSDIOReadWait(FunctionalState NewState)
 530:../../source/src/FWlib/src/stm32f10x_sdio.c **** { 
 685              		.loc 1 530 0
 686              		.cfi_startproc
 687              		@ args = 0, pretend = 0, frame = 0
 688              		@ frame_needed = 0, uses_anonymous_args = 0
 689              		@ link register save eliminated.
 690              	.LVL27:
 531:../../source/src/FWlib/src/stm32f10x_sdio.c ****   /* Check the parameters */
 532:../../source/src/FWlib/src/stm32f10x_sdio.c ****   assert_param(IS_FUNCTIONAL_STATE(NewState));
 533:../../source/src/FWlib/src/stm32f10x_sdio.c ****   
 534:../../source/src/FWlib/src/stm32f10x_sdio.c ****   *(__IO uint32_t *) DCTRL_RWSTART_BB = (uint32_t) NewState;
 691              		.loc 1 534 0
 692 018c 014B     		ldr	r3, .L54
 693 018e 1860     		str	r0, [r3]
 535:../../source/src/FWlib/src/stm32f10x_sdio.c **** }
 694              		.loc 1 535 0
 695 0190 7047     		bx	lr
 696              	.L55:
 697 0192 00BF     		.align	2
 698              	.L54:
 699 0194 A0053042 		.word	1110443424
 700              		.cfi_endproc
 701              	.LFE47:
 702              		.size	SDIO_StartSDIOReadWait, .-SDIO_StartSDIOReadWait
ARM GAS  G:\Users\Jaxb\AppData\Local\Temp\ccmT3S8V.s 			page 23


 703              		.align	1
 704              		.p2align 2,,3
 705              		.global	SDIO_StopSDIOReadWait
 706              		.syntax unified
 707              		.thumb
 708              		.thumb_func
 709              		.fpu softvfp
 710              		.type	SDIO_StopSDIOReadWait, %function
 711              	SDIO_StopSDIOReadWait:
 712              	.LFB48:
 536:../../source/src/FWlib/src/stm32f10x_sdio.c **** 
 537:../../source/src/FWlib/src/stm32f10x_sdio.c **** /**
 538:../../source/src/FWlib/src/stm32f10x_sdio.c ****   * @brief  Stops the SD I/O Read Wait operation.	
 539:../../source/src/FWlib/src/stm32f10x_sdio.c ****   * @param  NewState: new state of the Stop SDIO Read Wait operation. 
 540:../../source/src/FWlib/src/stm32f10x_sdio.c ****   *   This parameter can be: ENABLE or DISABLE.
 541:../../source/src/FWlib/src/stm32f10x_sdio.c ****   * @retval None
 542:../../source/src/FWlib/src/stm32f10x_sdio.c ****   */
 543:../../source/src/FWlib/src/stm32f10x_sdio.c **** void SDIO_StopSDIOReadWait(FunctionalState NewState)
 544:../../source/src/FWlib/src/stm32f10x_sdio.c **** { 
 713              		.loc 1 544 0
 714              		.cfi_startproc
 715              		@ args = 0, pretend = 0, frame = 0
 716              		@ frame_needed = 0, uses_anonymous_args = 0
 717              		@ link register save eliminated.
 718              	.LVL28:
 545:../../source/src/FWlib/src/stm32f10x_sdio.c ****   /* Check the parameters */
 546:../../source/src/FWlib/src/stm32f10x_sdio.c ****   assert_param(IS_FUNCTIONAL_STATE(NewState));
 547:../../source/src/FWlib/src/stm32f10x_sdio.c ****   
 548:../../source/src/FWlib/src/stm32f10x_sdio.c ****   *(__IO uint32_t *) DCTRL_RWSTOP_BB = (uint32_t) NewState;
 719              		.loc 1 548 0
 720 0198 014B     		ldr	r3, .L57
 721 019a 1860     		str	r0, [r3]
 549:../../source/src/FWlib/src/stm32f10x_sdio.c **** }
 722              		.loc 1 549 0
 723 019c 7047     		bx	lr
 724              	.L58:
 725 019e 00BF     		.align	2
 726              	.L57:
 727 01a0 A4053042 		.word	1110443428
 728              		.cfi_endproc
 729              	.LFE48:
 730              		.size	SDIO_StopSDIOReadWait, .-SDIO_StopSDIOReadWait
 731              		.align	1
 732              		.p2align 2,,3
 733              		.global	SDIO_SetSDIOReadWaitMode
 734              		.syntax unified
 735              		.thumb
 736              		.thumb_func
 737              		.fpu softvfp
 738              		.type	SDIO_SetSDIOReadWaitMode, %function
 739              	SDIO_SetSDIOReadWaitMode:
 740              	.LFB49:
 550:../../source/src/FWlib/src/stm32f10x_sdio.c **** 
 551:../../source/src/FWlib/src/stm32f10x_sdio.c **** /**
 552:../../source/src/FWlib/src/stm32f10x_sdio.c ****   * @brief  Sets one of the two options of inserting read wait interval.
 553:../../source/src/FWlib/src/stm32f10x_sdio.c ****   * @param  SDIO_ReadWaitMode: SD I/O Read Wait operation mode.
 554:../../source/src/FWlib/src/stm32f10x_sdio.c ****   *   This parameter can be:
ARM GAS  G:\Users\Jaxb\AppData\Local\Temp\ccmT3S8V.s 			page 24


 555:../../source/src/FWlib/src/stm32f10x_sdio.c ****   *     @arg SDIO_ReadWaitMode_CLK: Read Wait control by stopping SDIOCLK
 556:../../source/src/FWlib/src/stm32f10x_sdio.c ****   *     @arg SDIO_ReadWaitMode_DATA2: Read Wait control using SDIO_DATA2
 557:../../source/src/FWlib/src/stm32f10x_sdio.c ****   * @retval None
 558:../../source/src/FWlib/src/stm32f10x_sdio.c ****   */
 559:../../source/src/FWlib/src/stm32f10x_sdio.c **** void SDIO_SetSDIOReadWaitMode(uint32_t SDIO_ReadWaitMode)
 560:../../source/src/FWlib/src/stm32f10x_sdio.c **** {
 741              		.loc 1 560 0
 742              		.cfi_startproc
 743              		@ args = 0, pretend = 0, frame = 0
 744              		@ frame_needed = 0, uses_anonymous_args = 0
 745              		@ link register save eliminated.
 746              	.LVL29:
 561:../../source/src/FWlib/src/stm32f10x_sdio.c ****   /* Check the parameters */
 562:../../source/src/FWlib/src/stm32f10x_sdio.c ****   assert_param(IS_SDIO_READWAIT_MODE(SDIO_ReadWaitMode));
 563:../../source/src/FWlib/src/stm32f10x_sdio.c ****   
 564:../../source/src/FWlib/src/stm32f10x_sdio.c ****   *(__IO uint32_t *) DCTRL_RWMOD_BB = SDIO_ReadWaitMode;
 747              		.loc 1 564 0
 748 01a4 014B     		ldr	r3, .L60
 749 01a6 1860     		str	r0, [r3]
 565:../../source/src/FWlib/src/stm32f10x_sdio.c **** }
 750              		.loc 1 565 0
 751 01a8 7047     		bx	lr
 752              	.L61:
 753 01aa 00BF     		.align	2
 754              	.L60:
 755 01ac A8053042 		.word	1110443432
 756              		.cfi_endproc
 757              	.LFE49:
 758              		.size	SDIO_SetSDIOReadWaitMode, .-SDIO_SetSDIOReadWaitMode
 759              		.align	1
 760              		.p2align 2,,3
 761              		.global	SDIO_SetSDIOOperation
 762              		.syntax unified
 763              		.thumb
 764              		.thumb_func
 765              		.fpu softvfp
 766              		.type	SDIO_SetSDIOOperation, %function
 767              	SDIO_SetSDIOOperation:
 768              	.LFB50:
 566:../../source/src/FWlib/src/stm32f10x_sdio.c **** 
 567:../../source/src/FWlib/src/stm32f10x_sdio.c **** /**
 568:../../source/src/FWlib/src/stm32f10x_sdio.c ****   * @brief  Enables or disables the SD I/O Mode Operation.
 569:../../source/src/FWlib/src/stm32f10x_sdio.c ****   * @param  NewState: new state of SDIO specific operation. 
 570:../../source/src/FWlib/src/stm32f10x_sdio.c ****   *   This parameter can be: ENABLE or DISABLE.
 571:../../source/src/FWlib/src/stm32f10x_sdio.c ****   * @retval None
 572:../../source/src/FWlib/src/stm32f10x_sdio.c ****   */
 573:../../source/src/FWlib/src/stm32f10x_sdio.c **** void SDIO_SetSDIOOperation(FunctionalState NewState)
 574:../../source/src/FWlib/src/stm32f10x_sdio.c **** { 
 769              		.loc 1 574 0
 770              		.cfi_startproc
 771              		@ args = 0, pretend = 0, frame = 0
 772              		@ frame_needed = 0, uses_anonymous_args = 0
 773              		@ link register save eliminated.
 774              	.LVL30:
 575:../../source/src/FWlib/src/stm32f10x_sdio.c ****   /* Check the parameters */
 576:../../source/src/FWlib/src/stm32f10x_sdio.c ****   assert_param(IS_FUNCTIONAL_STATE(NewState));
 577:../../source/src/FWlib/src/stm32f10x_sdio.c ****   
ARM GAS  G:\Users\Jaxb\AppData\Local\Temp\ccmT3S8V.s 			page 25


 578:../../source/src/FWlib/src/stm32f10x_sdio.c ****   *(__IO uint32_t *) DCTRL_SDIOEN_BB = (uint32_t)NewState;
 775              		.loc 1 578 0
 776 01b0 014B     		ldr	r3, .L63
 777 01b2 1860     		str	r0, [r3]
 579:../../source/src/FWlib/src/stm32f10x_sdio.c **** }
 778              		.loc 1 579 0
 779 01b4 7047     		bx	lr
 780              	.L64:
 781 01b6 00BF     		.align	2
 782              	.L63:
 783 01b8 AC053042 		.word	1110443436
 784              		.cfi_endproc
 785              	.LFE50:
 786              		.size	SDIO_SetSDIOOperation, .-SDIO_SetSDIOOperation
 787              		.align	1
 788              		.p2align 2,,3
 789              		.global	SDIO_SendSDIOSuspendCmd
 790              		.syntax unified
 791              		.thumb
 792              		.thumb_func
 793              		.fpu softvfp
 794              		.type	SDIO_SendSDIOSuspendCmd, %function
 795              	SDIO_SendSDIOSuspendCmd:
 796              	.LFB51:
 580:../../source/src/FWlib/src/stm32f10x_sdio.c **** 
 581:../../source/src/FWlib/src/stm32f10x_sdio.c **** /**
 582:../../source/src/FWlib/src/stm32f10x_sdio.c ****   * @brief  Enables or disables the SD I/O Mode suspend command sending.
 583:../../source/src/FWlib/src/stm32f10x_sdio.c ****   * @param  NewState: new state of the SD I/O Mode suspend command.
 584:../../source/src/FWlib/src/stm32f10x_sdio.c ****   *   This parameter can be: ENABLE or DISABLE.
 585:../../source/src/FWlib/src/stm32f10x_sdio.c ****   * @retval None
 586:../../source/src/FWlib/src/stm32f10x_sdio.c ****   */
 587:../../source/src/FWlib/src/stm32f10x_sdio.c **** void SDIO_SendSDIOSuspendCmd(FunctionalState NewState)
 588:../../source/src/FWlib/src/stm32f10x_sdio.c **** { 
 797              		.loc 1 588 0
 798              		.cfi_startproc
 799              		@ args = 0, pretend = 0, frame = 0
 800              		@ frame_needed = 0, uses_anonymous_args = 0
 801              		@ link register save eliminated.
 802              	.LVL31:
 589:../../source/src/FWlib/src/stm32f10x_sdio.c ****   /* Check the parameters */
 590:../../source/src/FWlib/src/stm32f10x_sdio.c ****   assert_param(IS_FUNCTIONAL_STATE(NewState));
 591:../../source/src/FWlib/src/stm32f10x_sdio.c ****   
 592:../../source/src/FWlib/src/stm32f10x_sdio.c ****   *(__IO uint32_t *) CMD_SDIOSUSPEND_BB = (uint32_t)NewState;
 803              		.loc 1 592 0
 804 01bc 014B     		ldr	r3, .L66
 805 01be 1860     		str	r0, [r3]
 593:../../source/src/FWlib/src/stm32f10x_sdio.c **** }
 806              		.loc 1 593 0
 807 01c0 7047     		bx	lr
 808              	.L67:
 809 01c2 00BF     		.align	2
 810              	.L66:
 811 01c4 AC013042 		.word	1110442412
 812              		.cfi_endproc
 813              	.LFE51:
 814              		.size	SDIO_SendSDIOSuspendCmd, .-SDIO_SendSDIOSuspendCmd
 815              		.align	1
ARM GAS  G:\Users\Jaxb\AppData\Local\Temp\ccmT3S8V.s 			page 26


 816              		.p2align 2,,3
 817              		.global	SDIO_CommandCompletionCmd
 818              		.syntax unified
 819              		.thumb
 820              		.thumb_func
 821              		.fpu softvfp
 822              		.type	SDIO_CommandCompletionCmd, %function
 823              	SDIO_CommandCompletionCmd:
 824              	.LFB52:
 594:../../source/src/FWlib/src/stm32f10x_sdio.c **** 
 595:../../source/src/FWlib/src/stm32f10x_sdio.c **** /**
 596:../../source/src/FWlib/src/stm32f10x_sdio.c ****   * @brief  Enables or disables the command completion signal.
 597:../../source/src/FWlib/src/stm32f10x_sdio.c ****   * @param  NewState: new state of command completion signal. 
 598:../../source/src/FWlib/src/stm32f10x_sdio.c ****   *   This parameter can be: ENABLE or DISABLE.
 599:../../source/src/FWlib/src/stm32f10x_sdio.c ****   * @retval None
 600:../../source/src/FWlib/src/stm32f10x_sdio.c ****   */
 601:../../source/src/FWlib/src/stm32f10x_sdio.c **** void SDIO_CommandCompletionCmd(FunctionalState NewState)
 602:../../source/src/FWlib/src/stm32f10x_sdio.c **** { 
 825              		.loc 1 602 0
 826              		.cfi_startproc
 827              		@ args = 0, pretend = 0, frame = 0
 828              		@ frame_needed = 0, uses_anonymous_args = 0
 829              		@ link register save eliminated.
 830              	.LVL32:
 603:../../source/src/FWlib/src/stm32f10x_sdio.c ****   /* Check the parameters */
 604:../../source/src/FWlib/src/stm32f10x_sdio.c ****   assert_param(IS_FUNCTIONAL_STATE(NewState));
 605:../../source/src/FWlib/src/stm32f10x_sdio.c ****   
 606:../../source/src/FWlib/src/stm32f10x_sdio.c ****   *(__IO uint32_t *) CMD_ENCMDCOMPL_BB = (uint32_t)NewState;
 831              		.loc 1 606 0
 832 01c8 014B     		ldr	r3, .L69
 833 01ca 1860     		str	r0, [r3]
 607:../../source/src/FWlib/src/stm32f10x_sdio.c **** }
 834              		.loc 1 607 0
 835 01cc 7047     		bx	lr
 836              	.L70:
 837 01ce 00BF     		.align	2
 838              	.L69:
 839 01d0 B0013042 		.word	1110442416
 840              		.cfi_endproc
 841              	.LFE52:
 842              		.size	SDIO_CommandCompletionCmd, .-SDIO_CommandCompletionCmd
 843              		.align	1
 844              		.p2align 2,,3
 845              		.global	SDIO_CEATAITCmd
 846              		.syntax unified
 847              		.thumb
 848              		.thumb_func
 849              		.fpu softvfp
 850              		.type	SDIO_CEATAITCmd, %function
 851              	SDIO_CEATAITCmd:
 852              	.LFB53:
 608:../../source/src/FWlib/src/stm32f10x_sdio.c **** 
 609:../../source/src/FWlib/src/stm32f10x_sdio.c **** /**
 610:../../source/src/FWlib/src/stm32f10x_sdio.c ****   * @brief  Enables or disables the CE-ATA interrupt.
 611:../../source/src/FWlib/src/stm32f10x_sdio.c ****   * @param  NewState: new state of CE-ATA interrupt. This parameter can be: ENABLE or DISABLE.
 612:../../source/src/FWlib/src/stm32f10x_sdio.c ****   * @retval None
 613:../../source/src/FWlib/src/stm32f10x_sdio.c ****   */
ARM GAS  G:\Users\Jaxb\AppData\Local\Temp\ccmT3S8V.s 			page 27


 614:../../source/src/FWlib/src/stm32f10x_sdio.c **** void SDIO_CEATAITCmd(FunctionalState NewState)
 615:../../source/src/FWlib/src/stm32f10x_sdio.c **** { 
 853              		.loc 1 615 0
 854              		.cfi_startproc
 855              		@ args = 0, pretend = 0, frame = 0
 856              		@ frame_needed = 0, uses_anonymous_args = 0
 857              		@ link register save eliminated.
 858              	.LVL33:
 616:../../source/src/FWlib/src/stm32f10x_sdio.c ****   /* Check the parameters */
 617:../../source/src/FWlib/src/stm32f10x_sdio.c ****   assert_param(IS_FUNCTIONAL_STATE(NewState));
 618:../../source/src/FWlib/src/stm32f10x_sdio.c ****   
 619:../../source/src/FWlib/src/stm32f10x_sdio.c ****   *(__IO uint32_t *) CMD_NIEN_BB = (uint32_t)((~((uint32_t)NewState)) & ((uint32_t)0x1));
 859              		.loc 1 619 0
 860 01d4 C043     		mvns	r0, r0
 861              	.LVL34:
 862 01d6 024B     		ldr	r3, .L72
 863 01d8 00F00100 		and	r0, r0, #1
 864 01dc 1860     		str	r0, [r3]
 620:../../source/src/FWlib/src/stm32f10x_sdio.c **** }
 865              		.loc 1 620 0
 866 01de 7047     		bx	lr
 867              	.L73:
 868              		.align	2
 869              	.L72:
 870 01e0 B4013042 		.word	1110442420
 871              		.cfi_endproc
 872              	.LFE53:
 873              		.size	SDIO_CEATAITCmd, .-SDIO_CEATAITCmd
 874              		.align	1
 875              		.p2align 2,,3
 876              		.global	SDIO_SendCEATACmd
 877              		.syntax unified
 878              		.thumb
 879              		.thumb_func
 880              		.fpu softvfp
 881              		.type	SDIO_SendCEATACmd, %function
 882              	SDIO_SendCEATACmd:
 883              	.LFB54:
 621:../../source/src/FWlib/src/stm32f10x_sdio.c **** 
 622:../../source/src/FWlib/src/stm32f10x_sdio.c **** /**
 623:../../source/src/FWlib/src/stm32f10x_sdio.c ****   * @brief  Sends CE-ATA command (CMD61).
 624:../../source/src/FWlib/src/stm32f10x_sdio.c ****   * @param  NewState: new state of CE-ATA command. This parameter can be: ENABLE or DISABLE.
 625:../../source/src/FWlib/src/stm32f10x_sdio.c ****   * @retval None
 626:../../source/src/FWlib/src/stm32f10x_sdio.c ****   */
 627:../../source/src/FWlib/src/stm32f10x_sdio.c **** void SDIO_SendCEATACmd(FunctionalState NewState)
 628:../../source/src/FWlib/src/stm32f10x_sdio.c **** { 
 884              		.loc 1 628 0
 885              		.cfi_startproc
 886              		@ args = 0, pretend = 0, frame = 0
 887              		@ frame_needed = 0, uses_anonymous_args = 0
 888              		@ link register save eliminated.
 889              	.LVL35:
 629:../../source/src/FWlib/src/stm32f10x_sdio.c ****   /* Check the parameters */
 630:../../source/src/FWlib/src/stm32f10x_sdio.c ****   assert_param(IS_FUNCTIONAL_STATE(NewState));
 631:../../source/src/FWlib/src/stm32f10x_sdio.c ****   
 632:../../source/src/FWlib/src/stm32f10x_sdio.c ****   *(__IO uint32_t *) CMD_ATACMD_BB = (uint32_t)NewState;
 890              		.loc 1 632 0
ARM GAS  G:\Users\Jaxb\AppData\Local\Temp\ccmT3S8V.s 			page 28


 891 01e4 014B     		ldr	r3, .L75
 892 01e6 1860     		str	r0, [r3]
 633:../../source/src/FWlib/src/stm32f10x_sdio.c **** }
 893              		.loc 1 633 0
 894 01e8 7047     		bx	lr
 895              	.L76:
 896 01ea 00BF     		.align	2
 897              	.L75:
 898 01ec B8013042 		.word	1110442424
 899              		.cfi_endproc
 900              	.LFE54:
 901              		.size	SDIO_SendCEATACmd, .-SDIO_SendCEATACmd
 902              		.align	1
 903              		.p2align 2,,3
 904              		.global	SDIO_GetFlagStatus
 905              		.syntax unified
 906              		.thumb
 907              		.thumb_func
 908              		.fpu softvfp
 909              		.type	SDIO_GetFlagStatus, %function
 910              	SDIO_GetFlagStatus:
 911              	.LFB55:
 634:../../source/src/FWlib/src/stm32f10x_sdio.c **** 
 635:../../source/src/FWlib/src/stm32f10x_sdio.c **** /**
 636:../../source/src/FWlib/src/stm32f10x_sdio.c ****   * @brief  Checks whether the specified SDIO flag is set or not.
 637:../../source/src/FWlib/src/stm32f10x_sdio.c ****   * @param  SDIO_FLAG: specifies the flag to check. 
 638:../../source/src/FWlib/src/stm32f10x_sdio.c ****   *   This parameter can be one of the following values:
 639:../../source/src/FWlib/src/stm32f10x_sdio.c ****   *     @arg SDIO_FLAG_CCRCFAIL: Command response received (CRC check failed)
 640:../../source/src/FWlib/src/stm32f10x_sdio.c ****   *     @arg SDIO_FLAG_DCRCFAIL: Data block sent/received (CRC check failed)
 641:../../source/src/FWlib/src/stm32f10x_sdio.c ****   *     @arg SDIO_FLAG_CTIMEOUT: Command response timeout
 642:../../source/src/FWlib/src/stm32f10x_sdio.c ****   *     @arg SDIO_FLAG_DTIMEOUT: Data timeout
 643:../../source/src/FWlib/src/stm32f10x_sdio.c ****   *     @arg SDIO_FLAG_TXUNDERR: Transmit FIFO underrun error
 644:../../source/src/FWlib/src/stm32f10x_sdio.c ****   *     @arg SDIO_FLAG_RXOVERR:  Received FIFO overrun error
 645:../../source/src/FWlib/src/stm32f10x_sdio.c ****   *     @arg SDIO_FLAG_CMDREND:  Command response received (CRC check passed)
 646:../../source/src/FWlib/src/stm32f10x_sdio.c ****   *     @arg SDIO_FLAG_CMDSENT:  Command sent (no response required)
 647:../../source/src/FWlib/src/stm32f10x_sdio.c ****   *     @arg SDIO_FLAG_DATAEND:  Data end (data counter, SDIDCOUNT, is zero)
 648:../../source/src/FWlib/src/stm32f10x_sdio.c ****   *     @arg SDIO_FLAG_STBITERR: Start bit not detected on all data signals in wide 
 649:../../source/src/FWlib/src/stm32f10x_sdio.c ****   *                              bus mode.
 650:../../source/src/FWlib/src/stm32f10x_sdio.c ****   *     @arg SDIO_FLAG_DBCKEND:  Data block sent/received (CRC check passed)
 651:../../source/src/FWlib/src/stm32f10x_sdio.c ****   *     @arg SDIO_FLAG_CMDACT:   Command transfer in progress
 652:../../source/src/FWlib/src/stm32f10x_sdio.c ****   *     @arg SDIO_FLAG_TXACT:    Data transmit in progress
 653:../../source/src/FWlib/src/stm32f10x_sdio.c ****   *     @arg SDIO_FLAG_RXACT:    Data receive in progress
 654:../../source/src/FWlib/src/stm32f10x_sdio.c ****   *     @arg SDIO_FLAG_TXFIFOHE: Transmit FIFO Half Empty
 655:../../source/src/FWlib/src/stm32f10x_sdio.c ****   *     @arg SDIO_FLAG_RXFIFOHF: Receive FIFO Half Full
 656:../../source/src/FWlib/src/stm32f10x_sdio.c ****   *     @arg SDIO_FLAG_TXFIFOF:  Transmit FIFO full
 657:../../source/src/FWlib/src/stm32f10x_sdio.c ****   *     @arg SDIO_FLAG_RXFIFOF:  Receive FIFO full
 658:../../source/src/FWlib/src/stm32f10x_sdio.c ****   *     @arg SDIO_FLAG_TXFIFOE:  Transmit FIFO empty
 659:../../source/src/FWlib/src/stm32f10x_sdio.c ****   *     @arg SDIO_FLAG_RXFIFOE:  Receive FIFO empty
 660:../../source/src/FWlib/src/stm32f10x_sdio.c ****   *     @arg SDIO_FLAG_TXDAVL:   Data available in transmit FIFO
 661:../../source/src/FWlib/src/stm32f10x_sdio.c ****   *     @arg SDIO_FLAG_RXDAVL:   Data available in receive FIFO
 662:../../source/src/FWlib/src/stm32f10x_sdio.c ****   *     @arg SDIO_FLAG_SDIOIT:   SD I/O interrupt received
 663:../../source/src/FWlib/src/stm32f10x_sdio.c ****   *     @arg SDIO_FLAG_CEATAEND: CE-ATA command completion signal received for CMD61
 664:../../source/src/FWlib/src/stm32f10x_sdio.c ****   * @retval The new state of SDIO_FLAG (SET or RESET).
 665:../../source/src/FWlib/src/stm32f10x_sdio.c ****   */
 666:../../source/src/FWlib/src/stm32f10x_sdio.c **** FlagStatus SDIO_GetFlagStatus(uint32_t SDIO_FLAG)
 667:../../source/src/FWlib/src/stm32f10x_sdio.c **** { 
 912              		.loc 1 667 0
ARM GAS  G:\Users\Jaxb\AppData\Local\Temp\ccmT3S8V.s 			page 29


 913              		.cfi_startproc
 914              		@ args = 0, pretend = 0, frame = 0
 915              		@ frame_needed = 0, uses_anonymous_args = 0
 916              		@ link register save eliminated.
 917              	.LVL36:
 668:../../source/src/FWlib/src/stm32f10x_sdio.c ****   FlagStatus bitstatus = RESET;
 669:../../source/src/FWlib/src/stm32f10x_sdio.c ****   
 670:../../source/src/FWlib/src/stm32f10x_sdio.c ****   /* Check the parameters */
 671:../../source/src/FWlib/src/stm32f10x_sdio.c ****   assert_param(IS_SDIO_FLAG(SDIO_FLAG));
 672:../../source/src/FWlib/src/stm32f10x_sdio.c ****   
 673:../../source/src/FWlib/src/stm32f10x_sdio.c ****   if ((SDIO->STA & SDIO_FLAG) != (uint32_t)RESET)
 918              		.loc 1 673 0
 919 01f0 034B     		ldr	r3, .L78
 920 01f2 5B6B     		ldr	r3, [r3, #52]
 921              	.LVL37:
 922 01f4 0342     		tst	r3, r0
 674:../../source/src/FWlib/src/stm32f10x_sdio.c ****   {
 675:../../source/src/FWlib/src/stm32f10x_sdio.c ****     bitstatus = SET;
 676:../../source/src/FWlib/src/stm32f10x_sdio.c ****   }
 677:../../source/src/FWlib/src/stm32f10x_sdio.c ****   else
 678:../../source/src/FWlib/src/stm32f10x_sdio.c ****   {
 679:../../source/src/FWlib/src/stm32f10x_sdio.c ****     bitstatus = RESET;
 680:../../source/src/FWlib/src/stm32f10x_sdio.c ****   }
 681:../../source/src/FWlib/src/stm32f10x_sdio.c ****   return bitstatus;
 682:../../source/src/FWlib/src/stm32f10x_sdio.c **** }
 923              		.loc 1 682 0
 924 01f6 14BF     		ite	ne
 925 01f8 0120     		movne	r0, #1
 926              	.LVL38:
 927 01fa 0020     		moveq	r0, #0
 928 01fc 7047     		bx	lr
 929              	.L79:
 930 01fe 00BF     		.align	2
 931              	.L78:
 932 0200 00800140 		.word	1073840128
 933              		.cfi_endproc
 934              	.LFE55:
 935              		.size	SDIO_GetFlagStatus, .-SDIO_GetFlagStatus
 936              		.align	1
 937              		.p2align 2,,3
 938              		.global	SDIO_ClearFlag
 939              		.syntax unified
 940              		.thumb
 941              		.thumb_func
 942              		.fpu softvfp
 943              		.type	SDIO_ClearFlag, %function
 944              	SDIO_ClearFlag:
 945              	.LFB56:
 683:../../source/src/FWlib/src/stm32f10x_sdio.c **** 
 684:../../source/src/FWlib/src/stm32f10x_sdio.c **** /**
 685:../../source/src/FWlib/src/stm32f10x_sdio.c ****   * @brief  Clears the SDIO's pending flags.
 686:../../source/src/FWlib/src/stm32f10x_sdio.c ****   * @param  SDIO_FLAG: specifies the flag to clear.  
 687:../../source/src/FWlib/src/stm32f10x_sdio.c ****   *   This parameter can be one or a combination of the following values:
 688:../../source/src/FWlib/src/stm32f10x_sdio.c ****   *     @arg SDIO_FLAG_CCRCFAIL: Command response received (CRC check failed)
 689:../../source/src/FWlib/src/stm32f10x_sdio.c ****   *     @arg SDIO_FLAG_DCRCFAIL: Data block sent/received (CRC check failed)
 690:../../source/src/FWlib/src/stm32f10x_sdio.c ****   *     @arg SDIO_FLAG_CTIMEOUT: Command response timeout
 691:../../source/src/FWlib/src/stm32f10x_sdio.c ****   *     @arg SDIO_FLAG_DTIMEOUT: Data timeout
ARM GAS  G:\Users\Jaxb\AppData\Local\Temp\ccmT3S8V.s 			page 30


 692:../../source/src/FWlib/src/stm32f10x_sdio.c ****   *     @arg SDIO_FLAG_TXUNDERR: Transmit FIFO underrun error
 693:../../source/src/FWlib/src/stm32f10x_sdio.c ****   *     @arg SDIO_FLAG_RXOVERR:  Received FIFO overrun error
 694:../../source/src/FWlib/src/stm32f10x_sdio.c ****   *     @arg SDIO_FLAG_CMDREND:  Command response received (CRC check passed)
 695:../../source/src/FWlib/src/stm32f10x_sdio.c ****   *     @arg SDIO_FLAG_CMDSENT:  Command sent (no response required)
 696:../../source/src/FWlib/src/stm32f10x_sdio.c ****   *     @arg SDIO_FLAG_DATAEND:  Data end (data counter, SDIDCOUNT, is zero)
 697:../../source/src/FWlib/src/stm32f10x_sdio.c ****   *     @arg SDIO_FLAG_STBITERR: Start bit not detected on all data signals in wide 
 698:../../source/src/FWlib/src/stm32f10x_sdio.c ****   *                              bus mode
 699:../../source/src/FWlib/src/stm32f10x_sdio.c ****   *     @arg SDIO_FLAG_DBCKEND:  Data block sent/received (CRC check passed)
 700:../../source/src/FWlib/src/stm32f10x_sdio.c ****   *     @arg SDIO_FLAG_SDIOIT:   SD I/O interrupt received
 701:../../source/src/FWlib/src/stm32f10x_sdio.c ****   *     @arg SDIO_FLAG_CEATAEND: CE-ATA command completion signal received for CMD61
 702:../../source/src/FWlib/src/stm32f10x_sdio.c ****   * @retval None
 703:../../source/src/FWlib/src/stm32f10x_sdio.c ****   */
 704:../../source/src/FWlib/src/stm32f10x_sdio.c **** void SDIO_ClearFlag(uint32_t SDIO_FLAG)
 705:../../source/src/FWlib/src/stm32f10x_sdio.c **** { 
 946              		.loc 1 705 0
 947              		.cfi_startproc
 948              		@ args = 0, pretend = 0, frame = 0
 949              		@ frame_needed = 0, uses_anonymous_args = 0
 950              		@ link register save eliminated.
 951              	.LVL39:
 706:../../source/src/FWlib/src/stm32f10x_sdio.c ****   /* Check the parameters */
 707:../../source/src/FWlib/src/stm32f10x_sdio.c ****   assert_param(IS_SDIO_CLEAR_FLAG(SDIO_FLAG));
 708:../../source/src/FWlib/src/stm32f10x_sdio.c ****    
 709:../../source/src/FWlib/src/stm32f10x_sdio.c ****   SDIO->ICR = SDIO_FLAG;
 952              		.loc 1 709 0
 953 0204 014B     		ldr	r3, .L81
 954 0206 9863     		str	r0, [r3, #56]
 710:../../source/src/FWlib/src/stm32f10x_sdio.c **** }
 955              		.loc 1 710 0
 956 0208 7047     		bx	lr
 957              	.L82:
 958 020a 00BF     		.align	2
 959              	.L81:
 960 020c 00800140 		.word	1073840128
 961              		.cfi_endproc
 962              	.LFE56:
 963              		.size	SDIO_ClearFlag, .-SDIO_ClearFlag
 964              		.align	1
 965              		.p2align 2,,3
 966              		.global	SDIO_GetITStatus
 967              		.syntax unified
 968              		.thumb
 969              		.thumb_func
 970              		.fpu softvfp
 971              		.type	SDIO_GetITStatus, %function
 972              	SDIO_GetITStatus:
 973              	.LFB62:
 974              		.cfi_startproc
 975              		@ args = 0, pretend = 0, frame = 0
 976              		@ frame_needed = 0, uses_anonymous_args = 0
 977              		@ link register save eliminated.
 978 0210 FFF7FEBF 		b	SDIO_GetFlagStatus
 979              		.cfi_endproc
 980              	.LFE62:
 981              		.size	SDIO_GetITStatus, .-SDIO_GetITStatus
 982              		.align	1
 983              		.p2align 2,,3
ARM GAS  G:\Users\Jaxb\AppData\Local\Temp\ccmT3S8V.s 			page 31


 984              		.global	SDIO_ClearITPendingBit
 985              		.syntax unified
 986              		.thumb
 987              		.thumb_func
 988              		.fpu softvfp
 989              		.type	SDIO_ClearITPendingBit, %function
 990              	SDIO_ClearITPendingBit:
 991              	.LFB60:
 992              		.cfi_startproc
 993              		@ args = 0, pretend = 0, frame = 0
 994              		@ frame_needed = 0, uses_anonymous_args = 0
 995              		@ link register save eliminated.
 996 0214 014B     		ldr	r3, .L85
 997 0216 9863     		str	r0, [r3, #56]
 998 0218 7047     		bx	lr
 999              	.L86:
 1000 021a 00BF     		.align	2
 1001              	.L85:
 1002 021c 00800140 		.word	1073840128
 1003              		.cfi_endproc
 1004              	.LFE60:
 1005              		.size	SDIO_ClearITPendingBit, .-SDIO_ClearITPendingBit
 1006              	.Letext0:
 1007              		.file 2 "f:\\arm\\gcc2018\\arm-none-eabi\\include\\machine\\_default_types.h"
 1008              		.file 3 "f:\\arm\\gcc2018\\arm-none-eabi\\include\\sys\\_stdint.h"
 1009              		.file 4 "../../source/include/core_cm3.h"
 1010              		.file 5 "../../source/include/system_stm32f10x.h"
 1011              		.file 6 "../../source/include/stm32f10x.h"
 1012              		.file 7 "../../source/src/FWlib/inc/stm32f10x_sdio.h"