ARM GAS  G:\Users\Jaxb\AppData\Local\Temp\ccqGEEDk.s 			page 1


   1              		.cpu cortex-m3
   2              		.eabi_attribute 20, 1
   3              		.eabi_attribute 21, 1
   4              		.eabi_attribute 23, 3
   5              		.eabi_attribute 24, 1
   6              		.eabi_attribute 25, 1
   7              		.eabi_attribute 26, 1
   8              		.eabi_attribute 30, 2
   9              		.eabi_attribute 34, 1
  10              		.eabi_attribute 18, 4
  11              		.file	"stm32f10x_rcc.c"
  12              		.text
  13              	.Ltext0:
  14              		.cfi_sections	.debug_frame
  15              		.align	1
  16              		.p2align 2,,3
  17              		.global	RCC_DeInit
  18              		.syntax unified
  19              		.thumb
  20              		.thumb_func
  21              		.fpu softvfp
  22              		.type	RCC_DeInit, %function
  23              	RCC_DeInit:
  24              	.LFB29:
  25              		.file 1 "../../source/src/FWlib/src/stm32f10x_rcc.c"
   1:../../source/src/FWlib/src/stm32f10x_rcc.c **** /**
   2:../../source/src/FWlib/src/stm32f10x_rcc.c ****   ******************************************************************************
   3:../../source/src/FWlib/src/stm32f10x_rcc.c ****   * @file    stm32f10x_rcc.c
   4:../../source/src/FWlib/src/stm32f10x_rcc.c ****   * @author  MCD Application Team
   5:../../source/src/FWlib/src/stm32f10x_rcc.c ****   * @version V3.5.0
   6:../../source/src/FWlib/src/stm32f10x_rcc.c ****   * @date    11-March-2011
   7:../../source/src/FWlib/src/stm32f10x_rcc.c ****   * @brief   This file provides all the RCC firmware functions.
   8:../../source/src/FWlib/src/stm32f10x_rcc.c ****   ******************************************************************************
   9:../../source/src/FWlib/src/stm32f10x_rcc.c ****   * @attention
  10:../../source/src/FWlib/src/stm32f10x_rcc.c ****   *
  11:../../source/src/FWlib/src/stm32f10x_rcc.c ****   * THE PRESENT FIRMWARE WHICH IS FOR GUIDANCE ONLY AIMS AT PROVIDING CUSTOMERS
  12:../../source/src/FWlib/src/stm32f10x_rcc.c ****   * WITH CODING INFORMATION REGARDING THEIR PRODUCTS IN ORDER FOR THEM TO SAVE
  13:../../source/src/FWlib/src/stm32f10x_rcc.c ****   * TIME. AS A RESULT, STMICROELECTRONICS SHALL NOT BE HELD LIABLE FOR ANY
  14:../../source/src/FWlib/src/stm32f10x_rcc.c ****   * DIRECT, INDIRECT OR CONSEQUENTIAL DAMAGES WITH RESPECT TO ANY CLAIMS ARISING
  15:../../source/src/FWlib/src/stm32f10x_rcc.c ****   * FROM THE CONTENT OF SUCH FIRMWARE AND/OR THE USE MADE BY CUSTOMERS OF THE
  16:../../source/src/FWlib/src/stm32f10x_rcc.c ****   * CODING INFORMATION CONTAINED HEREIN IN CONNECTION WITH THEIR PRODUCTS.
  17:../../source/src/FWlib/src/stm32f10x_rcc.c ****   *
  18:../../source/src/FWlib/src/stm32f10x_rcc.c ****   * <h2><center>&copy; COPYRIGHT 2011 STMicroelectronics</center></h2>
  19:../../source/src/FWlib/src/stm32f10x_rcc.c ****   ******************************************************************************
  20:../../source/src/FWlib/src/stm32f10x_rcc.c ****   */
  21:../../source/src/FWlib/src/stm32f10x_rcc.c **** 
  22:../../source/src/FWlib/src/stm32f10x_rcc.c **** /* Includes ------------------------------------------------------------------*/
  23:../../source/src/FWlib/src/stm32f10x_rcc.c **** #include "stm32f10x_rcc.h"
  24:../../source/src/FWlib/src/stm32f10x_rcc.c **** 
  25:../../source/src/FWlib/src/stm32f10x_rcc.c **** /** @addtogroup STM32F10x_StdPeriph_Driver
  26:../../source/src/FWlib/src/stm32f10x_rcc.c ****   * @{
  27:../../source/src/FWlib/src/stm32f10x_rcc.c ****   */
  28:../../source/src/FWlib/src/stm32f10x_rcc.c **** 
  29:../../source/src/FWlib/src/stm32f10x_rcc.c **** /** @defgroup RCC 
  30:../../source/src/FWlib/src/stm32f10x_rcc.c ****   * @brief RCC driver modules
  31:../../source/src/FWlib/src/stm32f10x_rcc.c ****   * @{
  32:../../source/src/FWlib/src/stm32f10x_rcc.c ****   */ 
ARM GAS  G:\Users\Jaxb\AppData\Local\Temp\ccqGEEDk.s 			page 2


  33:../../source/src/FWlib/src/stm32f10x_rcc.c **** 
  34:../../source/src/FWlib/src/stm32f10x_rcc.c **** /** @defgroup RCC_Private_TypesDefinitions
  35:../../source/src/FWlib/src/stm32f10x_rcc.c ****   * @{
  36:../../source/src/FWlib/src/stm32f10x_rcc.c ****   */
  37:../../source/src/FWlib/src/stm32f10x_rcc.c **** 
  38:../../source/src/FWlib/src/stm32f10x_rcc.c **** /**
  39:../../source/src/FWlib/src/stm32f10x_rcc.c ****   * @}
  40:../../source/src/FWlib/src/stm32f10x_rcc.c ****   */
  41:../../source/src/FWlib/src/stm32f10x_rcc.c **** 
  42:../../source/src/FWlib/src/stm32f10x_rcc.c **** /** @defgroup RCC_Private_Defines
  43:../../source/src/FWlib/src/stm32f10x_rcc.c ****   * @{
  44:../../source/src/FWlib/src/stm32f10x_rcc.c ****   */
  45:../../source/src/FWlib/src/stm32f10x_rcc.c **** 
  46:../../source/src/FWlib/src/stm32f10x_rcc.c **** /* ------------ RCC registers bit address in the alias region ----------- */
  47:../../source/src/FWlib/src/stm32f10x_rcc.c **** #define RCC_OFFSET                (RCC_BASE - PERIPH_BASE)
  48:../../source/src/FWlib/src/stm32f10x_rcc.c **** 
  49:../../source/src/FWlib/src/stm32f10x_rcc.c **** /* --- CR Register ---*/
  50:../../source/src/FWlib/src/stm32f10x_rcc.c **** 
  51:../../source/src/FWlib/src/stm32f10x_rcc.c **** /* Alias word address of HSION bit */
  52:../../source/src/FWlib/src/stm32f10x_rcc.c **** #define CR_OFFSET                 (RCC_OFFSET + 0x00)
  53:../../source/src/FWlib/src/stm32f10x_rcc.c **** #define HSION_BitNumber           0x00
  54:../../source/src/FWlib/src/stm32f10x_rcc.c **** #define CR_HSION_BB               (PERIPH_BB_BASE + (CR_OFFSET * 32) + (HSION_BitNumber * 4))
  55:../../source/src/FWlib/src/stm32f10x_rcc.c **** 
  56:../../source/src/FWlib/src/stm32f10x_rcc.c **** /* Alias word address of PLLON bit */
  57:../../source/src/FWlib/src/stm32f10x_rcc.c **** #define PLLON_BitNumber           0x18
  58:../../source/src/FWlib/src/stm32f10x_rcc.c **** #define CR_PLLON_BB               (PERIPH_BB_BASE + (CR_OFFSET * 32) + (PLLON_BitNumber * 4))
  59:../../source/src/FWlib/src/stm32f10x_rcc.c **** 
  60:../../source/src/FWlib/src/stm32f10x_rcc.c **** #ifdef STM32F10X_CL
  61:../../source/src/FWlib/src/stm32f10x_rcc.c ****  /* Alias word address of PLL2ON bit */
  62:../../source/src/FWlib/src/stm32f10x_rcc.c ****  #define PLL2ON_BitNumber          0x1A
  63:../../source/src/FWlib/src/stm32f10x_rcc.c ****  #define CR_PLL2ON_BB              (PERIPH_BB_BASE + (CR_OFFSET * 32) + (PLL2ON_BitNumber * 4))
  64:../../source/src/FWlib/src/stm32f10x_rcc.c **** 
  65:../../source/src/FWlib/src/stm32f10x_rcc.c ****  /* Alias word address of PLL3ON bit */
  66:../../source/src/FWlib/src/stm32f10x_rcc.c ****  #define PLL3ON_BitNumber          0x1C
  67:../../source/src/FWlib/src/stm32f10x_rcc.c ****  #define CR_PLL3ON_BB              (PERIPH_BB_BASE + (CR_OFFSET * 32) + (PLL3ON_BitNumber * 4))
  68:../../source/src/FWlib/src/stm32f10x_rcc.c **** #endif /* STM32F10X_CL */ 
  69:../../source/src/FWlib/src/stm32f10x_rcc.c **** 
  70:../../source/src/FWlib/src/stm32f10x_rcc.c **** /* Alias word address of CSSON bit */
  71:../../source/src/FWlib/src/stm32f10x_rcc.c **** #define CSSON_BitNumber           0x13
  72:../../source/src/FWlib/src/stm32f10x_rcc.c **** #define CR_CSSON_BB               (PERIPH_BB_BASE + (CR_OFFSET * 32) + (CSSON_BitNumber * 4))
  73:../../source/src/FWlib/src/stm32f10x_rcc.c **** 
  74:../../source/src/FWlib/src/stm32f10x_rcc.c **** /* --- CFGR Register ---*/
  75:../../source/src/FWlib/src/stm32f10x_rcc.c **** 
  76:../../source/src/FWlib/src/stm32f10x_rcc.c **** /* Alias word address of USBPRE bit */
  77:../../source/src/FWlib/src/stm32f10x_rcc.c **** #define CFGR_OFFSET               (RCC_OFFSET + 0x04)
  78:../../source/src/FWlib/src/stm32f10x_rcc.c **** 
  79:../../source/src/FWlib/src/stm32f10x_rcc.c **** #ifndef STM32F10X_CL
  80:../../source/src/FWlib/src/stm32f10x_rcc.c ****  #define USBPRE_BitNumber          0x16
  81:../../source/src/FWlib/src/stm32f10x_rcc.c ****  #define CFGR_USBPRE_BB            (PERIPH_BB_BASE + (CFGR_OFFSET * 32) + (USBPRE_BitNumber * 4))
  82:../../source/src/FWlib/src/stm32f10x_rcc.c **** #else
  83:../../source/src/FWlib/src/stm32f10x_rcc.c ****  #define OTGFSPRE_BitNumber        0x16
  84:../../source/src/FWlib/src/stm32f10x_rcc.c ****  #define CFGR_OTGFSPRE_BB          (PERIPH_BB_BASE + (CFGR_OFFSET * 32) + (OTGFSPRE_BitNumber * 4))
  85:../../source/src/FWlib/src/stm32f10x_rcc.c **** #endif /* STM32F10X_CL */ 
  86:../../source/src/FWlib/src/stm32f10x_rcc.c **** 
  87:../../source/src/FWlib/src/stm32f10x_rcc.c **** /* --- BDCR Register ---*/
  88:../../source/src/FWlib/src/stm32f10x_rcc.c **** 
  89:../../source/src/FWlib/src/stm32f10x_rcc.c **** /* Alias word address of RTCEN bit */
ARM GAS  G:\Users\Jaxb\AppData\Local\Temp\ccqGEEDk.s 			page 3


  90:../../source/src/FWlib/src/stm32f10x_rcc.c **** #define BDCR_OFFSET               (RCC_OFFSET + 0x20)
  91:../../source/src/FWlib/src/stm32f10x_rcc.c **** #define RTCEN_BitNumber           0x0F
  92:../../source/src/FWlib/src/stm32f10x_rcc.c **** #define BDCR_RTCEN_BB             (PERIPH_BB_BASE + (BDCR_OFFSET * 32) + (RTCEN_BitNumber * 4))
  93:../../source/src/FWlib/src/stm32f10x_rcc.c **** 
  94:../../source/src/FWlib/src/stm32f10x_rcc.c **** /* Alias word address of BDRST bit */
  95:../../source/src/FWlib/src/stm32f10x_rcc.c **** #define BDRST_BitNumber           0x10
  96:../../source/src/FWlib/src/stm32f10x_rcc.c **** #define BDCR_BDRST_BB             (PERIPH_BB_BASE + (BDCR_OFFSET * 32) + (BDRST_BitNumber * 4))
  97:../../source/src/FWlib/src/stm32f10x_rcc.c **** 
  98:../../source/src/FWlib/src/stm32f10x_rcc.c **** /* --- CSR Register ---*/
  99:../../source/src/FWlib/src/stm32f10x_rcc.c **** 
 100:../../source/src/FWlib/src/stm32f10x_rcc.c **** /* Alias word address of LSION bit */
 101:../../source/src/FWlib/src/stm32f10x_rcc.c **** #define CSR_OFFSET                (RCC_OFFSET + 0x24)
 102:../../source/src/FWlib/src/stm32f10x_rcc.c **** #define LSION_BitNumber           0x00
 103:../../source/src/FWlib/src/stm32f10x_rcc.c **** #define CSR_LSION_BB              (PERIPH_BB_BASE + (CSR_OFFSET * 32) + (LSION_BitNumber * 4))
 104:../../source/src/FWlib/src/stm32f10x_rcc.c **** 
 105:../../source/src/FWlib/src/stm32f10x_rcc.c **** #ifdef STM32F10X_CL
 106:../../source/src/FWlib/src/stm32f10x_rcc.c **** /* --- CFGR2 Register ---*/
 107:../../source/src/FWlib/src/stm32f10x_rcc.c **** 
 108:../../source/src/FWlib/src/stm32f10x_rcc.c ****  /* Alias word address of I2S2SRC bit */
 109:../../source/src/FWlib/src/stm32f10x_rcc.c ****  #define CFGR2_OFFSET              (RCC_OFFSET + 0x2C)
 110:../../source/src/FWlib/src/stm32f10x_rcc.c ****  #define I2S2SRC_BitNumber         0x11
 111:../../source/src/FWlib/src/stm32f10x_rcc.c ****  #define CFGR2_I2S2SRC_BB          (PERIPH_BB_BASE + (CFGR2_OFFSET * 32) + (I2S2SRC_BitNumber * 4))
 112:../../source/src/FWlib/src/stm32f10x_rcc.c **** 
 113:../../source/src/FWlib/src/stm32f10x_rcc.c ****  /* Alias word address of I2S3SRC bit */
 114:../../source/src/FWlib/src/stm32f10x_rcc.c ****  #define I2S3SRC_BitNumber         0x12
 115:../../source/src/FWlib/src/stm32f10x_rcc.c ****  #define CFGR2_I2S3SRC_BB          (PERIPH_BB_BASE + (CFGR2_OFFSET * 32) + (I2S3SRC_BitNumber * 4))
 116:../../source/src/FWlib/src/stm32f10x_rcc.c **** #endif /* STM32F10X_CL */
 117:../../source/src/FWlib/src/stm32f10x_rcc.c **** 
 118:../../source/src/FWlib/src/stm32f10x_rcc.c **** /* ---------------------- RCC registers bit mask ------------------------ */
 119:../../source/src/FWlib/src/stm32f10x_rcc.c **** 
 120:../../source/src/FWlib/src/stm32f10x_rcc.c **** /* CR register bit mask */
 121:../../source/src/FWlib/src/stm32f10x_rcc.c **** #define CR_HSEBYP_Reset           ((uint32_t)0xFFFBFFFF)
 122:../../source/src/FWlib/src/stm32f10x_rcc.c **** #define CR_HSEBYP_Set             ((uint32_t)0x00040000)
 123:../../source/src/FWlib/src/stm32f10x_rcc.c **** #define CR_HSEON_Reset            ((uint32_t)0xFFFEFFFF)
 124:../../source/src/FWlib/src/stm32f10x_rcc.c **** #define CR_HSEON_Set              ((uint32_t)0x00010000)
 125:../../source/src/FWlib/src/stm32f10x_rcc.c **** #define CR_HSITRIM_Mask           ((uint32_t)0xFFFFFF07)
 126:../../source/src/FWlib/src/stm32f10x_rcc.c **** 
 127:../../source/src/FWlib/src/stm32f10x_rcc.c **** /* CFGR register bit mask */
 128:../../source/src/FWlib/src/stm32f10x_rcc.c **** #if defined (STM32F10X_LD_VL) || defined (STM32F10X_MD_VL) || defined (STM32F10X_HD_VL) || defined 
 129:../../source/src/FWlib/src/stm32f10x_rcc.c ****  #define CFGR_PLL_Mask            ((uint32_t)0xFFC2FFFF)
 130:../../source/src/FWlib/src/stm32f10x_rcc.c **** #else
 131:../../source/src/FWlib/src/stm32f10x_rcc.c ****  #define CFGR_PLL_Mask            ((uint32_t)0xFFC0FFFF)
 132:../../source/src/FWlib/src/stm32f10x_rcc.c **** #endif /* STM32F10X_CL */ 
 133:../../source/src/FWlib/src/stm32f10x_rcc.c **** 
 134:../../source/src/FWlib/src/stm32f10x_rcc.c **** #define CFGR_PLLMull_Mask         ((uint32_t)0x003C0000)
 135:../../source/src/FWlib/src/stm32f10x_rcc.c **** #define CFGR_PLLSRC_Mask          ((uint32_t)0x00010000)
 136:../../source/src/FWlib/src/stm32f10x_rcc.c **** #define CFGR_PLLXTPRE_Mask        ((uint32_t)0x00020000)
 137:../../source/src/FWlib/src/stm32f10x_rcc.c **** #define CFGR_SWS_Mask             ((uint32_t)0x0000000C)
 138:../../source/src/FWlib/src/stm32f10x_rcc.c **** #define CFGR_SW_Mask              ((uint32_t)0xFFFFFFFC)
 139:../../source/src/FWlib/src/stm32f10x_rcc.c **** #define CFGR_HPRE_Reset_Mask      ((uint32_t)0xFFFFFF0F)
 140:../../source/src/FWlib/src/stm32f10x_rcc.c **** #define CFGR_HPRE_Set_Mask        ((uint32_t)0x000000F0)
 141:../../source/src/FWlib/src/stm32f10x_rcc.c **** #define CFGR_PPRE1_Reset_Mask     ((uint32_t)0xFFFFF8FF)
 142:../../source/src/FWlib/src/stm32f10x_rcc.c **** #define CFGR_PPRE1_Set_Mask       ((uint32_t)0x00000700)
 143:../../source/src/FWlib/src/stm32f10x_rcc.c **** #define CFGR_PPRE2_Reset_Mask     ((uint32_t)0xFFFFC7FF)
 144:../../source/src/FWlib/src/stm32f10x_rcc.c **** #define CFGR_PPRE2_Set_Mask       ((uint32_t)0x00003800)
 145:../../source/src/FWlib/src/stm32f10x_rcc.c **** #define CFGR_ADCPRE_Reset_Mask    ((uint32_t)0xFFFF3FFF)
 146:../../source/src/FWlib/src/stm32f10x_rcc.c **** #define CFGR_ADCPRE_Set_Mask      ((uint32_t)0x0000C000)
ARM GAS  G:\Users\Jaxb\AppData\Local\Temp\ccqGEEDk.s 			page 4


 147:../../source/src/FWlib/src/stm32f10x_rcc.c **** 
 148:../../source/src/FWlib/src/stm32f10x_rcc.c **** /* CSR register bit mask */
 149:../../source/src/FWlib/src/stm32f10x_rcc.c **** #define CSR_RMVF_Set              ((uint32_t)0x01000000)
 150:../../source/src/FWlib/src/stm32f10x_rcc.c **** 
 151:../../source/src/FWlib/src/stm32f10x_rcc.c **** #if defined (STM32F10X_LD_VL) || defined (STM32F10X_MD_VL) || defined (STM32F10X_HD_VL) || defined 
 152:../../source/src/FWlib/src/stm32f10x_rcc.c **** /* CFGR2 register bit mask */
 153:../../source/src/FWlib/src/stm32f10x_rcc.c ****  #define CFGR2_PREDIV1SRC         ((uint32_t)0x00010000)
 154:../../source/src/FWlib/src/stm32f10x_rcc.c ****  #define CFGR2_PREDIV1            ((uint32_t)0x0000000F)
 155:../../source/src/FWlib/src/stm32f10x_rcc.c **** #endif
 156:../../source/src/FWlib/src/stm32f10x_rcc.c **** #ifdef STM32F10X_CL
 157:../../source/src/FWlib/src/stm32f10x_rcc.c ****  #define CFGR2_PREDIV2            ((uint32_t)0x000000F0)
 158:../../source/src/FWlib/src/stm32f10x_rcc.c ****  #define CFGR2_PLL2MUL            ((uint32_t)0x00000F00)
 159:../../source/src/FWlib/src/stm32f10x_rcc.c ****  #define CFGR2_PLL3MUL            ((uint32_t)0x0000F000)
 160:../../source/src/FWlib/src/stm32f10x_rcc.c **** #endif /* STM32F10X_CL */ 
 161:../../source/src/FWlib/src/stm32f10x_rcc.c **** 
 162:../../source/src/FWlib/src/stm32f10x_rcc.c **** /* RCC Flag Mask */
 163:../../source/src/FWlib/src/stm32f10x_rcc.c **** #define FLAG_Mask                 ((uint8_t)0x1F)
 164:../../source/src/FWlib/src/stm32f10x_rcc.c **** 
 165:../../source/src/FWlib/src/stm32f10x_rcc.c **** /* CIR register byte 2 (Bits[15:8]) base address */
 166:../../source/src/FWlib/src/stm32f10x_rcc.c **** #define CIR_BYTE2_ADDRESS         ((uint32_t)0x40021009)
 167:../../source/src/FWlib/src/stm32f10x_rcc.c **** 
 168:../../source/src/FWlib/src/stm32f10x_rcc.c **** /* CIR register byte 3 (Bits[23:16]) base address */
 169:../../source/src/FWlib/src/stm32f10x_rcc.c **** #define CIR_BYTE3_ADDRESS         ((uint32_t)0x4002100A)
 170:../../source/src/FWlib/src/stm32f10x_rcc.c **** 
 171:../../source/src/FWlib/src/stm32f10x_rcc.c **** /* CFGR register byte 4 (Bits[31:24]) base address */
 172:../../source/src/FWlib/src/stm32f10x_rcc.c **** #define CFGR_BYTE4_ADDRESS        ((uint32_t)0x40021007)
 173:../../source/src/FWlib/src/stm32f10x_rcc.c **** 
 174:../../source/src/FWlib/src/stm32f10x_rcc.c **** /* BDCR register base address */
 175:../../source/src/FWlib/src/stm32f10x_rcc.c **** #define BDCR_ADDRESS              (PERIPH_BASE + BDCR_OFFSET)
 176:../../source/src/FWlib/src/stm32f10x_rcc.c **** 
 177:../../source/src/FWlib/src/stm32f10x_rcc.c **** /**
 178:../../source/src/FWlib/src/stm32f10x_rcc.c ****   * @}
 179:../../source/src/FWlib/src/stm32f10x_rcc.c ****   */ 
 180:../../source/src/FWlib/src/stm32f10x_rcc.c **** 
 181:../../source/src/FWlib/src/stm32f10x_rcc.c **** /** @defgroup RCC_Private_Macros
 182:../../source/src/FWlib/src/stm32f10x_rcc.c ****   * @{
 183:../../source/src/FWlib/src/stm32f10x_rcc.c ****   */ 
 184:../../source/src/FWlib/src/stm32f10x_rcc.c **** 
 185:../../source/src/FWlib/src/stm32f10x_rcc.c **** /**
 186:../../source/src/FWlib/src/stm32f10x_rcc.c ****   * @}
 187:../../source/src/FWlib/src/stm32f10x_rcc.c ****   */ 
 188:../../source/src/FWlib/src/stm32f10x_rcc.c **** 
 189:../../source/src/FWlib/src/stm32f10x_rcc.c **** /** @defgroup RCC_Private_Variables
 190:../../source/src/FWlib/src/stm32f10x_rcc.c ****   * @{
 191:../../source/src/FWlib/src/stm32f10x_rcc.c ****   */ 
 192:../../source/src/FWlib/src/stm32f10x_rcc.c **** 
 193:../../source/src/FWlib/src/stm32f10x_rcc.c **** static __I uint8_t APBAHBPrescTable[16] = {0, 0, 0, 0, 1, 2, 3, 4, 1, 2, 3, 4, 6, 7, 8, 9};
 194:../../source/src/FWlib/src/stm32f10x_rcc.c **** static __I uint8_t ADCPrescTable[4] = {2, 4, 6, 8};
 195:../../source/src/FWlib/src/stm32f10x_rcc.c **** 
 196:../../source/src/FWlib/src/stm32f10x_rcc.c **** /**
 197:../../source/src/FWlib/src/stm32f10x_rcc.c ****   * @}
 198:../../source/src/FWlib/src/stm32f10x_rcc.c ****   */
 199:../../source/src/FWlib/src/stm32f10x_rcc.c **** 
 200:../../source/src/FWlib/src/stm32f10x_rcc.c **** /** @defgroup RCC_Private_FunctionPrototypes
 201:../../source/src/FWlib/src/stm32f10x_rcc.c ****   * @{
 202:../../source/src/FWlib/src/stm32f10x_rcc.c ****   */
 203:../../source/src/FWlib/src/stm32f10x_rcc.c **** 
ARM GAS  G:\Users\Jaxb\AppData\Local\Temp\ccqGEEDk.s 			page 5


 204:../../source/src/FWlib/src/stm32f10x_rcc.c **** /**
 205:../../source/src/FWlib/src/stm32f10x_rcc.c ****   * @}
 206:../../source/src/FWlib/src/stm32f10x_rcc.c ****   */
 207:../../source/src/FWlib/src/stm32f10x_rcc.c **** 
 208:../../source/src/FWlib/src/stm32f10x_rcc.c **** /** @defgroup RCC_Private_Functions
 209:../../source/src/FWlib/src/stm32f10x_rcc.c ****   * @{
 210:../../source/src/FWlib/src/stm32f10x_rcc.c ****   */
 211:../../source/src/FWlib/src/stm32f10x_rcc.c **** 
 212:../../source/src/FWlib/src/stm32f10x_rcc.c **** /**
 213:../../source/src/FWlib/src/stm32f10x_rcc.c ****   * @brief  Resets the RCC clock configuration to the default reset state.
 214:../../source/src/FWlib/src/stm32f10x_rcc.c ****   * @param  None
 215:../../source/src/FWlib/src/stm32f10x_rcc.c ****   * @retval None
 216:../../source/src/FWlib/src/stm32f10x_rcc.c ****   */
 217:../../source/src/FWlib/src/stm32f10x_rcc.c **** void RCC_DeInit(void)
 218:../../source/src/FWlib/src/stm32f10x_rcc.c **** {
  26              		.loc 1 218 0
  27              		.cfi_startproc
  28              		@ args = 0, pretend = 0, frame = 0
  29              		@ frame_needed = 0, uses_anonymous_args = 0
  30              		@ link register save eliminated.
 219:../../source/src/FWlib/src/stm32f10x_rcc.c ****   /* Set HSION bit */
 220:../../source/src/FWlib/src/stm32f10x_rcc.c ****   RCC->CR |= (uint32_t)0x00000001;
 221:../../source/src/FWlib/src/stm32f10x_rcc.c **** 
 222:../../source/src/FWlib/src/stm32f10x_rcc.c ****   /* Reset SW, HPRE, PPRE1, PPRE2, ADCPRE and MCO bits */
 223:../../source/src/FWlib/src/stm32f10x_rcc.c **** #ifndef STM32F10X_CL
 224:../../source/src/FWlib/src/stm32f10x_rcc.c ****   RCC->CFGR &= (uint32_t)0xF8FF0000;
 225:../../source/src/FWlib/src/stm32f10x_rcc.c **** #else
 226:../../source/src/FWlib/src/stm32f10x_rcc.c ****   RCC->CFGR &= (uint32_t)0xF0FF0000;
 227:../../source/src/FWlib/src/stm32f10x_rcc.c **** #endif /* STM32F10X_CL */   
 228:../../source/src/FWlib/src/stm32f10x_rcc.c ****   
 229:../../source/src/FWlib/src/stm32f10x_rcc.c ****   /* Reset HSEON, CSSON and PLLON bits */
 230:../../source/src/FWlib/src/stm32f10x_rcc.c ****   RCC->CR &= (uint32_t)0xFEF6FFFF;
 231:../../source/src/FWlib/src/stm32f10x_rcc.c **** 
 232:../../source/src/FWlib/src/stm32f10x_rcc.c ****   /* Reset HSEBYP bit */
 233:../../source/src/FWlib/src/stm32f10x_rcc.c ****   RCC->CR &= (uint32_t)0xFFFBFFFF;
 234:../../source/src/FWlib/src/stm32f10x_rcc.c **** 
 235:../../source/src/FWlib/src/stm32f10x_rcc.c ****   /* Reset PLLSRC, PLLXTPRE, PLLMUL and USBPRE/OTGFSPRE bits */
 236:../../source/src/FWlib/src/stm32f10x_rcc.c ****   RCC->CFGR &= (uint32_t)0xFF80FFFF;
 237:../../source/src/FWlib/src/stm32f10x_rcc.c **** 
 238:../../source/src/FWlib/src/stm32f10x_rcc.c **** #ifdef STM32F10X_CL
 239:../../source/src/FWlib/src/stm32f10x_rcc.c ****   /* Reset PLL2ON and PLL3ON bits */
 240:../../source/src/FWlib/src/stm32f10x_rcc.c ****   RCC->CR &= (uint32_t)0xEBFFFFFF;
 241:../../source/src/FWlib/src/stm32f10x_rcc.c **** 
 242:../../source/src/FWlib/src/stm32f10x_rcc.c ****   /* Disable all interrupts and clear pending bits  */
 243:../../source/src/FWlib/src/stm32f10x_rcc.c ****   RCC->CIR = 0x00FF0000;
 244:../../source/src/FWlib/src/stm32f10x_rcc.c **** 
 245:../../source/src/FWlib/src/stm32f10x_rcc.c ****   /* Reset CFGR2 register */
 246:../../source/src/FWlib/src/stm32f10x_rcc.c ****   RCC->CFGR2 = 0x00000000;
 247:../../source/src/FWlib/src/stm32f10x_rcc.c **** #elif defined (STM32F10X_LD_VL) || defined (STM32F10X_MD_VL) || defined (STM32F10X_HD_VL)
 248:../../source/src/FWlib/src/stm32f10x_rcc.c ****   /* Disable all interrupts and clear pending bits  */
 249:../../source/src/FWlib/src/stm32f10x_rcc.c ****   RCC->CIR = 0x009F0000;
 250:../../source/src/FWlib/src/stm32f10x_rcc.c **** 
 251:../../source/src/FWlib/src/stm32f10x_rcc.c ****   /* Reset CFGR2 register */
 252:../../source/src/FWlib/src/stm32f10x_rcc.c ****   RCC->CFGR2 = 0x00000000;      
 253:../../source/src/FWlib/src/stm32f10x_rcc.c **** #else
 254:../../source/src/FWlib/src/stm32f10x_rcc.c ****   /* Disable all interrupts and clear pending bits  */
 255:../../source/src/FWlib/src/stm32f10x_rcc.c ****   RCC->CIR = 0x009F0000;
ARM GAS  G:\Users\Jaxb\AppData\Local\Temp\ccqGEEDk.s 			page 6


  31              		.loc 1 255 0
  32 0000 4FF41F00 		mov	r0, #10420224
 220:../../source/src/FWlib/src/stm32f10x_rcc.c **** 
  33              		.loc 1 220 0
  34 0004 0C4B     		ldr	r3, .L3
 224:../../source/src/FWlib/src/stm32f10x_rcc.c **** #else
  35              		.loc 1 224 0
  36 0006 0D4A     		ldr	r2, .L3+4
 220:../../source/src/FWlib/src/stm32f10x_rcc.c **** 
  37              		.loc 1 220 0
  38 0008 1968     		ldr	r1, [r3]
  39 000a 41F00101 		orr	r1, r1, #1
  40 000e 1960     		str	r1, [r3]
 224:../../source/src/FWlib/src/stm32f10x_rcc.c **** #else
  41              		.loc 1 224 0
  42 0010 5968     		ldr	r1, [r3, #4]
  43 0012 0A40     		ands	r2, r2, r1
  44 0014 5A60     		str	r2, [r3, #4]
 230:../../source/src/FWlib/src/stm32f10x_rcc.c **** 
  45              		.loc 1 230 0
  46 0016 1A68     		ldr	r2, [r3]
  47 0018 22F08472 		bic	r2, r2, #17301504
  48 001c 22F48032 		bic	r2, r2, #65536
  49 0020 1A60     		str	r2, [r3]
 233:../../source/src/FWlib/src/stm32f10x_rcc.c **** 
  50              		.loc 1 233 0
  51 0022 1A68     		ldr	r2, [r3]
  52 0024 22F48022 		bic	r2, r2, #262144
  53 0028 1A60     		str	r2, [r3]
 236:../../source/src/FWlib/src/stm32f10x_rcc.c **** 
  54              		.loc 1 236 0
  55 002a 5A68     		ldr	r2, [r3, #4]
  56 002c 22F4FE02 		bic	r2, r2, #8323072
  57 0030 5A60     		str	r2, [r3, #4]
  58              		.loc 1 255 0
  59 0032 9860     		str	r0, [r3, #8]
 256:../../source/src/FWlib/src/stm32f10x_rcc.c **** #endif /* STM32F10X_CL */
 257:../../source/src/FWlib/src/stm32f10x_rcc.c **** 
 258:../../source/src/FWlib/src/stm32f10x_rcc.c **** }
  60              		.loc 1 258 0
  61 0034 7047     		bx	lr
  62              	.L4:
  63 0036 00BF     		.align	2
  64              	.L3:
  65 0038 00100240 		.word	1073876992
  66 003c 0000FFF8 		.word	-117506048
  67              		.cfi_endproc
  68              	.LFE29:
  69              		.size	RCC_DeInit, .-RCC_DeInit
  70              		.align	1
  71              		.p2align 2,,3
  72              		.global	RCC_HSEConfig
  73              		.syntax unified
  74              		.thumb
  75              		.thumb_func
  76              		.fpu softvfp
  77              		.type	RCC_HSEConfig, %function
ARM GAS  G:\Users\Jaxb\AppData\Local\Temp\ccqGEEDk.s 			page 7


  78              	RCC_HSEConfig:
  79              	.LFB30:
 259:../../source/src/FWlib/src/stm32f10x_rcc.c **** 
 260:../../source/src/FWlib/src/stm32f10x_rcc.c **** /**
 261:../../source/src/FWlib/src/stm32f10x_rcc.c ****   * @brief  Configures the External High Speed oscillator (HSE).
 262:../../source/src/FWlib/src/stm32f10x_rcc.c ****   * @note   HSE can not be stopped if it is used directly or through the PLL as system clock.
 263:../../source/src/FWlib/src/stm32f10x_rcc.c ****   * @param  RCC_HSE: specifies the new state of the HSE.
 264:../../source/src/FWlib/src/stm32f10x_rcc.c ****   *   This parameter can be one of the following values:
 265:../../source/src/FWlib/src/stm32f10x_rcc.c ****   *     @arg RCC_HSE_OFF: HSE oscillator OFF
 266:../../source/src/FWlib/src/stm32f10x_rcc.c ****   *     @arg RCC_HSE_ON: HSE oscillator ON
 267:../../source/src/FWlib/src/stm32f10x_rcc.c ****   *     @arg RCC_HSE_Bypass: HSE oscillator bypassed with external clock
 268:../../source/src/FWlib/src/stm32f10x_rcc.c ****   * @retval None
 269:../../source/src/FWlib/src/stm32f10x_rcc.c ****   */
 270:../../source/src/FWlib/src/stm32f10x_rcc.c **** void RCC_HSEConfig(uint32_t RCC_HSE)
 271:../../source/src/FWlib/src/stm32f10x_rcc.c **** {
  80              		.loc 1 271 0
  81              		.cfi_startproc
  82              		@ args = 0, pretend = 0, frame = 0
  83              		@ frame_needed = 0, uses_anonymous_args = 0
  84              		@ link register save eliminated.
  85              	.LVL0:
 272:../../source/src/FWlib/src/stm32f10x_rcc.c ****   /* Check the parameters */
 273:../../source/src/FWlib/src/stm32f10x_rcc.c ****   assert_param(IS_RCC_HSE(RCC_HSE));
 274:../../source/src/FWlib/src/stm32f10x_rcc.c ****   /* Reset HSEON and HSEBYP bits before configuring the HSE ------------------*/
 275:../../source/src/FWlib/src/stm32f10x_rcc.c ****   /* Reset HSEON bit */
 276:../../source/src/FWlib/src/stm32f10x_rcc.c ****   RCC->CR &= CR_HSEON_Reset;
  86              		.loc 1 276 0
  87 0040 0C4B     		ldr	r3, .L10
 277:../../source/src/FWlib/src/stm32f10x_rcc.c ****   /* Reset HSEBYP bit */
 278:../../source/src/FWlib/src/stm32f10x_rcc.c ****   RCC->CR &= CR_HSEBYP_Reset;
 279:../../source/src/FWlib/src/stm32f10x_rcc.c ****   /* Configure HSE (RCC_HSE_OFF is already covered by the code section above) */
 280:../../source/src/FWlib/src/stm32f10x_rcc.c ****   switch(RCC_HSE)
  88              		.loc 1 280 0
  89 0042 B0F5803F 		cmp	r0, #65536
 276:../../source/src/FWlib/src/stm32f10x_rcc.c ****   /* Reset HSEBYP bit */
  90              		.loc 1 276 0
  91 0046 1A68     		ldr	r2, [r3]
  92 0048 22F48032 		bic	r2, r2, #65536
  93 004c 1A60     		str	r2, [r3]
 278:../../source/src/FWlib/src/stm32f10x_rcc.c ****   /* Configure HSE (RCC_HSE_OFF is already covered by the code section above) */
  94              		.loc 1 278 0
  95 004e 1A68     		ldr	r2, [r3]
  96 0050 22F48022 		bic	r2, r2, #262144
  97 0054 1A60     		str	r2, [r3]
  98              		.loc 1 280 0
  99 0056 08D0     		beq	.L7
 100 0058 B0F5802F 		cmp	r0, #262144
 101 005c 04D1     		bne	.L9
 281:../../source/src/FWlib/src/stm32f10x_rcc.c ****   {
 282:../../source/src/FWlib/src/stm32f10x_rcc.c ****     case RCC_HSE_ON:
 283:../../source/src/FWlib/src/stm32f10x_rcc.c ****       /* Set HSEON bit */
 284:../../source/src/FWlib/src/stm32f10x_rcc.c ****       RCC->CR |= CR_HSEON_Set;
 285:../../source/src/FWlib/src/stm32f10x_rcc.c ****       break;
 286:../../source/src/FWlib/src/stm32f10x_rcc.c ****       
 287:../../source/src/FWlib/src/stm32f10x_rcc.c ****     case RCC_HSE_Bypass:
 288:../../source/src/FWlib/src/stm32f10x_rcc.c ****       /* Set HSEBYP and HSEON bits */
 289:../../source/src/FWlib/src/stm32f10x_rcc.c ****       RCC->CR |= CR_HSEBYP_Set | CR_HSEON_Set;
ARM GAS  G:\Users\Jaxb\AppData\Local\Temp\ccqGEEDk.s 			page 8


 102              		.loc 1 289 0
 103 005e 1A68     		ldr	r2, [r3]
 104 0060 42F4A022 		orr	r2, r2, #327680
 105 0064 1A60     		str	r2, [r3]
 290:../../source/src/FWlib/src/stm32f10x_rcc.c ****       break;
 291:../../source/src/FWlib/src/stm32f10x_rcc.c ****       
 292:../../source/src/FWlib/src/stm32f10x_rcc.c ****     default:
 293:../../source/src/FWlib/src/stm32f10x_rcc.c ****       break;
 294:../../source/src/FWlib/src/stm32f10x_rcc.c ****   }
 295:../../source/src/FWlib/src/stm32f10x_rcc.c **** }
 106              		.loc 1 295 0
 107 0066 7047     		bx	lr
 108              	.L9:
 109 0068 7047     		bx	lr
 110              	.L7:
 284:../../source/src/FWlib/src/stm32f10x_rcc.c ****       break;
 111              		.loc 1 284 0
 112 006a 1A68     		ldr	r2, [r3]
 113 006c 42F48032 		orr	r2, r2, #65536
 114 0070 1A60     		str	r2, [r3]
 285:../../source/src/FWlib/src/stm32f10x_rcc.c ****       
 115              		.loc 1 285 0
 116 0072 7047     		bx	lr
 117              	.L11:
 118              		.align	2
 119              	.L10:
 120 0074 00100240 		.word	1073876992
 121              		.cfi_endproc
 122              	.LFE30:
 123              		.size	RCC_HSEConfig, .-RCC_HSEConfig
 124              		.align	1
 125              		.p2align 2,,3
 126              		.global	RCC_WaitForHSEStartUp
 127              		.syntax unified
 128              		.thumb
 129              		.thumb_func
 130              		.fpu softvfp
 131              		.type	RCC_WaitForHSEStartUp, %function
 132              	RCC_WaitForHSEStartUp:
 133              	.LFB31:
 296:../../source/src/FWlib/src/stm32f10x_rcc.c **** 
 297:../../source/src/FWlib/src/stm32f10x_rcc.c **** /**
 298:../../source/src/FWlib/src/stm32f10x_rcc.c ****   * @brief  Waits for HSE start-up.
 299:../../source/src/FWlib/src/stm32f10x_rcc.c ****   * @param  None
 300:../../source/src/FWlib/src/stm32f10x_rcc.c ****   * @retval An ErrorStatus enumuration value:
 301:../../source/src/FWlib/src/stm32f10x_rcc.c ****   * - SUCCESS: HSE oscillator is stable and ready to use
 302:../../source/src/FWlib/src/stm32f10x_rcc.c ****   * - ERROR: HSE oscillator not yet ready
 303:../../source/src/FWlib/src/stm32f10x_rcc.c ****   */
 304:../../source/src/FWlib/src/stm32f10x_rcc.c **** ErrorStatus RCC_WaitForHSEStartUp(void)
 305:../../source/src/FWlib/src/stm32f10x_rcc.c **** {
 134              		.loc 1 305 0
 135              		.cfi_startproc
 136              		@ args = 0, pretend = 0, frame = 8
 137              		@ frame_needed = 0, uses_anonymous_args = 0
 138              		@ link register save eliminated.
 306:../../source/src/FWlib/src/stm32f10x_rcc.c ****   __IO uint32_t StartUpCounter = 0;
 139              		.loc 1 306 0
ARM GAS  G:\Users\Jaxb\AppData\Local\Temp\ccqGEEDk.s 			page 9


 140 0078 0023     		movs	r3, #0
 305:../../source/src/FWlib/src/stm32f10x_rcc.c ****   __IO uint32_t StartUpCounter = 0;
 141              		.loc 1 305 0
 142 007a 82B0     		sub	sp, sp, #8
 143              	.LCFI0:
 144              		.cfi_def_cfa_offset 8
 145              	.LBB6:
 146              	.LBB7:
 307:../../source/src/FWlib/src/stm32f10x_rcc.c ****   ErrorStatus status = ERROR;
 308:../../source/src/FWlib/src/stm32f10x_rcc.c ****   FlagStatus HSEStatus = RESET;
 309:../../source/src/FWlib/src/stm32f10x_rcc.c ****   
 310:../../source/src/FWlib/src/stm32f10x_rcc.c ****   /* Wait till HSE is ready and if Time out is reached exit */
 311:../../source/src/FWlib/src/stm32f10x_rcc.c ****   do
 312:../../source/src/FWlib/src/stm32f10x_rcc.c ****   {
 313:../../source/src/FWlib/src/stm32f10x_rcc.c ****     HSEStatus = RCC_GetFlagStatus(RCC_FLAG_HSERDY);
 314:../../source/src/FWlib/src/stm32f10x_rcc.c ****     StartUpCounter++;  
 315:../../source/src/FWlib/src/stm32f10x_rcc.c ****   } while((StartUpCounter != HSE_STARTUP_TIMEOUT) && (HSEStatus == RESET));
 316:../../source/src/FWlib/src/stm32f10x_rcc.c ****   
 317:../../source/src/FWlib/src/stm32f10x_rcc.c ****   if (RCC_GetFlagStatus(RCC_FLAG_HSERDY) != RESET)
 318:../../source/src/FWlib/src/stm32f10x_rcc.c ****   {
 319:../../source/src/FWlib/src/stm32f10x_rcc.c ****     status = SUCCESS;
 320:../../source/src/FWlib/src/stm32f10x_rcc.c ****   }
 321:../../source/src/FWlib/src/stm32f10x_rcc.c ****   else
 322:../../source/src/FWlib/src/stm32f10x_rcc.c ****   {
 323:../../source/src/FWlib/src/stm32f10x_rcc.c ****     status = ERROR;
 324:../../source/src/FWlib/src/stm32f10x_rcc.c ****   }  
 325:../../source/src/FWlib/src/stm32f10x_rcc.c ****   return (status);
 326:../../source/src/FWlib/src/stm32f10x_rcc.c **** }
 327:../../source/src/FWlib/src/stm32f10x_rcc.c **** 
 328:../../source/src/FWlib/src/stm32f10x_rcc.c **** /**
 329:../../source/src/FWlib/src/stm32f10x_rcc.c ****   * @brief  Adjusts the Internal High Speed oscillator (HSI) calibration value.
 330:../../source/src/FWlib/src/stm32f10x_rcc.c ****   * @param  HSICalibrationValue: specifies the calibration trimming value.
 331:../../source/src/FWlib/src/stm32f10x_rcc.c ****   *   This parameter must be a number between 0 and 0x1F.
 332:../../source/src/FWlib/src/stm32f10x_rcc.c ****   * @retval None
 333:../../source/src/FWlib/src/stm32f10x_rcc.c ****   */
 334:../../source/src/FWlib/src/stm32f10x_rcc.c **** void RCC_AdjustHSICalibrationValue(uint8_t HSICalibrationValue)
 335:../../source/src/FWlib/src/stm32f10x_rcc.c **** {
 336:../../source/src/FWlib/src/stm32f10x_rcc.c ****   uint32_t tmpreg = 0;
 337:../../source/src/FWlib/src/stm32f10x_rcc.c ****   /* Check the parameters */
 338:../../source/src/FWlib/src/stm32f10x_rcc.c ****   assert_param(IS_RCC_CALIBRATION_VALUE(HSICalibrationValue));
 339:../../source/src/FWlib/src/stm32f10x_rcc.c ****   tmpreg = RCC->CR;
 340:../../source/src/FWlib/src/stm32f10x_rcc.c ****   /* Clear HSITRIM[4:0] bits */
 341:../../source/src/FWlib/src/stm32f10x_rcc.c ****   tmpreg &= CR_HSITRIM_Mask;
 342:../../source/src/FWlib/src/stm32f10x_rcc.c ****   /* Set the HSITRIM[4:0] bits according to HSICalibrationValue value */
 343:../../source/src/FWlib/src/stm32f10x_rcc.c ****   tmpreg |= (uint32_t)HSICalibrationValue << 3;
 344:../../source/src/FWlib/src/stm32f10x_rcc.c ****   /* Store the new value */
 345:../../source/src/FWlib/src/stm32f10x_rcc.c ****   RCC->CR = tmpreg;
 346:../../source/src/FWlib/src/stm32f10x_rcc.c **** }
 347:../../source/src/FWlib/src/stm32f10x_rcc.c **** 
 348:../../source/src/FWlib/src/stm32f10x_rcc.c **** /**
 349:../../source/src/FWlib/src/stm32f10x_rcc.c ****   * @brief  Enables or disables the Internal High Speed oscillator (HSI).
 350:../../source/src/FWlib/src/stm32f10x_rcc.c ****   * @note   HSI can not be stopped if it is used directly or through the PLL as system clock.
 351:../../source/src/FWlib/src/stm32f10x_rcc.c ****   * @param  NewState: new state of the HSI. This parameter can be: ENABLE or DISABLE.
 352:../../source/src/FWlib/src/stm32f10x_rcc.c ****   * @retval None
 353:../../source/src/FWlib/src/stm32f10x_rcc.c ****   */
 354:../../source/src/FWlib/src/stm32f10x_rcc.c **** void RCC_HSICmd(FunctionalState NewState)
 355:../../source/src/FWlib/src/stm32f10x_rcc.c **** {
ARM GAS  G:\Users\Jaxb\AppData\Local\Temp\ccqGEEDk.s 			page 10


 356:../../source/src/FWlib/src/stm32f10x_rcc.c ****   /* Check the parameters */
 357:../../source/src/FWlib/src/stm32f10x_rcc.c ****   assert_param(IS_FUNCTIONAL_STATE(NewState));
 358:../../source/src/FWlib/src/stm32f10x_rcc.c ****   *(__IO uint32_t *) CR_HSION_BB = (uint32_t)NewState;
 359:../../source/src/FWlib/src/stm32f10x_rcc.c **** }
 360:../../source/src/FWlib/src/stm32f10x_rcc.c **** 
 361:../../source/src/FWlib/src/stm32f10x_rcc.c **** /**
 362:../../source/src/FWlib/src/stm32f10x_rcc.c ****   * @brief  Configures the PLL clock source and multiplication factor.
 363:../../source/src/FWlib/src/stm32f10x_rcc.c ****   * @note   This function must be used only when the PLL is disabled.
 364:../../source/src/FWlib/src/stm32f10x_rcc.c ****   * @param  RCC_PLLSource: specifies the PLL entry clock source.
 365:../../source/src/FWlib/src/stm32f10x_rcc.c ****   *   For @b STM32_Connectivity_line_devices or @b STM32_Value_line_devices, 
 366:../../source/src/FWlib/src/stm32f10x_rcc.c ****   *   this parameter can be one of the following values:
 367:../../source/src/FWlib/src/stm32f10x_rcc.c ****   *     @arg RCC_PLLSource_HSI_Div2: HSI oscillator clock divided by 2 selected as PLL clock entry
 368:../../source/src/FWlib/src/stm32f10x_rcc.c ****   *     @arg RCC_PLLSource_PREDIV1: PREDIV1 clock selected as PLL clock entry
 369:../../source/src/FWlib/src/stm32f10x_rcc.c ****   *   For @b other_STM32_devices, this parameter can be one of the following values:
 370:../../source/src/FWlib/src/stm32f10x_rcc.c ****   *     @arg RCC_PLLSource_HSI_Div2: HSI oscillator clock divided by 2 selected as PLL clock entry
 371:../../source/src/FWlib/src/stm32f10x_rcc.c ****   *     @arg RCC_PLLSource_HSE_Div1: HSE oscillator clock selected as PLL clock entry
 372:../../source/src/FWlib/src/stm32f10x_rcc.c ****   *     @arg RCC_PLLSource_HSE_Div2: HSE oscillator clock divided by 2 selected as PLL clock entry 
 373:../../source/src/FWlib/src/stm32f10x_rcc.c ****   * @param  RCC_PLLMul: specifies the PLL multiplication factor.
 374:../../source/src/FWlib/src/stm32f10x_rcc.c ****   *   For @b STM32_Connectivity_line_devices, this parameter can be RCC_PLLMul_x where x:{[4,9], 6_
 375:../../source/src/FWlib/src/stm32f10x_rcc.c ****   *   For @b other_STM32_devices, this parameter can be RCC_PLLMul_x where x:[2,16]  
 376:../../source/src/FWlib/src/stm32f10x_rcc.c ****   * @retval None
 377:../../source/src/FWlib/src/stm32f10x_rcc.c ****   */
 378:../../source/src/FWlib/src/stm32f10x_rcc.c **** void RCC_PLLConfig(uint32_t RCC_PLLSource, uint32_t RCC_PLLMul)
 379:../../source/src/FWlib/src/stm32f10x_rcc.c **** {
 380:../../source/src/FWlib/src/stm32f10x_rcc.c ****   uint32_t tmpreg = 0;
 381:../../source/src/FWlib/src/stm32f10x_rcc.c **** 
 382:../../source/src/FWlib/src/stm32f10x_rcc.c ****   /* Check the parameters */
 383:../../source/src/FWlib/src/stm32f10x_rcc.c ****   assert_param(IS_RCC_PLL_SOURCE(RCC_PLLSource));
 384:../../source/src/FWlib/src/stm32f10x_rcc.c ****   assert_param(IS_RCC_PLL_MUL(RCC_PLLMul));
 385:../../source/src/FWlib/src/stm32f10x_rcc.c **** 
 386:../../source/src/FWlib/src/stm32f10x_rcc.c ****   tmpreg = RCC->CFGR;
 387:../../source/src/FWlib/src/stm32f10x_rcc.c ****   /* Clear PLLSRC, PLLXTPRE and PLLMUL[3:0] bits */
 388:../../source/src/FWlib/src/stm32f10x_rcc.c ****   tmpreg &= CFGR_PLL_Mask;
 389:../../source/src/FWlib/src/stm32f10x_rcc.c ****   /* Set the PLL configuration bits */
 390:../../source/src/FWlib/src/stm32f10x_rcc.c ****   tmpreg |= RCC_PLLSource | RCC_PLLMul;
 391:../../source/src/FWlib/src/stm32f10x_rcc.c ****   /* Store the new value */
 392:../../source/src/FWlib/src/stm32f10x_rcc.c ****   RCC->CFGR = tmpreg;
 393:../../source/src/FWlib/src/stm32f10x_rcc.c **** }
 394:../../source/src/FWlib/src/stm32f10x_rcc.c **** 
 395:../../source/src/FWlib/src/stm32f10x_rcc.c **** /**
 396:../../source/src/FWlib/src/stm32f10x_rcc.c ****   * @brief  Enables or disables the PLL.
 397:../../source/src/FWlib/src/stm32f10x_rcc.c ****   * @note   The PLL can not be disabled if it is used as system clock.
 398:../../source/src/FWlib/src/stm32f10x_rcc.c ****   * @param  NewState: new state of the PLL. This parameter can be: ENABLE or DISABLE.
 399:../../source/src/FWlib/src/stm32f10x_rcc.c ****   * @retval None
 400:../../source/src/FWlib/src/stm32f10x_rcc.c ****   */
 401:../../source/src/FWlib/src/stm32f10x_rcc.c **** void RCC_PLLCmd(FunctionalState NewState)
 402:../../source/src/FWlib/src/stm32f10x_rcc.c **** {
 403:../../source/src/FWlib/src/stm32f10x_rcc.c ****   /* Check the parameters */
 404:../../source/src/FWlib/src/stm32f10x_rcc.c ****   assert_param(IS_FUNCTIONAL_STATE(NewState));
 405:../../source/src/FWlib/src/stm32f10x_rcc.c **** 
 406:../../source/src/FWlib/src/stm32f10x_rcc.c ****   *(__IO uint32_t *) CR_PLLON_BB = (uint32_t)NewState;
 407:../../source/src/FWlib/src/stm32f10x_rcc.c **** }
 408:../../source/src/FWlib/src/stm32f10x_rcc.c **** 
 409:../../source/src/FWlib/src/stm32f10x_rcc.c **** #if defined (STM32F10X_LD_VL) || defined (STM32F10X_MD_VL) || defined (STM32F10X_HD_VL) || defined 
 410:../../source/src/FWlib/src/stm32f10x_rcc.c **** /**
 411:../../source/src/FWlib/src/stm32f10x_rcc.c ****   * @brief  Configures the PREDIV1 division factor.
 412:../../source/src/FWlib/src/stm32f10x_rcc.c ****   * @note 
ARM GAS  G:\Users\Jaxb\AppData\Local\Temp\ccqGEEDk.s 			page 11


 413:../../source/src/FWlib/src/stm32f10x_rcc.c ****   *   - This function must be used only when the PLL is disabled.
 414:../../source/src/FWlib/src/stm32f10x_rcc.c ****   *   - This function applies only to STM32 Connectivity line and Value line 
 415:../../source/src/FWlib/src/stm32f10x_rcc.c ****   *     devices.
 416:../../source/src/FWlib/src/stm32f10x_rcc.c ****   * @param  RCC_PREDIV1_Source: specifies the PREDIV1 clock source.
 417:../../source/src/FWlib/src/stm32f10x_rcc.c ****   *   This parameter can be one of the following values:
 418:../../source/src/FWlib/src/stm32f10x_rcc.c ****   *     @arg RCC_PREDIV1_Source_HSE: HSE selected as PREDIV1 clock
 419:../../source/src/FWlib/src/stm32f10x_rcc.c ****   *     @arg RCC_PREDIV1_Source_PLL2: PLL2 selected as PREDIV1 clock
 420:../../source/src/FWlib/src/stm32f10x_rcc.c ****   * @note 
 421:../../source/src/FWlib/src/stm32f10x_rcc.c ****   *   For @b STM32_Value_line_devices this parameter is always RCC_PREDIV1_Source_HSE  
 422:../../source/src/FWlib/src/stm32f10x_rcc.c ****   * @param  RCC_PREDIV1_Div: specifies the PREDIV1 clock division factor.
 423:../../source/src/FWlib/src/stm32f10x_rcc.c ****   *   This parameter can be RCC_PREDIV1_Divx where x:[1,16]
 424:../../source/src/FWlib/src/stm32f10x_rcc.c ****   * @retval None
 425:../../source/src/FWlib/src/stm32f10x_rcc.c ****   */
 426:../../source/src/FWlib/src/stm32f10x_rcc.c **** void RCC_PREDIV1Config(uint32_t RCC_PREDIV1_Source, uint32_t RCC_PREDIV1_Div)
 427:../../source/src/FWlib/src/stm32f10x_rcc.c **** {
 428:../../source/src/FWlib/src/stm32f10x_rcc.c ****   uint32_t tmpreg = 0;
 429:../../source/src/FWlib/src/stm32f10x_rcc.c ****   
 430:../../source/src/FWlib/src/stm32f10x_rcc.c ****   /* Check the parameters */
 431:../../source/src/FWlib/src/stm32f10x_rcc.c ****   assert_param(IS_RCC_PREDIV1_SOURCE(RCC_PREDIV1_Source));
 432:../../source/src/FWlib/src/stm32f10x_rcc.c ****   assert_param(IS_RCC_PREDIV1(RCC_PREDIV1_Div));
 433:../../source/src/FWlib/src/stm32f10x_rcc.c **** 
 434:../../source/src/FWlib/src/stm32f10x_rcc.c ****   tmpreg = RCC->CFGR2;
 435:../../source/src/FWlib/src/stm32f10x_rcc.c ****   /* Clear PREDIV1[3:0] and PREDIV1SRC bits */
 436:../../source/src/FWlib/src/stm32f10x_rcc.c ****   tmpreg &= ~(CFGR2_PREDIV1 | CFGR2_PREDIV1SRC);
 437:../../source/src/FWlib/src/stm32f10x_rcc.c ****   /* Set the PREDIV1 clock source and division factor */
 438:../../source/src/FWlib/src/stm32f10x_rcc.c ****   tmpreg |= RCC_PREDIV1_Source | RCC_PREDIV1_Div ;
 439:../../source/src/FWlib/src/stm32f10x_rcc.c ****   /* Store the new value */
 440:../../source/src/FWlib/src/stm32f10x_rcc.c ****   RCC->CFGR2 = tmpreg;
 441:../../source/src/FWlib/src/stm32f10x_rcc.c **** }
 442:../../source/src/FWlib/src/stm32f10x_rcc.c **** #endif
 443:../../source/src/FWlib/src/stm32f10x_rcc.c **** 
 444:../../source/src/FWlib/src/stm32f10x_rcc.c **** #ifdef STM32F10X_CL
 445:../../source/src/FWlib/src/stm32f10x_rcc.c **** /**
 446:../../source/src/FWlib/src/stm32f10x_rcc.c ****   * @brief  Configures the PREDIV2 division factor.
 447:../../source/src/FWlib/src/stm32f10x_rcc.c ****   * @note 
 448:../../source/src/FWlib/src/stm32f10x_rcc.c ****   *   - This function must be used only when both PLL2 and PLL3 are disabled.
 449:../../source/src/FWlib/src/stm32f10x_rcc.c ****   *   - This function applies only to STM32 Connectivity line devices.
 450:../../source/src/FWlib/src/stm32f10x_rcc.c ****   * @param  RCC_PREDIV2_Div: specifies the PREDIV2 clock division factor.
 451:../../source/src/FWlib/src/stm32f10x_rcc.c ****   *   This parameter can be RCC_PREDIV2_Divx where x:[1,16]
 452:../../source/src/FWlib/src/stm32f10x_rcc.c ****   * @retval None
 453:../../source/src/FWlib/src/stm32f10x_rcc.c ****   */
 454:../../source/src/FWlib/src/stm32f10x_rcc.c **** void RCC_PREDIV2Config(uint32_t RCC_PREDIV2_Div)
 455:../../source/src/FWlib/src/stm32f10x_rcc.c **** {
 456:../../source/src/FWlib/src/stm32f10x_rcc.c ****   uint32_t tmpreg = 0;
 457:../../source/src/FWlib/src/stm32f10x_rcc.c **** 
 458:../../source/src/FWlib/src/stm32f10x_rcc.c ****   /* Check the parameters */
 459:../../source/src/FWlib/src/stm32f10x_rcc.c ****   assert_param(IS_RCC_PREDIV2(RCC_PREDIV2_Div));
 460:../../source/src/FWlib/src/stm32f10x_rcc.c **** 
 461:../../source/src/FWlib/src/stm32f10x_rcc.c ****   tmpreg = RCC->CFGR2;
 462:../../source/src/FWlib/src/stm32f10x_rcc.c ****   /* Clear PREDIV2[3:0] bits */
 463:../../source/src/FWlib/src/stm32f10x_rcc.c ****   tmpreg &= ~CFGR2_PREDIV2;
 464:../../source/src/FWlib/src/stm32f10x_rcc.c ****   /* Set the PREDIV2 division factor */
 465:../../source/src/FWlib/src/stm32f10x_rcc.c ****   tmpreg |= RCC_PREDIV2_Div;
 466:../../source/src/FWlib/src/stm32f10x_rcc.c ****   /* Store the new value */
 467:../../source/src/FWlib/src/stm32f10x_rcc.c ****   RCC->CFGR2 = tmpreg;
 468:../../source/src/FWlib/src/stm32f10x_rcc.c **** }
 469:../../source/src/FWlib/src/stm32f10x_rcc.c **** 
ARM GAS  G:\Users\Jaxb\AppData\Local\Temp\ccqGEEDk.s 			page 12


 470:../../source/src/FWlib/src/stm32f10x_rcc.c **** /**
 471:../../source/src/FWlib/src/stm32f10x_rcc.c ****   * @brief  Configures the PLL2 multiplication factor.
 472:../../source/src/FWlib/src/stm32f10x_rcc.c ****   * @note
 473:../../source/src/FWlib/src/stm32f10x_rcc.c ****   *   - This function must be used only when the PLL2 is disabled.
 474:../../source/src/FWlib/src/stm32f10x_rcc.c ****   *   - This function applies only to STM32 Connectivity line devices.
 475:../../source/src/FWlib/src/stm32f10x_rcc.c ****   * @param  RCC_PLL2Mul: specifies the PLL2 multiplication factor.
 476:../../source/src/FWlib/src/stm32f10x_rcc.c ****   *   This parameter can be RCC_PLL2Mul_x where x:{[8,14], 16, 20}
 477:../../source/src/FWlib/src/stm32f10x_rcc.c ****   * @retval None
 478:../../source/src/FWlib/src/stm32f10x_rcc.c ****   */
 479:../../source/src/FWlib/src/stm32f10x_rcc.c **** void RCC_PLL2Config(uint32_t RCC_PLL2Mul)
 480:../../source/src/FWlib/src/stm32f10x_rcc.c **** {
 481:../../source/src/FWlib/src/stm32f10x_rcc.c ****   uint32_t tmpreg = 0;
 482:../../source/src/FWlib/src/stm32f10x_rcc.c **** 
 483:../../source/src/FWlib/src/stm32f10x_rcc.c ****   /* Check the parameters */
 484:../../source/src/FWlib/src/stm32f10x_rcc.c ****   assert_param(IS_RCC_PLL2_MUL(RCC_PLL2Mul));
 485:../../source/src/FWlib/src/stm32f10x_rcc.c **** 
 486:../../source/src/FWlib/src/stm32f10x_rcc.c ****   tmpreg = RCC->CFGR2;
 487:../../source/src/FWlib/src/stm32f10x_rcc.c ****   /* Clear PLL2Mul[3:0] bits */
 488:../../source/src/FWlib/src/stm32f10x_rcc.c ****   tmpreg &= ~CFGR2_PLL2MUL;
 489:../../source/src/FWlib/src/stm32f10x_rcc.c ****   /* Set the PLL2 configuration bits */
 490:../../source/src/FWlib/src/stm32f10x_rcc.c ****   tmpreg |= RCC_PLL2Mul;
 491:../../source/src/FWlib/src/stm32f10x_rcc.c ****   /* Store the new value */
 492:../../source/src/FWlib/src/stm32f10x_rcc.c ****   RCC->CFGR2 = tmpreg;
 493:../../source/src/FWlib/src/stm32f10x_rcc.c **** }
 494:../../source/src/FWlib/src/stm32f10x_rcc.c **** 
 495:../../source/src/FWlib/src/stm32f10x_rcc.c **** 
 496:../../source/src/FWlib/src/stm32f10x_rcc.c **** /**
 497:../../source/src/FWlib/src/stm32f10x_rcc.c ****   * @brief  Enables or disables the PLL2.
 498:../../source/src/FWlib/src/stm32f10x_rcc.c ****   * @note 
 499:../../source/src/FWlib/src/stm32f10x_rcc.c ****   *   - The PLL2 can not be disabled if it is used indirectly as system clock
 500:../../source/src/FWlib/src/stm32f10x_rcc.c ****   *     (i.e. it is used as PLL clock entry that is used as System clock).
 501:../../source/src/FWlib/src/stm32f10x_rcc.c ****   *   - This function applies only to STM32 Connectivity line devices.
 502:../../source/src/FWlib/src/stm32f10x_rcc.c ****   * @param  NewState: new state of the PLL2. This parameter can be: ENABLE or DISABLE.
 503:../../source/src/FWlib/src/stm32f10x_rcc.c ****   * @retval None
 504:../../source/src/FWlib/src/stm32f10x_rcc.c ****   */
 505:../../source/src/FWlib/src/stm32f10x_rcc.c **** void RCC_PLL2Cmd(FunctionalState NewState)
 506:../../source/src/FWlib/src/stm32f10x_rcc.c **** {
 507:../../source/src/FWlib/src/stm32f10x_rcc.c ****   /* Check the parameters */
 508:../../source/src/FWlib/src/stm32f10x_rcc.c ****   assert_param(IS_FUNCTIONAL_STATE(NewState));
 509:../../source/src/FWlib/src/stm32f10x_rcc.c **** 
 510:../../source/src/FWlib/src/stm32f10x_rcc.c ****   *(__IO uint32_t *) CR_PLL2ON_BB = (uint32_t)NewState;
 511:../../source/src/FWlib/src/stm32f10x_rcc.c **** }
 512:../../source/src/FWlib/src/stm32f10x_rcc.c **** 
 513:../../source/src/FWlib/src/stm32f10x_rcc.c **** 
 514:../../source/src/FWlib/src/stm32f10x_rcc.c **** /**
 515:../../source/src/FWlib/src/stm32f10x_rcc.c ****   * @brief  Configures the PLL3 multiplication factor.
 516:../../source/src/FWlib/src/stm32f10x_rcc.c ****   * @note 
 517:../../source/src/FWlib/src/stm32f10x_rcc.c ****   *   - This function must be used only when the PLL3 is disabled.
 518:../../source/src/FWlib/src/stm32f10x_rcc.c ****   *   - This function applies only to STM32 Connectivity line devices.
 519:../../source/src/FWlib/src/stm32f10x_rcc.c ****   * @param  RCC_PLL3Mul: specifies the PLL3 multiplication factor.
 520:../../source/src/FWlib/src/stm32f10x_rcc.c ****   *   This parameter can be RCC_PLL3Mul_x where x:{[8,14], 16, 20}
 521:../../source/src/FWlib/src/stm32f10x_rcc.c ****   * @retval None
 522:../../source/src/FWlib/src/stm32f10x_rcc.c ****   */
 523:../../source/src/FWlib/src/stm32f10x_rcc.c **** void RCC_PLL3Config(uint32_t RCC_PLL3Mul)
 524:../../source/src/FWlib/src/stm32f10x_rcc.c **** {
 525:../../source/src/FWlib/src/stm32f10x_rcc.c ****   uint32_t tmpreg = 0;
 526:../../source/src/FWlib/src/stm32f10x_rcc.c **** 
ARM GAS  G:\Users\Jaxb\AppData\Local\Temp\ccqGEEDk.s 			page 13


 527:../../source/src/FWlib/src/stm32f10x_rcc.c ****   /* Check the parameters */
 528:../../source/src/FWlib/src/stm32f10x_rcc.c ****   assert_param(IS_RCC_PLL3_MUL(RCC_PLL3Mul));
 529:../../source/src/FWlib/src/stm32f10x_rcc.c **** 
 530:../../source/src/FWlib/src/stm32f10x_rcc.c ****   tmpreg = RCC->CFGR2;
 531:../../source/src/FWlib/src/stm32f10x_rcc.c ****   /* Clear PLL3Mul[3:0] bits */
 532:../../source/src/FWlib/src/stm32f10x_rcc.c ****   tmpreg &= ~CFGR2_PLL3MUL;
 533:../../source/src/FWlib/src/stm32f10x_rcc.c ****   /* Set the PLL3 configuration bits */
 534:../../source/src/FWlib/src/stm32f10x_rcc.c ****   tmpreg |= RCC_PLL3Mul;
 535:../../source/src/FWlib/src/stm32f10x_rcc.c ****   /* Store the new value */
 536:../../source/src/FWlib/src/stm32f10x_rcc.c ****   RCC->CFGR2 = tmpreg;
 537:../../source/src/FWlib/src/stm32f10x_rcc.c **** }
 538:../../source/src/FWlib/src/stm32f10x_rcc.c **** 
 539:../../source/src/FWlib/src/stm32f10x_rcc.c **** 
 540:../../source/src/FWlib/src/stm32f10x_rcc.c **** /**
 541:../../source/src/FWlib/src/stm32f10x_rcc.c ****   * @brief  Enables or disables the PLL3.
 542:../../source/src/FWlib/src/stm32f10x_rcc.c ****   * @note   This function applies only to STM32 Connectivity line devices.
 543:../../source/src/FWlib/src/stm32f10x_rcc.c ****   * @param  NewState: new state of the PLL3. This parameter can be: ENABLE or DISABLE.
 544:../../source/src/FWlib/src/stm32f10x_rcc.c ****   * @retval None
 545:../../source/src/FWlib/src/stm32f10x_rcc.c ****   */
 546:../../source/src/FWlib/src/stm32f10x_rcc.c **** void RCC_PLL3Cmd(FunctionalState NewState)
 547:../../source/src/FWlib/src/stm32f10x_rcc.c **** {
 548:../../source/src/FWlib/src/stm32f10x_rcc.c ****   /* Check the parameters */
 549:../../source/src/FWlib/src/stm32f10x_rcc.c **** 
 550:../../source/src/FWlib/src/stm32f10x_rcc.c ****   assert_param(IS_FUNCTIONAL_STATE(NewState));
 551:../../source/src/FWlib/src/stm32f10x_rcc.c ****   *(__IO uint32_t *) CR_PLL3ON_BB = (uint32_t)NewState;
 552:../../source/src/FWlib/src/stm32f10x_rcc.c **** }
 553:../../source/src/FWlib/src/stm32f10x_rcc.c **** #endif /* STM32F10X_CL */
 554:../../source/src/FWlib/src/stm32f10x_rcc.c **** 
 555:../../source/src/FWlib/src/stm32f10x_rcc.c **** /**
 556:../../source/src/FWlib/src/stm32f10x_rcc.c ****   * @brief  Configures the system clock (SYSCLK).
 557:../../source/src/FWlib/src/stm32f10x_rcc.c ****   * @param  RCC_SYSCLKSource: specifies the clock source used as system clock.
 558:../../source/src/FWlib/src/stm32f10x_rcc.c ****   *   This parameter can be one of the following values:
 559:../../source/src/FWlib/src/stm32f10x_rcc.c ****   *     @arg RCC_SYSCLKSource_HSI: HSI selected as system clock
 560:../../source/src/FWlib/src/stm32f10x_rcc.c ****   *     @arg RCC_SYSCLKSource_HSE: HSE selected as system clock
 561:../../source/src/FWlib/src/stm32f10x_rcc.c ****   *     @arg RCC_SYSCLKSource_PLLCLK: PLL selected as system clock
 562:../../source/src/FWlib/src/stm32f10x_rcc.c ****   * @retval None
 563:../../source/src/FWlib/src/stm32f10x_rcc.c ****   */
 564:../../source/src/FWlib/src/stm32f10x_rcc.c **** void RCC_SYSCLKConfig(uint32_t RCC_SYSCLKSource)
 565:../../source/src/FWlib/src/stm32f10x_rcc.c **** {
 566:../../source/src/FWlib/src/stm32f10x_rcc.c ****   uint32_t tmpreg = 0;
 567:../../source/src/FWlib/src/stm32f10x_rcc.c ****   /* Check the parameters */
 568:../../source/src/FWlib/src/stm32f10x_rcc.c ****   assert_param(IS_RCC_SYSCLK_SOURCE(RCC_SYSCLKSource));
 569:../../source/src/FWlib/src/stm32f10x_rcc.c ****   tmpreg = RCC->CFGR;
 570:../../source/src/FWlib/src/stm32f10x_rcc.c ****   /* Clear SW[1:0] bits */
 571:../../source/src/FWlib/src/stm32f10x_rcc.c ****   tmpreg &= CFGR_SW_Mask;
 572:../../source/src/FWlib/src/stm32f10x_rcc.c ****   /* Set SW[1:0] bits according to RCC_SYSCLKSource value */
 573:../../source/src/FWlib/src/stm32f10x_rcc.c ****   tmpreg |= RCC_SYSCLKSource;
 574:../../source/src/FWlib/src/stm32f10x_rcc.c ****   /* Store the new value */
 575:../../source/src/FWlib/src/stm32f10x_rcc.c ****   RCC->CFGR = tmpreg;
 576:../../source/src/FWlib/src/stm32f10x_rcc.c **** }
 577:../../source/src/FWlib/src/stm32f10x_rcc.c **** 
 578:../../source/src/FWlib/src/stm32f10x_rcc.c **** /**
 579:../../source/src/FWlib/src/stm32f10x_rcc.c ****   * @brief  Returns the clock source used as system clock.
 580:../../source/src/FWlib/src/stm32f10x_rcc.c ****   * @param  None
 581:../../source/src/FWlib/src/stm32f10x_rcc.c ****   * @retval The clock source used as system clock. The returned value can
 582:../../source/src/FWlib/src/stm32f10x_rcc.c ****   *   be one of the following:
 583:../../source/src/FWlib/src/stm32f10x_rcc.c ****   *     - 0x00: HSI used as system clock
ARM GAS  G:\Users\Jaxb\AppData\Local\Temp\ccqGEEDk.s 			page 14


 584:../../source/src/FWlib/src/stm32f10x_rcc.c ****   *     - 0x04: HSE used as system clock
 585:../../source/src/FWlib/src/stm32f10x_rcc.c ****   *     - 0x08: PLL used as system clock
 586:../../source/src/FWlib/src/stm32f10x_rcc.c ****   */
 587:../../source/src/FWlib/src/stm32f10x_rcc.c **** uint8_t RCC_GetSYSCLKSource(void)
 588:../../source/src/FWlib/src/stm32f10x_rcc.c **** {
 589:../../source/src/FWlib/src/stm32f10x_rcc.c ****   return ((uint8_t)(RCC->CFGR & CFGR_SWS_Mask));
 590:../../source/src/FWlib/src/stm32f10x_rcc.c **** }
 591:../../source/src/FWlib/src/stm32f10x_rcc.c **** 
 592:../../source/src/FWlib/src/stm32f10x_rcc.c **** /**
 593:../../source/src/FWlib/src/stm32f10x_rcc.c ****   * @brief  Configures the AHB clock (HCLK).
 594:../../source/src/FWlib/src/stm32f10x_rcc.c ****   * @param  RCC_SYSCLK: defines the AHB clock divider. This clock is derived from 
 595:../../source/src/FWlib/src/stm32f10x_rcc.c ****   *   the system clock (SYSCLK).
 596:../../source/src/FWlib/src/stm32f10x_rcc.c ****   *   This parameter can be one of the following values:
 597:../../source/src/FWlib/src/stm32f10x_rcc.c ****   *     @arg RCC_SYSCLK_Div1: AHB clock = SYSCLK
 598:../../source/src/FWlib/src/stm32f10x_rcc.c ****   *     @arg RCC_SYSCLK_Div2: AHB clock = SYSCLK/2
 599:../../source/src/FWlib/src/stm32f10x_rcc.c ****   *     @arg RCC_SYSCLK_Div4: AHB clock = SYSCLK/4
 600:../../source/src/FWlib/src/stm32f10x_rcc.c ****   *     @arg RCC_SYSCLK_Div8: AHB clock = SYSCLK/8
 601:../../source/src/FWlib/src/stm32f10x_rcc.c ****   *     @arg RCC_SYSCLK_Div16: AHB clock = SYSCLK/16
 602:../../source/src/FWlib/src/stm32f10x_rcc.c ****   *     @arg RCC_SYSCLK_Div64: AHB clock = SYSCLK/64
 603:../../source/src/FWlib/src/stm32f10x_rcc.c ****   *     @arg RCC_SYSCLK_Div128: AHB clock = SYSCLK/128
 604:../../source/src/FWlib/src/stm32f10x_rcc.c ****   *     @arg RCC_SYSCLK_Div256: AHB clock = SYSCLK/256
 605:../../source/src/FWlib/src/stm32f10x_rcc.c ****   *     @arg RCC_SYSCLK_Div512: AHB clock = SYSCLK/512
 606:../../source/src/FWlib/src/stm32f10x_rcc.c ****   * @retval None
 607:../../source/src/FWlib/src/stm32f10x_rcc.c ****   */
 608:../../source/src/FWlib/src/stm32f10x_rcc.c **** void RCC_HCLKConfig(uint32_t RCC_SYSCLK)
 609:../../source/src/FWlib/src/stm32f10x_rcc.c **** {
 610:../../source/src/FWlib/src/stm32f10x_rcc.c ****   uint32_t tmpreg = 0;
 611:../../source/src/FWlib/src/stm32f10x_rcc.c ****   /* Check the parameters */
 612:../../source/src/FWlib/src/stm32f10x_rcc.c ****   assert_param(IS_RCC_HCLK(RCC_SYSCLK));
 613:../../source/src/FWlib/src/stm32f10x_rcc.c ****   tmpreg = RCC->CFGR;
 614:../../source/src/FWlib/src/stm32f10x_rcc.c ****   /* Clear HPRE[3:0] bits */
 615:../../source/src/FWlib/src/stm32f10x_rcc.c ****   tmpreg &= CFGR_HPRE_Reset_Mask;
 616:../../source/src/FWlib/src/stm32f10x_rcc.c ****   /* Set HPRE[3:0] bits according to RCC_SYSCLK value */
 617:../../source/src/FWlib/src/stm32f10x_rcc.c ****   tmpreg |= RCC_SYSCLK;
 618:../../source/src/FWlib/src/stm32f10x_rcc.c ****   /* Store the new value */
 619:../../source/src/FWlib/src/stm32f10x_rcc.c ****   RCC->CFGR = tmpreg;
 620:../../source/src/FWlib/src/stm32f10x_rcc.c **** }
 621:../../source/src/FWlib/src/stm32f10x_rcc.c **** 
 622:../../source/src/FWlib/src/stm32f10x_rcc.c **** /**
 623:../../source/src/FWlib/src/stm32f10x_rcc.c ****   * @brief  Configures the Low Speed APB clock (PCLK1).
 624:../../source/src/FWlib/src/stm32f10x_rcc.c ****   * @param  RCC_HCLK: defines the APB1 clock divider. This clock is derived from 
 625:../../source/src/FWlib/src/stm32f10x_rcc.c ****   *   the AHB clock (HCLK).
 626:../../source/src/FWlib/src/stm32f10x_rcc.c ****   *   This parameter can be one of the following values:
 627:../../source/src/FWlib/src/stm32f10x_rcc.c ****   *     @arg RCC_HCLK_Div1: APB1 clock = HCLK
 628:../../source/src/FWlib/src/stm32f10x_rcc.c ****   *     @arg RCC_HCLK_Div2: APB1 clock = HCLK/2
 629:../../source/src/FWlib/src/stm32f10x_rcc.c ****   *     @arg RCC_HCLK_Div4: APB1 clock = HCLK/4
 630:../../source/src/FWlib/src/stm32f10x_rcc.c ****   *     @arg RCC_HCLK_Div8: APB1 clock = HCLK/8
 631:../../source/src/FWlib/src/stm32f10x_rcc.c ****   *     @arg RCC_HCLK_Div16: APB1 clock = HCLK/16
 632:../../source/src/FWlib/src/stm32f10x_rcc.c ****   * @retval None
 633:../../source/src/FWlib/src/stm32f10x_rcc.c ****   */
 634:../../source/src/FWlib/src/stm32f10x_rcc.c **** void RCC_PCLK1Config(uint32_t RCC_HCLK)
 635:../../source/src/FWlib/src/stm32f10x_rcc.c **** {
 636:../../source/src/FWlib/src/stm32f10x_rcc.c ****   uint32_t tmpreg = 0;
 637:../../source/src/FWlib/src/stm32f10x_rcc.c ****   /* Check the parameters */
 638:../../source/src/FWlib/src/stm32f10x_rcc.c ****   assert_param(IS_RCC_PCLK(RCC_HCLK));
 639:../../source/src/FWlib/src/stm32f10x_rcc.c ****   tmpreg = RCC->CFGR;
 640:../../source/src/FWlib/src/stm32f10x_rcc.c ****   /* Clear PPRE1[2:0] bits */
ARM GAS  G:\Users\Jaxb\AppData\Local\Temp\ccqGEEDk.s 			page 15


 641:../../source/src/FWlib/src/stm32f10x_rcc.c ****   tmpreg &= CFGR_PPRE1_Reset_Mask;
 642:../../source/src/FWlib/src/stm32f10x_rcc.c ****   /* Set PPRE1[2:0] bits according to RCC_HCLK value */
 643:../../source/src/FWlib/src/stm32f10x_rcc.c ****   tmpreg |= RCC_HCLK;
 644:../../source/src/FWlib/src/stm32f10x_rcc.c ****   /* Store the new value */
 645:../../source/src/FWlib/src/stm32f10x_rcc.c ****   RCC->CFGR = tmpreg;
 646:../../source/src/FWlib/src/stm32f10x_rcc.c **** }
 647:../../source/src/FWlib/src/stm32f10x_rcc.c **** 
 648:../../source/src/FWlib/src/stm32f10x_rcc.c **** /**
 649:../../source/src/FWlib/src/stm32f10x_rcc.c ****   * @brief  Configures the High Speed APB clock (PCLK2).
 650:../../source/src/FWlib/src/stm32f10x_rcc.c ****   * @param  RCC_HCLK: defines the APB2 clock divider. This clock is derived from 
 651:../../source/src/FWlib/src/stm32f10x_rcc.c ****   *   the AHB clock (HCLK).
 652:../../source/src/FWlib/src/stm32f10x_rcc.c ****   *   This parameter can be one of the following values:
 653:../../source/src/FWlib/src/stm32f10x_rcc.c ****   *     @arg RCC_HCLK_Div1: APB2 clock = HCLK
 654:../../source/src/FWlib/src/stm32f10x_rcc.c ****   *     @arg RCC_HCLK_Div2: APB2 clock = HCLK/2
 655:../../source/src/FWlib/src/stm32f10x_rcc.c ****   *     @arg RCC_HCLK_Div4: APB2 clock = HCLK/4
 656:../../source/src/FWlib/src/stm32f10x_rcc.c ****   *     @arg RCC_HCLK_Div8: APB2 clock = HCLK/8
 657:../../source/src/FWlib/src/stm32f10x_rcc.c ****   *     @arg RCC_HCLK_Div16: APB2 clock = HCLK/16
 658:../../source/src/FWlib/src/stm32f10x_rcc.c ****   * @retval None
 659:../../source/src/FWlib/src/stm32f10x_rcc.c ****   */
 660:../../source/src/FWlib/src/stm32f10x_rcc.c **** void RCC_PCLK2Config(uint32_t RCC_HCLK)
 661:../../source/src/FWlib/src/stm32f10x_rcc.c **** {
 662:../../source/src/FWlib/src/stm32f10x_rcc.c ****   uint32_t tmpreg = 0;
 663:../../source/src/FWlib/src/stm32f10x_rcc.c ****   /* Check the parameters */
 664:../../source/src/FWlib/src/stm32f10x_rcc.c ****   assert_param(IS_RCC_PCLK(RCC_HCLK));
 665:../../source/src/FWlib/src/stm32f10x_rcc.c ****   tmpreg = RCC->CFGR;
 666:../../source/src/FWlib/src/stm32f10x_rcc.c ****   /* Clear PPRE2[2:0] bits */
 667:../../source/src/FWlib/src/stm32f10x_rcc.c ****   tmpreg &= CFGR_PPRE2_Reset_Mask;
 668:../../source/src/FWlib/src/stm32f10x_rcc.c ****   /* Set PPRE2[2:0] bits according to RCC_HCLK value */
 669:../../source/src/FWlib/src/stm32f10x_rcc.c ****   tmpreg |= RCC_HCLK << 3;
 670:../../source/src/FWlib/src/stm32f10x_rcc.c ****   /* Store the new value */
 671:../../source/src/FWlib/src/stm32f10x_rcc.c ****   RCC->CFGR = tmpreg;
 672:../../source/src/FWlib/src/stm32f10x_rcc.c **** }
 673:../../source/src/FWlib/src/stm32f10x_rcc.c **** 
 674:../../source/src/FWlib/src/stm32f10x_rcc.c **** /**
 675:../../source/src/FWlib/src/stm32f10x_rcc.c ****   * @brief  Enables or disables the specified RCC interrupts.
 676:../../source/src/FWlib/src/stm32f10x_rcc.c ****   * @param  RCC_IT: specifies the RCC interrupt sources to be enabled or disabled.
 677:../../source/src/FWlib/src/stm32f10x_rcc.c ****   * 
 678:../../source/src/FWlib/src/stm32f10x_rcc.c ****   *   For @b STM32_Connectivity_line_devices, this parameter can be any combination
 679:../../source/src/FWlib/src/stm32f10x_rcc.c ****   *   of the following values        
 680:../../source/src/FWlib/src/stm32f10x_rcc.c ****   *     @arg RCC_IT_LSIRDY: LSI ready interrupt
 681:../../source/src/FWlib/src/stm32f10x_rcc.c ****   *     @arg RCC_IT_LSERDY: LSE ready interrupt
 682:../../source/src/FWlib/src/stm32f10x_rcc.c ****   *     @arg RCC_IT_HSIRDY: HSI ready interrupt
 683:../../source/src/FWlib/src/stm32f10x_rcc.c ****   *     @arg RCC_IT_HSERDY: HSE ready interrupt
 684:../../source/src/FWlib/src/stm32f10x_rcc.c ****   *     @arg RCC_IT_PLLRDY: PLL ready interrupt
 685:../../source/src/FWlib/src/stm32f10x_rcc.c ****   *     @arg RCC_IT_PLL2RDY: PLL2 ready interrupt
 686:../../source/src/FWlib/src/stm32f10x_rcc.c ****   *     @arg RCC_IT_PLL3RDY: PLL3 ready interrupt
 687:../../source/src/FWlib/src/stm32f10x_rcc.c ****   * 
 688:../../source/src/FWlib/src/stm32f10x_rcc.c ****   *   For @b other_STM32_devices, this parameter can be any combination of the 
 689:../../source/src/FWlib/src/stm32f10x_rcc.c ****   *   following values        
 690:../../source/src/FWlib/src/stm32f10x_rcc.c ****   *     @arg RCC_IT_LSIRDY: LSI ready interrupt
 691:../../source/src/FWlib/src/stm32f10x_rcc.c ****   *     @arg RCC_IT_LSERDY: LSE ready interrupt
 692:../../source/src/FWlib/src/stm32f10x_rcc.c ****   *     @arg RCC_IT_HSIRDY: HSI ready interrupt
 693:../../source/src/FWlib/src/stm32f10x_rcc.c ****   *     @arg RCC_IT_HSERDY: HSE ready interrupt
 694:../../source/src/FWlib/src/stm32f10x_rcc.c ****   *     @arg RCC_IT_PLLRDY: PLL ready interrupt
 695:../../source/src/FWlib/src/stm32f10x_rcc.c ****   *       
 696:../../source/src/FWlib/src/stm32f10x_rcc.c ****   * @param  NewState: new state of the specified RCC interrupts.
 697:../../source/src/FWlib/src/stm32f10x_rcc.c ****   *   This parameter can be: ENABLE or DISABLE.
ARM GAS  G:\Users\Jaxb\AppData\Local\Temp\ccqGEEDk.s 			page 16


 698:../../source/src/FWlib/src/stm32f10x_rcc.c ****   * @retval None
 699:../../source/src/FWlib/src/stm32f10x_rcc.c ****   */
 700:../../source/src/FWlib/src/stm32f10x_rcc.c **** void RCC_ITConfig(uint8_t RCC_IT, FunctionalState NewState)
 701:../../source/src/FWlib/src/stm32f10x_rcc.c **** {
 702:../../source/src/FWlib/src/stm32f10x_rcc.c ****   /* Check the parameters */
 703:../../source/src/FWlib/src/stm32f10x_rcc.c ****   assert_param(IS_RCC_IT(RCC_IT));
 704:../../source/src/FWlib/src/stm32f10x_rcc.c ****   assert_param(IS_FUNCTIONAL_STATE(NewState));
 705:../../source/src/FWlib/src/stm32f10x_rcc.c ****   if (NewState != DISABLE)
 706:../../source/src/FWlib/src/stm32f10x_rcc.c ****   {
 707:../../source/src/FWlib/src/stm32f10x_rcc.c ****     /* Perform Byte access to RCC_CIR bits to enable the selected interrupts */
 708:../../source/src/FWlib/src/stm32f10x_rcc.c ****     *(__IO uint8_t *) CIR_BYTE2_ADDRESS |= RCC_IT;
 709:../../source/src/FWlib/src/stm32f10x_rcc.c ****   }
 710:../../source/src/FWlib/src/stm32f10x_rcc.c ****   else
 711:../../source/src/FWlib/src/stm32f10x_rcc.c ****   {
 712:../../source/src/FWlib/src/stm32f10x_rcc.c ****     /* Perform Byte access to RCC_CIR bits to disable the selected interrupts */
 713:../../source/src/FWlib/src/stm32f10x_rcc.c ****     *(__IO uint8_t *) CIR_BYTE2_ADDRESS &= (uint8_t)~RCC_IT;
 714:../../source/src/FWlib/src/stm32f10x_rcc.c ****   }
 715:../../source/src/FWlib/src/stm32f10x_rcc.c **** }
 716:../../source/src/FWlib/src/stm32f10x_rcc.c **** 
 717:../../source/src/FWlib/src/stm32f10x_rcc.c **** #ifndef STM32F10X_CL
 718:../../source/src/FWlib/src/stm32f10x_rcc.c **** /**
 719:../../source/src/FWlib/src/stm32f10x_rcc.c ****   * @brief  Configures the USB clock (USBCLK).
 720:../../source/src/FWlib/src/stm32f10x_rcc.c ****   * @param  RCC_USBCLKSource: specifies the USB clock source. This clock is 
 721:../../source/src/FWlib/src/stm32f10x_rcc.c ****   *   derived from the PLL output.
 722:../../source/src/FWlib/src/stm32f10x_rcc.c ****   *   This parameter can be one of the following values:
 723:../../source/src/FWlib/src/stm32f10x_rcc.c ****   *     @arg RCC_USBCLKSource_PLLCLK_1Div5: PLL clock divided by 1,5 selected as USB 
 724:../../source/src/FWlib/src/stm32f10x_rcc.c ****   *                                     clock source
 725:../../source/src/FWlib/src/stm32f10x_rcc.c ****   *     @arg RCC_USBCLKSource_PLLCLK_Div1: PLL clock selected as USB clock source
 726:../../source/src/FWlib/src/stm32f10x_rcc.c ****   * @retval None
 727:../../source/src/FWlib/src/stm32f10x_rcc.c ****   */
 728:../../source/src/FWlib/src/stm32f10x_rcc.c **** void RCC_USBCLKConfig(uint32_t RCC_USBCLKSource)
 729:../../source/src/FWlib/src/stm32f10x_rcc.c **** {
 730:../../source/src/FWlib/src/stm32f10x_rcc.c ****   /* Check the parameters */
 731:../../source/src/FWlib/src/stm32f10x_rcc.c ****   assert_param(IS_RCC_USBCLK_SOURCE(RCC_USBCLKSource));
 732:../../source/src/FWlib/src/stm32f10x_rcc.c **** 
 733:../../source/src/FWlib/src/stm32f10x_rcc.c ****   *(__IO uint32_t *) CFGR_USBPRE_BB = RCC_USBCLKSource;
 734:../../source/src/FWlib/src/stm32f10x_rcc.c **** }
 735:../../source/src/FWlib/src/stm32f10x_rcc.c **** #else
 736:../../source/src/FWlib/src/stm32f10x_rcc.c **** /**
 737:../../source/src/FWlib/src/stm32f10x_rcc.c ****   * @brief  Configures the USB OTG FS clock (OTGFSCLK).
 738:../../source/src/FWlib/src/stm32f10x_rcc.c ****   *   This function applies only to STM32 Connectivity line devices.
 739:../../source/src/FWlib/src/stm32f10x_rcc.c ****   * @param  RCC_OTGFSCLKSource: specifies the USB OTG FS clock source.
 740:../../source/src/FWlib/src/stm32f10x_rcc.c ****   *   This clock is derived from the PLL output.
 741:../../source/src/FWlib/src/stm32f10x_rcc.c ****   *   This parameter can be one of the following values:
 742:../../source/src/FWlib/src/stm32f10x_rcc.c ****   *     @arg  RCC_OTGFSCLKSource_PLLVCO_Div3: PLL VCO clock divided by 2 selected as USB OTG FS clo
 743:../../source/src/FWlib/src/stm32f10x_rcc.c ****   *     @arg  RCC_OTGFSCLKSource_PLLVCO_Div2: PLL VCO clock divided by 2 selected as USB OTG FS clo
 744:../../source/src/FWlib/src/stm32f10x_rcc.c ****   * @retval None
 745:../../source/src/FWlib/src/stm32f10x_rcc.c ****   */
 746:../../source/src/FWlib/src/stm32f10x_rcc.c **** void RCC_OTGFSCLKConfig(uint32_t RCC_OTGFSCLKSource)
 747:../../source/src/FWlib/src/stm32f10x_rcc.c **** {
 748:../../source/src/FWlib/src/stm32f10x_rcc.c ****   /* Check the parameters */
 749:../../source/src/FWlib/src/stm32f10x_rcc.c ****   assert_param(IS_RCC_OTGFSCLK_SOURCE(RCC_OTGFSCLKSource));
 750:../../source/src/FWlib/src/stm32f10x_rcc.c **** 
 751:../../source/src/FWlib/src/stm32f10x_rcc.c ****   *(__IO uint32_t *) CFGR_OTGFSPRE_BB = RCC_OTGFSCLKSource;
 752:../../source/src/FWlib/src/stm32f10x_rcc.c **** }
 753:../../source/src/FWlib/src/stm32f10x_rcc.c **** #endif /* STM32F10X_CL */ 
 754:../../source/src/FWlib/src/stm32f10x_rcc.c **** 
ARM GAS  G:\Users\Jaxb\AppData\Local\Temp\ccqGEEDk.s 			page 17


 755:../../source/src/FWlib/src/stm32f10x_rcc.c **** /**
 756:../../source/src/FWlib/src/stm32f10x_rcc.c ****   * @brief  Configures the ADC clock (ADCCLK).
 757:../../source/src/FWlib/src/stm32f10x_rcc.c ****   * @param  RCC_PCLK2: defines the ADC clock divider. This clock is derived from 
 758:../../source/src/FWlib/src/stm32f10x_rcc.c ****   *   the APB2 clock (PCLK2).
 759:../../source/src/FWlib/src/stm32f10x_rcc.c ****   *   This parameter can be one of the following values:
 760:../../source/src/FWlib/src/stm32f10x_rcc.c ****   *     @arg RCC_PCLK2_Div2: ADC clock = PCLK2/2
 761:../../source/src/FWlib/src/stm32f10x_rcc.c ****   *     @arg RCC_PCLK2_Div4: ADC clock = PCLK2/4
 762:../../source/src/FWlib/src/stm32f10x_rcc.c ****   *     @arg RCC_PCLK2_Div6: ADC clock = PCLK2/6
 763:../../source/src/FWlib/src/stm32f10x_rcc.c ****   *     @arg RCC_PCLK2_Div8: ADC clock = PCLK2/8
 764:../../source/src/FWlib/src/stm32f10x_rcc.c ****   * @retval None
 765:../../source/src/FWlib/src/stm32f10x_rcc.c ****   */
 766:../../source/src/FWlib/src/stm32f10x_rcc.c **** void RCC_ADCCLKConfig(uint32_t RCC_PCLK2)
 767:../../source/src/FWlib/src/stm32f10x_rcc.c **** {
 768:../../source/src/FWlib/src/stm32f10x_rcc.c ****   uint32_t tmpreg = 0;
 769:../../source/src/FWlib/src/stm32f10x_rcc.c ****   /* Check the parameters */
 770:../../source/src/FWlib/src/stm32f10x_rcc.c ****   assert_param(IS_RCC_ADCCLK(RCC_PCLK2));
 771:../../source/src/FWlib/src/stm32f10x_rcc.c ****   tmpreg = RCC->CFGR;
 772:../../source/src/FWlib/src/stm32f10x_rcc.c ****   /* Clear ADCPRE[1:0] bits */
 773:../../source/src/FWlib/src/stm32f10x_rcc.c ****   tmpreg &= CFGR_ADCPRE_Reset_Mask;
 774:../../source/src/FWlib/src/stm32f10x_rcc.c ****   /* Set ADCPRE[1:0] bits according to RCC_PCLK2 value */
 775:../../source/src/FWlib/src/stm32f10x_rcc.c ****   tmpreg |= RCC_PCLK2;
 776:../../source/src/FWlib/src/stm32f10x_rcc.c ****   /* Store the new value */
 777:../../source/src/FWlib/src/stm32f10x_rcc.c ****   RCC->CFGR = tmpreg;
 778:../../source/src/FWlib/src/stm32f10x_rcc.c **** }
 779:../../source/src/FWlib/src/stm32f10x_rcc.c **** 
 780:../../source/src/FWlib/src/stm32f10x_rcc.c **** #ifdef STM32F10X_CL
 781:../../source/src/FWlib/src/stm32f10x_rcc.c **** /**
 782:../../source/src/FWlib/src/stm32f10x_rcc.c ****   * @brief  Configures the I2S2 clock source(I2S2CLK).
 783:../../source/src/FWlib/src/stm32f10x_rcc.c ****   * @note
 784:../../source/src/FWlib/src/stm32f10x_rcc.c ****   *   - This function must be called before enabling I2S2 APB clock.
 785:../../source/src/FWlib/src/stm32f10x_rcc.c ****   *   - This function applies only to STM32 Connectivity line devices.
 786:../../source/src/FWlib/src/stm32f10x_rcc.c ****   * @param  RCC_I2S2CLKSource: specifies the I2S2 clock source.
 787:../../source/src/FWlib/src/stm32f10x_rcc.c ****   *   This parameter can be one of the following values:
 788:../../source/src/FWlib/src/stm32f10x_rcc.c ****   *     @arg RCC_I2S2CLKSource_SYSCLK: system clock selected as I2S2 clock entry
 789:../../source/src/FWlib/src/stm32f10x_rcc.c ****   *     @arg RCC_I2S2CLKSource_PLL3_VCO: PLL3 VCO clock selected as I2S2 clock entry
 790:../../source/src/FWlib/src/stm32f10x_rcc.c ****   * @retval None
 791:../../source/src/FWlib/src/stm32f10x_rcc.c ****   */
 792:../../source/src/FWlib/src/stm32f10x_rcc.c **** void RCC_I2S2CLKConfig(uint32_t RCC_I2S2CLKSource)
 793:../../source/src/FWlib/src/stm32f10x_rcc.c **** {
 794:../../source/src/FWlib/src/stm32f10x_rcc.c ****   /* Check the parameters */
 795:../../source/src/FWlib/src/stm32f10x_rcc.c ****   assert_param(IS_RCC_I2S2CLK_SOURCE(RCC_I2S2CLKSource));
 796:../../source/src/FWlib/src/stm32f10x_rcc.c **** 
 797:../../source/src/FWlib/src/stm32f10x_rcc.c ****   *(__IO uint32_t *) CFGR2_I2S2SRC_BB = RCC_I2S2CLKSource;
 798:../../source/src/FWlib/src/stm32f10x_rcc.c **** }
 799:../../source/src/FWlib/src/stm32f10x_rcc.c **** 
 800:../../source/src/FWlib/src/stm32f10x_rcc.c **** /**
 801:../../source/src/FWlib/src/stm32f10x_rcc.c ****   * @brief  Configures the I2S3 clock source(I2S2CLK).
 802:../../source/src/FWlib/src/stm32f10x_rcc.c ****   * @note
 803:../../source/src/FWlib/src/stm32f10x_rcc.c ****   *   - This function must be called before enabling I2S3 APB clock.
 804:../../source/src/FWlib/src/stm32f10x_rcc.c ****   *   - This function applies only to STM32 Connectivity line devices.
 805:../../source/src/FWlib/src/stm32f10x_rcc.c ****   * @param  RCC_I2S3CLKSource: specifies the I2S3 clock source.
 806:../../source/src/FWlib/src/stm32f10x_rcc.c ****   *   This parameter can be one of the following values:
 807:../../source/src/FWlib/src/stm32f10x_rcc.c ****   *     @arg RCC_I2S3CLKSource_SYSCLK: system clock selected as I2S3 clock entry
 808:../../source/src/FWlib/src/stm32f10x_rcc.c ****   *     @arg RCC_I2S3CLKSource_PLL3_VCO: PLL3 VCO clock selected as I2S3 clock entry
 809:../../source/src/FWlib/src/stm32f10x_rcc.c ****   * @retval None
 810:../../source/src/FWlib/src/stm32f10x_rcc.c ****   */
 811:../../source/src/FWlib/src/stm32f10x_rcc.c **** void RCC_I2S3CLKConfig(uint32_t RCC_I2S3CLKSource)
ARM GAS  G:\Users\Jaxb\AppData\Local\Temp\ccqGEEDk.s 			page 18


 812:../../source/src/FWlib/src/stm32f10x_rcc.c **** {
 813:../../source/src/FWlib/src/stm32f10x_rcc.c ****   /* Check the parameters */
 814:../../source/src/FWlib/src/stm32f10x_rcc.c ****   assert_param(IS_RCC_I2S3CLK_SOURCE(RCC_I2S3CLKSource));
 815:../../source/src/FWlib/src/stm32f10x_rcc.c **** 
 816:../../source/src/FWlib/src/stm32f10x_rcc.c ****   *(__IO uint32_t *) CFGR2_I2S3SRC_BB = RCC_I2S3CLKSource;
 817:../../source/src/FWlib/src/stm32f10x_rcc.c **** }
 818:../../source/src/FWlib/src/stm32f10x_rcc.c **** #endif /* STM32F10X_CL */
 819:../../source/src/FWlib/src/stm32f10x_rcc.c **** 
 820:../../source/src/FWlib/src/stm32f10x_rcc.c **** /**
 821:../../source/src/FWlib/src/stm32f10x_rcc.c ****   * @brief  Configures the External Low Speed oscillator (LSE).
 822:../../source/src/FWlib/src/stm32f10x_rcc.c ****   * @param  RCC_LSE: specifies the new state of the LSE.
 823:../../source/src/FWlib/src/stm32f10x_rcc.c ****   *   This parameter can be one of the following values:
 824:../../source/src/FWlib/src/stm32f10x_rcc.c ****   *     @arg RCC_LSE_OFF: LSE oscillator OFF
 825:../../source/src/FWlib/src/stm32f10x_rcc.c ****   *     @arg RCC_LSE_ON: LSE oscillator ON
 826:../../source/src/FWlib/src/stm32f10x_rcc.c ****   *     @arg RCC_LSE_Bypass: LSE oscillator bypassed with external clock
 827:../../source/src/FWlib/src/stm32f10x_rcc.c ****   * @retval None
 828:../../source/src/FWlib/src/stm32f10x_rcc.c ****   */
 829:../../source/src/FWlib/src/stm32f10x_rcc.c **** void RCC_LSEConfig(uint8_t RCC_LSE)
 830:../../source/src/FWlib/src/stm32f10x_rcc.c **** {
 831:../../source/src/FWlib/src/stm32f10x_rcc.c ****   /* Check the parameters */
 832:../../source/src/FWlib/src/stm32f10x_rcc.c ****   assert_param(IS_RCC_LSE(RCC_LSE));
 833:../../source/src/FWlib/src/stm32f10x_rcc.c ****   /* Reset LSEON and LSEBYP bits before configuring the LSE ------------------*/
 834:../../source/src/FWlib/src/stm32f10x_rcc.c ****   /* Reset LSEON bit */
 835:../../source/src/FWlib/src/stm32f10x_rcc.c ****   *(__IO uint8_t *) BDCR_ADDRESS = RCC_LSE_OFF;
 836:../../source/src/FWlib/src/stm32f10x_rcc.c ****   /* Reset LSEBYP bit */
 837:../../source/src/FWlib/src/stm32f10x_rcc.c ****   *(__IO uint8_t *) BDCR_ADDRESS = RCC_LSE_OFF;
 838:../../source/src/FWlib/src/stm32f10x_rcc.c ****   /* Configure LSE (RCC_LSE_OFF is already covered by the code section above) */
 839:../../source/src/FWlib/src/stm32f10x_rcc.c ****   switch(RCC_LSE)
 840:../../source/src/FWlib/src/stm32f10x_rcc.c ****   {
 841:../../source/src/FWlib/src/stm32f10x_rcc.c ****     case RCC_LSE_ON:
 842:../../source/src/FWlib/src/stm32f10x_rcc.c ****       /* Set LSEON bit */
 843:../../source/src/FWlib/src/stm32f10x_rcc.c ****       *(__IO uint8_t *) BDCR_ADDRESS = RCC_LSE_ON;
 844:../../source/src/FWlib/src/stm32f10x_rcc.c ****       break;
 845:../../source/src/FWlib/src/stm32f10x_rcc.c ****       
 846:../../source/src/FWlib/src/stm32f10x_rcc.c ****     case RCC_LSE_Bypass:
 847:../../source/src/FWlib/src/stm32f10x_rcc.c ****       /* Set LSEBYP and LSEON bits */
 848:../../source/src/FWlib/src/stm32f10x_rcc.c ****       *(__IO uint8_t *) BDCR_ADDRESS = RCC_LSE_Bypass | RCC_LSE_ON;
 849:../../source/src/FWlib/src/stm32f10x_rcc.c ****       break;            
 850:../../source/src/FWlib/src/stm32f10x_rcc.c ****       
 851:../../source/src/FWlib/src/stm32f10x_rcc.c ****     default:
 852:../../source/src/FWlib/src/stm32f10x_rcc.c ****       break;      
 853:../../source/src/FWlib/src/stm32f10x_rcc.c ****   }
 854:../../source/src/FWlib/src/stm32f10x_rcc.c **** }
 855:../../source/src/FWlib/src/stm32f10x_rcc.c **** 
 856:../../source/src/FWlib/src/stm32f10x_rcc.c **** /**
 857:../../source/src/FWlib/src/stm32f10x_rcc.c ****   * @brief  Enables or disables the Internal Low Speed oscillator (LSI).
 858:../../source/src/FWlib/src/stm32f10x_rcc.c ****   * @note   LSI can not be disabled if the IWDG is running.
 859:../../source/src/FWlib/src/stm32f10x_rcc.c ****   * @param  NewState: new state of the LSI. This parameter can be: ENABLE or DISABLE.
 860:../../source/src/FWlib/src/stm32f10x_rcc.c ****   * @retval None
 861:../../source/src/FWlib/src/stm32f10x_rcc.c ****   */
 862:../../source/src/FWlib/src/stm32f10x_rcc.c **** void RCC_LSICmd(FunctionalState NewState)
 863:../../source/src/FWlib/src/stm32f10x_rcc.c **** {
 864:../../source/src/FWlib/src/stm32f10x_rcc.c ****   /* Check the parameters */
 865:../../source/src/FWlib/src/stm32f10x_rcc.c ****   assert_param(IS_FUNCTIONAL_STATE(NewState));
 866:../../source/src/FWlib/src/stm32f10x_rcc.c ****   *(__IO uint32_t *) CSR_LSION_BB = (uint32_t)NewState;
 867:../../source/src/FWlib/src/stm32f10x_rcc.c **** }
 868:../../source/src/FWlib/src/stm32f10x_rcc.c **** 
ARM GAS  G:\Users\Jaxb\AppData\Local\Temp\ccqGEEDk.s 			page 19


 869:../../source/src/FWlib/src/stm32f10x_rcc.c **** /**
 870:../../source/src/FWlib/src/stm32f10x_rcc.c ****   * @brief  Configures the RTC clock (RTCCLK).
 871:../../source/src/FWlib/src/stm32f10x_rcc.c ****   * @note   Once the RTC clock is selected it can't be changed unless the Backup domain is reset.
 872:../../source/src/FWlib/src/stm32f10x_rcc.c ****   * @param  RCC_RTCCLKSource: specifies the RTC clock source.
 873:../../source/src/FWlib/src/stm32f10x_rcc.c ****   *   This parameter can be one of the following values:
 874:../../source/src/FWlib/src/stm32f10x_rcc.c ****   *     @arg RCC_RTCCLKSource_LSE: LSE selected as RTC clock
 875:../../source/src/FWlib/src/stm32f10x_rcc.c ****   *     @arg RCC_RTCCLKSource_LSI: LSI selected as RTC clock
 876:../../source/src/FWlib/src/stm32f10x_rcc.c ****   *     @arg RCC_RTCCLKSource_HSE_Div128: HSE clock divided by 128 selected as RTC clock
 877:../../source/src/FWlib/src/stm32f10x_rcc.c ****   * @retval None
 878:../../source/src/FWlib/src/stm32f10x_rcc.c ****   */
 879:../../source/src/FWlib/src/stm32f10x_rcc.c **** void RCC_RTCCLKConfig(uint32_t RCC_RTCCLKSource)
 880:../../source/src/FWlib/src/stm32f10x_rcc.c **** {
 881:../../source/src/FWlib/src/stm32f10x_rcc.c ****   /* Check the parameters */
 882:../../source/src/FWlib/src/stm32f10x_rcc.c ****   assert_param(IS_RCC_RTCCLK_SOURCE(RCC_RTCCLKSource));
 883:../../source/src/FWlib/src/stm32f10x_rcc.c ****   /* Select the RTC clock source */
 884:../../source/src/FWlib/src/stm32f10x_rcc.c ****   RCC->BDCR |= RCC_RTCCLKSource;
 885:../../source/src/FWlib/src/stm32f10x_rcc.c **** }
 886:../../source/src/FWlib/src/stm32f10x_rcc.c **** 
 887:../../source/src/FWlib/src/stm32f10x_rcc.c **** /**
 888:../../source/src/FWlib/src/stm32f10x_rcc.c ****   * @brief  Enables or disables the RTC clock.
 889:../../source/src/FWlib/src/stm32f10x_rcc.c ****   * @note   This function must be used only after the RTC clock was selected using the RCC_RTCCLKCo
 890:../../source/src/FWlib/src/stm32f10x_rcc.c ****   * @param  NewState: new state of the RTC clock. This parameter can be: ENABLE or DISABLE.
 891:../../source/src/FWlib/src/stm32f10x_rcc.c ****   * @retval None
 892:../../source/src/FWlib/src/stm32f10x_rcc.c ****   */
 893:../../source/src/FWlib/src/stm32f10x_rcc.c **** void RCC_RTCCLKCmd(FunctionalState NewState)
 894:../../source/src/FWlib/src/stm32f10x_rcc.c **** {
 895:../../source/src/FWlib/src/stm32f10x_rcc.c ****   /* Check the parameters */
 896:../../source/src/FWlib/src/stm32f10x_rcc.c ****   assert_param(IS_FUNCTIONAL_STATE(NewState));
 897:../../source/src/FWlib/src/stm32f10x_rcc.c ****   *(__IO uint32_t *) BDCR_RTCEN_BB = (uint32_t)NewState;
 898:../../source/src/FWlib/src/stm32f10x_rcc.c **** }
 899:../../source/src/FWlib/src/stm32f10x_rcc.c **** 
 900:../../source/src/FWlib/src/stm32f10x_rcc.c **** /**
 901:../../source/src/FWlib/src/stm32f10x_rcc.c ****   * @brief  Returns the frequencies of different on chip clocks.
 902:../../source/src/FWlib/src/stm32f10x_rcc.c ****   * @param  RCC_Clocks: pointer to a RCC_ClocksTypeDef structure which will hold
 903:../../source/src/FWlib/src/stm32f10x_rcc.c ****   *         the clocks frequencies.
 904:../../source/src/FWlib/src/stm32f10x_rcc.c ****   * @note   The result of this function could be not correct when using 
 905:../../source/src/FWlib/src/stm32f10x_rcc.c ****   *         fractional value for HSE crystal.  
 906:../../source/src/FWlib/src/stm32f10x_rcc.c ****   * @retval None
 907:../../source/src/FWlib/src/stm32f10x_rcc.c ****   */
 908:../../source/src/FWlib/src/stm32f10x_rcc.c **** void RCC_GetClocksFreq(RCC_ClocksTypeDef* RCC_Clocks)
 909:../../source/src/FWlib/src/stm32f10x_rcc.c **** {
 910:../../source/src/FWlib/src/stm32f10x_rcc.c ****   uint32_t tmp = 0, pllmull = 0, pllsource = 0, presc = 0;
 911:../../source/src/FWlib/src/stm32f10x_rcc.c **** 
 912:../../source/src/FWlib/src/stm32f10x_rcc.c **** #ifdef  STM32F10X_CL
 913:../../source/src/FWlib/src/stm32f10x_rcc.c ****   uint32_t prediv1source = 0, prediv1factor = 0, prediv2factor = 0, pll2mull = 0;
 914:../../source/src/FWlib/src/stm32f10x_rcc.c **** #endif /* STM32F10X_CL */
 915:../../source/src/FWlib/src/stm32f10x_rcc.c **** 
 916:../../source/src/FWlib/src/stm32f10x_rcc.c **** #if defined (STM32F10X_LD_VL) || defined (STM32F10X_MD_VL) || defined (STM32F10X_HD_VL)
 917:../../source/src/FWlib/src/stm32f10x_rcc.c ****   uint32_t prediv1factor = 0;
 918:../../source/src/FWlib/src/stm32f10x_rcc.c **** #endif
 919:../../source/src/FWlib/src/stm32f10x_rcc.c ****     
 920:../../source/src/FWlib/src/stm32f10x_rcc.c ****   /* Get SYSCLK source -------------------------------------------------------*/
 921:../../source/src/FWlib/src/stm32f10x_rcc.c ****   tmp = RCC->CFGR & CFGR_SWS_Mask;
 922:../../source/src/FWlib/src/stm32f10x_rcc.c ****   
 923:../../source/src/FWlib/src/stm32f10x_rcc.c ****   switch (tmp)
 924:../../source/src/FWlib/src/stm32f10x_rcc.c ****   {
 925:../../source/src/FWlib/src/stm32f10x_rcc.c ****     case 0x00:  /* HSI used as system clock */
ARM GAS  G:\Users\Jaxb\AppData\Local\Temp\ccqGEEDk.s 			page 20


 926:../../source/src/FWlib/src/stm32f10x_rcc.c ****       RCC_Clocks->SYSCLK_Frequency = HSI_VALUE;
 927:../../source/src/FWlib/src/stm32f10x_rcc.c ****       break;
 928:../../source/src/FWlib/src/stm32f10x_rcc.c ****     case 0x04:  /* HSE used as system clock */
 929:../../source/src/FWlib/src/stm32f10x_rcc.c ****       RCC_Clocks->SYSCLK_Frequency = HSE_VALUE;
 930:../../source/src/FWlib/src/stm32f10x_rcc.c ****       break;
 931:../../source/src/FWlib/src/stm32f10x_rcc.c ****     case 0x08:  /* PLL used as system clock */
 932:../../source/src/FWlib/src/stm32f10x_rcc.c **** 
 933:../../source/src/FWlib/src/stm32f10x_rcc.c ****       /* Get PLL clock source and multiplication factor ----------------------*/
 934:../../source/src/FWlib/src/stm32f10x_rcc.c ****       pllmull = RCC->CFGR & CFGR_PLLMull_Mask;
 935:../../source/src/FWlib/src/stm32f10x_rcc.c ****       pllsource = RCC->CFGR & CFGR_PLLSRC_Mask;
 936:../../source/src/FWlib/src/stm32f10x_rcc.c ****       
 937:../../source/src/FWlib/src/stm32f10x_rcc.c **** #ifndef STM32F10X_CL      
 938:../../source/src/FWlib/src/stm32f10x_rcc.c ****       pllmull = ( pllmull >> 18) + 2;
 939:../../source/src/FWlib/src/stm32f10x_rcc.c ****       
 940:../../source/src/FWlib/src/stm32f10x_rcc.c ****       if (pllsource == 0x00)
 941:../../source/src/FWlib/src/stm32f10x_rcc.c ****       {/* HSI oscillator clock divided by 2 selected as PLL clock entry */
 942:../../source/src/FWlib/src/stm32f10x_rcc.c ****         RCC_Clocks->SYSCLK_Frequency = (HSI_VALUE >> 1) * pllmull;
 943:../../source/src/FWlib/src/stm32f10x_rcc.c ****       }
 944:../../source/src/FWlib/src/stm32f10x_rcc.c ****       else
 945:../../source/src/FWlib/src/stm32f10x_rcc.c ****       {
 946:../../source/src/FWlib/src/stm32f10x_rcc.c ****  #if defined (STM32F10X_LD_VL) || defined (STM32F10X_MD_VL) || defined (STM32F10X_HD_VL)
 947:../../source/src/FWlib/src/stm32f10x_rcc.c ****        prediv1factor = (RCC->CFGR2 & CFGR2_PREDIV1) + 1;
 948:../../source/src/FWlib/src/stm32f10x_rcc.c ****        /* HSE oscillator clock selected as PREDIV1 clock entry */
 949:../../source/src/FWlib/src/stm32f10x_rcc.c ****        RCC_Clocks->SYSCLK_Frequency = (HSE_VALUE / prediv1factor) * pllmull; 
 950:../../source/src/FWlib/src/stm32f10x_rcc.c ****  #else
 951:../../source/src/FWlib/src/stm32f10x_rcc.c ****         /* HSE selected as PLL clock entry */
 952:../../source/src/FWlib/src/stm32f10x_rcc.c ****         if ((RCC->CFGR & CFGR_PLLXTPRE_Mask) != (uint32_t)RESET)
 953:../../source/src/FWlib/src/stm32f10x_rcc.c ****         {/* HSE oscillator clock divided by 2 */
 954:../../source/src/FWlib/src/stm32f10x_rcc.c ****           RCC_Clocks->SYSCLK_Frequency = (HSE_VALUE >> 1) * pllmull;
 955:../../source/src/FWlib/src/stm32f10x_rcc.c ****         }
 956:../../source/src/FWlib/src/stm32f10x_rcc.c ****         else
 957:../../source/src/FWlib/src/stm32f10x_rcc.c ****         {
 958:../../source/src/FWlib/src/stm32f10x_rcc.c ****           RCC_Clocks->SYSCLK_Frequency = HSE_VALUE * pllmull;
 959:../../source/src/FWlib/src/stm32f10x_rcc.c ****         }
 960:../../source/src/FWlib/src/stm32f10x_rcc.c ****  #endif
 961:../../source/src/FWlib/src/stm32f10x_rcc.c ****       }
 962:../../source/src/FWlib/src/stm32f10x_rcc.c **** #else
 963:../../source/src/FWlib/src/stm32f10x_rcc.c ****       pllmull = pllmull >> 18;
 964:../../source/src/FWlib/src/stm32f10x_rcc.c ****       
 965:../../source/src/FWlib/src/stm32f10x_rcc.c ****       if (pllmull != 0x0D)
 966:../../source/src/FWlib/src/stm32f10x_rcc.c ****       {
 967:../../source/src/FWlib/src/stm32f10x_rcc.c ****          pllmull += 2;
 968:../../source/src/FWlib/src/stm32f10x_rcc.c ****       }
 969:../../source/src/FWlib/src/stm32f10x_rcc.c ****       else
 970:../../source/src/FWlib/src/stm32f10x_rcc.c ****       { /* PLL multiplication factor = PLL input clock * 6.5 */
 971:../../source/src/FWlib/src/stm32f10x_rcc.c ****         pllmull = 13 / 2; 
 972:../../source/src/FWlib/src/stm32f10x_rcc.c ****       }
 973:../../source/src/FWlib/src/stm32f10x_rcc.c ****             
 974:../../source/src/FWlib/src/stm32f10x_rcc.c ****       if (pllsource == 0x00)
 975:../../source/src/FWlib/src/stm32f10x_rcc.c ****       {/* HSI oscillator clock divided by 2 selected as PLL clock entry */
 976:../../source/src/FWlib/src/stm32f10x_rcc.c ****         RCC_Clocks->SYSCLK_Frequency = (HSI_VALUE >> 1) * pllmull;
 977:../../source/src/FWlib/src/stm32f10x_rcc.c ****       }
 978:../../source/src/FWlib/src/stm32f10x_rcc.c ****       else
 979:../../source/src/FWlib/src/stm32f10x_rcc.c ****       {/* PREDIV1 selected as PLL clock entry */
 980:../../source/src/FWlib/src/stm32f10x_rcc.c ****         
 981:../../source/src/FWlib/src/stm32f10x_rcc.c ****         /* Get PREDIV1 clock source and division factor */
 982:../../source/src/FWlib/src/stm32f10x_rcc.c ****         prediv1source = RCC->CFGR2 & CFGR2_PREDIV1SRC;
ARM GAS  G:\Users\Jaxb\AppData\Local\Temp\ccqGEEDk.s 			page 21


 983:../../source/src/FWlib/src/stm32f10x_rcc.c ****         prediv1factor = (RCC->CFGR2 & CFGR2_PREDIV1) + 1;
 984:../../source/src/FWlib/src/stm32f10x_rcc.c ****         
 985:../../source/src/FWlib/src/stm32f10x_rcc.c ****         if (prediv1source == 0)
 986:../../source/src/FWlib/src/stm32f10x_rcc.c ****         { /* HSE oscillator clock selected as PREDIV1 clock entry */
 987:../../source/src/FWlib/src/stm32f10x_rcc.c ****           RCC_Clocks->SYSCLK_Frequency = (HSE_VALUE / prediv1factor) * pllmull;          
 988:../../source/src/FWlib/src/stm32f10x_rcc.c ****         }
 989:../../source/src/FWlib/src/stm32f10x_rcc.c ****         else
 990:../../source/src/FWlib/src/stm32f10x_rcc.c ****         {/* PLL2 clock selected as PREDIV1 clock entry */
 991:../../source/src/FWlib/src/stm32f10x_rcc.c ****           
 992:../../source/src/FWlib/src/stm32f10x_rcc.c ****           /* Get PREDIV2 division factor and PLL2 multiplication factor */
 993:../../source/src/FWlib/src/stm32f10x_rcc.c ****           prediv2factor = ((RCC->CFGR2 & CFGR2_PREDIV2) >> 4) + 1;
 994:../../source/src/FWlib/src/stm32f10x_rcc.c ****           pll2mull = ((RCC->CFGR2 & CFGR2_PLL2MUL) >> 8 ) + 2; 
 995:../../source/src/FWlib/src/stm32f10x_rcc.c ****           RCC_Clocks->SYSCLK_Frequency = (((HSE_VALUE / prediv2factor) * pll2mull) / prediv1factor)
 996:../../source/src/FWlib/src/stm32f10x_rcc.c ****         }
 997:../../source/src/FWlib/src/stm32f10x_rcc.c ****       }
 998:../../source/src/FWlib/src/stm32f10x_rcc.c **** #endif /* STM32F10X_CL */ 
 999:../../source/src/FWlib/src/stm32f10x_rcc.c ****       break;
1000:../../source/src/FWlib/src/stm32f10x_rcc.c **** 
1001:../../source/src/FWlib/src/stm32f10x_rcc.c ****     default:
1002:../../source/src/FWlib/src/stm32f10x_rcc.c ****       RCC_Clocks->SYSCLK_Frequency = HSI_VALUE;
1003:../../source/src/FWlib/src/stm32f10x_rcc.c ****       break;
1004:../../source/src/FWlib/src/stm32f10x_rcc.c ****   }
1005:../../source/src/FWlib/src/stm32f10x_rcc.c **** 
1006:../../source/src/FWlib/src/stm32f10x_rcc.c ****   /* Compute HCLK, PCLK1, PCLK2 and ADCCLK clocks frequencies ----------------*/
1007:../../source/src/FWlib/src/stm32f10x_rcc.c ****   /* Get HCLK prescaler */
1008:../../source/src/FWlib/src/stm32f10x_rcc.c ****   tmp = RCC->CFGR & CFGR_HPRE_Set_Mask;
1009:../../source/src/FWlib/src/stm32f10x_rcc.c ****   tmp = tmp >> 4;
1010:../../source/src/FWlib/src/stm32f10x_rcc.c ****   presc = APBAHBPrescTable[tmp];
1011:../../source/src/FWlib/src/stm32f10x_rcc.c ****   /* HCLK clock frequency */
1012:../../source/src/FWlib/src/stm32f10x_rcc.c ****   RCC_Clocks->HCLK_Frequency = RCC_Clocks->SYSCLK_Frequency >> presc;
1013:../../source/src/FWlib/src/stm32f10x_rcc.c ****   /* Get PCLK1 prescaler */
1014:../../source/src/FWlib/src/stm32f10x_rcc.c ****   tmp = RCC->CFGR & CFGR_PPRE1_Set_Mask;
1015:../../source/src/FWlib/src/stm32f10x_rcc.c ****   tmp = tmp >> 8;
1016:../../source/src/FWlib/src/stm32f10x_rcc.c ****   presc = APBAHBPrescTable[tmp];
1017:../../source/src/FWlib/src/stm32f10x_rcc.c ****   /* PCLK1 clock frequency */
1018:../../source/src/FWlib/src/stm32f10x_rcc.c ****   RCC_Clocks->PCLK1_Frequency = RCC_Clocks->HCLK_Frequency >> presc;
1019:../../source/src/FWlib/src/stm32f10x_rcc.c ****   /* Get PCLK2 prescaler */
1020:../../source/src/FWlib/src/stm32f10x_rcc.c ****   tmp = RCC->CFGR & CFGR_PPRE2_Set_Mask;
1021:../../source/src/FWlib/src/stm32f10x_rcc.c ****   tmp = tmp >> 11;
1022:../../source/src/FWlib/src/stm32f10x_rcc.c ****   presc = APBAHBPrescTable[tmp];
1023:../../source/src/FWlib/src/stm32f10x_rcc.c ****   /* PCLK2 clock frequency */
1024:../../source/src/FWlib/src/stm32f10x_rcc.c ****   RCC_Clocks->PCLK2_Frequency = RCC_Clocks->HCLK_Frequency >> presc;
1025:../../source/src/FWlib/src/stm32f10x_rcc.c ****   /* Get ADCCLK prescaler */
1026:../../source/src/FWlib/src/stm32f10x_rcc.c ****   tmp = RCC->CFGR & CFGR_ADCPRE_Set_Mask;
1027:../../source/src/FWlib/src/stm32f10x_rcc.c ****   tmp = tmp >> 14;
1028:../../source/src/FWlib/src/stm32f10x_rcc.c ****   presc = ADCPrescTable[tmp];
1029:../../source/src/FWlib/src/stm32f10x_rcc.c ****   /* ADCCLK clock frequency */
1030:../../source/src/FWlib/src/stm32f10x_rcc.c ****   RCC_Clocks->ADCCLK_Frequency = RCC_Clocks->PCLK2_Frequency / presc;
1031:../../source/src/FWlib/src/stm32f10x_rcc.c **** }
1032:../../source/src/FWlib/src/stm32f10x_rcc.c **** 
1033:../../source/src/FWlib/src/stm32f10x_rcc.c **** /**
1034:../../source/src/FWlib/src/stm32f10x_rcc.c ****   * @brief  Enables or disables the AHB peripheral clock.
1035:../../source/src/FWlib/src/stm32f10x_rcc.c ****   * @param  RCC_AHBPeriph: specifies the AHB peripheral to gates its clock.
1036:../../source/src/FWlib/src/stm32f10x_rcc.c ****   *   
1037:../../source/src/FWlib/src/stm32f10x_rcc.c ****   *   For @b STM32_Connectivity_line_devices, this parameter can be any combination
1038:../../source/src/FWlib/src/stm32f10x_rcc.c ****   *   of the following values:        
1039:../../source/src/FWlib/src/stm32f10x_rcc.c ****   *     @arg RCC_AHBPeriph_DMA1
ARM GAS  G:\Users\Jaxb\AppData\Local\Temp\ccqGEEDk.s 			page 22


1040:../../source/src/FWlib/src/stm32f10x_rcc.c ****   *     @arg RCC_AHBPeriph_DMA2
1041:../../source/src/FWlib/src/stm32f10x_rcc.c ****   *     @arg RCC_AHBPeriph_SRAM
1042:../../source/src/FWlib/src/stm32f10x_rcc.c ****   *     @arg RCC_AHBPeriph_FLITF
1043:../../source/src/FWlib/src/stm32f10x_rcc.c ****   *     @arg RCC_AHBPeriph_CRC
1044:../../source/src/FWlib/src/stm32f10x_rcc.c ****   *     @arg RCC_AHBPeriph_OTG_FS    
1045:../../source/src/FWlib/src/stm32f10x_rcc.c ****   *     @arg RCC_AHBPeriph_ETH_MAC   
1046:../../source/src/FWlib/src/stm32f10x_rcc.c ****   *     @arg RCC_AHBPeriph_ETH_MAC_Tx
1047:../../source/src/FWlib/src/stm32f10x_rcc.c ****   *     @arg RCC_AHBPeriph_ETH_MAC_Rx
1048:../../source/src/FWlib/src/stm32f10x_rcc.c ****   * 
1049:../../source/src/FWlib/src/stm32f10x_rcc.c ****   *   For @b other_STM32_devices, this parameter can be any combination of the 
1050:../../source/src/FWlib/src/stm32f10x_rcc.c ****   *   following values:        
1051:../../source/src/FWlib/src/stm32f10x_rcc.c ****   *     @arg RCC_AHBPeriph_DMA1
1052:../../source/src/FWlib/src/stm32f10x_rcc.c ****   *     @arg RCC_AHBPeriph_DMA2
1053:../../source/src/FWlib/src/stm32f10x_rcc.c ****   *     @arg RCC_AHBPeriph_SRAM
1054:../../source/src/FWlib/src/stm32f10x_rcc.c ****   *     @arg RCC_AHBPeriph_FLITF
1055:../../source/src/FWlib/src/stm32f10x_rcc.c ****   *     @arg RCC_AHBPeriph_CRC
1056:../../source/src/FWlib/src/stm32f10x_rcc.c ****   *     @arg RCC_AHBPeriph_FSMC
1057:../../source/src/FWlib/src/stm32f10x_rcc.c ****   *     @arg RCC_AHBPeriph_SDIO
1058:../../source/src/FWlib/src/stm32f10x_rcc.c ****   *   
1059:../../source/src/FWlib/src/stm32f10x_rcc.c ****   * @note SRAM and FLITF clock can be disabled only during sleep mode.
1060:../../source/src/FWlib/src/stm32f10x_rcc.c ****   * @param  NewState: new state of the specified peripheral clock.
1061:../../source/src/FWlib/src/stm32f10x_rcc.c ****   *   This parameter can be: ENABLE or DISABLE.
1062:../../source/src/FWlib/src/stm32f10x_rcc.c ****   * @retval None
1063:../../source/src/FWlib/src/stm32f10x_rcc.c ****   */
1064:../../source/src/FWlib/src/stm32f10x_rcc.c **** void RCC_AHBPeriphClockCmd(uint32_t RCC_AHBPeriph, FunctionalState NewState)
1065:../../source/src/FWlib/src/stm32f10x_rcc.c **** {
1066:../../source/src/FWlib/src/stm32f10x_rcc.c ****   /* Check the parameters */
1067:../../source/src/FWlib/src/stm32f10x_rcc.c ****   assert_param(IS_RCC_AHB_PERIPH(RCC_AHBPeriph));
1068:../../source/src/FWlib/src/stm32f10x_rcc.c ****   assert_param(IS_FUNCTIONAL_STATE(NewState));
1069:../../source/src/FWlib/src/stm32f10x_rcc.c **** 
1070:../../source/src/FWlib/src/stm32f10x_rcc.c ****   if (NewState != DISABLE)
1071:../../source/src/FWlib/src/stm32f10x_rcc.c ****   {
1072:../../source/src/FWlib/src/stm32f10x_rcc.c ****     RCC->AHBENR |= RCC_AHBPeriph;
1073:../../source/src/FWlib/src/stm32f10x_rcc.c ****   }
1074:../../source/src/FWlib/src/stm32f10x_rcc.c ****   else
1075:../../source/src/FWlib/src/stm32f10x_rcc.c ****   {
1076:../../source/src/FWlib/src/stm32f10x_rcc.c ****     RCC->AHBENR &= ~RCC_AHBPeriph;
1077:../../source/src/FWlib/src/stm32f10x_rcc.c ****   }
1078:../../source/src/FWlib/src/stm32f10x_rcc.c **** }
1079:../../source/src/FWlib/src/stm32f10x_rcc.c **** 
1080:../../source/src/FWlib/src/stm32f10x_rcc.c **** /**
1081:../../source/src/FWlib/src/stm32f10x_rcc.c ****   * @brief  Enables or disables the High Speed APB (APB2) peripheral clock.
1082:../../source/src/FWlib/src/stm32f10x_rcc.c ****   * @param  RCC_APB2Periph: specifies the APB2 peripheral to gates its clock.
1083:../../source/src/FWlib/src/stm32f10x_rcc.c ****   *   This parameter can be any combination of the following values:
1084:../../source/src/FWlib/src/stm32f10x_rcc.c ****   *     @arg RCC_APB2Periph_AFIO, RCC_APB2Periph_GPIOA, RCC_APB2Periph_GPIOB,
1085:../../source/src/FWlib/src/stm32f10x_rcc.c ****   *          RCC_APB2Periph_GPIOC, RCC_APB2Periph_GPIOD, RCC_APB2Periph_GPIOE,
1086:../../source/src/FWlib/src/stm32f10x_rcc.c ****   *          RCC_APB2Periph_GPIOF, RCC_APB2Periph_GPIOG, RCC_APB2Periph_ADC1,
1087:../../source/src/FWlib/src/stm32f10x_rcc.c ****   *          RCC_APB2Periph_ADC2, RCC_APB2Periph_TIM1, RCC_APB2Periph_SPI1,
1088:../../source/src/FWlib/src/stm32f10x_rcc.c ****   *          RCC_APB2Periph_TIM8, RCC_APB2Periph_USART1, RCC_APB2Periph_ADC3,
1089:../../source/src/FWlib/src/stm32f10x_rcc.c ****   *          RCC_APB2Periph_TIM15, RCC_APB2Periph_TIM16, RCC_APB2Periph_TIM17,
1090:../../source/src/FWlib/src/stm32f10x_rcc.c ****   *          RCC_APB2Periph_TIM9, RCC_APB2Periph_TIM10, RCC_APB2Periph_TIM11     
1091:../../source/src/FWlib/src/stm32f10x_rcc.c ****   * @param  NewState: new state of the specified peripheral clock.
1092:../../source/src/FWlib/src/stm32f10x_rcc.c ****   *   This parameter can be: ENABLE or DISABLE.
1093:../../source/src/FWlib/src/stm32f10x_rcc.c ****   * @retval None
1094:../../source/src/FWlib/src/stm32f10x_rcc.c ****   */
1095:../../source/src/FWlib/src/stm32f10x_rcc.c **** void RCC_APB2PeriphClockCmd(uint32_t RCC_APB2Periph, FunctionalState NewState)
1096:../../source/src/FWlib/src/stm32f10x_rcc.c **** {
ARM GAS  G:\Users\Jaxb\AppData\Local\Temp\ccqGEEDk.s 			page 23


1097:../../source/src/FWlib/src/stm32f10x_rcc.c ****   /* Check the parameters */
1098:../../source/src/FWlib/src/stm32f10x_rcc.c ****   assert_param(IS_RCC_APB2_PERIPH(RCC_APB2Periph));
1099:../../source/src/FWlib/src/stm32f10x_rcc.c ****   assert_param(IS_FUNCTIONAL_STATE(NewState));
1100:../../source/src/FWlib/src/stm32f10x_rcc.c ****   if (NewState != DISABLE)
1101:../../source/src/FWlib/src/stm32f10x_rcc.c ****   {
1102:../../source/src/FWlib/src/stm32f10x_rcc.c ****     RCC->APB2ENR |= RCC_APB2Periph;
1103:../../source/src/FWlib/src/stm32f10x_rcc.c ****   }
1104:../../source/src/FWlib/src/stm32f10x_rcc.c ****   else
1105:../../source/src/FWlib/src/stm32f10x_rcc.c ****   {
1106:../../source/src/FWlib/src/stm32f10x_rcc.c ****     RCC->APB2ENR &= ~RCC_APB2Periph;
1107:../../source/src/FWlib/src/stm32f10x_rcc.c ****   }
1108:../../source/src/FWlib/src/stm32f10x_rcc.c **** }
1109:../../source/src/FWlib/src/stm32f10x_rcc.c **** 
1110:../../source/src/FWlib/src/stm32f10x_rcc.c **** /**
1111:../../source/src/FWlib/src/stm32f10x_rcc.c ****   * @brief  Enables or disables the Low Speed APB (APB1) peripheral clock.
1112:../../source/src/FWlib/src/stm32f10x_rcc.c ****   * @param  RCC_APB1Periph: specifies the APB1 peripheral to gates its clock.
1113:../../source/src/FWlib/src/stm32f10x_rcc.c ****   *   This parameter can be any combination of the following values:
1114:../../source/src/FWlib/src/stm32f10x_rcc.c ****   *     @arg RCC_APB1Periph_TIM2, RCC_APB1Periph_TIM3, RCC_APB1Periph_TIM4,
1115:../../source/src/FWlib/src/stm32f10x_rcc.c ****   *          RCC_APB1Periph_TIM5, RCC_APB1Periph_TIM6, RCC_APB1Periph_TIM7,
1116:../../source/src/FWlib/src/stm32f10x_rcc.c ****   *          RCC_APB1Periph_WWDG, RCC_APB1Periph_SPI2, RCC_APB1Periph_SPI3,
1117:../../source/src/FWlib/src/stm32f10x_rcc.c ****   *          RCC_APB1Periph_USART2, RCC_APB1Periph_USART3, RCC_APB1Periph_USART4, 
1118:../../source/src/FWlib/src/stm32f10x_rcc.c ****   *          RCC_APB1Periph_USART5, RCC_APB1Periph_I2C1, RCC_APB1Periph_I2C2,
1119:../../source/src/FWlib/src/stm32f10x_rcc.c ****   *          RCC_APB1Periph_USB, RCC_APB1Periph_CAN1, RCC_APB1Periph_BKP,
1120:../../source/src/FWlib/src/stm32f10x_rcc.c ****   *          RCC_APB1Periph_PWR, RCC_APB1Periph_DAC, RCC_APB1Periph_CEC,
1121:../../source/src/FWlib/src/stm32f10x_rcc.c ****   *          RCC_APB1Periph_TIM12, RCC_APB1Periph_TIM13, RCC_APB1Periph_TIM14
1122:../../source/src/FWlib/src/stm32f10x_rcc.c ****   * @param  NewState: new state of the specified peripheral clock.
1123:../../source/src/FWlib/src/stm32f10x_rcc.c ****   *   This parameter can be: ENABLE or DISABLE.
1124:../../source/src/FWlib/src/stm32f10x_rcc.c ****   * @retval None
1125:../../source/src/FWlib/src/stm32f10x_rcc.c ****   */
1126:../../source/src/FWlib/src/stm32f10x_rcc.c **** void RCC_APB1PeriphClockCmd(uint32_t RCC_APB1Periph, FunctionalState NewState)
1127:../../source/src/FWlib/src/stm32f10x_rcc.c **** {
1128:../../source/src/FWlib/src/stm32f10x_rcc.c ****   /* Check the parameters */
1129:../../source/src/FWlib/src/stm32f10x_rcc.c ****   assert_param(IS_RCC_APB1_PERIPH(RCC_APB1Periph));
1130:../../source/src/FWlib/src/stm32f10x_rcc.c ****   assert_param(IS_FUNCTIONAL_STATE(NewState));
1131:../../source/src/FWlib/src/stm32f10x_rcc.c ****   if (NewState != DISABLE)
1132:../../source/src/FWlib/src/stm32f10x_rcc.c ****   {
1133:../../source/src/FWlib/src/stm32f10x_rcc.c ****     RCC->APB1ENR |= RCC_APB1Periph;
1134:../../source/src/FWlib/src/stm32f10x_rcc.c ****   }
1135:../../source/src/FWlib/src/stm32f10x_rcc.c ****   else
1136:../../source/src/FWlib/src/stm32f10x_rcc.c ****   {
1137:../../source/src/FWlib/src/stm32f10x_rcc.c ****     RCC->APB1ENR &= ~RCC_APB1Periph;
1138:../../source/src/FWlib/src/stm32f10x_rcc.c ****   }
1139:../../source/src/FWlib/src/stm32f10x_rcc.c **** }
1140:../../source/src/FWlib/src/stm32f10x_rcc.c **** 
1141:../../source/src/FWlib/src/stm32f10x_rcc.c **** #ifdef STM32F10X_CL
1142:../../source/src/FWlib/src/stm32f10x_rcc.c **** /**
1143:../../source/src/FWlib/src/stm32f10x_rcc.c ****   * @brief  Forces or releases AHB peripheral reset.
1144:../../source/src/FWlib/src/stm32f10x_rcc.c ****   * @note   This function applies only to STM32 Connectivity line devices.
1145:../../source/src/FWlib/src/stm32f10x_rcc.c ****   * @param  RCC_AHBPeriph: specifies the AHB peripheral to reset.
1146:../../source/src/FWlib/src/stm32f10x_rcc.c ****   *   This parameter can be any combination of the following values:
1147:../../source/src/FWlib/src/stm32f10x_rcc.c ****   *     @arg RCC_AHBPeriph_OTG_FS 
1148:../../source/src/FWlib/src/stm32f10x_rcc.c ****   *     @arg RCC_AHBPeriph_ETH_MAC
1149:../../source/src/FWlib/src/stm32f10x_rcc.c ****   * @param  NewState: new state of the specified peripheral reset.
1150:../../source/src/FWlib/src/stm32f10x_rcc.c ****   *   This parameter can be: ENABLE or DISABLE.
1151:../../source/src/FWlib/src/stm32f10x_rcc.c ****   * @retval None
1152:../../source/src/FWlib/src/stm32f10x_rcc.c ****   */
1153:../../source/src/FWlib/src/stm32f10x_rcc.c **** void RCC_AHBPeriphResetCmd(uint32_t RCC_AHBPeriph, FunctionalState NewState)
ARM GAS  G:\Users\Jaxb\AppData\Local\Temp\ccqGEEDk.s 			page 24


1154:../../source/src/FWlib/src/stm32f10x_rcc.c **** {
1155:../../source/src/FWlib/src/stm32f10x_rcc.c ****   /* Check the parameters */
1156:../../source/src/FWlib/src/stm32f10x_rcc.c ****   assert_param(IS_RCC_AHB_PERIPH_RESET(RCC_AHBPeriph));
1157:../../source/src/FWlib/src/stm32f10x_rcc.c ****   assert_param(IS_FUNCTIONAL_STATE(NewState));
1158:../../source/src/FWlib/src/stm32f10x_rcc.c **** 
1159:../../source/src/FWlib/src/stm32f10x_rcc.c ****   if (NewState != DISABLE)
1160:../../source/src/FWlib/src/stm32f10x_rcc.c ****   {
1161:../../source/src/FWlib/src/stm32f10x_rcc.c ****     RCC->AHBRSTR |= RCC_AHBPeriph;
1162:../../source/src/FWlib/src/stm32f10x_rcc.c ****   }
1163:../../source/src/FWlib/src/stm32f10x_rcc.c ****   else
1164:../../source/src/FWlib/src/stm32f10x_rcc.c ****   {
1165:../../source/src/FWlib/src/stm32f10x_rcc.c ****     RCC->AHBRSTR &= ~RCC_AHBPeriph;
1166:../../source/src/FWlib/src/stm32f10x_rcc.c ****   }
1167:../../source/src/FWlib/src/stm32f10x_rcc.c **** }
1168:../../source/src/FWlib/src/stm32f10x_rcc.c **** #endif /* STM32F10X_CL */ 
1169:../../source/src/FWlib/src/stm32f10x_rcc.c **** 
1170:../../source/src/FWlib/src/stm32f10x_rcc.c **** /**
1171:../../source/src/FWlib/src/stm32f10x_rcc.c ****   * @brief  Forces or releases High Speed APB (APB2) peripheral reset.
1172:../../source/src/FWlib/src/stm32f10x_rcc.c ****   * @param  RCC_APB2Periph: specifies the APB2 peripheral to reset.
1173:../../source/src/FWlib/src/stm32f10x_rcc.c ****   *   This parameter can be any combination of the following values:
1174:../../source/src/FWlib/src/stm32f10x_rcc.c ****   *     @arg RCC_APB2Periph_AFIO, RCC_APB2Periph_GPIOA, RCC_APB2Periph_GPIOB,
1175:../../source/src/FWlib/src/stm32f10x_rcc.c ****   *          RCC_APB2Periph_GPIOC, RCC_APB2Periph_GPIOD, RCC_APB2Periph_GPIOE,
1176:../../source/src/FWlib/src/stm32f10x_rcc.c ****   *          RCC_APB2Periph_GPIOF, RCC_APB2Periph_GPIOG, RCC_APB2Periph_ADC1,
1177:../../source/src/FWlib/src/stm32f10x_rcc.c ****   *          RCC_APB2Periph_ADC2, RCC_APB2Periph_TIM1, RCC_APB2Periph_SPI1,
1178:../../source/src/FWlib/src/stm32f10x_rcc.c ****   *          RCC_APB2Periph_TIM8, RCC_APB2Periph_USART1, RCC_APB2Periph_ADC3,
1179:../../source/src/FWlib/src/stm32f10x_rcc.c ****   *          RCC_APB2Periph_TIM15, RCC_APB2Periph_TIM16, RCC_APB2Periph_TIM17,
1180:../../source/src/FWlib/src/stm32f10x_rcc.c ****   *          RCC_APB2Periph_TIM9, RCC_APB2Periph_TIM10, RCC_APB2Periph_TIM11  
1181:../../source/src/FWlib/src/stm32f10x_rcc.c ****   * @param  NewState: new state of the specified peripheral reset.
1182:../../source/src/FWlib/src/stm32f10x_rcc.c ****   *   This parameter can be: ENABLE or DISABLE.
1183:../../source/src/FWlib/src/stm32f10x_rcc.c ****   * @retval None
1184:../../source/src/FWlib/src/stm32f10x_rcc.c ****   */
1185:../../source/src/FWlib/src/stm32f10x_rcc.c **** void RCC_APB2PeriphResetCmd(uint32_t RCC_APB2Periph, FunctionalState NewState)
1186:../../source/src/FWlib/src/stm32f10x_rcc.c **** {
1187:../../source/src/FWlib/src/stm32f10x_rcc.c ****   /* Check the parameters */
1188:../../source/src/FWlib/src/stm32f10x_rcc.c ****   assert_param(IS_RCC_APB2_PERIPH(RCC_APB2Periph));
1189:../../source/src/FWlib/src/stm32f10x_rcc.c ****   assert_param(IS_FUNCTIONAL_STATE(NewState));
1190:../../source/src/FWlib/src/stm32f10x_rcc.c ****   if (NewState != DISABLE)
1191:../../source/src/FWlib/src/stm32f10x_rcc.c ****   {
1192:../../source/src/FWlib/src/stm32f10x_rcc.c ****     RCC->APB2RSTR |= RCC_APB2Periph;
1193:../../source/src/FWlib/src/stm32f10x_rcc.c ****   }
1194:../../source/src/FWlib/src/stm32f10x_rcc.c ****   else
1195:../../source/src/FWlib/src/stm32f10x_rcc.c ****   {
1196:../../source/src/FWlib/src/stm32f10x_rcc.c ****     RCC->APB2RSTR &= ~RCC_APB2Periph;
1197:../../source/src/FWlib/src/stm32f10x_rcc.c ****   }
1198:../../source/src/FWlib/src/stm32f10x_rcc.c **** }
1199:../../source/src/FWlib/src/stm32f10x_rcc.c **** 
1200:../../source/src/FWlib/src/stm32f10x_rcc.c **** /**
1201:../../source/src/FWlib/src/stm32f10x_rcc.c ****   * @brief  Forces or releases Low Speed APB (APB1) peripheral reset.
1202:../../source/src/FWlib/src/stm32f10x_rcc.c ****   * @param  RCC_APB1Periph: specifies the APB1 peripheral to reset.
1203:../../source/src/FWlib/src/stm32f10x_rcc.c ****   *   This parameter can be any combination of the following values:
1204:../../source/src/FWlib/src/stm32f10x_rcc.c ****   *     @arg RCC_APB1Periph_TIM2, RCC_APB1Periph_TIM3, RCC_APB1Periph_TIM4,
1205:../../source/src/FWlib/src/stm32f10x_rcc.c ****   *          RCC_APB1Periph_TIM5, RCC_APB1Periph_TIM6, RCC_APB1Periph_TIM7,
1206:../../source/src/FWlib/src/stm32f10x_rcc.c ****   *          RCC_APB1Periph_WWDG, RCC_APB1Periph_SPI2, RCC_APB1Periph_SPI3,
1207:../../source/src/FWlib/src/stm32f10x_rcc.c ****   *          RCC_APB1Periph_USART2, RCC_APB1Periph_USART3, RCC_APB1Periph_USART4, 
1208:../../source/src/FWlib/src/stm32f10x_rcc.c ****   *          RCC_APB1Periph_USART5, RCC_APB1Periph_I2C1, RCC_APB1Periph_I2C2,
1209:../../source/src/FWlib/src/stm32f10x_rcc.c ****   *          RCC_APB1Periph_USB, RCC_APB1Periph_CAN1, RCC_APB1Periph_BKP,
1210:../../source/src/FWlib/src/stm32f10x_rcc.c ****   *          RCC_APB1Periph_PWR, RCC_APB1Periph_DAC, RCC_APB1Periph_CEC,
ARM GAS  G:\Users\Jaxb\AppData\Local\Temp\ccqGEEDk.s 			page 25


1211:../../source/src/FWlib/src/stm32f10x_rcc.c ****   *          RCC_APB1Periph_TIM12, RCC_APB1Periph_TIM13, RCC_APB1Periph_TIM14  
1212:../../source/src/FWlib/src/stm32f10x_rcc.c ****   * @param  NewState: new state of the specified peripheral clock.
1213:../../source/src/FWlib/src/stm32f10x_rcc.c ****   *   This parameter can be: ENABLE or DISABLE.
1214:../../source/src/FWlib/src/stm32f10x_rcc.c ****   * @retval None
1215:../../source/src/FWlib/src/stm32f10x_rcc.c ****   */
1216:../../source/src/FWlib/src/stm32f10x_rcc.c **** void RCC_APB1PeriphResetCmd(uint32_t RCC_APB1Periph, FunctionalState NewState)
1217:../../source/src/FWlib/src/stm32f10x_rcc.c **** {
1218:../../source/src/FWlib/src/stm32f10x_rcc.c ****   /* Check the parameters */
1219:../../source/src/FWlib/src/stm32f10x_rcc.c ****   assert_param(IS_RCC_APB1_PERIPH(RCC_APB1Periph));
1220:../../source/src/FWlib/src/stm32f10x_rcc.c ****   assert_param(IS_FUNCTIONAL_STATE(NewState));
1221:../../source/src/FWlib/src/stm32f10x_rcc.c ****   if (NewState != DISABLE)
1222:../../source/src/FWlib/src/stm32f10x_rcc.c ****   {
1223:../../source/src/FWlib/src/stm32f10x_rcc.c ****     RCC->APB1RSTR |= RCC_APB1Periph;
1224:../../source/src/FWlib/src/stm32f10x_rcc.c ****   }
1225:../../source/src/FWlib/src/stm32f10x_rcc.c ****   else
1226:../../source/src/FWlib/src/stm32f10x_rcc.c ****   {
1227:../../source/src/FWlib/src/stm32f10x_rcc.c ****     RCC->APB1RSTR &= ~RCC_APB1Periph;
1228:../../source/src/FWlib/src/stm32f10x_rcc.c ****   }
1229:../../source/src/FWlib/src/stm32f10x_rcc.c **** }
1230:../../source/src/FWlib/src/stm32f10x_rcc.c **** 
1231:../../source/src/FWlib/src/stm32f10x_rcc.c **** /**
1232:../../source/src/FWlib/src/stm32f10x_rcc.c ****   * @brief  Forces or releases the Backup domain reset.
1233:../../source/src/FWlib/src/stm32f10x_rcc.c ****   * @param  NewState: new state of the Backup domain reset.
1234:../../source/src/FWlib/src/stm32f10x_rcc.c ****   *   This parameter can be: ENABLE or DISABLE.
1235:../../source/src/FWlib/src/stm32f10x_rcc.c ****   * @retval None
1236:../../source/src/FWlib/src/stm32f10x_rcc.c ****   */
1237:../../source/src/FWlib/src/stm32f10x_rcc.c **** void RCC_BackupResetCmd(FunctionalState NewState)
1238:../../source/src/FWlib/src/stm32f10x_rcc.c **** {
1239:../../source/src/FWlib/src/stm32f10x_rcc.c ****   /* Check the parameters */
1240:../../source/src/FWlib/src/stm32f10x_rcc.c ****   assert_param(IS_FUNCTIONAL_STATE(NewState));
1241:../../source/src/FWlib/src/stm32f10x_rcc.c ****   *(__IO uint32_t *) BDCR_BDRST_BB = (uint32_t)NewState;
1242:../../source/src/FWlib/src/stm32f10x_rcc.c **** }
1243:../../source/src/FWlib/src/stm32f10x_rcc.c **** 
1244:../../source/src/FWlib/src/stm32f10x_rcc.c **** /**
1245:../../source/src/FWlib/src/stm32f10x_rcc.c ****   * @brief  Enables or disables the Clock Security System.
1246:../../source/src/FWlib/src/stm32f10x_rcc.c ****   * @param  NewState: new state of the Clock Security System..
1247:../../source/src/FWlib/src/stm32f10x_rcc.c ****   *   This parameter can be: ENABLE or DISABLE.
1248:../../source/src/FWlib/src/stm32f10x_rcc.c ****   * @retval None
1249:../../source/src/FWlib/src/stm32f10x_rcc.c ****   */
1250:../../source/src/FWlib/src/stm32f10x_rcc.c **** void RCC_ClockSecuritySystemCmd(FunctionalState NewState)
1251:../../source/src/FWlib/src/stm32f10x_rcc.c **** {
1252:../../source/src/FWlib/src/stm32f10x_rcc.c ****   /* Check the parameters */
1253:../../source/src/FWlib/src/stm32f10x_rcc.c ****   assert_param(IS_FUNCTIONAL_STATE(NewState));
1254:../../source/src/FWlib/src/stm32f10x_rcc.c ****   *(__IO uint32_t *) CR_CSSON_BB = (uint32_t)NewState;
1255:../../source/src/FWlib/src/stm32f10x_rcc.c **** }
1256:../../source/src/FWlib/src/stm32f10x_rcc.c **** 
1257:../../source/src/FWlib/src/stm32f10x_rcc.c **** /**
1258:../../source/src/FWlib/src/stm32f10x_rcc.c ****   * @brief  Selects the clock source to output on MCO pin.
1259:../../source/src/FWlib/src/stm32f10x_rcc.c ****   * @param  RCC_MCO: specifies the clock source to output.
1260:../../source/src/FWlib/src/stm32f10x_rcc.c ****   *   
1261:../../source/src/FWlib/src/stm32f10x_rcc.c ****   *   For @b STM32_Connectivity_line_devices, this parameter can be one of the
1262:../../source/src/FWlib/src/stm32f10x_rcc.c ****   *   following values:       
1263:../../source/src/FWlib/src/stm32f10x_rcc.c ****   *     @arg RCC_MCO_NoClock: No clock selected
1264:../../source/src/FWlib/src/stm32f10x_rcc.c ****   *     @arg RCC_MCO_SYSCLK: System clock selected
1265:../../source/src/FWlib/src/stm32f10x_rcc.c ****   *     @arg RCC_MCO_HSI: HSI oscillator clock selected
1266:../../source/src/FWlib/src/stm32f10x_rcc.c ****   *     @arg RCC_MCO_HSE: HSE oscillator clock selected
1267:../../source/src/FWlib/src/stm32f10x_rcc.c ****   *     @arg RCC_MCO_PLLCLK_Div2: PLL clock divided by 2 selected
ARM GAS  G:\Users\Jaxb\AppData\Local\Temp\ccqGEEDk.s 			page 26


1268:../../source/src/FWlib/src/stm32f10x_rcc.c ****   *     @arg RCC_MCO_PLL2CLK: PLL2 clock selected                     
1269:../../source/src/FWlib/src/stm32f10x_rcc.c ****   *     @arg RCC_MCO_PLL3CLK_Div2: PLL3 clock divided by 2 selected   
1270:../../source/src/FWlib/src/stm32f10x_rcc.c ****   *     @arg RCC_MCO_XT1: External 3-25 MHz oscillator clock selected  
1271:../../source/src/FWlib/src/stm32f10x_rcc.c ****   *     @arg RCC_MCO_PLL3CLK: PLL3 clock selected 
1272:../../source/src/FWlib/src/stm32f10x_rcc.c ****   * 
1273:../../source/src/FWlib/src/stm32f10x_rcc.c ****   *   For  @b other_STM32_devices, this parameter can be one of the following values:        
1274:../../source/src/FWlib/src/stm32f10x_rcc.c ****   *     @arg RCC_MCO_NoClock: No clock selected
1275:../../source/src/FWlib/src/stm32f10x_rcc.c ****   *     @arg RCC_MCO_SYSCLK: System clock selected
1276:../../source/src/FWlib/src/stm32f10x_rcc.c ****   *     @arg RCC_MCO_HSI: HSI oscillator clock selected
1277:../../source/src/FWlib/src/stm32f10x_rcc.c ****   *     @arg RCC_MCO_HSE: HSE oscillator clock selected
1278:../../source/src/FWlib/src/stm32f10x_rcc.c ****   *     @arg RCC_MCO_PLLCLK_Div2: PLL clock divided by 2 selected
1279:../../source/src/FWlib/src/stm32f10x_rcc.c ****   *   
1280:../../source/src/FWlib/src/stm32f10x_rcc.c ****   * @retval None
1281:../../source/src/FWlib/src/stm32f10x_rcc.c ****   */
1282:../../source/src/FWlib/src/stm32f10x_rcc.c **** void RCC_MCOConfig(uint8_t RCC_MCO)
1283:../../source/src/FWlib/src/stm32f10x_rcc.c **** {
1284:../../source/src/FWlib/src/stm32f10x_rcc.c ****   /* Check the parameters */
1285:../../source/src/FWlib/src/stm32f10x_rcc.c ****   assert_param(IS_RCC_MCO(RCC_MCO));
1286:../../source/src/FWlib/src/stm32f10x_rcc.c **** 
1287:../../source/src/FWlib/src/stm32f10x_rcc.c ****   /* Perform Byte access to MCO bits to select the MCO source */
1288:../../source/src/FWlib/src/stm32f10x_rcc.c ****   *(__IO uint8_t *) CFGR_BYTE4_ADDRESS = RCC_MCO;
1289:../../source/src/FWlib/src/stm32f10x_rcc.c **** }
1290:../../source/src/FWlib/src/stm32f10x_rcc.c **** 
1291:../../source/src/FWlib/src/stm32f10x_rcc.c **** /**
1292:../../source/src/FWlib/src/stm32f10x_rcc.c ****   * @brief  Checks whether the specified RCC flag is set or not.
1293:../../source/src/FWlib/src/stm32f10x_rcc.c ****   * @param  RCC_FLAG: specifies the flag to check.
1294:../../source/src/FWlib/src/stm32f10x_rcc.c ****   *   
1295:../../source/src/FWlib/src/stm32f10x_rcc.c ****   *   For @b STM32_Connectivity_line_devices, this parameter can be one of the
1296:../../source/src/FWlib/src/stm32f10x_rcc.c ****   *   following values:
1297:../../source/src/FWlib/src/stm32f10x_rcc.c ****   *     @arg RCC_FLAG_HSIRDY: HSI oscillator clock ready
1298:../../source/src/FWlib/src/stm32f10x_rcc.c ****   *     @arg RCC_FLAG_HSERDY: HSE oscillator clock ready
1299:../../source/src/FWlib/src/stm32f10x_rcc.c ****   *     @arg RCC_FLAG_PLLRDY: PLL clock ready
1300:../../source/src/FWlib/src/stm32f10x_rcc.c ****   *     @arg RCC_FLAG_PLL2RDY: PLL2 clock ready      
1301:../../source/src/FWlib/src/stm32f10x_rcc.c ****   *     @arg RCC_FLAG_PLL3RDY: PLL3 clock ready                           
1302:../../source/src/FWlib/src/stm32f10x_rcc.c ****   *     @arg RCC_FLAG_LSERDY: LSE oscillator clock ready
1303:../../source/src/FWlib/src/stm32f10x_rcc.c ****   *     @arg RCC_FLAG_LSIRDY: LSI oscillator clock ready
1304:../../source/src/FWlib/src/stm32f10x_rcc.c ****   *     @arg RCC_FLAG_PINRST: Pin reset
1305:../../source/src/FWlib/src/stm32f10x_rcc.c ****   *     @arg RCC_FLAG_PORRST: POR/PDR reset
1306:../../source/src/FWlib/src/stm32f10x_rcc.c ****   *     @arg RCC_FLAG_SFTRST: Software reset
1307:../../source/src/FWlib/src/stm32f10x_rcc.c ****   *     @arg RCC_FLAG_IWDGRST: Independent Watchdog reset
1308:../../source/src/FWlib/src/stm32f10x_rcc.c ****   *     @arg RCC_FLAG_WWDGRST: Window Watchdog reset
1309:../../source/src/FWlib/src/stm32f10x_rcc.c ****   *     @arg RCC_FLAG_LPWRRST: Low Power reset
1310:../../source/src/FWlib/src/stm32f10x_rcc.c ****   * 
1311:../../source/src/FWlib/src/stm32f10x_rcc.c ****   *   For @b other_STM32_devices, this parameter can be one of the following values:        
1312:../../source/src/FWlib/src/stm32f10x_rcc.c ****   *     @arg RCC_FLAG_HSIRDY: HSI oscillator clock ready
1313:../../source/src/FWlib/src/stm32f10x_rcc.c ****   *     @arg RCC_FLAG_HSERDY: HSE oscillator clock ready
1314:../../source/src/FWlib/src/stm32f10x_rcc.c ****   *     @arg RCC_FLAG_PLLRDY: PLL clock ready
1315:../../source/src/FWlib/src/stm32f10x_rcc.c ****   *     @arg RCC_FLAG_LSERDY: LSE oscillator clock ready
1316:../../source/src/FWlib/src/stm32f10x_rcc.c ****   *     @arg RCC_FLAG_LSIRDY: LSI oscillator clock ready
1317:../../source/src/FWlib/src/stm32f10x_rcc.c ****   *     @arg RCC_FLAG_PINRST: Pin reset
1318:../../source/src/FWlib/src/stm32f10x_rcc.c ****   *     @arg RCC_FLAG_PORRST: POR/PDR reset
1319:../../source/src/FWlib/src/stm32f10x_rcc.c ****   *     @arg RCC_FLAG_SFTRST: Software reset
1320:../../source/src/FWlib/src/stm32f10x_rcc.c ****   *     @arg RCC_FLAG_IWDGRST: Independent Watchdog reset
1321:../../source/src/FWlib/src/stm32f10x_rcc.c ****   *     @arg RCC_FLAG_WWDGRST: Window Watchdog reset
1322:../../source/src/FWlib/src/stm32f10x_rcc.c ****   *     @arg RCC_FLAG_LPWRRST: Low Power reset
1323:../../source/src/FWlib/src/stm32f10x_rcc.c ****   *   
1324:../../source/src/FWlib/src/stm32f10x_rcc.c ****   * @retval The new state of RCC_FLAG (SET or RESET).
ARM GAS  G:\Users\Jaxb\AppData\Local\Temp\ccqGEEDk.s 			page 27


1325:../../source/src/FWlib/src/stm32f10x_rcc.c ****   */
1326:../../source/src/FWlib/src/stm32f10x_rcc.c **** FlagStatus RCC_GetFlagStatus(uint8_t RCC_FLAG)
1327:../../source/src/FWlib/src/stm32f10x_rcc.c **** {
1328:../../source/src/FWlib/src/stm32f10x_rcc.c ****   uint32_t tmp = 0;
1329:../../source/src/FWlib/src/stm32f10x_rcc.c ****   uint32_t statusreg = 0;
1330:../../source/src/FWlib/src/stm32f10x_rcc.c ****   FlagStatus bitstatus = RESET;
1331:../../source/src/FWlib/src/stm32f10x_rcc.c ****   /* Check the parameters */
1332:../../source/src/FWlib/src/stm32f10x_rcc.c ****   assert_param(IS_RCC_FLAG(RCC_FLAG));
1333:../../source/src/FWlib/src/stm32f10x_rcc.c **** 
1334:../../source/src/FWlib/src/stm32f10x_rcc.c ****   /* Get the RCC register index */
1335:../../source/src/FWlib/src/stm32f10x_rcc.c ****   tmp = RCC_FLAG >> 5;
1336:../../source/src/FWlib/src/stm32f10x_rcc.c ****   if (tmp == 1)               /* The flag to check is in CR register */
1337:../../source/src/FWlib/src/stm32f10x_rcc.c ****   {
1338:../../source/src/FWlib/src/stm32f10x_rcc.c ****     statusreg = RCC->CR;
 147              		.loc 1 1338 0
 148 007c 094A     		ldr	r2, .L17
 149              	.LBE7:
 150              	.LBE6:
 306:../../source/src/FWlib/src/stm32f10x_rcc.c ****   ErrorStatus status = ERROR;
 151              		.loc 1 306 0
 152 007e 0193     		str	r3, [sp, #4]
 153              	.LVL1:
 154              	.L15:
 155              	.LBB10:
 156              	.LBB8:
 157              		.loc 1 1338 0 discriminator 2
 158 0080 1368     		ldr	r3, [r2]
 159              	.LVL2:
1339:../../source/src/FWlib/src/stm32f10x_rcc.c ****   }
1340:../../source/src/FWlib/src/stm32f10x_rcc.c ****   else if (tmp == 2)          /* The flag to check is in BDCR register */
1341:../../source/src/FWlib/src/stm32f10x_rcc.c ****   {
1342:../../source/src/FWlib/src/stm32f10x_rcc.c ****     statusreg = RCC->BDCR;
1343:../../source/src/FWlib/src/stm32f10x_rcc.c ****   }
1344:../../source/src/FWlib/src/stm32f10x_rcc.c ****   else                       /* The flag to check is in CSR register */
1345:../../source/src/FWlib/src/stm32f10x_rcc.c ****   {
1346:../../source/src/FWlib/src/stm32f10x_rcc.c ****     statusreg = RCC->CSR;
1347:../../source/src/FWlib/src/stm32f10x_rcc.c ****   }
1348:../../source/src/FWlib/src/stm32f10x_rcc.c **** 
1349:../../source/src/FWlib/src/stm32f10x_rcc.c ****   /* Get the flag position */
1350:../../source/src/FWlib/src/stm32f10x_rcc.c ****   tmp = RCC_FLAG & FLAG_Mask;
1351:../../source/src/FWlib/src/stm32f10x_rcc.c ****   if ((statusreg & ((uint32_t)1 << tmp)) != (uint32_t)RESET)
 160              		.loc 1 1351 0 discriminator 2
 161 0082 13F4003F 		tst	r3, #131072
 162              	.LBE8:
 163              	.LBE10:
 314:../../source/src/FWlib/src/stm32f10x_rcc.c ****   } while((StartUpCounter != HSE_STARTUP_TIMEOUT) && (HSEStatus == RESET));
 164              		.loc 1 314 0 discriminator 2
 165 0086 019B     		ldr	r3, [sp, #4]
 166              	.LVL3:
 167 0088 03F10103 		add	r3, r3, #1
 168 008c 0193     		str	r3, [sp, #4]
 315:../../source/src/FWlib/src/stm32f10x_rcc.c ****   
 169              		.loc 1 315 0 discriminator 2
 170 008e 019B     		ldr	r3, [sp, #4]
 171              	.LBB11:
 172              	.LBB9:
 173              		.loc 1 1351 0 discriminator 2
ARM GAS  G:\Users\Jaxb\AppData\Local\Temp\ccqGEEDk.s 			page 28


 174 0090 02D1     		bne	.L14
 175              	.LBE9:
 176              	.LBE11:
 315:../../source/src/FWlib/src/stm32f10x_rcc.c ****   
 177              		.loc 1 315 0
 178 0092 B3F5A06F 		cmp	r3, #1280
 179 0096 F3D1     		bne	.L15
 180              	.L14:
 181              	.LVL4:
 182              	.LBB12:
 183              	.LBB13:
1338:../../source/src/FWlib/src/stm32f10x_rcc.c ****   }
 184              		.loc 1 1338 0
 185 0098 024B     		ldr	r3, .L17
 186 009a 1868     		ldr	r0, [r3]
 187              	.LVL5:
 188              	.LBE13:
 189              	.LBE12:
 326:../../source/src/FWlib/src/stm32f10x_rcc.c **** 
 190              		.loc 1 326 0
 191 009c C0F34040 		ubfx	r0, r0, #17, #1
 192              	.LVL6:
 193 00a0 02B0     		add	sp, sp, #8
 194              	.LCFI1:
 195              		.cfi_def_cfa_offset 0
 196              		@ sp needed
 197 00a2 7047     		bx	lr
 198              	.L18:
 199              		.align	2
 200              	.L17:
 201 00a4 00100240 		.word	1073876992
 202              		.cfi_endproc
 203              	.LFE31:
 204              		.size	RCC_WaitForHSEStartUp, .-RCC_WaitForHSEStartUp
 205              		.align	1
 206              		.p2align 2,,3
 207              		.global	RCC_AdjustHSICalibrationValue
 208              		.syntax unified
 209              		.thumb
 210              		.thumb_func
 211              		.fpu softvfp
 212              		.type	RCC_AdjustHSICalibrationValue, %function
 213              	RCC_AdjustHSICalibrationValue:
 214              	.LFB32:
 335:../../source/src/FWlib/src/stm32f10x_rcc.c ****   uint32_t tmpreg = 0;
 215              		.loc 1 335 0
 216              		.cfi_startproc
 217              		@ args = 0, pretend = 0, frame = 0
 218              		@ frame_needed = 0, uses_anonymous_args = 0
 219              		@ link register save eliminated.
 220              	.LVL7:
 339:../../source/src/FWlib/src/stm32f10x_rcc.c ****   /* Clear HSITRIM[4:0] bits */
 221              		.loc 1 339 0
 222 00a8 034A     		ldr	r2, .L20
 223 00aa 1368     		ldr	r3, [r2]
 224              	.LVL8:
 341:../../source/src/FWlib/src/stm32f10x_rcc.c ****   /* Set the HSITRIM[4:0] bits according to HSICalibrationValue value */
ARM GAS  G:\Users\Jaxb\AppData\Local\Temp\ccqGEEDk.s 			page 29


 225              		.loc 1 341 0
 226 00ac 23F0F803 		bic	r3, r3, #248
 227              	.LVL9:
 343:../../source/src/FWlib/src/stm32f10x_rcc.c ****   /* Store the new value */
 228              		.loc 1 343 0
 229 00b0 43EAC000 		orr	r0, r3, r0, lsl #3
 230              	.LVL10:
 345:../../source/src/FWlib/src/stm32f10x_rcc.c **** }
 231              		.loc 1 345 0
 232 00b4 1060     		str	r0, [r2]
 346:../../source/src/FWlib/src/stm32f10x_rcc.c **** 
 233              		.loc 1 346 0
 234 00b6 7047     		bx	lr
 235              	.L21:
 236              		.align	2
 237              	.L20:
 238 00b8 00100240 		.word	1073876992
 239              		.cfi_endproc
 240              	.LFE32:
 241              		.size	RCC_AdjustHSICalibrationValue, .-RCC_AdjustHSICalibrationValue
 242              		.align	1
 243              		.p2align 2,,3
 244              		.global	RCC_HSICmd
 245              		.syntax unified
 246              		.thumb
 247              		.thumb_func
 248              		.fpu softvfp
 249              		.type	RCC_HSICmd, %function
 250              	RCC_HSICmd:
 251              	.LFB33:
 355:../../source/src/FWlib/src/stm32f10x_rcc.c ****   /* Check the parameters */
 252              		.loc 1 355 0
 253              		.cfi_startproc
 254              		@ args = 0, pretend = 0, frame = 0
 255              		@ frame_needed = 0, uses_anonymous_args = 0
 256              		@ link register save eliminated.
 257              	.LVL11:
 358:../../source/src/FWlib/src/stm32f10x_rcc.c **** }
 258              		.loc 1 358 0
 259 00bc 014B     		ldr	r3, .L23
 260 00be 1860     		str	r0, [r3]
 359:../../source/src/FWlib/src/stm32f10x_rcc.c **** 
 261              		.loc 1 359 0
 262 00c0 7047     		bx	lr
 263              	.L24:
 264 00c2 00BF     		.align	2
 265              	.L23:
 266 00c4 00004242 		.word	1111621632
 267              		.cfi_endproc
 268              	.LFE33:
 269              		.size	RCC_HSICmd, .-RCC_HSICmd
 270              		.align	1
 271              		.p2align 2,,3
 272              		.global	RCC_PLLConfig
 273              		.syntax unified
 274              		.thumb
 275              		.thumb_func
ARM GAS  G:\Users\Jaxb\AppData\Local\Temp\ccqGEEDk.s 			page 30


 276              		.fpu softvfp
 277              		.type	RCC_PLLConfig, %function
 278              	RCC_PLLConfig:
 279              	.LFB34:
 379:../../source/src/FWlib/src/stm32f10x_rcc.c ****   uint32_t tmpreg = 0;
 280              		.loc 1 379 0
 281              		.cfi_startproc
 282              		@ args = 0, pretend = 0, frame = 0
 283              		@ frame_needed = 0, uses_anonymous_args = 0
 284              		@ link register save eliminated.
 285              	.LVL12:
 386:../../source/src/FWlib/src/stm32f10x_rcc.c ****   /* Clear PLLSRC, PLLXTPRE and PLLMUL[3:0] bits */
 286              		.loc 1 386 0
 287 00c8 034A     		ldr	r2, .L26
 288 00ca 5368     		ldr	r3, [r2, #4]
 289              	.LVL13:
 388:../../source/src/FWlib/src/stm32f10x_rcc.c ****   /* Set the PLL configuration bits */
 290              		.loc 1 388 0
 291 00cc 23F47C13 		bic	r3, r3, #4128768
 292              	.LVL14:
 293 00d0 1943     		orrs	r1, r1, r3
 294              	.LVL15:
 390:../../source/src/FWlib/src/stm32f10x_rcc.c ****   /* Store the new value */
 295              		.loc 1 390 0
 296 00d2 0143     		orrs	r1, r1, r0
 297              	.LVL16:
 392:../../source/src/FWlib/src/stm32f10x_rcc.c **** }
 298              		.loc 1 392 0
 299 00d4 5160     		str	r1, [r2, #4]
 393:../../source/src/FWlib/src/stm32f10x_rcc.c **** 
 300              		.loc 1 393 0
 301 00d6 7047     		bx	lr
 302              	.L27:
 303              		.align	2
 304              	.L26:
 305 00d8 00100240 		.word	1073876992
 306              		.cfi_endproc
 307              	.LFE34:
 308              		.size	RCC_PLLConfig, .-RCC_PLLConfig
 309              		.align	1
 310              		.p2align 2,,3
 311              		.global	RCC_PLLCmd
 312              		.syntax unified
 313              		.thumb
 314              		.thumb_func
 315              		.fpu softvfp
 316              		.type	RCC_PLLCmd, %function
 317              	RCC_PLLCmd:
 318              	.LFB35:
 402:../../source/src/FWlib/src/stm32f10x_rcc.c ****   /* Check the parameters */
 319              		.loc 1 402 0
 320              		.cfi_startproc
 321              		@ args = 0, pretend = 0, frame = 0
 322              		@ frame_needed = 0, uses_anonymous_args = 0
 323              		@ link register save eliminated.
 324              	.LVL17:
 406:../../source/src/FWlib/src/stm32f10x_rcc.c **** }
ARM GAS  G:\Users\Jaxb\AppData\Local\Temp\ccqGEEDk.s 			page 31


 325              		.loc 1 406 0
 326 00dc 014B     		ldr	r3, .L29
 327 00de 1860     		str	r0, [r3]
 407:../../source/src/FWlib/src/stm32f10x_rcc.c **** 
 328              		.loc 1 407 0
 329 00e0 7047     		bx	lr
 330              	.L30:
 331 00e2 00BF     		.align	2
 332              	.L29:
 333 00e4 60004242 		.word	1111621728
 334              		.cfi_endproc
 335              	.LFE35:
 336              		.size	RCC_PLLCmd, .-RCC_PLLCmd
 337              		.align	1
 338              		.p2align 2,,3
 339              		.global	RCC_SYSCLKConfig
 340              		.syntax unified
 341              		.thumb
 342              		.thumb_func
 343              		.fpu softvfp
 344              		.type	RCC_SYSCLKConfig, %function
 345              	RCC_SYSCLKConfig:
 346              	.LFB36:
 565:../../source/src/FWlib/src/stm32f10x_rcc.c ****   uint32_t tmpreg = 0;
 347              		.loc 1 565 0
 348              		.cfi_startproc
 349              		@ args = 0, pretend = 0, frame = 0
 350              		@ frame_needed = 0, uses_anonymous_args = 0
 351              		@ link register save eliminated.
 352              	.LVL18:
 569:../../source/src/FWlib/src/stm32f10x_rcc.c ****   /* Clear SW[1:0] bits */
 353              		.loc 1 569 0
 354 00e8 034A     		ldr	r2, .L32
 355 00ea 5368     		ldr	r3, [r2, #4]
 356              	.LVL19:
 571:../../source/src/FWlib/src/stm32f10x_rcc.c ****   /* Set SW[1:0] bits according to RCC_SYSCLKSource value */
 357              		.loc 1 571 0
 358 00ec 23F00303 		bic	r3, r3, #3
 359              	.LVL20:
 573:../../source/src/FWlib/src/stm32f10x_rcc.c ****   /* Store the new value */
 360              		.loc 1 573 0
 361 00f0 1843     		orrs	r0, r0, r3
 362              	.LVL21:
 575:../../source/src/FWlib/src/stm32f10x_rcc.c **** }
 363              		.loc 1 575 0
 364 00f2 5060     		str	r0, [r2, #4]
 576:../../source/src/FWlib/src/stm32f10x_rcc.c **** 
 365              		.loc 1 576 0
 366 00f4 7047     		bx	lr
 367              	.L33:
 368 00f6 00BF     		.align	2
 369              	.L32:
 370 00f8 00100240 		.word	1073876992
 371              		.cfi_endproc
 372              	.LFE36:
 373              		.size	RCC_SYSCLKConfig, .-RCC_SYSCLKConfig
 374              		.align	1
ARM GAS  G:\Users\Jaxb\AppData\Local\Temp\ccqGEEDk.s 			page 32


 375              		.p2align 2,,3
 376              		.global	RCC_GetSYSCLKSource
 377              		.syntax unified
 378              		.thumb
 379              		.thumb_func
 380              		.fpu softvfp
 381              		.type	RCC_GetSYSCLKSource, %function
 382              	RCC_GetSYSCLKSource:
 383              	.LFB37:
 588:../../source/src/FWlib/src/stm32f10x_rcc.c ****   return ((uint8_t)(RCC->CFGR & CFGR_SWS_Mask));
 384              		.loc 1 588 0
 385              		.cfi_startproc
 386              		@ args = 0, pretend = 0, frame = 0
 387              		@ frame_needed = 0, uses_anonymous_args = 0
 388              		@ link register save eliminated.
 589:../../source/src/FWlib/src/stm32f10x_rcc.c **** }
 389              		.loc 1 589 0
 390 00fc 024B     		ldr	r3, .L35
 391 00fe 5868     		ldr	r0, [r3, #4]
 590:../../source/src/FWlib/src/stm32f10x_rcc.c **** 
 392              		.loc 1 590 0
 393 0100 00F00C00 		and	r0, r0, #12
 394 0104 7047     		bx	lr
 395              	.L36:
 396 0106 00BF     		.align	2
 397              	.L35:
 398 0108 00100240 		.word	1073876992
 399              		.cfi_endproc
 400              	.LFE37:
 401              		.size	RCC_GetSYSCLKSource, .-RCC_GetSYSCLKSource
 402              		.align	1
 403              		.p2align 2,,3
 404              		.global	RCC_HCLKConfig
 405              		.syntax unified
 406              		.thumb
 407              		.thumb_func
 408              		.fpu softvfp
 409              		.type	RCC_HCLKConfig, %function
 410              	RCC_HCLKConfig:
 411              	.LFB38:
 609:../../source/src/FWlib/src/stm32f10x_rcc.c ****   uint32_t tmpreg = 0;
 412              		.loc 1 609 0
 413              		.cfi_startproc
 414              		@ args = 0, pretend = 0, frame = 0
 415              		@ frame_needed = 0, uses_anonymous_args = 0
 416              		@ link register save eliminated.
 417              	.LVL22:
 613:../../source/src/FWlib/src/stm32f10x_rcc.c ****   /* Clear HPRE[3:0] bits */
 418              		.loc 1 613 0
 419 010c 034A     		ldr	r2, .L38
 420 010e 5368     		ldr	r3, [r2, #4]
 421              	.LVL23:
 615:../../source/src/FWlib/src/stm32f10x_rcc.c ****   /* Set HPRE[3:0] bits according to RCC_SYSCLK value */
 422              		.loc 1 615 0
 423 0110 23F0F003 		bic	r3, r3, #240
 424              	.LVL24:
 617:../../source/src/FWlib/src/stm32f10x_rcc.c ****   /* Store the new value */
ARM GAS  G:\Users\Jaxb\AppData\Local\Temp\ccqGEEDk.s 			page 33


 425              		.loc 1 617 0
 426 0114 1843     		orrs	r0, r0, r3
 427              	.LVL25:
 619:../../source/src/FWlib/src/stm32f10x_rcc.c **** }
 428              		.loc 1 619 0
 429 0116 5060     		str	r0, [r2, #4]
 620:../../source/src/FWlib/src/stm32f10x_rcc.c **** 
 430              		.loc 1 620 0
 431 0118 7047     		bx	lr
 432              	.L39:
 433 011a 00BF     		.align	2
 434              	.L38:
 435 011c 00100240 		.word	1073876992
 436              		.cfi_endproc
 437              	.LFE38:
 438              		.size	RCC_HCLKConfig, .-RCC_HCLKConfig
 439              		.align	1
 440              		.p2align 2,,3
 441              		.global	RCC_PCLK1Config
 442              		.syntax unified
 443              		.thumb
 444              		.thumb_func
 445              		.fpu softvfp
 446              		.type	RCC_PCLK1Config, %function
 447              	RCC_PCLK1Config:
 448              	.LFB39:
 635:../../source/src/FWlib/src/stm32f10x_rcc.c ****   uint32_t tmpreg = 0;
 449              		.loc 1 635 0
 450              		.cfi_startproc
 451              		@ args = 0, pretend = 0, frame = 0
 452              		@ frame_needed = 0, uses_anonymous_args = 0
 453              		@ link register save eliminated.
 454              	.LVL26:
 639:../../source/src/FWlib/src/stm32f10x_rcc.c ****   /* Clear PPRE1[2:0] bits */
 455              		.loc 1 639 0
 456 0120 034A     		ldr	r2, .L41
 457 0122 5368     		ldr	r3, [r2, #4]
 458              	.LVL27:
 641:../../source/src/FWlib/src/stm32f10x_rcc.c ****   /* Set PPRE1[2:0] bits according to RCC_HCLK value */
 459              		.loc 1 641 0
 460 0124 23F4E063 		bic	r3, r3, #1792
 461              	.LVL28:
 643:../../source/src/FWlib/src/stm32f10x_rcc.c ****   /* Store the new value */
 462              		.loc 1 643 0
 463 0128 1843     		orrs	r0, r0, r3
 464              	.LVL29:
 645:../../source/src/FWlib/src/stm32f10x_rcc.c **** }
 465              		.loc 1 645 0
 466 012a 5060     		str	r0, [r2, #4]
 646:../../source/src/FWlib/src/stm32f10x_rcc.c **** 
 467              		.loc 1 646 0
 468 012c 7047     		bx	lr
 469              	.L42:
 470 012e 00BF     		.align	2
 471              	.L41:
 472 0130 00100240 		.word	1073876992
 473              		.cfi_endproc
ARM GAS  G:\Users\Jaxb\AppData\Local\Temp\ccqGEEDk.s 			page 34


 474              	.LFE39:
 475              		.size	RCC_PCLK1Config, .-RCC_PCLK1Config
 476              		.align	1
 477              		.p2align 2,,3
 478              		.global	RCC_PCLK2Config
 479              		.syntax unified
 480              		.thumb
 481              		.thumb_func
 482              		.fpu softvfp
 483              		.type	RCC_PCLK2Config, %function
 484              	RCC_PCLK2Config:
 485              	.LFB40:
 661:../../source/src/FWlib/src/stm32f10x_rcc.c ****   uint32_t tmpreg = 0;
 486              		.loc 1 661 0
 487              		.cfi_startproc
 488              		@ args = 0, pretend = 0, frame = 0
 489              		@ frame_needed = 0, uses_anonymous_args = 0
 490              		@ link register save eliminated.
 491              	.LVL30:
 665:../../source/src/FWlib/src/stm32f10x_rcc.c ****   /* Clear PPRE2[2:0] bits */
 492              		.loc 1 665 0
 493 0134 034A     		ldr	r2, .L44
 494 0136 5368     		ldr	r3, [r2, #4]
 495              	.LVL31:
 667:../../source/src/FWlib/src/stm32f10x_rcc.c ****   /* Set PPRE2[2:0] bits according to RCC_HCLK value */
 496              		.loc 1 667 0
 497 0138 23F46053 		bic	r3, r3, #14336
 498              	.LVL32:
 669:../../source/src/FWlib/src/stm32f10x_rcc.c ****   /* Store the new value */
 499              		.loc 1 669 0
 500 013c 43EAC000 		orr	r0, r3, r0, lsl #3
 501              	.LVL33:
 671:../../source/src/FWlib/src/stm32f10x_rcc.c **** }
 502              		.loc 1 671 0
 503 0140 5060     		str	r0, [r2, #4]
 672:../../source/src/FWlib/src/stm32f10x_rcc.c **** 
 504              		.loc 1 672 0
 505 0142 7047     		bx	lr
 506              	.L45:
 507              		.align	2
 508              	.L44:
 509 0144 00100240 		.word	1073876992
 510              		.cfi_endproc
 511              	.LFE40:
 512              		.size	RCC_PCLK2Config, .-RCC_PCLK2Config
 513              		.align	1
 514              		.p2align 2,,3
 515              		.global	RCC_ITConfig
 516              		.syntax unified
 517              		.thumb
 518              		.thumb_func
 519              		.fpu softvfp
 520              		.type	RCC_ITConfig, %function
 521              	RCC_ITConfig:
 522              	.LFB41:
 701:../../source/src/FWlib/src/stm32f10x_rcc.c ****   /* Check the parameters */
 523              		.loc 1 701 0
ARM GAS  G:\Users\Jaxb\AppData\Local\Temp\ccqGEEDk.s 			page 35


 524              		.cfi_startproc
 525              		@ args = 0, pretend = 0, frame = 0
 526              		@ frame_needed = 0, uses_anonymous_args = 0
 527              		@ link register save eliminated.
 528              	.LVL34:
 708:../../source/src/FWlib/src/stm32f10x_rcc.c ****   }
 529              		.loc 1 708 0
 530 0148 044A     		ldr	r2, .L50
 531 014a 1378     		ldrb	r3, [r2]	@ zero_extendqisi2
 705:../../source/src/FWlib/src/stm32f10x_rcc.c ****   {
 532              		.loc 1 705 0
 533 014c 19B9     		cbnz	r1, .L49
 713:../../source/src/FWlib/src/stm32f10x_rcc.c ****   }
 534              		.loc 1 713 0
 535 014e 23EA0000 		bic	r0, r3, r0
 536              	.LVL35:
 537 0152 1070     		strb	r0, [r2]
 715:../../source/src/FWlib/src/stm32f10x_rcc.c **** 
 538              		.loc 1 715 0
 539 0154 7047     		bx	lr
 540              	.LVL36:
 541              	.L49:
 708:../../source/src/FWlib/src/stm32f10x_rcc.c ****   }
 542              		.loc 1 708 0
 543 0156 1843     		orrs	r0, r0, r3
 544              	.LVL37:
 545 0158 1070     		strb	r0, [r2]
 546 015a 7047     		bx	lr
 547              	.L51:
 548              		.align	2
 549              	.L50:
 550 015c 09100240 		.word	1073877001
 551              		.cfi_endproc
 552              	.LFE41:
 553              		.size	RCC_ITConfig, .-RCC_ITConfig
 554              		.align	1
 555              		.p2align 2,,3
 556              		.global	RCC_USBCLKConfig
 557              		.syntax unified
 558              		.thumb
 559              		.thumb_func
 560              		.fpu softvfp
 561              		.type	RCC_USBCLKConfig, %function
 562              	RCC_USBCLKConfig:
 563              	.LFB42:
 729:../../source/src/FWlib/src/stm32f10x_rcc.c ****   /* Check the parameters */
 564              		.loc 1 729 0
 565              		.cfi_startproc
 566              		@ args = 0, pretend = 0, frame = 0
 567              		@ frame_needed = 0, uses_anonymous_args = 0
 568              		@ link register save eliminated.
 569              	.LVL38:
 733:../../source/src/FWlib/src/stm32f10x_rcc.c **** }
 570              		.loc 1 733 0
 571 0160 014B     		ldr	r3, .L53
 572 0162 1860     		str	r0, [r3]
 734:../../source/src/FWlib/src/stm32f10x_rcc.c **** #else
ARM GAS  G:\Users\Jaxb\AppData\Local\Temp\ccqGEEDk.s 			page 36


 573              		.loc 1 734 0
 574 0164 7047     		bx	lr
 575              	.L54:
 576 0166 00BF     		.align	2
 577              	.L53:
 578 0168 D8004242 		.word	1111621848
 579              		.cfi_endproc
 580              	.LFE42:
 581              		.size	RCC_USBCLKConfig, .-RCC_USBCLKConfig
 582              		.align	1
 583              		.p2align 2,,3
 584              		.global	RCC_ADCCLKConfig
 585              		.syntax unified
 586              		.thumb
 587              		.thumb_func
 588              		.fpu softvfp
 589              		.type	RCC_ADCCLKConfig, %function
 590              	RCC_ADCCLKConfig:
 591              	.LFB43:
 767:../../source/src/FWlib/src/stm32f10x_rcc.c ****   uint32_t tmpreg = 0;
 592              		.loc 1 767 0
 593              		.cfi_startproc
 594              		@ args = 0, pretend = 0, frame = 0
 595              		@ frame_needed = 0, uses_anonymous_args = 0
 596              		@ link register save eliminated.
 597              	.LVL39:
 771:../../source/src/FWlib/src/stm32f10x_rcc.c ****   /* Clear ADCPRE[1:0] bits */
 598              		.loc 1 771 0
 599 016c 034A     		ldr	r2, .L56
 600 016e 5368     		ldr	r3, [r2, #4]
 601              	.LVL40:
 773:../../source/src/FWlib/src/stm32f10x_rcc.c ****   /* Set ADCPRE[1:0] bits according to RCC_PCLK2 value */
 602              		.loc 1 773 0
 603 0170 23F44043 		bic	r3, r3, #49152
 604              	.LVL41:
 775:../../source/src/FWlib/src/stm32f10x_rcc.c ****   /* Store the new value */
 605              		.loc 1 775 0
 606 0174 1843     		orrs	r0, r0, r3
 607              	.LVL42:
 777:../../source/src/FWlib/src/stm32f10x_rcc.c **** }
 608              		.loc 1 777 0
 609 0176 5060     		str	r0, [r2, #4]
 778:../../source/src/FWlib/src/stm32f10x_rcc.c **** 
 610              		.loc 1 778 0
 611 0178 7047     		bx	lr
 612              	.L57:
 613 017a 00BF     		.align	2
 614              	.L56:
 615 017c 00100240 		.word	1073876992
 616              		.cfi_endproc
 617              	.LFE43:
 618              		.size	RCC_ADCCLKConfig, .-RCC_ADCCLKConfig
 619              		.align	1
 620              		.p2align 2,,3
 621              		.global	RCC_LSEConfig
 622              		.syntax unified
 623              		.thumb
ARM GAS  G:\Users\Jaxb\AppData\Local\Temp\ccqGEEDk.s 			page 37


 624              		.thumb_func
 625              		.fpu softvfp
 626              		.type	RCC_LSEConfig, %function
 627              	RCC_LSEConfig:
 628              	.LFB44:
 830:../../source/src/FWlib/src/stm32f10x_rcc.c ****   /* Check the parameters */
 629              		.loc 1 830 0
 630              		.cfi_startproc
 631              		@ args = 0, pretend = 0, frame = 0
 632              		@ frame_needed = 0, uses_anonymous_args = 0
 633              		@ link register save eliminated.
 634              	.LVL43:
 835:../../source/src/FWlib/src/stm32f10x_rcc.c ****   /* Reset LSEBYP bit */
 635              		.loc 1 835 0
 636 0180 0022     		movs	r2, #0
 637 0182 064B     		ldr	r3, .L63
 839:../../source/src/FWlib/src/stm32f10x_rcc.c ****   {
 638              		.loc 1 839 0
 639 0184 0128     		cmp	r0, #1
 835:../../source/src/FWlib/src/stm32f10x_rcc.c ****   /* Reset LSEBYP bit */
 640              		.loc 1 835 0
 641 0186 1A70     		strb	r2, [r3]
 837:../../source/src/FWlib/src/stm32f10x_rcc.c ****   /* Configure LSE (RCC_LSE_OFF is already covered by the code section above) */
 642              		.loc 1 837 0
 643 0188 1A70     		strb	r2, [r3]
 839:../../source/src/FWlib/src/stm32f10x_rcc.c ****   {
 644              		.loc 1 839 0
 645 018a 05D0     		beq	.L60
 646 018c 0428     		cmp	r0, #4
 647 018e 02D1     		bne	.L62
 848:../../source/src/FWlib/src/stm32f10x_rcc.c ****       break;            
 648              		.loc 1 848 0
 649 0190 0522     		movs	r2, #5
 650 0192 1A70     		strb	r2, [r3]
 854:../../source/src/FWlib/src/stm32f10x_rcc.c **** 
 651              		.loc 1 854 0
 652 0194 7047     		bx	lr
 653              	.L62:
 654 0196 7047     		bx	lr
 655              	.L60:
 843:../../source/src/FWlib/src/stm32f10x_rcc.c ****       break;
 656              		.loc 1 843 0
 657 0198 1870     		strb	r0, [r3]
 844:../../source/src/FWlib/src/stm32f10x_rcc.c ****       
 658              		.loc 1 844 0
 659 019a 7047     		bx	lr
 660              	.L64:
 661              		.align	2
 662              	.L63:
 663 019c 20100240 		.word	1073877024
 664              		.cfi_endproc
 665              	.LFE44:
 666              		.size	RCC_LSEConfig, .-RCC_LSEConfig
 667              		.align	1
 668              		.p2align 2,,3
 669              		.global	RCC_LSICmd
 670              		.syntax unified
ARM GAS  G:\Users\Jaxb\AppData\Local\Temp\ccqGEEDk.s 			page 38


 671              		.thumb
 672              		.thumb_func
 673              		.fpu softvfp
 674              		.type	RCC_LSICmd, %function
 675              	RCC_LSICmd:
 676              	.LFB45:
 863:../../source/src/FWlib/src/stm32f10x_rcc.c ****   /* Check the parameters */
 677              		.loc 1 863 0
 678              		.cfi_startproc
 679              		@ args = 0, pretend = 0, frame = 0
 680              		@ frame_needed = 0, uses_anonymous_args = 0
 681              		@ link register save eliminated.
 682              	.LVL44:
 866:../../source/src/FWlib/src/stm32f10x_rcc.c **** }
 683              		.loc 1 866 0
 684 01a0 014B     		ldr	r3, .L66
 685 01a2 1860     		str	r0, [r3]
 867:../../source/src/FWlib/src/stm32f10x_rcc.c **** 
 686              		.loc 1 867 0
 687 01a4 7047     		bx	lr
 688              	.L67:
 689 01a6 00BF     		.align	2
 690              	.L66:
 691 01a8 80044242 		.word	1111622784
 692              		.cfi_endproc
 693              	.LFE45:
 694              		.size	RCC_LSICmd, .-RCC_LSICmd
 695              		.align	1
 696              		.p2align 2,,3
 697              		.global	RCC_RTCCLKConfig
 698              		.syntax unified
 699              		.thumb
 700              		.thumb_func
 701              		.fpu softvfp
 702              		.type	RCC_RTCCLKConfig, %function
 703              	RCC_RTCCLKConfig:
 704              	.LFB46:
 880:../../source/src/FWlib/src/stm32f10x_rcc.c ****   /* Check the parameters */
 705              		.loc 1 880 0
 706              		.cfi_startproc
 707              		@ args = 0, pretend = 0, frame = 0
 708              		@ frame_needed = 0, uses_anonymous_args = 0
 709              		@ link register save eliminated.
 710              	.LVL45:
 884:../../source/src/FWlib/src/stm32f10x_rcc.c **** }
 711              		.loc 1 884 0
 712 01ac 024A     		ldr	r2, .L69
 713 01ae 136A     		ldr	r3, [r2, #32]
 714 01b0 1843     		orrs	r0, r0, r3
 715              	.LVL46:
 716 01b2 1062     		str	r0, [r2, #32]
 885:../../source/src/FWlib/src/stm32f10x_rcc.c **** 
 717              		.loc 1 885 0
 718 01b4 7047     		bx	lr
 719              	.L70:
 720 01b6 00BF     		.align	2
 721              	.L69:
ARM GAS  G:\Users\Jaxb\AppData\Local\Temp\ccqGEEDk.s 			page 39


 722 01b8 00100240 		.word	1073876992
 723              		.cfi_endproc
 724              	.LFE46:
 725              		.size	RCC_RTCCLKConfig, .-RCC_RTCCLKConfig
 726              		.align	1
 727              		.p2align 2,,3
 728              		.global	RCC_RTCCLKCmd
 729              		.syntax unified
 730              		.thumb
 731              		.thumb_func
 732              		.fpu softvfp
 733              		.type	RCC_RTCCLKCmd, %function
 734              	RCC_RTCCLKCmd:
 735              	.LFB47:
 894:../../source/src/FWlib/src/stm32f10x_rcc.c ****   /* Check the parameters */
 736              		.loc 1 894 0
 737              		.cfi_startproc
 738              		@ args = 0, pretend = 0, frame = 0
 739              		@ frame_needed = 0, uses_anonymous_args = 0
 740              		@ link register save eliminated.
 741              	.LVL47:
 897:../../source/src/FWlib/src/stm32f10x_rcc.c **** }
 742              		.loc 1 897 0
 743 01bc 014B     		ldr	r3, .L72
 744 01be 1860     		str	r0, [r3]
 898:../../source/src/FWlib/src/stm32f10x_rcc.c **** 
 745              		.loc 1 898 0
 746 01c0 7047     		bx	lr
 747              	.L73:
 748 01c2 00BF     		.align	2
 749              	.L72:
 750 01c4 3C044242 		.word	1111622716
 751              		.cfi_endproc
 752              	.LFE47:
 753              		.size	RCC_RTCCLKCmd, .-RCC_RTCCLKCmd
 754              		.align	1
 755              		.p2align 2,,3
 756              		.global	RCC_GetClocksFreq
 757              		.syntax unified
 758              		.thumb
 759              		.thumb_func
 760              		.fpu softvfp
 761              		.type	RCC_GetClocksFreq, %function
 762              	RCC_GetClocksFreq:
 763              	.LFB48:
 909:../../source/src/FWlib/src/stm32f10x_rcc.c ****   uint32_t tmp = 0, pllmull = 0, pllsource = 0, presc = 0;
 764              		.loc 1 909 0
 765              		.cfi_startproc
 766              		@ args = 0, pretend = 0, frame = 0
 767              		@ frame_needed = 0, uses_anonymous_args = 0
 768              		@ link register save eliminated.
 769              	.LVL48:
 921:../../source/src/FWlib/src/stm32f10x_rcc.c ****   
 770              		.loc 1 921 0
 771 01c8 1E4A     		ldr	r2, .L82
 909:../../source/src/FWlib/src/stm32f10x_rcc.c ****   uint32_t tmp = 0, pllmull = 0, pllsource = 0, presc = 0;
 772              		.loc 1 909 0
ARM GAS  G:\Users\Jaxb\AppData\Local\Temp\ccqGEEDk.s 			page 40


 773 01ca 10B4     		push	{r4}
 774              	.LCFI2:
 775              		.cfi_def_cfa_offset 4
 776              		.cfi_offset 4, -4
 921:../../source/src/FWlib/src/stm32f10x_rcc.c ****   
 777              		.loc 1 921 0
 778 01cc 5368     		ldr	r3, [r2, #4]
 779              	.LVL49:
 780 01ce 03F00C03 		and	r3, r3, #12
 781              	.LVL50:
 923:../../source/src/FWlib/src/stm32f10x_rcc.c ****   {
 782              		.loc 1 923 0
 783 01d2 082B     		cmp	r3, #8
 784 01d4 0FD1     		bne	.L81
 934:../../source/src/FWlib/src/stm32f10x_rcc.c ****       pllsource = RCC->CFGR & CFGR_PLLSRC_Mask;
 785              		.loc 1 934 0
 786 01d6 5368     		ldr	r3, [r2, #4]
 787              	.LVL51:
 935:../../source/src/FWlib/src/stm32f10x_rcc.c ****       
 788              		.loc 1 935 0
 789 01d8 5168     		ldr	r1, [r2, #4]
 790              	.LVL52:
 938:../../source/src/FWlib/src/stm32f10x_rcc.c ****       
 791              		.loc 1 938 0
 792 01da C3F38343 		ubfx	r3, r3, #18, #4
 793              	.LVL53:
 940:../../source/src/FWlib/src/stm32f10x_rcc.c ****       {/* HSI oscillator clock divided by 2 selected as PLL clock entry */
 794              		.loc 1 940 0
 795 01de C903     		lsls	r1, r1, #15
 796              	.LVL54:
 938:../../source/src/FWlib/src/stm32f10x_rcc.c ****       
 797              		.loc 1 938 0
 798 01e0 03F10203 		add	r3, r3, #2
 799              	.LVL55:
 940:../../source/src/FWlib/src/stm32f10x_rcc.c ****       {/* HSI oscillator clock divided by 2 selected as PLL clock entry */
 800              		.loc 1 940 0
 801 01e4 28D5     		bpl	.L80
 952:../../source/src/FWlib/src/stm32f10x_rcc.c ****         {/* HSE oscillator clock divided by 2 */
 802              		.loc 1 952 0
 803 01e6 5268     		ldr	r2, [r2, #4]
 804 01e8 9203     		lsls	r2, r2, #14
 805 01ea 25D4     		bmi	.L80
 958:../../source/src/FWlib/src/stm32f10x_rcc.c ****         }
 806              		.loc 1 958 0
 807 01ec 164A     		ldr	r2, .L82+4
 808 01ee 02FB03F3 		mul	r3, r2, r3
 809              	.LVL56:
 810 01f2 0360     		str	r3, [r0]
 811 01f4 01E0     		b	.L77
 812              	.LVL57:
 813              	.L81:
 926:../../source/src/FWlib/src/stm32f10x_rcc.c ****       break;
 814              		.loc 1 926 0
 815 01f6 144B     		ldr	r3, .L82+4
 816              	.LVL58:
 817 01f8 0360     		str	r3, [r0]
 818              	.LVL59:
ARM GAS  G:\Users\Jaxb\AppData\Local\Temp\ccqGEEDk.s 			page 41


 819              	.L77:
1008:../../source/src/FWlib/src/stm32f10x_rcc.c ****   tmp = tmp >> 4;
 820              		.loc 1 1008 0
 821 01fa 1249     		ldr	r1, .L82
1010:../../source/src/FWlib/src/stm32f10x_rcc.c ****   /* HCLK clock frequency */
 822              		.loc 1 1010 0
 823 01fc 134A     		ldr	r2, .L82+8
1008:../../source/src/FWlib/src/stm32f10x_rcc.c ****   tmp = tmp >> 4;
 824              		.loc 1 1008 0
 825 01fe 4C68     		ldr	r4, [r1, #4]
 826              	.LVL60:
1009:../../source/src/FWlib/src/stm32f10x_rcc.c ****   presc = APBAHBPrescTable[tmp];
 827              		.loc 1 1009 0
 828 0200 C4F30314 		ubfx	r4, r4, #4, #4
 829              	.LVL61:
1010:../../source/src/FWlib/src/stm32f10x_rcc.c ****   /* HCLK clock frequency */
 830              		.loc 1 1010 0
 831 0204 145D     		ldrb	r4, [r2, r4]	@ zero_extendqisi2
 832              	.LVL62:
1012:../../source/src/FWlib/src/stm32f10x_rcc.c ****   /* Get PCLK1 prescaler */
 833              		.loc 1 1012 0
 834 0206 E340     		lsrs	r3, r3, r4
 835 0208 4360     		str	r3, [r0, #4]
1014:../../source/src/FWlib/src/stm32f10x_rcc.c ****   tmp = tmp >> 8;
 836              		.loc 1 1014 0
 837 020a 4C68     		ldr	r4, [r1, #4]
 838              	.LVL63:
1015:../../source/src/FWlib/src/stm32f10x_rcc.c ****   presc = APBAHBPrescTable[tmp];
 839              		.loc 1 1015 0
 840 020c C4F30224 		ubfx	r4, r4, #8, #3
 841              	.LVL64:
1016:../../source/src/FWlib/src/stm32f10x_rcc.c ****   /* PCLK1 clock frequency */
 842              		.loc 1 1016 0
 843 0210 145D     		ldrb	r4, [r2, r4]	@ zero_extendqisi2
 844              	.LVL65:
1018:../../source/src/FWlib/src/stm32f10x_rcc.c ****   /* Get PCLK2 prescaler */
 845              		.loc 1 1018 0
 846 0212 23FA04F4 		lsr	r4, r3, r4
 847              	.LVL66:
 848 0216 8460     		str	r4, [r0, #8]
1020:../../source/src/FWlib/src/stm32f10x_rcc.c ****   tmp = tmp >> 11;
 849              		.loc 1 1020 0
 850 0218 4C68     		ldr	r4, [r1, #4]
 851              	.LVL67:
1021:../../source/src/FWlib/src/stm32f10x_rcc.c ****   presc = APBAHBPrescTable[tmp];
 852              		.loc 1 1021 0
 853 021a C4F3C224 		ubfx	r4, r4, #11, #3
 854              	.LVL68:
1022:../../source/src/FWlib/src/stm32f10x_rcc.c ****   /* PCLK2 clock frequency */
 855              		.loc 1 1022 0
 856 021e 145D     		ldrb	r4, [r2, r4]	@ zero_extendqisi2
 857              	.LVL69:
1024:../../source/src/FWlib/src/stm32f10x_rcc.c ****   /* Get ADCCLK prescaler */
 858              		.loc 1 1024 0
 859 0220 E340     		lsrs	r3, r3, r4
 860 0222 C360     		str	r3, [r0, #12]
1026:../../source/src/FWlib/src/stm32f10x_rcc.c ****   tmp = tmp >> 14;
ARM GAS  G:\Users\Jaxb\AppData\Local\Temp\ccqGEEDk.s 			page 42


 861              		.loc 1 1026 0
 862 0224 4968     		ldr	r1, [r1, #4]
 863              	.LVL70:
1031:../../source/src/FWlib/src/stm32f10x_rcc.c **** 
 864              		.loc 1 1031 0
 865 0226 10BC     		pop	{r4}
 866              	.LCFI3:
 867              		.cfi_remember_state
 868              		.cfi_restore 4
 869              		.cfi_def_cfa_offset 0
 870              	.LVL71:
1027:../../source/src/FWlib/src/stm32f10x_rcc.c ****   presc = ADCPrescTable[tmp];
 871              		.loc 1 1027 0
 872 0228 C1F38131 		ubfx	r1, r1, #14, #2
 873              	.LVL72:
1028:../../source/src/FWlib/src/stm32f10x_rcc.c ****   /* ADCCLK clock frequency */
 874              		.loc 1 1028 0
 875 022c 0A44     		add	r2, r2, r1
 876 022e 127C     		ldrb	r2, [r2, #16]	@ zero_extendqisi2
 877              	.LVL73:
1030:../../source/src/FWlib/src/stm32f10x_rcc.c **** }
 878              		.loc 1 1030 0
 879 0230 B3FBF2F3 		udiv	r3, r3, r2
 880 0234 0361     		str	r3, [r0, #16]
1031:../../source/src/FWlib/src/stm32f10x_rcc.c **** 
 881              		.loc 1 1031 0
 882 0236 7047     		bx	lr
 883              	.LVL74:
 884              	.L80:
 885              	.LCFI4:
 886              		.cfi_restore_state
 954:../../source/src/FWlib/src/stm32f10x_rcc.c ****         }
 887              		.loc 1 954 0
 888 0238 054A     		ldr	r2, .L82+12
 889 023a 02FB03F3 		mul	r3, r2, r3
 890              	.LVL75:
 891 023e 0360     		str	r3, [r0]
 892 0240 DBE7     		b	.L77
 893              	.L83:
 894 0242 00BF     		.align	2
 895              	.L82:
 896 0244 00100240 		.word	1073876992
 897 0248 00127A00 		.word	8000000
 898 024c 00000000 		.word	.LANCHOR0
 899 0250 00093D00 		.word	4000000
 900              		.cfi_endproc
 901              	.LFE48:
 902              		.size	RCC_GetClocksFreq, .-RCC_GetClocksFreq
 903              		.align	1
 904              		.p2align 2,,3
 905              		.global	RCC_AHBPeriphClockCmd
 906              		.syntax unified
 907              		.thumb
 908              		.thumb_func
 909              		.fpu softvfp
 910              		.type	RCC_AHBPeriphClockCmd, %function
 911              	RCC_AHBPeriphClockCmd:
ARM GAS  G:\Users\Jaxb\AppData\Local\Temp\ccqGEEDk.s 			page 43


 912              	.LFB49:
1065:../../source/src/FWlib/src/stm32f10x_rcc.c ****   /* Check the parameters */
 913              		.loc 1 1065 0
 914              		.cfi_startproc
 915              		@ args = 0, pretend = 0, frame = 0
 916              		@ frame_needed = 0, uses_anonymous_args = 0
 917              		@ link register save eliminated.
 918              	.LVL76:
1072:../../source/src/FWlib/src/stm32f10x_rcc.c ****   }
 919              		.loc 1 1072 0
 920 0254 044A     		ldr	r2, .L88
 921 0256 5369     		ldr	r3, [r2, #20]
1070:../../source/src/FWlib/src/stm32f10x_rcc.c ****   {
 922              		.loc 1 1070 0
 923 0258 19B9     		cbnz	r1, .L87
1076:../../source/src/FWlib/src/stm32f10x_rcc.c ****   }
 924              		.loc 1 1076 0
 925 025a 23EA0000 		bic	r0, r3, r0
 926              	.LVL77:
 927 025e 5061     		str	r0, [r2, #20]
1078:../../source/src/FWlib/src/stm32f10x_rcc.c **** 
 928              		.loc 1 1078 0
 929 0260 7047     		bx	lr
 930              	.LVL78:
 931              	.L87:
1072:../../source/src/FWlib/src/stm32f10x_rcc.c ****   }
 932              		.loc 1 1072 0
 933 0262 1843     		orrs	r0, r0, r3
 934              	.LVL79:
 935 0264 5061     		str	r0, [r2, #20]
 936 0266 7047     		bx	lr
 937              	.L89:
 938              		.align	2
 939              	.L88:
 940 0268 00100240 		.word	1073876992
 941              		.cfi_endproc
 942              	.LFE49:
 943              		.size	RCC_AHBPeriphClockCmd, .-RCC_AHBPeriphClockCmd
 944              		.align	1
 945              		.p2align 2,,3
 946              		.global	RCC_APB2PeriphClockCmd
 947              		.syntax unified
 948              		.thumb
 949              		.thumb_func
 950              		.fpu softvfp
 951              		.type	RCC_APB2PeriphClockCmd, %function
 952              	RCC_APB2PeriphClockCmd:
 953              	.LFB50:
1096:../../source/src/FWlib/src/stm32f10x_rcc.c ****   /* Check the parameters */
 954              		.loc 1 1096 0
 955              		.cfi_startproc
 956              		@ args = 0, pretend = 0, frame = 0
 957              		@ frame_needed = 0, uses_anonymous_args = 0
 958              		@ link register save eliminated.
 959              	.LVL80:
1102:../../source/src/FWlib/src/stm32f10x_rcc.c ****   }
 960              		.loc 1 1102 0
ARM GAS  G:\Users\Jaxb\AppData\Local\Temp\ccqGEEDk.s 			page 44


 961 026c 044A     		ldr	r2, .L94
 962 026e 9369     		ldr	r3, [r2, #24]
1100:../../source/src/FWlib/src/stm32f10x_rcc.c ****   {
 963              		.loc 1 1100 0
 964 0270 19B9     		cbnz	r1, .L93
1106:../../source/src/FWlib/src/stm32f10x_rcc.c ****   }
 965              		.loc 1 1106 0
 966 0272 23EA0000 		bic	r0, r3, r0
 967              	.LVL81:
 968 0276 9061     		str	r0, [r2, #24]
1108:../../source/src/FWlib/src/stm32f10x_rcc.c **** 
 969              		.loc 1 1108 0
 970 0278 7047     		bx	lr
 971              	.LVL82:
 972              	.L93:
1102:../../source/src/FWlib/src/stm32f10x_rcc.c ****   }
 973              		.loc 1 1102 0
 974 027a 1843     		orrs	r0, r0, r3
 975              	.LVL83:
 976 027c 9061     		str	r0, [r2, #24]
 977 027e 7047     		bx	lr
 978              	.L95:
 979              		.align	2
 980              	.L94:
 981 0280 00100240 		.word	1073876992
 982              		.cfi_endproc
 983              	.LFE50:
 984              		.size	RCC_APB2PeriphClockCmd, .-RCC_APB2PeriphClockCmd
 985              		.align	1
 986              		.p2align 2,,3
 987              		.global	RCC_APB1PeriphClockCmd
 988              		.syntax unified
 989              		.thumb
 990              		.thumb_func
 991              		.fpu softvfp
 992              		.type	RCC_APB1PeriphClockCmd, %function
 993              	RCC_APB1PeriphClockCmd:
 994              	.LFB51:
1127:../../source/src/FWlib/src/stm32f10x_rcc.c ****   /* Check the parameters */
 995              		.loc 1 1127 0
 996              		.cfi_startproc
 997              		@ args = 0, pretend = 0, frame = 0
 998              		@ frame_needed = 0, uses_anonymous_args = 0
 999              		@ link register save eliminated.
 1000              	.LVL84:
1133:../../source/src/FWlib/src/stm32f10x_rcc.c ****   }
 1001              		.loc 1 1133 0
 1002 0284 044A     		ldr	r2, .L100
 1003 0286 D369     		ldr	r3, [r2, #28]
1131:../../source/src/FWlib/src/stm32f10x_rcc.c ****   {
 1004              		.loc 1 1131 0
 1005 0288 19B9     		cbnz	r1, .L99
1137:../../source/src/FWlib/src/stm32f10x_rcc.c ****   }
 1006              		.loc 1 1137 0
 1007 028a 23EA0000 		bic	r0, r3, r0
 1008              	.LVL85:
 1009 028e D061     		str	r0, [r2, #28]
ARM GAS  G:\Users\Jaxb\AppData\Local\Temp\ccqGEEDk.s 			page 45


1139:../../source/src/FWlib/src/stm32f10x_rcc.c **** 
 1010              		.loc 1 1139 0
 1011 0290 7047     		bx	lr
 1012              	.LVL86:
 1013              	.L99:
1133:../../source/src/FWlib/src/stm32f10x_rcc.c ****   }
 1014              		.loc 1 1133 0
 1015 0292 1843     		orrs	r0, r0, r3
 1016              	.LVL87:
 1017 0294 D061     		str	r0, [r2, #28]
 1018 0296 7047     		bx	lr
 1019              	.L101:
 1020              		.align	2
 1021              	.L100:
 1022 0298 00100240 		.word	1073876992
 1023              		.cfi_endproc
 1024              	.LFE51:
 1025              		.size	RCC_APB1PeriphClockCmd, .-RCC_APB1PeriphClockCmd
 1026              		.align	1
 1027              		.p2align 2,,3
 1028              		.global	RCC_APB2PeriphResetCmd
 1029              		.syntax unified
 1030              		.thumb
 1031              		.thumb_func
 1032              		.fpu softvfp
 1033              		.type	RCC_APB2PeriphResetCmd, %function
 1034              	RCC_APB2PeriphResetCmd:
 1035              	.LFB52:
1186:../../source/src/FWlib/src/stm32f10x_rcc.c ****   /* Check the parameters */
 1036              		.loc 1 1186 0
 1037              		.cfi_startproc
 1038              		@ args = 0, pretend = 0, frame = 0
 1039              		@ frame_needed = 0, uses_anonymous_args = 0
 1040              		@ link register save eliminated.
 1041              	.LVL88:
1192:../../source/src/FWlib/src/stm32f10x_rcc.c ****   }
 1042              		.loc 1 1192 0
 1043 029c 044A     		ldr	r2, .L106
 1044 029e D368     		ldr	r3, [r2, #12]
1190:../../source/src/FWlib/src/stm32f10x_rcc.c ****   {
 1045              		.loc 1 1190 0
 1046 02a0 19B9     		cbnz	r1, .L105
1196:../../source/src/FWlib/src/stm32f10x_rcc.c ****   }
 1047              		.loc 1 1196 0
 1048 02a2 23EA0000 		bic	r0, r3, r0
 1049              	.LVL89:
 1050 02a6 D060     		str	r0, [r2, #12]
1198:../../source/src/FWlib/src/stm32f10x_rcc.c **** 
 1051              		.loc 1 1198 0
 1052 02a8 7047     		bx	lr
 1053              	.LVL90:
 1054              	.L105:
1192:../../source/src/FWlib/src/stm32f10x_rcc.c ****   }
 1055              		.loc 1 1192 0
 1056 02aa 1843     		orrs	r0, r0, r3
 1057              	.LVL91:
 1058 02ac D060     		str	r0, [r2, #12]
ARM GAS  G:\Users\Jaxb\AppData\Local\Temp\ccqGEEDk.s 			page 46


 1059 02ae 7047     		bx	lr
 1060              	.L107:
 1061              		.align	2
 1062              	.L106:
 1063 02b0 00100240 		.word	1073876992
 1064              		.cfi_endproc
 1065              	.LFE52:
 1066              		.size	RCC_APB2PeriphResetCmd, .-RCC_APB2PeriphResetCmd
 1067              		.align	1
 1068              		.p2align 2,,3
 1069              		.global	RCC_APB1PeriphResetCmd
 1070              		.syntax unified
 1071              		.thumb
 1072              		.thumb_func
 1073              		.fpu softvfp
 1074              		.type	RCC_APB1PeriphResetCmd, %function
 1075              	RCC_APB1PeriphResetCmd:
 1076              	.LFB53:
1217:../../source/src/FWlib/src/stm32f10x_rcc.c ****   /* Check the parameters */
 1077              		.loc 1 1217 0
 1078              		.cfi_startproc
 1079              		@ args = 0, pretend = 0, frame = 0
 1080              		@ frame_needed = 0, uses_anonymous_args = 0
 1081              		@ link register save eliminated.
 1082              	.LVL92:
1223:../../source/src/FWlib/src/stm32f10x_rcc.c ****   }
 1083              		.loc 1 1223 0
 1084 02b4 044A     		ldr	r2, .L112
 1085 02b6 1369     		ldr	r3, [r2, #16]
1221:../../source/src/FWlib/src/stm32f10x_rcc.c ****   {
 1086              		.loc 1 1221 0
 1087 02b8 19B9     		cbnz	r1, .L111
1227:../../source/src/FWlib/src/stm32f10x_rcc.c ****   }
 1088              		.loc 1 1227 0
 1089 02ba 23EA0000 		bic	r0, r3, r0
 1090              	.LVL93:
 1091 02be 1061     		str	r0, [r2, #16]
1229:../../source/src/FWlib/src/stm32f10x_rcc.c **** 
 1092              		.loc 1 1229 0
 1093 02c0 7047     		bx	lr
 1094              	.LVL94:
 1095              	.L111:
1223:../../source/src/FWlib/src/stm32f10x_rcc.c ****   }
 1096              		.loc 1 1223 0
 1097 02c2 1843     		orrs	r0, r0, r3
 1098              	.LVL95:
 1099 02c4 1061     		str	r0, [r2, #16]
 1100 02c6 7047     		bx	lr
 1101              	.L113:
 1102              		.align	2
 1103              	.L112:
 1104 02c8 00100240 		.word	1073876992
 1105              		.cfi_endproc
 1106              	.LFE53:
 1107              		.size	RCC_APB1PeriphResetCmd, .-RCC_APB1PeriphResetCmd
 1108              		.align	1
 1109              		.p2align 2,,3
ARM GAS  G:\Users\Jaxb\AppData\Local\Temp\ccqGEEDk.s 			page 47


 1110              		.global	RCC_BackupResetCmd
 1111              		.syntax unified
 1112              		.thumb
 1113              		.thumb_func
 1114              		.fpu softvfp
 1115              		.type	RCC_BackupResetCmd, %function
 1116              	RCC_BackupResetCmd:
 1117              	.LFB54:
1238:../../source/src/FWlib/src/stm32f10x_rcc.c ****   /* Check the parameters */
 1118              		.loc 1 1238 0
 1119              		.cfi_startproc
 1120              		@ args = 0, pretend = 0, frame = 0
 1121              		@ frame_needed = 0, uses_anonymous_args = 0
 1122              		@ link register save eliminated.
 1123              	.LVL96:
1241:../../source/src/FWlib/src/stm32f10x_rcc.c **** }
 1124              		.loc 1 1241 0
 1125 02cc 014B     		ldr	r3, .L115
 1126 02ce 1860     		str	r0, [r3]
1242:../../source/src/FWlib/src/stm32f10x_rcc.c **** 
 1127              		.loc 1 1242 0
 1128 02d0 7047     		bx	lr
 1129              	.L116:
 1130 02d2 00BF     		.align	2
 1131              	.L115:
 1132 02d4 40044242 		.word	1111622720
 1133              		.cfi_endproc
 1134              	.LFE54:
 1135              		.size	RCC_BackupResetCmd, .-RCC_BackupResetCmd
 1136              		.align	1
 1137              		.p2align 2,,3
 1138              		.global	RCC_ClockSecuritySystemCmd
 1139              		.syntax unified
 1140              		.thumb
 1141              		.thumb_func
 1142              		.fpu softvfp
 1143              		.type	RCC_ClockSecuritySystemCmd, %function
 1144              	RCC_ClockSecuritySystemCmd:
 1145              	.LFB55:
1251:../../source/src/FWlib/src/stm32f10x_rcc.c ****   /* Check the parameters */
 1146              		.loc 1 1251 0
 1147              		.cfi_startproc
 1148              		@ args = 0, pretend = 0, frame = 0
 1149              		@ frame_needed = 0, uses_anonymous_args = 0
 1150              		@ link register save eliminated.
 1151              	.LVL97:
1254:../../source/src/FWlib/src/stm32f10x_rcc.c **** }
 1152              		.loc 1 1254 0
 1153 02d8 014B     		ldr	r3, .L118
 1154 02da 1860     		str	r0, [r3]
1255:../../source/src/FWlib/src/stm32f10x_rcc.c **** 
 1155              		.loc 1 1255 0
 1156 02dc 7047     		bx	lr
 1157              	.L119:
 1158 02de 00BF     		.align	2
 1159              	.L118:
 1160 02e0 4C004242 		.word	1111621708
ARM GAS  G:\Users\Jaxb\AppData\Local\Temp\ccqGEEDk.s 			page 48


 1161              		.cfi_endproc
 1162              	.LFE55:
 1163              		.size	RCC_ClockSecuritySystemCmd, .-RCC_ClockSecuritySystemCmd
 1164              		.align	1
 1165              		.p2align 2,,3
 1166              		.global	RCC_MCOConfig
 1167              		.syntax unified
 1168              		.thumb
 1169              		.thumb_func
 1170              		.fpu softvfp
 1171              		.type	RCC_MCOConfig, %function
 1172              	RCC_MCOConfig:
 1173              	.LFB56:
1283:../../source/src/FWlib/src/stm32f10x_rcc.c ****   /* Check the parameters */
 1174              		.loc 1 1283 0
 1175              		.cfi_startproc
 1176              		@ args = 0, pretend = 0, frame = 0
 1177              		@ frame_needed = 0, uses_anonymous_args = 0
 1178              		@ link register save eliminated.
 1179              	.LVL98:
1288:../../source/src/FWlib/src/stm32f10x_rcc.c **** }
 1180              		.loc 1 1288 0
 1181 02e4 014B     		ldr	r3, .L121
 1182 02e6 1870     		strb	r0, [r3]
1289:../../source/src/FWlib/src/stm32f10x_rcc.c **** 
 1183              		.loc 1 1289 0
 1184 02e8 7047     		bx	lr
 1185              	.L122:
 1186 02ea 00BF     		.align	2
 1187              	.L121:
 1188 02ec 07100240 		.word	1073876999
 1189              		.cfi_endproc
 1190              	.LFE56:
 1191              		.size	RCC_MCOConfig, .-RCC_MCOConfig
 1192              		.align	1
 1193              		.p2align 2,,3
 1194              		.global	RCC_GetFlagStatus
 1195              		.syntax unified
 1196              		.thumb
 1197              		.thumb_func
 1198              		.fpu softvfp
 1199              		.type	RCC_GetFlagStatus, %function
 1200              	RCC_GetFlagStatus:
 1201              	.LFB57:
1327:../../source/src/FWlib/src/stm32f10x_rcc.c ****   uint32_t tmp = 0;
 1202              		.loc 1 1327 0
 1203              		.cfi_startproc
 1204              		@ args = 0, pretend = 0, frame = 0
 1205              		@ frame_needed = 0, uses_anonymous_args = 0
 1206              		@ link register save eliminated.
 1207              	.LVL99:
1335:../../source/src/FWlib/src/stm32f10x_rcc.c ****   if (tmp == 1)               /* The flag to check is in CR register */
 1208              		.loc 1 1335 0
 1209 02f0 4309     		lsrs	r3, r0, #5
 1210              	.LVL100:
1336:../../source/src/FWlib/src/stm32f10x_rcc.c ****   {
 1211              		.loc 1 1336 0
ARM GAS  G:\Users\Jaxb\AppData\Local\Temp\ccqGEEDk.s 			page 49


 1212 02f2 012B     		cmp	r3, #1
 1213 02f4 0BD0     		beq	.L127
1340:../../source/src/FWlib/src/stm32f10x_rcc.c ****   {
 1214              		.loc 1 1340 0
 1215 02f6 022B     		cmp	r3, #2
1342:../../source/src/FWlib/src/stm32f10x_rcc.c ****   }
 1216              		.loc 1 1342 0
 1217 02f8 094B     		ldr	r3, .L128
 1218              	.LVL101:
1350:../../source/src/FWlib/src/stm32f10x_rcc.c ****   if ((statusreg & ((uint32_t)1 << tmp)) != (uint32_t)RESET)
 1219              		.loc 1 1350 0
 1220 02fa 00F01F00 		and	r0, r0, #31
 1221              	.LVL102:
1342:../../source/src/FWlib/src/stm32f10x_rcc.c ****   }
 1222              		.loc 1 1342 0
 1223 02fe 0CBF     		ite	eq
 1224 0300 1B6A     		ldreq	r3, [r3, #32]
 1225              	.LVL103:
1346:../../source/src/FWlib/src/stm32f10x_rcc.c ****   }
 1226              		.loc 1 1346 0
 1227 0302 5B6A     		ldrne	r3, [r3, #36]
 1228              	.LVL104:
 1229              		.loc 1 1351 0
 1230 0304 23FA00F0 		lsr	r0, r3, r0
1352:../../source/src/FWlib/src/stm32f10x_rcc.c ****   {
1353:../../source/src/FWlib/src/stm32f10x_rcc.c ****     bitstatus = SET;
1354:../../source/src/FWlib/src/stm32f10x_rcc.c ****   }
1355:../../source/src/FWlib/src/stm32f10x_rcc.c ****   else
1356:../../source/src/FWlib/src/stm32f10x_rcc.c ****   {
1357:../../source/src/FWlib/src/stm32f10x_rcc.c ****     bitstatus = RESET;
1358:../../source/src/FWlib/src/stm32f10x_rcc.c ****   }
1359:../../source/src/FWlib/src/stm32f10x_rcc.c **** 
1360:../../source/src/FWlib/src/stm32f10x_rcc.c ****   /* Return the flag status */
1361:../../source/src/FWlib/src/stm32f10x_rcc.c ****   return bitstatus;
1362:../../source/src/FWlib/src/stm32f10x_rcc.c **** }
 1231              		.loc 1 1362 0
 1232 0308 00F00100 		and	r0, r0, #1
 1233 030c 7047     		bx	lr
 1234              	.LVL105:
 1235              	.L127:
1338:../../source/src/FWlib/src/stm32f10x_rcc.c ****   }
 1236              		.loc 1 1338 0
 1237 030e 044B     		ldr	r3, .L128
 1238              	.LVL106:
1350:../../source/src/FWlib/src/stm32f10x_rcc.c ****   if ((statusreg & ((uint32_t)1 << tmp)) != (uint32_t)RESET)
 1239              		.loc 1 1350 0
 1240 0310 00F01F00 		and	r0, r0, #31
 1241              	.LVL107:
1338:../../source/src/FWlib/src/stm32f10x_rcc.c ****   }
 1242              		.loc 1 1338 0
 1243 0314 1B68     		ldr	r3, [r3]
 1244              	.LVL108:
1351:../../source/src/FWlib/src/stm32f10x_rcc.c ****   {
 1245              		.loc 1 1351 0
 1246 0316 23FA00F0 		lsr	r0, r3, r0
 1247              		.loc 1 1362 0
 1248 031a 00F00100 		and	r0, r0, #1
ARM GAS  G:\Users\Jaxb\AppData\Local\Temp\ccqGEEDk.s 			page 50


 1249 031e 7047     		bx	lr
 1250              	.L129:
 1251              		.align	2
 1252              	.L128:
 1253 0320 00100240 		.word	1073876992
 1254              		.cfi_endproc
 1255              	.LFE57:
 1256              		.size	RCC_GetFlagStatus, .-RCC_GetFlagStatus
 1257              		.align	1
 1258              		.p2align 2,,3
 1259              		.global	RCC_ClearFlag
 1260              		.syntax unified
 1261              		.thumb
 1262              		.thumb_func
 1263              		.fpu softvfp
 1264              		.type	RCC_ClearFlag, %function
 1265              	RCC_ClearFlag:
 1266              	.LFB58:
1363:../../source/src/FWlib/src/stm32f10x_rcc.c **** 
1364:../../source/src/FWlib/src/stm32f10x_rcc.c **** /**
1365:../../source/src/FWlib/src/stm32f10x_rcc.c ****   * @brief  Clears the RCC reset flags.
1366:../../source/src/FWlib/src/stm32f10x_rcc.c ****   * @note   The reset flags are: RCC_FLAG_PINRST, RCC_FLAG_PORRST, RCC_FLAG_SFTRST,
1367:../../source/src/FWlib/src/stm32f10x_rcc.c ****   *   RCC_FLAG_IWDGRST, RCC_FLAG_WWDGRST, RCC_FLAG_LPWRRST
1368:../../source/src/FWlib/src/stm32f10x_rcc.c ****   * @param  None
1369:../../source/src/FWlib/src/stm32f10x_rcc.c ****   * @retval None
1370:../../source/src/FWlib/src/stm32f10x_rcc.c ****   */
1371:../../source/src/FWlib/src/stm32f10x_rcc.c **** void RCC_ClearFlag(void)
1372:../../source/src/FWlib/src/stm32f10x_rcc.c **** {
 1267              		.loc 1 1372 0
 1268              		.cfi_startproc
 1269              		@ args = 0, pretend = 0, frame = 0
 1270              		@ frame_needed = 0, uses_anonymous_args = 0
 1271              		@ link register save eliminated.
1373:../../source/src/FWlib/src/stm32f10x_rcc.c ****   /* Set RMVF bit to clear the reset flags */
1374:../../source/src/FWlib/src/stm32f10x_rcc.c ****   RCC->CSR |= CSR_RMVF_Set;
 1272              		.loc 1 1374 0
 1273 0324 024A     		ldr	r2, .L131
 1274 0326 536A     		ldr	r3, [r2, #36]
 1275 0328 43F08073 		orr	r3, r3, #16777216
 1276 032c 5362     		str	r3, [r2, #36]
1375:../../source/src/FWlib/src/stm32f10x_rcc.c **** }
 1277              		.loc 1 1375 0
 1278 032e 7047     		bx	lr
 1279              	.L132:
 1280              		.align	2
 1281              	.L131:
 1282 0330 00100240 		.word	1073876992
 1283              		.cfi_endproc
 1284              	.LFE58:
 1285              		.size	RCC_ClearFlag, .-RCC_ClearFlag
 1286              		.align	1
 1287              		.p2align 2,,3
 1288              		.global	RCC_GetITStatus
 1289              		.syntax unified
 1290              		.thumb
 1291              		.thumb_func
 1292              		.fpu softvfp
ARM GAS  G:\Users\Jaxb\AppData\Local\Temp\ccqGEEDk.s 			page 51


 1293              		.type	RCC_GetITStatus, %function
 1294              	RCC_GetITStatus:
 1295              	.LFB59:
1376:../../source/src/FWlib/src/stm32f10x_rcc.c **** 
1377:../../source/src/FWlib/src/stm32f10x_rcc.c **** /**
1378:../../source/src/FWlib/src/stm32f10x_rcc.c ****   * @brief  Checks whether the specified RCC interrupt has occurred or not.
1379:../../source/src/FWlib/src/stm32f10x_rcc.c ****   * @param  RCC_IT: specifies the RCC interrupt source to check.
1380:../../source/src/FWlib/src/stm32f10x_rcc.c ****   *   
1381:../../source/src/FWlib/src/stm32f10x_rcc.c ****   *   For @b STM32_Connectivity_line_devices, this parameter can be one of the
1382:../../source/src/FWlib/src/stm32f10x_rcc.c ****   *   following values:
1383:../../source/src/FWlib/src/stm32f10x_rcc.c ****   *     @arg RCC_IT_LSIRDY: LSI ready interrupt
1384:../../source/src/FWlib/src/stm32f10x_rcc.c ****   *     @arg RCC_IT_LSERDY: LSE ready interrupt
1385:../../source/src/FWlib/src/stm32f10x_rcc.c ****   *     @arg RCC_IT_HSIRDY: HSI ready interrupt
1386:../../source/src/FWlib/src/stm32f10x_rcc.c ****   *     @arg RCC_IT_HSERDY: HSE ready interrupt
1387:../../source/src/FWlib/src/stm32f10x_rcc.c ****   *     @arg RCC_IT_PLLRDY: PLL ready interrupt
1388:../../source/src/FWlib/src/stm32f10x_rcc.c ****   *     @arg RCC_IT_PLL2RDY: PLL2 ready interrupt 
1389:../../source/src/FWlib/src/stm32f10x_rcc.c ****   *     @arg RCC_IT_PLL3RDY: PLL3 ready interrupt                      
1390:../../source/src/FWlib/src/stm32f10x_rcc.c ****   *     @arg RCC_IT_CSS: Clock Security System interrupt
1391:../../source/src/FWlib/src/stm32f10x_rcc.c ****   * 
1392:../../source/src/FWlib/src/stm32f10x_rcc.c ****   *   For @b other_STM32_devices, this parameter can be one of the following values:        
1393:../../source/src/FWlib/src/stm32f10x_rcc.c ****   *     @arg RCC_IT_LSIRDY: LSI ready interrupt
1394:../../source/src/FWlib/src/stm32f10x_rcc.c ****   *     @arg RCC_IT_LSERDY: LSE ready interrupt
1395:../../source/src/FWlib/src/stm32f10x_rcc.c ****   *     @arg RCC_IT_HSIRDY: HSI ready interrupt
1396:../../source/src/FWlib/src/stm32f10x_rcc.c ****   *     @arg RCC_IT_HSERDY: HSE ready interrupt
1397:../../source/src/FWlib/src/stm32f10x_rcc.c ****   *     @arg RCC_IT_PLLRDY: PLL ready interrupt
1398:../../source/src/FWlib/src/stm32f10x_rcc.c ****   *     @arg RCC_IT_CSS: Clock Security System interrupt
1399:../../source/src/FWlib/src/stm32f10x_rcc.c ****   *   
1400:../../source/src/FWlib/src/stm32f10x_rcc.c ****   * @retval The new state of RCC_IT (SET or RESET).
1401:../../source/src/FWlib/src/stm32f10x_rcc.c ****   */
1402:../../source/src/FWlib/src/stm32f10x_rcc.c **** ITStatus RCC_GetITStatus(uint8_t RCC_IT)
1403:../../source/src/FWlib/src/stm32f10x_rcc.c **** {
 1296              		.loc 1 1403 0
 1297              		.cfi_startproc
 1298              		@ args = 0, pretend = 0, frame = 0
 1299              		@ frame_needed = 0, uses_anonymous_args = 0
 1300              		@ link register save eliminated.
 1301              	.LVL109:
1404:../../source/src/FWlib/src/stm32f10x_rcc.c ****   ITStatus bitstatus = RESET;
1405:../../source/src/FWlib/src/stm32f10x_rcc.c ****   /* Check the parameters */
1406:../../source/src/FWlib/src/stm32f10x_rcc.c ****   assert_param(IS_RCC_GET_IT(RCC_IT));
1407:../../source/src/FWlib/src/stm32f10x_rcc.c **** 
1408:../../source/src/FWlib/src/stm32f10x_rcc.c ****   /* Check the status of the specified RCC interrupt */
1409:../../source/src/FWlib/src/stm32f10x_rcc.c ****   if ((RCC->CIR & RCC_IT) != (uint32_t)RESET)
 1302              		.loc 1 1409 0
 1303 0334 034B     		ldr	r3, .L134
 1304 0336 9B68     		ldr	r3, [r3, #8]
 1305              	.LVL110:
 1306 0338 1842     		tst	r0, r3
1410:../../source/src/FWlib/src/stm32f10x_rcc.c ****   {
1411:../../source/src/FWlib/src/stm32f10x_rcc.c ****     bitstatus = SET;
1412:../../source/src/FWlib/src/stm32f10x_rcc.c ****   }
1413:../../source/src/FWlib/src/stm32f10x_rcc.c ****   else
1414:../../source/src/FWlib/src/stm32f10x_rcc.c ****   {
1415:../../source/src/FWlib/src/stm32f10x_rcc.c ****     bitstatus = RESET;
1416:../../source/src/FWlib/src/stm32f10x_rcc.c ****   }
1417:../../source/src/FWlib/src/stm32f10x_rcc.c **** 
1418:../../source/src/FWlib/src/stm32f10x_rcc.c ****   /* Return the RCC_IT status */
ARM GAS  G:\Users\Jaxb\AppData\Local\Temp\ccqGEEDk.s 			page 52


1419:../../source/src/FWlib/src/stm32f10x_rcc.c ****   return  bitstatus;
1420:../../source/src/FWlib/src/stm32f10x_rcc.c **** }
 1307              		.loc 1 1420 0
 1308 033a 14BF     		ite	ne
 1309 033c 0120     		movne	r0, #1
 1310              	.LVL111:
 1311 033e 0020     		moveq	r0, #0
 1312 0340 7047     		bx	lr
 1313              	.L135:
 1314 0342 00BF     		.align	2
 1315              	.L134:
 1316 0344 00100240 		.word	1073876992
 1317              		.cfi_endproc
 1318              	.LFE59:
 1319              		.size	RCC_GetITStatus, .-RCC_GetITStatus
 1320              		.align	1
 1321              		.p2align 2,,3
 1322              		.global	RCC_ClearITPendingBit
 1323              		.syntax unified
 1324              		.thumb
 1325              		.thumb_func
 1326              		.fpu softvfp
 1327              		.type	RCC_ClearITPendingBit, %function
 1328              	RCC_ClearITPendingBit:
 1329              	.LFB60:
1421:../../source/src/FWlib/src/stm32f10x_rcc.c **** 
1422:../../source/src/FWlib/src/stm32f10x_rcc.c **** /**
1423:../../source/src/FWlib/src/stm32f10x_rcc.c ****   * @brief  Clears the RCC's interrupt pending bits.
1424:../../source/src/FWlib/src/stm32f10x_rcc.c ****   * @param  RCC_IT: specifies the interrupt pending bit to clear.
1425:../../source/src/FWlib/src/stm32f10x_rcc.c ****   *   
1426:../../source/src/FWlib/src/stm32f10x_rcc.c ****   *   For @b STM32_Connectivity_line_devices, this parameter can be any combination
1427:../../source/src/FWlib/src/stm32f10x_rcc.c ****   *   of the following values:
1428:../../source/src/FWlib/src/stm32f10x_rcc.c ****   *     @arg RCC_IT_LSIRDY: LSI ready interrupt
1429:../../source/src/FWlib/src/stm32f10x_rcc.c ****   *     @arg RCC_IT_LSERDY: LSE ready interrupt
1430:../../source/src/FWlib/src/stm32f10x_rcc.c ****   *     @arg RCC_IT_HSIRDY: HSI ready interrupt
1431:../../source/src/FWlib/src/stm32f10x_rcc.c ****   *     @arg RCC_IT_HSERDY: HSE ready interrupt
1432:../../source/src/FWlib/src/stm32f10x_rcc.c ****   *     @arg RCC_IT_PLLRDY: PLL ready interrupt
1433:../../source/src/FWlib/src/stm32f10x_rcc.c ****   *     @arg RCC_IT_PLL2RDY: PLL2 ready interrupt 
1434:../../source/src/FWlib/src/stm32f10x_rcc.c ****   *     @arg RCC_IT_PLL3RDY: PLL3 ready interrupt                      
1435:../../source/src/FWlib/src/stm32f10x_rcc.c ****   *     @arg RCC_IT_CSS: Clock Security System interrupt
1436:../../source/src/FWlib/src/stm32f10x_rcc.c ****   * 
1437:../../source/src/FWlib/src/stm32f10x_rcc.c ****   *   For @b other_STM32_devices, this parameter can be any combination of the
1438:../../source/src/FWlib/src/stm32f10x_rcc.c ****   *   following values:        
1439:../../source/src/FWlib/src/stm32f10x_rcc.c ****   *     @arg RCC_IT_LSIRDY: LSI ready interrupt
1440:../../source/src/FWlib/src/stm32f10x_rcc.c ****   *     @arg RCC_IT_LSERDY: LSE ready interrupt
1441:../../source/src/FWlib/src/stm32f10x_rcc.c ****   *     @arg RCC_IT_HSIRDY: HSI ready interrupt
1442:../../source/src/FWlib/src/stm32f10x_rcc.c ****   *     @arg RCC_IT_HSERDY: HSE ready interrupt
1443:../../source/src/FWlib/src/stm32f10x_rcc.c ****   *     @arg RCC_IT_PLLRDY: PLL ready interrupt
1444:../../source/src/FWlib/src/stm32f10x_rcc.c ****   *   
1445:../../source/src/FWlib/src/stm32f10x_rcc.c ****   *     @arg RCC_IT_CSS: Clock Security System interrupt
1446:../../source/src/FWlib/src/stm32f10x_rcc.c ****   * @retval None
1447:../../source/src/FWlib/src/stm32f10x_rcc.c ****   */
1448:../../source/src/FWlib/src/stm32f10x_rcc.c **** void RCC_ClearITPendingBit(uint8_t RCC_IT)
1449:../../source/src/FWlib/src/stm32f10x_rcc.c **** {
 1330              		.loc 1 1449 0
 1331              		.cfi_startproc
 1332              		@ args = 0, pretend = 0, frame = 0
ARM GAS  G:\Users\Jaxb\AppData\Local\Temp\ccqGEEDk.s 			page 53


 1333              		@ frame_needed = 0, uses_anonymous_args = 0
 1334              		@ link register save eliminated.
 1335              	.LVL112:
1450:../../source/src/FWlib/src/stm32f10x_rcc.c ****   /* Check the parameters */
1451:../../source/src/FWlib/src/stm32f10x_rcc.c ****   assert_param(IS_RCC_CLEAR_IT(RCC_IT));
1452:../../source/src/FWlib/src/stm32f10x_rcc.c **** 
1453:../../source/src/FWlib/src/stm32f10x_rcc.c ****   /* Perform Byte access to RCC_CIR[23:16] bits to clear the selected interrupt
1454:../../source/src/FWlib/src/stm32f10x_rcc.c ****      pending bits */
1455:../../source/src/FWlib/src/stm32f10x_rcc.c ****   *(__IO uint8_t *) CIR_BYTE3_ADDRESS = RCC_IT;
 1336              		.loc 1 1455 0
 1337 0348 014B     		ldr	r3, .L137
 1338 034a 1870     		strb	r0, [r3]
1456:../../source/src/FWlib/src/stm32f10x_rcc.c **** }
 1339              		.loc 1 1456 0
 1340 034c 7047     		bx	lr
 1341              	.L138:
 1342 034e 00BF     		.align	2
 1343              	.L137:
 1344 0350 0A100240 		.word	1073877002
 1345              		.cfi_endproc
 1346              	.LFE60:
 1347              		.size	RCC_ClearITPendingBit, .-RCC_ClearITPendingBit
 1348              		.data
 1349              		.align	2
 1350              		.set	.LANCHOR0,. + 0
 1351              		.type	APBAHBPrescTable, %object
 1352              		.size	APBAHBPrescTable, 16
 1353              	APBAHBPrescTable:
 1354 0000 00       		.byte	0
 1355 0001 00       		.byte	0
 1356 0002 00       		.byte	0
 1357 0003 00       		.byte	0
 1358 0004 01       		.byte	1
 1359 0005 02       		.byte	2
 1360 0006 03       		.byte	3
 1361 0007 04       		.byte	4
 1362 0008 01       		.byte	1
 1363 0009 02       		.byte	2
 1364 000a 03       		.byte	3
 1365 000b 04       		.byte	4
 1366 000c 06       		.byte	6
 1367 000d 07       		.byte	7
 1368 000e 08       		.byte	8
 1369 000f 09       		.byte	9
 1370              		.type	ADCPrescTable, %object
 1371              		.size	ADCPrescTable, 4
 1372              	ADCPrescTable:
 1373 0010 02       		.byte	2
 1374 0011 04       		.byte	4
 1375 0012 06       		.byte	6
 1376 0013 08       		.byte	8
 1377              		.text
 1378              	.Letext0:
 1379              		.file 2 "f:\\arm\\gcc2018\\arm-none-eabi\\include\\machine\\_default_types.h"
 1380              		.file 3 "f:\\arm\\gcc2018\\arm-none-eabi\\include\\sys\\_stdint.h"
 1381              		.file 4 "../../source/include/core_cm3.h"
 1382              		.file 5 "../../source/include/system_stm32f10x.h"
ARM GAS  G:\Users\Jaxb\AppData\Local\Temp\ccqGEEDk.s 			page 54


 1383              		.file 6 "../../source/include/stm32f10x.h"
 1384              		.file 7 "../../source/src/FWlib/inc/stm32f10x_rcc.h"