ARM GAS  G:\Users\Jaxb\AppData\Local\Temp\ccq77blN.s 			page 1


   1              		.cpu cortex-m3
   2              		.eabi_attribute 20, 1
   3              		.eabi_attribute 21, 1
   4              		.eabi_attribute 23, 3
   5              		.eabi_attribute 24, 1
   6              		.eabi_attribute 25, 1
   7              		.eabi_attribute 26, 1
   8              		.eabi_attribute 30, 2
   9              		.eabi_attribute 34, 1
  10              		.eabi_attribute 18, 4
  11              		.file	"stm32f10x_exti.c"
  12              		.text
  13              	.Ltext0:
  14              		.cfi_sections	.debug_frame
  15              		.align	1
  16              		.p2align 2,,3
  17              		.global	EXTI_DeInit
  18              		.syntax unified
  19              		.thumb
  20              		.thumb_func
  21              		.fpu softvfp
  22              		.type	EXTI_DeInit, %function
  23              	EXTI_DeInit:
  24              	.LFB29:
  25              		.file 1 "../../source/src/FWlib/src/stm32f10x_exti.c"
   1:../../source/src/FWlib/src/stm32f10x_exti.c **** /**
   2:../../source/src/FWlib/src/stm32f10x_exti.c ****   ******************************************************************************
   3:../../source/src/FWlib/src/stm32f10x_exti.c ****   * @file    stm32f10x_exti.c
   4:../../source/src/FWlib/src/stm32f10x_exti.c ****   * @author  MCD Application Team
   5:../../source/src/FWlib/src/stm32f10x_exti.c ****   * @version V3.5.0
   6:../../source/src/FWlib/src/stm32f10x_exti.c ****   * @date    11-March-2011
   7:../../source/src/FWlib/src/stm32f10x_exti.c ****   * @brief   This file provides all the EXTI firmware functions.
   8:../../source/src/FWlib/src/stm32f10x_exti.c ****   ******************************************************************************
   9:../../source/src/FWlib/src/stm32f10x_exti.c ****   * @attention
  10:../../source/src/FWlib/src/stm32f10x_exti.c ****   *
  11:../../source/src/FWlib/src/stm32f10x_exti.c ****   * THE PRESENT FIRMWARE WHICH IS FOR GUIDANCE ONLY AIMS AT PROVIDING CUSTOMERS
  12:../../source/src/FWlib/src/stm32f10x_exti.c ****   * WITH CODING INFORMATION REGARDING THEIR PRODUCTS IN ORDER FOR THEM TO SAVE
  13:../../source/src/FWlib/src/stm32f10x_exti.c ****   * TIME. AS A RESULT, STMICROELECTRONICS SHALL NOT BE HELD LIABLE FOR ANY
  14:../../source/src/FWlib/src/stm32f10x_exti.c ****   * DIRECT, INDIRECT OR CONSEQUENTIAL DAMAGES WITH RESPECT TO ANY CLAIMS ARISING
  15:../../source/src/FWlib/src/stm32f10x_exti.c ****   * FROM THE CONTENT OF SUCH FIRMWARE AND/OR THE USE MADE BY CUSTOMERS OF THE
  16:../../source/src/FWlib/src/stm32f10x_exti.c ****   * CODING INFORMATION CONTAINED HEREIN IN CONNECTION WITH THEIR PRODUCTS.
  17:../../source/src/FWlib/src/stm32f10x_exti.c ****   *
  18:../../source/src/FWlib/src/stm32f10x_exti.c ****   * <h2><center>&copy; COPYRIGHT 2011 STMicroelectronics</center></h2>
  19:../../source/src/FWlib/src/stm32f10x_exti.c ****   ******************************************************************************
  20:../../source/src/FWlib/src/stm32f10x_exti.c ****   */
  21:../../source/src/FWlib/src/stm32f10x_exti.c **** 
  22:../../source/src/FWlib/src/stm32f10x_exti.c **** /* Includes ------------------------------------------------------------------*/
  23:../../source/src/FWlib/src/stm32f10x_exti.c **** #include "stm32f10x_exti.h"
  24:../../source/src/FWlib/src/stm32f10x_exti.c **** 
  25:../../source/src/FWlib/src/stm32f10x_exti.c **** /** @addtogroup STM32F10x_StdPeriph_Driver
  26:../../source/src/FWlib/src/stm32f10x_exti.c ****   * @{
  27:../../source/src/FWlib/src/stm32f10x_exti.c ****   */
  28:../../source/src/FWlib/src/stm32f10x_exti.c **** 
  29:../../source/src/FWlib/src/stm32f10x_exti.c **** /** @defgroup EXTI 
  30:../../source/src/FWlib/src/stm32f10x_exti.c ****   * @brief EXTI driver modules
  31:../../source/src/FWlib/src/stm32f10x_exti.c ****   * @{
  32:../../source/src/FWlib/src/stm32f10x_exti.c ****   */
ARM GAS  G:\Users\Jaxb\AppData\Local\Temp\ccq77blN.s 			page 2


  33:../../source/src/FWlib/src/stm32f10x_exti.c **** 
  34:../../source/src/FWlib/src/stm32f10x_exti.c **** /** @defgroup EXTI_Private_TypesDefinitions
  35:../../source/src/FWlib/src/stm32f10x_exti.c ****   * @{
  36:../../source/src/FWlib/src/stm32f10x_exti.c ****   */
  37:../../source/src/FWlib/src/stm32f10x_exti.c **** 
  38:../../source/src/FWlib/src/stm32f10x_exti.c **** /**
  39:../../source/src/FWlib/src/stm32f10x_exti.c ****   * @}
  40:../../source/src/FWlib/src/stm32f10x_exti.c ****   */
  41:../../source/src/FWlib/src/stm32f10x_exti.c **** 
  42:../../source/src/FWlib/src/stm32f10x_exti.c **** /** @defgroup EXTI_Private_Defines
  43:../../source/src/FWlib/src/stm32f10x_exti.c ****   * @{
  44:../../source/src/FWlib/src/stm32f10x_exti.c ****   */
  45:../../source/src/FWlib/src/stm32f10x_exti.c **** 
  46:../../source/src/FWlib/src/stm32f10x_exti.c **** #define EXTI_LINENONE    ((uint32_t)0x00000)  /* No interrupt selected */
  47:../../source/src/FWlib/src/stm32f10x_exti.c **** 
  48:../../source/src/FWlib/src/stm32f10x_exti.c **** /**
  49:../../source/src/FWlib/src/stm32f10x_exti.c ****   * @}
  50:../../source/src/FWlib/src/stm32f10x_exti.c ****   */
  51:../../source/src/FWlib/src/stm32f10x_exti.c **** 
  52:../../source/src/FWlib/src/stm32f10x_exti.c **** /** @defgroup EXTI_Private_Macros
  53:../../source/src/FWlib/src/stm32f10x_exti.c ****   * @{
  54:../../source/src/FWlib/src/stm32f10x_exti.c ****   */
  55:../../source/src/FWlib/src/stm32f10x_exti.c **** 
  56:../../source/src/FWlib/src/stm32f10x_exti.c **** /**
  57:../../source/src/FWlib/src/stm32f10x_exti.c ****   * @}
  58:../../source/src/FWlib/src/stm32f10x_exti.c ****   */
  59:../../source/src/FWlib/src/stm32f10x_exti.c **** 
  60:../../source/src/FWlib/src/stm32f10x_exti.c **** /** @defgroup EXTI_Private_Variables
  61:../../source/src/FWlib/src/stm32f10x_exti.c ****   * @{
  62:../../source/src/FWlib/src/stm32f10x_exti.c ****   */
  63:../../source/src/FWlib/src/stm32f10x_exti.c **** 
  64:../../source/src/FWlib/src/stm32f10x_exti.c **** /**
  65:../../source/src/FWlib/src/stm32f10x_exti.c ****   * @}
  66:../../source/src/FWlib/src/stm32f10x_exti.c ****   */
  67:../../source/src/FWlib/src/stm32f10x_exti.c **** 
  68:../../source/src/FWlib/src/stm32f10x_exti.c **** /** @defgroup EXTI_Private_FunctionPrototypes
  69:../../source/src/FWlib/src/stm32f10x_exti.c ****   * @{
  70:../../source/src/FWlib/src/stm32f10x_exti.c ****   */
  71:../../source/src/FWlib/src/stm32f10x_exti.c **** 
  72:../../source/src/FWlib/src/stm32f10x_exti.c **** /**
  73:../../source/src/FWlib/src/stm32f10x_exti.c ****   * @}
  74:../../source/src/FWlib/src/stm32f10x_exti.c ****   */
  75:../../source/src/FWlib/src/stm32f10x_exti.c **** 
  76:../../source/src/FWlib/src/stm32f10x_exti.c **** /** @defgroup EXTI_Private_Functions
  77:../../source/src/FWlib/src/stm32f10x_exti.c ****   * @{
  78:../../source/src/FWlib/src/stm32f10x_exti.c ****   */
  79:../../source/src/FWlib/src/stm32f10x_exti.c **** 
  80:../../source/src/FWlib/src/stm32f10x_exti.c **** /**
  81:../../source/src/FWlib/src/stm32f10x_exti.c ****   * @brief  Deinitializes the EXTI peripheral registers to their default reset values.
  82:../../source/src/FWlib/src/stm32f10x_exti.c ****   * @param  None
  83:../../source/src/FWlib/src/stm32f10x_exti.c ****   * @retval None
  84:../../source/src/FWlib/src/stm32f10x_exti.c ****   */
  85:../../source/src/FWlib/src/stm32f10x_exti.c **** void EXTI_DeInit(void)
  86:../../source/src/FWlib/src/stm32f10x_exti.c **** {
  26              		.loc 1 86 0
  27              		.cfi_startproc
  28              		@ args = 0, pretend = 0, frame = 0
ARM GAS  G:\Users\Jaxb\AppData\Local\Temp\ccq77blN.s 			page 3


  29              		@ frame_needed = 0, uses_anonymous_args = 0
  30              		@ link register save eliminated.
  87:../../source/src/FWlib/src/stm32f10x_exti.c ****   EXTI->IMR = 0x00000000;
  31              		.loc 1 87 0
  32 0000 0022     		movs	r2, #0
  33 0002 044B     		ldr	r3, .L3
  88:../../source/src/FWlib/src/stm32f10x_exti.c ****   EXTI->EMR = 0x00000000;
  89:../../source/src/FWlib/src/stm32f10x_exti.c ****   EXTI->RTSR = 0x00000000; 
  90:../../source/src/FWlib/src/stm32f10x_exti.c ****   EXTI->FTSR = 0x00000000; 
  91:../../source/src/FWlib/src/stm32f10x_exti.c ****   EXTI->PR = 0x000FFFFF;
  34              		.loc 1 91 0
  35 0004 0449     		ldr	r1, .L3+4
  87:../../source/src/FWlib/src/stm32f10x_exti.c ****   EXTI->IMR = 0x00000000;
  36              		.loc 1 87 0
  37 0006 1A60     		str	r2, [r3]
  88:../../source/src/FWlib/src/stm32f10x_exti.c ****   EXTI->EMR = 0x00000000;
  38              		.loc 1 88 0
  39 0008 5A60     		str	r2, [r3, #4]
  89:../../source/src/FWlib/src/stm32f10x_exti.c ****   EXTI->FTSR = 0x00000000; 
  40              		.loc 1 89 0
  41 000a 9A60     		str	r2, [r3, #8]
  90:../../source/src/FWlib/src/stm32f10x_exti.c ****   EXTI->PR = 0x000FFFFF;
  42              		.loc 1 90 0
  43 000c DA60     		str	r2, [r3, #12]
  44              		.loc 1 91 0
  45 000e 5961     		str	r1, [r3, #20]
  92:../../source/src/FWlib/src/stm32f10x_exti.c **** }
  46              		.loc 1 92 0
  47 0010 7047     		bx	lr
  48              	.L4:
  49 0012 00BF     		.align	2
  50              	.L3:
  51 0014 00040140 		.word	1073808384
  52 0018 FFFF0F00 		.word	1048575
  53              		.cfi_endproc
  54              	.LFE29:
  55              		.size	EXTI_DeInit, .-EXTI_DeInit
  56              		.align	1
  57              		.p2align 2,,3
  58              		.global	EXTI_Init
  59              		.syntax unified
  60              		.thumb
  61              		.thumb_func
  62              		.fpu softvfp
  63              		.type	EXTI_Init, %function
  64              	EXTI_Init:
  65              	.LFB30:
  93:../../source/src/FWlib/src/stm32f10x_exti.c **** 
  94:../../source/src/FWlib/src/stm32f10x_exti.c **** /**
  95:../../source/src/FWlib/src/stm32f10x_exti.c ****   * @brief  Initializes the EXTI peripheral according to the specified
  96:../../source/src/FWlib/src/stm32f10x_exti.c ****   *         parameters in the EXTI_InitStruct.
  97:../../source/src/FWlib/src/stm32f10x_exti.c ****   * @param  EXTI_InitStruct: pointer to a EXTI_InitTypeDef structure
  98:../../source/src/FWlib/src/stm32f10x_exti.c ****   *         that contains the configuration information for the EXTI peripheral.
  99:../../source/src/FWlib/src/stm32f10x_exti.c ****   * @retval None
 100:../../source/src/FWlib/src/stm32f10x_exti.c ****   */
 101:../../source/src/FWlib/src/stm32f10x_exti.c **** void EXTI_Init(EXTI_InitTypeDef* EXTI_InitStruct)
 102:../../source/src/FWlib/src/stm32f10x_exti.c **** {
ARM GAS  G:\Users\Jaxb\AppData\Local\Temp\ccq77blN.s 			page 4


  66              		.loc 1 102 0
  67              		.cfi_startproc
  68              		@ args = 0, pretend = 0, frame = 0
  69              		@ frame_needed = 0, uses_anonymous_args = 0
  70              		@ link register save eliminated.
  71              	.LVL0:
  72 001c 0379     		ldrb	r3, [r0, #4]	@ zero_extendqisi2
  73 001e 70B4     		push	{r4, r5, r6}
  74              	.LCFI0:
  75              		.cfi_def_cfa_offset 12
  76              		.cfi_offset 4, -12
  77              		.cfi_offset 5, -8
  78              		.cfi_offset 6, -4
 103:../../source/src/FWlib/src/stm32f10x_exti.c ****   uint32_t tmp = 0;
 104:../../source/src/FWlib/src/stm32f10x_exti.c **** 
 105:../../source/src/FWlib/src/stm32f10x_exti.c ****   /* Check the parameters */
 106:../../source/src/FWlib/src/stm32f10x_exti.c ****   assert_param(IS_EXTI_MODE(EXTI_InitStruct->EXTI_Mode));
 107:../../source/src/FWlib/src/stm32f10x_exti.c ****   assert_param(IS_EXTI_TRIGGER(EXTI_InitStruct->EXTI_Trigger));
 108:../../source/src/FWlib/src/stm32f10x_exti.c ****   assert_param(IS_EXTI_LINE(EXTI_InitStruct->EXTI_Line));  
 109:../../source/src/FWlib/src/stm32f10x_exti.c ****   assert_param(IS_FUNCTIONAL_STATE(EXTI_InitStruct->EXTI_LineCmd));
 110:../../source/src/FWlib/src/stm32f10x_exti.c **** 
 111:../../source/src/FWlib/src/stm32f10x_exti.c ****   tmp = (uint32_t)EXTI_BASE;
 112:../../source/src/FWlib/src/stm32f10x_exti.c ****      
 113:../../source/src/FWlib/src/stm32f10x_exti.c ****   if (EXTI_InitStruct->EXTI_LineCmd != DISABLE)
  79              		.loc 1 113 0
  80 0020 8279     		ldrb	r2, [r0, #6]	@ zero_extendqisi2
  81 0022 0568     		ldr	r5, [r0]
  82 0024 03F18043 		add	r3, r3, #1073741824
  83 0028 03F58233 		add	r3, r3, #66560
  84 002c EC43     		mvns	r4, r5
  85 002e 1AB3     		cbz	r2, .L6
 114:../../source/src/FWlib/src/stm32f10x_exti.c ****   {
 115:../../source/src/FWlib/src/stm32f10x_exti.c ****     /* Clear EXTI line configuration */
 116:../../source/src/FWlib/src/stm32f10x_exti.c ****     EXTI->IMR &= ~EXTI_InitStruct->EXTI_Line;
  86              		.loc 1 116 0
  87 0030 184A     		ldr	r2, .L10
 117:../../source/src/FWlib/src/stm32f10x_exti.c ****     EXTI->EMR &= ~EXTI_InitStruct->EXTI_Line;
 118:../../source/src/FWlib/src/stm32f10x_exti.c ****     
 119:../../source/src/FWlib/src/stm32f10x_exti.c ****     tmp += EXTI_InitStruct->EXTI_Mode;
 120:../../source/src/FWlib/src/stm32f10x_exti.c **** 
 121:../../source/src/FWlib/src/stm32f10x_exti.c ****     *(__IO uint32_t *) tmp |= EXTI_InitStruct->EXTI_Line;
 122:../../source/src/FWlib/src/stm32f10x_exti.c **** 
 123:../../source/src/FWlib/src/stm32f10x_exti.c ****     /* Clear Rising Falling edge configuration */
 124:../../source/src/FWlib/src/stm32f10x_exti.c ****     EXTI->RTSR &= ~EXTI_InitStruct->EXTI_Line;
 125:../../source/src/FWlib/src/stm32f10x_exti.c ****     EXTI->FTSR &= ~EXTI_InitStruct->EXTI_Line;
 126:../../source/src/FWlib/src/stm32f10x_exti.c ****     
 127:../../source/src/FWlib/src/stm32f10x_exti.c ****     /* Select the trigger for the selected external interrupts */
 128:../../source/src/FWlib/src/stm32f10x_exti.c ****     if (EXTI_InitStruct->EXTI_Trigger == EXTI_Trigger_Rising_Falling)
  88              		.loc 1 128 0
  89 0032 4179     		ldrb	r1, [r0, #5]	@ zero_extendqisi2
 116:../../source/src/FWlib/src/stm32f10x_exti.c ****     EXTI->EMR &= ~EXTI_InitStruct->EXTI_Line;
  90              		.loc 1 116 0
  91 0034 1668     		ldr	r6, [r2]
  92              		.loc 1 128 0
  93 0036 1029     		cmp	r1, #16
 116:../../source/src/FWlib/src/stm32f10x_exti.c ****     EXTI->EMR &= ~EXTI_InitStruct->EXTI_Line;
  94              		.loc 1 116 0
ARM GAS  G:\Users\Jaxb\AppData\Local\Temp\ccq77blN.s 			page 5


  95 0038 06EA0406 		and	r6, r6, r4
  96 003c 1660     		str	r6, [r2]
 117:../../source/src/FWlib/src/stm32f10x_exti.c ****     EXTI->EMR &= ~EXTI_InitStruct->EXTI_Line;
  97              		.loc 1 117 0
  98 003e 5668     		ldr	r6, [r2, #4]
  99 0040 04EA0604 		and	r4, r4, r6
 100 0044 5460     		str	r4, [r2, #4]
 101              	.LVL1:
 121:../../source/src/FWlib/src/stm32f10x_exti.c **** 
 102              		.loc 1 121 0
 103 0046 1C68     		ldr	r4, [r3]
 104 0048 45EA0405 		orr	r5, r5, r4
 105 004c 1D60     		str	r5, [r3]
 124:../../source/src/FWlib/src/stm32f10x_exti.c ****     EXTI->FTSR &= ~EXTI_InitStruct->EXTI_Line;
 106              		.loc 1 124 0
 107 004e 0068     		ldr	r0, [r0]
 108              	.LVL2:
 109 0050 9468     		ldr	r4, [r2, #8]
 110 0052 6FEA0003 		mvn	r3, r0
 111 0056 04EA0304 		and	r4, r4, r3
 112 005a 9460     		str	r4, [r2, #8]
 125:../../source/src/FWlib/src/stm32f10x_exti.c ****     
 113              		.loc 1 125 0
 114 005c D468     		ldr	r4, [r2, #12]
 115 005e 03EA0403 		and	r3, r3, r4
 116 0062 D360     		str	r3, [r2, #12]
 117              		.loc 1 128 0
 118 0064 0DD0     		beq	.L9
 119              	.LVL3:
 129:../../source/src/FWlib/src/stm32f10x_exti.c ****     {
 130:../../source/src/FWlib/src/stm32f10x_exti.c ****       /* Rising Falling edge */
 131:../../source/src/FWlib/src/stm32f10x_exti.c ****       EXTI->RTSR |= EXTI_InitStruct->EXTI_Line;
 132:../../source/src/FWlib/src/stm32f10x_exti.c ****       EXTI->FTSR |= EXTI_InitStruct->EXTI_Line;
 133:../../source/src/FWlib/src/stm32f10x_exti.c ****     }
 134:../../source/src/FWlib/src/stm32f10x_exti.c ****     else
 135:../../source/src/FWlib/src/stm32f10x_exti.c ****     {
 136:../../source/src/FWlib/src/stm32f10x_exti.c ****       tmp = (uint32_t)EXTI_BASE;
 137:../../source/src/FWlib/src/stm32f10x_exti.c ****       tmp += EXTI_InitStruct->EXTI_Trigger;
 138:../../source/src/FWlib/src/stm32f10x_exti.c **** 
 139:../../source/src/FWlib/src/stm32f10x_exti.c ****       *(__IO uint32_t *) tmp |= EXTI_InitStruct->EXTI_Line;
 140:../../source/src/FWlib/src/stm32f10x_exti.c ****     }
 141:../../source/src/FWlib/src/stm32f10x_exti.c ****   }
 142:../../source/src/FWlib/src/stm32f10x_exti.c ****   else
 143:../../source/src/FWlib/src/stm32f10x_exti.c ****   {
 144:../../source/src/FWlib/src/stm32f10x_exti.c ****     tmp += EXTI_InitStruct->EXTI_Mode;
 145:../../source/src/FWlib/src/stm32f10x_exti.c **** 
 146:../../source/src/FWlib/src/stm32f10x_exti.c ****     /* Disable the selected external lines */
 147:../../source/src/FWlib/src/stm32f10x_exti.c ****     *(__IO uint32_t *) tmp &= ~EXTI_InitStruct->EXTI_Line;
 148:../../source/src/FWlib/src/stm32f10x_exti.c ****   }
 149:../../source/src/FWlib/src/stm32f10x_exti.c **** }
 120              		.loc 1 149 0
 121 0066 70BC     		pop	{r4, r5, r6}
 122              	.LCFI1:
 123              		.cfi_remember_state
 124              		.cfi_restore 6
 125              		.cfi_restore 5
 126              		.cfi_restore 4
ARM GAS  G:\Users\Jaxb\AppData\Local\Temp\ccq77blN.s 			page 6


 127              		.cfi_def_cfa_offset 0
 137:../../source/src/FWlib/src/stm32f10x_exti.c **** 
 128              		.loc 1 137 0
 129 0068 01F18043 		add	r3, r1, #1073741824
 130 006c 03F58233 		add	r3, r3, #66560
 139:../../source/src/FWlib/src/stm32f10x_exti.c ****     }
 131              		.loc 1 139 0
 132 0070 1A68     		ldr	r2, [r3]
 133 0072 1043     		orrs	r0, r0, r2
 134 0074 1860     		str	r0, [r3]
 135              		.loc 1 149 0
 136 0076 7047     		bx	lr
 137              	.LVL4:
 138              	.L6:
 139              	.LCFI2:
 140              		.cfi_restore_state
 147:../../source/src/FWlib/src/stm32f10x_exti.c ****   }
 141              		.loc 1 147 0
 142 0078 1A68     		ldr	r2, [r3]
 143 007a 1440     		ands	r4, r4, r2
 144 007c 1C60     		str	r4, [r3]
 145              		.loc 1 149 0
 146 007e 70BC     		pop	{r4, r5, r6}
 147              	.LCFI3:
 148              		.cfi_remember_state
 149              		.cfi_restore 6
 150              		.cfi_restore 5
 151              		.cfi_restore 4
 152              		.cfi_def_cfa_offset 0
 153 0080 7047     		bx	lr
 154              	.LVL5:
 155              	.L9:
 156              	.LCFI4:
 157              		.cfi_restore_state
 131:../../source/src/FWlib/src/stm32f10x_exti.c ****       EXTI->FTSR |= EXTI_InitStruct->EXTI_Line;
 158              		.loc 1 131 0
 159 0082 9368     		ldr	r3, [r2, #8]
 160              		.loc 1 149 0
 161 0084 70BC     		pop	{r4, r5, r6}
 162              	.LCFI5:
 163              		.cfi_restore 6
 164              		.cfi_restore 5
 165              		.cfi_restore 4
 166              		.cfi_def_cfa_offset 0
 131:../../source/src/FWlib/src/stm32f10x_exti.c ****       EXTI->FTSR |= EXTI_InitStruct->EXTI_Line;
 167              		.loc 1 131 0
 168 0086 0343     		orrs	r3, r3, r0
 169 0088 9360     		str	r3, [r2, #8]
 132:../../source/src/FWlib/src/stm32f10x_exti.c ****     }
 170              		.loc 1 132 0
 171 008a D368     		ldr	r3, [r2, #12]
 172 008c 1843     		orrs	r0, r0, r3
 173 008e D060     		str	r0, [r2, #12]
 174              		.loc 1 149 0
 175 0090 7047     		bx	lr
 176              	.L11:
 177 0092 00BF     		.align	2
ARM GAS  G:\Users\Jaxb\AppData\Local\Temp\ccq77blN.s 			page 7


 178              	.L10:
 179 0094 00040140 		.word	1073808384
 180              		.cfi_endproc
 181              	.LFE30:
 182              		.size	EXTI_Init, .-EXTI_Init
 183              		.align	1
 184              		.p2align 2,,3
 185              		.global	EXTI_StructInit
 186              		.syntax unified
 187              		.thumb
 188              		.thumb_func
 189              		.fpu softvfp
 190              		.type	EXTI_StructInit, %function
 191              	EXTI_StructInit:
 192              	.LFB31:
 150:../../source/src/FWlib/src/stm32f10x_exti.c **** 
 151:../../source/src/FWlib/src/stm32f10x_exti.c **** /**
 152:../../source/src/FWlib/src/stm32f10x_exti.c ****   * @brief  Fills each EXTI_InitStruct member with its reset value.
 153:../../source/src/FWlib/src/stm32f10x_exti.c ****   * @param  EXTI_InitStruct: pointer to a EXTI_InitTypeDef structure which will
 154:../../source/src/FWlib/src/stm32f10x_exti.c ****   *         be initialized.
 155:../../source/src/FWlib/src/stm32f10x_exti.c ****   * @retval None
 156:../../source/src/FWlib/src/stm32f10x_exti.c ****   */
 157:../../source/src/FWlib/src/stm32f10x_exti.c **** void EXTI_StructInit(EXTI_InitTypeDef* EXTI_InitStruct)
 158:../../source/src/FWlib/src/stm32f10x_exti.c **** {
 193              		.loc 1 158 0
 194              		.cfi_startproc
 195              		@ args = 0, pretend = 0, frame = 0
 196              		@ frame_needed = 0, uses_anonymous_args = 0
 197              		@ link register save eliminated.
 198              	.LVL6:
 159:../../source/src/FWlib/src/stm32f10x_exti.c ****   EXTI_InitStruct->EXTI_Line = EXTI_LINENONE;
 199              		.loc 1 159 0
 200 0098 0023     		movs	r3, #0
 160:../../source/src/FWlib/src/stm32f10x_exti.c ****   EXTI_InitStruct->EXTI_Mode = EXTI_Mode_Interrupt;
 161:../../source/src/FWlib/src/stm32f10x_exti.c ****   EXTI_InitStruct->EXTI_Trigger = EXTI_Trigger_Falling;
 201              		.loc 1 161 0
 202 009a 0C22     		movs	r2, #12
 159:../../source/src/FWlib/src/stm32f10x_exti.c ****   EXTI_InitStruct->EXTI_Line = EXTI_LINENONE;
 203              		.loc 1 159 0
 204 009c 0360     		str	r3, [r0]
 205              		.loc 1 161 0
 206 009e 4271     		strb	r2, [r0, #5]
 160:../../source/src/FWlib/src/stm32f10x_exti.c ****   EXTI_InitStruct->EXTI_Mode = EXTI_Mode_Interrupt;
 207              		.loc 1 160 0
 208 00a0 0371     		strb	r3, [r0, #4]
 162:../../source/src/FWlib/src/stm32f10x_exti.c ****   EXTI_InitStruct->EXTI_LineCmd = DISABLE;
 209              		.loc 1 162 0
 210 00a2 8371     		strb	r3, [r0, #6]
 163:../../source/src/FWlib/src/stm32f10x_exti.c **** }
 211              		.loc 1 163 0
 212 00a4 7047     		bx	lr
 213              		.cfi_endproc
 214              	.LFE31:
 215              		.size	EXTI_StructInit, .-EXTI_StructInit
 216              		.align	1
 217 00a6 00BF     		.p2align 2,,3
 218              		.global	EXTI_GenerateSWInterrupt
ARM GAS  G:\Users\Jaxb\AppData\Local\Temp\ccq77blN.s 			page 8


 219              		.syntax unified
 220              		.thumb
 221              		.thumb_func
 222              		.fpu softvfp
 223              		.type	EXTI_GenerateSWInterrupt, %function
 224              	EXTI_GenerateSWInterrupt:
 225              	.LFB32:
 164:../../source/src/FWlib/src/stm32f10x_exti.c **** 
 165:../../source/src/FWlib/src/stm32f10x_exti.c **** /**
 166:../../source/src/FWlib/src/stm32f10x_exti.c ****   * @brief  Generates a Software interrupt.
 167:../../source/src/FWlib/src/stm32f10x_exti.c ****   * @param  EXTI_Line: specifies the EXTI lines to be enabled or disabled.
 168:../../source/src/FWlib/src/stm32f10x_exti.c ****   *   This parameter can be any combination of EXTI_Linex where x can be (0..19).
 169:../../source/src/FWlib/src/stm32f10x_exti.c ****   * @retval None
 170:../../source/src/FWlib/src/stm32f10x_exti.c ****   */
 171:../../source/src/FWlib/src/stm32f10x_exti.c **** void EXTI_GenerateSWInterrupt(uint32_t EXTI_Line)
 172:../../source/src/FWlib/src/stm32f10x_exti.c **** {
 226              		.loc 1 172 0
 227              		.cfi_startproc
 228              		@ args = 0, pretend = 0, frame = 0
 229              		@ frame_needed = 0, uses_anonymous_args = 0
 230              		@ link register save eliminated.
 231              	.LVL7:
 173:../../source/src/FWlib/src/stm32f10x_exti.c ****   /* Check the parameters */
 174:../../source/src/FWlib/src/stm32f10x_exti.c ****   assert_param(IS_EXTI_LINE(EXTI_Line));
 175:../../source/src/FWlib/src/stm32f10x_exti.c ****   
 176:../../source/src/FWlib/src/stm32f10x_exti.c ****   EXTI->SWIER |= EXTI_Line;
 232              		.loc 1 176 0
 233 00a8 024A     		ldr	r2, .L14
 234 00aa 1369     		ldr	r3, [r2, #16]
 235 00ac 1843     		orrs	r0, r0, r3
 236              	.LVL8:
 237 00ae 1061     		str	r0, [r2, #16]
 177:../../source/src/FWlib/src/stm32f10x_exti.c **** }
 238              		.loc 1 177 0
 239 00b0 7047     		bx	lr
 240              	.L15:
 241 00b2 00BF     		.align	2
 242              	.L14:
 243 00b4 00040140 		.word	1073808384
 244              		.cfi_endproc
 245              	.LFE32:
 246              		.size	EXTI_GenerateSWInterrupt, .-EXTI_GenerateSWInterrupt
 247              		.align	1
 248              		.p2align 2,,3
 249              		.global	EXTI_GetFlagStatus
 250              		.syntax unified
 251              		.thumb
 252              		.thumb_func
 253              		.fpu softvfp
 254              		.type	EXTI_GetFlagStatus, %function
 255              	EXTI_GetFlagStatus:
 256              	.LFB33:
 178:../../source/src/FWlib/src/stm32f10x_exti.c **** 
 179:../../source/src/FWlib/src/stm32f10x_exti.c **** /**
 180:../../source/src/FWlib/src/stm32f10x_exti.c ****   * @brief  Checks whether the specified EXTI line flag is set or not.
 181:../../source/src/FWlib/src/stm32f10x_exti.c ****   * @param  EXTI_Line: specifies the EXTI line flag to check.
 182:../../source/src/FWlib/src/stm32f10x_exti.c ****   *   This parameter can be:
ARM GAS  G:\Users\Jaxb\AppData\Local\Temp\ccq77blN.s 			page 9


 183:../../source/src/FWlib/src/stm32f10x_exti.c ****   *     @arg EXTI_Linex: External interrupt line x where x(0..19)
 184:../../source/src/FWlib/src/stm32f10x_exti.c ****   * @retval The new state of EXTI_Line (SET or RESET).
 185:../../source/src/FWlib/src/stm32f10x_exti.c ****   */
 186:../../source/src/FWlib/src/stm32f10x_exti.c **** FlagStatus EXTI_GetFlagStatus(uint32_t EXTI_Line)
 187:../../source/src/FWlib/src/stm32f10x_exti.c **** {
 257              		.loc 1 187 0
 258              		.cfi_startproc
 259              		@ args = 0, pretend = 0, frame = 0
 260              		@ frame_needed = 0, uses_anonymous_args = 0
 261              		@ link register save eliminated.
 262              	.LVL9:
 188:../../source/src/FWlib/src/stm32f10x_exti.c ****   FlagStatus bitstatus = RESET;
 189:../../source/src/FWlib/src/stm32f10x_exti.c ****   /* Check the parameters */
 190:../../source/src/FWlib/src/stm32f10x_exti.c ****   assert_param(IS_GET_EXTI_LINE(EXTI_Line));
 191:../../source/src/FWlib/src/stm32f10x_exti.c ****   
 192:../../source/src/FWlib/src/stm32f10x_exti.c ****   if ((EXTI->PR & EXTI_Line) != (uint32_t)RESET)
 263              		.loc 1 192 0
 264 00b8 034B     		ldr	r3, .L17
 265 00ba 5B69     		ldr	r3, [r3, #20]
 266              	.LVL10:
 267 00bc 0342     		tst	r3, r0
 193:../../source/src/FWlib/src/stm32f10x_exti.c ****   {
 194:../../source/src/FWlib/src/stm32f10x_exti.c ****     bitstatus = SET;
 195:../../source/src/FWlib/src/stm32f10x_exti.c ****   }
 196:../../source/src/FWlib/src/stm32f10x_exti.c ****   else
 197:../../source/src/FWlib/src/stm32f10x_exti.c ****   {
 198:../../source/src/FWlib/src/stm32f10x_exti.c ****     bitstatus = RESET;
 199:../../source/src/FWlib/src/stm32f10x_exti.c ****   }
 200:../../source/src/FWlib/src/stm32f10x_exti.c ****   return bitstatus;
 201:../../source/src/FWlib/src/stm32f10x_exti.c **** }
 268              		.loc 1 201 0
 269 00be 14BF     		ite	ne
 270 00c0 0120     		movne	r0, #1
 271              	.LVL11:
 272 00c2 0020     		moveq	r0, #0
 273 00c4 7047     		bx	lr
 274              	.L18:
 275 00c6 00BF     		.align	2
 276              	.L17:
 277 00c8 00040140 		.word	1073808384
 278              		.cfi_endproc
 279              	.LFE33:
 280              		.size	EXTI_GetFlagStatus, .-EXTI_GetFlagStatus
 281              		.align	1
 282              		.p2align 2,,3
 283              		.global	EXTI_ClearFlag
 284              		.syntax unified
 285              		.thumb
 286              		.thumb_func
 287              		.fpu softvfp
 288              		.type	EXTI_ClearFlag, %function
 289              	EXTI_ClearFlag:
 290              	.LFB34:
 202:../../source/src/FWlib/src/stm32f10x_exti.c **** 
 203:../../source/src/FWlib/src/stm32f10x_exti.c **** /**
 204:../../source/src/FWlib/src/stm32f10x_exti.c ****   * @brief  Clears the EXTI's line pending flags.
 205:../../source/src/FWlib/src/stm32f10x_exti.c ****   * @param  EXTI_Line: specifies the EXTI lines flags to clear.
ARM GAS  G:\Users\Jaxb\AppData\Local\Temp\ccq77blN.s 			page 10


 206:../../source/src/FWlib/src/stm32f10x_exti.c ****   *   This parameter can be any combination of EXTI_Linex where x can be (0..19).
 207:../../source/src/FWlib/src/stm32f10x_exti.c ****   * @retval None
 208:../../source/src/FWlib/src/stm32f10x_exti.c ****   */
 209:../../source/src/FWlib/src/stm32f10x_exti.c **** void EXTI_ClearFlag(uint32_t EXTI_Line)
 210:../../source/src/FWlib/src/stm32f10x_exti.c **** {
 291              		.loc 1 210 0
 292              		.cfi_startproc
 293              		@ args = 0, pretend = 0, frame = 0
 294              		@ frame_needed = 0, uses_anonymous_args = 0
 295              		@ link register save eliminated.
 296              	.LVL12:
 211:../../source/src/FWlib/src/stm32f10x_exti.c ****   /* Check the parameters */
 212:../../source/src/FWlib/src/stm32f10x_exti.c ****   assert_param(IS_EXTI_LINE(EXTI_Line));
 213:../../source/src/FWlib/src/stm32f10x_exti.c ****   
 214:../../source/src/FWlib/src/stm32f10x_exti.c ****   EXTI->PR = EXTI_Line;
 297              		.loc 1 214 0
 298 00cc 014B     		ldr	r3, .L20
 299 00ce 5861     		str	r0, [r3, #20]
 215:../../source/src/FWlib/src/stm32f10x_exti.c **** }
 300              		.loc 1 215 0
 301 00d0 7047     		bx	lr
 302              	.L21:
 303 00d2 00BF     		.align	2
 304              	.L20:
 305 00d4 00040140 		.word	1073808384
 306              		.cfi_endproc
 307              	.LFE34:
 308              		.size	EXTI_ClearFlag, .-EXTI_ClearFlag
 309              		.align	1
 310              		.p2align 2,,3
 311              		.global	EXTI_GetITStatus
 312              		.syntax unified
 313              		.thumb
 314              		.thumb_func
 315              		.fpu softvfp
 316              		.type	EXTI_GetITStatus, %function
 317              	EXTI_GetITStatus:
 318              	.LFB35:
 216:../../source/src/FWlib/src/stm32f10x_exti.c **** 
 217:../../source/src/FWlib/src/stm32f10x_exti.c **** /**
 218:../../source/src/FWlib/src/stm32f10x_exti.c ****   * @brief  Checks whether the specified EXTI line is asserted or not.
 219:../../source/src/FWlib/src/stm32f10x_exti.c ****   * @param  EXTI_Line: specifies the EXTI line to check.
 220:../../source/src/FWlib/src/stm32f10x_exti.c ****   *   This parameter can be:
 221:../../source/src/FWlib/src/stm32f10x_exti.c ****   *     @arg EXTI_Linex: External interrupt line x where x(0..19)
 222:../../source/src/FWlib/src/stm32f10x_exti.c ****   * @retval The new state of EXTI_Line (SET or RESET).
 223:../../source/src/FWlib/src/stm32f10x_exti.c ****   */
 224:../../source/src/FWlib/src/stm32f10x_exti.c **** ITStatus EXTI_GetITStatus(uint32_t EXTI_Line)
 225:../../source/src/FWlib/src/stm32f10x_exti.c **** {
 319              		.loc 1 225 0
 320              		.cfi_startproc
 321              		@ args = 0, pretend = 0, frame = 0
 322              		@ frame_needed = 0, uses_anonymous_args = 0
 323              		@ link register save eliminated.
 324              	.LVL13:
 226:../../source/src/FWlib/src/stm32f10x_exti.c ****   ITStatus bitstatus = RESET;
 227:../../source/src/FWlib/src/stm32f10x_exti.c ****   uint32_t enablestatus = 0;
 228:../../source/src/FWlib/src/stm32f10x_exti.c ****   /* Check the parameters */
ARM GAS  G:\Users\Jaxb\AppData\Local\Temp\ccq77blN.s 			page 11


 229:../../source/src/FWlib/src/stm32f10x_exti.c ****   assert_param(IS_GET_EXTI_LINE(EXTI_Line));
 230:../../source/src/FWlib/src/stm32f10x_exti.c ****   
 231:../../source/src/FWlib/src/stm32f10x_exti.c ****   enablestatus =  EXTI->IMR & EXTI_Line;
 325              		.loc 1 231 0
 326 00d8 054B     		ldr	r3, .L25
 327 00da 1A68     		ldr	r2, [r3]
 328              	.LVL14:
 232:../../source/src/FWlib/src/stm32f10x_exti.c ****   if (((EXTI->PR & EXTI_Line) != (uint32_t)RESET) && (enablestatus != (uint32_t)RESET))
 329              		.loc 1 232 0
 330 00dc 5B69     		ldr	r3, [r3, #20]
 331 00de 0340     		ands	r3, r3, r0
 332 00e0 04D0     		beq	.L24
 333              		.loc 1 232 0 is_stmt 0 discriminator 1
 334 00e2 0242     		tst	r2, r0
 233:../../source/src/FWlib/src/stm32f10x_exti.c ****   {
 234:../../source/src/FWlib/src/stm32f10x_exti.c ****     bitstatus = SET;
 335              		.loc 1 234 0 is_stmt 1 discriminator 1
 336 00e4 14BF     		ite	ne
 337 00e6 0120     		movne	r0, #1
 338              	.LVL15:
 339 00e8 0020     		moveq	r0, #0
 340 00ea 7047     		bx	lr
 341              	.LVL16:
 342              	.L24:
 235:../../source/src/FWlib/src/stm32f10x_exti.c ****   }
 236:../../source/src/FWlib/src/stm32f10x_exti.c ****   else
 237:../../source/src/FWlib/src/stm32f10x_exti.c ****   {
 238:../../source/src/FWlib/src/stm32f10x_exti.c ****     bitstatus = RESET;
 343              		.loc 1 238 0
 344 00ec 1846     		mov	r0, r3
 345              	.LVL17:
 239:../../source/src/FWlib/src/stm32f10x_exti.c ****   }
 240:../../source/src/FWlib/src/stm32f10x_exti.c ****   return bitstatus;
 241:../../source/src/FWlib/src/stm32f10x_exti.c **** }
 346              		.loc 1 241 0
 347 00ee 7047     		bx	lr
 348              	.L26:
 349              		.align	2
 350              	.L25:
 351 00f0 00040140 		.word	1073808384
 352              		.cfi_endproc
 353              	.LFE35:
 354              		.size	EXTI_GetITStatus, .-EXTI_GetITStatus
 355              		.align	1
 356              		.p2align 2,,3
 357              		.global	EXTI_ClearITPendingBit
 358              		.syntax unified
 359              		.thumb
 360              		.thumb_func
 361              		.fpu softvfp
 362              		.type	EXTI_ClearITPendingBit, %function
 363              	EXTI_ClearITPendingBit:
 364              	.LFB38:
 365              		.cfi_startproc
 366              		@ args = 0, pretend = 0, frame = 0
 367              		@ frame_needed = 0, uses_anonymous_args = 0
 368              		@ link register save eliminated.
ARM GAS  G:\Users\Jaxb\AppData\Local\Temp\ccq77blN.s 			page 12


 369 00f4 014B     		ldr	r3, .L28
 370 00f6 5861     		str	r0, [r3, #20]
 371 00f8 7047     		bx	lr
 372              	.L29:
 373 00fa 00BF     		.align	2
 374              	.L28:
 375 00fc 00040140 		.word	1073808384
 376              		.cfi_endproc
 377              	.LFE38:
 378              		.size	EXTI_ClearITPendingBit, .-EXTI_ClearITPendingBit
 379              	.Letext0:
 380              		.file 2 "f:\\arm\\gcc2018\\arm-none-eabi\\include\\machine\\_default_types.h"
 381              		.file 3 "f:\\arm\\gcc2018\\arm-none-eabi\\include\\sys\\_stdint.h"
 382              		.file 4 "../../source/include/core_cm3.h"
 383              		.file 5 "../../source/include/system_stm32f10x.h"
 384              		.file 6 "../../source/include/stm32f10x.h"
 385              		.file 7 "../../source/src/FWlib/inc/stm32f10x_exti.h"