ARM GAS  G:\Users\Jaxb\AppData\Local\Temp\ccnyQMas.s 			page 1


   1              		.cpu cortex-m3
   2              		.eabi_attribute 20, 1
   3              		.eabi_attribute 21, 1
   4              		.eabi_attribute 23, 3
   5              		.eabi_attribute 24, 1
   6              		.eabi_attribute 25, 1
   7              		.eabi_attribute 26, 1
   8              		.eabi_attribute 30, 6
   9              		.eabi_attribute 34, 1
  10              		.eabi_attribute 18, 4
  11              		.file	"stm32f10x_dma.c"
  12              		.text
  13              	.Ltext0:
  14              		.cfi_sections	.debug_frame
  15              		.align	1
  16              		.global	DMA_DeInit
  17              		.syntax unified
  18              		.thumb
  19              		.thumb_func
  20              		.fpu softvfp
  21              		.type	DMA_DeInit, %function
  22              	DMA_DeInit:
  23              	.LFB29:
  24              		.file 1 "../../source/src/FWlib/src/stm32f10x_dma.c"
   1:../../source/src/FWlib/src/stm32f10x_dma.c **** /**
   2:../../source/src/FWlib/src/stm32f10x_dma.c ****   ******************************************************************************
   3:../../source/src/FWlib/src/stm32f10x_dma.c ****   * @file    stm32f10x_dma.c
   4:../../source/src/FWlib/src/stm32f10x_dma.c ****   * @author  MCD Application Team
   5:../../source/src/FWlib/src/stm32f10x_dma.c ****   * @version V3.5.0
   6:../../source/src/FWlib/src/stm32f10x_dma.c ****   * @date    11-March-2011
   7:../../source/src/FWlib/src/stm32f10x_dma.c ****   * @brief   This file provides all the DMA firmware functions.
   8:../../source/src/FWlib/src/stm32f10x_dma.c ****   ******************************************************************************
   9:../../source/src/FWlib/src/stm32f10x_dma.c ****   * @attention
  10:../../source/src/FWlib/src/stm32f10x_dma.c ****   *
  11:../../source/src/FWlib/src/stm32f10x_dma.c ****   * THE PRESENT FIRMWARE WHICH IS FOR GUIDANCE ONLY AIMS AT PROVIDING CUSTOMERS
  12:../../source/src/FWlib/src/stm32f10x_dma.c ****   * WITH CODING INFORMATION REGARDING THEIR PRODUCTS IN ORDER FOR THEM TO SAVE
  13:../../source/src/FWlib/src/stm32f10x_dma.c ****   * TIME. AS A RESULT, STMICROELECTRONICS SHALL NOT BE HELD LIABLE FOR ANY
  14:../../source/src/FWlib/src/stm32f10x_dma.c ****   * DIRECT, INDIRECT OR CONSEQUENTIAL DAMAGES WITH RESPECT TO ANY CLAIMS ARISING
  15:../../source/src/FWlib/src/stm32f10x_dma.c ****   * FROM THE CONTENT OF SUCH FIRMWARE AND/OR THE USE MADE BY CUSTOMERS OF THE
  16:../../source/src/FWlib/src/stm32f10x_dma.c ****   * CODING INFORMATION CONTAINED HEREIN IN CONNECTION WITH THEIR PRODUCTS.
  17:../../source/src/FWlib/src/stm32f10x_dma.c ****   *
  18:../../source/src/FWlib/src/stm32f10x_dma.c ****   * <h2><center>&copy; COPYRIGHT 2011 STMicroelectronics</center></h2>
  19:../../source/src/FWlib/src/stm32f10x_dma.c ****   ******************************************************************************
  20:../../source/src/FWlib/src/stm32f10x_dma.c ****   */
  21:../../source/src/FWlib/src/stm32f10x_dma.c **** 
  22:../../source/src/FWlib/src/stm32f10x_dma.c **** /* Includes ------------------------------------------------------------------*/
  23:../../source/src/FWlib/src/stm32f10x_dma.c **** #include "stm32f10x_dma.h"
  24:../../source/src/FWlib/src/stm32f10x_dma.c **** #include "stm32f10x_rcc.h"
  25:../../source/src/FWlib/src/stm32f10x_dma.c **** 
  26:../../source/src/FWlib/src/stm32f10x_dma.c **** /** @addtogroup STM32F10x_StdPeriph_Driver
  27:../../source/src/FWlib/src/stm32f10x_dma.c ****   * @{
  28:../../source/src/FWlib/src/stm32f10x_dma.c ****   */
  29:../../source/src/FWlib/src/stm32f10x_dma.c **** 
  30:../../source/src/FWlib/src/stm32f10x_dma.c **** /** @defgroup DMA 
  31:../../source/src/FWlib/src/stm32f10x_dma.c ****   * @brief DMA driver modules
  32:../../source/src/FWlib/src/stm32f10x_dma.c ****   * @{
  33:../../source/src/FWlib/src/stm32f10x_dma.c ****   */ 
ARM GAS  G:\Users\Jaxb\AppData\Local\Temp\ccnyQMas.s 			page 2


  34:../../source/src/FWlib/src/stm32f10x_dma.c **** 
  35:../../source/src/FWlib/src/stm32f10x_dma.c **** /** @defgroup DMA_Private_TypesDefinitions
  36:../../source/src/FWlib/src/stm32f10x_dma.c ****   * @{
  37:../../source/src/FWlib/src/stm32f10x_dma.c ****   */ 
  38:../../source/src/FWlib/src/stm32f10x_dma.c **** /**
  39:../../source/src/FWlib/src/stm32f10x_dma.c ****   * @}
  40:../../source/src/FWlib/src/stm32f10x_dma.c ****   */
  41:../../source/src/FWlib/src/stm32f10x_dma.c **** 
  42:../../source/src/FWlib/src/stm32f10x_dma.c **** /** @defgroup DMA_Private_Defines
  43:../../source/src/FWlib/src/stm32f10x_dma.c ****   * @{
  44:../../source/src/FWlib/src/stm32f10x_dma.c ****   */
  45:../../source/src/FWlib/src/stm32f10x_dma.c **** 
  46:../../source/src/FWlib/src/stm32f10x_dma.c **** 
  47:../../source/src/FWlib/src/stm32f10x_dma.c **** /* DMA1 Channelx interrupt pending bit masks */
  48:../../source/src/FWlib/src/stm32f10x_dma.c **** #define DMA1_Channel1_IT_Mask    ((uint32_t)(DMA_ISR_GIF1 | DMA_ISR_TCIF1 | DMA_ISR_HTIF1 | DMA_ISR
  49:../../source/src/FWlib/src/stm32f10x_dma.c **** #define DMA1_Channel2_IT_Mask    ((uint32_t)(DMA_ISR_GIF2 | DMA_ISR_TCIF2 | DMA_ISR_HTIF2 | DMA_ISR
  50:../../source/src/FWlib/src/stm32f10x_dma.c **** #define DMA1_Channel3_IT_Mask    ((uint32_t)(DMA_ISR_GIF3 | DMA_ISR_TCIF3 | DMA_ISR_HTIF3 | DMA_ISR
  51:../../source/src/FWlib/src/stm32f10x_dma.c **** #define DMA1_Channel4_IT_Mask    ((uint32_t)(DMA_ISR_GIF4 | DMA_ISR_TCIF4 | DMA_ISR_HTIF4 | DMA_ISR
  52:../../source/src/FWlib/src/stm32f10x_dma.c **** #define DMA1_Channel5_IT_Mask    ((uint32_t)(DMA_ISR_GIF5 | DMA_ISR_TCIF5 | DMA_ISR_HTIF5 | DMA_ISR
  53:../../source/src/FWlib/src/stm32f10x_dma.c **** #define DMA1_Channel6_IT_Mask    ((uint32_t)(DMA_ISR_GIF6 | DMA_ISR_TCIF6 | DMA_ISR_HTIF6 | DMA_ISR
  54:../../source/src/FWlib/src/stm32f10x_dma.c **** #define DMA1_Channel7_IT_Mask    ((uint32_t)(DMA_ISR_GIF7 | DMA_ISR_TCIF7 | DMA_ISR_HTIF7 | DMA_ISR
  55:../../source/src/FWlib/src/stm32f10x_dma.c **** 
  56:../../source/src/FWlib/src/stm32f10x_dma.c **** /* DMA2 Channelx interrupt pending bit masks */
  57:../../source/src/FWlib/src/stm32f10x_dma.c **** #define DMA2_Channel1_IT_Mask    ((uint32_t)(DMA_ISR_GIF1 | DMA_ISR_TCIF1 | DMA_ISR_HTIF1 | DMA_ISR
  58:../../source/src/FWlib/src/stm32f10x_dma.c **** #define DMA2_Channel2_IT_Mask    ((uint32_t)(DMA_ISR_GIF2 | DMA_ISR_TCIF2 | DMA_ISR_HTIF2 | DMA_ISR
  59:../../source/src/FWlib/src/stm32f10x_dma.c **** #define DMA2_Channel3_IT_Mask    ((uint32_t)(DMA_ISR_GIF3 | DMA_ISR_TCIF3 | DMA_ISR_HTIF3 | DMA_ISR
  60:../../source/src/FWlib/src/stm32f10x_dma.c **** #define DMA2_Channel4_IT_Mask    ((uint32_t)(DMA_ISR_GIF4 | DMA_ISR_TCIF4 | DMA_ISR_HTIF4 | DMA_ISR
  61:../../source/src/FWlib/src/stm32f10x_dma.c **** #define DMA2_Channel5_IT_Mask    ((uint32_t)(DMA_ISR_GIF5 | DMA_ISR_TCIF5 | DMA_ISR_HTIF5 | DMA_ISR
  62:../../source/src/FWlib/src/stm32f10x_dma.c **** 
  63:../../source/src/FWlib/src/stm32f10x_dma.c **** /* DMA2 FLAG mask */
  64:../../source/src/FWlib/src/stm32f10x_dma.c **** #define FLAG_Mask                ((uint32_t)0x10000000)
  65:../../source/src/FWlib/src/stm32f10x_dma.c **** 
  66:../../source/src/FWlib/src/stm32f10x_dma.c **** /* DMA registers Masks */
  67:../../source/src/FWlib/src/stm32f10x_dma.c **** #define CCR_CLEAR_Mask           ((uint32_t)0xFFFF800F)
  68:../../source/src/FWlib/src/stm32f10x_dma.c **** 
  69:../../source/src/FWlib/src/stm32f10x_dma.c **** /**
  70:../../source/src/FWlib/src/stm32f10x_dma.c ****   * @}
  71:../../source/src/FWlib/src/stm32f10x_dma.c ****   */
  72:../../source/src/FWlib/src/stm32f10x_dma.c **** 
  73:../../source/src/FWlib/src/stm32f10x_dma.c **** /** @defgroup DMA_Private_Macros
  74:../../source/src/FWlib/src/stm32f10x_dma.c ****   * @{
  75:../../source/src/FWlib/src/stm32f10x_dma.c ****   */
  76:../../source/src/FWlib/src/stm32f10x_dma.c **** 
  77:../../source/src/FWlib/src/stm32f10x_dma.c **** /**
  78:../../source/src/FWlib/src/stm32f10x_dma.c ****   * @}
  79:../../source/src/FWlib/src/stm32f10x_dma.c ****   */
  80:../../source/src/FWlib/src/stm32f10x_dma.c **** 
  81:../../source/src/FWlib/src/stm32f10x_dma.c **** /** @defgroup DMA_Private_Variables
  82:../../source/src/FWlib/src/stm32f10x_dma.c ****   * @{
  83:../../source/src/FWlib/src/stm32f10x_dma.c ****   */
  84:../../source/src/FWlib/src/stm32f10x_dma.c **** 
  85:../../source/src/FWlib/src/stm32f10x_dma.c **** /**
  86:../../source/src/FWlib/src/stm32f10x_dma.c ****   * @}
  87:../../source/src/FWlib/src/stm32f10x_dma.c ****   */
  88:../../source/src/FWlib/src/stm32f10x_dma.c **** 
  89:../../source/src/FWlib/src/stm32f10x_dma.c **** /** @defgroup DMA_Private_FunctionPrototypes
  90:../../source/src/FWlib/src/stm32f10x_dma.c ****   * @{
ARM GAS  G:\Users\Jaxb\AppData\Local\Temp\ccnyQMas.s 			page 3


  91:../../source/src/FWlib/src/stm32f10x_dma.c ****   */
  92:../../source/src/FWlib/src/stm32f10x_dma.c **** 
  93:../../source/src/FWlib/src/stm32f10x_dma.c **** /**
  94:../../source/src/FWlib/src/stm32f10x_dma.c ****   * @}
  95:../../source/src/FWlib/src/stm32f10x_dma.c ****   */
  96:../../source/src/FWlib/src/stm32f10x_dma.c **** 
  97:../../source/src/FWlib/src/stm32f10x_dma.c **** /** @defgroup DMA_Private_Functions
  98:../../source/src/FWlib/src/stm32f10x_dma.c ****   * @{
  99:../../source/src/FWlib/src/stm32f10x_dma.c ****   */
 100:../../source/src/FWlib/src/stm32f10x_dma.c **** 
 101:../../source/src/FWlib/src/stm32f10x_dma.c **** /**
 102:../../source/src/FWlib/src/stm32f10x_dma.c ****   * @brief  Deinitializes the DMAy Channelx registers to their default reset
 103:../../source/src/FWlib/src/stm32f10x_dma.c ****   *         values.
 104:../../source/src/FWlib/src/stm32f10x_dma.c ****   * @param  DMAy_Channelx: where y can be 1 or 2 to select the DMA and
 105:../../source/src/FWlib/src/stm32f10x_dma.c ****   *   x can be 1 to 7 for DMA1 and 1 to 5 for DMA2 to select the DMA Channel.
 106:../../source/src/FWlib/src/stm32f10x_dma.c ****   * @retval None
 107:../../source/src/FWlib/src/stm32f10x_dma.c ****   */
 108:../../source/src/FWlib/src/stm32f10x_dma.c **** void DMA_DeInit(DMA_Channel_TypeDef* DMAy_Channelx)
 109:../../source/src/FWlib/src/stm32f10x_dma.c **** {
  25              		.loc 1 109 0
  26              		.cfi_startproc
  27              		@ args = 0, pretend = 0, frame = 8
  28              		@ frame_needed = 1, uses_anonymous_args = 0
  29              		@ link register save eliminated.
  30 0000 80B4     		push	{r7}
  31              	.LCFI0:
  32              		.cfi_def_cfa_offset 4
  33              		.cfi_offset 7, -4
  34 0002 83B0     		sub	sp, sp, #12
  35              	.LCFI1:
  36              		.cfi_def_cfa_offset 16
  37 0004 00AF     		add	r7, sp, #0
  38              	.LCFI2:
  39              		.cfi_def_cfa_register 7
  40 0006 7860     		str	r0, [r7, #4]
 110:../../source/src/FWlib/src/stm32f10x_dma.c ****   /* Check the parameters */
 111:../../source/src/FWlib/src/stm32f10x_dma.c ****   assert_param(IS_DMA_ALL_PERIPH(DMAy_Channelx));
 112:../../source/src/FWlib/src/stm32f10x_dma.c ****   
 113:../../source/src/FWlib/src/stm32f10x_dma.c ****   /* Disable the selected DMAy Channelx */
 114:../../source/src/FWlib/src/stm32f10x_dma.c ****   DMAy_Channelx->CCR &= (uint16_t)(~DMA_CCR1_EN);
  41              		.loc 1 114 0
  42 0008 7B68     		ldr	r3, [r7, #4]
  43 000a 1A68     		ldr	r2, [r3]
  44 000c 4FF6FE73 		movw	r3, #65534
  45 0010 1340     		ands	r3, r3, r2
  46 0012 7A68     		ldr	r2, [r7, #4]
  47 0014 1360     		str	r3, [r2]
 115:../../source/src/FWlib/src/stm32f10x_dma.c ****   
 116:../../source/src/FWlib/src/stm32f10x_dma.c ****   /* Reset DMAy Channelx control register */
 117:../../source/src/FWlib/src/stm32f10x_dma.c ****   DMAy_Channelx->CCR  = 0;
  48              		.loc 1 117 0
  49 0016 7B68     		ldr	r3, [r7, #4]
  50 0018 0022     		movs	r2, #0
  51 001a 1A60     		str	r2, [r3]
 118:../../source/src/FWlib/src/stm32f10x_dma.c ****   
 119:../../source/src/FWlib/src/stm32f10x_dma.c ****   /* Reset DMAy Channelx remaining bytes register */
 120:../../source/src/FWlib/src/stm32f10x_dma.c ****   DMAy_Channelx->CNDTR = 0;
ARM GAS  G:\Users\Jaxb\AppData\Local\Temp\ccnyQMas.s 			page 4


  52              		.loc 1 120 0
  53 001c 7B68     		ldr	r3, [r7, #4]
  54 001e 0022     		movs	r2, #0
  55 0020 5A60     		str	r2, [r3, #4]
 121:../../source/src/FWlib/src/stm32f10x_dma.c ****   
 122:../../source/src/FWlib/src/stm32f10x_dma.c ****   /* Reset DMAy Channelx peripheral address register */
 123:../../source/src/FWlib/src/stm32f10x_dma.c ****   DMAy_Channelx->CPAR  = 0;
  56              		.loc 1 123 0
  57 0022 7B68     		ldr	r3, [r7, #4]
  58 0024 0022     		movs	r2, #0
  59 0026 9A60     		str	r2, [r3, #8]
 124:../../source/src/FWlib/src/stm32f10x_dma.c ****   
 125:../../source/src/FWlib/src/stm32f10x_dma.c ****   /* Reset DMAy Channelx memory address register */
 126:../../source/src/FWlib/src/stm32f10x_dma.c ****   DMAy_Channelx->CMAR = 0;
  60              		.loc 1 126 0
  61 0028 7B68     		ldr	r3, [r7, #4]
  62 002a 0022     		movs	r2, #0
  63 002c DA60     		str	r2, [r3, #12]
 127:../../source/src/FWlib/src/stm32f10x_dma.c ****   
 128:../../source/src/FWlib/src/stm32f10x_dma.c ****   if (DMAy_Channelx == DMA1_Channel1)
  64              		.loc 1 128 0
  65 002e 7B68     		ldr	r3, [r7, #4]
  66 0030 434A     		ldr	r2, .L15
  67 0032 9342     		cmp	r3, r2
  68 0034 06D1     		bne	.L2
 129:../../source/src/FWlib/src/stm32f10x_dma.c ****   {
 130:../../source/src/FWlib/src/stm32f10x_dma.c ****     /* Reset interrupt pending bits for DMA1 Channel1 */
 131:../../source/src/FWlib/src/stm32f10x_dma.c ****     DMA1->IFCR |= DMA1_Channel1_IT_Mask;
  69              		.loc 1 131 0
  70 0036 434B     		ldr	r3, .L15+4
  71 0038 5B68     		ldr	r3, [r3, #4]
  72 003a 424A     		ldr	r2, .L15+4
  73 003c 43F00F03 		orr	r3, r3, #15
  74 0040 5360     		str	r3, [r2, #4]
 132:../../source/src/FWlib/src/stm32f10x_dma.c ****   }
 133:../../source/src/FWlib/src/stm32f10x_dma.c ****   else if (DMAy_Channelx == DMA1_Channel2)
 134:../../source/src/FWlib/src/stm32f10x_dma.c ****   {
 135:../../source/src/FWlib/src/stm32f10x_dma.c ****     /* Reset interrupt pending bits for DMA1 Channel2 */
 136:../../source/src/FWlib/src/stm32f10x_dma.c ****     DMA1->IFCR |= DMA1_Channel2_IT_Mask;
 137:../../source/src/FWlib/src/stm32f10x_dma.c ****   }
 138:../../source/src/FWlib/src/stm32f10x_dma.c ****   else if (DMAy_Channelx == DMA1_Channel3)
 139:../../source/src/FWlib/src/stm32f10x_dma.c ****   {
 140:../../source/src/FWlib/src/stm32f10x_dma.c ****     /* Reset interrupt pending bits for DMA1 Channel3 */
 141:../../source/src/FWlib/src/stm32f10x_dma.c ****     DMA1->IFCR |= DMA1_Channel3_IT_Mask;
 142:../../source/src/FWlib/src/stm32f10x_dma.c ****   }
 143:../../source/src/FWlib/src/stm32f10x_dma.c ****   else if (DMAy_Channelx == DMA1_Channel4)
 144:../../source/src/FWlib/src/stm32f10x_dma.c ****   {
 145:../../source/src/FWlib/src/stm32f10x_dma.c ****     /* Reset interrupt pending bits for DMA1 Channel4 */
 146:../../source/src/FWlib/src/stm32f10x_dma.c ****     DMA1->IFCR |= DMA1_Channel4_IT_Mask;
 147:../../source/src/FWlib/src/stm32f10x_dma.c ****   }
 148:../../source/src/FWlib/src/stm32f10x_dma.c ****   else if (DMAy_Channelx == DMA1_Channel5)
 149:../../source/src/FWlib/src/stm32f10x_dma.c ****   {
 150:../../source/src/FWlib/src/stm32f10x_dma.c ****     /* Reset interrupt pending bits for DMA1 Channel5 */
 151:../../source/src/FWlib/src/stm32f10x_dma.c ****     DMA1->IFCR |= DMA1_Channel5_IT_Mask;
 152:../../source/src/FWlib/src/stm32f10x_dma.c ****   }
 153:../../source/src/FWlib/src/stm32f10x_dma.c ****   else if (DMAy_Channelx == DMA1_Channel6)
 154:../../source/src/FWlib/src/stm32f10x_dma.c ****   {
ARM GAS  G:\Users\Jaxb\AppData\Local\Temp\ccnyQMas.s 			page 5


 155:../../source/src/FWlib/src/stm32f10x_dma.c ****     /* Reset interrupt pending bits for DMA1 Channel6 */
 156:../../source/src/FWlib/src/stm32f10x_dma.c ****     DMA1->IFCR |= DMA1_Channel6_IT_Mask;
 157:../../source/src/FWlib/src/stm32f10x_dma.c ****   }
 158:../../source/src/FWlib/src/stm32f10x_dma.c ****   else if (DMAy_Channelx == DMA1_Channel7)
 159:../../source/src/FWlib/src/stm32f10x_dma.c ****   {
 160:../../source/src/FWlib/src/stm32f10x_dma.c ****     /* Reset interrupt pending bits for DMA1 Channel7 */
 161:../../source/src/FWlib/src/stm32f10x_dma.c ****     DMA1->IFCR |= DMA1_Channel7_IT_Mask;
 162:../../source/src/FWlib/src/stm32f10x_dma.c ****   }
 163:../../source/src/FWlib/src/stm32f10x_dma.c ****   else if (DMAy_Channelx == DMA2_Channel1)
 164:../../source/src/FWlib/src/stm32f10x_dma.c ****   {
 165:../../source/src/FWlib/src/stm32f10x_dma.c ****     /* Reset interrupt pending bits for DMA2 Channel1 */
 166:../../source/src/FWlib/src/stm32f10x_dma.c ****     DMA2->IFCR |= DMA2_Channel1_IT_Mask;
 167:../../source/src/FWlib/src/stm32f10x_dma.c ****   }
 168:../../source/src/FWlib/src/stm32f10x_dma.c ****   else if (DMAy_Channelx == DMA2_Channel2)
 169:../../source/src/FWlib/src/stm32f10x_dma.c ****   {
 170:../../source/src/FWlib/src/stm32f10x_dma.c ****     /* Reset interrupt pending bits for DMA2 Channel2 */
 171:../../source/src/FWlib/src/stm32f10x_dma.c ****     DMA2->IFCR |= DMA2_Channel2_IT_Mask;
 172:../../source/src/FWlib/src/stm32f10x_dma.c ****   }
 173:../../source/src/FWlib/src/stm32f10x_dma.c ****   else if (DMAy_Channelx == DMA2_Channel3)
 174:../../source/src/FWlib/src/stm32f10x_dma.c ****   {
 175:../../source/src/FWlib/src/stm32f10x_dma.c ****     /* Reset interrupt pending bits for DMA2 Channel3 */
 176:../../source/src/FWlib/src/stm32f10x_dma.c ****     DMA2->IFCR |= DMA2_Channel3_IT_Mask;
 177:../../source/src/FWlib/src/stm32f10x_dma.c ****   }
 178:../../source/src/FWlib/src/stm32f10x_dma.c ****   else if (DMAy_Channelx == DMA2_Channel4)
 179:../../source/src/FWlib/src/stm32f10x_dma.c ****   {
 180:../../source/src/FWlib/src/stm32f10x_dma.c ****     /* Reset interrupt pending bits for DMA2 Channel4 */
 181:../../source/src/FWlib/src/stm32f10x_dma.c ****     DMA2->IFCR |= DMA2_Channel4_IT_Mask;
 182:../../source/src/FWlib/src/stm32f10x_dma.c ****   }
 183:../../source/src/FWlib/src/stm32f10x_dma.c ****   else
 184:../../source/src/FWlib/src/stm32f10x_dma.c ****   { 
 185:../../source/src/FWlib/src/stm32f10x_dma.c ****     if (DMAy_Channelx == DMA2_Channel5)
 186:../../source/src/FWlib/src/stm32f10x_dma.c ****     {
 187:../../source/src/FWlib/src/stm32f10x_dma.c ****       /* Reset interrupt pending bits for DMA2 Channel5 */
 188:../../source/src/FWlib/src/stm32f10x_dma.c ****       DMA2->IFCR |= DMA2_Channel5_IT_Mask;
 189:../../source/src/FWlib/src/stm32f10x_dma.c ****     }
 190:../../source/src/FWlib/src/stm32f10x_dma.c ****   }
 191:../../source/src/FWlib/src/stm32f10x_dma.c **** }
  75              		.loc 1 191 0
  76 0042 77E0     		b	.L14
  77              	.L2:
 133:../../source/src/FWlib/src/stm32f10x_dma.c ****   {
  78              		.loc 1 133 0
  79 0044 7B68     		ldr	r3, [r7, #4]
  80 0046 404A     		ldr	r2, .L15+8
  81 0048 9342     		cmp	r3, r2
  82 004a 06D1     		bne	.L4
 136:../../source/src/FWlib/src/stm32f10x_dma.c ****   }
  83              		.loc 1 136 0
  84 004c 3D4B     		ldr	r3, .L15+4
  85 004e 5B68     		ldr	r3, [r3, #4]
  86 0050 3C4A     		ldr	r2, .L15+4
  87 0052 43F0F003 		orr	r3, r3, #240
  88 0056 5360     		str	r3, [r2, #4]
  89              		.loc 1 191 0
  90 0058 6CE0     		b	.L14
  91              	.L4:
 138:../../source/src/FWlib/src/stm32f10x_dma.c ****   {
ARM GAS  G:\Users\Jaxb\AppData\Local\Temp\ccnyQMas.s 			page 6


  92              		.loc 1 138 0
  93 005a 7B68     		ldr	r3, [r7, #4]
  94 005c 3B4A     		ldr	r2, .L15+12
  95 005e 9342     		cmp	r3, r2
  96 0060 06D1     		bne	.L5
 141:../../source/src/FWlib/src/stm32f10x_dma.c ****   }
  97              		.loc 1 141 0
  98 0062 384B     		ldr	r3, .L15+4
  99 0064 5B68     		ldr	r3, [r3, #4]
 100 0066 374A     		ldr	r2, .L15+4
 101 0068 43F47063 		orr	r3, r3, #3840
 102 006c 5360     		str	r3, [r2, #4]
 103              		.loc 1 191 0
 104 006e 61E0     		b	.L14
 105              	.L5:
 143:../../source/src/FWlib/src/stm32f10x_dma.c ****   {
 106              		.loc 1 143 0
 107 0070 7B68     		ldr	r3, [r7, #4]
 108 0072 374A     		ldr	r2, .L15+16
 109 0074 9342     		cmp	r3, r2
 110 0076 06D1     		bne	.L6
 146:../../source/src/FWlib/src/stm32f10x_dma.c ****   }
 111              		.loc 1 146 0
 112 0078 324B     		ldr	r3, .L15+4
 113 007a 5B68     		ldr	r3, [r3, #4]
 114 007c 314A     		ldr	r2, .L15+4
 115 007e 43F47043 		orr	r3, r3, #61440
 116 0082 5360     		str	r3, [r2, #4]
 117              		.loc 1 191 0
 118 0084 56E0     		b	.L14
 119              	.L6:
 148:../../source/src/FWlib/src/stm32f10x_dma.c ****   {
 120              		.loc 1 148 0
 121 0086 7B68     		ldr	r3, [r7, #4]
 122 0088 324A     		ldr	r2, .L15+20
 123 008a 9342     		cmp	r3, r2
 124 008c 06D1     		bne	.L7
 151:../../source/src/FWlib/src/stm32f10x_dma.c ****   }
 125              		.loc 1 151 0
 126 008e 2D4B     		ldr	r3, .L15+4
 127 0090 5B68     		ldr	r3, [r3, #4]
 128 0092 2C4A     		ldr	r2, .L15+4
 129 0094 43F47023 		orr	r3, r3, #983040
 130 0098 5360     		str	r3, [r2, #4]
 131              		.loc 1 191 0
 132 009a 4BE0     		b	.L14
 133              	.L7:
 153:../../source/src/FWlib/src/stm32f10x_dma.c ****   {
 134              		.loc 1 153 0
 135 009c 7B68     		ldr	r3, [r7, #4]
 136 009e 2E4A     		ldr	r2, .L15+24
 137 00a0 9342     		cmp	r3, r2
 138 00a2 06D1     		bne	.L8
 156:../../source/src/FWlib/src/stm32f10x_dma.c ****   }
 139              		.loc 1 156 0
 140 00a4 274B     		ldr	r3, .L15+4
 141 00a6 5B68     		ldr	r3, [r3, #4]
ARM GAS  G:\Users\Jaxb\AppData\Local\Temp\ccnyQMas.s 			page 7


 142 00a8 264A     		ldr	r2, .L15+4
 143 00aa 43F47003 		orr	r3, r3, #15728640
 144 00ae 5360     		str	r3, [r2, #4]
 145              		.loc 1 191 0
 146 00b0 40E0     		b	.L14
 147              	.L8:
 158:../../source/src/FWlib/src/stm32f10x_dma.c ****   {
 148              		.loc 1 158 0
 149 00b2 7B68     		ldr	r3, [r7, #4]
 150 00b4 294A     		ldr	r2, .L15+28
 151 00b6 9342     		cmp	r3, r2
 152 00b8 06D1     		bne	.L9
 161:../../source/src/FWlib/src/stm32f10x_dma.c ****   }
 153              		.loc 1 161 0
 154 00ba 224B     		ldr	r3, .L15+4
 155 00bc 5B68     		ldr	r3, [r3, #4]
 156 00be 214A     		ldr	r2, .L15+4
 157 00c0 43F07063 		orr	r3, r3, #251658240
 158 00c4 5360     		str	r3, [r2, #4]
 159              		.loc 1 191 0
 160 00c6 35E0     		b	.L14
 161              	.L9:
 163:../../source/src/FWlib/src/stm32f10x_dma.c ****   {
 162              		.loc 1 163 0
 163 00c8 7B68     		ldr	r3, [r7, #4]
 164 00ca 254A     		ldr	r2, .L15+32
 165 00cc 9342     		cmp	r3, r2
 166 00ce 06D1     		bne	.L10
 166:../../source/src/FWlib/src/stm32f10x_dma.c ****   }
 167              		.loc 1 166 0
 168 00d0 244B     		ldr	r3, .L15+36
 169 00d2 5B68     		ldr	r3, [r3, #4]
 170 00d4 234A     		ldr	r2, .L15+36
 171 00d6 43F00F03 		orr	r3, r3, #15
 172 00da 5360     		str	r3, [r2, #4]
 173              		.loc 1 191 0
 174 00dc 2AE0     		b	.L14
 175              	.L10:
 168:../../source/src/FWlib/src/stm32f10x_dma.c ****   {
 176              		.loc 1 168 0
 177 00de 7B68     		ldr	r3, [r7, #4]
 178 00e0 214A     		ldr	r2, .L15+40
 179 00e2 9342     		cmp	r3, r2
 180 00e4 06D1     		bne	.L11
 171:../../source/src/FWlib/src/stm32f10x_dma.c ****   }
 181              		.loc 1 171 0
 182 00e6 1F4B     		ldr	r3, .L15+36
 183 00e8 5B68     		ldr	r3, [r3, #4]
 184 00ea 1E4A     		ldr	r2, .L15+36
 185 00ec 43F0F003 		orr	r3, r3, #240
 186 00f0 5360     		str	r3, [r2, #4]
 187              		.loc 1 191 0
 188 00f2 1FE0     		b	.L14
 189              	.L11:
 173:../../source/src/FWlib/src/stm32f10x_dma.c ****   {
 190              		.loc 1 173 0
 191 00f4 7B68     		ldr	r3, [r7, #4]
ARM GAS  G:\Users\Jaxb\AppData\Local\Temp\ccnyQMas.s 			page 8


 192 00f6 1D4A     		ldr	r2, .L15+44
 193 00f8 9342     		cmp	r3, r2
 194 00fa 06D1     		bne	.L12
 176:../../source/src/FWlib/src/stm32f10x_dma.c ****   }
 195              		.loc 1 176 0
 196 00fc 194B     		ldr	r3, .L15+36
 197 00fe 5B68     		ldr	r3, [r3, #4]
 198 0100 184A     		ldr	r2, .L15+36
 199 0102 43F47063 		orr	r3, r3, #3840
 200 0106 5360     		str	r3, [r2, #4]
 201              		.loc 1 191 0
 202 0108 14E0     		b	.L14
 203              	.L12:
 178:../../source/src/FWlib/src/stm32f10x_dma.c ****   {
 204              		.loc 1 178 0
 205 010a 7B68     		ldr	r3, [r7, #4]
 206 010c 184A     		ldr	r2, .L15+48
 207 010e 9342     		cmp	r3, r2
 208 0110 06D1     		bne	.L13
 181:../../source/src/FWlib/src/stm32f10x_dma.c ****   }
 209              		.loc 1 181 0
 210 0112 144B     		ldr	r3, .L15+36
 211 0114 5B68     		ldr	r3, [r3, #4]
 212 0116 134A     		ldr	r2, .L15+36
 213 0118 43F47043 		orr	r3, r3, #61440
 214 011c 5360     		str	r3, [r2, #4]
 215              		.loc 1 191 0
 216 011e 09E0     		b	.L14
 217              	.L13:
 185:../../source/src/FWlib/src/stm32f10x_dma.c ****     {
 218              		.loc 1 185 0
 219 0120 7B68     		ldr	r3, [r7, #4]
 220 0122 144A     		ldr	r2, .L15+52
 221 0124 9342     		cmp	r3, r2
 222 0126 05D1     		bne	.L14
 188:../../source/src/FWlib/src/stm32f10x_dma.c ****     }
 223              		.loc 1 188 0
 224 0128 0E4B     		ldr	r3, .L15+36
 225 012a 5B68     		ldr	r3, [r3, #4]
 226 012c 0D4A     		ldr	r2, .L15+36
 227 012e 43F47023 		orr	r3, r3, #983040
 228 0132 5360     		str	r3, [r2, #4]
 229              	.L14:
 230              		.loc 1 191 0
 231 0134 00BF     		nop
 232 0136 0C37     		adds	r7, r7, #12
 233              	.LCFI3:
 234              		.cfi_def_cfa_offset 4
 235 0138 BD46     		mov	sp, r7
 236              	.LCFI4:
 237              		.cfi_def_cfa_register 13
 238              		@ sp needed
 239 013a 80BC     		pop	{r7}
 240              	.LCFI5:
 241              		.cfi_restore 7
 242              		.cfi_def_cfa_offset 0
 243 013c 7047     		bx	lr
ARM GAS  G:\Users\Jaxb\AppData\Local\Temp\ccnyQMas.s 			page 9


 244              	.L16:
 245 013e 00BF     		.align	2
 246              	.L15:
 247 0140 08000240 		.word	1073872904
 248 0144 00000240 		.word	1073872896
 249 0148 1C000240 		.word	1073872924
 250 014c 30000240 		.word	1073872944
 251 0150 44000240 		.word	1073872964
 252 0154 58000240 		.word	1073872984
 253 0158 6C000240 		.word	1073873004
 254 015c 80000240 		.word	1073873024
 255 0160 08040240 		.word	1073873928
 256 0164 00040240 		.word	1073873920
 257 0168 1C040240 		.word	1073873948
 258 016c 30040240 		.word	1073873968
 259 0170 44040240 		.word	1073873988
 260 0174 58040240 		.word	1073874008
 261              		.cfi_endproc
 262              	.LFE29:
 263              		.size	DMA_DeInit, .-DMA_DeInit
 264              		.align	1
 265              		.global	DMA_Init
 266              		.syntax unified
 267              		.thumb
 268              		.thumb_func
 269              		.fpu softvfp
 270              		.type	DMA_Init, %function
 271              	DMA_Init:
 272              	.LFB30:
 192:../../source/src/FWlib/src/stm32f10x_dma.c **** 
 193:../../source/src/FWlib/src/stm32f10x_dma.c **** /**
 194:../../source/src/FWlib/src/stm32f10x_dma.c ****   * @brief  Initializes the DMAy Channelx according to the specified
 195:../../source/src/FWlib/src/stm32f10x_dma.c ****   *         parameters in the DMA_InitStruct.
 196:../../source/src/FWlib/src/stm32f10x_dma.c ****   * @param  DMAy_Channelx: where y can be 1 or 2 to select the DMA and 
 197:../../source/src/FWlib/src/stm32f10x_dma.c ****   *   x can be 1 to 7 for DMA1 and 1 to 5 for DMA2 to select the DMA Channel.
 198:../../source/src/FWlib/src/stm32f10x_dma.c ****   * @param  DMA_InitStruct: pointer to a DMA_InitTypeDef structure that
 199:../../source/src/FWlib/src/stm32f10x_dma.c ****   *         contains the configuration information for the specified DMA Channel.
 200:../../source/src/FWlib/src/stm32f10x_dma.c ****   * @retval None
 201:../../source/src/FWlib/src/stm32f10x_dma.c ****   */
 202:../../source/src/FWlib/src/stm32f10x_dma.c **** void DMA_Init(DMA_Channel_TypeDef* DMAy_Channelx, DMA_InitTypeDef* DMA_InitStruct)
 203:../../source/src/FWlib/src/stm32f10x_dma.c **** {
 273              		.loc 1 203 0
 274              		.cfi_startproc
 275              		@ args = 0, pretend = 0, frame = 16
 276              		@ frame_needed = 1, uses_anonymous_args = 0
 277              		@ link register save eliminated.
 278 0178 80B4     		push	{r7}
 279              	.LCFI6:
 280              		.cfi_def_cfa_offset 4
 281              		.cfi_offset 7, -4
 282 017a 85B0     		sub	sp, sp, #20
 283              	.LCFI7:
 284              		.cfi_def_cfa_offset 24
 285 017c 00AF     		add	r7, sp, #0
 286              	.LCFI8:
 287              		.cfi_def_cfa_register 7
 288 017e 7860     		str	r0, [r7, #4]
ARM GAS  G:\Users\Jaxb\AppData\Local\Temp\ccnyQMas.s 			page 10


 289 0180 3960     		str	r1, [r7]
 204:../../source/src/FWlib/src/stm32f10x_dma.c ****   uint32_t tmpreg = 0;
 290              		.loc 1 204 0
 291 0182 0023     		movs	r3, #0
 292 0184 FB60     		str	r3, [r7, #12]
 205:../../source/src/FWlib/src/stm32f10x_dma.c **** 
 206:../../source/src/FWlib/src/stm32f10x_dma.c ****   /* Check the parameters */
 207:../../source/src/FWlib/src/stm32f10x_dma.c ****   assert_param(IS_DMA_ALL_PERIPH(DMAy_Channelx));
 208:../../source/src/FWlib/src/stm32f10x_dma.c ****   assert_param(IS_DMA_DIR(DMA_InitStruct->DMA_DIR));
 209:../../source/src/FWlib/src/stm32f10x_dma.c ****   assert_param(IS_DMA_BUFFER_SIZE(DMA_InitStruct->DMA_BufferSize));
 210:../../source/src/FWlib/src/stm32f10x_dma.c ****   assert_param(IS_DMA_PERIPHERAL_INC_STATE(DMA_InitStruct->DMA_PeripheralInc));
 211:../../source/src/FWlib/src/stm32f10x_dma.c ****   assert_param(IS_DMA_MEMORY_INC_STATE(DMA_InitStruct->DMA_MemoryInc));   
 212:../../source/src/FWlib/src/stm32f10x_dma.c ****   assert_param(IS_DMA_PERIPHERAL_DATA_SIZE(DMA_InitStruct->DMA_PeripheralDataSize));
 213:../../source/src/FWlib/src/stm32f10x_dma.c ****   assert_param(IS_DMA_MEMORY_DATA_SIZE(DMA_InitStruct->DMA_MemoryDataSize));
 214:../../source/src/FWlib/src/stm32f10x_dma.c ****   assert_param(IS_DMA_MODE(DMA_InitStruct->DMA_Mode));
 215:../../source/src/FWlib/src/stm32f10x_dma.c ****   assert_param(IS_DMA_PRIORITY(DMA_InitStruct->DMA_Priority));
 216:../../source/src/FWlib/src/stm32f10x_dma.c ****   assert_param(IS_DMA_M2M_STATE(DMA_InitStruct->DMA_M2M));
 217:../../source/src/FWlib/src/stm32f10x_dma.c **** 
 218:../../source/src/FWlib/src/stm32f10x_dma.c **** /*--------------------------- DMAy Channelx CCR Configuration -----------------*/
 219:../../source/src/FWlib/src/stm32f10x_dma.c ****   /* Get the DMAy_Channelx CCR value */
 220:../../source/src/FWlib/src/stm32f10x_dma.c ****   tmpreg = DMAy_Channelx->CCR;
 293              		.loc 1 220 0
 294 0186 7B68     		ldr	r3, [r7, #4]
 295 0188 1B68     		ldr	r3, [r3]
 296 018a FB60     		str	r3, [r7, #12]
 221:../../source/src/FWlib/src/stm32f10x_dma.c ****   /* Clear MEM2MEM, PL, MSIZE, PSIZE, MINC, PINC, CIRC and DIR bits */
 222:../../source/src/FWlib/src/stm32f10x_dma.c ****   tmpreg &= CCR_CLEAR_Mask;
 297              		.loc 1 222 0
 298 018c FB68     		ldr	r3, [r7, #12]
 299 018e 23F4FF43 		bic	r3, r3, #32640
 300 0192 23F07003 		bic	r3, r3, #112
 301 0196 FB60     		str	r3, [r7, #12]
 223:../../source/src/FWlib/src/stm32f10x_dma.c ****   /* Configure DMAy Channelx: data transfer, data size, priority level and mode */
 224:../../source/src/FWlib/src/stm32f10x_dma.c ****   /* Set DIR bit according to DMA_DIR value */
 225:../../source/src/FWlib/src/stm32f10x_dma.c ****   /* Set CIRC bit according to DMA_Mode value */
 226:../../source/src/FWlib/src/stm32f10x_dma.c ****   /* Set PINC bit according to DMA_PeripheralInc value */
 227:../../source/src/FWlib/src/stm32f10x_dma.c ****   /* Set MINC bit according to DMA_MemoryInc value */
 228:../../source/src/FWlib/src/stm32f10x_dma.c ****   /* Set PSIZE bits according to DMA_PeripheralDataSize value */
 229:../../source/src/FWlib/src/stm32f10x_dma.c ****   /* Set MSIZE bits according to DMA_MemoryDataSize value */
 230:../../source/src/FWlib/src/stm32f10x_dma.c ****   /* Set PL bits according to DMA_Priority value */
 231:../../source/src/FWlib/src/stm32f10x_dma.c ****   /* Set the MEM2MEM bit according to DMA_M2M value */
 232:../../source/src/FWlib/src/stm32f10x_dma.c ****   tmpreg |= DMA_InitStruct->DMA_DIR | DMA_InitStruct->DMA_Mode |
 302              		.loc 1 232 0
 303 0198 3B68     		ldr	r3, [r7]
 304 019a 9A68     		ldr	r2, [r3, #8]
 305 019c 3B68     		ldr	r3, [r7]
 306 019e 1B6A     		ldr	r3, [r3, #32]
 307 01a0 1A43     		orrs	r2, r2, r3
 233:../../source/src/FWlib/src/stm32f10x_dma.c ****             DMA_InitStruct->DMA_PeripheralInc | DMA_InitStruct->DMA_MemoryInc |
 308              		.loc 1 233 0
 309 01a2 3B68     		ldr	r3, [r7]
 310 01a4 1B69     		ldr	r3, [r3, #16]
 232:../../source/src/FWlib/src/stm32f10x_dma.c ****             DMA_InitStruct->DMA_PeripheralInc | DMA_InitStruct->DMA_MemoryInc |
 311              		.loc 1 232 0
 312 01a6 1A43     		orrs	r2, r2, r3
 313              		.loc 1 233 0
 314 01a8 3B68     		ldr	r3, [r7]
ARM GAS  G:\Users\Jaxb\AppData\Local\Temp\ccnyQMas.s 			page 11


 315 01aa 5B69     		ldr	r3, [r3, #20]
 316 01ac 1A43     		orrs	r2, r2, r3
 234:../../source/src/FWlib/src/stm32f10x_dma.c ****             DMA_InitStruct->DMA_PeripheralDataSize | DMA_InitStruct->DMA_MemoryDataSize |
 317              		.loc 1 234 0
 318 01ae 3B68     		ldr	r3, [r7]
 319 01b0 9B69     		ldr	r3, [r3, #24]
 233:../../source/src/FWlib/src/stm32f10x_dma.c ****             DMA_InitStruct->DMA_PeripheralInc | DMA_InitStruct->DMA_MemoryInc |
 320              		.loc 1 233 0
 321 01b2 1A43     		orrs	r2, r2, r3
 322              		.loc 1 234 0
 323 01b4 3B68     		ldr	r3, [r7]
 324 01b6 DB69     		ldr	r3, [r3, #28]
 325 01b8 1A43     		orrs	r2, r2, r3
 235:../../source/src/FWlib/src/stm32f10x_dma.c ****             DMA_InitStruct->DMA_Priority | DMA_InitStruct->DMA_M2M;
 326              		.loc 1 235 0
 327 01ba 3B68     		ldr	r3, [r7]
 328 01bc 5B6A     		ldr	r3, [r3, #36]
 234:../../source/src/FWlib/src/stm32f10x_dma.c ****             DMA_InitStruct->DMA_PeripheralDataSize | DMA_InitStruct->DMA_MemoryDataSize |
 329              		.loc 1 234 0
 330 01be 1A43     		orrs	r2, r2, r3
 331              		.loc 1 235 0
 332 01c0 3B68     		ldr	r3, [r7]
 333 01c2 9B6A     		ldr	r3, [r3, #40]
 334 01c4 1343     		orrs	r3, r3, r2
 232:../../source/src/FWlib/src/stm32f10x_dma.c ****             DMA_InitStruct->DMA_PeripheralInc | DMA_InitStruct->DMA_MemoryInc |
 335              		.loc 1 232 0
 336 01c6 FA68     		ldr	r2, [r7, #12]
 337 01c8 1343     		orrs	r3, r3, r2
 338 01ca FB60     		str	r3, [r7, #12]
 236:../../source/src/FWlib/src/stm32f10x_dma.c **** 
 237:../../source/src/FWlib/src/stm32f10x_dma.c ****   /* Write to DMAy Channelx CCR */
 238:../../source/src/FWlib/src/stm32f10x_dma.c ****   DMAy_Channelx->CCR = tmpreg;
 339              		.loc 1 238 0
 340 01cc 7B68     		ldr	r3, [r7, #4]
 341 01ce FA68     		ldr	r2, [r7, #12]
 342 01d0 1A60     		str	r2, [r3]
 239:../../source/src/FWlib/src/stm32f10x_dma.c **** 
 240:../../source/src/FWlib/src/stm32f10x_dma.c **** /*--------------------------- DMAy Channelx CNDTR Configuration ---------------*/
 241:../../source/src/FWlib/src/stm32f10x_dma.c ****   /* Write to DMAy Channelx CNDTR */
 242:../../source/src/FWlib/src/stm32f10x_dma.c ****   DMAy_Channelx->CNDTR = DMA_InitStruct->DMA_BufferSize;
 343              		.loc 1 242 0
 344 01d2 3B68     		ldr	r3, [r7]
 345 01d4 DA68     		ldr	r2, [r3, #12]
 346 01d6 7B68     		ldr	r3, [r7, #4]
 347 01d8 5A60     		str	r2, [r3, #4]
 243:../../source/src/FWlib/src/stm32f10x_dma.c **** 
 244:../../source/src/FWlib/src/stm32f10x_dma.c **** /*--------------------------- DMAy Channelx CPAR Configuration ----------------*/
 245:../../source/src/FWlib/src/stm32f10x_dma.c ****   /* Write to DMAy Channelx CPAR */
 246:../../source/src/FWlib/src/stm32f10x_dma.c ****   DMAy_Channelx->CPAR = DMA_InitStruct->DMA_PeripheralBaseAddr;
 348              		.loc 1 246 0
 349 01da 3B68     		ldr	r3, [r7]
 350 01dc 1A68     		ldr	r2, [r3]
 351 01de 7B68     		ldr	r3, [r7, #4]
 352 01e0 9A60     		str	r2, [r3, #8]
 247:../../source/src/FWlib/src/stm32f10x_dma.c **** 
 248:../../source/src/FWlib/src/stm32f10x_dma.c **** /*--------------------------- DMAy Channelx CMAR Configuration ----------------*/
 249:../../source/src/FWlib/src/stm32f10x_dma.c ****   /* Write to DMAy Channelx CMAR */
ARM GAS  G:\Users\Jaxb\AppData\Local\Temp\ccnyQMas.s 			page 12


 250:../../source/src/FWlib/src/stm32f10x_dma.c ****   DMAy_Channelx->CMAR = DMA_InitStruct->DMA_MemoryBaseAddr;
 353              		.loc 1 250 0
 354 01e2 3B68     		ldr	r3, [r7]
 355 01e4 5A68     		ldr	r2, [r3, #4]
 356 01e6 7B68     		ldr	r3, [r7, #4]
 357 01e8 DA60     		str	r2, [r3, #12]
 251:../../source/src/FWlib/src/stm32f10x_dma.c **** }
 358              		.loc 1 251 0
 359 01ea 00BF     		nop
 360 01ec 1437     		adds	r7, r7, #20
 361              	.LCFI9:
 362              		.cfi_def_cfa_offset 4
 363 01ee BD46     		mov	sp, r7
 364              	.LCFI10:
 365              		.cfi_def_cfa_register 13
 366              		@ sp needed
 367 01f0 80BC     		pop	{r7}
 368              	.LCFI11:
 369              		.cfi_restore 7
 370              		.cfi_def_cfa_offset 0
 371 01f2 7047     		bx	lr
 372              		.cfi_endproc
 373              	.LFE30:
 374              		.size	DMA_Init, .-DMA_Init
 375              		.align	1
 376              		.global	DMA_StructInit
 377              		.syntax unified
 378              		.thumb
 379              		.thumb_func
 380              		.fpu softvfp
 381              		.type	DMA_StructInit, %function
 382              	DMA_StructInit:
 383              	.LFB31:
 252:../../source/src/FWlib/src/stm32f10x_dma.c **** 
 253:../../source/src/FWlib/src/stm32f10x_dma.c **** /**
 254:../../source/src/FWlib/src/stm32f10x_dma.c ****   * @brief  Fills each DMA_InitStruct member with its default value.
 255:../../source/src/FWlib/src/stm32f10x_dma.c ****   * @param  DMA_InitStruct : pointer to a DMA_InitTypeDef structure which will
 256:../../source/src/FWlib/src/stm32f10x_dma.c ****   *         be initialized.
 257:../../source/src/FWlib/src/stm32f10x_dma.c ****   * @retval None
 258:../../source/src/FWlib/src/stm32f10x_dma.c ****   */
 259:../../source/src/FWlib/src/stm32f10x_dma.c **** void DMA_StructInit(DMA_InitTypeDef* DMA_InitStruct)
 260:../../source/src/FWlib/src/stm32f10x_dma.c **** {
 384              		.loc 1 260 0
 385              		.cfi_startproc
 386              		@ args = 0, pretend = 0, frame = 8
 387              		@ frame_needed = 1, uses_anonymous_args = 0
 388              		@ link register save eliminated.
 389 01f4 80B4     		push	{r7}
 390              	.LCFI12:
 391              		.cfi_def_cfa_offset 4
 392              		.cfi_offset 7, -4
 393 01f6 83B0     		sub	sp, sp, #12
 394              	.LCFI13:
 395              		.cfi_def_cfa_offset 16
 396 01f8 00AF     		add	r7, sp, #0
 397              	.LCFI14:
 398              		.cfi_def_cfa_register 7
ARM GAS  G:\Users\Jaxb\AppData\Local\Temp\ccnyQMas.s 			page 13


 399 01fa 7860     		str	r0, [r7, #4]
 261:../../source/src/FWlib/src/stm32f10x_dma.c **** /*-------------- Reset DMA init structure parameters values ------------------*/
 262:../../source/src/FWlib/src/stm32f10x_dma.c ****   /* Initialize the DMA_PeripheralBaseAddr member */
 263:../../source/src/FWlib/src/stm32f10x_dma.c ****   DMA_InitStruct->DMA_PeripheralBaseAddr = 0;
 400              		.loc 1 263 0
 401 01fc 7B68     		ldr	r3, [r7, #4]
 402 01fe 0022     		movs	r2, #0
 403 0200 1A60     		str	r2, [r3]
 264:../../source/src/FWlib/src/stm32f10x_dma.c ****   /* Initialize the DMA_MemoryBaseAddr member */
 265:../../source/src/FWlib/src/stm32f10x_dma.c ****   DMA_InitStruct->DMA_MemoryBaseAddr = 0;
 404              		.loc 1 265 0
 405 0202 7B68     		ldr	r3, [r7, #4]
 406 0204 0022     		movs	r2, #0
 407 0206 5A60     		str	r2, [r3, #4]
 266:../../source/src/FWlib/src/stm32f10x_dma.c ****   /* Initialize the DMA_DIR member */
 267:../../source/src/FWlib/src/stm32f10x_dma.c ****   DMA_InitStruct->DMA_DIR = DMA_DIR_PeripheralSRC;
 408              		.loc 1 267 0
 409 0208 7B68     		ldr	r3, [r7, #4]
 410 020a 0022     		movs	r2, #0
 411 020c 9A60     		str	r2, [r3, #8]
 268:../../source/src/FWlib/src/stm32f10x_dma.c ****   /* Initialize the DMA_BufferSize member */
 269:../../source/src/FWlib/src/stm32f10x_dma.c ****   DMA_InitStruct->DMA_BufferSize = 0;
 412              		.loc 1 269 0
 413 020e 7B68     		ldr	r3, [r7, #4]
 414 0210 0022     		movs	r2, #0
 415 0212 DA60     		str	r2, [r3, #12]
 270:../../source/src/FWlib/src/stm32f10x_dma.c ****   /* Initialize the DMA_PeripheralInc member */
 271:../../source/src/FWlib/src/stm32f10x_dma.c ****   DMA_InitStruct->DMA_PeripheralInc = DMA_PeripheralInc_Disable;
 416              		.loc 1 271 0
 417 0214 7B68     		ldr	r3, [r7, #4]
 418 0216 0022     		movs	r2, #0
 419 0218 1A61     		str	r2, [r3, #16]
 272:../../source/src/FWlib/src/stm32f10x_dma.c ****   /* Initialize the DMA_MemoryInc member */
 273:../../source/src/FWlib/src/stm32f10x_dma.c ****   DMA_InitStruct->DMA_MemoryInc = DMA_MemoryInc_Disable;
 420              		.loc 1 273 0
 421 021a 7B68     		ldr	r3, [r7, #4]
 422 021c 0022     		movs	r2, #0
 423 021e 5A61     		str	r2, [r3, #20]
 274:../../source/src/FWlib/src/stm32f10x_dma.c ****   /* Initialize the DMA_PeripheralDataSize member */
 275:../../source/src/FWlib/src/stm32f10x_dma.c ****   DMA_InitStruct->DMA_PeripheralDataSize = DMA_PeripheralDataSize_Byte;
 424              		.loc 1 275 0
 425 0220 7B68     		ldr	r3, [r7, #4]
 426 0222 0022     		movs	r2, #0
 427 0224 9A61     		str	r2, [r3, #24]
 276:../../source/src/FWlib/src/stm32f10x_dma.c ****   /* Initialize the DMA_MemoryDataSize member */
 277:../../source/src/FWlib/src/stm32f10x_dma.c ****   DMA_InitStruct->DMA_MemoryDataSize = DMA_MemoryDataSize_Byte;
 428              		.loc 1 277 0
 429 0226 7B68     		ldr	r3, [r7, #4]
 430 0228 0022     		movs	r2, #0
 431 022a DA61     		str	r2, [r3, #28]
 278:../../source/src/FWlib/src/stm32f10x_dma.c ****   /* Initialize the DMA_Mode member */
 279:../../source/src/FWlib/src/stm32f10x_dma.c ****   DMA_InitStruct->DMA_Mode = DMA_Mode_Normal;
 432              		.loc 1 279 0
 433 022c 7B68     		ldr	r3, [r7, #4]
 434 022e 0022     		movs	r2, #0
 435 0230 1A62     		str	r2, [r3, #32]
 280:../../source/src/FWlib/src/stm32f10x_dma.c ****   /* Initialize the DMA_Priority member */
ARM GAS  G:\Users\Jaxb\AppData\Local\Temp\ccnyQMas.s 			page 14


 281:../../source/src/FWlib/src/stm32f10x_dma.c ****   DMA_InitStruct->DMA_Priority = DMA_Priority_Low;
 436              		.loc 1 281 0
 437 0232 7B68     		ldr	r3, [r7, #4]
 438 0234 0022     		movs	r2, #0
 439 0236 5A62     		str	r2, [r3, #36]
 282:../../source/src/FWlib/src/stm32f10x_dma.c ****   /* Initialize the DMA_M2M member */
 283:../../source/src/FWlib/src/stm32f10x_dma.c ****   DMA_InitStruct->DMA_M2M = DMA_M2M_Disable;
 440              		.loc 1 283 0
 441 0238 7B68     		ldr	r3, [r7, #4]
 442 023a 0022     		movs	r2, #0
 443 023c 9A62     		str	r2, [r3, #40]
 284:../../source/src/FWlib/src/stm32f10x_dma.c **** }
 444              		.loc 1 284 0
 445 023e 00BF     		nop
 446 0240 0C37     		adds	r7, r7, #12
 447              	.LCFI15:
 448              		.cfi_def_cfa_offset 4
 449 0242 BD46     		mov	sp, r7
 450              	.LCFI16:
 451              		.cfi_def_cfa_register 13
 452              		@ sp needed
 453 0244 80BC     		pop	{r7}
 454              	.LCFI17:
 455              		.cfi_restore 7
 456              		.cfi_def_cfa_offset 0
 457 0246 7047     		bx	lr
 458              		.cfi_endproc
 459              	.LFE31:
 460              		.size	DMA_StructInit, .-DMA_StructInit
 461              		.align	1
 462              		.global	DMA_Cmd
 463              		.syntax unified
 464              		.thumb
 465              		.thumb_func
 466              		.fpu softvfp
 467              		.type	DMA_Cmd, %function
 468              	DMA_Cmd:
 469              	.LFB32:
 285:../../source/src/FWlib/src/stm32f10x_dma.c **** 
 286:../../source/src/FWlib/src/stm32f10x_dma.c **** /**
 287:../../source/src/FWlib/src/stm32f10x_dma.c ****   * @brief  Enables or disables the specified DMAy Channelx.
 288:../../source/src/FWlib/src/stm32f10x_dma.c ****   * @param  DMAy_Channelx: where y can be 1 or 2 to select the DMA and 
 289:../../source/src/FWlib/src/stm32f10x_dma.c ****   *   x can be 1 to 7 for DMA1 and 1 to 5 for DMA2 to select the DMA Channel.
 290:../../source/src/FWlib/src/stm32f10x_dma.c ****   * @param  NewState: new state of the DMAy Channelx. 
 291:../../source/src/FWlib/src/stm32f10x_dma.c ****   *   This parameter can be: ENABLE or DISABLE.
 292:../../source/src/FWlib/src/stm32f10x_dma.c ****   * @retval None
 293:../../source/src/FWlib/src/stm32f10x_dma.c ****   */
 294:../../source/src/FWlib/src/stm32f10x_dma.c **** void DMA_Cmd(DMA_Channel_TypeDef* DMAy_Channelx, FunctionalState NewState)
 295:../../source/src/FWlib/src/stm32f10x_dma.c **** {
 470              		.loc 1 295 0
 471              		.cfi_startproc
 472              		@ args = 0, pretend = 0, frame = 8
 473              		@ frame_needed = 1, uses_anonymous_args = 0
 474              		@ link register save eliminated.
 475 0248 80B4     		push	{r7}
 476              	.LCFI18:
 477              		.cfi_def_cfa_offset 4
ARM GAS  G:\Users\Jaxb\AppData\Local\Temp\ccnyQMas.s 			page 15


 478              		.cfi_offset 7, -4
 479 024a 83B0     		sub	sp, sp, #12
 480              	.LCFI19:
 481              		.cfi_def_cfa_offset 16
 482 024c 00AF     		add	r7, sp, #0
 483              	.LCFI20:
 484              		.cfi_def_cfa_register 7
 485 024e 7860     		str	r0, [r7, #4]
 486 0250 0B46     		mov	r3, r1
 487 0252 FB70     		strb	r3, [r7, #3]
 296:../../source/src/FWlib/src/stm32f10x_dma.c ****   /* Check the parameters */
 297:../../source/src/FWlib/src/stm32f10x_dma.c ****   assert_param(IS_DMA_ALL_PERIPH(DMAy_Channelx));
 298:../../source/src/FWlib/src/stm32f10x_dma.c ****   assert_param(IS_FUNCTIONAL_STATE(NewState));
 299:../../source/src/FWlib/src/stm32f10x_dma.c **** 
 300:../../source/src/FWlib/src/stm32f10x_dma.c ****   if (NewState != DISABLE)
 488              		.loc 1 300 0
 489 0254 FB78     		ldrb	r3, [r7, #3]	@ zero_extendqisi2
 490 0256 002B     		cmp	r3, #0
 491 0258 06D0     		beq	.L20
 301:../../source/src/FWlib/src/stm32f10x_dma.c ****   {
 302:../../source/src/FWlib/src/stm32f10x_dma.c ****     /* Enable the selected DMAy Channelx */
 303:../../source/src/FWlib/src/stm32f10x_dma.c ****     DMAy_Channelx->CCR |= DMA_CCR1_EN;
 492              		.loc 1 303 0
 493 025a 7B68     		ldr	r3, [r7, #4]
 494 025c 1B68     		ldr	r3, [r3]
 495 025e 43F00102 		orr	r2, r3, #1
 496 0262 7B68     		ldr	r3, [r7, #4]
 497 0264 1A60     		str	r2, [r3]
 304:../../source/src/FWlib/src/stm32f10x_dma.c ****   }
 305:../../source/src/FWlib/src/stm32f10x_dma.c ****   else
 306:../../source/src/FWlib/src/stm32f10x_dma.c ****   {
 307:../../source/src/FWlib/src/stm32f10x_dma.c ****     /* Disable the selected DMAy Channelx */
 308:../../source/src/FWlib/src/stm32f10x_dma.c ****     DMAy_Channelx->CCR &= (uint16_t)(~DMA_CCR1_EN);
 309:../../source/src/FWlib/src/stm32f10x_dma.c ****   }
 310:../../source/src/FWlib/src/stm32f10x_dma.c **** }
 498              		.loc 1 310 0
 499 0266 06E0     		b	.L22
 500              	.L20:
 308:../../source/src/FWlib/src/stm32f10x_dma.c ****   }
 501              		.loc 1 308 0
 502 0268 7B68     		ldr	r3, [r7, #4]
 503 026a 1A68     		ldr	r2, [r3]
 504 026c 4FF6FE73 		movw	r3, #65534
 505 0270 1340     		ands	r3, r3, r2
 506 0272 7A68     		ldr	r2, [r7, #4]
 507 0274 1360     		str	r3, [r2]
 508              	.L22:
 509              		.loc 1 310 0
 510 0276 00BF     		nop
 511 0278 0C37     		adds	r7, r7, #12
 512              	.LCFI21:
 513              		.cfi_def_cfa_offset 4
 514 027a BD46     		mov	sp, r7
 515              	.LCFI22:
 516              		.cfi_def_cfa_register 13
 517              		@ sp needed
 518 027c 80BC     		pop	{r7}
ARM GAS  G:\Users\Jaxb\AppData\Local\Temp\ccnyQMas.s 			page 16


 519              	.LCFI23:
 520              		.cfi_restore 7
 521              		.cfi_def_cfa_offset 0
 522 027e 7047     		bx	lr
 523              		.cfi_endproc
 524              	.LFE32:
 525              		.size	DMA_Cmd, .-DMA_Cmd
 526              		.align	1
 527              		.global	DMA_ITConfig
 528              		.syntax unified
 529              		.thumb
 530              		.thumb_func
 531              		.fpu softvfp
 532              		.type	DMA_ITConfig, %function
 533              	DMA_ITConfig:
 534              	.LFB33:
 311:../../source/src/FWlib/src/stm32f10x_dma.c **** 
 312:../../source/src/FWlib/src/stm32f10x_dma.c **** /**
 313:../../source/src/FWlib/src/stm32f10x_dma.c ****   * @brief  Enables or disables the specified DMAy Channelx interrupts.
 314:../../source/src/FWlib/src/stm32f10x_dma.c ****   * @param  DMAy_Channelx: where y can be 1 or 2 to select the DMA and 
 315:../../source/src/FWlib/src/stm32f10x_dma.c ****   *   x can be 1 to 7 for DMA1 and 1 to 5 for DMA2 to select the DMA Channel.
 316:../../source/src/FWlib/src/stm32f10x_dma.c ****   * @param  DMA_IT: specifies the DMA interrupts sources to be enabled
 317:../../source/src/FWlib/src/stm32f10x_dma.c ****   *   or disabled. 
 318:../../source/src/FWlib/src/stm32f10x_dma.c ****   *   This parameter can be any combination of the following values:
 319:../../source/src/FWlib/src/stm32f10x_dma.c ****   *     @arg DMA_IT_TC:  Transfer complete interrupt mask
 320:../../source/src/FWlib/src/stm32f10x_dma.c ****   *     @arg DMA_IT_HT:  Half transfer interrupt mask
 321:../../source/src/FWlib/src/stm32f10x_dma.c ****   *     @arg DMA_IT_TE:  Transfer error interrupt mask
 322:../../source/src/FWlib/src/stm32f10x_dma.c ****   * @param  NewState: new state of the specified DMA interrupts.
 323:../../source/src/FWlib/src/stm32f10x_dma.c ****   *   This parameter can be: ENABLE or DISABLE.
 324:../../source/src/FWlib/src/stm32f10x_dma.c ****   * @retval None
 325:../../source/src/FWlib/src/stm32f10x_dma.c ****   */
 326:../../source/src/FWlib/src/stm32f10x_dma.c **** void DMA_ITConfig(DMA_Channel_TypeDef* DMAy_Channelx, uint32_t DMA_IT, FunctionalState NewState)
 327:../../source/src/FWlib/src/stm32f10x_dma.c **** {
 535              		.loc 1 327 0
 536              		.cfi_startproc
 537              		@ args = 0, pretend = 0, frame = 16
 538              		@ frame_needed = 1, uses_anonymous_args = 0
 539              		@ link register save eliminated.
 540 0280 80B4     		push	{r7}
 541              	.LCFI24:
 542              		.cfi_def_cfa_offset 4
 543              		.cfi_offset 7, -4
 544 0282 85B0     		sub	sp, sp, #20
 545              	.LCFI25:
 546              		.cfi_def_cfa_offset 24
 547 0284 00AF     		add	r7, sp, #0
 548              	.LCFI26:
 549              		.cfi_def_cfa_register 7
 550 0286 F860     		str	r0, [r7, #12]
 551 0288 B960     		str	r1, [r7, #8]
 552 028a 1346     		mov	r3, r2
 553 028c FB71     		strb	r3, [r7, #7]
 328:../../source/src/FWlib/src/stm32f10x_dma.c ****   /* Check the parameters */
 329:../../source/src/FWlib/src/stm32f10x_dma.c ****   assert_param(IS_DMA_ALL_PERIPH(DMAy_Channelx));
 330:../../source/src/FWlib/src/stm32f10x_dma.c ****   assert_param(IS_DMA_CONFIG_IT(DMA_IT));
 331:../../source/src/FWlib/src/stm32f10x_dma.c ****   assert_param(IS_FUNCTIONAL_STATE(NewState));
 332:../../source/src/FWlib/src/stm32f10x_dma.c ****   if (NewState != DISABLE)
ARM GAS  G:\Users\Jaxb\AppData\Local\Temp\ccnyQMas.s 			page 17


 554              		.loc 1 332 0
 555 028e FB79     		ldrb	r3, [r7, #7]	@ zero_extendqisi2
 556 0290 002B     		cmp	r3, #0
 557 0292 06D0     		beq	.L24
 333:../../source/src/FWlib/src/stm32f10x_dma.c ****   {
 334:../../source/src/FWlib/src/stm32f10x_dma.c ****     /* Enable the selected DMA interrupts */
 335:../../source/src/FWlib/src/stm32f10x_dma.c ****     DMAy_Channelx->CCR |= DMA_IT;
 558              		.loc 1 335 0
 559 0294 FB68     		ldr	r3, [r7, #12]
 560 0296 1A68     		ldr	r2, [r3]
 561 0298 BB68     		ldr	r3, [r7, #8]
 562 029a 1A43     		orrs	r2, r2, r3
 563 029c FB68     		ldr	r3, [r7, #12]
 564 029e 1A60     		str	r2, [r3]
 336:../../source/src/FWlib/src/stm32f10x_dma.c ****   }
 337:../../source/src/FWlib/src/stm32f10x_dma.c ****   else
 338:../../source/src/FWlib/src/stm32f10x_dma.c ****   {
 339:../../source/src/FWlib/src/stm32f10x_dma.c ****     /* Disable the selected DMA interrupts */
 340:../../source/src/FWlib/src/stm32f10x_dma.c ****     DMAy_Channelx->CCR &= ~DMA_IT;
 341:../../source/src/FWlib/src/stm32f10x_dma.c ****   }
 342:../../source/src/FWlib/src/stm32f10x_dma.c **** }
 565              		.loc 1 342 0
 566 02a0 06E0     		b	.L26
 567              	.L24:
 340:../../source/src/FWlib/src/stm32f10x_dma.c ****   }
 568              		.loc 1 340 0
 569 02a2 FB68     		ldr	r3, [r7, #12]
 570 02a4 1A68     		ldr	r2, [r3]
 571 02a6 BB68     		ldr	r3, [r7, #8]
 572 02a8 DB43     		mvns	r3, r3
 573 02aa 1A40     		ands	r2, r2, r3
 574 02ac FB68     		ldr	r3, [r7, #12]
 575 02ae 1A60     		str	r2, [r3]
 576              	.L26:
 577              		.loc 1 342 0
 578 02b0 00BF     		nop
 579 02b2 1437     		adds	r7, r7, #20
 580              	.LCFI27:
 581              		.cfi_def_cfa_offset 4
 582 02b4 BD46     		mov	sp, r7
 583              	.LCFI28:
 584              		.cfi_def_cfa_register 13
 585              		@ sp needed
 586 02b6 80BC     		pop	{r7}
 587              	.LCFI29:
 588              		.cfi_restore 7
 589              		.cfi_def_cfa_offset 0
 590 02b8 7047     		bx	lr
 591              		.cfi_endproc
 592              	.LFE33:
 593              		.size	DMA_ITConfig, .-DMA_ITConfig
 594              		.align	1
 595              		.global	DMA_SetCurrDataCounter
 596              		.syntax unified
 597              		.thumb
 598              		.thumb_func
 599              		.fpu softvfp
ARM GAS  G:\Users\Jaxb\AppData\Local\Temp\ccnyQMas.s 			page 18


 600              		.type	DMA_SetCurrDataCounter, %function
 601              	DMA_SetCurrDataCounter:
 602              	.LFB34:
 343:../../source/src/FWlib/src/stm32f10x_dma.c **** 
 344:../../source/src/FWlib/src/stm32f10x_dma.c **** /**
 345:../../source/src/FWlib/src/stm32f10x_dma.c ****   * @brief  Sets the number of data units in the current DMAy Channelx transfer.
 346:../../source/src/FWlib/src/stm32f10x_dma.c ****   * @param  DMAy_Channelx: where y can be 1 or 2 to select the DMA and 
 347:../../source/src/FWlib/src/stm32f10x_dma.c ****   *         x can be 1 to 7 for DMA1 and 1 to 5 for DMA2 to select the DMA Channel.
 348:../../source/src/FWlib/src/stm32f10x_dma.c ****   * @param  DataNumber: The number of data units in the current DMAy Channelx
 349:../../source/src/FWlib/src/stm32f10x_dma.c ****   *         transfer.   
 350:../../source/src/FWlib/src/stm32f10x_dma.c ****   * @note   This function can only be used when the DMAy_Channelx is disabled.                 
 351:../../source/src/FWlib/src/stm32f10x_dma.c ****   * @retval None.
 352:../../source/src/FWlib/src/stm32f10x_dma.c ****   */
 353:../../source/src/FWlib/src/stm32f10x_dma.c **** void DMA_SetCurrDataCounter(DMA_Channel_TypeDef* DMAy_Channelx, uint16_t DataNumber)
 354:../../source/src/FWlib/src/stm32f10x_dma.c **** {
 603              		.loc 1 354 0
 604              		.cfi_startproc
 605              		@ args = 0, pretend = 0, frame = 8
 606              		@ frame_needed = 1, uses_anonymous_args = 0
 607              		@ link register save eliminated.
 608 02ba 80B4     		push	{r7}
 609              	.LCFI30:
 610              		.cfi_def_cfa_offset 4
 611              		.cfi_offset 7, -4
 612 02bc 83B0     		sub	sp, sp, #12
 613              	.LCFI31:
 614              		.cfi_def_cfa_offset 16
 615 02be 00AF     		add	r7, sp, #0
 616              	.LCFI32:
 617              		.cfi_def_cfa_register 7
 618 02c0 7860     		str	r0, [r7, #4]
 619 02c2 0B46     		mov	r3, r1
 620 02c4 7B80     		strh	r3, [r7, #2]	@ movhi
 355:../../source/src/FWlib/src/stm32f10x_dma.c ****   /* Check the parameters */
 356:../../source/src/FWlib/src/stm32f10x_dma.c ****   assert_param(IS_DMA_ALL_PERIPH(DMAy_Channelx));
 357:../../source/src/FWlib/src/stm32f10x_dma.c ****   
 358:../../source/src/FWlib/src/stm32f10x_dma.c **** /*--------------------------- DMAy Channelx CNDTR Configuration ---------------*/
 359:../../source/src/FWlib/src/stm32f10x_dma.c ****   /* Write to DMAy Channelx CNDTR */
 360:../../source/src/FWlib/src/stm32f10x_dma.c ****   DMAy_Channelx->CNDTR = DataNumber;  
 621              		.loc 1 360 0
 622 02c6 7A88     		ldrh	r2, [r7, #2]
 623 02c8 7B68     		ldr	r3, [r7, #4]
 624 02ca 5A60     		str	r2, [r3, #4]
 361:../../source/src/FWlib/src/stm32f10x_dma.c **** }
 625              		.loc 1 361 0
 626 02cc 00BF     		nop
 627 02ce 0C37     		adds	r7, r7, #12
 628              	.LCFI33:
 629              		.cfi_def_cfa_offset 4
 630 02d0 BD46     		mov	sp, r7
 631              	.LCFI34:
 632              		.cfi_def_cfa_register 13
 633              		@ sp needed
 634 02d2 80BC     		pop	{r7}
 635              	.LCFI35:
 636              		.cfi_restore 7
 637              		.cfi_def_cfa_offset 0
ARM GAS  G:\Users\Jaxb\AppData\Local\Temp\ccnyQMas.s 			page 19


 638 02d4 7047     		bx	lr
 639              		.cfi_endproc
 640              	.LFE34:
 641              		.size	DMA_SetCurrDataCounter, .-DMA_SetCurrDataCounter
 642              		.align	1
 643              		.global	DMA_GetCurrDataCounter
 644              		.syntax unified
 645              		.thumb
 646              		.thumb_func
 647              		.fpu softvfp
 648              		.type	DMA_GetCurrDataCounter, %function
 649              	DMA_GetCurrDataCounter:
 650              	.LFB35:
 362:../../source/src/FWlib/src/stm32f10x_dma.c **** 
 363:../../source/src/FWlib/src/stm32f10x_dma.c **** /**
 364:../../source/src/FWlib/src/stm32f10x_dma.c ****   * @brief  Returns the number of remaining data units in the current
 365:../../source/src/FWlib/src/stm32f10x_dma.c ****   *         DMAy Channelx transfer.
 366:../../source/src/FWlib/src/stm32f10x_dma.c ****   * @param  DMAy_Channelx: where y can be 1 or 2 to select the DMA and 
 367:../../source/src/FWlib/src/stm32f10x_dma.c ****   *   x can be 1 to 7 for DMA1 and 1 to 5 for DMA2 to select the DMA Channel.
 368:../../source/src/FWlib/src/stm32f10x_dma.c ****   * @retval The number of remaining data units in the current DMAy Channelx
 369:../../source/src/FWlib/src/stm32f10x_dma.c ****   *         transfer.
 370:../../source/src/FWlib/src/stm32f10x_dma.c ****   */
 371:../../source/src/FWlib/src/stm32f10x_dma.c **** uint16_t DMA_GetCurrDataCounter(DMA_Channel_TypeDef* DMAy_Channelx)
 372:../../source/src/FWlib/src/stm32f10x_dma.c **** {
 651              		.loc 1 372 0
 652              		.cfi_startproc
 653              		@ args = 0, pretend = 0, frame = 8
 654              		@ frame_needed = 1, uses_anonymous_args = 0
 655              		@ link register save eliminated.
 656 02d6 80B4     		push	{r7}
 657              	.LCFI36:
 658              		.cfi_def_cfa_offset 4
 659              		.cfi_offset 7, -4
 660 02d8 83B0     		sub	sp, sp, #12
 661              	.LCFI37:
 662              		.cfi_def_cfa_offset 16
 663 02da 00AF     		add	r7, sp, #0
 664              	.LCFI38:
 665              		.cfi_def_cfa_register 7
 666 02dc 7860     		str	r0, [r7, #4]
 373:../../source/src/FWlib/src/stm32f10x_dma.c ****   /* Check the parameters */
 374:../../source/src/FWlib/src/stm32f10x_dma.c ****   assert_param(IS_DMA_ALL_PERIPH(DMAy_Channelx));
 375:../../source/src/FWlib/src/stm32f10x_dma.c ****   /* Return the number of remaining data units for DMAy Channelx */
 376:../../source/src/FWlib/src/stm32f10x_dma.c ****   return ((uint16_t)(DMAy_Channelx->CNDTR));
 667              		.loc 1 376 0
 668 02de 7B68     		ldr	r3, [r7, #4]
 669 02e0 5B68     		ldr	r3, [r3, #4]
 670 02e2 9BB2     		uxth	r3, r3
 377:../../source/src/FWlib/src/stm32f10x_dma.c **** }
 671              		.loc 1 377 0
 672 02e4 1846     		mov	r0, r3
 673 02e6 0C37     		adds	r7, r7, #12
 674              	.LCFI39:
 675              		.cfi_def_cfa_offset 4
 676 02e8 BD46     		mov	sp, r7
 677              	.LCFI40:
 678              		.cfi_def_cfa_register 13
ARM GAS  G:\Users\Jaxb\AppData\Local\Temp\ccnyQMas.s 			page 20


 679              		@ sp needed
 680 02ea 80BC     		pop	{r7}
 681              	.LCFI41:
 682              		.cfi_restore 7
 683              		.cfi_def_cfa_offset 0
 684 02ec 7047     		bx	lr
 685              		.cfi_endproc
 686              	.LFE35:
 687              		.size	DMA_GetCurrDataCounter, .-DMA_GetCurrDataCounter
 688              		.align	1
 689              		.global	DMA_GetFlagStatus
 690              		.syntax unified
 691              		.thumb
 692              		.thumb_func
 693              		.fpu softvfp
 694              		.type	DMA_GetFlagStatus, %function
 695              	DMA_GetFlagStatus:
 696              	.LFB36:
 378:../../source/src/FWlib/src/stm32f10x_dma.c **** 
 379:../../source/src/FWlib/src/stm32f10x_dma.c **** /**
 380:../../source/src/FWlib/src/stm32f10x_dma.c ****   * @brief  Checks whether the specified DMAy Channelx flag is set or not.
 381:../../source/src/FWlib/src/stm32f10x_dma.c ****   * @param  DMAy_FLAG: specifies the flag to check.
 382:../../source/src/FWlib/src/stm32f10x_dma.c ****   *   This parameter can be one of the following values:
 383:../../source/src/FWlib/src/stm32f10x_dma.c ****   *     @arg DMA1_FLAG_GL1: DMA1 Channel1 global flag.
 384:../../source/src/FWlib/src/stm32f10x_dma.c ****   *     @arg DMA1_FLAG_TC1: DMA1 Channel1 transfer complete flag.
 385:../../source/src/FWlib/src/stm32f10x_dma.c ****   *     @arg DMA1_FLAG_HT1: DMA1 Channel1 half transfer flag.
 386:../../source/src/FWlib/src/stm32f10x_dma.c ****   *     @arg DMA1_FLAG_TE1: DMA1 Channel1 transfer error flag.
 387:../../source/src/FWlib/src/stm32f10x_dma.c ****   *     @arg DMA1_FLAG_GL2: DMA1 Channel2 global flag.
 388:../../source/src/FWlib/src/stm32f10x_dma.c ****   *     @arg DMA1_FLAG_TC2: DMA1 Channel2 transfer complete flag.
 389:../../source/src/FWlib/src/stm32f10x_dma.c ****   *     @arg DMA1_FLAG_HT2: DMA1 Channel2 half transfer flag.
 390:../../source/src/FWlib/src/stm32f10x_dma.c ****   *     @arg DMA1_FLAG_TE2: DMA1 Channel2 transfer error flag.
 391:../../source/src/FWlib/src/stm32f10x_dma.c ****   *     @arg DMA1_FLAG_GL3: DMA1 Channel3 global flag.
 392:../../source/src/FWlib/src/stm32f10x_dma.c ****   *     @arg DMA1_FLAG_TC3: DMA1 Channel3 transfer complete flag.
 393:../../source/src/FWlib/src/stm32f10x_dma.c ****   *     @arg DMA1_FLAG_HT3: DMA1 Channel3 half transfer flag.
 394:../../source/src/FWlib/src/stm32f10x_dma.c ****   *     @arg DMA1_FLAG_TE3: DMA1 Channel3 transfer error flag.
 395:../../source/src/FWlib/src/stm32f10x_dma.c ****   *     @arg DMA1_FLAG_GL4: DMA1 Channel4 global flag.
 396:../../source/src/FWlib/src/stm32f10x_dma.c ****   *     @arg DMA1_FLAG_TC4: DMA1 Channel4 transfer complete flag.
 397:../../source/src/FWlib/src/stm32f10x_dma.c ****   *     @arg DMA1_FLAG_HT4: DMA1 Channel4 half transfer flag.
 398:../../source/src/FWlib/src/stm32f10x_dma.c ****   *     @arg DMA1_FLAG_TE4: DMA1 Channel4 transfer error flag.
 399:../../source/src/FWlib/src/stm32f10x_dma.c ****   *     @arg DMA1_FLAG_GL5: DMA1 Channel5 global flag.
 400:../../source/src/FWlib/src/stm32f10x_dma.c ****   *     @arg DMA1_FLAG_TC5: DMA1 Channel5 transfer complete flag.
 401:../../source/src/FWlib/src/stm32f10x_dma.c ****   *     @arg DMA1_FLAG_HT5: DMA1 Channel5 half transfer flag.
 402:../../source/src/FWlib/src/stm32f10x_dma.c ****   *     @arg DMA1_FLAG_TE5: DMA1 Channel5 transfer error flag.
 403:../../source/src/FWlib/src/stm32f10x_dma.c ****   *     @arg DMA1_FLAG_GL6: DMA1 Channel6 global flag.
 404:../../source/src/FWlib/src/stm32f10x_dma.c ****   *     @arg DMA1_FLAG_TC6: DMA1 Channel6 transfer complete flag.
 405:../../source/src/FWlib/src/stm32f10x_dma.c ****   *     @arg DMA1_FLAG_HT6: DMA1 Channel6 half transfer flag.
 406:../../source/src/FWlib/src/stm32f10x_dma.c ****   *     @arg DMA1_FLAG_TE6: DMA1 Channel6 transfer error flag.
 407:../../source/src/FWlib/src/stm32f10x_dma.c ****   *     @arg DMA1_FLAG_GL7: DMA1 Channel7 global flag.
 408:../../source/src/FWlib/src/stm32f10x_dma.c ****   *     @arg DMA1_FLAG_TC7: DMA1 Channel7 transfer complete flag.
 409:../../source/src/FWlib/src/stm32f10x_dma.c ****   *     @arg DMA1_FLAG_HT7: DMA1 Channel7 half transfer flag.
 410:../../source/src/FWlib/src/stm32f10x_dma.c ****   *     @arg DMA1_FLAG_TE7: DMA1 Channel7 transfer error flag.
 411:../../source/src/FWlib/src/stm32f10x_dma.c ****   *     @arg DMA2_FLAG_GL1: DMA2 Channel1 global flag.
 412:../../source/src/FWlib/src/stm32f10x_dma.c ****   *     @arg DMA2_FLAG_TC1: DMA2 Channel1 transfer complete flag.
 413:../../source/src/FWlib/src/stm32f10x_dma.c ****   *     @arg DMA2_FLAG_HT1: DMA2 Channel1 half transfer flag.
 414:../../source/src/FWlib/src/stm32f10x_dma.c ****   *     @arg DMA2_FLAG_TE1: DMA2 Channel1 transfer error flag.
 415:../../source/src/FWlib/src/stm32f10x_dma.c ****   *     @arg DMA2_FLAG_GL2: DMA2 Channel2 global flag.
 416:../../source/src/FWlib/src/stm32f10x_dma.c ****   *     @arg DMA2_FLAG_TC2: DMA2 Channel2 transfer complete flag.
ARM GAS  G:\Users\Jaxb\AppData\Local\Temp\ccnyQMas.s 			page 21


 417:../../source/src/FWlib/src/stm32f10x_dma.c ****   *     @arg DMA2_FLAG_HT2: DMA2 Channel2 half transfer flag.
 418:../../source/src/FWlib/src/stm32f10x_dma.c ****   *     @arg DMA2_FLAG_TE2: DMA2 Channel2 transfer error flag.
 419:../../source/src/FWlib/src/stm32f10x_dma.c ****   *     @arg DMA2_FLAG_GL3: DMA2 Channel3 global flag.
 420:../../source/src/FWlib/src/stm32f10x_dma.c ****   *     @arg DMA2_FLAG_TC3: DMA2 Channel3 transfer complete flag.
 421:../../source/src/FWlib/src/stm32f10x_dma.c ****   *     @arg DMA2_FLAG_HT3: DMA2 Channel3 half transfer flag.
 422:../../source/src/FWlib/src/stm32f10x_dma.c ****   *     @arg DMA2_FLAG_TE3: DMA2 Channel3 transfer error flag.
 423:../../source/src/FWlib/src/stm32f10x_dma.c ****   *     @arg DMA2_FLAG_GL4: DMA2 Channel4 global flag.
 424:../../source/src/FWlib/src/stm32f10x_dma.c ****   *     @arg DMA2_FLAG_TC4: DMA2 Channel4 transfer complete flag.
 425:../../source/src/FWlib/src/stm32f10x_dma.c ****   *     @arg DMA2_FLAG_HT4: DMA2 Channel4 half transfer flag.
 426:../../source/src/FWlib/src/stm32f10x_dma.c ****   *     @arg DMA2_FLAG_TE4: DMA2 Channel4 transfer error flag.
 427:../../source/src/FWlib/src/stm32f10x_dma.c ****   *     @arg DMA2_FLAG_GL5: DMA2 Channel5 global flag.
 428:../../source/src/FWlib/src/stm32f10x_dma.c ****   *     @arg DMA2_FLAG_TC5: DMA2 Channel5 transfer complete flag.
 429:../../source/src/FWlib/src/stm32f10x_dma.c ****   *     @arg DMA2_FLAG_HT5: DMA2 Channel5 half transfer flag.
 430:../../source/src/FWlib/src/stm32f10x_dma.c ****   *     @arg DMA2_FLAG_TE5: DMA2 Channel5 transfer error flag.
 431:../../source/src/FWlib/src/stm32f10x_dma.c ****   * @retval The new state of DMAy_FLAG (SET or RESET).
 432:../../source/src/FWlib/src/stm32f10x_dma.c ****   */
 433:../../source/src/FWlib/src/stm32f10x_dma.c **** FlagStatus DMA_GetFlagStatus(uint32_t DMAy_FLAG)
 434:../../source/src/FWlib/src/stm32f10x_dma.c **** {
 697              		.loc 1 434 0
 698              		.cfi_startproc
 699              		@ args = 0, pretend = 0, frame = 16
 700              		@ frame_needed = 1, uses_anonymous_args = 0
 701              		@ link register save eliminated.
 702 02ee 80B4     		push	{r7}
 703              	.LCFI42:
 704              		.cfi_def_cfa_offset 4
 705              		.cfi_offset 7, -4
 706 02f0 85B0     		sub	sp, sp, #20
 707              	.LCFI43:
 708              		.cfi_def_cfa_offset 24
 709 02f2 00AF     		add	r7, sp, #0
 710              	.LCFI44:
 711              		.cfi_def_cfa_register 7
 712 02f4 7860     		str	r0, [r7, #4]
 435:../../source/src/FWlib/src/stm32f10x_dma.c ****   FlagStatus bitstatus = RESET;
 713              		.loc 1 435 0
 714 02f6 0023     		movs	r3, #0
 715 02f8 FB73     		strb	r3, [r7, #15]
 436:../../source/src/FWlib/src/stm32f10x_dma.c ****   uint32_t tmpreg = 0;
 716              		.loc 1 436 0
 717 02fa 0023     		movs	r3, #0
 718 02fc BB60     		str	r3, [r7, #8]
 437:../../source/src/FWlib/src/stm32f10x_dma.c ****   
 438:../../source/src/FWlib/src/stm32f10x_dma.c ****   /* Check the parameters */
 439:../../source/src/FWlib/src/stm32f10x_dma.c ****   assert_param(IS_DMA_GET_FLAG(DMAy_FLAG));
 440:../../source/src/FWlib/src/stm32f10x_dma.c **** 
 441:../../source/src/FWlib/src/stm32f10x_dma.c ****   /* Calculate the used DMAy */
 442:../../source/src/FWlib/src/stm32f10x_dma.c ****   if ((DMAy_FLAG & FLAG_Mask) != (uint32_t)RESET)
 719              		.loc 1 442 0
 720 02fe 7B68     		ldr	r3, [r7, #4]
 721 0300 03F08053 		and	r3, r3, #268435456
 722 0304 002B     		cmp	r3, #0
 723 0306 03D0     		beq	.L31
 443:../../source/src/FWlib/src/stm32f10x_dma.c ****   {
 444:../../source/src/FWlib/src/stm32f10x_dma.c ****     /* Get DMA2 ISR register value */
 445:../../source/src/FWlib/src/stm32f10x_dma.c ****     tmpreg = DMA2->ISR ;
 724              		.loc 1 445 0
ARM GAS  G:\Users\Jaxb\AppData\Local\Temp\ccnyQMas.s 			page 22


 725 0308 0B4B     		ldr	r3, .L36
 726 030a 1B68     		ldr	r3, [r3]
 727 030c BB60     		str	r3, [r7, #8]
 728 030e 02E0     		b	.L32
 729              	.L31:
 446:../../source/src/FWlib/src/stm32f10x_dma.c ****   }
 447:../../source/src/FWlib/src/stm32f10x_dma.c ****   else
 448:../../source/src/FWlib/src/stm32f10x_dma.c ****   {
 449:../../source/src/FWlib/src/stm32f10x_dma.c ****     /* Get DMA1 ISR register value */
 450:../../source/src/FWlib/src/stm32f10x_dma.c ****     tmpreg = DMA1->ISR ;
 730              		.loc 1 450 0
 731 0310 0A4B     		ldr	r3, .L36+4
 732 0312 1B68     		ldr	r3, [r3]
 733 0314 BB60     		str	r3, [r7, #8]
 734              	.L32:
 451:../../source/src/FWlib/src/stm32f10x_dma.c ****   }
 452:../../source/src/FWlib/src/stm32f10x_dma.c **** 
 453:../../source/src/FWlib/src/stm32f10x_dma.c ****   /* Check the status of the specified DMAy flag */
 454:../../source/src/FWlib/src/stm32f10x_dma.c ****   if ((tmpreg & DMAy_FLAG) != (uint32_t)RESET)
 735              		.loc 1 454 0
 736 0316 BA68     		ldr	r2, [r7, #8]
 737 0318 7B68     		ldr	r3, [r7, #4]
 738 031a 1340     		ands	r3, r3, r2
 739 031c 002B     		cmp	r3, #0
 740 031e 02D0     		beq	.L33
 455:../../source/src/FWlib/src/stm32f10x_dma.c ****   {
 456:../../source/src/FWlib/src/stm32f10x_dma.c ****     /* DMAy_FLAG is set */
 457:../../source/src/FWlib/src/stm32f10x_dma.c ****     bitstatus = SET;
 741              		.loc 1 457 0
 742 0320 0123     		movs	r3, #1
 743 0322 FB73     		strb	r3, [r7, #15]
 744 0324 01E0     		b	.L34
 745              	.L33:
 458:../../source/src/FWlib/src/stm32f10x_dma.c ****   }
 459:../../source/src/FWlib/src/stm32f10x_dma.c ****   else
 460:../../source/src/FWlib/src/stm32f10x_dma.c ****   {
 461:../../source/src/FWlib/src/stm32f10x_dma.c ****     /* DMAy_FLAG is reset */
 462:../../source/src/FWlib/src/stm32f10x_dma.c ****     bitstatus = RESET;
 746              		.loc 1 462 0
 747 0326 0023     		movs	r3, #0
 748 0328 FB73     		strb	r3, [r7, #15]
 749              	.L34:
 463:../../source/src/FWlib/src/stm32f10x_dma.c ****   }
 464:../../source/src/FWlib/src/stm32f10x_dma.c ****   
 465:../../source/src/FWlib/src/stm32f10x_dma.c ****   /* Return the DMAy_FLAG status */
 466:../../source/src/FWlib/src/stm32f10x_dma.c ****   return  bitstatus;
 750              		.loc 1 466 0
 751 032a FB7B     		ldrb	r3, [r7, #15]	@ zero_extendqisi2
 467:../../source/src/FWlib/src/stm32f10x_dma.c **** }
 752              		.loc 1 467 0
 753 032c 1846     		mov	r0, r3
 754 032e 1437     		adds	r7, r7, #20
 755              	.LCFI45:
 756              		.cfi_def_cfa_offset 4
 757 0330 BD46     		mov	sp, r7
 758              	.LCFI46:
 759              		.cfi_def_cfa_register 13
ARM GAS  G:\Users\Jaxb\AppData\Local\Temp\ccnyQMas.s 			page 23


 760              		@ sp needed
 761 0332 80BC     		pop	{r7}
 762              	.LCFI47:
 763              		.cfi_restore 7
 764              		.cfi_def_cfa_offset 0
 765 0334 7047     		bx	lr
 766              	.L37:
 767 0336 00BF     		.align	2
 768              	.L36:
 769 0338 00040240 		.word	1073873920
 770 033c 00000240 		.word	1073872896
 771              		.cfi_endproc
 772              	.LFE36:
 773              		.size	DMA_GetFlagStatus, .-DMA_GetFlagStatus
 774              		.align	1
 775              		.global	DMA_ClearFlag
 776              		.syntax unified
 777              		.thumb
 778              		.thumb_func
 779              		.fpu softvfp
 780              		.type	DMA_ClearFlag, %function
 781              	DMA_ClearFlag:
 782              	.LFB37:
 468:../../source/src/FWlib/src/stm32f10x_dma.c **** 
 469:../../source/src/FWlib/src/stm32f10x_dma.c **** /**
 470:../../source/src/FWlib/src/stm32f10x_dma.c ****   * @brief  Clears the DMAy Channelx's pending flags.
 471:../../source/src/FWlib/src/stm32f10x_dma.c ****   * @param  DMAy_FLAG: specifies the flag to clear.
 472:../../source/src/FWlib/src/stm32f10x_dma.c ****   *   This parameter can be any combination (for the same DMA) of the following values:
 473:../../source/src/FWlib/src/stm32f10x_dma.c ****   *     @arg DMA1_FLAG_GL1: DMA1 Channel1 global flag.
 474:../../source/src/FWlib/src/stm32f10x_dma.c ****   *     @arg DMA1_FLAG_TC1: DMA1 Channel1 transfer complete flag.
 475:../../source/src/FWlib/src/stm32f10x_dma.c ****   *     @arg DMA1_FLAG_HT1: DMA1 Channel1 half transfer flag.
 476:../../source/src/FWlib/src/stm32f10x_dma.c ****   *     @arg DMA1_FLAG_TE1: DMA1 Channel1 transfer error flag.
 477:../../source/src/FWlib/src/stm32f10x_dma.c ****   *     @arg DMA1_FLAG_GL2: DMA1 Channel2 global flag.
 478:../../source/src/FWlib/src/stm32f10x_dma.c ****   *     @arg DMA1_FLAG_TC2: DMA1 Channel2 transfer complete flag.
 479:../../source/src/FWlib/src/stm32f10x_dma.c ****   *     @arg DMA1_FLAG_HT2: DMA1 Channel2 half transfer flag.
 480:../../source/src/FWlib/src/stm32f10x_dma.c ****   *     @arg DMA1_FLAG_TE2: DMA1 Channel2 transfer error flag.
 481:../../source/src/FWlib/src/stm32f10x_dma.c ****   *     @arg DMA1_FLAG_GL3: DMA1 Channel3 global flag.
 482:../../source/src/FWlib/src/stm32f10x_dma.c ****   *     @arg DMA1_FLAG_TC3: DMA1 Channel3 transfer complete flag.
 483:../../source/src/FWlib/src/stm32f10x_dma.c ****   *     @arg DMA1_FLAG_HT3: DMA1 Channel3 half transfer flag.
 484:../../source/src/FWlib/src/stm32f10x_dma.c ****   *     @arg DMA1_FLAG_TE3: DMA1 Channel3 transfer error flag.
 485:../../source/src/FWlib/src/stm32f10x_dma.c ****   *     @arg DMA1_FLAG_GL4: DMA1 Channel4 global flag.
 486:../../source/src/FWlib/src/stm32f10x_dma.c ****   *     @arg DMA1_FLAG_TC4: DMA1 Channel4 transfer complete flag.
 487:../../source/src/FWlib/src/stm32f10x_dma.c ****   *     @arg DMA1_FLAG_HT4: DMA1 Channel4 half transfer flag.
 488:../../source/src/FWlib/src/stm32f10x_dma.c ****   *     @arg DMA1_FLAG_TE4: DMA1 Channel4 transfer error flag.
 489:../../source/src/FWlib/src/stm32f10x_dma.c ****   *     @arg DMA1_FLAG_GL5: DMA1 Channel5 global flag.
 490:../../source/src/FWlib/src/stm32f10x_dma.c ****   *     @arg DMA1_FLAG_TC5: DMA1 Channel5 transfer complete flag.
 491:../../source/src/FWlib/src/stm32f10x_dma.c ****   *     @arg DMA1_FLAG_HT5: DMA1 Channel5 half transfer flag.
 492:../../source/src/FWlib/src/stm32f10x_dma.c ****   *     @arg DMA1_FLAG_TE5: DMA1 Channel5 transfer error flag.
 493:../../source/src/FWlib/src/stm32f10x_dma.c ****   *     @arg DMA1_FLAG_GL6: DMA1 Channel6 global flag.
 494:../../source/src/FWlib/src/stm32f10x_dma.c ****   *     @arg DMA1_FLAG_TC6: DMA1 Channel6 transfer complete flag.
 495:../../source/src/FWlib/src/stm32f10x_dma.c ****   *     @arg DMA1_FLAG_HT6: DMA1 Channel6 half transfer flag.
 496:../../source/src/FWlib/src/stm32f10x_dma.c ****   *     @arg DMA1_FLAG_TE6: DMA1 Channel6 transfer error flag.
 497:../../source/src/FWlib/src/stm32f10x_dma.c ****   *     @arg DMA1_FLAG_GL7: DMA1 Channel7 global flag.
 498:../../source/src/FWlib/src/stm32f10x_dma.c ****   *     @arg DMA1_FLAG_TC7: DMA1 Channel7 transfer complete flag.
 499:../../source/src/FWlib/src/stm32f10x_dma.c ****   *     @arg DMA1_FLAG_HT7: DMA1 Channel7 half transfer flag.
 500:../../source/src/FWlib/src/stm32f10x_dma.c ****   *     @arg DMA1_FLAG_TE7: DMA1 Channel7 transfer error flag.
 501:../../source/src/FWlib/src/stm32f10x_dma.c ****   *     @arg DMA2_FLAG_GL1: DMA2 Channel1 global flag.
ARM GAS  G:\Users\Jaxb\AppData\Local\Temp\ccnyQMas.s 			page 24


 502:../../source/src/FWlib/src/stm32f10x_dma.c ****   *     @arg DMA2_FLAG_TC1: DMA2 Channel1 transfer complete flag.
 503:../../source/src/FWlib/src/stm32f10x_dma.c ****   *     @arg DMA2_FLAG_HT1: DMA2 Channel1 half transfer flag.
 504:../../source/src/FWlib/src/stm32f10x_dma.c ****   *     @arg DMA2_FLAG_TE1: DMA2 Channel1 transfer error flag.
 505:../../source/src/FWlib/src/stm32f10x_dma.c ****   *     @arg DMA2_FLAG_GL2: DMA2 Channel2 global flag.
 506:../../source/src/FWlib/src/stm32f10x_dma.c ****   *     @arg DMA2_FLAG_TC2: DMA2 Channel2 transfer complete flag.
 507:../../source/src/FWlib/src/stm32f10x_dma.c ****   *     @arg DMA2_FLAG_HT2: DMA2 Channel2 half transfer flag.
 508:../../source/src/FWlib/src/stm32f10x_dma.c ****   *     @arg DMA2_FLAG_TE2: DMA2 Channel2 transfer error flag.
 509:../../source/src/FWlib/src/stm32f10x_dma.c ****   *     @arg DMA2_FLAG_GL3: DMA2 Channel3 global flag.
 510:../../source/src/FWlib/src/stm32f10x_dma.c ****   *     @arg DMA2_FLAG_TC3: DMA2 Channel3 transfer complete flag.
 511:../../source/src/FWlib/src/stm32f10x_dma.c ****   *     @arg DMA2_FLAG_HT3: DMA2 Channel3 half transfer flag.
 512:../../source/src/FWlib/src/stm32f10x_dma.c ****   *     @arg DMA2_FLAG_TE3: DMA2 Channel3 transfer error flag.
 513:../../source/src/FWlib/src/stm32f10x_dma.c ****   *     @arg DMA2_FLAG_GL4: DMA2 Channel4 global flag.
 514:../../source/src/FWlib/src/stm32f10x_dma.c ****   *     @arg DMA2_FLAG_TC4: DMA2 Channel4 transfer complete flag.
 515:../../source/src/FWlib/src/stm32f10x_dma.c ****   *     @arg DMA2_FLAG_HT4: DMA2 Channel4 half transfer flag.
 516:../../source/src/FWlib/src/stm32f10x_dma.c ****   *     @arg DMA2_FLAG_TE4: DMA2 Channel4 transfer error flag.
 517:../../source/src/FWlib/src/stm32f10x_dma.c ****   *     @arg DMA2_FLAG_GL5: DMA2 Channel5 global flag.
 518:../../source/src/FWlib/src/stm32f10x_dma.c ****   *     @arg DMA2_FLAG_TC5: DMA2 Channel5 transfer complete flag.
 519:../../source/src/FWlib/src/stm32f10x_dma.c ****   *     @arg DMA2_FLAG_HT5: DMA2 Channel5 half transfer flag.
 520:../../source/src/FWlib/src/stm32f10x_dma.c ****   *     @arg DMA2_FLAG_TE5: DMA2 Channel5 transfer error flag.
 521:../../source/src/FWlib/src/stm32f10x_dma.c ****   * @retval None
 522:../../source/src/FWlib/src/stm32f10x_dma.c ****   */
 523:../../source/src/FWlib/src/stm32f10x_dma.c **** void DMA_ClearFlag(uint32_t DMAy_FLAG)
 524:../../source/src/FWlib/src/stm32f10x_dma.c **** {
 783              		.loc 1 524 0
 784              		.cfi_startproc
 785              		@ args = 0, pretend = 0, frame = 8
 786              		@ frame_needed = 1, uses_anonymous_args = 0
 787              		@ link register save eliminated.
 788 0340 80B4     		push	{r7}
 789              	.LCFI48:
 790              		.cfi_def_cfa_offset 4
 791              		.cfi_offset 7, -4
 792 0342 83B0     		sub	sp, sp, #12
 793              	.LCFI49:
 794              		.cfi_def_cfa_offset 16
 795 0344 00AF     		add	r7, sp, #0
 796              	.LCFI50:
 797              		.cfi_def_cfa_register 7
 798 0346 7860     		str	r0, [r7, #4]
 525:../../source/src/FWlib/src/stm32f10x_dma.c ****   /* Check the parameters */
 526:../../source/src/FWlib/src/stm32f10x_dma.c ****   assert_param(IS_DMA_CLEAR_FLAG(DMAy_FLAG));
 527:../../source/src/FWlib/src/stm32f10x_dma.c **** 
 528:../../source/src/FWlib/src/stm32f10x_dma.c ****   /* Calculate the used DMAy */
 529:../../source/src/FWlib/src/stm32f10x_dma.c ****   if ((DMAy_FLAG & FLAG_Mask) != (uint32_t)RESET)
 799              		.loc 1 529 0
 800 0348 7B68     		ldr	r3, [r7, #4]
 801 034a 03F08053 		and	r3, r3, #268435456
 802 034e 002B     		cmp	r3, #0
 803 0350 03D0     		beq	.L39
 530:../../source/src/FWlib/src/stm32f10x_dma.c ****   {
 531:../../source/src/FWlib/src/stm32f10x_dma.c ****     /* Clear the selected DMAy flags */
 532:../../source/src/FWlib/src/stm32f10x_dma.c ****     DMA2->IFCR = DMAy_FLAG;
 804              		.loc 1 532 0
 805 0352 064A     		ldr	r2, .L42
 806 0354 7B68     		ldr	r3, [r7, #4]
 807 0356 5360     		str	r3, [r2, #4]
 533:../../source/src/FWlib/src/stm32f10x_dma.c ****   }
ARM GAS  G:\Users\Jaxb\AppData\Local\Temp\ccnyQMas.s 			page 25


 534:../../source/src/FWlib/src/stm32f10x_dma.c ****   else
 535:../../source/src/FWlib/src/stm32f10x_dma.c ****   {
 536:../../source/src/FWlib/src/stm32f10x_dma.c ****     /* Clear the selected DMAy flags */
 537:../../source/src/FWlib/src/stm32f10x_dma.c ****     DMA1->IFCR = DMAy_FLAG;
 538:../../source/src/FWlib/src/stm32f10x_dma.c ****   }
 539:../../source/src/FWlib/src/stm32f10x_dma.c **** }
 808              		.loc 1 539 0
 809 0358 02E0     		b	.L41
 810              	.L39:
 537:../../source/src/FWlib/src/stm32f10x_dma.c ****   }
 811              		.loc 1 537 0
 812 035a 054A     		ldr	r2, .L42+4
 813 035c 7B68     		ldr	r3, [r7, #4]
 814 035e 5360     		str	r3, [r2, #4]
 815              	.L41:
 816              		.loc 1 539 0
 817 0360 00BF     		nop
 818 0362 0C37     		adds	r7, r7, #12
 819              	.LCFI51:
 820              		.cfi_def_cfa_offset 4
 821 0364 BD46     		mov	sp, r7
 822              	.LCFI52:
 823              		.cfi_def_cfa_register 13
 824              		@ sp needed
 825 0366 80BC     		pop	{r7}
 826              	.LCFI53:
 827              		.cfi_restore 7
 828              		.cfi_def_cfa_offset 0
 829 0368 7047     		bx	lr
 830              	.L43:
 831 036a 00BF     		.align	2
 832              	.L42:
 833 036c 00040240 		.word	1073873920
 834 0370 00000240 		.word	1073872896
 835              		.cfi_endproc
 836              	.LFE37:
 837              		.size	DMA_ClearFlag, .-DMA_ClearFlag
 838              		.align	1
 839              		.global	DMA_GetITStatus
 840              		.syntax unified
 841              		.thumb
 842              		.thumb_func
 843              		.fpu softvfp
 844              		.type	DMA_GetITStatus, %function
 845              	DMA_GetITStatus:
 846              	.LFB38:
 540:../../source/src/FWlib/src/stm32f10x_dma.c **** 
 541:../../source/src/FWlib/src/stm32f10x_dma.c **** /**
 542:../../source/src/FWlib/src/stm32f10x_dma.c ****   * @brief  Checks whether the specified DMAy Channelx interrupt has occurred or not.
 543:../../source/src/FWlib/src/stm32f10x_dma.c ****   * @param  DMAy_IT: specifies the DMAy interrupt source to check. 
 544:../../source/src/FWlib/src/stm32f10x_dma.c ****   *   This parameter can be one of the following values:
 545:../../source/src/FWlib/src/stm32f10x_dma.c ****   *     @arg DMA1_IT_GL1: DMA1 Channel1 global interrupt.
 546:../../source/src/FWlib/src/stm32f10x_dma.c ****   *     @arg DMA1_IT_TC1: DMA1 Channel1 transfer complete interrupt.
 547:../../source/src/FWlib/src/stm32f10x_dma.c ****   *     @arg DMA1_IT_HT1: DMA1 Channel1 half transfer interrupt.
 548:../../source/src/FWlib/src/stm32f10x_dma.c ****   *     @arg DMA1_IT_TE1: DMA1 Channel1 transfer error interrupt.
 549:../../source/src/FWlib/src/stm32f10x_dma.c ****   *     @arg DMA1_IT_GL2: DMA1 Channel2 global interrupt.
 550:../../source/src/FWlib/src/stm32f10x_dma.c ****   *     @arg DMA1_IT_TC2: DMA1 Channel2 transfer complete interrupt.
ARM GAS  G:\Users\Jaxb\AppData\Local\Temp\ccnyQMas.s 			page 26


 551:../../source/src/FWlib/src/stm32f10x_dma.c ****   *     @arg DMA1_IT_HT2: DMA1 Channel2 half transfer interrupt.
 552:../../source/src/FWlib/src/stm32f10x_dma.c ****   *     @arg DMA1_IT_TE2: DMA1 Channel2 transfer error interrupt.
 553:../../source/src/FWlib/src/stm32f10x_dma.c ****   *     @arg DMA1_IT_GL3: DMA1 Channel3 global interrupt.
 554:../../source/src/FWlib/src/stm32f10x_dma.c ****   *     @arg DMA1_IT_TC3: DMA1 Channel3 transfer complete interrupt.
 555:../../source/src/FWlib/src/stm32f10x_dma.c ****   *     @arg DMA1_IT_HT3: DMA1 Channel3 half transfer interrupt.
 556:../../source/src/FWlib/src/stm32f10x_dma.c ****   *     @arg DMA1_IT_TE3: DMA1 Channel3 transfer error interrupt.
 557:../../source/src/FWlib/src/stm32f10x_dma.c ****   *     @arg DMA1_IT_GL4: DMA1 Channel4 global interrupt.
 558:../../source/src/FWlib/src/stm32f10x_dma.c ****   *     @arg DMA1_IT_TC4: DMA1 Channel4 transfer complete interrupt.
 559:../../source/src/FWlib/src/stm32f10x_dma.c ****   *     @arg DMA1_IT_HT4: DMA1 Channel4 half transfer interrupt.
 560:../../source/src/FWlib/src/stm32f10x_dma.c ****   *     @arg DMA1_IT_TE4: DMA1 Channel4 transfer error interrupt.
 561:../../source/src/FWlib/src/stm32f10x_dma.c ****   *     @arg DMA1_IT_GL5: DMA1 Channel5 global interrupt.
 562:../../source/src/FWlib/src/stm32f10x_dma.c ****   *     @arg DMA1_IT_TC5: DMA1 Channel5 transfer complete interrupt.
 563:../../source/src/FWlib/src/stm32f10x_dma.c ****   *     @arg DMA1_IT_HT5: DMA1 Channel5 half transfer interrupt.
 564:../../source/src/FWlib/src/stm32f10x_dma.c ****   *     @arg DMA1_IT_TE5: DMA1 Channel5 transfer error interrupt.
 565:../../source/src/FWlib/src/stm32f10x_dma.c ****   *     @arg DMA1_IT_GL6: DMA1 Channel6 global interrupt.
 566:../../source/src/FWlib/src/stm32f10x_dma.c ****   *     @arg DMA1_IT_TC6: DMA1 Channel6 transfer complete interrupt.
 567:../../source/src/FWlib/src/stm32f10x_dma.c ****   *     @arg DMA1_IT_HT6: DMA1 Channel6 half transfer interrupt.
 568:../../source/src/FWlib/src/stm32f10x_dma.c ****   *     @arg DMA1_IT_TE6: DMA1 Channel6 transfer error interrupt.
 569:../../source/src/FWlib/src/stm32f10x_dma.c ****   *     @arg DMA1_IT_GL7: DMA1 Channel7 global interrupt.
 570:../../source/src/FWlib/src/stm32f10x_dma.c ****   *     @arg DMA1_IT_TC7: DMA1 Channel7 transfer complete interrupt.
 571:../../source/src/FWlib/src/stm32f10x_dma.c ****   *     @arg DMA1_IT_HT7: DMA1 Channel7 half transfer interrupt.
 572:../../source/src/FWlib/src/stm32f10x_dma.c ****   *     @arg DMA1_IT_TE7: DMA1 Channel7 transfer error interrupt.
 573:../../source/src/FWlib/src/stm32f10x_dma.c ****   *     @arg DMA2_IT_GL1: DMA2 Channel1 global interrupt.
 574:../../source/src/FWlib/src/stm32f10x_dma.c ****   *     @arg DMA2_IT_TC1: DMA2 Channel1 transfer complete interrupt.
 575:../../source/src/FWlib/src/stm32f10x_dma.c ****   *     @arg DMA2_IT_HT1: DMA2 Channel1 half transfer interrupt.
 576:../../source/src/FWlib/src/stm32f10x_dma.c ****   *     @arg DMA2_IT_TE1: DMA2 Channel1 transfer error interrupt.
 577:../../source/src/FWlib/src/stm32f10x_dma.c ****   *     @arg DMA2_IT_GL2: DMA2 Channel2 global interrupt.
 578:../../source/src/FWlib/src/stm32f10x_dma.c ****   *     @arg DMA2_IT_TC2: DMA2 Channel2 transfer complete interrupt.
 579:../../source/src/FWlib/src/stm32f10x_dma.c ****   *     @arg DMA2_IT_HT2: DMA2 Channel2 half transfer interrupt.
 580:../../source/src/FWlib/src/stm32f10x_dma.c ****   *     @arg DMA2_IT_TE2: DMA2 Channel2 transfer error interrupt.
 581:../../source/src/FWlib/src/stm32f10x_dma.c ****   *     @arg DMA2_IT_GL3: DMA2 Channel3 global interrupt.
 582:../../source/src/FWlib/src/stm32f10x_dma.c ****   *     @arg DMA2_IT_TC3: DMA2 Channel3 transfer complete interrupt.
 583:../../source/src/FWlib/src/stm32f10x_dma.c ****   *     @arg DMA2_IT_HT3: DMA2 Channel3 half transfer interrupt.
 584:../../source/src/FWlib/src/stm32f10x_dma.c ****   *     @arg DMA2_IT_TE3: DMA2 Channel3 transfer error interrupt.
 585:../../source/src/FWlib/src/stm32f10x_dma.c ****   *     @arg DMA2_IT_GL4: DMA2 Channel4 global interrupt.
 586:../../source/src/FWlib/src/stm32f10x_dma.c ****   *     @arg DMA2_IT_TC4: DMA2 Channel4 transfer complete interrupt.
 587:../../source/src/FWlib/src/stm32f10x_dma.c ****   *     @arg DMA2_IT_HT4: DMA2 Channel4 half transfer interrupt.
 588:../../source/src/FWlib/src/stm32f10x_dma.c ****   *     @arg DMA2_IT_TE4: DMA2 Channel4 transfer error interrupt.
 589:../../source/src/FWlib/src/stm32f10x_dma.c ****   *     @arg DMA2_IT_GL5: DMA2 Channel5 global interrupt.
 590:../../source/src/FWlib/src/stm32f10x_dma.c ****   *     @arg DMA2_IT_TC5: DMA2 Channel5 transfer complete interrupt.
 591:../../source/src/FWlib/src/stm32f10x_dma.c ****   *     @arg DMA2_IT_HT5: DMA2 Channel5 half transfer interrupt.
 592:../../source/src/FWlib/src/stm32f10x_dma.c ****   *     @arg DMA2_IT_TE5: DMA2 Channel5 transfer error interrupt.
 593:../../source/src/FWlib/src/stm32f10x_dma.c ****   * @retval The new state of DMAy_IT (SET or RESET).
 594:../../source/src/FWlib/src/stm32f10x_dma.c ****   */
 595:../../source/src/FWlib/src/stm32f10x_dma.c **** ITStatus DMA_GetITStatus(uint32_t DMAy_IT)
 596:../../source/src/FWlib/src/stm32f10x_dma.c **** {
 847              		.loc 1 596 0
 848              		.cfi_startproc
 849              		@ args = 0, pretend = 0, frame = 16
 850              		@ frame_needed = 1, uses_anonymous_args = 0
 851              		@ link register save eliminated.
 852 0374 80B4     		push	{r7}
 853              	.LCFI54:
 854              		.cfi_def_cfa_offset 4
 855              		.cfi_offset 7, -4
 856 0376 85B0     		sub	sp, sp, #20
 857              	.LCFI55:
ARM GAS  G:\Users\Jaxb\AppData\Local\Temp\ccnyQMas.s 			page 27


 858              		.cfi_def_cfa_offset 24
 859 0378 00AF     		add	r7, sp, #0
 860              	.LCFI56:
 861              		.cfi_def_cfa_register 7
 862 037a 7860     		str	r0, [r7, #4]
 597:../../source/src/FWlib/src/stm32f10x_dma.c ****   ITStatus bitstatus = RESET;
 863              		.loc 1 597 0
 864 037c 0023     		movs	r3, #0
 865 037e FB73     		strb	r3, [r7, #15]
 598:../../source/src/FWlib/src/stm32f10x_dma.c ****   uint32_t tmpreg = 0;
 866              		.loc 1 598 0
 867 0380 0023     		movs	r3, #0
 868 0382 BB60     		str	r3, [r7, #8]
 599:../../source/src/FWlib/src/stm32f10x_dma.c **** 
 600:../../source/src/FWlib/src/stm32f10x_dma.c ****   /* Check the parameters */
 601:../../source/src/FWlib/src/stm32f10x_dma.c ****   assert_param(IS_DMA_GET_IT(DMAy_IT));
 602:../../source/src/FWlib/src/stm32f10x_dma.c **** 
 603:../../source/src/FWlib/src/stm32f10x_dma.c ****   /* Calculate the used DMA */
 604:../../source/src/FWlib/src/stm32f10x_dma.c ****   if ((DMAy_IT & FLAG_Mask) != (uint32_t)RESET)
 869              		.loc 1 604 0
 870 0384 7B68     		ldr	r3, [r7, #4]
 871 0386 03F08053 		and	r3, r3, #268435456
 872 038a 002B     		cmp	r3, #0
 873 038c 03D0     		beq	.L45
 605:../../source/src/FWlib/src/stm32f10x_dma.c ****   {
 606:../../source/src/FWlib/src/stm32f10x_dma.c ****     /* Get DMA2 ISR register value */
 607:../../source/src/FWlib/src/stm32f10x_dma.c ****     tmpreg = DMA2->ISR;
 874              		.loc 1 607 0
 875 038e 0B4B     		ldr	r3, .L50
 876 0390 1B68     		ldr	r3, [r3]
 877 0392 BB60     		str	r3, [r7, #8]
 878 0394 02E0     		b	.L46
 879              	.L45:
 608:../../source/src/FWlib/src/stm32f10x_dma.c ****   }
 609:../../source/src/FWlib/src/stm32f10x_dma.c ****   else
 610:../../source/src/FWlib/src/stm32f10x_dma.c ****   {
 611:../../source/src/FWlib/src/stm32f10x_dma.c ****     /* Get DMA1 ISR register value */
 612:../../source/src/FWlib/src/stm32f10x_dma.c ****     tmpreg = DMA1->ISR;
 880              		.loc 1 612 0
 881 0396 0A4B     		ldr	r3, .L50+4
 882 0398 1B68     		ldr	r3, [r3]
 883 039a BB60     		str	r3, [r7, #8]
 884              	.L46:
 613:../../source/src/FWlib/src/stm32f10x_dma.c ****   }
 614:../../source/src/FWlib/src/stm32f10x_dma.c **** 
 615:../../source/src/FWlib/src/stm32f10x_dma.c ****   /* Check the status of the specified DMAy interrupt */
 616:../../source/src/FWlib/src/stm32f10x_dma.c ****   if ((tmpreg & DMAy_IT) != (uint32_t)RESET)
 885              		.loc 1 616 0
 886 039c BA68     		ldr	r2, [r7, #8]
 887 039e 7B68     		ldr	r3, [r7, #4]
 888 03a0 1340     		ands	r3, r3, r2
 889 03a2 002B     		cmp	r3, #0
 890 03a4 02D0     		beq	.L47
 617:../../source/src/FWlib/src/stm32f10x_dma.c ****   {
 618:../../source/src/FWlib/src/stm32f10x_dma.c ****     /* DMAy_IT is set */
 619:../../source/src/FWlib/src/stm32f10x_dma.c ****     bitstatus = SET;
 891              		.loc 1 619 0
ARM GAS  G:\Users\Jaxb\AppData\Local\Temp\ccnyQMas.s 			page 28


 892 03a6 0123     		movs	r3, #1
 893 03a8 FB73     		strb	r3, [r7, #15]
 894 03aa 01E0     		b	.L48
 895              	.L47:
 620:../../source/src/FWlib/src/stm32f10x_dma.c ****   }
 621:../../source/src/FWlib/src/stm32f10x_dma.c ****   else
 622:../../source/src/FWlib/src/stm32f10x_dma.c ****   {
 623:../../source/src/FWlib/src/stm32f10x_dma.c ****     /* DMAy_IT is reset */
 624:../../source/src/FWlib/src/stm32f10x_dma.c ****     bitstatus = RESET;
 896              		.loc 1 624 0
 897 03ac 0023     		movs	r3, #0
 898 03ae FB73     		strb	r3, [r7, #15]
 899              	.L48:
 625:../../source/src/FWlib/src/stm32f10x_dma.c ****   }
 626:../../source/src/FWlib/src/stm32f10x_dma.c ****   /* Return the DMA_IT status */
 627:../../source/src/FWlib/src/stm32f10x_dma.c ****   return  bitstatus;
 900              		.loc 1 627 0
 901 03b0 FB7B     		ldrb	r3, [r7, #15]	@ zero_extendqisi2
 628:../../source/src/FWlib/src/stm32f10x_dma.c **** }
 902              		.loc 1 628 0
 903 03b2 1846     		mov	r0, r3
 904 03b4 1437     		adds	r7, r7, #20
 905              	.LCFI57:
 906              		.cfi_def_cfa_offset 4
 907 03b6 BD46     		mov	sp, r7
 908              	.LCFI58:
 909              		.cfi_def_cfa_register 13
 910              		@ sp needed
 911 03b8 80BC     		pop	{r7}
 912              	.LCFI59:
 913              		.cfi_restore 7
 914              		.cfi_def_cfa_offset 0
 915 03ba 7047     		bx	lr
 916              	.L51:
 917              		.align	2
 918              	.L50:
 919 03bc 00040240 		.word	1073873920
 920 03c0 00000240 		.word	1073872896
 921              		.cfi_endproc
 922              	.LFE38:
 923              		.size	DMA_GetITStatus, .-DMA_GetITStatus
 924              		.align	1
 925              		.global	DMA_ClearITPendingBit
 926              		.syntax unified
 927              		.thumb
 928              		.thumb_func
 929              		.fpu softvfp
 930              		.type	DMA_ClearITPendingBit, %function
 931              	DMA_ClearITPendingBit:
 932              	.LFB39:
 629:../../source/src/FWlib/src/stm32f10x_dma.c **** 
 630:../../source/src/FWlib/src/stm32f10x_dma.c **** /**
 631:../../source/src/FWlib/src/stm32f10x_dma.c ****   * @brief  Clears the DMAy Channelx's interrupt pending bits.
 632:../../source/src/FWlib/src/stm32f10x_dma.c ****   * @param  DMAy_IT: specifies the DMAy interrupt pending bit to clear.
 633:../../source/src/FWlib/src/stm32f10x_dma.c ****   *   This parameter can be any combination (for the same DMA) of the following values:
 634:../../source/src/FWlib/src/stm32f10x_dma.c ****   *     @arg DMA1_IT_GL1: DMA1 Channel1 global interrupt.
 635:../../source/src/FWlib/src/stm32f10x_dma.c ****   *     @arg DMA1_IT_TC1: DMA1 Channel1 transfer complete interrupt.
ARM GAS  G:\Users\Jaxb\AppData\Local\Temp\ccnyQMas.s 			page 29


 636:../../source/src/FWlib/src/stm32f10x_dma.c ****   *     @arg DMA1_IT_HT1: DMA1 Channel1 half transfer interrupt.
 637:../../source/src/FWlib/src/stm32f10x_dma.c ****   *     @arg DMA1_IT_TE1: DMA1 Channel1 transfer error interrupt.
 638:../../source/src/FWlib/src/stm32f10x_dma.c ****   *     @arg DMA1_IT_GL2: DMA1 Channel2 global interrupt.
 639:../../source/src/FWlib/src/stm32f10x_dma.c ****   *     @arg DMA1_IT_TC2: DMA1 Channel2 transfer complete interrupt.
 640:../../source/src/FWlib/src/stm32f10x_dma.c ****   *     @arg DMA1_IT_HT2: DMA1 Channel2 half transfer interrupt.
 641:../../source/src/FWlib/src/stm32f10x_dma.c ****   *     @arg DMA1_IT_TE2: DMA1 Channel2 transfer error interrupt.
 642:../../source/src/FWlib/src/stm32f10x_dma.c ****   *     @arg DMA1_IT_GL3: DMA1 Channel3 global interrupt.
 643:../../source/src/FWlib/src/stm32f10x_dma.c ****   *     @arg DMA1_IT_TC3: DMA1 Channel3 transfer complete interrupt.
 644:../../source/src/FWlib/src/stm32f10x_dma.c ****   *     @arg DMA1_IT_HT3: DMA1 Channel3 half transfer interrupt.
 645:../../source/src/FWlib/src/stm32f10x_dma.c ****   *     @arg DMA1_IT_TE3: DMA1 Channel3 transfer error interrupt.
 646:../../source/src/FWlib/src/stm32f10x_dma.c ****   *     @arg DMA1_IT_GL4: DMA1 Channel4 global interrupt.
 647:../../source/src/FWlib/src/stm32f10x_dma.c ****   *     @arg DMA1_IT_TC4: DMA1 Channel4 transfer complete interrupt.
 648:../../source/src/FWlib/src/stm32f10x_dma.c ****   *     @arg DMA1_IT_HT4: DMA1 Channel4 half transfer interrupt.
 649:../../source/src/FWlib/src/stm32f10x_dma.c ****   *     @arg DMA1_IT_TE4: DMA1 Channel4 transfer error interrupt.
 650:../../source/src/FWlib/src/stm32f10x_dma.c ****   *     @arg DMA1_IT_GL5: DMA1 Channel5 global interrupt.
 651:../../source/src/FWlib/src/stm32f10x_dma.c ****   *     @arg DMA1_IT_TC5: DMA1 Channel5 transfer complete interrupt.
 652:../../source/src/FWlib/src/stm32f10x_dma.c ****   *     @arg DMA1_IT_HT5: DMA1 Channel5 half transfer interrupt.
 653:../../source/src/FWlib/src/stm32f10x_dma.c ****   *     @arg DMA1_IT_TE5: DMA1 Channel5 transfer error interrupt.
 654:../../source/src/FWlib/src/stm32f10x_dma.c ****   *     @arg DMA1_IT_GL6: DMA1 Channel6 global interrupt.
 655:../../source/src/FWlib/src/stm32f10x_dma.c ****   *     @arg DMA1_IT_TC6: DMA1 Channel6 transfer complete interrupt.
 656:../../source/src/FWlib/src/stm32f10x_dma.c ****   *     @arg DMA1_IT_HT6: DMA1 Channel6 half transfer interrupt.
 657:../../source/src/FWlib/src/stm32f10x_dma.c ****   *     @arg DMA1_IT_TE6: DMA1 Channel6 transfer error interrupt.
 658:../../source/src/FWlib/src/stm32f10x_dma.c ****   *     @arg DMA1_IT_GL7: DMA1 Channel7 global interrupt.
 659:../../source/src/FWlib/src/stm32f10x_dma.c ****   *     @arg DMA1_IT_TC7: DMA1 Channel7 transfer complete interrupt.
 660:../../source/src/FWlib/src/stm32f10x_dma.c ****   *     @arg DMA1_IT_HT7: DMA1 Channel7 half transfer interrupt.
 661:../../source/src/FWlib/src/stm32f10x_dma.c ****   *     @arg DMA1_IT_TE7: DMA1 Channel7 transfer error interrupt.
 662:../../source/src/FWlib/src/stm32f10x_dma.c ****   *     @arg DMA2_IT_GL1: DMA2 Channel1 global interrupt.
 663:../../source/src/FWlib/src/stm32f10x_dma.c ****   *     @arg DMA2_IT_TC1: DMA2 Channel1 transfer complete interrupt.
 664:../../source/src/FWlib/src/stm32f10x_dma.c ****   *     @arg DMA2_IT_HT1: DMA2 Channel1 half transfer interrupt.
 665:../../source/src/FWlib/src/stm32f10x_dma.c ****   *     @arg DMA2_IT_TE1: DMA2 Channel1 transfer error interrupt.
 666:../../source/src/FWlib/src/stm32f10x_dma.c ****   *     @arg DMA2_IT_GL2: DMA2 Channel2 global interrupt.
 667:../../source/src/FWlib/src/stm32f10x_dma.c ****   *     @arg DMA2_IT_TC2: DMA2 Channel2 transfer complete interrupt.
 668:../../source/src/FWlib/src/stm32f10x_dma.c ****   *     @arg DMA2_IT_HT2: DMA2 Channel2 half transfer interrupt.
 669:../../source/src/FWlib/src/stm32f10x_dma.c ****   *     @arg DMA2_IT_TE2: DMA2 Channel2 transfer error interrupt.
 670:../../source/src/FWlib/src/stm32f10x_dma.c ****   *     @arg DMA2_IT_GL3: DMA2 Channel3 global interrupt.
 671:../../source/src/FWlib/src/stm32f10x_dma.c ****   *     @arg DMA2_IT_TC3: DMA2 Channel3 transfer complete interrupt.
 672:../../source/src/FWlib/src/stm32f10x_dma.c ****   *     @arg DMA2_IT_HT3: DMA2 Channel3 half transfer interrupt.
 673:../../source/src/FWlib/src/stm32f10x_dma.c ****   *     @arg DMA2_IT_TE3: DMA2 Channel3 transfer error interrupt.
 674:../../source/src/FWlib/src/stm32f10x_dma.c ****   *     @arg DMA2_IT_GL4: DMA2 Channel4 global interrupt.
 675:../../source/src/FWlib/src/stm32f10x_dma.c ****   *     @arg DMA2_IT_TC4: DMA2 Channel4 transfer complete interrupt.
 676:../../source/src/FWlib/src/stm32f10x_dma.c ****   *     @arg DMA2_IT_HT4: DMA2 Channel4 half transfer interrupt.
 677:../../source/src/FWlib/src/stm32f10x_dma.c ****   *     @arg DMA2_IT_TE4: DMA2 Channel4 transfer error interrupt.
 678:../../source/src/FWlib/src/stm32f10x_dma.c ****   *     @arg DMA2_IT_GL5: DMA2 Channel5 global interrupt.
 679:../../source/src/FWlib/src/stm32f10x_dma.c ****   *     @arg DMA2_IT_TC5: DMA2 Channel5 transfer complete interrupt.
 680:../../source/src/FWlib/src/stm32f10x_dma.c ****   *     @arg DMA2_IT_HT5: DMA2 Channel5 half transfer interrupt.
 681:../../source/src/FWlib/src/stm32f10x_dma.c ****   *     @arg DMA2_IT_TE5: DMA2 Channel5 transfer error interrupt.
 682:../../source/src/FWlib/src/stm32f10x_dma.c ****   * @retval None
 683:../../source/src/FWlib/src/stm32f10x_dma.c ****   */
 684:../../source/src/FWlib/src/stm32f10x_dma.c **** void DMA_ClearITPendingBit(uint32_t DMAy_IT)
 685:../../source/src/FWlib/src/stm32f10x_dma.c **** {
 933              		.loc 1 685 0
 934              		.cfi_startproc
 935              		@ args = 0, pretend = 0, frame = 8
 936              		@ frame_needed = 1, uses_anonymous_args = 0
 937              		@ link register save eliminated.
 938 03c4 80B4     		push	{r7}
 939              	.LCFI60:
ARM GAS  G:\Users\Jaxb\AppData\Local\Temp\ccnyQMas.s 			page 30


 940              		.cfi_def_cfa_offset 4
 941              		.cfi_offset 7, -4
 942 03c6 83B0     		sub	sp, sp, #12
 943              	.LCFI61:
 944              		.cfi_def_cfa_offset 16
 945 03c8 00AF     		add	r7, sp, #0
 946              	.LCFI62:
 947              		.cfi_def_cfa_register 7
 948 03ca 7860     		str	r0, [r7, #4]
 686:../../source/src/FWlib/src/stm32f10x_dma.c ****   /* Check the parameters */
 687:../../source/src/FWlib/src/stm32f10x_dma.c ****   assert_param(IS_DMA_CLEAR_IT(DMAy_IT));
 688:../../source/src/FWlib/src/stm32f10x_dma.c **** 
 689:../../source/src/FWlib/src/stm32f10x_dma.c ****   /* Calculate the used DMAy */
 690:../../source/src/FWlib/src/stm32f10x_dma.c ****   if ((DMAy_IT & FLAG_Mask) != (uint32_t)RESET)
 949              		.loc 1 690 0
 950 03cc 7B68     		ldr	r3, [r7, #4]
 951 03ce 03F08053 		and	r3, r3, #268435456
 952 03d2 002B     		cmp	r3, #0
 953 03d4 03D0     		beq	.L53
 691:../../source/src/FWlib/src/stm32f10x_dma.c ****   {
 692:../../source/src/FWlib/src/stm32f10x_dma.c ****     /* Clear the selected DMAy interrupt pending bits */
 693:../../source/src/FWlib/src/stm32f10x_dma.c ****     DMA2->IFCR = DMAy_IT;
 954              		.loc 1 693 0
 955 03d6 064A     		ldr	r2, .L56
 956 03d8 7B68     		ldr	r3, [r7, #4]
 957 03da 5360     		str	r3, [r2, #4]
 694:../../source/src/FWlib/src/stm32f10x_dma.c ****   }
 695:../../source/src/FWlib/src/stm32f10x_dma.c ****   else
 696:../../source/src/FWlib/src/stm32f10x_dma.c ****   {
 697:../../source/src/FWlib/src/stm32f10x_dma.c ****     /* Clear the selected DMAy interrupt pending bits */
 698:../../source/src/FWlib/src/stm32f10x_dma.c ****     DMA1->IFCR = DMAy_IT;
 699:../../source/src/FWlib/src/stm32f10x_dma.c ****   }
 700:../../source/src/FWlib/src/stm32f10x_dma.c **** }
 958              		.loc 1 700 0
 959 03dc 02E0     		b	.L55
 960              	.L53:
 698:../../source/src/FWlib/src/stm32f10x_dma.c ****   }
 961              		.loc 1 698 0
 962 03de 054A     		ldr	r2, .L56+4
 963 03e0 7B68     		ldr	r3, [r7, #4]
 964 03e2 5360     		str	r3, [r2, #4]
 965              	.L55:
 966              		.loc 1 700 0
 967 03e4 00BF     		nop
 968 03e6 0C37     		adds	r7, r7, #12
 969              	.LCFI63:
 970              		.cfi_def_cfa_offset 4
 971 03e8 BD46     		mov	sp, r7
 972              	.LCFI64:
 973              		.cfi_def_cfa_register 13
 974              		@ sp needed
 975 03ea 80BC     		pop	{r7}
 976              	.LCFI65:
 977              		.cfi_restore 7
 978              		.cfi_def_cfa_offset 0
 979 03ec 7047     		bx	lr
 980              	.L57:
ARM GAS  G:\Users\Jaxb\AppData\Local\Temp\ccnyQMas.s 			page 31


 981 03ee 00BF     		.align	2
 982              	.L56:
 983 03f0 00040240 		.word	1073873920
 984 03f4 00000240 		.word	1073872896
 985              		.cfi_endproc
 986              	.LFE39:
 987              		.size	DMA_ClearITPendingBit, .-DMA_ClearITPendingBit
 988              	.Letext0:
 989              		.file 2 "f:\\arm\\gcc2018\\arm-none-eabi\\include\\machine\\_default_types.h"
 990              		.file 3 "f:\\arm\\gcc2018\\arm-none-eabi\\include\\sys\\_stdint.h"
 991              		.file 4 "../../source/include/os_cpu/core_cm3.h"
 992              		.file 5 "../../source/include/os_cpu/system_stm32f10x.h"
 993              		.file 6 "../../source/include/os_cpu/stm32f10x.h"
 994              		.file 7 "../../source/src/FWlib/inc/stm32f10x_dma.h"
 995              		.section	.debug_info,"",%progbits
 996              	.Ldebug_info0:
 997 0000 C4040000 		.4byte	0x4c4
 998 0004 0200     		.2byte	0x2
 999 0006 00000000 		.4byte	.Ldebug_abbrev0
 1000 000a 04       		.byte	0x4
 1001 000b 01       		.uleb128 0x1
 1002 000c E7020000 		.4byte	.LASF58
 1003 0010 0C       		.byte	0xc
 1004 0011 3F020000 		.4byte	.LASF59
 1005 0015 BF000000 		.4byte	.LASF60
 1006 0019 00000000 		.4byte	.Ltext0
 1007 001d F8030000 		.4byte	.Letext0
 1008 0021 00000000 		.4byte	.Ldebug_line0
 1009 0025 02       		.uleb128 0x2
 1010 0026 01       		.byte	0x1
 1011 0027 06       		.byte	0x6
 1012 0028 A5000000 		.4byte	.LASF0
 1013 002c 02       		.uleb128 0x2
 1014 002d 01       		.byte	0x1
 1015 002e 08       		.byte	0x8
 1016 002f 8B010000 		.4byte	.LASF1
 1017 0033 02       		.uleb128 0x2
 1018 0034 02       		.byte	0x2
 1019 0035 05       		.byte	0x5
 1020 0036 55000000 		.4byte	.LASF2
 1021 003a 03       		.uleb128 0x3
 1022 003b 4A000000 		.4byte	.LASF5
 1023 003f 02       		.byte	0x2
 1024 0040 39       		.byte	0x39
 1025 0041 45000000 		.4byte	0x45
 1026 0045 02       		.uleb128 0x2
 1027 0046 02       		.byte	0x2
 1028 0047 07       		.byte	0x7
 1029 0048 04020000 		.4byte	.LASF3
 1030 004c 02       		.uleb128 0x2
 1031 004d 04       		.byte	0x4
 1032 004e 05       		.byte	0x5
 1033 004f 21010000 		.4byte	.LASF4
 1034 0053 03       		.uleb128 0x3
 1035 0054 3F000000 		.4byte	.LASF6
 1036 0058 02       		.byte	0x2
 1037 0059 4F       		.byte	0x4f
ARM GAS  G:\Users\Jaxb\AppData\Local\Temp\ccnyQMas.s 			page 32


 1038 005a 5E000000 		.4byte	0x5e
 1039 005e 02       		.uleb128 0x2
 1040 005f 04       		.byte	0x4
 1041 0060 07       		.byte	0x7
 1042 0061 A2020000 		.4byte	.LASF7
 1043 0065 02       		.uleb128 0x2
 1044 0066 08       		.byte	0x8
 1045 0067 05       		.byte	0x5
 1046 0068 ED000000 		.4byte	.LASF8
 1047 006c 02       		.uleb128 0x2
 1048 006d 08       		.byte	0x8
 1049 006e 07       		.byte	0x7
 1050 006f A8010000 		.4byte	.LASF9
 1051 0073 04       		.uleb128 0x4
 1052 0074 04       		.byte	0x4
 1053 0075 05       		.byte	0x5
 1054 0076 696E7400 		.ascii	"int\000"
 1055 007a 05       		.uleb128 0x5
 1056 007b 73000000 		.4byte	0x73
 1057 007f 02       		.uleb128 0x2
 1058 0080 04       		.byte	0x4
 1059 0081 07       		.byte	0x7
 1060 0082 CF010000 		.4byte	.LASF10
 1061 0086 03       		.uleb128 0x3
 1062 0087 EC010000 		.4byte	.LASF11
 1063 008b 03       		.byte	0x3
 1064 008c 24       		.byte	0x24
 1065 008d 3A000000 		.4byte	0x3a
 1066 0091 03       		.uleb128 0x3
 1067 0092 C6010000 		.4byte	.LASF12
 1068 0096 03       		.byte	0x3
 1069 0097 30       		.byte	0x30
 1070 0098 53000000 		.4byte	0x53
 1071 009c 05       		.uleb128 0x5
 1072 009d 91000000 		.4byte	0x91
 1073 00a1 06       		.uleb128 0x6
 1074 00a2 BA030000 		.4byte	.LASF13
 1075 00a6 04       		.byte	0x4
 1076 00a7 CE06     		.2byte	0x6ce
 1077 00a9 7A000000 		.4byte	0x7a
 1078 00ad 01       		.byte	0x1
 1079 00ae 01       		.byte	0x1
 1080 00af 07       		.uleb128 0x7
 1081 00b0 80020000 		.4byte	.LASF14
 1082 00b4 05       		.byte	0x5
 1083 00b5 35       		.byte	0x35
 1084 00b6 91000000 		.4byte	0x91
 1085 00ba 01       		.byte	0x1
 1086 00bb 01       		.byte	0x1
 1087 00bc 08       		.uleb128 0x8
 1088 00bd 07       		.byte	0x7
 1089 00be 01       		.byte	0x1
 1090 00bf 2C000000 		.4byte	0x2c
 1091 00c3 06       		.byte	0x6
 1092 00c4 0702     		.2byte	0x207
 1093 00c6 D7000000 		.4byte	0xd7
 1094 00ca 09       		.uleb128 0x9
ARM GAS  G:\Users\Jaxb\AppData\Local\Temp\ccnyQMas.s 			page 33


 1095 00cb D4020000 		.4byte	.LASF15
 1096 00cf 00       		.byte	0
 1097 00d0 0A       		.uleb128 0xa
 1098 00d1 53455400 		.ascii	"SET\000"
 1099 00d5 01       		.byte	0x1
 1100 00d6 00       		.byte	0
 1101 00d7 0B       		.uleb128 0xb
 1102 00d8 D1030000 		.4byte	.LASF16
 1103 00dc 06       		.byte	0x6
 1104 00dd 0702     		.2byte	0x207
 1105 00df BC000000 		.4byte	0xbc
 1106 00e3 0B       		.uleb128 0xb
 1107 00e4 18010000 		.4byte	.LASF17
 1108 00e8 06       		.byte	0x6
 1109 00e9 0702     		.2byte	0x207
 1110 00eb BC000000 		.4byte	0xbc
 1111 00ef 08       		.uleb128 0x8
 1112 00f0 07       		.byte	0x7
 1113 00f1 01       		.byte	0x1
 1114 00f2 2C000000 		.4byte	0x2c
 1115 00f6 06       		.byte	0x6
 1116 00f7 0902     		.2byte	0x209
 1117 00f9 0A010000 		.4byte	0x10a
 1118 00fd 09       		.uleb128 0x9
 1119 00fe 9D000000 		.4byte	.LASF18
 1120 0102 00       		.byte	0
 1121 0103 09       		.uleb128 0x9
 1122 0104 DC030000 		.4byte	.LASF19
 1123 0108 01       		.byte	0x1
 1124 0109 00       		.byte	0
 1125 010a 0B       		.uleb128 0xb
 1126 010b B4020000 		.4byte	.LASF20
 1127 010f 06       		.byte	0x6
 1128 0110 0902     		.2byte	0x209
 1129 0112 EF000000 		.4byte	0xef
 1130 0116 0C       		.uleb128 0xc
 1131 0117 10       		.byte	0x10
 1132 0118 06       		.byte	0x6
 1133 0119 1E03     		.2byte	0x31e
 1134 011b 5C010000 		.4byte	0x15c
 1135 011f 0D       		.uleb128 0xd
 1136 0120 43435200 		.ascii	"CCR\000"
 1137 0124 06       		.byte	0x6
 1138 0125 2003     		.2byte	0x320
 1139 0127 9C000000 		.4byte	0x9c
 1140 012b 02       		.byte	0x2
 1141 012c 23       		.byte	0x23
 1142 012d 00       		.uleb128 0
 1143 012e 0E       		.uleb128 0xe
 1144 012f 2B020000 		.4byte	.LASF21
 1145 0133 06       		.byte	0x6
 1146 0134 2103     		.2byte	0x321
 1147 0136 9C000000 		.4byte	0x9c
 1148 013a 02       		.byte	0x2
 1149 013b 23       		.byte	0x23
 1150 013c 04       		.uleb128 0x4
 1151 013d 0E       		.uleb128 0xe
ARM GAS  G:\Users\Jaxb\AppData\Local\Temp\ccnyQMas.s 			page 34


 1152 013e 5F010000 		.4byte	.LASF22
 1153 0142 06       		.byte	0x6
 1154 0143 2203     		.2byte	0x322
 1155 0145 9C000000 		.4byte	0x9c
 1156 0149 02       		.byte	0x2
 1157 014a 23       		.byte	0x23
 1158 014b 08       		.uleb128 0x8
 1159 014c 0E       		.uleb128 0xe
 1160 014d C4020000 		.4byte	.LASF23
 1161 0151 06       		.byte	0x6
 1162 0152 2303     		.2byte	0x323
 1163 0154 9C000000 		.4byte	0x9c
 1164 0158 02       		.byte	0x2
 1165 0159 23       		.byte	0x23
 1166 015a 0C       		.uleb128 0xc
 1167 015b 00       		.byte	0
 1168 015c 0B       		.uleb128 0xb
 1169 015d 17020000 		.4byte	.LASF24
 1170 0161 06       		.byte	0x6
 1171 0162 2403     		.2byte	0x324
 1172 0164 16010000 		.4byte	0x116
 1173 0168 0C       		.uleb128 0xc
 1174 0169 08       		.byte	0x8
 1175 016a 06       		.byte	0x6
 1176 016b 2603     		.2byte	0x326
 1177 016d 90010000 		.4byte	0x190
 1178 0171 0D       		.uleb128 0xd
 1179 0172 49535200 		.ascii	"ISR\000"
 1180 0176 06       		.byte	0x6
 1181 0177 2803     		.2byte	0x328
 1182 0179 9C000000 		.4byte	0x9c
 1183 017d 02       		.byte	0x2
 1184 017e 23       		.byte	0x23
 1185 017f 00       		.uleb128 0
 1186 0180 0E       		.uleb128 0xe
 1187 0181 E2020000 		.4byte	.LASF25
 1188 0185 06       		.byte	0x6
 1189 0186 2903     		.2byte	0x329
 1190 0188 9C000000 		.4byte	0x9c
 1191 018c 02       		.byte	0x2
 1192 018d 23       		.byte	0x23
 1193 018e 04       		.uleb128 0x4
 1194 018f 00       		.byte	0
 1195 0190 0B       		.uleb128 0xb
 1196 0191 5F000000 		.4byte	.LASF26
 1197 0195 06       		.byte	0x6
 1198 0196 2A03     		.2byte	0x32a
 1199 0198 68010000 		.4byte	0x168
 1200 019c 0F       		.uleb128 0xf
 1201 019d 2C       		.byte	0x2c
 1202 019e 07       		.byte	0x7
 1203 019f 32       		.byte	0x32
 1204 01a0 3F020000 		.4byte	0x23f
 1205 01a4 10       		.uleb128 0x10
 1206 01a5 86000000 		.4byte	.LASF27
 1207 01a9 07       		.byte	0x7
 1208 01aa 34       		.byte	0x34
ARM GAS  G:\Users\Jaxb\AppData\Local\Temp\ccnyQMas.s 			page 35


 1209 01ab 91000000 		.4byte	0x91
 1210 01af 02       		.byte	0x2
 1211 01b0 23       		.byte	0x23
 1212 01b1 00       		.uleb128 0
 1213 01b2 10       		.uleb128 0x10
 1214 01b3 1D000000 		.4byte	.LASF28
 1215 01b7 07       		.byte	0x7
 1216 01b8 36       		.byte	0x36
 1217 01b9 91000000 		.4byte	0x91
 1218 01bd 02       		.byte	0x2
 1219 01be 23       		.byte	0x23
 1220 01bf 04       		.uleb128 0x4
 1221 01c0 10       		.uleb128 0x10
 1222 01c1 6B000000 		.4byte	.LASF29
 1223 01c5 07       		.byte	0x7
 1224 01c6 38       		.byte	0x38
 1225 01c7 91000000 		.4byte	0x91
 1226 01cb 02       		.byte	0x2
 1227 01cc 23       		.byte	0x23
 1228 01cd 08       		.uleb128 0x8
 1229 01ce 10       		.uleb128 0x10
 1230 01cf 99010000 		.4byte	.LASF30
 1231 01d3 07       		.byte	0x7
 1232 01d4 3B       		.byte	0x3b
 1233 01d5 91000000 		.4byte	0x91
 1234 01d9 02       		.byte	0x2
 1235 01da 23       		.byte	0x23
 1236 01db 0C       		.uleb128 0xc
 1237 01dc 10       		.uleb128 0x10
 1238 01dd FB000000 		.4byte	.LASF31
 1239 01e1 07       		.byte	0x7
 1240 01e2 3F       		.byte	0x3f
 1241 01e3 91000000 		.4byte	0x91
 1242 01e7 02       		.byte	0x2
 1243 01e8 23       		.byte	0x23
 1244 01e9 10       		.uleb128 0x10
 1245 01ea 10       		.uleb128 0x10
 1246 01eb B1000000 		.4byte	.LASF32
 1247 01ef 07       		.byte	0x7
 1248 01f0 42       		.byte	0x42
 1249 01f1 91000000 		.4byte	0x91
 1250 01f5 02       		.byte	0x2
 1251 01f6 23       		.byte	0x23
 1252 01f7 14       		.uleb128 0x14
 1253 01f8 10       		.uleb128 0x10
 1254 01f9 64010000 		.4byte	.LASF33
 1255 01fd 07       		.byte	0x7
 1256 01fe 45       		.byte	0x45
 1257 01ff 91000000 		.4byte	0x91
 1258 0203 02       		.byte	0x2
 1259 0204 23       		.byte	0x23
 1260 0205 18       		.uleb128 0x18
 1261 0206 10       		.uleb128 0x10
 1262 0207 E3030000 		.4byte	.LASF34
 1263 020b 07       		.byte	0x7
 1264 020c 48       		.byte	0x48
 1265 020d 91000000 		.4byte	0x91
ARM GAS  G:\Users\Jaxb\AppData\Local\Temp\ccnyQMas.s 			page 36


 1266 0211 02       		.byte	0x2
 1267 0212 23       		.byte	0x23
 1268 0213 1C       		.uleb128 0x1c
 1269 0214 10       		.uleb128 0x10
 1270 0215 8D030000 		.4byte	.LASF35
 1271 0219 07       		.byte	0x7
 1272 021a 4B       		.byte	0x4b
 1273 021b 91000000 		.4byte	0x91
 1274 021f 02       		.byte	0x2
 1275 0220 23       		.byte	0x23
 1276 0221 20       		.uleb128 0x20
 1277 0222 10       		.uleb128 0x10
 1278 0223 10000000 		.4byte	.LASF36
 1279 0227 07       		.byte	0x7
 1280 0228 50       		.byte	0x50
 1281 0229 91000000 		.4byte	0x91
 1282 022d 02       		.byte	0x2
 1283 022e 23       		.byte	0x23
 1284 022f 24       		.uleb128 0x24
 1285 0230 10       		.uleb128 0x10
 1286 0231 08000000 		.4byte	.LASF37
 1287 0235 07       		.byte	0x7
 1288 0236 53       		.byte	0x53
 1289 0237 91000000 		.4byte	0x91
 1290 023b 02       		.byte	0x2
 1291 023c 23       		.byte	0x23
 1292 023d 28       		.uleb128 0x28
 1293 023e 00       		.byte	0
 1294 023f 03       		.uleb128 0x3
 1295 0240 7B010000 		.4byte	.LASF38
 1296 0244 07       		.byte	0x7
 1297 0245 55       		.byte	0x55
 1298 0246 9C010000 		.4byte	0x19c
 1299 024a 11       		.uleb128 0x11
 1300 024b 01       		.byte	0x1
 1301 024c 6A020000 		.4byte	.LASF42
 1302 0250 01       		.byte	0x1
 1303 0251 AC02     		.2byte	0x2ac
 1304 0253 01       		.byte	0x1
 1305 0254 C4030000 		.4byte	.LFB39
 1306 0258 F8030000 		.4byte	.LFE39
 1307 025c 00000000 		.4byte	.LLST10
 1308 0260 01       		.byte	0x1
 1309 0261 75020000 		.4byte	0x275
 1310 0265 12       		.uleb128 0x12
 1311 0266 DA020000 		.4byte	.LASF39
 1312 026a 01       		.byte	0x1
 1313 026b AC02     		.2byte	0x2ac
 1314 026d 91000000 		.4byte	0x91
 1315 0271 02       		.byte	0x2
 1316 0272 91       		.byte	0x91
 1317 0273 74       		.sleb128 -12
 1318 0274 00       		.byte	0
 1319 0275 13       		.uleb128 0x13
 1320 0276 01       		.byte	0x1
 1321 0277 DC010000 		.4byte	.LASF45
 1322 027b 01       		.byte	0x1
ARM GAS  G:\Users\Jaxb\AppData\Local\Temp\ccnyQMas.s 			page 37


 1323 027c 5302     		.2byte	0x253
 1324 027e 01       		.byte	0x1
 1325 027f E3000000 		.4byte	0xe3
 1326 0283 74030000 		.4byte	.LFB38
 1327 0287 C4030000 		.4byte	.LFE38
 1328 028b 5C000000 		.4byte	.LLST9
 1329 028f 01       		.byte	0x1
 1330 0290 C2020000 		.4byte	0x2c2
 1331 0294 12       		.uleb128 0x12
 1332 0295 DA020000 		.4byte	.LASF39
 1333 0299 01       		.byte	0x1
 1334 029a 5302     		.2byte	0x253
 1335 029c 91000000 		.4byte	0x91
 1336 02a0 02       		.byte	0x2
 1337 02a1 91       		.byte	0x91
 1338 02a2 6C       		.sleb128 -20
 1339 02a3 14       		.uleb128 0x14
 1340 02a4 C7030000 		.4byte	.LASF40
 1341 02a8 01       		.byte	0x1
 1342 02a9 5502     		.2byte	0x255
 1343 02ab E3000000 		.4byte	0xe3
 1344 02af 02       		.byte	0x2
 1345 02b0 91       		.byte	0x91
 1346 02b1 77       		.sleb128 -9
 1347 02b2 14       		.uleb128 0x14
 1348 02b3 58010000 		.4byte	.LASF41
 1349 02b7 01       		.byte	0x1
 1350 02b8 5602     		.2byte	0x256
 1351 02ba 91000000 		.4byte	0x91
 1352 02be 02       		.byte	0x2
 1353 02bf 91       		.byte	0x91
 1354 02c0 70       		.sleb128 -16
 1355 02c1 00       		.byte	0
 1356 02c2 11       		.uleb128 0x11
 1357 02c3 01       		.byte	0x1
 1358 02c4 33010000 		.4byte	.LASF43
 1359 02c8 01       		.byte	0x1
 1360 02c9 0B02     		.2byte	0x20b
 1361 02cb 01       		.byte	0x1
 1362 02cc 40030000 		.4byte	.LFB37
 1363 02d0 74030000 		.4byte	.LFE37
 1364 02d4 B8000000 		.4byte	.LLST8
 1365 02d8 01       		.byte	0x1
 1366 02d9 ED020000 		.4byte	0x2ed
 1367 02dd 12       		.uleb128 0x12
 1368 02de 73000000 		.4byte	.LASF44
 1369 02e2 01       		.byte	0x1
 1370 02e3 0B02     		.2byte	0x20b
 1371 02e5 91000000 		.4byte	0x91
 1372 02e9 02       		.byte	0x2
 1373 02ea 91       		.byte	0x91
 1374 02eb 74       		.sleb128 -12
 1375 02ec 00       		.byte	0
 1376 02ed 13       		.uleb128 0x13
 1377 02ee 01       		.byte	0x1
 1378 02ef 90020000 		.4byte	.LASF46
 1379 02f3 01       		.byte	0x1
ARM GAS  G:\Users\Jaxb\AppData\Local\Temp\ccnyQMas.s 			page 38


 1380 02f4 B101     		.2byte	0x1b1
 1381 02f6 01       		.byte	0x1
 1382 02f7 D7000000 		.4byte	0xd7
 1383 02fb EE020000 		.4byte	.LFB36
 1384 02ff 40030000 		.4byte	.LFE36
 1385 0303 14010000 		.4byte	.LLST7
 1386 0307 01       		.byte	0x1
 1387 0308 3A030000 		.4byte	0x33a
 1388 030c 12       		.uleb128 0x12
 1389 030d 73000000 		.4byte	.LASF44
 1390 0311 01       		.byte	0x1
 1391 0312 B101     		.2byte	0x1b1
 1392 0314 91000000 		.4byte	0x91
 1393 0318 02       		.byte	0x2
 1394 0319 91       		.byte	0x91
 1395 031a 6C       		.sleb128 -20
 1396 031b 14       		.uleb128 0x14
 1397 031c C7030000 		.4byte	.LASF40
 1398 0320 01       		.byte	0x1
 1399 0321 B301     		.2byte	0x1b3
 1400 0323 D7000000 		.4byte	0xd7
 1401 0327 02       		.byte	0x2
 1402 0328 91       		.byte	0x91
 1403 0329 77       		.sleb128 -9
 1404 032a 14       		.uleb128 0x14
 1405 032b 58010000 		.4byte	.LASF41
 1406 032f 01       		.byte	0x1
 1407 0330 B401     		.2byte	0x1b4
 1408 0332 91000000 		.4byte	0x91
 1409 0336 02       		.byte	0x2
 1410 0337 91       		.byte	0x91
 1411 0338 70       		.sleb128 -16
 1412 0339 00       		.byte	0
 1413 033a 13       		.uleb128 0x13
 1414 033b 01       		.byte	0x1
 1415 033c 96030000 		.4byte	.LASF47
 1416 0340 01       		.byte	0x1
 1417 0341 7301     		.2byte	0x173
 1418 0343 01       		.byte	0x1
 1419 0344 86000000 		.4byte	0x86
 1420 0348 D6020000 		.4byte	.LFB35
 1421 034c EE020000 		.4byte	.LFE35
 1422 0350 70010000 		.4byte	.LLST6
 1423 0354 01       		.byte	0x1
 1424 0355 69030000 		.4byte	0x369
 1425 0359 12       		.uleb128 0x12
 1426 035a 31020000 		.4byte	.LASF48
 1427 035e 01       		.byte	0x1
 1428 035f 7301     		.2byte	0x173
 1429 0361 69030000 		.4byte	0x369
 1430 0365 02       		.byte	0x2
 1431 0366 91       		.byte	0x91
 1432 0367 74       		.sleb128 -12
 1433 0368 00       		.byte	0
 1434 0369 15       		.uleb128 0x15
 1435 036a 04       		.byte	0x4
 1436 036b 5C010000 		.4byte	0x15c
ARM GAS  G:\Users\Jaxb\AppData\Local\Temp\ccnyQMas.s 			page 39


 1437 036f 11       		.uleb128 0x11
 1438 0370 01       		.byte	0x1
 1439 0371 41010000 		.4byte	.LASF49
 1440 0375 01       		.byte	0x1
 1441 0376 6101     		.2byte	0x161
 1442 0378 01       		.byte	0x1
 1443 0379 BA020000 		.4byte	.LFB34
 1444 037d D6020000 		.4byte	.LFE34
 1445 0381 CC010000 		.4byte	.LLST5
 1446 0385 01       		.byte	0x1
 1447 0386 A9030000 		.4byte	0x3a9
 1448 038a 12       		.uleb128 0x12
 1449 038b 31020000 		.4byte	.LASF48
 1450 038f 01       		.byte	0x1
 1451 0390 6101     		.2byte	0x161
 1452 0392 69030000 		.4byte	0x369
 1453 0396 02       		.byte	0x2
 1454 0397 91       		.byte	0x91
 1455 0398 74       		.sleb128 -12
 1456 0399 12       		.uleb128 0x12
 1457 039a 0D010000 		.4byte	.LASF50
 1458 039e 01       		.byte	0x1
 1459 039f 6101     		.2byte	0x161
 1460 03a1 86000000 		.4byte	0x86
 1461 03a5 02       		.byte	0x2
 1462 03a6 91       		.byte	0x91
 1463 03a7 72       		.sleb128 -14
 1464 03a8 00       		.byte	0
 1465 03a9 11       		.uleb128 0x11
 1466 03aa 01       		.byte	0x1
 1467 03ab AD030000 		.4byte	.LASF51
 1468 03af 01       		.byte	0x1
 1469 03b0 4601     		.2byte	0x146
 1470 03b2 01       		.byte	0x1
 1471 03b3 80020000 		.4byte	.LFB33
 1472 03b7 BA020000 		.4byte	.LFE33
 1473 03bb 28020000 		.4byte	.LLST4
 1474 03bf 01       		.byte	0x1
 1475 03c0 F2030000 		.4byte	0x3f2
 1476 03c4 12       		.uleb128 0x12
 1477 03c5 31020000 		.4byte	.LASF48
 1478 03c9 01       		.byte	0x1
 1479 03ca 4601     		.2byte	0x146
 1480 03cc 69030000 		.4byte	0x369
 1481 03d0 02       		.byte	0x2
 1482 03d1 91       		.byte	0x91
 1483 03d2 74       		.sleb128 -12
 1484 03d3 12       		.uleb128 0x12
 1485 03d4 BF010000 		.4byte	.LASF52
 1486 03d8 01       		.byte	0x1
 1487 03d9 4601     		.2byte	0x146
 1488 03db 91000000 		.4byte	0x91
 1489 03df 02       		.byte	0x2
 1490 03e0 91       		.byte	0x91
 1491 03e1 70       		.sleb128 -16
 1492 03e2 12       		.uleb128 0x12
 1493 03e3 7D000000 		.4byte	.LASF53
ARM GAS  G:\Users\Jaxb\AppData\Local\Temp\ccnyQMas.s 			page 40


 1494 03e7 01       		.byte	0x1
 1495 03e8 4601     		.2byte	0x146
 1496 03ea 0A010000 		.4byte	0x10a
 1497 03ee 02       		.byte	0x2
 1498 03ef 91       		.byte	0x91
 1499 03f0 6F       		.sleb128 -17
 1500 03f1 00       		.byte	0
 1501 03f2 11       		.uleb128 0x11
 1502 03f3 01       		.byte	0x1
 1503 03f4 00000000 		.4byte	.LASF54
 1504 03f8 01       		.byte	0x1
 1505 03f9 2601     		.2byte	0x126
 1506 03fb 01       		.byte	0x1
 1507 03fc 48020000 		.4byte	.LFB32
 1508 0400 80020000 		.4byte	.LFE32
 1509 0404 84020000 		.4byte	.LLST3
 1510 0408 01       		.byte	0x1
 1511 0409 2C040000 		.4byte	0x42c
 1512 040d 12       		.uleb128 0x12
 1513 040e 31020000 		.4byte	.LASF48
 1514 0412 01       		.byte	0x1
 1515 0413 2601     		.2byte	0x126
 1516 0415 69030000 		.4byte	0x369
 1517 0419 02       		.byte	0x2
 1518 041a 91       		.byte	0x91
 1519 041b 74       		.sleb128 -12
 1520 041c 12       		.uleb128 0x12
 1521 041d 7D000000 		.4byte	.LASF53
 1522 0421 01       		.byte	0x1
 1523 0422 2601     		.2byte	0x126
 1524 0424 0A010000 		.4byte	0x10a
 1525 0428 02       		.byte	0x2
 1526 0429 91       		.byte	0x91
 1527 042a 73       		.sleb128 -13
 1528 042b 00       		.byte	0
 1529 042c 11       		.uleb128 0x11
 1530 042d 01       		.byte	0x1
 1531 042e 30000000 		.4byte	.LASF55
 1532 0432 01       		.byte	0x1
 1533 0433 0301     		.2byte	0x103
 1534 0435 01       		.byte	0x1
 1535 0436 F4010000 		.4byte	.LFB31
 1536 043a 48020000 		.4byte	.LFE31
 1537 043e E0020000 		.4byte	.LLST2
 1538 0442 01       		.byte	0x1
 1539 0443 57040000 		.4byte	0x457
 1540 0447 12       		.uleb128 0x12
 1541 0448 F5010000 		.4byte	.LASF56
 1542 044c 01       		.byte	0x1
 1543 044d 0301     		.2byte	0x103
 1544 044f 57040000 		.4byte	0x457
 1545 0453 02       		.byte	0x2
 1546 0454 91       		.byte	0x91
 1547 0455 74       		.sleb128 -12
 1548 0456 00       		.byte	0
 1549 0457 15       		.uleb128 0x15
 1550 0458 04       		.byte	0x4
ARM GAS  G:\Users\Jaxb\AppData\Local\Temp\ccnyQMas.s 			page 41


 1551 0459 3F020000 		.4byte	0x23f
 1552 045d 16       		.uleb128 0x16
 1553 045e 01       		.byte	0x1
 1554 045f 2A010000 		.4byte	.LASF57
 1555 0463 01       		.byte	0x1
 1556 0464 CA       		.byte	0xca
 1557 0465 01       		.byte	0x1
 1558 0466 78010000 		.4byte	.LFB30
 1559 046a F4010000 		.4byte	.LFE30
 1560 046e 3C030000 		.4byte	.LLST1
 1561 0472 01       		.byte	0x1
 1562 0473 A2040000 		.4byte	0x4a2
 1563 0477 17       		.uleb128 0x17
 1564 0478 31020000 		.4byte	.LASF48
 1565 047c 01       		.byte	0x1
 1566 047d CA       		.byte	0xca
 1567 047e 69030000 		.4byte	0x369
 1568 0482 02       		.byte	0x2
 1569 0483 91       		.byte	0x91
 1570 0484 6C       		.sleb128 -20
 1571 0485 17       		.uleb128 0x17
 1572 0486 F5010000 		.4byte	.LASF56
 1573 048a 01       		.byte	0x1
 1574 048b CA       		.byte	0xca
 1575 048c 57040000 		.4byte	0x457
 1576 0490 02       		.byte	0x2
 1577 0491 91       		.byte	0x91
 1578 0492 68       		.sleb128 -24
 1579 0493 18       		.uleb128 0x18
 1580 0494 58010000 		.4byte	.LASF41
 1581 0498 01       		.byte	0x1
 1582 0499 CC       		.byte	0xcc
 1583 049a 91000000 		.4byte	0x91
 1584 049e 02       		.byte	0x2
 1585 049f 91       		.byte	0x91
 1586 04a0 74       		.sleb128 -12
 1587 04a1 00       		.byte	0
 1588 04a2 19       		.uleb128 0x19
 1589 04a3 01       		.byte	0x1
 1590 04a4 C9020000 		.4byte	.LASF61
 1591 04a8 01       		.byte	0x1
 1592 04a9 6C       		.byte	0x6c
 1593 04aa 01       		.byte	0x1
 1594 04ab 00000000 		.4byte	.LFB29
 1595 04af 78010000 		.4byte	.LFE29
 1596 04b3 98030000 		.4byte	.LLST0
 1597 04b7 01       		.byte	0x1
 1598 04b8 17       		.uleb128 0x17
 1599 04b9 31020000 		.4byte	.LASF48
 1600 04bd 01       		.byte	0x1
 1601 04be 6C       		.byte	0x6c
 1602 04bf 69030000 		.4byte	0x369
 1603 04c3 02       		.byte	0x2
 1604 04c4 91       		.byte	0x91
 1605 04c5 74       		.sleb128 -12
 1606 04c6 00       		.byte	0
 1607 04c7 00       		.byte	0
ARM GAS  G:\Users\Jaxb\AppData\Local\Temp\ccnyQMas.s 			page 42


 1608              		.section	.debug_abbrev,"",%progbits
 1609              	.Ldebug_abbrev0:
 1610 0000 01       		.uleb128 0x1
 1611 0001 11       		.uleb128 0x11
 1612 0002 01       		.byte	0x1
 1613 0003 25       		.uleb128 0x25
 1614 0004 0E       		.uleb128 0xe
 1615 0005 13       		.uleb128 0x13
 1616 0006 0B       		.uleb128 0xb
 1617 0007 03       		.uleb128 0x3
 1618 0008 0E       		.uleb128 0xe
 1619 0009 1B       		.uleb128 0x1b
 1620 000a 0E       		.uleb128 0xe
 1621 000b 11       		.uleb128 0x11
 1622 000c 01       		.uleb128 0x1
 1623 000d 12       		.uleb128 0x12
 1624 000e 01       		.uleb128 0x1
 1625 000f 10       		.uleb128 0x10
 1626 0010 06       		.uleb128 0x6
 1627 0011 00       		.byte	0
 1628 0012 00       		.byte	0
 1629 0013 02       		.uleb128 0x2
 1630 0014 24       		.uleb128 0x24
 1631 0015 00       		.byte	0
 1632 0016 0B       		.uleb128 0xb
 1633 0017 0B       		.uleb128 0xb
 1634 0018 3E       		.uleb128 0x3e
 1635 0019 0B       		.uleb128 0xb
 1636 001a 03       		.uleb128 0x3
 1637 001b 0E       		.uleb128 0xe
 1638 001c 00       		.byte	0
 1639 001d 00       		.byte	0
 1640 001e 03       		.uleb128 0x3
 1641 001f 16       		.uleb128 0x16
 1642 0020 00       		.byte	0
 1643 0021 03       		.uleb128 0x3
 1644 0022 0E       		.uleb128 0xe
 1645 0023 3A       		.uleb128 0x3a
 1646 0024 0B       		.uleb128 0xb
 1647 0025 3B       		.uleb128 0x3b
 1648 0026 0B       		.uleb128 0xb
 1649 0027 49       		.uleb128 0x49
 1650 0028 13       		.uleb128 0x13
 1651 0029 00       		.byte	0
 1652 002a 00       		.byte	0
 1653 002b 04       		.uleb128 0x4
 1654 002c 24       		.uleb128 0x24
 1655 002d 00       		.byte	0
 1656 002e 0B       		.uleb128 0xb
 1657 002f 0B       		.uleb128 0xb
 1658 0030 3E       		.uleb128 0x3e
 1659 0031 0B       		.uleb128 0xb
 1660 0032 03       		.uleb128 0x3
 1661 0033 08       		.uleb128 0x8
 1662 0034 00       		.byte	0
 1663 0035 00       		.byte	0
 1664 0036 05       		.uleb128 0x5
ARM GAS  G:\Users\Jaxb\AppData\Local\Temp\ccnyQMas.s 			page 43


 1665 0037 35       		.uleb128 0x35
 1666 0038 00       		.byte	0
 1667 0039 49       		.uleb128 0x49
 1668 003a 13       		.uleb128 0x13
 1669 003b 00       		.byte	0
 1670 003c 00       		.byte	0
 1671 003d 06       		.uleb128 0x6
 1672 003e 34       		.uleb128 0x34
 1673 003f 00       		.byte	0
 1674 0040 03       		.uleb128 0x3
 1675 0041 0E       		.uleb128 0xe
 1676 0042 3A       		.uleb128 0x3a
 1677 0043 0B       		.uleb128 0xb
 1678 0044 3B       		.uleb128 0x3b
 1679 0045 05       		.uleb128 0x5
 1680 0046 49       		.uleb128 0x49
 1681 0047 13       		.uleb128 0x13
 1682 0048 3F       		.uleb128 0x3f
 1683 0049 0C       		.uleb128 0xc
 1684 004a 3C       		.uleb128 0x3c
 1685 004b 0C       		.uleb128 0xc
 1686 004c 00       		.byte	0
 1687 004d 00       		.byte	0
 1688 004e 07       		.uleb128 0x7
 1689 004f 34       		.uleb128 0x34
 1690 0050 00       		.byte	0
 1691 0051 03       		.uleb128 0x3
 1692 0052 0E       		.uleb128 0xe
 1693 0053 3A       		.uleb128 0x3a
 1694 0054 0B       		.uleb128 0xb
 1695 0055 3B       		.uleb128 0x3b
 1696 0056 0B       		.uleb128 0xb
 1697 0057 49       		.uleb128 0x49
 1698 0058 13       		.uleb128 0x13
 1699 0059 3F       		.uleb128 0x3f
 1700 005a 0C       		.uleb128 0xc
 1701 005b 3C       		.uleb128 0x3c
 1702 005c 0C       		.uleb128 0xc
 1703 005d 00       		.byte	0
 1704 005e 00       		.byte	0
 1705 005f 08       		.uleb128 0x8
 1706 0060 04       		.uleb128 0x4
 1707 0061 01       		.byte	0x1
 1708 0062 3E       		.uleb128 0x3e
 1709 0063 0B       		.uleb128 0xb
 1710 0064 0B       		.uleb128 0xb
 1711 0065 0B       		.uleb128 0xb
 1712 0066 49       		.uleb128 0x49
 1713 0067 13       		.uleb128 0x13
 1714 0068 3A       		.uleb128 0x3a
 1715 0069 0B       		.uleb128 0xb
 1716 006a 3B       		.uleb128 0x3b
 1717 006b 05       		.uleb128 0x5
 1718 006c 01       		.uleb128 0x1
 1719 006d 13       		.uleb128 0x13
 1720 006e 00       		.byte	0
 1721 006f 00       		.byte	0
ARM GAS  G:\Users\Jaxb\AppData\Local\Temp\ccnyQMas.s 			page 44


 1722 0070 09       		.uleb128 0x9
 1723 0071 28       		.uleb128 0x28
 1724 0072 00       		.byte	0
 1725 0073 03       		.uleb128 0x3
 1726 0074 0E       		.uleb128 0xe
 1727 0075 1C       		.uleb128 0x1c
 1728 0076 0B       		.uleb128 0xb
 1729 0077 00       		.byte	0
 1730 0078 00       		.byte	0
 1731 0079 0A       		.uleb128 0xa
 1732 007a 28       		.uleb128 0x28
 1733 007b 00       		.byte	0
 1734 007c 03       		.uleb128 0x3
 1735 007d 08       		.uleb128 0x8
 1736 007e 1C       		.uleb128 0x1c
 1737 007f 0B       		.uleb128 0xb
 1738 0080 00       		.byte	0
 1739 0081 00       		.byte	0
 1740 0082 0B       		.uleb128 0xb
 1741 0083 16       		.uleb128 0x16
 1742 0084 00       		.byte	0
 1743 0085 03       		.uleb128 0x3
 1744 0086 0E       		.uleb128 0xe
 1745 0087 3A       		.uleb128 0x3a
 1746 0088 0B       		.uleb128 0xb
 1747 0089 3B       		.uleb128 0x3b
 1748 008a 05       		.uleb128 0x5
 1749 008b 49       		.uleb128 0x49
 1750 008c 13       		.uleb128 0x13
 1751 008d 00       		.byte	0
 1752 008e 00       		.byte	0
 1753 008f 0C       		.uleb128 0xc
 1754 0090 13       		.uleb128 0x13
 1755 0091 01       		.byte	0x1
 1756 0092 0B       		.uleb128 0xb
 1757 0093 0B       		.uleb128 0xb
 1758 0094 3A       		.uleb128 0x3a
 1759 0095 0B       		.uleb128 0xb
 1760 0096 3B       		.uleb128 0x3b
 1761 0097 05       		.uleb128 0x5
 1762 0098 01       		.uleb128 0x1
 1763 0099 13       		.uleb128 0x13
 1764 009a 00       		.byte	0
 1765 009b 00       		.byte	0
 1766 009c 0D       		.uleb128 0xd
 1767 009d 0D       		.uleb128 0xd
 1768 009e 00       		.byte	0
 1769 009f 03       		.uleb128 0x3
 1770 00a0 08       		.uleb128 0x8
 1771 00a1 3A       		.uleb128 0x3a
 1772 00a2 0B       		.uleb128 0xb
 1773 00a3 3B       		.uleb128 0x3b
 1774 00a4 05       		.uleb128 0x5
 1775 00a5 49       		.uleb128 0x49
 1776 00a6 13       		.uleb128 0x13
 1777 00a7 38       		.uleb128 0x38
 1778 00a8 0A       		.uleb128 0xa
ARM GAS  G:\Users\Jaxb\AppData\Local\Temp\ccnyQMas.s 			page 45


 1779 00a9 00       		.byte	0
 1780 00aa 00       		.byte	0
 1781 00ab 0E       		.uleb128 0xe
 1782 00ac 0D       		.uleb128 0xd
 1783 00ad 00       		.byte	0
 1784 00ae 03       		.uleb128 0x3
 1785 00af 0E       		.uleb128 0xe
 1786 00b0 3A       		.uleb128 0x3a
 1787 00b1 0B       		.uleb128 0xb
 1788 00b2 3B       		.uleb128 0x3b
 1789 00b3 05       		.uleb128 0x5
 1790 00b4 49       		.uleb128 0x49
 1791 00b5 13       		.uleb128 0x13
 1792 00b6 38       		.uleb128 0x38
 1793 00b7 0A       		.uleb128 0xa
 1794 00b8 00       		.byte	0
 1795 00b9 00       		.byte	0
 1796 00ba 0F       		.uleb128 0xf
 1797 00bb 13       		.uleb128 0x13
 1798 00bc 01       		.byte	0x1
 1799 00bd 0B       		.uleb128 0xb
 1800 00be 0B       		.uleb128 0xb
 1801 00bf 3A       		.uleb128 0x3a
 1802 00c0 0B       		.uleb128 0xb
 1803 00c1 3B       		.uleb128 0x3b
 1804 00c2 0B       		.uleb128 0xb
 1805 00c3 01       		.uleb128 0x1
 1806 00c4 13       		.uleb128 0x13
 1807 00c5 00       		.byte	0
 1808 00c6 00       		.byte	0
 1809 00c7 10       		.uleb128 0x10
 1810 00c8 0D       		.uleb128 0xd
 1811 00c9 00       		.byte	0
 1812 00ca 03       		.uleb128 0x3
 1813 00cb 0E       		.uleb128 0xe
 1814 00cc 3A       		.uleb128 0x3a
 1815 00cd 0B       		.uleb128 0xb
 1816 00ce 3B       		.uleb128 0x3b
 1817 00cf 0B       		.uleb128 0xb
 1818 00d0 49       		.uleb128 0x49
 1819 00d1 13       		.uleb128 0x13
 1820 00d2 38       		.uleb128 0x38
 1821 00d3 0A       		.uleb128 0xa
 1822 00d4 00       		.byte	0
 1823 00d5 00       		.byte	0
 1824 00d6 11       		.uleb128 0x11
 1825 00d7 2E       		.uleb128 0x2e
 1826 00d8 01       		.byte	0x1
 1827 00d9 3F       		.uleb128 0x3f
 1828 00da 0C       		.uleb128 0xc
 1829 00db 03       		.uleb128 0x3
 1830 00dc 0E       		.uleb128 0xe
 1831 00dd 3A       		.uleb128 0x3a
 1832 00de 0B       		.uleb128 0xb
 1833 00df 3B       		.uleb128 0x3b
 1834 00e0 05       		.uleb128 0x5
 1835 00e1 27       		.uleb128 0x27
ARM GAS  G:\Users\Jaxb\AppData\Local\Temp\ccnyQMas.s 			page 46


 1836 00e2 0C       		.uleb128 0xc
 1837 00e3 11       		.uleb128 0x11
 1838 00e4 01       		.uleb128 0x1
 1839 00e5 12       		.uleb128 0x12
 1840 00e6 01       		.uleb128 0x1
 1841 00e7 40       		.uleb128 0x40
 1842 00e8 06       		.uleb128 0x6
 1843 00e9 9742     		.uleb128 0x2117
 1844 00eb 0C       		.uleb128 0xc
 1845 00ec 01       		.uleb128 0x1
 1846 00ed 13       		.uleb128 0x13
 1847 00ee 00       		.byte	0
 1848 00ef 00       		.byte	0
 1849 00f0 12       		.uleb128 0x12
 1850 00f1 05       		.uleb128 0x5
 1851 00f2 00       		.byte	0
 1852 00f3 03       		.uleb128 0x3
 1853 00f4 0E       		.uleb128 0xe
 1854 00f5 3A       		.uleb128 0x3a
 1855 00f6 0B       		.uleb128 0xb
 1856 00f7 3B       		.uleb128 0x3b
 1857 00f8 05       		.uleb128 0x5
 1858 00f9 49       		.uleb128 0x49
 1859 00fa 13       		.uleb128 0x13
 1860 00fb 02       		.uleb128 0x2
 1861 00fc 0A       		.uleb128 0xa
 1862 00fd 00       		.byte	0
 1863 00fe 00       		.byte	0
 1864 00ff 13       		.uleb128 0x13
 1865 0100 2E       		.uleb128 0x2e
 1866 0101 01       		.byte	0x1
 1867 0102 3F       		.uleb128 0x3f
 1868 0103 0C       		.uleb128 0xc
 1869 0104 03       		.uleb128 0x3
 1870 0105 0E       		.uleb128 0xe
 1871 0106 3A       		.uleb128 0x3a
 1872 0107 0B       		.uleb128 0xb
 1873 0108 3B       		.uleb128 0x3b
 1874 0109 05       		.uleb128 0x5
 1875 010a 27       		.uleb128 0x27
 1876 010b 0C       		.uleb128 0xc
 1877 010c 49       		.uleb128 0x49
 1878 010d 13       		.uleb128 0x13
 1879 010e 11       		.uleb128 0x11
 1880 010f 01       		.uleb128 0x1
 1881 0110 12       		.uleb128 0x12
 1882 0111 01       		.uleb128 0x1
 1883 0112 40       		.uleb128 0x40
 1884 0113 06       		.uleb128 0x6
 1885 0114 9742     		.uleb128 0x2117
 1886 0116 0C       		.uleb128 0xc
 1887 0117 01       		.uleb128 0x1
 1888 0118 13       		.uleb128 0x13
 1889 0119 00       		.byte	0
 1890 011a 00       		.byte	0
 1891 011b 14       		.uleb128 0x14
 1892 011c 34       		.uleb128 0x34
ARM GAS  G:\Users\Jaxb\AppData\Local\Temp\ccnyQMas.s 			page 47


 1893 011d 00       		.byte	0
 1894 011e 03       		.uleb128 0x3
 1895 011f 0E       		.uleb128 0xe
 1896 0120 3A       		.uleb128 0x3a
 1897 0121 0B       		.uleb128 0xb
 1898 0122 3B       		.uleb128 0x3b
 1899 0123 05       		.uleb128 0x5
 1900 0124 49       		.uleb128 0x49
 1901 0125 13       		.uleb128 0x13
 1902 0126 02       		.uleb128 0x2
 1903 0127 0A       		.uleb128 0xa
 1904 0128 00       		.byte	0
 1905 0129 00       		.byte	0
 1906 012a 15       		.uleb128 0x15
 1907 012b 0F       		.uleb128 0xf
 1908 012c 00       		.byte	0
 1909 012d 0B       		.uleb128 0xb
 1910 012e 0B       		.uleb128 0xb
 1911 012f 49       		.uleb128 0x49
 1912 0130 13       		.uleb128 0x13
 1913 0131 00       		.byte	0
 1914 0132 00       		.byte	0
 1915 0133 16       		.uleb128 0x16
 1916 0134 2E       		.uleb128 0x2e
 1917 0135 01       		.byte	0x1
 1918 0136 3F       		.uleb128 0x3f
 1919 0137 0C       		.uleb128 0xc
 1920 0138 03       		.uleb128 0x3
 1921 0139 0E       		.uleb128 0xe
 1922 013a 3A       		.uleb128 0x3a
 1923 013b 0B       		.uleb128 0xb
 1924 013c 3B       		.uleb128 0x3b
 1925 013d 0B       		.uleb128 0xb
 1926 013e 27       		.uleb128 0x27
 1927 013f 0C       		.uleb128 0xc
 1928 0140 11       		.uleb128 0x11
 1929 0141 01       		.uleb128 0x1
 1930 0142 12       		.uleb128 0x12
 1931 0143 01       		.uleb128 0x1
 1932 0144 40       		.uleb128 0x40
 1933 0145 06       		.uleb128 0x6
 1934 0146 9742     		.uleb128 0x2117
 1935 0148 0C       		.uleb128 0xc
 1936 0149 01       		.uleb128 0x1
 1937 014a 13       		.uleb128 0x13
 1938 014b 00       		.byte	0
 1939 014c 00       		.byte	0
 1940 014d 17       		.uleb128 0x17
 1941 014e 05       		.uleb128 0x5
 1942 014f 00       		.byte	0
 1943 0150 03       		.uleb128 0x3
 1944 0151 0E       		.uleb128 0xe
 1945 0152 3A       		.uleb128 0x3a
 1946 0153 0B       		.uleb128 0xb
 1947 0154 3B       		.uleb128 0x3b
 1948 0155 0B       		.uleb128 0xb
 1949 0156 49       		.uleb128 0x49
ARM GAS  G:\Users\Jaxb\AppData\Local\Temp\ccnyQMas.s 			page 48


 1950 0157 13       		.uleb128 0x13
 1951 0158 02       		.uleb128 0x2
 1952 0159 0A       		.uleb128 0xa
 1953 015a 00       		.byte	0
 1954 015b 00       		.byte	0
 1955 015c 18       		.uleb128 0x18
 1956 015d 34       		.uleb128 0x34
 1957 015e 00       		.byte	0
 1958 015f 03       		.uleb128 0x3
 1959 0160 0E       		.uleb128 0xe
 1960 0161 3A       		.uleb128 0x3a
 1961 0162 0B       		.uleb128 0xb
 1962 0163 3B       		.uleb128 0x3b
 1963 0164 0B       		.uleb128 0xb
 1964 0165 49       		.uleb128 0x49
 1965 0166 13       		.uleb128 0x13
 1966 0167 02       		.uleb128 0x2
 1967 0168 0A       		.uleb128 0xa
 1968 0169 00       		.byte	0
 1969 016a 00       		.byte	0
 1970 016b 19       		.uleb128 0x19
 1971 016c 2E       		.uleb128 0x2e
 1972 016d 01       		.byte	0x1
 1973 016e 3F       		.uleb128 0x3f
 1974 016f 0C       		.uleb128 0xc
 1975 0170 03       		.uleb128 0x3
 1976 0171 0E       		.uleb128 0xe
 1977 0172 3A       		.uleb128 0x3a
 1978 0173 0B       		.uleb128 0xb
 1979 0174 3B       		.uleb128 0x3b
 1980 0175 0B       		.uleb128 0xb
 1981 0176 27       		.uleb128 0x27
 1982 0177 0C       		.uleb128 0xc
 1983 0178 11       		.uleb128 0x11
 1984 0179 01       		.uleb128 0x1
 1985 017a 12       		.uleb128 0x12
 1986 017b 01       		.uleb128 0x1
 1987 017c 40       		.uleb128 0x40
 1988 017d 06       		.uleb128 0x6
 1989 017e 9742     		.uleb128 0x2117
 1990 0180 0C       		.uleb128 0xc
 1991 0181 00       		.byte	0
 1992 0182 00       		.byte	0
 1993 0183 00       		.byte	0
 1994              		.section	.debug_loc,"",%progbits
 1995              	.Ldebug_loc0:
 1996              	.LLST10:
 1997 0000 C4030000 		.4byte	.LFB39-.Ltext0
 1998 0004 C6030000 		.4byte	.LCFI60-.Ltext0
 1999 0008 0200     		.2byte	0x2
 2000 000a 7D       		.byte	0x7d
 2001 000b 00       		.sleb128 0
 2002 000c C6030000 		.4byte	.LCFI60-.Ltext0
 2003 0010 C8030000 		.4byte	.LCFI61-.Ltext0
 2004 0014 0200     		.2byte	0x2
 2005 0016 7D       		.byte	0x7d
 2006 0017 04       		.sleb128 4
ARM GAS  G:\Users\Jaxb\AppData\Local\Temp\ccnyQMas.s 			page 49


 2007 0018 C8030000 		.4byte	.LCFI61-.Ltext0
 2008 001c CA030000 		.4byte	.LCFI62-.Ltext0
 2009 0020 0200     		.2byte	0x2
 2010 0022 7D       		.byte	0x7d
 2011 0023 10       		.sleb128 16
 2012 0024 CA030000 		.4byte	.LCFI62-.Ltext0
 2013 0028 E8030000 		.4byte	.LCFI63-.Ltext0
 2014 002c 0200     		.2byte	0x2
 2015 002e 77       		.byte	0x77
 2016 002f 10       		.sleb128 16
 2017 0030 E8030000 		.4byte	.LCFI63-.Ltext0
 2018 0034 EA030000 		.4byte	.LCFI64-.Ltext0
 2019 0038 0200     		.2byte	0x2
 2020 003a 77       		.byte	0x77
 2021 003b 04       		.sleb128 4
 2022 003c EA030000 		.4byte	.LCFI64-.Ltext0
 2023 0040 EC030000 		.4byte	.LCFI65-.Ltext0
 2024 0044 0200     		.2byte	0x2
 2025 0046 7D       		.byte	0x7d
 2026 0047 04       		.sleb128 4
 2027 0048 EC030000 		.4byte	.LCFI65-.Ltext0
 2028 004c F8030000 		.4byte	.LFE39-.Ltext0
 2029 0050 0200     		.2byte	0x2
 2030 0052 7D       		.byte	0x7d
 2031 0053 00       		.sleb128 0
 2032 0054 00000000 		.4byte	0
 2033 0058 00000000 		.4byte	0
 2034              	.LLST9:
 2035 005c 74030000 		.4byte	.LFB38-.Ltext0
 2036 0060 76030000 		.4byte	.LCFI54-.Ltext0
 2037 0064 0200     		.2byte	0x2
 2038 0066 7D       		.byte	0x7d
 2039 0067 00       		.sleb128 0
 2040 0068 76030000 		.4byte	.LCFI54-.Ltext0
 2041 006c 78030000 		.4byte	.LCFI55-.Ltext0
 2042 0070 0200     		.2byte	0x2
 2043 0072 7D       		.byte	0x7d
 2044 0073 04       		.sleb128 4
 2045 0074 78030000 		.4byte	.LCFI55-.Ltext0
 2046 0078 7A030000 		.4byte	.LCFI56-.Ltext0
 2047 007c 0200     		.2byte	0x2
 2048 007e 7D       		.byte	0x7d
 2049 007f 18       		.sleb128 24
 2050 0080 7A030000 		.4byte	.LCFI56-.Ltext0
 2051 0084 B6030000 		.4byte	.LCFI57-.Ltext0
 2052 0088 0200     		.2byte	0x2
 2053 008a 77       		.byte	0x77
 2054 008b 18       		.sleb128 24
 2055 008c B6030000 		.4byte	.LCFI57-.Ltext0
 2056 0090 B8030000 		.4byte	.LCFI58-.Ltext0
 2057 0094 0200     		.2byte	0x2
 2058 0096 77       		.byte	0x77
 2059 0097 04       		.sleb128 4
 2060 0098 B8030000 		.4byte	.LCFI58-.Ltext0
 2061 009c BA030000 		.4byte	.LCFI59-.Ltext0
 2062 00a0 0200     		.2byte	0x2
 2063 00a2 7D       		.byte	0x7d
ARM GAS  G:\Users\Jaxb\AppData\Local\Temp\ccnyQMas.s 			page 50


 2064 00a3 04       		.sleb128 4
 2065 00a4 BA030000 		.4byte	.LCFI59-.Ltext0
 2066 00a8 C4030000 		.4byte	.LFE38-.Ltext0
 2067 00ac 0200     		.2byte	0x2
 2068 00ae 7D       		.byte	0x7d
 2069 00af 00       		.sleb128 0
 2070 00b0 00000000 		.4byte	0
 2071 00b4 00000000 		.4byte	0
 2072              	.LLST8:
 2073 00b8 40030000 		.4byte	.LFB37-.Ltext0
 2074 00bc 42030000 		.4byte	.LCFI48-.Ltext0
 2075 00c0 0200     		.2byte	0x2
 2076 00c2 7D       		.byte	0x7d
 2077 00c3 00       		.sleb128 0
 2078 00c4 42030000 		.4byte	.LCFI48-.Ltext0
 2079 00c8 44030000 		.4byte	.LCFI49-.Ltext0
 2080 00cc 0200     		.2byte	0x2
 2081 00ce 7D       		.byte	0x7d
 2082 00cf 04       		.sleb128 4
 2083 00d0 44030000 		.4byte	.LCFI49-.Ltext0
 2084 00d4 46030000 		.4byte	.LCFI50-.Ltext0
 2085 00d8 0200     		.2byte	0x2
 2086 00da 7D       		.byte	0x7d
 2087 00db 10       		.sleb128 16
 2088 00dc 46030000 		.4byte	.LCFI50-.Ltext0
 2089 00e0 64030000 		.4byte	.LCFI51-.Ltext0
 2090 00e4 0200     		.2byte	0x2
 2091 00e6 77       		.byte	0x77
 2092 00e7 10       		.sleb128 16
 2093 00e8 64030000 		.4byte	.LCFI51-.Ltext0
 2094 00ec 66030000 		.4byte	.LCFI52-.Ltext0
 2095 00f0 0200     		.2byte	0x2
 2096 00f2 77       		.byte	0x77
 2097 00f3 04       		.sleb128 4
 2098 00f4 66030000 		.4byte	.LCFI52-.Ltext0
 2099 00f8 68030000 		.4byte	.LCFI53-.Ltext0
 2100 00fc 0200     		.2byte	0x2
 2101 00fe 7D       		.byte	0x7d
 2102 00ff 04       		.sleb128 4
 2103 0100 68030000 		.4byte	.LCFI53-.Ltext0
 2104 0104 74030000 		.4byte	.LFE37-.Ltext0
 2105 0108 0200     		.2byte	0x2
 2106 010a 7D       		.byte	0x7d
 2107 010b 00       		.sleb128 0
 2108 010c 00000000 		.4byte	0
 2109 0110 00000000 		.4byte	0
 2110              	.LLST7:
 2111 0114 EE020000 		.4byte	.LFB36-.Ltext0
 2112 0118 F0020000 		.4byte	.LCFI42-.Ltext0
 2113 011c 0200     		.2byte	0x2
 2114 011e 7D       		.byte	0x7d
 2115 011f 00       		.sleb128 0
 2116 0120 F0020000 		.4byte	.LCFI42-.Ltext0
 2117 0124 F2020000 		.4byte	.LCFI43-.Ltext0
 2118 0128 0200     		.2byte	0x2
 2119 012a 7D       		.byte	0x7d
 2120 012b 04       		.sleb128 4
ARM GAS  G:\Users\Jaxb\AppData\Local\Temp\ccnyQMas.s 			page 51


 2121 012c F2020000 		.4byte	.LCFI43-.Ltext0
 2122 0130 F4020000 		.4byte	.LCFI44-.Ltext0
 2123 0134 0200     		.2byte	0x2
 2124 0136 7D       		.byte	0x7d
 2125 0137 18       		.sleb128 24
 2126 0138 F4020000 		.4byte	.LCFI44-.Ltext0
 2127 013c 30030000 		.4byte	.LCFI45-.Ltext0
 2128 0140 0200     		.2byte	0x2
 2129 0142 77       		.byte	0x77
 2130 0143 18       		.sleb128 24
 2131 0144 30030000 		.4byte	.LCFI45-.Ltext0
 2132 0148 32030000 		.4byte	.LCFI46-.Ltext0
 2133 014c 0200     		.2byte	0x2
 2134 014e 77       		.byte	0x77
 2135 014f 04       		.sleb128 4
 2136 0150 32030000 		.4byte	.LCFI46-.Ltext0
 2137 0154 34030000 		.4byte	.LCFI47-.Ltext0
 2138 0158 0200     		.2byte	0x2
 2139 015a 7D       		.byte	0x7d
 2140 015b 04       		.sleb128 4
 2141 015c 34030000 		.4byte	.LCFI47-.Ltext0
 2142 0160 40030000 		.4byte	.LFE36-.Ltext0
 2143 0164 0200     		.2byte	0x2
 2144 0166 7D       		.byte	0x7d
 2145 0167 00       		.sleb128 0
 2146 0168 00000000 		.4byte	0
 2147 016c 00000000 		.4byte	0
 2148              	.LLST6:
 2149 0170 D6020000 		.4byte	.LFB35-.Ltext0
 2150 0174 D8020000 		.4byte	.LCFI36-.Ltext0
 2151 0178 0200     		.2byte	0x2
 2152 017a 7D       		.byte	0x7d
 2153 017b 00       		.sleb128 0
 2154 017c D8020000 		.4byte	.LCFI36-.Ltext0
 2155 0180 DA020000 		.4byte	.LCFI37-.Ltext0
 2156 0184 0200     		.2byte	0x2
 2157 0186 7D       		.byte	0x7d
 2158 0187 04       		.sleb128 4
 2159 0188 DA020000 		.4byte	.LCFI37-.Ltext0
 2160 018c DC020000 		.4byte	.LCFI38-.Ltext0
 2161 0190 0200     		.2byte	0x2
 2162 0192 7D       		.byte	0x7d
 2163 0193 10       		.sleb128 16
 2164 0194 DC020000 		.4byte	.LCFI38-.Ltext0
 2165 0198 E8020000 		.4byte	.LCFI39-.Ltext0
 2166 019c 0200     		.2byte	0x2
 2167 019e 77       		.byte	0x77
 2168 019f 10       		.sleb128 16
 2169 01a0 E8020000 		.4byte	.LCFI39-.Ltext0
 2170 01a4 EA020000 		.4byte	.LCFI40-.Ltext0
 2171 01a8 0200     		.2byte	0x2
 2172 01aa 77       		.byte	0x77
 2173 01ab 04       		.sleb128 4
 2174 01ac EA020000 		.4byte	.LCFI40-.Ltext0
 2175 01b0 EC020000 		.4byte	.LCFI41-.Ltext0
 2176 01b4 0200     		.2byte	0x2
 2177 01b6 7D       		.byte	0x7d
ARM GAS  G:\Users\Jaxb\AppData\Local\Temp\ccnyQMas.s 			page 52


 2178 01b7 04       		.sleb128 4
 2179 01b8 EC020000 		.4byte	.LCFI41-.Ltext0
 2180 01bc EE020000 		.4byte	.LFE35-.Ltext0
 2181 01c0 0200     		.2byte	0x2
 2182 01c2 7D       		.byte	0x7d
 2183 01c3 00       		.sleb128 0
 2184 01c4 00000000 		.4byte	0
 2185 01c8 00000000 		.4byte	0
 2186              	.LLST5:
 2187 01cc BA020000 		.4byte	.LFB34-.Ltext0
 2188 01d0 BC020000 		.4byte	.LCFI30-.Ltext0
 2189 01d4 0200     		.2byte	0x2
 2190 01d6 7D       		.byte	0x7d
 2191 01d7 00       		.sleb128 0
 2192 01d8 BC020000 		.4byte	.LCFI30-.Ltext0
 2193 01dc BE020000 		.4byte	.LCFI31-.Ltext0
 2194 01e0 0200     		.2byte	0x2
 2195 01e2 7D       		.byte	0x7d
 2196 01e3 04       		.sleb128 4
 2197 01e4 BE020000 		.4byte	.LCFI31-.Ltext0
 2198 01e8 C0020000 		.4byte	.LCFI32-.Ltext0
 2199 01ec 0200     		.2byte	0x2
 2200 01ee 7D       		.byte	0x7d
 2201 01ef 10       		.sleb128 16
 2202 01f0 C0020000 		.4byte	.LCFI32-.Ltext0
 2203 01f4 D0020000 		.4byte	.LCFI33-.Ltext0
 2204 01f8 0200     		.2byte	0x2
 2205 01fa 77       		.byte	0x77
 2206 01fb 10       		.sleb128 16
 2207 01fc D0020000 		.4byte	.LCFI33-.Ltext0
 2208 0200 D2020000 		.4byte	.LCFI34-.Ltext0
 2209 0204 0200     		.2byte	0x2
 2210 0206 77       		.byte	0x77
 2211 0207 04       		.sleb128 4
 2212 0208 D2020000 		.4byte	.LCFI34-.Ltext0
 2213 020c D4020000 		.4byte	.LCFI35-.Ltext0
 2214 0210 0200     		.2byte	0x2
 2215 0212 7D       		.byte	0x7d
 2216 0213 04       		.sleb128 4
 2217 0214 D4020000 		.4byte	.LCFI35-.Ltext0
 2218 0218 D6020000 		.4byte	.LFE34-.Ltext0
 2219 021c 0200     		.2byte	0x2
 2220 021e 7D       		.byte	0x7d
 2221 021f 00       		.sleb128 0
 2222 0220 00000000 		.4byte	0
 2223 0224 00000000 		.4byte	0
 2224              	.LLST4:
 2225 0228 80020000 		.4byte	.LFB33-.Ltext0
 2226 022c 82020000 		.4byte	.LCFI24-.Ltext0
 2227 0230 0200     		.2byte	0x2
 2228 0232 7D       		.byte	0x7d
 2229 0233 00       		.sleb128 0
 2230 0234 82020000 		.4byte	.LCFI24-.Ltext0
 2231 0238 84020000 		.4byte	.LCFI25-.Ltext0
 2232 023c 0200     		.2byte	0x2
 2233 023e 7D       		.byte	0x7d
 2234 023f 04       		.sleb128 4
ARM GAS  G:\Users\Jaxb\AppData\Local\Temp\ccnyQMas.s 			page 53


 2235 0240 84020000 		.4byte	.LCFI25-.Ltext0
 2236 0244 86020000 		.4byte	.LCFI26-.Ltext0
 2237 0248 0200     		.2byte	0x2
 2238 024a 7D       		.byte	0x7d
 2239 024b 18       		.sleb128 24
 2240 024c 86020000 		.4byte	.LCFI26-.Ltext0
 2241 0250 B4020000 		.4byte	.LCFI27-.Ltext0
 2242 0254 0200     		.2byte	0x2
 2243 0256 77       		.byte	0x77
 2244 0257 18       		.sleb128 24
 2245 0258 B4020000 		.4byte	.LCFI27-.Ltext0
 2246 025c B6020000 		.4byte	.LCFI28-.Ltext0
 2247 0260 0200     		.2byte	0x2
 2248 0262 77       		.byte	0x77
 2249 0263 04       		.sleb128 4
 2250 0264 B6020000 		.4byte	.LCFI28-.Ltext0
 2251 0268 B8020000 		.4byte	.LCFI29-.Ltext0
 2252 026c 0200     		.2byte	0x2
 2253 026e 7D       		.byte	0x7d
 2254 026f 04       		.sleb128 4
 2255 0270 B8020000 		.4byte	.LCFI29-.Ltext0
 2256 0274 BA020000 		.4byte	.LFE33-.Ltext0
 2257 0278 0200     		.2byte	0x2
 2258 027a 7D       		.byte	0x7d
 2259 027b 00       		.sleb128 0
 2260 027c 00000000 		.4byte	0
 2261 0280 00000000 		.4byte	0
 2262              	.LLST3:
 2263 0284 48020000 		.4byte	.LFB32-.Ltext0
 2264 0288 4A020000 		.4byte	.LCFI18-.Ltext0
 2265 028c 0200     		.2byte	0x2
 2266 028e 7D       		.byte	0x7d
 2267 028f 00       		.sleb128 0
 2268 0290 4A020000 		.4byte	.LCFI18-.Ltext0
 2269 0294 4C020000 		.4byte	.LCFI19-.Ltext0
 2270 0298 0200     		.2byte	0x2
 2271 029a 7D       		.byte	0x7d
 2272 029b 04       		.sleb128 4
 2273 029c 4C020000 		.4byte	.LCFI19-.Ltext0
 2274 02a0 4E020000 		.4byte	.LCFI20-.Ltext0
 2275 02a4 0200     		.2byte	0x2
 2276 02a6 7D       		.byte	0x7d
 2277 02a7 10       		.sleb128 16
 2278 02a8 4E020000 		.4byte	.LCFI20-.Ltext0
 2279 02ac 7A020000 		.4byte	.LCFI21-.Ltext0
 2280 02b0 0200     		.2byte	0x2
 2281 02b2 77       		.byte	0x77
 2282 02b3 10       		.sleb128 16
 2283 02b4 7A020000 		.4byte	.LCFI21-.Ltext0
 2284 02b8 7C020000 		.4byte	.LCFI22-.Ltext0
 2285 02bc 0200     		.2byte	0x2
 2286 02be 77       		.byte	0x77
 2287 02bf 04       		.sleb128 4
 2288 02c0 7C020000 		.4byte	.LCFI22-.Ltext0
 2289 02c4 7E020000 		.4byte	.LCFI23-.Ltext0
 2290 02c8 0200     		.2byte	0x2
 2291 02ca 7D       		.byte	0x7d
ARM GAS  G:\Users\Jaxb\AppData\Local\Temp\ccnyQMas.s 			page 54


 2292 02cb 04       		.sleb128 4
 2293 02cc 7E020000 		.4byte	.LCFI23-.Ltext0
 2294 02d0 80020000 		.4byte	.LFE32-.Ltext0
 2295 02d4 0200     		.2byte	0x2
 2296 02d6 7D       		.byte	0x7d
 2297 02d7 00       		.sleb128 0
 2298 02d8 00000000 		.4byte	0
 2299 02dc 00000000 		.4byte	0
 2300              	.LLST2:
 2301 02e0 F4010000 		.4byte	.LFB31-.Ltext0
 2302 02e4 F6010000 		.4byte	.LCFI12-.Ltext0
 2303 02e8 0200     		.2byte	0x2
 2304 02ea 7D       		.byte	0x7d
 2305 02eb 00       		.sleb128 0
 2306 02ec F6010000 		.4byte	.LCFI12-.Ltext0
 2307 02f0 F8010000 		.4byte	.LCFI13-.Ltext0
 2308 02f4 0200     		.2byte	0x2
 2309 02f6 7D       		.byte	0x7d
 2310 02f7 04       		.sleb128 4
 2311 02f8 F8010000 		.4byte	.LCFI13-.Ltext0
 2312 02fc FA010000 		.4byte	.LCFI14-.Ltext0
 2313 0300 0200     		.2byte	0x2
 2314 0302 7D       		.byte	0x7d
 2315 0303 10       		.sleb128 16
 2316 0304 FA010000 		.4byte	.LCFI14-.Ltext0
 2317 0308 42020000 		.4byte	.LCFI15-.Ltext0
 2318 030c 0200     		.2byte	0x2
 2319 030e 77       		.byte	0x77
 2320 030f 10       		.sleb128 16
 2321 0310 42020000 		.4byte	.LCFI15-.Ltext0
 2322 0314 44020000 		.4byte	.LCFI16-.Ltext0
 2323 0318 0200     		.2byte	0x2
 2324 031a 77       		.byte	0x77
 2325 031b 04       		.sleb128 4
 2326 031c 44020000 		.4byte	.LCFI16-.Ltext0
 2327 0320 46020000 		.4byte	.LCFI17-.Ltext0
 2328 0324 0200     		.2byte	0x2
 2329 0326 7D       		.byte	0x7d
 2330 0327 04       		.sleb128 4
 2331 0328 46020000 		.4byte	.LCFI17-.Ltext0
 2332 032c 48020000 		.4byte	.LFE31-.Ltext0
 2333 0330 0200     		.2byte	0x2
 2334 0332 7D       		.byte	0x7d
 2335 0333 00       		.sleb128 0
 2336 0334 00000000 		.4byte	0
 2337 0338 00000000 		.4byte	0
 2338              	.LLST1:
 2339 033c 78010000 		.4byte	.LFB30-.Ltext0
 2340 0340 7A010000 		.4byte	.LCFI6-.Ltext0
 2341 0344 0200     		.2byte	0x2
 2342 0346 7D       		.byte	0x7d
 2343 0347 00       		.sleb128 0
 2344 0348 7A010000 		.4byte	.LCFI6-.Ltext0
 2345 034c 7C010000 		.4byte	.LCFI7-.Ltext0
 2346 0350 0200     		.2byte	0x2
 2347 0352 7D       		.byte	0x7d
 2348 0353 04       		.sleb128 4
ARM GAS  G:\Users\Jaxb\AppData\Local\Temp\ccnyQMas.s 			page 55


 2349 0354 7C010000 		.4byte	.LCFI7-.Ltext0
 2350 0358 7E010000 		.4byte	.LCFI8-.Ltext0
 2351 035c 0200     		.2byte	0x2
 2352 035e 7D       		.byte	0x7d
 2353 035f 18       		.sleb128 24
 2354 0360 7E010000 		.4byte	.LCFI8-.Ltext0
 2355 0364 EE010000 		.4byte	.LCFI9-.Ltext0
 2356 0368 0200     		.2byte	0x2
 2357 036a 77       		.byte	0x77
 2358 036b 18       		.sleb128 24
 2359 036c EE010000 		.4byte	.LCFI9-.Ltext0
 2360 0370 F0010000 		.4byte	.LCFI10-.Ltext0
 2361 0374 0200     		.2byte	0x2
 2362 0376 77       		.byte	0x77
 2363 0377 04       		.sleb128 4
 2364 0378 F0010000 		.4byte	.LCFI10-.Ltext0
 2365 037c F2010000 		.4byte	.LCFI11-.Ltext0
 2366 0380 0200     		.2byte	0x2
 2367 0382 7D       		.byte	0x7d
 2368 0383 04       		.sleb128 4
 2369 0384 F2010000 		.4byte	.LCFI11-.Ltext0
 2370 0388 F4010000 		.4byte	.LFE30-.Ltext0
 2371 038c 0200     		.2byte	0x2
 2372 038e 7D       		.byte	0x7d
 2373 038f 00       		.sleb128 0
 2374 0390 00000000 		.4byte	0
 2375 0394 00000000 		.4byte	0
 2376              	.LLST0:
 2377 0398 00000000 		.4byte	.LFB29-.Ltext0
 2378 039c 02000000 		.4byte	.LCFI0-.Ltext0
 2379 03a0 0200     		.2byte	0x2
 2380 03a2 7D       		.byte	0x7d
 2381 03a3 00       		.sleb128 0
 2382 03a4 02000000 		.4byte	.LCFI0-.Ltext0
 2383 03a8 04000000 		.4byte	.LCFI1-.Ltext0
 2384 03ac 0200     		.2byte	0x2
 2385 03ae 7D       		.byte	0x7d
 2386 03af 04       		.sleb128 4
 2387 03b0 04000000 		.4byte	.LCFI1-.Ltext0
 2388 03b4 06000000 		.4byte	.LCFI2-.Ltext0
 2389 03b8 0200     		.2byte	0x2
 2390 03ba 7D       		.byte	0x7d
 2391 03bb 10       		.sleb128 16
 2392 03bc 06000000 		.4byte	.LCFI2-.Ltext0
 2393 03c0 38010000 		.4byte	.LCFI3-.Ltext0
 2394 03c4 0200     		.2byte	0x2
 2395 03c6 77       		.byte	0x77
 2396 03c7 10       		.sleb128 16
 2397 03c8 38010000 		.4byte	.LCFI3-.Ltext0
 2398 03cc 3A010000 		.4byte	.LCFI4-.Ltext0
 2399 03d0 0200     		.2byte	0x2
 2400 03d2 77       		.byte	0x77
 2401 03d3 04       		.sleb128 4
 2402 03d4 3A010000 		.4byte	.LCFI4-.Ltext0
 2403 03d8 3C010000 		.4byte	.LCFI5-.Ltext0
 2404 03dc 0200     		.2byte	0x2
 2405 03de 7D       		.byte	0x7d
ARM GAS  G:\Users\Jaxb\AppData\Local\Temp\ccnyQMas.s 			page 56


 2406 03df 04       		.sleb128 4
 2407 03e0 3C010000 		.4byte	.LCFI5-.Ltext0
 2408 03e4 78010000 		.4byte	.LFE29-.Ltext0
 2409 03e8 0200     		.2byte	0x2
 2410 03ea 7D       		.byte	0x7d
 2411 03eb 00       		.sleb128 0
 2412 03ec 00000000 		.4byte	0
 2413 03f0 00000000 		.4byte	0
 2414              		.section	.debug_aranges,"",%progbits
 2415 0000 1C000000 		.4byte	0x1c
 2416 0004 0200     		.2byte	0x2
 2417 0006 00000000 		.4byte	.Ldebug_info0
 2418 000a 04       		.byte	0x4
 2419 000b 00       		.byte	0
 2420 000c 0000     		.2byte	0
 2421 000e 0000     		.2byte	0
 2422 0010 00000000 		.4byte	.Ltext0
 2423 0014 F8030000 		.4byte	.Letext0-.Ltext0
 2424 0018 00000000 		.4byte	0
 2425 001c 00000000 		.4byte	0
 2426              		.section	.debug_line,"",%progbits
 2427              	.Ldebug_line0:
 2428 0000 0F020000 		.section	.debug_str,"MS",%progbits,1
 2428      02003501 
 2428      00000201 
 2428      FB0E0D00 
 2428      01010101 
 2429              	.LASF54:
 2430 0000 444D415F 		.ascii	"DMA_Cmd\000"
 2430      436D6400 
 2431              	.LASF37:
 2432 0008 444D415F 		.ascii	"DMA_M2M\000"
 2432      4D324D00 
 2433              	.LASF36:
 2434 0010 444D415F 		.ascii	"DMA_Priority\000"
 2434      5072696F 
 2434      72697479 
 2434      00
 2435              	.LASF28:
 2436 001d 444D415F 		.ascii	"DMA_MemoryBaseAddr\000"
 2436      4D656D6F 
 2436      72794261 
 2436      73654164 
 2436      647200
 2437              	.LASF55:
 2438 0030 444D415F 		.ascii	"DMA_StructInit\000"
 2438      53747275 
 2438      6374496E 
 2438      697400
 2439              	.LASF6:
 2440 003f 5F5F7569 		.ascii	"__uint32_t\000"
 2440      6E743332 
 2440      5F7400
 2441              	.LASF5:
 2442 004a 5F5F7569 		.ascii	"__uint16_t\000"
 2442      6E743136 
 2442      5F7400
ARM GAS  G:\Users\Jaxb\AppData\Local\Temp\ccnyQMas.s 			page 57


 2443              	.LASF2:
 2444 0055 73686F72 		.ascii	"short int\000"
 2444      7420696E 
 2444      7400
 2445              	.LASF26:
 2446 005f 444D415F 		.ascii	"DMA_TypeDef\000"
 2446      54797065 
 2446      44656600 
 2447              	.LASF29:
 2448 006b 444D415F 		.ascii	"DMA_DIR\000"
 2448      44495200 
 2449              	.LASF44:
 2450 0073 444D4179 		.ascii	"DMAy_FLAG\000"
 2450      5F464C41 
 2450      4700
 2451              	.LASF53:
 2452 007d 4E657753 		.ascii	"NewState\000"
 2452      74617465 
 2452      00
 2453              	.LASF27:
 2454 0086 444D415F 		.ascii	"DMA_PeripheralBaseAddr\000"
 2454      50657269 
 2454      70686572 
 2454      616C4261 
 2454      73654164 
 2455              	.LASF18:
 2456 009d 44495341 		.ascii	"DISABLE\000"
 2456      424C4500 
 2457              	.LASF0:
 2458 00a5 7369676E 		.ascii	"signed char\000"
 2458      65642063 
 2458      68617200 
 2459              	.LASF32:
 2460 00b1 444D415F 		.ascii	"DMA_MemoryInc\000"
 2460      4D656D6F 
 2460      7279496E 
 2460      6300
 2461              	.LASF60:
 2462 00bf 463A5C6B 		.ascii	"F:\\kaka\\KAKAOS\\C\\windows\\Project\\RVMDK\243\250"
 2462      616B615C 
 2462      4B414B41 
 2462      4F535C43 
 2462      5C77696E 
 2463 00e7 757635A3 		.ascii	"uv5\243\251\000"
 2463      A900
 2464              	.LASF8:
 2465 00ed 6C6F6E67 		.ascii	"long long int\000"
 2465      206C6F6E 
 2465      6720696E 
 2465      7400
 2466              	.LASF31:
 2467 00fb 444D415F 		.ascii	"DMA_PeripheralInc\000"
 2467      50657269 
 2467      70686572 
 2467      616C496E 
 2467      6300
 2468              	.LASF50:
ARM GAS  G:\Users\Jaxb\AppData\Local\Temp\ccnyQMas.s 			page 58


 2469 010d 44617461 		.ascii	"DataNumber\000"
 2469      4E756D62 
 2469      657200
 2470              	.LASF17:
 2471 0118 49545374 		.ascii	"ITStatus\000"
 2471      61747573 
 2471      00
 2472              	.LASF4:
 2473 0121 6C6F6E67 		.ascii	"long int\000"
 2473      20696E74 
 2473      00
 2474              	.LASF57:
 2475 012a 444D415F 		.ascii	"DMA_Init\000"
 2475      496E6974 
 2475      00
 2476              	.LASF43:
 2477 0133 444D415F 		.ascii	"DMA_ClearFlag\000"
 2477      436C6561 
 2477      72466C61 
 2477      6700
 2478              	.LASF49:
 2479 0141 444D415F 		.ascii	"DMA_SetCurrDataCounter\000"
 2479      53657443 
 2479      75727244 
 2479      61746143 
 2479      6F756E74 
 2480              	.LASF41:
 2481 0158 746D7072 		.ascii	"tmpreg\000"
 2481      656700
 2482              	.LASF22:
 2483 015f 43504152 		.ascii	"CPAR\000"
 2483      00
 2484              	.LASF33:
 2485 0164 444D415F 		.ascii	"DMA_PeripheralDataSize\000"
 2485      50657269 
 2485      70686572 
 2485      616C4461 
 2485      74615369 
 2486              	.LASF38:
 2487 017b 444D415F 		.ascii	"DMA_InitTypeDef\000"
 2487      496E6974 
 2487      54797065 
 2487      44656600 
 2488              	.LASF1:
 2489 018b 756E7369 		.ascii	"unsigned char\000"
 2489      676E6564 
 2489      20636861 
 2489      7200
 2490              	.LASF30:
 2491 0199 444D415F 		.ascii	"DMA_BufferSize\000"
 2491      42756666 
 2491      65725369 
 2491      7A6500
 2492              	.LASF9:
 2493 01a8 6C6F6E67 		.ascii	"long long unsigned int\000"
 2493      206C6F6E 
 2493      6720756E 
ARM GAS  G:\Users\Jaxb\AppData\Local\Temp\ccnyQMas.s 			page 59


 2493      7369676E 
 2493      65642069 
 2494              	.LASF52:
 2495 01bf 444D415F 		.ascii	"DMA_IT\000"
 2495      495400
 2496              	.LASF12:
 2497 01c6 75696E74 		.ascii	"uint32_t\000"
 2497      33325F74 
 2497      00
 2498              	.LASF10:
 2499 01cf 756E7369 		.ascii	"unsigned int\000"
 2499      676E6564 
 2499      20696E74 
 2499      00
 2500              	.LASF45:
 2501 01dc 444D415F 		.ascii	"DMA_GetITStatus\000"
 2501      47657449 
 2501      54537461 
 2501      74757300 
 2502              	.LASF11:
 2503 01ec 75696E74 		.ascii	"uint16_t\000"
 2503      31365F74 
 2503      00
 2504              	.LASF56:
 2505 01f5 444D415F 		.ascii	"DMA_InitStruct\000"
 2505      496E6974 
 2505      53747275 
 2505      637400
 2506              	.LASF3:
 2507 0204 73686F72 		.ascii	"short unsigned int\000"
 2507      7420756E 
 2507      7369676E 
 2507      65642069 
 2507      6E7400
 2508              	.LASF24:
 2509 0217 444D415F 		.ascii	"DMA_Channel_TypeDef\000"
 2509      4368616E 
 2509      6E656C5F 
 2509      54797065 
 2509      44656600 
 2510              	.LASF21:
 2511 022b 434E4454 		.ascii	"CNDTR\000"
 2511      5200
 2512              	.LASF48:
 2513 0231 444D4179 		.ascii	"DMAy_Channelx\000"
 2513      5F436861 
 2513      6E6E656C 
 2513      7800
 2514              	.LASF59:
 2515 023f 2E2E2F2E 		.ascii	"../../source/src/FWlib/src/stm32f10x_dma.c\000"
 2515      2E2F736F 
 2515      75726365 
 2515      2F737263 
 2515      2F46576C 
 2516              	.LASF42:
 2517 026a 444D415F 		.ascii	"DMA_ClearITPendingBit\000"
 2517      436C6561 
ARM GAS  G:\Users\Jaxb\AppData\Local\Temp\ccnyQMas.s 			page 60


 2517      72495450 
 2517      656E6469 
 2517      6E674269 
 2518              	.LASF14:
 2519 0280 53797374 		.ascii	"SystemCoreClock\000"
 2519      656D436F 
 2519      7265436C 
 2519      6F636B00 
 2520              	.LASF46:
 2521 0290 444D415F 		.ascii	"DMA_GetFlagStatus\000"
 2521      47657446 
 2521      6C616753 
 2521      74617475 
 2521      7300
 2522              	.LASF7:
 2523 02a2 6C6F6E67 		.ascii	"long unsigned int\000"
 2523      20756E73 
 2523      69676E65 
 2523      6420696E 
 2523      7400
 2524              	.LASF20:
 2525 02b4 46756E63 		.ascii	"FunctionalState\000"
 2525      74696F6E 
 2525      616C5374 
 2525      61746500 
 2526              	.LASF23:
 2527 02c4 434D4152 		.ascii	"CMAR\000"
 2527      00
 2528              	.LASF61:
 2529 02c9 444D415F 		.ascii	"DMA_DeInit\000"
 2529      4465496E 
 2529      697400
 2530              	.LASF15:
 2531 02d4 52455345 		.ascii	"RESET\000"
 2531      5400
 2532              	.LASF39:
 2533 02da 444D4179 		.ascii	"DMAy_IT\000"
 2533      5F495400 
 2534              	.LASF25:
 2535 02e2 49464352 		.ascii	"IFCR\000"
 2535      00
 2536              	.LASF58:
 2537 02e7 474E5520 		.ascii	"GNU C11 7.3.1 20180622 (release) [ARM/embedded-7-br"
 2537      43313120 
 2537      372E332E 
 2537      31203230 
 2537      31383036 
 2538 031a 616E6368 		.ascii	"anch revision 261907] -mcpu=cortex-m3 -mthumb -mapc"
 2538      20726576 
 2538      6973696F 
 2538      6E203236 
 2538      31393037 
 2539 034d 732D6672 		.ascii	"s-frame -mthumb-interwork -mcpu=cortex-m3 -mthumb -"
 2539      616D6520 
 2539      2D6D7468 
 2539      756D622D 
 2539      696E7465 
ARM GAS  G:\Users\Jaxb\AppData\Local\Temp\ccnyQMas.s 			page 61


 2540 0380 67647761 		.ascii	"gdwarf-2 -O0\000"
 2540      72662D32 
 2540      202D4F30 
 2540      00
 2541              	.LASF35:
 2542 038d 444D415F 		.ascii	"DMA_Mode\000"
 2542      4D6F6465 
 2542      00
 2543              	.LASF47:
 2544 0396 444D415F 		.ascii	"DMA_GetCurrDataCounter\000"
 2544      47657443 
 2544      75727244 
 2544      61746143 
 2544      6F756E74 
 2545              	.LASF51:
 2546 03ad 444D415F 		.ascii	"DMA_ITConfig\000"
 2546      4954436F 
 2546      6E666967 
 2546      00
 2547              	.LASF13:
 2548 03ba 49544D5F 		.ascii	"ITM_RxBuffer\000"
 2548      52784275 
 2548      66666572 
 2548      00
 2549              	.LASF40:
 2550 03c7 62697473 		.ascii	"bitstatus\000"
 2550      74617475 
 2550      7300
 2551              	.LASF16:
 2552 03d1 466C6167 		.ascii	"FlagStatus\000"
 2552      53746174 
 2552      757300
 2553              	.LASF19:
 2554 03dc 454E4142 		.ascii	"ENABLE\000"
 2554      4C4500
 2555              	.LASF34:
 2556 03e3 444D415F 		.ascii	"DMA_MemoryDataSize\000"
 2556      4D656D6F 
 2556      72794461 
 2556      74615369 
 2556      7A6500
 2557              		.ident	"GCC: (GNU Tools for Arm Embedded Processors 7-2018-q2-update) 7.3.1 20180622 (release) [AR
ARM GAS  G:\Users\Jaxb\AppData\Local\Temp\ccnyQMas.s 			page 62


DEFINED SYMBOLS
                            *ABS*:00000000 stm32f10x_dma.c
G:\Users\Jaxb\AppData\Local\Temp\ccnyQMas.s:15     .text:00000000 $t
G:\Users\Jaxb\AppData\Local\Temp\ccnyQMas.s:22     .text:00000000 DMA_DeInit
G:\Users\Jaxb\AppData\Local\Temp\ccnyQMas.s:247    .text:00000140 $d
G:\Users\Jaxb\AppData\Local\Temp\ccnyQMas.s:264    .text:00000178 $t
G:\Users\Jaxb\AppData\Local\Temp\ccnyQMas.s:271    .text:00000178 DMA_Init
G:\Users\Jaxb\AppData\Local\Temp\ccnyQMas.s:382    .text:000001f4 DMA_StructInit
G:\Users\Jaxb\AppData\Local\Temp\ccnyQMas.s:468    .text:00000248 DMA_Cmd
G:\Users\Jaxb\AppData\Local\Temp\ccnyQMas.s:533    .text:00000280 DMA_ITConfig
G:\Users\Jaxb\AppData\Local\Temp\ccnyQMas.s:601    .text:000002ba DMA_SetCurrDataCounter
G:\Users\Jaxb\AppData\Local\Temp\ccnyQMas.s:649    .text:000002d6 DMA_GetCurrDataCounter
G:\Users\Jaxb\AppData\Local\Temp\ccnyQMas.s:695    .text:000002ee DMA_GetFlagStatus
G:\Users\Jaxb\AppData\Local\Temp\ccnyQMas.s:769    .text:00000338 $d
G:\Users\Jaxb\AppData\Local\Temp\ccnyQMas.s:774    .text:00000340 $t
G:\Users\Jaxb\AppData\Local\Temp\ccnyQMas.s:781    .text:00000340 DMA_ClearFlag
G:\Users\Jaxb\AppData\Local\Temp\ccnyQMas.s:833    .text:0000036c $d
G:\Users\Jaxb\AppData\Local\Temp\ccnyQMas.s:838    .text:00000374 $t
G:\Users\Jaxb\AppData\Local\Temp\ccnyQMas.s:845    .text:00000374 DMA_GetITStatus
G:\Users\Jaxb\AppData\Local\Temp\ccnyQMas.s:919    .text:000003bc $d
G:\Users\Jaxb\AppData\Local\Temp\ccnyQMas.s:924    .text:000003c4 $t
G:\Users\Jaxb\AppData\Local\Temp\ccnyQMas.s:931    .text:000003c4 DMA_ClearITPendingBit
G:\Users\Jaxb\AppData\Local\Temp\ccnyQMas.s:983    .text:000003f0 $d

NO UNDEFINED SYMBOLS
