ARM GAS  G:\Users\Jaxb\AppData\Local\Temp\ccck4Nii.s 			page 1


   1              		.cpu cortex-m3
   2              		.eabi_attribute 20, 1
   3              		.eabi_attribute 21, 1
   4              		.eabi_attribute 23, 3
   5              		.eabi_attribute 24, 1
   6              		.eabi_attribute 25, 1
   7              		.eabi_attribute 26, 1
   8              		.eabi_attribute 30, 2
   9              		.eabi_attribute 34, 1
  10              		.eabi_attribute 18, 4
  11              		.file	"stm32f10x_flash.c"
  12              		.text
  13              	.Ltext0:
  14              		.cfi_sections	.debug_frame
  15              		.align	1
  16              		.p2align 2,,3
  17              		.global	FLASH_SetLatency
  18              		.syntax unified
  19              		.thumb
  20              		.thumb_func
  21              		.fpu softvfp
  22              		.type	FLASH_SetLatency, %function
  23              	FLASH_SetLatency:
  24              	.LFB29:
  25              		.file 1 "../../source/src/FWlib/src/stm32f10x_flash.c"
   1:../../source/src/FWlib/src/stm32f10x_flash.c **** /**
   2:../../source/src/FWlib/src/stm32f10x_flash.c ****   ******************************************************************************
   3:../../source/src/FWlib/src/stm32f10x_flash.c ****   * @file    stm32f10x_flash.c
   4:../../source/src/FWlib/src/stm32f10x_flash.c ****   * @author  MCD Application Team
   5:../../source/src/FWlib/src/stm32f10x_flash.c ****   * @version V3.5.0
   6:../../source/src/FWlib/src/stm32f10x_flash.c ****   * @date    11-March-2011
   7:../../source/src/FWlib/src/stm32f10x_flash.c ****   * @brief   This file provides all the FLASH firmware functions.
   8:../../source/src/FWlib/src/stm32f10x_flash.c ****   ******************************************************************************
   9:../../source/src/FWlib/src/stm32f10x_flash.c ****   * @attention
  10:../../source/src/FWlib/src/stm32f10x_flash.c ****   *
  11:../../source/src/FWlib/src/stm32f10x_flash.c ****   * THE PRESENT FIRMWARE WHICH IS FOR GUIDANCE ONLY AIMS AT PROVIDING CUSTOMERS
  12:../../source/src/FWlib/src/stm32f10x_flash.c ****   * WITH CODING INFORMATION REGARDING THEIR PRODUCTS IN ORDER FOR THEM TO SAVE
  13:../../source/src/FWlib/src/stm32f10x_flash.c ****   * TIME. AS A RESULT, STMICROELECTRONICS SHALL NOT BE HELD LIABLE FOR ANY
  14:../../source/src/FWlib/src/stm32f10x_flash.c ****   * DIRECT, INDIRECT OR CONSEQUENTIAL DAMAGES WITH RESPECT TO ANY CLAIMS ARISING
  15:../../source/src/FWlib/src/stm32f10x_flash.c ****   * FROM THE CONTENT OF SUCH FIRMWARE AND/OR THE USE MADE BY CUSTOMERS OF THE
  16:../../source/src/FWlib/src/stm32f10x_flash.c ****   * CODING INFORMATION CONTAINED HEREIN IN CONNECTION WITH THEIR PRODUCTS.
  17:../../source/src/FWlib/src/stm32f10x_flash.c ****   *
  18:../../source/src/FWlib/src/stm32f10x_flash.c ****   * <h2><center>&copy; COPYRIGHT 2011 STMicroelectronics</center></h2>
  19:../../source/src/FWlib/src/stm32f10x_flash.c ****   ******************************************************************************
  20:../../source/src/FWlib/src/stm32f10x_flash.c ****   */
  21:../../source/src/FWlib/src/stm32f10x_flash.c **** 
  22:../../source/src/FWlib/src/stm32f10x_flash.c **** /* Includes ------------------------------------------------------------------*/
  23:../../source/src/FWlib/src/stm32f10x_flash.c **** #include "stm32f10x_flash.h"
  24:../../source/src/FWlib/src/stm32f10x_flash.c **** 
  25:../../source/src/FWlib/src/stm32f10x_flash.c **** /** @addtogroup STM32F10x_StdPeriph_Driver
  26:../../source/src/FWlib/src/stm32f10x_flash.c ****   * @{
  27:../../source/src/FWlib/src/stm32f10x_flash.c ****   */
  28:../../source/src/FWlib/src/stm32f10x_flash.c **** 
  29:../../source/src/FWlib/src/stm32f10x_flash.c **** /** @defgroup FLASH 
  30:../../source/src/FWlib/src/stm32f10x_flash.c ****   * @brief FLASH driver modules
  31:../../source/src/FWlib/src/stm32f10x_flash.c ****   * @{
  32:../../source/src/FWlib/src/stm32f10x_flash.c ****   */ 
ARM GAS  G:\Users\Jaxb\AppData\Local\Temp\ccck4Nii.s 			page 2


  33:../../source/src/FWlib/src/stm32f10x_flash.c **** 
  34:../../source/src/FWlib/src/stm32f10x_flash.c **** /** @defgroup FLASH_Private_TypesDefinitions
  35:../../source/src/FWlib/src/stm32f10x_flash.c ****   * @{
  36:../../source/src/FWlib/src/stm32f10x_flash.c ****   */
  37:../../source/src/FWlib/src/stm32f10x_flash.c **** 
  38:../../source/src/FWlib/src/stm32f10x_flash.c **** /**
  39:../../source/src/FWlib/src/stm32f10x_flash.c ****   * @}
  40:../../source/src/FWlib/src/stm32f10x_flash.c ****   */ 
  41:../../source/src/FWlib/src/stm32f10x_flash.c **** 
  42:../../source/src/FWlib/src/stm32f10x_flash.c **** /** @defgroup FLASH_Private_Defines
  43:../../source/src/FWlib/src/stm32f10x_flash.c ****   * @{
  44:../../source/src/FWlib/src/stm32f10x_flash.c ****   */ 
  45:../../source/src/FWlib/src/stm32f10x_flash.c **** 
  46:../../source/src/FWlib/src/stm32f10x_flash.c **** /* Flash Access Control Register bits */
  47:../../source/src/FWlib/src/stm32f10x_flash.c **** #define ACR_LATENCY_Mask         ((uint32_t)0x00000038)
  48:../../source/src/FWlib/src/stm32f10x_flash.c **** #define ACR_HLFCYA_Mask          ((uint32_t)0xFFFFFFF7)
  49:../../source/src/FWlib/src/stm32f10x_flash.c **** #define ACR_PRFTBE_Mask          ((uint32_t)0xFFFFFFEF)
  50:../../source/src/FWlib/src/stm32f10x_flash.c **** 
  51:../../source/src/FWlib/src/stm32f10x_flash.c **** /* Flash Access Control Register bits */
  52:../../source/src/FWlib/src/stm32f10x_flash.c **** #define ACR_PRFTBS_Mask          ((uint32_t)0x00000020) 
  53:../../source/src/FWlib/src/stm32f10x_flash.c **** 
  54:../../source/src/FWlib/src/stm32f10x_flash.c **** /* Flash Control Register bits */
  55:../../source/src/FWlib/src/stm32f10x_flash.c **** #define CR_PG_Set                ((uint32_t)0x00000001)
  56:../../source/src/FWlib/src/stm32f10x_flash.c **** #define CR_PG_Reset              ((uint32_t)0x00001FFE) 
  57:../../source/src/FWlib/src/stm32f10x_flash.c **** #define CR_PER_Set               ((uint32_t)0x00000002)
  58:../../source/src/FWlib/src/stm32f10x_flash.c **** #define CR_PER_Reset             ((uint32_t)0x00001FFD)
  59:../../source/src/FWlib/src/stm32f10x_flash.c **** #define CR_MER_Set               ((uint32_t)0x00000004)
  60:../../source/src/FWlib/src/stm32f10x_flash.c **** #define CR_MER_Reset             ((uint32_t)0x00001FFB)
  61:../../source/src/FWlib/src/stm32f10x_flash.c **** #define CR_OPTPG_Set             ((uint32_t)0x00000010)
  62:../../source/src/FWlib/src/stm32f10x_flash.c **** #define CR_OPTPG_Reset           ((uint32_t)0x00001FEF)
  63:../../source/src/FWlib/src/stm32f10x_flash.c **** #define CR_OPTER_Set             ((uint32_t)0x00000020)
  64:../../source/src/FWlib/src/stm32f10x_flash.c **** #define CR_OPTER_Reset           ((uint32_t)0x00001FDF)
  65:../../source/src/FWlib/src/stm32f10x_flash.c **** #define CR_STRT_Set              ((uint32_t)0x00000040)
  66:../../source/src/FWlib/src/stm32f10x_flash.c **** #define CR_LOCK_Set              ((uint32_t)0x00000080)
  67:../../source/src/FWlib/src/stm32f10x_flash.c **** 
  68:../../source/src/FWlib/src/stm32f10x_flash.c **** /* FLASH Mask */
  69:../../source/src/FWlib/src/stm32f10x_flash.c **** #define RDPRT_Mask               ((uint32_t)0x00000002)
  70:../../source/src/FWlib/src/stm32f10x_flash.c **** #define WRP0_Mask                ((uint32_t)0x000000FF)
  71:../../source/src/FWlib/src/stm32f10x_flash.c **** #define WRP1_Mask                ((uint32_t)0x0000FF00)
  72:../../source/src/FWlib/src/stm32f10x_flash.c **** #define WRP2_Mask                ((uint32_t)0x00FF0000)
  73:../../source/src/FWlib/src/stm32f10x_flash.c **** #define WRP3_Mask                ((uint32_t)0xFF000000)
  74:../../source/src/FWlib/src/stm32f10x_flash.c **** #define OB_USER_BFB2             ((uint16_t)0x0008)
  75:../../source/src/FWlib/src/stm32f10x_flash.c **** 
  76:../../source/src/FWlib/src/stm32f10x_flash.c **** /* FLASH Keys */
  77:../../source/src/FWlib/src/stm32f10x_flash.c **** #define RDP_Key                  ((uint16_t)0x00A5)
  78:../../source/src/FWlib/src/stm32f10x_flash.c **** #define FLASH_KEY1               ((uint32_t)0x45670123)
  79:../../source/src/FWlib/src/stm32f10x_flash.c **** #define FLASH_KEY2               ((uint32_t)0xCDEF89AB)
  80:../../source/src/FWlib/src/stm32f10x_flash.c **** 
  81:../../source/src/FWlib/src/stm32f10x_flash.c **** /* FLASH BANK address */
  82:../../source/src/FWlib/src/stm32f10x_flash.c **** #define FLASH_BANK1_END_ADDRESS   ((uint32_t)0x807FFFF)
  83:../../source/src/FWlib/src/stm32f10x_flash.c **** 
  84:../../source/src/FWlib/src/stm32f10x_flash.c **** /* Delay definition */   
  85:../../source/src/FWlib/src/stm32f10x_flash.c **** #define EraseTimeout          ((uint32_t)0x000B0000)
  86:../../source/src/FWlib/src/stm32f10x_flash.c **** #define ProgramTimeout        ((uint32_t)0x00002000)
  87:../../source/src/FWlib/src/stm32f10x_flash.c **** /**
  88:../../source/src/FWlib/src/stm32f10x_flash.c ****   * @}
  89:../../source/src/FWlib/src/stm32f10x_flash.c ****   */ 
ARM GAS  G:\Users\Jaxb\AppData\Local\Temp\ccck4Nii.s 			page 3


  90:../../source/src/FWlib/src/stm32f10x_flash.c **** 
  91:../../source/src/FWlib/src/stm32f10x_flash.c **** /** @defgroup FLASH_Private_Macros
  92:../../source/src/FWlib/src/stm32f10x_flash.c ****   * @{
  93:../../source/src/FWlib/src/stm32f10x_flash.c ****   */
  94:../../source/src/FWlib/src/stm32f10x_flash.c **** 
  95:../../source/src/FWlib/src/stm32f10x_flash.c **** /**
  96:../../source/src/FWlib/src/stm32f10x_flash.c ****   * @}
  97:../../source/src/FWlib/src/stm32f10x_flash.c ****   */ 
  98:../../source/src/FWlib/src/stm32f10x_flash.c **** 
  99:../../source/src/FWlib/src/stm32f10x_flash.c **** /** @defgroup FLASH_Private_Variables
 100:../../source/src/FWlib/src/stm32f10x_flash.c ****   * @{
 101:../../source/src/FWlib/src/stm32f10x_flash.c ****   */
 102:../../source/src/FWlib/src/stm32f10x_flash.c **** 
 103:../../source/src/FWlib/src/stm32f10x_flash.c **** /**
 104:../../source/src/FWlib/src/stm32f10x_flash.c ****   * @}
 105:../../source/src/FWlib/src/stm32f10x_flash.c ****   */ 
 106:../../source/src/FWlib/src/stm32f10x_flash.c **** 
 107:../../source/src/FWlib/src/stm32f10x_flash.c **** /** @defgroup FLASH_Private_FunctionPrototypes
 108:../../source/src/FWlib/src/stm32f10x_flash.c ****   * @{
 109:../../source/src/FWlib/src/stm32f10x_flash.c ****   */
 110:../../source/src/FWlib/src/stm32f10x_flash.c ****   
 111:../../source/src/FWlib/src/stm32f10x_flash.c **** /**
 112:../../source/src/FWlib/src/stm32f10x_flash.c ****   * @}
 113:../../source/src/FWlib/src/stm32f10x_flash.c ****   */
 114:../../source/src/FWlib/src/stm32f10x_flash.c **** 
 115:../../source/src/FWlib/src/stm32f10x_flash.c **** /** @defgroup FLASH_Private_Functions
 116:../../source/src/FWlib/src/stm32f10x_flash.c ****   * @{
 117:../../source/src/FWlib/src/stm32f10x_flash.c ****   */
 118:../../source/src/FWlib/src/stm32f10x_flash.c **** 
 119:../../source/src/FWlib/src/stm32f10x_flash.c **** /**
 120:../../source/src/FWlib/src/stm32f10x_flash.c **** @code  
 121:../../source/src/FWlib/src/stm32f10x_flash.c ****  
 122:../../source/src/FWlib/src/stm32f10x_flash.c ****  This driver provides functions to configure and program the Flash memory of all STM32F10x devices,
 123:../../source/src/FWlib/src/stm32f10x_flash.c ****  including the latest STM32F10x_XL density devices. 
 124:../../source/src/FWlib/src/stm32f10x_flash.c **** 
 125:../../source/src/FWlib/src/stm32f10x_flash.c ****  STM32F10x_XL devices feature up to 1 Mbyte with dual bank architecture for read-while-write (RWW) 
 126:../../source/src/FWlib/src/stm32f10x_flash.c ****     - bank1: fixed size of 512 Kbytes (256 pages of 2Kbytes each)
 127:../../source/src/FWlib/src/stm32f10x_flash.c ****     - bank2: up to 512 Kbytes (up to 256 pages of 2Kbytes each)
 128:../../source/src/FWlib/src/stm32f10x_flash.c ****  While other STM32F10x devices features only one bank with memory up to 512 Kbytes.
 129:../../source/src/FWlib/src/stm32f10x_flash.c **** 
 130:../../source/src/FWlib/src/stm32f10x_flash.c ****  In version V3.3.0, some functions were updated and new ones were added to support
 131:../../source/src/FWlib/src/stm32f10x_flash.c ****  STM32F10x_XL devices. Thus some functions manages all devices, while other are 
 132:../../source/src/FWlib/src/stm32f10x_flash.c ****  dedicated for XL devices only.
 133:../../source/src/FWlib/src/stm32f10x_flash.c ****  
 134:../../source/src/FWlib/src/stm32f10x_flash.c ****  The table below presents the list of available functions depending on the used STM32F10x devices. 
 135:../../source/src/FWlib/src/stm32f10x_flash.c ****       
 136:../../source/src/FWlib/src/stm32f10x_flash.c ****    ***************************************************
 137:../../source/src/FWlib/src/stm32f10x_flash.c ****    * Legacy functions used for all STM32F10x devices *
 138:../../source/src/FWlib/src/stm32f10x_flash.c ****    ***************************************************
 139:../../source/src/FWlib/src/stm32f10x_flash.c ****    +-----------------------------------------------------------------------------------------------
 140:../../source/src/FWlib/src/stm32f10x_flash.c ****    |       Functions prototypes         |STM32F10x_XL|Other STM32F10x|    Comments                 
 141:../../source/src/FWlib/src/stm32f10x_flash.c ****    |                                    |   devices  |  devices      |                             
 142:../../source/src/FWlib/src/stm32f10x_flash.c ****    |-----------------------------------------------------------------------------------------------
 143:../../source/src/FWlib/src/stm32f10x_flash.c ****    |FLASH_SetLatency                    |    Yes     |      Yes      | No change                   
 144:../../source/src/FWlib/src/stm32f10x_flash.c ****    |-----------------------------------------------------------------------------------------------
 145:../../source/src/FWlib/src/stm32f10x_flash.c ****    |FLASH_HalfCycleAccessCmd            |    Yes     |      Yes      | No change                   
 146:../../source/src/FWlib/src/stm32f10x_flash.c ****    |-----------------------------------------------------------------------------------------------
ARM GAS  G:\Users\Jaxb\AppData\Local\Temp\ccck4Nii.s 			page 4


 147:../../source/src/FWlib/src/stm32f10x_flash.c ****    |FLASH_PrefetchBufferCmd             |    Yes     |      Yes      | No change                   
 148:../../source/src/FWlib/src/stm32f10x_flash.c ****    |-----------------------------------------------------------------------------------------------
 149:../../source/src/FWlib/src/stm32f10x_flash.c ****    |FLASH_Unlock                        |    Yes     |      Yes      | - For STM32F10X_XL devices: 
 150:../../source/src/FWlib/src/stm32f10x_flash.c ****    |                                    |            |               | - For other devices: unlock 
 151:../../source/src/FWlib/src/stm32f10x_flash.c ****    |                                    |            |               |   to FLASH_UnlockBank1 funct
 152:../../source/src/FWlib/src/stm32f10x_flash.c ****    |-----------------------------------------------------------------------------------------------
 153:../../source/src/FWlib/src/stm32f10x_flash.c ****    |FLASH_Lock                          |    Yes     |      Yes      | - For STM32F10X_XL devices: 
 154:../../source/src/FWlib/src/stm32f10x_flash.c ****    |                                    |            |               | - For other devices: lock Ba
 155:../../source/src/FWlib/src/stm32f10x_flash.c ****    |                                    |            |               |   to FLASH_LockBank1 functio
 156:../../source/src/FWlib/src/stm32f10x_flash.c ****    |-----------------------------------------------------------------------------------------------
 157:../../source/src/FWlib/src/stm32f10x_flash.c ****    |FLASH_ErasePage                     |    Yes     |      Yes      | - For STM32F10x_XL devices: 
 158:../../source/src/FWlib/src/stm32f10x_flash.c ****    |                                    |            |               | - For other devices: erase a
 159:../../source/src/FWlib/src/stm32f10x_flash.c ****    |-----------------------------------------------------------------------------------------------
 160:../../source/src/FWlib/src/stm32f10x_flash.c ****    |FLASH_EraseAllPages                 |    Yes     |      Yes      | - For STM32F10x_XL devices: 
 161:../../source/src/FWlib/src/stm32f10x_flash.c ****    |                                    |            |               | - For other devices: erase a
 162:../../source/src/FWlib/src/stm32f10x_flash.c ****    |-----------------------------------------------------------------------------------------------
 163:../../source/src/FWlib/src/stm32f10x_flash.c ****    |FLASH_EraseOptionBytes              |    Yes     |      Yes      | No change                   
 164:../../source/src/FWlib/src/stm32f10x_flash.c ****    |-----------------------------------------------------------------------------------------------
 165:../../source/src/FWlib/src/stm32f10x_flash.c ****    |FLASH_ProgramWord                   |    Yes     |      Yes      | Updated to program up to 1MB
 166:../../source/src/FWlib/src/stm32f10x_flash.c ****    |-----------------------------------------------------------------------------------------------
 167:../../source/src/FWlib/src/stm32f10x_flash.c ****    |FLASH_ProgramHalfWord               |    Yes     |      Yes      | Updated to program up to 1MB
 168:../../source/src/FWlib/src/stm32f10x_flash.c ****    |-----------------------------------------------------------------------------------------------
 169:../../source/src/FWlib/src/stm32f10x_flash.c ****    |FLASH_ProgramOptionByteData         |    Yes     |      Yes      | No change                   
 170:../../source/src/FWlib/src/stm32f10x_flash.c ****    |-----------------------------------------------------------------------------------------------
 171:../../source/src/FWlib/src/stm32f10x_flash.c ****    |FLASH_EnableWriteProtection         |    Yes     |      Yes      | No change                   
 172:../../source/src/FWlib/src/stm32f10x_flash.c ****    |-----------------------------------------------------------------------------------------------
 173:../../source/src/FWlib/src/stm32f10x_flash.c ****    |FLASH_ReadOutProtection             |    Yes     |      Yes      | No change                   
 174:../../source/src/FWlib/src/stm32f10x_flash.c ****    |-----------------------------------------------------------------------------------------------
 175:../../source/src/FWlib/src/stm32f10x_flash.c ****    |FLASH_UserOptionByteConfig          |    Yes     |      Yes      | No change                   
 176:../../source/src/FWlib/src/stm32f10x_flash.c ****    |-----------------------------------------------------------------------------------------------
 177:../../source/src/FWlib/src/stm32f10x_flash.c ****    |FLASH_GetUserOptionByte             |    Yes     |      Yes      | No change                   
 178:../../source/src/FWlib/src/stm32f10x_flash.c ****    |-----------------------------------------------------------------------------------------------
 179:../../source/src/FWlib/src/stm32f10x_flash.c ****    |FLASH_GetWriteProtectionOptionByte  |    Yes     |      Yes      | No change                   
 180:../../source/src/FWlib/src/stm32f10x_flash.c ****    |-----------------------------------------------------------------------------------------------
 181:../../source/src/FWlib/src/stm32f10x_flash.c ****    |FLASH_GetReadOutProtectionStatus    |    Yes     |      Yes      | No change                   
 182:../../source/src/FWlib/src/stm32f10x_flash.c ****    |-----------------------------------------------------------------------------------------------
 183:../../source/src/FWlib/src/stm32f10x_flash.c ****    |FLASH_GetPrefetchBufferStatus       |    Yes     |      Yes      | No change                   
 184:../../source/src/FWlib/src/stm32f10x_flash.c ****    |-----------------------------------------------------------------------------------------------
 185:../../source/src/FWlib/src/stm32f10x_flash.c ****    |FLASH_ITConfig                      |    Yes     |      Yes      | - For STM32F10x_XL devices: 
 186:../../source/src/FWlib/src/stm32f10x_flash.c ****    |                                    |            |               | - For other devices: enable 
 187:../../source/src/FWlib/src/stm32f10x_flash.c ****    |-----------------------------------------------------------------------------------------------
 188:../../source/src/FWlib/src/stm32f10x_flash.c ****    |FLASH_GetFlagStatus                 |    Yes     |      Yes      | - For STM32F10x_XL devices: 
 189:../../source/src/FWlib/src/stm32f10x_flash.c ****    |                                    |            |               | - For other devices: return 
 190:../../source/src/FWlib/src/stm32f10x_flash.c ****    |-----------------------------------------------------------------------------------------------
 191:../../source/src/FWlib/src/stm32f10x_flash.c ****    |FLASH_ClearFlag                     |    Yes     |      Yes      | - For STM32F10x_XL devices: 
 192:../../source/src/FWlib/src/stm32f10x_flash.c ****    |                                    |            |               | - For other devices: clear B
 193:../../source/src/FWlib/src/stm32f10x_flash.c ****    |-----------------------------------------------------------------------------------------------
 194:../../source/src/FWlib/src/stm32f10x_flash.c ****    |FLASH_GetStatus                     |    Yes     |      Yes      | - Return the status of Bank1
 195:../../source/src/FWlib/src/stm32f10x_flash.c ****    |                                    |            |               |   equivalent to FLASH_GetBan
 196:../../source/src/FWlib/src/stm32f10x_flash.c ****    |-----------------------------------------------------------------------------------------------
 197:../../source/src/FWlib/src/stm32f10x_flash.c ****    |FLASH_WaitForLastOperation          |    Yes     |      Yes      | - Wait for Bank1 last operat
 198:../../source/src/FWlib/src/stm32f10x_flash.c ****    |                                    |            |               |   equivalent to: FLASH_WaitF
 199:../../source/src/FWlib/src/stm32f10x_flash.c ****    +-----------------------------------------------------------------------------------------------
 200:../../source/src/FWlib/src/stm32f10x_flash.c **** 
 201:../../source/src/FWlib/src/stm32f10x_flash.c ****    ************************************************************************************************
 202:../../source/src/FWlib/src/stm32f10x_flash.c ****    * New functions used for all STM32F10x devices to manage Bank1:                                 
 203:../../source/src/FWlib/src/stm32f10x_flash.c ****    *   - These functions are mainly useful for STM32F10x_XL density devices, to have separate contr
ARM GAS  G:\Users\Jaxb\AppData\Local\Temp\ccck4Nii.s 			page 5


 204:../../source/src/FWlib/src/stm32f10x_flash.c ****    *   - For other devices, these functions are optional (covered by functions listed above)       
 205:../../source/src/FWlib/src/stm32f10x_flash.c ****    ************************************************************************************************
 206:../../source/src/FWlib/src/stm32f10x_flash.c ****    +-----------------------------------------------------------------------------------------------
 207:../../source/src/FWlib/src/stm32f10x_flash.c ****    |       Functions prototypes         |STM32F10x_XL|Other STM32F10x|    Comments                 
 208:../../source/src/FWlib/src/stm32f10x_flash.c ****    |                                    |   devices  |  devices      |                             
 209:../../source/src/FWlib/src/stm32f10x_flash.c ****    |-----------------------------------------------------------------------------------------------
 210:../../source/src/FWlib/src/stm32f10x_flash.c ****    | FLASH_UnlockBank1                  |    Yes     |      Yes      | - Unlock Bank1              
 211:../../source/src/FWlib/src/stm32f10x_flash.c ****    |-----------------------------------------------------------------------------------------------
 212:../../source/src/FWlib/src/stm32f10x_flash.c ****    |FLASH_LockBank1                     |    Yes     |      Yes      | - Lock Bank1                
 213:../../source/src/FWlib/src/stm32f10x_flash.c ****    |-----------------------------------------------------------------------------------------------
 214:../../source/src/FWlib/src/stm32f10x_flash.c ****    | FLASH_EraseAllBank1Pages           |    Yes     |      Yes      | - Erase all pages in Bank1  
 215:../../source/src/FWlib/src/stm32f10x_flash.c ****    |-----------------------------------------------------------------------------------------------
 216:../../source/src/FWlib/src/stm32f10x_flash.c ****    | FLASH_GetBank1Status               |    Yes     |      Yes      | - Return the status of Bank1
 217:../../source/src/FWlib/src/stm32f10x_flash.c ****    |-----------------------------------------------------------------------------------------------
 218:../../source/src/FWlib/src/stm32f10x_flash.c ****    | FLASH_WaitForLastBank1Operation    |    Yes     |      Yes      | - Wait for Bank1 last operat
 219:../../source/src/FWlib/src/stm32f10x_flash.c ****    +-----------------------------------------------------------------------------------------------
 220:../../source/src/FWlib/src/stm32f10x_flash.c **** 
 221:../../source/src/FWlib/src/stm32f10x_flash.c ****    *****************************************************************************
 222:../../source/src/FWlib/src/stm32f10x_flash.c ****    * New Functions used only with STM32F10x_XL density devices to manage Bank2 *
 223:../../source/src/FWlib/src/stm32f10x_flash.c ****    *****************************************************************************
 224:../../source/src/FWlib/src/stm32f10x_flash.c ****    +-----------------------------------------------------------------------------------------------
 225:../../source/src/FWlib/src/stm32f10x_flash.c ****    |       Functions prototypes         |STM32F10x_XL|Other STM32F10x|    Comments                 
 226:../../source/src/FWlib/src/stm32f10x_flash.c ****    |                                    |   devices  |  devices      |                             
 227:../../source/src/FWlib/src/stm32f10x_flash.c ****    |-----------------------------------------------------------------------------------------------
 228:../../source/src/FWlib/src/stm32f10x_flash.c ****    | FLASH_UnlockBank2                  |    Yes     |      No       | - Unlock Bank2              
 229:../../source/src/FWlib/src/stm32f10x_flash.c ****    |-----------------------------------------------------------------------------------------------
 230:../../source/src/FWlib/src/stm32f10x_flash.c ****    |FLASH_LockBank2                     |    Yes     |      No       | - Lock Bank2                
 231:../../source/src/FWlib/src/stm32f10x_flash.c ****    |-----------------------------------------------------------------------------------------------
 232:../../source/src/FWlib/src/stm32f10x_flash.c ****    | FLASH_EraseAllBank2Pages           |    Yes     |      No       | - Erase all pages in Bank2  
 233:../../source/src/FWlib/src/stm32f10x_flash.c ****    |-----------------------------------------------------------------------------------------------
 234:../../source/src/FWlib/src/stm32f10x_flash.c ****    | FLASH_GetBank2Status               |    Yes     |      No       | - Return the status of Bank2
 235:../../source/src/FWlib/src/stm32f10x_flash.c ****    |-----------------------------------------------------------------------------------------------
 236:../../source/src/FWlib/src/stm32f10x_flash.c ****    | FLASH_WaitForLastBank2Operation    |    Yes     |      No       | - Wait for Bank2 last operat
 237:../../source/src/FWlib/src/stm32f10x_flash.c ****    |-----------------------------------------------------------------------------------------------
 238:../../source/src/FWlib/src/stm32f10x_flash.c ****    | FLASH_BootConfig                   |    Yes     |      No       | - Configure to boot from Ban
 239:../../source/src/FWlib/src/stm32f10x_flash.c ****    +-----------------------------------------------------------------------------------------------
 240:../../source/src/FWlib/src/stm32f10x_flash.c **** @endcode
 241:../../source/src/FWlib/src/stm32f10x_flash.c **** */
 242:../../source/src/FWlib/src/stm32f10x_flash.c **** 
 243:../../source/src/FWlib/src/stm32f10x_flash.c **** 
 244:../../source/src/FWlib/src/stm32f10x_flash.c **** /**
 245:../../source/src/FWlib/src/stm32f10x_flash.c ****   * @brief  Sets the code latency value.
 246:../../source/src/FWlib/src/stm32f10x_flash.c ****   * @note   This function can be used for all STM32F10x devices.
 247:../../source/src/FWlib/src/stm32f10x_flash.c ****   * @param  FLASH_Latency: specifies the FLASH Latency value.
 248:../../source/src/FWlib/src/stm32f10x_flash.c ****   *   This parameter can be one of the following values:
 249:../../source/src/FWlib/src/stm32f10x_flash.c ****   *     @arg FLASH_Latency_0: FLASH Zero Latency cycle
 250:../../source/src/FWlib/src/stm32f10x_flash.c ****   *     @arg FLASH_Latency_1: FLASH One Latency cycle
 251:../../source/src/FWlib/src/stm32f10x_flash.c ****   *     @arg FLASH_Latency_2: FLASH Two Latency cycles
 252:../../source/src/FWlib/src/stm32f10x_flash.c ****   * @retval None
 253:../../source/src/FWlib/src/stm32f10x_flash.c ****   */
 254:../../source/src/FWlib/src/stm32f10x_flash.c **** void FLASH_SetLatency(uint32_t FLASH_Latency)
 255:../../source/src/FWlib/src/stm32f10x_flash.c **** {
  26              		.loc 1 255 0
  27              		.cfi_startproc
  28              		@ args = 0, pretend = 0, frame = 0
  29              		@ frame_needed = 0, uses_anonymous_args = 0
  30              		@ link register save eliminated.
ARM GAS  G:\Users\Jaxb\AppData\Local\Temp\ccck4Nii.s 			page 6


  31              	.LVL0:
 256:../../source/src/FWlib/src/stm32f10x_flash.c ****   uint32_t tmpreg = 0;
 257:../../source/src/FWlib/src/stm32f10x_flash.c ****   
 258:../../source/src/FWlib/src/stm32f10x_flash.c ****   /* Check the parameters */
 259:../../source/src/FWlib/src/stm32f10x_flash.c ****   assert_param(IS_FLASH_LATENCY(FLASH_Latency));
 260:../../source/src/FWlib/src/stm32f10x_flash.c ****   
 261:../../source/src/FWlib/src/stm32f10x_flash.c ****   /* Read the ACR register */
 262:../../source/src/FWlib/src/stm32f10x_flash.c ****   tmpreg = FLASH->ACR;  
  32              		.loc 1 262 0
  33 0000 034A     		ldr	r2, .L3
  34 0002 1368     		ldr	r3, [r2]
  35              	.LVL1:
 263:../../source/src/FWlib/src/stm32f10x_flash.c ****   
 264:../../source/src/FWlib/src/stm32f10x_flash.c ****   /* Sets the Latency value */
 265:../../source/src/FWlib/src/stm32f10x_flash.c ****   tmpreg &= ACR_LATENCY_Mask;
  36              		.loc 1 265 0
  37 0004 03F03803 		and	r3, r3, #56
  38              	.LVL2:
 266:../../source/src/FWlib/src/stm32f10x_flash.c ****   tmpreg |= FLASH_Latency;
  39              		.loc 1 266 0
  40 0008 1843     		orrs	r0, r0, r3
  41              	.LVL3:
 267:../../source/src/FWlib/src/stm32f10x_flash.c ****   
 268:../../source/src/FWlib/src/stm32f10x_flash.c ****   /* Write the ACR register */
 269:../../source/src/FWlib/src/stm32f10x_flash.c ****   FLASH->ACR = tmpreg;
  42              		.loc 1 269 0
  43 000a 1060     		str	r0, [r2]
 270:../../source/src/FWlib/src/stm32f10x_flash.c **** }
  44              		.loc 1 270 0
  45 000c 7047     		bx	lr
  46              	.L4:
  47 000e 00BF     		.align	2
  48              	.L3:
  49 0010 00200240 		.word	1073881088
  50              		.cfi_endproc
  51              	.LFE29:
  52              		.size	FLASH_SetLatency, .-FLASH_SetLatency
  53              		.align	1
  54              		.p2align 2,,3
  55              		.global	FLASH_HalfCycleAccessCmd
  56              		.syntax unified
  57              		.thumb
  58              		.thumb_func
  59              		.fpu softvfp
  60              		.type	FLASH_HalfCycleAccessCmd, %function
  61              	FLASH_HalfCycleAccessCmd:
  62              	.LFB30:
 271:../../source/src/FWlib/src/stm32f10x_flash.c **** 
 272:../../source/src/FWlib/src/stm32f10x_flash.c **** /**
 273:../../source/src/FWlib/src/stm32f10x_flash.c ****   * @brief  Enables or disables the Half cycle flash access.
 274:../../source/src/FWlib/src/stm32f10x_flash.c ****   * @note   This function can be used for all STM32F10x devices.
 275:../../source/src/FWlib/src/stm32f10x_flash.c ****   * @param  FLASH_HalfCycleAccess: specifies the FLASH Half cycle Access mode.
 276:../../source/src/FWlib/src/stm32f10x_flash.c ****   *   This parameter can be one of the following values:
 277:../../source/src/FWlib/src/stm32f10x_flash.c ****   *     @arg FLASH_HalfCycleAccess_Enable: FLASH Half Cycle Enable
 278:../../source/src/FWlib/src/stm32f10x_flash.c ****   *     @arg FLASH_HalfCycleAccess_Disable: FLASH Half Cycle Disable
 279:../../source/src/FWlib/src/stm32f10x_flash.c ****   * @retval None
 280:../../source/src/FWlib/src/stm32f10x_flash.c ****   */
ARM GAS  G:\Users\Jaxb\AppData\Local\Temp\ccck4Nii.s 			page 7


 281:../../source/src/FWlib/src/stm32f10x_flash.c **** void FLASH_HalfCycleAccessCmd(uint32_t FLASH_HalfCycleAccess)
 282:../../source/src/FWlib/src/stm32f10x_flash.c **** {
  63              		.loc 1 282 0
  64              		.cfi_startproc
  65              		@ args = 0, pretend = 0, frame = 0
  66              		@ frame_needed = 0, uses_anonymous_args = 0
  67              		@ link register save eliminated.
  68              	.LVL4:
 283:../../source/src/FWlib/src/stm32f10x_flash.c ****   /* Check the parameters */
 284:../../source/src/FWlib/src/stm32f10x_flash.c ****   assert_param(IS_FLASH_HALFCYCLEACCESS_STATE(FLASH_HalfCycleAccess));
 285:../../source/src/FWlib/src/stm32f10x_flash.c ****   
 286:../../source/src/FWlib/src/stm32f10x_flash.c ****   /* Enable or disable the Half cycle access */
 287:../../source/src/FWlib/src/stm32f10x_flash.c ****   FLASH->ACR &= ACR_HLFCYA_Mask;
  69              		.loc 1 287 0
  70 0014 044B     		ldr	r3, .L6
  71 0016 1A68     		ldr	r2, [r3]
  72 0018 22F00802 		bic	r2, r2, #8
  73 001c 1A60     		str	r2, [r3]
 288:../../source/src/FWlib/src/stm32f10x_flash.c ****   FLASH->ACR |= FLASH_HalfCycleAccess;
  74              		.loc 1 288 0
  75 001e 1A68     		ldr	r2, [r3]
  76 0020 1043     		orrs	r0, r0, r2
  77              	.LVL5:
  78 0022 1860     		str	r0, [r3]
 289:../../source/src/FWlib/src/stm32f10x_flash.c **** }
  79              		.loc 1 289 0
  80 0024 7047     		bx	lr
  81              	.L7:
  82 0026 00BF     		.align	2
  83              	.L6:
  84 0028 00200240 		.word	1073881088
  85              		.cfi_endproc
  86              	.LFE30:
  87              		.size	FLASH_HalfCycleAccessCmd, .-FLASH_HalfCycleAccessCmd
  88              		.align	1
  89              		.p2align 2,,3
  90              		.global	FLASH_PrefetchBufferCmd
  91              		.syntax unified
  92              		.thumb
  93              		.thumb_func
  94              		.fpu softvfp
  95              		.type	FLASH_PrefetchBufferCmd, %function
  96              	FLASH_PrefetchBufferCmd:
  97              	.LFB31:
 290:../../source/src/FWlib/src/stm32f10x_flash.c **** 
 291:../../source/src/FWlib/src/stm32f10x_flash.c **** /**
 292:../../source/src/FWlib/src/stm32f10x_flash.c ****   * @brief  Enables or disables the Prefetch Buffer.
 293:../../source/src/FWlib/src/stm32f10x_flash.c ****   * @note   This function can be used for all STM32F10x devices.
 294:../../source/src/FWlib/src/stm32f10x_flash.c ****   * @param  FLASH_PrefetchBuffer: specifies the Prefetch buffer status.
 295:../../source/src/FWlib/src/stm32f10x_flash.c ****   *   This parameter can be one of the following values:
 296:../../source/src/FWlib/src/stm32f10x_flash.c ****   *     @arg FLASH_PrefetchBuffer_Enable: FLASH Prefetch Buffer Enable
 297:../../source/src/FWlib/src/stm32f10x_flash.c ****   *     @arg FLASH_PrefetchBuffer_Disable: FLASH Prefetch Buffer Disable
 298:../../source/src/FWlib/src/stm32f10x_flash.c ****   * @retval None
 299:../../source/src/FWlib/src/stm32f10x_flash.c ****   */
 300:../../source/src/FWlib/src/stm32f10x_flash.c **** void FLASH_PrefetchBufferCmd(uint32_t FLASH_PrefetchBuffer)
 301:../../source/src/FWlib/src/stm32f10x_flash.c **** {
  98              		.loc 1 301 0
ARM GAS  G:\Users\Jaxb\AppData\Local\Temp\ccck4Nii.s 			page 8


  99              		.cfi_startproc
 100              		@ args = 0, pretend = 0, frame = 0
 101              		@ frame_needed = 0, uses_anonymous_args = 0
 102              		@ link register save eliminated.
 103              	.LVL6:
 302:../../source/src/FWlib/src/stm32f10x_flash.c ****   /* Check the parameters */
 303:../../source/src/FWlib/src/stm32f10x_flash.c ****   assert_param(IS_FLASH_PREFETCHBUFFER_STATE(FLASH_PrefetchBuffer));
 304:../../source/src/FWlib/src/stm32f10x_flash.c ****   
 305:../../source/src/FWlib/src/stm32f10x_flash.c ****   /* Enable or disable the Prefetch Buffer */
 306:../../source/src/FWlib/src/stm32f10x_flash.c ****   FLASH->ACR &= ACR_PRFTBE_Mask;
 104              		.loc 1 306 0
 105 002c 044B     		ldr	r3, .L9
 106 002e 1A68     		ldr	r2, [r3]
 107 0030 22F01002 		bic	r2, r2, #16
 108 0034 1A60     		str	r2, [r3]
 307:../../source/src/FWlib/src/stm32f10x_flash.c ****   FLASH->ACR |= FLASH_PrefetchBuffer;
 109              		.loc 1 307 0
 110 0036 1A68     		ldr	r2, [r3]
 111 0038 1043     		orrs	r0, r0, r2
 112              	.LVL7:
 113 003a 1860     		str	r0, [r3]
 308:../../source/src/FWlib/src/stm32f10x_flash.c **** }
 114              		.loc 1 308 0
 115 003c 7047     		bx	lr
 116              	.L10:
 117 003e 00BF     		.align	2
 118              	.L9:
 119 0040 00200240 		.word	1073881088
 120              		.cfi_endproc
 121              	.LFE31:
 122              		.size	FLASH_PrefetchBufferCmd, .-FLASH_PrefetchBufferCmd
 123              		.align	1
 124              		.p2align 2,,3
 125              		.global	FLASH_Unlock
 126              		.syntax unified
 127              		.thumb
 128              		.thumb_func
 129              		.fpu softvfp
 130              		.type	FLASH_Unlock, %function
 131              	FLASH_Unlock:
 132              	.LFB32:
 309:../../source/src/FWlib/src/stm32f10x_flash.c **** 
 310:../../source/src/FWlib/src/stm32f10x_flash.c **** /**
 311:../../source/src/FWlib/src/stm32f10x_flash.c ****   * @brief  Unlocks the FLASH Program Erase Controller.
 312:../../source/src/FWlib/src/stm32f10x_flash.c ****   * @note   This function can be used for all STM32F10x devices.
 313:../../source/src/FWlib/src/stm32f10x_flash.c ****   *         - For STM32F10X_XL devices this function unlocks Bank1 and Bank2.
 314:../../source/src/FWlib/src/stm32f10x_flash.c ****   *         - For all other devices it unlocks Bank1 and it is equivalent 
 315:../../source/src/FWlib/src/stm32f10x_flash.c ****   *           to FLASH_UnlockBank1 function.. 
 316:../../source/src/FWlib/src/stm32f10x_flash.c ****   * @param  None
 317:../../source/src/FWlib/src/stm32f10x_flash.c ****   * @retval None
 318:../../source/src/FWlib/src/stm32f10x_flash.c ****   */
 319:../../source/src/FWlib/src/stm32f10x_flash.c **** void FLASH_Unlock(void)
 320:../../source/src/FWlib/src/stm32f10x_flash.c **** {
 133              		.loc 1 320 0
 134              		.cfi_startproc
 135              		@ args = 0, pretend = 0, frame = 0
 136              		@ frame_needed = 0, uses_anonymous_args = 0
ARM GAS  G:\Users\Jaxb\AppData\Local\Temp\ccck4Nii.s 			page 9


 137              		@ link register save eliminated.
 321:../../source/src/FWlib/src/stm32f10x_flash.c ****   /* Authorize the FPEC of Bank1 Access */
 322:../../source/src/FWlib/src/stm32f10x_flash.c ****   FLASH->KEYR = FLASH_KEY1;
 138              		.loc 1 322 0
 139 0044 024B     		ldr	r3, .L12
 140 0046 0349     		ldr	r1, .L12+4
 323:../../source/src/FWlib/src/stm32f10x_flash.c ****   FLASH->KEYR = FLASH_KEY2;
 141              		.loc 1 323 0
 142 0048 034A     		ldr	r2, .L12+8
 322:../../source/src/FWlib/src/stm32f10x_flash.c ****   FLASH->KEYR = FLASH_KEY2;
 143              		.loc 1 322 0
 144 004a 5960     		str	r1, [r3, #4]
 145              		.loc 1 323 0
 146 004c 5A60     		str	r2, [r3, #4]
 324:../../source/src/FWlib/src/stm32f10x_flash.c **** 
 325:../../source/src/FWlib/src/stm32f10x_flash.c **** #ifdef STM32F10X_XL
 326:../../source/src/FWlib/src/stm32f10x_flash.c ****   /* Authorize the FPEC of Bank2 Access */
 327:../../source/src/FWlib/src/stm32f10x_flash.c ****   FLASH->KEYR2 = FLASH_KEY1;
 328:../../source/src/FWlib/src/stm32f10x_flash.c ****   FLASH->KEYR2 = FLASH_KEY2;
 329:../../source/src/FWlib/src/stm32f10x_flash.c **** #endif /* STM32F10X_XL */
 330:../../source/src/FWlib/src/stm32f10x_flash.c **** }
 147              		.loc 1 330 0
 148 004e 7047     		bx	lr
 149              	.L13:
 150              		.align	2
 151              	.L12:
 152 0050 00200240 		.word	1073881088
 153 0054 23016745 		.word	1164378403
 154 0058 AB89EFCD 		.word	-839939669
 155              		.cfi_endproc
 156              	.LFE32:
 157              		.size	FLASH_Unlock, .-FLASH_Unlock
 158              		.align	1
 159              		.p2align 2,,3
 160              		.global	FLASH_UnlockBank1
 161              		.syntax unified
 162              		.thumb
 163              		.thumb_func
 164              		.fpu softvfp
 165              		.type	FLASH_UnlockBank1, %function
 166              	FLASH_UnlockBank1:
 167              	.LFB59:
 168              		.cfi_startproc
 169              		@ args = 0, pretend = 0, frame = 0
 170              		@ frame_needed = 0, uses_anonymous_args = 0
 171              		@ link register save eliminated.
 172 005c FFF7FEBF 		b	FLASH_Unlock
 173              		.cfi_endproc
 174              	.LFE59:
 175              		.size	FLASH_UnlockBank1, .-FLASH_UnlockBank1
 176              		.align	1
 177              		.p2align 2,,3
 178              		.global	FLASH_Lock
 179              		.syntax unified
 180              		.thumb
 181              		.thumb_func
 182              		.fpu softvfp
ARM GAS  G:\Users\Jaxb\AppData\Local\Temp\ccck4Nii.s 			page 10


 183              		.type	FLASH_Lock, %function
 184              	FLASH_Lock:
 185              	.LFB34:
 331:../../source/src/FWlib/src/stm32f10x_flash.c **** /**
 332:../../source/src/FWlib/src/stm32f10x_flash.c ****   * @brief  Unlocks the FLASH Bank1 Program Erase Controller.
 333:../../source/src/FWlib/src/stm32f10x_flash.c ****   * @note   This function can be used for all STM32F10x devices.
 334:../../source/src/FWlib/src/stm32f10x_flash.c ****   *         - For STM32F10X_XL devices this function unlocks Bank1.
 335:../../source/src/FWlib/src/stm32f10x_flash.c ****   *         - For all other devices it unlocks Bank1 and it is 
 336:../../source/src/FWlib/src/stm32f10x_flash.c ****   *           equivalent to FLASH_Unlock function.
 337:../../source/src/FWlib/src/stm32f10x_flash.c ****   * @param  None
 338:../../source/src/FWlib/src/stm32f10x_flash.c ****   * @retval None
 339:../../source/src/FWlib/src/stm32f10x_flash.c ****   */
 340:../../source/src/FWlib/src/stm32f10x_flash.c **** void FLASH_UnlockBank1(void)
 341:../../source/src/FWlib/src/stm32f10x_flash.c **** {
 342:../../source/src/FWlib/src/stm32f10x_flash.c ****   /* Authorize the FPEC of Bank1 Access */
 343:../../source/src/FWlib/src/stm32f10x_flash.c ****   FLASH->KEYR = FLASH_KEY1;
 344:../../source/src/FWlib/src/stm32f10x_flash.c ****   FLASH->KEYR = FLASH_KEY2;
 345:../../source/src/FWlib/src/stm32f10x_flash.c **** }
 346:../../source/src/FWlib/src/stm32f10x_flash.c **** 
 347:../../source/src/FWlib/src/stm32f10x_flash.c **** #ifdef STM32F10X_XL
 348:../../source/src/FWlib/src/stm32f10x_flash.c **** /**
 349:../../source/src/FWlib/src/stm32f10x_flash.c ****   * @brief  Unlocks the FLASH Bank2 Program Erase Controller.
 350:../../source/src/FWlib/src/stm32f10x_flash.c ****   * @note   This function can be used only for STM32F10X_XL density devices.
 351:../../source/src/FWlib/src/stm32f10x_flash.c ****   * @param  None
 352:../../source/src/FWlib/src/stm32f10x_flash.c ****   * @retval None
 353:../../source/src/FWlib/src/stm32f10x_flash.c ****   */
 354:../../source/src/FWlib/src/stm32f10x_flash.c **** void FLASH_UnlockBank2(void)
 355:../../source/src/FWlib/src/stm32f10x_flash.c **** {
 356:../../source/src/FWlib/src/stm32f10x_flash.c ****   /* Authorize the FPEC of Bank2 Access */
 357:../../source/src/FWlib/src/stm32f10x_flash.c ****   FLASH->KEYR2 = FLASH_KEY1;
 358:../../source/src/FWlib/src/stm32f10x_flash.c ****   FLASH->KEYR2 = FLASH_KEY2;
 359:../../source/src/FWlib/src/stm32f10x_flash.c **** 
 360:../../source/src/FWlib/src/stm32f10x_flash.c **** }
 361:../../source/src/FWlib/src/stm32f10x_flash.c **** #endif /* STM32F10X_XL */
 362:../../source/src/FWlib/src/stm32f10x_flash.c **** 
 363:../../source/src/FWlib/src/stm32f10x_flash.c **** /**
 364:../../source/src/FWlib/src/stm32f10x_flash.c ****   * @brief  Locks the FLASH Program Erase Controller.
 365:../../source/src/FWlib/src/stm32f10x_flash.c ****   * @note   This function can be used for all STM32F10x devices.
 366:../../source/src/FWlib/src/stm32f10x_flash.c ****   *         - For STM32F10X_XL devices this function Locks Bank1 and Bank2.
 367:../../source/src/FWlib/src/stm32f10x_flash.c ****   *         - For all other devices it Locks Bank1 and it is equivalent 
 368:../../source/src/FWlib/src/stm32f10x_flash.c ****   *           to FLASH_LockBank1 function.
 369:../../source/src/FWlib/src/stm32f10x_flash.c ****   * @param  None
 370:../../source/src/FWlib/src/stm32f10x_flash.c ****   * @retval None
 371:../../source/src/FWlib/src/stm32f10x_flash.c ****   */
 372:../../source/src/FWlib/src/stm32f10x_flash.c **** void FLASH_Lock(void)
 373:../../source/src/FWlib/src/stm32f10x_flash.c **** {
 186              		.loc 1 373 0
 187              		.cfi_startproc
 188              		@ args = 0, pretend = 0, frame = 0
 189              		@ frame_needed = 0, uses_anonymous_args = 0
 190              		@ link register save eliminated.
 374:../../source/src/FWlib/src/stm32f10x_flash.c ****   /* Set the Lock Bit to lock the FPEC and the CR of  Bank1 */
 375:../../source/src/FWlib/src/stm32f10x_flash.c ****   FLASH->CR |= CR_LOCK_Set;
 191              		.loc 1 375 0
 192 0060 024A     		ldr	r2, .L16
 193 0062 1369     		ldr	r3, [r2, #16]
 194 0064 43F08003 		orr	r3, r3, #128
ARM GAS  G:\Users\Jaxb\AppData\Local\Temp\ccck4Nii.s 			page 11


 195 0068 1361     		str	r3, [r2, #16]
 376:../../source/src/FWlib/src/stm32f10x_flash.c **** 
 377:../../source/src/FWlib/src/stm32f10x_flash.c **** #ifdef STM32F10X_XL
 378:../../source/src/FWlib/src/stm32f10x_flash.c ****   /* Set the Lock Bit to lock the FPEC and the CR of  Bank2 */
 379:../../source/src/FWlib/src/stm32f10x_flash.c ****   FLASH->CR2 |= CR_LOCK_Set;
 380:../../source/src/FWlib/src/stm32f10x_flash.c **** #endif /* STM32F10X_XL */
 381:../../source/src/FWlib/src/stm32f10x_flash.c **** }
 196              		.loc 1 381 0
 197 006a 7047     		bx	lr
 198              	.L17:
 199              		.align	2
 200              	.L16:
 201 006c 00200240 		.word	1073881088
 202              		.cfi_endproc
 203              	.LFE34:
 204              		.size	FLASH_Lock, .-FLASH_Lock
 205              		.align	1
 206              		.p2align 2,,3
 207              		.global	FLASH_LockBank1
 208              		.syntax unified
 209              		.thumb
 210              		.thumb_func
 211              		.fpu softvfp
 212              		.type	FLASH_LockBank1, %function
 213              	FLASH_LockBank1:
 214              	.LFB61:
 215              		.cfi_startproc
 216              		@ args = 0, pretend = 0, frame = 0
 217              		@ frame_needed = 0, uses_anonymous_args = 0
 218              		@ link register save eliminated.
 219 0070 FFF7FEBF 		b	FLASH_Lock
 220              		.cfi_endproc
 221              	.LFE61:
 222              		.size	FLASH_LockBank1, .-FLASH_LockBank1
 223              		.align	1
 224              		.p2align 2,,3
 225              		.global	FLASH_GetUserOptionByte
 226              		.syntax unified
 227              		.thumb
 228              		.thumb_func
 229              		.fpu softvfp
 230              		.type	FLASH_GetUserOptionByte, %function
 231              	FLASH_GetUserOptionByte:
 232              	.LFB46:
 382:../../source/src/FWlib/src/stm32f10x_flash.c **** 
 383:../../source/src/FWlib/src/stm32f10x_flash.c **** /**
 384:../../source/src/FWlib/src/stm32f10x_flash.c ****   * @brief  Locks the FLASH Bank1 Program Erase Controller.
 385:../../source/src/FWlib/src/stm32f10x_flash.c ****   * @note   this function can be used for all STM32F10x devices.
 386:../../source/src/FWlib/src/stm32f10x_flash.c ****   *         - For STM32F10X_XL devices this function Locks Bank1.
 387:../../source/src/FWlib/src/stm32f10x_flash.c ****   *         - For all other devices it Locks Bank1 and it is equivalent 
 388:../../source/src/FWlib/src/stm32f10x_flash.c ****   *           to FLASH_Lock function.
 389:../../source/src/FWlib/src/stm32f10x_flash.c ****   * @param  None
 390:../../source/src/FWlib/src/stm32f10x_flash.c ****   * @retval None
 391:../../source/src/FWlib/src/stm32f10x_flash.c ****   */
 392:../../source/src/FWlib/src/stm32f10x_flash.c **** void FLASH_LockBank1(void)
 393:../../source/src/FWlib/src/stm32f10x_flash.c **** {
 394:../../source/src/FWlib/src/stm32f10x_flash.c ****   /* Set the Lock Bit to lock the FPEC and the CR of  Bank1 */
ARM GAS  G:\Users\Jaxb\AppData\Local\Temp\ccck4Nii.s 			page 12


 395:../../source/src/FWlib/src/stm32f10x_flash.c ****   FLASH->CR |= CR_LOCK_Set;
 396:../../source/src/FWlib/src/stm32f10x_flash.c **** }
 397:../../source/src/FWlib/src/stm32f10x_flash.c **** 
 398:../../source/src/FWlib/src/stm32f10x_flash.c **** #ifdef STM32F10X_XL
 399:../../source/src/FWlib/src/stm32f10x_flash.c **** /**
 400:../../source/src/FWlib/src/stm32f10x_flash.c ****   * @brief  Locks the FLASH Bank2 Program Erase Controller.
 401:../../source/src/FWlib/src/stm32f10x_flash.c ****   * @note   This function can be used only for STM32F10X_XL density devices.
 402:../../source/src/FWlib/src/stm32f10x_flash.c ****   * @param  None
 403:../../source/src/FWlib/src/stm32f10x_flash.c ****   * @retval None
 404:../../source/src/FWlib/src/stm32f10x_flash.c ****   */
 405:../../source/src/FWlib/src/stm32f10x_flash.c **** void FLASH_LockBank2(void)
 406:../../source/src/FWlib/src/stm32f10x_flash.c **** {
 407:../../source/src/FWlib/src/stm32f10x_flash.c ****   /* Set the Lock Bit to lock the FPEC and the CR of  Bank2 */
 408:../../source/src/FWlib/src/stm32f10x_flash.c ****   FLASH->CR2 |= CR_LOCK_Set;
 409:../../source/src/FWlib/src/stm32f10x_flash.c **** }
 410:../../source/src/FWlib/src/stm32f10x_flash.c **** #endif /* STM32F10X_XL */
 411:../../source/src/FWlib/src/stm32f10x_flash.c **** 
 412:../../source/src/FWlib/src/stm32f10x_flash.c **** /**
 413:../../source/src/FWlib/src/stm32f10x_flash.c ****   * @brief  Erases a specified FLASH page.
 414:../../source/src/FWlib/src/stm32f10x_flash.c ****   * @note   This function can be used for all STM32F10x devices.
 415:../../source/src/FWlib/src/stm32f10x_flash.c ****   * @param  Page_Address: The page address to be erased.
 416:../../source/src/FWlib/src/stm32f10x_flash.c ****   * @retval FLASH Status: The returned value can be: FLASH_BUSY, FLASH_ERROR_PG,
 417:../../source/src/FWlib/src/stm32f10x_flash.c ****   *         FLASH_ERROR_WRP, FLASH_COMPLETE or FLASH_TIMEOUT.
 418:../../source/src/FWlib/src/stm32f10x_flash.c ****   */
 419:../../source/src/FWlib/src/stm32f10x_flash.c **** FLASH_Status FLASH_ErasePage(uint32_t Page_Address)
 420:../../source/src/FWlib/src/stm32f10x_flash.c **** {
 421:../../source/src/FWlib/src/stm32f10x_flash.c ****   FLASH_Status status = FLASH_COMPLETE;
 422:../../source/src/FWlib/src/stm32f10x_flash.c ****   /* Check the parameters */
 423:../../source/src/FWlib/src/stm32f10x_flash.c ****   assert_param(IS_FLASH_ADDRESS(Page_Address));
 424:../../source/src/FWlib/src/stm32f10x_flash.c **** 
 425:../../source/src/FWlib/src/stm32f10x_flash.c **** #ifdef STM32F10X_XL
 426:../../source/src/FWlib/src/stm32f10x_flash.c ****   if(Page_Address < FLASH_BANK1_END_ADDRESS)  
 427:../../source/src/FWlib/src/stm32f10x_flash.c ****   {
 428:../../source/src/FWlib/src/stm32f10x_flash.c ****     /* Wait for last operation to be completed */
 429:../../source/src/FWlib/src/stm32f10x_flash.c ****     status = FLASH_WaitForLastBank1Operation(EraseTimeout);
 430:../../source/src/FWlib/src/stm32f10x_flash.c ****     if(status == FLASH_COMPLETE)
 431:../../source/src/FWlib/src/stm32f10x_flash.c ****     { 
 432:../../source/src/FWlib/src/stm32f10x_flash.c ****       /* if the previous operation is completed, proceed to erase the page */
 433:../../source/src/FWlib/src/stm32f10x_flash.c ****       FLASH->CR|= CR_PER_Set;
 434:../../source/src/FWlib/src/stm32f10x_flash.c ****       FLASH->AR = Page_Address; 
 435:../../source/src/FWlib/src/stm32f10x_flash.c ****       FLASH->CR|= CR_STRT_Set;
 436:../../source/src/FWlib/src/stm32f10x_flash.c ****     
 437:../../source/src/FWlib/src/stm32f10x_flash.c ****       /* Wait for last operation to be completed */
 438:../../source/src/FWlib/src/stm32f10x_flash.c ****       status = FLASH_WaitForLastBank1Operation(EraseTimeout);
 439:../../source/src/FWlib/src/stm32f10x_flash.c **** 
 440:../../source/src/FWlib/src/stm32f10x_flash.c ****       /* Disable the PER Bit */
 441:../../source/src/FWlib/src/stm32f10x_flash.c ****       FLASH->CR &= CR_PER_Reset;
 442:../../source/src/FWlib/src/stm32f10x_flash.c ****     }
 443:../../source/src/FWlib/src/stm32f10x_flash.c ****   }
 444:../../source/src/FWlib/src/stm32f10x_flash.c ****   else
 445:../../source/src/FWlib/src/stm32f10x_flash.c ****   {
 446:../../source/src/FWlib/src/stm32f10x_flash.c ****     /* Wait for last operation to be completed */
 447:../../source/src/FWlib/src/stm32f10x_flash.c ****     status = FLASH_WaitForLastBank2Operation(EraseTimeout);
 448:../../source/src/FWlib/src/stm32f10x_flash.c ****     if(status == FLASH_COMPLETE)
 449:../../source/src/FWlib/src/stm32f10x_flash.c ****     { 
 450:../../source/src/FWlib/src/stm32f10x_flash.c ****       /* if the previous operation is completed, proceed to erase the page */
 451:../../source/src/FWlib/src/stm32f10x_flash.c ****       FLASH->CR2|= CR_PER_Set;
ARM GAS  G:\Users\Jaxb\AppData\Local\Temp\ccck4Nii.s 			page 13


 452:../../source/src/FWlib/src/stm32f10x_flash.c ****       FLASH->AR2 = Page_Address; 
 453:../../source/src/FWlib/src/stm32f10x_flash.c ****       FLASH->CR2|= CR_STRT_Set;
 454:../../source/src/FWlib/src/stm32f10x_flash.c ****     
 455:../../source/src/FWlib/src/stm32f10x_flash.c ****       /* Wait for last operation to be completed */
 456:../../source/src/FWlib/src/stm32f10x_flash.c ****       status = FLASH_WaitForLastBank2Operation(EraseTimeout);
 457:../../source/src/FWlib/src/stm32f10x_flash.c ****       
 458:../../source/src/FWlib/src/stm32f10x_flash.c ****       /* Disable the PER Bit */
 459:../../source/src/FWlib/src/stm32f10x_flash.c ****       FLASH->CR2 &= CR_PER_Reset;
 460:../../source/src/FWlib/src/stm32f10x_flash.c ****     }
 461:../../source/src/FWlib/src/stm32f10x_flash.c ****   }
 462:../../source/src/FWlib/src/stm32f10x_flash.c **** #else
 463:../../source/src/FWlib/src/stm32f10x_flash.c ****   /* Wait for last operation to be completed */
 464:../../source/src/FWlib/src/stm32f10x_flash.c ****   status = FLASH_WaitForLastOperation(EraseTimeout);
 465:../../source/src/FWlib/src/stm32f10x_flash.c ****   
 466:../../source/src/FWlib/src/stm32f10x_flash.c ****   if(status == FLASH_COMPLETE)
 467:../../source/src/FWlib/src/stm32f10x_flash.c ****   { 
 468:../../source/src/FWlib/src/stm32f10x_flash.c ****     /* if the previous operation is completed, proceed to erase the page */
 469:../../source/src/FWlib/src/stm32f10x_flash.c ****     FLASH->CR|= CR_PER_Set;
 470:../../source/src/FWlib/src/stm32f10x_flash.c ****     FLASH->AR = Page_Address; 
 471:../../source/src/FWlib/src/stm32f10x_flash.c ****     FLASH->CR|= CR_STRT_Set;
 472:../../source/src/FWlib/src/stm32f10x_flash.c ****     
 473:../../source/src/FWlib/src/stm32f10x_flash.c ****     /* Wait for last operation to be completed */
 474:../../source/src/FWlib/src/stm32f10x_flash.c ****     status = FLASH_WaitForLastOperation(EraseTimeout);
 475:../../source/src/FWlib/src/stm32f10x_flash.c ****     
 476:../../source/src/FWlib/src/stm32f10x_flash.c ****     /* Disable the PER Bit */
 477:../../source/src/FWlib/src/stm32f10x_flash.c ****     FLASH->CR &= CR_PER_Reset;
 478:../../source/src/FWlib/src/stm32f10x_flash.c ****   }
 479:../../source/src/FWlib/src/stm32f10x_flash.c **** #endif /* STM32F10X_XL */
 480:../../source/src/FWlib/src/stm32f10x_flash.c **** 
 481:../../source/src/FWlib/src/stm32f10x_flash.c ****   /* Return the Erase Status */
 482:../../source/src/FWlib/src/stm32f10x_flash.c ****   return status;
 483:../../source/src/FWlib/src/stm32f10x_flash.c **** }
 484:../../source/src/FWlib/src/stm32f10x_flash.c **** 
 485:../../source/src/FWlib/src/stm32f10x_flash.c **** /**
 486:../../source/src/FWlib/src/stm32f10x_flash.c ****   * @brief  Erases all FLASH pages.
 487:../../source/src/FWlib/src/stm32f10x_flash.c ****   * @note   This function can be used for all STM32F10x devices.
 488:../../source/src/FWlib/src/stm32f10x_flash.c ****   * @param  None
 489:../../source/src/FWlib/src/stm32f10x_flash.c ****   * @retval FLASH Status: The returned value can be: FLASH_ERROR_PG,
 490:../../source/src/FWlib/src/stm32f10x_flash.c ****   *         FLASH_ERROR_WRP, FLASH_COMPLETE or FLASH_TIMEOUT.
 491:../../source/src/FWlib/src/stm32f10x_flash.c ****   */
 492:../../source/src/FWlib/src/stm32f10x_flash.c **** FLASH_Status FLASH_EraseAllPages(void)
 493:../../source/src/FWlib/src/stm32f10x_flash.c **** {
 494:../../source/src/FWlib/src/stm32f10x_flash.c ****   FLASH_Status status = FLASH_COMPLETE;
 495:../../source/src/FWlib/src/stm32f10x_flash.c **** 
 496:../../source/src/FWlib/src/stm32f10x_flash.c **** #ifdef STM32F10X_XL
 497:../../source/src/FWlib/src/stm32f10x_flash.c ****   /* Wait for last operation to be completed */
 498:../../source/src/FWlib/src/stm32f10x_flash.c ****   status = FLASH_WaitForLastBank1Operation(EraseTimeout);
 499:../../source/src/FWlib/src/stm32f10x_flash.c ****   
 500:../../source/src/FWlib/src/stm32f10x_flash.c ****   if(status == FLASH_COMPLETE)
 501:../../source/src/FWlib/src/stm32f10x_flash.c ****   {
 502:../../source/src/FWlib/src/stm32f10x_flash.c ****     /* if the previous operation is completed, proceed to erase all pages */
 503:../../source/src/FWlib/src/stm32f10x_flash.c ****      FLASH->CR |= CR_MER_Set;
 504:../../source/src/FWlib/src/stm32f10x_flash.c ****      FLASH->CR |= CR_STRT_Set;
 505:../../source/src/FWlib/src/stm32f10x_flash.c ****     
 506:../../source/src/FWlib/src/stm32f10x_flash.c ****     /* Wait for last operation to be completed */
 507:../../source/src/FWlib/src/stm32f10x_flash.c ****     status = FLASH_WaitForLastBank1Operation(EraseTimeout);
 508:../../source/src/FWlib/src/stm32f10x_flash.c ****     
ARM GAS  G:\Users\Jaxb\AppData\Local\Temp\ccck4Nii.s 			page 14


 509:../../source/src/FWlib/src/stm32f10x_flash.c ****     /* Disable the MER Bit */
 510:../../source/src/FWlib/src/stm32f10x_flash.c ****     FLASH->CR &= CR_MER_Reset;
 511:../../source/src/FWlib/src/stm32f10x_flash.c ****   }    
 512:../../source/src/FWlib/src/stm32f10x_flash.c ****   if(status == FLASH_COMPLETE)
 513:../../source/src/FWlib/src/stm32f10x_flash.c ****   {
 514:../../source/src/FWlib/src/stm32f10x_flash.c ****     /* if the previous operation is completed, proceed to erase all pages */
 515:../../source/src/FWlib/src/stm32f10x_flash.c ****      FLASH->CR2 |= CR_MER_Set;
 516:../../source/src/FWlib/src/stm32f10x_flash.c ****      FLASH->CR2 |= CR_STRT_Set;
 517:../../source/src/FWlib/src/stm32f10x_flash.c ****     
 518:../../source/src/FWlib/src/stm32f10x_flash.c ****     /* Wait for last operation to be completed */
 519:../../source/src/FWlib/src/stm32f10x_flash.c ****     status = FLASH_WaitForLastBank2Operation(EraseTimeout);
 520:../../source/src/FWlib/src/stm32f10x_flash.c ****     
 521:../../source/src/FWlib/src/stm32f10x_flash.c ****     /* Disable the MER Bit */
 522:../../source/src/FWlib/src/stm32f10x_flash.c ****     FLASH->CR2 &= CR_MER_Reset;
 523:../../source/src/FWlib/src/stm32f10x_flash.c ****   }
 524:../../source/src/FWlib/src/stm32f10x_flash.c **** #else
 525:../../source/src/FWlib/src/stm32f10x_flash.c ****   /* Wait for last operation to be completed */
 526:../../source/src/FWlib/src/stm32f10x_flash.c ****   status = FLASH_WaitForLastOperation(EraseTimeout);
 527:../../source/src/FWlib/src/stm32f10x_flash.c ****   if(status == FLASH_COMPLETE)
 528:../../source/src/FWlib/src/stm32f10x_flash.c ****   {
 529:../../source/src/FWlib/src/stm32f10x_flash.c ****     /* if the previous operation is completed, proceed to erase all pages */
 530:../../source/src/FWlib/src/stm32f10x_flash.c ****      FLASH->CR |= CR_MER_Set;
 531:../../source/src/FWlib/src/stm32f10x_flash.c ****      FLASH->CR |= CR_STRT_Set;
 532:../../source/src/FWlib/src/stm32f10x_flash.c ****     
 533:../../source/src/FWlib/src/stm32f10x_flash.c ****     /* Wait for last operation to be completed */
 534:../../source/src/FWlib/src/stm32f10x_flash.c ****     status = FLASH_WaitForLastOperation(EraseTimeout);
 535:../../source/src/FWlib/src/stm32f10x_flash.c **** 
 536:../../source/src/FWlib/src/stm32f10x_flash.c ****     /* Disable the MER Bit */
 537:../../source/src/FWlib/src/stm32f10x_flash.c ****     FLASH->CR &= CR_MER_Reset;
 538:../../source/src/FWlib/src/stm32f10x_flash.c ****   }
 539:../../source/src/FWlib/src/stm32f10x_flash.c **** #endif /* STM32F10X_XL */
 540:../../source/src/FWlib/src/stm32f10x_flash.c **** 
 541:../../source/src/FWlib/src/stm32f10x_flash.c ****   /* Return the Erase Status */
 542:../../source/src/FWlib/src/stm32f10x_flash.c ****   return status;
 543:../../source/src/FWlib/src/stm32f10x_flash.c **** }
 544:../../source/src/FWlib/src/stm32f10x_flash.c **** 
 545:../../source/src/FWlib/src/stm32f10x_flash.c **** /**
 546:../../source/src/FWlib/src/stm32f10x_flash.c ****   * @brief  Erases all Bank1 FLASH pages.
 547:../../source/src/FWlib/src/stm32f10x_flash.c ****   * @note   This function can be used for all STM32F10x devices.
 548:../../source/src/FWlib/src/stm32f10x_flash.c ****   *         - For STM32F10X_XL devices this function erases all Bank1 pages.
 549:../../source/src/FWlib/src/stm32f10x_flash.c ****   *         - For all other devices it erases all Bank1 pages and it is equivalent 
 550:../../source/src/FWlib/src/stm32f10x_flash.c ****   *           to FLASH_EraseAllPages function.
 551:../../source/src/FWlib/src/stm32f10x_flash.c ****   * @param  None
 552:../../source/src/FWlib/src/stm32f10x_flash.c ****   * @retval FLASH Status: The returned value can be: FLASH_ERROR_PG,
 553:../../source/src/FWlib/src/stm32f10x_flash.c ****   *         FLASH_ERROR_WRP, FLASH_COMPLETE or FLASH_TIMEOUT.
 554:../../source/src/FWlib/src/stm32f10x_flash.c ****   */
 555:../../source/src/FWlib/src/stm32f10x_flash.c **** FLASH_Status FLASH_EraseAllBank1Pages(void)
 556:../../source/src/FWlib/src/stm32f10x_flash.c **** {
 557:../../source/src/FWlib/src/stm32f10x_flash.c ****   FLASH_Status status = FLASH_COMPLETE;
 558:../../source/src/FWlib/src/stm32f10x_flash.c ****   /* Wait for last operation to be completed */
 559:../../source/src/FWlib/src/stm32f10x_flash.c ****   status = FLASH_WaitForLastBank1Operation(EraseTimeout);
 560:../../source/src/FWlib/src/stm32f10x_flash.c ****   
 561:../../source/src/FWlib/src/stm32f10x_flash.c ****   if(status == FLASH_COMPLETE)
 562:../../source/src/FWlib/src/stm32f10x_flash.c ****   {
 563:../../source/src/FWlib/src/stm32f10x_flash.c ****     /* if the previous operation is completed, proceed to erase all pages */
 564:../../source/src/FWlib/src/stm32f10x_flash.c ****      FLASH->CR |= CR_MER_Set;
 565:../../source/src/FWlib/src/stm32f10x_flash.c ****      FLASH->CR |= CR_STRT_Set;
ARM GAS  G:\Users\Jaxb\AppData\Local\Temp\ccck4Nii.s 			page 15


 566:../../source/src/FWlib/src/stm32f10x_flash.c ****     
 567:../../source/src/FWlib/src/stm32f10x_flash.c ****     /* Wait for last operation to be completed */
 568:../../source/src/FWlib/src/stm32f10x_flash.c ****     status = FLASH_WaitForLastBank1Operation(EraseTimeout);
 569:../../source/src/FWlib/src/stm32f10x_flash.c ****     
 570:../../source/src/FWlib/src/stm32f10x_flash.c ****     /* Disable the MER Bit */
 571:../../source/src/FWlib/src/stm32f10x_flash.c ****     FLASH->CR &= CR_MER_Reset;
 572:../../source/src/FWlib/src/stm32f10x_flash.c ****   }    
 573:../../source/src/FWlib/src/stm32f10x_flash.c ****   /* Return the Erase Status */
 574:../../source/src/FWlib/src/stm32f10x_flash.c ****   return status;
 575:../../source/src/FWlib/src/stm32f10x_flash.c **** }
 576:../../source/src/FWlib/src/stm32f10x_flash.c **** 
 577:../../source/src/FWlib/src/stm32f10x_flash.c **** #ifdef STM32F10X_XL
 578:../../source/src/FWlib/src/stm32f10x_flash.c **** /**
 579:../../source/src/FWlib/src/stm32f10x_flash.c ****   * @brief  Erases all Bank2 FLASH pages.
 580:../../source/src/FWlib/src/stm32f10x_flash.c ****   * @note   This function can be used only for STM32F10x_XL density devices.
 581:../../source/src/FWlib/src/stm32f10x_flash.c ****   * @param  None
 582:../../source/src/FWlib/src/stm32f10x_flash.c ****   * @retval FLASH Status: The returned value can be: FLASH_ERROR_PG,
 583:../../source/src/FWlib/src/stm32f10x_flash.c ****   *         FLASH_ERROR_WRP, FLASH_COMPLETE or FLASH_TIMEOUT.
 584:../../source/src/FWlib/src/stm32f10x_flash.c ****   */
 585:../../source/src/FWlib/src/stm32f10x_flash.c **** FLASH_Status FLASH_EraseAllBank2Pages(void)
 586:../../source/src/FWlib/src/stm32f10x_flash.c **** {
 587:../../source/src/FWlib/src/stm32f10x_flash.c ****   FLASH_Status status = FLASH_COMPLETE;
 588:../../source/src/FWlib/src/stm32f10x_flash.c ****   /* Wait for last operation to be completed */
 589:../../source/src/FWlib/src/stm32f10x_flash.c ****   status = FLASH_WaitForLastBank2Operation(EraseTimeout);
 590:../../source/src/FWlib/src/stm32f10x_flash.c ****   
 591:../../source/src/FWlib/src/stm32f10x_flash.c ****   if(status == FLASH_COMPLETE)
 592:../../source/src/FWlib/src/stm32f10x_flash.c ****   {
 593:../../source/src/FWlib/src/stm32f10x_flash.c ****     /* if the previous operation is completed, proceed to erase all pages */
 594:../../source/src/FWlib/src/stm32f10x_flash.c ****      FLASH->CR2 |= CR_MER_Set;
 595:../../source/src/FWlib/src/stm32f10x_flash.c ****      FLASH->CR2 |= CR_STRT_Set;
 596:../../source/src/FWlib/src/stm32f10x_flash.c ****     
 597:../../source/src/FWlib/src/stm32f10x_flash.c ****     /* Wait for last operation to be completed */
 598:../../source/src/FWlib/src/stm32f10x_flash.c ****     status = FLASH_WaitForLastBank2Operation(EraseTimeout);
 599:../../source/src/FWlib/src/stm32f10x_flash.c **** 
 600:../../source/src/FWlib/src/stm32f10x_flash.c ****     /* Disable the MER Bit */
 601:../../source/src/FWlib/src/stm32f10x_flash.c ****     FLASH->CR2 &= CR_MER_Reset;
 602:../../source/src/FWlib/src/stm32f10x_flash.c ****   }    
 603:../../source/src/FWlib/src/stm32f10x_flash.c ****   /* Return the Erase Status */
 604:../../source/src/FWlib/src/stm32f10x_flash.c ****   return status;
 605:../../source/src/FWlib/src/stm32f10x_flash.c **** }
 606:../../source/src/FWlib/src/stm32f10x_flash.c **** #endif /* STM32F10X_XL */
 607:../../source/src/FWlib/src/stm32f10x_flash.c **** 
 608:../../source/src/FWlib/src/stm32f10x_flash.c **** /**
 609:../../source/src/FWlib/src/stm32f10x_flash.c ****   * @brief  Erases the FLASH option bytes.
 610:../../source/src/FWlib/src/stm32f10x_flash.c ****   * @note   This functions erases all option bytes except the Read protection (RDP). 
 611:../../source/src/FWlib/src/stm32f10x_flash.c ****   * @note   This function can be used for all STM32F10x devices.
 612:../../source/src/FWlib/src/stm32f10x_flash.c ****   * @param  None
 613:../../source/src/FWlib/src/stm32f10x_flash.c ****   * @retval FLASH Status: The returned value can be: FLASH_ERROR_PG,
 614:../../source/src/FWlib/src/stm32f10x_flash.c ****   *         FLASH_ERROR_WRP, FLASH_COMPLETE or FLASH_TIMEOUT.
 615:../../source/src/FWlib/src/stm32f10x_flash.c ****   */
 616:../../source/src/FWlib/src/stm32f10x_flash.c **** FLASH_Status FLASH_EraseOptionBytes(void)
 617:../../source/src/FWlib/src/stm32f10x_flash.c **** {
 618:../../source/src/FWlib/src/stm32f10x_flash.c ****   uint16_t rdptmp = RDP_Key;
 619:../../source/src/FWlib/src/stm32f10x_flash.c **** 
 620:../../source/src/FWlib/src/stm32f10x_flash.c ****   FLASH_Status status = FLASH_COMPLETE;
 621:../../source/src/FWlib/src/stm32f10x_flash.c **** 
 622:../../source/src/FWlib/src/stm32f10x_flash.c ****   /* Get the actual read protection Option Byte value */ 
ARM GAS  G:\Users\Jaxb\AppData\Local\Temp\ccck4Nii.s 			page 16


 623:../../source/src/FWlib/src/stm32f10x_flash.c ****   if(FLASH_GetReadOutProtectionStatus() != RESET)
 624:../../source/src/FWlib/src/stm32f10x_flash.c ****   {
 625:../../source/src/FWlib/src/stm32f10x_flash.c ****     rdptmp = 0x00;  
 626:../../source/src/FWlib/src/stm32f10x_flash.c ****   }
 627:../../source/src/FWlib/src/stm32f10x_flash.c **** 
 628:../../source/src/FWlib/src/stm32f10x_flash.c ****   /* Wait for last operation to be completed */
 629:../../source/src/FWlib/src/stm32f10x_flash.c ****   status = FLASH_WaitForLastOperation(EraseTimeout);
 630:../../source/src/FWlib/src/stm32f10x_flash.c ****   if(status == FLASH_COMPLETE)
 631:../../source/src/FWlib/src/stm32f10x_flash.c ****   {
 632:../../source/src/FWlib/src/stm32f10x_flash.c ****     /* Authorize the small information block programming */
 633:../../source/src/FWlib/src/stm32f10x_flash.c ****     FLASH->OPTKEYR = FLASH_KEY1;
 634:../../source/src/FWlib/src/stm32f10x_flash.c ****     FLASH->OPTKEYR = FLASH_KEY2;
 635:../../source/src/FWlib/src/stm32f10x_flash.c ****     
 636:../../source/src/FWlib/src/stm32f10x_flash.c ****     /* if the previous operation is completed, proceed to erase the option bytes */
 637:../../source/src/FWlib/src/stm32f10x_flash.c ****     FLASH->CR |= CR_OPTER_Set;
 638:../../source/src/FWlib/src/stm32f10x_flash.c ****     FLASH->CR |= CR_STRT_Set;
 639:../../source/src/FWlib/src/stm32f10x_flash.c ****     /* Wait for last operation to be completed */
 640:../../source/src/FWlib/src/stm32f10x_flash.c ****     status = FLASH_WaitForLastOperation(EraseTimeout);
 641:../../source/src/FWlib/src/stm32f10x_flash.c ****     
 642:../../source/src/FWlib/src/stm32f10x_flash.c ****     if(status == FLASH_COMPLETE)
 643:../../source/src/FWlib/src/stm32f10x_flash.c ****     {
 644:../../source/src/FWlib/src/stm32f10x_flash.c ****       /* if the erase operation is completed, disable the OPTER Bit */
 645:../../source/src/FWlib/src/stm32f10x_flash.c ****       FLASH->CR &= CR_OPTER_Reset;
 646:../../source/src/FWlib/src/stm32f10x_flash.c ****        
 647:../../source/src/FWlib/src/stm32f10x_flash.c ****       /* Enable the Option Bytes Programming operation */
 648:../../source/src/FWlib/src/stm32f10x_flash.c ****       FLASH->CR |= CR_OPTPG_Set;
 649:../../source/src/FWlib/src/stm32f10x_flash.c ****       /* Restore the last read protection Option Byte value */
 650:../../source/src/FWlib/src/stm32f10x_flash.c ****       OB->RDP = (uint16_t)rdptmp; 
 651:../../source/src/FWlib/src/stm32f10x_flash.c ****       /* Wait for last operation to be completed */
 652:../../source/src/FWlib/src/stm32f10x_flash.c ****       status = FLASH_WaitForLastOperation(ProgramTimeout);
 653:../../source/src/FWlib/src/stm32f10x_flash.c ****  
 654:../../source/src/FWlib/src/stm32f10x_flash.c ****       if(status != FLASH_TIMEOUT)
 655:../../source/src/FWlib/src/stm32f10x_flash.c ****       {
 656:../../source/src/FWlib/src/stm32f10x_flash.c ****         /* if the program operation is completed, disable the OPTPG Bit */
 657:../../source/src/FWlib/src/stm32f10x_flash.c ****         FLASH->CR &= CR_OPTPG_Reset;
 658:../../source/src/FWlib/src/stm32f10x_flash.c ****       }
 659:../../source/src/FWlib/src/stm32f10x_flash.c ****     }
 660:../../source/src/FWlib/src/stm32f10x_flash.c ****     else
 661:../../source/src/FWlib/src/stm32f10x_flash.c ****     {
 662:../../source/src/FWlib/src/stm32f10x_flash.c ****       if (status != FLASH_TIMEOUT)
 663:../../source/src/FWlib/src/stm32f10x_flash.c ****       {
 664:../../source/src/FWlib/src/stm32f10x_flash.c ****         /* Disable the OPTPG Bit */
 665:../../source/src/FWlib/src/stm32f10x_flash.c ****         FLASH->CR &= CR_OPTPG_Reset;
 666:../../source/src/FWlib/src/stm32f10x_flash.c ****       }
 667:../../source/src/FWlib/src/stm32f10x_flash.c ****     }  
 668:../../source/src/FWlib/src/stm32f10x_flash.c ****   }
 669:../../source/src/FWlib/src/stm32f10x_flash.c ****   /* Return the erase status */
 670:../../source/src/FWlib/src/stm32f10x_flash.c ****   return status;
 671:../../source/src/FWlib/src/stm32f10x_flash.c **** }
 672:../../source/src/FWlib/src/stm32f10x_flash.c **** 
 673:../../source/src/FWlib/src/stm32f10x_flash.c **** /**
 674:../../source/src/FWlib/src/stm32f10x_flash.c ****   * @brief  Programs a word at a specified address.
 675:../../source/src/FWlib/src/stm32f10x_flash.c ****   * @note   This function can be used for all STM32F10x devices.
 676:../../source/src/FWlib/src/stm32f10x_flash.c ****   * @param  Address: specifies the address to be programmed.
 677:../../source/src/FWlib/src/stm32f10x_flash.c ****   * @param  Data: specifies the data to be programmed.
 678:../../source/src/FWlib/src/stm32f10x_flash.c ****   * @retval FLASH Status: The returned value can be: FLASH_ERROR_PG,
 679:../../source/src/FWlib/src/stm32f10x_flash.c ****   *         FLASH_ERROR_WRP, FLASH_COMPLETE or FLASH_TIMEOUT. 
ARM GAS  G:\Users\Jaxb\AppData\Local\Temp\ccck4Nii.s 			page 17


 680:../../source/src/FWlib/src/stm32f10x_flash.c ****   */
 681:../../source/src/FWlib/src/stm32f10x_flash.c **** FLASH_Status FLASH_ProgramWord(uint32_t Address, uint32_t Data)
 682:../../source/src/FWlib/src/stm32f10x_flash.c **** {
 683:../../source/src/FWlib/src/stm32f10x_flash.c ****   FLASH_Status status = FLASH_COMPLETE;
 684:../../source/src/FWlib/src/stm32f10x_flash.c ****   __IO uint32_t tmp = 0;
 685:../../source/src/FWlib/src/stm32f10x_flash.c **** 
 686:../../source/src/FWlib/src/stm32f10x_flash.c ****   /* Check the parameters */
 687:../../source/src/FWlib/src/stm32f10x_flash.c ****   assert_param(IS_FLASH_ADDRESS(Address));
 688:../../source/src/FWlib/src/stm32f10x_flash.c **** 
 689:../../source/src/FWlib/src/stm32f10x_flash.c **** #ifdef STM32F10X_XL
 690:../../source/src/FWlib/src/stm32f10x_flash.c ****   if(Address < FLASH_BANK1_END_ADDRESS - 2)
 691:../../source/src/FWlib/src/stm32f10x_flash.c ****   { 
 692:../../source/src/FWlib/src/stm32f10x_flash.c ****     /* Wait for last operation to be completed */
 693:../../source/src/FWlib/src/stm32f10x_flash.c ****     status = FLASH_WaitForLastBank1Operation(ProgramTimeout); 
 694:../../source/src/FWlib/src/stm32f10x_flash.c ****     if(status == FLASH_COMPLETE)
 695:../../source/src/FWlib/src/stm32f10x_flash.c ****     {
 696:../../source/src/FWlib/src/stm32f10x_flash.c ****       /* if the previous operation is completed, proceed to program the new first 
 697:../../source/src/FWlib/src/stm32f10x_flash.c ****         half word */
 698:../../source/src/FWlib/src/stm32f10x_flash.c ****       FLASH->CR |= CR_PG_Set;
 699:../../source/src/FWlib/src/stm32f10x_flash.c ****   
 700:../../source/src/FWlib/src/stm32f10x_flash.c ****       *(__IO uint16_t*)Address = (uint16_t)Data;
 701:../../source/src/FWlib/src/stm32f10x_flash.c ****       /* Wait for last operation to be completed */
 702:../../source/src/FWlib/src/stm32f10x_flash.c ****       status = FLASH_WaitForLastOperation(ProgramTimeout);
 703:../../source/src/FWlib/src/stm32f10x_flash.c ****  
 704:../../source/src/FWlib/src/stm32f10x_flash.c ****       if(status == FLASH_COMPLETE)
 705:../../source/src/FWlib/src/stm32f10x_flash.c ****       {
 706:../../source/src/FWlib/src/stm32f10x_flash.c ****         /* if the previous operation is completed, proceed to program the new second 
 707:../../source/src/FWlib/src/stm32f10x_flash.c ****         half word */
 708:../../source/src/FWlib/src/stm32f10x_flash.c ****         tmp = Address + 2;
 709:../../source/src/FWlib/src/stm32f10x_flash.c **** 
 710:../../source/src/FWlib/src/stm32f10x_flash.c ****         *(__IO uint16_t*) tmp = Data >> 16;
 711:../../source/src/FWlib/src/stm32f10x_flash.c ****     
 712:../../source/src/FWlib/src/stm32f10x_flash.c ****         /* Wait for last operation to be completed */
 713:../../source/src/FWlib/src/stm32f10x_flash.c ****         status = FLASH_WaitForLastOperation(ProgramTimeout);
 714:../../source/src/FWlib/src/stm32f10x_flash.c ****         
 715:../../source/src/FWlib/src/stm32f10x_flash.c ****         /* Disable the PG Bit */
 716:../../source/src/FWlib/src/stm32f10x_flash.c ****         FLASH->CR &= CR_PG_Reset;
 717:../../source/src/FWlib/src/stm32f10x_flash.c ****       }
 718:../../source/src/FWlib/src/stm32f10x_flash.c ****       else
 719:../../source/src/FWlib/src/stm32f10x_flash.c ****       {
 720:../../source/src/FWlib/src/stm32f10x_flash.c ****         /* Disable the PG Bit */
 721:../../source/src/FWlib/src/stm32f10x_flash.c ****         FLASH->CR &= CR_PG_Reset;
 722:../../source/src/FWlib/src/stm32f10x_flash.c ****        }
 723:../../source/src/FWlib/src/stm32f10x_flash.c ****     }
 724:../../source/src/FWlib/src/stm32f10x_flash.c ****   }
 725:../../source/src/FWlib/src/stm32f10x_flash.c ****   else if(Address == (FLASH_BANK1_END_ADDRESS - 1))
 726:../../source/src/FWlib/src/stm32f10x_flash.c ****   {
 727:../../source/src/FWlib/src/stm32f10x_flash.c ****     /* Wait for last operation to be completed */
 728:../../source/src/FWlib/src/stm32f10x_flash.c ****     status = FLASH_WaitForLastBank1Operation(ProgramTimeout);
 729:../../source/src/FWlib/src/stm32f10x_flash.c **** 
 730:../../source/src/FWlib/src/stm32f10x_flash.c ****     if(status == FLASH_COMPLETE)
 731:../../source/src/FWlib/src/stm32f10x_flash.c ****     {
 732:../../source/src/FWlib/src/stm32f10x_flash.c ****       /* if the previous operation is completed, proceed to program the new first 
 733:../../source/src/FWlib/src/stm32f10x_flash.c ****         half word */
 734:../../source/src/FWlib/src/stm32f10x_flash.c ****       FLASH->CR |= CR_PG_Set;
 735:../../source/src/FWlib/src/stm32f10x_flash.c ****   
 736:../../source/src/FWlib/src/stm32f10x_flash.c ****       *(__IO uint16_t*)Address = (uint16_t)Data;
ARM GAS  G:\Users\Jaxb\AppData\Local\Temp\ccck4Nii.s 			page 18


 737:../../source/src/FWlib/src/stm32f10x_flash.c **** 
 738:../../source/src/FWlib/src/stm32f10x_flash.c ****       /* Wait for last operation to be completed */
 739:../../source/src/FWlib/src/stm32f10x_flash.c ****       status = FLASH_WaitForLastBank1Operation(ProgramTimeout);
 740:../../source/src/FWlib/src/stm32f10x_flash.c ****       
 741:../../source/src/FWlib/src/stm32f10x_flash.c **** 	  /* Disable the PG Bit */
 742:../../source/src/FWlib/src/stm32f10x_flash.c ****       FLASH->CR &= CR_PG_Reset;
 743:../../source/src/FWlib/src/stm32f10x_flash.c ****     }
 744:../../source/src/FWlib/src/stm32f10x_flash.c ****     else
 745:../../source/src/FWlib/src/stm32f10x_flash.c ****     {
 746:../../source/src/FWlib/src/stm32f10x_flash.c ****       /* Disable the PG Bit */
 747:../../source/src/FWlib/src/stm32f10x_flash.c ****       FLASH->CR &= CR_PG_Reset;
 748:../../source/src/FWlib/src/stm32f10x_flash.c ****     }
 749:../../source/src/FWlib/src/stm32f10x_flash.c **** 
 750:../../source/src/FWlib/src/stm32f10x_flash.c ****     /* Wait for last operation to be completed */
 751:../../source/src/FWlib/src/stm32f10x_flash.c ****     status = FLASH_WaitForLastBank2Operation(ProgramTimeout);
 752:../../source/src/FWlib/src/stm32f10x_flash.c **** 
 753:../../source/src/FWlib/src/stm32f10x_flash.c ****     if(status == FLASH_COMPLETE)
 754:../../source/src/FWlib/src/stm32f10x_flash.c ****     {
 755:../../source/src/FWlib/src/stm32f10x_flash.c ****       /* if the previous operation is completed, proceed to program the new second 
 756:../../source/src/FWlib/src/stm32f10x_flash.c ****       half word */
 757:../../source/src/FWlib/src/stm32f10x_flash.c ****       FLASH->CR2 |= CR_PG_Set;
 758:../../source/src/FWlib/src/stm32f10x_flash.c ****       tmp = Address + 2;
 759:../../source/src/FWlib/src/stm32f10x_flash.c **** 
 760:../../source/src/FWlib/src/stm32f10x_flash.c ****       *(__IO uint16_t*) tmp = Data >> 16;
 761:../../source/src/FWlib/src/stm32f10x_flash.c ****     
 762:../../source/src/FWlib/src/stm32f10x_flash.c ****       /* Wait for last operation to be completed */
 763:../../source/src/FWlib/src/stm32f10x_flash.c ****       status = FLASH_WaitForLastBank2Operation(ProgramTimeout);
 764:../../source/src/FWlib/src/stm32f10x_flash.c ****         
 765:../../source/src/FWlib/src/stm32f10x_flash.c ****       /* Disable the PG Bit */
 766:../../source/src/FWlib/src/stm32f10x_flash.c ****       FLASH->CR2 &= CR_PG_Reset;
 767:../../source/src/FWlib/src/stm32f10x_flash.c ****     }
 768:../../source/src/FWlib/src/stm32f10x_flash.c ****     else
 769:../../source/src/FWlib/src/stm32f10x_flash.c ****     {
 770:../../source/src/FWlib/src/stm32f10x_flash.c ****       /* Disable the PG Bit */
 771:../../source/src/FWlib/src/stm32f10x_flash.c ****       FLASH->CR2 &= CR_PG_Reset;
 772:../../source/src/FWlib/src/stm32f10x_flash.c ****     }
 773:../../source/src/FWlib/src/stm32f10x_flash.c ****   }
 774:../../source/src/FWlib/src/stm32f10x_flash.c ****   else
 775:../../source/src/FWlib/src/stm32f10x_flash.c ****   {
 776:../../source/src/FWlib/src/stm32f10x_flash.c ****     /* Wait for last operation to be completed */
 777:../../source/src/FWlib/src/stm32f10x_flash.c ****     status = FLASH_WaitForLastBank2Operation(ProgramTimeout);
 778:../../source/src/FWlib/src/stm32f10x_flash.c **** 
 779:../../source/src/FWlib/src/stm32f10x_flash.c ****     if(status == FLASH_COMPLETE)
 780:../../source/src/FWlib/src/stm32f10x_flash.c ****     {
 781:../../source/src/FWlib/src/stm32f10x_flash.c ****       /* if the previous operation is completed, proceed to program the new first 
 782:../../source/src/FWlib/src/stm32f10x_flash.c ****         half word */
 783:../../source/src/FWlib/src/stm32f10x_flash.c ****       FLASH->CR2 |= CR_PG_Set;
 784:../../source/src/FWlib/src/stm32f10x_flash.c ****   
 785:../../source/src/FWlib/src/stm32f10x_flash.c ****       *(__IO uint16_t*)Address = (uint16_t)Data;
 786:../../source/src/FWlib/src/stm32f10x_flash.c ****       /* Wait for last operation to be completed */
 787:../../source/src/FWlib/src/stm32f10x_flash.c ****       status = FLASH_WaitForLastBank2Operation(ProgramTimeout);
 788:../../source/src/FWlib/src/stm32f10x_flash.c ****  
 789:../../source/src/FWlib/src/stm32f10x_flash.c ****       if(status == FLASH_COMPLETE)
 790:../../source/src/FWlib/src/stm32f10x_flash.c ****       {
 791:../../source/src/FWlib/src/stm32f10x_flash.c ****         /* if the previous operation is completed, proceed to program the new second 
 792:../../source/src/FWlib/src/stm32f10x_flash.c ****         half word */
 793:../../source/src/FWlib/src/stm32f10x_flash.c ****         tmp = Address + 2;
ARM GAS  G:\Users\Jaxb\AppData\Local\Temp\ccck4Nii.s 			page 19


 794:../../source/src/FWlib/src/stm32f10x_flash.c **** 
 795:../../source/src/FWlib/src/stm32f10x_flash.c ****         *(__IO uint16_t*) tmp = Data >> 16;
 796:../../source/src/FWlib/src/stm32f10x_flash.c ****     
 797:../../source/src/FWlib/src/stm32f10x_flash.c ****         /* Wait for last operation to be completed */
 798:../../source/src/FWlib/src/stm32f10x_flash.c ****         status = FLASH_WaitForLastBank2Operation(ProgramTimeout);
 799:../../source/src/FWlib/src/stm32f10x_flash.c ****         
 800:../../source/src/FWlib/src/stm32f10x_flash.c ****         /* Disable the PG Bit */
 801:../../source/src/FWlib/src/stm32f10x_flash.c ****         FLASH->CR2 &= CR_PG_Reset;
 802:../../source/src/FWlib/src/stm32f10x_flash.c ****       }
 803:../../source/src/FWlib/src/stm32f10x_flash.c ****       else
 804:../../source/src/FWlib/src/stm32f10x_flash.c ****       {
 805:../../source/src/FWlib/src/stm32f10x_flash.c ****         /* Disable the PG Bit */
 806:../../source/src/FWlib/src/stm32f10x_flash.c ****         FLASH->CR2 &= CR_PG_Reset;
 807:../../source/src/FWlib/src/stm32f10x_flash.c ****       }
 808:../../source/src/FWlib/src/stm32f10x_flash.c ****     }
 809:../../source/src/FWlib/src/stm32f10x_flash.c ****   }
 810:../../source/src/FWlib/src/stm32f10x_flash.c **** #else
 811:../../source/src/FWlib/src/stm32f10x_flash.c ****   /* Wait for last operation to be completed */
 812:../../source/src/FWlib/src/stm32f10x_flash.c ****   status = FLASH_WaitForLastOperation(ProgramTimeout);
 813:../../source/src/FWlib/src/stm32f10x_flash.c ****   
 814:../../source/src/FWlib/src/stm32f10x_flash.c ****   if(status == FLASH_COMPLETE)
 815:../../source/src/FWlib/src/stm32f10x_flash.c ****   {
 816:../../source/src/FWlib/src/stm32f10x_flash.c ****     /* if the previous operation is completed, proceed to program the new first 
 817:../../source/src/FWlib/src/stm32f10x_flash.c ****     half word */
 818:../../source/src/FWlib/src/stm32f10x_flash.c ****     FLASH->CR |= CR_PG_Set;
 819:../../source/src/FWlib/src/stm32f10x_flash.c ****   
 820:../../source/src/FWlib/src/stm32f10x_flash.c ****     *(__IO uint16_t*)Address = (uint16_t)Data;
 821:../../source/src/FWlib/src/stm32f10x_flash.c ****     /* Wait for last operation to be completed */
 822:../../source/src/FWlib/src/stm32f10x_flash.c ****     status = FLASH_WaitForLastOperation(ProgramTimeout);
 823:../../source/src/FWlib/src/stm32f10x_flash.c ****  
 824:../../source/src/FWlib/src/stm32f10x_flash.c ****     if(status == FLASH_COMPLETE)
 825:../../source/src/FWlib/src/stm32f10x_flash.c ****     {
 826:../../source/src/FWlib/src/stm32f10x_flash.c ****       /* if the previous operation is completed, proceed to program the new second 
 827:../../source/src/FWlib/src/stm32f10x_flash.c ****       half word */
 828:../../source/src/FWlib/src/stm32f10x_flash.c ****       tmp = Address + 2;
 829:../../source/src/FWlib/src/stm32f10x_flash.c **** 
 830:../../source/src/FWlib/src/stm32f10x_flash.c ****       *(__IO uint16_t*) tmp = Data >> 16;
 831:../../source/src/FWlib/src/stm32f10x_flash.c ****     
 832:../../source/src/FWlib/src/stm32f10x_flash.c ****       /* Wait for last operation to be completed */
 833:../../source/src/FWlib/src/stm32f10x_flash.c ****       status = FLASH_WaitForLastOperation(ProgramTimeout);
 834:../../source/src/FWlib/src/stm32f10x_flash.c ****         
 835:../../source/src/FWlib/src/stm32f10x_flash.c ****       /* Disable the PG Bit */
 836:../../source/src/FWlib/src/stm32f10x_flash.c ****       FLASH->CR &= CR_PG_Reset;
 837:../../source/src/FWlib/src/stm32f10x_flash.c ****     }
 838:../../source/src/FWlib/src/stm32f10x_flash.c ****     else
 839:../../source/src/FWlib/src/stm32f10x_flash.c ****     {
 840:../../source/src/FWlib/src/stm32f10x_flash.c ****       /* Disable the PG Bit */
 841:../../source/src/FWlib/src/stm32f10x_flash.c ****       FLASH->CR &= CR_PG_Reset;
 842:../../source/src/FWlib/src/stm32f10x_flash.c ****     }
 843:../../source/src/FWlib/src/stm32f10x_flash.c ****   }         
 844:../../source/src/FWlib/src/stm32f10x_flash.c **** #endif /* STM32F10X_XL */
 845:../../source/src/FWlib/src/stm32f10x_flash.c ****    
 846:../../source/src/FWlib/src/stm32f10x_flash.c ****   /* Return the Program Status */
 847:../../source/src/FWlib/src/stm32f10x_flash.c ****   return status;
 848:../../source/src/FWlib/src/stm32f10x_flash.c **** }
 849:../../source/src/FWlib/src/stm32f10x_flash.c **** 
 850:../../source/src/FWlib/src/stm32f10x_flash.c **** /**
ARM GAS  G:\Users\Jaxb\AppData\Local\Temp\ccck4Nii.s 			page 20


 851:../../source/src/FWlib/src/stm32f10x_flash.c ****   * @brief  Programs a half word at a specified address.
 852:../../source/src/FWlib/src/stm32f10x_flash.c ****   * @note   This function can be used for all STM32F10x devices.
 853:../../source/src/FWlib/src/stm32f10x_flash.c ****   * @param  Address: specifies the address to be programmed.
 854:../../source/src/FWlib/src/stm32f10x_flash.c ****   * @param  Data: specifies the data to be programmed.
 855:../../source/src/FWlib/src/stm32f10x_flash.c ****   * @retval FLASH Status: The returned value can be: FLASH_ERROR_PG,
 856:../../source/src/FWlib/src/stm32f10x_flash.c ****   *         FLASH_ERROR_WRP, FLASH_COMPLETE or FLASH_TIMEOUT. 
 857:../../source/src/FWlib/src/stm32f10x_flash.c ****   */
 858:../../source/src/FWlib/src/stm32f10x_flash.c **** FLASH_Status FLASH_ProgramHalfWord(uint32_t Address, uint16_t Data)
 859:../../source/src/FWlib/src/stm32f10x_flash.c **** {
 860:../../source/src/FWlib/src/stm32f10x_flash.c ****   FLASH_Status status = FLASH_COMPLETE;
 861:../../source/src/FWlib/src/stm32f10x_flash.c ****   /* Check the parameters */
 862:../../source/src/FWlib/src/stm32f10x_flash.c ****   assert_param(IS_FLASH_ADDRESS(Address));
 863:../../source/src/FWlib/src/stm32f10x_flash.c **** 
 864:../../source/src/FWlib/src/stm32f10x_flash.c **** #ifdef STM32F10X_XL
 865:../../source/src/FWlib/src/stm32f10x_flash.c ****   /* Wait for last operation to be completed */
 866:../../source/src/FWlib/src/stm32f10x_flash.c ****   status = FLASH_WaitForLastOperation(ProgramTimeout);
 867:../../source/src/FWlib/src/stm32f10x_flash.c ****   
 868:../../source/src/FWlib/src/stm32f10x_flash.c ****   if(Address < FLASH_BANK1_END_ADDRESS)
 869:../../source/src/FWlib/src/stm32f10x_flash.c ****   {
 870:../../source/src/FWlib/src/stm32f10x_flash.c ****     if(status == FLASH_COMPLETE)
 871:../../source/src/FWlib/src/stm32f10x_flash.c ****     {
 872:../../source/src/FWlib/src/stm32f10x_flash.c ****       /* if the previous operation is completed, proceed to program the new data */
 873:../../source/src/FWlib/src/stm32f10x_flash.c ****       FLASH->CR |= CR_PG_Set;
 874:../../source/src/FWlib/src/stm32f10x_flash.c ****   
 875:../../source/src/FWlib/src/stm32f10x_flash.c ****       *(__IO uint16_t*)Address = Data;
 876:../../source/src/FWlib/src/stm32f10x_flash.c ****       /* Wait for last operation to be completed */
 877:../../source/src/FWlib/src/stm32f10x_flash.c ****       status = FLASH_WaitForLastBank1Operation(ProgramTimeout);
 878:../../source/src/FWlib/src/stm32f10x_flash.c **** 
 879:../../source/src/FWlib/src/stm32f10x_flash.c ****       /* Disable the PG Bit */
 880:../../source/src/FWlib/src/stm32f10x_flash.c ****       FLASH->CR &= CR_PG_Reset;
 881:../../source/src/FWlib/src/stm32f10x_flash.c ****     }
 882:../../source/src/FWlib/src/stm32f10x_flash.c ****   }
 883:../../source/src/FWlib/src/stm32f10x_flash.c ****   else
 884:../../source/src/FWlib/src/stm32f10x_flash.c ****   {
 885:../../source/src/FWlib/src/stm32f10x_flash.c ****     if(status == FLASH_COMPLETE)
 886:../../source/src/FWlib/src/stm32f10x_flash.c ****     {
 887:../../source/src/FWlib/src/stm32f10x_flash.c ****       /* if the previous operation is completed, proceed to program the new data */
 888:../../source/src/FWlib/src/stm32f10x_flash.c ****       FLASH->CR2 |= CR_PG_Set;
 889:../../source/src/FWlib/src/stm32f10x_flash.c ****   
 890:../../source/src/FWlib/src/stm32f10x_flash.c ****       *(__IO uint16_t*)Address = Data;
 891:../../source/src/FWlib/src/stm32f10x_flash.c ****       /* Wait for last operation to be completed */
 892:../../source/src/FWlib/src/stm32f10x_flash.c ****       status = FLASH_WaitForLastBank2Operation(ProgramTimeout);
 893:../../source/src/FWlib/src/stm32f10x_flash.c **** 
 894:../../source/src/FWlib/src/stm32f10x_flash.c ****       /* Disable the PG Bit */
 895:../../source/src/FWlib/src/stm32f10x_flash.c ****       FLASH->CR2 &= CR_PG_Reset;
 896:../../source/src/FWlib/src/stm32f10x_flash.c ****     }
 897:../../source/src/FWlib/src/stm32f10x_flash.c ****   }
 898:../../source/src/FWlib/src/stm32f10x_flash.c **** #else
 899:../../source/src/FWlib/src/stm32f10x_flash.c ****   /* Wait for last operation to be completed */
 900:../../source/src/FWlib/src/stm32f10x_flash.c ****   status = FLASH_WaitForLastOperation(ProgramTimeout);
 901:../../source/src/FWlib/src/stm32f10x_flash.c ****   
 902:../../source/src/FWlib/src/stm32f10x_flash.c ****   if(status == FLASH_COMPLETE)
 903:../../source/src/FWlib/src/stm32f10x_flash.c ****   {
 904:../../source/src/FWlib/src/stm32f10x_flash.c ****     /* if the previous operation is completed, proceed to program the new data */
 905:../../source/src/FWlib/src/stm32f10x_flash.c ****     FLASH->CR |= CR_PG_Set;
 906:../../source/src/FWlib/src/stm32f10x_flash.c ****   
 907:../../source/src/FWlib/src/stm32f10x_flash.c ****     *(__IO uint16_t*)Address = Data;
ARM GAS  G:\Users\Jaxb\AppData\Local\Temp\ccck4Nii.s 			page 21


 908:../../source/src/FWlib/src/stm32f10x_flash.c ****     /* Wait for last operation to be completed */
 909:../../source/src/FWlib/src/stm32f10x_flash.c ****     status = FLASH_WaitForLastOperation(ProgramTimeout);
 910:../../source/src/FWlib/src/stm32f10x_flash.c ****     
 911:../../source/src/FWlib/src/stm32f10x_flash.c ****     /* Disable the PG Bit */
 912:../../source/src/FWlib/src/stm32f10x_flash.c ****     FLASH->CR &= CR_PG_Reset;
 913:../../source/src/FWlib/src/stm32f10x_flash.c ****   } 
 914:../../source/src/FWlib/src/stm32f10x_flash.c **** #endif  /* STM32F10X_XL */
 915:../../source/src/FWlib/src/stm32f10x_flash.c ****   
 916:../../source/src/FWlib/src/stm32f10x_flash.c ****   /* Return the Program Status */
 917:../../source/src/FWlib/src/stm32f10x_flash.c ****   return status;
 918:../../source/src/FWlib/src/stm32f10x_flash.c **** }
 919:../../source/src/FWlib/src/stm32f10x_flash.c **** 
 920:../../source/src/FWlib/src/stm32f10x_flash.c **** /**
 921:../../source/src/FWlib/src/stm32f10x_flash.c ****   * @brief  Programs a half word at a specified Option Byte Data address.
 922:../../source/src/FWlib/src/stm32f10x_flash.c ****   * @note   This function can be used for all STM32F10x devices.
 923:../../source/src/FWlib/src/stm32f10x_flash.c ****   * @param  Address: specifies the address to be programmed.
 924:../../source/src/FWlib/src/stm32f10x_flash.c ****   *   This parameter can be 0x1FFFF804 or 0x1FFFF806. 
 925:../../source/src/FWlib/src/stm32f10x_flash.c ****   * @param  Data: specifies the data to be programmed.
 926:../../source/src/FWlib/src/stm32f10x_flash.c ****   * @retval FLASH Status: The returned value can be: FLASH_ERROR_PG,
 927:../../source/src/FWlib/src/stm32f10x_flash.c ****   *         FLASH_ERROR_WRP, FLASH_COMPLETE or FLASH_TIMEOUT. 
 928:../../source/src/FWlib/src/stm32f10x_flash.c ****   */
 929:../../source/src/FWlib/src/stm32f10x_flash.c **** FLASH_Status FLASH_ProgramOptionByteData(uint32_t Address, uint8_t Data)
 930:../../source/src/FWlib/src/stm32f10x_flash.c **** {
 931:../../source/src/FWlib/src/stm32f10x_flash.c ****   FLASH_Status status = FLASH_COMPLETE;
 932:../../source/src/FWlib/src/stm32f10x_flash.c ****   /* Check the parameters */
 933:../../source/src/FWlib/src/stm32f10x_flash.c ****   assert_param(IS_OB_DATA_ADDRESS(Address));
 934:../../source/src/FWlib/src/stm32f10x_flash.c ****   status = FLASH_WaitForLastOperation(ProgramTimeout);
 935:../../source/src/FWlib/src/stm32f10x_flash.c **** 
 936:../../source/src/FWlib/src/stm32f10x_flash.c ****   if(status == FLASH_COMPLETE)
 937:../../source/src/FWlib/src/stm32f10x_flash.c ****   {
 938:../../source/src/FWlib/src/stm32f10x_flash.c ****     /* Authorize the small information block programming */
 939:../../source/src/FWlib/src/stm32f10x_flash.c ****     FLASH->OPTKEYR = FLASH_KEY1;
 940:../../source/src/FWlib/src/stm32f10x_flash.c ****     FLASH->OPTKEYR = FLASH_KEY2;
 941:../../source/src/FWlib/src/stm32f10x_flash.c ****     /* Enables the Option Bytes Programming operation */
 942:../../source/src/FWlib/src/stm32f10x_flash.c ****     FLASH->CR |= CR_OPTPG_Set; 
 943:../../source/src/FWlib/src/stm32f10x_flash.c ****     *(__IO uint16_t*)Address = Data;
 944:../../source/src/FWlib/src/stm32f10x_flash.c ****     
 945:../../source/src/FWlib/src/stm32f10x_flash.c ****     /* Wait for last operation to be completed */
 946:../../source/src/FWlib/src/stm32f10x_flash.c ****     status = FLASH_WaitForLastOperation(ProgramTimeout);
 947:../../source/src/FWlib/src/stm32f10x_flash.c ****     if(status != FLASH_TIMEOUT)
 948:../../source/src/FWlib/src/stm32f10x_flash.c ****     {
 949:../../source/src/FWlib/src/stm32f10x_flash.c ****       /* if the program operation is completed, disable the OPTPG Bit */
 950:../../source/src/FWlib/src/stm32f10x_flash.c ****       FLASH->CR &= CR_OPTPG_Reset;
 951:../../source/src/FWlib/src/stm32f10x_flash.c ****     }
 952:../../source/src/FWlib/src/stm32f10x_flash.c ****   }
 953:../../source/src/FWlib/src/stm32f10x_flash.c ****   /* Return the Option Byte Data Program Status */
 954:../../source/src/FWlib/src/stm32f10x_flash.c ****   return status;
 955:../../source/src/FWlib/src/stm32f10x_flash.c **** }
 956:../../source/src/FWlib/src/stm32f10x_flash.c **** 
 957:../../source/src/FWlib/src/stm32f10x_flash.c **** /**
 958:../../source/src/FWlib/src/stm32f10x_flash.c ****   * @brief  Write protects the desired pages
 959:../../source/src/FWlib/src/stm32f10x_flash.c ****   * @note   This function can be used for all STM32F10x devices.
 960:../../source/src/FWlib/src/stm32f10x_flash.c ****   * @param  FLASH_Pages: specifies the address of the pages to be write protected.
 961:../../source/src/FWlib/src/stm32f10x_flash.c ****   *   This parameter can be:
 962:../../source/src/FWlib/src/stm32f10x_flash.c ****   *     @arg For @b STM32_Low-density_devices: value between FLASH_WRProt_Pages0to3 and FLASH_WRPro
 963:../../source/src/FWlib/src/stm32f10x_flash.c ****   *     @arg For @b STM32_Medium-density_devices: value between FLASH_WRProt_Pages0to3
 964:../../source/src/FWlib/src/stm32f10x_flash.c ****   *       and FLASH_WRProt_Pages124to127
ARM GAS  G:\Users\Jaxb\AppData\Local\Temp\ccck4Nii.s 			page 22


 965:../../source/src/FWlib/src/stm32f10x_flash.c ****   *     @arg For @b STM32_High-density_devices: value between FLASH_WRProt_Pages0to1 and
 966:../../source/src/FWlib/src/stm32f10x_flash.c ****   *       FLASH_WRProt_Pages60to61 or FLASH_WRProt_Pages62to255
 967:../../source/src/FWlib/src/stm32f10x_flash.c ****   *     @arg For @b STM32_Connectivity_line_devices: value between FLASH_WRProt_Pages0to1 and
 968:../../source/src/FWlib/src/stm32f10x_flash.c ****   *       FLASH_WRProt_Pages60to61 or FLASH_WRProt_Pages62to127    
 969:../../source/src/FWlib/src/stm32f10x_flash.c ****   *     @arg For @b STM32_XL-density_devices: value between FLASH_WRProt_Pages0to1 and
 970:../../source/src/FWlib/src/stm32f10x_flash.c ****   *       FLASH_WRProt_Pages60to61 or FLASH_WRProt_Pages62to511
 971:../../source/src/FWlib/src/stm32f10x_flash.c ****   *     @arg FLASH_WRProt_AllPages
 972:../../source/src/FWlib/src/stm32f10x_flash.c ****   * @retval FLASH Status: The returned value can be: FLASH_ERROR_PG,
 973:../../source/src/FWlib/src/stm32f10x_flash.c ****   *         FLASH_ERROR_WRP, FLASH_COMPLETE or FLASH_TIMEOUT.
 974:../../source/src/FWlib/src/stm32f10x_flash.c ****   */
 975:../../source/src/FWlib/src/stm32f10x_flash.c **** FLASH_Status FLASH_EnableWriteProtection(uint32_t FLASH_Pages)
 976:../../source/src/FWlib/src/stm32f10x_flash.c **** {
 977:../../source/src/FWlib/src/stm32f10x_flash.c ****   uint16_t WRP0_Data = 0xFFFF, WRP1_Data = 0xFFFF, WRP2_Data = 0xFFFF, WRP3_Data = 0xFFFF;
 978:../../source/src/FWlib/src/stm32f10x_flash.c ****   
 979:../../source/src/FWlib/src/stm32f10x_flash.c ****   FLASH_Status status = FLASH_COMPLETE;
 980:../../source/src/FWlib/src/stm32f10x_flash.c ****   
 981:../../source/src/FWlib/src/stm32f10x_flash.c ****   /* Check the parameters */
 982:../../source/src/FWlib/src/stm32f10x_flash.c ****   assert_param(IS_FLASH_WRPROT_PAGE(FLASH_Pages));
 983:../../source/src/FWlib/src/stm32f10x_flash.c ****   
 984:../../source/src/FWlib/src/stm32f10x_flash.c ****   FLASH_Pages = (uint32_t)(~FLASH_Pages);
 985:../../source/src/FWlib/src/stm32f10x_flash.c ****   WRP0_Data = (uint16_t)(FLASH_Pages & WRP0_Mask);
 986:../../source/src/FWlib/src/stm32f10x_flash.c ****   WRP1_Data = (uint16_t)((FLASH_Pages & WRP1_Mask) >> 8);
 987:../../source/src/FWlib/src/stm32f10x_flash.c ****   WRP2_Data = (uint16_t)((FLASH_Pages & WRP2_Mask) >> 16);
 988:../../source/src/FWlib/src/stm32f10x_flash.c ****   WRP3_Data = (uint16_t)((FLASH_Pages & WRP3_Mask) >> 24);
 989:../../source/src/FWlib/src/stm32f10x_flash.c ****   
 990:../../source/src/FWlib/src/stm32f10x_flash.c ****   /* Wait for last operation to be completed */
 991:../../source/src/FWlib/src/stm32f10x_flash.c ****   status = FLASH_WaitForLastOperation(ProgramTimeout);
 992:../../source/src/FWlib/src/stm32f10x_flash.c ****   
 993:../../source/src/FWlib/src/stm32f10x_flash.c ****   if(status == FLASH_COMPLETE)
 994:../../source/src/FWlib/src/stm32f10x_flash.c ****   {
 995:../../source/src/FWlib/src/stm32f10x_flash.c ****     /* Authorizes the small information block programming */
 996:../../source/src/FWlib/src/stm32f10x_flash.c ****     FLASH->OPTKEYR = FLASH_KEY1;
 997:../../source/src/FWlib/src/stm32f10x_flash.c ****     FLASH->OPTKEYR = FLASH_KEY2;
 998:../../source/src/FWlib/src/stm32f10x_flash.c ****     FLASH->CR |= CR_OPTPG_Set;
 999:../../source/src/FWlib/src/stm32f10x_flash.c ****     if(WRP0_Data != 0xFF)
1000:../../source/src/FWlib/src/stm32f10x_flash.c ****     {
1001:../../source/src/FWlib/src/stm32f10x_flash.c ****       OB->WRP0 = WRP0_Data;
1002:../../source/src/FWlib/src/stm32f10x_flash.c ****       
1003:../../source/src/FWlib/src/stm32f10x_flash.c ****       /* Wait for last operation to be completed */
1004:../../source/src/FWlib/src/stm32f10x_flash.c ****       status = FLASH_WaitForLastOperation(ProgramTimeout);
1005:../../source/src/FWlib/src/stm32f10x_flash.c ****     }
1006:../../source/src/FWlib/src/stm32f10x_flash.c ****     if((status == FLASH_COMPLETE) && (WRP1_Data != 0xFF))
1007:../../source/src/FWlib/src/stm32f10x_flash.c ****     {
1008:../../source/src/FWlib/src/stm32f10x_flash.c ****       OB->WRP1 = WRP1_Data;
1009:../../source/src/FWlib/src/stm32f10x_flash.c ****       
1010:../../source/src/FWlib/src/stm32f10x_flash.c ****       /* Wait for last operation to be completed */
1011:../../source/src/FWlib/src/stm32f10x_flash.c ****       status = FLASH_WaitForLastOperation(ProgramTimeout);
1012:../../source/src/FWlib/src/stm32f10x_flash.c ****     }
1013:../../source/src/FWlib/src/stm32f10x_flash.c ****     if((status == FLASH_COMPLETE) && (WRP2_Data != 0xFF))
1014:../../source/src/FWlib/src/stm32f10x_flash.c ****     {
1015:../../source/src/FWlib/src/stm32f10x_flash.c ****       OB->WRP2 = WRP2_Data;
1016:../../source/src/FWlib/src/stm32f10x_flash.c ****       
1017:../../source/src/FWlib/src/stm32f10x_flash.c ****       /* Wait for last operation to be completed */
1018:../../source/src/FWlib/src/stm32f10x_flash.c ****       status = FLASH_WaitForLastOperation(ProgramTimeout);
1019:../../source/src/FWlib/src/stm32f10x_flash.c ****     }
1020:../../source/src/FWlib/src/stm32f10x_flash.c ****     
1021:../../source/src/FWlib/src/stm32f10x_flash.c ****     if((status == FLASH_COMPLETE)&& (WRP3_Data != 0xFF))
ARM GAS  G:\Users\Jaxb\AppData\Local\Temp\ccck4Nii.s 			page 23


1022:../../source/src/FWlib/src/stm32f10x_flash.c ****     {
1023:../../source/src/FWlib/src/stm32f10x_flash.c ****       OB->WRP3 = WRP3_Data;
1024:../../source/src/FWlib/src/stm32f10x_flash.c ****      
1025:../../source/src/FWlib/src/stm32f10x_flash.c ****       /* Wait for last operation to be completed */
1026:../../source/src/FWlib/src/stm32f10x_flash.c ****       status = FLASH_WaitForLastOperation(ProgramTimeout);
1027:../../source/src/FWlib/src/stm32f10x_flash.c ****     }
1028:../../source/src/FWlib/src/stm32f10x_flash.c ****           
1029:../../source/src/FWlib/src/stm32f10x_flash.c ****     if(status != FLASH_TIMEOUT)
1030:../../source/src/FWlib/src/stm32f10x_flash.c ****     {
1031:../../source/src/FWlib/src/stm32f10x_flash.c ****       /* if the program operation is completed, disable the OPTPG Bit */
1032:../../source/src/FWlib/src/stm32f10x_flash.c ****       FLASH->CR &= CR_OPTPG_Reset;
1033:../../source/src/FWlib/src/stm32f10x_flash.c ****     }
1034:../../source/src/FWlib/src/stm32f10x_flash.c ****   } 
1035:../../source/src/FWlib/src/stm32f10x_flash.c ****   /* Return the write protection operation Status */
1036:../../source/src/FWlib/src/stm32f10x_flash.c ****   return status;       
1037:../../source/src/FWlib/src/stm32f10x_flash.c **** }
1038:../../source/src/FWlib/src/stm32f10x_flash.c **** 
1039:../../source/src/FWlib/src/stm32f10x_flash.c **** /**
1040:../../source/src/FWlib/src/stm32f10x_flash.c ****   * @brief  Enables or disables the read out protection.
1041:../../source/src/FWlib/src/stm32f10x_flash.c ****   * @note   If the user has already programmed the other option bytes before calling 
1042:../../source/src/FWlib/src/stm32f10x_flash.c ****   *   this function, he must re-program them since this function erases all option bytes.
1043:../../source/src/FWlib/src/stm32f10x_flash.c ****   * @note   This function can be used for all STM32F10x devices.
1044:../../source/src/FWlib/src/stm32f10x_flash.c ****   * @param  Newstate: new state of the ReadOut Protection.
1045:../../source/src/FWlib/src/stm32f10x_flash.c ****   *   This parameter can be: ENABLE or DISABLE.
1046:../../source/src/FWlib/src/stm32f10x_flash.c ****   * @retval FLASH Status: The returned value can be: FLASH_ERROR_PG,
1047:../../source/src/FWlib/src/stm32f10x_flash.c ****   *         FLASH_ERROR_WRP, FLASH_COMPLETE or FLASH_TIMEOUT.
1048:../../source/src/FWlib/src/stm32f10x_flash.c ****   */
1049:../../source/src/FWlib/src/stm32f10x_flash.c **** FLASH_Status FLASH_ReadOutProtection(FunctionalState NewState)
1050:../../source/src/FWlib/src/stm32f10x_flash.c **** {
1051:../../source/src/FWlib/src/stm32f10x_flash.c ****   FLASH_Status status = FLASH_COMPLETE;
1052:../../source/src/FWlib/src/stm32f10x_flash.c ****   /* Check the parameters */
1053:../../source/src/FWlib/src/stm32f10x_flash.c ****   assert_param(IS_FUNCTIONAL_STATE(NewState));
1054:../../source/src/FWlib/src/stm32f10x_flash.c ****   status = FLASH_WaitForLastOperation(EraseTimeout);
1055:../../source/src/FWlib/src/stm32f10x_flash.c ****   if(status == FLASH_COMPLETE)
1056:../../source/src/FWlib/src/stm32f10x_flash.c ****   {
1057:../../source/src/FWlib/src/stm32f10x_flash.c ****     /* Authorizes the small information block programming */
1058:../../source/src/FWlib/src/stm32f10x_flash.c ****     FLASH->OPTKEYR = FLASH_KEY1;
1059:../../source/src/FWlib/src/stm32f10x_flash.c ****     FLASH->OPTKEYR = FLASH_KEY2;
1060:../../source/src/FWlib/src/stm32f10x_flash.c ****     FLASH->CR |= CR_OPTER_Set;
1061:../../source/src/FWlib/src/stm32f10x_flash.c ****     FLASH->CR |= CR_STRT_Set;
1062:../../source/src/FWlib/src/stm32f10x_flash.c ****     /* Wait for last operation to be completed */
1063:../../source/src/FWlib/src/stm32f10x_flash.c ****     status = FLASH_WaitForLastOperation(EraseTimeout);
1064:../../source/src/FWlib/src/stm32f10x_flash.c ****     if(status == FLASH_COMPLETE)
1065:../../source/src/FWlib/src/stm32f10x_flash.c ****     {
1066:../../source/src/FWlib/src/stm32f10x_flash.c ****       /* if the erase operation is completed, disable the OPTER Bit */
1067:../../source/src/FWlib/src/stm32f10x_flash.c ****       FLASH->CR &= CR_OPTER_Reset;
1068:../../source/src/FWlib/src/stm32f10x_flash.c ****       /* Enable the Option Bytes Programming operation */
1069:../../source/src/FWlib/src/stm32f10x_flash.c ****       FLASH->CR |= CR_OPTPG_Set; 
1070:../../source/src/FWlib/src/stm32f10x_flash.c ****       if(NewState != DISABLE)
1071:../../source/src/FWlib/src/stm32f10x_flash.c ****       {
1072:../../source/src/FWlib/src/stm32f10x_flash.c ****         OB->RDP = 0x00;
1073:../../source/src/FWlib/src/stm32f10x_flash.c ****       }
1074:../../source/src/FWlib/src/stm32f10x_flash.c ****       else
1075:../../source/src/FWlib/src/stm32f10x_flash.c ****       {
1076:../../source/src/FWlib/src/stm32f10x_flash.c ****         OB->RDP = RDP_Key;  
1077:../../source/src/FWlib/src/stm32f10x_flash.c ****       }
1078:../../source/src/FWlib/src/stm32f10x_flash.c ****       /* Wait for last operation to be completed */
ARM GAS  G:\Users\Jaxb\AppData\Local\Temp\ccck4Nii.s 			page 24


1079:../../source/src/FWlib/src/stm32f10x_flash.c ****       status = FLASH_WaitForLastOperation(EraseTimeout); 
1080:../../source/src/FWlib/src/stm32f10x_flash.c ****     
1081:../../source/src/FWlib/src/stm32f10x_flash.c ****       if(status != FLASH_TIMEOUT)
1082:../../source/src/FWlib/src/stm32f10x_flash.c ****       {
1083:../../source/src/FWlib/src/stm32f10x_flash.c ****         /* if the program operation is completed, disable the OPTPG Bit */
1084:../../source/src/FWlib/src/stm32f10x_flash.c ****         FLASH->CR &= CR_OPTPG_Reset;
1085:../../source/src/FWlib/src/stm32f10x_flash.c ****       }
1086:../../source/src/FWlib/src/stm32f10x_flash.c ****     }
1087:../../source/src/FWlib/src/stm32f10x_flash.c ****     else 
1088:../../source/src/FWlib/src/stm32f10x_flash.c ****     {
1089:../../source/src/FWlib/src/stm32f10x_flash.c ****       if(status != FLASH_TIMEOUT)
1090:../../source/src/FWlib/src/stm32f10x_flash.c ****       {
1091:../../source/src/FWlib/src/stm32f10x_flash.c ****         /* Disable the OPTER Bit */
1092:../../source/src/FWlib/src/stm32f10x_flash.c ****         FLASH->CR &= CR_OPTER_Reset;
1093:../../source/src/FWlib/src/stm32f10x_flash.c ****       }
1094:../../source/src/FWlib/src/stm32f10x_flash.c ****     }
1095:../../source/src/FWlib/src/stm32f10x_flash.c ****   }
1096:../../source/src/FWlib/src/stm32f10x_flash.c ****   /* Return the protection operation Status */
1097:../../source/src/FWlib/src/stm32f10x_flash.c ****   return status;       
1098:../../source/src/FWlib/src/stm32f10x_flash.c **** }
1099:../../source/src/FWlib/src/stm32f10x_flash.c **** 
1100:../../source/src/FWlib/src/stm32f10x_flash.c **** /**
1101:../../source/src/FWlib/src/stm32f10x_flash.c ****   * @brief  Programs the FLASH User Option Byte: IWDG_SW / RST_STOP / RST_STDBY.
1102:../../source/src/FWlib/src/stm32f10x_flash.c ****   * @note   This function can be used for all STM32F10x devices.
1103:../../source/src/FWlib/src/stm32f10x_flash.c ****   * @param  OB_IWDG: Selects the IWDG mode
1104:../../source/src/FWlib/src/stm32f10x_flash.c ****   *   This parameter can be one of the following values:
1105:../../source/src/FWlib/src/stm32f10x_flash.c ****   *     @arg OB_IWDG_SW: Software IWDG selected
1106:../../source/src/FWlib/src/stm32f10x_flash.c ****   *     @arg OB_IWDG_HW: Hardware IWDG selected
1107:../../source/src/FWlib/src/stm32f10x_flash.c ****   * @param  OB_STOP: Reset event when entering STOP mode.
1108:../../source/src/FWlib/src/stm32f10x_flash.c ****   *   This parameter can be one of the following values:
1109:../../source/src/FWlib/src/stm32f10x_flash.c ****   *     @arg OB_STOP_NoRST: No reset generated when entering in STOP
1110:../../source/src/FWlib/src/stm32f10x_flash.c ****   *     @arg OB_STOP_RST: Reset generated when entering in STOP
1111:../../source/src/FWlib/src/stm32f10x_flash.c ****   * @param  OB_STDBY: Reset event when entering Standby mode.
1112:../../source/src/FWlib/src/stm32f10x_flash.c ****   *   This parameter can be one of the following values:
1113:../../source/src/FWlib/src/stm32f10x_flash.c ****   *     @arg OB_STDBY_NoRST: No reset generated when entering in STANDBY
1114:../../source/src/FWlib/src/stm32f10x_flash.c ****   *     @arg OB_STDBY_RST: Reset generated when entering in STANDBY
1115:../../source/src/FWlib/src/stm32f10x_flash.c ****   * @retval FLASH Status: The returned value can be: FLASH_ERROR_PG, 
1116:../../source/src/FWlib/src/stm32f10x_flash.c ****   *         FLASH_ERROR_WRP, FLASH_COMPLETE or FLASH_TIMEOUT.
1117:../../source/src/FWlib/src/stm32f10x_flash.c ****   */
1118:../../source/src/FWlib/src/stm32f10x_flash.c **** FLASH_Status FLASH_UserOptionByteConfig(uint16_t OB_IWDG, uint16_t OB_STOP, uint16_t OB_STDBY)
1119:../../source/src/FWlib/src/stm32f10x_flash.c **** {
1120:../../source/src/FWlib/src/stm32f10x_flash.c ****   FLASH_Status status = FLASH_COMPLETE; 
1121:../../source/src/FWlib/src/stm32f10x_flash.c **** 
1122:../../source/src/FWlib/src/stm32f10x_flash.c ****   /* Check the parameters */
1123:../../source/src/FWlib/src/stm32f10x_flash.c ****   assert_param(IS_OB_IWDG_SOURCE(OB_IWDG));
1124:../../source/src/FWlib/src/stm32f10x_flash.c ****   assert_param(IS_OB_STOP_SOURCE(OB_STOP));
1125:../../source/src/FWlib/src/stm32f10x_flash.c ****   assert_param(IS_OB_STDBY_SOURCE(OB_STDBY));
1126:../../source/src/FWlib/src/stm32f10x_flash.c **** 
1127:../../source/src/FWlib/src/stm32f10x_flash.c ****   /* Authorize the small information block programming */
1128:../../source/src/FWlib/src/stm32f10x_flash.c ****   FLASH->OPTKEYR = FLASH_KEY1;
1129:../../source/src/FWlib/src/stm32f10x_flash.c ****   FLASH->OPTKEYR = FLASH_KEY2;
1130:../../source/src/FWlib/src/stm32f10x_flash.c ****   
1131:../../source/src/FWlib/src/stm32f10x_flash.c ****   /* Wait for last operation to be completed */
1132:../../source/src/FWlib/src/stm32f10x_flash.c ****   status = FLASH_WaitForLastOperation(ProgramTimeout);
1133:../../source/src/FWlib/src/stm32f10x_flash.c ****   
1134:../../source/src/FWlib/src/stm32f10x_flash.c ****   if(status == FLASH_COMPLETE)
1135:../../source/src/FWlib/src/stm32f10x_flash.c ****   {  
ARM GAS  G:\Users\Jaxb\AppData\Local\Temp\ccck4Nii.s 			page 25


1136:../../source/src/FWlib/src/stm32f10x_flash.c ****     /* Enable the Option Bytes Programming operation */
1137:../../source/src/FWlib/src/stm32f10x_flash.c ****     FLASH->CR |= CR_OPTPG_Set; 
1138:../../source/src/FWlib/src/stm32f10x_flash.c ****            
1139:../../source/src/FWlib/src/stm32f10x_flash.c ****     OB->USER = OB_IWDG | (uint16_t)(OB_STOP | (uint16_t)(OB_STDBY | ((uint16_t)0xF8))); 
1140:../../source/src/FWlib/src/stm32f10x_flash.c ****   
1141:../../source/src/FWlib/src/stm32f10x_flash.c ****     /* Wait for last operation to be completed */
1142:../../source/src/FWlib/src/stm32f10x_flash.c ****     status = FLASH_WaitForLastOperation(ProgramTimeout);
1143:../../source/src/FWlib/src/stm32f10x_flash.c ****     if(status != FLASH_TIMEOUT)
1144:../../source/src/FWlib/src/stm32f10x_flash.c ****     {
1145:../../source/src/FWlib/src/stm32f10x_flash.c ****       /* if the program operation is completed, disable the OPTPG Bit */
1146:../../source/src/FWlib/src/stm32f10x_flash.c ****       FLASH->CR &= CR_OPTPG_Reset;
1147:../../source/src/FWlib/src/stm32f10x_flash.c ****     }
1148:../../source/src/FWlib/src/stm32f10x_flash.c ****   }    
1149:../../source/src/FWlib/src/stm32f10x_flash.c ****   /* Return the Option Byte program Status */
1150:../../source/src/FWlib/src/stm32f10x_flash.c ****   return status;
1151:../../source/src/FWlib/src/stm32f10x_flash.c **** }
1152:../../source/src/FWlib/src/stm32f10x_flash.c **** 
1153:../../source/src/FWlib/src/stm32f10x_flash.c **** #ifdef STM32F10X_XL
1154:../../source/src/FWlib/src/stm32f10x_flash.c **** /**
1155:../../source/src/FWlib/src/stm32f10x_flash.c ****   * @brief  Configures to boot from Bank1 or Bank2.  
1156:../../source/src/FWlib/src/stm32f10x_flash.c ****   * @note   This function can be used only for STM32F10x_XL density devices.
1157:../../source/src/FWlib/src/stm32f10x_flash.c ****   * @param  FLASH_BOOT: select the FLASH Bank to boot from.
1158:../../source/src/FWlib/src/stm32f10x_flash.c ****   *   This parameter can be one of the following values:
1159:../../source/src/FWlib/src/stm32f10x_flash.c ****   *     @arg FLASH_BOOT_Bank1: At startup, if boot pins are set in boot from user Flash
1160:../../source/src/FWlib/src/stm32f10x_flash.c ****   *        position and this parameter is selected the device will boot from Bank1(Default).
1161:../../source/src/FWlib/src/stm32f10x_flash.c ****   *     @arg FLASH_BOOT_Bank2: At startup, if boot pins are set in boot from user Flash
1162:../../source/src/FWlib/src/stm32f10x_flash.c ****   *        position and this parameter is selected the device will boot from Bank2 or Bank1,
1163:../../source/src/FWlib/src/stm32f10x_flash.c ****   *        depending on the activation of the bank. The active banks are checked in
1164:../../source/src/FWlib/src/stm32f10x_flash.c ****   *        the following order: Bank2, followed by Bank1.
1165:../../source/src/FWlib/src/stm32f10x_flash.c ****   *        The active bank is recognized by the value programmed at the base address
1166:../../source/src/FWlib/src/stm32f10x_flash.c ****   *        of the respective bank (corresponding to the initial stack pointer value
1167:../../source/src/FWlib/src/stm32f10x_flash.c ****   *        in the interrupt vector table).
1168:../../source/src/FWlib/src/stm32f10x_flash.c ****   *        For more information, please refer to AN2606 from www.st.com.    
1169:../../source/src/FWlib/src/stm32f10x_flash.c ****   * @retval FLASH Status: The returned value can be: FLASH_ERROR_PG, 
1170:../../source/src/FWlib/src/stm32f10x_flash.c ****   *         FLASH_ERROR_WRP, FLASH_COMPLETE or FLASH_TIMEOUT.
1171:../../source/src/FWlib/src/stm32f10x_flash.c ****   */
1172:../../source/src/FWlib/src/stm32f10x_flash.c **** FLASH_Status FLASH_BootConfig(uint16_t FLASH_BOOT)
1173:../../source/src/FWlib/src/stm32f10x_flash.c **** { 
1174:../../source/src/FWlib/src/stm32f10x_flash.c ****   FLASH_Status status = FLASH_COMPLETE; 
1175:../../source/src/FWlib/src/stm32f10x_flash.c ****   assert_param(IS_FLASH_BOOT(FLASH_BOOT));
1176:../../source/src/FWlib/src/stm32f10x_flash.c ****   /* Authorize the small information block programming */
1177:../../source/src/FWlib/src/stm32f10x_flash.c ****   FLASH->OPTKEYR = FLASH_KEY1;
1178:../../source/src/FWlib/src/stm32f10x_flash.c ****   FLASH->OPTKEYR = FLASH_KEY2;
1179:../../source/src/FWlib/src/stm32f10x_flash.c ****   
1180:../../source/src/FWlib/src/stm32f10x_flash.c ****   /* Wait for last operation to be completed */
1181:../../source/src/FWlib/src/stm32f10x_flash.c ****   status = FLASH_WaitForLastOperation(ProgramTimeout);
1182:../../source/src/FWlib/src/stm32f10x_flash.c ****   
1183:../../source/src/FWlib/src/stm32f10x_flash.c ****   if(status == FLASH_COMPLETE)
1184:../../source/src/FWlib/src/stm32f10x_flash.c ****   {  
1185:../../source/src/FWlib/src/stm32f10x_flash.c ****     /* Enable the Option Bytes Programming operation */
1186:../../source/src/FWlib/src/stm32f10x_flash.c ****     FLASH->CR |= CR_OPTPG_Set; 
1187:../../source/src/FWlib/src/stm32f10x_flash.c **** 
1188:../../source/src/FWlib/src/stm32f10x_flash.c ****     if(FLASH_BOOT == FLASH_BOOT_Bank1)
1189:../../source/src/FWlib/src/stm32f10x_flash.c ****     {
1190:../../source/src/FWlib/src/stm32f10x_flash.c ****       OB->USER |= OB_USER_BFB2;
1191:../../source/src/FWlib/src/stm32f10x_flash.c ****     }
1192:../../source/src/FWlib/src/stm32f10x_flash.c ****     else
ARM GAS  G:\Users\Jaxb\AppData\Local\Temp\ccck4Nii.s 			page 26


1193:../../source/src/FWlib/src/stm32f10x_flash.c ****     {
1194:../../source/src/FWlib/src/stm32f10x_flash.c ****       OB->USER &= (uint16_t)(~(uint16_t)(OB_USER_BFB2));
1195:../../source/src/FWlib/src/stm32f10x_flash.c ****     }
1196:../../source/src/FWlib/src/stm32f10x_flash.c ****     /* Wait for last operation to be completed */
1197:../../source/src/FWlib/src/stm32f10x_flash.c ****     status = FLASH_WaitForLastOperation(ProgramTimeout);
1198:../../source/src/FWlib/src/stm32f10x_flash.c ****     if(status != FLASH_TIMEOUT)
1199:../../source/src/FWlib/src/stm32f10x_flash.c ****     {
1200:../../source/src/FWlib/src/stm32f10x_flash.c ****       /* if the program operation is completed, disable the OPTPG Bit */
1201:../../source/src/FWlib/src/stm32f10x_flash.c ****       FLASH->CR &= CR_OPTPG_Reset;
1202:../../source/src/FWlib/src/stm32f10x_flash.c ****     }
1203:../../source/src/FWlib/src/stm32f10x_flash.c ****   }    
1204:../../source/src/FWlib/src/stm32f10x_flash.c ****   /* Return the Option Byte program Status */
1205:../../source/src/FWlib/src/stm32f10x_flash.c ****   return status;
1206:../../source/src/FWlib/src/stm32f10x_flash.c **** }
1207:../../source/src/FWlib/src/stm32f10x_flash.c **** #endif /* STM32F10X_XL */
1208:../../source/src/FWlib/src/stm32f10x_flash.c **** 
1209:../../source/src/FWlib/src/stm32f10x_flash.c **** /**
1210:../../source/src/FWlib/src/stm32f10x_flash.c ****   * @brief  Returns the FLASH User Option Bytes values.
1211:../../source/src/FWlib/src/stm32f10x_flash.c ****   * @note   This function can be used for all STM32F10x devices.
1212:../../source/src/FWlib/src/stm32f10x_flash.c ****   * @param  None
1213:../../source/src/FWlib/src/stm32f10x_flash.c ****   * @retval The FLASH User Option Bytes values:IWDG_SW(Bit0), RST_STOP(Bit1)
1214:../../source/src/FWlib/src/stm32f10x_flash.c ****   *         and RST_STDBY(Bit2).
1215:../../source/src/FWlib/src/stm32f10x_flash.c ****   */
1216:../../source/src/FWlib/src/stm32f10x_flash.c **** uint32_t FLASH_GetUserOptionByte(void)
1217:../../source/src/FWlib/src/stm32f10x_flash.c **** {
 233              		.loc 1 1217 0
 234              		.cfi_startproc
 235              		@ args = 0, pretend = 0, frame = 0
 236              		@ frame_needed = 0, uses_anonymous_args = 0
 237              		@ link register save eliminated.
1218:../../source/src/FWlib/src/stm32f10x_flash.c ****   /* Return the User Option Byte */
1219:../../source/src/FWlib/src/stm32f10x_flash.c ****   return (uint32_t)(FLASH->OBR >> 2);
 238              		.loc 1 1219 0
 239 0074 014B     		ldr	r3, .L20
 240 0076 D869     		ldr	r0, [r3, #28]
1220:../../source/src/FWlib/src/stm32f10x_flash.c **** }
 241              		.loc 1 1220 0
 242 0078 8008     		lsrs	r0, r0, #2
 243 007a 7047     		bx	lr
 244              	.L21:
 245              		.align	2
 246              	.L20:
 247 007c 00200240 		.word	1073881088
 248              		.cfi_endproc
 249              	.LFE46:
 250              		.size	FLASH_GetUserOptionByte, .-FLASH_GetUserOptionByte
 251              		.align	1
 252              		.p2align 2,,3
 253              		.global	FLASH_GetWriteProtectionOptionByte
 254              		.syntax unified
 255              		.thumb
 256              		.thumb_func
 257              		.fpu softvfp
 258              		.type	FLASH_GetWriteProtectionOptionByte, %function
 259              	FLASH_GetWriteProtectionOptionByte:
 260              	.LFB47:
1221:../../source/src/FWlib/src/stm32f10x_flash.c **** 
ARM GAS  G:\Users\Jaxb\AppData\Local\Temp\ccck4Nii.s 			page 27


1222:../../source/src/FWlib/src/stm32f10x_flash.c **** /**
1223:../../source/src/FWlib/src/stm32f10x_flash.c ****   * @brief  Returns the FLASH Write Protection Option Bytes Register value.
1224:../../source/src/FWlib/src/stm32f10x_flash.c ****   * @note   This function can be used for all STM32F10x devices.
1225:../../source/src/FWlib/src/stm32f10x_flash.c ****   * @param  None
1226:../../source/src/FWlib/src/stm32f10x_flash.c ****   * @retval The FLASH Write Protection  Option Bytes Register value
1227:../../source/src/FWlib/src/stm32f10x_flash.c ****   */
1228:../../source/src/FWlib/src/stm32f10x_flash.c **** uint32_t FLASH_GetWriteProtectionOptionByte(void)
1229:../../source/src/FWlib/src/stm32f10x_flash.c **** {
 261              		.loc 1 1229 0
 262              		.cfi_startproc
 263              		@ args = 0, pretend = 0, frame = 0
 264              		@ frame_needed = 0, uses_anonymous_args = 0
 265              		@ link register save eliminated.
1230:../../source/src/FWlib/src/stm32f10x_flash.c ****   /* Return the Flash write protection Register value */
1231:../../source/src/FWlib/src/stm32f10x_flash.c ****   return (uint32_t)(FLASH->WRPR);
 266              		.loc 1 1231 0
 267 0080 014B     		ldr	r3, .L23
 268 0082 186A     		ldr	r0, [r3, #32]
1232:../../source/src/FWlib/src/stm32f10x_flash.c **** }
 269              		.loc 1 1232 0
 270 0084 7047     		bx	lr
 271              	.L24:
 272 0086 00BF     		.align	2
 273              	.L23:
 274 0088 00200240 		.word	1073881088
 275              		.cfi_endproc
 276              	.LFE47:
 277              		.size	FLASH_GetWriteProtectionOptionByte, .-FLASH_GetWriteProtectionOptionByte
 278              		.align	1
 279              		.p2align 2,,3
 280              		.global	FLASH_GetReadOutProtectionStatus
 281              		.syntax unified
 282              		.thumb
 283              		.thumb_func
 284              		.fpu softvfp
 285              		.type	FLASH_GetReadOutProtectionStatus, %function
 286              	FLASH_GetReadOutProtectionStatus:
 287              	.LFB48:
1233:../../source/src/FWlib/src/stm32f10x_flash.c **** 
1234:../../source/src/FWlib/src/stm32f10x_flash.c **** /**
1235:../../source/src/FWlib/src/stm32f10x_flash.c ****   * @brief  Checks whether the FLASH Read Out Protection Status is set or not.
1236:../../source/src/FWlib/src/stm32f10x_flash.c ****   * @note   This function can be used for all STM32F10x devices.
1237:../../source/src/FWlib/src/stm32f10x_flash.c ****   * @param  None
1238:../../source/src/FWlib/src/stm32f10x_flash.c ****   * @retval FLASH ReadOut Protection Status(SET or RESET)
1239:../../source/src/FWlib/src/stm32f10x_flash.c ****   */
1240:../../source/src/FWlib/src/stm32f10x_flash.c **** FlagStatus FLASH_GetReadOutProtectionStatus(void)
1241:../../source/src/FWlib/src/stm32f10x_flash.c **** {
 288              		.loc 1 1241 0
 289              		.cfi_startproc
 290              		@ args = 0, pretend = 0, frame = 0
 291              		@ frame_needed = 0, uses_anonymous_args = 0
 292              		@ link register save eliminated.
 293              	.LVL8:
1242:../../source/src/FWlib/src/stm32f10x_flash.c ****   FlagStatus readoutstatus = RESET;
1243:../../source/src/FWlib/src/stm32f10x_flash.c ****   if ((FLASH->OBR & RDPRT_Mask) != (uint32_t)RESET)
 294              		.loc 1 1243 0
 295 008c 024B     		ldr	r3, .L26
ARM GAS  G:\Users\Jaxb\AppData\Local\Temp\ccck4Nii.s 			page 28


 296 008e D869     		ldr	r0, [r3, #28]
 297              	.LVL9:
1244:../../source/src/FWlib/src/stm32f10x_flash.c ****   {
1245:../../source/src/FWlib/src/stm32f10x_flash.c ****     readoutstatus = SET;
1246:../../source/src/FWlib/src/stm32f10x_flash.c ****   }
1247:../../source/src/FWlib/src/stm32f10x_flash.c ****   else
1248:../../source/src/FWlib/src/stm32f10x_flash.c ****   {
1249:../../source/src/FWlib/src/stm32f10x_flash.c ****     readoutstatus = RESET;
1250:../../source/src/FWlib/src/stm32f10x_flash.c ****   }
1251:../../source/src/FWlib/src/stm32f10x_flash.c ****   return readoutstatus;
1252:../../source/src/FWlib/src/stm32f10x_flash.c **** }
 298              		.loc 1 1252 0
 299 0090 C0F34000 		ubfx	r0, r0, #1, #1
 300              	.LVL10:
 301 0094 7047     		bx	lr
 302              	.L27:
 303 0096 00BF     		.align	2
 304              	.L26:
 305 0098 00200240 		.word	1073881088
 306              		.cfi_endproc
 307              	.LFE48:
 308              		.size	FLASH_GetReadOutProtectionStatus, .-FLASH_GetReadOutProtectionStatus
 309              		.align	1
 310              		.p2align 2,,3
 311              		.global	FLASH_GetPrefetchBufferStatus
 312              		.syntax unified
 313              		.thumb
 314              		.thumb_func
 315              		.fpu softvfp
 316              		.type	FLASH_GetPrefetchBufferStatus, %function
 317              	FLASH_GetPrefetchBufferStatus:
 318              	.LFB49:
1253:../../source/src/FWlib/src/stm32f10x_flash.c **** 
1254:../../source/src/FWlib/src/stm32f10x_flash.c **** /**
1255:../../source/src/FWlib/src/stm32f10x_flash.c ****   * @brief  Checks whether the FLASH Prefetch Buffer status is set or not.
1256:../../source/src/FWlib/src/stm32f10x_flash.c ****   * @note   This function can be used for all STM32F10x devices.
1257:../../source/src/FWlib/src/stm32f10x_flash.c ****   * @param  None
1258:../../source/src/FWlib/src/stm32f10x_flash.c ****   * @retval FLASH Prefetch Buffer Status (SET or RESET).
1259:../../source/src/FWlib/src/stm32f10x_flash.c ****   */
1260:../../source/src/FWlib/src/stm32f10x_flash.c **** FlagStatus FLASH_GetPrefetchBufferStatus(void)
1261:../../source/src/FWlib/src/stm32f10x_flash.c **** {
 319              		.loc 1 1261 0
 320              		.cfi_startproc
 321              		@ args = 0, pretend = 0, frame = 0
 322              		@ frame_needed = 0, uses_anonymous_args = 0
 323              		@ link register save eliminated.
 324              	.LVL11:
1262:../../source/src/FWlib/src/stm32f10x_flash.c ****   FlagStatus bitstatus = RESET;
1263:../../source/src/FWlib/src/stm32f10x_flash.c ****   
1264:../../source/src/FWlib/src/stm32f10x_flash.c ****   if ((FLASH->ACR & ACR_PRFTBS_Mask) != (uint32_t)RESET)
 325              		.loc 1 1264 0
 326 009c 024B     		ldr	r3, .L29
 327 009e 1868     		ldr	r0, [r3]
 328              	.LVL12:
1265:../../source/src/FWlib/src/stm32f10x_flash.c ****   {
1266:../../source/src/FWlib/src/stm32f10x_flash.c ****     bitstatus = SET;
1267:../../source/src/FWlib/src/stm32f10x_flash.c ****   }
ARM GAS  G:\Users\Jaxb\AppData\Local\Temp\ccck4Nii.s 			page 29


1268:../../source/src/FWlib/src/stm32f10x_flash.c ****   else
1269:../../source/src/FWlib/src/stm32f10x_flash.c ****   {
1270:../../source/src/FWlib/src/stm32f10x_flash.c ****     bitstatus = RESET;
1271:../../source/src/FWlib/src/stm32f10x_flash.c ****   }
1272:../../source/src/FWlib/src/stm32f10x_flash.c ****   /* Return the new state of FLASH Prefetch Buffer Status (SET or RESET) */
1273:../../source/src/FWlib/src/stm32f10x_flash.c ****   return bitstatus; 
1274:../../source/src/FWlib/src/stm32f10x_flash.c **** }
 329              		.loc 1 1274 0
 330 00a0 C0F34010 		ubfx	r0, r0, #5, #1
 331              	.LVL13:
 332 00a4 7047     		bx	lr
 333              	.L30:
 334 00a6 00BF     		.align	2
 335              	.L29:
 336 00a8 00200240 		.word	1073881088
 337              		.cfi_endproc
 338              	.LFE49:
 339              		.size	FLASH_GetPrefetchBufferStatus, .-FLASH_GetPrefetchBufferStatus
 340              		.align	1
 341              		.p2align 2,,3
 342              		.global	FLASH_ITConfig
 343              		.syntax unified
 344              		.thumb
 345              		.thumb_func
 346              		.fpu softvfp
 347              		.type	FLASH_ITConfig, %function
 348              	FLASH_ITConfig:
 349              	.LFB50:
1275:../../source/src/FWlib/src/stm32f10x_flash.c **** 
1276:../../source/src/FWlib/src/stm32f10x_flash.c **** /**
1277:../../source/src/FWlib/src/stm32f10x_flash.c ****   * @brief  Enables or disables the specified FLASH interrupts.
1278:../../source/src/FWlib/src/stm32f10x_flash.c ****   * @note   This function can be used for all STM32F10x devices.
1279:../../source/src/FWlib/src/stm32f10x_flash.c ****   *         - For STM32F10X_XL devices, enables or disables the specified FLASH interrupts
1280:../../source/src/FWlib/src/stm32f10x_flash.c ****               for Bank1 and Bank2.
1281:../../source/src/FWlib/src/stm32f10x_flash.c ****   *         - For other devices it enables or disables the specified FLASH interrupts for Bank1.
1282:../../source/src/FWlib/src/stm32f10x_flash.c ****   * @param  FLASH_IT: specifies the FLASH interrupt sources to be enabled or disabled.
1283:../../source/src/FWlib/src/stm32f10x_flash.c ****   *   This parameter can be any combination of the following values:
1284:../../source/src/FWlib/src/stm32f10x_flash.c ****   *     @arg FLASH_IT_ERROR: FLASH Error Interrupt
1285:../../source/src/FWlib/src/stm32f10x_flash.c ****   *     @arg FLASH_IT_EOP: FLASH end of operation Interrupt
1286:../../source/src/FWlib/src/stm32f10x_flash.c ****   * @param  NewState: new state of the specified Flash interrupts.
1287:../../source/src/FWlib/src/stm32f10x_flash.c ****   *   This parameter can be: ENABLE or DISABLE.      
1288:../../source/src/FWlib/src/stm32f10x_flash.c ****   * @retval None 
1289:../../source/src/FWlib/src/stm32f10x_flash.c ****   */
1290:../../source/src/FWlib/src/stm32f10x_flash.c **** void FLASH_ITConfig(uint32_t FLASH_IT, FunctionalState NewState)
1291:../../source/src/FWlib/src/stm32f10x_flash.c **** {
 350              		.loc 1 1291 0
 351              		.cfi_startproc
 352              		@ args = 0, pretend = 0, frame = 0
 353              		@ frame_needed = 0, uses_anonymous_args = 0
 354              		@ link register save eliminated.
 355              	.LVL14:
1292:../../source/src/FWlib/src/stm32f10x_flash.c **** #ifdef STM32F10X_XL
1293:../../source/src/FWlib/src/stm32f10x_flash.c ****   /* Check the parameters */
1294:../../source/src/FWlib/src/stm32f10x_flash.c ****   assert_param(IS_FLASH_IT(FLASH_IT)); 
1295:../../source/src/FWlib/src/stm32f10x_flash.c ****   assert_param(IS_FUNCTIONAL_STATE(NewState));
1296:../../source/src/FWlib/src/stm32f10x_flash.c **** 
1297:../../source/src/FWlib/src/stm32f10x_flash.c ****   if((FLASH_IT & 0x80000000) != 0x0)
ARM GAS  G:\Users\Jaxb\AppData\Local\Temp\ccck4Nii.s 			page 30


1298:../../source/src/FWlib/src/stm32f10x_flash.c ****   {
1299:../../source/src/FWlib/src/stm32f10x_flash.c ****     if(NewState != DISABLE)
1300:../../source/src/FWlib/src/stm32f10x_flash.c ****     {
1301:../../source/src/FWlib/src/stm32f10x_flash.c ****       /* Enable the interrupt sources */
1302:../../source/src/FWlib/src/stm32f10x_flash.c ****       FLASH->CR2 |= (FLASH_IT & 0x7FFFFFFF);
1303:../../source/src/FWlib/src/stm32f10x_flash.c ****     }
1304:../../source/src/FWlib/src/stm32f10x_flash.c ****     else
1305:../../source/src/FWlib/src/stm32f10x_flash.c ****     {
1306:../../source/src/FWlib/src/stm32f10x_flash.c ****       /* Disable the interrupt sources */
1307:../../source/src/FWlib/src/stm32f10x_flash.c ****       FLASH->CR2 &= ~(uint32_t)(FLASH_IT & 0x7FFFFFFF);
1308:../../source/src/FWlib/src/stm32f10x_flash.c ****     }
1309:../../source/src/FWlib/src/stm32f10x_flash.c ****   }
1310:../../source/src/FWlib/src/stm32f10x_flash.c ****   else
1311:../../source/src/FWlib/src/stm32f10x_flash.c ****   {
1312:../../source/src/FWlib/src/stm32f10x_flash.c ****     if(NewState != DISABLE)
1313:../../source/src/FWlib/src/stm32f10x_flash.c ****     {
1314:../../source/src/FWlib/src/stm32f10x_flash.c ****       /* Enable the interrupt sources */
1315:../../source/src/FWlib/src/stm32f10x_flash.c ****       FLASH->CR |= FLASH_IT;
1316:../../source/src/FWlib/src/stm32f10x_flash.c ****     }
1317:../../source/src/FWlib/src/stm32f10x_flash.c ****     else
1318:../../source/src/FWlib/src/stm32f10x_flash.c ****     {
1319:../../source/src/FWlib/src/stm32f10x_flash.c ****       /* Disable the interrupt sources */
1320:../../source/src/FWlib/src/stm32f10x_flash.c ****       FLASH->CR &= ~(uint32_t)FLASH_IT;
1321:../../source/src/FWlib/src/stm32f10x_flash.c ****     }
1322:../../source/src/FWlib/src/stm32f10x_flash.c ****   }
1323:../../source/src/FWlib/src/stm32f10x_flash.c **** #else
1324:../../source/src/FWlib/src/stm32f10x_flash.c ****   /* Check the parameters */
1325:../../source/src/FWlib/src/stm32f10x_flash.c ****   assert_param(IS_FLASH_IT(FLASH_IT)); 
1326:../../source/src/FWlib/src/stm32f10x_flash.c ****   assert_param(IS_FUNCTIONAL_STATE(NewState));
1327:../../source/src/FWlib/src/stm32f10x_flash.c **** 
1328:../../source/src/FWlib/src/stm32f10x_flash.c ****   if(NewState != DISABLE)
1329:../../source/src/FWlib/src/stm32f10x_flash.c ****   {
1330:../../source/src/FWlib/src/stm32f10x_flash.c ****     /* Enable the interrupt sources */
1331:../../source/src/FWlib/src/stm32f10x_flash.c ****     FLASH->CR |= FLASH_IT;
 356              		.loc 1 1331 0
 357 00ac 044A     		ldr	r2, .L35
 358 00ae 1369     		ldr	r3, [r2, #16]
1328:../../source/src/FWlib/src/stm32f10x_flash.c ****   {
 359              		.loc 1 1328 0
 360 00b0 19B9     		cbnz	r1, .L34
1332:../../source/src/FWlib/src/stm32f10x_flash.c ****   }
1333:../../source/src/FWlib/src/stm32f10x_flash.c ****   else
1334:../../source/src/FWlib/src/stm32f10x_flash.c ****   {
1335:../../source/src/FWlib/src/stm32f10x_flash.c ****     /* Disable the interrupt sources */
1336:../../source/src/FWlib/src/stm32f10x_flash.c ****     FLASH->CR &= ~(uint32_t)FLASH_IT;
 361              		.loc 1 1336 0
 362 00b2 23EA0000 		bic	r0, r3, r0
 363              	.LVL15:
 364 00b6 1061     		str	r0, [r2, #16]
1337:../../source/src/FWlib/src/stm32f10x_flash.c ****   }
1338:../../source/src/FWlib/src/stm32f10x_flash.c **** #endif /* STM32F10X_XL */
1339:../../source/src/FWlib/src/stm32f10x_flash.c **** }
 365              		.loc 1 1339 0
 366 00b8 7047     		bx	lr
 367              	.LVL16:
 368              	.L34:
1331:../../source/src/FWlib/src/stm32f10x_flash.c ****   }
ARM GAS  G:\Users\Jaxb\AppData\Local\Temp\ccck4Nii.s 			page 31


 369              		.loc 1 1331 0
 370 00ba 1843     		orrs	r0, r0, r3
 371              	.LVL17:
 372 00bc 1061     		str	r0, [r2, #16]
 373 00be 7047     		bx	lr
 374              	.L36:
 375              		.align	2
 376              	.L35:
 377 00c0 00200240 		.word	1073881088
 378              		.cfi_endproc
 379              	.LFE50:
 380              		.size	FLASH_ITConfig, .-FLASH_ITConfig
 381              		.align	1
 382              		.p2align 2,,3
 383              		.global	FLASH_GetFlagStatus
 384              		.syntax unified
 385              		.thumb
 386              		.thumb_func
 387              		.fpu softvfp
 388              		.type	FLASH_GetFlagStatus, %function
 389              	FLASH_GetFlagStatus:
 390              	.LFB51:
1340:../../source/src/FWlib/src/stm32f10x_flash.c **** 
1341:../../source/src/FWlib/src/stm32f10x_flash.c **** /**
1342:../../source/src/FWlib/src/stm32f10x_flash.c ****   * @brief  Checks whether the specified FLASH flag is set or not.
1343:../../source/src/FWlib/src/stm32f10x_flash.c ****   * @note   This function can be used for all STM32F10x devices.
1344:../../source/src/FWlib/src/stm32f10x_flash.c ****   *         - For STM32F10X_XL devices, this function checks whether the specified 
1345:../../source/src/FWlib/src/stm32f10x_flash.c ****   *           Bank1 or Bank2 flag is set or not.
1346:../../source/src/FWlib/src/stm32f10x_flash.c ****   *         - For other devices, it checks whether the specified Bank1 flag is 
1347:../../source/src/FWlib/src/stm32f10x_flash.c ****   *           set or not.
1348:../../source/src/FWlib/src/stm32f10x_flash.c ****   * @param  FLASH_FLAG: specifies the FLASH flag to check.
1349:../../source/src/FWlib/src/stm32f10x_flash.c ****   *   This parameter can be one of the following values:
1350:../../source/src/FWlib/src/stm32f10x_flash.c ****   *     @arg FLASH_FLAG_BSY: FLASH Busy flag           
1351:../../source/src/FWlib/src/stm32f10x_flash.c ****   *     @arg FLASH_FLAG_PGERR: FLASH Program error flag       
1352:../../source/src/FWlib/src/stm32f10x_flash.c ****   *     @arg FLASH_FLAG_WRPRTERR: FLASH Write protected error flag      
1353:../../source/src/FWlib/src/stm32f10x_flash.c ****   *     @arg FLASH_FLAG_EOP: FLASH End of Operation flag           
1354:../../source/src/FWlib/src/stm32f10x_flash.c ****   *     @arg FLASH_FLAG_OPTERR:  FLASH Option Byte error flag     
1355:../../source/src/FWlib/src/stm32f10x_flash.c ****   * @retval The new state of FLASH_FLAG (SET or RESET).
1356:../../source/src/FWlib/src/stm32f10x_flash.c ****   */
1357:../../source/src/FWlib/src/stm32f10x_flash.c **** FlagStatus FLASH_GetFlagStatus(uint32_t FLASH_FLAG)
1358:../../source/src/FWlib/src/stm32f10x_flash.c **** {
 391              		.loc 1 1358 0
 392              		.cfi_startproc
 393              		@ args = 0, pretend = 0, frame = 0
 394              		@ frame_needed = 0, uses_anonymous_args = 0
 395              		@ link register save eliminated.
 396              	.LVL18:
1359:../../source/src/FWlib/src/stm32f10x_flash.c ****   FlagStatus bitstatus = RESET;
1360:../../source/src/FWlib/src/stm32f10x_flash.c **** 
1361:../../source/src/FWlib/src/stm32f10x_flash.c **** #ifdef STM32F10X_XL
1362:../../source/src/FWlib/src/stm32f10x_flash.c ****   /* Check the parameters */
1363:../../source/src/FWlib/src/stm32f10x_flash.c ****   assert_param(IS_FLASH_GET_FLAG(FLASH_FLAG)) ;
1364:../../source/src/FWlib/src/stm32f10x_flash.c ****   if(FLASH_FLAG == FLASH_FLAG_OPTERR) 
1365:../../source/src/FWlib/src/stm32f10x_flash.c ****   {
1366:../../source/src/FWlib/src/stm32f10x_flash.c ****     if((FLASH->OBR & FLASH_FLAG_OPTERR) != (uint32_t)RESET)
1367:../../source/src/FWlib/src/stm32f10x_flash.c ****     {
1368:../../source/src/FWlib/src/stm32f10x_flash.c ****       bitstatus = SET;
ARM GAS  G:\Users\Jaxb\AppData\Local\Temp\ccck4Nii.s 			page 32


1369:../../source/src/FWlib/src/stm32f10x_flash.c ****     }
1370:../../source/src/FWlib/src/stm32f10x_flash.c ****     else
1371:../../source/src/FWlib/src/stm32f10x_flash.c ****     {
1372:../../source/src/FWlib/src/stm32f10x_flash.c ****       bitstatus = RESET;
1373:../../source/src/FWlib/src/stm32f10x_flash.c ****     }
1374:../../source/src/FWlib/src/stm32f10x_flash.c ****   }
1375:../../source/src/FWlib/src/stm32f10x_flash.c ****   else
1376:../../source/src/FWlib/src/stm32f10x_flash.c ****   {
1377:../../source/src/FWlib/src/stm32f10x_flash.c ****     if((FLASH_FLAG & 0x80000000) != 0x0)
1378:../../source/src/FWlib/src/stm32f10x_flash.c ****     {
1379:../../source/src/FWlib/src/stm32f10x_flash.c ****       if((FLASH->SR2 & FLASH_FLAG) != (uint32_t)RESET)
1380:../../source/src/FWlib/src/stm32f10x_flash.c ****       {
1381:../../source/src/FWlib/src/stm32f10x_flash.c ****         bitstatus = SET;
1382:../../source/src/FWlib/src/stm32f10x_flash.c ****       }
1383:../../source/src/FWlib/src/stm32f10x_flash.c ****       else
1384:../../source/src/FWlib/src/stm32f10x_flash.c ****       {
1385:../../source/src/FWlib/src/stm32f10x_flash.c ****         bitstatus = RESET;
1386:../../source/src/FWlib/src/stm32f10x_flash.c ****       }
1387:../../source/src/FWlib/src/stm32f10x_flash.c ****     }
1388:../../source/src/FWlib/src/stm32f10x_flash.c ****     else
1389:../../source/src/FWlib/src/stm32f10x_flash.c ****     {
1390:../../source/src/FWlib/src/stm32f10x_flash.c ****       if((FLASH->SR & FLASH_FLAG) != (uint32_t)RESET)
1391:../../source/src/FWlib/src/stm32f10x_flash.c ****       {
1392:../../source/src/FWlib/src/stm32f10x_flash.c ****         bitstatus = SET;
1393:../../source/src/FWlib/src/stm32f10x_flash.c ****       }
1394:../../source/src/FWlib/src/stm32f10x_flash.c ****       else
1395:../../source/src/FWlib/src/stm32f10x_flash.c ****       {
1396:../../source/src/FWlib/src/stm32f10x_flash.c ****         bitstatus = RESET;
1397:../../source/src/FWlib/src/stm32f10x_flash.c ****       }
1398:../../source/src/FWlib/src/stm32f10x_flash.c ****     }
1399:../../source/src/FWlib/src/stm32f10x_flash.c ****   }
1400:../../source/src/FWlib/src/stm32f10x_flash.c **** #else
1401:../../source/src/FWlib/src/stm32f10x_flash.c ****   /* Check the parameters */
1402:../../source/src/FWlib/src/stm32f10x_flash.c ****   assert_param(IS_FLASH_GET_FLAG(FLASH_FLAG)) ;
1403:../../source/src/FWlib/src/stm32f10x_flash.c ****   if(FLASH_FLAG == FLASH_FLAG_OPTERR) 
 397              		.loc 1 1403 0
 398 00c4 0128     		cmp	r0, #1
1404:../../source/src/FWlib/src/stm32f10x_flash.c ****   {
1405:../../source/src/FWlib/src/stm32f10x_flash.c ****     if((FLASH->OBR & FLASH_FLAG_OPTERR) != (uint32_t)RESET)
 399              		.loc 1 1405 0
 400 00c6 064B     		ldr	r3, .L41
1403:../../source/src/FWlib/src/stm32f10x_flash.c ****   {
 401              		.loc 1 1403 0
 402 00c8 05D0     		beq	.L40
1406:../../source/src/FWlib/src/stm32f10x_flash.c ****     {
1407:../../source/src/FWlib/src/stm32f10x_flash.c ****       bitstatus = SET;
1408:../../source/src/FWlib/src/stm32f10x_flash.c ****     }
1409:../../source/src/FWlib/src/stm32f10x_flash.c ****     else
1410:../../source/src/FWlib/src/stm32f10x_flash.c ****     {
1411:../../source/src/FWlib/src/stm32f10x_flash.c ****       bitstatus = RESET;
1412:../../source/src/FWlib/src/stm32f10x_flash.c ****     }
1413:../../source/src/FWlib/src/stm32f10x_flash.c ****   }
1414:../../source/src/FWlib/src/stm32f10x_flash.c ****   else
1415:../../source/src/FWlib/src/stm32f10x_flash.c ****   {
1416:../../source/src/FWlib/src/stm32f10x_flash.c ****    if((FLASH->SR & FLASH_FLAG) != (uint32_t)RESET)
 403              		.loc 1 1416 0
 404 00ca DB68     		ldr	r3, [r3, #12]
ARM GAS  G:\Users\Jaxb\AppData\Local\Temp\ccck4Nii.s 			page 33


 405 00cc 0342     		tst	r3, r0
1411:../../source/src/FWlib/src/stm32f10x_flash.c ****     }
 406              		.loc 1 1411 0
 407 00ce 14BF     		ite	ne
 408 00d0 0120     		movne	r0, #1
 409              	.LVL19:
 410 00d2 0020     		moveq	r0, #0
 411              	.LVL20:
1417:../../source/src/FWlib/src/stm32f10x_flash.c ****     {
1418:../../source/src/FWlib/src/stm32f10x_flash.c ****       bitstatus = SET;
1419:../../source/src/FWlib/src/stm32f10x_flash.c ****     }
1420:../../source/src/FWlib/src/stm32f10x_flash.c ****     else
1421:../../source/src/FWlib/src/stm32f10x_flash.c ****     {
1422:../../source/src/FWlib/src/stm32f10x_flash.c ****       bitstatus = RESET;
1423:../../source/src/FWlib/src/stm32f10x_flash.c ****     }
1424:../../source/src/FWlib/src/stm32f10x_flash.c ****   }
1425:../../source/src/FWlib/src/stm32f10x_flash.c **** #endif /* STM32F10X_XL */
1426:../../source/src/FWlib/src/stm32f10x_flash.c **** 
1427:../../source/src/FWlib/src/stm32f10x_flash.c ****   /* Return the new state of FLASH_FLAG (SET or RESET) */
1428:../../source/src/FWlib/src/stm32f10x_flash.c ****   return bitstatus;
1429:../../source/src/FWlib/src/stm32f10x_flash.c **** }
 412              		.loc 1 1429 0
 413 00d4 7047     		bx	lr
 414              	.LVL21:
 415              	.L40:
1405:../../source/src/FWlib/src/stm32f10x_flash.c ****     {
 416              		.loc 1 1405 0
 417 00d6 D869     		ldr	r0, [r3, #28]
 418              	.LVL22:
1411:../../source/src/FWlib/src/stm32f10x_flash.c ****     }
 419              		.loc 1 1411 0
 420 00d8 00F00100 		and	r0, r0, #1
 421 00dc 7047     		bx	lr
 422              	.L42:
 423 00de 00BF     		.align	2
 424              	.L41:
 425 00e0 00200240 		.word	1073881088
 426              		.cfi_endproc
 427              	.LFE51:
 428              		.size	FLASH_GetFlagStatus, .-FLASH_GetFlagStatus
 429              		.align	1
 430              		.p2align 2,,3
 431              		.global	FLASH_ClearFlag
 432              		.syntax unified
 433              		.thumb
 434              		.thumb_func
 435              		.fpu softvfp
 436              		.type	FLASH_ClearFlag, %function
 437              	FLASH_ClearFlag:
 438              	.LFB52:
1430:../../source/src/FWlib/src/stm32f10x_flash.c **** 
1431:../../source/src/FWlib/src/stm32f10x_flash.c **** /**
1432:../../source/src/FWlib/src/stm32f10x_flash.c ****   * @brief  Clears the FLASH's pending flags.
1433:../../source/src/FWlib/src/stm32f10x_flash.c ****   * @note   This function can be used for all STM32F10x devices.
1434:../../source/src/FWlib/src/stm32f10x_flash.c ****   *         - For STM32F10X_XL devices, this function clears Bank1 or Bank2s pending flags
1435:../../source/src/FWlib/src/stm32f10x_flash.c ****   *         - For other devices, it clears Bank1s pending flags.
1436:../../source/src/FWlib/src/stm32f10x_flash.c ****   * @param  FLASH_FLAG: specifies the FLASH flags to clear.
ARM GAS  G:\Users\Jaxb\AppData\Local\Temp\ccck4Nii.s 			page 34


1437:../../source/src/FWlib/src/stm32f10x_flash.c ****   *   This parameter can be any combination of the following values:         
1438:../../source/src/FWlib/src/stm32f10x_flash.c ****   *     @arg FLASH_FLAG_PGERR: FLASH Program error flag       
1439:../../source/src/FWlib/src/stm32f10x_flash.c ****   *     @arg FLASH_FLAG_WRPRTERR: FLASH Write protected error flag      
1440:../../source/src/FWlib/src/stm32f10x_flash.c ****   *     @arg FLASH_FLAG_EOP: FLASH End of Operation flag           
1441:../../source/src/FWlib/src/stm32f10x_flash.c ****   * @retval None
1442:../../source/src/FWlib/src/stm32f10x_flash.c ****   */
1443:../../source/src/FWlib/src/stm32f10x_flash.c **** void FLASH_ClearFlag(uint32_t FLASH_FLAG)
1444:../../source/src/FWlib/src/stm32f10x_flash.c **** {
 439              		.loc 1 1444 0
 440              		.cfi_startproc
 441              		@ args = 0, pretend = 0, frame = 0
 442              		@ frame_needed = 0, uses_anonymous_args = 0
 443              		@ link register save eliminated.
 444              	.LVL23:
1445:../../source/src/FWlib/src/stm32f10x_flash.c **** #ifdef STM32F10X_XL
1446:../../source/src/FWlib/src/stm32f10x_flash.c ****   /* Check the parameters */
1447:../../source/src/FWlib/src/stm32f10x_flash.c ****   assert_param(IS_FLASH_CLEAR_FLAG(FLASH_FLAG)) ;
1448:../../source/src/FWlib/src/stm32f10x_flash.c **** 
1449:../../source/src/FWlib/src/stm32f10x_flash.c ****   if((FLASH_FLAG & 0x80000000) != 0x0)
1450:../../source/src/FWlib/src/stm32f10x_flash.c ****   {
1451:../../source/src/FWlib/src/stm32f10x_flash.c ****     /* Clear the flags */
1452:../../source/src/FWlib/src/stm32f10x_flash.c ****     FLASH->SR2 = FLASH_FLAG;
1453:../../source/src/FWlib/src/stm32f10x_flash.c ****   }
1454:../../source/src/FWlib/src/stm32f10x_flash.c ****   else
1455:../../source/src/FWlib/src/stm32f10x_flash.c ****   {
1456:../../source/src/FWlib/src/stm32f10x_flash.c ****     /* Clear the flags */
1457:../../source/src/FWlib/src/stm32f10x_flash.c ****     FLASH->SR = FLASH_FLAG;
1458:../../source/src/FWlib/src/stm32f10x_flash.c ****   }  
1459:../../source/src/FWlib/src/stm32f10x_flash.c **** 
1460:../../source/src/FWlib/src/stm32f10x_flash.c **** #else
1461:../../source/src/FWlib/src/stm32f10x_flash.c ****   /* Check the parameters */
1462:../../source/src/FWlib/src/stm32f10x_flash.c ****   assert_param(IS_FLASH_CLEAR_FLAG(FLASH_FLAG)) ;
1463:../../source/src/FWlib/src/stm32f10x_flash.c ****   
1464:../../source/src/FWlib/src/stm32f10x_flash.c ****   /* Clear the flags */
1465:../../source/src/FWlib/src/stm32f10x_flash.c ****   FLASH->SR = FLASH_FLAG;
 445              		.loc 1 1465 0
 446 00e4 014B     		ldr	r3, .L44
 447 00e6 D860     		str	r0, [r3, #12]
1466:../../source/src/FWlib/src/stm32f10x_flash.c **** #endif /* STM32F10X_XL */
1467:../../source/src/FWlib/src/stm32f10x_flash.c **** }
 448              		.loc 1 1467 0
 449 00e8 7047     		bx	lr
 450              	.L45:
 451 00ea 00BF     		.align	2
 452              	.L44:
 453 00ec 00200240 		.word	1073881088
 454              		.cfi_endproc
 455              	.LFE52:
 456              		.size	FLASH_ClearFlag, .-FLASH_ClearFlag
 457              		.align	1
 458              		.p2align 2,,3
 459              		.global	FLASH_GetStatus
 460              		.syntax unified
 461              		.thumb
 462              		.thumb_func
 463              		.fpu softvfp
 464              		.type	FLASH_GetStatus, %function
ARM GAS  G:\Users\Jaxb\AppData\Local\Temp\ccck4Nii.s 			page 35


 465              	FLASH_GetStatus:
 466              	.LFB53:
1468:../../source/src/FWlib/src/stm32f10x_flash.c **** 
1469:../../source/src/FWlib/src/stm32f10x_flash.c **** /**
1470:../../source/src/FWlib/src/stm32f10x_flash.c ****   * @brief  Returns the FLASH Status.
1471:../../source/src/FWlib/src/stm32f10x_flash.c ****   * @note   This function can be used for all STM32F10x devices, it is equivalent
1472:../../source/src/FWlib/src/stm32f10x_flash.c ****   *         to FLASH_GetBank1Status function.
1473:../../source/src/FWlib/src/stm32f10x_flash.c ****   * @param  None
1474:../../source/src/FWlib/src/stm32f10x_flash.c ****   * @retval FLASH Status: The returned value can be: FLASH_BUSY, FLASH_ERROR_PG,
1475:../../source/src/FWlib/src/stm32f10x_flash.c ****   *         FLASH_ERROR_WRP or FLASH_COMPLETE
1476:../../source/src/FWlib/src/stm32f10x_flash.c ****   */
1477:../../source/src/FWlib/src/stm32f10x_flash.c **** FLASH_Status FLASH_GetStatus(void)
1478:../../source/src/FWlib/src/stm32f10x_flash.c **** {
 467              		.loc 1 1478 0
 468              		.cfi_startproc
 469              		@ args = 0, pretend = 0, frame = 0
 470              		@ frame_needed = 0, uses_anonymous_args = 0
 471              		@ link register save eliminated.
 472              	.LVL24:
1479:../../source/src/FWlib/src/stm32f10x_flash.c ****   FLASH_Status flashstatus = FLASH_COMPLETE;
1480:../../source/src/FWlib/src/stm32f10x_flash.c ****   
1481:../../source/src/FWlib/src/stm32f10x_flash.c ****   if((FLASH->SR & FLASH_FLAG_BSY) == FLASH_FLAG_BSY) 
 473              		.loc 1 1481 0
 474 00f0 084B     		ldr	r3, .L51
 475 00f2 DA68     		ldr	r2, [r3, #12]
 476 00f4 D107     		lsls	r1, r2, #31
 477 00f6 09D4     		bmi	.L48
1482:../../source/src/FWlib/src/stm32f10x_flash.c ****   {
1483:../../source/src/FWlib/src/stm32f10x_flash.c ****     flashstatus = FLASH_BUSY;
1484:../../source/src/FWlib/src/stm32f10x_flash.c ****   }
1485:../../source/src/FWlib/src/stm32f10x_flash.c ****   else 
1486:../../source/src/FWlib/src/stm32f10x_flash.c ****   {  
1487:../../source/src/FWlib/src/stm32f10x_flash.c ****     if((FLASH->SR & FLASH_FLAG_PGERR) != 0)
 478              		.loc 1 1487 0
 479 00f8 DA68     		ldr	r2, [r3, #12]
 480 00fa 5207     		lsls	r2, r2, #29
 481 00fc 08D4     		bmi	.L49
1488:../../source/src/FWlib/src/stm32f10x_flash.c ****     { 
1489:../../source/src/FWlib/src/stm32f10x_flash.c ****       flashstatus = FLASH_ERROR_PG;
1490:../../source/src/FWlib/src/stm32f10x_flash.c ****     }
1491:../../source/src/FWlib/src/stm32f10x_flash.c ****     else 
1492:../../source/src/FWlib/src/stm32f10x_flash.c ****     {
1493:../../source/src/FWlib/src/stm32f10x_flash.c ****       if((FLASH->SR & FLASH_FLAG_WRPRTERR) != 0 )
 482              		.loc 1 1493 0
 483 00fe DB68     		ldr	r3, [r3, #12]
 484 0100 13F0100F 		tst	r3, #16
1494:../../source/src/FWlib/src/stm32f10x_flash.c ****       {
1495:../../source/src/FWlib/src/stm32f10x_flash.c ****         flashstatus = FLASH_ERROR_WRP;
1496:../../source/src/FWlib/src/stm32f10x_flash.c ****       }
1497:../../source/src/FWlib/src/stm32f10x_flash.c ****       else
1498:../../source/src/FWlib/src/stm32f10x_flash.c ****       {
1499:../../source/src/FWlib/src/stm32f10x_flash.c ****         flashstatus = FLASH_COMPLETE;
 485              		.loc 1 1499 0
 486 0104 14BF     		ite	ne
 487 0106 0320     		movne	r0, #3
 488 0108 0420     		moveq	r0, #4
 489 010a 7047     		bx	lr
ARM GAS  G:\Users\Jaxb\AppData\Local\Temp\ccck4Nii.s 			page 36


 490              	.L48:
1483:../../source/src/FWlib/src/stm32f10x_flash.c ****   }
 491              		.loc 1 1483 0
 492 010c 0120     		movs	r0, #1
 493 010e 7047     		bx	lr
 494              	.L49:
1489:../../source/src/FWlib/src/stm32f10x_flash.c ****     }
 495              		.loc 1 1489 0
 496 0110 0220     		movs	r0, #2
 497              	.LVL25:
1500:../../source/src/FWlib/src/stm32f10x_flash.c ****       }
1501:../../source/src/FWlib/src/stm32f10x_flash.c ****     }
1502:../../source/src/FWlib/src/stm32f10x_flash.c ****   }
1503:../../source/src/FWlib/src/stm32f10x_flash.c ****   /* Return the Flash Status */
1504:../../source/src/FWlib/src/stm32f10x_flash.c ****   return flashstatus;
1505:../../source/src/FWlib/src/stm32f10x_flash.c **** }
 498              		.loc 1 1505 0
 499 0112 7047     		bx	lr
 500              	.L52:
 501              		.align	2
 502              	.L51:
 503 0114 00200240 		.word	1073881088
 504              		.cfi_endproc
 505              	.LFE53:
 506              		.size	FLASH_GetStatus, .-FLASH_GetStatus
 507              		.align	1
 508              		.p2align 2,,3
 509              		.global	FLASH_GetBank1Status
 510              		.syntax unified
 511              		.thumb
 512              		.thumb_func
 513              		.fpu softvfp
 514              		.type	FLASH_GetBank1Status, %function
 515              	FLASH_GetBank1Status:
 516              	.LFB54:
1506:../../source/src/FWlib/src/stm32f10x_flash.c **** 
1507:../../source/src/FWlib/src/stm32f10x_flash.c **** /**
1508:../../source/src/FWlib/src/stm32f10x_flash.c ****   * @brief  Returns the FLASH Bank1 Status.
1509:../../source/src/FWlib/src/stm32f10x_flash.c ****   * @note   This function can be used for all STM32F10x devices, it is equivalent
1510:../../source/src/FWlib/src/stm32f10x_flash.c ****   *         to FLASH_GetStatus function.
1511:../../source/src/FWlib/src/stm32f10x_flash.c ****   * @param  None
1512:../../source/src/FWlib/src/stm32f10x_flash.c ****   * @retval FLASH Status: The returned value can be: FLASH_BUSY, FLASH_ERROR_PG,
1513:../../source/src/FWlib/src/stm32f10x_flash.c ****   *         FLASH_ERROR_WRP or FLASH_COMPLETE
1514:../../source/src/FWlib/src/stm32f10x_flash.c ****   */
1515:../../source/src/FWlib/src/stm32f10x_flash.c **** FLASH_Status FLASH_GetBank1Status(void)
1516:../../source/src/FWlib/src/stm32f10x_flash.c **** {
 517              		.loc 1 1516 0
 518              		.cfi_startproc
 519              		@ args = 0, pretend = 0, frame = 0
 520              		@ frame_needed = 0, uses_anonymous_args = 0
 521              		@ link register save eliminated.
 522              	.LVL26:
1517:../../source/src/FWlib/src/stm32f10x_flash.c ****   FLASH_Status flashstatus = FLASH_COMPLETE;
1518:../../source/src/FWlib/src/stm32f10x_flash.c ****   
1519:../../source/src/FWlib/src/stm32f10x_flash.c ****   if((FLASH->SR & FLASH_FLAG_BANK1_BSY) == FLASH_FLAG_BSY) 
 523              		.loc 1 1519 0
 524 0118 084B     		ldr	r3, .L58
ARM GAS  G:\Users\Jaxb\AppData\Local\Temp\ccck4Nii.s 			page 37


 525 011a DA68     		ldr	r2, [r3, #12]
 526 011c D107     		lsls	r1, r2, #31
 527 011e 09D4     		bmi	.L55
1520:../../source/src/FWlib/src/stm32f10x_flash.c ****   {
1521:../../source/src/FWlib/src/stm32f10x_flash.c ****     flashstatus = FLASH_BUSY;
1522:../../source/src/FWlib/src/stm32f10x_flash.c ****   }
1523:../../source/src/FWlib/src/stm32f10x_flash.c ****   else 
1524:../../source/src/FWlib/src/stm32f10x_flash.c ****   {  
1525:../../source/src/FWlib/src/stm32f10x_flash.c ****     if((FLASH->SR & FLASH_FLAG_BANK1_PGERR) != 0)
 528              		.loc 1 1525 0
 529 0120 DA68     		ldr	r2, [r3, #12]
 530 0122 5207     		lsls	r2, r2, #29
 531 0124 08D4     		bmi	.L56
 532              	.LBB6:
 533              	.LBB7:
1526:../../source/src/FWlib/src/stm32f10x_flash.c ****     { 
1527:../../source/src/FWlib/src/stm32f10x_flash.c ****       flashstatus = FLASH_ERROR_PG;
1528:../../source/src/FWlib/src/stm32f10x_flash.c ****     }
1529:../../source/src/FWlib/src/stm32f10x_flash.c ****     else 
1530:../../source/src/FWlib/src/stm32f10x_flash.c ****     {
1531:../../source/src/FWlib/src/stm32f10x_flash.c ****       if((FLASH->SR & FLASH_FLAG_BANK1_WRPRTERR) != 0 )
 534              		.loc 1 1531 0
 535 0126 DB68     		ldr	r3, [r3, #12]
 536 0128 13F0100F 		tst	r3, #16
1532:../../source/src/FWlib/src/stm32f10x_flash.c ****       {
1533:../../source/src/FWlib/src/stm32f10x_flash.c ****         flashstatus = FLASH_ERROR_WRP;
1534:../../source/src/FWlib/src/stm32f10x_flash.c ****       }
1535:../../source/src/FWlib/src/stm32f10x_flash.c ****       else
1536:../../source/src/FWlib/src/stm32f10x_flash.c ****       {
1537:../../source/src/FWlib/src/stm32f10x_flash.c ****         flashstatus = FLASH_COMPLETE;
 537              		.loc 1 1537 0
 538 012c 14BF     		ite	ne
 539 012e 0320     		movne	r0, #3
 540 0130 0420     		moveq	r0, #4
 541 0132 7047     		bx	lr
 542              	.L55:
 543              	.LBE7:
 544              	.LBE6:
1521:../../source/src/FWlib/src/stm32f10x_flash.c ****   }
 545              		.loc 1 1521 0
 546 0134 0120     		movs	r0, #1
 547 0136 7047     		bx	lr
 548              	.L56:
1527:../../source/src/FWlib/src/stm32f10x_flash.c ****     }
 549              		.loc 1 1527 0
 550 0138 0220     		movs	r0, #2
 551              	.LVL27:
1538:../../source/src/FWlib/src/stm32f10x_flash.c ****       }
1539:../../source/src/FWlib/src/stm32f10x_flash.c ****     }
1540:../../source/src/FWlib/src/stm32f10x_flash.c ****   }
1541:../../source/src/FWlib/src/stm32f10x_flash.c ****   /* Return the Flash Status */
1542:../../source/src/FWlib/src/stm32f10x_flash.c ****   return flashstatus;
1543:../../source/src/FWlib/src/stm32f10x_flash.c **** }
 552              		.loc 1 1543 0
 553 013a 7047     		bx	lr
 554              	.L59:
 555              		.align	2
ARM GAS  G:\Users\Jaxb\AppData\Local\Temp\ccck4Nii.s 			page 38


 556              	.L58:
 557 013c 00200240 		.word	1073881088
 558              		.cfi_endproc
 559              	.LFE54:
 560              		.size	FLASH_GetBank1Status, .-FLASH_GetBank1Status
 561              		.align	1
 562              		.p2align 2,,3
 563              		.global	FLASH_WaitForLastOperation
 564              		.syntax unified
 565              		.thumb
 566              		.thumb_func
 567              		.fpu softvfp
 568              		.type	FLASH_WaitForLastOperation, %function
 569              	FLASH_WaitForLastOperation:
 570              	.LFB55:
1544:../../source/src/FWlib/src/stm32f10x_flash.c **** 
1545:../../source/src/FWlib/src/stm32f10x_flash.c **** #ifdef STM32F10X_XL
1546:../../source/src/FWlib/src/stm32f10x_flash.c **** /**
1547:../../source/src/FWlib/src/stm32f10x_flash.c ****   * @brief  Returns the FLASH Bank2 Status.
1548:../../source/src/FWlib/src/stm32f10x_flash.c ****   * @note   This function can be used for STM32F10x_XL density devices.
1549:../../source/src/FWlib/src/stm32f10x_flash.c ****   * @param  None
1550:../../source/src/FWlib/src/stm32f10x_flash.c ****   * @retval FLASH Status: The returned value can be: FLASH_BUSY, FLASH_ERROR_PG,
1551:../../source/src/FWlib/src/stm32f10x_flash.c ****   *        FLASH_ERROR_WRP or FLASH_COMPLETE
1552:../../source/src/FWlib/src/stm32f10x_flash.c ****   */
1553:../../source/src/FWlib/src/stm32f10x_flash.c **** FLASH_Status FLASH_GetBank2Status(void)
1554:../../source/src/FWlib/src/stm32f10x_flash.c **** {
1555:../../source/src/FWlib/src/stm32f10x_flash.c ****   FLASH_Status flashstatus = FLASH_COMPLETE;
1556:../../source/src/FWlib/src/stm32f10x_flash.c ****   
1557:../../source/src/FWlib/src/stm32f10x_flash.c ****   if((FLASH->SR2 & (FLASH_FLAG_BANK2_BSY & 0x7FFFFFFF)) == (FLASH_FLAG_BANK2_BSY & 0x7FFFFFFF)) 
1558:../../source/src/FWlib/src/stm32f10x_flash.c ****   {
1559:../../source/src/FWlib/src/stm32f10x_flash.c ****     flashstatus = FLASH_BUSY;
1560:../../source/src/FWlib/src/stm32f10x_flash.c ****   }
1561:../../source/src/FWlib/src/stm32f10x_flash.c ****   else 
1562:../../source/src/FWlib/src/stm32f10x_flash.c ****   {  
1563:../../source/src/FWlib/src/stm32f10x_flash.c ****     if((FLASH->SR2 & (FLASH_FLAG_BANK2_PGERR & 0x7FFFFFFF)) != 0)
1564:../../source/src/FWlib/src/stm32f10x_flash.c ****     { 
1565:../../source/src/FWlib/src/stm32f10x_flash.c ****       flashstatus = FLASH_ERROR_PG;
1566:../../source/src/FWlib/src/stm32f10x_flash.c ****     }
1567:../../source/src/FWlib/src/stm32f10x_flash.c ****     else 
1568:../../source/src/FWlib/src/stm32f10x_flash.c ****     {
1569:../../source/src/FWlib/src/stm32f10x_flash.c ****       if((FLASH->SR2 & (FLASH_FLAG_BANK2_WRPRTERR & 0x7FFFFFFF)) != 0 )
1570:../../source/src/FWlib/src/stm32f10x_flash.c ****       {
1571:../../source/src/FWlib/src/stm32f10x_flash.c ****         flashstatus = FLASH_ERROR_WRP;
1572:../../source/src/FWlib/src/stm32f10x_flash.c ****       }
1573:../../source/src/FWlib/src/stm32f10x_flash.c ****       else
1574:../../source/src/FWlib/src/stm32f10x_flash.c ****       {
1575:../../source/src/FWlib/src/stm32f10x_flash.c ****         flashstatus = FLASH_COMPLETE;
1576:../../source/src/FWlib/src/stm32f10x_flash.c ****       }
1577:../../source/src/FWlib/src/stm32f10x_flash.c ****     }
1578:../../source/src/FWlib/src/stm32f10x_flash.c ****   }
1579:../../source/src/FWlib/src/stm32f10x_flash.c ****   /* Return the Flash Status */
1580:../../source/src/FWlib/src/stm32f10x_flash.c ****   return flashstatus;
1581:../../source/src/FWlib/src/stm32f10x_flash.c **** }
1582:../../source/src/FWlib/src/stm32f10x_flash.c **** #endif /* STM32F10X_XL */
1583:../../source/src/FWlib/src/stm32f10x_flash.c **** /**
1584:../../source/src/FWlib/src/stm32f10x_flash.c ****   * @brief  Waits for a Flash operation to complete or a TIMEOUT to occur.
1585:../../source/src/FWlib/src/stm32f10x_flash.c ****   * @note   This function can be used for all STM32F10x devices, 
ARM GAS  G:\Users\Jaxb\AppData\Local\Temp\ccck4Nii.s 			page 39


1586:../../source/src/FWlib/src/stm32f10x_flash.c ****   *         it is equivalent to FLASH_WaitForLastBank1Operation.
1587:../../source/src/FWlib/src/stm32f10x_flash.c ****   *         - For STM32F10X_XL devices this function waits for a Bank1 Flash operation
1588:../../source/src/FWlib/src/stm32f10x_flash.c ****   *           to complete or a TIMEOUT to occur.
1589:../../source/src/FWlib/src/stm32f10x_flash.c ****   *         - For all other devices it waits for a Flash operation to complete 
1590:../../source/src/FWlib/src/stm32f10x_flash.c ****   *           or a TIMEOUT to occur.
1591:../../source/src/FWlib/src/stm32f10x_flash.c ****   * @param  Timeout: FLASH programming Timeout
1592:../../source/src/FWlib/src/stm32f10x_flash.c ****   * @retval FLASH Status: The returned value can be: FLASH_ERROR_PG,
1593:../../source/src/FWlib/src/stm32f10x_flash.c ****   *         FLASH_ERROR_WRP, FLASH_COMPLETE or FLASH_TIMEOUT.
1594:../../source/src/FWlib/src/stm32f10x_flash.c ****   */
1595:../../source/src/FWlib/src/stm32f10x_flash.c **** FLASH_Status FLASH_WaitForLastOperation(uint32_t Timeout)
1596:../../source/src/FWlib/src/stm32f10x_flash.c **** { 
 571              		.loc 1 1596 0
 572              		.cfi_startproc
 573              		@ args = 0, pretend = 0, frame = 0
 574              		@ frame_needed = 0, uses_anonymous_args = 0
 575              	.LVL28:
 576 0140 10B5     		push	{r4, lr}
 577              	.LCFI0:
 578              		.cfi_def_cfa_offset 8
 579              		.cfi_offset 4, -8
 580              		.cfi_offset 14, -4
 581              		.loc 1 1596 0
 582 0142 0446     		mov	r4, r0
1597:../../source/src/FWlib/src/stm32f10x_flash.c ****   FLASH_Status status = FLASH_COMPLETE;
1598:../../source/src/FWlib/src/stm32f10x_flash.c ****    
1599:../../source/src/FWlib/src/stm32f10x_flash.c ****   /* Check for the Flash Status */
1600:../../source/src/FWlib/src/stm32f10x_flash.c ****   status = FLASH_GetBank1Status();
 583              		.loc 1 1600 0
 584 0144 FFF7FEFF 		bl	FLASH_GetBank1Status
 585              	.LVL29:
1601:../../source/src/FWlib/src/stm32f10x_flash.c ****   /* Wait for a Flash operation to complete or a TIMEOUT to occur */
1602:../../source/src/FWlib/src/stm32f10x_flash.c ****   while((status == FLASH_BUSY) && (Timeout != 0x00))
 586              		.loc 1 1602 0
 587 0148 0128     		cmp	r0, #1
 588 014a 06D1     		bne	.L61
 589              	.L69:
 590 014c 3CB1     		cbz	r4, .L62
 591              	.LVL30:
1603:../../source/src/FWlib/src/stm32f10x_flash.c ****   {
1604:../../source/src/FWlib/src/stm32f10x_flash.c ****     status = FLASH_GetBank1Status();
 592              		.loc 1 1604 0
 593 014e FFF7FEFF 		bl	FLASH_GetBank1Status
 594              	.LVL31:
1602:../../source/src/FWlib/src/stm32f10x_flash.c ****   {
 595              		.loc 1 1602 0
 596 0152 0128     		cmp	r0, #1
1605:../../source/src/FWlib/src/stm32f10x_flash.c ****     Timeout--;
 597              		.loc 1 1605 0
 598 0154 04F1FF34 		add	r4, r4, #-1
 599              	.LVL32:
1602:../../source/src/FWlib/src/stm32f10x_flash.c ****   {
 600              		.loc 1 1602 0
 601 0158 F8D0     		beq	.L69
 602              	.L61:
1606:../../source/src/FWlib/src/stm32f10x_flash.c ****   }
1607:../../source/src/FWlib/src/stm32f10x_flash.c ****   if(Timeout == 0x00 )
 603              		.loc 1 1607 0
ARM GAS  G:\Users\Jaxb\AppData\Local\Temp\ccck4Nii.s 			page 40


 604 015a 04B1     		cbz	r4, .L62
1608:../../source/src/FWlib/src/stm32f10x_flash.c ****   {
1609:../../source/src/FWlib/src/stm32f10x_flash.c ****     status = FLASH_TIMEOUT;
1610:../../source/src/FWlib/src/stm32f10x_flash.c ****   }
1611:../../source/src/FWlib/src/stm32f10x_flash.c ****   /* Return the operation status */
1612:../../source/src/FWlib/src/stm32f10x_flash.c ****   return status;
1613:../../source/src/FWlib/src/stm32f10x_flash.c **** }
 605              		.loc 1 1613 0
 606 015c 10BD     		pop	{r4, pc}
 607              	.LVL33:
 608              	.L62:
1609:../../source/src/FWlib/src/stm32f10x_flash.c ****   }
 609              		.loc 1 1609 0
 610 015e 0520     		movs	r0, #5
 611              	.LVL34:
 612              		.loc 1 1613 0
 613 0160 10BD     		pop	{r4, pc}
 614              		.cfi_endproc
 615              	.LFE55:
 616              		.size	FLASH_WaitForLastOperation, .-FLASH_WaitForLastOperation
 617              		.align	1
 618 0162 00BF     		.p2align 2,,3
 619              		.global	FLASH_ErasePage
 620              		.syntax unified
 621              		.thumb
 622              		.thumb_func
 623              		.fpu softvfp
 624              		.type	FLASH_ErasePage, %function
 625              	FLASH_ErasePage:
 626              	.LFB36:
 420:../../source/src/FWlib/src/stm32f10x_flash.c ****   FLASH_Status status = FLASH_COMPLETE;
 627              		.loc 1 420 0
 628              		.cfi_startproc
 629              		@ args = 0, pretend = 0, frame = 0
 630              		@ frame_needed = 0, uses_anonymous_args = 0
 631              	.LVL35:
 632 0164 38B5     		push	{r3, r4, r5, lr}
 633              	.LCFI1:
 634              		.cfi_def_cfa_offset 16
 635              		.cfi_offset 3, -16
 636              		.cfi_offset 4, -12
 637              		.cfi_offset 5, -8
 638              		.cfi_offset 14, -4
 420:../../source/src/FWlib/src/stm32f10x_flash.c ****   FLASH_Status status = FLASH_COMPLETE;
 639              		.loc 1 420 0
 640 0166 0546     		mov	r5, r0
 464:../../source/src/FWlib/src/stm32f10x_flash.c ****   
 641              		.loc 1 464 0
 642 0168 4FF43020 		mov	r0, #720896
 643              	.LVL36:
 644 016c FFF7FEFF 		bl	FLASH_WaitForLastOperation
 645              	.LVL37:
 466:../../source/src/FWlib/src/stm32f10x_flash.c ****   { 
 646              		.loc 1 466 0
 647 0170 0428     		cmp	r0, #4
 648 0172 00D0     		beq	.L72
 483:../../source/src/FWlib/src/stm32f10x_flash.c **** 
ARM GAS  G:\Users\Jaxb\AppData\Local\Temp\ccck4Nii.s 			page 41


 649              		.loc 1 483 0
 650 0174 38BD     		pop	{r3, r4, r5, pc}
 651              	.LVL38:
 652              	.L72:
 469:../../source/src/FWlib/src/stm32f10x_flash.c ****     FLASH->AR = Page_Address; 
 653              		.loc 1 469 0
 654 0176 0A4C     		ldr	r4, .L73
 474:../../source/src/FWlib/src/stm32f10x_flash.c ****     
 655              		.loc 1 474 0
 656 0178 4FF43020 		mov	r0, #720896
 657              	.LVL39:
 469:../../source/src/FWlib/src/stm32f10x_flash.c ****     FLASH->AR = Page_Address; 
 658              		.loc 1 469 0
 659 017c 2369     		ldr	r3, [r4, #16]
 660 017e 43F00203 		orr	r3, r3, #2
 661 0182 2361     		str	r3, [r4, #16]
 470:../../source/src/FWlib/src/stm32f10x_flash.c ****     FLASH->CR|= CR_STRT_Set;
 662              		.loc 1 470 0
 663 0184 6561     		str	r5, [r4, #20]
 471:../../source/src/FWlib/src/stm32f10x_flash.c ****     
 664              		.loc 1 471 0
 665 0186 2369     		ldr	r3, [r4, #16]
 666 0188 43F04003 		orr	r3, r3, #64
 667 018c 2361     		str	r3, [r4, #16]
 474:../../source/src/FWlib/src/stm32f10x_flash.c ****     
 668              		.loc 1 474 0
 669 018e FFF7FEFF 		bl	FLASH_WaitForLastOperation
 670              	.LVL40:
 477:../../source/src/FWlib/src/stm32f10x_flash.c ****   }
 671              		.loc 1 477 0
 672 0192 41F6FD72 		movw	r2, #8189
 673 0196 2369     		ldr	r3, [r4, #16]
 674 0198 1340     		ands	r3, r3, r2
 675 019a 2361     		str	r3, [r4, #16]
 483:../../source/src/FWlib/src/stm32f10x_flash.c **** 
 676              		.loc 1 483 0
 677 019c 38BD     		pop	{r3, r4, r5, pc}
 678              	.LVL41:
 679              	.L74:
 680 019e 00BF     		.align	2
 681              	.L73:
 682 01a0 00200240 		.word	1073881088
 683              		.cfi_endproc
 684              	.LFE36:
 685              		.size	FLASH_ErasePage, .-FLASH_ErasePage
 686              		.align	1
 687              		.p2align 2,,3
 688              		.global	FLASH_EraseAllPages
 689              		.syntax unified
 690              		.thumb
 691              		.thumb_func
 692              		.fpu softvfp
 693              		.type	FLASH_EraseAllPages, %function
 694              	FLASH_EraseAllPages:
 695              	.LFB37:
 493:../../source/src/FWlib/src/stm32f10x_flash.c ****   FLASH_Status status = FLASH_COMPLETE;
 696              		.loc 1 493 0
ARM GAS  G:\Users\Jaxb\AppData\Local\Temp\ccck4Nii.s 			page 42


 697              		.cfi_startproc
 698              		@ args = 0, pretend = 0, frame = 0
 699              		@ frame_needed = 0, uses_anonymous_args = 0
 700              	.LVL42:
 701 01a4 10B5     		push	{r4, lr}
 702              	.LCFI2:
 703              		.cfi_def_cfa_offset 8
 704              		.cfi_offset 4, -8
 705              		.cfi_offset 14, -4
 526:../../source/src/FWlib/src/stm32f10x_flash.c ****   if(status == FLASH_COMPLETE)
 706              		.loc 1 526 0
 707 01a6 4FF43020 		mov	r0, #720896
 708 01aa FFF7FEFF 		bl	FLASH_WaitForLastOperation
 709              	.LVL43:
 527:../../source/src/FWlib/src/stm32f10x_flash.c ****   {
 710              		.loc 1 527 0
 711 01ae 0428     		cmp	r0, #4
 712 01b0 00D0     		beq	.L77
 543:../../source/src/FWlib/src/stm32f10x_flash.c **** 
 713              		.loc 1 543 0
 714 01b2 10BD     		pop	{r4, pc}
 715              	.L77:
 530:../../source/src/FWlib/src/stm32f10x_flash.c ****      FLASH->CR |= CR_STRT_Set;
 716              		.loc 1 530 0
 717 01b4 094C     		ldr	r4, .L78
 534:../../source/src/FWlib/src/stm32f10x_flash.c **** 
 718              		.loc 1 534 0
 719 01b6 4FF43020 		mov	r0, #720896
 720              	.LVL44:
 530:../../source/src/FWlib/src/stm32f10x_flash.c ****      FLASH->CR |= CR_STRT_Set;
 721              		.loc 1 530 0
 722 01ba 2369     		ldr	r3, [r4, #16]
 723 01bc 43F00403 		orr	r3, r3, #4
 724 01c0 2361     		str	r3, [r4, #16]
 531:../../source/src/FWlib/src/stm32f10x_flash.c ****     
 725              		.loc 1 531 0
 726 01c2 2369     		ldr	r3, [r4, #16]
 727 01c4 43F04003 		orr	r3, r3, #64
 728 01c8 2361     		str	r3, [r4, #16]
 534:../../source/src/FWlib/src/stm32f10x_flash.c **** 
 729              		.loc 1 534 0
 730 01ca FFF7FEFF 		bl	FLASH_WaitForLastOperation
 731              	.LVL45:
 537:../../source/src/FWlib/src/stm32f10x_flash.c ****   }
 732              		.loc 1 537 0
 733 01ce 41F6FB72 		movw	r2, #8187
 734 01d2 2369     		ldr	r3, [r4, #16]
 735 01d4 1340     		ands	r3, r3, r2
 736 01d6 2361     		str	r3, [r4, #16]
 543:../../source/src/FWlib/src/stm32f10x_flash.c **** 
 737              		.loc 1 543 0
 738 01d8 10BD     		pop	{r4, pc}
 739              	.L79:
 740 01da 00BF     		.align	2
 741              	.L78:
 742 01dc 00200240 		.word	1073881088
 743              		.cfi_endproc
ARM GAS  G:\Users\Jaxb\AppData\Local\Temp\ccck4Nii.s 			page 43


 744              	.LFE37:
 745              		.size	FLASH_EraseAllPages, .-FLASH_EraseAllPages
 746              		.align	1
 747              		.p2align 2,,3
 748              		.global	FLASH_EraseAllBank1Pages
 749              		.syntax unified
 750              		.thumb
 751              		.thumb_func
 752              		.fpu softvfp
 753              		.type	FLASH_EraseAllBank1Pages, %function
 754              	FLASH_EraseAllBank1Pages:
 755              	.LFB63:
 756              		.cfi_startproc
 757              		@ args = 0, pretend = 0, frame = 0
 758              		@ frame_needed = 0, uses_anonymous_args = 0
 759              		@ link register save eliminated.
 760 01e0 FFF7FEBF 		b	FLASH_EraseAllPages
 761              		.cfi_endproc
 762              	.LFE63:
 763              		.size	FLASH_EraseAllBank1Pages, .-FLASH_EraseAllBank1Pages
 764              		.align	1
 765              		.p2align 2,,3
 766              		.global	FLASH_EraseOptionBytes
 767              		.syntax unified
 768              		.thumb
 769              		.thumb_func
 770              		.fpu softvfp
 771              		.type	FLASH_EraseOptionBytes, %function
 772              	FLASH_EraseOptionBytes:
 773              	.LFB39:
 617:../../source/src/FWlib/src/stm32f10x_flash.c ****   uint16_t rdptmp = RDP_Key;
 774              		.loc 1 617 0
 775              		.cfi_startproc
 776              		@ args = 0, pretend = 0, frame = 0
 777              		@ frame_needed = 0, uses_anonymous_args = 0
 778              	.LVL46:
 617:../../source/src/FWlib/src/stm32f10x_flash.c ****   uint16_t rdptmp = RDP_Key;
 779              		.loc 1 617 0
 780 01e4 38B5     		push	{r3, r4, r5, lr}
 781              	.LCFI3:
 782              		.cfi_def_cfa_offset 16
 783              		.cfi_offset 3, -16
 784              		.cfi_offset 4, -12
 785              		.cfi_offset 5, -8
 786              		.cfi_offset 14, -4
 787              	.LBB8:
 788              	.LBB9:
1243:../../source/src/FWlib/src/stm32f10x_flash.c ****   {
 789              		.loc 1 1243 0
 790 01e6 1D4C     		ldr	r4, .L96
 791              	.LBE9:
 792              	.LBE8:
 629:../../source/src/FWlib/src/stm32f10x_flash.c ****   if(status == FLASH_COMPLETE)
 793              		.loc 1 629 0
 794 01e8 4FF43020 		mov	r0, #720896
 795              	.LBB11:
 796              	.LBB10:
ARM GAS  G:\Users\Jaxb\AppData\Local\Temp\ccck4Nii.s 			page 44


1243:../../source/src/FWlib/src/stm32f10x_flash.c ****   {
 797              		.loc 1 1243 0
 798 01ec E369     		ldr	r3, [r4, #28]
 799              	.LBE10:
 800              	.LBE11:
 618:../../source/src/FWlib/src/stm32f10x_flash.c **** 
 801              		.loc 1 618 0
 802 01ee 13F0020F 		tst	r3, #2
 803 01f2 14BF     		ite	ne
 804 01f4 0025     		movne	r5, #0
 805 01f6 A525     		moveq	r5, #165
 806              	.LVL47:
 629:../../source/src/FWlib/src/stm32f10x_flash.c ****   if(status == FLASH_COMPLETE)
 807              		.loc 1 629 0
 808 01f8 FFF7FEFF 		bl	FLASH_WaitForLastOperation
 809              	.LVL48:
 630:../../source/src/FWlib/src/stm32f10x_flash.c ****   {
 810              		.loc 1 630 0
 811 01fc 0428     		cmp	r0, #4
 812 01fe 00D0     		beq	.L94
 813              	.L83:
 671:../../source/src/FWlib/src/stm32f10x_flash.c **** 
 814              		.loc 1 671 0
 815 0200 38BD     		pop	{r3, r4, r5, pc}
 816              	.LVL49:
 817              	.L94:
 633:../../source/src/FWlib/src/stm32f10x_flash.c ****     FLASH->OPTKEYR = FLASH_KEY2;
 818              		.loc 1 633 0
 819 0202 174A     		ldr	r2, .L96+4
 634:../../source/src/FWlib/src/stm32f10x_flash.c ****     
 820              		.loc 1 634 0
 821 0204 174B     		ldr	r3, .L96+8
 633:../../source/src/FWlib/src/stm32f10x_flash.c ****     FLASH->OPTKEYR = FLASH_KEY2;
 822              		.loc 1 633 0
 823 0206 A260     		str	r2, [r4, #8]
 634:../../source/src/FWlib/src/stm32f10x_flash.c ****     
 824              		.loc 1 634 0
 825 0208 A360     		str	r3, [r4, #8]
 637:../../source/src/FWlib/src/stm32f10x_flash.c ****     FLASH->CR |= CR_STRT_Set;
 826              		.loc 1 637 0
 827 020a 2369     		ldr	r3, [r4, #16]
 640:../../source/src/FWlib/src/stm32f10x_flash.c ****     
 828              		.loc 1 640 0
 829 020c 4FF43020 		mov	r0, #720896
 830              	.LVL50:
 637:../../source/src/FWlib/src/stm32f10x_flash.c ****     FLASH->CR |= CR_STRT_Set;
 831              		.loc 1 637 0
 832 0210 43F02003 		orr	r3, r3, #32
 833 0214 2361     		str	r3, [r4, #16]
 638:../../source/src/FWlib/src/stm32f10x_flash.c ****     /* Wait for last operation to be completed */
 834              		.loc 1 638 0
 835 0216 2369     		ldr	r3, [r4, #16]
 836 0218 43F04003 		orr	r3, r3, #64
 837 021c 2361     		str	r3, [r4, #16]
 640:../../source/src/FWlib/src/stm32f10x_flash.c ****     
 838              		.loc 1 640 0
 839 021e FFF7FEFF 		bl	FLASH_WaitForLastOperation
ARM GAS  G:\Users\Jaxb\AppData\Local\Temp\ccck4Nii.s 			page 45


 840              	.LVL51:
 642:../../source/src/FWlib/src/stm32f10x_flash.c ****     {
 841              		.loc 1 642 0
 842 0222 0428     		cmp	r0, #4
 843 0224 07D0     		beq	.L95
 662:../../source/src/FWlib/src/stm32f10x_flash.c ****       {
 844              		.loc 1 662 0
 845 0226 0528     		cmp	r0, #5
 846 0228 EAD0     		beq	.L83
 847              	.L92:
 665:../../source/src/FWlib/src/stm32f10x_flash.c ****       }
 848              		.loc 1 665 0
 849 022a 41F6EF72 		movw	r2, #8175
 850 022e 2369     		ldr	r3, [r4, #16]
 851 0230 1340     		ands	r3, r3, r2
 852 0232 2361     		str	r3, [r4, #16]
 671:../../source/src/FWlib/src/stm32f10x_flash.c **** 
 853              		.loc 1 671 0
 854 0234 38BD     		pop	{r3, r4, r5, pc}
 855              	.LVL52:
 856              	.L95:
 645:../../source/src/FWlib/src/stm32f10x_flash.c ****        
 857              		.loc 1 645 0
 858 0236 41F6DF71 		movw	r1, #8159
 859 023a 2369     		ldr	r3, [r4, #16]
 650:../../source/src/FWlib/src/stm32f10x_flash.c ****       /* Wait for last operation to be completed */
 860              		.loc 1 650 0
 861 023c 0A4A     		ldr	r2, .L96+12
 645:../../source/src/FWlib/src/stm32f10x_flash.c ****        
 862              		.loc 1 645 0
 863 023e 0B40     		ands	r3, r3, r1
 864 0240 2361     		str	r3, [r4, #16]
 648:../../source/src/FWlib/src/stm32f10x_flash.c ****       /* Restore the last read protection Option Byte value */
 865              		.loc 1 648 0
 866 0242 2369     		ldr	r3, [r4, #16]
 652:../../source/src/FWlib/src/stm32f10x_flash.c ****  
 867              		.loc 1 652 0
 868 0244 4FF40050 		mov	r0, #8192
 869              	.LVL53:
 648:../../source/src/FWlib/src/stm32f10x_flash.c ****       /* Restore the last read protection Option Byte value */
 870              		.loc 1 648 0
 871 0248 43F01003 		orr	r3, r3, #16
 872 024c 2361     		str	r3, [r4, #16]
 650:../../source/src/FWlib/src/stm32f10x_flash.c ****       /* Wait for last operation to be completed */
 873              		.loc 1 650 0
 874 024e 1580     		strh	r5, [r2]	@ movhi
 652:../../source/src/FWlib/src/stm32f10x_flash.c ****  
 875              		.loc 1 652 0
 876 0250 FFF7FEFF 		bl	FLASH_WaitForLastOperation
 877              	.LVL54:
 654:../../source/src/FWlib/src/stm32f10x_flash.c ****       {
 878              		.loc 1 654 0
 879 0254 0528     		cmp	r0, #5
 880 0256 E8D1     		bne	.L92
 671:../../source/src/FWlib/src/stm32f10x_flash.c **** 
 881              		.loc 1 671 0
 882 0258 38BD     		pop	{r3, r4, r5, pc}
ARM GAS  G:\Users\Jaxb\AppData\Local\Temp\ccck4Nii.s 			page 46


 883              	.LVL55:
 884              	.L97:
 885 025a 00BF     		.align	2
 886              	.L96:
 887 025c 00200240 		.word	1073881088
 888 0260 23016745 		.word	1164378403
 889 0264 AB89EFCD 		.word	-839939669
 890 0268 00F8FF1F 		.word	536868864
 891              		.cfi_endproc
 892              	.LFE39:
 893              		.size	FLASH_EraseOptionBytes, .-FLASH_EraseOptionBytes
 894              		.align	1
 895              		.p2align 2,,3
 896              		.global	FLASH_ProgramWord
 897              		.syntax unified
 898              		.thumb
 899              		.thumb_func
 900              		.fpu softvfp
 901              		.type	FLASH_ProgramWord, %function
 902              	FLASH_ProgramWord:
 903              	.LFB40:
 682:../../source/src/FWlib/src/stm32f10x_flash.c ****   FLASH_Status status = FLASH_COMPLETE;
 904              		.loc 1 682 0
 905              		.cfi_startproc
 906              		@ args = 0, pretend = 0, frame = 8
 907              		@ frame_needed = 0, uses_anonymous_args = 0
 908              	.LVL56:
 684:../../source/src/FWlib/src/stm32f10x_flash.c **** 
 909              		.loc 1 684 0
 910 026c 0023     		movs	r3, #0
 682:../../source/src/FWlib/src/stm32f10x_flash.c ****   FLASH_Status status = FLASH_COMPLETE;
 911              		.loc 1 682 0
 912 026e 70B5     		push	{r4, r5, r6, lr}
 913              	.LCFI4:
 914              		.cfi_def_cfa_offset 16
 915              		.cfi_offset 4, -16
 916              		.cfi_offset 5, -12
 917              		.cfi_offset 6, -8
 918              		.cfi_offset 14, -4
 919 0270 0546     		mov	r5, r0
 920 0272 82B0     		sub	sp, sp, #8
 921              	.LCFI5:
 922              		.cfi_def_cfa_offset 24
 812:../../source/src/FWlib/src/stm32f10x_flash.c ****   
 923              		.loc 1 812 0
 924 0274 4FF40050 		mov	r0, #8192
 925              	.LVL57:
 682:../../source/src/FWlib/src/stm32f10x_flash.c ****   FLASH_Status status = FLASH_COMPLETE;
 926              		.loc 1 682 0
 927 0278 0C46     		mov	r4, r1
 684:../../source/src/FWlib/src/stm32f10x_flash.c **** 
 928              		.loc 1 684 0
 929 027a 0193     		str	r3, [sp, #4]
 812:../../source/src/FWlib/src/stm32f10x_flash.c ****   
 930              		.loc 1 812 0
 931 027c FFF7FEFF 		bl	FLASH_WaitForLastOperation
 932              	.LVL58:
ARM GAS  G:\Users\Jaxb\AppData\Local\Temp\ccck4Nii.s 			page 47


 814:../../source/src/FWlib/src/stm32f10x_flash.c ****   {
 933              		.loc 1 814 0
 934 0280 0428     		cmp	r0, #4
 935 0282 01D0     		beq	.L101
 936              	.LVL59:
 937              	.L99:
 848:../../source/src/FWlib/src/stm32f10x_flash.c **** 
 938              		.loc 1 848 0
 939 0284 02B0     		add	sp, sp, #8
 940              	.LCFI6:
 941              		.cfi_remember_state
 942              		.cfi_def_cfa_offset 16
 943              		@ sp needed
 944 0286 70BD     		pop	{r4, r5, r6, pc}
 945              	.LVL60:
 946              	.L101:
 947              	.LCFI7:
 948              		.cfi_restore_state
 818:../../source/src/FWlib/src/stm32f10x_flash.c ****   
 949              		.loc 1 818 0
 950 0288 114E     		ldr	r6, .L103
 820:../../source/src/FWlib/src/stm32f10x_flash.c ****     /* Wait for last operation to be completed */
 951              		.loc 1 820 0
 952 028a A3B2     		uxth	r3, r4
 818:../../source/src/FWlib/src/stm32f10x_flash.c ****   
 953              		.loc 1 818 0
 954 028c 3269     		ldr	r2, [r6, #16]
 822:../../source/src/FWlib/src/stm32f10x_flash.c ****  
 955              		.loc 1 822 0
 956 028e 4FF40050 		mov	r0, #8192
 957              	.LVL61:
 818:../../source/src/FWlib/src/stm32f10x_flash.c ****   
 958              		.loc 1 818 0
 959 0292 42F00102 		orr	r2, r2, #1
 960 0296 3261     		str	r2, [r6, #16]
 820:../../source/src/FWlib/src/stm32f10x_flash.c ****     /* Wait for last operation to be completed */
 961              		.loc 1 820 0
 962 0298 2B80     		strh	r3, [r5]	@ movhi
 822:../../source/src/FWlib/src/stm32f10x_flash.c ****  
 963              		.loc 1 822 0
 964 029a FFF7FEFF 		bl	FLASH_WaitForLastOperation
 965              	.LVL62:
 824:../../source/src/FWlib/src/stm32f10x_flash.c ****     {
 966              		.loc 1 824 0
 967 029e 0428     		cmp	r0, #4
 968 02a0 06D0     		beq	.L102
 841:../../source/src/FWlib/src/stm32f10x_flash.c ****     }
 969              		.loc 1 841 0
 970 02a2 41F6FE72 		movw	r2, #8190
 971 02a6 3369     		ldr	r3, [r6, #16]
 972 02a8 1340     		ands	r3, r3, r2
 973 02aa 3361     		str	r3, [r6, #16]
 848:../../source/src/FWlib/src/stm32f10x_flash.c **** 
 974              		.loc 1 848 0
 975 02ac 02B0     		add	sp, sp, #8
 976              	.LCFI8:
 977              		.cfi_remember_state
ARM GAS  G:\Users\Jaxb\AppData\Local\Temp\ccck4Nii.s 			page 48


 978              		.cfi_def_cfa_offset 16
 979              		@ sp needed
 980 02ae 70BD     		pop	{r4, r5, r6, pc}
 981              	.LVL63:
 982              	.L102:
 983              	.LCFI9:
 984              		.cfi_restore_state
 828:../../source/src/FWlib/src/stm32f10x_flash.c **** 
 985              		.loc 1 828 0
 986 02b0 0235     		adds	r5, r5, #2
 987              	.LVL64:
 988 02b2 0195     		str	r5, [sp, #4]
 830:../../source/src/FWlib/src/stm32f10x_flash.c ****     
 989              		.loc 1 830 0
 990 02b4 019B     		ldr	r3, [sp, #4]
 991 02b6 240C     		lsrs	r4, r4, #16
 992              	.LVL65:
 993 02b8 1C80     		strh	r4, [r3]	@ movhi
 833:../../source/src/FWlib/src/stm32f10x_flash.c ****         
 994              		.loc 1 833 0
 995 02ba 4FF40050 		mov	r0, #8192
 996              	.LVL66:
 997 02be FFF7FEFF 		bl	FLASH_WaitForLastOperation
 998              	.LVL67:
 836:../../source/src/FWlib/src/stm32f10x_flash.c ****     }
 999              		.loc 1 836 0
 1000 02c2 41F6FE72 		movw	r2, #8190
 1001 02c6 3369     		ldr	r3, [r6, #16]
 1002 02c8 1340     		ands	r3, r3, r2
 1003 02ca 3361     		str	r3, [r6, #16]
 1004 02cc DAE7     		b	.L99
 1005              	.L104:
 1006 02ce 00BF     		.align	2
 1007              	.L103:
 1008 02d0 00200240 		.word	1073881088
 1009              		.cfi_endproc
 1010              	.LFE40:
 1011              		.size	FLASH_ProgramWord, .-FLASH_ProgramWord
 1012              		.align	1
 1013              		.p2align 2,,3
 1014              		.global	FLASH_ProgramHalfWord
 1015              		.syntax unified
 1016              		.thumb
 1017              		.thumb_func
 1018              		.fpu softvfp
 1019              		.type	FLASH_ProgramHalfWord, %function
 1020              	FLASH_ProgramHalfWord:
 1021              	.LFB41:
 859:../../source/src/FWlib/src/stm32f10x_flash.c ****   FLASH_Status status = FLASH_COMPLETE;
 1022              		.loc 1 859 0
 1023              		.cfi_startproc
 1024              		@ args = 0, pretend = 0, frame = 0
 1025              		@ frame_needed = 0, uses_anonymous_args = 0
 1026              	.LVL68:
 1027 02d4 70B5     		push	{r4, r5, r6, lr}
 1028              	.LCFI10:
 1029              		.cfi_def_cfa_offset 16
ARM GAS  G:\Users\Jaxb\AppData\Local\Temp\ccck4Nii.s 			page 49


 1030              		.cfi_offset 4, -16
 1031              		.cfi_offset 5, -12
 1032              		.cfi_offset 6, -8
 1033              		.cfi_offset 14, -4
 859:../../source/src/FWlib/src/stm32f10x_flash.c ****   FLASH_Status status = FLASH_COMPLETE;
 1034              		.loc 1 859 0
 1035 02d6 0446     		mov	r4, r0
 900:../../source/src/FWlib/src/stm32f10x_flash.c ****   
 1036              		.loc 1 900 0
 1037 02d8 4FF40050 		mov	r0, #8192
 1038              	.LVL69:
 859:../../source/src/FWlib/src/stm32f10x_flash.c ****   FLASH_Status status = FLASH_COMPLETE;
 1039              		.loc 1 859 0
 1040 02dc 0D46     		mov	r5, r1
 900:../../source/src/FWlib/src/stm32f10x_flash.c ****   
 1041              		.loc 1 900 0
 1042 02de FFF7FEFF 		bl	FLASH_WaitForLastOperation
 1043              	.LVL70:
 902:../../source/src/FWlib/src/stm32f10x_flash.c ****   {
 1044              		.loc 1 902 0
 1045 02e2 0428     		cmp	r0, #4
 1046 02e4 00D0     		beq	.L107
 918:../../source/src/FWlib/src/stm32f10x_flash.c **** 
 1047              		.loc 1 918 0
 1048 02e6 70BD     		pop	{r4, r5, r6, pc}
 1049              	.LVL71:
 1050              	.L107:
 905:../../source/src/FWlib/src/stm32f10x_flash.c ****   
 1051              		.loc 1 905 0
 1052 02e8 074E     		ldr	r6, .L108
 909:../../source/src/FWlib/src/stm32f10x_flash.c ****     
 1053              		.loc 1 909 0
 1054 02ea 4FF40050 		mov	r0, #8192
 1055              	.LVL72:
 905:../../source/src/FWlib/src/stm32f10x_flash.c ****   
 1056              		.loc 1 905 0
 1057 02ee 3369     		ldr	r3, [r6, #16]
 1058 02f0 43F00103 		orr	r3, r3, #1
 1059 02f4 3361     		str	r3, [r6, #16]
 907:../../source/src/FWlib/src/stm32f10x_flash.c ****     /* Wait for last operation to be completed */
 1060              		.loc 1 907 0
 1061 02f6 2580     		strh	r5, [r4]	@ movhi
 909:../../source/src/FWlib/src/stm32f10x_flash.c ****     
 1062              		.loc 1 909 0
 1063 02f8 FFF7FEFF 		bl	FLASH_WaitForLastOperation
 1064              	.LVL73:
 912:../../source/src/FWlib/src/stm32f10x_flash.c ****   } 
 1065              		.loc 1 912 0
 1066 02fc 41F6FE72 		movw	r2, #8190
 1067 0300 3369     		ldr	r3, [r6, #16]
 1068 0302 1340     		ands	r3, r3, r2
 1069 0304 3361     		str	r3, [r6, #16]
 918:../../source/src/FWlib/src/stm32f10x_flash.c **** 
 1070              		.loc 1 918 0
 1071 0306 70BD     		pop	{r4, r5, r6, pc}
 1072              	.LVL74:
 1073              	.L109:
ARM GAS  G:\Users\Jaxb\AppData\Local\Temp\ccck4Nii.s 			page 50


 1074              		.align	2
 1075              	.L108:
 1076 0308 00200240 		.word	1073881088
 1077              		.cfi_endproc
 1078              	.LFE41:
 1079              		.size	FLASH_ProgramHalfWord, .-FLASH_ProgramHalfWord
 1080              		.align	1
 1081              		.p2align 2,,3
 1082              		.global	FLASH_ProgramOptionByteData
 1083              		.syntax unified
 1084              		.thumb
 1085              		.thumb_func
 1086              		.fpu softvfp
 1087              		.type	FLASH_ProgramOptionByteData, %function
 1088              	FLASH_ProgramOptionByteData:
 1089              	.LFB42:
 930:../../source/src/FWlib/src/stm32f10x_flash.c ****   FLASH_Status status = FLASH_COMPLETE;
 1090              		.loc 1 930 0
 1091              		.cfi_startproc
 1092              		@ args = 0, pretend = 0, frame = 0
 1093              		@ frame_needed = 0, uses_anonymous_args = 0
 1094              	.LVL75:
 1095 030c 70B5     		push	{r4, r5, r6, lr}
 1096              	.LCFI11:
 1097              		.cfi_def_cfa_offset 16
 1098              		.cfi_offset 4, -16
 1099              		.cfi_offset 5, -12
 1100              		.cfi_offset 6, -8
 1101              		.cfi_offset 14, -4
 930:../../source/src/FWlib/src/stm32f10x_flash.c ****   FLASH_Status status = FLASH_COMPLETE;
 1102              		.loc 1 930 0
 1103 030e 0646     		mov	r6, r0
 934:../../source/src/FWlib/src/stm32f10x_flash.c **** 
 1104              		.loc 1 934 0
 1105 0310 4FF40050 		mov	r0, #8192
 1106              	.LVL76:
 930:../../source/src/FWlib/src/stm32f10x_flash.c ****   FLASH_Status status = FLASH_COMPLETE;
 1107              		.loc 1 930 0
 1108 0314 0C46     		mov	r4, r1
 934:../../source/src/FWlib/src/stm32f10x_flash.c **** 
 1109              		.loc 1 934 0
 1110 0316 FFF7FEFF 		bl	FLASH_WaitForLastOperation
 1111              	.LVL77:
 936:../../source/src/FWlib/src/stm32f10x_flash.c ****   {
 1112              		.loc 1 936 0
 1113 031a 0428     		cmp	r0, #4
 1114 031c 00D0     		beq	.L115
 1115              	.L111:
 955:../../source/src/FWlib/src/stm32f10x_flash.c **** 
 1116              		.loc 1 955 0
 1117 031e 70BD     		pop	{r4, r5, r6, pc}
 1118              	.LVL78:
 1119              	.L115:
 939:../../source/src/FWlib/src/stm32f10x_flash.c ****     FLASH->OPTKEYR = FLASH_KEY2;
 1120              		.loc 1 939 0
 1121 0320 0B4D     		ldr	r5, .L116
 1122 0322 0C4A     		ldr	r2, .L116+4
ARM GAS  G:\Users\Jaxb\AppData\Local\Temp\ccck4Nii.s 			page 51


 940:../../source/src/FWlib/src/stm32f10x_flash.c ****     /* Enables the Option Bytes Programming operation */
 1123              		.loc 1 940 0
 1124 0324 0C4B     		ldr	r3, .L116+8
 939:../../source/src/FWlib/src/stm32f10x_flash.c ****     FLASH->OPTKEYR = FLASH_KEY2;
 1125              		.loc 1 939 0
 1126 0326 AA60     		str	r2, [r5, #8]
 940:../../source/src/FWlib/src/stm32f10x_flash.c ****     /* Enables the Option Bytes Programming operation */
 1127              		.loc 1 940 0
 1128 0328 AB60     		str	r3, [r5, #8]
 942:../../source/src/FWlib/src/stm32f10x_flash.c ****     *(__IO uint16_t*)Address = Data;
 1129              		.loc 1 942 0
 1130 032a 2B69     		ldr	r3, [r5, #16]
 943:../../source/src/FWlib/src/stm32f10x_flash.c ****     
 1131              		.loc 1 943 0
 1132 032c A4B2     		uxth	r4, r4
 942:../../source/src/FWlib/src/stm32f10x_flash.c ****     *(__IO uint16_t*)Address = Data;
 1133              		.loc 1 942 0
 1134 032e 43F01003 		orr	r3, r3, #16
 1135 0332 2B61     		str	r3, [r5, #16]
 946:../../source/src/FWlib/src/stm32f10x_flash.c ****     if(status != FLASH_TIMEOUT)
 1136              		.loc 1 946 0
 1137 0334 4FF40050 		mov	r0, #8192
 1138              	.LVL79:
 943:../../source/src/FWlib/src/stm32f10x_flash.c ****     
 1139              		.loc 1 943 0
 1140 0338 3480     		strh	r4, [r6]	@ movhi
 946:../../source/src/FWlib/src/stm32f10x_flash.c ****     if(status != FLASH_TIMEOUT)
 1141              		.loc 1 946 0
 1142 033a FFF7FEFF 		bl	FLASH_WaitForLastOperation
 1143              	.LVL80:
 947:../../source/src/FWlib/src/stm32f10x_flash.c ****     {
 1144              		.loc 1 947 0
 1145 033e 0528     		cmp	r0, #5
 1146 0340 EDD0     		beq	.L111
 950:../../source/src/FWlib/src/stm32f10x_flash.c ****     }
 1147              		.loc 1 950 0
 1148 0342 41F6EF72 		movw	r2, #8175
 1149 0346 2B69     		ldr	r3, [r5, #16]
 1150 0348 1340     		ands	r3, r3, r2
 1151 034a 2B61     		str	r3, [r5, #16]
 955:../../source/src/FWlib/src/stm32f10x_flash.c **** 
 1152              		.loc 1 955 0
 1153 034c 70BD     		pop	{r4, r5, r6, pc}
 1154              	.LVL81:
 1155              	.L117:
 1156 034e 00BF     		.align	2
 1157              	.L116:
 1158 0350 00200240 		.word	1073881088
 1159 0354 23016745 		.word	1164378403
 1160 0358 AB89EFCD 		.word	-839939669
 1161              		.cfi_endproc
 1162              	.LFE42:
 1163              		.size	FLASH_ProgramOptionByteData, .-FLASH_ProgramOptionByteData
 1164              		.align	1
 1165              		.p2align 2,,3
 1166              		.global	FLASH_EnableWriteProtection
 1167              		.syntax unified
ARM GAS  G:\Users\Jaxb\AppData\Local\Temp\ccck4Nii.s 			page 52


 1168              		.thumb
 1169              		.thumb_func
 1170              		.fpu softvfp
 1171              		.type	FLASH_EnableWriteProtection, %function
 1172              	FLASH_EnableWriteProtection:
 1173              	.LFB43:
 976:../../source/src/FWlib/src/stm32f10x_flash.c ****   uint16_t WRP0_Data = 0xFFFF, WRP1_Data = 0xFFFF, WRP2_Data = 0xFFFF, WRP3_Data = 0xFFFF;
 1174              		.loc 1 976 0
 1175              		.cfi_startproc
 1176              		@ args = 0, pretend = 0, frame = 0
 1177              		@ frame_needed = 0, uses_anonymous_args = 0
 1178              	.LVL82:
 1179 035c 38B5     		push	{r3, r4, r5, lr}
 1180              	.LCFI12:
 1181              		.cfi_def_cfa_offset 16
 1182              		.cfi_offset 3, -16
 1183              		.cfi_offset 4, -12
 1184              		.cfi_offset 5, -8
 1185              		.cfi_offset 14, -4
 976:../../source/src/FWlib/src/stm32f10x_flash.c ****   uint16_t WRP0_Data = 0xFFFF, WRP1_Data = 0xFFFF, WRP2_Data = 0xFFFF, WRP3_Data = 0xFFFF;
 1186              		.loc 1 976 0
 1187 035e 0546     		mov	r5, r0
 1188              	.LVL83:
 991:../../source/src/FWlib/src/stm32f10x_flash.c ****   
 1189              		.loc 1 991 0
 1190 0360 4FF40050 		mov	r0, #8192
 1191              	.LVL84:
 1192 0364 FFF7FEFF 		bl	FLASH_WaitForLastOperation
 1193              	.LVL85:
 993:../../source/src/FWlib/src/stm32f10x_flash.c ****   {
 1194              		.loc 1 993 0
 1195 0368 0428     		cmp	r0, #4
 991:../../source/src/FWlib/src/stm32f10x_flash.c ****   
 1196              		.loc 1 991 0
 1197 036a 0446     		mov	r4, r0
 1198              	.LVL86:
 993:../../source/src/FWlib/src/stm32f10x_flash.c ****   {
 1199              		.loc 1 993 0
 1200 036c 01D0     		beq	.L139
 1201              	.LVL87:
 1202              	.L129:
1037:../../source/src/FWlib/src/stm32f10x_flash.c **** 
 1203              		.loc 1 1037 0
 1204 036e 2046     		mov	r0, r4
 1205 0370 38BD     		pop	{r3, r4, r5, pc}
 1206              	.LVL88:
 1207              	.L139:
 984:../../source/src/FWlib/src/stm32f10x_flash.c ****   WRP0_Data = (uint16_t)(FLASH_Pages & WRP0_Mask);
 1208              		.loc 1 984 0
 1209 0372 ED43     		mvns	r5, r5
 1210              	.LVL89:
 996:../../source/src/FWlib/src/stm32f10x_flash.c ****     FLASH->OPTKEYR = FLASH_KEY2;
 1211              		.loc 1 996 0
 1212 0374 214B     		ldr	r3, .L141
 1213 0376 2249     		ldr	r1, .L141+4
 997:../../source/src/FWlib/src/stm32f10x_flash.c ****     FLASH->CR |= CR_OPTPG_Set;
 1214              		.loc 1 997 0
ARM GAS  G:\Users\Jaxb\AppData\Local\Temp\ccck4Nii.s 			page 53


 1215 0378 224A     		ldr	r2, .L141+8
 996:../../source/src/FWlib/src/stm32f10x_flash.c ****     FLASH->OPTKEYR = FLASH_KEY2;
 1216              		.loc 1 996 0
 1217 037a 9960     		str	r1, [r3, #8]
 997:../../source/src/FWlib/src/stm32f10x_flash.c ****     FLASH->CR |= CR_OPTPG_Set;
 1218              		.loc 1 997 0
 1219 037c 9A60     		str	r2, [r3, #8]
 998:../../source/src/FWlib/src/stm32f10x_flash.c ****     if(WRP0_Data != 0xFF)
 1220              		.loc 1 998 0
 1221 037e 1A69     		ldr	r2, [r3, #16]
 985:../../source/src/FWlib/src/stm32f10x_flash.c ****   WRP1_Data = (uint16_t)((FLASH_Pages & WRP1_Mask) >> 8);
 1222              		.loc 1 985 0
 1223 0380 E9B2     		uxtb	r1, r5
 998:../../source/src/FWlib/src/stm32f10x_flash.c ****     if(WRP0_Data != 0xFF)
 1224              		.loc 1 998 0
 1225 0382 42F01002 		orr	r2, r2, #16
 999:../../source/src/FWlib/src/stm32f10x_flash.c ****     {
 1226              		.loc 1 999 0
 1227 0386 FF29     		cmp	r1, #255
 998:../../source/src/FWlib/src/stm32f10x_flash.c ****     if(WRP0_Data != 0xFF)
 1228              		.loc 1 998 0
 1229 0388 1A61     		str	r2, [r3, #16]
 999:../../source/src/FWlib/src/stm32f10x_flash.c ****     {
 1230              		.loc 1 999 0
 1231 038a 1AD1     		bne	.L120
 1232              	.LVL90:
 1233              	.L123:
 986:../../source/src/FWlib/src/stm32f10x_flash.c ****   WRP2_Data = (uint16_t)((FLASH_Pages & WRP2_Mask) >> 16);
 1234              		.loc 1 986 0
 1235 038c C5F30723 		ubfx	r3, r5, #8, #8
1006:../../source/src/FWlib/src/stm32f10x_flash.c ****     {
 1236              		.loc 1 1006 0
 1237 0390 FF2B     		cmp	r3, #255
 1238 0392 29D1     		bne	.L140
 1239              	.L122:
 987:../../source/src/FWlib/src/stm32f10x_flash.c ****   WRP3_Data = (uint16_t)((FLASH_Pages & WRP3_Mask) >> 24);
 1240              		.loc 1 987 0
 1241 0394 C5F30743 		ubfx	r3, r5, #16, #8
1013:../../source/src/FWlib/src/stm32f10x_flash.c ****     {
 1242              		.loc 1 1013 0
 1243 0398 FF2B     		cmp	r3, #255
 1244 039a 07D0     		beq	.L127
1015:../../source/src/FWlib/src/stm32f10x_flash.c ****       
 1245              		.loc 1 1015 0
 1246 039c 1A4A     		ldr	r2, .L141+12
1018:../../source/src/FWlib/src/stm32f10x_flash.c ****     }
 1247              		.loc 1 1018 0
 1248 039e 4FF40050 		mov	r0, #8192
1015:../../source/src/FWlib/src/stm32f10x_flash.c ****       
 1249              		.loc 1 1015 0
 1250 03a2 9381     		strh	r3, [r2, #12]	@ movhi
1018:../../source/src/FWlib/src/stm32f10x_flash.c ****     }
 1251              		.loc 1 1018 0
 1252 03a4 FFF7FEFF 		bl	FLASH_WaitForLastOperation
 1253              	.LVL91:
1021:../../source/src/FWlib/src/stm32f10x_flash.c ****     {
 1254              		.loc 1 1021 0
ARM GAS  G:\Users\Jaxb\AppData\Local\Temp\ccck4Nii.s 			page 54


 1255 03a8 0428     		cmp	r0, #4
 1256 03aa 12D1     		bne	.L124
 1257              	.LVL92:
 1258              	.L127:
 988:../../source/src/FWlib/src/stm32f10x_flash.c ****   
 1259              		.loc 1 988 0
 1260 03ac 2D0E     		lsrs	r5, r5, #24
 1261              	.LVL93:
1021:../../source/src/FWlib/src/stm32f10x_flash.c ****     {
 1262              		.loc 1 1021 0
 1263 03ae FF2D     		cmp	r5, #255
 1264 03b0 12D0     		beq	.L125
1023:../../source/src/FWlib/src/stm32f10x_flash.c ****      
 1265              		.loc 1 1023 0
 1266 03b2 154B     		ldr	r3, .L141+12
 988:../../source/src/FWlib/src/stm32f10x_flash.c ****   
 1267              		.loc 1 988 0
 1268 03b4 ADB2     		uxth	r5, r5
1023:../../source/src/FWlib/src/stm32f10x_flash.c ****      
 1269              		.loc 1 1023 0
 1270 03b6 DD81     		strh	r5, [r3, #14]	@ movhi
1026:../../source/src/FWlib/src/stm32f10x_flash.c ****     }
 1271              		.loc 1 1026 0
 1272 03b8 4FF40050 		mov	r0, #8192
 1273 03bc FFF7FEFF 		bl	FLASH_WaitForLastOperation
 1274              	.LVL94:
 1275 03c0 07E0     		b	.L124
 1276              	.L120:
1001:../../source/src/FWlib/src/stm32f10x_flash.c ****       
 1277              		.loc 1 1001 0
 1278 03c2 114B     		ldr	r3, .L141+12
1004:../../source/src/FWlib/src/stm32f10x_flash.c ****     }
 1279              		.loc 1 1004 0
 1280 03c4 4FF40050 		mov	r0, #8192
 1281              	.LVL95:
1001:../../source/src/FWlib/src/stm32f10x_flash.c ****       
 1282              		.loc 1 1001 0
 1283 03c8 1981     		strh	r1, [r3, #8]	@ movhi
1004:../../source/src/FWlib/src/stm32f10x_flash.c ****     }
 1284              		.loc 1 1004 0
 1285 03ca FFF7FEFF 		bl	FLASH_WaitForLastOperation
 1286              	.LVL96:
1006:../../source/src/FWlib/src/stm32f10x_flash.c ****     {
 1287              		.loc 1 1006 0
 1288 03ce 0428     		cmp	r0, #4
 1289 03d0 DCD0     		beq	.L123
 1290              	.LVL97:
 1291              	.L124:
1029:../../source/src/FWlib/src/stm32f10x_flash.c ****     {
 1292              		.loc 1 1029 0
 1293 03d2 0528     		cmp	r0, #5
 1294 03d4 0446     		mov	r4, r0
 1295 03d6 CAD0     		beq	.L129
 1296              	.LVL98:
 1297              	.L125:
1032:../../source/src/FWlib/src/stm32f10x_flash.c ****     }
 1298              		.loc 1 1032 0
ARM GAS  G:\Users\Jaxb\AppData\Local\Temp\ccck4Nii.s 			page 55


 1299 03d8 41F6EF71 		movw	r1, #8175
 1300 03dc 074A     		ldr	r2, .L141
1037:../../source/src/FWlib/src/stm32f10x_flash.c **** 
 1301              		.loc 1 1037 0
 1302 03de 2046     		mov	r0, r4
1032:../../source/src/FWlib/src/stm32f10x_flash.c ****     }
 1303              		.loc 1 1032 0
 1304 03e0 1369     		ldr	r3, [r2, #16]
 1305 03e2 0B40     		ands	r3, r3, r1
 1306 03e4 1361     		str	r3, [r2, #16]
1037:../../source/src/FWlib/src/stm32f10x_flash.c **** 
 1307              		.loc 1 1037 0
 1308 03e6 38BD     		pop	{r3, r4, r5, pc}
 1309              	.L140:
1008:../../source/src/FWlib/src/stm32f10x_flash.c ****       
 1310              		.loc 1 1008 0
 1311 03e8 074A     		ldr	r2, .L141+12
1011:../../source/src/FWlib/src/stm32f10x_flash.c ****     }
 1312              		.loc 1 1011 0
 1313 03ea 4FF40050 		mov	r0, #8192
1008:../../source/src/FWlib/src/stm32f10x_flash.c ****       
 1314              		.loc 1 1008 0
 1315 03ee 5381     		strh	r3, [r2, #10]	@ movhi
1011:../../source/src/FWlib/src/stm32f10x_flash.c ****     }
 1316              		.loc 1 1011 0
 1317 03f0 FFF7FEFF 		bl	FLASH_WaitForLastOperation
 1318              	.LVL99:
1013:../../source/src/FWlib/src/stm32f10x_flash.c ****     {
 1319              		.loc 1 1013 0
 1320 03f4 0428     		cmp	r0, #4
 1321 03f6 CDD0     		beq	.L122
 1322 03f8 EBE7     		b	.L124
 1323              	.L142:
 1324 03fa 00BF     		.align	2
 1325              	.L141:
 1326 03fc 00200240 		.word	1073881088
 1327 0400 23016745 		.word	1164378403
 1328 0404 AB89EFCD 		.word	-839939669
 1329 0408 00F8FF1F 		.word	536868864
 1330              		.cfi_endproc
 1331              	.LFE43:
 1332              		.size	FLASH_EnableWriteProtection, .-FLASH_EnableWriteProtection
 1333              		.align	1
 1334              		.p2align 2,,3
 1335              		.global	FLASH_ReadOutProtection
 1336              		.syntax unified
 1337              		.thumb
 1338              		.thumb_func
 1339              		.fpu softvfp
 1340              		.type	FLASH_ReadOutProtection, %function
 1341              	FLASH_ReadOutProtection:
 1342              	.LFB44:
1050:../../source/src/FWlib/src/stm32f10x_flash.c ****   FLASH_Status status = FLASH_COMPLETE;
 1343              		.loc 1 1050 0
 1344              		.cfi_startproc
 1345              		@ args = 0, pretend = 0, frame = 0
 1346              		@ frame_needed = 0, uses_anonymous_args = 0
ARM GAS  G:\Users\Jaxb\AppData\Local\Temp\ccck4Nii.s 			page 56


 1347              	.LVL100:
 1348 040c 38B5     		push	{r3, r4, r5, lr}
 1349              	.LCFI13:
 1350              		.cfi_def_cfa_offset 16
 1351              		.cfi_offset 3, -16
 1352              		.cfi_offset 4, -12
 1353              		.cfi_offset 5, -8
 1354              		.cfi_offset 14, -4
1050:../../source/src/FWlib/src/stm32f10x_flash.c ****   FLASH_Status status = FLASH_COMPLETE;
 1355              		.loc 1 1050 0
 1356 040e 0546     		mov	r5, r0
1054:../../source/src/FWlib/src/stm32f10x_flash.c ****   if(status == FLASH_COMPLETE)
 1357              		.loc 1 1054 0
 1358 0410 4FF43020 		mov	r0, #720896
 1359              	.LVL101:
 1360 0414 FFF7FEFF 		bl	FLASH_WaitForLastOperation
 1361              	.LVL102:
1055:../../source/src/FWlib/src/stm32f10x_flash.c ****   {
 1362              		.loc 1 1055 0
 1363 0418 0428     		cmp	r0, #4
 1364 041a 00D0     		beq	.L154
 1365              	.L144:
1098:../../source/src/FWlib/src/stm32f10x_flash.c **** 
 1366              		.loc 1 1098 0
 1367 041c 38BD     		pop	{r3, r4, r5, pc}
 1368              	.L154:
1058:../../source/src/FWlib/src/stm32f10x_flash.c ****     FLASH->OPTKEYR = FLASH_KEY2;
 1369              		.loc 1 1058 0
 1370 041e 1C4C     		ldr	r4, .L157
 1371 0420 1C4A     		ldr	r2, .L157+4
1059:../../source/src/FWlib/src/stm32f10x_flash.c ****     FLASH->CR |= CR_OPTER_Set;
 1372              		.loc 1 1059 0
 1373 0422 1D4B     		ldr	r3, .L157+8
1058:../../source/src/FWlib/src/stm32f10x_flash.c ****     FLASH->OPTKEYR = FLASH_KEY2;
 1374              		.loc 1 1058 0
 1375 0424 A260     		str	r2, [r4, #8]
1059:../../source/src/FWlib/src/stm32f10x_flash.c ****     FLASH->CR |= CR_OPTER_Set;
 1376              		.loc 1 1059 0
 1377 0426 A360     		str	r3, [r4, #8]
1060:../../source/src/FWlib/src/stm32f10x_flash.c ****     FLASH->CR |= CR_STRT_Set;
 1378              		.loc 1 1060 0
 1379 0428 2369     		ldr	r3, [r4, #16]
1063:../../source/src/FWlib/src/stm32f10x_flash.c ****     if(status == FLASH_COMPLETE)
 1380              		.loc 1 1063 0
 1381 042a 4FF43020 		mov	r0, #720896
 1382              	.LVL103:
1060:../../source/src/FWlib/src/stm32f10x_flash.c ****     FLASH->CR |= CR_STRT_Set;
 1383              		.loc 1 1060 0
 1384 042e 43F02003 		orr	r3, r3, #32
 1385 0432 2361     		str	r3, [r4, #16]
1061:../../source/src/FWlib/src/stm32f10x_flash.c ****     /* Wait for last operation to be completed */
 1386              		.loc 1 1061 0
 1387 0434 2369     		ldr	r3, [r4, #16]
 1388 0436 43F04003 		orr	r3, r3, #64
 1389 043a 2361     		str	r3, [r4, #16]
1063:../../source/src/FWlib/src/stm32f10x_flash.c ****     if(status == FLASH_COMPLETE)
 1390              		.loc 1 1063 0
ARM GAS  G:\Users\Jaxb\AppData\Local\Temp\ccck4Nii.s 			page 57


 1391 043c FFF7FEFF 		bl	FLASH_WaitForLastOperation
 1392              	.LVL104:
1064:../../source/src/FWlib/src/stm32f10x_flash.c ****     {
 1393              		.loc 1 1064 0
 1394 0440 0428     		cmp	r0, #4
 1395 0442 07D0     		beq	.L155
1089:../../source/src/FWlib/src/stm32f10x_flash.c ****       {
 1396              		.loc 1 1089 0
 1397 0444 0528     		cmp	r0, #5
 1398 0446 E9D0     		beq	.L144
1092:../../source/src/FWlib/src/stm32f10x_flash.c ****       }
 1399              		.loc 1 1092 0
 1400 0448 41F6DF72 		movw	r2, #8159
 1401 044c 2369     		ldr	r3, [r4, #16]
 1402 044e 1340     		ands	r3, r3, r2
 1403 0450 2361     		str	r3, [r4, #16]
1098:../../source/src/FWlib/src/stm32f10x_flash.c **** 
 1404              		.loc 1 1098 0
 1405 0452 38BD     		pop	{r3, r4, r5, pc}
 1406              	.L155:
1067:../../source/src/FWlib/src/stm32f10x_flash.c ****       /* Enable the Option Bytes Programming operation */
 1407              		.loc 1 1067 0
 1408 0454 41F6DF72 		movw	r2, #8159
 1409 0458 2369     		ldr	r3, [r4, #16]
 1410 045a 1340     		ands	r3, r3, r2
 1411 045c 2361     		str	r3, [r4, #16]
1069:../../source/src/FWlib/src/stm32f10x_flash.c ****       if(NewState != DISABLE)
 1412              		.loc 1 1069 0
 1413 045e 2369     		ldr	r3, [r4, #16]
 1414 0460 43F01003 		orr	r3, r3, #16
 1415 0464 2361     		str	r3, [r4, #16]
1070:../../source/src/FWlib/src/stm32f10x_flash.c ****       {
 1416              		.loc 1 1070 0
 1417 0466 7DB9     		cbnz	r5, .L156
1076:../../source/src/FWlib/src/stm32f10x_flash.c ****       }
 1418              		.loc 1 1076 0
 1419 0468 A522     		movs	r2, #165
 1420 046a 0C4B     		ldr	r3, .L157+12
 1421 046c 1A80     		strh	r2, [r3]	@ movhi
 1422              	.L147:
1079:../../source/src/FWlib/src/stm32f10x_flash.c ****     
 1423              		.loc 1 1079 0
 1424 046e 4FF43020 		mov	r0, #720896
 1425              	.LVL105:
 1426 0472 FFF7FEFF 		bl	FLASH_WaitForLastOperation
 1427              	.LVL106:
1081:../../source/src/FWlib/src/stm32f10x_flash.c ****       {
 1428              		.loc 1 1081 0
 1429 0476 0528     		cmp	r0, #5
 1430 0478 D0D0     		beq	.L144
1084:../../source/src/FWlib/src/stm32f10x_flash.c ****       }
 1431              		.loc 1 1084 0
 1432 047a 41F6EF71 		movw	r1, #8175
 1433 047e 044A     		ldr	r2, .L157
 1434 0480 1369     		ldr	r3, [r2, #16]
 1435 0482 0B40     		ands	r3, r3, r1
 1436 0484 1361     		str	r3, [r2, #16]
ARM GAS  G:\Users\Jaxb\AppData\Local\Temp\ccck4Nii.s 			page 58


1098:../../source/src/FWlib/src/stm32f10x_flash.c **** 
 1437              		.loc 1 1098 0
 1438 0486 38BD     		pop	{r3, r4, r5, pc}
 1439              	.L156:
1072:../../source/src/FWlib/src/stm32f10x_flash.c ****       }
 1440              		.loc 1 1072 0
 1441 0488 0022     		movs	r2, #0
 1442 048a 044B     		ldr	r3, .L157+12
 1443 048c 1A80     		strh	r2, [r3]	@ movhi
 1444 048e EEE7     		b	.L147
 1445              	.L158:
 1446              		.align	2
 1447              	.L157:
 1448 0490 00200240 		.word	1073881088
 1449 0494 23016745 		.word	1164378403
 1450 0498 AB89EFCD 		.word	-839939669
 1451 049c 00F8FF1F 		.word	536868864
 1452              		.cfi_endproc
 1453              	.LFE44:
 1454              		.size	FLASH_ReadOutProtection, .-FLASH_ReadOutProtection
 1455              		.align	1
 1456              		.p2align 2,,3
 1457              		.global	FLASH_UserOptionByteConfig
 1458              		.syntax unified
 1459              		.thumb
 1460              		.thumb_func
 1461              		.fpu softvfp
 1462              		.type	FLASH_UserOptionByteConfig, %function
 1463              	FLASH_UserOptionByteConfig:
 1464              	.LFB45:
1119:../../source/src/FWlib/src/stm32f10x_flash.c ****   FLASH_Status status = FLASH_COMPLETE; 
 1465              		.loc 1 1119 0
 1466              		.cfi_startproc
 1467              		@ args = 0, pretend = 0, frame = 0
 1468              		@ frame_needed = 0, uses_anonymous_args = 0
 1469              	.LVL107:
 1470 04a0 F8B5     		push	{r3, r4, r5, r6, r7, lr}
 1471              	.LCFI14:
 1472              		.cfi_def_cfa_offset 24
 1473              		.cfi_offset 3, -24
 1474              		.cfi_offset 4, -20
 1475              		.cfi_offset 5, -16
 1476              		.cfi_offset 6, -12
 1477              		.cfi_offset 7, -8
 1478              		.cfi_offset 14, -4
1128:../../source/src/FWlib/src/stm32f10x_flash.c ****   FLASH->OPTKEYR = FLASH_KEY2;
 1479              		.loc 1 1128 0
 1480 04a2 124C     		ldr	r4, .L165
 1481 04a4 124D     		ldr	r5, .L165+4
1129:../../source/src/FWlib/src/stm32f10x_flash.c ****   
 1482              		.loc 1 1129 0
 1483 04a6 134B     		ldr	r3, .L165+8
1128:../../source/src/FWlib/src/stm32f10x_flash.c ****   FLASH->OPTKEYR = FLASH_KEY2;
 1484              		.loc 1 1128 0
 1485 04a8 A560     		str	r5, [r4, #8]
1119:../../source/src/FWlib/src/stm32f10x_flash.c ****   FLASH_Status status = FLASH_COMPLETE; 
 1486              		.loc 1 1119 0
ARM GAS  G:\Users\Jaxb\AppData\Local\Temp\ccck4Nii.s 			page 59


 1487 04aa 0746     		mov	r7, r0
1129:../../source/src/FWlib/src/stm32f10x_flash.c ****   
 1488              		.loc 1 1129 0
 1489 04ac A360     		str	r3, [r4, #8]
1132:../../source/src/FWlib/src/stm32f10x_flash.c ****   
 1490              		.loc 1 1132 0
 1491 04ae 4FF40050 		mov	r0, #8192
 1492              	.LVL108:
1119:../../source/src/FWlib/src/stm32f10x_flash.c ****   FLASH_Status status = FLASH_COMPLETE; 
 1493              		.loc 1 1119 0
 1494 04b2 0E46     		mov	r6, r1
 1495 04b4 1546     		mov	r5, r2
1132:../../source/src/FWlib/src/stm32f10x_flash.c ****   
 1496              		.loc 1 1132 0
 1497 04b6 FFF7FEFF 		bl	FLASH_WaitForLastOperation
 1498              	.LVL109:
1134:../../source/src/FWlib/src/stm32f10x_flash.c ****   {  
 1499              		.loc 1 1134 0
 1500 04ba 0428     		cmp	r0, #4
 1501 04bc 00D0     		beq	.L164
 1502              	.L160:
1151:../../source/src/FWlib/src/stm32f10x_flash.c **** 
 1503              		.loc 1 1151 0
 1504 04be F8BD     		pop	{r3, r4, r5, r6, r7, pc}
 1505              	.L164:
1137:../../source/src/FWlib/src/stm32f10x_flash.c ****            
 1506              		.loc 1 1137 0
 1507 04c0 2369     		ldr	r3, [r4, #16]
1139:../../source/src/FWlib/src/stm32f10x_flash.c ****   
 1508              		.loc 1 1139 0
 1509 04c2 47F0F807 		orr	r7, r7, #248
 1510 04c6 0C4A     		ldr	r2, .L165+12
 1511 04c8 3E43     		orrs	r6, r6, r7
1137:../../source/src/FWlib/src/stm32f10x_flash.c ****            
 1512              		.loc 1 1137 0
 1513 04ca 43F01003 		orr	r3, r3, #16
1139:../../source/src/FWlib/src/stm32f10x_flash.c ****   
 1514              		.loc 1 1139 0
 1515 04ce 3543     		orrs	r5, r5, r6
1137:../../source/src/FWlib/src/stm32f10x_flash.c ****            
 1516              		.loc 1 1137 0
 1517 04d0 2361     		str	r3, [r4, #16]
1142:../../source/src/FWlib/src/stm32f10x_flash.c ****     if(status != FLASH_TIMEOUT)
 1518              		.loc 1 1142 0
 1519 04d2 4FF40050 		mov	r0, #8192
 1520              	.LVL110:
1139:../../source/src/FWlib/src/stm32f10x_flash.c ****   
 1521              		.loc 1 1139 0
 1522 04d6 5580     		strh	r5, [r2, #2]	@ movhi
1142:../../source/src/FWlib/src/stm32f10x_flash.c ****     if(status != FLASH_TIMEOUT)
 1523              		.loc 1 1142 0
 1524 04d8 FFF7FEFF 		bl	FLASH_WaitForLastOperation
 1525              	.LVL111:
1143:../../source/src/FWlib/src/stm32f10x_flash.c ****     {
 1526              		.loc 1 1143 0
 1527 04dc 0528     		cmp	r0, #5
 1528 04de EED0     		beq	.L160
ARM GAS  G:\Users\Jaxb\AppData\Local\Temp\ccck4Nii.s 			page 60


1146:../../source/src/FWlib/src/stm32f10x_flash.c ****     }
 1529              		.loc 1 1146 0
 1530 04e0 41F6EF72 		movw	r2, #8175
 1531 04e4 2369     		ldr	r3, [r4, #16]
 1532 04e6 1340     		ands	r3, r3, r2
 1533 04e8 2361     		str	r3, [r4, #16]
1151:../../source/src/FWlib/src/stm32f10x_flash.c **** 
 1534              		.loc 1 1151 0
 1535 04ea F8BD     		pop	{r3, r4, r5, r6, r7, pc}
 1536              	.L166:
 1537              		.align	2
 1538              	.L165:
 1539 04ec 00200240 		.word	1073881088
 1540 04f0 23016745 		.word	1164378403
 1541 04f4 AB89EFCD 		.word	-839939669
 1542 04f8 00F8FF1F 		.word	536868864
 1543              		.cfi_endproc
 1544              	.LFE45:
 1545              		.size	FLASH_UserOptionByteConfig, .-FLASH_UserOptionByteConfig
 1546              		.align	1
 1547              		.p2align 2,,3
 1548              		.global	FLASH_WaitForLastBank1Operation
 1549              		.syntax unified
 1550              		.thumb
 1551              		.thumb_func
 1552              		.fpu softvfp
 1553              		.type	FLASH_WaitForLastBank1Operation, %function
 1554              	FLASH_WaitForLastBank1Operation:
 1555              	.LFB65:
 1556              		.cfi_startproc
 1557              		@ args = 0, pretend = 0, frame = 0
 1558              		@ frame_needed = 0, uses_anonymous_args = 0
 1559              		@ link register save eliminated.
 1560 04fc FFF7FEBF 		b	FLASH_WaitForLastOperation
 1561              		.cfi_endproc
 1562              	.LFE65:
 1563              		.size	FLASH_WaitForLastBank1Operation, .-FLASH_WaitForLastBank1Operation
 1564              	.Letext0:
 1565              		.file 2 "f:\\arm\\gcc2018\\arm-none-eabi\\include\\machine\\_default_types.h"
 1566              		.file 3 "f:\\arm\\gcc2018\\arm-none-eabi\\include\\sys\\_stdint.h"
 1567              		.file 4 "../../source/include/core_cm3.h"
 1568              		.file 5 "../../source/include/system_stm32f10x.h"
 1569              		.file 6 "../../source/include/stm32f10x.h"
 1570              		.file 7 "../../source/src/FWlib/inc/stm32f10x_flash.h"