ARM GAS  G:\Users\Jaxb\AppData\Local\Temp\ccRPtXAk.s 			page 1


   1              		.cpu cortex-m3
   2              		.eabi_attribute 20, 1
   3              		.eabi_attribute 21, 1
   4              		.eabi_attribute 23, 3
   5              		.eabi_attribute 24, 1
   6              		.eabi_attribute 25, 1
   7              		.eabi_attribute 26, 1
   8              		.eabi_attribute 30, 6
   9              		.eabi_attribute 34, 1
  10              		.eabi_attribute 18, 4
  11              		.file	"system_stm32f10x.c"
  12              		.text
  13              	.Ltext0:
  14              		.cfi_sections	.debug_frame
  15              		.global	SystemCoreClock
  16              		.data
  17              		.align	2
  18              		.type	SystemCoreClock, %object
  19              		.size	SystemCoreClock, 4
  20              	SystemCoreClock:
  21 0000 00A24A04 		.word	72000000
  22              		.global	AHBPrescTable
  23              		.align	2
  24              		.type	AHBPrescTable, %object
  25              		.size	AHBPrescTable, 16
  26              	AHBPrescTable:
  27 0004 00       		.byte	0
  28 0005 00       		.byte	0
  29 0006 00       		.byte	0
  30 0007 00       		.byte	0
  31 0008 00       		.byte	0
  32 0009 00       		.byte	0
  33 000a 00       		.byte	0
  34 000b 00       		.byte	0
  35 000c 01       		.byte	1
  36 000d 02       		.byte	2
  37 000e 03       		.byte	3
  38 000f 04       		.byte	4
  39 0010 06       		.byte	6
  40 0011 07       		.byte	7
  41 0012 08       		.byte	8
  42 0013 09       		.byte	9
  43              		.text
  44              		.align	1
  45              		.global	SystemInit
  46              		.syntax unified
  47              		.thumb
  48              		.thumb_func
  49              		.fpu softvfp
  50              		.type	SystemInit, %function
  51              	SystemInit:
  52              	.LFB29:
  53              		.file 1 "../../source/src/CMSIS/system_stm32f10x.c"
   1:../../source/src/CMSIS/system_stm32f10x.c **** /**
   2:../../source/src/CMSIS/system_stm32f10x.c ****   ******************************************************************************
   3:../../source/src/CMSIS/system_stm32f10x.c ****   * @file    system_stm32f10x.c
   4:../../source/src/CMSIS/system_stm32f10x.c ****   * @author  MCD Application Team
ARM GAS  G:\Users\Jaxb\AppData\Local\Temp\ccRPtXAk.s 			page 2


   5:../../source/src/CMSIS/system_stm32f10x.c ****   * @version V3.5.0
   6:../../source/src/CMSIS/system_stm32f10x.c ****   * @date    11-March-2011
   7:../../source/src/CMSIS/system_stm32f10x.c ****   * @brief   CMSIS Cortex-M3 Device Peripheral Access Layer System Source File.
   8:../../source/src/CMSIS/system_stm32f10x.c ****   * 
   9:../../source/src/CMSIS/system_stm32f10x.c ****   * 1.  This file provides two functions and one global variable to be called from 
  10:../../source/src/CMSIS/system_stm32f10x.c ****   *     user application:
  11:../../source/src/CMSIS/system_stm32f10x.c ****   *      - SystemInit(): Setups the system clock (System clock source, PLL Multiplier
  12:../../source/src/CMSIS/system_stm32f10x.c ****   *                      factors, AHB/APBx prescalers and Flash settings). 
  13:../../source/src/CMSIS/system_stm32f10x.c ****   *                      This function is called at startup just after reset and 
  14:../../source/src/CMSIS/system_stm32f10x.c ****   *                      before branch to main program. This call is made inside
  15:../../source/src/CMSIS/system_stm32f10x.c ****   *                      the "startup_stm32f10x_xx.s" file.
  16:../../source/src/CMSIS/system_stm32f10x.c ****   *
  17:../../source/src/CMSIS/system_stm32f10x.c ****   *      - SystemCoreClock variable: Contains the core clock (HCLK), it can be used
  18:../../source/src/CMSIS/system_stm32f10x.c ****   *                                  by the user application to setup the SysTick 
  19:../../source/src/CMSIS/system_stm32f10x.c ****   *                                  timer or configure other parameters.
  20:../../source/src/CMSIS/system_stm32f10x.c ****   *                                     
  21:../../source/src/CMSIS/system_stm32f10x.c ****   *      - SystemCoreClockUpdate(): Updates the variable SystemCoreClock and must
  22:../../source/src/CMSIS/system_stm32f10x.c ****   *                                 be called whenever the core clock is changed
  23:../../source/src/CMSIS/system_stm32f10x.c ****   *                                 during program execution.
  24:../../source/src/CMSIS/system_stm32f10x.c ****   *
  25:../../source/src/CMSIS/system_stm32f10x.c ****   * 2. After each device reset the HSI (8 MHz) is used as system clock source.
  26:../../source/src/CMSIS/system_stm32f10x.c ****   *    Then SystemInit() function is called, in "startup_stm32f10x_xx.s" file, to
  27:../../source/src/CMSIS/system_stm32f10x.c ****   *    configure the system clock before to branch to main program.
  28:../../source/src/CMSIS/system_stm32f10x.c ****   *
  29:../../source/src/CMSIS/system_stm32f10x.c ****   * 3. If the system clock source selected by user fails to startup, the SystemInit()
  30:../../source/src/CMSIS/system_stm32f10x.c ****   *    function will do nothing and HSI still used as system clock source. User can 
  31:../../source/src/CMSIS/system_stm32f10x.c ****   *    add some code to deal with this issue inside the SetSysClock() function.
  32:../../source/src/CMSIS/system_stm32f10x.c ****   *
  33:../../source/src/CMSIS/system_stm32f10x.c ****   * 4. The default value of HSE crystal is set to 8 MHz (or 25 MHz, depedning on
  34:../../source/src/CMSIS/system_stm32f10x.c ****   *    the product used), refer to "HSE_VALUE" define in "stm32f10x.h" file. 
  35:../../source/src/CMSIS/system_stm32f10x.c ****   *    When HSE is used as system clock source, directly or through PLL, and you
  36:../../source/src/CMSIS/system_stm32f10x.c ****   *    are using different crystal you have to adapt the HSE value to your own
  37:../../source/src/CMSIS/system_stm32f10x.c ****   *    configuration.
  38:../../source/src/CMSIS/system_stm32f10x.c ****   *        
  39:../../source/src/CMSIS/system_stm32f10x.c ****   ******************************************************************************
  40:../../source/src/CMSIS/system_stm32f10x.c ****   * @attention
  41:../../source/src/CMSIS/system_stm32f10x.c ****   *
  42:../../source/src/CMSIS/system_stm32f10x.c ****   * THE PRESENT FIRMWARE WHICH IS FOR GUIDANCE ONLY AIMS AT PROVIDING CUSTOMERS
  43:../../source/src/CMSIS/system_stm32f10x.c ****   * WITH CODING INFORMATION REGARDING THEIR PRODUCTS IN ORDER FOR THEM TO SAVE
  44:../../source/src/CMSIS/system_stm32f10x.c ****   * TIME. AS A RESULT, STMICROELECTRONICS SHALL NOT BE HELD LIABLE FOR ANY
  45:../../source/src/CMSIS/system_stm32f10x.c ****   * DIRECT, INDIRECT OR CONSEQUENTIAL DAMAGES WITH RESPECT TO ANY CLAIMS ARISING
  46:../../source/src/CMSIS/system_stm32f10x.c ****   * FROM THE CONTENT OF SUCH FIRMWARE AND/OR THE USE MADE BY CUSTOMERS OF THE
  47:../../source/src/CMSIS/system_stm32f10x.c ****   * CODING INFORMATION CONTAINED HEREIN IN CONNECTION WITH THEIR PRODUCTS.
  48:../../source/src/CMSIS/system_stm32f10x.c ****   *
  49:../../source/src/CMSIS/system_stm32f10x.c ****   * <h2><center>&copy; COPYRIGHT 2011 STMicroelectronics</center></h2>
  50:../../source/src/CMSIS/system_stm32f10x.c ****   ******************************************************************************
  51:../../source/src/CMSIS/system_stm32f10x.c ****   */
  52:../../source/src/CMSIS/system_stm32f10x.c **** 
  53:../../source/src/CMSIS/system_stm32f10x.c **** /** @addtogroup CMSIS
  54:../../source/src/CMSIS/system_stm32f10x.c ****   * @{
  55:../../source/src/CMSIS/system_stm32f10x.c ****   */
  56:../../source/src/CMSIS/system_stm32f10x.c **** 
  57:../../source/src/CMSIS/system_stm32f10x.c **** /** @addtogroup stm32f10x_system
  58:../../source/src/CMSIS/system_stm32f10x.c ****   * @{
  59:../../source/src/CMSIS/system_stm32f10x.c ****   */  
  60:../../source/src/CMSIS/system_stm32f10x.c ****   
  61:../../source/src/CMSIS/system_stm32f10x.c **** /** @addtogroup STM32F10x_System_Private_Includes
ARM GAS  G:\Users\Jaxb\AppData\Local\Temp\ccRPtXAk.s 			page 3


  62:../../source/src/CMSIS/system_stm32f10x.c ****   * @{
  63:../../source/src/CMSIS/system_stm32f10x.c ****   */
  64:../../source/src/CMSIS/system_stm32f10x.c **** 
  65:../../source/src/CMSIS/system_stm32f10x.c **** #include "stm32f10x.h"
  66:../../source/src/CMSIS/system_stm32f10x.c **** 
  67:../../source/src/CMSIS/system_stm32f10x.c **** /**
  68:../../source/src/CMSIS/system_stm32f10x.c ****   * @}
  69:../../source/src/CMSIS/system_stm32f10x.c ****   */
  70:../../source/src/CMSIS/system_stm32f10x.c **** 
  71:../../source/src/CMSIS/system_stm32f10x.c **** /** @addtogroup STM32F10x_System_Private_TypesDefinitions
  72:../../source/src/CMSIS/system_stm32f10x.c ****   * @{
  73:../../source/src/CMSIS/system_stm32f10x.c ****   */
  74:../../source/src/CMSIS/system_stm32f10x.c **** 
  75:../../source/src/CMSIS/system_stm32f10x.c **** /**
  76:../../source/src/CMSIS/system_stm32f10x.c ****   * @}
  77:../../source/src/CMSIS/system_stm32f10x.c ****   */
  78:../../source/src/CMSIS/system_stm32f10x.c **** 
  79:../../source/src/CMSIS/system_stm32f10x.c **** /** @addtogroup STM32F10x_System_Private_Defines
  80:../../source/src/CMSIS/system_stm32f10x.c ****   * @{
  81:../../source/src/CMSIS/system_stm32f10x.c ****   */
  82:../../source/src/CMSIS/system_stm32f10x.c **** 
  83:../../source/src/CMSIS/system_stm32f10x.c **** /*!< Uncomment the line corresponding to the desired System clock (SYSCLK)
  84:../../source/src/CMSIS/system_stm32f10x.c ****    frequency (after reset the HSI is used as SYSCLK source)
  85:../../source/src/CMSIS/system_stm32f10x.c ****    
  86:../../source/src/CMSIS/system_stm32f10x.c ****    IMPORTANT NOTE:
  87:../../source/src/CMSIS/system_stm32f10x.c ****    ============== 
  88:../../source/src/CMSIS/system_stm32f10x.c ****    1. After each device reset the HSI is used as System clock source.
  89:../../source/src/CMSIS/system_stm32f10x.c **** 
  90:../../source/src/CMSIS/system_stm32f10x.c ****    2. Please make sure that the selected System clock doesn't exceed your device's
  91:../../source/src/CMSIS/system_stm32f10x.c ****       maximum frequency.
  92:../../source/src/CMSIS/system_stm32f10x.c ****       
  93:../../source/src/CMSIS/system_stm32f10x.c ****    3. If none of the define below is enabled, the HSI is used as System clock
  94:../../source/src/CMSIS/system_stm32f10x.c ****     source.
  95:../../source/src/CMSIS/system_stm32f10x.c **** 
  96:../../source/src/CMSIS/system_stm32f10x.c ****    4. The System clock configuration functions provided within this file assume that:
  97:../../source/src/CMSIS/system_stm32f10x.c ****         - For Low, Medium and High density Value line devices an external 8MHz 
  98:../../source/src/CMSIS/system_stm32f10x.c ****           crystal is used to drive the System clock.
  99:../../source/src/CMSIS/system_stm32f10x.c ****         - For Low, Medium and High density devices an external 8MHz crystal is
 100:../../source/src/CMSIS/system_stm32f10x.c ****           used to drive the System clock.
 101:../../source/src/CMSIS/system_stm32f10x.c ****         - For Connectivity line devices an external 25MHz crystal is used to drive
 102:../../source/src/CMSIS/system_stm32f10x.c ****           the System clock.
 103:../../source/src/CMSIS/system_stm32f10x.c ****      If you are using different crystal you have to adapt those functions accordingly.
 104:../../source/src/CMSIS/system_stm32f10x.c ****     */
 105:../../source/src/CMSIS/system_stm32f10x.c ****     
 106:../../source/src/CMSIS/system_stm32f10x.c **** #if defined (STM32F10X_LD_VL) || (defined STM32F10X_MD_VL) || (defined STM32F10X_HD_VL)
 107:../../source/src/CMSIS/system_stm32f10x.c **** /* #define SYSCLK_FREQ_HSE    HSE_VALUE */
 108:../../source/src/CMSIS/system_stm32f10x.c ****  #define SYSCLK_FREQ_24MHz  24000000
 109:../../source/src/CMSIS/system_stm32f10x.c **** #else
 110:../../source/src/CMSIS/system_stm32f10x.c **** /* #define SYSCLK_FREQ_HSE    HSE_VALUE */
 111:../../source/src/CMSIS/system_stm32f10x.c **** /* #define SYSCLK_FREQ_24MHz  24000000 */ 
 112:../../source/src/CMSIS/system_stm32f10x.c **** /* #define SYSCLK_FREQ_36MHz  36000000 */
 113:../../source/src/CMSIS/system_stm32f10x.c **** /* #define SYSCLK_FREQ_48MHz  48000000 */
 114:../../source/src/CMSIS/system_stm32f10x.c **** /* #define SYSCLK_FREQ_56MHz  56000000 */
 115:../../source/src/CMSIS/system_stm32f10x.c **** #define SYSCLK_FREQ_72MHz  72000000
 116:../../source/src/CMSIS/system_stm32f10x.c **** #endif
 117:../../source/src/CMSIS/system_stm32f10x.c **** 
 118:../../source/src/CMSIS/system_stm32f10x.c **** /*!< Uncomment the following line if you need to use external SRAM mounted
ARM GAS  G:\Users\Jaxb\AppData\Local\Temp\ccRPtXAk.s 			page 4


 119:../../source/src/CMSIS/system_stm32f10x.c ****      on STM3210E-EVAL board (STM32 High density and XL-density devices) or on 
 120:../../source/src/CMSIS/system_stm32f10x.c ****      STM32100E-EVAL board (STM32 High-density value line devices) as data memory */ 
 121:../../source/src/CMSIS/system_stm32f10x.c **** #if defined (STM32F10X_HD) || (defined STM32F10X_XL) || (defined STM32F10X_HD_VL)
 122:../../source/src/CMSIS/system_stm32f10x.c **** /* #define DATA_IN_ExtSRAM */
 123:../../source/src/CMSIS/system_stm32f10x.c **** #endif
 124:../../source/src/CMSIS/system_stm32f10x.c **** 
 125:../../source/src/CMSIS/system_stm32f10x.c **** /*!< Uncomment the following line if you need to relocate your vector Table in
 126:../../source/src/CMSIS/system_stm32f10x.c ****      Internal SRAM. */ 
 127:../../source/src/CMSIS/system_stm32f10x.c **** /* #define VECT_TAB_SRAM */
 128:../../source/src/CMSIS/system_stm32f10x.c **** #define VECT_TAB_OFFSET  0x0 /*!< Vector Table base offset field. 
 129:../../source/src/CMSIS/system_stm32f10x.c ****                                   This value must be a multiple of 0x200. */
 130:../../source/src/CMSIS/system_stm32f10x.c **** 
 131:../../source/src/CMSIS/system_stm32f10x.c **** 
 132:../../source/src/CMSIS/system_stm32f10x.c **** /**
 133:../../source/src/CMSIS/system_stm32f10x.c ****   * @}
 134:../../source/src/CMSIS/system_stm32f10x.c ****   */
 135:../../source/src/CMSIS/system_stm32f10x.c **** 
 136:../../source/src/CMSIS/system_stm32f10x.c **** /** @addtogroup STM32F10x_System_Private_Macros
 137:../../source/src/CMSIS/system_stm32f10x.c ****   * @{
 138:../../source/src/CMSIS/system_stm32f10x.c ****   */
 139:../../source/src/CMSIS/system_stm32f10x.c **** 
 140:../../source/src/CMSIS/system_stm32f10x.c **** /**
 141:../../source/src/CMSIS/system_stm32f10x.c ****   * @}
 142:../../source/src/CMSIS/system_stm32f10x.c ****   */
 143:../../source/src/CMSIS/system_stm32f10x.c **** 
 144:../../source/src/CMSIS/system_stm32f10x.c **** /** @addtogroup STM32F10x_System_Private_Variables
 145:../../source/src/CMSIS/system_stm32f10x.c ****   * @{
 146:../../source/src/CMSIS/system_stm32f10x.c ****   */
 147:../../source/src/CMSIS/system_stm32f10x.c **** 
 148:../../source/src/CMSIS/system_stm32f10x.c **** /*******************************************************************************
 149:../../source/src/CMSIS/system_stm32f10x.c **** *  Clock Definitions
 150:../../source/src/CMSIS/system_stm32f10x.c **** *******************************************************************************/
 151:../../source/src/CMSIS/system_stm32f10x.c **** #ifdef SYSCLK_FREQ_HSE
 152:../../source/src/CMSIS/system_stm32f10x.c ****   uint32_t SystemCoreClock         = SYSCLK_FREQ_HSE;        /*!< System Clock Frequency (Core Cloc
 153:../../source/src/CMSIS/system_stm32f10x.c **** #elif defined SYSCLK_FREQ_24MHz
 154:../../source/src/CMSIS/system_stm32f10x.c ****   uint32_t SystemCoreClock         = SYSCLK_FREQ_24MHz;        /*!< System Clock Frequency (Core Cl
 155:../../source/src/CMSIS/system_stm32f10x.c **** #elif defined SYSCLK_FREQ_36MHz
 156:../../source/src/CMSIS/system_stm32f10x.c ****   uint32_t SystemCoreClock         = SYSCLK_FREQ_36MHz;        /*!< System Clock Frequency (Core Cl
 157:../../source/src/CMSIS/system_stm32f10x.c **** #elif defined SYSCLK_FREQ_48MHz
 158:../../source/src/CMSIS/system_stm32f10x.c ****   uint32_t SystemCoreClock         = SYSCLK_FREQ_48MHz;        /*!< System Clock Frequency (Core Cl
 159:../../source/src/CMSIS/system_stm32f10x.c **** #elif defined SYSCLK_FREQ_56MHz
 160:../../source/src/CMSIS/system_stm32f10x.c ****   uint32_t SystemCoreClock         = SYSCLK_FREQ_56MHz;        /*!< System Clock Frequency (Core Cl
 161:../../source/src/CMSIS/system_stm32f10x.c **** #elif defined SYSCLK_FREQ_72MHz
 162:../../source/src/CMSIS/system_stm32f10x.c ****   uint32_t SystemCoreClock         = SYSCLK_FREQ_72MHz;        /*!< System Clock Frequency (Core Cl
 163:../../source/src/CMSIS/system_stm32f10x.c **** #else /*!< HSI Selected as System Clock source */
 164:../../source/src/CMSIS/system_stm32f10x.c ****   uint32_t SystemCoreClock         = HSI_VALUE;        /*!< System Clock Frequency (Core Clock) */
 165:../../source/src/CMSIS/system_stm32f10x.c **** #endif
 166:../../source/src/CMSIS/system_stm32f10x.c **** 
 167:../../source/src/CMSIS/system_stm32f10x.c **** __I uint8_t AHBPrescTable[16] = {0, 0, 0, 0, 0, 0, 0, 0, 1, 2, 3, 4, 6, 7, 8, 9};
 168:../../source/src/CMSIS/system_stm32f10x.c **** /**
 169:../../source/src/CMSIS/system_stm32f10x.c ****   * @}
 170:../../source/src/CMSIS/system_stm32f10x.c ****   */
 171:../../source/src/CMSIS/system_stm32f10x.c **** 
 172:../../source/src/CMSIS/system_stm32f10x.c **** /** @addtogroup STM32F10x_System_Private_FunctionPrototypes
 173:../../source/src/CMSIS/system_stm32f10x.c ****   * @{
 174:../../source/src/CMSIS/system_stm32f10x.c ****   */
 175:../../source/src/CMSIS/system_stm32f10x.c **** 
ARM GAS  G:\Users\Jaxb\AppData\Local\Temp\ccRPtXAk.s 			page 5


 176:../../source/src/CMSIS/system_stm32f10x.c **** static void SetSysClock(void);
 177:../../source/src/CMSIS/system_stm32f10x.c **** 
 178:../../source/src/CMSIS/system_stm32f10x.c **** #ifdef SYSCLK_FREQ_HSE
 179:../../source/src/CMSIS/system_stm32f10x.c ****   static void SetSysClockToHSE(void);
 180:../../source/src/CMSIS/system_stm32f10x.c **** #elif defined SYSCLK_FREQ_24MHz
 181:../../source/src/CMSIS/system_stm32f10x.c ****   static void SetSysClockTo24(void);
 182:../../source/src/CMSIS/system_stm32f10x.c **** #elif defined SYSCLK_FREQ_36MHz
 183:../../source/src/CMSIS/system_stm32f10x.c ****   static void SetSysClockTo36(void);
 184:../../source/src/CMSIS/system_stm32f10x.c **** #elif defined SYSCLK_FREQ_48MHz
 185:../../source/src/CMSIS/system_stm32f10x.c ****   static void SetSysClockTo48(void);
 186:../../source/src/CMSIS/system_stm32f10x.c **** #elif defined SYSCLK_FREQ_56MHz
 187:../../source/src/CMSIS/system_stm32f10x.c ****   static void SetSysClockTo56(void);  
 188:../../source/src/CMSIS/system_stm32f10x.c **** #elif defined SYSCLK_FREQ_72MHz
 189:../../source/src/CMSIS/system_stm32f10x.c ****   static void SetSysClockTo72(void);
 190:../../source/src/CMSIS/system_stm32f10x.c **** #endif
 191:../../source/src/CMSIS/system_stm32f10x.c **** 
 192:../../source/src/CMSIS/system_stm32f10x.c **** #ifdef DATA_IN_ExtSRAM
 193:../../source/src/CMSIS/system_stm32f10x.c ****   static void SystemInit_ExtMemCtl(void); 
 194:../../source/src/CMSIS/system_stm32f10x.c **** #endif /* DATA_IN_ExtSRAM */
 195:../../source/src/CMSIS/system_stm32f10x.c **** 
 196:../../source/src/CMSIS/system_stm32f10x.c **** /**
 197:../../source/src/CMSIS/system_stm32f10x.c ****   * @}
 198:../../source/src/CMSIS/system_stm32f10x.c ****   */
 199:../../source/src/CMSIS/system_stm32f10x.c **** 
 200:../../source/src/CMSIS/system_stm32f10x.c **** /** @addtogroup STM32F10x_System_Private_Functions
 201:../../source/src/CMSIS/system_stm32f10x.c ****   * @{
 202:../../source/src/CMSIS/system_stm32f10x.c ****   */
 203:../../source/src/CMSIS/system_stm32f10x.c **** 
 204:../../source/src/CMSIS/system_stm32f10x.c **** /**
 205:../../source/src/CMSIS/system_stm32f10x.c ****   * @brief  Setup the microcontroller system
 206:../../source/src/CMSIS/system_stm32f10x.c ****   *         Initialize the Embedded Flash Interface, the PLL and update the 
 207:../../source/src/CMSIS/system_stm32f10x.c ****   *         SystemCoreClock variable.
 208:../../source/src/CMSIS/system_stm32f10x.c ****   * @note   This function should be used only after reset.
 209:../../source/src/CMSIS/system_stm32f10x.c ****   * @param  None
 210:../../source/src/CMSIS/system_stm32f10x.c ****   * @retval None
 211:../../source/src/CMSIS/system_stm32f10x.c ****   */
 212:../../source/src/CMSIS/system_stm32f10x.c **** void SystemInit (void)
 213:../../source/src/CMSIS/system_stm32f10x.c **** {
  54              		.loc 1 213 0
  55              		.cfi_startproc
  56              		@ args = 0, pretend = 0, frame = 0
  57              		@ frame_needed = 1, uses_anonymous_args = 0
  58 0000 80B5     		push	{r7, lr}
  59              	.LCFI0:
  60              		.cfi_def_cfa_offset 8
  61              		.cfi_offset 7, -8
  62              		.cfi_offset 14, -4
  63 0002 00AF     		add	r7, sp, #0
  64              	.LCFI1:
  65              		.cfi_def_cfa_register 7
 214:../../source/src/CMSIS/system_stm32f10x.c ****   /* Reset the RCC clock configuration to the default reset state(for debug purpose) */
 215:../../source/src/CMSIS/system_stm32f10x.c ****   /* Set HSION bit */
 216:../../source/src/CMSIS/system_stm32f10x.c ****   RCC->CR |= (uint32_t)0x00000001;
  66              		.loc 1 216 0
  67 0004 154B     		ldr	r3, .L2
  68 0006 1B68     		ldr	r3, [r3]
  69 0008 144A     		ldr	r2, .L2
ARM GAS  G:\Users\Jaxb\AppData\Local\Temp\ccRPtXAk.s 			page 6


  70 000a 43F00103 		orr	r3, r3, #1
  71 000e 1360     		str	r3, [r2]
 217:../../source/src/CMSIS/system_stm32f10x.c **** 
 218:../../source/src/CMSIS/system_stm32f10x.c ****   /* Reset SW, HPRE, PPRE1, PPRE2, ADCPRE and MCO bits */
 219:../../source/src/CMSIS/system_stm32f10x.c **** #ifndef STM32F10X_CL
 220:../../source/src/CMSIS/system_stm32f10x.c ****   RCC->CFGR &= (uint32_t)0xF8FF0000;
  72              		.loc 1 220 0
  73 0010 124B     		ldr	r3, .L2
  74 0012 5A68     		ldr	r2, [r3, #4]
  75 0014 1149     		ldr	r1, .L2
  76 0016 124B     		ldr	r3, .L2+4
  77 0018 1340     		ands	r3, r3, r2
  78 001a 4B60     		str	r3, [r1, #4]
 221:../../source/src/CMSIS/system_stm32f10x.c **** #else
 222:../../source/src/CMSIS/system_stm32f10x.c ****   RCC->CFGR &= (uint32_t)0xF0FF0000;
 223:../../source/src/CMSIS/system_stm32f10x.c **** #endif /* STM32F10X_CL */   
 224:../../source/src/CMSIS/system_stm32f10x.c ****   
 225:../../source/src/CMSIS/system_stm32f10x.c ****   /* Reset HSEON, CSSON and PLLON bits */
 226:../../source/src/CMSIS/system_stm32f10x.c ****   RCC->CR &= (uint32_t)0xFEF6FFFF;
  79              		.loc 1 226 0
  80 001c 0F4B     		ldr	r3, .L2
  81 001e 1B68     		ldr	r3, [r3]
  82 0020 0E4A     		ldr	r2, .L2
  83 0022 23F08473 		bic	r3, r3, #17301504
  84 0026 23F48033 		bic	r3, r3, #65536
  85 002a 1360     		str	r3, [r2]
 227:../../source/src/CMSIS/system_stm32f10x.c **** 
 228:../../source/src/CMSIS/system_stm32f10x.c ****   /* Reset HSEBYP bit */
 229:../../source/src/CMSIS/system_stm32f10x.c ****   RCC->CR &= (uint32_t)0xFFFBFFFF;
  86              		.loc 1 229 0
  87 002c 0B4B     		ldr	r3, .L2
  88 002e 1B68     		ldr	r3, [r3]
  89 0030 0A4A     		ldr	r2, .L2
  90 0032 23F48023 		bic	r3, r3, #262144
  91 0036 1360     		str	r3, [r2]
 230:../../source/src/CMSIS/system_stm32f10x.c **** 
 231:../../source/src/CMSIS/system_stm32f10x.c ****   /* Reset PLLSRC, PLLXTPRE, PLLMUL and USBPRE/OTGFSPRE bits */
 232:../../source/src/CMSIS/system_stm32f10x.c ****   RCC->CFGR &= (uint32_t)0xFF80FFFF;
  92              		.loc 1 232 0
  93 0038 084B     		ldr	r3, .L2
  94 003a 5B68     		ldr	r3, [r3, #4]
  95 003c 074A     		ldr	r2, .L2
  96 003e 23F4FE03 		bic	r3, r3, #8323072
  97 0042 5360     		str	r3, [r2, #4]
 233:../../source/src/CMSIS/system_stm32f10x.c **** 
 234:../../source/src/CMSIS/system_stm32f10x.c **** #ifdef STM32F10X_CL
 235:../../source/src/CMSIS/system_stm32f10x.c ****   /* Reset PLL2ON and PLL3ON bits */
 236:../../source/src/CMSIS/system_stm32f10x.c ****   RCC->CR &= (uint32_t)0xEBFFFFFF;
 237:../../source/src/CMSIS/system_stm32f10x.c **** 
 238:../../source/src/CMSIS/system_stm32f10x.c ****   /* Disable all interrupts and clear pending bits  */
 239:../../source/src/CMSIS/system_stm32f10x.c ****   RCC->CIR = 0x00FF0000;
 240:../../source/src/CMSIS/system_stm32f10x.c **** 
 241:../../source/src/CMSIS/system_stm32f10x.c ****   /* Reset CFGR2 register */
 242:../../source/src/CMSIS/system_stm32f10x.c ****   RCC->CFGR2 = 0x00000000;
 243:../../source/src/CMSIS/system_stm32f10x.c **** #elif defined (STM32F10X_LD_VL) || defined (STM32F10X_MD_VL) || (defined STM32F10X_HD_VL)
 244:../../source/src/CMSIS/system_stm32f10x.c ****   /* Disable all interrupts and clear pending bits  */
 245:../../source/src/CMSIS/system_stm32f10x.c ****   RCC->CIR = 0x009F0000;
ARM GAS  G:\Users\Jaxb\AppData\Local\Temp\ccRPtXAk.s 			page 7


 246:../../source/src/CMSIS/system_stm32f10x.c **** 
 247:../../source/src/CMSIS/system_stm32f10x.c ****   /* Reset CFGR2 register */
 248:../../source/src/CMSIS/system_stm32f10x.c ****   RCC->CFGR2 = 0x00000000;      
 249:../../source/src/CMSIS/system_stm32f10x.c **** #else
 250:../../source/src/CMSIS/system_stm32f10x.c ****   /* Disable all interrupts and clear pending bits  */
 251:../../source/src/CMSIS/system_stm32f10x.c ****   RCC->CIR = 0x009F0000;
  98              		.loc 1 251 0
  99 0044 054B     		ldr	r3, .L2
 100 0046 4FF41F02 		mov	r2, #10420224
 101 004a 9A60     		str	r2, [r3, #8]
 252:../../source/src/CMSIS/system_stm32f10x.c **** #endif /* STM32F10X_CL */
 253:../../source/src/CMSIS/system_stm32f10x.c ****     
 254:../../source/src/CMSIS/system_stm32f10x.c **** #if defined (STM32F10X_HD) || (defined STM32F10X_XL) || (defined STM32F10X_HD_VL)
 255:../../source/src/CMSIS/system_stm32f10x.c ****   #ifdef DATA_IN_ExtSRAM
 256:../../source/src/CMSIS/system_stm32f10x.c ****     SystemInit_ExtMemCtl(); 
 257:../../source/src/CMSIS/system_stm32f10x.c ****   #endif /* DATA_IN_ExtSRAM */
 258:../../source/src/CMSIS/system_stm32f10x.c **** #endif 
 259:../../source/src/CMSIS/system_stm32f10x.c **** 
 260:../../source/src/CMSIS/system_stm32f10x.c ****   /* Configure the System clock frequency, HCLK, PCLK2 and PCLK1 prescalers */
 261:../../source/src/CMSIS/system_stm32f10x.c ****   /* Configure the Flash Latency cycles and enable prefetch buffer */
 262:../../source/src/CMSIS/system_stm32f10x.c ****   SetSysClock();
 102              		.loc 1 262 0
 103 004c 00F078F8 		bl	SetSysClock
 263:../../source/src/CMSIS/system_stm32f10x.c **** 
 264:../../source/src/CMSIS/system_stm32f10x.c **** #ifdef VECT_TAB_SRAM
 265:../../source/src/CMSIS/system_stm32f10x.c ****   SCB->VTOR = SRAM_BASE | VECT_TAB_OFFSET; /* Vector Table Relocation in Internal SRAM. */
 266:../../source/src/CMSIS/system_stm32f10x.c **** #else
 267:../../source/src/CMSIS/system_stm32f10x.c ****   SCB->VTOR = FLASH_BASE | VECT_TAB_OFFSET; /* Vector Table Relocation in Internal FLASH. */
 104              		.loc 1 267 0
 105 0050 044B     		ldr	r3, .L2+8
 106 0052 4FF00062 		mov	r2, #134217728
 107 0056 9A60     		str	r2, [r3, #8]
 268:../../source/src/CMSIS/system_stm32f10x.c **** #endif 
 269:../../source/src/CMSIS/system_stm32f10x.c **** }
 108              		.loc 1 269 0
 109 0058 00BF     		nop
 110 005a 80BD     		pop	{r7, pc}
 111              	.L3:
 112              		.align	2
 113              	.L2:
 114 005c 00100240 		.word	1073876992
 115 0060 0000FFF8 		.word	-117506048
 116 0064 00ED00E0 		.word	-536810240
 117              		.cfi_endproc
 118              	.LFE29:
 119              		.size	SystemInit, .-SystemInit
 120              		.align	1
 121              		.global	SystemCoreClockUpdate
 122              		.syntax unified
 123              		.thumb
 124              		.thumb_func
 125              		.fpu softvfp
 126              		.type	SystemCoreClockUpdate, %function
 127              	SystemCoreClockUpdate:
 128              	.LFB30:
 270:../../source/src/CMSIS/system_stm32f10x.c **** 
 271:../../source/src/CMSIS/system_stm32f10x.c **** /**
ARM GAS  G:\Users\Jaxb\AppData\Local\Temp\ccRPtXAk.s 			page 8


 272:../../source/src/CMSIS/system_stm32f10x.c ****   * @brief  Update SystemCoreClock variable according to Clock Register Values.
 273:../../source/src/CMSIS/system_stm32f10x.c ****   *         The SystemCoreClock variable contains the core clock (HCLK), it can
 274:../../source/src/CMSIS/system_stm32f10x.c ****   *         be used by the user application to setup the SysTick timer or configure
 275:../../source/src/CMSIS/system_stm32f10x.c ****   *         other parameters.
 276:../../source/src/CMSIS/system_stm32f10x.c ****   *           
 277:../../source/src/CMSIS/system_stm32f10x.c ****   * @note   Each time the core clock (HCLK) changes, this function must be called
 278:../../source/src/CMSIS/system_stm32f10x.c ****   *         to update SystemCoreClock variable value. Otherwise, any configuration
 279:../../source/src/CMSIS/system_stm32f10x.c ****   *         based on this variable will be incorrect.         
 280:../../source/src/CMSIS/system_stm32f10x.c ****   *     
 281:../../source/src/CMSIS/system_stm32f10x.c ****   * @note   - The system frequency computed by this function is not the real 
 282:../../source/src/CMSIS/system_stm32f10x.c ****   *           frequency in the chip. It is calculated based on the predefined 
 283:../../source/src/CMSIS/system_stm32f10x.c ****   *           constant and the selected clock source:
 284:../../source/src/CMSIS/system_stm32f10x.c ****   *             
 285:../../source/src/CMSIS/system_stm32f10x.c ****   *           - If SYSCLK source is HSI, SystemCoreClock will contain the HSI_VALUE(*)
 286:../../source/src/CMSIS/system_stm32f10x.c ****   *                                              
 287:../../source/src/CMSIS/system_stm32f10x.c ****   *           - If SYSCLK source is HSE, SystemCoreClock will contain the HSE_VALUE(**)
 288:../../source/src/CMSIS/system_stm32f10x.c ****   *                          
 289:../../source/src/CMSIS/system_stm32f10x.c ****   *           - If SYSCLK source is PLL, SystemCoreClock will contain the HSE_VALUE(**) 
 290:../../source/src/CMSIS/system_stm32f10x.c ****   *             or HSI_VALUE(*) multiplied by the PLL factors.
 291:../../source/src/CMSIS/system_stm32f10x.c ****   *         
 292:../../source/src/CMSIS/system_stm32f10x.c ****   *         (*) HSI_VALUE is a constant defined in stm32f1xx.h file (default value
 293:../../source/src/CMSIS/system_stm32f10x.c ****   *             8 MHz) but the real value may vary depending on the variations
 294:../../source/src/CMSIS/system_stm32f10x.c ****   *             in voltage and temperature.   
 295:../../source/src/CMSIS/system_stm32f10x.c ****   *    
 296:../../source/src/CMSIS/system_stm32f10x.c ****   *         (**) HSE_VALUE is a constant defined in stm32f1xx.h file (default value
 297:../../source/src/CMSIS/system_stm32f10x.c ****   *              8 MHz or 25 MHz, depedning on the product used), user has to ensure
 298:../../source/src/CMSIS/system_stm32f10x.c ****   *              that HSE_VALUE is same as the real frequency of the crystal used.
 299:../../source/src/CMSIS/system_stm32f10x.c ****   *              Otherwise, this function may have wrong result.
 300:../../source/src/CMSIS/system_stm32f10x.c ****   *                
 301:../../source/src/CMSIS/system_stm32f10x.c ****   *         - The result of this function could be not correct when using fractional
 302:../../source/src/CMSIS/system_stm32f10x.c ****   *           value for HSE crystal.
 303:../../source/src/CMSIS/system_stm32f10x.c ****   * @param  None
 304:../../source/src/CMSIS/system_stm32f10x.c ****   * @retval None
 305:../../source/src/CMSIS/system_stm32f10x.c ****   */
 306:../../source/src/CMSIS/system_stm32f10x.c **** void SystemCoreClockUpdate (void)
 307:../../source/src/CMSIS/system_stm32f10x.c **** {
 129              		.loc 1 307 0
 130              		.cfi_startproc
 131              		@ args = 0, pretend = 0, frame = 16
 132              		@ frame_needed = 1, uses_anonymous_args = 0
 133              		@ link register save eliminated.
 134 0068 80B4     		push	{r7}
 135              	.LCFI2:
 136              		.cfi_def_cfa_offset 4
 137              		.cfi_offset 7, -4
 138 006a 85B0     		sub	sp, sp, #20
 139              	.LCFI3:
 140              		.cfi_def_cfa_offset 24
 141 006c 00AF     		add	r7, sp, #0
 142              	.LCFI4:
 143              		.cfi_def_cfa_register 7
 308:../../source/src/CMSIS/system_stm32f10x.c ****   uint32_t tmp = 0, pllmull = 0, pllsource = 0;
 144              		.loc 1 308 0
 145 006e 0023     		movs	r3, #0
 146 0070 FB60     		str	r3, [r7, #12]
 147 0072 0023     		movs	r3, #0
 148 0074 BB60     		str	r3, [r7, #8]
ARM GAS  G:\Users\Jaxb\AppData\Local\Temp\ccRPtXAk.s 			page 9


 149 0076 0023     		movs	r3, #0
 150 0078 7B60     		str	r3, [r7, #4]
 309:../../source/src/CMSIS/system_stm32f10x.c **** 
 310:../../source/src/CMSIS/system_stm32f10x.c **** #ifdef  STM32F10X_CL
 311:../../source/src/CMSIS/system_stm32f10x.c ****   uint32_t prediv1source = 0, prediv1factor = 0, prediv2factor = 0, pll2mull = 0;
 312:../../source/src/CMSIS/system_stm32f10x.c **** #endif /* STM32F10X_CL */
 313:../../source/src/CMSIS/system_stm32f10x.c **** 
 314:../../source/src/CMSIS/system_stm32f10x.c **** #if defined (STM32F10X_LD_VL) || defined (STM32F10X_MD_VL) || (defined STM32F10X_HD_VL)
 315:../../source/src/CMSIS/system_stm32f10x.c ****   uint32_t prediv1factor = 0;
 316:../../source/src/CMSIS/system_stm32f10x.c **** #endif /* STM32F10X_LD_VL or STM32F10X_MD_VL or STM32F10X_HD_VL */
 317:../../source/src/CMSIS/system_stm32f10x.c ****     
 318:../../source/src/CMSIS/system_stm32f10x.c ****   /* Get SYSCLK source -------------------------------------------------------*/
 319:../../source/src/CMSIS/system_stm32f10x.c ****   tmp = RCC->CFGR & RCC_CFGR_SWS;
 151              		.loc 1 319 0
 152 007a 2C4B     		ldr	r3, .L14
 153 007c 5B68     		ldr	r3, [r3, #4]
 154 007e 03F00C03 		and	r3, r3, #12
 155 0082 FB60     		str	r3, [r7, #12]
 320:../../source/src/CMSIS/system_stm32f10x.c ****   
 321:../../source/src/CMSIS/system_stm32f10x.c ****   switch (tmp)
 156              		.loc 1 321 0
 157 0084 FB68     		ldr	r3, [r7, #12]
 158 0086 042B     		cmp	r3, #4
 159 0088 07D0     		beq	.L6
 160 008a 082B     		cmp	r3, #8
 161 008c 09D0     		beq	.L7
 162 008e 002B     		cmp	r3, #0
 163 0090 33D1     		bne	.L13
 322:../../source/src/CMSIS/system_stm32f10x.c ****   {
 323:../../source/src/CMSIS/system_stm32f10x.c ****     case 0x00:  /* HSI used as system clock */
 324:../../source/src/CMSIS/system_stm32f10x.c ****       SystemCoreClock = HSI_VALUE;
 164              		.loc 1 324 0
 165 0092 274B     		ldr	r3, .L14+4
 166 0094 274A     		ldr	r2, .L14+8
 167 0096 1A60     		str	r2, [r3]
 325:../../source/src/CMSIS/system_stm32f10x.c ****       break;
 168              		.loc 1 325 0
 169 0098 33E0     		b	.L9
 170              	.L6:
 326:../../source/src/CMSIS/system_stm32f10x.c ****     case 0x04:  /* HSE used as system clock */
 327:../../source/src/CMSIS/system_stm32f10x.c ****       SystemCoreClock = HSE_VALUE;
 171              		.loc 1 327 0
 172 009a 254B     		ldr	r3, .L14+4
 173 009c 254A     		ldr	r2, .L14+8
 174 009e 1A60     		str	r2, [r3]
 328:../../source/src/CMSIS/system_stm32f10x.c ****       break;
 175              		.loc 1 328 0
 176 00a0 2FE0     		b	.L9
 177              	.L7:
 329:../../source/src/CMSIS/system_stm32f10x.c ****     case 0x08:  /* PLL used as system clock */
 330:../../source/src/CMSIS/system_stm32f10x.c **** 
 331:../../source/src/CMSIS/system_stm32f10x.c ****       /* Get PLL clock source and multiplication factor ----------------------*/
 332:../../source/src/CMSIS/system_stm32f10x.c ****       pllmull = RCC->CFGR & RCC_CFGR_PLLMULL;
 178              		.loc 1 332 0
 179 00a2 224B     		ldr	r3, .L14
 180 00a4 5B68     		ldr	r3, [r3, #4]
 181 00a6 03F47013 		and	r3, r3, #3932160
ARM GAS  G:\Users\Jaxb\AppData\Local\Temp\ccRPtXAk.s 			page 10


 182 00aa BB60     		str	r3, [r7, #8]
 333:../../source/src/CMSIS/system_stm32f10x.c ****       pllsource = RCC->CFGR & RCC_CFGR_PLLSRC;
 183              		.loc 1 333 0
 184 00ac 1F4B     		ldr	r3, .L14
 185 00ae 5B68     		ldr	r3, [r3, #4]
 186 00b0 03F48033 		and	r3, r3, #65536
 187 00b4 7B60     		str	r3, [r7, #4]
 334:../../source/src/CMSIS/system_stm32f10x.c ****       
 335:../../source/src/CMSIS/system_stm32f10x.c **** #ifndef STM32F10X_CL      
 336:../../source/src/CMSIS/system_stm32f10x.c ****       pllmull = ( pllmull >> 18) + 2;
 188              		.loc 1 336 0
 189 00b6 BB68     		ldr	r3, [r7, #8]
 190 00b8 9B0C     		lsrs	r3, r3, #18
 191 00ba 0233     		adds	r3, r3, #2
 192 00bc BB60     		str	r3, [r7, #8]
 337:../../source/src/CMSIS/system_stm32f10x.c ****       
 338:../../source/src/CMSIS/system_stm32f10x.c ****       if (pllsource == 0x00)
 193              		.loc 1 338 0
 194 00be 7B68     		ldr	r3, [r7, #4]
 195 00c0 002B     		cmp	r3, #0
 196 00c2 06D1     		bne	.L10
 339:../../source/src/CMSIS/system_stm32f10x.c ****       {
 340:../../source/src/CMSIS/system_stm32f10x.c ****         /* HSI oscillator clock divided by 2 selected as PLL clock entry */
 341:../../source/src/CMSIS/system_stm32f10x.c ****         SystemCoreClock = (HSI_VALUE >> 1) * pllmull;
 197              		.loc 1 341 0
 198 00c4 BB68     		ldr	r3, [r7, #8]
 199 00c6 1C4A     		ldr	r2, .L14+12
 200 00c8 02FB03F3 		mul	r3, r2, r3
 201 00cc 184A     		ldr	r2, .L14+4
 202 00ce 1360     		str	r3, [r2]
 342:../../source/src/CMSIS/system_stm32f10x.c ****       }
 343:../../source/src/CMSIS/system_stm32f10x.c ****       else
 344:../../source/src/CMSIS/system_stm32f10x.c ****       {
 345:../../source/src/CMSIS/system_stm32f10x.c ****  #if defined (STM32F10X_LD_VL) || defined (STM32F10X_MD_VL) || (defined STM32F10X_HD_VL)
 346:../../source/src/CMSIS/system_stm32f10x.c ****        prediv1factor = (RCC->CFGR2 & RCC_CFGR2_PREDIV1) + 1;
 347:../../source/src/CMSIS/system_stm32f10x.c ****        /* HSE oscillator clock selected as PREDIV1 clock entry */
 348:../../source/src/CMSIS/system_stm32f10x.c ****        SystemCoreClock = (HSE_VALUE / prediv1factor) * pllmull; 
 349:../../source/src/CMSIS/system_stm32f10x.c ****  #else
 350:../../source/src/CMSIS/system_stm32f10x.c ****         /* HSE selected as PLL clock entry */
 351:../../source/src/CMSIS/system_stm32f10x.c ****         if ((RCC->CFGR & RCC_CFGR_PLLXTPRE) != (uint32_t)RESET)
 352:../../source/src/CMSIS/system_stm32f10x.c ****         {/* HSE oscillator clock divided by 2 */
 353:../../source/src/CMSIS/system_stm32f10x.c ****           SystemCoreClock = (HSE_VALUE >> 1) * pllmull;
 354:../../source/src/CMSIS/system_stm32f10x.c ****         }
 355:../../source/src/CMSIS/system_stm32f10x.c ****         else
 356:../../source/src/CMSIS/system_stm32f10x.c ****         {
 357:../../source/src/CMSIS/system_stm32f10x.c ****           SystemCoreClock = HSE_VALUE * pllmull;
 358:../../source/src/CMSIS/system_stm32f10x.c ****         }
 359:../../source/src/CMSIS/system_stm32f10x.c ****  #endif
 360:../../source/src/CMSIS/system_stm32f10x.c ****       }
 361:../../source/src/CMSIS/system_stm32f10x.c **** #else
 362:../../source/src/CMSIS/system_stm32f10x.c ****       pllmull = pllmull >> 18;
 363:../../source/src/CMSIS/system_stm32f10x.c ****       
 364:../../source/src/CMSIS/system_stm32f10x.c ****       if (pllmull != 0x0D)
 365:../../source/src/CMSIS/system_stm32f10x.c ****       {
 366:../../source/src/CMSIS/system_stm32f10x.c ****          pllmull += 2;
 367:../../source/src/CMSIS/system_stm32f10x.c ****       }
 368:../../source/src/CMSIS/system_stm32f10x.c ****       else
ARM GAS  G:\Users\Jaxb\AppData\Local\Temp\ccRPtXAk.s 			page 11


 369:../../source/src/CMSIS/system_stm32f10x.c ****       { /* PLL multiplication factor = PLL input clock * 6.5 */
 370:../../source/src/CMSIS/system_stm32f10x.c ****         pllmull = 13 / 2; 
 371:../../source/src/CMSIS/system_stm32f10x.c ****       }
 372:../../source/src/CMSIS/system_stm32f10x.c ****             
 373:../../source/src/CMSIS/system_stm32f10x.c ****       if (pllsource == 0x00)
 374:../../source/src/CMSIS/system_stm32f10x.c ****       {
 375:../../source/src/CMSIS/system_stm32f10x.c ****         /* HSI oscillator clock divided by 2 selected as PLL clock entry */
 376:../../source/src/CMSIS/system_stm32f10x.c ****         SystemCoreClock = (HSI_VALUE >> 1) * pllmull;
 377:../../source/src/CMSIS/system_stm32f10x.c ****       }
 378:../../source/src/CMSIS/system_stm32f10x.c ****       else
 379:../../source/src/CMSIS/system_stm32f10x.c ****       {/* PREDIV1 selected as PLL clock entry */
 380:../../source/src/CMSIS/system_stm32f10x.c ****         
 381:../../source/src/CMSIS/system_stm32f10x.c ****         /* Get PREDIV1 clock source and division factor */
 382:../../source/src/CMSIS/system_stm32f10x.c ****         prediv1source = RCC->CFGR2 & RCC_CFGR2_PREDIV1SRC;
 383:../../source/src/CMSIS/system_stm32f10x.c ****         prediv1factor = (RCC->CFGR2 & RCC_CFGR2_PREDIV1) + 1;
 384:../../source/src/CMSIS/system_stm32f10x.c ****         
 385:../../source/src/CMSIS/system_stm32f10x.c ****         if (prediv1source == 0)
 386:../../source/src/CMSIS/system_stm32f10x.c ****         { 
 387:../../source/src/CMSIS/system_stm32f10x.c ****           /* HSE oscillator clock selected as PREDIV1 clock entry */
 388:../../source/src/CMSIS/system_stm32f10x.c ****           SystemCoreClock = (HSE_VALUE / prediv1factor) * pllmull;          
 389:../../source/src/CMSIS/system_stm32f10x.c ****         }
 390:../../source/src/CMSIS/system_stm32f10x.c ****         else
 391:../../source/src/CMSIS/system_stm32f10x.c ****         {/* PLL2 clock selected as PREDIV1 clock entry */
 392:../../source/src/CMSIS/system_stm32f10x.c ****           
 393:../../source/src/CMSIS/system_stm32f10x.c ****           /* Get PREDIV2 division factor and PLL2 multiplication factor */
 394:../../source/src/CMSIS/system_stm32f10x.c ****           prediv2factor = ((RCC->CFGR2 & RCC_CFGR2_PREDIV2) >> 4) + 1;
 395:../../source/src/CMSIS/system_stm32f10x.c ****           pll2mull = ((RCC->CFGR2 & RCC_CFGR2_PLL2MUL) >> 8 ) + 2; 
 396:../../source/src/CMSIS/system_stm32f10x.c ****           SystemCoreClock = (((HSE_VALUE / prediv2factor) * pll2mull) / prediv1factor) * pllmull;  
 397:../../source/src/CMSIS/system_stm32f10x.c ****         }
 398:../../source/src/CMSIS/system_stm32f10x.c ****       }
 399:../../source/src/CMSIS/system_stm32f10x.c **** #endif /* STM32F10X_CL */ 
 400:../../source/src/CMSIS/system_stm32f10x.c ****       break;
 203              		.loc 1 400 0
 204 00d0 17E0     		b	.L9
 205              	.L10:
 351:../../source/src/CMSIS/system_stm32f10x.c ****         {/* HSE oscillator clock divided by 2 */
 206              		.loc 1 351 0
 207 00d2 164B     		ldr	r3, .L14
 208 00d4 5B68     		ldr	r3, [r3, #4]
 209 00d6 03F40033 		and	r3, r3, #131072
 210 00da 002B     		cmp	r3, #0
 211 00dc 06D0     		beq	.L12
 353:../../source/src/CMSIS/system_stm32f10x.c ****         }
 212              		.loc 1 353 0
 213 00de BB68     		ldr	r3, [r7, #8]
 214 00e0 154A     		ldr	r2, .L14+12
 215 00e2 02FB03F3 		mul	r3, r2, r3
 216 00e6 124A     		ldr	r2, .L14+4
 217 00e8 1360     		str	r3, [r2]
 218              		.loc 1 400 0
 219 00ea 0AE0     		b	.L9
 220              	.L12:
 357:../../source/src/CMSIS/system_stm32f10x.c ****         }
 221              		.loc 1 357 0
 222 00ec BB68     		ldr	r3, [r7, #8]
 223 00ee 114A     		ldr	r2, .L14+8
 224 00f0 02FB03F3 		mul	r3, r2, r3
ARM GAS  G:\Users\Jaxb\AppData\Local\Temp\ccRPtXAk.s 			page 12


 225 00f4 0E4A     		ldr	r2, .L14+4
 226 00f6 1360     		str	r3, [r2]
 227              		.loc 1 400 0
 228 00f8 03E0     		b	.L9
 229              	.L13:
 401:../../source/src/CMSIS/system_stm32f10x.c **** 
 402:../../source/src/CMSIS/system_stm32f10x.c ****     default:
 403:../../source/src/CMSIS/system_stm32f10x.c ****       SystemCoreClock = HSI_VALUE;
 230              		.loc 1 403 0
 231 00fa 0D4B     		ldr	r3, .L14+4
 232 00fc 0D4A     		ldr	r2, .L14+8
 233 00fe 1A60     		str	r2, [r3]
 404:../../source/src/CMSIS/system_stm32f10x.c ****       break;
 234              		.loc 1 404 0
 235 0100 00BF     		nop
 236              	.L9:
 405:../../source/src/CMSIS/system_stm32f10x.c ****   }
 406:../../source/src/CMSIS/system_stm32f10x.c ****   
 407:../../source/src/CMSIS/system_stm32f10x.c ****   /* Compute HCLK clock frequency ----------------*/
 408:../../source/src/CMSIS/system_stm32f10x.c ****   /* Get HCLK prescaler */
 409:../../source/src/CMSIS/system_stm32f10x.c ****   tmp = AHBPrescTable[((RCC->CFGR & RCC_CFGR_HPRE) >> 4)];
 237              		.loc 1 409 0
 238 0102 0A4B     		ldr	r3, .L14
 239 0104 5B68     		ldr	r3, [r3, #4]
 240 0106 1B09     		lsrs	r3, r3, #4
 241 0108 03F00F03 		and	r3, r3, #15
 242 010c 0B4A     		ldr	r2, .L14+16
 243 010e D35C     		ldrb	r3, [r2, r3]
 244 0110 DBB2     		uxtb	r3, r3
 245 0112 FB60     		str	r3, [r7, #12]
 410:../../source/src/CMSIS/system_stm32f10x.c ****   /* HCLK clock frequency */
 411:../../source/src/CMSIS/system_stm32f10x.c ****   SystemCoreClock >>= tmp;  
 246              		.loc 1 411 0
 247 0114 064B     		ldr	r3, .L14+4
 248 0116 1A68     		ldr	r2, [r3]
 249 0118 FB68     		ldr	r3, [r7, #12]
 250 011a 22FA03F3 		lsr	r3, r2, r3
 251 011e 044A     		ldr	r2, .L14+4
 252 0120 1360     		str	r3, [r2]
 412:../../source/src/CMSIS/system_stm32f10x.c **** }
 253              		.loc 1 412 0
 254 0122 00BF     		nop
 255 0124 1437     		adds	r7, r7, #20
 256              	.LCFI5:
 257              		.cfi_def_cfa_offset 4
 258 0126 BD46     		mov	sp, r7
 259              	.LCFI6:
 260              		.cfi_def_cfa_register 13
 261              		@ sp needed
 262 0128 80BC     		pop	{r7}
 263              	.LCFI7:
 264              		.cfi_restore 7
 265              		.cfi_def_cfa_offset 0
 266 012a 7047     		bx	lr
 267              	.L15:
 268              		.align	2
 269              	.L14:
ARM GAS  G:\Users\Jaxb\AppData\Local\Temp\ccRPtXAk.s 			page 13


 270 012c 00100240 		.word	1073876992
 271 0130 00000000 		.word	SystemCoreClock
 272 0134 00127A00 		.word	8000000
 273 0138 00093D00 		.word	4000000
 274 013c 00000000 		.word	AHBPrescTable
 275              		.cfi_endproc
 276              	.LFE30:
 277              		.size	SystemCoreClockUpdate, .-SystemCoreClockUpdate
 278              		.align	1
 279              		.syntax unified
 280              		.thumb
 281              		.thumb_func
 282              		.fpu softvfp
 283              		.type	SetSysClock, %function
 284              	SetSysClock:
 285              	.LFB31:
 413:../../source/src/CMSIS/system_stm32f10x.c **** 
 414:../../source/src/CMSIS/system_stm32f10x.c **** /**
 415:../../source/src/CMSIS/system_stm32f10x.c ****   * @brief  Configures the System clock frequency, HCLK, PCLK2 and PCLK1 prescalers.
 416:../../source/src/CMSIS/system_stm32f10x.c ****   * @param  None
 417:../../source/src/CMSIS/system_stm32f10x.c ****   * @retval None
 418:../../source/src/CMSIS/system_stm32f10x.c ****   */
 419:../../source/src/CMSIS/system_stm32f10x.c **** static void SetSysClock(void)
 420:../../source/src/CMSIS/system_stm32f10x.c **** {
 286              		.loc 1 420 0
 287              		.cfi_startproc
 288              		@ args = 0, pretend = 0, frame = 0
 289              		@ frame_needed = 1, uses_anonymous_args = 0
 290 0140 80B5     		push	{r7, lr}
 291              	.LCFI8:
 292              		.cfi_def_cfa_offset 8
 293              		.cfi_offset 7, -8
 294              		.cfi_offset 14, -4
 295 0142 00AF     		add	r7, sp, #0
 296              	.LCFI9:
 297              		.cfi_def_cfa_register 7
 421:../../source/src/CMSIS/system_stm32f10x.c **** #ifdef SYSCLK_FREQ_HSE
 422:../../source/src/CMSIS/system_stm32f10x.c ****   SetSysClockToHSE();
 423:../../source/src/CMSIS/system_stm32f10x.c **** #elif defined SYSCLK_FREQ_24MHz
 424:../../source/src/CMSIS/system_stm32f10x.c ****   SetSysClockTo24();
 425:../../source/src/CMSIS/system_stm32f10x.c **** #elif defined SYSCLK_FREQ_36MHz
 426:../../source/src/CMSIS/system_stm32f10x.c ****   SetSysClockTo36();
 427:../../source/src/CMSIS/system_stm32f10x.c **** #elif defined SYSCLK_FREQ_48MHz
 428:../../source/src/CMSIS/system_stm32f10x.c ****   SetSysClockTo48();
 429:../../source/src/CMSIS/system_stm32f10x.c **** #elif defined SYSCLK_FREQ_56MHz
 430:../../source/src/CMSIS/system_stm32f10x.c ****   SetSysClockTo56();  
 431:../../source/src/CMSIS/system_stm32f10x.c **** #elif defined SYSCLK_FREQ_72MHz
 432:../../source/src/CMSIS/system_stm32f10x.c ****   SetSysClockTo72();
 298              		.loc 1 432 0
 299 0144 00F002F8 		bl	SetSysClockTo72
 433:../../source/src/CMSIS/system_stm32f10x.c **** #endif
 434:../../source/src/CMSIS/system_stm32f10x.c ****  
 435:../../source/src/CMSIS/system_stm32f10x.c ****  /* If none of the define above is enabled, the HSI is used as System clock
 436:../../source/src/CMSIS/system_stm32f10x.c ****     source (default after reset) */ 
 437:../../source/src/CMSIS/system_stm32f10x.c **** }
 300              		.loc 1 437 0
 301 0148 00BF     		nop
ARM GAS  G:\Users\Jaxb\AppData\Local\Temp\ccRPtXAk.s 			page 14


 302 014a 80BD     		pop	{r7, pc}
 303              		.cfi_endproc
 304              	.LFE31:
 305              		.size	SetSysClock, .-SetSysClock
 306              		.align	1
 307              		.syntax unified
 308              		.thumb
 309              		.thumb_func
 310              		.fpu softvfp
 311              		.type	SetSysClockTo72, %function
 312              	SetSysClockTo72:
 313              	.LFB32:
 438:../../source/src/CMSIS/system_stm32f10x.c **** 
 439:../../source/src/CMSIS/system_stm32f10x.c **** /**
 440:../../source/src/CMSIS/system_stm32f10x.c ****   * @brief  Setup the external memory controller. Called in startup_stm32f10x.s 
 441:../../source/src/CMSIS/system_stm32f10x.c ****   *          before jump to __main
 442:../../source/src/CMSIS/system_stm32f10x.c ****   * @param  None
 443:../../source/src/CMSIS/system_stm32f10x.c ****   * @retval None
 444:../../source/src/CMSIS/system_stm32f10x.c ****   */ 
 445:../../source/src/CMSIS/system_stm32f10x.c **** #ifdef DATA_IN_ExtSRAM
 446:../../source/src/CMSIS/system_stm32f10x.c **** /**
 447:../../source/src/CMSIS/system_stm32f10x.c ****   * @brief  Setup the external memory controller. 
 448:../../source/src/CMSIS/system_stm32f10x.c ****   *         Called in startup_stm32f10x_xx.s/.c before jump to main.
 449:../../source/src/CMSIS/system_stm32f10x.c ****   * 	      This function configures the external SRAM mounted on STM3210E-EVAL
 450:../../source/src/CMSIS/system_stm32f10x.c ****   *         board (STM32 High density devices). This SRAM will be used as program
 451:../../source/src/CMSIS/system_stm32f10x.c ****   *         data memory (including heap and stack).
 452:../../source/src/CMSIS/system_stm32f10x.c ****   * @param  None
 453:../../source/src/CMSIS/system_stm32f10x.c ****   * @retval None
 454:../../source/src/CMSIS/system_stm32f10x.c ****   */ 
 455:../../source/src/CMSIS/system_stm32f10x.c **** void SystemInit_ExtMemCtl(void) 
 456:../../source/src/CMSIS/system_stm32f10x.c **** {
 457:../../source/src/CMSIS/system_stm32f10x.c **** /*!< FSMC Bank1 NOR/SRAM3 is used for the STM3210E-EVAL, if another Bank is 
 458:../../source/src/CMSIS/system_stm32f10x.c ****   required, then adjust the Register Addresses */
 459:../../source/src/CMSIS/system_stm32f10x.c **** 
 460:../../source/src/CMSIS/system_stm32f10x.c ****   /* Enable FSMC clock */
 461:../../source/src/CMSIS/system_stm32f10x.c ****   RCC->AHBENR = 0x00000114;
 462:../../source/src/CMSIS/system_stm32f10x.c ****   
 463:../../source/src/CMSIS/system_stm32f10x.c ****   /* Enable GPIOD, GPIOE, GPIOF and GPIOG clocks */  
 464:../../source/src/CMSIS/system_stm32f10x.c ****   RCC->APB2ENR = 0x000001E0;
 465:../../source/src/CMSIS/system_stm32f10x.c ****   
 466:../../source/src/CMSIS/system_stm32f10x.c **** /* ---------------  SRAM Data lines, NOE and NWE configuration ---------------*/
 467:../../source/src/CMSIS/system_stm32f10x.c **** /*----------------  SRAM Address lines configuration -------------------------*/
 468:../../source/src/CMSIS/system_stm32f10x.c **** /*----------------  NOE and NWE configuration --------------------------------*/  
 469:../../source/src/CMSIS/system_stm32f10x.c **** /*----------------  NE3 configuration ----------------------------------------*/
 470:../../source/src/CMSIS/system_stm32f10x.c **** /*----------------  NBL0, NBL1 configuration ---------------------------------*/
 471:../../source/src/CMSIS/system_stm32f10x.c ****   
 472:../../source/src/CMSIS/system_stm32f10x.c ****   GPIOD->CRL = 0x44BB44BB;  
 473:../../source/src/CMSIS/system_stm32f10x.c ****   GPIOD->CRH = 0xBBBBBBBB;
 474:../../source/src/CMSIS/system_stm32f10x.c **** 
 475:../../source/src/CMSIS/system_stm32f10x.c ****   GPIOE->CRL = 0xB44444BB;  
 476:../../source/src/CMSIS/system_stm32f10x.c ****   GPIOE->CRH = 0xBBBBBBBB;
 477:../../source/src/CMSIS/system_stm32f10x.c **** 
 478:../../source/src/CMSIS/system_stm32f10x.c ****   GPIOF->CRL = 0x44BBBBBB;  
 479:../../source/src/CMSIS/system_stm32f10x.c ****   GPIOF->CRH = 0xBBBB4444;
 480:../../source/src/CMSIS/system_stm32f10x.c **** 
 481:../../source/src/CMSIS/system_stm32f10x.c ****   GPIOG->CRL = 0x44BBBBBB;  
 482:../../source/src/CMSIS/system_stm32f10x.c ****   GPIOG->CRH = 0x44444B44;
ARM GAS  G:\Users\Jaxb\AppData\Local\Temp\ccRPtXAk.s 			page 15


 483:../../source/src/CMSIS/system_stm32f10x.c ****    
 484:../../source/src/CMSIS/system_stm32f10x.c **** /*----------------  FSMC Configuration ---------------------------------------*/  
 485:../../source/src/CMSIS/system_stm32f10x.c **** /*----------------  Enable FSMC Bank1_SRAM Bank ------------------------------*/
 486:../../source/src/CMSIS/system_stm32f10x.c ****   
 487:../../source/src/CMSIS/system_stm32f10x.c ****   FSMC_Bank1->BTCR[4] = 0x00001011;
 488:../../source/src/CMSIS/system_stm32f10x.c ****   FSMC_Bank1->BTCR[5] = 0x00000200;
 489:../../source/src/CMSIS/system_stm32f10x.c **** }
 490:../../source/src/CMSIS/system_stm32f10x.c **** #endif /* DATA_IN_ExtSRAM */
 491:../../source/src/CMSIS/system_stm32f10x.c **** 
 492:../../source/src/CMSIS/system_stm32f10x.c **** #ifdef SYSCLK_FREQ_HSE
 493:../../source/src/CMSIS/system_stm32f10x.c **** /**
 494:../../source/src/CMSIS/system_stm32f10x.c ****   * @brief  Selects HSE as System clock source and configure HCLK, PCLK2
 495:../../source/src/CMSIS/system_stm32f10x.c ****   *         and PCLK1 prescalers.
 496:../../source/src/CMSIS/system_stm32f10x.c ****   * @note   This function should be used only after reset.
 497:../../source/src/CMSIS/system_stm32f10x.c ****   * @param  None
 498:../../source/src/CMSIS/system_stm32f10x.c ****   * @retval None
 499:../../source/src/CMSIS/system_stm32f10x.c ****   */
 500:../../source/src/CMSIS/system_stm32f10x.c **** static void SetSysClockToHSE(void)
 501:../../source/src/CMSIS/system_stm32f10x.c **** {
 502:../../source/src/CMSIS/system_stm32f10x.c ****   __IO uint32_t StartUpCounter = 0, HSEStatus = 0;
 503:../../source/src/CMSIS/system_stm32f10x.c ****   
 504:../../source/src/CMSIS/system_stm32f10x.c ****   /* SYSCLK, HCLK, PCLK2 and PCLK1 configuration ---------------------------*/    
 505:../../source/src/CMSIS/system_stm32f10x.c ****   /* Enable HSE */    
 506:../../source/src/CMSIS/system_stm32f10x.c ****   RCC->CR |= ((uint32_t)RCC_CR_HSEON);
 507:../../source/src/CMSIS/system_stm32f10x.c ****  
 508:../../source/src/CMSIS/system_stm32f10x.c ****   /* Wait till HSE is ready and if Time out is reached exit */
 509:../../source/src/CMSIS/system_stm32f10x.c ****   do
 510:../../source/src/CMSIS/system_stm32f10x.c ****   {
 511:../../source/src/CMSIS/system_stm32f10x.c ****     HSEStatus = RCC->CR & RCC_CR_HSERDY;
 512:../../source/src/CMSIS/system_stm32f10x.c ****     StartUpCounter++;  
 513:../../source/src/CMSIS/system_stm32f10x.c ****   } while((HSEStatus == 0) && (StartUpCounter != HSE_STARTUP_TIMEOUT));
 514:../../source/src/CMSIS/system_stm32f10x.c **** 
 515:../../source/src/CMSIS/system_stm32f10x.c ****   if ((RCC->CR & RCC_CR_HSERDY) != RESET)
 516:../../source/src/CMSIS/system_stm32f10x.c ****   {
 517:../../source/src/CMSIS/system_stm32f10x.c ****     HSEStatus = (uint32_t)0x01;
 518:../../source/src/CMSIS/system_stm32f10x.c ****   }
 519:../../source/src/CMSIS/system_stm32f10x.c ****   else
 520:../../source/src/CMSIS/system_stm32f10x.c ****   {
 521:../../source/src/CMSIS/system_stm32f10x.c ****     HSEStatus = (uint32_t)0x00;
 522:../../source/src/CMSIS/system_stm32f10x.c ****   }  
 523:../../source/src/CMSIS/system_stm32f10x.c **** 
 524:../../source/src/CMSIS/system_stm32f10x.c ****   if (HSEStatus == (uint32_t)0x01)
 525:../../source/src/CMSIS/system_stm32f10x.c ****   {
 526:../../source/src/CMSIS/system_stm32f10x.c **** 
 527:../../source/src/CMSIS/system_stm32f10x.c **** #if !defined STM32F10X_LD_VL && !defined STM32F10X_MD_VL && !defined STM32F10X_HD_VL
 528:../../source/src/CMSIS/system_stm32f10x.c ****     /* Enable Prefetch Buffer */
 529:../../source/src/CMSIS/system_stm32f10x.c ****     FLASH->ACR |= FLASH_ACR_PRFTBE;
 530:../../source/src/CMSIS/system_stm32f10x.c **** 
 531:../../source/src/CMSIS/system_stm32f10x.c ****     /* Flash 0 wait state */
 532:../../source/src/CMSIS/system_stm32f10x.c ****     FLASH->ACR &= (uint32_t)((uint32_t)~FLASH_ACR_LATENCY);
 533:../../source/src/CMSIS/system_stm32f10x.c **** 
 534:../../source/src/CMSIS/system_stm32f10x.c **** #ifndef STM32F10X_CL
 535:../../source/src/CMSIS/system_stm32f10x.c ****     FLASH->ACR |= (uint32_t)FLASH_ACR_LATENCY_0;
 536:../../source/src/CMSIS/system_stm32f10x.c **** #else
 537:../../source/src/CMSIS/system_stm32f10x.c ****     if (HSE_VALUE <= 24000000)
 538:../../source/src/CMSIS/system_stm32f10x.c **** 	{
 539:../../source/src/CMSIS/system_stm32f10x.c ****       FLASH->ACR |= (uint32_t)FLASH_ACR_LATENCY_0;
ARM GAS  G:\Users\Jaxb\AppData\Local\Temp\ccRPtXAk.s 			page 16


 540:../../source/src/CMSIS/system_stm32f10x.c **** 	}
 541:../../source/src/CMSIS/system_stm32f10x.c **** 	else
 542:../../source/src/CMSIS/system_stm32f10x.c **** 	{
 543:../../source/src/CMSIS/system_stm32f10x.c ****       FLASH->ACR |= (uint32_t)FLASH_ACR_LATENCY_1;
 544:../../source/src/CMSIS/system_stm32f10x.c **** 	}
 545:../../source/src/CMSIS/system_stm32f10x.c **** #endif /* STM32F10X_CL */
 546:../../source/src/CMSIS/system_stm32f10x.c **** #endif
 547:../../source/src/CMSIS/system_stm32f10x.c ****  
 548:../../source/src/CMSIS/system_stm32f10x.c ****     /* HCLK = SYSCLK */
 549:../../source/src/CMSIS/system_stm32f10x.c ****     RCC->CFGR |= (uint32_t)RCC_CFGR_HPRE_DIV1;
 550:../../source/src/CMSIS/system_stm32f10x.c ****       
 551:../../source/src/CMSIS/system_stm32f10x.c ****     /* PCLK2 = HCLK */
 552:../../source/src/CMSIS/system_stm32f10x.c ****     RCC->CFGR |= (uint32_t)RCC_CFGR_PPRE2_DIV1;
 553:../../source/src/CMSIS/system_stm32f10x.c ****     
 554:../../source/src/CMSIS/system_stm32f10x.c ****     /* PCLK1 = HCLK */
 555:../../source/src/CMSIS/system_stm32f10x.c ****     RCC->CFGR |= (uint32_t)RCC_CFGR_PPRE1_DIV1;
 556:../../source/src/CMSIS/system_stm32f10x.c ****     
 557:../../source/src/CMSIS/system_stm32f10x.c ****     /* Select HSE as system clock source */
 558:../../source/src/CMSIS/system_stm32f10x.c ****     RCC->CFGR &= (uint32_t)((uint32_t)~(RCC_CFGR_SW));
 559:../../source/src/CMSIS/system_stm32f10x.c ****     RCC->CFGR |= (uint32_t)RCC_CFGR_SW_HSE;    
 560:../../source/src/CMSIS/system_stm32f10x.c **** 
 561:../../source/src/CMSIS/system_stm32f10x.c ****     /* Wait till HSE is used as system clock source */
 562:../../source/src/CMSIS/system_stm32f10x.c ****     while ((RCC->CFGR & (uint32_t)RCC_CFGR_SWS) != (uint32_t)0x04)
 563:../../source/src/CMSIS/system_stm32f10x.c ****     {
 564:../../source/src/CMSIS/system_stm32f10x.c ****     }
 565:../../source/src/CMSIS/system_stm32f10x.c ****   }
 566:../../source/src/CMSIS/system_stm32f10x.c ****   else
 567:../../source/src/CMSIS/system_stm32f10x.c ****   { /* If HSE fails to start-up, the application will have wrong clock 
 568:../../source/src/CMSIS/system_stm32f10x.c ****          configuration. User can add here some code to deal with this error */
 569:../../source/src/CMSIS/system_stm32f10x.c ****   }  
 570:../../source/src/CMSIS/system_stm32f10x.c **** }
 571:../../source/src/CMSIS/system_stm32f10x.c **** #elif defined SYSCLK_FREQ_24MHz
 572:../../source/src/CMSIS/system_stm32f10x.c **** /**
 573:../../source/src/CMSIS/system_stm32f10x.c ****   * @brief  Sets System clock frequency to 24MHz and configure HCLK, PCLK2 
 574:../../source/src/CMSIS/system_stm32f10x.c ****   *         and PCLK1 prescalers.
 575:../../source/src/CMSIS/system_stm32f10x.c ****   * @note   This function should be used only after reset.
 576:../../source/src/CMSIS/system_stm32f10x.c ****   * @param  None
 577:../../source/src/CMSIS/system_stm32f10x.c ****   * @retval None
 578:../../source/src/CMSIS/system_stm32f10x.c ****   */
 579:../../source/src/CMSIS/system_stm32f10x.c **** static void SetSysClockTo24(void)
 580:../../source/src/CMSIS/system_stm32f10x.c **** {
 581:../../source/src/CMSIS/system_stm32f10x.c ****   __IO uint32_t StartUpCounter = 0, HSEStatus = 0;
 582:../../source/src/CMSIS/system_stm32f10x.c ****   
 583:../../source/src/CMSIS/system_stm32f10x.c ****   /* SYSCLK, HCLK, PCLK2 and PCLK1 configuration ---------------------------*/    
 584:../../source/src/CMSIS/system_stm32f10x.c ****   /* Enable HSE */    
 585:../../source/src/CMSIS/system_stm32f10x.c ****   RCC->CR |= ((uint32_t)RCC_CR_HSEON);
 586:../../source/src/CMSIS/system_stm32f10x.c ****  
 587:../../source/src/CMSIS/system_stm32f10x.c ****   /* Wait till HSE is ready and if Time out is reached exit */
 588:../../source/src/CMSIS/system_stm32f10x.c ****   do
 589:../../source/src/CMSIS/system_stm32f10x.c ****   {
 590:../../source/src/CMSIS/system_stm32f10x.c ****     HSEStatus = RCC->CR & RCC_CR_HSERDY;
 591:../../source/src/CMSIS/system_stm32f10x.c ****     StartUpCounter++;  
 592:../../source/src/CMSIS/system_stm32f10x.c ****   } while((HSEStatus == 0) && (StartUpCounter != HSE_STARTUP_TIMEOUT));
 593:../../source/src/CMSIS/system_stm32f10x.c **** 
 594:../../source/src/CMSIS/system_stm32f10x.c ****   if ((RCC->CR & RCC_CR_HSERDY) != RESET)
 595:../../source/src/CMSIS/system_stm32f10x.c ****   {
 596:../../source/src/CMSIS/system_stm32f10x.c ****     HSEStatus = (uint32_t)0x01;
ARM GAS  G:\Users\Jaxb\AppData\Local\Temp\ccRPtXAk.s 			page 17


 597:../../source/src/CMSIS/system_stm32f10x.c ****   }
 598:../../source/src/CMSIS/system_stm32f10x.c ****   else
 599:../../source/src/CMSIS/system_stm32f10x.c ****   {
 600:../../source/src/CMSIS/system_stm32f10x.c ****     HSEStatus = (uint32_t)0x00;
 601:../../source/src/CMSIS/system_stm32f10x.c ****   }  
 602:../../source/src/CMSIS/system_stm32f10x.c **** 
 603:../../source/src/CMSIS/system_stm32f10x.c ****   if (HSEStatus == (uint32_t)0x01)
 604:../../source/src/CMSIS/system_stm32f10x.c ****   {
 605:../../source/src/CMSIS/system_stm32f10x.c **** #if !defined STM32F10X_LD_VL && !defined STM32F10X_MD_VL && !defined STM32F10X_HD_VL 
 606:../../source/src/CMSIS/system_stm32f10x.c ****     /* Enable Prefetch Buffer */
 607:../../source/src/CMSIS/system_stm32f10x.c ****     FLASH->ACR |= FLASH_ACR_PRFTBE;
 608:../../source/src/CMSIS/system_stm32f10x.c **** 
 609:../../source/src/CMSIS/system_stm32f10x.c ****     /* Flash 0 wait state */
 610:../../source/src/CMSIS/system_stm32f10x.c ****     FLASH->ACR &= (uint32_t)((uint32_t)~FLASH_ACR_LATENCY);
 611:../../source/src/CMSIS/system_stm32f10x.c ****     FLASH->ACR |= (uint32_t)FLASH_ACR_LATENCY_0;    
 612:../../source/src/CMSIS/system_stm32f10x.c **** #endif
 613:../../source/src/CMSIS/system_stm32f10x.c ****  
 614:../../source/src/CMSIS/system_stm32f10x.c ****     /* HCLK = SYSCLK */
 615:../../source/src/CMSIS/system_stm32f10x.c ****     RCC->CFGR |= (uint32_t)RCC_CFGR_HPRE_DIV1;
 616:../../source/src/CMSIS/system_stm32f10x.c ****       
 617:../../source/src/CMSIS/system_stm32f10x.c ****     /* PCLK2 = HCLK */
 618:../../source/src/CMSIS/system_stm32f10x.c ****     RCC->CFGR |= (uint32_t)RCC_CFGR_PPRE2_DIV1;
 619:../../source/src/CMSIS/system_stm32f10x.c ****     
 620:../../source/src/CMSIS/system_stm32f10x.c ****     /* PCLK1 = HCLK */
 621:../../source/src/CMSIS/system_stm32f10x.c ****     RCC->CFGR |= (uint32_t)RCC_CFGR_PPRE1_DIV1;
 622:../../source/src/CMSIS/system_stm32f10x.c ****     
 623:../../source/src/CMSIS/system_stm32f10x.c **** #ifdef STM32F10X_CL
 624:../../source/src/CMSIS/system_stm32f10x.c ****     /* Configure PLLs ------------------------------------------------------*/
 625:../../source/src/CMSIS/system_stm32f10x.c ****     /* PLL configuration: PLLCLK = PREDIV1 * 6 = 24 MHz */ 
 626:../../source/src/CMSIS/system_stm32f10x.c ****     RCC->CFGR &= (uint32_t)~(RCC_CFGR_PLLXTPRE | RCC_CFGR_PLLSRC | RCC_CFGR_PLLMULL);
 627:../../source/src/CMSIS/system_stm32f10x.c ****     RCC->CFGR |= (uint32_t)(RCC_CFGR_PLLXTPRE_PREDIV1 | RCC_CFGR_PLLSRC_PREDIV1 | 
 628:../../source/src/CMSIS/system_stm32f10x.c ****                             RCC_CFGR_PLLMULL6); 
 629:../../source/src/CMSIS/system_stm32f10x.c **** 
 630:../../source/src/CMSIS/system_stm32f10x.c ****     /* PLL2 configuration: PLL2CLK = (HSE / 5) * 8 = 40 MHz */
 631:../../source/src/CMSIS/system_stm32f10x.c ****     /* PREDIV1 configuration: PREDIV1CLK = PLL2 / 10 = 4 MHz */       
 632:../../source/src/CMSIS/system_stm32f10x.c ****     RCC->CFGR2 &= (uint32_t)~(RCC_CFGR2_PREDIV2 | RCC_CFGR2_PLL2MUL |
 633:../../source/src/CMSIS/system_stm32f10x.c ****                               RCC_CFGR2_PREDIV1 | RCC_CFGR2_PREDIV1SRC);
 634:../../source/src/CMSIS/system_stm32f10x.c ****     RCC->CFGR2 |= (uint32_t)(RCC_CFGR2_PREDIV2_DIV5 | RCC_CFGR2_PLL2MUL8 |
 635:../../source/src/CMSIS/system_stm32f10x.c ****                              RCC_CFGR2_PREDIV1SRC_PLL2 | RCC_CFGR2_PREDIV1_DIV10);
 636:../../source/src/CMSIS/system_stm32f10x.c ****   
 637:../../source/src/CMSIS/system_stm32f10x.c ****     /* Enable PLL2 */
 638:../../source/src/CMSIS/system_stm32f10x.c ****     RCC->CR |= RCC_CR_PLL2ON;
 639:../../source/src/CMSIS/system_stm32f10x.c ****     /* Wait till PLL2 is ready */
 640:../../source/src/CMSIS/system_stm32f10x.c ****     while((RCC->CR & RCC_CR_PLL2RDY) == 0)
 641:../../source/src/CMSIS/system_stm32f10x.c ****     {
 642:../../source/src/CMSIS/system_stm32f10x.c ****     }   
 643:../../source/src/CMSIS/system_stm32f10x.c **** #elif defined (STM32F10X_LD_VL) || defined (STM32F10X_MD_VL) || defined (STM32F10X_HD_VL)
 644:../../source/src/CMSIS/system_stm32f10x.c ****     /*  PLL configuration:  = (HSE / 2) * 6 = 24 MHz */
 645:../../source/src/CMSIS/system_stm32f10x.c ****     RCC->CFGR &= (uint32_t)((uint32_t)~(RCC_CFGR_PLLSRC | RCC_CFGR_PLLXTPRE | RCC_CFGR_PLLMULL));
 646:../../source/src/CMSIS/system_stm32f10x.c ****     RCC->CFGR |= (uint32_t)(RCC_CFGR_PLLSRC_PREDIV1 | RCC_CFGR_PLLXTPRE_PREDIV1_Div2 | RCC_CFGR_PLL
 647:../../source/src/CMSIS/system_stm32f10x.c **** #else    
 648:../../source/src/CMSIS/system_stm32f10x.c ****     /*  PLL configuration:  = (HSE / 2) * 6 = 24 MHz */
 649:../../source/src/CMSIS/system_stm32f10x.c ****     RCC->CFGR &= (uint32_t)((uint32_t)~(RCC_CFGR_PLLSRC | RCC_CFGR_PLLXTPRE | RCC_CFGR_PLLMULL));
 650:../../source/src/CMSIS/system_stm32f10x.c ****     RCC->CFGR |= (uint32_t)(RCC_CFGR_PLLSRC_HSE | RCC_CFGR_PLLXTPRE_HSE_Div2 | RCC_CFGR_PLLMULL6);
 651:../../source/src/CMSIS/system_stm32f10x.c **** #endif /* STM32F10X_CL */
 652:../../source/src/CMSIS/system_stm32f10x.c **** 
 653:../../source/src/CMSIS/system_stm32f10x.c ****     /* Enable PLL */
ARM GAS  G:\Users\Jaxb\AppData\Local\Temp\ccRPtXAk.s 			page 18


 654:../../source/src/CMSIS/system_stm32f10x.c ****     RCC->CR |= RCC_CR_PLLON;
 655:../../source/src/CMSIS/system_stm32f10x.c **** 
 656:../../source/src/CMSIS/system_stm32f10x.c ****     /* Wait till PLL is ready */
 657:../../source/src/CMSIS/system_stm32f10x.c ****     while((RCC->CR & RCC_CR_PLLRDY) == 0)
 658:../../source/src/CMSIS/system_stm32f10x.c ****     {
 659:../../source/src/CMSIS/system_stm32f10x.c ****     }
 660:../../source/src/CMSIS/system_stm32f10x.c **** 
 661:../../source/src/CMSIS/system_stm32f10x.c ****     /* Select PLL as system clock source */
 662:../../source/src/CMSIS/system_stm32f10x.c ****     RCC->CFGR &= (uint32_t)((uint32_t)~(RCC_CFGR_SW));
 663:../../source/src/CMSIS/system_stm32f10x.c ****     RCC->CFGR |= (uint32_t)RCC_CFGR_SW_PLL;    
 664:../../source/src/CMSIS/system_stm32f10x.c **** 
 665:../../source/src/CMSIS/system_stm32f10x.c ****     /* Wait till PLL is used as system clock source */
 666:../../source/src/CMSIS/system_stm32f10x.c ****     while ((RCC->CFGR & (uint32_t)RCC_CFGR_SWS) != (uint32_t)0x08)
 667:../../source/src/CMSIS/system_stm32f10x.c ****     {
 668:../../source/src/CMSIS/system_stm32f10x.c ****     }
 669:../../source/src/CMSIS/system_stm32f10x.c ****   }
 670:../../source/src/CMSIS/system_stm32f10x.c ****   else
 671:../../source/src/CMSIS/system_stm32f10x.c ****   { /* If HSE fails to start-up, the application will have wrong clock 
 672:../../source/src/CMSIS/system_stm32f10x.c ****          configuration. User can add here some code to deal with this error */
 673:../../source/src/CMSIS/system_stm32f10x.c ****   } 
 674:../../source/src/CMSIS/system_stm32f10x.c **** }
 675:../../source/src/CMSIS/system_stm32f10x.c **** #elif defined SYSCLK_FREQ_36MHz
 676:../../source/src/CMSIS/system_stm32f10x.c **** /**
 677:../../source/src/CMSIS/system_stm32f10x.c ****   * @brief  Sets System clock frequency to 36MHz and configure HCLK, PCLK2 
 678:../../source/src/CMSIS/system_stm32f10x.c ****   *         and PCLK1 prescalers. 
 679:../../source/src/CMSIS/system_stm32f10x.c ****   * @note   This function should be used only after reset.
 680:../../source/src/CMSIS/system_stm32f10x.c ****   * @param  None
 681:../../source/src/CMSIS/system_stm32f10x.c ****   * @retval None
 682:../../source/src/CMSIS/system_stm32f10x.c ****   */
 683:../../source/src/CMSIS/system_stm32f10x.c **** static void SetSysClockTo36(void)
 684:../../source/src/CMSIS/system_stm32f10x.c **** {
 685:../../source/src/CMSIS/system_stm32f10x.c ****   __IO uint32_t StartUpCounter = 0, HSEStatus = 0;
 686:../../source/src/CMSIS/system_stm32f10x.c ****   
 687:../../source/src/CMSIS/system_stm32f10x.c ****   /* SYSCLK, HCLK, PCLK2 and PCLK1 configuration ---------------------------*/    
 688:../../source/src/CMSIS/system_stm32f10x.c ****   /* Enable HSE */    
 689:../../source/src/CMSIS/system_stm32f10x.c ****   RCC->CR |= ((uint32_t)RCC_CR_HSEON);
 690:../../source/src/CMSIS/system_stm32f10x.c ****  
 691:../../source/src/CMSIS/system_stm32f10x.c ****   /* Wait till HSE is ready and if Time out is reached exit */
 692:../../source/src/CMSIS/system_stm32f10x.c ****   do
 693:../../source/src/CMSIS/system_stm32f10x.c ****   {
 694:../../source/src/CMSIS/system_stm32f10x.c ****     HSEStatus = RCC->CR & RCC_CR_HSERDY;
 695:../../source/src/CMSIS/system_stm32f10x.c ****     StartUpCounter++;  
 696:../../source/src/CMSIS/system_stm32f10x.c ****   } while((HSEStatus == 0) && (StartUpCounter != HSE_STARTUP_TIMEOUT));
 697:../../source/src/CMSIS/system_stm32f10x.c **** 
 698:../../source/src/CMSIS/system_stm32f10x.c ****   if ((RCC->CR & RCC_CR_HSERDY) != RESET)
 699:../../source/src/CMSIS/system_stm32f10x.c ****   {
 700:../../source/src/CMSIS/system_stm32f10x.c ****     HSEStatus = (uint32_t)0x01;
 701:../../source/src/CMSIS/system_stm32f10x.c ****   }
 702:../../source/src/CMSIS/system_stm32f10x.c ****   else
 703:../../source/src/CMSIS/system_stm32f10x.c ****   {
 704:../../source/src/CMSIS/system_stm32f10x.c ****     HSEStatus = (uint32_t)0x00;
 705:../../source/src/CMSIS/system_stm32f10x.c ****   }  
 706:../../source/src/CMSIS/system_stm32f10x.c **** 
 707:../../source/src/CMSIS/system_stm32f10x.c ****   if (HSEStatus == (uint32_t)0x01)
 708:../../source/src/CMSIS/system_stm32f10x.c ****   {
 709:../../source/src/CMSIS/system_stm32f10x.c ****     /* Enable Prefetch Buffer */
 710:../../source/src/CMSIS/system_stm32f10x.c ****     FLASH->ACR |= FLASH_ACR_PRFTBE;
ARM GAS  G:\Users\Jaxb\AppData\Local\Temp\ccRPtXAk.s 			page 19


 711:../../source/src/CMSIS/system_stm32f10x.c **** 
 712:../../source/src/CMSIS/system_stm32f10x.c ****     /* Flash 1 wait state */
 713:../../source/src/CMSIS/system_stm32f10x.c ****     FLASH->ACR &= (uint32_t)((uint32_t)~FLASH_ACR_LATENCY);
 714:../../source/src/CMSIS/system_stm32f10x.c ****     FLASH->ACR |= (uint32_t)FLASH_ACR_LATENCY_1;    
 715:../../source/src/CMSIS/system_stm32f10x.c ****  
 716:../../source/src/CMSIS/system_stm32f10x.c ****     /* HCLK = SYSCLK */
 717:../../source/src/CMSIS/system_stm32f10x.c ****     RCC->CFGR |= (uint32_t)RCC_CFGR_HPRE_DIV1;
 718:../../source/src/CMSIS/system_stm32f10x.c ****       
 719:../../source/src/CMSIS/system_stm32f10x.c ****     /* PCLK2 = HCLK */
 720:../../source/src/CMSIS/system_stm32f10x.c ****     RCC->CFGR |= (uint32_t)RCC_CFGR_PPRE2_DIV1;
 721:../../source/src/CMSIS/system_stm32f10x.c ****     
 722:../../source/src/CMSIS/system_stm32f10x.c ****     /* PCLK1 = HCLK */
 723:../../source/src/CMSIS/system_stm32f10x.c ****     RCC->CFGR |= (uint32_t)RCC_CFGR_PPRE1_DIV1;
 724:../../source/src/CMSIS/system_stm32f10x.c ****     
 725:../../source/src/CMSIS/system_stm32f10x.c **** #ifdef STM32F10X_CL
 726:../../source/src/CMSIS/system_stm32f10x.c ****     /* Configure PLLs ------------------------------------------------------*/
 727:../../source/src/CMSIS/system_stm32f10x.c ****     
 728:../../source/src/CMSIS/system_stm32f10x.c ****     /* PLL configuration: PLLCLK = PREDIV1 * 9 = 36 MHz */ 
 729:../../source/src/CMSIS/system_stm32f10x.c ****     RCC->CFGR &= (uint32_t)~(RCC_CFGR_PLLXTPRE | RCC_CFGR_PLLSRC | RCC_CFGR_PLLMULL);
 730:../../source/src/CMSIS/system_stm32f10x.c ****     RCC->CFGR |= (uint32_t)(RCC_CFGR_PLLXTPRE_PREDIV1 | RCC_CFGR_PLLSRC_PREDIV1 | 
 731:../../source/src/CMSIS/system_stm32f10x.c ****                             RCC_CFGR_PLLMULL9); 
 732:../../source/src/CMSIS/system_stm32f10x.c **** 
 733:../../source/src/CMSIS/system_stm32f10x.c **** 	/*!< PLL2 configuration: PLL2CLK = (HSE / 5) * 8 = 40 MHz */
 734:../../source/src/CMSIS/system_stm32f10x.c ****     /* PREDIV1 configuration: PREDIV1CLK = PLL2 / 10 = 4 MHz */
 735:../../source/src/CMSIS/system_stm32f10x.c ****         
 736:../../source/src/CMSIS/system_stm32f10x.c ****     RCC->CFGR2 &= (uint32_t)~(RCC_CFGR2_PREDIV2 | RCC_CFGR2_PLL2MUL |
 737:../../source/src/CMSIS/system_stm32f10x.c ****                               RCC_CFGR2_PREDIV1 | RCC_CFGR2_PREDIV1SRC);
 738:../../source/src/CMSIS/system_stm32f10x.c ****     RCC->CFGR2 |= (uint32_t)(RCC_CFGR2_PREDIV2_DIV5 | RCC_CFGR2_PLL2MUL8 |
 739:../../source/src/CMSIS/system_stm32f10x.c ****                              RCC_CFGR2_PREDIV1SRC_PLL2 | RCC_CFGR2_PREDIV1_DIV10);
 740:../../source/src/CMSIS/system_stm32f10x.c ****   
 741:../../source/src/CMSIS/system_stm32f10x.c ****     /* Enable PLL2 */
 742:../../source/src/CMSIS/system_stm32f10x.c ****     RCC->CR |= RCC_CR_PLL2ON;
 743:../../source/src/CMSIS/system_stm32f10x.c ****     /* Wait till PLL2 is ready */
 744:../../source/src/CMSIS/system_stm32f10x.c ****     while((RCC->CR & RCC_CR_PLL2RDY) == 0)
 745:../../source/src/CMSIS/system_stm32f10x.c ****     {
 746:../../source/src/CMSIS/system_stm32f10x.c ****     }
 747:../../source/src/CMSIS/system_stm32f10x.c ****     
 748:../../source/src/CMSIS/system_stm32f10x.c **** #else    
 749:../../source/src/CMSIS/system_stm32f10x.c ****     /*  PLL configuration: PLLCLK = (HSE / 2) * 9 = 36 MHz */
 750:../../source/src/CMSIS/system_stm32f10x.c ****     RCC->CFGR &= (uint32_t)((uint32_t)~(RCC_CFGR_PLLSRC | RCC_CFGR_PLLXTPRE | RCC_CFGR_PLLMULL));
 751:../../source/src/CMSIS/system_stm32f10x.c ****     RCC->CFGR |= (uint32_t)(RCC_CFGR_PLLSRC_HSE | RCC_CFGR_PLLXTPRE_HSE_Div2 | RCC_CFGR_PLLMULL9);
 752:../../source/src/CMSIS/system_stm32f10x.c **** #endif /* STM32F10X_CL */
 753:../../source/src/CMSIS/system_stm32f10x.c **** 
 754:../../source/src/CMSIS/system_stm32f10x.c ****     /* Enable PLL */
 755:../../source/src/CMSIS/system_stm32f10x.c ****     RCC->CR |= RCC_CR_PLLON;
 756:../../source/src/CMSIS/system_stm32f10x.c **** 
 757:../../source/src/CMSIS/system_stm32f10x.c ****     /* Wait till PLL is ready */
 758:../../source/src/CMSIS/system_stm32f10x.c ****     while((RCC->CR & RCC_CR_PLLRDY) == 0)
 759:../../source/src/CMSIS/system_stm32f10x.c ****     {
 760:../../source/src/CMSIS/system_stm32f10x.c ****     }
 761:../../source/src/CMSIS/system_stm32f10x.c **** 
 762:../../source/src/CMSIS/system_stm32f10x.c ****     /* Select PLL as system clock source */
 763:../../source/src/CMSIS/system_stm32f10x.c ****     RCC->CFGR &= (uint32_t)((uint32_t)~(RCC_CFGR_SW));
 764:../../source/src/CMSIS/system_stm32f10x.c ****     RCC->CFGR |= (uint32_t)RCC_CFGR_SW_PLL;    
 765:../../source/src/CMSIS/system_stm32f10x.c **** 
 766:../../source/src/CMSIS/system_stm32f10x.c ****     /* Wait till PLL is used as system clock source */
 767:../../source/src/CMSIS/system_stm32f10x.c ****     while ((RCC->CFGR & (uint32_t)RCC_CFGR_SWS) != (uint32_t)0x08)
ARM GAS  G:\Users\Jaxb\AppData\Local\Temp\ccRPtXAk.s 			page 20


 768:../../source/src/CMSIS/system_stm32f10x.c ****     {
 769:../../source/src/CMSIS/system_stm32f10x.c ****     }
 770:../../source/src/CMSIS/system_stm32f10x.c ****   }
 771:../../source/src/CMSIS/system_stm32f10x.c ****   else
 772:../../source/src/CMSIS/system_stm32f10x.c ****   { /* If HSE fails to start-up, the application will have wrong clock 
 773:../../source/src/CMSIS/system_stm32f10x.c ****          configuration. User can add here some code to deal with this error */
 774:../../source/src/CMSIS/system_stm32f10x.c ****   } 
 775:../../source/src/CMSIS/system_stm32f10x.c **** }
 776:../../source/src/CMSIS/system_stm32f10x.c **** #elif defined SYSCLK_FREQ_48MHz
 777:../../source/src/CMSIS/system_stm32f10x.c **** /**
 778:../../source/src/CMSIS/system_stm32f10x.c ****   * @brief  Sets System clock frequency to 48MHz and configure HCLK, PCLK2 
 779:../../source/src/CMSIS/system_stm32f10x.c ****   *         and PCLK1 prescalers. 
 780:../../source/src/CMSIS/system_stm32f10x.c ****   * @note   This function should be used only after reset.
 781:../../source/src/CMSIS/system_stm32f10x.c ****   * @param  None
 782:../../source/src/CMSIS/system_stm32f10x.c ****   * @retval None
 783:../../source/src/CMSIS/system_stm32f10x.c ****   */
 784:../../source/src/CMSIS/system_stm32f10x.c **** static void SetSysClockTo48(void)
 785:../../source/src/CMSIS/system_stm32f10x.c **** {
 786:../../source/src/CMSIS/system_stm32f10x.c ****   __IO uint32_t StartUpCounter = 0, HSEStatus = 0;
 787:../../source/src/CMSIS/system_stm32f10x.c ****   
 788:../../source/src/CMSIS/system_stm32f10x.c ****   /* SYSCLK, HCLK, PCLK2 and PCLK1 configuration ---------------------------*/    
 789:../../source/src/CMSIS/system_stm32f10x.c ****   /* Enable HSE */    
 790:../../source/src/CMSIS/system_stm32f10x.c ****   RCC->CR |= ((uint32_t)RCC_CR_HSEON);
 791:../../source/src/CMSIS/system_stm32f10x.c ****  
 792:../../source/src/CMSIS/system_stm32f10x.c ****   /* Wait till HSE is ready and if Time out is reached exit */
 793:../../source/src/CMSIS/system_stm32f10x.c ****   do
 794:../../source/src/CMSIS/system_stm32f10x.c ****   {
 795:../../source/src/CMSIS/system_stm32f10x.c ****     HSEStatus = RCC->CR & RCC_CR_HSERDY;
 796:../../source/src/CMSIS/system_stm32f10x.c ****     StartUpCounter++;  
 797:../../source/src/CMSIS/system_stm32f10x.c ****   } while((HSEStatus == 0) && (StartUpCounter != HSE_STARTUP_TIMEOUT));
 798:../../source/src/CMSIS/system_stm32f10x.c **** 
 799:../../source/src/CMSIS/system_stm32f10x.c ****   if ((RCC->CR & RCC_CR_HSERDY) != RESET)
 800:../../source/src/CMSIS/system_stm32f10x.c ****   {
 801:../../source/src/CMSIS/system_stm32f10x.c ****     HSEStatus = (uint32_t)0x01;
 802:../../source/src/CMSIS/system_stm32f10x.c ****   }
 803:../../source/src/CMSIS/system_stm32f10x.c ****   else
 804:../../source/src/CMSIS/system_stm32f10x.c ****   {
 805:../../source/src/CMSIS/system_stm32f10x.c ****     HSEStatus = (uint32_t)0x00;
 806:../../source/src/CMSIS/system_stm32f10x.c ****   }  
 807:../../source/src/CMSIS/system_stm32f10x.c **** 
 808:../../source/src/CMSIS/system_stm32f10x.c ****   if (HSEStatus == (uint32_t)0x01)
 809:../../source/src/CMSIS/system_stm32f10x.c ****   {
 810:../../source/src/CMSIS/system_stm32f10x.c ****     /* Enable Prefetch Buffer */
 811:../../source/src/CMSIS/system_stm32f10x.c ****     FLASH->ACR |= FLASH_ACR_PRFTBE;
 812:../../source/src/CMSIS/system_stm32f10x.c **** 
 813:../../source/src/CMSIS/system_stm32f10x.c ****     /* Flash 1 wait state */
 814:../../source/src/CMSIS/system_stm32f10x.c ****     FLASH->ACR &= (uint32_t)((uint32_t)~FLASH_ACR_LATENCY);
 815:../../source/src/CMSIS/system_stm32f10x.c ****     FLASH->ACR |= (uint32_t)FLASH_ACR_LATENCY_1;    
 816:../../source/src/CMSIS/system_stm32f10x.c ****  
 817:../../source/src/CMSIS/system_stm32f10x.c ****     /* HCLK = SYSCLK */
 818:../../source/src/CMSIS/system_stm32f10x.c ****     RCC->CFGR |= (uint32_t)RCC_CFGR_HPRE_DIV1;
 819:../../source/src/CMSIS/system_stm32f10x.c ****       
 820:../../source/src/CMSIS/system_stm32f10x.c ****     /* PCLK2 = HCLK */
 821:../../source/src/CMSIS/system_stm32f10x.c ****     RCC->CFGR |= (uint32_t)RCC_CFGR_PPRE2_DIV1;
 822:../../source/src/CMSIS/system_stm32f10x.c ****     
 823:../../source/src/CMSIS/system_stm32f10x.c ****     /* PCLK1 = HCLK */
 824:../../source/src/CMSIS/system_stm32f10x.c ****     RCC->CFGR |= (uint32_t)RCC_CFGR_PPRE1_DIV2;
ARM GAS  G:\Users\Jaxb\AppData\Local\Temp\ccRPtXAk.s 			page 21


 825:../../source/src/CMSIS/system_stm32f10x.c ****     
 826:../../source/src/CMSIS/system_stm32f10x.c **** #ifdef STM32F10X_CL
 827:../../source/src/CMSIS/system_stm32f10x.c ****     /* Configure PLLs ------------------------------------------------------*/
 828:../../source/src/CMSIS/system_stm32f10x.c ****     /* PLL2 configuration: PLL2CLK = (HSE / 5) * 8 = 40 MHz */
 829:../../source/src/CMSIS/system_stm32f10x.c ****     /* PREDIV1 configuration: PREDIV1CLK = PLL2 / 5 = 8 MHz */
 830:../../source/src/CMSIS/system_stm32f10x.c ****         
 831:../../source/src/CMSIS/system_stm32f10x.c ****     RCC->CFGR2 &= (uint32_t)~(RCC_CFGR2_PREDIV2 | RCC_CFGR2_PLL2MUL |
 832:../../source/src/CMSIS/system_stm32f10x.c ****                               RCC_CFGR2_PREDIV1 | RCC_CFGR2_PREDIV1SRC);
 833:../../source/src/CMSIS/system_stm32f10x.c ****     RCC->CFGR2 |= (uint32_t)(RCC_CFGR2_PREDIV2_DIV5 | RCC_CFGR2_PLL2MUL8 |
 834:../../source/src/CMSIS/system_stm32f10x.c ****                              RCC_CFGR2_PREDIV1SRC_PLL2 | RCC_CFGR2_PREDIV1_DIV5);
 835:../../source/src/CMSIS/system_stm32f10x.c ****   
 836:../../source/src/CMSIS/system_stm32f10x.c ****     /* Enable PLL2 */
 837:../../source/src/CMSIS/system_stm32f10x.c ****     RCC->CR |= RCC_CR_PLL2ON;
 838:../../source/src/CMSIS/system_stm32f10x.c ****     /* Wait till PLL2 is ready */
 839:../../source/src/CMSIS/system_stm32f10x.c ****     while((RCC->CR & RCC_CR_PLL2RDY) == 0)
 840:../../source/src/CMSIS/system_stm32f10x.c ****     {
 841:../../source/src/CMSIS/system_stm32f10x.c ****     }
 842:../../source/src/CMSIS/system_stm32f10x.c ****     
 843:../../source/src/CMSIS/system_stm32f10x.c ****    
 844:../../source/src/CMSIS/system_stm32f10x.c ****     /* PLL configuration: PLLCLK = PREDIV1 * 6 = 48 MHz */ 
 845:../../source/src/CMSIS/system_stm32f10x.c ****     RCC->CFGR &= (uint32_t)~(RCC_CFGR_PLLXTPRE | RCC_CFGR_PLLSRC | RCC_CFGR_PLLMULL);
 846:../../source/src/CMSIS/system_stm32f10x.c ****     RCC->CFGR |= (uint32_t)(RCC_CFGR_PLLXTPRE_PREDIV1 | RCC_CFGR_PLLSRC_PREDIV1 | 
 847:../../source/src/CMSIS/system_stm32f10x.c ****                             RCC_CFGR_PLLMULL6); 
 848:../../source/src/CMSIS/system_stm32f10x.c **** #else    
 849:../../source/src/CMSIS/system_stm32f10x.c ****     /*  PLL configuration: PLLCLK = HSE * 6 = 48 MHz */
 850:../../source/src/CMSIS/system_stm32f10x.c ****     RCC->CFGR &= (uint32_t)((uint32_t)~(RCC_CFGR_PLLSRC | RCC_CFGR_PLLXTPRE | RCC_CFGR_PLLMULL));
 851:../../source/src/CMSIS/system_stm32f10x.c ****     RCC->CFGR |= (uint32_t)(RCC_CFGR_PLLSRC_HSE | RCC_CFGR_PLLMULL6);
 852:../../source/src/CMSIS/system_stm32f10x.c **** #endif /* STM32F10X_CL */
 853:../../source/src/CMSIS/system_stm32f10x.c **** 
 854:../../source/src/CMSIS/system_stm32f10x.c ****     /* Enable PLL */
 855:../../source/src/CMSIS/system_stm32f10x.c ****     RCC->CR |= RCC_CR_PLLON;
 856:../../source/src/CMSIS/system_stm32f10x.c **** 
 857:../../source/src/CMSIS/system_stm32f10x.c ****     /* Wait till PLL is ready */
 858:../../source/src/CMSIS/system_stm32f10x.c ****     while((RCC->CR & RCC_CR_PLLRDY) == 0)
 859:../../source/src/CMSIS/system_stm32f10x.c ****     {
 860:../../source/src/CMSIS/system_stm32f10x.c ****     }
 861:../../source/src/CMSIS/system_stm32f10x.c **** 
 862:../../source/src/CMSIS/system_stm32f10x.c ****     /* Select PLL as system clock source */
 863:../../source/src/CMSIS/system_stm32f10x.c ****     RCC->CFGR &= (uint32_t)((uint32_t)~(RCC_CFGR_SW));
 864:../../source/src/CMSIS/system_stm32f10x.c ****     RCC->CFGR |= (uint32_t)RCC_CFGR_SW_PLL;    
 865:../../source/src/CMSIS/system_stm32f10x.c **** 
 866:../../source/src/CMSIS/system_stm32f10x.c ****     /* Wait till PLL is used as system clock source */
 867:../../source/src/CMSIS/system_stm32f10x.c ****     while ((RCC->CFGR & (uint32_t)RCC_CFGR_SWS) != (uint32_t)0x08)
 868:../../source/src/CMSIS/system_stm32f10x.c ****     {
 869:../../source/src/CMSIS/system_stm32f10x.c ****     }
 870:../../source/src/CMSIS/system_stm32f10x.c ****   }
 871:../../source/src/CMSIS/system_stm32f10x.c ****   else
 872:../../source/src/CMSIS/system_stm32f10x.c ****   { /* If HSE fails to start-up, the application will have wrong clock 
 873:../../source/src/CMSIS/system_stm32f10x.c ****          configuration. User can add here some code to deal with this error */
 874:../../source/src/CMSIS/system_stm32f10x.c ****   } 
 875:../../source/src/CMSIS/system_stm32f10x.c **** }
 876:../../source/src/CMSIS/system_stm32f10x.c **** 
 877:../../source/src/CMSIS/system_stm32f10x.c **** #elif defined SYSCLK_FREQ_56MHz
 878:../../source/src/CMSIS/system_stm32f10x.c **** /**
 879:../../source/src/CMSIS/system_stm32f10x.c ****   * @brief  Sets System clock frequency to 56MHz and configure HCLK, PCLK2 
 880:../../source/src/CMSIS/system_stm32f10x.c ****   *         and PCLK1 prescalers. 
 881:../../source/src/CMSIS/system_stm32f10x.c ****   * @note   This function should be used only after reset.
ARM GAS  G:\Users\Jaxb\AppData\Local\Temp\ccRPtXAk.s 			page 22


 882:../../source/src/CMSIS/system_stm32f10x.c ****   * @param  None
 883:../../source/src/CMSIS/system_stm32f10x.c ****   * @retval None
 884:../../source/src/CMSIS/system_stm32f10x.c ****   */
 885:../../source/src/CMSIS/system_stm32f10x.c **** static void SetSysClockTo56(void)
 886:../../source/src/CMSIS/system_stm32f10x.c **** {
 887:../../source/src/CMSIS/system_stm32f10x.c ****   __IO uint32_t StartUpCounter = 0, HSEStatus = 0;
 888:../../source/src/CMSIS/system_stm32f10x.c ****   
 889:../../source/src/CMSIS/system_stm32f10x.c ****   /* SYSCLK, HCLK, PCLK2 and PCLK1 configuration ---------------------------*/   
 890:../../source/src/CMSIS/system_stm32f10x.c ****   /* Enable HSE */    
 891:../../source/src/CMSIS/system_stm32f10x.c ****   RCC->CR |= ((uint32_t)RCC_CR_HSEON);
 892:../../source/src/CMSIS/system_stm32f10x.c ****  
 893:../../source/src/CMSIS/system_stm32f10x.c ****   /* Wait till HSE is ready and if Time out is reached exit */
 894:../../source/src/CMSIS/system_stm32f10x.c ****   do
 895:../../source/src/CMSIS/system_stm32f10x.c ****   {
 896:../../source/src/CMSIS/system_stm32f10x.c ****     HSEStatus = RCC->CR & RCC_CR_HSERDY;
 897:../../source/src/CMSIS/system_stm32f10x.c ****     StartUpCounter++;  
 898:../../source/src/CMSIS/system_stm32f10x.c ****   } while((HSEStatus == 0) && (StartUpCounter != HSE_STARTUP_TIMEOUT));
 899:../../source/src/CMSIS/system_stm32f10x.c **** 
 900:../../source/src/CMSIS/system_stm32f10x.c ****   if ((RCC->CR & RCC_CR_HSERDY) != RESET)
 901:../../source/src/CMSIS/system_stm32f10x.c ****   {
 902:../../source/src/CMSIS/system_stm32f10x.c ****     HSEStatus = (uint32_t)0x01;
 903:../../source/src/CMSIS/system_stm32f10x.c ****   }
 904:../../source/src/CMSIS/system_stm32f10x.c ****   else
 905:../../source/src/CMSIS/system_stm32f10x.c ****   {
 906:../../source/src/CMSIS/system_stm32f10x.c ****     HSEStatus = (uint32_t)0x00;
 907:../../source/src/CMSIS/system_stm32f10x.c ****   }  
 908:../../source/src/CMSIS/system_stm32f10x.c **** 
 909:../../source/src/CMSIS/system_stm32f10x.c ****   if (HSEStatus == (uint32_t)0x01)
 910:../../source/src/CMSIS/system_stm32f10x.c ****   {
 911:../../source/src/CMSIS/system_stm32f10x.c ****     /* Enable Prefetch Buffer */
 912:../../source/src/CMSIS/system_stm32f10x.c ****     FLASH->ACR |= FLASH_ACR_PRFTBE;
 913:../../source/src/CMSIS/system_stm32f10x.c **** 
 914:../../source/src/CMSIS/system_stm32f10x.c ****     /* Flash 2 wait state */
 915:../../source/src/CMSIS/system_stm32f10x.c ****     FLASH->ACR &= (uint32_t)((uint32_t)~FLASH_ACR_LATENCY);
 916:../../source/src/CMSIS/system_stm32f10x.c ****     FLASH->ACR |= (uint32_t)FLASH_ACR_LATENCY_2;    
 917:../../source/src/CMSIS/system_stm32f10x.c ****  
 918:../../source/src/CMSIS/system_stm32f10x.c ****     /* HCLK = SYSCLK */
 919:../../source/src/CMSIS/system_stm32f10x.c ****     RCC->CFGR |= (uint32_t)RCC_CFGR_HPRE_DIV1;
 920:../../source/src/CMSIS/system_stm32f10x.c ****       
 921:../../source/src/CMSIS/system_stm32f10x.c ****     /* PCLK2 = HCLK */
 922:../../source/src/CMSIS/system_stm32f10x.c ****     RCC->CFGR |= (uint32_t)RCC_CFGR_PPRE2_DIV1;
 923:../../source/src/CMSIS/system_stm32f10x.c ****     
 924:../../source/src/CMSIS/system_stm32f10x.c ****     /* PCLK1 = HCLK */
 925:../../source/src/CMSIS/system_stm32f10x.c ****     RCC->CFGR |= (uint32_t)RCC_CFGR_PPRE1_DIV2;
 926:../../source/src/CMSIS/system_stm32f10x.c **** 
 927:../../source/src/CMSIS/system_stm32f10x.c **** #ifdef STM32F10X_CL
 928:../../source/src/CMSIS/system_stm32f10x.c ****     /* Configure PLLs ------------------------------------------------------*/
 929:../../source/src/CMSIS/system_stm32f10x.c ****     /* PLL2 configuration: PLL2CLK = (HSE / 5) * 8 = 40 MHz */
 930:../../source/src/CMSIS/system_stm32f10x.c ****     /* PREDIV1 configuration: PREDIV1CLK = PLL2 / 5 = 8 MHz */
 931:../../source/src/CMSIS/system_stm32f10x.c ****         
 932:../../source/src/CMSIS/system_stm32f10x.c ****     RCC->CFGR2 &= (uint32_t)~(RCC_CFGR2_PREDIV2 | RCC_CFGR2_PLL2MUL |
 933:../../source/src/CMSIS/system_stm32f10x.c ****                               RCC_CFGR2_PREDIV1 | RCC_CFGR2_PREDIV1SRC);
 934:../../source/src/CMSIS/system_stm32f10x.c ****     RCC->CFGR2 |= (uint32_t)(RCC_CFGR2_PREDIV2_DIV5 | RCC_CFGR2_PLL2MUL8 |
 935:../../source/src/CMSIS/system_stm32f10x.c ****                              RCC_CFGR2_PREDIV1SRC_PLL2 | RCC_CFGR2_PREDIV1_DIV5);
 936:../../source/src/CMSIS/system_stm32f10x.c ****   
 937:../../source/src/CMSIS/system_stm32f10x.c ****     /* Enable PLL2 */
 938:../../source/src/CMSIS/system_stm32f10x.c ****     RCC->CR |= RCC_CR_PLL2ON;
ARM GAS  G:\Users\Jaxb\AppData\Local\Temp\ccRPtXAk.s 			page 23


 939:../../source/src/CMSIS/system_stm32f10x.c ****     /* Wait till PLL2 is ready */
 940:../../source/src/CMSIS/system_stm32f10x.c ****     while((RCC->CR & RCC_CR_PLL2RDY) == 0)
 941:../../source/src/CMSIS/system_stm32f10x.c ****     {
 942:../../source/src/CMSIS/system_stm32f10x.c ****     }
 943:../../source/src/CMSIS/system_stm32f10x.c ****     
 944:../../source/src/CMSIS/system_stm32f10x.c ****    
 945:../../source/src/CMSIS/system_stm32f10x.c ****     /* PLL configuration: PLLCLK = PREDIV1 * 7 = 56 MHz */ 
 946:../../source/src/CMSIS/system_stm32f10x.c ****     RCC->CFGR &= (uint32_t)~(RCC_CFGR_PLLXTPRE | RCC_CFGR_PLLSRC | RCC_CFGR_PLLMULL);
 947:../../source/src/CMSIS/system_stm32f10x.c ****     RCC->CFGR |= (uint32_t)(RCC_CFGR_PLLXTPRE_PREDIV1 | RCC_CFGR_PLLSRC_PREDIV1 | 
 948:../../source/src/CMSIS/system_stm32f10x.c ****                             RCC_CFGR_PLLMULL7); 
 949:../../source/src/CMSIS/system_stm32f10x.c **** #else     
 950:../../source/src/CMSIS/system_stm32f10x.c ****     /* PLL configuration: PLLCLK = HSE * 7 = 56 MHz */
 951:../../source/src/CMSIS/system_stm32f10x.c ****     RCC->CFGR &= (uint32_t)((uint32_t)~(RCC_CFGR_PLLSRC | RCC_CFGR_PLLXTPRE | RCC_CFGR_PLLMULL));
 952:../../source/src/CMSIS/system_stm32f10x.c ****     RCC->CFGR |= (uint32_t)(RCC_CFGR_PLLSRC_HSE | RCC_CFGR_PLLMULL7);
 953:../../source/src/CMSIS/system_stm32f10x.c **** 
 954:../../source/src/CMSIS/system_stm32f10x.c **** #endif /* STM32F10X_CL */
 955:../../source/src/CMSIS/system_stm32f10x.c **** 
 956:../../source/src/CMSIS/system_stm32f10x.c ****     /* Enable PLL */
 957:../../source/src/CMSIS/system_stm32f10x.c ****     RCC->CR |= RCC_CR_PLLON;
 958:../../source/src/CMSIS/system_stm32f10x.c **** 
 959:../../source/src/CMSIS/system_stm32f10x.c ****     /* Wait till PLL is ready */
 960:../../source/src/CMSIS/system_stm32f10x.c ****     while((RCC->CR & RCC_CR_PLLRDY) == 0)
 961:../../source/src/CMSIS/system_stm32f10x.c ****     {
 962:../../source/src/CMSIS/system_stm32f10x.c ****     }
 963:../../source/src/CMSIS/system_stm32f10x.c **** 
 964:../../source/src/CMSIS/system_stm32f10x.c ****     /* Select PLL as system clock source */
 965:../../source/src/CMSIS/system_stm32f10x.c ****     RCC->CFGR &= (uint32_t)((uint32_t)~(RCC_CFGR_SW));
 966:../../source/src/CMSIS/system_stm32f10x.c ****     RCC->CFGR |= (uint32_t)RCC_CFGR_SW_PLL;    
 967:../../source/src/CMSIS/system_stm32f10x.c **** 
 968:../../source/src/CMSIS/system_stm32f10x.c ****     /* Wait till PLL is used as system clock source */
 969:../../source/src/CMSIS/system_stm32f10x.c ****     while ((RCC->CFGR & (uint32_t)RCC_CFGR_SWS) != (uint32_t)0x08)
 970:../../source/src/CMSIS/system_stm32f10x.c ****     {
 971:../../source/src/CMSIS/system_stm32f10x.c ****     }
 972:../../source/src/CMSIS/system_stm32f10x.c ****   }
 973:../../source/src/CMSIS/system_stm32f10x.c ****   else
 974:../../source/src/CMSIS/system_stm32f10x.c ****   { /* If HSE fails to start-up, the application will have wrong clock 
 975:../../source/src/CMSIS/system_stm32f10x.c ****          configuration. User can add here some code to deal with this error */
 976:../../source/src/CMSIS/system_stm32f10x.c ****   } 
 977:../../source/src/CMSIS/system_stm32f10x.c **** }
 978:../../source/src/CMSIS/system_stm32f10x.c **** 
 979:../../source/src/CMSIS/system_stm32f10x.c **** #elif defined SYSCLK_FREQ_72MHz
 980:../../source/src/CMSIS/system_stm32f10x.c **** /**
 981:../../source/src/CMSIS/system_stm32f10x.c ****   * @brief  Sets System clock frequency to 72MHz and configure HCLK, PCLK2 
 982:../../source/src/CMSIS/system_stm32f10x.c ****   *         and PCLK1 prescalers. 
 983:../../source/src/CMSIS/system_stm32f10x.c ****   * @note   This function should be used only after reset.
 984:../../source/src/CMSIS/system_stm32f10x.c ****   * @param  None
 985:../../source/src/CMSIS/system_stm32f10x.c ****   * @retval None
 986:../../source/src/CMSIS/system_stm32f10x.c ****   */
 987:../../source/src/CMSIS/system_stm32f10x.c **** static void SetSysClockTo72(void)
 988:../../source/src/CMSIS/system_stm32f10x.c **** {
 314              		.loc 1 988 0
 315              		.cfi_startproc
 316              		@ args = 0, pretend = 0, frame = 8
 317              		@ frame_needed = 1, uses_anonymous_args = 0
 318              		@ link register save eliminated.
 319 014c 80B4     		push	{r7}
 320              	.LCFI10:
ARM GAS  G:\Users\Jaxb\AppData\Local\Temp\ccRPtXAk.s 			page 24


 321              		.cfi_def_cfa_offset 4
 322              		.cfi_offset 7, -4
 323 014e 83B0     		sub	sp, sp, #12
 324              	.LCFI11:
 325              		.cfi_def_cfa_offset 16
 326 0150 00AF     		add	r7, sp, #0
 327              	.LCFI12:
 328              		.cfi_def_cfa_register 7
 989:../../source/src/CMSIS/system_stm32f10x.c ****   __IO uint32_t StartUpCounter = 0, HSEStatus = 0;
 329              		.loc 1 989 0
 330 0152 0023     		movs	r3, #0
 331 0154 7B60     		str	r3, [r7, #4]
 332 0156 0023     		movs	r3, #0
 333 0158 3B60     		str	r3, [r7]
 990:../../source/src/CMSIS/system_stm32f10x.c ****   
 991:../../source/src/CMSIS/system_stm32f10x.c ****   /* SYSCLK, HCLK, PCLK2 and PCLK1 configuration ---------------------------*/    
 992:../../source/src/CMSIS/system_stm32f10x.c ****   /* Enable HSE */    
 993:../../source/src/CMSIS/system_stm32f10x.c ****   RCC->CR |= ((uint32_t)RCC_CR_HSEON);
 334              		.loc 1 993 0
 335 015a 3A4B     		ldr	r3, .L26
 336 015c 1B68     		ldr	r3, [r3]
 337 015e 394A     		ldr	r2, .L26
 338 0160 43F48033 		orr	r3, r3, #65536
 339 0164 1360     		str	r3, [r2]
 340              	.L19:
 994:../../source/src/CMSIS/system_stm32f10x.c ****  
 995:../../source/src/CMSIS/system_stm32f10x.c ****   /* Wait till HSE is ready and if Time out is reached exit */
 996:../../source/src/CMSIS/system_stm32f10x.c ****   do
 997:../../source/src/CMSIS/system_stm32f10x.c ****   {
 998:../../source/src/CMSIS/system_stm32f10x.c ****     HSEStatus = RCC->CR & RCC_CR_HSERDY;
 341              		.loc 1 998 0 discriminator 2
 342 0166 374B     		ldr	r3, .L26
 343 0168 1B68     		ldr	r3, [r3]
 344 016a 03F40033 		and	r3, r3, #131072
 345 016e 3B60     		str	r3, [r7]
 999:../../source/src/CMSIS/system_stm32f10x.c ****     StartUpCounter++;  
 346              		.loc 1 999 0 discriminator 2
 347 0170 7B68     		ldr	r3, [r7, #4]
 348 0172 0133     		adds	r3, r3, #1
 349 0174 7B60     		str	r3, [r7, #4]
1000:../../source/src/CMSIS/system_stm32f10x.c ****   } while((HSEStatus == 0) && (StartUpCounter != HSE_STARTUP_TIMEOUT));
 350              		.loc 1 1000 0 discriminator 2
 351 0176 3B68     		ldr	r3, [r7]
 352 0178 002B     		cmp	r3, #0
 353 017a 03D1     		bne	.L18
 354              		.loc 1 1000 0 is_stmt 0 discriminator 1
 355 017c 7B68     		ldr	r3, [r7, #4]
 356 017e B3F5A06F 		cmp	r3, #1280
 357 0182 F0D1     		bne	.L19
 358              	.L18:
1001:../../source/src/CMSIS/system_stm32f10x.c **** 
1002:../../source/src/CMSIS/system_stm32f10x.c ****   if ((RCC->CR & RCC_CR_HSERDY) != RESET)
 359              		.loc 1 1002 0 is_stmt 1
 360 0184 2F4B     		ldr	r3, .L26
 361 0186 1B68     		ldr	r3, [r3]
 362 0188 03F40033 		and	r3, r3, #131072
 363 018c 002B     		cmp	r3, #0
ARM GAS  G:\Users\Jaxb\AppData\Local\Temp\ccRPtXAk.s 			page 25


 364 018e 02D0     		beq	.L20
1003:../../source/src/CMSIS/system_stm32f10x.c ****   {
1004:../../source/src/CMSIS/system_stm32f10x.c ****     HSEStatus = (uint32_t)0x01;
 365              		.loc 1 1004 0
 366 0190 0123     		movs	r3, #1
 367 0192 3B60     		str	r3, [r7]
 368 0194 01E0     		b	.L21
 369              	.L20:
1005:../../source/src/CMSIS/system_stm32f10x.c ****   }
1006:../../source/src/CMSIS/system_stm32f10x.c ****   else
1007:../../source/src/CMSIS/system_stm32f10x.c ****   {
1008:../../source/src/CMSIS/system_stm32f10x.c ****     HSEStatus = (uint32_t)0x00;
 370              		.loc 1 1008 0
 371 0196 0023     		movs	r3, #0
 372 0198 3B60     		str	r3, [r7]
 373              	.L21:
1009:../../source/src/CMSIS/system_stm32f10x.c ****   }  
1010:../../source/src/CMSIS/system_stm32f10x.c **** 
1011:../../source/src/CMSIS/system_stm32f10x.c ****   if (HSEStatus == (uint32_t)0x01)
 374              		.loc 1 1011 0
 375 019a 3B68     		ldr	r3, [r7]
 376 019c 012B     		cmp	r3, #1
 377 019e 4BD1     		bne	.L25
1012:../../source/src/CMSIS/system_stm32f10x.c ****   {
1013:../../source/src/CMSIS/system_stm32f10x.c ****     /* Enable Prefetch Buffer */
1014:../../source/src/CMSIS/system_stm32f10x.c ****     FLASH->ACR |= FLASH_ACR_PRFTBE;
 378              		.loc 1 1014 0
 379 01a0 294B     		ldr	r3, .L26+4
 380 01a2 1B68     		ldr	r3, [r3]
 381 01a4 284A     		ldr	r2, .L26+4
 382 01a6 43F01003 		orr	r3, r3, #16
 383 01aa 1360     		str	r3, [r2]
1015:../../source/src/CMSIS/system_stm32f10x.c **** 
1016:../../source/src/CMSIS/system_stm32f10x.c ****     /* Flash 2 wait state */
1017:../../source/src/CMSIS/system_stm32f10x.c ****     FLASH->ACR &= (uint32_t)((uint32_t)~FLASH_ACR_LATENCY);
 384              		.loc 1 1017 0
 385 01ac 264B     		ldr	r3, .L26+4
 386 01ae 1B68     		ldr	r3, [r3]
 387 01b0 254A     		ldr	r2, .L26+4
 388 01b2 23F00303 		bic	r3, r3, #3
 389 01b6 1360     		str	r3, [r2]
1018:../../source/src/CMSIS/system_stm32f10x.c ****     FLASH->ACR |= (uint32_t)FLASH_ACR_LATENCY_2;    
 390              		.loc 1 1018 0
 391 01b8 234B     		ldr	r3, .L26+4
 392 01ba 1B68     		ldr	r3, [r3]
 393 01bc 224A     		ldr	r2, .L26+4
 394 01be 43F00203 		orr	r3, r3, #2
 395 01c2 1360     		str	r3, [r2]
1019:../../source/src/CMSIS/system_stm32f10x.c **** 
1020:../../source/src/CMSIS/system_stm32f10x.c ****  
1021:../../source/src/CMSIS/system_stm32f10x.c ****     /* HCLK = SYSCLK */
1022:../../source/src/CMSIS/system_stm32f10x.c ****     RCC->CFGR |= (uint32_t)RCC_CFGR_HPRE_DIV1;
 396              		.loc 1 1022 0
 397 01c4 1F4B     		ldr	r3, .L26
 398 01c6 1F4A     		ldr	r2, .L26
 399 01c8 5B68     		ldr	r3, [r3, #4]
 400 01ca 5360     		str	r3, [r2, #4]
ARM GAS  G:\Users\Jaxb\AppData\Local\Temp\ccRPtXAk.s 			page 26


1023:../../source/src/CMSIS/system_stm32f10x.c ****       
1024:../../source/src/CMSIS/system_stm32f10x.c ****     /* PCLK2 = HCLK */
1025:../../source/src/CMSIS/system_stm32f10x.c ****     RCC->CFGR |= (uint32_t)RCC_CFGR_PPRE2_DIV1;
 401              		.loc 1 1025 0
 402 01cc 1D4B     		ldr	r3, .L26
 403 01ce 1D4A     		ldr	r2, .L26
 404 01d0 5B68     		ldr	r3, [r3, #4]
 405 01d2 5360     		str	r3, [r2, #4]
1026:../../source/src/CMSIS/system_stm32f10x.c ****     
1027:../../source/src/CMSIS/system_stm32f10x.c ****     /* PCLK1 = HCLK/2 */
1028:../../source/src/CMSIS/system_stm32f10x.c ****     RCC->CFGR |= (uint32_t)RCC_CFGR_PPRE1_DIV2;
 406              		.loc 1 1028 0
 407 01d4 1B4B     		ldr	r3, .L26
 408 01d6 5B68     		ldr	r3, [r3, #4]
 409 01d8 1A4A     		ldr	r2, .L26
 410 01da 43F48063 		orr	r3, r3, #1024
 411 01de 5360     		str	r3, [r2, #4]
1029:../../source/src/CMSIS/system_stm32f10x.c **** 
1030:../../source/src/CMSIS/system_stm32f10x.c **** #ifdef STM32F10X_CL
1031:../../source/src/CMSIS/system_stm32f10x.c ****     /* Configure PLLs ------------------------------------------------------*/
1032:../../source/src/CMSIS/system_stm32f10x.c ****     /* PLL2 configuration: PLL2CLK = (HSE / 5) * 8 = 40 MHz */
1033:../../source/src/CMSIS/system_stm32f10x.c ****     /* PREDIV1 configuration: PREDIV1CLK = PLL2 / 5 = 8 MHz */
1034:../../source/src/CMSIS/system_stm32f10x.c ****         
1035:../../source/src/CMSIS/system_stm32f10x.c ****     RCC->CFGR2 &= (uint32_t)~(RCC_CFGR2_PREDIV2 | RCC_CFGR2_PLL2MUL |
1036:../../source/src/CMSIS/system_stm32f10x.c ****                               RCC_CFGR2_PREDIV1 | RCC_CFGR2_PREDIV1SRC);
1037:../../source/src/CMSIS/system_stm32f10x.c ****     RCC->CFGR2 |= (uint32_t)(RCC_CFGR2_PREDIV2_DIV5 | RCC_CFGR2_PLL2MUL8 |
1038:../../source/src/CMSIS/system_stm32f10x.c ****                              RCC_CFGR2_PREDIV1SRC_PLL2 | RCC_CFGR2_PREDIV1_DIV5);
1039:../../source/src/CMSIS/system_stm32f10x.c ****   
1040:../../source/src/CMSIS/system_stm32f10x.c ****     /* Enable PLL2 */
1041:../../source/src/CMSIS/system_stm32f10x.c ****     RCC->CR |= RCC_CR_PLL2ON;
1042:../../source/src/CMSIS/system_stm32f10x.c ****     /* Wait till PLL2 is ready */
1043:../../source/src/CMSIS/system_stm32f10x.c ****     while((RCC->CR & RCC_CR_PLL2RDY) == 0)
1044:../../source/src/CMSIS/system_stm32f10x.c ****     {
1045:../../source/src/CMSIS/system_stm32f10x.c ****     }
1046:../../source/src/CMSIS/system_stm32f10x.c ****     
1047:../../source/src/CMSIS/system_stm32f10x.c ****    
1048:../../source/src/CMSIS/system_stm32f10x.c ****     /* PLL configuration: PLLCLK = PREDIV1 * 9 = 72 MHz */ 
1049:../../source/src/CMSIS/system_stm32f10x.c ****     RCC->CFGR &= (uint32_t)~(RCC_CFGR_PLLXTPRE | RCC_CFGR_PLLSRC | RCC_CFGR_PLLMULL);
1050:../../source/src/CMSIS/system_stm32f10x.c ****     RCC->CFGR |= (uint32_t)(RCC_CFGR_PLLXTPRE_PREDIV1 | RCC_CFGR_PLLSRC_PREDIV1 | 
1051:../../source/src/CMSIS/system_stm32f10x.c ****                             RCC_CFGR_PLLMULL9); 
1052:../../source/src/CMSIS/system_stm32f10x.c **** #else    
1053:../../source/src/CMSIS/system_stm32f10x.c ****     /*  PLL configuration: PLLCLK = HSE * 9 = 72 MHz */
1054:../../source/src/CMSIS/system_stm32f10x.c ****     RCC->CFGR &= (uint32_t)((uint32_t)~(RCC_CFGR_PLLSRC | RCC_CFGR_PLLXTPRE |
 412              		.loc 1 1054 0
 413 01e0 184B     		ldr	r3, .L26
 414 01e2 5B68     		ldr	r3, [r3, #4]
 415 01e4 174A     		ldr	r2, .L26
 416 01e6 23F47C13 		bic	r3, r3, #4128768
 417 01ea 5360     		str	r3, [r2, #4]
1055:../../source/src/CMSIS/system_stm32f10x.c ****                                         RCC_CFGR_PLLMULL));
1056:../../source/src/CMSIS/system_stm32f10x.c ****     RCC->CFGR |= (uint32_t)(RCC_CFGR_PLLSRC_HSE | RCC_CFGR_PLLMULL9);
 418              		.loc 1 1056 0
 419 01ec 154B     		ldr	r3, .L26
 420 01ee 5B68     		ldr	r3, [r3, #4]
 421 01f0 144A     		ldr	r2, .L26
 422 01f2 43F4E813 		orr	r3, r3, #1900544
 423 01f6 5360     		str	r3, [r2, #4]
ARM GAS  G:\Users\Jaxb\AppData\Local\Temp\ccRPtXAk.s 			page 27


1057:../../source/src/CMSIS/system_stm32f10x.c **** #endif /* STM32F10X_CL */
1058:../../source/src/CMSIS/system_stm32f10x.c **** 
1059:../../source/src/CMSIS/system_stm32f10x.c ****     /* Enable PLL */
1060:../../source/src/CMSIS/system_stm32f10x.c ****     RCC->CR |= RCC_CR_PLLON;
 424              		.loc 1 1060 0
 425 01f8 124B     		ldr	r3, .L26
 426 01fa 1B68     		ldr	r3, [r3]
 427 01fc 114A     		ldr	r2, .L26
 428 01fe 43F08073 		orr	r3, r3, #16777216
 429 0202 1360     		str	r3, [r2]
1061:../../source/src/CMSIS/system_stm32f10x.c **** 
1062:../../source/src/CMSIS/system_stm32f10x.c ****     /* Wait till PLL is ready */
1063:../../source/src/CMSIS/system_stm32f10x.c ****     while((RCC->CR & RCC_CR_PLLRDY) == 0)
 430              		.loc 1 1063 0
 431 0204 00BF     		nop
 432              	.L23:
 433              		.loc 1 1063 0 is_stmt 0 discriminator 1
 434 0206 0F4B     		ldr	r3, .L26
 435 0208 1B68     		ldr	r3, [r3]
 436 020a 03F00073 		and	r3, r3, #33554432
 437 020e 002B     		cmp	r3, #0
 438 0210 F9D0     		beq	.L23
1064:../../source/src/CMSIS/system_stm32f10x.c ****     {
1065:../../source/src/CMSIS/system_stm32f10x.c ****     }
1066:../../source/src/CMSIS/system_stm32f10x.c ****     
1067:../../source/src/CMSIS/system_stm32f10x.c ****     /* Select PLL as system clock source */
1068:../../source/src/CMSIS/system_stm32f10x.c ****     RCC->CFGR &= (uint32_t)((uint32_t)~(RCC_CFGR_SW));
 439              		.loc 1 1068 0 is_stmt 1
 440 0212 0C4B     		ldr	r3, .L26
 441 0214 5B68     		ldr	r3, [r3, #4]
 442 0216 0B4A     		ldr	r2, .L26
 443 0218 23F00303 		bic	r3, r3, #3
 444 021c 5360     		str	r3, [r2, #4]
1069:../../source/src/CMSIS/system_stm32f10x.c ****     RCC->CFGR |= (uint32_t)RCC_CFGR_SW_PLL;    
 445              		.loc 1 1069 0
 446 021e 094B     		ldr	r3, .L26
 447 0220 5B68     		ldr	r3, [r3, #4]
 448 0222 084A     		ldr	r2, .L26
 449 0224 43F00203 		orr	r3, r3, #2
 450 0228 5360     		str	r3, [r2, #4]
1070:../../source/src/CMSIS/system_stm32f10x.c **** 
1071:../../source/src/CMSIS/system_stm32f10x.c ****     /* Wait till PLL is used as system clock source */
1072:../../source/src/CMSIS/system_stm32f10x.c ****     while ((RCC->CFGR & (uint32_t)RCC_CFGR_SWS) != (uint32_t)0x08)
 451              		.loc 1 1072 0
 452 022a 00BF     		nop
 453              	.L24:
 454              		.loc 1 1072 0 is_stmt 0 discriminator 1
 455 022c 054B     		ldr	r3, .L26
 456 022e 5B68     		ldr	r3, [r3, #4]
 457 0230 03F00C03 		and	r3, r3, #12
 458 0234 082B     		cmp	r3, #8
 459 0236 F9D1     		bne	.L24
 460              	.L25:
1073:../../source/src/CMSIS/system_stm32f10x.c ****     {
1074:../../source/src/CMSIS/system_stm32f10x.c ****     }
1075:../../source/src/CMSIS/system_stm32f10x.c ****   }
1076:../../source/src/CMSIS/system_stm32f10x.c ****   else
ARM GAS  G:\Users\Jaxb\AppData\Local\Temp\ccRPtXAk.s 			page 28


1077:../../source/src/CMSIS/system_stm32f10x.c ****   { /* If HSE fails to start-up, the application will have wrong clock 
1078:../../source/src/CMSIS/system_stm32f10x.c ****          configuration. User can add here some code to deal with this error */
1079:../../source/src/CMSIS/system_stm32f10x.c ****   }
1080:../../source/src/CMSIS/system_stm32f10x.c **** }
 461              		.loc 1 1080 0 is_stmt 1
 462 0238 00BF     		nop
 463 023a 0C37     		adds	r7, r7, #12
 464              	.LCFI13:
 465              		.cfi_def_cfa_offset 4
 466 023c BD46     		mov	sp, r7
 467              	.LCFI14:
 468              		.cfi_def_cfa_register 13
 469              		@ sp needed
 470 023e 80BC     		pop	{r7}
 471              	.LCFI15:
 472              		.cfi_restore 7
 473              		.cfi_def_cfa_offset 0
 474 0240 7047     		bx	lr
 475              	.L27:
 476 0242 00BF     		.align	2
 477              	.L26:
 478 0244 00100240 		.word	1073876992
 479 0248 00200240 		.word	1073881088
 480              		.cfi_endproc
 481              	.LFE32:
 482              		.size	SetSysClockTo72, .-SetSysClockTo72
 483              	.Letext0:
 484              		.file 2 "f:\\arm\\gcc2018\\arm-none-eabi\\include\\machine\\_default_types.h"
 485              		.file 3 "f:\\arm\\gcc2018\\arm-none-eabi\\include\\sys\\_stdint.h"
 486              		.file 4 "../../source/include/os_cpu/core_cm3.h"
 487              		.file 5 "../../source/include/os_cpu/system_stm32f10x.h"
 488              		.file 6 "../../source/include/os_cpu/stm32f10x.h"