ARM GAS  G:\Users\Jaxb\AppData\Local\Temp\ccBU42mh.s 			page 1


   1              		.cpu cortex-m3
   2              		.eabi_attribute 20, 1
   3              		.eabi_attribute 21, 1
   4              		.eabi_attribute 23, 3
   5              		.eabi_attribute 24, 1
   6              		.eabi_attribute 25, 1
   7              		.eabi_attribute 26, 1
   8              		.eabi_attribute 30, 6
   9              		.eabi_attribute 34, 1
  10              		.eabi_attribute 18, 4
  11              		.file	"TCB.c"
  12              		.text
  13              	.Ltext0:
  14              		.cfi_sections	.debug_frame
  15              		.align	1
  16              		.syntax unified
  17              		.thumb
  18              		.thumb_func
  19              		.fpu softvfp
  20              		.type	INIT_LIST_HEAD, %function
  21              	INIT_LIST_HEAD:
  22              	.LFB0:
  23              		.file 1 "../../source/include/os_lib/double_linked_list.h"
   1:../../source/include/os_lib/double_linked_list.h **** #ifndef _DOUBLE_LINKED_LIST_H
   2:../../source/include/os_lib/double_linked_list.h **** #define _DOUBLE_LINKED_LIST_H
   3:../../source/include/os_lib/double_linked_list.h **** 
   4:../../source/include/os_lib/double_linked_list.h **** struct list_head {
   5:../../source/include/os_lib/double_linked_list.h ****     struct list_head *next, *prev;
   6:../../source/include/os_lib/double_linked_list.h **** };
   7:../../source/include/os_lib/double_linked_list.h **** 
   8:../../source/include/os_lib/double_linked_list.h **** 
   9:../../source/include/os_lib/double_linked_list.h **** #define LIST_HEAD_INIT(name) { &(name), &(name) }
  10:../../source/include/os_lib/double_linked_list.h **** 
  11:../../source/include/os_lib/double_linked_list.h **** 
  12:../../source/include/os_lib/double_linked_list.h **** #define LIST_HEAD(name) \
  13:../../source/include/os_lib/double_linked_list.h ****     struct list_head name = LIST_HEAD_INIT(name)
  14:../../source/include/os_lib/double_linked_list.h **** 
  15:../../source/include/os_lib/double_linked_list.h **** 
  16:../../source/include/os_lib/double_linked_list.h **** static inline void INIT_LIST_HEAD(struct list_head *list)
  17:../../source/include/os_lib/double_linked_list.h **** {
  24              		.loc 1 17 0
  25              		.cfi_startproc
  26              		@ args = 0, pretend = 0, frame = 8
  27              		@ frame_needed = 1, uses_anonymous_args = 0
  28              		@ link register save eliminated.
  29 0000 80B4     		push	{r7}
  30              	.LCFI0:
  31              		.cfi_def_cfa_offset 4
  32              		.cfi_offset 7, -4
  33 0002 83B0     		sub	sp, sp, #12
  34              	.LCFI1:
  35              		.cfi_def_cfa_offset 16
  36 0004 00AF     		add	r7, sp, #0
  37              	.LCFI2:
  38              		.cfi_def_cfa_register 7
  39 0006 7860     		str	r0, [r7, #4]
  18:../../source/include/os_lib/double_linked_list.h ****     list->next = list;
ARM GAS  G:\Users\Jaxb\AppData\Local\Temp\ccBU42mh.s 			page 2


  40              		.loc 1 18 0
  41 0008 7B68     		ldr	r3, [r7, #4]
  42 000a 7A68     		ldr	r2, [r7, #4]
  43 000c 1A60     		str	r2, [r3]
  19:../../source/include/os_lib/double_linked_list.h ****     list->prev = list;
  44              		.loc 1 19 0
  45 000e 7B68     		ldr	r3, [r7, #4]
  46 0010 7A68     		ldr	r2, [r7, #4]
  47 0012 5A60     		str	r2, [r3, #4]
  20:../../source/include/os_lib/double_linked_list.h **** }
  48              		.loc 1 20 0
  49 0014 00BF     		nop
  50 0016 0C37     		adds	r7, r7, #12
  51              	.LCFI3:
  52              		.cfi_def_cfa_offset 4
  53 0018 BD46     		mov	sp, r7
  54              	.LCFI4:
  55              		.cfi_def_cfa_register 13
  56              		@ sp needed
  57 001a 80BC     		pop	{r7}
  58              	.LCFI5:
  59              		.cfi_restore 7
  60              		.cfi_def_cfa_offset 0
  61 001c 7047     		bx	lr
  62              		.cfi_endproc
  63              	.LFE0:
  64              		.size	INIT_LIST_HEAD, .-INIT_LIST_HEAD
  65              		.align	1
  66              		.syntax unified
  67              		.thumb
  68              		.thumb_func
  69              		.fpu softvfp
  70              		.type	set_module_state, %function
  71              	set_module_state:
  72              	.LFB13:
  73              		.file 2 "../../source/include/os_core/module.h"
   1:../../source/include/os_core/module.h **** #ifndef _MODULE_H
   2:../../source/include/os_core/module.h **** #define _MODULE_H
   3:../../source/include/os_core/module.h **** 
   4:../../source/include/os_core/module.h **** #include <double_linked_list.h>
   5:../../source/include/os_core/module.h **** #include <TCB.h>
   6:../../source/include/os_core/module.h **** #include <kakaosstdint.h>
   7:../../source/include/os_core/module.h **** #include <export.h>
   8:../../source/include/os_core/module.h **** 
   9:../../source/include/os_core/module.h **** #define RT_DLMODULE_STAT_INIT       0x00
  10:../../source/include/os_core/module.h **** #define RT_DLMODULE_STAT_RUNNING    0x01
  11:../../source/include/os_core/module.h **** #define RT_DLMODULE_STAT_CLOSING    0x02
  12:../../source/include/os_core/module.h **** #define RT_DLMODULE_STAT_CLOSED     0x03
  13:../../source/include/os_core/module.h **** 
  14:../../source/include/os_core/module.h **** #define D_MODULE_NAME_MAX               32
  15:../../source/include/os_core/module.h **** #define D_MODULE_DEFAULT_NAME           "dynamicmodule"
  16:../../source/include/os_core/module.h **** #define D_MODULE_DEFAULT_PRIO           (PRIO_MAX-2)
  17:../../source/include/os_core/module.h **** #define D_MODULE_DEFAULT_STACK_SIZE     2048
  18:../../source/include/os_core/module.h **** 
  19:../../source/include/os_core/module.h **** #define module_init(initfn)                 \
  20:../../source/include/os_core/module.h ****     int init_module(void) __attribute__((alias(#initfn)))
  21:../../source/include/os_core/module.h ****     
ARM GAS  G:\Users\Jaxb\AppData\Local\Temp\ccBU42mh.s 			page 3


  22:../../source/include/os_core/module.h **** #define module_exit(initfn)                 \
  23:../../source/include/os_core/module.h ****     int exit_module(void) __attribute__((alias(#initfn)))
  24:../../source/include/os_core/module.h **** 
  25:../../source/include/os_core/module.h **** /*===================*/
  26:../../source/include/os_core/module.h **** /*module state*/
  27:../../source/include/os_core/module.h **** 
  28:../../source/include/os_core/module.h **** #define MODULE_STATE_DEFAULT    0x00
  29:../../source/include/os_core/module.h **** #define MODULE_STATE_INIT       MODULE_STATE_DEFAULT
  30:../../source/include/os_core/module.h **** #define MODULE_STATE_LOADED     0x01
  31:../../source/include/os_core/module.h **** #define MODULE_STATE_RUN        0x02
  32:../../source/include/os_core/module.h **** /*======================================================*/
  33:../../source/include/os_core/module.h **** 
  34:../../source/include/os_core/module.h **** struct dynamic_module
  35:../../source/include/os_core/module.h **** {
  36:../../source/include/os_core/module.h ****     char name[D_MODULE_NAME_MAX];
  37:../../source/include/os_core/module.h ****     struct list_head module_list;   /*link all modules*/
  38:../../source/include/os_core/module.h ****     UINT32 module_state;
  39:../../source/include/os_core/module.h ****     int (*init)(void);              /*this function will be called before module execute*/
  40:../../source/include/os_core/module.h ****     void (*exit)(void);             /*this function will be called after module return */
  41:../../source/include/os_core/module.h ****     void *module_space;
  42:../../source/include/os_core/module.h ****     unsigned int module_size;       /*the room size that module finally use*/
  43:../../source/include/os_core/module.h ****     void *init_space;               /* not use*/
  44:../../source/include/os_core/module.h ****     void *entry;                    /*module entry point*/
  45:../../source/include/os_core/module.h ****     UINT32 vstart_addr;             /*VMA base address for the first LOAD segment*/
  46:../../source/include/os_core/module.h ****     struct ka_module_symtab *export_symbols_array;
  47:../../source/include/os_core/module.h ****     unsigned int export_symbols_num;
  48:../../source/include/os_core/module.h ****     unsigned int ref;
  49:../../source/include/os_core/module.h ****     TCB *thread_TCB_ptr;
  50:../../source/include/os_core/module.h **** };
  51:../../source/include/os_core/module.h **** 
  52:../../source/include/os_core/module.h **** typedef struct dynamic_module d_module;
  53:../../source/include/os_core/module.h **** 
  54:../../source/include/os_core/module.h **** static inline void set_module_state(struct dynamic_module *dynamic_module_ptr,UINT32 state)
  55:../../source/include/os_core/module.h **** {
  74              		.loc 2 55 0
  75              		.cfi_startproc
  76              		@ args = 0, pretend = 0, frame = 8
  77              		@ frame_needed = 1, uses_anonymous_args = 0
  78              		@ link register save eliminated.
  79 001e 80B4     		push	{r7}
  80              	.LCFI6:
  81              		.cfi_def_cfa_offset 4
  82              		.cfi_offset 7, -4
  83 0020 83B0     		sub	sp, sp, #12
  84              	.LCFI7:
  85              		.cfi_def_cfa_offset 16
  86 0022 00AF     		add	r7, sp, #0
  87              	.LCFI8:
  88              		.cfi_def_cfa_register 7
  89 0024 7860     		str	r0, [r7, #4]
  90 0026 3960     		str	r1, [r7]
  56:../../source/include/os_core/module.h ****     dynamic_module_ptr->module_state = state;
  91              		.loc 2 56 0
  92 0028 7B68     		ldr	r3, [r7, #4]
  93 002a 3A68     		ldr	r2, [r7]
  94 002c 9A62     		str	r2, [r3, #40]
  57:../../source/include/os_core/module.h **** }
ARM GAS  G:\Users\Jaxb\AppData\Local\Temp\ccBU42mh.s 			page 4


  95              		.loc 2 57 0
  96 002e 00BF     		nop
  97 0030 0C37     		adds	r7, r7, #12
  98              	.LCFI9:
  99              		.cfi_def_cfa_offset 4
 100 0032 BD46     		mov	sp, r7
 101              	.LCFI10:
 102              		.cfi_def_cfa_register 13
 103              		@ sp needed
 104 0034 80BC     		pop	{r7}
 105              	.LCFI11:
 106              		.cfi_restore 7
 107              		.cfi_def_cfa_offset 0
 108 0036 7047     		bx	lr
 109              		.cfi_endproc
 110              	.LFE13:
 111              		.size	set_module_state, .-set_module_state
 112              		.comm	OSTCBCurPtr,4,4
 113              		.comm	OSTCBHighRdyPtr,4,4
 114              		.global	g_interrupt_count
 115              		.bss
 116              		.align	2
 117              		.type	g_interrupt_count, %object
 118              		.size	g_interrupt_count, 4
 119              	g_interrupt_count:
 120 0000 00000000 		.space	4
 121              		.text
 122              		.align	1
 123              		.syntax unified
 124              		.thumb
 125              		.thumb_func
 126              		.fpu softvfp
 127              		.type	delete_myself, %function
 128              	delete_myself:
 129              	.LFB14:
 130              		.file 3 "../../source/src/kernel/OS_CORE/TCB.c"
   1:../../source/src/kernel/OS_CORE/TCB.c **** #include <TCB.h>
   2:../../source/src/kernel/OS_CORE/TCB.c **** #include <myassert.h>
   3:../../source/src/kernel/OS_CORE/TCB.c **** #include <myMicroLIB.h>
   4:../../source/src/kernel/OS_CORE/TCB.c **** #include <task_state.h>
   5:../../source/src/kernel/OS_CORE/TCB.c **** #include <os_TCB_list.h>
   6:../../source/src/kernel/OS_CORE/TCB.c **** #include <os_error.h>
   7:../../source/src/kernel/OS_CORE/TCB.c **** #include <os_cpu_stm32.h>
   8:../../source/src/kernel/OS_CORE/TCB.c **** #include <os_ready.h>
   9:../../source/src/kernel/OS_CORE/TCB.c **** #include <os_suspend.h>
  10:../../source/src/kernel/OS_CORE/TCB.c **** #include <os_delay.h>
  11:../../source/src/kernel/OS_CORE/TCB.c **** #include <os_schedule.h>
  12:../../source/src/kernel/OS_CORE/TCB.c **** #include <module.h>
  13:../../source/src/kernel/OS_CORE/TCB.c **** #include <export.h>
  14:../../source/src/kernel/OS_CORE/TCB.c **** 
  15:../../source/src/kernel/OS_CORE/TCB.c **** volatile TCB *OSTCBCurPtr;
  16:../../source/src/kernel/OS_CORE/TCB.c **** volatile TCB *OSTCBHighRdyPtr;
  17:../../source/src/kernel/OS_CORE/TCB.c **** volatile int g_interrupt_count = 0;
  18:../../source/src/kernel/OS_CORE/TCB.c **** 
  19:../../source/src/kernel/OS_CORE/TCB.c **** static void delete_myself(void)
  20:../../source/src/kernel/OS_CORE/TCB.c **** {
 131              		.loc 3 20 0
ARM GAS  G:\Users\Jaxb\AppData\Local\Temp\ccBU42mh.s 			page 5


 132              		.cfi_startproc
 133              		@ args = 0, pretend = 0, frame = 0
 134              		@ frame_needed = 1, uses_anonymous_args = 0
 135 0038 80B5     		push	{r7, lr}
 136              	.LCFI12:
 137              		.cfi_def_cfa_offset 8
 138              		.cfi_offset 7, -8
 139              		.cfi_offset 14, -4
 140 003a 00AF     		add	r7, sp, #0
 141              	.LCFI13:
 142              		.cfi_def_cfa_register 7
  21:../../source/src/kernel/OS_CORE/TCB.c **** 	task_delete((TCB *)OSTCBCurPtr);
 143              		.loc 3 21 0
 144 003c 034B     		ldr	r3, .L4
 145 003e 1B68     		ldr	r3, [r3]
 146 0040 1846     		mov	r0, r3
 147 0042 FFF7FEFF 		bl	task_delete
  22:../../source/src/kernel/OS_CORE/TCB.c **** }
 148              		.loc 3 22 0
 149 0046 00BF     		nop
 150 0048 80BD     		pop	{r7, pc}
 151              	.L5:
 152 004a 00BF     		.align	2
 153              	.L4:
 154 004c 00000000 		.word	OSTCBCurPtr
 155              		.cfi_endproc
 156              	.LFE14:
 157              		.size	delete_myself, .-delete_myself
 158              		.section	.rodata
 159              		.align	2
 160              	.LC0:
 161 0000 2E2E2F2E 		.ascii	"../../source/src/kernel/OS_CORE/TCB.c\000"
 161      2E2F736F 
 161      75726365 
 161      2F737263 
 161      2F6B6572 
 162              		.text
 163              		.align	1
 164              		.global	_task_init
 165              		.syntax unified
 166              		.thumb
 167              		.thumb_func
 168              		.fpu softvfp
 169              		.type	_task_init, %function
 170              	_task_init:
 171              	.LFB15:
  23:../../source/src/kernel/OS_CORE/TCB.c **** 
  24:../../source/src/kernel/OS_CORE/TCB.c **** int _must_check _task_init(
  25:../../source/src/kernel/OS_CORE/TCB.c **** 	TCB *TCB_ptr,
  26:../../source/src/kernel/OS_CORE/TCB.c **** 	unsigned int stack_size,
  27:../../source/src/kernel/OS_CORE/TCB.c **** 	TASK_PRIO_TYPE prio,
  28:../../source/src/kernel/OS_CORE/TCB.c **** 	unsigned int timeslice_hope_time,
  29:../../source/src/kernel/OS_CORE/TCB.c **** 	const char *name,
  30:../../source/src/kernel/OS_CORE/TCB.c **** 	functionptr function,
  31:../../source/src/kernel/OS_CORE/TCB.c **** 	void *para,
  32:../../source/src/kernel/OS_CORE/TCB.c **** 	TASK_STATE state)
  33:../../source/src/kernel/OS_CORE/TCB.c **** {
ARM GAS  G:\Users\Jaxb\AppData\Local\Temp\ccBU42mh.s 			page 6


 172              		.loc 3 33 0
 173              		.cfi_startproc
 174              		@ args = 16, pretend = 0, frame = 16
 175              		@ frame_needed = 1, uses_anonymous_args = 0
 176 0050 90B5     		push	{r4, r7, lr}
 177              	.LCFI14:
 178              		.cfi_def_cfa_offset 12
 179              		.cfi_offset 4, -12
 180              		.cfi_offset 7, -8
 181              		.cfi_offset 14, -4
 182 0052 85B0     		sub	sp, sp, #20
 183              	.LCFI15:
 184              		.cfi_def_cfa_offset 32
 185 0054 00AF     		add	r7, sp, #0
 186              	.LCFI16:
 187              		.cfi_def_cfa_register 7
 188 0056 F860     		str	r0, [r7, #12]
 189 0058 B960     		str	r1, [r7, #8]
 190 005a 7A60     		str	r2, [r7, #4]
 191 005c 3B60     		str	r3, [r7]
  34:../../source/src/kernel/OS_CORE/TCB.c **** 	ASSERT(prio < PRIO_MAX);
 192              		.loc 3 34 0
 193 005e 7B68     		ldr	r3, [r7, #4]
 194 0060 3F2B     		cmp	r3, #63
 195 0062 03D9     		bls	.L7
 196              		.loc 3 34 0 is_stmt 0 discriminator 1
 197 0064 2221     		movs	r1, #34
 198 0066 3E48     		ldr	r0, .L13
 199 0068 FFF7FEFF 		bl	_ASSERT
 200              	.L7:
  35:../../source/src/kernel/OS_CORE/TCB.c **** 	ASSERT((NULL != name) && (NULL != TCB_ptr) && (NULL != function));
 201              		.loc 3 35 0 is_stmt 1
 202 006c 3B6A     		ldr	r3, [r7, #32]
 203 006e 002B     		cmp	r3, #0
 204 0070 05D0     		beq	.L8
 205              		.loc 3 35 0 is_stmt 0 discriminator 1
 206 0072 FB68     		ldr	r3, [r7, #12]
 207 0074 002B     		cmp	r3, #0
 208 0076 02D0     		beq	.L8
 209              		.loc 3 35 0 discriminator 3
 210 0078 7B6A     		ldr	r3, [r7, #36]
 211 007a 002B     		cmp	r3, #0
 212 007c 03D1     		bne	.L9
 213              	.L8:
 214              		.loc 3 35 0 discriminator 5
 215 007e 2321     		movs	r1, #35
 216 0080 3748     		ldr	r0, .L13
 217 0082 FFF7FEFF 		bl	_ASSERT
 218              	.L9:
  36:../../source/src/kernel/OS_CORE/TCB.c **** 	stack_size &= (~0x03);/* according to CPU : 32bit?64bit*/
 219              		.loc 3 36 0 is_stmt 1
 220 0086 BB68     		ldr	r3, [r7, #8]
 221 0088 23F00303 		bic	r3, r3, #3
 222 008c BB60     		str	r3, [r7, #8]
  37:../../source/src/kernel/OS_CORE/TCB.c **** 	TCB_ptr->stack_end = (STACK_TYPE *)ka_malloc(stack_size);
 223              		.loc 3 37 0
 224 008e B868     		ldr	r0, [r7, #8]
ARM GAS  G:\Users\Jaxb\AppData\Local\Temp\ccBU42mh.s 			page 7


 225 0090 FFF7FEFF 		bl	ka_malloc
 226 0094 0246     		mov	r2, r0
 227 0096 FB68     		ldr	r3, [r7, #12]
 228 0098 9A60     		str	r2, [r3, #8]
  38:../../source/src/kernel/OS_CORE/TCB.c **** 	if(NULL == TCB_ptr->stack_end)
 229              		.loc 3 38 0
 230 009a FB68     		ldr	r3, [r7, #12]
 231 009c 9B68     		ldr	r3, [r3, #8]
 232 009e 002B     		cmp	r3, #0
 233 00a0 02D1     		bne	.L10
  39:../../source/src/kernel/OS_CORE/TCB.c **** 	{
  40:../../source/src/kernel/OS_CORE/TCB.c **** 		return -ERROR_ALLOCATE_STACK;
 234              		.loc 3 40 0
 235 00a2 4FF0FF33 		mov	r3, #-1
 236 00a6 56E0     		b	.L11
 237              	.L10:
  41:../../source/src/kernel/OS_CORE/TCB.c **** 	}
  42:../../source/src/kernel/OS_CORE/TCB.c **** 	TCB_ptr->stack_size = stack_size;
 238              		.loc 3 42 0
 239 00a8 FB68     		ldr	r3, [r7, #12]
 240 00aa BA68     		ldr	r2, [r7, #8]
 241 00ac 5A60     		str	r2, [r3, #4]
  43:../../source/src/kernel/OS_CORE/TCB.c **** 	TCB_ptr->stack = (STACK_TYPE *)TCB_ptr->stack_end + stack_size/4 - 1;
 242              		.loc 3 43 0
 243 00ae FB68     		ldr	r3, [r7, #12]
 244 00b0 9A68     		ldr	r2, [r3, #8]
 245 00b2 BB68     		ldr	r3, [r7, #8]
 246 00b4 23F00303 		bic	r3, r3, #3
 247 00b8 043B     		subs	r3, r3, #4
 248 00ba 1A44     		add	r2, r2, r3
 249 00bc FB68     		ldr	r3, [r7, #12]
 250 00be 1A60     		str	r2, [r3]
  44:../../source/src/kernel/OS_CORE/TCB.c **** 	ASSERT((char *)(TCB_ptr->stack) == (char *)(TCB_ptr->stack_end) + stack_size - 4);
 251              		.loc 3 44 0
 252 00c0 FB68     		ldr	r3, [r7, #12]
 253 00c2 1A68     		ldr	r2, [r3]
 254 00c4 FB68     		ldr	r3, [r7, #12]
 255 00c6 9968     		ldr	r1, [r3, #8]
 256 00c8 BB68     		ldr	r3, [r7, #8]
 257 00ca 043B     		subs	r3, r3, #4
 258 00cc 0B44     		add	r3, r3, r1
 259 00ce 9A42     		cmp	r2, r3
 260 00d0 03D0     		beq	.L12
 261              		.loc 3 44 0 is_stmt 0 discriminator 1
 262 00d2 2C21     		movs	r1, #44
 263 00d4 2248     		ldr	r0, .L13
 264 00d6 FFF7FEFF 		bl	_ASSERT
 265              	.L12:
  45:../../source/src/kernel/OS_CORE/TCB.c **** 	ka_memset(TCB_ptr->stack_end,0,stack_size);
 266              		.loc 3 45 0 is_stmt 1
 267 00da FB68     		ldr	r3, [r7, #12]
 268 00dc 9B68     		ldr	r3, [r3, #8]
 269 00de BA68     		ldr	r2, [r7, #8]
 270 00e0 0021     		movs	r1, #0
 271 00e2 1846     		mov	r0, r3
 272 00e4 FFF7FEFF 		bl	ka_memset
  46:../../source/src/kernel/OS_CORE/TCB.c **** 	set_register((void **)&TCB_ptr->stack,function,delete_myself,para);
ARM GAS  G:\Users\Jaxb\AppData\Local\Temp\ccBU42mh.s 			page 8


 273              		.loc 3 46 0
 274 00e8 F868     		ldr	r0, [r7, #12]
 275 00ea BB6A     		ldr	r3, [r7, #40]
 276 00ec 1D4A     		ldr	r2, .L13+4
 277 00ee 796A     		ldr	r1, [r7, #36]
 278 00f0 FFF7FEFF 		bl	set_register
  47:../../source/src/kernel/OS_CORE/TCB.c **** 	TCB_ptr->prio = prio;
 279              		.loc 3 47 0
 280 00f4 FB68     		ldr	r3, [r7, #12]
 281 00f6 7A68     		ldr	r2, [r7, #4]
 282 00f8 5A61     		str	r2, [r3, #20]
  48:../../source/src/kernel/OS_CORE/TCB.c **** 	TCB_ptr->reserve_prio = RESERVED_PRIO;
 283              		.loc 3 48 0
 284 00fa FB68     		ldr	r3, [r7, #12]
 285 00fc 0022     		movs	r2, #0
 286 00fe DA60     		str	r2, [r3, #12]
  49:../../source/src/kernel/OS_CORE/TCB.c **** 	TCB_ptr->task_state = state;
 287              		.loc 3 49 0
 288 0100 FB68     		ldr	r3, [r7, #12]
 289 0102 97F82C20 		ldrb	r2, [r7, #44]
 290 0106 1A74     		strb	r2, [r3, #16]
  50:../../source/src/kernel/OS_CORE/TCB.c **** 	TCB_ptr->attribution = DEFAULT_ATTRIBUTION | TCB_ATTRIBUTION_INIT;
 291              		.loc 3 50 0
 292 0108 FB68     		ldr	r3, [r7, #12]
 293 010a 0022     		movs	r2, #0
 294 010c 9A63     		str	r2, [r3, #56]
  51:../../source/src/kernel/OS_CORE/TCB.c **** 	TCB_ptr->delay_reach_time = 0;
 295              		.loc 3 51 0
 296 010e FA68     		ldr	r2, [r7, #12]
 297 0110 4FF00003 		mov	r3, #0
 298 0114 4FF00004 		mov	r4, #0
 299 0118 C2E91034 		strd	r3, [r2, #64]
  52:../../source/src/kernel/OS_CORE/TCB.c **** 	TCB_ptr->delay_heap_position = 0;
 300              		.loc 3 52 0
 301 011c FB68     		ldr	r3, [r7, #12]
 302 011e 0022     		movs	r2, #0
 303 0120 9A61     		str	r2, [r3, #24]
  53:../../source/src/kernel/OS_CORE/TCB.c **** 	INIT_LIST_HEAD(&TCB_ptr->same_prio_list);
 304              		.loc 3 53 0
 305 0122 FB68     		ldr	r3, [r7, #12]
 306 0124 1C33     		adds	r3, r3, #28
 307 0126 1846     		mov	r0, r3
 308 0128 FFF76AFF 		bl	INIT_LIST_HEAD
  54:../../source/src/kernel/OS_CORE/TCB.c **** 	INIT_LIST_HEAD(&TCB_ptr->suspend_list);
 309              		.loc 3 54 0
 310 012c FB68     		ldr	r3, [r7, #12]
 311 012e 2433     		adds	r3, r3, #36
 312 0130 1846     		mov	r0, r3
 313 0132 FFF765FF 		bl	INIT_LIST_HEAD
  55:../../source/src/kernel/OS_CORE/TCB.c **** 	TCB_ptr->name = (char *)name;
 314              		.loc 3 55 0
 315 0136 FB68     		ldr	r3, [r7, #12]
 316 0138 3A6A     		ldr	r2, [r7, #32]
 317 013a DA62     		str	r2, [r3, #44]
  56:../../source/src/kernel/OS_CORE/TCB.c **** 	TCB_ptr->timeslice_hope_time = timeslice_hope_time;
 318              		.loc 3 56 0
 319 013c FB68     		ldr	r3, [r7, #12]
ARM GAS  G:\Users\Jaxb\AppData\Local\Temp\ccBU42mh.s 			page 9


 320 013e 3A68     		ldr	r2, [r7]
 321 0140 1A63     		str	r2, [r3, #48]
  57:../../source/src/kernel/OS_CORE/TCB.c **** 	TCB_ptr->timeslice_rest_time = timeslice_hope_time;
 322              		.loc 3 57 0
 323 0142 FB68     		ldr	r3, [r7, #12]
 324 0144 3A68     		ldr	r2, [r7]
 325 0146 5A63     		str	r2, [r3, #52]
  58:../../source/src/kernel/OS_CORE/TCB.c **** 	TCB_ptr->dynamic_module_ptr = NULL;
 326              		.loc 3 58 0
 327 0148 FB68     		ldr	r3, [r7, #12]
 328 014a 0022     		movs	r2, #0
 329 014c DA63     		str	r2, [r3, #60]
  59:../../source/src/kernel/OS_CORE/TCB.c **** 	_register_in_TCB_list(TCB_ptr);
 330              		.loc 3 59 0
 331 014e F868     		ldr	r0, [r7, #12]
 332 0150 FFF7FEFF 		bl	_register_in_TCB_list
  60:../../source/src/kernel/OS_CORE/TCB.c **** 	return FUN_EXECUTE_SUCCESSFULLY;
 333              		.loc 3 60 0
 334 0154 0023     		movs	r3, #0
 335              	.L11:
  61:../../source/src/kernel/OS_CORE/TCB.c **** }
 336              		.loc 3 61 0
 337 0156 1846     		mov	r0, r3
 338 0158 1437     		adds	r7, r7, #20
 339              	.LCFI17:
 340              		.cfi_def_cfa_offset 12
 341 015a BD46     		mov	sp, r7
 342              	.LCFI18:
 343              		.cfi_def_cfa_register 13
 344              		@ sp needed
 345 015c 90BD     		pop	{r4, r7, pc}
 346              	.L14:
 347 015e 00BF     		.align	2
 348              	.L13:
 349 0160 00000000 		.word	.LC0
 350 0164 00000000 		.word	delete_myself
 351              		.cfi_endproc
 352              	.LFE15:
 353              		.size	_task_init, .-_task_init
 354              		.align	1
 355              		.global	_task_creat
 356              		.syntax unified
 357              		.thumb
 358              		.thumb_func
 359              		.fpu softvfp
 360              		.type	_task_creat, %function
 361              	_task_creat:
 362              	.LFB16:
  62:../../source/src/kernel/OS_CORE/TCB.c **** 
  63:../../source/src/kernel/OS_CORE/TCB.c **** TCB *_must_check _task_creat(
  64:../../source/src/kernel/OS_CORE/TCB.c **** 	unsigned int stack_size,
  65:../../source/src/kernel/OS_CORE/TCB.c **** 	TASK_PRIO_TYPE prio,
  66:../../source/src/kernel/OS_CORE/TCB.c **** 	unsigned int timeslice_hope_time,
  67:../../source/src/kernel/OS_CORE/TCB.c **** 	const char *name,
  68:../../source/src/kernel/OS_CORE/TCB.c **** 	functionptr function,
  69:../../source/src/kernel/OS_CORE/TCB.c **** 	void *para,
  70:../../source/src/kernel/OS_CORE/TCB.c **** 	TASK_STATE state)
ARM GAS  G:\Users\Jaxb\AppData\Local\Temp\ccBU42mh.s 			page 10


  71:../../source/src/kernel/OS_CORE/TCB.c **** {
 363              		.loc 3 71 0
 364              		.cfi_startproc
 365              		@ args = 12, pretend = 0, frame = 24
 366              		@ frame_needed = 1, uses_anonymous_args = 0
 367 0168 80B5     		push	{r7, lr}
 368              	.LCFI19:
 369              		.cfi_def_cfa_offset 8
 370              		.cfi_offset 7, -8
 371              		.cfi_offset 14, -4
 372 016a 8AB0     		sub	sp, sp, #40
 373              	.LCFI20:
 374              		.cfi_def_cfa_offset 48
 375 016c 04AF     		add	r7, sp, #16
 376              	.LCFI21:
 377              		.cfi_def_cfa 7, 32
 378 016e F860     		str	r0, [r7, #12]
 379 0170 B960     		str	r1, [r7, #8]
 380 0172 7A60     		str	r2, [r7, #4]
 381 0174 3B60     		str	r3, [r7]
  72:../../source/src/kernel/OS_CORE/TCB.c **** 	ASSERT((prio < PRIO_MAX));
 382              		.loc 3 72 0
 383 0176 BB68     		ldr	r3, [r7, #8]
 384 0178 3F2B     		cmp	r3, #63
 385 017a 03D9     		bls	.L16
 386              		.loc 3 72 0 is_stmt 0 discriminator 1
 387 017c 4821     		movs	r1, #72
 388 017e 1A48     		ldr	r0, .L22
 389 0180 FFF7FEFF 		bl	_ASSERT
 390              	.L16:
  73:../../source/src/kernel/OS_CORE/TCB.c **** 	ASSERT((NULL != name) && (NULL != function));
 391              		.loc 3 73 0 is_stmt 1
 392 0184 3B68     		ldr	r3, [r7]
 393 0186 002B     		cmp	r3, #0
 394 0188 02D0     		beq	.L17
 395              		.loc 3 73 0 is_stmt 0 discriminator 1
 396 018a 3B6A     		ldr	r3, [r7, #32]
 397 018c 002B     		cmp	r3, #0
 398 018e 03D1     		bne	.L18
 399              	.L17:
 400              		.loc 3 73 0 discriminator 3
 401 0190 4921     		movs	r1, #73
 402 0192 1548     		ldr	r0, .L22
 403 0194 FFF7FEFF 		bl	_ASSERT
 404              	.L18:
  74:../../source/src/kernel/OS_CORE/TCB.c **** 	TCB *TCB_ptr = ka_malloc(sizeof(TCB));
 405              		.loc 3 74 0 is_stmt 1
 406 0198 4820     		movs	r0, #72
 407 019a FFF7FEFF 		bl	ka_malloc
 408 019e 7861     		str	r0, [r7, #20]
  75:../../source/src/kernel/OS_CORE/TCB.c **** 	if(NULL == TCB_ptr)
 409              		.loc 3 75 0
 410 01a0 7B69     		ldr	r3, [r7, #20]
 411 01a2 002B     		cmp	r3, #0
 412 01a4 01D1     		bne	.L19
  76:../../source/src/kernel/OS_CORE/TCB.c **** 	{
  77:../../source/src/kernel/OS_CORE/TCB.c **** 		return NULL;
ARM GAS  G:\Users\Jaxb\AppData\Local\Temp\ccBU42mh.s 			page 11


 413              		.loc 3 77 0
 414 01a6 0023     		movs	r3, #0
 415 01a8 1AE0     		b	.L20
 416              	.L19:
  78:../../source/src/kernel/OS_CORE/TCB.c **** 	}
  79:../../source/src/kernel/OS_CORE/TCB.c **** 	if(FUN_EXECUTE_SUCCESSFULLY != 
  80:../../source/src/kernel/OS_CORE/TCB.c **** 		_task_init(	TCB_ptr,
 417              		.loc 3 80 0
 418 01aa 97F82830 		ldrb	r3, [r7, #40]	@ zero_extendqisi2
 419 01ae 0393     		str	r3, [sp, #12]
 420 01b0 7B6A     		ldr	r3, [r7, #36]
 421 01b2 0293     		str	r3, [sp, #8]
 422 01b4 3B6A     		ldr	r3, [r7, #32]
 423 01b6 0193     		str	r3, [sp, #4]
 424 01b8 3B68     		ldr	r3, [r7]
 425 01ba 0093     		str	r3, [sp]
 426 01bc 7B68     		ldr	r3, [r7, #4]
 427 01be BA68     		ldr	r2, [r7, #8]
 428 01c0 F968     		ldr	r1, [r7, #12]
 429 01c2 7869     		ldr	r0, [r7, #20]
 430 01c4 FFF7FEFF 		bl	_task_init
 431 01c8 0346     		mov	r3, r0
  79:../../source/src/kernel/OS_CORE/TCB.c **** 		_task_init(	TCB_ptr,
 432              		.loc 3 79 0
 433 01ca 002B     		cmp	r3, #0
 434 01cc 04D0     		beq	.L21
  81:../../source/src/kernel/OS_CORE/TCB.c **** 					stack_size,
  82:../../source/src/kernel/OS_CORE/TCB.c **** 					prio,
  83:../../source/src/kernel/OS_CORE/TCB.c **** 					timeslice_hope_time,
  84:../../source/src/kernel/OS_CORE/TCB.c **** 					name,
  85:../../source/src/kernel/OS_CORE/TCB.c **** 					function,
  86:../../source/src/kernel/OS_CORE/TCB.c **** 					para,
  87:../../source/src/kernel/OS_CORE/TCB.c **** 					state)
  88:../../source/src/kernel/OS_CORE/TCB.c **** 	  )
  89:../../source/src/kernel/OS_CORE/TCB.c **** 	{
  90:../../source/src/kernel/OS_CORE/TCB.c **** 		ka_free(TCB_ptr);
 435              		.loc 3 90 0
 436 01ce 7869     		ldr	r0, [r7, #20]
 437 01d0 FFF7FEFF 		bl	ka_free
  91:../../source/src/kernel/OS_CORE/TCB.c **** 		return NULL;
 438              		.loc 3 91 0
 439 01d4 0023     		movs	r3, #0
 440 01d6 03E0     		b	.L20
 441              	.L21:
  92:../../source/src/kernel/OS_CORE/TCB.c **** 	}
  93:../../source/src/kernel/OS_CORE/TCB.c **** 	TCB_ptr->attribution = DEFAULT_ATTRIBUTION | TCB_ATTRIBUTION_CREATE;
 442              		.loc 3 93 0
 443 01d8 7B69     		ldr	r3, [r7, #20]
 444 01da 0122     		movs	r2, #1
 445 01dc 9A63     		str	r2, [r3, #56]
  94:../../source/src/kernel/OS_CORE/TCB.c **** 	return TCB_ptr;
 446              		.loc 3 94 0
 447 01de 7B69     		ldr	r3, [r7, #20]
 448              	.L20:
  95:../../source/src/kernel/OS_CORE/TCB.c **** }
 449              		.loc 3 95 0
 450 01e0 1846     		mov	r0, r3
ARM GAS  G:\Users\Jaxb\AppData\Local\Temp\ccBU42mh.s 			page 12


 451 01e2 1837     		adds	r7, r7, #24
 452              	.LCFI22:
 453              		.cfi_def_cfa_offset 8
 454 01e4 BD46     		mov	sp, r7
 455              	.LCFI23:
 456              		.cfi_def_cfa_register 13
 457              		@ sp needed
 458 01e6 80BD     		pop	{r7, pc}
 459              	.L23:
 460              		.align	2
 461              	.L22:
 462 01e8 00000000 		.word	.LC0
 463              		.cfi_endproc
 464              	.LFE16:
 465              		.size	_task_creat, .-_task_creat
 466              		.align	1
 467              		.global	_task_change_prio
 468              		.syntax unified
 469              		.thumb
 470              		.thumb_func
 471              		.fpu softvfp
 472              		.type	_task_change_prio, %function
 473              	_task_change_prio:
 474              	.LFB17:
  96:../../source/src/kernel/OS_CORE/TCB.c **** 
  97:../../source/src/kernel/OS_CORE/TCB.c **** int _task_change_prio(TCB *TCB_ptr,TASK_PRIO_TYPE prio)
  98:../../source/src/kernel/OS_CORE/TCB.c **** {
 475              		.loc 3 98 0
 476              		.cfi_startproc
 477              		@ args = 0, pretend = 0, frame = 16
 478              		@ frame_needed = 1, uses_anonymous_args = 0
 479 01ec 80B5     		push	{r7, lr}
 480              	.LCFI24:
 481              		.cfi_def_cfa_offset 8
 482              		.cfi_offset 7, -8
 483              		.cfi_offset 14, -4
 484 01ee 84B0     		sub	sp, sp, #16
 485              	.LCFI25:
 486              		.cfi_def_cfa_offset 24
 487 01f0 00AF     		add	r7, sp, #0
 488              	.LCFI26:
 489              		.cfi_def_cfa_register 7
 490 01f2 7860     		str	r0, [r7, #4]
 491 01f4 3960     		str	r1, [r7]
  99:../../source/src/kernel/OS_CORE/TCB.c **** 	ASSERT(prio < PRIO_MAX);
 492              		.loc 3 99 0
 493 01f6 3B68     		ldr	r3, [r7]
 494 01f8 3F2B     		cmp	r3, #63
 495 01fa 03D9     		bls	.L25
 496              		.loc 3 99 0 is_stmt 0 discriminator 1
 497 01fc 6321     		movs	r1, #99
 498 01fe 1A48     		ldr	r0, .L34
 499 0200 FFF7FEFF 		bl	_ASSERT
 500              	.L25:
 100:../../source/src/kernel/OS_CORE/TCB.c **** 	ASSERT(NULL != TCB_ptr);
 501              		.loc 3 100 0 is_stmt 1
 502 0204 7B68     		ldr	r3, [r7, #4]
ARM GAS  G:\Users\Jaxb\AppData\Local\Temp\ccBU42mh.s 			page 13


 503 0206 002B     		cmp	r3, #0
 504 0208 03D1     		bne	.L26
 505              		.loc 3 100 0 is_stmt 0 discriminator 1
 506 020a 6421     		movs	r1, #100
 507 020c 1648     		ldr	r0, .L34
 508 020e FFF7FEFF 		bl	_ASSERT
 509              	.L26:
 101:../../source/src/kernel/OS_CORE/TCB.c **** 	CPU_SR_ALLOC();
 510              		.loc 3 101 0 is_stmt 1
 511 0212 0023     		movs	r3, #0
 512 0214 FB60     		str	r3, [r7, #12]
 102:../../source/src/kernel/OS_CORE/TCB.c **** 	CPU_CRITICAL_ENTER();
 513              		.loc 3 102 0
 514 0216 FFF7FEFF 		bl	CPU_SR_Save
 515 021a F860     		str	r0, [r7, #12]
 103:../../source/src/kernel/OS_CORE/TCB.c **** 	/*1 step: delete it from TCB_list*/
 104:../../source/src/kernel/OS_CORE/TCB.c **** 	_delete_from_TCB_list(TCB_ptr);
 516              		.loc 3 104 0
 517 021c 7868     		ldr	r0, [r7, #4]
 518 021e FFF7FEFF 		bl	_delete_from_TCB_list
 105:../../source/src/kernel/OS_CORE/TCB.c **** 	/*2 step: according to the task_state,do some changes*/
 106:../../source/src/kernel/OS_CORE/TCB.c **** 	switch(TCB_ptr->task_state)
 519              		.loc 3 106 0
 520 0222 7B68     		ldr	r3, [r7, #4]
 521 0224 1B7C     		ldrb	r3, [r3, #16]	@ zero_extendqisi2
 522 0226 012B     		cmp	r3, #1
 523 0228 00D0     		beq	.L28
 107:../../source/src/kernel/OS_CORE/TCB.c **** 	{
 108:../../source/src/kernel/OS_CORE/TCB.c **** 		case STATE_READY:
 109:../../source/src/kernel/OS_CORE/TCB.c **** 			_delete_TCB_from_ready(TCB_ptr);break;
 110:../../source/src/kernel/OS_CORE/TCB.c **** 		//add other state's handling code here
 111:../../source/src/kernel/OS_CORE/TCB.c **** 		/*
 112:../../source/src/kernel/OS_CORE/TCB.c **** 		 *
 113:../../source/src/kernel/OS_CORE/TCB.c **** 		 *
 114:../../source/src/kernel/OS_CORE/TCB.c **** 		 * 
 115:../../source/src/kernel/OS_CORE/TCB.c **** 		 */
 116:../../source/src/kernel/OS_CORE/TCB.c **** 		default: break;/* do nothing*/
 524              		.loc 3 116 0
 525 022a 03E0     		b	.L29
 526              	.L28:
 109:../../source/src/kernel/OS_CORE/TCB.c **** 		//add other state's handling code here
 527              		.loc 3 109 0
 528 022c 7868     		ldr	r0, [r7, #4]
 529 022e FFF7FEFF 		bl	_delete_TCB_from_ready
 530 0232 00BF     		nop
 531              	.L29:
 117:../../source/src/kernel/OS_CORE/TCB.c **** 	}
 118:../../source/src/kernel/OS_CORE/TCB.c **** 	/*3 step: change the prio*/
 119:../../source/src/kernel/OS_CORE/TCB.c **** 	TCB_ptr->prio = prio;
 532              		.loc 3 119 0
 533 0234 7B68     		ldr	r3, [r7, #4]
 534 0236 3A68     		ldr	r2, [r7]
 535 0238 5A61     		str	r2, [r3, #20]
 120:../../source/src/kernel/OS_CORE/TCB.c **** 	/*4 step: register into TCB_list*/
 121:../../source/src/kernel/OS_CORE/TCB.c **** 	_register_in_TCB_list(TCB_ptr);
 536              		.loc 3 121 0
 537 023a 7868     		ldr	r0, [r7, #4]
ARM GAS  G:\Users\Jaxb\AppData\Local\Temp\ccBU42mh.s 			page 14


 538 023c FFF7FEFF 		bl	_register_in_TCB_list
 122:../../source/src/kernel/OS_CORE/TCB.c **** 	/*5 step: according to the task_state,do some changes*/
 123:../../source/src/kernel/OS_CORE/TCB.c **** 	/*this place should add different code according to the different task_state*/
 124:../../source/src/kernel/OS_CORE/TCB.c **** 	switch(TCB_ptr->task_state)
 539              		.loc 3 124 0
 540 0240 7B68     		ldr	r3, [r7, #4]
 541 0242 1B7C     		ldrb	r3, [r3, #16]	@ zero_extendqisi2
 542 0244 012B     		cmp	r3, #1
 543 0246 00D0     		beq	.L31
 125:../../source/src/kernel/OS_CORE/TCB.c **** 	{
 126:../../source/src/kernel/OS_CORE/TCB.c **** 		case STATE_READY:
 127:../../source/src/kernel/OS_CORE/TCB.c **** 			_insert_ready_TCB(TCB_ptr);break;
 128:../../source/src/kernel/OS_CORE/TCB.c **** 		//add other state's handling code here
 129:../../source/src/kernel/OS_CORE/TCB.c **** 		/*
 130:../../source/src/kernel/OS_CORE/TCB.c **** 		 *
 131:../../source/src/kernel/OS_CORE/TCB.c **** 		 *
 132:../../source/src/kernel/OS_CORE/TCB.c **** 		 * 
 133:../../source/src/kernel/OS_CORE/TCB.c **** 		 */
 134:../../source/src/kernel/OS_CORE/TCB.c **** 		default: break;/* do nothing*/
 544              		.loc 3 134 0
 545 0248 03E0     		b	.L32
 546              	.L31:
 127:../../source/src/kernel/OS_CORE/TCB.c **** 		//add other state's handling code here
 547              		.loc 3 127 0
 548 024a 7868     		ldr	r0, [r7, #4]
 549 024c FFF7FEFF 		bl	_insert_ready_TCB
 550 0250 00BF     		nop
 551              	.L32:
 135:../../source/src/kernel/OS_CORE/TCB.c **** 	}
 136:../../source/src/kernel/OS_CORE/TCB.c **** 	CPU_CRITICAL_EXIT();
 552              		.loc 3 136 0
 553 0252 F868     		ldr	r0, [r7, #12]
 554 0254 FFF7FEFF 		bl	CPU_SR_Restore
 137:../../source/src/kernel/OS_CORE/TCB.c **** 	schedule();
 555              		.loc 3 137 0
 556 0258 FFF7FEFF 		bl	schedule
 138:../../source/src/kernel/OS_CORE/TCB.c **** 	return FUN_EXECUTE_SUCCESSFULLY;
 557              		.loc 3 138 0
 558 025c 0023     		movs	r3, #0
 139:../../source/src/kernel/OS_CORE/TCB.c **** }
 559              		.loc 3 139 0
 560 025e 1846     		mov	r0, r3
 561 0260 1037     		adds	r7, r7, #16
 562              	.LCFI27:
 563              		.cfi_def_cfa_offset 8
 564 0262 BD46     		mov	sp, r7
 565              	.LCFI28:
 566              		.cfi_def_cfa_register 13
 567              		@ sp needed
 568 0264 80BD     		pop	{r7, pc}
 569              	.L35:
 570 0266 00BF     		.align	2
 571              	.L34:
 572 0268 00000000 		.word	.LC0
 573              		.cfi_endproc
 574              	.LFE17:
 575              		.size	_task_change_prio, .-_task_change_prio
ARM GAS  G:\Users\Jaxb\AppData\Local\Temp\ccBU42mh.s 			page 15


 576              		.section	.rodata
 577 0026 0000     		.align	2
 578              	.LC1:
 579 0028 6572726F 		.ascii	"error fun name : task_change_prio\012error para : p"
 579      72206675 
 579      6E206E61 
 579      6D65203A 
 579      20746173 
 580 0058 72696F0A 		.ascii	"rio\012\000"
 580      00
 581 005d 000000   		.align	2
 582              	.LC2:
 583 0060 6572726F 		.ascii	"error fun name : task_change_prio\012error para : T"
 583      72206675 
 583      6E206E61 
 583      6D65203A 
 583      20746173 
 584 0090 43425F70 		.ascii	"CB_ptr\012\000"
 584      74720A00 
 585              		.text
 586              		.align	1
 587              		.global	task_change_prio
 588              		.syntax unified
 589              		.thumb
 590              		.thumb_func
 591              		.fpu softvfp
 592              		.type	task_change_prio, %function
 593              	task_change_prio:
 594              	.LFB18:
 140:../../source/src/kernel/OS_CORE/TCB.c **** 
 141:../../source/src/kernel/OS_CORE/TCB.c **** int task_change_prio(TCB *TCB_ptr,TASK_PRIO_TYPE prio)
 142:../../source/src/kernel/OS_CORE/TCB.c **** {
 595              		.loc 3 142 0
 596              		.cfi_startproc
 597              		@ args = 0, pretend = 0, frame = 8
 598              		@ frame_needed = 1, uses_anonymous_args = 0
 599 026c 80B5     		push	{r7, lr}
 600              	.LCFI29:
 601              		.cfi_def_cfa_offset 8
 602              		.cfi_offset 7, -8
 603              		.cfi_offset 14, -4
 604 026e 82B0     		sub	sp, sp, #8
 605              	.LCFI30:
 606              		.cfi_def_cfa_offset 16
 607 0270 00AF     		add	r7, sp, #0
 608              	.LCFI31:
 609              		.cfi_def_cfa_register 7
 610 0272 7860     		str	r0, [r7, #4]
 611 0274 3960     		str	r1, [r7]
 143:../../source/src/kernel/OS_CORE/TCB.c **** 	if(prio >= PRIO_MAX)
 612              		.loc 3 143 0
 613 0276 3B68     		ldr	r3, [r7]
 614 0278 3F2B     		cmp	r3, #63
 615 027a 05D9     		bls	.L37
 144:../../source/src/kernel/OS_CORE/TCB.c **** 	{
 145:../../source/src/kernel/OS_CORE/TCB.c **** 		OS_ERROR_PARA_MESSAGE_DISPLAY(task_change_prio,prio);
 616              		.loc 3 145 0
ARM GAS  G:\Users\Jaxb\AppData\Local\Temp\ccBU42mh.s 			page 16


 617 027c 0B48     		ldr	r0, .L40
 618 027e FFF7FEFF 		bl	ka_printf
 146:../../source/src/kernel/OS_CORE/TCB.c **** 		return -ERROR_VALUELESS_INPUT;
 619              		.loc 3 146 0
 620 0282 6FF0FD03 		mvn	r3, #253
 621 0286 0DE0     		b	.L38
 622              	.L37:
 147:../../source/src/kernel/OS_CORE/TCB.c **** 	}
 148:../../source/src/kernel/OS_CORE/TCB.c **** 	if(NULL == TCB_ptr)
 623              		.loc 3 148 0
 624 0288 7B68     		ldr	r3, [r7, #4]
 625 028a 002B     		cmp	r3, #0
 626 028c 05D1     		bne	.L39
 149:../../source/src/kernel/OS_CORE/TCB.c **** 	{
 150:../../source/src/kernel/OS_CORE/TCB.c **** 		OS_ERROR_PARA_MESSAGE_DISPLAY(task_change_prio,TCB_ptr);
 627              		.loc 3 150 0
 628 028e 0848     		ldr	r0, .L40+4
 629 0290 FFF7FEFF 		bl	ka_printf
 151:../../source/src/kernel/OS_CORE/TCB.c **** 		return -ERROR_NULL_INPUT_PTR;
 630              		.loc 3 151 0
 631 0294 6FF0FE03 		mvn	r3, #254
 632 0298 04E0     		b	.L38
 633              	.L39:
 152:../../source/src/kernel/OS_CORE/TCB.c **** 	}
 153:../../source/src/kernel/OS_CORE/TCB.c **** 	return _task_change_prio(TCB_ptr,prio);
 634              		.loc 3 153 0
 635 029a 3968     		ldr	r1, [r7]
 636 029c 7868     		ldr	r0, [r7, #4]
 637 029e FFF7FEFF 		bl	_task_change_prio
 638 02a2 0346     		mov	r3, r0
 639              	.L38:
 154:../../source/src/kernel/OS_CORE/TCB.c **** }
 640              		.loc 3 154 0
 641 02a4 1846     		mov	r0, r3
 642 02a6 0837     		adds	r7, r7, #8
 643              	.LCFI32:
 644              		.cfi_def_cfa_offset 8
 645 02a8 BD46     		mov	sp, r7
 646              	.LCFI33:
 647              		.cfi_def_cfa_register 13
 648              		@ sp needed
 649 02aa 80BD     		pop	{r7, pc}
 650              	.L41:
 651              		.align	2
 652              	.L40:
 653 02ac 28000000 		.word	.LC1
 654 02b0 60000000 		.word	.LC2
 655              		.cfi_endproc
 656              	.LFE18:
 657              		.size	task_change_prio, .-task_change_prio
 658              		.global	__rtmsym_task_change_prio_name
 659              		.section	.rodata.name,"a",%progbits
 660              		.align	2
 661              		.type	__rtmsym_task_change_prio_name, %object
 662              		.size	__rtmsym_task_change_prio_name, 17
 663              	__rtmsym_task_change_prio_name:
 664 0000 7461736B 		.ascii	"task_change_prio\000"
ARM GAS  G:\Users\Jaxb\AppData\Local\Temp\ccBU42mh.s 			page 17


 664      5F636861 
 664      6E67655F 
 664      7072696F 
 664      00
 665              		.global	__rtmsym_task_change_prio
 666              		.section	.RTMSymTab,"a",%progbits
 667              		.align	2
 668              		.type	__rtmsym_task_change_prio, %object
 669              		.size	__rtmsym_task_change_prio, 8
 670              	__rtmsym_task_change_prio:
 671 0000 00000000 		.word	task_change_prio
 672 0004 00000000 		.word	__rtmsym_task_change_prio_name
 673              		.text
 674              		.align	1
 675              		.global	_task_delete
 676              		.syntax unified
 677              		.thumb
 678              		.thumb_func
 679              		.fpu softvfp
 680              		.type	_task_delete, %function
 681              	_task_delete:
 682              	.LFB19:
 155:../../source/src/kernel/OS_CORE/TCB.c **** EXPORT_SYMBOL(task_change_prio);
 156:../../source/src/kernel/OS_CORE/TCB.c **** 
 157:../../source/src/kernel/OS_CORE/TCB.c **** int _task_delete(TCB *TCB_ptr)
 158:../../source/src/kernel/OS_CORE/TCB.c **** {
 683              		.loc 3 158 0
 684              		.cfi_startproc
 685              		@ args = 0, pretend = 0, frame = 16
 686              		@ frame_needed = 1, uses_anonymous_args = 0
 687 02b4 80B5     		push	{r7, lr}
 688              	.LCFI34:
 689              		.cfi_def_cfa_offset 8
 690              		.cfi_offset 7, -8
 691              		.cfi_offset 14, -4
 692 02b6 84B0     		sub	sp, sp, #16
 693              	.LCFI35:
 694              		.cfi_def_cfa_offset 24
 695 02b8 00AF     		add	r7, sp, #0
 696              	.LCFI36:
 697              		.cfi_def_cfa_register 7
 698 02ba 7860     		str	r0, [r7, #4]
 159:../../source/src/kernel/OS_CORE/TCB.c **** 	ASSERT(NULL != TCB_ptr);
 699              		.loc 3 159 0
 700 02bc 7B68     		ldr	r3, [r7, #4]
 701 02be 002B     		cmp	r3, #0
 702 02c0 03D1     		bne	.L43
 703              		.loc 3 159 0 is_stmt 0 discriminator 1
 704 02c2 9F21     		movs	r1, #159
 705 02c4 2548     		ldr	r0, .L53
 706 02c6 FFF7FEFF 		bl	_ASSERT
 707              	.L43:
 160:../../source/src/kernel/OS_CORE/TCB.c **** 	CPU_SR_ALLOC();
 708              		.loc 3 160 0 is_stmt 1
 709 02ca 0023     		movs	r3, #0
 710 02cc FB60     		str	r3, [r7, #12]
 161:../../source/src/kernel/OS_CORE/TCB.c **** 	CPU_CRITICAL_ENTER();
ARM GAS  G:\Users\Jaxb\AppData\Local\Temp\ccBU42mh.s 			page 18


 711              		.loc 3 161 0
 712 02ce FFF7FEFF 		bl	CPU_SR_Save
 713 02d2 F860     		str	r0, [r7, #12]
 162:../../source/src/kernel/OS_CORE/TCB.c **** 	_delete_from_TCB_list(TCB_ptr);
 714              		.loc 3 162 0
 715 02d4 7868     		ldr	r0, [r7, #4]
 716 02d6 FFF7FEFF 		bl	_delete_from_TCB_list
 163:../../source/src/kernel/OS_CORE/TCB.c **** 	ka_free(TCB_ptr->stack_end);
 717              		.loc 3 163 0
 718 02da 7B68     		ldr	r3, [r7, #4]
 719 02dc 9B68     		ldr	r3, [r3, #8]
 720 02de 1846     		mov	r0, r3
 721 02e0 FFF7FEFF 		bl	ka_free
 164:../../source/src/kernel/OS_CORE/TCB.c **** 	switch(TCB_ptr->task_state)
 722              		.loc 3 164 0
 723 02e4 7B68     		ldr	r3, [r7, #4]
 724 02e6 1B7C     		ldrb	r3, [r3, #16]	@ zero_extendqisi2
 725 02e8 022B     		cmp	r3, #2
 726 02ea 08D0     		beq	.L45
 727 02ec 032B     		cmp	r3, #3
 728 02ee 02D0     		beq	.L46
 729 02f0 012B     		cmp	r3, #1
 730 02f2 08D0     		beq	.L47
 165:../../source/src/kernel/OS_CORE/TCB.c **** 	{
 166:../../source/src/kernel/OS_CORE/TCB.c **** 		case STATE_SUSPEND_NORMAL:
 167:../../source/src/kernel/OS_CORE/TCB.c **** 			_remove_from_suspend_list(TCB_ptr);break;
 168:../../source/src/kernel/OS_CORE/TCB.c **** 		case STATE_DELAY:
 169:../../source/src/kernel/OS_CORE/TCB.c **** 			_remove_from_delay_heap(TCB_ptr);break;
 170:../../source/src/kernel/OS_CORE/TCB.c **** 		case STATE_READY:
 171:../../source/src/kernel/OS_CORE/TCB.c **** 			_delete_TCB_from_ready(TCB_ptr);break;
 172:../../source/src/kernel/OS_CORE/TCB.c **** 		/*add other state's handling code here*/
 173:../../source/src/kernel/OS_CORE/TCB.c **** 		/*
 174:../../source/src/kernel/OS_CORE/TCB.c **** 		 *
 175:../../source/src/kernel/OS_CORE/TCB.c **** 		 *
 176:../../source/src/kernel/OS_CORE/TCB.c **** 		 * 
 177:../../source/src/kernel/OS_CORE/TCB.c **** 		 */
 178:../../source/src/kernel/OS_CORE/TCB.c **** 		default:
 179:../../source/src/kernel/OS_CORE/TCB.c **** 			break;
 731              		.loc 3 179 0
 732 02f4 0BE0     		b	.L48
 733              	.L46:
 167:../../source/src/kernel/OS_CORE/TCB.c **** 		case STATE_DELAY:
 734              		.loc 3 167 0
 735 02f6 7868     		ldr	r0, [r7, #4]
 736 02f8 FFF7FEFF 		bl	_remove_from_suspend_list
 737 02fc 07E0     		b	.L48
 738              	.L45:
 169:../../source/src/kernel/OS_CORE/TCB.c **** 		case STATE_READY:
 739              		.loc 3 169 0
 740 02fe 7868     		ldr	r0, [r7, #4]
 741 0300 FFF7FEFF 		bl	_remove_from_delay_heap
 742 0304 03E0     		b	.L48
 743              	.L47:
 171:../../source/src/kernel/OS_CORE/TCB.c **** 		/*add other state's handling code here*/
 744              		.loc 3 171 0
 745 0306 7868     		ldr	r0, [r7, #4]
 746 0308 FFF7FEFF 		bl	_delete_TCB_from_ready
ARM GAS  G:\Users\Jaxb\AppData\Local\Temp\ccBU42mh.s 			page 19


 747 030c 00BF     		nop
 748              	.L48:
 180:../../source/src/kernel/OS_CORE/TCB.c **** 	}
 181:../../source/src/kernel/OS_CORE/TCB.c **** 	if(TCB_IS_CREATED(TCB_ptr))
 749              		.loc 3 181 0
 750 030e 7B68     		ldr	r3, [r7, #4]
 751 0310 9B6B     		ldr	r3, [r3, #56]
 752 0312 03F00103 		and	r3, r3, #1
 753 0316 002B     		cmp	r3, #0
 754 0318 02D0     		beq	.L49
 182:../../source/src/kernel/OS_CORE/TCB.c **** 	{
 183:../../source/src/kernel/OS_CORE/TCB.c **** 		ka_free(TCB_ptr);
 755              		.loc 3 183 0
 756 031a 7868     		ldr	r0, [r7, #4]
 757 031c FFF7FEFF 		bl	ka_free
 758              	.L49:
 184:../../source/src/kernel/OS_CORE/TCB.c **** 	}
 185:../../source/src/kernel/OS_CORE/TCB.c **** 	if(is_module(TCB_ptr))
 759              		.loc 3 185 0
 760 0320 7B68     		ldr	r3, [r7, #4]
 761 0322 9B6B     		ldr	r3, [r3, #56]
 762 0324 03F00803 		and	r3, r3, #8
 763 0328 002B     		cmp	r3, #0
 764 032a 0DD0     		beq	.L50
 186:../../source/src/kernel/OS_CORE/TCB.c **** 	{
 187:../../source/src/kernel/OS_CORE/TCB.c **** 		ASSERT(TCB_ptr->dynamic_module_ptr);
 765              		.loc 3 187 0
 766 032c 7B68     		ldr	r3, [r7, #4]
 767 032e DB6B     		ldr	r3, [r3, #60]
 768 0330 002B     		cmp	r3, #0
 769 0332 03D1     		bne	.L51
 770              		.loc 3 187 0 is_stmt 0 discriminator 1
 771 0334 BB21     		movs	r1, #187
 772 0336 0948     		ldr	r0, .L53
 773 0338 FFF7FEFF 		bl	_ASSERT
 774              	.L51:
 188:../../source/src/kernel/OS_CORE/TCB.c **** 		set_module_state(TCB_ptr->dynamic_module_ptr,MODULE_STATE_LOADED);
 775              		.loc 3 188 0 is_stmt 1
 776 033c 7B68     		ldr	r3, [r7, #4]
 777 033e DB6B     		ldr	r3, [r3, #60]
 778 0340 0121     		movs	r1, #1
 779 0342 1846     		mov	r0, r3
 780 0344 FFF76BFE 		bl	set_module_state
 781              	.L50:
 189:../../source/src/kernel/OS_CORE/TCB.c **** 	}
 190:../../source/src/kernel/OS_CORE/TCB.c **** 	CPU_CRITICAL_EXIT();
 782              		.loc 3 190 0
 783 0348 F868     		ldr	r0, [r7, #12]
 784 034a FFF7FEFF 		bl	CPU_SR_Restore
 191:../../source/src/kernel/OS_CORE/TCB.c **** 	schedule();
 785              		.loc 3 191 0
 786 034e FFF7FEFF 		bl	schedule
 192:../../source/src/kernel/OS_CORE/TCB.c **** 	return FUN_EXECUTE_SUCCESSFULLY;
 787              		.loc 3 192 0
 788 0352 0023     		movs	r3, #0
 193:../../source/src/kernel/OS_CORE/TCB.c **** }
 789              		.loc 3 193 0
ARM GAS  G:\Users\Jaxb\AppData\Local\Temp\ccBU42mh.s 			page 20


 790 0354 1846     		mov	r0, r3
 791 0356 1037     		adds	r7, r7, #16
 792              	.LCFI37:
 793              		.cfi_def_cfa_offset 8
 794 0358 BD46     		mov	sp, r7
 795              	.LCFI38:
 796              		.cfi_def_cfa_register 13
 797              		@ sp needed
 798 035a 80BD     		pop	{r7, pc}
 799              	.L54:
 800              		.align	2
 801              	.L53:
 802 035c 00000000 		.word	.LC0
 803              		.cfi_endproc
 804              	.LFE19:
 805              		.size	_task_delete, .-_task_delete
 806              		.section	.rodata
 807              		.align	2
 808              	.LC3:
 809 0098 6572726F 		.ascii	"error fun name : task_delete\012error para : TCB_pt"
 809      72206675 
 809      6E206E61 
 809      6D65203A 
 809      20746173 
 810 00c8 720A00   		.ascii	"r\012\000"
 811              		.text
 812              		.align	1
 813              		.global	task_delete
 814              		.syntax unified
 815              		.thumb
 816              		.thumb_func
 817              		.fpu softvfp
 818              		.type	task_delete, %function
 819              	task_delete:
 820              	.LFB20:
 194:../../source/src/kernel/OS_CORE/TCB.c **** 
 195:../../source/src/kernel/OS_CORE/TCB.c **** int task_delete(TCB *TCB_ptr)
 196:../../source/src/kernel/OS_CORE/TCB.c **** {
 821              		.loc 3 196 0
 822              		.cfi_startproc
 823              		@ args = 0, pretend = 0, frame = 8
 824              		@ frame_needed = 1, uses_anonymous_args = 0
 825 0360 80B5     		push	{r7, lr}
 826              	.LCFI39:
 827              		.cfi_def_cfa_offset 8
 828              		.cfi_offset 7, -8
 829              		.cfi_offset 14, -4
 830 0362 82B0     		sub	sp, sp, #8
 831              	.LCFI40:
 832              		.cfi_def_cfa_offset 16
 833 0364 00AF     		add	r7, sp, #0
 834              	.LCFI41:
 835              		.cfi_def_cfa_register 7
 836 0366 7860     		str	r0, [r7, #4]
 197:../../source/src/kernel/OS_CORE/TCB.c **** 	if(NULL == TCB_ptr)
 837              		.loc 3 197 0
 838 0368 7B68     		ldr	r3, [r7, #4]
ARM GAS  G:\Users\Jaxb\AppData\Local\Temp\ccBU42mh.s 			page 21


 839 036a 002B     		cmp	r3, #0
 840 036c 05D1     		bne	.L56
 198:../../source/src/kernel/OS_CORE/TCB.c **** 	{
 199:../../source/src/kernel/OS_CORE/TCB.c **** 		OS_ERROR_PARA_MESSAGE_DISPLAY(task_delete,TCB_ptr);
 841              		.loc 3 199 0
 842 036e 0748     		ldr	r0, .L58
 843 0370 FFF7FEFF 		bl	ka_printf
 200:../../source/src/kernel/OS_CORE/TCB.c **** 		return -ERROR_NULL_INPUT_PTR;
 844              		.loc 3 200 0
 845 0374 6FF0FE03 		mvn	r3, #254
 846 0378 03E0     		b	.L57
 847              	.L56:
 201:../../source/src/kernel/OS_CORE/TCB.c **** 	}
 202:../../source/src/kernel/OS_CORE/TCB.c **** 	return _task_delete(TCB_ptr);
 848              		.loc 3 202 0
 849 037a 7868     		ldr	r0, [r7, #4]
 850 037c FFF7FEFF 		bl	_task_delete
 851 0380 0346     		mov	r3, r0
 852              	.L57:
 203:../../source/src/kernel/OS_CORE/TCB.c **** }
 853              		.loc 3 203 0
 854 0382 1846     		mov	r0, r3
 855 0384 0837     		adds	r7, r7, #8
 856              	.LCFI42:
 857              		.cfi_def_cfa_offset 8
 858 0386 BD46     		mov	sp, r7
 859              	.LCFI43:
 860              		.cfi_def_cfa_register 13
 861              		@ sp needed
 862 0388 80BD     		pop	{r7, pc}
 863              	.L59:
 864 038a 00BF     		.align	2
 865              	.L58:
 866 038c 98000000 		.word	.LC3
 867              		.cfi_endproc
 868              	.LFE20:
 869              		.size	task_delete, .-task_delete
 870              		.global	__rtmsym_task_delete_name
 871              		.section	.rodata.name
 872 0011 000000   		.align	2
 873              		.type	__rtmsym_task_delete_name, %object
 874              		.size	__rtmsym_task_delete_name, 12
 875              	__rtmsym_task_delete_name:
 876 0014 7461736B 		.ascii	"task_delete\000"
 876      5F64656C 
 876      65746500 
 877              		.global	__rtmsym_task_delete
 878              		.section	.RTMSymTab
 879              		.align	2
 880              		.type	__rtmsym_task_delete, %object
 881              		.size	__rtmsym_task_delete, 8
 882              	__rtmsym_task_delete:
 883 0008 00000000 		.word	task_delete
 884 000c 00000000 		.word	__rtmsym_task_delete_name
 885              		.text
 886              	.Letext0:
 887              		.file 4 "../../source/include/os_cpu/kakaosstdint.h"
ARM GAS  G:\Users\Jaxb\AppData\Local\Temp\ccBU42mh.s 			page 22


 888              		.file 5 "../../source/include/os_core/task_state.h"
 889              		.file 6 "../../source/include/os_cpu/os_cpu_stm32.h"
 890              		.file 7 "../../source/include/os_core/TCB.h"
 891              		.file 8 "../../source/include/os_core/export.h"
 892              		.section	.debug_info,"",%progbits
 893              	.Ldebug_info0:
 894 0000 B9060000 		.4byte	0x6b9
 895 0004 0200     		.2byte	0x2
 896 0006 00000000 		.4byte	.Ldebug_abbrev0
 897 000a 04       		.byte	0x4
 898 000b 01       		.uleb128 0x1
 899 000c 4D040000 		.4byte	.LASF79
 900 0010 0C       		.byte	0xc
 901 0011 E1000000 		.4byte	.LASF80
 902 0015 96010000 		.4byte	.LASF81
 903 0019 00000000 		.4byte	.Ltext0
 904 001d 90030000 		.4byte	.Letext0
 905 0021 00000000 		.4byte	.Ldebug_line0
 906 0025 02       		.uleb128 0x2
 907 0026 01       		.byte	0x1
 908 0027 06       		.byte	0x6
 909 0028 A7020000 		.4byte	.LASF0
 910 002c 02       		.uleb128 0x2
 911 002d 02       		.byte	0x2
 912 002e 05       		.byte	0x5
 913 002f 54000000 		.4byte	.LASF1
 914 0033 03       		.uleb128 0x3
 915 0034 04       		.byte	0x4
 916 0035 05       		.byte	0x5
 917 0036 696E7400 		.ascii	"int\000"
 918 003a 04       		.uleb128 0x4
 919 003b 33000000 		.4byte	0x33
 920 003f 02       		.uleb128 0x2
 921 0040 08       		.byte	0x8
 922 0041 05       		.byte	0x5
 923 0042 C4010000 		.4byte	.LASF2
 924 0046 02       		.uleb128 0x2
 925 0047 01       		.byte	0x1
 926 0048 08       		.byte	0x8
 927 0049 81020000 		.4byte	.LASF3
 928 004d 02       		.uleb128 0x2
 929 004e 02       		.byte	0x2
 930 004f 07       		.byte	0x7
 931 0050 07030000 		.4byte	.LASF4
 932 0054 05       		.uleb128 0x5
 933 0055 99000000 		.4byte	.LASF6
 934 0059 04       		.byte	0x4
 935 005a 0C       		.byte	0xc
 936 005b 5F000000 		.4byte	0x5f
 937 005f 02       		.uleb128 0x2
 938 0060 04       		.byte	0x4
 939 0061 07       		.byte	0x7
 940 0062 D6020000 		.4byte	.LASF5
 941 0066 05       		.uleb128 0x5
 942 0067 6F050000 		.4byte	.LASF7
 943 006b 04       		.byte	0x4
 944 006c 0D       		.byte	0xd
ARM GAS  G:\Users\Jaxb\AppData\Local\Temp\ccBU42mh.s 			page 23


 945 006d 71000000 		.4byte	0x71
 946 0071 02       		.uleb128 0x2
 947 0072 08       		.byte	0x8
 948 0073 07       		.byte	0x7
 949 0074 BF020000 		.4byte	.LASF8
 950 0078 06       		.uleb128 0x6
 951 0079 3E000000 		.4byte	.LASF27
 952 007d 08       		.byte	0x8
 953 007e 01       		.byte	0x1
 954 007f 04       		.byte	0x4
 955 0080 A1000000 		.4byte	0xa1
 956 0084 07       		.uleb128 0x7
 957 0085 87050000 		.4byte	.LASF9
 958 0089 01       		.byte	0x1
 959 008a 05       		.byte	0x5
 960 008b A1000000 		.4byte	0xa1
 961 008f 02       		.byte	0x2
 962 0090 23       		.byte	0x23
 963 0091 00       		.uleb128 0
 964 0092 07       		.uleb128 0x7
 965 0093 26050000 		.4byte	.LASF10
 966 0097 01       		.byte	0x1
 967 0098 05       		.byte	0x5
 968 0099 A1000000 		.4byte	0xa1
 969 009d 02       		.byte	0x2
 970 009e 23       		.byte	0x23
 971 009f 04       		.uleb128 0x4
 972 00a0 00       		.byte	0
 973 00a1 08       		.uleb128 0x8
 974 00a2 04       		.byte	0x4
 975 00a3 78000000 		.4byte	0x78
 976 00a7 09       		.uleb128 0x9
 977 00a8 B6000000 		.4byte	.LASF82
 978 00ac 07       		.byte	0x7
 979 00ad 01       		.byte	0x1
 980 00ae 46000000 		.4byte	0x46
 981 00b2 05       		.byte	0x5
 982 00b3 04       		.byte	0x4
 983 00b4 F5000000 		.4byte	0xf5
 984 00b8 0A       		.uleb128 0xa
 985 00b9 1A030000 		.4byte	.LASF11
 986 00bd 01       		.byte	0x1
 987 00be 0A       		.uleb128 0xa
 988 00bf 8F020000 		.4byte	.LASF12
 989 00c3 02       		.byte	0x2
 990 00c4 0A       		.uleb128 0xa
 991 00c5 29000000 		.4byte	.LASF13
 992 00c9 03       		.byte	0x3
 993 00ca 0A       		.uleb128 0xa
 994 00cb BD030000 		.4byte	.LASF14
 995 00cf 04       		.byte	0x4
 996 00d0 0A       		.uleb128 0xa
 997 00d1 4F010000 		.4byte	.LASF15
 998 00d5 05       		.byte	0x5
 999 00d6 0A       		.uleb128 0xa
 1000 00d7 5E000000 		.4byte	.LASF16
 1001 00db 06       		.byte	0x6
ARM GAS  G:\Users\Jaxb\AppData\Local\Temp\ccBU42mh.s 			page 24


 1002 00dc 0A       		.uleb128 0xa
 1003 00dd 75010000 		.4byte	.LASF17
 1004 00e1 07       		.byte	0x7
 1005 00e2 0A       		.uleb128 0xa
 1006 00e3 C1000000 		.4byte	.LASF18
 1007 00e7 08       		.byte	0x8
 1008 00e8 0A       		.uleb128 0xa
 1009 00e9 41030000 		.4byte	.LASF19
 1010 00ed 09       		.byte	0x9
 1011 00ee 0A       		.uleb128 0xa
 1012 00ef F3040000 		.4byte	.LASF20
 1013 00f3 0A       		.byte	0xa
 1014 00f4 00       		.byte	0
 1015 00f5 05       		.uleb128 0x5
 1016 00f6 42020000 		.4byte	.LASF21
 1017 00fa 05       		.byte	0x5
 1018 00fb 0F       		.byte	0xf
 1019 00fc A7000000 		.4byte	0xa7
 1020 0100 05       		.uleb128 0x5
 1021 0101 61030000 		.4byte	.LASF22
 1022 0105 06       		.byte	0x6
 1023 0106 06       		.byte	0x6
 1024 0107 5F000000 		.4byte	0x5f
 1025 010b 05       		.uleb128 0x5
 1026 010c 2B050000 		.4byte	.LASF23
 1027 0110 06       		.byte	0x6
 1028 0111 08       		.byte	0x8
 1029 0112 00010000 		.4byte	0x100
 1030 0116 05       		.uleb128 0x5
 1031 0117 A0000000 		.4byte	.LASF24
 1032 011b 07       		.byte	0x7
 1033 011c 0A       		.byte	0xa
 1034 011d 5F000000 		.4byte	0x5f
 1035 0121 05       		.uleb128 0x5
 1036 0122 15000000 		.4byte	.LASF25
 1037 0126 07       		.byte	0x7
 1038 0127 0C       		.byte	0xc
 1039 0128 5F000000 		.4byte	0x5f
 1040 012c 05       		.uleb128 0x5
 1041 012d 1B040000 		.4byte	.LASF26
 1042 0131 07       		.byte	0x7
 1043 0132 0D       		.byte	0xd
 1044 0133 37010000 		.4byte	0x137
 1045 0137 08       		.uleb128 0x8
 1046 0138 04       		.byte	0x4
 1047 0139 3D010000 		.4byte	0x13d
 1048 013d 0B       		.uleb128 0xb
 1049 013e 01       		.byte	0x1
 1050 013f 49010000 		.4byte	0x149
 1051 0143 0C       		.uleb128 0xc
 1052 0144 49010000 		.4byte	0x149
 1053 0148 00       		.byte	0
 1054 0149 0D       		.uleb128 0xd
 1055 014a 04       		.byte	0x4
 1056 014b 0E       		.uleb128 0xe
 1057 014c 34040000 		.4byte	.LASF60
 1058 0150 07       		.byte	0x7
ARM GAS  G:\Users\Jaxb\AppData\Local\Temp\ccBU42mh.s 			page 25


 1059 0151 13       		.byte	0x13
 1060 0152 3A000000 		.4byte	0x3a
 1061 0156 01       		.byte	0x1
 1062 0157 01       		.byte	0x1
 1063 0158 06       		.uleb128 0x6
 1064 0159 D4030000 		.4byte	.LASF28
 1065 015d 48       		.byte	0x48
 1066 015e 07       		.byte	0x7
 1067 015f 37       		.byte	0x37
 1068 0160 37020000 		.4byte	0x237
 1069 0164 07       		.uleb128 0x7
 1070 0165 E3020000 		.4byte	.LASF29
 1071 0169 07       		.byte	0x7
 1072 016a 38       		.byte	0x38
 1073 016b 37020000 		.4byte	0x237
 1074 016f 02       		.byte	0x2
 1075 0170 23       		.byte	0x23
 1076 0171 00       		.uleb128 0
 1077 0172 07       		.uleb128 0x7
 1078 0173 EE030000 		.4byte	.LASF30
 1079 0177 07       		.byte	0x7
 1080 0178 39       		.byte	0x39
 1081 0179 5F000000 		.4byte	0x5f
 1082 017d 02       		.byte	0x2
 1083 017e 23       		.byte	0x23
 1084 017f 04       		.uleb128 0x4
 1085 0180 07       		.uleb128 0x7
 1086 0181 45010000 		.4byte	.LASF31
 1087 0185 07       		.byte	0x7
 1088 0186 3A       		.byte	0x3a
 1089 0187 37020000 		.4byte	0x237
 1090 018b 02       		.byte	0x2
 1091 018c 23       		.byte	0x23
 1092 018d 08       		.uleb128 0x8
 1093 018e 07       		.uleb128 0x7
 1094 018f F7010000 		.4byte	.LASF32
 1095 0193 07       		.byte	0x7
 1096 0194 3B       		.byte	0x3b
 1097 0195 21010000 		.4byte	0x121
 1098 0199 02       		.byte	0x2
 1099 019a 23       		.byte	0x23
 1100 019b 0C       		.uleb128 0xc
 1101 019c 07       		.uleb128 0x7
 1102 019d 90030000 		.4byte	.LASF33
 1103 01a1 07       		.byte	0x7
 1104 01a2 3C       		.byte	0x3c
 1105 01a3 F5000000 		.4byte	0xf5
 1106 01a7 02       		.byte	0x2
 1107 01a8 23       		.byte	0x23
 1108 01a9 10       		.uleb128 0x10
 1109 01aa 07       		.uleb128 0x7
 1110 01ab 76050000 		.4byte	.LASF34
 1111 01af 07       		.byte	0x7
 1112 01b0 3D       		.byte	0x3d
 1113 01b1 21010000 		.4byte	0x121
 1114 01b5 02       		.byte	0x2
 1115 01b6 23       		.byte	0x23
ARM GAS  G:\Users\Jaxb\AppData\Local\Temp\ccBU42mh.s 			page 26


 1116 01b7 14       		.uleb128 0x14
 1117 01b8 07       		.uleb128 0x7
 1118 01b9 7C030000 		.4byte	.LASF35
 1119 01bd 07       		.byte	0x7
 1120 01be 3E       		.byte	0x3e
 1121 01bf 33000000 		.4byte	0x33
 1122 01c3 02       		.byte	0x2
 1123 01c4 23       		.byte	0x23
 1124 01c5 18       		.uleb128 0x18
 1125 01c6 07       		.uleb128 0x7
 1126 01c7 E9020000 		.4byte	.LASF36
 1127 01cb 07       		.byte	0x7
 1128 01cc 3F       		.byte	0x3f
 1129 01cd 78000000 		.4byte	0x78
 1130 01d1 02       		.byte	0x2
 1131 01d2 23       		.byte	0x23
 1132 01d3 1C       		.uleb128 0x1c
 1133 01d4 07       		.uleb128 0x7
 1134 01d5 27040000 		.4byte	.LASF37
 1135 01d9 07       		.byte	0x7
 1136 01da 40       		.byte	0x40
 1137 01db 78000000 		.4byte	0x78
 1138 01df 02       		.byte	0x2
 1139 01e0 23       		.byte	0x23
 1140 01e1 24       		.uleb128 0x24
 1141 01e2 07       		.uleb128 0x7
 1142 01e3 53020000 		.4byte	.LASF38
 1143 01e7 07       		.byte	0x7
 1144 01e8 41       		.byte	0x41
 1145 01e9 3D020000 		.4byte	0x23d
 1146 01ed 02       		.byte	0x2
 1147 01ee 23       		.byte	0x23
 1148 01ef 2C       		.uleb128 0x2c
 1149 01f0 07       		.uleb128 0x7
 1150 01f1 E3010000 		.4byte	.LASF39
 1151 01f5 07       		.byte	0x7
 1152 01f6 42       		.byte	0x42
 1153 01f7 5F000000 		.4byte	0x5f
 1154 01fb 02       		.byte	0x2
 1155 01fc 23       		.byte	0x23
 1156 01fd 30       		.uleb128 0x30
 1157 01fe 07       		.uleb128 0x7
 1158 01ff 9B030000 		.4byte	.LASF40
 1159 0203 07       		.byte	0x7
 1160 0204 43       		.byte	0x43
 1161 0205 5F000000 		.4byte	0x5f
 1162 0209 02       		.byte	0x2
 1163 020a 23       		.byte	0x23
 1164 020b 34       		.uleb128 0x34
 1165 020c 07       		.uleb128 0x7
 1166 020d 9B020000 		.4byte	.LASF41
 1167 0211 07       		.byte	0x7
 1168 0212 44       		.byte	0x44
 1169 0213 54000000 		.4byte	0x54
 1170 0217 02       		.byte	0x2
 1171 0218 23       		.byte	0x23
 1172 0219 38       		.uleb128 0x38
ARM GAS  G:\Users\Jaxb\AppData\Local\Temp\ccBU42mh.s 			page 27


 1173 021a 07       		.uleb128 0x7
 1174 021b 6E020000 		.4byte	.LASF42
 1175 021f 07       		.byte	0x7
 1176 0220 45       		.byte	0x45
 1177 0221 20030000 		.4byte	0x320
 1178 0225 02       		.byte	0x2
 1179 0226 23       		.byte	0x23
 1180 0227 3C       		.uleb128 0x3c
 1181 0228 07       		.uleb128 0x7
 1182 0229 51050000 		.4byte	.LASF43
 1183 022d 07       		.byte	0x7
 1184 022e 46       		.byte	0x46
 1185 022f 66000000 		.4byte	0x66
 1186 0233 02       		.byte	0x2
 1187 0234 23       		.byte	0x23
 1188 0235 40       		.uleb128 0x40
 1189 0236 00       		.byte	0
 1190 0237 08       		.uleb128 0x8
 1191 0238 04       		.byte	0x4
 1192 0239 16010000 		.4byte	0x116
 1193 023d 08       		.uleb128 0x8
 1194 023e 04       		.byte	0x4
 1195 023f 43020000 		.4byte	0x243
 1196 0243 02       		.uleb128 0x2
 1197 0244 01       		.byte	0x1
 1198 0245 08       		.byte	0x8
 1199 0246 26030000 		.4byte	.LASF44
 1200 024a 0F       		.uleb128 0xf
 1201 024b 43020000 		.4byte	0x243
 1202 024f 06       		.uleb128 0x6
 1203 0250 F8020000 		.4byte	.LASF45
 1204 0254 58       		.byte	0x58
 1205 0255 02       		.byte	0x2
 1206 0256 22       		.byte	0x22
 1207 0257 20030000 		.4byte	0x320
 1208 025b 07       		.uleb128 0x7
 1209 025c 53020000 		.4byte	.LASF38
 1210 0260 02       		.byte	0x2
 1211 0261 24       		.byte	0x24
 1212 0262 6A030000 		.4byte	0x36a
 1213 0266 02       		.byte	0x2
 1214 0267 23       		.byte	0x23
 1215 0268 00       		.uleb128 0
 1216 0269 07       		.uleb128 0x7
 1217 026a 1B010000 		.4byte	.LASF46
 1218 026e 02       		.byte	0x2
 1219 026f 25       		.byte	0x25
 1220 0270 78000000 		.4byte	0x78
 1221 0274 02       		.byte	0x2
 1222 0275 23       		.byte	0x23
 1223 0276 20       		.uleb128 0x20
 1224 0277 07       		.uleb128 0x7
 1225 0278 62050000 		.4byte	.LASF47
 1226 027c 02       		.byte	0x2
 1227 027d 26       		.byte	0x26
 1228 027e 54000000 		.4byte	0x54
 1229 0282 02       		.byte	0x2
ARM GAS  G:\Users\Jaxb\AppData\Local\Temp\ccBU42mh.s 			page 28


 1230 0283 23       		.byte	0x23
 1231 0284 28       		.uleb128 0x28
 1232 0285 07       		.uleb128 0x7
 1233 0286 2B030000 		.4byte	.LASF48
 1234 028a 02       		.byte	0x2
 1235 028b 27       		.byte	0x27
 1236 028c 80030000 		.4byte	0x380
 1237 0290 02       		.byte	0x2
 1238 0291 23       		.byte	0x23
 1239 0292 2C       		.uleb128 0x2c
 1240 0293 07       		.uleb128 0x7
 1241 0294 58020000 		.4byte	.LASF49
 1242 0298 02       		.byte	0x2
 1243 0299 28       		.byte	0x28
 1244 029a 88030000 		.4byte	0x388
 1245 029e 02       		.byte	0x2
 1246 029f 23       		.byte	0x23
 1247 02a0 30       		.uleb128 0x30
 1248 02a1 07       		.uleb128 0x7
 1249 02a2 16020000 		.4byte	.LASF50
 1250 02a6 02       		.byte	0x2
 1251 02a7 29       		.byte	0x29
 1252 02a8 49010000 		.4byte	0x149
 1253 02ac 02       		.byte	0x2
 1254 02ad 23       		.byte	0x23
 1255 02ae 34       		.uleb128 0x34
 1256 02af 07       		.uleb128 0x7
 1257 02b0 F9030000 		.4byte	.LASF51
 1258 02b4 02       		.byte	0x2
 1259 02b5 2A       		.byte	0x2a
 1260 02b6 5F000000 		.4byte	0x5f
 1261 02ba 02       		.byte	0x2
 1262 02bb 23       		.byte	0x23
 1263 02bc 38       		.uleb128 0x38
 1264 02bd 07       		.uleb128 0x7
 1265 02be AB000000 		.4byte	.LASF52
 1266 02c2 02       		.byte	0x2
 1267 02c3 2B       		.byte	0x2b
 1268 02c4 49010000 		.4byte	0x149
 1269 02c8 02       		.byte	0x2
 1270 02c9 23       		.byte	0x23
 1271 02ca 3C       		.uleb128 0x3c
 1272 02cb 07       		.uleb128 0x7
 1273 02cc 68020000 		.4byte	.LASF53
 1274 02d0 02       		.byte	0x2
 1275 02d1 2C       		.byte	0x2c
 1276 02d2 49010000 		.4byte	0x149
 1277 02d6 02       		.byte	0x2
 1278 02d7 23       		.byte	0x23
 1279 02d8 40       		.uleb128 0x40
 1280 02d9 07       		.uleb128 0x7
 1281 02da B3020000 		.4byte	.LASF54
 1282 02de 02       		.byte	0x2
 1283 02df 2D       		.byte	0x2d
 1284 02e0 54000000 		.4byte	0x54
 1285 02e4 02       		.byte	0x2
 1286 02e5 23       		.byte	0x23
ARM GAS  G:\Users\Jaxb\AppData\Local\Temp\ccBU42mh.s 			page 29


 1287 02e6 44       		.uleb128 0x44
 1288 02e7 07       		.uleb128 0x7
 1289 02e8 8C050000 		.4byte	.LASF55
 1290 02ec 02       		.byte	0x2
 1291 02ed 2E       		.byte	0x2e
 1292 02ee 8E030000 		.4byte	0x38e
 1293 02f2 02       		.byte	0x2
 1294 02f3 23       		.byte	0x23
 1295 02f4 48       		.uleb128 0x48
 1296 02f5 07       		.uleb128 0x7
 1297 02f6 23020000 		.4byte	.LASF56
 1298 02fa 02       		.byte	0x2
 1299 02fb 2F       		.byte	0x2f
 1300 02fc 5F000000 		.4byte	0x5f
 1301 0300 02       		.byte	0x2
 1302 0301 23       		.byte	0x23
 1303 0302 4C       		.uleb128 0x4c
 1304 0303 10       		.uleb128 0x10
 1305 0304 72656600 		.ascii	"ref\000"
 1306 0308 02       		.byte	0x2
 1307 0309 30       		.byte	0x30
 1308 030a 5F000000 		.4byte	0x5f
 1309 030e 02       		.byte	0x2
 1310 030f 23       		.byte	0x23
 1311 0310 50       		.uleb128 0x50
 1312 0311 07       		.uleb128 0x7
 1313 0312 66010000 		.4byte	.LASF57
 1314 0316 02       		.byte	0x2
 1315 0317 31       		.byte	0x31
 1316 0318 94030000 		.4byte	0x394
 1317 031c 02       		.byte	0x2
 1318 031d 23       		.byte	0x23
 1319 031e 54       		.uleb128 0x54
 1320 031f 00       		.byte	0
 1321 0320 08       		.uleb128 0x8
 1322 0321 04       		.byte	0x4
 1323 0322 4F020000 		.4byte	0x24f
 1324 0326 11       		.uleb128 0x11
 1325 0327 54434200 		.ascii	"TCB\000"
 1326 032b 07       		.byte	0x7
 1327 032c 47       		.byte	0x47
 1328 032d 58010000 		.4byte	0x158
 1329 0331 04       		.uleb128 0x4
 1330 0332 26030000 		.4byte	0x326
 1331 0336 06       		.uleb128 0x6
 1332 0337 27010000 		.4byte	.LASF58
 1333 033b 08       		.byte	0x8
 1334 033c 08       		.byte	0x8
 1335 033d 08       		.byte	0x8
 1336 033e 5F030000 		.4byte	0x35f
 1337 0342 07       		.uleb128 0x7
 1338 0343 24000000 		.4byte	.LASF59
 1339 0347 08       		.byte	0x8
 1340 0348 0A       		.byte	0xa
 1341 0349 49010000 		.4byte	0x149
 1342 034d 02       		.byte	0x2
 1343 034e 23       		.byte	0x23
ARM GAS  G:\Users\Jaxb\AppData\Local\Temp\ccBU42mh.s 			page 30


 1344 034f 00       		.uleb128 0
 1345 0350 07       		.uleb128 0x7
 1346 0351 53020000 		.4byte	.LASF38
 1347 0355 08       		.byte	0x8
 1348 0356 0B       		.byte	0xb
 1349 0357 64030000 		.4byte	0x364
 1350 035b 02       		.byte	0x2
 1351 035c 23       		.byte	0x23
 1352 035d 04       		.uleb128 0x4
 1353 035e 00       		.byte	0
 1354 035f 0F       		.uleb128 0xf
 1355 0360 36030000 		.4byte	0x336
 1356 0364 08       		.uleb128 0x8
 1357 0365 04       		.byte	0x4
 1358 0366 4A020000 		.4byte	0x24a
 1359 036a 12       		.uleb128 0x12
 1360 036b 43020000 		.4byte	0x243
 1361 036f 7A030000 		.4byte	0x37a
 1362 0373 13       		.uleb128 0x13
 1363 0374 5F000000 		.4byte	0x5f
 1364 0378 1F       		.byte	0x1f
 1365 0379 00       		.byte	0
 1366 037a 14       		.uleb128 0x14
 1367 037b 01       		.byte	0x1
 1368 037c 33000000 		.4byte	0x33
 1369 0380 08       		.uleb128 0x8
 1370 0381 04       		.byte	0x4
 1371 0382 7A030000 		.4byte	0x37a
 1372 0386 15       		.uleb128 0x15
 1373 0387 01       		.byte	0x1
 1374 0388 08       		.uleb128 0x8
 1375 0389 04       		.byte	0x4
 1376 038a 86030000 		.4byte	0x386
 1377 038e 08       		.uleb128 0x8
 1378 038f 04       		.byte	0x4
 1379 0390 36030000 		.4byte	0x336
 1380 0394 08       		.uleb128 0x8
 1381 0395 04       		.byte	0x4
 1382 0396 26030000 		.4byte	0x326
 1383 039a 16       		.uleb128 0x16
 1384 039b 7B050000 		.4byte	.LASF61
 1385 039f 03       		.byte	0x3
 1386 03a0 0F       		.byte	0xf
 1387 03a1 AC030000 		.4byte	0x3ac
 1388 03a5 01       		.byte	0x1
 1389 03a6 05       		.byte	0x5
 1390 03a7 03       		.byte	0x3
 1391 03a8 00000000 		.4byte	OSTCBCurPtr
 1392 03ac 08       		.uleb128 0x8
 1393 03ad 04       		.byte	0x4
 1394 03ae 31030000 		.4byte	0x331
 1395 03b2 16       		.uleb128 0x16
 1396 03b3 6C030000 		.4byte	.LASF62
 1397 03b7 03       		.byte	0x3
 1398 03b8 10       		.byte	0x10
 1399 03b9 AC030000 		.4byte	0x3ac
 1400 03bd 01       		.byte	0x1
ARM GAS  G:\Users\Jaxb\AppData\Local\Temp\ccBU42mh.s 			page 31


 1401 03be 05       		.byte	0x5
 1402 03bf 03       		.byte	0x3
 1403 03c0 00000000 		.4byte	OSTCBHighRdyPtr
 1404 03c4 17       		.uleb128 0x17
 1405 03c5 4B010000 		.4byte	0x14b
 1406 03c9 03       		.byte	0x3
 1407 03ca 11       		.byte	0x11
 1408 03cb 05       		.byte	0x5
 1409 03cc 03       		.byte	0x3
 1410 03cd 00000000 		.4byte	g_interrupt_count
 1411 03d1 12       		.uleb128 0x12
 1412 03d2 4A020000 		.4byte	0x24a
 1413 03d6 E1030000 		.4byte	0x3e1
 1414 03da 13       		.uleb128 0x13
 1415 03db 5F000000 		.4byte	0x5f
 1416 03df 10       		.byte	0x10
 1417 03e0 00       		.byte	0
 1418 03e1 0F       		.uleb128 0xf
 1419 03e2 D1030000 		.4byte	0x3d1
 1420 03e6 16       		.uleb128 0x16
 1421 03e7 32050000 		.4byte	.LASF63
 1422 03eb 03       		.byte	0x3
 1423 03ec 9B       		.byte	0x9b
 1424 03ed E1030000 		.4byte	0x3e1
 1425 03f1 01       		.byte	0x1
 1426 03f2 05       		.byte	0x5
 1427 03f3 03       		.byte	0x3
 1428 03f4 00000000 		.4byte	__rtmsym_task_change_prio_name
 1429 03f8 16       		.uleb128 0x16
 1430 03f9 0C050000 		.4byte	.LASF64
 1431 03fd 03       		.byte	0x3
 1432 03fe 9B       		.byte	0x9b
 1433 03ff 5F030000 		.4byte	0x35f
 1434 0403 01       		.byte	0x1
 1435 0404 05       		.byte	0x5
 1436 0405 03       		.byte	0x3
 1437 0406 00000000 		.4byte	__rtmsym_task_change_prio
 1438 040a 12       		.uleb128 0x12
 1439 040b 4A020000 		.4byte	0x24a
 1440 040f 1A040000 		.4byte	0x41a
 1441 0413 13       		.uleb128 0x13
 1442 0414 5F000000 		.4byte	0x5f
 1443 0418 0B       		.byte	0xb
 1444 0419 00       		.byte	0
 1445 041a 0F       		.uleb128 0xf
 1446 041b 0A040000 		.4byte	0x40a
 1447 041f 16       		.uleb128 0x16
 1448 0420 7F000000 		.4byte	.LASF65
 1449 0424 03       		.byte	0x3
 1450 0425 CC       		.byte	0xcc
 1451 0426 1A040000 		.4byte	0x41a
 1452 042a 01       		.byte	0x1
 1453 042b 05       		.byte	0x5
 1454 042c 03       		.byte	0x3
 1455 042d 00000000 		.4byte	__rtmsym_task_delete_name
 1456 0431 16       		.uleb128 0x16
 1457 0432 00000000 		.4byte	.LASF66
ARM GAS  G:\Users\Jaxb\AppData\Local\Temp\ccBU42mh.s 			page 32


 1458 0436 03       		.byte	0x3
 1459 0437 CC       		.byte	0xcc
 1460 0438 5F030000 		.4byte	0x35f
 1461 043c 01       		.byte	0x1
 1462 043d 05       		.byte	0x5
 1463 043e 03       		.byte	0x3
 1464 043f 00000000 		.4byte	__rtmsym_task_delete
 1465 0443 18       		.uleb128 0x18
 1466 0444 01       		.byte	0x1
 1467 0445 48000000 		.4byte	.LASF67
 1468 0449 03       		.byte	0x3
 1469 044a C3       		.byte	0xc3
 1470 044b 01       		.byte	0x1
 1471 044c 33000000 		.4byte	0x33
 1472 0450 60030000 		.4byte	.LFB20
 1473 0454 90030000 		.4byte	.LFE20
 1474 0458 00000000 		.4byte	.LLST8
 1475 045c 01       		.byte	0x1
 1476 045d 70040000 		.4byte	0x470
 1477 0461 19       		.uleb128 0x19
 1478 0462 05040000 		.4byte	.LASF69
 1479 0466 03       		.byte	0x3
 1480 0467 C3       		.byte	0xc3
 1481 0468 94030000 		.4byte	0x394
 1482 046c 02       		.byte	0x2
 1483 046d 91       		.byte	0x91
 1484 046e 74       		.sleb128 -12
 1485 046f 00       		.byte	0
 1486 0470 18       		.uleb128 0x18
 1487 0471 01       		.byte	0x1
 1488 0472 38010000 		.4byte	.LASF68
 1489 0476 03       		.byte	0x3
 1490 0477 9D       		.byte	0x9d
 1491 0478 01       		.byte	0x1
 1492 0479 33000000 		.4byte	0x33
 1493 047d B4020000 		.4byte	.LFB19
 1494 0481 60030000 		.4byte	.LFE19
 1495 0485 50000000 		.4byte	.LLST7
 1496 0489 01       		.byte	0x1
 1497 048a AB040000 		.4byte	0x4ab
 1498 048e 19       		.uleb128 0x19
 1499 048f 05040000 		.4byte	.LASF69
 1500 0493 03       		.byte	0x3
 1501 0494 9D       		.byte	0x9d
 1502 0495 94030000 		.4byte	0x394
 1503 0499 02       		.byte	0x2
 1504 049a 91       		.byte	0x91
 1505 049b 6C       		.sleb128 -20
 1506 049c 1A       		.uleb128 0x1a
 1507 049d 46040000 		.4byte	.LASF72
 1508 04a1 03       		.byte	0x3
 1509 04a2 A0       		.byte	0xa0
 1510 04a3 0B010000 		.4byte	0x10b
 1511 04a7 02       		.byte	0x2
 1512 04a8 91       		.byte	0x91
 1513 04a9 74       		.sleb128 -12
 1514 04aa 00       		.byte	0
ARM GAS  G:\Users\Jaxb\AppData\Local\Temp\ccBU42mh.s 			page 33


 1515 04ab 18       		.uleb128 0x18
 1516 04ac 01       		.byte	0x1
 1517 04ad 30030000 		.4byte	.LASF70
 1518 04b1 03       		.byte	0x3
 1519 04b2 8D       		.byte	0x8d
 1520 04b3 01       		.byte	0x1
 1521 04b4 33000000 		.4byte	0x33
 1522 04b8 6C020000 		.4byte	.LFB18
 1523 04bc B4020000 		.4byte	.LFE18
 1524 04c0 A0000000 		.4byte	.LLST6
 1525 04c4 01       		.byte	0x1
 1526 04c5 E6040000 		.4byte	0x4e6
 1527 04c9 19       		.uleb128 0x19
 1528 04ca 05040000 		.4byte	.LASF69
 1529 04ce 03       		.byte	0x3
 1530 04cf 8D       		.byte	0x8d
 1531 04d0 94030000 		.4byte	0x394
 1532 04d4 02       		.byte	0x2
 1533 04d5 91       		.byte	0x91
 1534 04d6 74       		.sleb128 -12
 1535 04d7 19       		.uleb128 0x19
 1536 04d8 76050000 		.4byte	.LASF34
 1537 04dc 03       		.byte	0x3
 1538 04dd 8D       		.byte	0x8d
 1539 04de 21010000 		.4byte	0x121
 1540 04e2 02       		.byte	0x2
 1541 04e3 91       		.byte	0x91
 1542 04e4 70       		.sleb128 -16
 1543 04e5 00       		.byte	0
 1544 04e6 18       		.uleb128 0x18
 1545 04e7 01       		.byte	0x1
 1546 04e8 04020000 		.4byte	.LASF71
 1547 04ec 03       		.byte	0x3
 1548 04ed 61       		.byte	0x61
 1549 04ee 01       		.byte	0x1
 1550 04ef 33000000 		.4byte	0x33
 1551 04f3 EC010000 		.4byte	.LFB17
 1552 04f7 6C020000 		.4byte	.LFE17
 1553 04fb F0000000 		.4byte	.LLST5
 1554 04ff 01       		.byte	0x1
 1555 0500 2F050000 		.4byte	0x52f
 1556 0504 19       		.uleb128 0x19
 1557 0505 05040000 		.4byte	.LASF69
 1558 0509 03       		.byte	0x3
 1559 050a 61       		.byte	0x61
 1560 050b 94030000 		.4byte	0x394
 1561 050f 02       		.byte	0x2
 1562 0510 91       		.byte	0x91
 1563 0511 6C       		.sleb128 -20
 1564 0512 19       		.uleb128 0x19
 1565 0513 76050000 		.4byte	.LASF34
 1566 0517 03       		.byte	0x3
 1567 0518 61       		.byte	0x61
 1568 0519 21010000 		.4byte	0x121
 1569 051d 02       		.byte	0x2
 1570 051e 91       		.byte	0x91
 1571 051f 68       		.sleb128 -24
ARM GAS  G:\Users\Jaxb\AppData\Local\Temp\ccBU42mh.s 			page 34


 1572 0520 1A       		.uleb128 0x1a
 1573 0521 46040000 		.4byte	.LASF72
 1574 0525 03       		.byte	0x3
 1575 0526 65       		.byte	0x65
 1576 0527 0B010000 		.4byte	0x10b
 1577 052b 02       		.byte	0x2
 1578 052c 91       		.byte	0x91
 1579 052d 74       		.sleb128 -12
 1580 052e 00       		.byte	0
 1581 052f 18       		.uleb128 0x18
 1582 0530 01       		.byte	0x1
 1583 0531 36020000 		.4byte	.LASF73
 1584 0535 03       		.byte	0x3
 1585 0536 3F       		.byte	0x3f
 1586 0537 01       		.byte	0x1
 1587 0538 94030000 		.4byte	0x394
 1588 053c 68010000 		.4byte	.LFB16
 1589 0540 EC010000 		.4byte	.LFE16
 1590 0544 40010000 		.4byte	.LLST4
 1591 0548 01       		.byte	0x1
 1592 0549 BE050000 		.4byte	0x5be
 1593 054d 19       		.uleb128 0x19
 1594 054e EE030000 		.4byte	.LASF30
 1595 0552 03       		.byte	0x3
 1596 0553 40       		.byte	0x40
 1597 0554 5F000000 		.4byte	0x5f
 1598 0558 02       		.byte	0x2
 1599 0559 91       		.byte	0x91
 1600 055a 6C       		.sleb128 -20
 1601 055b 19       		.uleb128 0x19
 1602 055c 76050000 		.4byte	.LASF34
 1603 0560 03       		.byte	0x3
 1604 0561 41       		.byte	0x41
 1605 0562 21010000 		.4byte	0x121
 1606 0566 02       		.byte	0x2
 1607 0567 91       		.byte	0x91
 1608 0568 68       		.sleb128 -24
 1609 0569 19       		.uleb128 0x19
 1610 056a E3010000 		.4byte	.LASF39
 1611 056e 03       		.byte	0x3
 1612 056f 42       		.byte	0x42
 1613 0570 5F000000 		.4byte	0x5f
 1614 0574 02       		.byte	0x2
 1615 0575 91       		.byte	0x91
 1616 0576 64       		.sleb128 -28
 1617 0577 19       		.uleb128 0x19
 1618 0578 53020000 		.4byte	.LASF38
 1619 057c 03       		.byte	0x3
 1620 057d 43       		.byte	0x43
 1621 057e 64030000 		.4byte	0x364
 1622 0582 02       		.byte	0x2
 1623 0583 91       		.byte	0x91
 1624 0584 60       		.sleb128 -32
 1625 0585 19       		.uleb128 0x19
 1626 0586 AF030000 		.4byte	.LASF74
 1627 058a 03       		.byte	0x3
 1628 058b 44       		.byte	0x44
ARM GAS  G:\Users\Jaxb\AppData\Local\Temp\ccBU42mh.s 			page 35


 1629 058c 2C010000 		.4byte	0x12c
 1630 0590 02       		.byte	0x2
 1631 0591 91       		.byte	0x91
 1632 0592 00       		.sleb128 0
 1633 0593 19       		.uleb128 0x19
 1634 0594 B8030000 		.4byte	.LASF75
 1635 0598 03       		.byte	0x3
 1636 0599 45       		.byte	0x45
 1637 059a 49010000 		.4byte	0x149
 1638 059e 02       		.byte	0x2
 1639 059f 91       		.byte	0x91
 1640 05a0 04       		.sleb128 4
 1641 05a1 19       		.uleb128 0x19
 1642 05a2 4D020000 		.4byte	.LASF76
 1643 05a6 03       		.byte	0x3
 1644 05a7 46       		.byte	0x46
 1645 05a8 F5000000 		.4byte	0xf5
 1646 05ac 02       		.byte	0x2
 1647 05ad 91       		.byte	0x91
 1648 05ae 08       		.sleb128 8
 1649 05af 1A       		.uleb128 0x1a
 1650 05b0 05040000 		.4byte	.LASF69
 1651 05b4 03       		.byte	0x3
 1652 05b5 4A       		.byte	0x4a
 1653 05b6 94030000 		.4byte	0x394
 1654 05ba 02       		.byte	0x2
 1655 05bb 91       		.byte	0x91
 1656 05bc 74       		.sleb128 -12
 1657 05bd 00       		.byte	0
 1658 05be 18       		.uleb128 0x18
 1659 05bf 01       		.byte	0x1
 1660 05c0 5D020000 		.4byte	.LASF77
 1661 05c4 03       		.byte	0x3
 1662 05c5 18       		.byte	0x18
 1663 05c6 01       		.byte	0x1
 1664 05c7 33000000 		.4byte	0x33
 1665 05cb 50000000 		.4byte	.LFB15
 1666 05cf 68010000 		.4byte	.LFE15
 1667 05d3 90010000 		.4byte	.LLST3
 1668 05d7 01       		.byte	0x1
 1669 05d8 4D060000 		.4byte	0x64d
 1670 05dc 19       		.uleb128 0x19
 1671 05dd 05040000 		.4byte	.LASF69
 1672 05e1 03       		.byte	0x3
 1673 05e2 19       		.byte	0x19
 1674 05e3 94030000 		.4byte	0x394
 1675 05e7 02       		.byte	0x2
 1676 05e8 91       		.byte	0x91
 1677 05e9 6C       		.sleb128 -20
 1678 05ea 19       		.uleb128 0x19
 1679 05eb EE030000 		.4byte	.LASF30
 1680 05ef 03       		.byte	0x3
 1681 05f0 1A       		.byte	0x1a
 1682 05f1 5F000000 		.4byte	0x5f
 1683 05f5 02       		.byte	0x2
 1684 05f6 91       		.byte	0x91
 1685 05f7 68       		.sleb128 -24
ARM GAS  G:\Users\Jaxb\AppData\Local\Temp\ccBU42mh.s 			page 36


 1686 05f8 19       		.uleb128 0x19
 1687 05f9 76050000 		.4byte	.LASF34
 1688 05fd 03       		.byte	0x3
 1689 05fe 1B       		.byte	0x1b
 1690 05ff 21010000 		.4byte	0x121
 1691 0603 02       		.byte	0x2
 1692 0604 91       		.byte	0x91
 1693 0605 64       		.sleb128 -28
 1694 0606 19       		.uleb128 0x19
 1695 0607 E3010000 		.4byte	.LASF39
 1696 060b 03       		.byte	0x3
 1697 060c 1C       		.byte	0x1c
 1698 060d 5F000000 		.4byte	0x5f
 1699 0611 02       		.byte	0x2
 1700 0612 91       		.byte	0x91
 1701 0613 60       		.sleb128 -32
 1702 0614 19       		.uleb128 0x19
 1703 0615 53020000 		.4byte	.LASF38
 1704 0619 03       		.byte	0x3
 1705 061a 1D       		.byte	0x1d
 1706 061b 64030000 		.4byte	0x364
 1707 061f 02       		.byte	0x2
 1708 0620 91       		.byte	0x91
 1709 0621 00       		.sleb128 0
 1710 0622 19       		.uleb128 0x19
 1711 0623 AF030000 		.4byte	.LASF74
 1712 0627 03       		.byte	0x3
 1713 0628 1E       		.byte	0x1e
 1714 0629 2C010000 		.4byte	0x12c
 1715 062d 02       		.byte	0x2
 1716 062e 91       		.byte	0x91
 1717 062f 04       		.sleb128 4
 1718 0630 19       		.uleb128 0x19
 1719 0631 B8030000 		.4byte	.LASF75
 1720 0635 03       		.byte	0x3
 1721 0636 1F       		.byte	0x1f
 1722 0637 49010000 		.4byte	0x149
 1723 063b 02       		.byte	0x2
 1724 063c 91       		.byte	0x91
 1725 063d 08       		.sleb128 8
 1726 063e 19       		.uleb128 0x19
 1727 063f 4D020000 		.4byte	.LASF76
 1728 0643 03       		.byte	0x3
 1729 0644 20       		.byte	0x20
 1730 0645 F5000000 		.4byte	0xf5
 1731 0649 02       		.byte	0x2
 1732 064a 91       		.byte	0x91
 1733 064b 0C       		.sleb128 12
 1734 064c 00       		.byte	0
 1735 064d 1B       		.uleb128 0x1b
 1736 064e 0D040000 		.4byte	.LASF83
 1737 0652 03       		.byte	0x3
 1738 0653 13       		.byte	0x13
 1739 0654 01       		.byte	0x1
 1740 0655 38000000 		.4byte	.LFB14
 1741 0659 50000000 		.4byte	.LFE14
 1742 065d E0010000 		.4byte	.LLST2
ARM GAS  G:\Users\Jaxb\AppData\Local\Temp\ccBU42mh.s 			page 37


 1743 0661 01       		.byte	0x1
 1744 0662 1C       		.uleb128 0x1c
 1745 0663 D2010000 		.4byte	.LASF84
 1746 0667 02       		.byte	0x2
 1747 0668 36       		.byte	0x36
 1748 0669 01       		.byte	0x1
 1749 066a 1E000000 		.4byte	.LFB13
 1750 066e 38000000 		.4byte	.LFE13
 1751 0672 0C020000 		.4byte	.LLST1
 1752 0676 01       		.byte	0x1
 1753 0677 98060000 		.4byte	0x698
 1754 067b 19       		.uleb128 0x19
 1755 067c 6E020000 		.4byte	.LASF42
 1756 0680 02       		.byte	0x2
 1757 0681 36       		.byte	0x36
 1758 0682 20030000 		.4byte	0x320
 1759 0686 02       		.byte	0x2
 1760 0687 91       		.byte	0x91
 1761 0688 74       		.sleb128 -12
 1762 0689 19       		.uleb128 0x19
 1763 068a 4D020000 		.4byte	.LASF76
 1764 068e 02       		.byte	0x2
 1765 068f 36       		.byte	0x36
 1766 0690 54000000 		.4byte	0x54
 1767 0694 02       		.byte	0x2
 1768 0695 91       		.byte	0x91
 1769 0696 70       		.sleb128 -16
 1770 0697 00       		.byte	0
 1771 0698 1D       		.uleb128 0x1d
 1772 0699 07010000 		.4byte	.LASF85
 1773 069d 01       		.byte	0x1
 1774 069e 10       		.byte	0x10
 1775 069f 01       		.byte	0x1
 1776 06a0 00000000 		.4byte	.LFB0
 1777 06a4 1E000000 		.4byte	.LFE0
 1778 06a8 68020000 		.4byte	.LLST0
 1779 06ac 01       		.byte	0x1
 1780 06ad 19       		.uleb128 0x19
 1781 06ae 16010000 		.4byte	.LASF78
 1782 06b2 01       		.byte	0x1
 1783 06b3 10       		.byte	0x10
 1784 06b4 A1000000 		.4byte	0xa1
 1785 06b8 02       		.byte	0x2
 1786 06b9 91       		.byte	0x91
 1787 06ba 74       		.sleb128 -12
 1788 06bb 00       		.byte	0
 1789 06bc 00       		.byte	0
 1790              		.section	.debug_abbrev,"",%progbits
 1791              	.Ldebug_abbrev0:
 1792 0000 01       		.uleb128 0x1
 1793 0001 11       		.uleb128 0x11
 1794 0002 01       		.byte	0x1
 1795 0003 25       		.uleb128 0x25
 1796 0004 0E       		.uleb128 0xe
 1797 0005 13       		.uleb128 0x13
 1798 0006 0B       		.uleb128 0xb
 1799 0007 03       		.uleb128 0x3
ARM GAS  G:\Users\Jaxb\AppData\Local\Temp\ccBU42mh.s 			page 38


 1800 0008 0E       		.uleb128 0xe
 1801 0009 1B       		.uleb128 0x1b
 1802 000a 0E       		.uleb128 0xe
 1803 000b 11       		.uleb128 0x11
 1804 000c 01       		.uleb128 0x1
 1805 000d 12       		.uleb128 0x12
 1806 000e 01       		.uleb128 0x1
 1807 000f 10       		.uleb128 0x10
 1808 0010 06       		.uleb128 0x6
 1809 0011 00       		.byte	0
 1810 0012 00       		.byte	0
 1811 0013 02       		.uleb128 0x2
 1812 0014 24       		.uleb128 0x24
 1813 0015 00       		.byte	0
 1814 0016 0B       		.uleb128 0xb
 1815 0017 0B       		.uleb128 0xb
 1816 0018 3E       		.uleb128 0x3e
 1817 0019 0B       		.uleb128 0xb
 1818 001a 03       		.uleb128 0x3
 1819 001b 0E       		.uleb128 0xe
 1820 001c 00       		.byte	0
 1821 001d 00       		.byte	0
 1822 001e 03       		.uleb128 0x3
 1823 001f 24       		.uleb128 0x24
 1824 0020 00       		.byte	0
 1825 0021 0B       		.uleb128 0xb
 1826 0022 0B       		.uleb128 0xb
 1827 0023 3E       		.uleb128 0x3e
 1828 0024 0B       		.uleb128 0xb
 1829 0025 03       		.uleb128 0x3
 1830 0026 08       		.uleb128 0x8
 1831 0027 00       		.byte	0
 1832 0028 00       		.byte	0
 1833 0029 04       		.uleb128 0x4
 1834 002a 35       		.uleb128 0x35
 1835 002b 00       		.byte	0
 1836 002c 49       		.uleb128 0x49
 1837 002d 13       		.uleb128 0x13
 1838 002e 00       		.byte	0
 1839 002f 00       		.byte	0
 1840 0030 05       		.uleb128 0x5
 1841 0031 16       		.uleb128 0x16
 1842 0032 00       		.byte	0
 1843 0033 03       		.uleb128 0x3
 1844 0034 0E       		.uleb128 0xe
 1845 0035 3A       		.uleb128 0x3a
 1846 0036 0B       		.uleb128 0xb
 1847 0037 3B       		.uleb128 0x3b
 1848 0038 0B       		.uleb128 0xb
 1849 0039 49       		.uleb128 0x49
 1850 003a 13       		.uleb128 0x13
 1851 003b 00       		.byte	0
 1852 003c 00       		.byte	0
 1853 003d 06       		.uleb128 0x6
 1854 003e 13       		.uleb128 0x13
 1855 003f 01       		.byte	0x1
 1856 0040 03       		.uleb128 0x3
ARM GAS  G:\Users\Jaxb\AppData\Local\Temp\ccBU42mh.s 			page 39


 1857 0041 0E       		.uleb128 0xe
 1858 0042 0B       		.uleb128 0xb
 1859 0043 0B       		.uleb128 0xb
 1860 0044 3A       		.uleb128 0x3a
 1861 0045 0B       		.uleb128 0xb
 1862 0046 3B       		.uleb128 0x3b
 1863 0047 0B       		.uleb128 0xb
 1864 0048 01       		.uleb128 0x1
 1865 0049 13       		.uleb128 0x13
 1866 004a 00       		.byte	0
 1867 004b 00       		.byte	0
 1868 004c 07       		.uleb128 0x7
 1869 004d 0D       		.uleb128 0xd
 1870 004e 00       		.byte	0
 1871 004f 03       		.uleb128 0x3
 1872 0050 0E       		.uleb128 0xe
 1873 0051 3A       		.uleb128 0x3a
 1874 0052 0B       		.uleb128 0xb
 1875 0053 3B       		.uleb128 0x3b
 1876 0054 0B       		.uleb128 0xb
 1877 0055 49       		.uleb128 0x49
 1878 0056 13       		.uleb128 0x13
 1879 0057 38       		.uleb128 0x38
 1880 0058 0A       		.uleb128 0xa
 1881 0059 00       		.byte	0
 1882 005a 00       		.byte	0
 1883 005b 08       		.uleb128 0x8
 1884 005c 0F       		.uleb128 0xf
 1885 005d 00       		.byte	0
 1886 005e 0B       		.uleb128 0xb
 1887 005f 0B       		.uleb128 0xb
 1888 0060 49       		.uleb128 0x49
 1889 0061 13       		.uleb128 0x13
 1890 0062 00       		.byte	0
 1891 0063 00       		.byte	0
 1892 0064 09       		.uleb128 0x9
 1893 0065 04       		.uleb128 0x4
 1894 0066 01       		.byte	0x1
 1895 0067 03       		.uleb128 0x3
 1896 0068 0E       		.uleb128 0xe
 1897 0069 3E       		.uleb128 0x3e
 1898 006a 0B       		.uleb128 0xb
 1899 006b 0B       		.uleb128 0xb
 1900 006c 0B       		.uleb128 0xb
 1901 006d 49       		.uleb128 0x49
 1902 006e 13       		.uleb128 0x13
 1903 006f 3A       		.uleb128 0x3a
 1904 0070 0B       		.uleb128 0xb
 1905 0071 3B       		.uleb128 0x3b
 1906 0072 0B       		.uleb128 0xb
 1907 0073 01       		.uleb128 0x1
 1908 0074 13       		.uleb128 0x13
 1909 0075 00       		.byte	0
 1910 0076 00       		.byte	0
 1911 0077 0A       		.uleb128 0xa
 1912 0078 28       		.uleb128 0x28
 1913 0079 00       		.byte	0
ARM GAS  G:\Users\Jaxb\AppData\Local\Temp\ccBU42mh.s 			page 40


 1914 007a 03       		.uleb128 0x3
 1915 007b 0E       		.uleb128 0xe
 1916 007c 1C       		.uleb128 0x1c
 1917 007d 0B       		.uleb128 0xb
 1918 007e 00       		.byte	0
 1919 007f 00       		.byte	0
 1920 0080 0B       		.uleb128 0xb
 1921 0081 15       		.uleb128 0x15
 1922 0082 01       		.byte	0x1
 1923 0083 27       		.uleb128 0x27
 1924 0084 0C       		.uleb128 0xc
 1925 0085 01       		.uleb128 0x1
 1926 0086 13       		.uleb128 0x13
 1927 0087 00       		.byte	0
 1928 0088 00       		.byte	0
 1929 0089 0C       		.uleb128 0xc
 1930 008a 05       		.uleb128 0x5
 1931 008b 00       		.byte	0
 1932 008c 49       		.uleb128 0x49
 1933 008d 13       		.uleb128 0x13
 1934 008e 00       		.byte	0
 1935 008f 00       		.byte	0
 1936 0090 0D       		.uleb128 0xd
 1937 0091 0F       		.uleb128 0xf
 1938 0092 00       		.byte	0
 1939 0093 0B       		.uleb128 0xb
 1940 0094 0B       		.uleb128 0xb
 1941 0095 00       		.byte	0
 1942 0096 00       		.byte	0
 1943 0097 0E       		.uleb128 0xe
 1944 0098 34       		.uleb128 0x34
 1945 0099 00       		.byte	0
 1946 009a 03       		.uleb128 0x3
 1947 009b 0E       		.uleb128 0xe
 1948 009c 3A       		.uleb128 0x3a
 1949 009d 0B       		.uleb128 0xb
 1950 009e 3B       		.uleb128 0x3b
 1951 009f 0B       		.uleb128 0xb
 1952 00a0 49       		.uleb128 0x49
 1953 00a1 13       		.uleb128 0x13
 1954 00a2 3F       		.uleb128 0x3f
 1955 00a3 0C       		.uleb128 0xc
 1956 00a4 3C       		.uleb128 0x3c
 1957 00a5 0C       		.uleb128 0xc
 1958 00a6 00       		.byte	0
 1959 00a7 00       		.byte	0
 1960 00a8 0F       		.uleb128 0xf
 1961 00a9 26       		.uleb128 0x26
 1962 00aa 00       		.byte	0
 1963 00ab 49       		.uleb128 0x49
 1964 00ac 13       		.uleb128 0x13
 1965 00ad 00       		.byte	0
 1966 00ae 00       		.byte	0
 1967 00af 10       		.uleb128 0x10
 1968 00b0 0D       		.uleb128 0xd
 1969 00b1 00       		.byte	0
 1970 00b2 03       		.uleb128 0x3
ARM GAS  G:\Users\Jaxb\AppData\Local\Temp\ccBU42mh.s 			page 41


 1971 00b3 08       		.uleb128 0x8
 1972 00b4 3A       		.uleb128 0x3a
 1973 00b5 0B       		.uleb128 0xb
 1974 00b6 3B       		.uleb128 0x3b
 1975 00b7 0B       		.uleb128 0xb
 1976 00b8 49       		.uleb128 0x49
 1977 00b9 13       		.uleb128 0x13
 1978 00ba 38       		.uleb128 0x38
 1979 00bb 0A       		.uleb128 0xa
 1980 00bc 00       		.byte	0
 1981 00bd 00       		.byte	0
 1982 00be 11       		.uleb128 0x11
 1983 00bf 16       		.uleb128 0x16
 1984 00c0 00       		.byte	0
 1985 00c1 03       		.uleb128 0x3
 1986 00c2 08       		.uleb128 0x8
 1987 00c3 3A       		.uleb128 0x3a
 1988 00c4 0B       		.uleb128 0xb
 1989 00c5 3B       		.uleb128 0x3b
 1990 00c6 0B       		.uleb128 0xb
 1991 00c7 49       		.uleb128 0x49
 1992 00c8 13       		.uleb128 0x13
 1993 00c9 00       		.byte	0
 1994 00ca 00       		.byte	0
 1995 00cb 12       		.uleb128 0x12
 1996 00cc 01       		.uleb128 0x1
 1997 00cd 01       		.byte	0x1
 1998 00ce 49       		.uleb128 0x49
 1999 00cf 13       		.uleb128 0x13
 2000 00d0 01       		.uleb128 0x1
 2001 00d1 13       		.uleb128 0x13
 2002 00d2 00       		.byte	0
 2003 00d3 00       		.byte	0
 2004 00d4 13       		.uleb128 0x13
 2005 00d5 21       		.uleb128 0x21
 2006 00d6 00       		.byte	0
 2007 00d7 49       		.uleb128 0x49
 2008 00d8 13       		.uleb128 0x13
 2009 00d9 2F       		.uleb128 0x2f
 2010 00da 0B       		.uleb128 0xb
 2011 00db 00       		.byte	0
 2012 00dc 00       		.byte	0
 2013 00dd 14       		.uleb128 0x14
 2014 00de 15       		.uleb128 0x15
 2015 00df 00       		.byte	0
 2016 00e0 27       		.uleb128 0x27
 2017 00e1 0C       		.uleb128 0xc
 2018 00e2 49       		.uleb128 0x49
 2019 00e3 13       		.uleb128 0x13
 2020 00e4 00       		.byte	0
 2021 00e5 00       		.byte	0
 2022 00e6 15       		.uleb128 0x15
 2023 00e7 15       		.uleb128 0x15
 2024 00e8 00       		.byte	0
 2025 00e9 27       		.uleb128 0x27
 2026 00ea 0C       		.uleb128 0xc
 2027 00eb 00       		.byte	0
ARM GAS  G:\Users\Jaxb\AppData\Local\Temp\ccBU42mh.s 			page 42


 2028 00ec 00       		.byte	0
 2029 00ed 16       		.uleb128 0x16
 2030 00ee 34       		.uleb128 0x34
 2031 00ef 00       		.byte	0
 2032 00f0 03       		.uleb128 0x3
 2033 00f1 0E       		.uleb128 0xe
 2034 00f2 3A       		.uleb128 0x3a
 2035 00f3 0B       		.uleb128 0xb
 2036 00f4 3B       		.uleb128 0x3b
 2037 00f5 0B       		.uleb128 0xb
 2038 00f6 49       		.uleb128 0x49
 2039 00f7 13       		.uleb128 0x13
 2040 00f8 3F       		.uleb128 0x3f
 2041 00f9 0C       		.uleb128 0xc
 2042 00fa 02       		.uleb128 0x2
 2043 00fb 0A       		.uleb128 0xa
 2044 00fc 00       		.byte	0
 2045 00fd 00       		.byte	0
 2046 00fe 17       		.uleb128 0x17
 2047 00ff 34       		.uleb128 0x34
 2048 0100 00       		.byte	0
 2049 0101 47       		.uleb128 0x47
 2050 0102 13       		.uleb128 0x13
 2051 0103 3A       		.uleb128 0x3a
 2052 0104 0B       		.uleb128 0xb
 2053 0105 3B       		.uleb128 0x3b
 2054 0106 0B       		.uleb128 0xb
 2055 0107 02       		.uleb128 0x2
 2056 0108 0A       		.uleb128 0xa
 2057 0109 00       		.byte	0
 2058 010a 00       		.byte	0
 2059 010b 18       		.uleb128 0x18
 2060 010c 2E       		.uleb128 0x2e
 2061 010d 01       		.byte	0x1
 2062 010e 3F       		.uleb128 0x3f
 2063 010f 0C       		.uleb128 0xc
 2064 0110 03       		.uleb128 0x3
 2065 0111 0E       		.uleb128 0xe
 2066 0112 3A       		.uleb128 0x3a
 2067 0113 0B       		.uleb128 0xb
 2068 0114 3B       		.uleb128 0x3b
 2069 0115 0B       		.uleb128 0xb
 2070 0116 27       		.uleb128 0x27
 2071 0117 0C       		.uleb128 0xc
 2072 0118 49       		.uleb128 0x49
 2073 0119 13       		.uleb128 0x13
 2074 011a 11       		.uleb128 0x11
 2075 011b 01       		.uleb128 0x1
 2076 011c 12       		.uleb128 0x12
 2077 011d 01       		.uleb128 0x1
 2078 011e 40       		.uleb128 0x40
 2079 011f 06       		.uleb128 0x6
 2080 0120 9642     		.uleb128 0x2116
 2081 0122 0C       		.uleb128 0xc
 2082 0123 01       		.uleb128 0x1
 2083 0124 13       		.uleb128 0x13
 2084 0125 00       		.byte	0
ARM GAS  G:\Users\Jaxb\AppData\Local\Temp\ccBU42mh.s 			page 43


 2085 0126 00       		.byte	0
 2086 0127 19       		.uleb128 0x19
 2087 0128 05       		.uleb128 0x5
 2088 0129 00       		.byte	0
 2089 012a 03       		.uleb128 0x3
 2090 012b 0E       		.uleb128 0xe
 2091 012c 3A       		.uleb128 0x3a
 2092 012d 0B       		.uleb128 0xb
 2093 012e 3B       		.uleb128 0x3b
 2094 012f 0B       		.uleb128 0xb
 2095 0130 49       		.uleb128 0x49
 2096 0131 13       		.uleb128 0x13
 2097 0132 02       		.uleb128 0x2
 2098 0133 0A       		.uleb128 0xa
 2099 0134 00       		.byte	0
 2100 0135 00       		.byte	0
 2101 0136 1A       		.uleb128 0x1a
 2102 0137 34       		.uleb128 0x34
 2103 0138 00       		.byte	0
 2104 0139 03       		.uleb128 0x3
 2105 013a 0E       		.uleb128 0xe
 2106 013b 3A       		.uleb128 0x3a
 2107 013c 0B       		.uleb128 0xb
 2108 013d 3B       		.uleb128 0x3b
 2109 013e 0B       		.uleb128 0xb
 2110 013f 49       		.uleb128 0x49
 2111 0140 13       		.uleb128 0x13
 2112 0141 02       		.uleb128 0x2
 2113 0142 0A       		.uleb128 0xa
 2114 0143 00       		.byte	0
 2115 0144 00       		.byte	0
 2116 0145 1B       		.uleb128 0x1b
 2117 0146 2E       		.uleb128 0x2e
 2118 0147 00       		.byte	0
 2119 0148 03       		.uleb128 0x3
 2120 0149 0E       		.uleb128 0xe
 2121 014a 3A       		.uleb128 0x3a
 2122 014b 0B       		.uleb128 0xb
 2123 014c 3B       		.uleb128 0x3b
 2124 014d 0B       		.uleb128 0xb
 2125 014e 27       		.uleb128 0x27
 2126 014f 0C       		.uleb128 0xc
 2127 0150 11       		.uleb128 0x11
 2128 0151 01       		.uleb128 0x1
 2129 0152 12       		.uleb128 0x12
 2130 0153 01       		.uleb128 0x1
 2131 0154 40       		.uleb128 0x40
 2132 0155 06       		.uleb128 0x6
 2133 0156 9642     		.uleb128 0x2116
 2134 0158 0C       		.uleb128 0xc
 2135 0159 00       		.byte	0
 2136 015a 00       		.byte	0
 2137 015b 1C       		.uleb128 0x1c
 2138 015c 2E       		.uleb128 0x2e
 2139 015d 01       		.byte	0x1
 2140 015e 03       		.uleb128 0x3
 2141 015f 0E       		.uleb128 0xe
ARM GAS  G:\Users\Jaxb\AppData\Local\Temp\ccBU42mh.s 			page 44


 2142 0160 3A       		.uleb128 0x3a
 2143 0161 0B       		.uleb128 0xb
 2144 0162 3B       		.uleb128 0x3b
 2145 0163 0B       		.uleb128 0xb
 2146 0164 27       		.uleb128 0x27
 2147 0165 0C       		.uleb128 0xc
 2148 0166 11       		.uleb128 0x11
 2149 0167 01       		.uleb128 0x1
 2150 0168 12       		.uleb128 0x12
 2151 0169 01       		.uleb128 0x1
 2152 016a 40       		.uleb128 0x40
 2153 016b 06       		.uleb128 0x6
 2154 016c 9742     		.uleb128 0x2117
 2155 016e 0C       		.uleb128 0xc
 2156 016f 01       		.uleb128 0x1
 2157 0170 13       		.uleb128 0x13
 2158 0171 00       		.byte	0
 2159 0172 00       		.byte	0
 2160 0173 1D       		.uleb128 0x1d
 2161 0174 2E       		.uleb128 0x2e
 2162 0175 01       		.byte	0x1
 2163 0176 03       		.uleb128 0x3
 2164 0177 0E       		.uleb128 0xe
 2165 0178 3A       		.uleb128 0x3a
 2166 0179 0B       		.uleb128 0xb
 2167 017a 3B       		.uleb128 0x3b
 2168 017b 0B       		.uleb128 0xb
 2169 017c 27       		.uleb128 0x27
 2170 017d 0C       		.uleb128 0xc
 2171 017e 11       		.uleb128 0x11
 2172 017f 01       		.uleb128 0x1
 2173 0180 12       		.uleb128 0x12
 2174 0181 01       		.uleb128 0x1
 2175 0182 40       		.uleb128 0x40
 2176 0183 06       		.uleb128 0x6
 2177 0184 9742     		.uleb128 0x2117
 2178 0186 0C       		.uleb128 0xc
 2179 0187 00       		.byte	0
 2180 0188 00       		.byte	0
 2181 0189 00       		.byte	0
 2182              		.section	.debug_loc,"",%progbits
 2183              	.Ldebug_loc0:
 2184              	.LLST8:
 2185 0000 60030000 		.4byte	.LFB20-.Ltext0
 2186 0004 62030000 		.4byte	.LCFI39-.Ltext0
 2187 0008 0200     		.2byte	0x2
 2188 000a 7D       		.byte	0x7d
 2189 000b 00       		.sleb128 0
 2190 000c 62030000 		.4byte	.LCFI39-.Ltext0
 2191 0010 64030000 		.4byte	.LCFI40-.Ltext0
 2192 0014 0200     		.2byte	0x2
 2193 0016 7D       		.byte	0x7d
 2194 0017 08       		.sleb128 8
 2195 0018 64030000 		.4byte	.LCFI40-.Ltext0
 2196 001c 66030000 		.4byte	.LCFI41-.Ltext0
 2197 0020 0200     		.2byte	0x2
 2198 0022 7D       		.byte	0x7d
ARM GAS  G:\Users\Jaxb\AppData\Local\Temp\ccBU42mh.s 			page 45


 2199 0023 10       		.sleb128 16
 2200 0024 66030000 		.4byte	.LCFI41-.Ltext0
 2201 0028 86030000 		.4byte	.LCFI42-.Ltext0
 2202 002c 0200     		.2byte	0x2
 2203 002e 77       		.byte	0x77
 2204 002f 10       		.sleb128 16
 2205 0030 86030000 		.4byte	.LCFI42-.Ltext0
 2206 0034 88030000 		.4byte	.LCFI43-.Ltext0
 2207 0038 0200     		.2byte	0x2
 2208 003a 77       		.byte	0x77
 2209 003b 08       		.sleb128 8
 2210 003c 88030000 		.4byte	.LCFI43-.Ltext0
 2211 0040 90030000 		.4byte	.LFE20-.Ltext0
 2212 0044 0200     		.2byte	0x2
 2213 0046 7D       		.byte	0x7d
 2214 0047 08       		.sleb128 8
 2215 0048 00000000 		.4byte	0
 2216 004c 00000000 		.4byte	0
 2217              	.LLST7:
 2218 0050 B4020000 		.4byte	.LFB19-.Ltext0
 2219 0054 B6020000 		.4byte	.LCFI34-.Ltext0
 2220 0058 0200     		.2byte	0x2
 2221 005a 7D       		.byte	0x7d
 2222 005b 00       		.sleb128 0
 2223 005c B6020000 		.4byte	.LCFI34-.Ltext0
 2224 0060 B8020000 		.4byte	.LCFI35-.Ltext0
 2225 0064 0200     		.2byte	0x2
 2226 0066 7D       		.byte	0x7d
 2227 0067 08       		.sleb128 8
 2228 0068 B8020000 		.4byte	.LCFI35-.Ltext0
 2229 006c BA020000 		.4byte	.LCFI36-.Ltext0
 2230 0070 0200     		.2byte	0x2
 2231 0072 7D       		.byte	0x7d
 2232 0073 18       		.sleb128 24
 2233 0074 BA020000 		.4byte	.LCFI36-.Ltext0
 2234 0078 58030000 		.4byte	.LCFI37-.Ltext0
 2235 007c 0200     		.2byte	0x2
 2236 007e 77       		.byte	0x77
 2237 007f 18       		.sleb128 24
 2238 0080 58030000 		.4byte	.LCFI37-.Ltext0
 2239 0084 5A030000 		.4byte	.LCFI38-.Ltext0
 2240 0088 0200     		.2byte	0x2
 2241 008a 77       		.byte	0x77
 2242 008b 08       		.sleb128 8
 2243 008c 5A030000 		.4byte	.LCFI38-.Ltext0
 2244 0090 60030000 		.4byte	.LFE19-.Ltext0
 2245 0094 0200     		.2byte	0x2
 2246 0096 7D       		.byte	0x7d
 2247 0097 08       		.sleb128 8
 2248 0098 00000000 		.4byte	0
 2249 009c 00000000 		.4byte	0
 2250              	.LLST6:
 2251 00a0 6C020000 		.4byte	.LFB18-.Ltext0
 2252 00a4 6E020000 		.4byte	.LCFI29-.Ltext0
 2253 00a8 0200     		.2byte	0x2
 2254 00aa 7D       		.byte	0x7d
 2255 00ab 00       		.sleb128 0
ARM GAS  G:\Users\Jaxb\AppData\Local\Temp\ccBU42mh.s 			page 46


 2256 00ac 6E020000 		.4byte	.LCFI29-.Ltext0
 2257 00b0 70020000 		.4byte	.LCFI30-.Ltext0
 2258 00b4 0200     		.2byte	0x2
 2259 00b6 7D       		.byte	0x7d
 2260 00b7 08       		.sleb128 8
 2261 00b8 70020000 		.4byte	.LCFI30-.Ltext0
 2262 00bc 72020000 		.4byte	.LCFI31-.Ltext0
 2263 00c0 0200     		.2byte	0x2
 2264 00c2 7D       		.byte	0x7d
 2265 00c3 10       		.sleb128 16
 2266 00c4 72020000 		.4byte	.LCFI31-.Ltext0
 2267 00c8 A8020000 		.4byte	.LCFI32-.Ltext0
 2268 00cc 0200     		.2byte	0x2
 2269 00ce 77       		.byte	0x77
 2270 00cf 10       		.sleb128 16
 2271 00d0 A8020000 		.4byte	.LCFI32-.Ltext0
 2272 00d4 AA020000 		.4byte	.LCFI33-.Ltext0
 2273 00d8 0200     		.2byte	0x2
 2274 00da 77       		.byte	0x77
 2275 00db 08       		.sleb128 8
 2276 00dc AA020000 		.4byte	.LCFI33-.Ltext0
 2277 00e0 B4020000 		.4byte	.LFE18-.Ltext0
 2278 00e4 0200     		.2byte	0x2
 2279 00e6 7D       		.byte	0x7d
 2280 00e7 08       		.sleb128 8
 2281 00e8 00000000 		.4byte	0
 2282 00ec 00000000 		.4byte	0
 2283              	.LLST5:
 2284 00f0 EC010000 		.4byte	.LFB17-.Ltext0
 2285 00f4 EE010000 		.4byte	.LCFI24-.Ltext0
 2286 00f8 0200     		.2byte	0x2
 2287 00fa 7D       		.byte	0x7d
 2288 00fb 00       		.sleb128 0
 2289 00fc EE010000 		.4byte	.LCFI24-.Ltext0
 2290 0100 F0010000 		.4byte	.LCFI25-.Ltext0
 2291 0104 0200     		.2byte	0x2
 2292 0106 7D       		.byte	0x7d
 2293 0107 08       		.sleb128 8
 2294 0108 F0010000 		.4byte	.LCFI25-.Ltext0
 2295 010c F2010000 		.4byte	.LCFI26-.Ltext0
 2296 0110 0200     		.2byte	0x2
 2297 0112 7D       		.byte	0x7d
 2298 0113 18       		.sleb128 24
 2299 0114 F2010000 		.4byte	.LCFI26-.Ltext0
 2300 0118 62020000 		.4byte	.LCFI27-.Ltext0
 2301 011c 0200     		.2byte	0x2
 2302 011e 77       		.byte	0x77
 2303 011f 18       		.sleb128 24
 2304 0120 62020000 		.4byte	.LCFI27-.Ltext0
 2305 0124 64020000 		.4byte	.LCFI28-.Ltext0
 2306 0128 0200     		.2byte	0x2
 2307 012a 77       		.byte	0x77
 2308 012b 08       		.sleb128 8
 2309 012c 64020000 		.4byte	.LCFI28-.Ltext0
 2310 0130 6C020000 		.4byte	.LFE17-.Ltext0
 2311 0134 0200     		.2byte	0x2
 2312 0136 7D       		.byte	0x7d
ARM GAS  G:\Users\Jaxb\AppData\Local\Temp\ccBU42mh.s 			page 47


 2313 0137 08       		.sleb128 8
 2314 0138 00000000 		.4byte	0
 2315 013c 00000000 		.4byte	0
 2316              	.LLST4:
 2317 0140 68010000 		.4byte	.LFB16-.Ltext0
 2318 0144 6A010000 		.4byte	.LCFI19-.Ltext0
 2319 0148 0200     		.2byte	0x2
 2320 014a 7D       		.byte	0x7d
 2321 014b 00       		.sleb128 0
 2322 014c 6A010000 		.4byte	.LCFI19-.Ltext0
 2323 0150 6C010000 		.4byte	.LCFI20-.Ltext0
 2324 0154 0200     		.2byte	0x2
 2325 0156 7D       		.byte	0x7d
 2326 0157 08       		.sleb128 8
 2327 0158 6C010000 		.4byte	.LCFI20-.Ltext0
 2328 015c 6E010000 		.4byte	.LCFI21-.Ltext0
 2329 0160 0200     		.2byte	0x2
 2330 0162 7D       		.byte	0x7d
 2331 0163 30       		.sleb128 48
 2332 0164 6E010000 		.4byte	.LCFI21-.Ltext0
 2333 0168 E4010000 		.4byte	.LCFI22-.Ltext0
 2334 016c 0200     		.2byte	0x2
 2335 016e 77       		.byte	0x77
 2336 016f 20       		.sleb128 32
 2337 0170 E4010000 		.4byte	.LCFI22-.Ltext0
 2338 0174 E6010000 		.4byte	.LCFI23-.Ltext0
 2339 0178 0200     		.2byte	0x2
 2340 017a 77       		.byte	0x77
 2341 017b 08       		.sleb128 8
 2342 017c E6010000 		.4byte	.LCFI23-.Ltext0
 2343 0180 EC010000 		.4byte	.LFE16-.Ltext0
 2344 0184 0200     		.2byte	0x2
 2345 0186 7D       		.byte	0x7d
 2346 0187 08       		.sleb128 8
 2347 0188 00000000 		.4byte	0
 2348 018c 00000000 		.4byte	0
 2349              	.LLST3:
 2350 0190 50000000 		.4byte	.LFB15-.Ltext0
 2351 0194 52000000 		.4byte	.LCFI14-.Ltext0
 2352 0198 0200     		.2byte	0x2
 2353 019a 7D       		.byte	0x7d
 2354 019b 00       		.sleb128 0
 2355 019c 52000000 		.4byte	.LCFI14-.Ltext0
 2356 01a0 54000000 		.4byte	.LCFI15-.Ltext0
 2357 01a4 0200     		.2byte	0x2
 2358 01a6 7D       		.byte	0x7d
 2359 01a7 0C       		.sleb128 12
 2360 01a8 54000000 		.4byte	.LCFI15-.Ltext0
 2361 01ac 56000000 		.4byte	.LCFI16-.Ltext0
 2362 01b0 0200     		.2byte	0x2
 2363 01b2 7D       		.byte	0x7d
 2364 01b3 20       		.sleb128 32
 2365 01b4 56000000 		.4byte	.LCFI16-.Ltext0
 2366 01b8 5A010000 		.4byte	.LCFI17-.Ltext0
 2367 01bc 0200     		.2byte	0x2
 2368 01be 77       		.byte	0x77
 2369 01bf 20       		.sleb128 32
ARM GAS  G:\Users\Jaxb\AppData\Local\Temp\ccBU42mh.s 			page 48


 2370 01c0 5A010000 		.4byte	.LCFI17-.Ltext0
 2371 01c4 5C010000 		.4byte	.LCFI18-.Ltext0
 2372 01c8 0200     		.2byte	0x2
 2373 01ca 77       		.byte	0x77
 2374 01cb 0C       		.sleb128 12
 2375 01cc 5C010000 		.4byte	.LCFI18-.Ltext0
 2376 01d0 68010000 		.4byte	.LFE15-.Ltext0
 2377 01d4 0200     		.2byte	0x2
 2378 01d6 7D       		.byte	0x7d
 2379 01d7 0C       		.sleb128 12
 2380 01d8 00000000 		.4byte	0
 2381 01dc 00000000 		.4byte	0
 2382              	.LLST2:
 2383 01e0 38000000 		.4byte	.LFB14-.Ltext0
 2384 01e4 3A000000 		.4byte	.LCFI12-.Ltext0
 2385 01e8 0200     		.2byte	0x2
 2386 01ea 7D       		.byte	0x7d
 2387 01eb 00       		.sleb128 0
 2388 01ec 3A000000 		.4byte	.LCFI12-.Ltext0
 2389 01f0 3C000000 		.4byte	.LCFI13-.Ltext0
 2390 01f4 0200     		.2byte	0x2
 2391 01f6 7D       		.byte	0x7d
 2392 01f7 08       		.sleb128 8
 2393 01f8 3C000000 		.4byte	.LCFI13-.Ltext0
 2394 01fc 50000000 		.4byte	.LFE14-.Ltext0
 2395 0200 0200     		.2byte	0x2
 2396 0202 77       		.byte	0x77
 2397 0203 08       		.sleb128 8
 2398 0204 00000000 		.4byte	0
 2399 0208 00000000 		.4byte	0
 2400              	.LLST1:
 2401 020c 1E000000 		.4byte	.LFB13-.Ltext0
 2402 0210 20000000 		.4byte	.LCFI6-.Ltext0
 2403 0214 0200     		.2byte	0x2
 2404 0216 7D       		.byte	0x7d
 2405 0217 00       		.sleb128 0
 2406 0218 20000000 		.4byte	.LCFI6-.Ltext0
 2407 021c 22000000 		.4byte	.LCFI7-.Ltext0
 2408 0220 0200     		.2byte	0x2
 2409 0222 7D       		.byte	0x7d
 2410 0223 04       		.sleb128 4
 2411 0224 22000000 		.4byte	.LCFI7-.Ltext0
 2412 0228 24000000 		.4byte	.LCFI8-.Ltext0
 2413 022c 0200     		.2byte	0x2
 2414 022e 7D       		.byte	0x7d
 2415 022f 10       		.sleb128 16
 2416 0230 24000000 		.4byte	.LCFI8-.Ltext0
 2417 0234 32000000 		.4byte	.LCFI9-.Ltext0
 2418 0238 0200     		.2byte	0x2
 2419 023a 77       		.byte	0x77
 2420 023b 10       		.sleb128 16
 2421 023c 32000000 		.4byte	.LCFI9-.Ltext0
 2422 0240 34000000 		.4byte	.LCFI10-.Ltext0
 2423 0244 0200     		.2byte	0x2
 2424 0246 77       		.byte	0x77
 2425 0247 04       		.sleb128 4
 2426 0248 34000000 		.4byte	.LCFI10-.Ltext0
ARM GAS  G:\Users\Jaxb\AppData\Local\Temp\ccBU42mh.s 			page 49


 2427 024c 36000000 		.4byte	.LCFI11-.Ltext0
 2428 0250 0200     		.2byte	0x2
 2429 0252 7D       		.byte	0x7d
 2430 0253 04       		.sleb128 4
 2431 0254 36000000 		.4byte	.LCFI11-.Ltext0
 2432 0258 38000000 		.4byte	.LFE13-.Ltext0
 2433 025c 0200     		.2byte	0x2
 2434 025e 7D       		.byte	0x7d
 2435 025f 00       		.sleb128 0
 2436 0260 00000000 		.4byte	0
 2437 0264 00000000 		.4byte	0
 2438              	.LLST0:
 2439 0268 00000000 		.4byte	.LFB0-.Ltext0
 2440 026c 02000000 		.4byte	.LCFI0-.Ltext0
 2441 0270 0200     		.2byte	0x2
 2442 0272 7D       		.byte	0x7d
 2443 0273 00       		.sleb128 0
 2444 0274 02000000 		.4byte	.LCFI0-.Ltext0
 2445 0278 04000000 		.4byte	.LCFI1-.Ltext0
 2446 027c 0200     		.2byte	0x2
 2447 027e 7D       		.byte	0x7d
 2448 027f 04       		.sleb128 4
 2449 0280 04000000 		.4byte	.LCFI1-.Ltext0
 2450 0284 06000000 		.4byte	.LCFI2-.Ltext0
 2451 0288 0200     		.2byte	0x2
 2452 028a 7D       		.byte	0x7d
 2453 028b 10       		.sleb128 16
 2454 028c 06000000 		.4byte	.LCFI2-.Ltext0
 2455 0290 18000000 		.4byte	.LCFI3-.Ltext0
 2456 0294 0200     		.2byte	0x2
 2457 0296 77       		.byte	0x77
 2458 0297 10       		.sleb128 16
 2459 0298 18000000 		.4byte	.LCFI3-.Ltext0
 2460 029c 1A000000 		.4byte	.LCFI4-.Ltext0
 2461 02a0 0200     		.2byte	0x2
 2462 02a2 77       		.byte	0x77
 2463 02a3 04       		.sleb128 4
 2464 02a4 1A000000 		.4byte	.LCFI4-.Ltext0
 2465 02a8 1C000000 		.4byte	.LCFI5-.Ltext0
 2466 02ac 0200     		.2byte	0x2
 2467 02ae 7D       		.byte	0x7d
 2468 02af 04       		.sleb128 4
 2469 02b0 1C000000 		.4byte	.LCFI5-.Ltext0
 2470 02b4 1E000000 		.4byte	.LFE0-.Ltext0
 2471 02b8 0200     		.2byte	0x2
 2472 02ba 7D       		.byte	0x7d
 2473 02bb 00       		.sleb128 0
 2474 02bc 00000000 		.4byte	0
 2475 02c0 00000000 		.4byte	0
 2476              		.section	.debug_aranges,"",%progbits
 2477 0000 1C000000 		.4byte	0x1c
 2478 0004 0200     		.2byte	0x2
 2479 0006 00000000 		.4byte	.Ldebug_info0
 2480 000a 04       		.byte	0x4
 2481 000b 00       		.byte	0
 2482 000c 0000     		.2byte	0
 2483 000e 0000     		.2byte	0
ARM GAS  G:\Users\Jaxb\AppData\Local\Temp\ccBU42mh.s 			page 50


 2484 0010 00000000 		.4byte	.Ltext0
 2485 0014 90030000 		.4byte	.Letext0-.Ltext0
 2486 0018 00000000 		.4byte	0
 2487 001c 00000000 		.4byte	0
 2488              		.section	.debug_line,"",%progbits
 2489              	.Ldebug_line0:
 2490 0000 E7010000 		.section	.debug_str,"MS",%progbits,1
 2490      0200FE00 
 2490      00000201 
 2490      FB0E0D00 
 2490      01010101 
 2491              	.LASF66:
 2492 0000 5F5F7274 		.ascii	"__rtmsym_task_delete\000"
 2492      6D73796D 
 2492      5F746173 
 2492      6B5F6465 
 2492      6C657465 
 2493              	.LASF25:
 2494 0015 5441534B 		.ascii	"TASK_PRIO_TYPE\000"
 2494      5F505249 
 2494      4F5F5459 
 2494      504500
 2495              	.LASF59:
 2496 0024 61646472 		.ascii	"addr\000"
 2496      00
 2497              	.LASF13:
 2498 0029 53544154 		.ascii	"STATE_SUSPEND_NORMAL\000"
 2498      455F5355 
 2498      5350454E 
 2498      445F4E4F 
 2498      524D414C 
 2499              	.LASF27:
 2500 003e 6C697374 		.ascii	"list_head\000"
 2500      5F686561 
 2500      6400
 2501              	.LASF67:
 2502 0048 7461736B 		.ascii	"task_delete\000"
 2502      5F64656C 
 2502      65746500 
 2503              	.LASF1:
 2504 0054 73686F72 		.ascii	"short int\000"
 2504      7420696E 
 2504      7400
 2505              	.LASF16:
 2506 005e 53544154 		.ascii	"STATE_WAIT_MESSAGE_QUEUE_FOREVER\000"
 2506      455F5741 
 2506      49545F4D 
 2506      45535341 
 2506      47455F51 
 2507              	.LASF65:
 2508 007f 5F5F7274 		.ascii	"__rtmsym_task_delete_name\000"
 2508      6D73796D 
 2508      5F746173 
 2508      6B5F6465 
 2508      6C657465 
 2509              	.LASF6:
 2510 0099 55494E54 		.ascii	"UINT32\000"
ARM GAS  G:\Users\Jaxb\AppData\Local\Temp\ccBU42mh.s 			page 51


 2510      333200
 2511              	.LASF24:
 2512 00a0 53544143 		.ascii	"STACK_TYPE\000"
 2512      4B5F5459 
 2512      504500
 2513              	.LASF52:
 2514 00ab 696E6974 		.ascii	"init_space\000"
 2514      5F737061 
 2514      636500
 2515              	.LASF82:
 2516 00b6 5461736B 		.ascii	"Task_State\000"
 2516      5F537461 
 2516      746500
 2517              	.LASF18:
 2518 00c1 53544154 		.ascii	"STATE_PUT_MESSAGE_QUEUE_FOREVER\000"
 2518      455F5055 
 2518      545F4D45 
 2518      53534147 
 2518      455F5155 
 2519              	.LASF80:
 2520 00e1 2E2E2F2E 		.ascii	"../../source/src/kernel/OS_CORE/TCB.c\000"
 2520      2E2F736F 
 2520      75726365 
 2520      2F737263 
 2520      2F6B6572 
 2521              	.LASF85:
 2522 0107 494E4954 		.ascii	"INIT_LIST_HEAD\000"
 2522      5F4C4953 
 2522      545F4845 
 2522      414400
 2523              	.LASF78:
 2524 0116 6C697374 		.ascii	"list\000"
 2524      00
 2525              	.LASF46:
 2526 011b 6D6F6475 		.ascii	"module_list\000"
 2526      6C655F6C 
 2526      69737400 
 2527              	.LASF58:
 2528 0127 6B615F6D 		.ascii	"ka_module_symtab\000"
 2528      6F64756C 
 2528      655F7379 
 2528      6D746162 
 2528      00
 2529              	.LASF68:
 2530 0138 5F746173 		.ascii	"_task_delete\000"
 2530      6B5F6465 
 2530      6C657465 
 2530      00
 2531              	.LASF31:
 2532 0145 73746163 		.ascii	"stack_end\000"
 2532      6B5F656E 
 2532      6400
 2533              	.LASF15:
 2534 014f 53544154 		.ascii	"STATE_WAIT_MCB_TIMEOUT\000"
 2534      455F5741 
 2534      49545F4D 
 2534      43425F54 
ARM GAS  G:\Users\Jaxb\AppData\Local\Temp\ccBU42mh.s 			page 52


 2534      494D454F 
 2535              	.LASF57:
 2536 0166 74687265 		.ascii	"thread_TCB_ptr\000"
 2536      61645F54 
 2536      43425F70 
 2536      747200
 2537              	.LASF17:
 2538 0175 53544154 		.ascii	"STATE_WAIT_MESSAGE_QUEUE_TIMEOUT\000"
 2538      455F5741 
 2538      49545F4D 
 2538      45535341 
 2538      47455F51 
 2539              	.LASF81:
 2540 0196 463A5C6B 		.ascii	"F:\\kaka\\KAKAOS\\C\\windows\\Project\\RVMDK\243\250"
 2540      616B615C 
 2540      4B414B41 
 2540      4F535C43 
 2540      5C77696E 
 2541 01be 757635A3 		.ascii	"uv5\243\251\000"
 2541      A900
 2542              	.LASF2:
 2543 01c4 6C6F6E67 		.ascii	"long long int\000"
 2543      206C6F6E 
 2543      6720696E 
 2543      7400
 2544              	.LASF84:
 2545 01d2 7365745F 		.ascii	"set_module_state\000"
 2545      6D6F6475 
 2545      6C655F73 
 2545      74617465 
 2545      00
 2546              	.LASF39:
 2547 01e3 74696D65 		.ascii	"timeslice_hope_time\000"
 2547      736C6963 
 2547      655F686F 
 2547      70655F74 
 2547      696D6500 
 2548              	.LASF32:
 2549 01f7 72657365 		.ascii	"reserve_prio\000"
 2549      7276655F 
 2549      7072696F 
 2549      00
 2550              	.LASF71:
 2551 0204 5F746173 		.ascii	"_task_change_prio\000"
 2551      6B5F6368 
 2551      616E6765 
 2551      5F707269 
 2551      6F00
 2552              	.LASF50:
 2553 0216 6D6F6475 		.ascii	"module_space\000"
 2553      6C655F73 
 2553      70616365 
 2553      00
 2554              	.LASF56:
 2555 0223 6578706F 		.ascii	"export_symbols_num\000"
 2555      72745F73 
 2555      796D626F 
ARM GAS  G:\Users\Jaxb\AppData\Local\Temp\ccBU42mh.s 			page 53


 2555      6C735F6E 
 2555      756D00
 2556              	.LASF73:
 2557 0236 5F746173 		.ascii	"_task_creat\000"
 2557      6B5F6372 
 2557      65617400 
 2558              	.LASF21:
 2559 0242 5441534B 		.ascii	"TASK_STATE\000"
 2559      5F535441 
 2559      544500
 2560              	.LASF76:
 2561 024d 73746174 		.ascii	"state\000"
 2561      6500
 2562              	.LASF38:
 2563 0253 6E616D65 		.ascii	"name\000"
 2563      00
 2564              	.LASF49:
 2565 0258 65786974 		.ascii	"exit\000"
 2565      00
 2566              	.LASF77:
 2567 025d 5F746173 		.ascii	"_task_init\000"
 2567      6B5F696E 
 2567      697400
 2568              	.LASF53:
 2569 0268 656E7472 		.ascii	"entry\000"
 2569      7900
 2570              	.LASF42:
 2571 026e 64796E61 		.ascii	"dynamic_module_ptr\000"
 2571      6D69635F 
 2571      6D6F6475 
 2571      6C655F70 
 2571      747200
 2572              	.LASF3:
 2573 0281 756E7369 		.ascii	"unsigned char\000"
 2573      676E6564 
 2573      20636861 
 2573      7200
 2574              	.LASF12:
 2575 028f 53544154 		.ascii	"STATE_DELAY\000"
 2575      455F4445 
 2575      4C415900 
 2576              	.LASF41:
 2577 029b 61747472 		.ascii	"attribution\000"
 2577      69627574 
 2577      696F6E00 
 2578              	.LASF0:
 2579 02a7 7369676E 		.ascii	"signed char\000"
 2579      65642063 
 2579      68617200 
 2580              	.LASF54:
 2581 02b3 76737461 		.ascii	"vstart_addr\000"
 2581      72745F61 
 2581      64647200 
 2582              	.LASF8:
 2583 02bf 6C6F6E67 		.ascii	"long long unsigned int\000"
 2583      206C6F6E 
 2583      6720756E 
ARM GAS  G:\Users\Jaxb\AppData\Local\Temp\ccBU42mh.s 			page 54


 2583      7369676E 
 2583      65642069 
 2584              	.LASF5:
 2585 02d6 756E7369 		.ascii	"unsigned int\000"
 2585      676E6564 
 2585      20696E74 
 2585      00
 2586              	.LASF29:
 2587 02e3 73746163 		.ascii	"stack\000"
 2587      6B00
 2588              	.LASF36:
 2589 02e9 73616D65 		.ascii	"same_prio_list\000"
 2589      5F707269 
 2589      6F5F6C69 
 2589      737400
 2590              	.LASF45:
 2591 02f8 64796E61 		.ascii	"dynamic_module\000"
 2591      6D69635F 
 2591      6D6F6475 
 2591      6C6500
 2592              	.LASF4:
 2593 0307 73686F72 		.ascii	"short unsigned int\000"
 2593      7420756E 
 2593      7369676E 
 2593      65642069 
 2593      6E7400
 2594              	.LASF11:
 2595 031a 53544154 		.ascii	"STATE_READY\000"
 2595      455F5245 
 2595      41445900 
 2596              	.LASF44:
 2597 0326 63686172 		.ascii	"char\000"
 2597      00
 2598              	.LASF48:
 2599 032b 696E6974 		.ascii	"init\000"
 2599      00
 2600              	.LASF70:
 2601 0330 7461736B 		.ascii	"task_change_prio\000"
 2601      5F636861 
 2601      6E67655F 
 2601      7072696F 
 2601      00
 2602              	.LASF19:
 2603 0341 53544154 		.ascii	"STATE_PUT_MESSAGE_QUEUE_TIMEOUT\000"
 2603      455F5055 
 2603      545F4D45 
 2603      53534147 
 2603      455F5155 
 2604              	.LASF22:
 2605 0361 4350555F 		.ascii	"CPU_INT32U\000"
 2605      494E5433 
 2605      325500
 2606              	.LASF62:
 2607 036c 4F535443 		.ascii	"OSTCBHighRdyPtr\000"
 2607      42486967 
 2607      68526479 
 2607      50747200 
ARM GAS  G:\Users\Jaxb\AppData\Local\Temp\ccBU42mh.s 			page 55


 2608              	.LASF35:
 2609 037c 64656C61 		.ascii	"delay_heap_position\000"
 2609      795F6865 
 2609      61705F70 
 2609      6F736974 
 2609      696F6E00 
 2610              	.LASF33:
 2611 0390 7461736B 		.ascii	"task_state\000"
 2611      5F737461 
 2611      746500
 2612              	.LASF40:
 2613 039b 74696D65 		.ascii	"timeslice_rest_time\000"
 2613      736C6963 
 2613      655F7265 
 2613      73745F74 
 2613      696D6500 
 2614              	.LASF74:
 2615 03af 66756E63 		.ascii	"function\000"
 2615      74696F6E 
 2615      00
 2616              	.LASF75:
 2617 03b8 70617261 		.ascii	"para\000"
 2617      00
 2618              	.LASF14:
 2619 03bd 53544154 		.ascii	"STATE_WAIT_MCB_FOREVER\000"
 2619      455F5741 
 2619      49545F4D 
 2619      43425F46 
 2619      4F524556 
 2620              	.LASF28:
 2621 03d4 7461736B 		.ascii	"task_control_block_struct\000"
 2621      5F636F6E 
 2621      74726F6C 
 2621      5F626C6F 
 2621      636B5F73 
 2622              	.LASF30:
 2623 03ee 73746163 		.ascii	"stack_size\000"
 2623      6B5F7369 
 2623      7A6500
 2624              	.LASF51:
 2625 03f9 6D6F6475 		.ascii	"module_size\000"
 2625      6C655F73 
 2625      697A6500 
 2626              	.LASF69:
 2627 0405 5443425F 		.ascii	"TCB_ptr\000"
 2627      70747200 
 2628              	.LASF83:
 2629 040d 64656C65 		.ascii	"delete_myself\000"
 2629      74655F6D 
 2629      7973656C 
 2629      6600
 2630              	.LASF26:
 2631 041b 66756E63 		.ascii	"functionptr\000"
 2631      74696F6E 
 2631      70747200 
 2632              	.LASF37:
 2633 0427 73757370 		.ascii	"suspend_list\000"
ARM GAS  G:\Users\Jaxb\AppData\Local\Temp\ccBU42mh.s 			page 56


 2633      656E645F 
 2633      6C697374 
 2633      00
 2634              	.LASF60:
 2635 0434 675F696E 		.ascii	"g_interrupt_count\000"
 2635      74657272 
 2635      7570745F 
 2635      636F756E 
 2635      7400
 2636              	.LASF72:
 2637 0446 6370755F 		.ascii	"cpu_sr\000"
 2637      737200
 2638              	.LASF79:
 2639 044d 474E5520 		.ascii	"GNU C11 7.3.1 20180622 (release) [ARM/embedded-7-br"
 2639      43313120 
 2639      372E332E 
 2639      31203230 
 2639      31383036 
 2640 0480 616E6368 		.ascii	"anch revision 261907] -mcpu=cortex-m3 -mthumb -mapc"
 2640      20726576 
 2640      6973696F 
 2640      6E203236 
 2640      31393037 
 2641 04b3 732D6672 		.ascii	"s-frame -mthumb-interwork -mcpu=cortex-m3 -mthumb -"
 2641      616D6520 
 2641      2D6D7468 
 2641      756D622D 
 2641      696E7465 
 2642 04e6 67647761 		.ascii	"gdwarf-2 -O0\000"
 2642      72662D32 
 2642      202D4F30 
 2642      00
 2643              	.LASF20:
 2644 04f3 53544154 		.ascii	"STATE_WAIT_MUTEX_FOREVER\000"
 2644      455F5741 
 2644      49545F4D 
 2644      55544558 
 2644      5F464F52 
 2645              	.LASF64:
 2646 050c 5F5F7274 		.ascii	"__rtmsym_task_change_prio\000"
 2646      6D73796D 
 2646      5F746173 
 2646      6B5F6368 
 2646      616E6765 
 2647              	.LASF10:
 2648 0526 70726576 		.ascii	"prev\000"
 2648      00
 2649              	.LASF23:
 2650 052b 4350555F 		.ascii	"CPU_SR\000"
 2650      535200
 2651              	.LASF63:
 2652 0532 5F5F7274 		.ascii	"__rtmsym_task_change_prio_name\000"
 2652      6D73796D 
 2652      5F746173 
 2652      6B5F6368 
 2652      616E6765 
 2653              	.LASF43:
ARM GAS  G:\Users\Jaxb\AppData\Local\Temp\ccBU42mh.s 			page 57


 2654 0551 64656C61 		.ascii	"delay_reach_time\000"
 2654      795F7265 
 2654      6163685F 
 2654      74696D65 
 2654      00
 2655              	.LASF47:
 2656 0562 6D6F6475 		.ascii	"module_state\000"
 2656      6C655F73 
 2656      74617465 
 2656      00
 2657              	.LASF7:
 2658 056f 55494E54 		.ascii	"UINT64\000"
 2658      363400
 2659              	.LASF34:
 2660 0576 7072696F 		.ascii	"prio\000"
 2660      00
 2661              	.LASF61:
 2662 057b 4F535443 		.ascii	"OSTCBCurPtr\000"
 2662      42437572 
 2662      50747200 
 2663              	.LASF9:
 2664 0587 6E657874 		.ascii	"next\000"
 2664      00
 2665              	.LASF55:
 2666 058c 6578706F 		.ascii	"export_symbols_array\000"
 2666      72745F73 
 2666      796D626F 
 2666      6C735F61 
 2666      72726179 
 2667              		.ident	"GCC: (GNU Tools for Arm Embedded Processors 7-2018-q2-update) 7.3.1 20180622 (release) [AR
ARM GAS  G:\Users\Jaxb\AppData\Local\Temp\ccBU42mh.s 			page 58


DEFINED SYMBOLS
                            *ABS*:00000000 TCB.c
G:\Users\Jaxb\AppData\Local\Temp\ccBU42mh.s:15     .text:00000000 $t
G:\Users\Jaxb\AppData\Local\Temp\ccBU42mh.s:21     .text:00000000 INIT_LIST_HEAD
G:\Users\Jaxb\AppData\Local\Temp\ccBU42mh.s:71     .text:0000001e set_module_state
                            *COM*:00000004 OSTCBCurPtr
                            *COM*:00000004 OSTCBHighRdyPtr
G:\Users\Jaxb\AppData\Local\Temp\ccBU42mh.s:119    .bss:00000000 g_interrupt_count
G:\Users\Jaxb\AppData\Local\Temp\ccBU42mh.s:116    .bss:00000000 $d
G:\Users\Jaxb\AppData\Local\Temp\ccBU42mh.s:128    .text:00000038 delete_myself
G:\Users\Jaxb\AppData\Local\Temp\ccBU42mh.s:819    .text:00000360 task_delete
G:\Users\Jaxb\AppData\Local\Temp\ccBU42mh.s:154    .text:0000004c $d
G:\Users\Jaxb\AppData\Local\Temp\ccBU42mh.s:159    .rodata:00000000 $d
G:\Users\Jaxb\AppData\Local\Temp\ccBU42mh.s:163    .text:00000050 $t
G:\Users\Jaxb\AppData\Local\Temp\ccBU42mh.s:170    .text:00000050 _task_init
G:\Users\Jaxb\AppData\Local\Temp\ccBU42mh.s:349    .text:00000160 $d
G:\Users\Jaxb\AppData\Local\Temp\ccBU42mh.s:354    .text:00000168 $t
G:\Users\Jaxb\AppData\Local\Temp\ccBU42mh.s:361    .text:00000168 _task_creat
G:\Users\Jaxb\AppData\Local\Temp\ccBU42mh.s:462    .text:000001e8 $d
G:\Users\Jaxb\AppData\Local\Temp\ccBU42mh.s:466    .text:000001ec $t
G:\Users\Jaxb\AppData\Local\Temp\ccBU42mh.s:473    .text:000001ec _task_change_prio
G:\Users\Jaxb\AppData\Local\Temp\ccBU42mh.s:572    .text:00000268 $d
G:\Users\Jaxb\AppData\Local\Temp\ccBU42mh.s:586    .text:0000026c $t
G:\Users\Jaxb\AppData\Local\Temp\ccBU42mh.s:593    .text:0000026c task_change_prio
G:\Users\Jaxb\AppData\Local\Temp\ccBU42mh.s:653    .text:000002ac $d
G:\Users\Jaxb\AppData\Local\Temp\ccBU42mh.s:663    .rodata.name:00000000 __rtmsym_task_change_prio_name
G:\Users\Jaxb\AppData\Local\Temp\ccBU42mh.s:660    .rodata.name:00000000 $d
G:\Users\Jaxb\AppData\Local\Temp\ccBU42mh.s:670    .RTMSymTab:00000000 __rtmsym_task_change_prio
G:\Users\Jaxb\AppData\Local\Temp\ccBU42mh.s:667    .RTMSymTab:00000000 $d
G:\Users\Jaxb\AppData\Local\Temp\ccBU42mh.s:674    .text:000002b4 $t
G:\Users\Jaxb\AppData\Local\Temp\ccBU42mh.s:681    .text:000002b4 _task_delete
G:\Users\Jaxb\AppData\Local\Temp\ccBU42mh.s:802    .text:0000035c $d
G:\Users\Jaxb\AppData\Local\Temp\ccBU42mh.s:812    .text:00000360 $t
G:\Users\Jaxb\AppData\Local\Temp\ccBU42mh.s:866    .text:0000038c $d
G:\Users\Jaxb\AppData\Local\Temp\ccBU42mh.s:875    .rodata.name:00000014 __rtmsym_task_delete_name
G:\Users\Jaxb\AppData\Local\Temp\ccBU42mh.s:882    .RTMSymTab:00000008 __rtmsym_task_delete

UNDEFINED SYMBOLS
_ASSERT
ka_malloc
ka_memset
set_register
_register_in_TCB_list
ka_free
CPU_SR_Save
_delete_from_TCB_list
_delete_TCB_from_ready
_insert_ready_TCB
CPU_SR_Restore
schedule
ka_printf
_remove_from_suspend_list
_remove_from_delay_heap
