ARM GAS  G:\Users\Jaxb\AppData\Local\Temp\cc7Z0Mya.s 			page 1


   1              		.cpu cortex-m3
   2              		.eabi_attribute 20, 1
   3              		.eabi_attribute 21, 1
   4              		.eabi_attribute 23, 3
   5              		.eabi_attribute 24, 1
   6              		.eabi_attribute 25, 1
   7              		.eabi_attribute 26, 1
   8              		.eabi_attribute 30, 2
   9              		.eabi_attribute 34, 1
  10              		.eabi_attribute 18, 4
  11              		.file	"TCB.c"
  12              		.text
  13              	.Ltext0:
  14              		.cfi_sections	.debug_frame
  15              		.align	1
  16              		.p2align 2,,3
  17              		.global	task_init
  18              		.syntax unified
  19              		.thumb
  20              		.thumb_func
  21              		.fpu softvfp
  22              		.type	task_init, %function
  23              	task_init:
  24              	.LFB13:
  25              		.file 1 "../../source/src/kernel/OS_CORE/TCB.c"
   1:../../source/src/kernel/OS_CORE/TCB.c **** #include <TCB.h>
   2:../../source/src/kernel/OS_CORE/TCB.c **** #include <myassert.h>
   3:../../source/src/kernel/OS_CORE/TCB.c **** #include <myMicroLIB.h>
   4:../../source/src/kernel/OS_CORE/TCB.c **** #include <task_state.h>
   5:../../source/src/kernel/OS_CORE/TCB.c **** #include <os_TCB_list.h>
   6:../../source/src/kernel/OS_CORE/TCB.c **** #include <os_error.h>
   7:../../source/src/kernel/OS_CORE/TCB.c **** #include <os_cpu_stm32.h>
   8:../../source/src/kernel/OS_CORE/TCB.c **** #include <os_ready.h>
   9:../../source/src/kernel/OS_CORE/TCB.c **** #include <os_suspend.h>
  10:../../source/src/kernel/OS_CORE/TCB.c **** #include <os_delay.h>
  11:../../source/src/kernel/OS_CORE/TCB.c **** #include <os_schedule.h>
  12:../../source/src/kernel/OS_CORE/TCB.c **** 
  13:../../source/src/kernel/OS_CORE/TCB.c **** volatile TCB *OSTCBCurPtr;
  14:../../source/src/kernel/OS_CORE/TCB.c **** volatile TCB *OSTCBHighRdyPtr;
  15:../../source/src/kernel/OS_CORE/TCB.c **** volatile int g_interrupt_count = 0;
  16:../../source/src/kernel/OS_CORE/TCB.c **** 
  17:../../source/src/kernel/OS_CORE/TCB.c **** static inline void delete_myself(void)
  18:../../source/src/kernel/OS_CORE/TCB.c **** {
  19:../../source/src/kernel/OS_CORE/TCB.c **** 	task_delete((TCB *)OSTCBCurPtr);
  20:../../source/src/kernel/OS_CORE/TCB.c **** }
  21:../../source/src/kernel/OS_CORE/TCB.c **** 
  22:../../source/src/kernel/OS_CORE/TCB.c **** int _must_check task_init(
  23:../../source/src/kernel/OS_CORE/TCB.c **** 	TCB *TCB_ptr,
  24:../../source/src/kernel/OS_CORE/TCB.c **** 	unsigned int stack_size,
  25:../../source/src/kernel/OS_CORE/TCB.c **** 	TASK_PRIO_TYPE prio,
  26:../../source/src/kernel/OS_CORE/TCB.c **** 	unsigned int timeslice_hope_time,
  27:../../source/src/kernel/OS_CORE/TCB.c **** 	const char *name,
  28:../../source/src/kernel/OS_CORE/TCB.c **** 	functionptr function,
  29:../../source/src/kernel/OS_CORE/TCB.c **** 	void *para,
  30:../../source/src/kernel/OS_CORE/TCB.c **** 	TASK_STATE state)
  31:../../source/src/kernel/OS_CORE/TCB.c **** {
  26              		.loc 1 31 0
ARM GAS  G:\Users\Jaxb\AppData\Local\Temp\cc7Z0Mya.s 			page 2


  27              		.cfi_startproc
  28              		@ args = 16, pretend = 0, frame = 0
  29              		@ frame_needed = 0, uses_anonymous_args = 0
  30              	.LVL0:
  31 0000 2DE9F843 		push	{r3, r4, r5, r6, r7, r8, r9, lr}
  32              	.LCFI0:
  33              		.cfi_def_cfa_offset 32
  34              		.cfi_offset 3, -32
  35              		.cfi_offset 4, -28
  36              		.cfi_offset 5, -24
  37              		.cfi_offset 6, -20
  38              		.cfi_offset 7, -16
  39              		.cfi_offset 8, -12
  40              		.cfi_offset 9, -8
  41              		.cfi_offset 14, -4
  32:../../source/src/kernel/OS_CORE/TCB.c **** 	ASSERT(prio < PRIO_MAX);
  42              		.loc 1 32 0
  43 0004 3F2A     		cmp	r2, #63
  31:../../source/src/kernel/OS_CORE/TCB.c **** 	ASSERT(prio < PRIO_MAX);
  44              		.loc 1 31 0
  45 0006 1646     		mov	r6, r2
  46 0008 0446     		mov	r4, r0
  47 000a 0D46     		mov	r5, r1
  48 000c 9846     		mov	r8, r3
  49 000e 089F     		ldr	r7, [sp, #32]
  50 0010 9DF82C90 		ldrb	r9, [sp, #44]	@ zero_extendqisi2
  51              		.loc 1 32 0
  52 0014 3DD8     		bhi	.L13
  33:../../source/src/kernel/OS_CORE/TCB.c **** 	ASSERT(NULL != name);
  53              		.loc 1 33 0
  54 0016 002F     		cmp	r7, #0
  55 0018 41D0     		beq	.L14
  56              	.LVL1:
  57              	.L3:
  34:../../source/src/kernel/OS_CORE/TCB.c **** 	ASSERT(NULL != TCB_ptr);
  58              		.loc 1 34 0
  59 001a 002C     		cmp	r4, #0
  60 001c 45D0     		beq	.L15
  61              	.L4:
  35:../../source/src/kernel/OS_CORE/TCB.c **** #if CONFIG_PARA_CHECK
  36:../../source/src/kernel/OS_CORE/TCB.c **** 	if((prio >= PRIO_MAX) || (NULL == name) || (NULL == TCB_ptr))
  62              		.loc 1 36 0
  63 001e 3F2E     		cmp	r6, #63
  64 0020 48D8     		bhi	.L5
  65              		.loc 1 36 0 is_stmt 0 discriminator 1
  66 0022 002F     		cmp	r7, #0
  67 0024 46D0     		beq	.L5
  68              		.loc 1 36 0 discriminator 2
  69 0026 002C     		cmp	r4, #0
  70 0028 44D0     		beq	.L5
  37:../../source/src/kernel/OS_CORE/TCB.c **** 	{
  38:../../source/src/kernel/OS_CORE/TCB.c **** 		OS_ERROR_PARA_MESSAGE_DISPLAY(task_init,prio);
  39:../../source/src/kernel/OS_CORE/TCB.c **** 		OS_ERROR_PARA_MESSAGE_DISPLAY(task_init,name);
  40:../../source/src/kernel/OS_CORE/TCB.c **** 		OS_ERROR_PARA_MESSAGE_DISPLAY(task_init,TCB_ptr);
  41:../../source/src/kernel/OS_CORE/TCB.c **** 		return -ERROR_NULL_INPUT_PTR;
  42:../../source/src/kernel/OS_CORE/TCB.c **** 	}
  43:../../source/src/kernel/OS_CORE/TCB.c **** #endif
ARM GAS  G:\Users\Jaxb\AppData\Local\Temp\cc7Z0Mya.s 			page 3


  44:../../source/src/kernel/OS_CORE/TCB.c **** 	stack_size &= (~0x03);// according to CPU : 32bit?64bit
  71              		.loc 1 44 0 is_stmt 1
  72 002a 25F00305 		bic	r5, r5, #3
  73              	.LVL2:
  45:../../source/src/kernel/OS_CORE/TCB.c **** 	TCB_ptr->stack_end = (STACK_TYPE *)ka_malloc(stack_size);
  74              		.loc 1 45 0
  75 002e 2846     		mov	r0, r5
  76 0030 FFF7FEFF 		bl	ka_malloc
  77              	.LVL3:
  78 0034 0346     		mov	r3, r0
  79 0036 A060     		str	r0, [r4, #8]
  46:../../source/src/kernel/OS_CORE/TCB.c **** 	if(NULL == TCB_ptr->stack_end)
  80              		.loc 1 46 0
  81 0038 0028     		cmp	r0, #0
  82 003a 47D0     		beq	.L8
  47:../../source/src/kernel/OS_CORE/TCB.c **** 	{
  48:../../source/src/kernel/OS_CORE/TCB.c **** 		return -ERROR_ALLOCATE_STACK;
  49:../../source/src/kernel/OS_CORE/TCB.c **** 	}
  50:../../source/src/kernel/OS_CORE/TCB.c **** 	TCB_ptr->stack_size = stack_size;
  51:../../source/src/kernel/OS_CORE/TCB.c **** 	TCB_ptr->stack = (STACK_TYPE *)TCB_ptr->stack_end + stack_size/4 - 1;
  83              		.loc 1 51 0
  84 003c 2A1F     		subs	r2, r5, #4
  85 003e 1344     		add	r3, r3, r2
  86 0040 C4E90035 		strd	r3, r5, [r4]
  52:../../source/src/kernel/OS_CORE/TCB.c **** 	ASSERT((char *)(TCB_ptr->stack) == (char *)(TCB_ptr->stack_end) + stack_size - 4);
  53:../../source/src/kernel/OS_CORE/TCB.c **** 	ka_memset(TCB_ptr->stack_end,0,stack_size);
  87              		.loc 1 53 0
  88 0044 2A46     		mov	r2, r5
  89 0046 0021     		movs	r1, #0
  90 0048 FFF7FEFF 		bl	ka_memset
  91              	.LVL4:
  54:../../source/src/kernel/OS_CORE/TCB.c **** 	set_register((void **)&TCB_ptr->stack,function,delete_myself,para);
  92              		.loc 1 54 0
  93 004c 0A9B     		ldr	r3, [sp, #40]
  94 004e 214A     		ldr	r2, .L16
  95 0050 0999     		ldr	r1, [sp, #36]
  96 0052 2046     		mov	r0, r4
  97 0054 FFF7FEFF 		bl	set_register
  98              	.LVL5:
  55:../../source/src/kernel/OS_CORE/TCB.c **** 	TCB_ptr->prio = prio;
  56:../../source/src/kernel/OS_CORE/TCB.c **** 	TCB_ptr->reserve_prio = RESERVED_PRIO;
  99              		.loc 1 56 0
 100 0058 0025     		movs	r5, #0
 101              	.LVL6:
  57:../../source/src/kernel/OS_CORE/TCB.c **** 	TCB_ptr->task_state = state;
  58:../../source/src/kernel/OS_CORE/TCB.c **** 	TCB_ptr->attribution = DEFAULT_ATTRIBUTION | TCB_ATTRIBUTION_INIT;
  59:../../source/src/kernel/OS_CORE/TCB.c **** 	TCB_ptr->delay_reach_time = 0;
 102              		.loc 1 59 0
 103 005a 0022     		movs	r2, #0
 104 005c 0023     		movs	r3, #0
  60:../../source/src/kernel/OS_CORE/TCB.c **** 	TCB_ptr->delay_heap_position = 0;
  61:../../source/src/kernel/OS_CORE/TCB.c **** 	INIT_LIST_HEAD(&TCB_ptr->same_prio_list);
 105              		.loc 1 61 0
 106 005e 04F11C00 		add	r0, r4, #28
 107              	.LVL7:
  62:../../source/src/kernel/OS_CORE/TCB.c **** 	INIT_LIST_HEAD(&TCB_ptr->suspend_list);
 108              		.loc 1 62 0
ARM GAS  G:\Users\Jaxb\AppData\Local\Temp\cc7Z0Mya.s 			page 4


 109 0062 04F12401 		add	r1, r4, #36
 110              	.LBB6:
 111              	.LBB7:
 112              		.file 2 "../../source/include/os_lib/double_linked_list.h"
   1:../../source/include/os_lib/double_linked_list.h **** #ifndef _DOUBLE_LINKED_LIST_H
   2:../../source/include/os_lib/double_linked_list.h **** #define _DOUBLE_LINKED_LIST_H
   3:../../source/include/os_lib/double_linked_list.h **** 
   4:../../source/include/os_lib/double_linked_list.h **** struct list_head {
   5:../../source/include/os_lib/double_linked_list.h ****     struct list_head *next, *prev;
   6:../../source/include/os_lib/double_linked_list.h **** };
   7:../../source/include/os_lib/double_linked_list.h **** 
   8:../../source/include/os_lib/double_linked_list.h **** 
   9:../../source/include/os_lib/double_linked_list.h **** #define LIST_HEAD_INIT(name) { &(name), &(name) }
  10:../../source/include/os_lib/double_linked_list.h **** 
  11:../../source/include/os_lib/double_linked_list.h **** 
  12:../../source/include/os_lib/double_linked_list.h **** #define LIST_HEAD(name) \
  13:../../source/include/os_lib/double_linked_list.h ****     struct list_head name = LIST_HEAD_INIT(name)
  14:../../source/include/os_lib/double_linked_list.h **** 
  15:../../source/include/os_lib/double_linked_list.h **** 
  16:../../source/include/os_lib/double_linked_list.h **** static inline void INIT_LIST_HEAD(struct list_head *list)
  17:../../source/include/os_lib/double_linked_list.h **** {
  18:../../source/include/os_lib/double_linked_list.h ****     list->next = list;
  19:../../source/include/os_lib/double_linked_list.h ****     list->prev = list;
 113              		.loc 2 19 0
 114 0066 C4E90700 		strd	r0, r0, [r4, #28]
 115              	.LVL8:
 116              	.LBE7:
 117              	.LBE6:
  55:../../source/src/kernel/OS_CORE/TCB.c **** 	TCB_ptr->reserve_prio = RESERVED_PRIO;
 118              		.loc 1 55 0
 119 006a E660     		str	r6, [r4, #12]
  57:../../source/src/kernel/OS_CORE/TCB.c **** 	TCB_ptr->attribution = DEFAULT_ATTRIBUTION | TCB_ATTRIBUTION_INIT;
 120              		.loc 1 57 0
 121 006c 84F81490 		strb	r9, [r4, #20]
  63:../../source/src/kernel/OS_CORE/TCB.c **** 	TCB_ptr->name = (char *)name;
  64:../../source/src/kernel/OS_CORE/TCB.c **** 	TCB_ptr->timeslice_hope_time = timeslice_hope_time;
 122              		.loc 1 64 0
 123 0070 C4E90B78 		strd	r7, r8, [r4, #44]
  65:../../source/src/kernel/OS_CORE/TCB.c **** 	TCB_ptr->timeslice_rest_time = timeslice_hope_time;
 124              		.loc 1 65 0
 125 0074 C4F83480 		str	r8, [r4, #52]
  56:../../source/src/kernel/OS_CORE/TCB.c **** 	TCB_ptr->task_state = state;
 126              		.loc 1 56 0
 127 0078 2561     		str	r5, [r4, #16]
  58:../../source/src/kernel/OS_CORE/TCB.c **** 	TCB_ptr->delay_reach_time = 0;
 128              		.loc 1 58 0
 129 007a A563     		str	r5, [r4, #56]
  60:../../source/src/kernel/OS_CORE/TCB.c **** 	INIT_LIST_HEAD(&TCB_ptr->same_prio_list);
 130              		.loc 1 60 0
 131 007c A561     		str	r5, [r4, #24]
  59:../../source/src/kernel/OS_CORE/TCB.c **** 	TCB_ptr->delay_heap_position = 0;
 132              		.loc 1 59 0
 133 007e C4E91023 		strd	r2, [r4, #64]
 134              	.LBB8:
 135              	.LBB9:
 136              		.loc 2 19 0
 137 0082 C4E90911 		strd	r1, r1, [r4, #36]
ARM GAS  G:\Users\Jaxb\AppData\Local\Temp\cc7Z0Mya.s 			page 5


 138              	.LVL9:
 139              	.LBE9:
 140              	.LBE8:
  66:../../source/src/kernel/OS_CORE/TCB.c **** 	register_in_TCB_list(TCB_ptr);
 141              		.loc 1 66 0
 142 0086 2046     		mov	r0, r4
 143 0088 FFF7FEFF 		bl	register_in_TCB_list
 144              	.LVL10:
  67:../../source/src/kernel/OS_CORE/TCB.c **** 	return FUN_EXECUTE_SUCCESSFULLY;
 145              		.loc 1 67 0
 146 008c 2846     		mov	r0, r5
 147              	.LVL11:
 148              	.L1:
  68:../../source/src/kernel/OS_CORE/TCB.c **** }
 149              		.loc 1 68 0
 150 008e BDE8F883 		pop	{r3, r4, r5, r6, r7, r8, r9, pc}
 151              	.LVL12:
 152              	.L13:
  32:../../source/src/kernel/OS_CORE/TCB.c **** 	ASSERT(NULL != name);
 153              		.loc 1 32 0 discriminator 1
 154 0092 2021     		movs	r1, #32
 155              	.LVL13:
 156 0094 1048     		ldr	r0, .L16+4
 157              	.LVL14:
 158 0096 FFF7FEFF 		bl	_ASSERT
 159              	.LVL15:
  33:../../source/src/kernel/OS_CORE/TCB.c **** 	ASSERT(NULL != TCB_ptr);
 160              		.loc 1 33 0 discriminator 1
 161 009a 002F     		cmp	r7, #0
 162 009c BDD1     		bne	.L3
 163              	.L14:
 164 009e 2121     		movs	r1, #33
 165 00a0 0D48     		ldr	r0, .L16+4
 166 00a2 FFF7FEFF 		bl	_ASSERT
 167              	.LVL16:
  34:../../source/src/kernel/OS_CORE/TCB.c **** #if CONFIG_PARA_CHECK
 168              		.loc 1 34 0 discriminator 1
 169 00a6 002C     		cmp	r4, #0
 170 00a8 B9D1     		bne	.L4
 171              	.L15:
 172 00aa 2221     		movs	r1, #34
 173 00ac 0A48     		ldr	r0, .L16+4
 174 00ae FFF7FEFF 		bl	_ASSERT
 175              	.LVL17:
 176 00b2 B4E7     		b	.L4
 177              	.L5:
  38:../../source/src/kernel/OS_CORE/TCB.c **** 		OS_ERROR_PARA_MESSAGE_DISPLAY(task_init,name);
 178              		.loc 1 38 0
 179 00b4 0948     		ldr	r0, .L16+8
 180 00b6 FFF7FEFF 		bl	ka_printf
 181              	.LVL18:
  39:../../source/src/kernel/OS_CORE/TCB.c **** 		OS_ERROR_PARA_MESSAGE_DISPLAY(task_init,TCB_ptr);
 182              		.loc 1 39 0
 183 00ba 0948     		ldr	r0, .L16+12
 184 00bc FFF7FEFF 		bl	ka_printf
 185              	.LVL19:
  40:../../source/src/kernel/OS_CORE/TCB.c **** 		return -ERROR_NULL_INPUT_PTR;
ARM GAS  G:\Users\Jaxb\AppData\Local\Temp\cc7Z0Mya.s 			page 6


 186              		.loc 1 40 0
 187 00c0 0848     		ldr	r0, .L16+16
 188 00c2 FFF7FEFF 		bl	ka_printf
 189              	.LVL20:
  41:../../source/src/kernel/OS_CORE/TCB.c **** 	}
 190              		.loc 1 41 0
 191 00c6 6FF0FE00 		mvn	r0, #254
 192 00ca E0E7     		b	.L1
 193              	.L8:
  48:../../source/src/kernel/OS_CORE/TCB.c **** 	}
 194              		.loc 1 48 0
 195 00cc 4FF0FF30 		mov	r0, #-1
 196 00d0 DDE7     		b	.L1
 197              	.L17:
 198 00d2 00BF     		.align	2
 199              	.L16:
 200 00d4 00000000 		.word	delete_myself
 201 00d8 00000000 		.word	.LC0
 202 00dc 28000000 		.word	.LC1
 203 00e0 58000000 		.word	.LC2
 204 00e4 88000000 		.word	.LC3
 205              		.cfi_endproc
 206              	.LFE13:
 207              		.size	task_init, .-task_init
 208              		.align	1
 209              		.p2align 2,,3
 210              		.global	task_creat
 211              		.syntax unified
 212              		.thumb
 213              		.thumb_func
 214              		.fpu softvfp
 215              		.type	task_creat, %function
 216              	task_creat:
 217              	.LFB14:
  69:../../source/src/kernel/OS_CORE/TCB.c **** 
  70:../../source/src/kernel/OS_CORE/TCB.c **** TCB *_must_check task_creat(
  71:../../source/src/kernel/OS_CORE/TCB.c **** 	unsigned int stack_size,
  72:../../source/src/kernel/OS_CORE/TCB.c **** 	TASK_PRIO_TYPE prio,
  73:../../source/src/kernel/OS_CORE/TCB.c **** 	unsigned int timeslice_hope_time,
  74:../../source/src/kernel/OS_CORE/TCB.c **** 	const char *name,
  75:../../source/src/kernel/OS_CORE/TCB.c **** 	functionptr function,
  76:../../source/src/kernel/OS_CORE/TCB.c **** 	void *para,
  77:../../source/src/kernel/OS_CORE/TCB.c **** 	TASK_STATE state)
  78:../../source/src/kernel/OS_CORE/TCB.c **** {
 218              		.loc 1 78 0
 219              		.cfi_startproc
 220              		@ args = 12, pretend = 0, frame = 0
 221              		@ frame_needed = 0, uses_anonymous_args = 0
 222              	.LVL21:
 223 00e8 2DE9F043 		push	{r4, r5, r6, r7, r8, r9, lr}
 224              	.LCFI1:
 225              		.cfi_def_cfa_offset 28
 226              		.cfi_offset 4, -28
 227              		.cfi_offset 5, -24
 228              		.cfi_offset 6, -20
 229              		.cfi_offset 7, -16
 230              		.cfi_offset 8, -12
ARM GAS  G:\Users\Jaxb\AppData\Local\Temp\cc7Z0Mya.s 			page 7


 231              		.cfi_offset 9, -8
 232              		.cfi_offset 14, -4
  79:../../source/src/kernel/OS_CORE/TCB.c **** 	ASSERT((prio < PRIO_MAX));
 233              		.loc 1 79 0
 234 00ec 3F29     		cmp	r1, #63
  78:../../source/src/kernel/OS_CORE/TCB.c **** 	ASSERT((prio < PRIO_MAX));
 235              		.loc 1 78 0
 236 00ee 85B0     		sub	sp, sp, #20
 237              	.LCFI2:
 238              		.cfi_def_cfa_offset 48
  78:../../source/src/kernel/OS_CORE/TCB.c **** 	ASSERT((prio < PRIO_MAX));
 239              		.loc 1 78 0
 240 00f0 0E46     		mov	r6, r1
 241 00f2 0746     		mov	r7, r0
 242 00f4 9046     		mov	r8, r2
 243 00f6 1D46     		mov	r5, r3
 244 00f8 9DF83890 		ldrb	r9, [sp, #56]	@ zero_extendqisi2
 245              		.loc 1 79 0
 246 00fc 18D8     		bhi	.L28
  80:../../source/src/kernel/OS_CORE/TCB.c **** 	ASSERT(NULL != name);
 247              		.loc 1 80 0
 248 00fe E3B1     		cbz	r3, .L24
  81:../../source/src/kernel/OS_CORE/TCB.c **** #if CONFIG_PARA_CHECK
  82:../../source/src/kernel/OS_CORE/TCB.c **** 	if((prio >= PRIO_MAX) || (NULL == name))
  83:../../source/src/kernel/OS_CORE/TCB.c **** 	{
  84:../../source/src/kernel/OS_CORE/TCB.c **** 		OS_ERROR_PARA_MESSAGE_DISPLAY(task_creat,prio);
  85:../../source/src/kernel/OS_CORE/TCB.c **** 		OS_ERROR_PARA_MESSAGE_DISPLAY(task_creat,name);
  86:../../source/src/kernel/OS_CORE/TCB.c **** 		return NULL;
  87:../../source/src/kernel/OS_CORE/TCB.c **** 	}
  88:../../source/src/kernel/OS_CORE/TCB.c **** #endif
  89:../../source/src/kernel/OS_CORE/TCB.c **** 	TCB *TCB_ptr = ka_malloc(sizeof(TCB));
 249              		.loc 1 89 0
 250 0100 4820     		movs	r0, #72
 251              	.LVL22:
 252 0102 FFF7FEFF 		bl	ka_malloc
 253              	.LVL23:
  90:../../source/src/kernel/OS_CORE/TCB.c **** 	if(NULL == TCB_ptr)
 254              		.loc 1 90 0
 255 0106 0446     		mov	r4, r0
 256 0108 70B1     		cbz	r0, .L18
  91:../../source/src/kernel/OS_CORE/TCB.c **** 	{
  92:../../source/src/kernel/OS_CORE/TCB.c **** 		return NULL;
  93:../../source/src/kernel/OS_CORE/TCB.c **** 	}
  94:../../source/src/kernel/OS_CORE/TCB.c **** 	if(FUN_EXECUTE_SUCCESSFULLY != 
  95:../../source/src/kernel/OS_CORE/TCB.c **** 		task_init(	TCB_ptr,
 257              		.loc 1 95 0
 258 010a 0D9B     		ldr	r3, [sp, #52]
 259 010c CDF80C90 		str	r9, [sp, #12]
 260 0110 0293     		str	r3, [sp, #8]
 261 0112 0C9B     		ldr	r3, [sp, #48]
 262 0114 3246     		mov	r2, r6
 263 0116 CDE90053 		strd	r5, r3, [sp]
 264 011a 3946     		mov	r1, r7
 265 011c 4346     		mov	r3, r8
 266 011e FFF7FEFF 		bl	task_init
 267              	.LVL24:
  94:../../source/src/kernel/OS_CORE/TCB.c **** 		task_init(	TCB_ptr,
ARM GAS  G:\Users\Jaxb\AppData\Local\Temp\cc7Z0Mya.s 			page 8


 268              		.loc 1 94 0
 269 0122 C8B9     		cbnz	r0, .L29
  96:../../source/src/kernel/OS_CORE/TCB.c **** 					stack_size,
  97:../../source/src/kernel/OS_CORE/TCB.c **** 					prio,
  98:../../source/src/kernel/OS_CORE/TCB.c **** 					timeslice_hope_time,
  99:../../source/src/kernel/OS_CORE/TCB.c **** 					name,
 100:../../source/src/kernel/OS_CORE/TCB.c **** 					function,
 101:../../source/src/kernel/OS_CORE/TCB.c **** 					para,
 102:../../source/src/kernel/OS_CORE/TCB.c **** 					state)
 103:../../source/src/kernel/OS_CORE/TCB.c **** 	  )
 104:../../source/src/kernel/OS_CORE/TCB.c **** 	{
 105:../../source/src/kernel/OS_CORE/TCB.c **** 		ka_free(TCB_ptr);
 106:../../source/src/kernel/OS_CORE/TCB.c **** 		return NULL;
 107:../../source/src/kernel/OS_CORE/TCB.c **** 	}
 108:../../source/src/kernel/OS_CORE/TCB.c **** 	TCB_ptr->attribution = DEFAULT_ATTRIBUTION | TCB_ATTRIBUTION_CREATE;
 270              		.loc 1 108 0
 271 0124 0123     		movs	r3, #1
 272 0126 A363     		str	r3, [r4, #56]
 273              	.LVL25:
 274              	.L18:
 109:../../source/src/kernel/OS_CORE/TCB.c **** 	return TCB_ptr;
 110:../../source/src/kernel/OS_CORE/TCB.c **** }
 275              		.loc 1 110 0
 276 0128 2046     		mov	r0, r4
 277 012a 05B0     		add	sp, sp, #20
 278              	.LCFI3:
 279              		.cfi_remember_state
 280              		.cfi_def_cfa_offset 28
 281              		@ sp needed
 282 012c BDE8F083 		pop	{r4, r5, r6, r7, r8, r9, pc}
 283              	.LVL26:
 284              	.L28:
 285              	.LCFI4:
 286              		.cfi_restore_state
  79:../../source/src/kernel/OS_CORE/TCB.c **** 	ASSERT(NULL != name);
 287              		.loc 1 79 0 discriminator 1
 288 0130 4F21     		movs	r1, #79
 289              	.LVL27:
 290 0132 0C48     		ldr	r0, .L30
 291              	.LVL28:
 292 0134 FFF7FEFF 		bl	_ASSERT
 293              	.LVL29:
  80:../../source/src/kernel/OS_CORE/TCB.c **** #if CONFIG_PARA_CHECK
 294              		.loc 1 80 0 discriminator 1
 295 0138 1DB9     		cbnz	r5, .L20
 296              	.L24:
  80:../../source/src/kernel/OS_CORE/TCB.c **** #if CONFIG_PARA_CHECK
 297              		.loc 1 80 0 is_stmt 0
 298 013a 5021     		movs	r1, #80
 299 013c 0948     		ldr	r0, .L30
 300 013e FFF7FEFF 		bl	_ASSERT
 301              	.LVL30:
 302              	.L20:
  86:../../source/src/kernel/OS_CORE/TCB.c **** 	}
 303              		.loc 1 86 0 is_stmt 1
 304 0142 0024     		movs	r4, #0
  84:../../source/src/kernel/OS_CORE/TCB.c **** 		OS_ERROR_PARA_MESSAGE_DISPLAY(task_creat,name);
ARM GAS  G:\Users\Jaxb\AppData\Local\Temp\cc7Z0Mya.s 			page 9


 305              		.loc 1 84 0
 306 0144 0848     		ldr	r0, .L30+4
 307 0146 FFF7FEFF 		bl	ka_printf
 308              	.LVL31:
  85:../../source/src/kernel/OS_CORE/TCB.c **** 		return NULL;
 309              		.loc 1 85 0
 310 014a 0848     		ldr	r0, .L30+8
 311 014c FFF7FEFF 		bl	ka_printf
 312              	.LVL32:
 313              		.loc 1 110 0
 314 0150 2046     		mov	r0, r4
 315 0152 05B0     		add	sp, sp, #20
 316              	.LCFI5:
 317              		.cfi_remember_state
 318              		.cfi_def_cfa_offset 28
 319              		@ sp needed
 320 0154 BDE8F083 		pop	{r4, r5, r6, r7, r8, r9, pc}
 321              	.LVL33:
 322              	.L29:
 323              	.LCFI6:
 324              		.cfi_restore_state
 105:../../source/src/kernel/OS_CORE/TCB.c **** 		return NULL;
 325              		.loc 1 105 0
 326 0158 2046     		mov	r0, r4
 327 015a FFF7FEFF 		bl	ka_free
 328              	.LVL34:
 106:../../source/src/kernel/OS_CORE/TCB.c **** 	}
 329              		.loc 1 106 0
 330 015e 0024     		movs	r4, #0
 331              	.LVL35:
 332 0160 E2E7     		b	.L18
 333              	.L31:
 334 0162 00BF     		.align	2
 335              	.L30:
 336 0164 00000000 		.word	.LC0
 337 0168 BC000000 		.word	.LC4
 338 016c EC000000 		.word	.LC5
 339              		.cfi_endproc
 340              	.LFE14:
 341              		.size	task_creat, .-task_creat
 342              		.align	1
 343              		.p2align 2,,3
 344              		.global	task_change_prio
 345              		.syntax unified
 346              		.thumb
 347              		.thumb_func
 348              		.fpu softvfp
 349              		.type	task_change_prio, %function
 350              	task_change_prio:
 351              	.LFB15:
 111:../../source/src/kernel/OS_CORE/TCB.c **** 
 112:../../source/src/kernel/OS_CORE/TCB.c **** 
 113:../../source/src/kernel/OS_CORE/TCB.c **** 
 114:../../source/src/kernel/OS_CORE/TCB.c **** //this function shoul
 115:../../source/src/kernel/OS_CORE/TCB.c **** int task_change_prio(TCB *TCB_ptr,TASK_PRIO_TYPE prio)
 116:../../source/src/kernel/OS_CORE/TCB.c **** {
 352              		.loc 1 116 0
ARM GAS  G:\Users\Jaxb\AppData\Local\Temp\cc7Z0Mya.s 			page 10


 353              		.cfi_startproc
 354              		@ args = 0, pretend = 0, frame = 0
 355              		@ frame_needed = 0, uses_anonymous_args = 0
 356              	.LVL36:
 117:../../source/src/kernel/OS_CORE/TCB.c **** 	ASSERT(prio < PRIO_MAX);
 357              		.loc 1 117 0
 358 0170 3F29     		cmp	r1, #63
 116:../../source/src/kernel/OS_CORE/TCB.c **** 	ASSERT(prio < PRIO_MAX);
 359              		.loc 1 116 0
 360 0172 70B5     		push	{r4, r5, r6, lr}
 361              	.LCFI7:
 362              		.cfi_def_cfa_offset 16
 363              		.cfi_offset 4, -16
 364              		.cfi_offset 5, -12
 365              		.cfi_offset 6, -8
 366              		.cfi_offset 14, -4
 116:../../source/src/kernel/OS_CORE/TCB.c **** 	ASSERT(prio < PRIO_MAX);
 367              		.loc 1 116 0
 368 0174 0D46     		mov	r5, r1
 369 0176 0446     		mov	r4, r0
 370              		.loc 1 117 0
 371 0178 17D8     		bhi	.L42
 118:../../source/src/kernel/OS_CORE/TCB.c **** 	ASSERT(NULL != TCB_ptr);
 372              		.loc 1 118 0
 373 017a D8B1     		cbz	r0, .L41
 374              	.LVL37:
 119:../../source/src/kernel/OS_CORE/TCB.c **** #if CONFIG_PARA_CHECK
 120:../../source/src/kernel/OS_CORE/TCB.c **** 	if((prio >= PRIO_MAX) || (NULL == TCB_ptr))
 121:../../source/src/kernel/OS_CORE/TCB.c **** 	{
 122:../../source/src/kernel/OS_CORE/TCB.c **** 		OS_ERROR_PARA_MESSAGE_DISPLAY(task_change_prio,prio);
 123:../../source/src/kernel/OS_CORE/TCB.c **** 		OS_ERROR_PARA_MESSAGE_DISPLAY(task_change_prio,TCB_ptr);
 124:../../source/src/kernel/OS_CORE/TCB.c **** 		return -ERROR_NULL_INPUT_PTR;
 125:../../source/src/kernel/OS_CORE/TCB.c **** 	}
 126:../../source/src/kernel/OS_CORE/TCB.c **** #endif
 127:../../source/src/kernel/OS_CORE/TCB.c **** 	CPU_SR_ALLOC();
 128:../../source/src/kernel/OS_CORE/TCB.c **** 	CPU_CRITICAL_ENTER();
 375              		.loc 1 128 0
 376 017c FFF7FEFF 		bl	CPU_SR_Save
 377              	.LVL38:
 378 0180 0646     		mov	r6, r0
 379              	.LVL39:
 129:../../source/src/kernel/OS_CORE/TCB.c **** 	//1 step: delete it from TCB_list
 130:../../source/src/kernel/OS_CORE/TCB.c **** 	delete_from_TCB_list(TCB_ptr);
 380              		.loc 1 130 0
 381 0182 2046     		mov	r0, r4
 382              	.LVL40:
 383 0184 FFF7FEFF 		bl	delete_from_TCB_list
 384              	.LVL41:
 131:../../source/src/kernel/OS_CORE/TCB.c **** 	//2 step: according to the task_state,do some changes
 132:../../source/src/kernel/OS_CORE/TCB.c **** 	switch(TCB_ptr->task_state)
 385              		.loc 1 132 0
 386 0188 237D     		ldrb	r3, [r4, #20]	@ zero_extendqisi2
 387 018a 012B     		cmp	r3, #1
 388 018c 23D0     		beq	.L43
 389              	.L36:
 133:../../source/src/kernel/OS_CORE/TCB.c **** 	{
 134:../../source/src/kernel/OS_CORE/TCB.c **** 		case STATE_READY:
ARM GAS  G:\Users\Jaxb\AppData\Local\Temp\cc7Z0Mya.s 			page 11


 135:../../source/src/kernel/OS_CORE/TCB.c **** 			delete_TCB_from_ready(TCB_ptr);break;
 136:../../source/src/kernel/OS_CORE/TCB.c **** 		//add other state's handling code here
 137:../../source/src/kernel/OS_CORE/TCB.c **** 		/*
 138:../../source/src/kernel/OS_CORE/TCB.c **** 		 *
 139:../../source/src/kernel/OS_CORE/TCB.c **** 		 *
 140:../../source/src/kernel/OS_CORE/TCB.c **** 		 * 
 141:../../source/src/kernel/OS_CORE/TCB.c **** 		 */
 142:../../source/src/kernel/OS_CORE/TCB.c **** 		default: break;// do nothing
 143:../../source/src/kernel/OS_CORE/TCB.c **** 	}
 144:../../source/src/kernel/OS_CORE/TCB.c **** 	//3 step: change the prio
 145:../../source/src/kernel/OS_CORE/TCB.c **** 	TCB_ptr->prio = prio;
 390              		.loc 1 145 0
 391 018e E560     		str	r5, [r4, #12]
 146:../../source/src/kernel/OS_CORE/TCB.c **** 	//4 step: register into TCB_list
 147:../../source/src/kernel/OS_CORE/TCB.c **** 	register_in_TCB_list(TCB_ptr);
 392              		.loc 1 147 0
 393 0190 2046     		mov	r0, r4
 394 0192 FFF7FEFF 		bl	register_in_TCB_list
 395              	.LVL42:
 148:../../source/src/kernel/OS_CORE/TCB.c **** 	//5 step: according to the task_state,do some changes
 149:../../source/src/kernel/OS_CORE/TCB.c **** 	//this place should add different code according to the different task_state
 150:../../source/src/kernel/OS_CORE/TCB.c **** 	switch(TCB_ptr->task_state)
 396              		.loc 1 150 0
 397 0196 237D     		ldrb	r3, [r4, #20]	@ zero_extendqisi2
 398 0198 012B     		cmp	r3, #1
 399 019a 18D0     		beq	.L44
 400              	.L38:
 151:../../source/src/kernel/OS_CORE/TCB.c **** 	{
 152:../../source/src/kernel/OS_CORE/TCB.c **** 		case STATE_READY:
 153:../../source/src/kernel/OS_CORE/TCB.c **** 			insert_ready_TCB(TCB_ptr);break;
 154:../../source/src/kernel/OS_CORE/TCB.c **** 		//add other state's handling code here
 155:../../source/src/kernel/OS_CORE/TCB.c **** 		/*
 156:../../source/src/kernel/OS_CORE/TCB.c **** 		 *
 157:../../source/src/kernel/OS_CORE/TCB.c **** 		 *
 158:../../source/src/kernel/OS_CORE/TCB.c **** 		 * 
 159:../../source/src/kernel/OS_CORE/TCB.c **** 		 */
 160:../../source/src/kernel/OS_CORE/TCB.c **** 		default: break;// do nothing
 161:../../source/src/kernel/OS_CORE/TCB.c **** 	}
 162:../../source/src/kernel/OS_CORE/TCB.c **** 	CPU_CRITICAL_EXIT();
 401              		.loc 1 162 0
 402 019c 3046     		mov	r0, r6
 403 019e FFF7FEFF 		bl	CPU_SR_Restore
 404              	.LVL43:
 163:../../source/src/kernel/OS_CORE/TCB.c **** 	schedule();
 405              		.loc 1 163 0
 406 01a2 FFF7FEFF 		bl	schedule
 407              	.LVL44:
 164:../../source/src/kernel/OS_CORE/TCB.c **** 	return FUN_EXECUTE_SUCCESSFULLY;
 408              		.loc 1 164 0
 409 01a6 0020     		movs	r0, #0
 165:../../source/src/kernel/OS_CORE/TCB.c **** }
 410              		.loc 1 165 0
 411 01a8 70BD     		pop	{r4, r5, r6, pc}
 412              	.LVL45:
 413              	.L42:
 117:../../source/src/kernel/OS_CORE/TCB.c **** 	ASSERT(NULL != TCB_ptr);
 414              		.loc 1 117 0 discriminator 1
ARM GAS  G:\Users\Jaxb\AppData\Local\Temp\cc7Z0Mya.s 			page 12


 415 01aa 7521     		movs	r1, #117
 416              	.LVL46:
 417 01ac 0C48     		ldr	r0, .L45
 418              	.LVL47:
 419 01ae FFF7FEFF 		bl	_ASSERT
 420              	.LVL48:
 118:../../source/src/kernel/OS_CORE/TCB.c **** #if CONFIG_PARA_CHECK
 421              		.loc 1 118 0 discriminator 1
 422 01b2 1CB9     		cbnz	r4, .L34
 423              	.L41:
 118:../../source/src/kernel/OS_CORE/TCB.c **** #if CONFIG_PARA_CHECK
 424              		.loc 1 118 0 is_stmt 0
 425 01b4 7621     		movs	r1, #118
 426 01b6 0A48     		ldr	r0, .L45
 427 01b8 FFF7FEFF 		bl	_ASSERT
 428              	.LVL49:
 429              	.L34:
 122:../../source/src/kernel/OS_CORE/TCB.c **** 		OS_ERROR_PARA_MESSAGE_DISPLAY(task_change_prio,TCB_ptr);
 430              		.loc 1 122 0 is_stmt 1
 431 01bc 0948     		ldr	r0, .L45+4
 432 01be FFF7FEFF 		bl	ka_printf
 433              	.LVL50:
 123:../../source/src/kernel/OS_CORE/TCB.c **** 		return -ERROR_NULL_INPUT_PTR;
 434              		.loc 1 123 0
 435 01c2 0948     		ldr	r0, .L45+8
 436 01c4 FFF7FEFF 		bl	ka_printf
 437              	.LVL51:
 124:../../source/src/kernel/OS_CORE/TCB.c **** 	}
 438              		.loc 1 124 0
 439 01c8 6FF0FE00 		mvn	r0, #254
 440              		.loc 1 165 0
 441 01cc 70BD     		pop	{r4, r5, r6, pc}
 442              	.LVL52:
 443              	.L44:
 153:../../source/src/kernel/OS_CORE/TCB.c **** 		//add other state's handling code here
 444              		.loc 1 153 0
 445 01ce 2046     		mov	r0, r4
 446 01d0 FFF7FEFF 		bl	insert_ready_TCB
 447              	.LVL53:
 448 01d4 E2E7     		b	.L38
 449              	.L43:
 135:../../source/src/kernel/OS_CORE/TCB.c **** 		//add other state's handling code here
 450              		.loc 1 135 0
 451 01d6 2046     		mov	r0, r4
 452 01d8 FFF7FEFF 		bl	delete_TCB_from_ready
 453              	.LVL54:
 454 01dc D7E7     		b	.L36
 455              	.L46:
 456 01de 00BF     		.align	2
 457              	.L45:
 458 01e0 00000000 		.word	.LC0
 459 01e4 1C010000 		.word	.LC6
 460 01e8 54010000 		.word	.LC7
 461              		.cfi_endproc
 462              	.LFE15:
 463              		.size	task_change_prio, .-task_change_prio
 464              		.align	1
ARM GAS  G:\Users\Jaxb\AppData\Local\Temp\cc7Z0Mya.s 			page 13


 465              		.p2align 2,,3
 466              		.global	task_delete
 467              		.syntax unified
 468              		.thumb
 469              		.thumb_func
 470              		.fpu softvfp
 471              		.type	task_delete, %function
 472              	task_delete:
 473              	.LFB16:
 166:../../source/src/kernel/OS_CORE/TCB.c **** 
 167:../../source/src/kernel/OS_CORE/TCB.c **** int task_delete(TCB *TCB_ptr)
 168:../../source/src/kernel/OS_CORE/TCB.c **** {
 474              		.loc 1 168 0
 475              		.cfi_startproc
 476              		@ args = 0, pretend = 0, frame = 0
 477              		@ frame_needed = 0, uses_anonymous_args = 0
 478              	.LVL55:
 479 01ec 38B5     		push	{r3, r4, r5, lr}
 480              	.LCFI8:
 481              		.cfi_def_cfa_offset 16
 482              		.cfi_offset 3, -16
 483              		.cfi_offset 4, -12
 484              		.cfi_offset 5, -8
 485              		.cfi_offset 14, -4
 169:../../source/src/kernel/OS_CORE/TCB.c **** 	ASSERT(NULL != TCB_ptr);
 486              		.loc 1 169 0
 487 01ee 0446     		mov	r4, r0
 488 01f0 50B3     		cbz	r0, .L58
 489              	.LVL56:
 170:../../source/src/kernel/OS_CORE/TCB.c **** #if CONFIG_PARA_CHECK
 171:../../source/src/kernel/OS_CORE/TCB.c **** 	if(NULL == TCB_ptr)
 172:../../source/src/kernel/OS_CORE/TCB.c **** 	{
 173:../../source/src/kernel/OS_CORE/TCB.c **** 		OS_ERROR_PARA_MESSAGE_DISPLAY(task_delete,TCB_ptr);
 174:../../source/src/kernel/OS_CORE/TCB.c **** 		return -ERROR_NULL_INPUT_PTR;
 175:../../source/src/kernel/OS_CORE/TCB.c **** 	}
 176:../../source/src/kernel/OS_CORE/TCB.c **** #endif
 177:../../source/src/kernel/OS_CORE/TCB.c **** 	CPU_SR_ALLOC();
 178:../../source/src/kernel/OS_CORE/TCB.c **** 	CPU_CRITICAL_ENTER();
 490              		.loc 1 178 0
 491 01f2 FFF7FEFF 		bl	CPU_SR_Save
 492              	.LVL57:
 493 01f6 0546     		mov	r5, r0
 494              	.LVL58:
 179:../../source/src/kernel/OS_CORE/TCB.c **** 	delete_from_TCB_list(TCB_ptr);
 495              		.loc 1 179 0
 496 01f8 2046     		mov	r0, r4
 497              	.LVL59:
 498 01fa FFF7FEFF 		bl	delete_from_TCB_list
 499              	.LVL60:
 180:../../source/src/kernel/OS_CORE/TCB.c **** 	ka_free(TCB_ptr->stack_end);
 500              		.loc 1 180 0
 501 01fe A068     		ldr	r0, [r4, #8]
 502 0200 FFF7FEFF 		bl	ka_free
 503              	.LVL61:
 181:../../source/src/kernel/OS_CORE/TCB.c **** 	switch(TCB_ptr->task_state)
 504              		.loc 1 181 0
 505 0204 237D     		ldrb	r3, [r4, #20]	@ zero_extendqisi2
ARM GAS  G:\Users\Jaxb\AppData\Local\Temp\cc7Z0Mya.s 			page 14


 506 0206 022B     		cmp	r3, #2
 507 0208 1AD0     		beq	.L52
 508 020a 032B     		cmp	r3, #3
 509 020c 0ED0     		beq	.L50
 510 020e 012B     		cmp	r3, #1
 511 0210 02D1     		bne	.L51
 182:../../source/src/kernel/OS_CORE/TCB.c **** 	{
 183:../../source/src/kernel/OS_CORE/TCB.c **** 		case STATE_SUSPEND_NORMAL:
 184:../../source/src/kernel/OS_CORE/TCB.c **** 			remove_from_suspend_list(TCB_ptr);break;
 185:../../source/src/kernel/OS_CORE/TCB.c **** 		case STATE_DELAY:
 186:../../source/src/kernel/OS_CORE/TCB.c **** 			remove_from_delay_heap(TCB_ptr);break;
 187:../../source/src/kernel/OS_CORE/TCB.c **** 		case STATE_READY:
 188:../../source/src/kernel/OS_CORE/TCB.c **** 			delete_TCB_from_ready(TCB_ptr);break;
 512              		.loc 1 188 0
 513 0212 2046     		mov	r0, r4
 514 0214 FFF7FEFF 		bl	delete_TCB_from_ready
 515              	.LVL62:
 516              	.L51:
 189:../../source/src/kernel/OS_CORE/TCB.c **** 		//add other state's handling code here
 190:../../source/src/kernel/OS_CORE/TCB.c **** 		/*
 191:../../source/src/kernel/OS_CORE/TCB.c **** 		 *
 192:../../source/src/kernel/OS_CORE/TCB.c **** 		 *
 193:../../source/src/kernel/OS_CORE/TCB.c **** 		 * 
 194:../../source/src/kernel/OS_CORE/TCB.c **** 		 */
 195:../../source/src/kernel/OS_CORE/TCB.c **** 		default:
 196:../../source/src/kernel/OS_CORE/TCB.c **** 			break;
 197:../../source/src/kernel/OS_CORE/TCB.c **** 	}
 198:../../source/src/kernel/OS_CORE/TCB.c **** 	if(TCB_IS_CREATED(TCB_ptr))
 517              		.loc 1 198 0
 518 0218 A36B     		ldr	r3, [r4, #56]
 519 021a DB07     		lsls	r3, r3, #31
 520 021c 0CD4     		bmi	.L59
 521              	.L54:
 199:../../source/src/kernel/OS_CORE/TCB.c **** 	{
 200:../../source/src/kernel/OS_CORE/TCB.c **** 		ka_free(TCB_ptr);
 201:../../source/src/kernel/OS_CORE/TCB.c **** 	}
 202:../../source/src/kernel/OS_CORE/TCB.c **** 	CPU_CRITICAL_EXIT();
 522              		.loc 1 202 0
 523 021e 2846     		mov	r0, r5
 524 0220 FFF7FEFF 		bl	CPU_SR_Restore
 525              	.LVL63:
 203:../../source/src/kernel/OS_CORE/TCB.c **** 	schedule();
 526              		.loc 1 203 0
 527 0224 FFF7FEFF 		bl	schedule
 528              	.LVL64:
 204:../../source/src/kernel/OS_CORE/TCB.c **** 	return FUN_EXECUTE_SUCCESSFULLY;
 529              		.loc 1 204 0
 530 0228 0020     		movs	r0, #0
 205:../../source/src/kernel/OS_CORE/TCB.c **** }
 531              		.loc 1 205 0
 532 022a 38BD     		pop	{r3, r4, r5, pc}
 533              	.LVL65:
 534              	.L50:
 184:../../source/src/kernel/OS_CORE/TCB.c **** 		case STATE_DELAY:
 535              		.loc 1 184 0
 536 022c 2046     		mov	r0, r4
 537 022e FFF7FEFF 		bl	remove_from_suspend_list
ARM GAS  G:\Users\Jaxb\AppData\Local\Temp\cc7Z0Mya.s 			page 15


 538              	.LVL66:
 198:../../source/src/kernel/OS_CORE/TCB.c **** 	{
 539              		.loc 1 198 0
 540 0232 A36B     		ldr	r3, [r4, #56]
 541 0234 DB07     		lsls	r3, r3, #31
 542 0236 F2D5     		bpl	.L54
 543              	.L59:
 200:../../source/src/kernel/OS_CORE/TCB.c **** 	}
 544              		.loc 1 200 0
 545 0238 2046     		mov	r0, r4
 546 023a FFF7FEFF 		bl	ka_free
 547              	.LVL67:
 548 023e EEE7     		b	.L54
 549              	.L52:
 186:../../source/src/kernel/OS_CORE/TCB.c **** 		case STATE_READY:
 550              		.loc 1 186 0
 551 0240 2046     		mov	r0, r4
 552 0242 FFF7FEFF 		bl	remove_from_delay_heap
 553              	.LVL68:
 554 0246 E7E7     		b	.L51
 555              	.LVL69:
 556              	.L58:
 169:../../source/src/kernel/OS_CORE/TCB.c **** #if CONFIG_PARA_CHECK
 557              		.loc 1 169 0 discriminator 1
 558 0248 A921     		movs	r1, #169
 559 024a 0448     		ldr	r0, .L60
 560              	.LVL70:
 561 024c FFF7FEFF 		bl	_ASSERT
 562              	.LVL71:
 173:../../source/src/kernel/OS_CORE/TCB.c **** 		return -ERROR_NULL_INPUT_PTR;
 563              		.loc 1 173 0 discriminator 1
 564 0250 0348     		ldr	r0, .L60+4
 565 0252 FFF7FEFF 		bl	ka_printf
 566              	.LVL72:
 174:../../source/src/kernel/OS_CORE/TCB.c **** 	}
 567              		.loc 1 174 0 discriminator 1
 568 0256 6FF0FE00 		mvn	r0, #254
 569              		.loc 1 205 0 discriminator 1
 570 025a 38BD     		pop	{r3, r4, r5, pc}
 571              	.LVL73:
 572              	.L61:
 573              		.align	2
 574              	.L60:
 575 025c 00000000 		.word	.LC0
 576 0260 8C010000 		.word	.LC8
 577              		.cfi_endproc
 578              	.LFE16:
 579              		.size	task_delete, .-task_delete
 580              		.align	1
 581              		.p2align 2,,3
 582              		.syntax unified
 583              		.thumb
 584              		.thumb_func
 585              		.fpu softvfp
 586              		.type	delete_myself, %function
 587              	delete_myself:
 588              	.LFB12:
ARM GAS  G:\Users\Jaxb\AppData\Local\Temp\cc7Z0Mya.s 			page 16


  18:../../source/src/kernel/OS_CORE/TCB.c **** 	task_delete((TCB *)OSTCBCurPtr);
 589              		.loc 1 18 0
 590              		.cfi_startproc
 591              		@ args = 0, pretend = 0, frame = 0
 592              		@ frame_needed = 0, uses_anonymous_args = 0
 593              		@ link register save eliminated.
  19:../../source/src/kernel/OS_CORE/TCB.c **** }
 594              		.loc 1 19 0
 595 0264 014B     		ldr	r3, .L63
 596 0266 1868     		ldr	r0, [r3]
 597 0268 FFF7FEBF 		b	task_delete
 598              	.LVL74:
 599              	.L64:
 600              		.align	2
 601              	.L63:
 602 026c 00000000 		.word	OSTCBCurPtr
 603              		.cfi_endproc
 604              	.LFE12:
 605              		.size	delete_myself, .-delete_myself
 606              		.global	g_interrupt_count
 607              		.comm	OSTCBHighRdyPtr,4,4
 608              		.comm	OSTCBCurPtr,4,4
 609              		.bss
 610              		.align	2
 611              		.type	g_interrupt_count, %object
 612              		.size	g_interrupt_count, 4
 613              	g_interrupt_count:
 614 0000 00000000 		.space	4
 615              		.section	.rodata.str1.4,"aMS",%progbits,1
 616              		.align	2
 617              	.LC0:
 618 0000 2E2E2F2E 		.ascii	"../../source/src/kernel/OS_CORE/TCB.c\000"
 618      2E2F736F 
 618      75726365 
 618      2F737263 
 618      2F6B6572 
 619 0026 0000     		.space	2
 620              	.LC1:
 621 0028 6572726F 		.ascii	"error fun name : task_init\012error para : prio\012"
 621      72206675 
 621      6E206E61 
 621      6D65203A 
 621      20746173 
 622 0055 00       		.ascii	"\000"
 623 0056 0000     		.space	2
 624              	.LC2:
 625 0058 6572726F 		.ascii	"error fun name : task_init\012error para : name\012"
 625      72206675 
 625      6E206E61 
 625      6D65203A 
 625      20746173 
 626 0085 00       		.ascii	"\000"
 627 0086 0000     		.space	2
 628              	.LC3:
 629 0088 6572726F 		.ascii	"error fun name : task_init\012error para : TCB_ptr\012"
 629      72206675 
 629      6E206E61 
ARM GAS  G:\Users\Jaxb\AppData\Local\Temp\cc7Z0Mya.s 			page 17


 629      6D65203A 
 629      20746173 
 630 00b8 00       		.ascii	"\000"
 631 00b9 000000   		.space	3
 632              	.LC4:
 633 00bc 6572726F 		.ascii	"error fun name : task_creat\012error para : prio\012"
 633      72206675 
 633      6E206E61 
 633      6D65203A 
 633      20746173 
 634 00ea 00       		.ascii	"\000"
 635 00eb 00       		.space	1
 636              	.LC5:
 637 00ec 6572726F 		.ascii	"error fun name : task_creat\012error para : name\012"
 637      72206675 
 637      6E206E61 
 637      6D65203A 
 637      20746173 
 638 011a 00       		.ascii	"\000"
 639 011b 00       		.space	1
 640              	.LC6:
 641 011c 6572726F 		.ascii	"error fun name : task_change_prio\012error para : p"
 641      72206675 
 641      6E206E61 
 641      6D65203A 
 641      20746173 
 642 014c 72696F0A 		.ascii	"rio\012\000"
 642      00
 643 0151 000000   		.space	3
 644              	.LC7:
 645 0154 6572726F 		.ascii	"error fun name : task_change_prio\012error para : T"
 645      72206675 
 645      6E206E61 
 645      6D65203A 
 645      20746173 
 646 0184 43425F70 		.ascii	"CB_ptr\012\000"
 646      74720A00 
 647              	.LC8:
 648 018c 6572726F 		.ascii	"error fun name : task_delete\012error para : TCB_pt"
 648      72206675 
 648      6E206E61 
 648      6D65203A 
 648      20746173 
 649 01bc 720A00   		.ascii	"r\012\000"
 650              		.text
 651              	.Letext0:
 652              		.file 3 "../../source/include/os_cpu/kakaosstdint.h"
 653              		.file 4 "../../source/include/os_core/task_state.h"
 654              		.file 5 "../../source/include/os_core/TCB.h"
 655              		.file 6 "../../source/include/os_cpu/os_cpu_stm32.h"
 656              		.file 7 "../../source/include/os_core/schedule/os_TCB_list.h"
 657              		.file 8 "../../source/include/os_lib/myMicroLIB.h"
 658              		.file 9 "../../source/include/os_core/schedule/os_ready.h"
 659              		.file 10 "../../source/include/os_core/schedule/os_schedule.h"
 660              		.file 11 "../../source/include/os_core/schedule/os_suspend.h"
 661              		.file 12 "../../source/include/os_core/schedule/os_delay.h"
 662              		.file 13 "../../source/include/os_lib/myassert.h"
ARM GAS  G:\Users\Jaxb\AppData\Local\Temp\cc7Z0Mya.s 			page 18

