ARM GAS  G:\Users\Jaxb\AppData\Local\Temp\ccphT0IW.s 			page 1


   1              		.cpu cortex-m3
   2              		.eabi_attribute 20, 1
   3              		.eabi_attribute 21, 1
   4              		.eabi_attribute 23, 3
   5              		.eabi_attribute 24, 1
   6              		.eabi_attribute 25, 1
   7              		.eabi_attribute 26, 1
   8              		.eabi_attribute 30, 6
   9              		.eabi_attribute 34, 1
  10              		.eabi_attribute 18, 4
  11              		.file	"TCB.c"
  12              		.text
  13              	.Ltext0:
  14              		.cfi_sections	.debug_frame
  15              		.align	1
  16              		.syntax unified
  17              		.thumb
  18              		.thumb_func
  19              		.fpu softvfp
  20              		.type	INIT_LIST_HEAD, %function
  21              	INIT_LIST_HEAD:
  22              	.LFB0:
  23              		.file 1 "../../source/include/os_lib/double_linked_list.h"
   1:../../source/include/os_lib/double_linked_list.h **** #ifndef _DOUBLE_LINKED_LIST_H
   2:../../source/include/os_lib/double_linked_list.h **** #define _DOUBLE_LINKED_LIST_H
   3:../../source/include/os_lib/double_linked_list.h **** 
   4:../../source/include/os_lib/double_linked_list.h **** struct list_head {
   5:../../source/include/os_lib/double_linked_list.h ****     struct list_head *next, *prev;
   6:../../source/include/os_lib/double_linked_list.h **** };
   7:../../source/include/os_lib/double_linked_list.h **** 
   8:../../source/include/os_lib/double_linked_list.h **** 
   9:../../source/include/os_lib/double_linked_list.h **** #define LIST_HEAD_INIT(name) { &(name), &(name) }
  10:../../source/include/os_lib/double_linked_list.h **** 
  11:../../source/include/os_lib/double_linked_list.h **** 
  12:../../source/include/os_lib/double_linked_list.h **** #define LIST_HEAD(name) \
  13:../../source/include/os_lib/double_linked_list.h ****     struct list_head name = LIST_HEAD_INIT(name)
  14:../../source/include/os_lib/double_linked_list.h **** 
  15:../../source/include/os_lib/double_linked_list.h **** 
  16:../../source/include/os_lib/double_linked_list.h **** static inline void INIT_LIST_HEAD(struct list_head *list)
  17:../../source/include/os_lib/double_linked_list.h **** {
  24              		.loc 1 17 0
  25              		.cfi_startproc
  26              		@ args = 0, pretend = 0, frame = 8
  27              		@ frame_needed = 1, uses_anonymous_args = 0
  28              		@ link register save eliminated.
  29 0000 80B4     		push	{r7}
  30              	.LCFI0:
  31              		.cfi_def_cfa_offset 4
  32              		.cfi_offset 7, -4
  33 0002 83B0     		sub	sp, sp, #12
  34              	.LCFI1:
  35              		.cfi_def_cfa_offset 16
  36 0004 00AF     		add	r7, sp, #0
  37              	.LCFI2:
  38              		.cfi_def_cfa_register 7
  39 0006 7860     		str	r0, [r7, #4]
  18:../../source/include/os_lib/double_linked_list.h ****     list->next = list;
ARM GAS  G:\Users\Jaxb\AppData\Local\Temp\ccphT0IW.s 			page 2


  40              		.loc 1 18 0
  41 0008 7B68     		ldr	r3, [r7, #4]
  42 000a 7A68     		ldr	r2, [r7, #4]
  43 000c 1A60     		str	r2, [r3]
  19:../../source/include/os_lib/double_linked_list.h ****     list->prev = list;
  44              		.loc 1 19 0
  45 000e 7B68     		ldr	r3, [r7, #4]
  46 0010 7A68     		ldr	r2, [r7, #4]
  47 0012 5A60     		str	r2, [r3, #4]
  20:../../source/include/os_lib/double_linked_list.h **** }
  48              		.loc 1 20 0
  49 0014 00BF     		nop
  50 0016 0C37     		adds	r7, r7, #12
  51              	.LCFI3:
  52              		.cfi_def_cfa_offset 4
  53 0018 BD46     		mov	sp, r7
  54              	.LCFI4:
  55              		.cfi_def_cfa_register 13
  56              		@ sp needed
  57 001a 80BC     		pop	{r7}
  58              	.LCFI5:
  59              		.cfi_restore 7
  60              		.cfi_def_cfa_offset 0
  61 001c 7047     		bx	lr
  62              		.cfi_endproc
  63              	.LFE0:
  64              		.size	INIT_LIST_HEAD, .-INIT_LIST_HEAD
  65              		.align	1
  66              		.syntax unified
  67              		.thumb
  68              		.thumb_func
  69              		.fpu softvfp
  70              		.type	set_module_state, %function
  71              	set_module_state:
  72              	.LFB12:
  73              		.file 2 "../../source/include/os_core/module.h"
   1:../../source/include/os_core/module.h **** #ifndef _MODULE_H
   2:../../source/include/os_core/module.h **** #define _MODULE_H
   3:../../source/include/os_core/module.h **** 
   4:../../source/include/os_core/module.h **** #include <double_linked_list.h>
   5:../../source/include/os_core/module.h **** #include <TCB.h>
   6:../../source/include/os_core/module.h **** #include <kakaosstdint.h>
   7:../../source/include/os_core/module.h **** #include <export.h>
   8:../../source/include/os_core/module.h **** 
   9:../../source/include/os_core/module.h **** #define RT_DLMODULE_STAT_INIT       0x00
  10:../../source/include/os_core/module.h **** #define RT_DLMODULE_STAT_RUNNING    0x01
  11:../../source/include/os_core/module.h **** #define RT_DLMODULE_STAT_CLOSING    0x02
  12:../../source/include/os_core/module.h **** #define RT_DLMODULE_STAT_CLOSED     0x03
  13:../../source/include/os_core/module.h **** 
  14:../../source/include/os_core/module.h **** #define D_MODULE_NAME_MAX               32
  15:../../source/include/os_core/module.h **** #define D_MODULE_DEFAULT_NAME           "dynamic module"
  16:../../source/include/os_core/module.h **** #define D_MODULE_DEFAULT_PRIO           (PRIO_MAX-2)
  17:../../source/include/os_core/module.h **** #define D_MODULE_DEFAULT_STACK_SIZE     2048
  18:../../source/include/os_core/module.h **** 
  19:../../source/include/os_core/module.h **** #define module_init(initfn)                 \
  20:../../source/include/os_core/module.h ****     int init_module(void) __attribute__((alias(#initfn)))
  21:../../source/include/os_core/module.h ****     
ARM GAS  G:\Users\Jaxb\AppData\Local\Temp\ccphT0IW.s 			page 3


  22:../../source/include/os_core/module.h **** #define module_exit(initfn)                 \
  23:../../source/include/os_core/module.h ****     int exit_module(void) __attribute__((alias(#initfn)))
  24:../../source/include/os_core/module.h **** 
  25:../../source/include/os_core/module.h **** //===================
  26:../../source/include/os_core/module.h **** //module state
  27:../../source/include/os_core/module.h **** 
  28:../../source/include/os_core/module.h **** #define MODULE_STATE_DEFAULT    0x00
  29:../../source/include/os_core/module.h **** #define MODULE_STATE_INIT       MODULE_STATE_DEFAULT
  30:../../source/include/os_core/module.h **** #define MODULE_STATE_LOADED     0x01
  31:../../source/include/os_core/module.h **** #define MODULE_STATE_RUN        0x02
  32:../../source/include/os_core/module.h **** //======================================================
  33:../../source/include/os_core/module.h **** 
  34:../../source/include/os_core/module.h **** struct dynamic_module
  35:../../source/include/os_core/module.h **** {
  36:../../source/include/os_core/module.h ****     char name[D_MODULE_NAME_MAX];
  37:../../source/include/os_core/module.h ****     struct list_head module_list;   //link all modules
  38:../../source/include/os_core/module.h ****     UINT32 module_state;
  39:../../source/include/os_core/module.h ****     int (*init)(void);              //this function will be called before module execute
  40:../../source/include/os_core/module.h ****     void (*exit)(void);             //this function will be called after module return 
  41:../../source/include/os_core/module.h ****     void *module_space;
  42:../../source/include/os_core/module.h ****     unsigned int module_size;
  43:../../source/include/os_core/module.h ****     void *init_space;               // not use
  44:../../source/include/os_core/module.h ****     void *entry;                    //module entry point
  45:../../source/include/os_core/module.h ****     UINT32 vstart_addr;            //VMA base address for the first LOAD segment
  46:../../source/include/os_core/module.h ****     struct ka_module_symtab *export_symbols_array;
  47:../../source/include/os_core/module.h ****     unsigned int export_symbols_num;
  48:../../source/include/os_core/module.h ****     unsigned int ref;
  49:../../source/include/os_core/module.h ****     TCB *thread_TCB_ptr;
  50:../../source/include/os_core/module.h **** };
  51:../../source/include/os_core/module.h **** 
  52:../../source/include/os_core/module.h **** typedef struct dynamic_module d_module;
  53:../../source/include/os_core/module.h **** 
  54:../../source/include/os_core/module.h **** static inline void set_module_state(struct dynamic_module *dynamic_module_ptr,UINT32 state)
  55:../../source/include/os_core/module.h **** {
  74              		.loc 2 55 0
  75              		.cfi_startproc
  76              		@ args = 0, pretend = 0, frame = 8
  77              		@ frame_needed = 1, uses_anonymous_args = 0
  78              		@ link register save eliminated.
  79 001e 80B4     		push	{r7}
  80              	.LCFI6:
  81              		.cfi_def_cfa_offset 4
  82              		.cfi_offset 7, -4
  83 0020 83B0     		sub	sp, sp, #12
  84              	.LCFI7:
  85              		.cfi_def_cfa_offset 16
  86 0022 00AF     		add	r7, sp, #0
  87              	.LCFI8:
  88              		.cfi_def_cfa_register 7
  89 0024 7860     		str	r0, [r7, #4]
  90 0026 3960     		str	r1, [r7]
  56:../../source/include/os_core/module.h ****     dynamic_module_ptr->module_state |= state;
  91              		.loc 2 56 0
  92 0028 7B68     		ldr	r3, [r7, #4]
  93 002a 9A6A     		ldr	r2, [r3, #40]
  94 002c 3B68     		ldr	r3, [r7]
  95 002e 1A43     		orrs	r2, r2, r3
ARM GAS  G:\Users\Jaxb\AppData\Local\Temp\ccphT0IW.s 			page 4


  96 0030 7B68     		ldr	r3, [r7, #4]
  97 0032 9A62     		str	r2, [r3, #40]
  57:../../source/include/os_core/module.h **** }
  98              		.loc 2 57 0
  99 0034 00BF     		nop
 100 0036 0C37     		adds	r7, r7, #12
 101              	.LCFI9:
 102              		.cfi_def_cfa_offset 4
 103 0038 BD46     		mov	sp, r7
 104              	.LCFI10:
 105              		.cfi_def_cfa_register 13
 106              		@ sp needed
 107 003a 80BC     		pop	{r7}
 108              	.LCFI11:
 109              		.cfi_restore 7
 110              		.cfi_def_cfa_offset 0
 111 003c 7047     		bx	lr
 112              		.cfi_endproc
 113              	.LFE12:
 114              		.size	set_module_state, .-set_module_state
 115              		.comm	OSTCBCurPtr,4,4
 116              		.comm	OSTCBHighRdyPtr,4,4
 117              		.global	g_interrupt_count
 118              		.bss
 119              		.align	2
 120              		.type	g_interrupt_count, %object
 121              		.size	g_interrupt_count, 4
 122              	g_interrupt_count:
 123 0000 00000000 		.space	4
 124              		.text
 125              		.align	1
 126              		.syntax unified
 127              		.thumb
 128              		.thumb_func
 129              		.fpu softvfp
 130              		.type	delete_myself, %function
 131              	delete_myself:
 132              	.LFB13:
 133              		.file 3 "../../source/src/kernel/OS_CORE/TCB.c"
   1:../../source/src/kernel/OS_CORE/TCB.c **** #include <TCB.h>
   2:../../source/src/kernel/OS_CORE/TCB.c **** #include <myassert.h>
   3:../../source/src/kernel/OS_CORE/TCB.c **** #include <myMicroLIB.h>
   4:../../source/src/kernel/OS_CORE/TCB.c **** #include <task_state.h>
   5:../../source/src/kernel/OS_CORE/TCB.c **** #include <os_TCB_list.h>
   6:../../source/src/kernel/OS_CORE/TCB.c **** #include <os_error.h>
   7:../../source/src/kernel/OS_CORE/TCB.c **** #include <os_cpu_stm32.h>
   8:../../source/src/kernel/OS_CORE/TCB.c **** #include <os_ready.h>
   9:../../source/src/kernel/OS_CORE/TCB.c **** #include <os_suspend.h>
  10:../../source/src/kernel/OS_CORE/TCB.c **** #include <os_delay.h>
  11:../../source/src/kernel/OS_CORE/TCB.c **** #include <os_schedule.h>
  12:../../source/src/kernel/OS_CORE/TCB.c **** #include <module.h>
  13:../../source/src/kernel/OS_CORE/TCB.c **** 
  14:../../source/src/kernel/OS_CORE/TCB.c **** volatile TCB *OSTCBCurPtr;
  15:../../source/src/kernel/OS_CORE/TCB.c **** volatile TCB *OSTCBHighRdyPtr;
  16:../../source/src/kernel/OS_CORE/TCB.c **** volatile int g_interrupt_count = 0;
  17:../../source/src/kernel/OS_CORE/TCB.c **** 
  18:../../source/src/kernel/OS_CORE/TCB.c **** static void delete_myself(void)
ARM GAS  G:\Users\Jaxb\AppData\Local\Temp\ccphT0IW.s 			page 5


  19:../../source/src/kernel/OS_CORE/TCB.c **** {
 134              		.loc 3 19 0
 135              		.cfi_startproc
 136              		@ args = 0, pretend = 0, frame = 0
 137              		@ frame_needed = 1, uses_anonymous_args = 0
 138 003e 80B5     		push	{r7, lr}
 139              	.LCFI12:
 140              		.cfi_def_cfa_offset 8
 141              		.cfi_offset 7, -8
 142              		.cfi_offset 14, -4
 143 0040 00AF     		add	r7, sp, #0
 144              	.LCFI13:
 145              		.cfi_def_cfa_register 7
  20:../../source/src/kernel/OS_CORE/TCB.c **** 	task_delete((TCB *)OSTCBCurPtr);
 146              		.loc 3 20 0
 147 0042 034B     		ldr	r3, .L4
 148 0044 1B68     		ldr	r3, [r3]
 149 0046 1846     		mov	r0, r3
 150 0048 FFF7FEFF 		bl	task_delete
  21:../../source/src/kernel/OS_CORE/TCB.c **** }
 151              		.loc 3 21 0
 152 004c 00BF     		nop
 153 004e 80BD     		pop	{r7, pc}
 154              	.L5:
 155              		.align	2
 156              	.L4:
 157 0050 00000000 		.word	OSTCBCurPtr
 158              		.cfi_endproc
 159              	.LFE13:
 160              		.size	delete_myself, .-delete_myself
 161              		.section	.rodata
 162              		.align	2
 163              	.LC0:
 164 0000 2E2E2F2E 		.ascii	"../../source/src/kernel/OS_CORE/TCB.c\000"
 164      2E2F736F 
 164      75726365 
 164      2F737263 
 164      2F6B6572 
 165 0026 0000     		.align	2
 166              	.LC1:
 167 0028 6572726F 		.ascii	"error fun name : task_init\012error para : prio\012"
 167      72206675 
 167      6E206E61 
 167      6D65203A 
 167      20746173 
 168 0055 00       		.ascii	"\000"
 169 0056 0000     		.align	2
 170              	.LC2:
 171 0058 6572726F 		.ascii	"error fun name : task_init\012error para : name\012"
 171      72206675 
 171      6E206E61 
 171      6D65203A 
 171      20746173 
 172 0085 00       		.ascii	"\000"
 173 0086 0000     		.align	2
 174              	.LC3:
 175 0088 6572726F 		.ascii	"error fun name : task_init\012error para : TCB_ptr\012"
ARM GAS  G:\Users\Jaxb\AppData\Local\Temp\ccphT0IW.s 			page 6


 175      72206675 
 175      6E206E61 
 175      6D65203A 
 175      20746173 
 176 00b8 00       		.ascii	"\000"
 177              		.text
 178              		.align	1
 179              		.global	task_init
 180              		.syntax unified
 181              		.thumb
 182              		.thumb_func
 183              		.fpu softvfp
 184              		.type	task_init, %function
 185              	task_init:
 186              	.LFB14:
  22:../../source/src/kernel/OS_CORE/TCB.c **** 
  23:../../source/src/kernel/OS_CORE/TCB.c **** int _must_check task_init(
  24:../../source/src/kernel/OS_CORE/TCB.c **** 	TCB *TCB_ptr,
  25:../../source/src/kernel/OS_CORE/TCB.c **** 	unsigned int stack_size,
  26:../../source/src/kernel/OS_CORE/TCB.c **** 	TASK_PRIO_TYPE prio,
  27:../../source/src/kernel/OS_CORE/TCB.c **** 	unsigned int timeslice_hope_time,
  28:../../source/src/kernel/OS_CORE/TCB.c **** 	const char *name,
  29:../../source/src/kernel/OS_CORE/TCB.c **** 	functionptr function,
  30:../../source/src/kernel/OS_CORE/TCB.c **** 	void *para,
  31:../../source/src/kernel/OS_CORE/TCB.c **** 	TASK_STATE state)
  32:../../source/src/kernel/OS_CORE/TCB.c **** {
 187              		.loc 3 32 0
 188              		.cfi_startproc
 189              		@ args = 16, pretend = 0, frame = 16
 190              		@ frame_needed = 1, uses_anonymous_args = 0
 191 0054 90B5     		push	{r4, r7, lr}
 192              	.LCFI14:
 193              		.cfi_def_cfa_offset 12
 194              		.cfi_offset 4, -12
 195              		.cfi_offset 7, -8
 196              		.cfi_offset 14, -4
 197 0056 85B0     		sub	sp, sp, #20
 198              	.LCFI15:
 199              		.cfi_def_cfa_offset 32
 200 0058 00AF     		add	r7, sp, #0
 201              	.LCFI16:
 202              		.cfi_def_cfa_register 7
 203 005a F860     		str	r0, [r7, #12]
 204 005c B960     		str	r1, [r7, #8]
 205 005e 7A60     		str	r2, [r7, #4]
 206 0060 3B60     		str	r3, [r7]
  33:../../source/src/kernel/OS_CORE/TCB.c **** 	ASSERT(prio < PRIO_MAX);
 207              		.loc 3 33 0
 208 0062 7B68     		ldr	r3, [r7, #4]
 209 0064 3F2B     		cmp	r3, #63
 210 0066 03D9     		bls	.L7
 211              		.loc 3 33 0 is_stmt 0 discriminator 1
 212 0068 2121     		movs	r1, #33
 213 006a 4948     		ldr	r0, .L15
 214 006c FFF7FEFF 		bl	_ASSERT
 215              	.L7:
  34:../../source/src/kernel/OS_CORE/TCB.c **** 	ASSERT(NULL != name);
ARM GAS  G:\Users\Jaxb\AppData\Local\Temp\ccphT0IW.s 			page 7


 216              		.loc 3 34 0 is_stmt 1
 217 0070 3B6A     		ldr	r3, [r7, #32]
 218 0072 002B     		cmp	r3, #0
 219 0074 03D1     		bne	.L8
 220              		.loc 3 34 0 is_stmt 0 discriminator 1
 221 0076 2221     		movs	r1, #34
 222 0078 4548     		ldr	r0, .L15
 223 007a FFF7FEFF 		bl	_ASSERT
 224              	.L8:
  35:../../source/src/kernel/OS_CORE/TCB.c **** 	ASSERT(NULL != TCB_ptr);
 225              		.loc 3 35 0 is_stmt 1
 226 007e FB68     		ldr	r3, [r7, #12]
 227 0080 002B     		cmp	r3, #0
 228 0082 03D1     		bne	.L9
 229              		.loc 3 35 0 is_stmt 0 discriminator 1
 230 0084 2321     		movs	r1, #35
 231 0086 4248     		ldr	r0, .L15
 232 0088 FFF7FEFF 		bl	_ASSERT
 233              	.L9:
  36:../../source/src/kernel/OS_CORE/TCB.c **** #if CONFIG_PARA_CHECK
  37:../../source/src/kernel/OS_CORE/TCB.c **** 	if((prio >= PRIO_MAX) || (NULL == name) || (NULL == TCB_ptr))
 234              		.loc 3 37 0 is_stmt 1
 235 008c 7B68     		ldr	r3, [r7, #4]
 236 008e 3F2B     		cmp	r3, #63
 237 0090 05D8     		bhi	.L10
 238              		.loc 3 37 0 is_stmt 0 discriminator 1
 239 0092 3B6A     		ldr	r3, [r7, #32]
 240 0094 002B     		cmp	r3, #0
 241 0096 02D0     		beq	.L10
 242              		.loc 3 37 0 discriminator 2
 243 0098 FB68     		ldr	r3, [r7, #12]
 244 009a 002B     		cmp	r3, #0
 245 009c 0BD1     		bne	.L11
 246              	.L10:
  38:../../source/src/kernel/OS_CORE/TCB.c **** 	{
  39:../../source/src/kernel/OS_CORE/TCB.c **** 		OS_ERROR_PARA_MESSAGE_DISPLAY(task_init,prio);
 247              		.loc 3 39 0 is_stmt 1
 248 009e 3D48     		ldr	r0, .L15+4
 249 00a0 FFF7FEFF 		bl	ka_printf
  40:../../source/src/kernel/OS_CORE/TCB.c **** 		OS_ERROR_PARA_MESSAGE_DISPLAY(task_init,name);
 250              		.loc 3 40 0
 251 00a4 3C48     		ldr	r0, .L15+8
 252 00a6 FFF7FEFF 		bl	ka_printf
  41:../../source/src/kernel/OS_CORE/TCB.c **** 		OS_ERROR_PARA_MESSAGE_DISPLAY(task_init,TCB_ptr);
 253              		.loc 3 41 0
 254 00aa 3C48     		ldr	r0, .L15+12
 255 00ac FFF7FEFF 		bl	ka_printf
  42:../../source/src/kernel/OS_CORE/TCB.c **** 		return -ERROR_NULL_INPUT_PTR;
 256              		.loc 3 42 0
 257 00b0 6FF0FE03 		mvn	r3, #254
 258 00b4 67E0     		b	.L12
 259              	.L11:
  43:../../source/src/kernel/OS_CORE/TCB.c **** 	}
  44:../../source/src/kernel/OS_CORE/TCB.c **** #endif
  45:../../source/src/kernel/OS_CORE/TCB.c **** 	stack_size &= (~0x03);// according to CPU : 32bit?64bit
 260              		.loc 3 45 0
 261 00b6 BB68     		ldr	r3, [r7, #8]
ARM GAS  G:\Users\Jaxb\AppData\Local\Temp\ccphT0IW.s 			page 8


 262 00b8 23F00303 		bic	r3, r3, #3
 263 00bc BB60     		str	r3, [r7, #8]
  46:../../source/src/kernel/OS_CORE/TCB.c **** 	TCB_ptr->stack_end = (STACK_TYPE *)ka_malloc(stack_size);
 264              		.loc 3 46 0
 265 00be B868     		ldr	r0, [r7, #8]
 266 00c0 FFF7FEFF 		bl	ka_malloc
 267 00c4 0246     		mov	r2, r0
 268 00c6 FB68     		ldr	r3, [r7, #12]
 269 00c8 9A60     		str	r2, [r3, #8]
  47:../../source/src/kernel/OS_CORE/TCB.c **** 	if(NULL == TCB_ptr->stack_end)
 270              		.loc 3 47 0
 271 00ca FB68     		ldr	r3, [r7, #12]
 272 00cc 9B68     		ldr	r3, [r3, #8]
 273 00ce 002B     		cmp	r3, #0
 274 00d0 02D1     		bne	.L13
  48:../../source/src/kernel/OS_CORE/TCB.c **** 	{
  49:../../source/src/kernel/OS_CORE/TCB.c **** 		return -ERROR_ALLOCATE_STACK;
 275              		.loc 3 49 0
 276 00d2 4FF0FF33 		mov	r3, #-1
 277 00d6 56E0     		b	.L12
 278              	.L13:
  50:../../source/src/kernel/OS_CORE/TCB.c **** 	}
  51:../../source/src/kernel/OS_CORE/TCB.c **** 	TCB_ptr->stack_size = stack_size;
 279              		.loc 3 51 0
 280 00d8 FB68     		ldr	r3, [r7, #12]
 281 00da BA68     		ldr	r2, [r7, #8]
 282 00dc 5A60     		str	r2, [r3, #4]
  52:../../source/src/kernel/OS_CORE/TCB.c **** 	TCB_ptr->stack = (STACK_TYPE *)TCB_ptr->stack_end + stack_size/4 - 1;
 283              		.loc 3 52 0
 284 00de FB68     		ldr	r3, [r7, #12]
 285 00e0 9A68     		ldr	r2, [r3, #8]
 286 00e2 BB68     		ldr	r3, [r7, #8]
 287 00e4 23F00303 		bic	r3, r3, #3
 288 00e8 043B     		subs	r3, r3, #4
 289 00ea 1A44     		add	r2, r2, r3
 290 00ec FB68     		ldr	r3, [r7, #12]
 291 00ee 1A60     		str	r2, [r3]
  53:../../source/src/kernel/OS_CORE/TCB.c **** 	ASSERT((char *)(TCB_ptr->stack) == (char *)(TCB_ptr->stack_end) + stack_size - 4);
 292              		.loc 3 53 0
 293 00f0 FB68     		ldr	r3, [r7, #12]
 294 00f2 1A68     		ldr	r2, [r3]
 295 00f4 FB68     		ldr	r3, [r7, #12]
 296 00f6 9968     		ldr	r1, [r3, #8]
 297 00f8 BB68     		ldr	r3, [r7, #8]
 298 00fa 043B     		subs	r3, r3, #4
 299 00fc 0B44     		add	r3, r3, r1
 300 00fe 9A42     		cmp	r2, r3
 301 0100 03D0     		beq	.L14
 302              		.loc 3 53 0 is_stmt 0 discriminator 1
 303 0102 3521     		movs	r1, #53
 304 0104 2248     		ldr	r0, .L15
 305 0106 FFF7FEFF 		bl	_ASSERT
 306              	.L14:
  54:../../source/src/kernel/OS_CORE/TCB.c **** 	ka_memset(TCB_ptr->stack_end,0,stack_size);
 307              		.loc 3 54 0 is_stmt 1
 308 010a FB68     		ldr	r3, [r7, #12]
 309 010c 9B68     		ldr	r3, [r3, #8]
ARM GAS  G:\Users\Jaxb\AppData\Local\Temp\ccphT0IW.s 			page 9


 310 010e BA68     		ldr	r2, [r7, #8]
 311 0110 0021     		movs	r1, #0
 312 0112 1846     		mov	r0, r3
 313 0114 FFF7FEFF 		bl	ka_memset
  55:../../source/src/kernel/OS_CORE/TCB.c **** 	set_register((void **)&TCB_ptr->stack,function,delete_myself,para);
 314              		.loc 3 55 0
 315 0118 F868     		ldr	r0, [r7, #12]
 316 011a BB6A     		ldr	r3, [r7, #40]
 317 011c 204A     		ldr	r2, .L15+16
 318 011e 796A     		ldr	r1, [r7, #36]
 319 0120 FFF7FEFF 		bl	set_register
  56:../../source/src/kernel/OS_CORE/TCB.c **** 	TCB_ptr->prio = prio;
 320              		.loc 3 56 0
 321 0124 FB68     		ldr	r3, [r7, #12]
 322 0126 7A68     		ldr	r2, [r7, #4]
 323 0128 5A61     		str	r2, [r3, #20]
  57:../../source/src/kernel/OS_CORE/TCB.c **** 	TCB_ptr->reserve_prio = RESERVED_PRIO;
 324              		.loc 3 57 0
 325 012a FB68     		ldr	r3, [r7, #12]
 326 012c 0022     		movs	r2, #0
 327 012e DA60     		str	r2, [r3, #12]
  58:../../source/src/kernel/OS_CORE/TCB.c **** 	TCB_ptr->task_state = state;
 328              		.loc 3 58 0
 329 0130 FB68     		ldr	r3, [r7, #12]
 330 0132 97F82C20 		ldrb	r2, [r7, #44]
 331 0136 1A74     		strb	r2, [r3, #16]
  59:../../source/src/kernel/OS_CORE/TCB.c **** 	TCB_ptr->attribution = DEFAULT_ATTRIBUTION | TCB_ATTRIBUTION_INIT;
 332              		.loc 3 59 0
 333 0138 FB68     		ldr	r3, [r7, #12]
 334 013a 0022     		movs	r2, #0
 335 013c 9A63     		str	r2, [r3, #56]
  60:../../source/src/kernel/OS_CORE/TCB.c **** 	TCB_ptr->delay_reach_time = 0;
 336              		.loc 3 60 0
 337 013e FA68     		ldr	r2, [r7, #12]
 338 0140 4FF00003 		mov	r3, #0
 339 0144 4FF00004 		mov	r4, #0
 340 0148 C2E91034 		strd	r3, [r2, #64]
  61:../../source/src/kernel/OS_CORE/TCB.c **** 	TCB_ptr->delay_heap_position = 0;
 341              		.loc 3 61 0
 342 014c FB68     		ldr	r3, [r7, #12]
 343 014e 0022     		movs	r2, #0
 344 0150 9A61     		str	r2, [r3, #24]
  62:../../source/src/kernel/OS_CORE/TCB.c **** 	INIT_LIST_HEAD(&TCB_ptr->same_prio_list);
 345              		.loc 3 62 0
 346 0152 FB68     		ldr	r3, [r7, #12]
 347 0154 1C33     		adds	r3, r3, #28
 348 0156 1846     		mov	r0, r3
 349 0158 FFF752FF 		bl	INIT_LIST_HEAD
  63:../../source/src/kernel/OS_CORE/TCB.c **** 	INIT_LIST_HEAD(&TCB_ptr->suspend_list);
 350              		.loc 3 63 0
 351 015c FB68     		ldr	r3, [r7, #12]
 352 015e 2433     		adds	r3, r3, #36
 353 0160 1846     		mov	r0, r3
 354 0162 FFF74DFF 		bl	INIT_LIST_HEAD
  64:../../source/src/kernel/OS_CORE/TCB.c **** 	TCB_ptr->name = (char *)name;
 355              		.loc 3 64 0
 356 0166 FB68     		ldr	r3, [r7, #12]
ARM GAS  G:\Users\Jaxb\AppData\Local\Temp\ccphT0IW.s 			page 10


 357 0168 3A6A     		ldr	r2, [r7, #32]
 358 016a DA62     		str	r2, [r3, #44]
  65:../../source/src/kernel/OS_CORE/TCB.c **** 	TCB_ptr->timeslice_hope_time = timeslice_hope_time;
 359              		.loc 3 65 0
 360 016c FB68     		ldr	r3, [r7, #12]
 361 016e 3A68     		ldr	r2, [r7]
 362 0170 1A63     		str	r2, [r3, #48]
  66:../../source/src/kernel/OS_CORE/TCB.c **** 	TCB_ptr->timeslice_rest_time = timeslice_hope_time;
 363              		.loc 3 66 0
 364 0172 FB68     		ldr	r3, [r7, #12]
 365 0174 3A68     		ldr	r2, [r7]
 366 0176 5A63     		str	r2, [r3, #52]
  67:../../source/src/kernel/OS_CORE/TCB.c **** 	TCB_ptr->dynamic_module_ptr = NULL;
 367              		.loc 3 67 0
 368 0178 FB68     		ldr	r3, [r7, #12]
 369 017a 0022     		movs	r2, #0
 370 017c DA63     		str	r2, [r3, #60]
  68:../../source/src/kernel/OS_CORE/TCB.c **** 	register_in_TCB_list(TCB_ptr);
 371              		.loc 3 68 0
 372 017e F868     		ldr	r0, [r7, #12]
 373 0180 FFF7FEFF 		bl	register_in_TCB_list
  69:../../source/src/kernel/OS_CORE/TCB.c **** 	return FUN_EXECUTE_SUCCESSFULLY;
 374              		.loc 3 69 0
 375 0184 0023     		movs	r3, #0
 376              	.L12:
  70:../../source/src/kernel/OS_CORE/TCB.c **** }
 377              		.loc 3 70 0
 378 0186 1846     		mov	r0, r3
 379 0188 1437     		adds	r7, r7, #20
 380              	.LCFI17:
 381              		.cfi_def_cfa_offset 12
 382 018a BD46     		mov	sp, r7
 383              	.LCFI18:
 384              		.cfi_def_cfa_register 13
 385              		@ sp needed
 386 018c 90BD     		pop	{r4, r7, pc}
 387              	.L16:
 388 018e 00BF     		.align	2
 389              	.L15:
 390 0190 00000000 		.word	.LC0
 391 0194 28000000 		.word	.LC1
 392 0198 58000000 		.word	.LC2
 393 019c 88000000 		.word	.LC3
 394 01a0 00000000 		.word	delete_myself
 395              		.cfi_endproc
 396              	.LFE14:
 397              		.size	task_init, .-task_init
 398              		.section	.rodata
 399 00b9 000000   		.align	2
 400              	.LC4:
 401 00bc 6572726F 		.ascii	"error fun name : task_creat\012error para : prio\012"
 401      72206675 
 401      6E206E61 
 401      6D65203A 
 401      20746173 
 402 00ea 00       		.ascii	"\000"
 403 00eb 00       		.align	2
ARM GAS  G:\Users\Jaxb\AppData\Local\Temp\ccphT0IW.s 			page 11


 404              	.LC5:
 405 00ec 6572726F 		.ascii	"error fun name : task_creat\012error para : name\012"
 405      72206675 
 405      6E206E61 
 405      6D65203A 
 405      20746173 
 406 011a 00       		.ascii	"\000"
 407              		.text
 408              		.align	1
 409              		.global	task_creat
 410              		.syntax unified
 411              		.thumb
 412              		.thumb_func
 413              		.fpu softvfp
 414              		.type	task_creat, %function
 415              	task_creat:
 416              	.LFB15:
  71:../../source/src/kernel/OS_CORE/TCB.c **** 
  72:../../source/src/kernel/OS_CORE/TCB.c **** TCB *_must_check task_creat(
  73:../../source/src/kernel/OS_CORE/TCB.c **** 	unsigned int stack_size,
  74:../../source/src/kernel/OS_CORE/TCB.c **** 	TASK_PRIO_TYPE prio,
  75:../../source/src/kernel/OS_CORE/TCB.c **** 	unsigned int timeslice_hope_time,
  76:../../source/src/kernel/OS_CORE/TCB.c **** 	const char *name,
  77:../../source/src/kernel/OS_CORE/TCB.c **** 	functionptr function,
  78:../../source/src/kernel/OS_CORE/TCB.c **** 	void *para,
  79:../../source/src/kernel/OS_CORE/TCB.c **** 	TASK_STATE state)
  80:../../source/src/kernel/OS_CORE/TCB.c **** {
 417              		.loc 3 80 0
 418              		.cfi_startproc
 419              		@ args = 12, pretend = 0, frame = 24
 420              		@ frame_needed = 1, uses_anonymous_args = 0
 421 01a4 80B5     		push	{r7, lr}
 422              	.LCFI19:
 423              		.cfi_def_cfa_offset 8
 424              		.cfi_offset 7, -8
 425              		.cfi_offset 14, -4
 426 01a6 8AB0     		sub	sp, sp, #40
 427              	.LCFI20:
 428              		.cfi_def_cfa_offset 48
 429 01a8 04AF     		add	r7, sp, #16
 430              	.LCFI21:
 431              		.cfi_def_cfa 7, 32
 432 01aa F860     		str	r0, [r7, #12]
 433 01ac B960     		str	r1, [r7, #8]
 434 01ae 7A60     		str	r2, [r7, #4]
 435 01b0 3B60     		str	r3, [r7]
  81:../../source/src/kernel/OS_CORE/TCB.c **** 	ASSERT((prio < PRIO_MAX));
 436              		.loc 3 81 0
 437 01b2 BB68     		ldr	r3, [r7, #8]
 438 01b4 3F2B     		cmp	r3, #63
 439 01b6 03D9     		bls	.L18
 440              		.loc 3 81 0 is_stmt 0 discriminator 1
 441 01b8 5121     		movs	r1, #81
 442 01ba 2048     		ldr	r0, .L25
 443 01bc FFF7FEFF 		bl	_ASSERT
 444              	.L18:
  82:../../source/src/kernel/OS_CORE/TCB.c **** 	ASSERT(NULL != name);
ARM GAS  G:\Users\Jaxb\AppData\Local\Temp\ccphT0IW.s 			page 12


 445              		.loc 3 82 0 is_stmt 1
 446 01c0 3B68     		ldr	r3, [r7]
 447 01c2 002B     		cmp	r3, #0
 448 01c4 03D1     		bne	.L19
 449              		.loc 3 82 0 is_stmt 0 discriminator 1
 450 01c6 5221     		movs	r1, #82
 451 01c8 1C48     		ldr	r0, .L25
 452 01ca FFF7FEFF 		bl	_ASSERT
 453              	.L19:
  83:../../source/src/kernel/OS_CORE/TCB.c **** #if CONFIG_PARA_CHECK
  84:../../source/src/kernel/OS_CORE/TCB.c **** 	if((prio >= PRIO_MAX) || (NULL == name))
 454              		.loc 3 84 0 is_stmt 1
 455 01ce BB68     		ldr	r3, [r7, #8]
 456 01d0 3F2B     		cmp	r3, #63
 457 01d2 02D8     		bhi	.L20
 458              		.loc 3 84 0 is_stmt 0 discriminator 1
 459 01d4 3B68     		ldr	r3, [r7]
 460 01d6 002B     		cmp	r3, #0
 461 01d8 07D1     		bne	.L21
 462              	.L20:
  85:../../source/src/kernel/OS_CORE/TCB.c **** 	{
  86:../../source/src/kernel/OS_CORE/TCB.c **** 		OS_ERROR_PARA_MESSAGE_DISPLAY(task_creat,prio);
 463              		.loc 3 86 0 is_stmt 1
 464 01da 1948     		ldr	r0, .L25+4
 465 01dc FFF7FEFF 		bl	ka_printf
  87:../../source/src/kernel/OS_CORE/TCB.c **** 		OS_ERROR_PARA_MESSAGE_DISPLAY(task_creat,name);
 466              		.loc 3 87 0
 467 01e0 1848     		ldr	r0, .L25+8
 468 01e2 FFF7FEFF 		bl	ka_printf
  88:../../source/src/kernel/OS_CORE/TCB.c **** 		return NULL;
 469              		.loc 3 88 0
 470 01e6 0023     		movs	r3, #0
 471 01e8 23E0     		b	.L22
 472              	.L21:
  89:../../source/src/kernel/OS_CORE/TCB.c **** 	}
  90:../../source/src/kernel/OS_CORE/TCB.c **** #endif
  91:../../source/src/kernel/OS_CORE/TCB.c **** 	TCB *TCB_ptr = ka_malloc(sizeof(TCB));
 473              		.loc 3 91 0
 474 01ea 4820     		movs	r0, #72
 475 01ec FFF7FEFF 		bl	ka_malloc
 476 01f0 7861     		str	r0, [r7, #20]
  92:../../source/src/kernel/OS_CORE/TCB.c **** 	if(NULL == TCB_ptr)
 477              		.loc 3 92 0
 478 01f2 7B69     		ldr	r3, [r7, #20]
 479 01f4 002B     		cmp	r3, #0
 480 01f6 01D1     		bne	.L23
  93:../../source/src/kernel/OS_CORE/TCB.c **** 	{
  94:../../source/src/kernel/OS_CORE/TCB.c **** 		return NULL;
 481              		.loc 3 94 0
 482 01f8 0023     		movs	r3, #0
 483 01fa 1AE0     		b	.L22
 484              	.L23:
  95:../../source/src/kernel/OS_CORE/TCB.c **** 	}
  96:../../source/src/kernel/OS_CORE/TCB.c **** 	if(FUN_EXECUTE_SUCCESSFULLY != 
  97:../../source/src/kernel/OS_CORE/TCB.c **** 		task_init(	TCB_ptr,
 485              		.loc 3 97 0
 486 01fc 97F82830 		ldrb	r3, [r7, #40]	@ zero_extendqisi2
ARM GAS  G:\Users\Jaxb\AppData\Local\Temp\ccphT0IW.s 			page 13


 487 0200 0393     		str	r3, [sp, #12]
 488 0202 7B6A     		ldr	r3, [r7, #36]
 489 0204 0293     		str	r3, [sp, #8]
 490 0206 3B6A     		ldr	r3, [r7, #32]
 491 0208 0193     		str	r3, [sp, #4]
 492 020a 3B68     		ldr	r3, [r7]
 493 020c 0093     		str	r3, [sp]
 494 020e 7B68     		ldr	r3, [r7, #4]
 495 0210 BA68     		ldr	r2, [r7, #8]
 496 0212 F968     		ldr	r1, [r7, #12]
 497 0214 7869     		ldr	r0, [r7, #20]
 498 0216 FFF7FEFF 		bl	task_init
 499 021a 0346     		mov	r3, r0
  96:../../source/src/kernel/OS_CORE/TCB.c **** 		task_init(	TCB_ptr,
 500              		.loc 3 96 0
 501 021c 002B     		cmp	r3, #0
 502 021e 04D0     		beq	.L24
  98:../../source/src/kernel/OS_CORE/TCB.c **** 					stack_size,
  99:../../source/src/kernel/OS_CORE/TCB.c **** 					prio,
 100:../../source/src/kernel/OS_CORE/TCB.c **** 					timeslice_hope_time,
 101:../../source/src/kernel/OS_CORE/TCB.c **** 					name,
 102:../../source/src/kernel/OS_CORE/TCB.c **** 					function,
 103:../../source/src/kernel/OS_CORE/TCB.c **** 					para,
 104:../../source/src/kernel/OS_CORE/TCB.c **** 					state)
 105:../../source/src/kernel/OS_CORE/TCB.c **** 	  )
 106:../../source/src/kernel/OS_CORE/TCB.c **** 	{
 107:../../source/src/kernel/OS_CORE/TCB.c **** 		ka_free(TCB_ptr);
 503              		.loc 3 107 0
 504 0220 7869     		ldr	r0, [r7, #20]
 505 0222 FFF7FEFF 		bl	ka_free
 108:../../source/src/kernel/OS_CORE/TCB.c **** 		return NULL;
 506              		.loc 3 108 0
 507 0226 0023     		movs	r3, #0
 508 0228 03E0     		b	.L22
 509              	.L24:
 109:../../source/src/kernel/OS_CORE/TCB.c **** 	}
 110:../../source/src/kernel/OS_CORE/TCB.c **** 	TCB_ptr->attribution = DEFAULT_ATTRIBUTION | TCB_ATTRIBUTION_CREATE;
 510              		.loc 3 110 0
 511 022a 7B69     		ldr	r3, [r7, #20]
 512 022c 0122     		movs	r2, #1
 513 022e 9A63     		str	r2, [r3, #56]
 111:../../source/src/kernel/OS_CORE/TCB.c **** 	return TCB_ptr;
 514              		.loc 3 111 0
 515 0230 7B69     		ldr	r3, [r7, #20]
 516              	.L22:
 112:../../source/src/kernel/OS_CORE/TCB.c **** }
 517              		.loc 3 112 0
 518 0232 1846     		mov	r0, r3
 519 0234 1837     		adds	r7, r7, #24
 520              	.LCFI22:
 521              		.cfi_def_cfa_offset 8
 522 0236 BD46     		mov	sp, r7
 523              	.LCFI23:
 524              		.cfi_def_cfa_register 13
 525              		@ sp needed
 526 0238 80BD     		pop	{r7, pc}
 527              	.L26:
ARM GAS  G:\Users\Jaxb\AppData\Local\Temp\ccphT0IW.s 			page 14


 528 023a 00BF     		.align	2
 529              	.L25:
 530 023c 00000000 		.word	.LC0
 531 0240 BC000000 		.word	.LC4
 532 0244 EC000000 		.word	.LC5
 533              		.cfi_endproc
 534              	.LFE15:
 535              		.size	task_creat, .-task_creat
 536              		.section	.rodata
 537 011b 00       		.align	2
 538              	.LC6:
 539 011c 6572726F 		.ascii	"error fun name : task_change_prio\012error para : p"
 539      72206675 
 539      6E206E61 
 539      6D65203A 
 539      20746173 
 540 014c 72696F0A 		.ascii	"rio\012\000"
 540      00
 541 0151 000000   		.align	2
 542              	.LC7:
 543 0154 6572726F 		.ascii	"error fun name : task_change_prio\012error para : T"
 543      72206675 
 543      6E206E61 
 543      6D65203A 
 543      20746173 
 544 0184 43425F70 		.ascii	"CB_ptr\012\000"
 544      74720A00 
 545              		.text
 546              		.align	1
 547              		.global	task_change_prio
 548              		.syntax unified
 549              		.thumb
 550              		.thumb_func
 551              		.fpu softvfp
 552              		.type	task_change_prio, %function
 553              	task_change_prio:
 554              	.LFB16:
 113:../../source/src/kernel/OS_CORE/TCB.c **** 
 114:../../source/src/kernel/OS_CORE/TCB.c **** 
 115:../../source/src/kernel/OS_CORE/TCB.c **** 
 116:../../source/src/kernel/OS_CORE/TCB.c **** //this function shoul
 117:../../source/src/kernel/OS_CORE/TCB.c **** int task_change_prio(TCB *TCB_ptr,TASK_PRIO_TYPE prio)
 118:../../source/src/kernel/OS_CORE/TCB.c **** {
 555              		.loc 3 118 0
 556              		.cfi_startproc
 557              		@ args = 0, pretend = 0, frame = 16
 558              		@ frame_needed = 1, uses_anonymous_args = 0
 559 0248 80B5     		push	{r7, lr}
 560              	.LCFI24:
 561              		.cfi_def_cfa_offset 8
 562              		.cfi_offset 7, -8
 563              		.cfi_offset 14, -4
 564 024a 84B0     		sub	sp, sp, #16
 565              	.LCFI25:
 566              		.cfi_def_cfa_offset 24
 567 024c 00AF     		add	r7, sp, #0
 568              	.LCFI26:
ARM GAS  G:\Users\Jaxb\AppData\Local\Temp\ccphT0IW.s 			page 15


 569              		.cfi_def_cfa_register 7
 570 024e 7860     		str	r0, [r7, #4]
 571 0250 3960     		str	r1, [r7]
 119:../../source/src/kernel/OS_CORE/TCB.c **** 	ASSERT(prio < PRIO_MAX);
 572              		.loc 3 119 0
 573 0252 3B68     		ldr	r3, [r7]
 574 0254 3F2B     		cmp	r3, #63
 575 0256 03D9     		bls	.L28
 576              		.loc 3 119 0 is_stmt 0 discriminator 1
 577 0258 7721     		movs	r1, #119
 578 025a 2148     		ldr	r0, .L39
 579 025c FFF7FEFF 		bl	_ASSERT
 580              	.L28:
 120:../../source/src/kernel/OS_CORE/TCB.c **** 	ASSERT(NULL != TCB_ptr);
 581              		.loc 3 120 0 is_stmt 1
 582 0260 7B68     		ldr	r3, [r7, #4]
 583 0262 002B     		cmp	r3, #0
 584 0264 03D1     		bne	.L29
 585              		.loc 3 120 0 is_stmt 0 discriminator 1
 586 0266 7821     		movs	r1, #120
 587 0268 1D48     		ldr	r0, .L39
 588 026a FFF7FEFF 		bl	_ASSERT
 589              	.L29:
 121:../../source/src/kernel/OS_CORE/TCB.c **** #if CONFIG_PARA_CHECK
 122:../../source/src/kernel/OS_CORE/TCB.c **** 	if((prio >= PRIO_MAX) || (NULL == TCB_ptr))
 590              		.loc 3 122 0 is_stmt 1
 591 026e 3B68     		ldr	r3, [r7]
 592 0270 3F2B     		cmp	r3, #63
 593 0272 02D8     		bhi	.L30
 594              		.loc 3 122 0 is_stmt 0 discriminator 1
 595 0274 7B68     		ldr	r3, [r7, #4]
 596 0276 002B     		cmp	r3, #0
 597 0278 08D1     		bne	.L31
 598              	.L30:
 123:../../source/src/kernel/OS_CORE/TCB.c **** 	{
 124:../../source/src/kernel/OS_CORE/TCB.c **** 		OS_ERROR_PARA_MESSAGE_DISPLAY(task_change_prio,prio);
 599              		.loc 3 124 0 is_stmt 1
 600 027a 1A48     		ldr	r0, .L39+4
 601 027c FFF7FEFF 		bl	ka_printf
 125:../../source/src/kernel/OS_CORE/TCB.c **** 		OS_ERROR_PARA_MESSAGE_DISPLAY(task_change_prio,TCB_ptr);
 602              		.loc 3 125 0
 603 0280 1948     		ldr	r0, .L39+8
 604 0282 FFF7FEFF 		bl	ka_printf
 126:../../source/src/kernel/OS_CORE/TCB.c **** 		return -ERROR_NULL_INPUT_PTR;
 605              		.loc 3 126 0
 606 0286 6FF0FE03 		mvn	r3, #254
 607 028a 25E0     		b	.L32
 608              	.L31:
 127:../../source/src/kernel/OS_CORE/TCB.c **** 	}
 128:../../source/src/kernel/OS_CORE/TCB.c **** #endif
 129:../../source/src/kernel/OS_CORE/TCB.c **** 	CPU_SR_ALLOC();
 609              		.loc 3 129 0
 610 028c 0023     		movs	r3, #0
 611 028e FB60     		str	r3, [r7, #12]
 130:../../source/src/kernel/OS_CORE/TCB.c **** 	CPU_CRITICAL_ENTER();
 612              		.loc 3 130 0
 613 0290 FFF7FEFF 		bl	CPU_SR_Save
ARM GAS  G:\Users\Jaxb\AppData\Local\Temp\ccphT0IW.s 			page 16


 614 0294 F860     		str	r0, [r7, #12]
 131:../../source/src/kernel/OS_CORE/TCB.c **** 	//1 step: delete it from TCB_list
 132:../../source/src/kernel/OS_CORE/TCB.c **** 	delete_from_TCB_list(TCB_ptr);
 615              		.loc 3 132 0
 616 0296 7868     		ldr	r0, [r7, #4]
 617 0298 FFF7FEFF 		bl	delete_from_TCB_list
 133:../../source/src/kernel/OS_CORE/TCB.c **** 	//2 step: according to the task_state,do some changes
 134:../../source/src/kernel/OS_CORE/TCB.c **** 	switch(TCB_ptr->task_state)
 618              		.loc 3 134 0
 619 029c 7B68     		ldr	r3, [r7, #4]
 620 029e 1B7C     		ldrb	r3, [r3, #16]	@ zero_extendqisi2
 621 02a0 012B     		cmp	r3, #1
 622 02a2 00D0     		beq	.L34
 135:../../source/src/kernel/OS_CORE/TCB.c **** 	{
 136:../../source/src/kernel/OS_CORE/TCB.c **** 		case STATE_READY:
 137:../../source/src/kernel/OS_CORE/TCB.c **** 			delete_TCB_from_ready(TCB_ptr);break;
 138:../../source/src/kernel/OS_CORE/TCB.c **** 		//add other state's handling code here
 139:../../source/src/kernel/OS_CORE/TCB.c **** 		/*
 140:../../source/src/kernel/OS_CORE/TCB.c **** 		 *
 141:../../source/src/kernel/OS_CORE/TCB.c **** 		 *
 142:../../source/src/kernel/OS_CORE/TCB.c **** 		 * 
 143:../../source/src/kernel/OS_CORE/TCB.c **** 		 */
 144:../../source/src/kernel/OS_CORE/TCB.c **** 		default: break;// do nothing
 623              		.loc 3 144 0
 624 02a4 03E0     		b	.L35
 625              	.L34:
 137:../../source/src/kernel/OS_CORE/TCB.c **** 		//add other state's handling code here
 626              		.loc 3 137 0
 627 02a6 7868     		ldr	r0, [r7, #4]
 628 02a8 FFF7FEFF 		bl	delete_TCB_from_ready
 629 02ac 00BF     		nop
 630              	.L35:
 145:../../source/src/kernel/OS_CORE/TCB.c **** 	}
 146:../../source/src/kernel/OS_CORE/TCB.c **** 	//3 step: change the prio
 147:../../source/src/kernel/OS_CORE/TCB.c **** 	TCB_ptr->prio = prio;
 631              		.loc 3 147 0
 632 02ae 7B68     		ldr	r3, [r7, #4]
 633 02b0 3A68     		ldr	r2, [r7]
 634 02b2 5A61     		str	r2, [r3, #20]
 148:../../source/src/kernel/OS_CORE/TCB.c **** 	//4 step: register into TCB_list
 149:../../source/src/kernel/OS_CORE/TCB.c **** 	register_in_TCB_list(TCB_ptr);
 635              		.loc 3 149 0
 636 02b4 7868     		ldr	r0, [r7, #4]
 637 02b6 FFF7FEFF 		bl	register_in_TCB_list
 150:../../source/src/kernel/OS_CORE/TCB.c **** 	//5 step: according to the task_state,do some changes
 151:../../source/src/kernel/OS_CORE/TCB.c **** 	//this place should add different code according to the different task_state
 152:../../source/src/kernel/OS_CORE/TCB.c **** 	switch(TCB_ptr->task_state)
 638              		.loc 3 152 0
 639 02ba 7B68     		ldr	r3, [r7, #4]
 640 02bc 1B7C     		ldrb	r3, [r3, #16]	@ zero_extendqisi2
 641 02be 012B     		cmp	r3, #1
 642 02c0 00D0     		beq	.L37
 153:../../source/src/kernel/OS_CORE/TCB.c **** 	{
 154:../../source/src/kernel/OS_CORE/TCB.c **** 		case STATE_READY:
 155:../../source/src/kernel/OS_CORE/TCB.c **** 			insert_ready_TCB(TCB_ptr);break;
 156:../../source/src/kernel/OS_CORE/TCB.c **** 		//add other state's handling code here
 157:../../source/src/kernel/OS_CORE/TCB.c **** 		/*
ARM GAS  G:\Users\Jaxb\AppData\Local\Temp\ccphT0IW.s 			page 17


 158:../../source/src/kernel/OS_CORE/TCB.c **** 		 *
 159:../../source/src/kernel/OS_CORE/TCB.c **** 		 *
 160:../../source/src/kernel/OS_CORE/TCB.c **** 		 * 
 161:../../source/src/kernel/OS_CORE/TCB.c **** 		 */
 162:../../source/src/kernel/OS_CORE/TCB.c **** 		default: break;// do nothing
 643              		.loc 3 162 0
 644 02c2 03E0     		b	.L38
 645              	.L37:
 155:../../source/src/kernel/OS_CORE/TCB.c **** 		//add other state's handling code here
 646              		.loc 3 155 0
 647 02c4 7868     		ldr	r0, [r7, #4]
 648 02c6 FFF7FEFF 		bl	insert_ready_TCB
 649 02ca 00BF     		nop
 650              	.L38:
 163:../../source/src/kernel/OS_CORE/TCB.c **** 	}
 164:../../source/src/kernel/OS_CORE/TCB.c **** 	CPU_CRITICAL_EXIT();
 651              		.loc 3 164 0
 652 02cc F868     		ldr	r0, [r7, #12]
 653 02ce FFF7FEFF 		bl	CPU_SR_Restore
 165:../../source/src/kernel/OS_CORE/TCB.c **** 	schedule();
 654              		.loc 3 165 0
 655 02d2 FFF7FEFF 		bl	schedule
 166:../../source/src/kernel/OS_CORE/TCB.c **** 	return FUN_EXECUTE_SUCCESSFULLY;
 656              		.loc 3 166 0
 657 02d6 0023     		movs	r3, #0
 658              	.L32:
 167:../../source/src/kernel/OS_CORE/TCB.c **** }
 659              		.loc 3 167 0
 660 02d8 1846     		mov	r0, r3
 661 02da 1037     		adds	r7, r7, #16
 662              	.LCFI27:
 663              		.cfi_def_cfa_offset 8
 664 02dc BD46     		mov	sp, r7
 665              	.LCFI28:
 666              		.cfi_def_cfa_register 13
 667              		@ sp needed
 668 02de 80BD     		pop	{r7, pc}
 669              	.L40:
 670              		.align	2
 671              	.L39:
 672 02e0 00000000 		.word	.LC0
 673 02e4 1C010000 		.word	.LC6
 674 02e8 54010000 		.word	.LC7
 675              		.cfi_endproc
 676              	.LFE16:
 677              		.size	task_change_prio, .-task_change_prio
 678              		.section	.rodata
 679              		.align	2
 680              	.LC8:
 681 018c 6572726F 		.ascii	"error fun name : task_delete\012error para : TCB_pt"
 681      72206675 
 681      6E206E61 
 681      6D65203A 
 681      20746173 
 682 01bc 720A00   		.ascii	"r\012\000"
 683              		.text
 684              		.align	1
ARM GAS  G:\Users\Jaxb\AppData\Local\Temp\ccphT0IW.s 			page 18


 685              		.global	task_delete
 686              		.syntax unified
 687              		.thumb
 688              		.thumb_func
 689              		.fpu softvfp
 690              		.type	task_delete, %function
 691              	task_delete:
 692              	.LFB17:
 168:../../source/src/kernel/OS_CORE/TCB.c **** 
 169:../../source/src/kernel/OS_CORE/TCB.c **** int task_delete(TCB *TCB_ptr)
 170:../../source/src/kernel/OS_CORE/TCB.c **** {
 693              		.loc 3 170 0
 694              		.cfi_startproc
 695              		@ args = 0, pretend = 0, frame = 16
 696              		@ frame_needed = 1, uses_anonymous_args = 0
 697 02ec 80B5     		push	{r7, lr}
 698              	.LCFI29:
 699              		.cfi_def_cfa_offset 8
 700              		.cfi_offset 7, -8
 701              		.cfi_offset 14, -4
 702 02ee 84B0     		sub	sp, sp, #16
 703              	.LCFI30:
 704              		.cfi_def_cfa_offset 24
 705 02f0 00AF     		add	r7, sp, #0
 706              	.LCFI31:
 707              		.cfi_def_cfa_register 7
 708 02f2 7860     		str	r0, [r7, #4]
 171:../../source/src/kernel/OS_CORE/TCB.c **** 	ASSERT(NULL != TCB_ptr);
 709              		.loc 3 171 0
 710 02f4 7B68     		ldr	r3, [r7, #4]
 711 02f6 002B     		cmp	r3, #0
 712 02f8 03D1     		bne	.L42
 713              		.loc 3 171 0 is_stmt 0 discriminator 1
 714 02fa AB21     		movs	r1, #171
 715 02fc 2A48     		ldr	r0, .L53
 716 02fe FFF7FEFF 		bl	_ASSERT
 717              	.L42:
 172:../../source/src/kernel/OS_CORE/TCB.c **** #if CONFIG_PARA_CHECK
 173:../../source/src/kernel/OS_CORE/TCB.c **** 	if(NULL == TCB_ptr)
 718              		.loc 3 173 0 is_stmt 1
 719 0302 7B68     		ldr	r3, [r7, #4]
 720 0304 002B     		cmp	r3, #0
 721 0306 05D1     		bne	.L43
 174:../../source/src/kernel/OS_CORE/TCB.c **** 	{
 175:../../source/src/kernel/OS_CORE/TCB.c **** 		OS_ERROR_PARA_MESSAGE_DISPLAY(task_delete,TCB_ptr);
 722              		.loc 3 175 0
 723 0308 2848     		ldr	r0, .L53+4
 724 030a FFF7FEFF 		bl	ka_printf
 176:../../source/src/kernel/OS_CORE/TCB.c **** 		return -ERROR_NULL_INPUT_PTR;
 725              		.loc 3 176 0
 726 030e 6FF0FE03 		mvn	r3, #254
 727 0312 44E0     		b	.L44
 728              	.L43:
 177:../../source/src/kernel/OS_CORE/TCB.c **** 	}
 178:../../source/src/kernel/OS_CORE/TCB.c **** #endif
 179:../../source/src/kernel/OS_CORE/TCB.c **** 	CPU_SR_ALLOC();
 729              		.loc 3 179 0
ARM GAS  G:\Users\Jaxb\AppData\Local\Temp\ccphT0IW.s 			page 19


 730 0314 0023     		movs	r3, #0
 731 0316 FB60     		str	r3, [r7, #12]
 180:../../source/src/kernel/OS_CORE/TCB.c **** 	CPU_CRITICAL_ENTER();
 732              		.loc 3 180 0
 733 0318 FFF7FEFF 		bl	CPU_SR_Save
 734 031c F860     		str	r0, [r7, #12]
 181:../../source/src/kernel/OS_CORE/TCB.c **** 	delete_from_TCB_list(TCB_ptr);
 735              		.loc 3 181 0
 736 031e 7868     		ldr	r0, [r7, #4]
 737 0320 FFF7FEFF 		bl	delete_from_TCB_list
 182:../../source/src/kernel/OS_CORE/TCB.c **** 	ka_free(TCB_ptr->stack_end);
 738              		.loc 3 182 0
 739 0324 7B68     		ldr	r3, [r7, #4]
 740 0326 9B68     		ldr	r3, [r3, #8]
 741 0328 1846     		mov	r0, r3
 742 032a FFF7FEFF 		bl	ka_free
 183:../../source/src/kernel/OS_CORE/TCB.c **** 	switch(TCB_ptr->task_state)
 743              		.loc 3 183 0
 744 032e 7B68     		ldr	r3, [r7, #4]
 745 0330 1B7C     		ldrb	r3, [r3, #16]	@ zero_extendqisi2
 746 0332 022B     		cmp	r3, #2
 747 0334 08D0     		beq	.L46
 748 0336 032B     		cmp	r3, #3
 749 0338 02D0     		beq	.L47
 750 033a 012B     		cmp	r3, #1
 751 033c 08D0     		beq	.L48
 184:../../source/src/kernel/OS_CORE/TCB.c **** 	{
 185:../../source/src/kernel/OS_CORE/TCB.c **** 		case STATE_SUSPEND_NORMAL:
 186:../../source/src/kernel/OS_CORE/TCB.c **** 			remove_from_suspend_list(TCB_ptr);break;
 187:../../source/src/kernel/OS_CORE/TCB.c **** 		case STATE_DELAY:
 188:../../source/src/kernel/OS_CORE/TCB.c **** 			remove_from_delay_heap(TCB_ptr);break;
 189:../../source/src/kernel/OS_CORE/TCB.c **** 		case STATE_READY:
 190:../../source/src/kernel/OS_CORE/TCB.c **** 			delete_TCB_from_ready(TCB_ptr);break;
 191:../../source/src/kernel/OS_CORE/TCB.c **** 		//add other state's handling code here
 192:../../source/src/kernel/OS_CORE/TCB.c **** 		/*
 193:../../source/src/kernel/OS_CORE/TCB.c **** 		 *
 194:../../source/src/kernel/OS_CORE/TCB.c **** 		 *
 195:../../source/src/kernel/OS_CORE/TCB.c **** 		 * 
 196:../../source/src/kernel/OS_CORE/TCB.c **** 		 */
 197:../../source/src/kernel/OS_CORE/TCB.c **** 		default:
 198:../../source/src/kernel/OS_CORE/TCB.c **** 			break;
 752              		.loc 3 198 0
 753 033e 0BE0     		b	.L49
 754              	.L47:
 186:../../source/src/kernel/OS_CORE/TCB.c **** 		case STATE_DELAY:
 755              		.loc 3 186 0
 756 0340 7868     		ldr	r0, [r7, #4]
 757 0342 FFF7FEFF 		bl	remove_from_suspend_list
 758 0346 07E0     		b	.L49
 759              	.L46:
 188:../../source/src/kernel/OS_CORE/TCB.c **** 		case STATE_READY:
 760              		.loc 3 188 0
 761 0348 7868     		ldr	r0, [r7, #4]
 762 034a FFF7FEFF 		bl	remove_from_delay_heap
 763 034e 03E0     		b	.L49
 764              	.L48:
 190:../../source/src/kernel/OS_CORE/TCB.c **** 		//add other state's handling code here
ARM GAS  G:\Users\Jaxb\AppData\Local\Temp\ccphT0IW.s 			page 20


 765              		.loc 3 190 0
 766 0350 7868     		ldr	r0, [r7, #4]
 767 0352 FFF7FEFF 		bl	delete_TCB_from_ready
 768 0356 00BF     		nop
 769              	.L49:
 199:../../source/src/kernel/OS_CORE/TCB.c **** 	}
 200:../../source/src/kernel/OS_CORE/TCB.c **** 	if(TCB_IS_CREATED(TCB_ptr))
 770              		.loc 3 200 0
 771 0358 7B68     		ldr	r3, [r7, #4]
 772 035a 9B6B     		ldr	r3, [r3, #56]
 773 035c 03F00103 		and	r3, r3, #1
 774 0360 002B     		cmp	r3, #0
 775 0362 02D0     		beq	.L50
 201:../../source/src/kernel/OS_CORE/TCB.c **** 	{
 202:../../source/src/kernel/OS_CORE/TCB.c **** 		ka_free(TCB_ptr);
 776              		.loc 3 202 0
 777 0364 7868     		ldr	r0, [r7, #4]
 778 0366 FFF7FEFF 		bl	ka_free
 779              	.L50:
 203:../../source/src/kernel/OS_CORE/TCB.c **** 	}
 204:../../source/src/kernel/OS_CORE/TCB.c **** 	if(is_module(TCB_ptr))
 780              		.loc 3 204 0
 781 036a 7B68     		ldr	r3, [r7, #4]
 782 036c 9B6B     		ldr	r3, [r3, #56]
 783 036e 03F00803 		and	r3, r3, #8
 784 0372 002B     		cmp	r3, #0
 785 0374 0DD0     		beq	.L51
 205:../../source/src/kernel/OS_CORE/TCB.c **** 	{
 206:../../source/src/kernel/OS_CORE/TCB.c **** 		ASSERT(TCB_ptr->dynamic_module_ptr);
 786              		.loc 3 206 0
 787 0376 7B68     		ldr	r3, [r7, #4]
 788 0378 DB6B     		ldr	r3, [r3, #60]
 789 037a 002B     		cmp	r3, #0
 790 037c 03D1     		bne	.L52
 791              		.loc 3 206 0 is_stmt 0 discriminator 1
 792 037e CE21     		movs	r1, #206
 793 0380 0948     		ldr	r0, .L53
 794 0382 FFF7FEFF 		bl	_ASSERT
 795              	.L52:
 207:../../source/src/kernel/OS_CORE/TCB.c **** 		set_module_state(TCB_ptr->dynamic_module_ptr,MODULE_STATE_LOADED);
 796              		.loc 3 207 0 is_stmt 1
 797 0386 7B68     		ldr	r3, [r7, #4]
 798 0388 DB6B     		ldr	r3, [r3, #60]
 799 038a 0121     		movs	r1, #1
 800 038c 1846     		mov	r0, r3
 801 038e FFF746FE 		bl	set_module_state
 802              	.L51:
 208:../../source/src/kernel/OS_CORE/TCB.c **** 	}
 209:../../source/src/kernel/OS_CORE/TCB.c **** 	CPU_CRITICAL_EXIT();
 803              		.loc 3 209 0
 804 0392 F868     		ldr	r0, [r7, #12]
 805 0394 FFF7FEFF 		bl	CPU_SR_Restore
 210:../../source/src/kernel/OS_CORE/TCB.c **** 	schedule();
 806              		.loc 3 210 0
 807 0398 FFF7FEFF 		bl	schedule
 211:../../source/src/kernel/OS_CORE/TCB.c **** 	return FUN_EXECUTE_SUCCESSFULLY;
 808              		.loc 3 211 0
ARM GAS  G:\Users\Jaxb\AppData\Local\Temp\ccphT0IW.s 			page 21


 809 039c 0023     		movs	r3, #0
 810              	.L44:
 212:../../source/src/kernel/OS_CORE/TCB.c **** }
 811              		.loc 3 212 0
 812 039e 1846     		mov	r0, r3
 813 03a0 1037     		adds	r7, r7, #16
 814              	.LCFI32:
 815              		.cfi_def_cfa_offset 8
 816 03a2 BD46     		mov	sp, r7
 817              	.LCFI33:
 818              		.cfi_def_cfa_register 13
 819              		@ sp needed
 820 03a4 80BD     		pop	{r7, pc}
 821              	.L54:
 822 03a6 00BF     		.align	2
 823              	.L53:
 824 03a8 00000000 		.word	.LC0
 825 03ac 8C010000 		.word	.LC8
 826              		.cfi_endproc
 827              	.LFE17:
 828              		.size	task_delete, .-task_delete
 829              	.Letext0:
 830              		.file 4 "../../source/include/os_cpu/kakaosstdint.h"
 831              		.file 5 "../../source/include/os_core/task_state.h"
 832              		.file 6 "../../source/include/os_core/TCB.h"
 833              		.file 7 "../../source/include/os_cpu/os_cpu_stm32.h"
 834              		.file 8 "../../source/include/os_core/export.h"
 835              		.section	.debug_info,"",%progbits
 836              	.Ldebug_info0:
 837 0000 DA050000 		.4byte	0x5da
 838 0004 0200     		.2byte	0x2
 839 0006 00000000 		.4byte	.Ldebug_abbrev0
 840 000a 04       		.byte	0x4
 841 000b 01       		.uleb128 0x1
 842 000c FD030000 		.4byte	.LASF73
 843 0010 0C       		.byte	0xc
 844 0011 BD000000 		.4byte	.LASF74
 845 0015 65010000 		.4byte	.LASF75
 846 0019 00000000 		.4byte	.Ltext0
 847 001d B0030000 		.4byte	.Letext0
 848 0021 00000000 		.4byte	.Ldebug_line0
 849 0025 02       		.uleb128 0x2
 850 0026 01       		.byte	0x1
 851 0027 06       		.byte	0x6
 852 0028 4D020000 		.4byte	.LASF0
 853 002c 02       		.uleb128 0x2
 854 002d 02       		.byte	0x2
 855 002e 05       		.byte	0x5
 856 002f 3F000000 		.4byte	.LASF1
 857 0033 03       		.uleb128 0x3
 858 0034 04       		.byte	0x4
 859 0035 05       		.byte	0x5
 860 0036 696E7400 		.ascii	"int\000"
 861 003a 04       		.uleb128 0x4
 862 003b 33000000 		.4byte	0x33
 863 003f 02       		.uleb128 0x2
 864 0040 08       		.byte	0x8
ARM GAS  G:\Users\Jaxb\AppData\Local\Temp\ccphT0IW.s 			page 22


 865 0041 05       		.byte	0x5
 866 0042 93010000 		.4byte	.LASF2
 867 0046 02       		.uleb128 0x2
 868 0047 01       		.byte	0x1
 869 0048 08       		.byte	0x8
 870 0049 27020000 		.4byte	.LASF3
 871 004d 02       		.uleb128 0x2
 872 004e 02       		.byte	0x2
 873 004f 07       		.byte	0x7
 874 0050 B7020000 		.4byte	.LASF4
 875 0054 05       		.uleb128 0x5
 876 0055 6A000000 		.4byte	.LASF6
 877 0059 04       		.byte	0x4
 878 005a 0C       		.byte	0xc
 879 005b 5F000000 		.4byte	0x5f
 880 005f 02       		.uleb128 0x2
 881 0060 04       		.byte	0x4
 882 0061 07       		.byte	0x7
 883 0062 7C020000 		.4byte	.LASF5
 884 0066 05       		.uleb128 0x5
 885 0067 E6040000 		.4byte	.LASF7
 886 006b 04       		.byte	0x4
 887 006c 0D       		.byte	0xd
 888 006d 71000000 		.4byte	0x71
 889 0071 02       		.uleb128 0x2
 890 0072 08       		.byte	0x8
 891 0073 07       		.byte	0x7
 892 0074 65020000 		.4byte	.LASF8
 893 0078 06       		.uleb128 0x6
 894 0079 29000000 		.4byte	.LASF25
 895 007d 08       		.byte	0x8
 896 007e 01       		.byte	0x1
 897 007f 04       		.byte	0x4
 898 0080 A1000000 		.4byte	0xa1
 899 0084 07       		.uleb128 0x7
 900 0085 FE040000 		.4byte	.LASF9
 901 0089 01       		.byte	0x1
 902 008a 05       		.byte	0x5
 903 008b A1000000 		.4byte	0xa1
 904 008f 02       		.byte	0x2
 905 0090 23       		.byte	0x23
 906 0091 00       		.uleb128 0
 907 0092 07       		.uleb128 0x7
 908 0093 BC040000 		.4byte	.LASF10
 909 0097 01       		.byte	0x1
 910 0098 05       		.byte	0x5
 911 0099 A1000000 		.4byte	0xa1
 912 009d 02       		.byte	0x2
 913 009e 23       		.byte	0x23
 914 009f 04       		.uleb128 0x4
 915 00a0 00       		.byte	0
 916 00a1 08       		.uleb128 0x8
 917 00a2 04       		.byte	0x4
 918 00a3 78000000 		.4byte	0x78
 919 00a7 09       		.uleb128 0x9
 920 00a8 92000000 		.4byte	.LASF76
 921 00ac 07       		.byte	0x7
ARM GAS  G:\Users\Jaxb\AppData\Local\Temp\ccphT0IW.s 			page 23


 922 00ad 01       		.byte	0x1
 923 00ae 46000000 		.4byte	0x46
 924 00b2 05       		.byte	0x5
 925 00b3 04       		.byte	0x4
 926 00b4 F5000000 		.4byte	0xf5
 927 00b8 0A       		.uleb128 0xa
 928 00b9 CA020000 		.4byte	.LASF11
 929 00bd 01       		.byte	0x1
 930 00be 0A       		.uleb128 0xa
 931 00bf 35020000 		.4byte	.LASF12
 932 00c3 02       		.byte	0x2
 933 00c4 0A       		.uleb128 0xa
 934 00c5 14000000 		.4byte	.LASF13
 935 00c9 03       		.byte	0x3
 936 00ca 0A       		.uleb128 0xa
 937 00cb 6D030000 		.4byte	.LASF14
 938 00cf 04       		.byte	0x4
 939 00d0 0A       		.uleb128 0xa
 940 00d1 1E010000 		.4byte	.LASF15
 941 00d5 05       		.byte	0x5
 942 00d6 0A       		.uleb128 0xa
 943 00d7 49000000 		.4byte	.LASF16
 944 00db 06       		.byte	0x6
 945 00dc 0A       		.uleb128 0xa
 946 00dd 44010000 		.4byte	.LASF17
 947 00e1 07       		.byte	0x7
 948 00e2 0A       		.uleb128 0xa
 949 00e3 9D000000 		.4byte	.LASF18
 950 00e7 08       		.byte	0x8
 951 00e8 0A       		.uleb128 0xa
 952 00e9 F1020000 		.4byte	.LASF19
 953 00ed 09       		.byte	0x9
 954 00ee 0A       		.uleb128 0xa
 955 00ef A3040000 		.4byte	.LASF20
 956 00f3 0A       		.byte	0xa
 957 00f4 00       		.byte	0
 958 00f5 05       		.uleb128 0x5
 959 00f6 F3010000 		.4byte	.LASF21
 960 00fa 05       		.byte	0x5
 961 00fb 0F       		.byte	0xf
 962 00fc A7000000 		.4byte	0xa7
 963 0100 05       		.uleb128 0x5
 964 0101 7C000000 		.4byte	.LASF22
 965 0105 06       		.byte	0x6
 966 0106 0B       		.byte	0xb
 967 0107 5F000000 		.4byte	0x5f
 968 010b 05       		.uleb128 0x5
 969 010c 00000000 		.4byte	.LASF23
 970 0110 06       		.byte	0x6
 971 0111 0D       		.byte	0xd
 972 0112 5F000000 		.4byte	0x5f
 973 0116 05       		.uleb128 0x5
 974 0117 CB030000 		.4byte	.LASF24
 975 011b 06       		.byte	0x6
 976 011c 0E       		.byte	0xe
 977 011d 21010000 		.4byte	0x121
 978 0121 08       		.uleb128 0x8
ARM GAS  G:\Users\Jaxb\AppData\Local\Temp\ccphT0IW.s 			page 24


 979 0122 04       		.byte	0x4
 980 0123 27010000 		.4byte	0x127
 981 0127 0B       		.uleb128 0xb
 982 0128 01       		.byte	0x1
 983 0129 33010000 		.4byte	0x133
 984 012d 0C       		.uleb128 0xc
 985 012e 33010000 		.4byte	0x133
 986 0132 00       		.byte	0
 987 0133 0D       		.uleb128 0xd
 988 0134 04       		.byte	0x4
 989 0135 0E       		.uleb128 0xe
 990 0136 E4030000 		.4byte	.LASF60
 991 013a 06       		.byte	0x6
 992 013b 14       		.byte	0x14
 993 013c 3A000000 		.4byte	0x3a
 994 0140 01       		.byte	0x1
 995 0141 01       		.byte	0x1
 996 0142 06       		.uleb128 0x6
 997 0143 84030000 		.4byte	.LASF26
 998 0147 48       		.byte	0x48
 999 0148 06       		.byte	0x6
 1000 0149 37       		.byte	0x37
 1001 014a 21020000 		.4byte	0x221
 1002 014e 07       		.uleb128 0x7
 1003 014f 89020000 		.4byte	.LASF27
 1004 0153 06       		.byte	0x6
 1005 0154 38       		.byte	0x38
 1006 0155 21020000 		.4byte	0x221
 1007 0159 02       		.byte	0x2
 1008 015a 23       		.byte	0x23
 1009 015b 00       		.uleb128 0
 1010 015c 07       		.uleb128 0x7
 1011 015d 9E030000 		.4byte	.LASF28
 1012 0161 06       		.byte	0x6
 1013 0162 39       		.byte	0x39
 1014 0163 5F000000 		.4byte	0x5f
 1015 0167 02       		.byte	0x2
 1016 0168 23       		.byte	0x23
 1017 0169 04       		.uleb128 0x4
 1018 016a 07       		.uleb128 0x7
 1019 016b 14010000 		.4byte	.LASF29
 1020 016f 06       		.byte	0x6
 1021 0170 3A       		.byte	0x3a
 1022 0171 21020000 		.4byte	0x221
 1023 0175 02       		.byte	0x2
 1024 0176 23       		.byte	0x23
 1025 0177 08       		.uleb128 0x8
 1026 0178 07       		.uleb128 0x7
 1027 0179 C6010000 		.4byte	.LASF30
 1028 017d 06       		.byte	0x6
 1029 017e 3B       		.byte	0x3b
 1030 017f 0B010000 		.4byte	0x10b
 1031 0183 02       		.byte	0x2
 1032 0184 23       		.byte	0x23
 1033 0185 0C       		.uleb128 0xc
 1034 0186 07       		.uleb128 0x7
 1035 0187 40030000 		.4byte	.LASF31
ARM GAS  G:\Users\Jaxb\AppData\Local\Temp\ccphT0IW.s 			page 25


 1036 018b 06       		.byte	0x6
 1037 018c 3C       		.byte	0x3c
 1038 018d F5000000 		.4byte	0xf5
 1039 0191 02       		.byte	0x2
 1040 0192 23       		.byte	0x23
 1041 0193 10       		.uleb128 0x10
 1042 0194 07       		.uleb128 0x7
 1043 0195 ED040000 		.4byte	.LASF32
 1044 0199 06       		.byte	0x6
 1045 019a 3D       		.byte	0x3d
 1046 019b 0B010000 		.4byte	0x10b
 1047 019f 02       		.byte	0x2
 1048 01a0 23       		.byte	0x23
 1049 01a1 14       		.uleb128 0x14
 1050 01a2 07       		.uleb128 0x7
 1051 01a3 2C030000 		.4byte	.LASF33
 1052 01a7 06       		.byte	0x6
 1053 01a8 3E       		.byte	0x3e
 1054 01a9 33000000 		.4byte	0x33
 1055 01ad 02       		.byte	0x2
 1056 01ae 23       		.byte	0x23
 1057 01af 18       		.uleb128 0x18
 1058 01b0 07       		.uleb128 0x7
 1059 01b1 99020000 		.4byte	.LASF34
 1060 01b5 06       		.byte	0x6
 1061 01b6 3F       		.byte	0x3f
 1062 01b7 78000000 		.4byte	0x78
 1063 01bb 02       		.byte	0x2
 1064 01bc 23       		.byte	0x23
 1065 01bd 1C       		.uleb128 0x1c
 1066 01be 07       		.uleb128 0x7
 1067 01bf D7030000 		.4byte	.LASF35
 1068 01c3 06       		.byte	0x6
 1069 01c4 40       		.byte	0x40
 1070 01c5 78000000 		.4byte	0x78
 1071 01c9 02       		.byte	0x2
 1072 01ca 23       		.byte	0x23
 1073 01cb 24       		.uleb128 0x24
 1074 01cc 07       		.uleb128 0x7
 1075 01cd 04020000 		.4byte	.LASF36
 1076 01d1 06       		.byte	0x6
 1077 01d2 41       		.byte	0x41
 1078 01d3 27020000 		.4byte	0x227
 1079 01d7 02       		.byte	0x2
 1080 01d8 23       		.byte	0x23
 1081 01d9 2C       		.uleb128 0x2c
 1082 01da 07       		.uleb128 0x7
 1083 01db B2010000 		.4byte	.LASF37
 1084 01df 06       		.byte	0x6
 1085 01e0 42       		.byte	0x42
 1086 01e1 5F000000 		.4byte	0x5f
 1087 01e5 02       		.byte	0x2
 1088 01e6 23       		.byte	0x23
 1089 01e7 30       		.uleb128 0x30
 1090 01e8 07       		.uleb128 0x7
 1091 01e9 4B030000 		.4byte	.LASF38
 1092 01ed 06       		.byte	0x6
ARM GAS  G:\Users\Jaxb\AppData\Local\Temp\ccphT0IW.s 			page 26


 1093 01ee 43       		.byte	0x43
 1094 01ef 5F000000 		.4byte	0x5f
 1095 01f3 02       		.byte	0x2
 1096 01f4 23       		.byte	0x23
 1097 01f5 34       		.uleb128 0x34
 1098 01f6 07       		.uleb128 0x7
 1099 01f7 41020000 		.4byte	.LASF39
 1100 01fb 06       		.byte	0x6
 1101 01fc 44       		.byte	0x44
 1102 01fd 54000000 		.4byte	0x54
 1103 0201 02       		.byte	0x2
 1104 0202 23       		.byte	0x23
 1105 0203 38       		.uleb128 0x38
 1106 0204 07       		.uleb128 0x7
 1107 0205 14020000 		.4byte	.LASF40
 1108 0209 06       		.byte	0x6
 1109 020a 45       		.byte	0x45
 1110 020b 0A030000 		.4byte	0x30a
 1111 020f 02       		.byte	0x2
 1112 0210 23       		.byte	0x23
 1113 0211 3C       		.uleb128 0x3c
 1114 0212 07       		.uleb128 0x7
 1115 0213 C8040000 		.4byte	.LASF41
 1116 0217 06       		.byte	0x6
 1117 0218 46       		.byte	0x46
 1118 0219 66000000 		.4byte	0x66
 1119 021d 02       		.byte	0x2
 1120 021e 23       		.byte	0x23
 1121 021f 40       		.uleb128 0x40
 1122 0220 00       		.byte	0
 1123 0221 08       		.uleb128 0x8
 1124 0222 04       		.byte	0x4
 1125 0223 00010000 		.4byte	0x100
 1126 0227 08       		.uleb128 0x8
 1127 0228 04       		.byte	0x4
 1128 0229 2D020000 		.4byte	0x22d
 1129 022d 02       		.uleb128 0x2
 1130 022e 01       		.byte	0x1
 1131 022f 08       		.byte	0x8
 1132 0230 D6020000 		.4byte	.LASF42
 1133 0234 0F       		.uleb128 0xf
 1134 0235 2D020000 		.4byte	0x22d
 1135 0239 06       		.uleb128 0x6
 1136 023a A8020000 		.4byte	.LASF43
 1137 023e 58       		.byte	0x58
 1138 023f 02       		.byte	0x2
 1139 0240 22       		.byte	0x22
 1140 0241 0A030000 		.4byte	0x30a
 1141 0245 07       		.uleb128 0x7
 1142 0246 04020000 		.4byte	.LASF36
 1143 024a 02       		.byte	0x2
 1144 024b 24       		.byte	0x24
 1145 024c 65030000 		.4byte	0x365
 1146 0250 02       		.byte	0x2
 1147 0251 23       		.byte	0x23
 1148 0252 00       		.uleb128 0
 1149 0253 07       		.uleb128 0x7
ARM GAS  G:\Users\Jaxb\AppData\Local\Temp\ccphT0IW.s 			page 27


 1150 0254 F7000000 		.4byte	.LASF44
 1151 0258 02       		.byte	0x2
 1152 0259 25       		.byte	0x25
 1153 025a 78000000 		.4byte	0x78
 1154 025e 02       		.byte	0x2
 1155 025f 23       		.byte	0x23
 1156 0260 20       		.uleb128 0x20
 1157 0261 07       		.uleb128 0x7
 1158 0262 D9040000 		.4byte	.LASF45
 1159 0266 02       		.byte	0x2
 1160 0267 26       		.byte	0x26
 1161 0268 54000000 		.4byte	0x54
 1162 026c 02       		.byte	0x2
 1163 026d 23       		.byte	0x23
 1164 026e 28       		.uleb128 0x28
 1165 026f 07       		.uleb128 0x7
 1166 0270 DB020000 		.4byte	.LASF46
 1167 0274 02       		.byte	0x2
 1168 0275 27       		.byte	0x27
 1169 0276 7B030000 		.4byte	0x37b
 1170 027a 02       		.byte	0x2
 1171 027b 23       		.byte	0x23
 1172 027c 2C       		.uleb128 0x2c
 1173 027d 07       		.uleb128 0x7
 1174 027e 09020000 		.4byte	.LASF47
 1175 0282 02       		.byte	0x2
 1176 0283 28       		.byte	0x28
 1177 0284 83030000 		.4byte	0x383
 1178 0288 02       		.byte	0x2
 1179 0289 23       		.byte	0x23
 1180 028a 30       		.uleb128 0x30
 1181 028b 07       		.uleb128 0x7
 1182 028c D3010000 		.4byte	.LASF48
 1183 0290 02       		.byte	0x2
 1184 0291 29       		.byte	0x29
 1185 0292 33010000 		.4byte	0x133
 1186 0296 02       		.byte	0x2
 1187 0297 23       		.byte	0x23
 1188 0298 34       		.uleb128 0x34
 1189 0299 07       		.uleb128 0x7
 1190 029a A9030000 		.4byte	.LASF49
 1191 029e 02       		.byte	0x2
 1192 029f 2A       		.byte	0x2a
 1193 02a0 5F000000 		.4byte	0x5f
 1194 02a4 02       		.byte	0x2
 1195 02a5 23       		.byte	0x23
 1196 02a6 38       		.uleb128 0x38
 1197 02a7 07       		.uleb128 0x7
 1198 02a8 87000000 		.4byte	.LASF50
 1199 02ac 02       		.byte	0x2
 1200 02ad 2B       		.byte	0x2b
 1201 02ae 33010000 		.4byte	0x133
 1202 02b2 02       		.byte	0x2
 1203 02b3 23       		.byte	0x23
 1204 02b4 3C       		.uleb128 0x3c
 1205 02b5 07       		.uleb128 0x7
 1206 02b6 0E020000 		.4byte	.LASF51
ARM GAS  G:\Users\Jaxb\AppData\Local\Temp\ccphT0IW.s 			page 28


 1207 02ba 02       		.byte	0x2
 1208 02bb 2C       		.byte	0x2c
 1209 02bc 33010000 		.4byte	0x133
 1210 02c0 02       		.byte	0x2
 1211 02c1 23       		.byte	0x23
 1212 02c2 40       		.uleb128 0x40
 1213 02c3 07       		.uleb128 0x7
 1214 02c4 59020000 		.4byte	.LASF52
 1215 02c8 02       		.byte	0x2
 1216 02c9 2D       		.byte	0x2d
 1217 02ca 54000000 		.4byte	0x54
 1218 02ce 02       		.byte	0x2
 1219 02cf 23       		.byte	0x23
 1220 02d0 44       		.uleb128 0x44
 1221 02d1 07       		.uleb128 0x7
 1222 02d2 03050000 		.4byte	.LASF53
 1223 02d6 02       		.byte	0x2
 1224 02d7 2E       		.byte	0x2e
 1225 02d8 89030000 		.4byte	0x389
 1226 02dc 02       		.byte	0x2
 1227 02dd 23       		.byte	0x23
 1228 02de 48       		.uleb128 0x48
 1229 02df 07       		.uleb128 0x7
 1230 02e0 E0010000 		.4byte	.LASF54
 1231 02e4 02       		.byte	0x2
 1232 02e5 2F       		.byte	0x2f
 1233 02e6 5F000000 		.4byte	0x5f
 1234 02ea 02       		.byte	0x2
 1235 02eb 23       		.byte	0x23
 1236 02ec 4C       		.uleb128 0x4c
 1237 02ed 10       		.uleb128 0x10
 1238 02ee 72656600 		.ascii	"ref\000"
 1239 02f2 02       		.byte	0x2
 1240 02f3 30       		.byte	0x30
 1241 02f4 5F000000 		.4byte	0x5f
 1242 02f8 02       		.byte	0x2
 1243 02f9 23       		.byte	0x23
 1244 02fa 50       		.uleb128 0x50
 1245 02fb 07       		.uleb128 0x7
 1246 02fc 35010000 		.4byte	.LASF55
 1247 0300 02       		.byte	0x2
 1248 0301 31       		.byte	0x31
 1249 0302 8F030000 		.4byte	0x38f
 1250 0306 02       		.byte	0x2
 1251 0307 23       		.byte	0x23
 1252 0308 54       		.uleb128 0x54
 1253 0309 00       		.byte	0
 1254 030a 08       		.uleb128 0x8
 1255 030b 04       		.byte	0x4
 1256 030c 39020000 		.4byte	0x239
 1257 0310 11       		.uleb128 0x11
 1258 0311 54434200 		.ascii	"TCB\000"
 1259 0315 06       		.byte	0x6
 1260 0316 47       		.byte	0x47
 1261 0317 42010000 		.4byte	0x142
 1262 031b 04       		.uleb128 0x4
 1263 031c 10030000 		.4byte	0x310
ARM GAS  G:\Users\Jaxb\AppData\Local\Temp\ccphT0IW.s 			page 29


 1264 0320 05       		.uleb128 0x5
 1265 0321 11030000 		.4byte	.LASF56
 1266 0325 07       		.byte	0x7
 1267 0326 04       		.byte	0x4
 1268 0327 5F000000 		.4byte	0x5f
 1269 032b 05       		.uleb128 0x5
 1270 032c C1040000 		.4byte	.LASF57
 1271 0330 07       		.byte	0x7
 1272 0331 06       		.byte	0x6
 1273 0332 20030000 		.4byte	0x320
 1274 0336 06       		.uleb128 0x6
 1275 0337 03010000 		.4byte	.LASF58
 1276 033b 08       		.byte	0x8
 1277 033c 08       		.byte	0x8
 1278 033d 08       		.byte	0x8
 1279 033e 5F030000 		.4byte	0x35f
 1280 0342 07       		.uleb128 0x7
 1281 0343 0F000000 		.4byte	.LASF59
 1282 0347 08       		.byte	0x8
 1283 0348 0A       		.byte	0xa
 1284 0349 33010000 		.4byte	0x133
 1285 034d 02       		.byte	0x2
 1286 034e 23       		.byte	0x23
 1287 034f 00       		.uleb128 0
 1288 0350 07       		.uleb128 0x7
 1289 0351 04020000 		.4byte	.LASF36
 1290 0355 08       		.byte	0x8
 1291 0356 0B       		.byte	0xb
 1292 0357 5F030000 		.4byte	0x35f
 1293 035b 02       		.byte	0x2
 1294 035c 23       		.byte	0x23
 1295 035d 04       		.uleb128 0x4
 1296 035e 00       		.byte	0
 1297 035f 08       		.uleb128 0x8
 1298 0360 04       		.byte	0x4
 1299 0361 34020000 		.4byte	0x234
 1300 0365 12       		.uleb128 0x12
 1301 0366 2D020000 		.4byte	0x22d
 1302 036a 75030000 		.4byte	0x375
 1303 036e 13       		.uleb128 0x13
 1304 036f 5F000000 		.4byte	0x5f
 1305 0373 1F       		.byte	0x1f
 1306 0374 00       		.byte	0
 1307 0375 14       		.uleb128 0x14
 1308 0376 01       		.byte	0x1
 1309 0377 33000000 		.4byte	0x33
 1310 037b 08       		.uleb128 0x8
 1311 037c 04       		.byte	0x4
 1312 037d 75030000 		.4byte	0x375
 1313 0381 15       		.uleb128 0x15
 1314 0382 01       		.byte	0x1
 1315 0383 08       		.uleb128 0x8
 1316 0384 04       		.byte	0x4
 1317 0385 81030000 		.4byte	0x381
 1318 0389 08       		.uleb128 0x8
 1319 038a 04       		.byte	0x4
 1320 038b 36030000 		.4byte	0x336
ARM GAS  G:\Users\Jaxb\AppData\Local\Temp\ccphT0IW.s 			page 30


 1321 038f 08       		.uleb128 0x8
 1322 0390 04       		.byte	0x4
 1323 0391 10030000 		.4byte	0x310
 1324 0395 16       		.uleb128 0x16
 1325 0396 F2040000 		.4byte	.LASF61
 1326 039a 03       		.byte	0x3
 1327 039b 0E       		.byte	0xe
 1328 039c A7030000 		.4byte	0x3a7
 1329 03a0 01       		.byte	0x1
 1330 03a1 05       		.byte	0x5
 1331 03a2 03       		.byte	0x3
 1332 03a3 00000000 		.4byte	OSTCBCurPtr
 1333 03a7 08       		.uleb128 0x8
 1334 03a8 04       		.byte	0x4
 1335 03a9 1B030000 		.4byte	0x31b
 1336 03ad 16       		.uleb128 0x16
 1337 03ae 1C030000 		.4byte	.LASF62
 1338 03b2 03       		.byte	0x3
 1339 03b3 0F       		.byte	0xf
 1340 03b4 A7030000 		.4byte	0x3a7
 1341 03b8 01       		.byte	0x1
 1342 03b9 05       		.byte	0x5
 1343 03ba 03       		.byte	0x3
 1344 03bb 00000000 		.4byte	OSTCBHighRdyPtr
 1345 03bf 17       		.uleb128 0x17
 1346 03c0 35010000 		.4byte	0x135
 1347 03c4 03       		.byte	0x3
 1348 03c5 10       		.byte	0x10
 1349 03c6 05       		.byte	0x5
 1350 03c7 03       		.byte	0x3
 1351 03c8 00000000 		.4byte	g_interrupt_count
 1352 03cc 18       		.uleb128 0x18
 1353 03cd 01       		.byte	0x1
 1354 03ce 33000000 		.4byte	.LASF63
 1355 03d2 03       		.byte	0x3
 1356 03d3 A9       		.byte	0xa9
 1357 03d4 01       		.byte	0x1
 1358 03d5 33000000 		.4byte	0x33
 1359 03d9 EC020000 		.4byte	.LFB17
 1360 03dd B0030000 		.4byte	.LFE17
 1361 03e1 00000000 		.4byte	.LLST6
 1362 03e5 01       		.byte	0x1
 1363 03e6 07040000 		.4byte	0x407
 1364 03ea 19       		.uleb128 0x19
 1365 03eb B5030000 		.4byte	.LASF65
 1366 03ef 03       		.byte	0x3
 1367 03f0 A9       		.byte	0xa9
 1368 03f1 8F030000 		.4byte	0x38f
 1369 03f5 02       		.byte	0x2
 1370 03f6 91       		.byte	0x91
 1371 03f7 6C       		.sleb128 -20
 1372 03f8 1A       		.uleb128 0x1a
 1373 03f9 F6030000 		.4byte	.LASF66
 1374 03fd 03       		.byte	0x3
 1375 03fe B3       		.byte	0xb3
 1376 03ff 2B030000 		.4byte	0x32b
 1377 0403 02       		.byte	0x2
ARM GAS  G:\Users\Jaxb\AppData\Local\Temp\ccphT0IW.s 			page 31


 1378 0404 91       		.byte	0x91
 1379 0405 74       		.sleb128 -12
 1380 0406 00       		.byte	0
 1381 0407 18       		.uleb128 0x18
 1382 0408 01       		.byte	0x1
 1383 0409 E0020000 		.4byte	.LASF64
 1384 040d 03       		.byte	0x3
 1385 040e 75       		.byte	0x75
 1386 040f 01       		.byte	0x1
 1387 0410 33000000 		.4byte	0x33
 1388 0414 48020000 		.4byte	.LFB16
 1389 0418 EC020000 		.4byte	.LFE16
 1390 041c 50000000 		.4byte	.LLST5
 1391 0420 01       		.byte	0x1
 1392 0421 50040000 		.4byte	0x450
 1393 0425 19       		.uleb128 0x19
 1394 0426 B5030000 		.4byte	.LASF65
 1395 042a 03       		.byte	0x3
 1396 042b 75       		.byte	0x75
 1397 042c 8F030000 		.4byte	0x38f
 1398 0430 02       		.byte	0x2
 1399 0431 91       		.byte	0x91
 1400 0432 6C       		.sleb128 -20
 1401 0433 19       		.uleb128 0x19
 1402 0434 ED040000 		.4byte	.LASF32
 1403 0438 03       		.byte	0x3
 1404 0439 75       		.byte	0x75
 1405 043a 0B010000 		.4byte	0x10b
 1406 043e 02       		.byte	0x2
 1407 043f 91       		.byte	0x91
 1408 0440 68       		.sleb128 -24
 1409 0441 1A       		.uleb128 0x1a
 1410 0442 F6030000 		.4byte	.LASF66
 1411 0446 03       		.byte	0x3
 1412 0447 81       		.byte	0x81
 1413 0448 2B030000 		.4byte	0x32b
 1414 044c 02       		.byte	0x2
 1415 044d 91       		.byte	0x91
 1416 044e 74       		.sleb128 -12
 1417 044f 00       		.byte	0
 1418 0450 18       		.uleb128 0x18
 1419 0451 01       		.byte	0x1
 1420 0452 71000000 		.4byte	.LASF67
 1421 0456 03       		.byte	0x3
 1422 0457 48       		.byte	0x48
 1423 0458 01       		.byte	0x1
 1424 0459 8F030000 		.4byte	0x38f
 1425 045d A4010000 		.4byte	.LFB15
 1426 0461 48020000 		.4byte	.LFE15
 1427 0465 A0000000 		.4byte	.LLST4
 1428 0469 01       		.byte	0x1
 1429 046a DF040000 		.4byte	0x4df
 1430 046e 19       		.uleb128 0x19
 1431 046f 9E030000 		.4byte	.LASF28
 1432 0473 03       		.byte	0x3
 1433 0474 49       		.byte	0x49
 1434 0475 5F000000 		.4byte	0x5f
ARM GAS  G:\Users\Jaxb\AppData\Local\Temp\ccphT0IW.s 			page 32


 1435 0479 02       		.byte	0x2
 1436 047a 91       		.byte	0x91
 1437 047b 6C       		.sleb128 -20
 1438 047c 19       		.uleb128 0x19
 1439 047d ED040000 		.4byte	.LASF32
 1440 0481 03       		.byte	0x3
 1441 0482 4A       		.byte	0x4a
 1442 0483 0B010000 		.4byte	0x10b
 1443 0487 02       		.byte	0x2
 1444 0488 91       		.byte	0x91
 1445 0489 68       		.sleb128 -24
 1446 048a 19       		.uleb128 0x19
 1447 048b B2010000 		.4byte	.LASF37
 1448 048f 03       		.byte	0x3
 1449 0490 4B       		.byte	0x4b
 1450 0491 5F000000 		.4byte	0x5f
 1451 0495 02       		.byte	0x2
 1452 0496 91       		.byte	0x91
 1453 0497 64       		.sleb128 -28
 1454 0498 19       		.uleb128 0x19
 1455 0499 04020000 		.4byte	.LASF36
 1456 049d 03       		.byte	0x3
 1457 049e 4C       		.byte	0x4c
 1458 049f 5F030000 		.4byte	0x35f
 1459 04a3 02       		.byte	0x2
 1460 04a4 91       		.byte	0x91
 1461 04a5 60       		.sleb128 -32
 1462 04a6 19       		.uleb128 0x19
 1463 04a7 5F030000 		.4byte	.LASF68
 1464 04ab 03       		.byte	0x3
 1465 04ac 4D       		.byte	0x4d
 1466 04ad 16010000 		.4byte	0x116
 1467 04b1 02       		.byte	0x2
 1468 04b2 91       		.byte	0x91
 1469 04b3 00       		.sleb128 0
 1470 04b4 19       		.uleb128 0x19
 1471 04b5 68030000 		.4byte	.LASF69
 1472 04b9 03       		.byte	0x3
 1473 04ba 4E       		.byte	0x4e
 1474 04bb 33010000 		.4byte	0x133
 1475 04bf 02       		.byte	0x2
 1476 04c0 91       		.byte	0x91
 1477 04c1 04       		.sleb128 4
 1478 04c2 19       		.uleb128 0x19
 1479 04c3 FE010000 		.4byte	.LASF70
 1480 04c7 03       		.byte	0x3
 1481 04c8 4F       		.byte	0x4f
 1482 04c9 F5000000 		.4byte	0xf5
 1483 04cd 02       		.byte	0x2
 1484 04ce 91       		.byte	0x91
 1485 04cf 08       		.sleb128 8
 1486 04d0 1A       		.uleb128 0x1a
 1487 04d1 B5030000 		.4byte	.LASF65
 1488 04d5 03       		.byte	0x3
 1489 04d6 5B       		.byte	0x5b
 1490 04d7 8F030000 		.4byte	0x38f
 1491 04db 02       		.byte	0x2
ARM GAS  G:\Users\Jaxb\AppData\Local\Temp\ccphT0IW.s 			page 33


 1492 04dc 91       		.byte	0x91
 1493 04dd 74       		.sleb128 -12
 1494 04de 00       		.byte	0
 1495 04df 18       		.uleb128 0x18
 1496 04e0 01       		.byte	0x1
 1497 04e1 8F020000 		.4byte	.LASF71
 1498 04e5 03       		.byte	0x3
 1499 04e6 17       		.byte	0x17
 1500 04e7 01       		.byte	0x1
 1501 04e8 33000000 		.4byte	0x33
 1502 04ec 54000000 		.4byte	.LFB14
 1503 04f0 A4010000 		.4byte	.LFE14
 1504 04f4 F0000000 		.4byte	.LLST3
 1505 04f8 01       		.byte	0x1
 1506 04f9 6E050000 		.4byte	0x56e
 1507 04fd 19       		.uleb128 0x19
 1508 04fe B5030000 		.4byte	.LASF65
 1509 0502 03       		.byte	0x3
 1510 0503 18       		.byte	0x18
 1511 0504 8F030000 		.4byte	0x38f
 1512 0508 02       		.byte	0x2
 1513 0509 91       		.byte	0x91
 1514 050a 6C       		.sleb128 -20
 1515 050b 19       		.uleb128 0x19
 1516 050c 9E030000 		.4byte	.LASF28
 1517 0510 03       		.byte	0x3
 1518 0511 19       		.byte	0x19
 1519 0512 5F000000 		.4byte	0x5f
 1520 0516 02       		.byte	0x2
 1521 0517 91       		.byte	0x91
 1522 0518 68       		.sleb128 -24
 1523 0519 19       		.uleb128 0x19
 1524 051a ED040000 		.4byte	.LASF32
 1525 051e 03       		.byte	0x3
 1526 051f 1A       		.byte	0x1a
 1527 0520 0B010000 		.4byte	0x10b
 1528 0524 02       		.byte	0x2
 1529 0525 91       		.byte	0x91
 1530 0526 64       		.sleb128 -28
 1531 0527 19       		.uleb128 0x19
 1532 0528 B2010000 		.4byte	.LASF37
 1533 052c 03       		.byte	0x3
 1534 052d 1B       		.byte	0x1b
 1535 052e 5F000000 		.4byte	0x5f
 1536 0532 02       		.byte	0x2
 1537 0533 91       		.byte	0x91
 1538 0534 60       		.sleb128 -32
 1539 0535 19       		.uleb128 0x19
 1540 0536 04020000 		.4byte	.LASF36
 1541 053a 03       		.byte	0x3
 1542 053b 1C       		.byte	0x1c
 1543 053c 5F030000 		.4byte	0x35f
 1544 0540 02       		.byte	0x2
 1545 0541 91       		.byte	0x91
 1546 0542 00       		.sleb128 0
 1547 0543 19       		.uleb128 0x19
 1548 0544 5F030000 		.4byte	.LASF68
ARM GAS  G:\Users\Jaxb\AppData\Local\Temp\ccphT0IW.s 			page 34


 1549 0548 03       		.byte	0x3
 1550 0549 1D       		.byte	0x1d
 1551 054a 16010000 		.4byte	0x116
 1552 054e 02       		.byte	0x2
 1553 054f 91       		.byte	0x91
 1554 0550 04       		.sleb128 4
 1555 0551 19       		.uleb128 0x19
 1556 0552 68030000 		.4byte	.LASF69
 1557 0556 03       		.byte	0x3
 1558 0557 1E       		.byte	0x1e
 1559 0558 33010000 		.4byte	0x133
 1560 055c 02       		.byte	0x2
 1561 055d 91       		.byte	0x91
 1562 055e 08       		.sleb128 8
 1563 055f 19       		.uleb128 0x19
 1564 0560 FE010000 		.4byte	.LASF70
 1565 0564 03       		.byte	0x3
 1566 0565 1F       		.byte	0x1f
 1567 0566 F5000000 		.4byte	0xf5
 1568 056a 02       		.byte	0x2
 1569 056b 91       		.byte	0x91
 1570 056c 0C       		.sleb128 12
 1571 056d 00       		.byte	0
 1572 056e 1B       		.uleb128 0x1b
 1573 056f BD030000 		.4byte	.LASF77
 1574 0573 03       		.byte	0x3
 1575 0574 12       		.byte	0x12
 1576 0575 01       		.byte	0x1
 1577 0576 3E000000 		.4byte	.LFB13
 1578 057a 54000000 		.4byte	.LFE13
 1579 057e 40010000 		.4byte	.LLST2
 1580 0582 01       		.byte	0x1
 1581 0583 1C       		.uleb128 0x1c
 1582 0584 A1010000 		.4byte	.LASF78
 1583 0588 02       		.byte	0x2
 1584 0589 36       		.byte	0x36
 1585 058a 01       		.byte	0x1
 1586 058b 1E000000 		.4byte	.LFB12
 1587 058f 3E000000 		.4byte	.LFE12
 1588 0593 6C010000 		.4byte	.LLST1
 1589 0597 01       		.byte	0x1
 1590 0598 B9050000 		.4byte	0x5b9
 1591 059c 19       		.uleb128 0x19
 1592 059d 14020000 		.4byte	.LASF40
 1593 05a1 02       		.byte	0x2
 1594 05a2 36       		.byte	0x36
 1595 05a3 0A030000 		.4byte	0x30a
 1596 05a7 02       		.byte	0x2
 1597 05a8 91       		.byte	0x91
 1598 05a9 74       		.sleb128 -12
 1599 05aa 19       		.uleb128 0x19
 1600 05ab FE010000 		.4byte	.LASF70
 1601 05af 02       		.byte	0x2
 1602 05b0 36       		.byte	0x36
 1603 05b1 54000000 		.4byte	0x54
 1604 05b5 02       		.byte	0x2
 1605 05b6 91       		.byte	0x91
ARM GAS  G:\Users\Jaxb\AppData\Local\Temp\ccphT0IW.s 			page 35


 1606 05b7 70       		.sleb128 -16
 1607 05b8 00       		.byte	0
 1608 05b9 1D       		.uleb128 0x1d
 1609 05ba E3000000 		.4byte	.LASF79
 1610 05be 01       		.byte	0x1
 1611 05bf 10       		.byte	0x10
 1612 05c0 01       		.byte	0x1
 1613 05c1 00000000 		.4byte	.LFB0
 1614 05c5 1E000000 		.4byte	.LFE0
 1615 05c9 C8010000 		.4byte	.LLST0
 1616 05cd 01       		.byte	0x1
 1617 05ce 19       		.uleb128 0x19
 1618 05cf F2000000 		.4byte	.LASF72
 1619 05d3 01       		.byte	0x1
 1620 05d4 10       		.byte	0x10
 1621 05d5 A1000000 		.4byte	0xa1
 1622 05d9 02       		.byte	0x2
 1623 05da 91       		.byte	0x91
 1624 05db 74       		.sleb128 -12
 1625 05dc 00       		.byte	0
 1626 05dd 00       		.byte	0
 1627              		.section	.debug_abbrev,"",%progbits
 1628              	.Ldebug_abbrev0:
 1629 0000 01       		.uleb128 0x1
 1630 0001 11       		.uleb128 0x11
 1631 0002 01       		.byte	0x1
 1632 0003 25       		.uleb128 0x25
 1633 0004 0E       		.uleb128 0xe
 1634 0005 13       		.uleb128 0x13
 1635 0006 0B       		.uleb128 0xb
 1636 0007 03       		.uleb128 0x3
 1637 0008 0E       		.uleb128 0xe
 1638 0009 1B       		.uleb128 0x1b
 1639 000a 0E       		.uleb128 0xe
 1640 000b 11       		.uleb128 0x11
 1641 000c 01       		.uleb128 0x1
 1642 000d 12       		.uleb128 0x12
 1643 000e 01       		.uleb128 0x1
 1644 000f 10       		.uleb128 0x10
 1645 0010 06       		.uleb128 0x6
 1646 0011 00       		.byte	0
 1647 0012 00       		.byte	0
 1648 0013 02       		.uleb128 0x2
 1649 0014 24       		.uleb128 0x24
 1650 0015 00       		.byte	0
 1651 0016 0B       		.uleb128 0xb
 1652 0017 0B       		.uleb128 0xb
 1653 0018 3E       		.uleb128 0x3e
 1654 0019 0B       		.uleb128 0xb
 1655 001a 03       		.uleb128 0x3
 1656 001b 0E       		.uleb128 0xe
 1657 001c 00       		.byte	0
 1658 001d 00       		.byte	0
 1659 001e 03       		.uleb128 0x3
 1660 001f 24       		.uleb128 0x24
 1661 0020 00       		.byte	0
 1662 0021 0B       		.uleb128 0xb
ARM GAS  G:\Users\Jaxb\AppData\Local\Temp\ccphT0IW.s 			page 36


 1663 0022 0B       		.uleb128 0xb
 1664 0023 3E       		.uleb128 0x3e
 1665 0024 0B       		.uleb128 0xb
 1666 0025 03       		.uleb128 0x3
 1667 0026 08       		.uleb128 0x8
 1668 0027 00       		.byte	0
 1669 0028 00       		.byte	0
 1670 0029 04       		.uleb128 0x4
 1671 002a 35       		.uleb128 0x35
 1672 002b 00       		.byte	0
 1673 002c 49       		.uleb128 0x49
 1674 002d 13       		.uleb128 0x13
 1675 002e 00       		.byte	0
 1676 002f 00       		.byte	0
 1677 0030 05       		.uleb128 0x5
 1678 0031 16       		.uleb128 0x16
 1679 0032 00       		.byte	0
 1680 0033 03       		.uleb128 0x3
 1681 0034 0E       		.uleb128 0xe
 1682 0035 3A       		.uleb128 0x3a
 1683 0036 0B       		.uleb128 0xb
 1684 0037 3B       		.uleb128 0x3b
 1685 0038 0B       		.uleb128 0xb
 1686 0039 49       		.uleb128 0x49
 1687 003a 13       		.uleb128 0x13
 1688 003b 00       		.byte	0
 1689 003c 00       		.byte	0
 1690 003d 06       		.uleb128 0x6
 1691 003e 13       		.uleb128 0x13
 1692 003f 01       		.byte	0x1
 1693 0040 03       		.uleb128 0x3
 1694 0041 0E       		.uleb128 0xe
 1695 0042 0B       		.uleb128 0xb
 1696 0043 0B       		.uleb128 0xb
 1697 0044 3A       		.uleb128 0x3a
 1698 0045 0B       		.uleb128 0xb
 1699 0046 3B       		.uleb128 0x3b
 1700 0047 0B       		.uleb128 0xb
 1701 0048 01       		.uleb128 0x1
 1702 0049 13       		.uleb128 0x13
 1703 004a 00       		.byte	0
 1704 004b 00       		.byte	0
 1705 004c 07       		.uleb128 0x7
 1706 004d 0D       		.uleb128 0xd
 1707 004e 00       		.byte	0
 1708 004f 03       		.uleb128 0x3
 1709 0050 0E       		.uleb128 0xe
 1710 0051 3A       		.uleb128 0x3a
 1711 0052 0B       		.uleb128 0xb
 1712 0053 3B       		.uleb128 0x3b
 1713 0054 0B       		.uleb128 0xb
 1714 0055 49       		.uleb128 0x49
 1715 0056 13       		.uleb128 0x13
 1716 0057 38       		.uleb128 0x38
 1717 0058 0A       		.uleb128 0xa
 1718 0059 00       		.byte	0
 1719 005a 00       		.byte	0
ARM GAS  G:\Users\Jaxb\AppData\Local\Temp\ccphT0IW.s 			page 37


 1720 005b 08       		.uleb128 0x8
 1721 005c 0F       		.uleb128 0xf
 1722 005d 00       		.byte	0
 1723 005e 0B       		.uleb128 0xb
 1724 005f 0B       		.uleb128 0xb
 1725 0060 49       		.uleb128 0x49
 1726 0061 13       		.uleb128 0x13
 1727 0062 00       		.byte	0
 1728 0063 00       		.byte	0
 1729 0064 09       		.uleb128 0x9
 1730 0065 04       		.uleb128 0x4
 1731 0066 01       		.byte	0x1
 1732 0067 03       		.uleb128 0x3
 1733 0068 0E       		.uleb128 0xe
 1734 0069 3E       		.uleb128 0x3e
 1735 006a 0B       		.uleb128 0xb
 1736 006b 0B       		.uleb128 0xb
 1737 006c 0B       		.uleb128 0xb
 1738 006d 49       		.uleb128 0x49
 1739 006e 13       		.uleb128 0x13
 1740 006f 3A       		.uleb128 0x3a
 1741 0070 0B       		.uleb128 0xb
 1742 0071 3B       		.uleb128 0x3b
 1743 0072 0B       		.uleb128 0xb
 1744 0073 01       		.uleb128 0x1
 1745 0074 13       		.uleb128 0x13
 1746 0075 00       		.byte	0
 1747 0076 00       		.byte	0
 1748 0077 0A       		.uleb128 0xa
 1749 0078 28       		.uleb128 0x28
 1750 0079 00       		.byte	0
 1751 007a 03       		.uleb128 0x3
 1752 007b 0E       		.uleb128 0xe
 1753 007c 1C       		.uleb128 0x1c
 1754 007d 0B       		.uleb128 0xb
 1755 007e 00       		.byte	0
 1756 007f 00       		.byte	0
 1757 0080 0B       		.uleb128 0xb
 1758 0081 15       		.uleb128 0x15
 1759 0082 01       		.byte	0x1
 1760 0083 27       		.uleb128 0x27
 1761 0084 0C       		.uleb128 0xc
 1762 0085 01       		.uleb128 0x1
 1763 0086 13       		.uleb128 0x13
 1764 0087 00       		.byte	0
 1765 0088 00       		.byte	0
 1766 0089 0C       		.uleb128 0xc
 1767 008a 05       		.uleb128 0x5
 1768 008b 00       		.byte	0
 1769 008c 49       		.uleb128 0x49
 1770 008d 13       		.uleb128 0x13
 1771 008e 00       		.byte	0
 1772 008f 00       		.byte	0
 1773 0090 0D       		.uleb128 0xd
 1774 0091 0F       		.uleb128 0xf
 1775 0092 00       		.byte	0
 1776 0093 0B       		.uleb128 0xb
ARM GAS  G:\Users\Jaxb\AppData\Local\Temp\ccphT0IW.s 			page 38


 1777 0094 0B       		.uleb128 0xb
 1778 0095 00       		.byte	0
 1779 0096 00       		.byte	0
 1780 0097 0E       		.uleb128 0xe
 1781 0098 34       		.uleb128 0x34
 1782 0099 00       		.byte	0
 1783 009a 03       		.uleb128 0x3
 1784 009b 0E       		.uleb128 0xe
 1785 009c 3A       		.uleb128 0x3a
 1786 009d 0B       		.uleb128 0xb
 1787 009e 3B       		.uleb128 0x3b
 1788 009f 0B       		.uleb128 0xb
 1789 00a0 49       		.uleb128 0x49
 1790 00a1 13       		.uleb128 0x13
 1791 00a2 3F       		.uleb128 0x3f
 1792 00a3 0C       		.uleb128 0xc
 1793 00a4 3C       		.uleb128 0x3c
 1794 00a5 0C       		.uleb128 0xc
 1795 00a6 00       		.byte	0
 1796 00a7 00       		.byte	0
 1797 00a8 0F       		.uleb128 0xf
 1798 00a9 26       		.uleb128 0x26
 1799 00aa 00       		.byte	0
 1800 00ab 49       		.uleb128 0x49
 1801 00ac 13       		.uleb128 0x13
 1802 00ad 00       		.byte	0
 1803 00ae 00       		.byte	0
 1804 00af 10       		.uleb128 0x10
 1805 00b0 0D       		.uleb128 0xd
 1806 00b1 00       		.byte	0
 1807 00b2 03       		.uleb128 0x3
 1808 00b3 08       		.uleb128 0x8
 1809 00b4 3A       		.uleb128 0x3a
 1810 00b5 0B       		.uleb128 0xb
 1811 00b6 3B       		.uleb128 0x3b
 1812 00b7 0B       		.uleb128 0xb
 1813 00b8 49       		.uleb128 0x49
 1814 00b9 13       		.uleb128 0x13
 1815 00ba 38       		.uleb128 0x38
 1816 00bb 0A       		.uleb128 0xa
 1817 00bc 00       		.byte	0
 1818 00bd 00       		.byte	0
 1819 00be 11       		.uleb128 0x11
 1820 00bf 16       		.uleb128 0x16
 1821 00c0 00       		.byte	0
 1822 00c1 03       		.uleb128 0x3
 1823 00c2 08       		.uleb128 0x8
 1824 00c3 3A       		.uleb128 0x3a
 1825 00c4 0B       		.uleb128 0xb
 1826 00c5 3B       		.uleb128 0x3b
 1827 00c6 0B       		.uleb128 0xb
 1828 00c7 49       		.uleb128 0x49
 1829 00c8 13       		.uleb128 0x13
 1830 00c9 00       		.byte	0
 1831 00ca 00       		.byte	0
 1832 00cb 12       		.uleb128 0x12
 1833 00cc 01       		.uleb128 0x1
ARM GAS  G:\Users\Jaxb\AppData\Local\Temp\ccphT0IW.s 			page 39


 1834 00cd 01       		.byte	0x1
 1835 00ce 49       		.uleb128 0x49
 1836 00cf 13       		.uleb128 0x13
 1837 00d0 01       		.uleb128 0x1
 1838 00d1 13       		.uleb128 0x13
 1839 00d2 00       		.byte	0
 1840 00d3 00       		.byte	0
 1841 00d4 13       		.uleb128 0x13
 1842 00d5 21       		.uleb128 0x21
 1843 00d6 00       		.byte	0
 1844 00d7 49       		.uleb128 0x49
 1845 00d8 13       		.uleb128 0x13
 1846 00d9 2F       		.uleb128 0x2f
 1847 00da 0B       		.uleb128 0xb
 1848 00db 00       		.byte	0
 1849 00dc 00       		.byte	0
 1850 00dd 14       		.uleb128 0x14
 1851 00de 15       		.uleb128 0x15
 1852 00df 00       		.byte	0
 1853 00e0 27       		.uleb128 0x27
 1854 00e1 0C       		.uleb128 0xc
 1855 00e2 49       		.uleb128 0x49
 1856 00e3 13       		.uleb128 0x13
 1857 00e4 00       		.byte	0
 1858 00e5 00       		.byte	0
 1859 00e6 15       		.uleb128 0x15
 1860 00e7 15       		.uleb128 0x15
 1861 00e8 00       		.byte	0
 1862 00e9 27       		.uleb128 0x27
 1863 00ea 0C       		.uleb128 0xc
 1864 00eb 00       		.byte	0
 1865 00ec 00       		.byte	0
 1866 00ed 16       		.uleb128 0x16
 1867 00ee 34       		.uleb128 0x34
 1868 00ef 00       		.byte	0
 1869 00f0 03       		.uleb128 0x3
 1870 00f1 0E       		.uleb128 0xe
 1871 00f2 3A       		.uleb128 0x3a
 1872 00f3 0B       		.uleb128 0xb
 1873 00f4 3B       		.uleb128 0x3b
 1874 00f5 0B       		.uleb128 0xb
 1875 00f6 49       		.uleb128 0x49
 1876 00f7 13       		.uleb128 0x13
 1877 00f8 3F       		.uleb128 0x3f
 1878 00f9 0C       		.uleb128 0xc
 1879 00fa 02       		.uleb128 0x2
 1880 00fb 0A       		.uleb128 0xa
 1881 00fc 00       		.byte	0
 1882 00fd 00       		.byte	0
 1883 00fe 17       		.uleb128 0x17
 1884 00ff 34       		.uleb128 0x34
 1885 0100 00       		.byte	0
 1886 0101 47       		.uleb128 0x47
 1887 0102 13       		.uleb128 0x13
 1888 0103 3A       		.uleb128 0x3a
 1889 0104 0B       		.uleb128 0xb
 1890 0105 3B       		.uleb128 0x3b
ARM GAS  G:\Users\Jaxb\AppData\Local\Temp\ccphT0IW.s 			page 40


 1891 0106 0B       		.uleb128 0xb
 1892 0107 02       		.uleb128 0x2
 1893 0108 0A       		.uleb128 0xa
 1894 0109 00       		.byte	0
 1895 010a 00       		.byte	0
 1896 010b 18       		.uleb128 0x18
 1897 010c 2E       		.uleb128 0x2e
 1898 010d 01       		.byte	0x1
 1899 010e 3F       		.uleb128 0x3f
 1900 010f 0C       		.uleb128 0xc
 1901 0110 03       		.uleb128 0x3
 1902 0111 0E       		.uleb128 0xe
 1903 0112 3A       		.uleb128 0x3a
 1904 0113 0B       		.uleb128 0xb
 1905 0114 3B       		.uleb128 0x3b
 1906 0115 0B       		.uleb128 0xb
 1907 0116 27       		.uleb128 0x27
 1908 0117 0C       		.uleb128 0xc
 1909 0118 49       		.uleb128 0x49
 1910 0119 13       		.uleb128 0x13
 1911 011a 11       		.uleb128 0x11
 1912 011b 01       		.uleb128 0x1
 1913 011c 12       		.uleb128 0x12
 1914 011d 01       		.uleb128 0x1
 1915 011e 40       		.uleb128 0x40
 1916 011f 06       		.uleb128 0x6
 1917 0120 9642     		.uleb128 0x2116
 1918 0122 0C       		.uleb128 0xc
 1919 0123 01       		.uleb128 0x1
 1920 0124 13       		.uleb128 0x13
 1921 0125 00       		.byte	0
 1922 0126 00       		.byte	0
 1923 0127 19       		.uleb128 0x19
 1924 0128 05       		.uleb128 0x5
 1925 0129 00       		.byte	0
 1926 012a 03       		.uleb128 0x3
 1927 012b 0E       		.uleb128 0xe
 1928 012c 3A       		.uleb128 0x3a
 1929 012d 0B       		.uleb128 0xb
 1930 012e 3B       		.uleb128 0x3b
 1931 012f 0B       		.uleb128 0xb
 1932 0130 49       		.uleb128 0x49
 1933 0131 13       		.uleb128 0x13
 1934 0132 02       		.uleb128 0x2
 1935 0133 0A       		.uleb128 0xa
 1936 0134 00       		.byte	0
 1937 0135 00       		.byte	0
 1938 0136 1A       		.uleb128 0x1a
 1939 0137 34       		.uleb128 0x34
 1940 0138 00       		.byte	0
 1941 0139 03       		.uleb128 0x3
 1942 013a 0E       		.uleb128 0xe
 1943 013b 3A       		.uleb128 0x3a
 1944 013c 0B       		.uleb128 0xb
 1945 013d 3B       		.uleb128 0x3b
 1946 013e 0B       		.uleb128 0xb
 1947 013f 49       		.uleb128 0x49
ARM GAS  G:\Users\Jaxb\AppData\Local\Temp\ccphT0IW.s 			page 41


 1948 0140 13       		.uleb128 0x13
 1949 0141 02       		.uleb128 0x2
 1950 0142 0A       		.uleb128 0xa
 1951 0143 00       		.byte	0
 1952 0144 00       		.byte	0
 1953 0145 1B       		.uleb128 0x1b
 1954 0146 2E       		.uleb128 0x2e
 1955 0147 00       		.byte	0
 1956 0148 03       		.uleb128 0x3
 1957 0149 0E       		.uleb128 0xe
 1958 014a 3A       		.uleb128 0x3a
 1959 014b 0B       		.uleb128 0xb
 1960 014c 3B       		.uleb128 0x3b
 1961 014d 0B       		.uleb128 0xb
 1962 014e 27       		.uleb128 0x27
 1963 014f 0C       		.uleb128 0xc
 1964 0150 11       		.uleb128 0x11
 1965 0151 01       		.uleb128 0x1
 1966 0152 12       		.uleb128 0x12
 1967 0153 01       		.uleb128 0x1
 1968 0154 40       		.uleb128 0x40
 1969 0155 06       		.uleb128 0x6
 1970 0156 9642     		.uleb128 0x2116
 1971 0158 0C       		.uleb128 0xc
 1972 0159 00       		.byte	0
 1973 015a 00       		.byte	0
 1974 015b 1C       		.uleb128 0x1c
 1975 015c 2E       		.uleb128 0x2e
 1976 015d 01       		.byte	0x1
 1977 015e 03       		.uleb128 0x3
 1978 015f 0E       		.uleb128 0xe
 1979 0160 3A       		.uleb128 0x3a
 1980 0161 0B       		.uleb128 0xb
 1981 0162 3B       		.uleb128 0x3b
 1982 0163 0B       		.uleb128 0xb
 1983 0164 27       		.uleb128 0x27
 1984 0165 0C       		.uleb128 0xc
 1985 0166 11       		.uleb128 0x11
 1986 0167 01       		.uleb128 0x1
 1987 0168 12       		.uleb128 0x12
 1988 0169 01       		.uleb128 0x1
 1989 016a 40       		.uleb128 0x40
 1990 016b 06       		.uleb128 0x6
 1991 016c 9742     		.uleb128 0x2117
 1992 016e 0C       		.uleb128 0xc
 1993 016f 01       		.uleb128 0x1
 1994 0170 13       		.uleb128 0x13
 1995 0171 00       		.byte	0
 1996 0172 00       		.byte	0
 1997 0173 1D       		.uleb128 0x1d
 1998 0174 2E       		.uleb128 0x2e
 1999 0175 01       		.byte	0x1
 2000 0176 03       		.uleb128 0x3
 2001 0177 0E       		.uleb128 0xe
 2002 0178 3A       		.uleb128 0x3a
 2003 0179 0B       		.uleb128 0xb
 2004 017a 3B       		.uleb128 0x3b
ARM GAS  G:\Users\Jaxb\AppData\Local\Temp\ccphT0IW.s 			page 42


 2005 017b 0B       		.uleb128 0xb
 2006 017c 27       		.uleb128 0x27
 2007 017d 0C       		.uleb128 0xc
 2008 017e 11       		.uleb128 0x11
 2009 017f 01       		.uleb128 0x1
 2010 0180 12       		.uleb128 0x12
 2011 0181 01       		.uleb128 0x1
 2012 0182 40       		.uleb128 0x40
 2013 0183 06       		.uleb128 0x6
 2014 0184 9742     		.uleb128 0x2117
 2015 0186 0C       		.uleb128 0xc
 2016 0187 00       		.byte	0
 2017 0188 00       		.byte	0
 2018 0189 00       		.byte	0
 2019              		.section	.debug_loc,"",%progbits
 2020              	.Ldebug_loc0:
 2021              	.LLST6:
 2022 0000 EC020000 		.4byte	.LFB17-.Ltext0
 2023 0004 EE020000 		.4byte	.LCFI29-.Ltext0
 2024 0008 0200     		.2byte	0x2
 2025 000a 7D       		.byte	0x7d
 2026 000b 00       		.sleb128 0
 2027 000c EE020000 		.4byte	.LCFI29-.Ltext0
 2028 0010 F0020000 		.4byte	.LCFI30-.Ltext0
 2029 0014 0200     		.2byte	0x2
 2030 0016 7D       		.byte	0x7d
 2031 0017 08       		.sleb128 8
 2032 0018 F0020000 		.4byte	.LCFI30-.Ltext0
 2033 001c F2020000 		.4byte	.LCFI31-.Ltext0
 2034 0020 0200     		.2byte	0x2
 2035 0022 7D       		.byte	0x7d
 2036 0023 18       		.sleb128 24
 2037 0024 F2020000 		.4byte	.LCFI31-.Ltext0
 2038 0028 A2030000 		.4byte	.LCFI32-.Ltext0
 2039 002c 0200     		.2byte	0x2
 2040 002e 77       		.byte	0x77
 2041 002f 18       		.sleb128 24
 2042 0030 A2030000 		.4byte	.LCFI32-.Ltext0
 2043 0034 A4030000 		.4byte	.LCFI33-.Ltext0
 2044 0038 0200     		.2byte	0x2
 2045 003a 77       		.byte	0x77
 2046 003b 08       		.sleb128 8
 2047 003c A4030000 		.4byte	.LCFI33-.Ltext0
 2048 0040 B0030000 		.4byte	.LFE17-.Ltext0
 2049 0044 0200     		.2byte	0x2
 2050 0046 7D       		.byte	0x7d
 2051 0047 08       		.sleb128 8
 2052 0048 00000000 		.4byte	0
 2053 004c 00000000 		.4byte	0
 2054              	.LLST5:
 2055 0050 48020000 		.4byte	.LFB16-.Ltext0
 2056 0054 4A020000 		.4byte	.LCFI24-.Ltext0
 2057 0058 0200     		.2byte	0x2
 2058 005a 7D       		.byte	0x7d
 2059 005b 00       		.sleb128 0
 2060 005c 4A020000 		.4byte	.LCFI24-.Ltext0
 2061 0060 4C020000 		.4byte	.LCFI25-.Ltext0
ARM GAS  G:\Users\Jaxb\AppData\Local\Temp\ccphT0IW.s 			page 43


 2062 0064 0200     		.2byte	0x2
 2063 0066 7D       		.byte	0x7d
 2064 0067 08       		.sleb128 8
 2065 0068 4C020000 		.4byte	.LCFI25-.Ltext0
 2066 006c 4E020000 		.4byte	.LCFI26-.Ltext0
 2067 0070 0200     		.2byte	0x2
 2068 0072 7D       		.byte	0x7d
 2069 0073 18       		.sleb128 24
 2070 0074 4E020000 		.4byte	.LCFI26-.Ltext0
 2071 0078 DC020000 		.4byte	.LCFI27-.Ltext0
 2072 007c 0200     		.2byte	0x2
 2073 007e 77       		.byte	0x77
 2074 007f 18       		.sleb128 24
 2075 0080 DC020000 		.4byte	.LCFI27-.Ltext0
 2076 0084 DE020000 		.4byte	.LCFI28-.Ltext0
 2077 0088 0200     		.2byte	0x2
 2078 008a 77       		.byte	0x77
 2079 008b 08       		.sleb128 8
 2080 008c DE020000 		.4byte	.LCFI28-.Ltext0
 2081 0090 EC020000 		.4byte	.LFE16-.Ltext0
 2082 0094 0200     		.2byte	0x2
 2083 0096 7D       		.byte	0x7d
 2084 0097 08       		.sleb128 8
 2085 0098 00000000 		.4byte	0
 2086 009c 00000000 		.4byte	0
 2087              	.LLST4:
 2088 00a0 A4010000 		.4byte	.LFB15-.Ltext0
 2089 00a4 A6010000 		.4byte	.LCFI19-.Ltext0
 2090 00a8 0200     		.2byte	0x2
 2091 00aa 7D       		.byte	0x7d
 2092 00ab 00       		.sleb128 0
 2093 00ac A6010000 		.4byte	.LCFI19-.Ltext0
 2094 00b0 A8010000 		.4byte	.LCFI20-.Ltext0
 2095 00b4 0200     		.2byte	0x2
 2096 00b6 7D       		.byte	0x7d
 2097 00b7 08       		.sleb128 8
 2098 00b8 A8010000 		.4byte	.LCFI20-.Ltext0
 2099 00bc AA010000 		.4byte	.LCFI21-.Ltext0
 2100 00c0 0200     		.2byte	0x2
 2101 00c2 7D       		.byte	0x7d
 2102 00c3 30       		.sleb128 48
 2103 00c4 AA010000 		.4byte	.LCFI21-.Ltext0
 2104 00c8 36020000 		.4byte	.LCFI22-.Ltext0
 2105 00cc 0200     		.2byte	0x2
 2106 00ce 77       		.byte	0x77
 2107 00cf 20       		.sleb128 32
 2108 00d0 36020000 		.4byte	.LCFI22-.Ltext0
 2109 00d4 38020000 		.4byte	.LCFI23-.Ltext0
 2110 00d8 0200     		.2byte	0x2
 2111 00da 77       		.byte	0x77
 2112 00db 08       		.sleb128 8
 2113 00dc 38020000 		.4byte	.LCFI23-.Ltext0
 2114 00e0 48020000 		.4byte	.LFE15-.Ltext0
 2115 00e4 0200     		.2byte	0x2
 2116 00e6 7D       		.byte	0x7d
 2117 00e7 08       		.sleb128 8
 2118 00e8 00000000 		.4byte	0
ARM GAS  G:\Users\Jaxb\AppData\Local\Temp\ccphT0IW.s 			page 44


 2119 00ec 00000000 		.4byte	0
 2120              	.LLST3:
 2121 00f0 54000000 		.4byte	.LFB14-.Ltext0
 2122 00f4 56000000 		.4byte	.LCFI14-.Ltext0
 2123 00f8 0200     		.2byte	0x2
 2124 00fa 7D       		.byte	0x7d
 2125 00fb 00       		.sleb128 0
 2126 00fc 56000000 		.4byte	.LCFI14-.Ltext0
 2127 0100 58000000 		.4byte	.LCFI15-.Ltext0
 2128 0104 0200     		.2byte	0x2
 2129 0106 7D       		.byte	0x7d
 2130 0107 0C       		.sleb128 12
 2131 0108 58000000 		.4byte	.LCFI15-.Ltext0
 2132 010c 5A000000 		.4byte	.LCFI16-.Ltext0
 2133 0110 0200     		.2byte	0x2
 2134 0112 7D       		.byte	0x7d
 2135 0113 20       		.sleb128 32
 2136 0114 5A000000 		.4byte	.LCFI16-.Ltext0
 2137 0118 8A010000 		.4byte	.LCFI17-.Ltext0
 2138 011c 0200     		.2byte	0x2
 2139 011e 77       		.byte	0x77
 2140 011f 20       		.sleb128 32
 2141 0120 8A010000 		.4byte	.LCFI17-.Ltext0
 2142 0124 8C010000 		.4byte	.LCFI18-.Ltext0
 2143 0128 0200     		.2byte	0x2
 2144 012a 77       		.byte	0x77
 2145 012b 0C       		.sleb128 12
 2146 012c 8C010000 		.4byte	.LCFI18-.Ltext0
 2147 0130 A4010000 		.4byte	.LFE14-.Ltext0
 2148 0134 0200     		.2byte	0x2
 2149 0136 7D       		.byte	0x7d
 2150 0137 0C       		.sleb128 12
 2151 0138 00000000 		.4byte	0
 2152 013c 00000000 		.4byte	0
 2153              	.LLST2:
 2154 0140 3E000000 		.4byte	.LFB13-.Ltext0
 2155 0144 40000000 		.4byte	.LCFI12-.Ltext0
 2156 0148 0200     		.2byte	0x2
 2157 014a 7D       		.byte	0x7d
 2158 014b 00       		.sleb128 0
 2159 014c 40000000 		.4byte	.LCFI12-.Ltext0
 2160 0150 42000000 		.4byte	.LCFI13-.Ltext0
 2161 0154 0200     		.2byte	0x2
 2162 0156 7D       		.byte	0x7d
 2163 0157 08       		.sleb128 8
 2164 0158 42000000 		.4byte	.LCFI13-.Ltext0
 2165 015c 54000000 		.4byte	.LFE13-.Ltext0
 2166 0160 0200     		.2byte	0x2
 2167 0162 77       		.byte	0x77
 2168 0163 08       		.sleb128 8
 2169 0164 00000000 		.4byte	0
 2170 0168 00000000 		.4byte	0
 2171              	.LLST1:
 2172 016c 1E000000 		.4byte	.LFB12-.Ltext0
 2173 0170 20000000 		.4byte	.LCFI6-.Ltext0
 2174 0174 0200     		.2byte	0x2
 2175 0176 7D       		.byte	0x7d
ARM GAS  G:\Users\Jaxb\AppData\Local\Temp\ccphT0IW.s 			page 45


 2176 0177 00       		.sleb128 0
 2177 0178 20000000 		.4byte	.LCFI6-.Ltext0
 2178 017c 22000000 		.4byte	.LCFI7-.Ltext0
 2179 0180 0200     		.2byte	0x2
 2180 0182 7D       		.byte	0x7d
 2181 0183 04       		.sleb128 4
 2182 0184 22000000 		.4byte	.LCFI7-.Ltext0
 2183 0188 24000000 		.4byte	.LCFI8-.Ltext0
 2184 018c 0200     		.2byte	0x2
 2185 018e 7D       		.byte	0x7d
 2186 018f 10       		.sleb128 16
 2187 0190 24000000 		.4byte	.LCFI8-.Ltext0
 2188 0194 38000000 		.4byte	.LCFI9-.Ltext0
 2189 0198 0200     		.2byte	0x2
 2190 019a 77       		.byte	0x77
 2191 019b 10       		.sleb128 16
 2192 019c 38000000 		.4byte	.LCFI9-.Ltext0
 2193 01a0 3A000000 		.4byte	.LCFI10-.Ltext0
 2194 01a4 0200     		.2byte	0x2
 2195 01a6 77       		.byte	0x77
 2196 01a7 04       		.sleb128 4
 2197 01a8 3A000000 		.4byte	.LCFI10-.Ltext0
 2198 01ac 3C000000 		.4byte	.LCFI11-.Ltext0
 2199 01b0 0200     		.2byte	0x2
 2200 01b2 7D       		.byte	0x7d
 2201 01b3 04       		.sleb128 4
 2202 01b4 3C000000 		.4byte	.LCFI11-.Ltext0
 2203 01b8 3E000000 		.4byte	.LFE12-.Ltext0
 2204 01bc 0200     		.2byte	0x2
 2205 01be 7D       		.byte	0x7d
 2206 01bf 00       		.sleb128 0
 2207 01c0 00000000 		.4byte	0
 2208 01c4 00000000 		.4byte	0
 2209              	.LLST0:
 2210 01c8 00000000 		.4byte	.LFB0-.Ltext0
 2211 01cc 02000000 		.4byte	.LCFI0-.Ltext0
 2212 01d0 0200     		.2byte	0x2
 2213 01d2 7D       		.byte	0x7d
 2214 01d3 00       		.sleb128 0
 2215 01d4 02000000 		.4byte	.LCFI0-.Ltext0
 2216 01d8 04000000 		.4byte	.LCFI1-.Ltext0
 2217 01dc 0200     		.2byte	0x2
 2218 01de 7D       		.byte	0x7d
 2219 01df 04       		.sleb128 4
 2220 01e0 04000000 		.4byte	.LCFI1-.Ltext0
 2221 01e4 06000000 		.4byte	.LCFI2-.Ltext0
 2222 01e8 0200     		.2byte	0x2
 2223 01ea 7D       		.byte	0x7d
 2224 01eb 10       		.sleb128 16
 2225 01ec 06000000 		.4byte	.LCFI2-.Ltext0
 2226 01f0 18000000 		.4byte	.LCFI3-.Ltext0
 2227 01f4 0200     		.2byte	0x2
 2228 01f6 77       		.byte	0x77
 2229 01f7 10       		.sleb128 16
 2230 01f8 18000000 		.4byte	.LCFI3-.Ltext0
 2231 01fc 1A000000 		.4byte	.LCFI4-.Ltext0
 2232 0200 0200     		.2byte	0x2
ARM GAS  G:\Users\Jaxb\AppData\Local\Temp\ccphT0IW.s 			page 46


 2233 0202 77       		.byte	0x77
 2234 0203 04       		.sleb128 4
 2235 0204 1A000000 		.4byte	.LCFI4-.Ltext0
 2236 0208 1C000000 		.4byte	.LCFI5-.Ltext0
 2237 020c 0200     		.2byte	0x2
 2238 020e 7D       		.byte	0x7d
 2239 020f 04       		.sleb128 4
 2240 0210 1C000000 		.4byte	.LCFI5-.Ltext0
 2241 0214 1E000000 		.4byte	.LFE0-.Ltext0
 2242 0218 0200     		.2byte	0x2
 2243 021a 7D       		.byte	0x7d
 2244 021b 00       		.sleb128 0
 2245 021c 00000000 		.4byte	0
 2246 0220 00000000 		.4byte	0
 2247              		.section	.debug_aranges,"",%progbits
 2248 0000 1C000000 		.4byte	0x1c
 2249 0004 0200     		.2byte	0x2
 2250 0006 00000000 		.4byte	.Ldebug_info0
 2251 000a 04       		.byte	0x4
 2252 000b 00       		.byte	0
 2253 000c 0000     		.2byte	0
 2254 000e 0000     		.2byte	0
 2255 0010 00000000 		.4byte	.Ltext0
 2256 0014 B0030000 		.4byte	.Letext0-.Ltext0
 2257 0018 00000000 		.4byte	0
 2258 001c 00000000 		.4byte	0
 2259              		.section	.debug_line,"",%progbits
 2260              	.Ldebug_line0:
 2261 0000 FB010000 		.section	.debug_str,"MS",%progbits,1
 2261      0200FE00 
 2261      00000201 
 2261      FB0E0D00 
 2261      01010101 
 2262              	.LASF23:
 2263 0000 5441534B 		.ascii	"TASK_PRIO_TYPE\000"
 2263      5F505249 
 2263      4F5F5459 
 2263      504500
 2264              	.LASF59:
 2265 000f 61646472 		.ascii	"addr\000"
 2265      00
 2266              	.LASF13:
 2267 0014 53544154 		.ascii	"STATE_SUSPEND_NORMAL\000"
 2267      455F5355 
 2267      5350454E 
 2267      445F4E4F 
 2267      524D414C 
 2268              	.LASF25:
 2269 0029 6C697374 		.ascii	"list_head\000"
 2269      5F686561 
 2269      6400
 2270              	.LASF63:
 2271 0033 7461736B 		.ascii	"task_delete\000"
 2271      5F64656C 
 2271      65746500 
 2272              	.LASF1:
 2273 003f 73686F72 		.ascii	"short int\000"
ARM GAS  G:\Users\Jaxb\AppData\Local\Temp\ccphT0IW.s 			page 47


 2273      7420696E 
 2273      7400
 2274              	.LASF16:
 2275 0049 53544154 		.ascii	"STATE_WAIT_MESSAGE_QUEUE_FOREVER\000"
 2275      455F5741 
 2275      49545F4D 
 2275      45535341 
 2275      47455F51 
 2276              	.LASF6:
 2277 006a 55494E54 		.ascii	"UINT32\000"
 2277      333200
 2278              	.LASF67:
 2279 0071 7461736B 		.ascii	"task_creat\000"
 2279      5F637265 
 2279      617400
 2280              	.LASF22:
 2281 007c 53544143 		.ascii	"STACK_TYPE\000"
 2281      4B5F5459 
 2281      504500
 2282              	.LASF50:
 2283 0087 696E6974 		.ascii	"init_space\000"
 2283      5F737061 
 2283      636500
 2284              	.LASF76:
 2285 0092 5461736B 		.ascii	"Task_State\000"
 2285      5F537461 
 2285      746500
 2286              	.LASF18:
 2287 009d 53544154 		.ascii	"STATE_PUT_MESSAGE_QUEUE_FOREVER\000"
 2287      455F5055 
 2287      545F4D45 
 2287      53534147 
 2287      455F5155 
 2288              	.LASF74:
 2289 00bd 2E2E2F2E 		.ascii	"../../source/src/kernel/OS_CORE/TCB.c\000"
 2289      2E2F736F 
 2289      75726365 
 2289      2F737263 
 2289      2F6B6572 
 2290              	.LASF79:
 2291 00e3 494E4954 		.ascii	"INIT_LIST_HEAD\000"
 2291      5F4C4953 
 2291      545F4845 
 2291      414400
 2292              	.LASF72:
 2293 00f2 6C697374 		.ascii	"list\000"
 2293      00
 2294              	.LASF44:
 2295 00f7 6D6F6475 		.ascii	"module_list\000"
 2295      6C655F6C 
 2295      69737400 
 2296              	.LASF58:
 2297 0103 6B615F6D 		.ascii	"ka_module_symtab\000"
 2297      6F64756C 
 2297      655F7379 
 2297      6D746162 
 2297      00
ARM GAS  G:\Users\Jaxb\AppData\Local\Temp\ccphT0IW.s 			page 48


 2298              	.LASF29:
 2299 0114 73746163 		.ascii	"stack_end\000"
 2299      6B5F656E 
 2299      6400
 2300              	.LASF15:
 2301 011e 53544154 		.ascii	"STATE_WAIT_MCB_TIMEOUT\000"
 2301      455F5741 
 2301      49545F4D 
 2301      43425F54 
 2301      494D454F 
 2302              	.LASF55:
 2303 0135 74687265 		.ascii	"thread_TCB_ptr\000"
 2303      61645F54 
 2303      43425F70 
 2303      747200
 2304              	.LASF17:
 2305 0144 53544154 		.ascii	"STATE_WAIT_MESSAGE_QUEUE_TIMEOUT\000"
 2305      455F5741 
 2305      49545F4D 
 2305      45535341 
 2305      47455F51 
 2306              	.LASF75:
 2307 0165 463A5C6B 		.ascii	"F:\\kaka\\KAKAOS\\C\\windows\\Project\\RVMDK\243\250"
 2307      616B615C 
 2307      4B414B41 
 2307      4F535C43 
 2307      5C77696E 
 2308 018d 757635A3 		.ascii	"uv5\243\251\000"
 2308      A900
 2309              	.LASF2:
 2310 0193 6C6F6E67 		.ascii	"long long int\000"
 2310      206C6F6E 
 2310      6720696E 
 2310      7400
 2311              	.LASF78:
 2312 01a1 7365745F 		.ascii	"set_module_state\000"
 2312      6D6F6475 
 2312      6C655F73 
 2312      74617465 
 2312      00
 2313              	.LASF37:
 2314 01b2 74696D65 		.ascii	"timeslice_hope_time\000"
 2314      736C6963 
 2314      655F686F 
 2314      70655F74 
 2314      696D6500 
 2315              	.LASF30:
 2316 01c6 72657365 		.ascii	"reserve_prio\000"
 2316      7276655F 
 2316      7072696F 
 2316      00
 2317              	.LASF48:
 2318 01d3 6D6F6475 		.ascii	"module_space\000"
 2318      6C655F73 
 2318      70616365 
 2318      00
 2319              	.LASF54:
ARM GAS  G:\Users\Jaxb\AppData\Local\Temp\ccphT0IW.s 			page 49


 2320 01e0 6578706F 		.ascii	"export_symbols_num\000"
 2320      72745F73 
 2320      796D626F 
 2320      6C735F6E 
 2320      756D00
 2321              	.LASF21:
 2322 01f3 5441534B 		.ascii	"TASK_STATE\000"
 2322      5F535441 
 2322      544500
 2323              	.LASF70:
 2324 01fe 73746174 		.ascii	"state\000"
 2324      6500
 2325              	.LASF36:
 2326 0204 6E616D65 		.ascii	"name\000"
 2326      00
 2327              	.LASF47:
 2328 0209 65786974 		.ascii	"exit\000"
 2328      00
 2329              	.LASF51:
 2330 020e 656E7472 		.ascii	"entry\000"
 2330      7900
 2331              	.LASF40:
 2332 0214 64796E61 		.ascii	"dynamic_module_ptr\000"
 2332      6D69635F 
 2332      6D6F6475 
 2332      6C655F70 
 2332      747200
 2333              	.LASF3:
 2334 0227 756E7369 		.ascii	"unsigned char\000"
 2334      676E6564 
 2334      20636861 
 2334      7200
 2335              	.LASF12:
 2336 0235 53544154 		.ascii	"STATE_DELAY\000"
 2336      455F4445 
 2336      4C415900 
 2337              	.LASF39:
 2338 0241 61747472 		.ascii	"attribution\000"
 2338      69627574 
 2338      696F6E00 
 2339              	.LASF0:
 2340 024d 7369676E 		.ascii	"signed char\000"
 2340      65642063 
 2340      68617200 
 2341              	.LASF52:
 2342 0259 76737461 		.ascii	"vstart_addr\000"
 2342      72745F61 
 2342      64647200 
 2343              	.LASF8:
 2344 0265 6C6F6E67 		.ascii	"long long unsigned int\000"
 2344      206C6F6E 
 2344      6720756E 
 2344      7369676E 
 2344      65642069 
 2345              	.LASF5:
 2346 027c 756E7369 		.ascii	"unsigned int\000"
 2346      676E6564 
ARM GAS  G:\Users\Jaxb\AppData\Local\Temp\ccphT0IW.s 			page 50


 2346      20696E74 
 2346      00
 2347              	.LASF27:
 2348 0289 73746163 		.ascii	"stack\000"
 2348      6B00
 2349              	.LASF71:
 2350 028f 7461736B 		.ascii	"task_init\000"
 2350      5F696E69 
 2350      7400
 2351              	.LASF34:
 2352 0299 73616D65 		.ascii	"same_prio_list\000"
 2352      5F707269 
 2352      6F5F6C69 
 2352      737400
 2353              	.LASF43:
 2354 02a8 64796E61 		.ascii	"dynamic_module\000"
 2354      6D69635F 
 2354      6D6F6475 
 2354      6C6500
 2355              	.LASF4:
 2356 02b7 73686F72 		.ascii	"short unsigned int\000"
 2356      7420756E 
 2356      7369676E 
 2356      65642069 
 2356      6E7400
 2357              	.LASF11:
 2358 02ca 53544154 		.ascii	"STATE_READY\000"
 2358      455F5245 
 2358      41445900 
 2359              	.LASF42:
 2360 02d6 63686172 		.ascii	"char\000"
 2360      00
 2361              	.LASF46:
 2362 02db 696E6974 		.ascii	"init\000"
 2362      00
 2363              	.LASF64:
 2364 02e0 7461736B 		.ascii	"task_change_prio\000"
 2364      5F636861 
 2364      6E67655F 
 2364      7072696F 
 2364      00
 2365              	.LASF19:
 2366 02f1 53544154 		.ascii	"STATE_PUT_MESSAGE_QUEUE_TIMEOUT\000"
 2366      455F5055 
 2366      545F4D45 
 2366      53534147 
 2366      455F5155 
 2367              	.LASF56:
 2368 0311 4350555F 		.ascii	"CPU_INT32U\000"
 2368      494E5433 
 2368      325500
 2369              	.LASF62:
 2370 031c 4F535443 		.ascii	"OSTCBHighRdyPtr\000"
 2370      42486967 
 2370      68526479 
 2370      50747200 
 2371              	.LASF33:
ARM GAS  G:\Users\Jaxb\AppData\Local\Temp\ccphT0IW.s 			page 51


 2372 032c 64656C61 		.ascii	"delay_heap_position\000"
 2372      795F6865 
 2372      61705F70 
 2372      6F736974 
 2372      696F6E00 
 2373              	.LASF31:
 2374 0340 7461736B 		.ascii	"task_state\000"
 2374      5F737461 
 2374      746500
 2375              	.LASF38:
 2376 034b 74696D65 		.ascii	"timeslice_rest_time\000"
 2376      736C6963 
 2376      655F7265 
 2376      73745F74 
 2376      696D6500 
 2377              	.LASF68:
 2378 035f 66756E63 		.ascii	"function\000"
 2378      74696F6E 
 2378      00
 2379              	.LASF69:
 2380 0368 70617261 		.ascii	"para\000"
 2380      00
 2381              	.LASF14:
 2382 036d 53544154 		.ascii	"STATE_WAIT_MCB_FOREVER\000"
 2382      455F5741 
 2382      49545F4D 
 2382      43425F46 
 2382      4F524556 
 2383              	.LASF26:
 2384 0384 7461736B 		.ascii	"task_control_block_struct\000"
 2384      5F636F6E 
 2384      74726F6C 
 2384      5F626C6F 
 2384      636B5F73 
 2385              	.LASF28:
 2386 039e 73746163 		.ascii	"stack_size\000"
 2386      6B5F7369 
 2386      7A6500
 2387              	.LASF49:
 2388 03a9 6D6F6475 		.ascii	"module_size\000"
 2388      6C655F73 
 2388      697A6500 
 2389              	.LASF65:
 2390 03b5 5443425F 		.ascii	"TCB_ptr\000"
 2390      70747200 
 2391              	.LASF77:
 2392 03bd 64656C65 		.ascii	"delete_myself\000"
 2392      74655F6D 
 2392      7973656C 
 2392      6600
 2393              	.LASF24:
 2394 03cb 66756E63 		.ascii	"functionptr\000"
 2394      74696F6E 
 2394      70747200 
 2395              	.LASF35:
 2396 03d7 73757370 		.ascii	"suspend_list\000"
 2396      656E645F 
ARM GAS  G:\Users\Jaxb\AppData\Local\Temp\ccphT0IW.s 			page 52


 2396      6C697374 
 2396      00
 2397              	.LASF60:
 2398 03e4 675F696E 		.ascii	"g_interrupt_count\000"
 2398      74657272 
 2398      7570745F 
 2398      636F756E 
 2398      7400
 2399              	.LASF66:
 2400 03f6 6370755F 		.ascii	"cpu_sr\000"
 2400      737200
 2401              	.LASF73:
 2402 03fd 474E5520 		.ascii	"GNU C11 7.3.1 20180622 (release) [ARM/embedded-7-br"
 2402      43313120 
 2402      372E332E 
 2402      31203230 
 2402      31383036 
 2403 0430 616E6368 		.ascii	"anch revision 261907] -mcpu=cortex-m3 -mthumb -mapc"
 2403      20726576 
 2403      6973696F 
 2403      6E203236 
 2403      31393037 
 2404 0463 732D6672 		.ascii	"s-frame -mthumb-interwork -mcpu=cortex-m3 -mthumb -"
 2404      616D6520 
 2404      2D6D7468 
 2404      756D622D 
 2404      696E7465 
 2405 0496 67647761 		.ascii	"gdwarf-2 -O0\000"
 2405      72662D32 
 2405      202D4F30 
 2405      00
 2406              	.LASF20:
 2407 04a3 53544154 		.ascii	"STATE_WAIT_MUTEX_FOREVER\000"
 2407      455F5741 
 2407      49545F4D 
 2407      55544558 
 2407      5F464F52 
 2408              	.LASF10:
 2409 04bc 70726576 		.ascii	"prev\000"
 2409      00
 2410              	.LASF57:
 2411 04c1 4350555F 		.ascii	"CPU_SR\000"
 2411      535200
 2412              	.LASF41:
 2413 04c8 64656C61 		.ascii	"delay_reach_time\000"
 2413      795F7265 
 2413      6163685F 
 2413      74696D65 
 2413      00
 2414              	.LASF45:
 2415 04d9 6D6F6475 		.ascii	"module_state\000"
 2415      6C655F73 
 2415      74617465 
 2415      00
 2416              	.LASF7:
 2417 04e6 55494E54 		.ascii	"UINT64\000"
 2417      363400
ARM GAS  G:\Users\Jaxb\AppData\Local\Temp\ccphT0IW.s 			page 53


 2418              	.LASF32:
 2419 04ed 7072696F 		.ascii	"prio\000"
 2419      00
 2420              	.LASF61:
 2421 04f2 4F535443 		.ascii	"OSTCBCurPtr\000"
 2421      42437572 
 2421      50747200 
 2422              	.LASF9:
 2423 04fe 6E657874 		.ascii	"next\000"
 2423      00
 2424              	.LASF53:
 2425 0503 6578706F 		.ascii	"export_symbols_array\000"
 2425      72745F73 
 2425      796D626F 
 2425      6C735F61 
 2425      72726179 
 2426              		.ident	"GCC: (GNU Tools for Arm Embedded Processors 7-2018-q2-update) 7.3.1 20180622 (release) [AR
ARM GAS  G:\Users\Jaxb\AppData\Local\Temp\ccphT0IW.s 			page 54


DEFINED SYMBOLS
                            *ABS*:00000000 TCB.c
G:\Users\Jaxb\AppData\Local\Temp\ccphT0IW.s:15     .text:00000000 $t
G:\Users\Jaxb\AppData\Local\Temp\ccphT0IW.s:21     .text:00000000 INIT_LIST_HEAD
G:\Users\Jaxb\AppData\Local\Temp\ccphT0IW.s:71     .text:0000001e set_module_state
                            *COM*:00000004 OSTCBCurPtr
                            *COM*:00000004 OSTCBHighRdyPtr
G:\Users\Jaxb\AppData\Local\Temp\ccphT0IW.s:122    .bss:00000000 g_interrupt_count
G:\Users\Jaxb\AppData\Local\Temp\ccphT0IW.s:119    .bss:00000000 $d
G:\Users\Jaxb\AppData\Local\Temp\ccphT0IW.s:131    .text:0000003e delete_myself
G:\Users\Jaxb\AppData\Local\Temp\ccphT0IW.s:691    .text:000002ec task_delete
G:\Users\Jaxb\AppData\Local\Temp\ccphT0IW.s:157    .text:00000050 $d
G:\Users\Jaxb\AppData\Local\Temp\ccphT0IW.s:162    .rodata:00000000 $d
G:\Users\Jaxb\AppData\Local\Temp\ccphT0IW.s:178    .text:00000054 $t
G:\Users\Jaxb\AppData\Local\Temp\ccphT0IW.s:185    .text:00000054 task_init
G:\Users\Jaxb\AppData\Local\Temp\ccphT0IW.s:390    .text:00000190 $d
G:\Users\Jaxb\AppData\Local\Temp\ccphT0IW.s:408    .text:000001a4 $t
G:\Users\Jaxb\AppData\Local\Temp\ccphT0IW.s:415    .text:000001a4 task_creat
G:\Users\Jaxb\AppData\Local\Temp\ccphT0IW.s:530    .text:0000023c $d
G:\Users\Jaxb\AppData\Local\Temp\ccphT0IW.s:546    .text:00000248 $t
G:\Users\Jaxb\AppData\Local\Temp\ccphT0IW.s:553    .text:00000248 task_change_prio
G:\Users\Jaxb\AppData\Local\Temp\ccphT0IW.s:672    .text:000002e0 $d
G:\Users\Jaxb\AppData\Local\Temp\ccphT0IW.s:684    .text:000002ec $t
G:\Users\Jaxb\AppData\Local\Temp\ccphT0IW.s:824    .text:000003a8 $d

UNDEFINED SYMBOLS
_ASSERT
ka_printf
ka_malloc
ka_memset
set_register
register_in_TCB_list
ka_free
CPU_SR_Save
delete_from_TCB_list
delete_TCB_from_ready
insert_ready_TCB
CPU_SR_Restore
schedule
remove_from_suspend_list
remove_from_delay_heap
