ARM GAS  G:\Users\Jaxb\AppData\Local\Temp\ccATe0C6.s 			page 1


   1              		.cpu cortex-m3
   2              		.eabi_attribute 20, 1
   3              		.eabi_attribute 21, 1
   4              		.eabi_attribute 23, 3
   5              		.eabi_attribute 24, 1
   6              		.eabi_attribute 25, 1
   7              		.eabi_attribute 26, 1
   8              		.eabi_attribute 30, 6
   9              		.eabi_attribute 34, 1
  10              		.eabi_attribute 18, 4
  11              		.file	"TCB.c"
  12              		.text
  13              	.Ltext0:
  14              		.cfi_sections	.debug_frame
  15              		.align	1
  16              		.syntax unified
  17              		.thumb
  18              		.thumb_func
  19              		.fpu softvfp
  20              		.type	INIT_LIST_HEAD, %function
  21              	INIT_LIST_HEAD:
  22              	.LFB0:
  23              		.file 1 "../../source/include/os_lib/double_linked_list.h"
   1:../../source/include/os_lib/double_linked_list.h **** #ifndef _DOUBLE_LINKED_LIST_H
   2:../../source/include/os_lib/double_linked_list.h **** #define _DOUBLE_LINKED_LIST_H
   3:../../source/include/os_lib/double_linked_list.h **** 
   4:../../source/include/os_lib/double_linked_list.h **** struct list_head {
   5:../../source/include/os_lib/double_linked_list.h ****     struct list_head *next, *prev;
   6:../../source/include/os_lib/double_linked_list.h **** };
   7:../../source/include/os_lib/double_linked_list.h **** 
   8:../../source/include/os_lib/double_linked_list.h **** 
   9:../../source/include/os_lib/double_linked_list.h **** #define LIST_HEAD_INIT(name) { &(name), &(name) }
  10:../../source/include/os_lib/double_linked_list.h **** 
  11:../../source/include/os_lib/double_linked_list.h **** 
  12:../../source/include/os_lib/double_linked_list.h **** #define LIST_HEAD(name) \
  13:../../source/include/os_lib/double_linked_list.h ****     struct list_head name = LIST_HEAD_INIT(name)
  14:../../source/include/os_lib/double_linked_list.h **** 
  15:../../source/include/os_lib/double_linked_list.h **** 
  16:../../source/include/os_lib/double_linked_list.h **** static inline void INIT_LIST_HEAD(struct list_head *list)
  17:../../source/include/os_lib/double_linked_list.h **** {
  24              		.loc 1 17 0
  25              		.cfi_startproc
  26              		@ args = 0, pretend = 0, frame = 8
  27              		@ frame_needed = 1, uses_anonymous_args = 0
  28              		@ link register save eliminated.
  29 0000 80B4     		push	{r7}
  30              	.LCFI0:
  31              		.cfi_def_cfa_offset 4
  32              		.cfi_offset 7, -4
  33 0002 83B0     		sub	sp, sp, #12
  34              	.LCFI1:
  35              		.cfi_def_cfa_offset 16
  36 0004 00AF     		add	r7, sp, #0
  37              	.LCFI2:
  38              		.cfi_def_cfa_register 7
  39 0006 7860     		str	r0, [r7, #4]
  18:../../source/include/os_lib/double_linked_list.h ****     list->next = list;
ARM GAS  G:\Users\Jaxb\AppData\Local\Temp\ccATe0C6.s 			page 2


  40              		.loc 1 18 0
  41 0008 7B68     		ldr	r3, [r7, #4]
  42 000a 7A68     		ldr	r2, [r7, #4]
  43 000c 1A60     		str	r2, [r3]
  19:../../source/include/os_lib/double_linked_list.h ****     list->prev = list;
  44              		.loc 1 19 0
  45 000e 7B68     		ldr	r3, [r7, #4]
  46 0010 7A68     		ldr	r2, [r7, #4]
  47 0012 5A60     		str	r2, [r3, #4]
  20:../../source/include/os_lib/double_linked_list.h **** }
  48              		.loc 1 20 0
  49 0014 00BF     		nop
  50 0016 0C37     		adds	r7, r7, #12
  51              	.LCFI3:
  52              		.cfi_def_cfa_offset 4
  53 0018 BD46     		mov	sp, r7
  54              	.LCFI4:
  55              		.cfi_def_cfa_register 13
  56              		@ sp needed
  57 001a 80BC     		pop	{r7}
  58              	.LCFI5:
  59              		.cfi_restore 7
  60              		.cfi_def_cfa_offset 0
  61 001c 7047     		bx	lr
  62              		.cfi_endproc
  63              	.LFE0:
  64              		.size	INIT_LIST_HEAD, .-INIT_LIST_HEAD
  65              		.comm	OSTCBCurPtr,4,4
  66              		.comm	OSTCBHighRdyPtr,4,4
  67              		.global	g_interrupt_count
  68              		.bss
  69              		.align	2
  70              		.type	g_interrupt_count, %object
  71              		.size	g_interrupt_count, 4
  72              	g_interrupt_count:
  73 0000 00000000 		.space	4
  74              		.text
  75              		.align	1
  76              		.syntax unified
  77              		.thumb
  78              		.thumb_func
  79              		.fpu softvfp
  80              		.type	delete_myself, %function
  81              	delete_myself:
  82              	.LFB12:
  83              		.file 2 "../../source/src/kernel/OS_CORE/TCB.c"
   1:../../source/src/kernel/OS_CORE/TCB.c **** #include <TCB.h>
   2:../../source/src/kernel/OS_CORE/TCB.c **** #include <myassert.h>
   3:../../source/src/kernel/OS_CORE/TCB.c **** #include <myMicroLIB.h>
   4:../../source/src/kernel/OS_CORE/TCB.c **** #include <task_state.h>
   5:../../source/src/kernel/OS_CORE/TCB.c **** #include <os_TCB_list.h>
   6:../../source/src/kernel/OS_CORE/TCB.c **** #include <os_error.h>
   7:../../source/src/kernel/OS_CORE/TCB.c **** #include <os_cpu_stm32.h>
   8:../../source/src/kernel/OS_CORE/TCB.c **** #include <os_ready.h>
   9:../../source/src/kernel/OS_CORE/TCB.c **** #include <os_suspend.h>
  10:../../source/src/kernel/OS_CORE/TCB.c **** #include <os_delay.h>
  11:../../source/src/kernel/OS_CORE/TCB.c **** #include <os_schedule.h>
ARM GAS  G:\Users\Jaxb\AppData\Local\Temp\ccATe0C6.s 			page 3


  12:../../source/src/kernel/OS_CORE/TCB.c **** 
  13:../../source/src/kernel/OS_CORE/TCB.c **** volatile TCB *OSTCBCurPtr;
  14:../../source/src/kernel/OS_CORE/TCB.c **** volatile TCB *OSTCBHighRdyPtr;
  15:../../source/src/kernel/OS_CORE/TCB.c **** volatile int g_interrupt_count = 0;
  16:../../source/src/kernel/OS_CORE/TCB.c **** 
  17:../../source/src/kernel/OS_CORE/TCB.c **** static inline void delete_myself(void)
  18:../../source/src/kernel/OS_CORE/TCB.c **** {
  84              		.loc 2 18 0
  85              		.cfi_startproc
  86              		@ args = 0, pretend = 0, frame = 0
  87              		@ frame_needed = 1, uses_anonymous_args = 0
  88 001e 80B5     		push	{r7, lr}
  89              	.LCFI6:
  90              		.cfi_def_cfa_offset 8
  91              		.cfi_offset 7, -8
  92              		.cfi_offset 14, -4
  93 0020 00AF     		add	r7, sp, #0
  94              	.LCFI7:
  95              		.cfi_def_cfa_register 7
  19:../../source/src/kernel/OS_CORE/TCB.c **** 	task_delete((TCB *)OSTCBCurPtr);
  96              		.loc 2 19 0
  97 0022 034B     		ldr	r3, .L3
  98 0024 1B68     		ldr	r3, [r3]
  99 0026 1846     		mov	r0, r3
 100 0028 FFF7FEFF 		bl	task_delete
  20:../../source/src/kernel/OS_CORE/TCB.c **** }
 101              		.loc 2 20 0
 102 002c 00BF     		nop
 103 002e 80BD     		pop	{r7, pc}
 104              	.L4:
 105              		.align	2
 106              	.L3:
 107 0030 00000000 		.word	OSTCBCurPtr
 108              		.cfi_endproc
 109              	.LFE12:
 110              		.size	delete_myself, .-delete_myself
 111              		.section	.rodata
 112              		.align	2
 113              	.LC0:
 114 0000 2E2E2F2E 		.ascii	"../../source/src/kernel/OS_CORE/TCB.c\000"
 114      2E2F736F 
 114      75726365 
 114      2F737263 
 114      2F6B6572 
 115 0026 0000     		.align	2
 116              	.LC1:
 117 0028 6572726F 		.ascii	"error fun name : task_init\012error para : prio\012"
 117      72206675 
 117      6E206E61 
 117      6D65203A 
 117      20746173 
 118 0055 00       		.ascii	"\000"
 119 0056 0000     		.align	2
 120              	.LC2:
 121 0058 6572726F 		.ascii	"error fun name : task_init\012error para : name\012"
 121      72206675 
 121      6E206E61 
ARM GAS  G:\Users\Jaxb\AppData\Local\Temp\ccATe0C6.s 			page 4


 121      6D65203A 
 121      20746173 
 122 0085 00       		.ascii	"\000"
 123 0086 0000     		.align	2
 124              	.LC3:
 125 0088 6572726F 		.ascii	"error fun name : task_init\012error para : TCB_ptr\012"
 125      72206675 
 125      6E206E61 
 125      6D65203A 
 125      20746173 
 126 00b8 00       		.ascii	"\000"
 127              		.text
 128              		.align	1
 129              		.global	task_init
 130              		.syntax unified
 131              		.thumb
 132              		.thumb_func
 133              		.fpu softvfp
 134              		.type	task_init, %function
 135              	task_init:
 136              	.LFB13:
  21:../../source/src/kernel/OS_CORE/TCB.c **** 
  22:../../source/src/kernel/OS_CORE/TCB.c **** int _must_check task_init(
  23:../../source/src/kernel/OS_CORE/TCB.c **** 	TCB *TCB_ptr,
  24:../../source/src/kernel/OS_CORE/TCB.c **** 	unsigned int stack_size,
  25:../../source/src/kernel/OS_CORE/TCB.c **** 	TASK_PRIO_TYPE prio,
  26:../../source/src/kernel/OS_CORE/TCB.c **** 	unsigned int timeslice_hope_time,
  27:../../source/src/kernel/OS_CORE/TCB.c **** 	const char *name,
  28:../../source/src/kernel/OS_CORE/TCB.c **** 	functionptr function,
  29:../../source/src/kernel/OS_CORE/TCB.c **** 	void *para,
  30:../../source/src/kernel/OS_CORE/TCB.c **** 	TASK_STATE state)
  31:../../source/src/kernel/OS_CORE/TCB.c **** {
 137              		.loc 2 31 0
 138              		.cfi_startproc
 139              		@ args = 16, pretend = 0, frame = 16
 140              		@ frame_needed = 1, uses_anonymous_args = 0
 141 0034 90B5     		push	{r4, r7, lr}
 142              	.LCFI8:
 143              		.cfi_def_cfa_offset 12
 144              		.cfi_offset 4, -12
 145              		.cfi_offset 7, -8
 146              		.cfi_offset 14, -4
 147 0036 85B0     		sub	sp, sp, #20
 148              	.LCFI9:
 149              		.cfi_def_cfa_offset 32
 150 0038 00AF     		add	r7, sp, #0
 151              	.LCFI10:
 152              		.cfi_def_cfa_register 7
 153 003a F860     		str	r0, [r7, #12]
 154 003c B960     		str	r1, [r7, #8]
 155 003e 7A60     		str	r2, [r7, #4]
 156 0040 3B60     		str	r3, [r7]
  32:../../source/src/kernel/OS_CORE/TCB.c **** 	ASSERT(prio < PRIO_MAX);
 157              		.loc 2 32 0
 158 0042 7B68     		ldr	r3, [r7, #4]
 159 0044 3F2B     		cmp	r3, #63
 160 0046 03D9     		bls	.L6
ARM GAS  G:\Users\Jaxb\AppData\Local\Temp\ccATe0C6.s 			page 5


 161              		.loc 2 32 0 is_stmt 0 discriminator 1
 162 0048 2021     		movs	r1, #32
 163 004a 4748     		ldr	r0, .L14
 164 004c FFF7FEFF 		bl	_ASSERT
 165              	.L6:
  33:../../source/src/kernel/OS_CORE/TCB.c **** 	ASSERT(NULL != name);
 166              		.loc 2 33 0 is_stmt 1
 167 0050 3B6A     		ldr	r3, [r7, #32]
 168 0052 002B     		cmp	r3, #0
 169 0054 03D1     		bne	.L7
 170              		.loc 2 33 0 is_stmt 0 discriminator 1
 171 0056 2121     		movs	r1, #33
 172 0058 4348     		ldr	r0, .L14
 173 005a FFF7FEFF 		bl	_ASSERT
 174              	.L7:
  34:../../source/src/kernel/OS_CORE/TCB.c **** 	ASSERT(NULL != TCB_ptr);
 175              		.loc 2 34 0 is_stmt 1
 176 005e FB68     		ldr	r3, [r7, #12]
 177 0060 002B     		cmp	r3, #0
 178 0062 03D1     		bne	.L8
 179              		.loc 2 34 0 is_stmt 0 discriminator 1
 180 0064 2221     		movs	r1, #34
 181 0066 4048     		ldr	r0, .L14
 182 0068 FFF7FEFF 		bl	_ASSERT
 183              	.L8:
  35:../../source/src/kernel/OS_CORE/TCB.c **** #if CONFIG_PARA_CHECK
  36:../../source/src/kernel/OS_CORE/TCB.c **** 	if((prio >= PRIO_MAX) || (NULL == name) || (NULL == TCB_ptr))
 184              		.loc 2 36 0 is_stmt 1
 185 006c 7B68     		ldr	r3, [r7, #4]
 186 006e 3F2B     		cmp	r3, #63
 187 0070 05D8     		bhi	.L9
 188              		.loc 2 36 0 is_stmt 0 discriminator 1
 189 0072 3B6A     		ldr	r3, [r7, #32]
 190 0074 002B     		cmp	r3, #0
 191 0076 02D0     		beq	.L9
 192              		.loc 2 36 0 discriminator 2
 193 0078 FB68     		ldr	r3, [r7, #12]
 194 007a 002B     		cmp	r3, #0
 195 007c 0BD1     		bne	.L10
 196              	.L9:
  37:../../source/src/kernel/OS_CORE/TCB.c **** 	{
  38:../../source/src/kernel/OS_CORE/TCB.c **** 		OS_ERROR_PARA_MESSAGE_DISPLAY(task_init,prio);
 197              		.loc 2 38 0 is_stmt 1
 198 007e 3B48     		ldr	r0, .L14+4
 199 0080 FFF7FEFF 		bl	ka_printf
  39:../../source/src/kernel/OS_CORE/TCB.c **** 		OS_ERROR_PARA_MESSAGE_DISPLAY(task_init,name);
 200              		.loc 2 39 0
 201 0084 3A48     		ldr	r0, .L14+8
 202 0086 FFF7FEFF 		bl	ka_printf
  40:../../source/src/kernel/OS_CORE/TCB.c **** 		OS_ERROR_PARA_MESSAGE_DISPLAY(task_init,TCB_ptr);
 203              		.loc 2 40 0
 204 008a 3A48     		ldr	r0, .L14+12
 205 008c FFF7FEFF 		bl	ka_printf
  41:../../source/src/kernel/OS_CORE/TCB.c **** 		return -ERROR_NULL_INPUT_PTR;
 206              		.loc 2 41 0
 207 0090 6FF0FE03 		mvn	r3, #254
 208 0094 64E0     		b	.L11
ARM GAS  G:\Users\Jaxb\AppData\Local\Temp\ccATe0C6.s 			page 6


 209              	.L10:
  42:../../source/src/kernel/OS_CORE/TCB.c **** 	}
  43:../../source/src/kernel/OS_CORE/TCB.c **** #endif
  44:../../source/src/kernel/OS_CORE/TCB.c **** 	stack_size &= (~0x03);// according to CPU : 32bit?64bit
 210              		.loc 2 44 0
 211 0096 BB68     		ldr	r3, [r7, #8]
 212 0098 23F00303 		bic	r3, r3, #3
 213 009c BB60     		str	r3, [r7, #8]
  45:../../source/src/kernel/OS_CORE/TCB.c **** 	TCB_ptr->stack_end = (STACK_TYPE *)ka_malloc(stack_size);
 214              		.loc 2 45 0
 215 009e B868     		ldr	r0, [r7, #8]
 216 00a0 FFF7FEFF 		bl	ka_malloc
 217 00a4 0246     		mov	r2, r0
 218 00a6 FB68     		ldr	r3, [r7, #12]
 219 00a8 9A60     		str	r2, [r3, #8]
  46:../../source/src/kernel/OS_CORE/TCB.c **** 	if(NULL == TCB_ptr->stack_end)
 220              		.loc 2 46 0
 221 00aa FB68     		ldr	r3, [r7, #12]
 222 00ac 9B68     		ldr	r3, [r3, #8]
 223 00ae 002B     		cmp	r3, #0
 224 00b0 02D1     		bne	.L12
  47:../../source/src/kernel/OS_CORE/TCB.c **** 	{
  48:../../source/src/kernel/OS_CORE/TCB.c **** 		return -ERROR_ALLOCATE_STACK;
 225              		.loc 2 48 0
 226 00b2 4FF0FF33 		mov	r3, #-1
 227 00b6 53E0     		b	.L11
 228              	.L12:
  49:../../source/src/kernel/OS_CORE/TCB.c **** 	}
  50:../../source/src/kernel/OS_CORE/TCB.c **** 	TCB_ptr->stack_size = stack_size;
 229              		.loc 2 50 0
 230 00b8 FB68     		ldr	r3, [r7, #12]
 231 00ba BA68     		ldr	r2, [r7, #8]
 232 00bc 5A60     		str	r2, [r3, #4]
  51:../../source/src/kernel/OS_CORE/TCB.c **** 	TCB_ptr->stack = (STACK_TYPE *)TCB_ptr->stack_end + stack_size/4 - 1;
 233              		.loc 2 51 0
 234 00be FB68     		ldr	r3, [r7, #12]
 235 00c0 9A68     		ldr	r2, [r3, #8]
 236 00c2 BB68     		ldr	r3, [r7, #8]
 237 00c4 23F00303 		bic	r3, r3, #3
 238 00c8 043B     		subs	r3, r3, #4
 239 00ca 1A44     		add	r2, r2, r3
 240 00cc FB68     		ldr	r3, [r7, #12]
 241 00ce 1A60     		str	r2, [r3]
  52:../../source/src/kernel/OS_CORE/TCB.c **** 	ASSERT((char *)(TCB_ptr->stack) == (char *)(TCB_ptr->stack_end) + stack_size - 4);
 242              		.loc 2 52 0
 243 00d0 FB68     		ldr	r3, [r7, #12]
 244 00d2 1A68     		ldr	r2, [r3]
 245 00d4 FB68     		ldr	r3, [r7, #12]
 246 00d6 9968     		ldr	r1, [r3, #8]
 247 00d8 BB68     		ldr	r3, [r7, #8]
 248 00da 043B     		subs	r3, r3, #4
 249 00dc 0B44     		add	r3, r3, r1
 250 00de 9A42     		cmp	r2, r3
 251 00e0 03D0     		beq	.L13
 252              		.loc 2 52 0 is_stmt 0 discriminator 1
 253 00e2 3421     		movs	r1, #52
 254 00e4 2048     		ldr	r0, .L14
ARM GAS  G:\Users\Jaxb\AppData\Local\Temp\ccATe0C6.s 			page 7


 255 00e6 FFF7FEFF 		bl	_ASSERT
 256              	.L13:
  53:../../source/src/kernel/OS_CORE/TCB.c **** 	ka_memset(TCB_ptr->stack_end,0,stack_size);
 257              		.loc 2 53 0 is_stmt 1
 258 00ea FB68     		ldr	r3, [r7, #12]
 259 00ec 9B68     		ldr	r3, [r3, #8]
 260 00ee BA68     		ldr	r2, [r7, #8]
 261 00f0 0021     		movs	r1, #0
 262 00f2 1846     		mov	r0, r3
 263 00f4 FFF7FEFF 		bl	ka_memset
  54:../../source/src/kernel/OS_CORE/TCB.c **** 	set_register((void **)&TCB_ptr->stack,function,delete_myself,para);
 264              		.loc 2 54 0
 265 00f8 F868     		ldr	r0, [r7, #12]
 266 00fa BB6A     		ldr	r3, [r7, #40]
 267 00fc 1E4A     		ldr	r2, .L14+16
 268 00fe 796A     		ldr	r1, [r7, #36]
 269 0100 FFF7FEFF 		bl	set_register
  55:../../source/src/kernel/OS_CORE/TCB.c **** 	TCB_ptr->prio = prio;
 270              		.loc 2 55 0
 271 0104 FB68     		ldr	r3, [r7, #12]
 272 0106 7A68     		ldr	r2, [r7, #4]
 273 0108 DA60     		str	r2, [r3, #12]
  56:../../source/src/kernel/OS_CORE/TCB.c **** 	TCB_ptr->reserve_prio = RESERVED_PRIO;
 274              		.loc 2 56 0
 275 010a FB68     		ldr	r3, [r7, #12]
 276 010c 0022     		movs	r2, #0
 277 010e 1A61     		str	r2, [r3, #16]
  57:../../source/src/kernel/OS_CORE/TCB.c **** 	TCB_ptr->task_state = state;
 278              		.loc 2 57 0
 279 0110 FB68     		ldr	r3, [r7, #12]
 280 0112 97F82C20 		ldrb	r2, [r7, #44]
 281 0116 1A75     		strb	r2, [r3, #20]
  58:../../source/src/kernel/OS_CORE/TCB.c **** 	TCB_ptr->attribution = DEFAULT_ATTRIBUTION | TCB_ATTRIBUTION_INIT;
 282              		.loc 2 58 0
 283 0118 FB68     		ldr	r3, [r7, #12]
 284 011a 0022     		movs	r2, #0
 285 011c 9A63     		str	r2, [r3, #56]
  59:../../source/src/kernel/OS_CORE/TCB.c **** 	TCB_ptr->delay_reach_time = 0;
 286              		.loc 2 59 0
 287 011e FA68     		ldr	r2, [r7, #12]
 288 0120 4FF00003 		mov	r3, #0
 289 0124 4FF00004 		mov	r4, #0
 290 0128 C2E91034 		strd	r3, [r2, #64]
  60:../../source/src/kernel/OS_CORE/TCB.c **** 	TCB_ptr->delay_heap_position = 0;
 291              		.loc 2 60 0
 292 012c FB68     		ldr	r3, [r7, #12]
 293 012e 0022     		movs	r2, #0
 294 0130 9A61     		str	r2, [r3, #24]
  61:../../source/src/kernel/OS_CORE/TCB.c **** 	INIT_LIST_HEAD(&TCB_ptr->same_prio_list);
 295              		.loc 2 61 0
 296 0132 FB68     		ldr	r3, [r7, #12]
 297 0134 1C33     		adds	r3, r3, #28
 298 0136 1846     		mov	r0, r3
 299 0138 FFF762FF 		bl	INIT_LIST_HEAD
  62:../../source/src/kernel/OS_CORE/TCB.c **** 	INIT_LIST_HEAD(&TCB_ptr->suspend_list);
 300              		.loc 2 62 0
 301 013c FB68     		ldr	r3, [r7, #12]
ARM GAS  G:\Users\Jaxb\AppData\Local\Temp\ccATe0C6.s 			page 8


 302 013e 2433     		adds	r3, r3, #36
 303 0140 1846     		mov	r0, r3
 304 0142 FFF75DFF 		bl	INIT_LIST_HEAD
  63:../../source/src/kernel/OS_CORE/TCB.c **** 	TCB_ptr->name = (char *)name;
 305              		.loc 2 63 0
 306 0146 FB68     		ldr	r3, [r7, #12]
 307 0148 3A6A     		ldr	r2, [r7, #32]
 308 014a DA62     		str	r2, [r3, #44]
  64:../../source/src/kernel/OS_CORE/TCB.c **** 	TCB_ptr->timeslice_hope_time = timeslice_hope_time;
 309              		.loc 2 64 0
 310 014c FB68     		ldr	r3, [r7, #12]
 311 014e 3A68     		ldr	r2, [r7]
 312 0150 1A63     		str	r2, [r3, #48]
  65:../../source/src/kernel/OS_CORE/TCB.c **** 	TCB_ptr->timeslice_rest_time = timeslice_hope_time;
 313              		.loc 2 65 0
 314 0152 FB68     		ldr	r3, [r7, #12]
 315 0154 3A68     		ldr	r2, [r7]
 316 0156 5A63     		str	r2, [r3, #52]
  66:../../source/src/kernel/OS_CORE/TCB.c **** 	register_in_TCB_list(TCB_ptr);
 317              		.loc 2 66 0
 318 0158 F868     		ldr	r0, [r7, #12]
 319 015a FFF7FEFF 		bl	register_in_TCB_list
  67:../../source/src/kernel/OS_CORE/TCB.c **** 	return FUN_EXECUTE_SUCCESSFULLY;
 320              		.loc 2 67 0
 321 015e 0023     		movs	r3, #0
 322              	.L11:
  68:../../source/src/kernel/OS_CORE/TCB.c **** }
 323              		.loc 2 68 0
 324 0160 1846     		mov	r0, r3
 325 0162 1437     		adds	r7, r7, #20
 326              	.LCFI11:
 327              		.cfi_def_cfa_offset 12
 328 0164 BD46     		mov	sp, r7
 329              	.LCFI12:
 330              		.cfi_def_cfa_register 13
 331              		@ sp needed
 332 0166 90BD     		pop	{r4, r7, pc}
 333              	.L15:
 334              		.align	2
 335              	.L14:
 336 0168 00000000 		.word	.LC0
 337 016c 28000000 		.word	.LC1
 338 0170 58000000 		.word	.LC2
 339 0174 88000000 		.word	.LC3
 340 0178 00000000 		.word	delete_myself
 341              		.cfi_endproc
 342              	.LFE13:
 343              		.size	task_init, .-task_init
 344              		.section	.rodata
 345 00b9 000000   		.align	2
 346              	.LC4:
 347 00bc 6572726F 		.ascii	"error fun name : task_creat\012error para : prio\012"
 347      72206675 
 347      6E206E61 
 347      6D65203A 
 347      20746173 
 348 00ea 00       		.ascii	"\000"
ARM GAS  G:\Users\Jaxb\AppData\Local\Temp\ccATe0C6.s 			page 9


 349 00eb 00       		.align	2
 350              	.LC5:
 351 00ec 6572726F 		.ascii	"error fun name : task_creat\012error para : name\012"
 351      72206675 
 351      6E206E61 
 351      6D65203A 
 351      20746173 
 352 011a 00       		.ascii	"\000"
 353              		.text
 354              		.align	1
 355              		.global	task_creat
 356              		.syntax unified
 357              		.thumb
 358              		.thumb_func
 359              		.fpu softvfp
 360              		.type	task_creat, %function
 361              	task_creat:
 362              	.LFB14:
  69:../../source/src/kernel/OS_CORE/TCB.c **** 
  70:../../source/src/kernel/OS_CORE/TCB.c **** TCB *_must_check task_creat(
  71:../../source/src/kernel/OS_CORE/TCB.c **** 	unsigned int stack_size,
  72:../../source/src/kernel/OS_CORE/TCB.c **** 	TASK_PRIO_TYPE prio,
  73:../../source/src/kernel/OS_CORE/TCB.c **** 	unsigned int timeslice_hope_time,
  74:../../source/src/kernel/OS_CORE/TCB.c **** 	const char *name,
  75:../../source/src/kernel/OS_CORE/TCB.c **** 	functionptr function,
  76:../../source/src/kernel/OS_CORE/TCB.c **** 	void *para,
  77:../../source/src/kernel/OS_CORE/TCB.c **** 	TASK_STATE state)
  78:../../source/src/kernel/OS_CORE/TCB.c **** {
 363              		.loc 2 78 0
 364              		.cfi_startproc
 365              		@ args = 12, pretend = 0, frame = 24
 366              		@ frame_needed = 1, uses_anonymous_args = 0
 367 017c 80B5     		push	{r7, lr}
 368              	.LCFI13:
 369              		.cfi_def_cfa_offset 8
 370              		.cfi_offset 7, -8
 371              		.cfi_offset 14, -4
 372 017e 8AB0     		sub	sp, sp, #40
 373              	.LCFI14:
 374              		.cfi_def_cfa_offset 48
 375 0180 04AF     		add	r7, sp, #16
 376              	.LCFI15:
 377              		.cfi_def_cfa 7, 32
 378 0182 F860     		str	r0, [r7, #12]
 379 0184 B960     		str	r1, [r7, #8]
 380 0186 7A60     		str	r2, [r7, #4]
 381 0188 3B60     		str	r3, [r7]
  79:../../source/src/kernel/OS_CORE/TCB.c **** 	ASSERT((prio < PRIO_MAX));
 382              		.loc 2 79 0
 383 018a BB68     		ldr	r3, [r7, #8]
 384 018c 3F2B     		cmp	r3, #63
 385 018e 03D9     		bls	.L17
 386              		.loc 2 79 0 is_stmt 0 discriminator 1
 387 0190 4F21     		movs	r1, #79
 388 0192 2048     		ldr	r0, .L24
 389 0194 FFF7FEFF 		bl	_ASSERT
 390              	.L17:
ARM GAS  G:\Users\Jaxb\AppData\Local\Temp\ccATe0C6.s 			page 10


  80:../../source/src/kernel/OS_CORE/TCB.c **** 	ASSERT(NULL != name);
 391              		.loc 2 80 0 is_stmt 1
 392 0198 3B68     		ldr	r3, [r7]
 393 019a 002B     		cmp	r3, #0
 394 019c 03D1     		bne	.L18
 395              		.loc 2 80 0 is_stmt 0 discriminator 1
 396 019e 5021     		movs	r1, #80
 397 01a0 1C48     		ldr	r0, .L24
 398 01a2 FFF7FEFF 		bl	_ASSERT
 399              	.L18:
  81:../../source/src/kernel/OS_CORE/TCB.c **** #if CONFIG_PARA_CHECK
  82:../../source/src/kernel/OS_CORE/TCB.c **** 	if((prio >= PRIO_MAX) || (NULL == name))
 400              		.loc 2 82 0 is_stmt 1
 401 01a6 BB68     		ldr	r3, [r7, #8]
 402 01a8 3F2B     		cmp	r3, #63
 403 01aa 02D8     		bhi	.L19
 404              		.loc 2 82 0 is_stmt 0 discriminator 1
 405 01ac 3B68     		ldr	r3, [r7]
 406 01ae 002B     		cmp	r3, #0
 407 01b0 07D1     		bne	.L20
 408              	.L19:
  83:../../source/src/kernel/OS_CORE/TCB.c **** 	{
  84:../../source/src/kernel/OS_CORE/TCB.c **** 		OS_ERROR_PARA_MESSAGE_DISPLAY(task_creat,prio);
 409              		.loc 2 84 0 is_stmt 1
 410 01b2 1948     		ldr	r0, .L24+4
 411 01b4 FFF7FEFF 		bl	ka_printf
  85:../../source/src/kernel/OS_CORE/TCB.c **** 		OS_ERROR_PARA_MESSAGE_DISPLAY(task_creat,name);
 412              		.loc 2 85 0
 413 01b8 1848     		ldr	r0, .L24+8
 414 01ba FFF7FEFF 		bl	ka_printf
  86:../../source/src/kernel/OS_CORE/TCB.c **** 		return NULL;
 415              		.loc 2 86 0
 416 01be 0023     		movs	r3, #0
 417 01c0 23E0     		b	.L21
 418              	.L20:
  87:../../source/src/kernel/OS_CORE/TCB.c **** 	}
  88:../../source/src/kernel/OS_CORE/TCB.c **** #endif
  89:../../source/src/kernel/OS_CORE/TCB.c **** 	TCB *TCB_ptr = ka_malloc(sizeof(TCB));
 419              		.loc 2 89 0
 420 01c2 4820     		movs	r0, #72
 421 01c4 FFF7FEFF 		bl	ka_malloc
 422 01c8 7861     		str	r0, [r7, #20]
  90:../../source/src/kernel/OS_CORE/TCB.c **** 	if(NULL == TCB_ptr)
 423              		.loc 2 90 0
 424 01ca 7B69     		ldr	r3, [r7, #20]
 425 01cc 002B     		cmp	r3, #0
 426 01ce 01D1     		bne	.L22
  91:../../source/src/kernel/OS_CORE/TCB.c **** 	{
  92:../../source/src/kernel/OS_CORE/TCB.c **** 		return NULL;
 427              		.loc 2 92 0
 428 01d0 0023     		movs	r3, #0
 429 01d2 1AE0     		b	.L21
 430              	.L22:
  93:../../source/src/kernel/OS_CORE/TCB.c **** 	}
  94:../../source/src/kernel/OS_CORE/TCB.c **** 	if(FUN_EXECUTE_SUCCESSFULLY != 
  95:../../source/src/kernel/OS_CORE/TCB.c **** 		task_init(	TCB_ptr,
 431              		.loc 2 95 0
ARM GAS  G:\Users\Jaxb\AppData\Local\Temp\ccATe0C6.s 			page 11


 432 01d4 97F82830 		ldrb	r3, [r7, #40]	@ zero_extendqisi2
 433 01d8 0393     		str	r3, [sp, #12]
 434 01da 7B6A     		ldr	r3, [r7, #36]
 435 01dc 0293     		str	r3, [sp, #8]
 436 01de 3B6A     		ldr	r3, [r7, #32]
 437 01e0 0193     		str	r3, [sp, #4]
 438 01e2 3B68     		ldr	r3, [r7]
 439 01e4 0093     		str	r3, [sp]
 440 01e6 7B68     		ldr	r3, [r7, #4]
 441 01e8 BA68     		ldr	r2, [r7, #8]
 442 01ea F968     		ldr	r1, [r7, #12]
 443 01ec 7869     		ldr	r0, [r7, #20]
 444 01ee FFF7FEFF 		bl	task_init
 445 01f2 0346     		mov	r3, r0
  94:../../source/src/kernel/OS_CORE/TCB.c **** 		task_init(	TCB_ptr,
 446              		.loc 2 94 0
 447 01f4 002B     		cmp	r3, #0
 448 01f6 04D0     		beq	.L23
  96:../../source/src/kernel/OS_CORE/TCB.c **** 					stack_size,
  97:../../source/src/kernel/OS_CORE/TCB.c **** 					prio,
  98:../../source/src/kernel/OS_CORE/TCB.c **** 					timeslice_hope_time,
  99:../../source/src/kernel/OS_CORE/TCB.c **** 					name,
 100:../../source/src/kernel/OS_CORE/TCB.c **** 					function,
 101:../../source/src/kernel/OS_CORE/TCB.c **** 					para,
 102:../../source/src/kernel/OS_CORE/TCB.c **** 					state)
 103:../../source/src/kernel/OS_CORE/TCB.c **** 	  )
 104:../../source/src/kernel/OS_CORE/TCB.c **** 	{
 105:../../source/src/kernel/OS_CORE/TCB.c **** 		ka_free(TCB_ptr);
 449              		.loc 2 105 0
 450 01f8 7869     		ldr	r0, [r7, #20]
 451 01fa FFF7FEFF 		bl	ka_free
 106:../../source/src/kernel/OS_CORE/TCB.c **** 		return NULL;
 452              		.loc 2 106 0
 453 01fe 0023     		movs	r3, #0
 454 0200 03E0     		b	.L21
 455              	.L23:
 107:../../source/src/kernel/OS_CORE/TCB.c **** 	}
 108:../../source/src/kernel/OS_CORE/TCB.c **** 	TCB_ptr->attribution = DEFAULT_ATTRIBUTION | TCB_ATTRIBUTION_CREATE;
 456              		.loc 2 108 0
 457 0202 7B69     		ldr	r3, [r7, #20]
 458 0204 0122     		movs	r2, #1
 459 0206 9A63     		str	r2, [r3, #56]
 109:../../source/src/kernel/OS_CORE/TCB.c **** 	return TCB_ptr;
 460              		.loc 2 109 0
 461 0208 7B69     		ldr	r3, [r7, #20]
 462              	.L21:
 110:../../source/src/kernel/OS_CORE/TCB.c **** }
 463              		.loc 2 110 0
 464 020a 1846     		mov	r0, r3
 465 020c 1837     		adds	r7, r7, #24
 466              	.LCFI16:
 467              		.cfi_def_cfa_offset 8
 468 020e BD46     		mov	sp, r7
 469              	.LCFI17:
 470              		.cfi_def_cfa_register 13
 471              		@ sp needed
 472 0210 80BD     		pop	{r7, pc}
ARM GAS  G:\Users\Jaxb\AppData\Local\Temp\ccATe0C6.s 			page 12


 473              	.L25:
 474 0212 00BF     		.align	2
 475              	.L24:
 476 0214 00000000 		.word	.LC0
 477 0218 BC000000 		.word	.LC4
 478 021c EC000000 		.word	.LC5
 479              		.cfi_endproc
 480              	.LFE14:
 481              		.size	task_creat, .-task_creat
 482              		.section	.rodata
 483 011b 00       		.align	2
 484              	.LC6:
 485 011c 6572726F 		.ascii	"error fun name : task_change_prio\012error para : p"
 485      72206675 
 485      6E206E61 
 485      6D65203A 
 485      20746173 
 486 014c 72696F0A 		.ascii	"rio\012\000"
 486      00
 487 0151 000000   		.align	2
 488              	.LC7:
 489 0154 6572726F 		.ascii	"error fun name : task_change_prio\012error para : T"
 489      72206675 
 489      6E206E61 
 489      6D65203A 
 489      20746173 
 490 0184 43425F70 		.ascii	"CB_ptr\012\000"
 490      74720A00 
 491              		.text
 492              		.align	1
 493              		.global	task_change_prio
 494              		.syntax unified
 495              		.thumb
 496              		.thumb_func
 497              		.fpu softvfp
 498              		.type	task_change_prio, %function
 499              	task_change_prio:
 500              	.LFB15:
 111:../../source/src/kernel/OS_CORE/TCB.c **** 
 112:../../source/src/kernel/OS_CORE/TCB.c **** 
 113:../../source/src/kernel/OS_CORE/TCB.c **** 
 114:../../source/src/kernel/OS_CORE/TCB.c **** //this function shoul
 115:../../source/src/kernel/OS_CORE/TCB.c **** int task_change_prio(TCB *TCB_ptr,TASK_PRIO_TYPE prio)
 116:../../source/src/kernel/OS_CORE/TCB.c **** {
 501              		.loc 2 116 0
 502              		.cfi_startproc
 503              		@ args = 0, pretend = 0, frame = 16
 504              		@ frame_needed = 1, uses_anonymous_args = 0
 505 0220 80B5     		push	{r7, lr}
 506              	.LCFI18:
 507              		.cfi_def_cfa_offset 8
 508              		.cfi_offset 7, -8
 509              		.cfi_offset 14, -4
 510 0222 84B0     		sub	sp, sp, #16
 511              	.LCFI19:
 512              		.cfi_def_cfa_offset 24
 513 0224 00AF     		add	r7, sp, #0
ARM GAS  G:\Users\Jaxb\AppData\Local\Temp\ccATe0C6.s 			page 13


 514              	.LCFI20:
 515              		.cfi_def_cfa_register 7
 516 0226 7860     		str	r0, [r7, #4]
 517 0228 3960     		str	r1, [r7]
 117:../../source/src/kernel/OS_CORE/TCB.c **** 	ASSERT(prio < PRIO_MAX);
 518              		.loc 2 117 0
 519 022a 3B68     		ldr	r3, [r7]
 520 022c 3F2B     		cmp	r3, #63
 521 022e 03D9     		bls	.L27
 522              		.loc 2 117 0 is_stmt 0 discriminator 1
 523 0230 7521     		movs	r1, #117
 524 0232 2148     		ldr	r0, .L38
 525 0234 FFF7FEFF 		bl	_ASSERT
 526              	.L27:
 118:../../source/src/kernel/OS_CORE/TCB.c **** 	ASSERT(NULL != TCB_ptr);
 527              		.loc 2 118 0 is_stmt 1
 528 0238 7B68     		ldr	r3, [r7, #4]
 529 023a 002B     		cmp	r3, #0
 530 023c 03D1     		bne	.L28
 531              		.loc 2 118 0 is_stmt 0 discriminator 1
 532 023e 7621     		movs	r1, #118
 533 0240 1D48     		ldr	r0, .L38
 534 0242 FFF7FEFF 		bl	_ASSERT
 535              	.L28:
 119:../../source/src/kernel/OS_CORE/TCB.c **** #if CONFIG_PARA_CHECK
 120:../../source/src/kernel/OS_CORE/TCB.c **** 	if((prio >= PRIO_MAX) || (NULL == TCB_ptr))
 536              		.loc 2 120 0 is_stmt 1
 537 0246 3B68     		ldr	r3, [r7]
 538 0248 3F2B     		cmp	r3, #63
 539 024a 02D8     		bhi	.L29
 540              		.loc 2 120 0 is_stmt 0 discriminator 1
 541 024c 7B68     		ldr	r3, [r7, #4]
 542 024e 002B     		cmp	r3, #0
 543 0250 08D1     		bne	.L30
 544              	.L29:
 121:../../source/src/kernel/OS_CORE/TCB.c **** 	{
 122:../../source/src/kernel/OS_CORE/TCB.c **** 		OS_ERROR_PARA_MESSAGE_DISPLAY(task_change_prio,prio);
 545              		.loc 2 122 0 is_stmt 1
 546 0252 1A48     		ldr	r0, .L38+4
 547 0254 FFF7FEFF 		bl	ka_printf
 123:../../source/src/kernel/OS_CORE/TCB.c **** 		OS_ERROR_PARA_MESSAGE_DISPLAY(task_change_prio,TCB_ptr);
 548              		.loc 2 123 0
 549 0258 1948     		ldr	r0, .L38+8
 550 025a FFF7FEFF 		bl	ka_printf
 124:../../source/src/kernel/OS_CORE/TCB.c **** 		return -ERROR_NULL_INPUT_PTR;
 551              		.loc 2 124 0
 552 025e 6FF0FE03 		mvn	r3, #254
 553 0262 25E0     		b	.L31
 554              	.L30:
 125:../../source/src/kernel/OS_CORE/TCB.c **** 	}
 126:../../source/src/kernel/OS_CORE/TCB.c **** #endif
 127:../../source/src/kernel/OS_CORE/TCB.c **** 	CPU_SR_ALLOC();
 555              		.loc 2 127 0
 556 0264 0023     		movs	r3, #0
 557 0266 FB60     		str	r3, [r7, #12]
 128:../../source/src/kernel/OS_CORE/TCB.c **** 	CPU_CRITICAL_ENTER();
 558              		.loc 2 128 0
ARM GAS  G:\Users\Jaxb\AppData\Local\Temp\ccATe0C6.s 			page 14


 559 0268 FFF7FEFF 		bl	CPU_SR_Save
 560 026c F860     		str	r0, [r7, #12]
 129:../../source/src/kernel/OS_CORE/TCB.c **** 	//1 step: delete it from TCB_list
 130:../../source/src/kernel/OS_CORE/TCB.c **** 	delete_from_TCB_list(TCB_ptr);
 561              		.loc 2 130 0
 562 026e 7868     		ldr	r0, [r7, #4]
 563 0270 FFF7FEFF 		bl	delete_from_TCB_list
 131:../../source/src/kernel/OS_CORE/TCB.c **** 	//2 step: according to the task_state,do some changes
 132:../../source/src/kernel/OS_CORE/TCB.c **** 	switch(TCB_ptr->task_state)
 564              		.loc 2 132 0
 565 0274 7B68     		ldr	r3, [r7, #4]
 566 0276 1B7D     		ldrb	r3, [r3, #20]	@ zero_extendqisi2
 567 0278 012B     		cmp	r3, #1
 568 027a 00D0     		beq	.L33
 133:../../source/src/kernel/OS_CORE/TCB.c **** 	{
 134:../../source/src/kernel/OS_CORE/TCB.c **** 		case STATE_READY:
 135:../../source/src/kernel/OS_CORE/TCB.c **** 			delete_TCB_from_ready(TCB_ptr);break;
 136:../../source/src/kernel/OS_CORE/TCB.c **** 		//add other state's handling code here
 137:../../source/src/kernel/OS_CORE/TCB.c **** 		/*
 138:../../source/src/kernel/OS_CORE/TCB.c **** 		 *
 139:../../source/src/kernel/OS_CORE/TCB.c **** 		 *
 140:../../source/src/kernel/OS_CORE/TCB.c **** 		 * 
 141:../../source/src/kernel/OS_CORE/TCB.c **** 		 */
 142:../../source/src/kernel/OS_CORE/TCB.c **** 		default: break;// do nothing
 569              		.loc 2 142 0
 570 027c 03E0     		b	.L34
 571              	.L33:
 135:../../source/src/kernel/OS_CORE/TCB.c **** 		//add other state's handling code here
 572              		.loc 2 135 0
 573 027e 7868     		ldr	r0, [r7, #4]
 574 0280 FFF7FEFF 		bl	delete_TCB_from_ready
 575 0284 00BF     		nop
 576              	.L34:
 143:../../source/src/kernel/OS_CORE/TCB.c **** 	}
 144:../../source/src/kernel/OS_CORE/TCB.c **** 	//3 step: change the prio
 145:../../source/src/kernel/OS_CORE/TCB.c **** 	TCB_ptr->prio = prio;
 577              		.loc 2 145 0
 578 0286 7B68     		ldr	r3, [r7, #4]
 579 0288 3A68     		ldr	r2, [r7]
 580 028a DA60     		str	r2, [r3, #12]
 146:../../source/src/kernel/OS_CORE/TCB.c **** 	//4 step: register into TCB_list
 147:../../source/src/kernel/OS_CORE/TCB.c **** 	register_in_TCB_list(TCB_ptr);
 581              		.loc 2 147 0
 582 028c 7868     		ldr	r0, [r7, #4]
 583 028e FFF7FEFF 		bl	register_in_TCB_list
 148:../../source/src/kernel/OS_CORE/TCB.c **** 	//5 step: according to the task_state,do some changes
 149:../../source/src/kernel/OS_CORE/TCB.c **** 	//this place should add different code according to the different task_state
 150:../../source/src/kernel/OS_CORE/TCB.c **** 	switch(TCB_ptr->task_state)
 584              		.loc 2 150 0
 585 0292 7B68     		ldr	r3, [r7, #4]
 586 0294 1B7D     		ldrb	r3, [r3, #20]	@ zero_extendqisi2
 587 0296 012B     		cmp	r3, #1
 588 0298 00D0     		beq	.L36
 151:../../source/src/kernel/OS_CORE/TCB.c **** 	{
 152:../../source/src/kernel/OS_CORE/TCB.c **** 		case STATE_READY:
 153:../../source/src/kernel/OS_CORE/TCB.c **** 			insert_ready_TCB(TCB_ptr);break;
 154:../../source/src/kernel/OS_CORE/TCB.c **** 		//add other state's handling code here
ARM GAS  G:\Users\Jaxb\AppData\Local\Temp\ccATe0C6.s 			page 15


 155:../../source/src/kernel/OS_CORE/TCB.c **** 		/*
 156:../../source/src/kernel/OS_CORE/TCB.c **** 		 *
 157:../../source/src/kernel/OS_CORE/TCB.c **** 		 *
 158:../../source/src/kernel/OS_CORE/TCB.c **** 		 * 
 159:../../source/src/kernel/OS_CORE/TCB.c **** 		 */
 160:../../source/src/kernel/OS_CORE/TCB.c **** 		default: break;// do nothing
 589              		.loc 2 160 0
 590 029a 03E0     		b	.L37
 591              	.L36:
 153:../../source/src/kernel/OS_CORE/TCB.c **** 		//add other state's handling code here
 592              		.loc 2 153 0
 593 029c 7868     		ldr	r0, [r7, #4]
 594 029e FFF7FEFF 		bl	insert_ready_TCB
 595 02a2 00BF     		nop
 596              	.L37:
 161:../../source/src/kernel/OS_CORE/TCB.c **** 	}
 162:../../source/src/kernel/OS_CORE/TCB.c **** 	CPU_CRITICAL_EXIT();
 597              		.loc 2 162 0
 598 02a4 F868     		ldr	r0, [r7, #12]
 599 02a6 FFF7FEFF 		bl	CPU_SR_Restore
 163:../../source/src/kernel/OS_CORE/TCB.c **** 	schedule();
 600              		.loc 2 163 0
 601 02aa FFF7FEFF 		bl	schedule
 164:../../source/src/kernel/OS_CORE/TCB.c **** 	return FUN_EXECUTE_SUCCESSFULLY;
 602              		.loc 2 164 0
 603 02ae 0023     		movs	r3, #0
 604              	.L31:
 165:../../source/src/kernel/OS_CORE/TCB.c **** }
 605              		.loc 2 165 0
 606 02b0 1846     		mov	r0, r3
 607 02b2 1037     		adds	r7, r7, #16
 608              	.LCFI21:
 609              		.cfi_def_cfa_offset 8
 610 02b4 BD46     		mov	sp, r7
 611              	.LCFI22:
 612              		.cfi_def_cfa_register 13
 613              		@ sp needed
 614 02b6 80BD     		pop	{r7, pc}
 615              	.L39:
 616              		.align	2
 617              	.L38:
 618 02b8 00000000 		.word	.LC0
 619 02bc 1C010000 		.word	.LC6
 620 02c0 54010000 		.word	.LC7
 621              		.cfi_endproc
 622              	.LFE15:
 623              		.size	task_change_prio, .-task_change_prio
 624              		.section	.rodata
 625              		.align	2
 626              	.LC8:
 627 018c 6572726F 		.ascii	"error fun name : task_delete\012error para : TCB_pt"
 627      72206675 
 627      6E206E61 
 627      6D65203A 
 627      20746173 
 628 01bc 720A00   		.ascii	"r\012\000"
 629              		.text
ARM GAS  G:\Users\Jaxb\AppData\Local\Temp\ccATe0C6.s 			page 16


 630              		.align	1
 631              		.global	task_delete
 632              		.syntax unified
 633              		.thumb
 634              		.thumb_func
 635              		.fpu softvfp
 636              		.type	task_delete, %function
 637              	task_delete:
 638              	.LFB16:
 166:../../source/src/kernel/OS_CORE/TCB.c **** 
 167:../../source/src/kernel/OS_CORE/TCB.c **** int task_delete(TCB *TCB_ptr)
 168:../../source/src/kernel/OS_CORE/TCB.c **** {
 639              		.loc 2 168 0
 640              		.cfi_startproc
 641              		@ args = 0, pretend = 0, frame = 16
 642              		@ frame_needed = 1, uses_anonymous_args = 0
 643 02c4 80B5     		push	{r7, lr}
 644              	.LCFI23:
 645              		.cfi_def_cfa_offset 8
 646              		.cfi_offset 7, -8
 647              		.cfi_offset 14, -4
 648 02c6 84B0     		sub	sp, sp, #16
 649              	.LCFI24:
 650              		.cfi_def_cfa_offset 24
 651 02c8 00AF     		add	r7, sp, #0
 652              	.LCFI25:
 653              		.cfi_def_cfa_register 7
 654 02ca 7860     		str	r0, [r7, #4]
 169:../../source/src/kernel/OS_CORE/TCB.c **** 	ASSERT(NULL != TCB_ptr);
 655              		.loc 2 169 0
 656 02cc 7B68     		ldr	r3, [r7, #4]
 657 02ce 002B     		cmp	r3, #0
 658 02d0 03D1     		bne	.L41
 659              		.loc 2 169 0 is_stmt 0 discriminator 1
 660 02d2 A921     		movs	r1, #169
 661 02d4 2048     		ldr	r0, .L50
 662 02d6 FFF7FEFF 		bl	_ASSERT
 663              	.L41:
 170:../../source/src/kernel/OS_CORE/TCB.c **** #if CONFIG_PARA_CHECK
 171:../../source/src/kernel/OS_CORE/TCB.c **** 	if(NULL == TCB_ptr)
 664              		.loc 2 171 0 is_stmt 1
 665 02da 7B68     		ldr	r3, [r7, #4]
 666 02dc 002B     		cmp	r3, #0
 667 02de 05D1     		bne	.L42
 172:../../source/src/kernel/OS_CORE/TCB.c **** 	{
 173:../../source/src/kernel/OS_CORE/TCB.c **** 		OS_ERROR_PARA_MESSAGE_DISPLAY(task_delete,TCB_ptr);
 668              		.loc 2 173 0
 669 02e0 1E48     		ldr	r0, .L50+4
 670 02e2 FFF7FEFF 		bl	ka_printf
 174:../../source/src/kernel/OS_CORE/TCB.c **** 		return -ERROR_NULL_INPUT_PTR;
 671              		.loc 2 174 0
 672 02e6 6FF0FE03 		mvn	r3, #254
 673 02ea 30E0     		b	.L43
 674              	.L42:
 175:../../source/src/kernel/OS_CORE/TCB.c **** 	}
 176:../../source/src/kernel/OS_CORE/TCB.c **** #endif
 177:../../source/src/kernel/OS_CORE/TCB.c **** 	CPU_SR_ALLOC();
ARM GAS  G:\Users\Jaxb\AppData\Local\Temp\ccATe0C6.s 			page 17


 675              		.loc 2 177 0
 676 02ec 0023     		movs	r3, #0
 677 02ee FB60     		str	r3, [r7, #12]
 178:../../source/src/kernel/OS_CORE/TCB.c **** 	CPU_CRITICAL_ENTER();
 678              		.loc 2 178 0
 679 02f0 FFF7FEFF 		bl	CPU_SR_Save
 680 02f4 F860     		str	r0, [r7, #12]
 179:../../source/src/kernel/OS_CORE/TCB.c **** 	delete_from_TCB_list(TCB_ptr);
 681              		.loc 2 179 0
 682 02f6 7868     		ldr	r0, [r7, #4]
 683 02f8 FFF7FEFF 		bl	delete_from_TCB_list
 180:../../source/src/kernel/OS_CORE/TCB.c **** 	ka_free(TCB_ptr->stack_end);
 684              		.loc 2 180 0
 685 02fc 7B68     		ldr	r3, [r7, #4]
 686 02fe 9B68     		ldr	r3, [r3, #8]
 687 0300 1846     		mov	r0, r3
 688 0302 FFF7FEFF 		bl	ka_free
 181:../../source/src/kernel/OS_CORE/TCB.c **** 	switch(TCB_ptr->task_state)
 689              		.loc 2 181 0
 690 0306 7B68     		ldr	r3, [r7, #4]
 691 0308 1B7D     		ldrb	r3, [r3, #20]	@ zero_extendqisi2
 692 030a 022B     		cmp	r3, #2
 693 030c 08D0     		beq	.L45
 694 030e 032B     		cmp	r3, #3
 695 0310 02D0     		beq	.L46
 696 0312 012B     		cmp	r3, #1
 697 0314 08D0     		beq	.L47
 182:../../source/src/kernel/OS_CORE/TCB.c **** 	{
 183:../../source/src/kernel/OS_CORE/TCB.c **** 		case STATE_SUSPEND_NORMAL:
 184:../../source/src/kernel/OS_CORE/TCB.c **** 			remove_from_suspend_list(TCB_ptr);break;
 185:../../source/src/kernel/OS_CORE/TCB.c **** 		case STATE_DELAY:
 186:../../source/src/kernel/OS_CORE/TCB.c **** 			remove_from_delay_heap(TCB_ptr);break;
 187:../../source/src/kernel/OS_CORE/TCB.c **** 		case STATE_READY:
 188:../../source/src/kernel/OS_CORE/TCB.c **** 			delete_TCB_from_ready(TCB_ptr);break;
 189:../../source/src/kernel/OS_CORE/TCB.c **** 		//add other state's handling code here
 190:../../source/src/kernel/OS_CORE/TCB.c **** 		/*
 191:../../source/src/kernel/OS_CORE/TCB.c **** 		 *
 192:../../source/src/kernel/OS_CORE/TCB.c **** 		 *
 193:../../source/src/kernel/OS_CORE/TCB.c **** 		 * 
 194:../../source/src/kernel/OS_CORE/TCB.c **** 		 */
 195:../../source/src/kernel/OS_CORE/TCB.c **** 		default:
 196:../../source/src/kernel/OS_CORE/TCB.c **** 			break;
 698              		.loc 2 196 0
 699 0316 0BE0     		b	.L48
 700              	.L46:
 184:../../source/src/kernel/OS_CORE/TCB.c **** 		case STATE_DELAY:
 701              		.loc 2 184 0
 702 0318 7868     		ldr	r0, [r7, #4]
 703 031a FFF7FEFF 		bl	remove_from_suspend_list
 704 031e 07E0     		b	.L48
 705              	.L45:
 186:../../source/src/kernel/OS_CORE/TCB.c **** 		case STATE_READY:
 706              		.loc 2 186 0
 707 0320 7868     		ldr	r0, [r7, #4]
 708 0322 FFF7FEFF 		bl	remove_from_delay_heap
 709 0326 03E0     		b	.L48
 710              	.L47:
ARM GAS  G:\Users\Jaxb\AppData\Local\Temp\ccATe0C6.s 			page 18


 188:../../source/src/kernel/OS_CORE/TCB.c **** 		//add other state's handling code here
 711              		.loc 2 188 0
 712 0328 7868     		ldr	r0, [r7, #4]
 713 032a FFF7FEFF 		bl	delete_TCB_from_ready
 714 032e 00BF     		nop
 715              	.L48:
 197:../../source/src/kernel/OS_CORE/TCB.c **** 	}
 198:../../source/src/kernel/OS_CORE/TCB.c **** 	if(TCB_IS_CREATED(TCB_ptr))
 716              		.loc 2 198 0
 717 0330 7B68     		ldr	r3, [r7, #4]
 718 0332 9B6B     		ldr	r3, [r3, #56]
 719 0334 03F00103 		and	r3, r3, #1
 720 0338 002B     		cmp	r3, #0
 721 033a 02D0     		beq	.L49
 199:../../source/src/kernel/OS_CORE/TCB.c **** 	{
 200:../../source/src/kernel/OS_CORE/TCB.c **** 		ka_free(TCB_ptr);
 722              		.loc 2 200 0
 723 033c 7868     		ldr	r0, [r7, #4]
 724 033e FFF7FEFF 		bl	ka_free
 725              	.L49:
 201:../../source/src/kernel/OS_CORE/TCB.c **** 	}
 202:../../source/src/kernel/OS_CORE/TCB.c **** 	CPU_CRITICAL_EXIT();
 726              		.loc 2 202 0
 727 0342 F868     		ldr	r0, [r7, #12]
 728 0344 FFF7FEFF 		bl	CPU_SR_Restore
 203:../../source/src/kernel/OS_CORE/TCB.c **** 	schedule();
 729              		.loc 2 203 0
 730 0348 FFF7FEFF 		bl	schedule
 204:../../source/src/kernel/OS_CORE/TCB.c **** 	return FUN_EXECUTE_SUCCESSFULLY;
 731              		.loc 2 204 0
 732 034c 0023     		movs	r3, #0
 733              	.L43:
 205:../../source/src/kernel/OS_CORE/TCB.c **** }
 734              		.loc 2 205 0
 735 034e 1846     		mov	r0, r3
 736 0350 1037     		adds	r7, r7, #16
 737              	.LCFI26:
 738              		.cfi_def_cfa_offset 8
 739 0352 BD46     		mov	sp, r7
 740              	.LCFI27:
 741              		.cfi_def_cfa_register 13
 742              		@ sp needed
 743 0354 80BD     		pop	{r7, pc}
 744              	.L51:
 745 0356 00BF     		.align	2
 746              	.L50:
 747 0358 00000000 		.word	.LC0
 748 035c 8C010000 		.word	.LC8
 749              		.cfi_endproc
 750              	.LFE16:
 751              		.size	task_delete, .-task_delete
 752              	.Letext0:
 753              		.file 3 "../../source/include/os_cpu/kakaosstdint.h"
 754              		.file 4 "../../source/include/os_core/task_state.h"
 755              		.file 5 "../../source/include/os_core/TCB.h"
 756              		.file 6 "../../source/include/os_cpu/os_cpu_stm32.h"
 757              		.section	.debug_info,"",%progbits
ARM GAS  G:\Users\Jaxb\AppData\Local\Temp\ccATe0C6.s 			page 19


 758              	.Ldebug_info0:
 759 0000 6C040000 		.4byte	0x46c
 760 0004 0200     		.2byte	0x2
 761 0006 00000000 		.4byte	.Ldebug_abbrev0
 762 000a 04       		.byte	0x4
 763 000b 01       		.uleb128 0x1
 764 000c DA020000 		.4byte	.LASF57
 765 0010 0C       		.byte	0xc
 766 0011 3E020000 		.4byte	.LASF58
 767 0015 11040000 		.4byte	.LASF59
 768 0019 00000000 		.4byte	.Ltext0
 769 001d 60030000 		.4byte	.Letext0
 770 0021 00000000 		.4byte	.Ldebug_line0
 771 0025 02       		.uleb128 0x2
 772 0026 01       		.byte	0x1
 773 0027 06       		.byte	0x6
 774 0028 9C030000 		.4byte	.LASF0
 775 002c 02       		.uleb128 0x2
 776 002d 02       		.byte	0x2
 777 002e 05       		.byte	0x5
 778 002f B4020000 		.4byte	.LASF1
 779 0033 03       		.uleb128 0x3
 780 0034 04       		.byte	0x4
 781 0035 05       		.byte	0x5
 782 0036 696E7400 		.ascii	"int\000"
 783 003a 04       		.uleb128 0x4
 784 003b 33000000 		.4byte	0x33
 785 003f 02       		.uleb128 0x2
 786 0040 08       		.byte	0x8
 787 0041 05       		.byte	0x5
 788 0042 64020000 		.4byte	.LASF2
 789 0046 02       		.uleb128 0x2
 790 0047 01       		.byte	0x1
 791 0048 08       		.byte	0x8
 792 0049 1C010000 		.4byte	.LASF3
 793 004d 02       		.uleb128 0x2
 794 004e 02       		.byte	0x2
 795 004f 07       		.byte	0x7
 796 0050 31010000 		.4byte	.LASF4
 797 0054 05       		.uleb128 0x5
 798 0055 9D020000 		.4byte	.LASF6
 799 0059 03       		.byte	0x3
 800 005a 0C       		.byte	0xc
 801 005b 5F000000 		.4byte	0x5f
 802 005f 02       		.uleb128 0x2
 803 0060 04       		.byte	0x4
 804 0061 07       		.byte	0x7
 805 0062 A9010000 		.4byte	.LASF5
 806 0066 05       		.uleb128 0x5
 807 0067 2A010000 		.4byte	.LASF7
 808 006b 03       		.byte	0x3
 809 006c 0D       		.byte	0xd
 810 006d 71000000 		.4byte	0x71
 811 0071 02       		.uleb128 0x2
 812 0072 08       		.byte	0x8
 813 0073 07       		.byte	0x7
 814 0074 D6010000 		.4byte	.LASF8
ARM GAS  G:\Users\Jaxb\AppData\Local\Temp\ccATe0C6.s 			page 20


 815 0078 06       		.uleb128 0x6
 816 0079 34020000 		.4byte	.LASF25
 817 007d 08       		.byte	0x8
 818 007e 01       		.byte	0x1
 819 007f 04       		.byte	0x4
 820 0080 A1000000 		.4byte	0xa1
 821 0084 07       		.uleb128 0x7
 822 0085 15000000 		.4byte	.LASF9
 823 0089 01       		.byte	0x1
 824 008a 05       		.byte	0x5
 825 008b A1000000 		.4byte	0xa1
 826 008f 02       		.byte	0x2
 827 0090 23       		.byte	0x23
 828 0091 00       		.uleb128 0
 829 0092 07       		.uleb128 0x7
 830 0093 0C040000 		.4byte	.LASF10
 831 0097 01       		.byte	0x1
 832 0098 05       		.byte	0x5
 833 0099 A1000000 		.4byte	0xa1
 834 009d 02       		.byte	0x2
 835 009e 23       		.byte	0x23
 836 009f 04       		.uleb128 0x4
 837 00a0 00       		.byte	0
 838 00a1 08       		.uleb128 0x8
 839 00a2 04       		.byte	0x4
 840 00a3 78000000 		.4byte	0x78
 841 00a7 09       		.uleb128 0x9
 842 00a8 FC010000 		.4byte	.LASF60
 843 00ac 07       		.byte	0x7
 844 00ad 01       		.byte	0x1
 845 00ae 46000000 		.4byte	0x46
 846 00b2 04       		.byte	0x4
 847 00b3 04       		.byte	0x4
 848 00b4 F5000000 		.4byte	0xf5
 849 00b8 0A       		.uleb128 0xa
 850 00b9 FC000000 		.4byte	.LASF11
 851 00bd 01       		.byte	0x1
 852 00be 0A       		.uleb128 0xa
 853 00bf 1A000000 		.4byte	.LASF12
 854 00c3 02       		.byte	0x2
 855 00c4 0A       		.uleb128 0xa
 856 00c5 C8030000 		.4byte	.LASF13
 857 00c9 03       		.byte	0x3
 858 00ca 0A       		.uleb128 0xa
 859 00cb 6F010000 		.4byte	.LASF14
 860 00cf 04       		.byte	0x4
 861 00d0 0A       		.uleb128 0xa
 862 00d1 85030000 		.4byte	.LASF15
 863 00d5 05       		.byte	0x5
 864 00d6 0A       		.uleb128 0xa
 865 00d7 DB000000 		.4byte	.LASF16
 866 00db 06       		.byte	0x6
 867 00dc 0A       		.uleb128 0xa
 868 00dd 44010000 		.4byte	.LASF17
 869 00e1 07       		.byte	0x7
 870 00e2 0A       		.uleb128 0xa
 871 00e3 A8030000 		.4byte	.LASF18
ARM GAS  G:\Users\Jaxb\AppData\Local\Temp\ccATe0C6.s 			page 21


 872 00e7 08       		.byte	0x8
 873 00e8 0A       		.uleb128 0xa
 874 00e9 4D000000 		.4byte	.LASF19
 875 00ed 09       		.byte	0x9
 876 00ee 0A       		.uleb128 0xa
 877 00ef 07020000 		.4byte	.LASF20
 878 00f3 0A       		.byte	0xa
 879 00f4 00       		.byte	0
 880 00f5 05       		.uleb128 0x5
 881 00f6 9E010000 		.4byte	.LASF21
 882 00fa 04       		.byte	0x4
 883 00fb 0F       		.byte	0xf
 884 00fc A7000000 		.4byte	0xa7
 885 0100 05       		.uleb128 0x5
 886 0101 29020000 		.4byte	.LASF22
 887 0105 05       		.byte	0x5
 888 0106 09       		.byte	0x9
 889 0107 5F000000 		.4byte	0x5f
 890 010b 05       		.uleb128 0x5
 891 010c 26000000 		.4byte	.LASF23
 892 0110 05       		.byte	0x5
 893 0111 0B       		.byte	0xb
 894 0112 5F000000 		.4byte	0x5f
 895 0116 05       		.uleb128 0x5
 896 0117 AD000000 		.4byte	.LASF24
 897 011b 05       		.byte	0x5
 898 011c 0C       		.byte	0xc
 899 011d 21010000 		.4byte	0x121
 900 0121 08       		.uleb128 0x8
 901 0122 04       		.byte	0x4
 902 0123 27010000 		.4byte	0x127
 903 0127 0B       		.uleb128 0xb
 904 0128 01       		.byte	0x1
 905 0129 33010000 		.4byte	0x133
 906 012d 0C       		.uleb128 0xc
 907 012e 33010000 		.4byte	0x133
 908 0132 00       		.byte	0
 909 0133 0D       		.uleb128 0xd
 910 0134 04       		.byte	0x4
 911 0135 0E       		.uleb128 0xe
 912 0136 E9030000 		.4byte	.LASF44
 913 013a 05       		.byte	0x5
 914 013b 12       		.byte	0x12
 915 013c 3A000000 		.4byte	0x3a
 916 0140 01       		.byte	0x1
 917 0141 01       		.byte	0x1
 918 0142 06       		.uleb128 0x6
 919 0143 B6010000 		.4byte	.LASF26
 920 0147 48       		.byte	0x48
 921 0148 05       		.byte	0x5
 922 0149 2F       		.byte	0x2f
 923 014a 13020000 		.4byte	0x213
 924 014e 07       		.uleb128 0x7
 925 014f 95000000 		.4byte	.LASF27
 926 0153 05       		.byte	0x5
 927 0154 30       		.byte	0x30
 928 0155 13020000 		.4byte	0x213
ARM GAS  G:\Users\Jaxb\AppData\Local\Temp\ccATe0C6.s 			page 22


 929 0159 02       		.byte	0x2
 930 015a 23       		.byte	0x23
 931 015b 00       		.uleb128 0
 932 015c 07       		.uleb128 0x7
 933 015d 72020000 		.4byte	.LASF28
 934 0161 05       		.byte	0x5
 935 0162 31       		.byte	0x31
 936 0163 5F000000 		.4byte	0x5f
 937 0167 02       		.byte	0x2
 938 0168 23       		.byte	0x23
 939 0169 04       		.uleb128 0x4
 940 016a 07       		.uleb128 0x7
 941 016b 65010000 		.4byte	.LASF29
 942 016f 05       		.byte	0x5
 943 0170 32       		.byte	0x32
 944 0171 13020000 		.4byte	0x213
 945 0175 02       		.byte	0x2
 946 0176 23       		.byte	0x23
 947 0177 08       		.uleb128 0x8
 948 0178 07       		.uleb128 0x7
 949 0179 05000000 		.4byte	.LASF30
 950 017d 05       		.byte	0x5
 951 017e 33       		.byte	0x33
 952 017f 0B010000 		.4byte	0x10b
 953 0183 02       		.byte	0x2
 954 0184 23       		.byte	0x23
 955 0185 0C       		.uleb128 0xc
 956 0186 07       		.uleb128 0x7
 957 0187 08010000 		.4byte	.LASF31
 958 018b 05       		.byte	0x5
 959 018c 34       		.byte	0x34
 960 018d 0B010000 		.4byte	0x10b
 961 0191 02       		.byte	0x2
 962 0192 23       		.byte	0x23
 963 0193 10       		.uleb128 0x10
 964 0194 07       		.uleb128 0x7
 965 0195 0A000000 		.4byte	.LASF32
 966 0199 05       		.byte	0x5
 967 019a 35       		.byte	0x35
 968 019b F5000000 		.4byte	0xf5
 969 019f 02       		.byte	0x2
 970 01a0 23       		.byte	0x23
 971 01a1 14       		.uleb128 0x14
 972 01a2 07       		.uleb128 0x7
 973 01a3 6D000000 		.4byte	.LASF33
 974 01a7 05       		.byte	0x5
 975 01a8 36       		.byte	0x36
 976 01a9 33000000 		.4byte	0x33
 977 01ad 02       		.byte	0x2
 978 01ae 23       		.byte	0x23
 979 01af 18       		.uleb128 0x18
 980 01b0 07       		.uleb128 0x7
 981 01b1 ED010000 		.4byte	.LASF34
 982 01b5 05       		.byte	0x5
 983 01b6 37       		.byte	0x37
 984 01b7 78000000 		.4byte	0x78
 985 01bb 02       		.byte	0x2
ARM GAS  G:\Users\Jaxb\AppData\Local\Temp\ccATe0C6.s 			page 23


 986 01bc 23       		.byte	0x23
 987 01bd 1C       		.uleb128 0x1c
 988 01be 07       		.uleb128 0x7
 989 01bf 91010000 		.4byte	.LASF35
 990 01c3 05       		.byte	0x5
 991 01c4 38       		.byte	0x38
 992 01c5 78000000 		.4byte	0x78
 993 01c9 02       		.byte	0x2
 994 01ca 23       		.byte	0x23
 995 01cb 24       		.uleb128 0x24
 996 01cc 07       		.uleb128 0x7
 997 01cd 8C020000 		.4byte	.LASF36
 998 01d1 05       		.byte	0x5
 999 01d2 39       		.byte	0x39
 1000 01d3 19020000 		.4byte	0x219
 1001 01d7 02       		.byte	0x2
 1002 01d8 23       		.byte	0x23
 1003 01d9 2C       		.uleb128 0x2c
 1004 01da 07       		.uleb128 0x7
 1005 01db 81000000 		.4byte	.LASF37
 1006 01df 05       		.byte	0x5
 1007 01e0 3A       		.byte	0x3a
 1008 01e1 5F000000 		.4byte	0x5f
 1009 01e5 02       		.byte	0x2
 1010 01e6 23       		.byte	0x23
 1011 01e7 30       		.uleb128 0x30
 1012 01e8 07       		.uleb128 0x7
 1013 01e9 B9000000 		.4byte	.LASF38
 1014 01ed 05       		.byte	0x5
 1015 01ee 3B       		.byte	0x3b
 1016 01ef 5F000000 		.4byte	0x5f
 1017 01f3 02       		.byte	0x2
 1018 01f4 23       		.byte	0x23
 1019 01f5 34       		.uleb128 0x34
 1020 01f6 07       		.uleb128 0x7
 1021 01f7 91020000 		.4byte	.LASF39
 1022 01fb 05       		.byte	0x5
 1023 01fc 3C       		.byte	0x3c
 1024 01fd 54000000 		.4byte	0x54
 1025 0201 02       		.byte	0x2
 1026 0202 23       		.byte	0x23
 1027 0203 38       		.uleb128 0x38
 1028 0204 07       		.uleb128 0x7
 1029 0205 FB030000 		.4byte	.LASF40
 1030 0209 05       		.byte	0x5
 1031 020a 3D       		.byte	0x3d
 1032 020b 66000000 		.4byte	0x66
 1033 020f 02       		.byte	0x2
 1034 0210 23       		.byte	0x23
 1035 0211 40       		.uleb128 0x40
 1036 0212 00       		.byte	0
 1037 0213 08       		.uleb128 0x8
 1038 0214 04       		.byte	0x4
 1039 0215 00010000 		.4byte	0x100
 1040 0219 08       		.uleb128 0x8
 1041 021a 04       		.byte	0x4
 1042 021b 1F020000 		.4byte	0x21f
ARM GAS  G:\Users\Jaxb\AppData\Local\Temp\ccATe0C6.s 			page 24


 1043 021f 02       		.uleb128 0x2
 1044 0220 01       		.byte	0x1
 1045 0221 08       		.byte	0x8
 1046 0222 80030000 		.4byte	.LASF41
 1047 0226 0F       		.uleb128 0xf
 1048 0227 1F020000 		.4byte	0x21f
 1049 022b 10       		.uleb128 0x10
 1050 022c 54434200 		.ascii	"TCB\000"
 1051 0230 05       		.byte	0x5
 1052 0231 3E       		.byte	0x3e
 1053 0232 42010000 		.4byte	0x142
 1054 0236 04       		.uleb128 0x4
 1055 0237 2B020000 		.4byte	0x22b
 1056 023b 05       		.uleb128 0x5
 1057 023c A4020000 		.4byte	.LASF42
 1058 0240 06       		.byte	0x6
 1059 0241 04       		.byte	0x4
 1060 0242 5F000000 		.4byte	0x5f
 1061 0246 05       		.uleb128 0x5
 1062 0247 15010000 		.4byte	.LASF43
 1063 024b 06       		.byte	0x6
 1064 024c 06       		.byte	0x6
 1065 024d 3B020000 		.4byte	0x23b
 1066 0251 11       		.uleb128 0x11
 1067 0252 CE020000 		.4byte	.LASF45
 1068 0256 02       		.byte	0x2
 1069 0257 0D       		.byte	0xd
 1070 0258 63020000 		.4byte	0x263
 1071 025c 01       		.byte	0x1
 1072 025d 05       		.byte	0x5
 1073 025e 03       		.byte	0x3
 1074 025f 00000000 		.4byte	OSTCBCurPtr
 1075 0263 08       		.uleb128 0x8
 1076 0264 04       		.byte	0x4
 1077 0265 36020000 		.4byte	0x236
 1078 0269 11       		.uleb128 0x11
 1079 026a BE020000 		.4byte	.LASF46
 1080 026e 02       		.byte	0x2
 1081 026f 0E       		.byte	0xe
 1082 0270 63020000 		.4byte	0x263
 1083 0274 01       		.byte	0x1
 1084 0275 05       		.byte	0x5
 1085 0276 03       		.byte	0x3
 1086 0277 00000000 		.4byte	OSTCBHighRdyPtr
 1087 027b 12       		.uleb128 0x12
 1088 027c 35010000 		.4byte	0x135
 1089 0280 02       		.byte	0x2
 1090 0281 0F       		.byte	0xf
 1091 0282 05       		.byte	0x5
 1092 0283 03       		.byte	0x3
 1093 0284 00000000 		.4byte	g_interrupt_count
 1094 0288 13       		.uleb128 0x13
 1095 0289 01       		.byte	0x1
 1096 028a DD030000 		.4byte	.LASF47
 1097 028e 02       		.byte	0x2
 1098 028f A7       		.byte	0xa7
 1099 0290 01       		.byte	0x1
ARM GAS  G:\Users\Jaxb\AppData\Local\Temp\ccATe0C6.s 			page 25


 1100 0291 33000000 		.4byte	0x33
 1101 0295 C4020000 		.4byte	.LFB16
 1102 0299 60030000 		.4byte	.LFE16
 1103 029d 00000000 		.4byte	.LLST5
 1104 02a1 01       		.byte	0x1
 1105 02a2 C3020000 		.4byte	0x2c3
 1106 02a6 14       		.uleb128 0x14
 1107 02a7 A5000000 		.4byte	.LASF49
 1108 02ab 02       		.byte	0x2
 1109 02ac A7       		.byte	0xa7
 1110 02ad C3020000 		.4byte	0x2c3
 1111 02b1 02       		.byte	0x2
 1112 02b2 91       		.byte	0x91
 1113 02b3 6C       		.sleb128 -20
 1114 02b4 15       		.uleb128 0x15
 1115 02b5 46000000 		.4byte	.LASF50
 1116 02b9 02       		.byte	0x2
 1117 02ba B1       		.byte	0xb1
 1118 02bb 46020000 		.4byte	0x246
 1119 02bf 02       		.byte	0x2
 1120 02c0 91       		.byte	0x91
 1121 02c1 74       		.sleb128 -12
 1122 02c2 00       		.byte	0
 1123 02c3 08       		.uleb128 0x8
 1124 02c4 04       		.byte	0x4
 1125 02c5 2B020000 		.4byte	0x22b
 1126 02c9 13       		.uleb128 0x13
 1127 02ca 01       		.byte	0x1
 1128 02cb 35000000 		.4byte	.LASF48
 1129 02cf 02       		.byte	0x2
 1130 02d0 73       		.byte	0x73
 1131 02d1 01       		.byte	0x1
 1132 02d2 33000000 		.4byte	0x33
 1133 02d6 20020000 		.4byte	.LFB15
 1134 02da C4020000 		.4byte	.LFE15
 1135 02de 50000000 		.4byte	.LLST4
 1136 02e2 01       		.byte	0x1
 1137 02e3 12030000 		.4byte	0x312
 1138 02e7 14       		.uleb128 0x14
 1139 02e8 A5000000 		.4byte	.LASF49
 1140 02ec 02       		.byte	0x2
 1141 02ed 73       		.byte	0x73
 1142 02ee C3020000 		.4byte	0x2c3
 1143 02f2 02       		.byte	0x2
 1144 02f3 91       		.byte	0x91
 1145 02f4 6C       		.sleb128 -20
 1146 02f5 14       		.uleb128 0x14
 1147 02f6 05000000 		.4byte	.LASF30
 1148 02fa 02       		.byte	0x2
 1149 02fb 73       		.byte	0x73
 1150 02fc 0B010000 		.4byte	0x10b
 1151 0300 02       		.byte	0x2
 1152 0301 91       		.byte	0x91
 1153 0302 68       		.sleb128 -24
 1154 0303 15       		.uleb128 0x15
 1155 0304 46000000 		.4byte	.LASF50
 1156 0308 02       		.byte	0x2
ARM GAS  G:\Users\Jaxb\AppData\Local\Temp\ccATe0C6.s 			page 26


 1157 0309 7F       		.byte	0x7f
 1158 030a 46020000 		.4byte	0x246
 1159 030e 02       		.byte	0x2
 1160 030f 91       		.byte	0x91
 1161 0310 74       		.sleb128 -12
 1162 0311 00       		.byte	0
 1163 0312 13       		.uleb128 0x13
 1164 0313 01       		.byte	0x1
 1165 0314 86010000 		.4byte	.LASF51
 1166 0318 02       		.byte	0x2
 1167 0319 46       		.byte	0x46
 1168 031a 01       		.byte	0x1
 1169 031b C3020000 		.4byte	0x2c3
 1170 031f 7C010000 		.4byte	.LFB14
 1171 0323 20020000 		.4byte	.LFE14
 1172 0327 A0000000 		.4byte	.LLST3
 1173 032b 01       		.byte	0x1
 1174 032c A1030000 		.4byte	0x3a1
 1175 0330 14       		.uleb128 0x14
 1176 0331 72020000 		.4byte	.LASF28
 1177 0335 02       		.byte	0x2
 1178 0336 47       		.byte	0x47
 1179 0337 5F000000 		.4byte	0x5f
 1180 033b 02       		.byte	0x2
 1181 033c 91       		.byte	0x91
 1182 033d 6C       		.sleb128 -20
 1183 033e 14       		.uleb128 0x14
 1184 033f 05000000 		.4byte	.LASF30
 1185 0343 02       		.byte	0x2
 1186 0344 48       		.byte	0x48
 1187 0345 0B010000 		.4byte	0x10b
 1188 0349 02       		.byte	0x2
 1189 034a 91       		.byte	0x91
 1190 034b 68       		.sleb128 -24
 1191 034c 14       		.uleb128 0x14
 1192 034d 81000000 		.4byte	.LASF37
 1193 0351 02       		.byte	0x2
 1194 0352 49       		.byte	0x49
 1195 0353 5F000000 		.4byte	0x5f
 1196 0357 02       		.byte	0x2
 1197 0358 91       		.byte	0x91
 1198 0359 64       		.sleb128 -28
 1199 035a 14       		.uleb128 0x14
 1200 035b 8C020000 		.4byte	.LASF36
 1201 035f 02       		.byte	0x2
 1202 0360 4A       		.byte	0x4a
 1203 0361 A1030000 		.4byte	0x3a1
 1204 0365 02       		.byte	0x2
 1205 0366 91       		.byte	0x91
 1206 0367 60       		.sleb128 -32
 1207 0368 14       		.uleb128 0x14
 1208 0369 20020000 		.4byte	.LASF52
 1209 036d 02       		.byte	0x2
 1210 036e 4B       		.byte	0x4b
 1211 036f 16010000 		.4byte	0x116
 1212 0373 02       		.byte	0x2
 1213 0374 91       		.byte	0x91
ARM GAS  G:\Users\Jaxb\AppData\Local\Temp\ccATe0C6.s 			page 27


 1214 0375 00       		.sleb128 0
 1215 0376 14       		.uleb128 0x14
 1216 0377 AF020000 		.4byte	.LASF53
 1217 037b 02       		.byte	0x2
 1218 037c 4C       		.byte	0x4c
 1219 037d 33010000 		.4byte	0x133
 1220 0381 02       		.byte	0x2
 1221 0382 91       		.byte	0x91
 1222 0383 04       		.sleb128 4
 1223 0384 14       		.uleb128 0x14
 1224 0385 D0010000 		.4byte	.LASF54
 1225 0389 02       		.byte	0x2
 1226 038a 4D       		.byte	0x4d
 1227 038b F5000000 		.4byte	0xf5
 1228 038f 02       		.byte	0x2
 1229 0390 91       		.byte	0x91
 1230 0391 08       		.sleb128 8
 1231 0392 15       		.uleb128 0x15
 1232 0393 A5000000 		.4byte	.LASF49
 1233 0397 02       		.byte	0x2
 1234 0398 59       		.byte	0x59
 1235 0399 C3020000 		.4byte	0x2c3
 1236 039d 02       		.byte	0x2
 1237 039e 91       		.byte	0x91
 1238 039f 74       		.sleb128 -12
 1239 03a0 00       		.byte	0
 1240 03a1 08       		.uleb128 0x8
 1241 03a2 04       		.byte	0x4
 1242 03a3 26020000 		.4byte	0x226
 1243 03a7 13       		.uleb128 0x13
 1244 03a8 01       		.byte	0x1
 1245 03a9 9B000000 		.4byte	.LASF55
 1246 03ad 02       		.byte	0x2
 1247 03ae 16       		.byte	0x16
 1248 03af 01       		.byte	0x1
 1249 03b0 33000000 		.4byte	0x33
 1250 03b4 34000000 		.4byte	.LFB13
 1251 03b8 7C010000 		.4byte	.LFE13
 1252 03bc F0000000 		.4byte	.LLST2
 1253 03c0 01       		.byte	0x1
 1254 03c1 36040000 		.4byte	0x436
 1255 03c5 14       		.uleb128 0x14
 1256 03c6 A5000000 		.4byte	.LASF49
 1257 03ca 02       		.byte	0x2
 1258 03cb 17       		.byte	0x17
 1259 03cc C3020000 		.4byte	0x2c3
 1260 03d0 02       		.byte	0x2
 1261 03d1 91       		.byte	0x91
 1262 03d2 6C       		.sleb128 -20
 1263 03d3 14       		.uleb128 0x14
 1264 03d4 72020000 		.4byte	.LASF28
 1265 03d8 02       		.byte	0x2
 1266 03d9 18       		.byte	0x18
 1267 03da 5F000000 		.4byte	0x5f
 1268 03de 02       		.byte	0x2
 1269 03df 91       		.byte	0x91
 1270 03e0 68       		.sleb128 -24
ARM GAS  G:\Users\Jaxb\AppData\Local\Temp\ccATe0C6.s 			page 28


 1271 03e1 14       		.uleb128 0x14
 1272 03e2 05000000 		.4byte	.LASF30
 1273 03e6 02       		.byte	0x2
 1274 03e7 19       		.byte	0x19
 1275 03e8 0B010000 		.4byte	0x10b
 1276 03ec 02       		.byte	0x2
 1277 03ed 91       		.byte	0x91
 1278 03ee 64       		.sleb128 -28
 1279 03ef 14       		.uleb128 0x14
 1280 03f0 81000000 		.4byte	.LASF37
 1281 03f4 02       		.byte	0x2
 1282 03f5 1A       		.byte	0x1a
 1283 03f6 5F000000 		.4byte	0x5f
 1284 03fa 02       		.byte	0x2
 1285 03fb 91       		.byte	0x91
 1286 03fc 60       		.sleb128 -32
 1287 03fd 14       		.uleb128 0x14
 1288 03fe 8C020000 		.4byte	.LASF36
 1289 0402 02       		.byte	0x2
 1290 0403 1B       		.byte	0x1b
 1291 0404 A1030000 		.4byte	0x3a1
 1292 0408 02       		.byte	0x2
 1293 0409 91       		.byte	0x91
 1294 040a 00       		.sleb128 0
 1295 040b 14       		.uleb128 0x14
 1296 040c 20020000 		.4byte	.LASF52
 1297 0410 02       		.byte	0x2
 1298 0411 1C       		.byte	0x1c
 1299 0412 16010000 		.4byte	0x116
 1300 0416 02       		.byte	0x2
 1301 0417 91       		.byte	0x91
 1302 0418 04       		.sleb128 4
 1303 0419 14       		.uleb128 0x14
 1304 041a AF020000 		.4byte	.LASF53
 1305 041e 02       		.byte	0x2
 1306 041f 1D       		.byte	0x1d
 1307 0420 33010000 		.4byte	0x133
 1308 0424 02       		.byte	0x2
 1309 0425 91       		.byte	0x91
 1310 0426 08       		.sleb128 8
 1311 0427 14       		.uleb128 0x14
 1312 0428 D0010000 		.4byte	.LASF54
 1313 042c 02       		.byte	0x2
 1314 042d 1E       		.byte	0x1e
 1315 042e F5000000 		.4byte	0xf5
 1316 0432 02       		.byte	0x2
 1317 0433 91       		.byte	0x91
 1318 0434 0C       		.sleb128 12
 1319 0435 00       		.byte	0
 1320 0436 16       		.uleb128 0x16
 1321 0437 CD000000 		.4byte	.LASF61
 1322 043b 02       		.byte	0x2
 1323 043c 11       		.byte	0x11
 1324 043d 01       		.byte	0x1
 1325 043e 1E000000 		.4byte	.LFB12
 1326 0442 34000000 		.4byte	.LFE12
 1327 0446 40010000 		.4byte	.LLST1
ARM GAS  G:\Users\Jaxb\AppData\Local\Temp\ccATe0C6.s 			page 29


 1328 044a 01       		.byte	0x1
 1329 044b 17       		.uleb128 0x17
 1330 044c 7D020000 		.4byte	.LASF62
 1331 0450 01       		.byte	0x1
 1332 0451 10       		.byte	0x10
 1333 0452 01       		.byte	0x1
 1334 0453 00000000 		.4byte	.LFB0
 1335 0457 1E000000 		.4byte	.LFE0
 1336 045b 6C010000 		.4byte	.LLST0
 1337 045f 01       		.byte	0x1
 1338 0460 14       		.uleb128 0x14
 1339 0461 00000000 		.4byte	.LASF56
 1340 0465 01       		.byte	0x1
 1341 0466 10       		.byte	0x10
 1342 0467 A1000000 		.4byte	0xa1
 1343 046b 02       		.byte	0x2
 1344 046c 91       		.byte	0x91
 1345 046d 74       		.sleb128 -12
 1346 046e 00       		.byte	0
 1347 046f 00       		.byte	0
 1348              		.section	.debug_abbrev,"",%progbits
 1349              	.Ldebug_abbrev0:
 1350 0000 01       		.uleb128 0x1
 1351 0001 11       		.uleb128 0x11
 1352 0002 01       		.byte	0x1
 1353 0003 25       		.uleb128 0x25
 1354 0004 0E       		.uleb128 0xe
 1355 0005 13       		.uleb128 0x13
 1356 0006 0B       		.uleb128 0xb
 1357 0007 03       		.uleb128 0x3
 1358 0008 0E       		.uleb128 0xe
 1359 0009 1B       		.uleb128 0x1b
 1360 000a 0E       		.uleb128 0xe
 1361 000b 11       		.uleb128 0x11
 1362 000c 01       		.uleb128 0x1
 1363 000d 12       		.uleb128 0x12
 1364 000e 01       		.uleb128 0x1
 1365 000f 10       		.uleb128 0x10
 1366 0010 06       		.uleb128 0x6
 1367 0011 00       		.byte	0
 1368 0012 00       		.byte	0
 1369 0013 02       		.uleb128 0x2
 1370 0014 24       		.uleb128 0x24
 1371 0015 00       		.byte	0
 1372 0016 0B       		.uleb128 0xb
 1373 0017 0B       		.uleb128 0xb
 1374 0018 3E       		.uleb128 0x3e
 1375 0019 0B       		.uleb128 0xb
 1376 001a 03       		.uleb128 0x3
 1377 001b 0E       		.uleb128 0xe
 1378 001c 00       		.byte	0
 1379 001d 00       		.byte	0
 1380 001e 03       		.uleb128 0x3
 1381 001f 24       		.uleb128 0x24
 1382 0020 00       		.byte	0
 1383 0021 0B       		.uleb128 0xb
 1384 0022 0B       		.uleb128 0xb
ARM GAS  G:\Users\Jaxb\AppData\Local\Temp\ccATe0C6.s 			page 30


 1385 0023 3E       		.uleb128 0x3e
 1386 0024 0B       		.uleb128 0xb
 1387 0025 03       		.uleb128 0x3
 1388 0026 08       		.uleb128 0x8
 1389 0027 00       		.byte	0
 1390 0028 00       		.byte	0
 1391 0029 04       		.uleb128 0x4
 1392 002a 35       		.uleb128 0x35
 1393 002b 00       		.byte	0
 1394 002c 49       		.uleb128 0x49
 1395 002d 13       		.uleb128 0x13
 1396 002e 00       		.byte	0
 1397 002f 00       		.byte	0
 1398 0030 05       		.uleb128 0x5
 1399 0031 16       		.uleb128 0x16
 1400 0032 00       		.byte	0
 1401 0033 03       		.uleb128 0x3
 1402 0034 0E       		.uleb128 0xe
 1403 0035 3A       		.uleb128 0x3a
 1404 0036 0B       		.uleb128 0xb
 1405 0037 3B       		.uleb128 0x3b
 1406 0038 0B       		.uleb128 0xb
 1407 0039 49       		.uleb128 0x49
 1408 003a 13       		.uleb128 0x13
 1409 003b 00       		.byte	0
 1410 003c 00       		.byte	0
 1411 003d 06       		.uleb128 0x6
 1412 003e 13       		.uleb128 0x13
 1413 003f 01       		.byte	0x1
 1414 0040 03       		.uleb128 0x3
 1415 0041 0E       		.uleb128 0xe
 1416 0042 0B       		.uleb128 0xb
 1417 0043 0B       		.uleb128 0xb
 1418 0044 3A       		.uleb128 0x3a
 1419 0045 0B       		.uleb128 0xb
 1420 0046 3B       		.uleb128 0x3b
 1421 0047 0B       		.uleb128 0xb
 1422 0048 01       		.uleb128 0x1
 1423 0049 13       		.uleb128 0x13
 1424 004a 00       		.byte	0
 1425 004b 00       		.byte	0
 1426 004c 07       		.uleb128 0x7
 1427 004d 0D       		.uleb128 0xd
 1428 004e 00       		.byte	0
 1429 004f 03       		.uleb128 0x3
 1430 0050 0E       		.uleb128 0xe
 1431 0051 3A       		.uleb128 0x3a
 1432 0052 0B       		.uleb128 0xb
 1433 0053 3B       		.uleb128 0x3b
 1434 0054 0B       		.uleb128 0xb
 1435 0055 49       		.uleb128 0x49
 1436 0056 13       		.uleb128 0x13
 1437 0057 38       		.uleb128 0x38
 1438 0058 0A       		.uleb128 0xa
 1439 0059 00       		.byte	0
 1440 005a 00       		.byte	0
 1441 005b 08       		.uleb128 0x8
ARM GAS  G:\Users\Jaxb\AppData\Local\Temp\ccATe0C6.s 			page 31


 1442 005c 0F       		.uleb128 0xf
 1443 005d 00       		.byte	0
 1444 005e 0B       		.uleb128 0xb
 1445 005f 0B       		.uleb128 0xb
 1446 0060 49       		.uleb128 0x49
 1447 0061 13       		.uleb128 0x13
 1448 0062 00       		.byte	0
 1449 0063 00       		.byte	0
 1450 0064 09       		.uleb128 0x9
 1451 0065 04       		.uleb128 0x4
 1452 0066 01       		.byte	0x1
 1453 0067 03       		.uleb128 0x3
 1454 0068 0E       		.uleb128 0xe
 1455 0069 3E       		.uleb128 0x3e
 1456 006a 0B       		.uleb128 0xb
 1457 006b 0B       		.uleb128 0xb
 1458 006c 0B       		.uleb128 0xb
 1459 006d 49       		.uleb128 0x49
 1460 006e 13       		.uleb128 0x13
 1461 006f 3A       		.uleb128 0x3a
 1462 0070 0B       		.uleb128 0xb
 1463 0071 3B       		.uleb128 0x3b
 1464 0072 0B       		.uleb128 0xb
 1465 0073 01       		.uleb128 0x1
 1466 0074 13       		.uleb128 0x13
 1467 0075 00       		.byte	0
 1468 0076 00       		.byte	0
 1469 0077 0A       		.uleb128 0xa
 1470 0078 28       		.uleb128 0x28
 1471 0079 00       		.byte	0
 1472 007a 03       		.uleb128 0x3
 1473 007b 0E       		.uleb128 0xe
 1474 007c 1C       		.uleb128 0x1c
 1475 007d 0B       		.uleb128 0xb
 1476 007e 00       		.byte	0
 1477 007f 00       		.byte	0
 1478 0080 0B       		.uleb128 0xb
 1479 0081 15       		.uleb128 0x15
 1480 0082 01       		.byte	0x1
 1481 0083 27       		.uleb128 0x27
 1482 0084 0C       		.uleb128 0xc
 1483 0085 01       		.uleb128 0x1
 1484 0086 13       		.uleb128 0x13
 1485 0087 00       		.byte	0
 1486 0088 00       		.byte	0
 1487 0089 0C       		.uleb128 0xc
 1488 008a 05       		.uleb128 0x5
 1489 008b 00       		.byte	0
 1490 008c 49       		.uleb128 0x49
 1491 008d 13       		.uleb128 0x13
 1492 008e 00       		.byte	0
 1493 008f 00       		.byte	0
 1494 0090 0D       		.uleb128 0xd
 1495 0091 0F       		.uleb128 0xf
 1496 0092 00       		.byte	0
 1497 0093 0B       		.uleb128 0xb
 1498 0094 0B       		.uleb128 0xb
ARM GAS  G:\Users\Jaxb\AppData\Local\Temp\ccATe0C6.s 			page 32


 1499 0095 00       		.byte	0
 1500 0096 00       		.byte	0
 1501 0097 0E       		.uleb128 0xe
 1502 0098 34       		.uleb128 0x34
 1503 0099 00       		.byte	0
 1504 009a 03       		.uleb128 0x3
 1505 009b 0E       		.uleb128 0xe
 1506 009c 3A       		.uleb128 0x3a
 1507 009d 0B       		.uleb128 0xb
 1508 009e 3B       		.uleb128 0x3b
 1509 009f 0B       		.uleb128 0xb
 1510 00a0 49       		.uleb128 0x49
 1511 00a1 13       		.uleb128 0x13
 1512 00a2 3F       		.uleb128 0x3f
 1513 00a3 0C       		.uleb128 0xc
 1514 00a4 3C       		.uleb128 0x3c
 1515 00a5 0C       		.uleb128 0xc
 1516 00a6 00       		.byte	0
 1517 00a7 00       		.byte	0
 1518 00a8 0F       		.uleb128 0xf
 1519 00a9 26       		.uleb128 0x26
 1520 00aa 00       		.byte	0
 1521 00ab 49       		.uleb128 0x49
 1522 00ac 13       		.uleb128 0x13
 1523 00ad 00       		.byte	0
 1524 00ae 00       		.byte	0
 1525 00af 10       		.uleb128 0x10
 1526 00b0 16       		.uleb128 0x16
 1527 00b1 00       		.byte	0
 1528 00b2 03       		.uleb128 0x3
 1529 00b3 08       		.uleb128 0x8
 1530 00b4 3A       		.uleb128 0x3a
 1531 00b5 0B       		.uleb128 0xb
 1532 00b6 3B       		.uleb128 0x3b
 1533 00b7 0B       		.uleb128 0xb
 1534 00b8 49       		.uleb128 0x49
 1535 00b9 13       		.uleb128 0x13
 1536 00ba 00       		.byte	0
 1537 00bb 00       		.byte	0
 1538 00bc 11       		.uleb128 0x11
 1539 00bd 34       		.uleb128 0x34
 1540 00be 00       		.byte	0
 1541 00bf 03       		.uleb128 0x3
 1542 00c0 0E       		.uleb128 0xe
 1543 00c1 3A       		.uleb128 0x3a
 1544 00c2 0B       		.uleb128 0xb
 1545 00c3 3B       		.uleb128 0x3b
 1546 00c4 0B       		.uleb128 0xb
 1547 00c5 49       		.uleb128 0x49
 1548 00c6 13       		.uleb128 0x13
 1549 00c7 3F       		.uleb128 0x3f
 1550 00c8 0C       		.uleb128 0xc
 1551 00c9 02       		.uleb128 0x2
 1552 00ca 0A       		.uleb128 0xa
 1553 00cb 00       		.byte	0
 1554 00cc 00       		.byte	0
 1555 00cd 12       		.uleb128 0x12
ARM GAS  G:\Users\Jaxb\AppData\Local\Temp\ccATe0C6.s 			page 33


 1556 00ce 34       		.uleb128 0x34
 1557 00cf 00       		.byte	0
 1558 00d0 47       		.uleb128 0x47
 1559 00d1 13       		.uleb128 0x13
 1560 00d2 3A       		.uleb128 0x3a
 1561 00d3 0B       		.uleb128 0xb
 1562 00d4 3B       		.uleb128 0x3b
 1563 00d5 0B       		.uleb128 0xb
 1564 00d6 02       		.uleb128 0x2
 1565 00d7 0A       		.uleb128 0xa
 1566 00d8 00       		.byte	0
 1567 00d9 00       		.byte	0
 1568 00da 13       		.uleb128 0x13
 1569 00db 2E       		.uleb128 0x2e
 1570 00dc 01       		.byte	0x1
 1571 00dd 3F       		.uleb128 0x3f
 1572 00de 0C       		.uleb128 0xc
 1573 00df 03       		.uleb128 0x3
 1574 00e0 0E       		.uleb128 0xe
 1575 00e1 3A       		.uleb128 0x3a
 1576 00e2 0B       		.uleb128 0xb
 1577 00e3 3B       		.uleb128 0x3b
 1578 00e4 0B       		.uleb128 0xb
 1579 00e5 27       		.uleb128 0x27
 1580 00e6 0C       		.uleb128 0xc
 1581 00e7 49       		.uleb128 0x49
 1582 00e8 13       		.uleb128 0x13
 1583 00e9 11       		.uleb128 0x11
 1584 00ea 01       		.uleb128 0x1
 1585 00eb 12       		.uleb128 0x12
 1586 00ec 01       		.uleb128 0x1
 1587 00ed 40       		.uleb128 0x40
 1588 00ee 06       		.uleb128 0x6
 1589 00ef 9642     		.uleb128 0x2116
 1590 00f1 0C       		.uleb128 0xc
 1591 00f2 01       		.uleb128 0x1
 1592 00f3 13       		.uleb128 0x13
 1593 00f4 00       		.byte	0
 1594 00f5 00       		.byte	0
 1595 00f6 14       		.uleb128 0x14
 1596 00f7 05       		.uleb128 0x5
 1597 00f8 00       		.byte	0
 1598 00f9 03       		.uleb128 0x3
 1599 00fa 0E       		.uleb128 0xe
 1600 00fb 3A       		.uleb128 0x3a
 1601 00fc 0B       		.uleb128 0xb
 1602 00fd 3B       		.uleb128 0x3b
 1603 00fe 0B       		.uleb128 0xb
 1604 00ff 49       		.uleb128 0x49
 1605 0100 13       		.uleb128 0x13
 1606 0101 02       		.uleb128 0x2
 1607 0102 0A       		.uleb128 0xa
 1608 0103 00       		.byte	0
 1609 0104 00       		.byte	0
 1610 0105 15       		.uleb128 0x15
 1611 0106 34       		.uleb128 0x34
 1612 0107 00       		.byte	0
ARM GAS  G:\Users\Jaxb\AppData\Local\Temp\ccATe0C6.s 			page 34


 1613 0108 03       		.uleb128 0x3
 1614 0109 0E       		.uleb128 0xe
 1615 010a 3A       		.uleb128 0x3a
 1616 010b 0B       		.uleb128 0xb
 1617 010c 3B       		.uleb128 0x3b
 1618 010d 0B       		.uleb128 0xb
 1619 010e 49       		.uleb128 0x49
 1620 010f 13       		.uleb128 0x13
 1621 0110 02       		.uleb128 0x2
 1622 0111 0A       		.uleb128 0xa
 1623 0112 00       		.byte	0
 1624 0113 00       		.byte	0
 1625 0114 16       		.uleb128 0x16
 1626 0115 2E       		.uleb128 0x2e
 1627 0116 00       		.byte	0
 1628 0117 03       		.uleb128 0x3
 1629 0118 0E       		.uleb128 0xe
 1630 0119 3A       		.uleb128 0x3a
 1631 011a 0B       		.uleb128 0xb
 1632 011b 3B       		.uleb128 0x3b
 1633 011c 0B       		.uleb128 0xb
 1634 011d 27       		.uleb128 0x27
 1635 011e 0C       		.uleb128 0xc
 1636 011f 11       		.uleb128 0x11
 1637 0120 01       		.uleb128 0x1
 1638 0121 12       		.uleb128 0x12
 1639 0122 01       		.uleb128 0x1
 1640 0123 40       		.uleb128 0x40
 1641 0124 06       		.uleb128 0x6
 1642 0125 9642     		.uleb128 0x2116
 1643 0127 0C       		.uleb128 0xc
 1644 0128 00       		.byte	0
 1645 0129 00       		.byte	0
 1646 012a 17       		.uleb128 0x17
 1647 012b 2E       		.uleb128 0x2e
 1648 012c 01       		.byte	0x1
 1649 012d 03       		.uleb128 0x3
 1650 012e 0E       		.uleb128 0xe
 1651 012f 3A       		.uleb128 0x3a
 1652 0130 0B       		.uleb128 0xb
 1653 0131 3B       		.uleb128 0x3b
 1654 0132 0B       		.uleb128 0xb
 1655 0133 27       		.uleb128 0x27
 1656 0134 0C       		.uleb128 0xc
 1657 0135 11       		.uleb128 0x11
 1658 0136 01       		.uleb128 0x1
 1659 0137 12       		.uleb128 0x12
 1660 0138 01       		.uleb128 0x1
 1661 0139 40       		.uleb128 0x40
 1662 013a 06       		.uleb128 0x6
 1663 013b 9742     		.uleb128 0x2117
 1664 013d 0C       		.uleb128 0xc
 1665 013e 00       		.byte	0
 1666 013f 00       		.byte	0
 1667 0140 00       		.byte	0
 1668              		.section	.debug_loc,"",%progbits
 1669              	.Ldebug_loc0:
ARM GAS  G:\Users\Jaxb\AppData\Local\Temp\ccATe0C6.s 			page 35


 1670              	.LLST5:
 1671 0000 C4020000 		.4byte	.LFB16-.Ltext0
 1672 0004 C6020000 		.4byte	.LCFI23-.Ltext0
 1673 0008 0200     		.2byte	0x2
 1674 000a 7D       		.byte	0x7d
 1675 000b 00       		.sleb128 0
 1676 000c C6020000 		.4byte	.LCFI23-.Ltext0
 1677 0010 C8020000 		.4byte	.LCFI24-.Ltext0
 1678 0014 0200     		.2byte	0x2
 1679 0016 7D       		.byte	0x7d
 1680 0017 08       		.sleb128 8
 1681 0018 C8020000 		.4byte	.LCFI24-.Ltext0
 1682 001c CA020000 		.4byte	.LCFI25-.Ltext0
 1683 0020 0200     		.2byte	0x2
 1684 0022 7D       		.byte	0x7d
 1685 0023 18       		.sleb128 24
 1686 0024 CA020000 		.4byte	.LCFI25-.Ltext0
 1687 0028 52030000 		.4byte	.LCFI26-.Ltext0
 1688 002c 0200     		.2byte	0x2
 1689 002e 77       		.byte	0x77
 1690 002f 18       		.sleb128 24
 1691 0030 52030000 		.4byte	.LCFI26-.Ltext0
 1692 0034 54030000 		.4byte	.LCFI27-.Ltext0
 1693 0038 0200     		.2byte	0x2
 1694 003a 77       		.byte	0x77
 1695 003b 08       		.sleb128 8
 1696 003c 54030000 		.4byte	.LCFI27-.Ltext0
 1697 0040 60030000 		.4byte	.LFE16-.Ltext0
 1698 0044 0200     		.2byte	0x2
 1699 0046 7D       		.byte	0x7d
 1700 0047 08       		.sleb128 8
 1701 0048 00000000 		.4byte	0
 1702 004c 00000000 		.4byte	0
 1703              	.LLST4:
 1704 0050 20020000 		.4byte	.LFB15-.Ltext0
 1705 0054 22020000 		.4byte	.LCFI18-.Ltext0
 1706 0058 0200     		.2byte	0x2
 1707 005a 7D       		.byte	0x7d
 1708 005b 00       		.sleb128 0
 1709 005c 22020000 		.4byte	.LCFI18-.Ltext0
 1710 0060 24020000 		.4byte	.LCFI19-.Ltext0
 1711 0064 0200     		.2byte	0x2
 1712 0066 7D       		.byte	0x7d
 1713 0067 08       		.sleb128 8
 1714 0068 24020000 		.4byte	.LCFI19-.Ltext0
 1715 006c 26020000 		.4byte	.LCFI20-.Ltext0
 1716 0070 0200     		.2byte	0x2
 1717 0072 7D       		.byte	0x7d
 1718 0073 18       		.sleb128 24
 1719 0074 26020000 		.4byte	.LCFI20-.Ltext0
 1720 0078 B4020000 		.4byte	.LCFI21-.Ltext0
 1721 007c 0200     		.2byte	0x2
 1722 007e 77       		.byte	0x77
 1723 007f 18       		.sleb128 24
 1724 0080 B4020000 		.4byte	.LCFI21-.Ltext0
 1725 0084 B6020000 		.4byte	.LCFI22-.Ltext0
 1726 0088 0200     		.2byte	0x2
ARM GAS  G:\Users\Jaxb\AppData\Local\Temp\ccATe0C6.s 			page 36


 1727 008a 77       		.byte	0x77
 1728 008b 08       		.sleb128 8
 1729 008c B6020000 		.4byte	.LCFI22-.Ltext0
 1730 0090 C4020000 		.4byte	.LFE15-.Ltext0
 1731 0094 0200     		.2byte	0x2
 1732 0096 7D       		.byte	0x7d
 1733 0097 08       		.sleb128 8
 1734 0098 00000000 		.4byte	0
 1735 009c 00000000 		.4byte	0
 1736              	.LLST3:
 1737 00a0 7C010000 		.4byte	.LFB14-.Ltext0
 1738 00a4 7E010000 		.4byte	.LCFI13-.Ltext0
 1739 00a8 0200     		.2byte	0x2
 1740 00aa 7D       		.byte	0x7d
 1741 00ab 00       		.sleb128 0
 1742 00ac 7E010000 		.4byte	.LCFI13-.Ltext0
 1743 00b0 80010000 		.4byte	.LCFI14-.Ltext0
 1744 00b4 0200     		.2byte	0x2
 1745 00b6 7D       		.byte	0x7d
 1746 00b7 08       		.sleb128 8
 1747 00b8 80010000 		.4byte	.LCFI14-.Ltext0
 1748 00bc 82010000 		.4byte	.LCFI15-.Ltext0
 1749 00c0 0200     		.2byte	0x2
 1750 00c2 7D       		.byte	0x7d
 1751 00c3 30       		.sleb128 48
 1752 00c4 82010000 		.4byte	.LCFI15-.Ltext0
 1753 00c8 0E020000 		.4byte	.LCFI16-.Ltext0
 1754 00cc 0200     		.2byte	0x2
 1755 00ce 77       		.byte	0x77
 1756 00cf 20       		.sleb128 32
 1757 00d0 0E020000 		.4byte	.LCFI16-.Ltext0
 1758 00d4 10020000 		.4byte	.LCFI17-.Ltext0
 1759 00d8 0200     		.2byte	0x2
 1760 00da 77       		.byte	0x77
 1761 00db 08       		.sleb128 8
 1762 00dc 10020000 		.4byte	.LCFI17-.Ltext0
 1763 00e0 20020000 		.4byte	.LFE14-.Ltext0
 1764 00e4 0200     		.2byte	0x2
 1765 00e6 7D       		.byte	0x7d
 1766 00e7 08       		.sleb128 8
 1767 00e8 00000000 		.4byte	0
 1768 00ec 00000000 		.4byte	0
 1769              	.LLST2:
 1770 00f0 34000000 		.4byte	.LFB13-.Ltext0
 1771 00f4 36000000 		.4byte	.LCFI8-.Ltext0
 1772 00f8 0200     		.2byte	0x2
 1773 00fa 7D       		.byte	0x7d
 1774 00fb 00       		.sleb128 0
 1775 00fc 36000000 		.4byte	.LCFI8-.Ltext0
 1776 0100 38000000 		.4byte	.LCFI9-.Ltext0
 1777 0104 0200     		.2byte	0x2
 1778 0106 7D       		.byte	0x7d
 1779 0107 0C       		.sleb128 12
 1780 0108 38000000 		.4byte	.LCFI9-.Ltext0
 1781 010c 3A000000 		.4byte	.LCFI10-.Ltext0
 1782 0110 0200     		.2byte	0x2
 1783 0112 7D       		.byte	0x7d
ARM GAS  G:\Users\Jaxb\AppData\Local\Temp\ccATe0C6.s 			page 37


 1784 0113 20       		.sleb128 32
 1785 0114 3A000000 		.4byte	.LCFI10-.Ltext0
 1786 0118 64010000 		.4byte	.LCFI11-.Ltext0
 1787 011c 0200     		.2byte	0x2
 1788 011e 77       		.byte	0x77
 1789 011f 20       		.sleb128 32
 1790 0120 64010000 		.4byte	.LCFI11-.Ltext0
 1791 0124 66010000 		.4byte	.LCFI12-.Ltext0
 1792 0128 0200     		.2byte	0x2
 1793 012a 77       		.byte	0x77
 1794 012b 0C       		.sleb128 12
 1795 012c 66010000 		.4byte	.LCFI12-.Ltext0
 1796 0130 7C010000 		.4byte	.LFE13-.Ltext0
 1797 0134 0200     		.2byte	0x2
 1798 0136 7D       		.byte	0x7d
 1799 0137 0C       		.sleb128 12
 1800 0138 00000000 		.4byte	0
 1801 013c 00000000 		.4byte	0
 1802              	.LLST1:
 1803 0140 1E000000 		.4byte	.LFB12-.Ltext0
 1804 0144 20000000 		.4byte	.LCFI6-.Ltext0
 1805 0148 0200     		.2byte	0x2
 1806 014a 7D       		.byte	0x7d
 1807 014b 00       		.sleb128 0
 1808 014c 20000000 		.4byte	.LCFI6-.Ltext0
 1809 0150 22000000 		.4byte	.LCFI7-.Ltext0
 1810 0154 0200     		.2byte	0x2
 1811 0156 7D       		.byte	0x7d
 1812 0157 08       		.sleb128 8
 1813 0158 22000000 		.4byte	.LCFI7-.Ltext0
 1814 015c 34000000 		.4byte	.LFE12-.Ltext0
 1815 0160 0200     		.2byte	0x2
 1816 0162 77       		.byte	0x77
 1817 0163 08       		.sleb128 8
 1818 0164 00000000 		.4byte	0
 1819 0168 00000000 		.4byte	0
 1820              	.LLST0:
 1821 016c 00000000 		.4byte	.LFB0-.Ltext0
 1822 0170 02000000 		.4byte	.LCFI0-.Ltext0
 1823 0174 0200     		.2byte	0x2
 1824 0176 7D       		.byte	0x7d
 1825 0177 00       		.sleb128 0
 1826 0178 02000000 		.4byte	.LCFI0-.Ltext0
 1827 017c 04000000 		.4byte	.LCFI1-.Ltext0
 1828 0180 0200     		.2byte	0x2
 1829 0182 7D       		.byte	0x7d
 1830 0183 04       		.sleb128 4
 1831 0184 04000000 		.4byte	.LCFI1-.Ltext0
 1832 0188 06000000 		.4byte	.LCFI2-.Ltext0
 1833 018c 0200     		.2byte	0x2
 1834 018e 7D       		.byte	0x7d
 1835 018f 10       		.sleb128 16
 1836 0190 06000000 		.4byte	.LCFI2-.Ltext0
 1837 0194 18000000 		.4byte	.LCFI3-.Ltext0
 1838 0198 0200     		.2byte	0x2
 1839 019a 77       		.byte	0x77
 1840 019b 10       		.sleb128 16
ARM GAS  G:\Users\Jaxb\AppData\Local\Temp\ccATe0C6.s 			page 38


 1841 019c 18000000 		.4byte	.LCFI3-.Ltext0
 1842 01a0 1A000000 		.4byte	.LCFI4-.Ltext0
 1843 01a4 0200     		.2byte	0x2
 1844 01a6 77       		.byte	0x77
 1845 01a7 04       		.sleb128 4
 1846 01a8 1A000000 		.4byte	.LCFI4-.Ltext0
 1847 01ac 1C000000 		.4byte	.LCFI5-.Ltext0
 1848 01b0 0200     		.2byte	0x2
 1849 01b2 7D       		.byte	0x7d
 1850 01b3 04       		.sleb128 4
 1851 01b4 1C000000 		.4byte	.LCFI5-.Ltext0
 1852 01b8 1E000000 		.4byte	.LFE0-.Ltext0
 1853 01bc 0200     		.2byte	0x2
 1854 01be 7D       		.byte	0x7d
 1855 01bf 00       		.sleb128 0
 1856 01c0 00000000 		.4byte	0
 1857 01c4 00000000 		.4byte	0
 1858              		.section	.debug_aranges,"",%progbits
 1859 0000 1C000000 		.4byte	0x1c
 1860 0004 0200     		.2byte	0x2
 1861 0006 00000000 		.4byte	.Ldebug_info0
 1862 000a 04       		.byte	0x4
 1863 000b 00       		.byte	0
 1864 000c 0000     		.2byte	0
 1865 000e 0000     		.2byte	0
 1866 0010 00000000 		.4byte	.Ltext0
 1867 0014 60030000 		.4byte	.Letext0-.Ltext0
 1868 0018 00000000 		.4byte	0
 1869 001c 00000000 		.4byte	0
 1870              		.section	.debug_line,"",%progbits
 1871              	.Ldebug_line0:
 1872 0000 CF010000 		.section	.debug_str,"MS",%progbits,1
 1872      0200E600 
 1872      00000201 
 1872      FB0E0D00 
 1872      01010101 
 1873              	.LASF56:
 1874 0000 6C697374 		.ascii	"list\000"
 1874      00
 1875              	.LASF30:
 1876 0005 7072696F 		.ascii	"prio\000"
 1876      00
 1877              	.LASF32:
 1878 000a 7461736B 		.ascii	"task_state\000"
 1878      5F737461 
 1878      746500
 1879              	.LASF9:
 1880 0015 6E657874 		.ascii	"next\000"
 1880      00
 1881              	.LASF12:
 1882 001a 53544154 		.ascii	"STATE_DELAY\000"
 1882      455F4445 
 1882      4C415900 
 1883              	.LASF23:
 1884 0026 5441534B 		.ascii	"TASK_PRIO_TYPE\000"
 1884      5F505249 
 1884      4F5F5459 
ARM GAS  G:\Users\Jaxb\AppData\Local\Temp\ccATe0C6.s 			page 39


 1884      504500
 1885              	.LASF48:
 1886 0035 7461736B 		.ascii	"task_change_prio\000"
 1886      5F636861 
 1886      6E67655F 
 1886      7072696F 
 1886      00
 1887              	.LASF50:
 1888 0046 6370755F 		.ascii	"cpu_sr\000"
 1888      737200
 1889              	.LASF19:
 1890 004d 53544154 		.ascii	"STATE_PUT_MESSAGE_QUEUE_TIMEOUT\000"
 1890      455F5055 
 1890      545F4D45 
 1890      53534147 
 1890      455F5155 
 1891              	.LASF33:
 1892 006d 64656C61 		.ascii	"delay_heap_position\000"
 1892      795F6865 
 1892      61705F70 
 1892      6F736974 
 1892      696F6E00 
 1893              	.LASF37:
 1894 0081 74696D65 		.ascii	"timeslice_hope_time\000"
 1894      736C6963 
 1894      655F686F 
 1894      70655F74 
 1894      696D6500 
 1895              	.LASF27:
 1896 0095 73746163 		.ascii	"stack\000"
 1896      6B00
 1897              	.LASF55:
 1898 009b 7461736B 		.ascii	"task_init\000"
 1898      5F696E69 
 1898      7400
 1899              	.LASF49:
 1900 00a5 5443425F 		.ascii	"TCB_ptr\000"
 1900      70747200 
 1901              	.LASF24:
 1902 00ad 66756E63 		.ascii	"functionptr\000"
 1902      74696F6E 
 1902      70747200 
 1903              	.LASF38:
 1904 00b9 74696D65 		.ascii	"timeslice_rest_time\000"
 1904      736C6963 
 1904      655F7265 
 1904      73745F74 
 1904      696D6500 
 1905              	.LASF61:
 1906 00cd 64656C65 		.ascii	"delete_myself\000"
 1906      74655F6D 
 1906      7973656C 
 1906      6600
 1907              	.LASF16:
 1908 00db 53544154 		.ascii	"STATE_WAIT_MESSAGE_QUEUE_FOREVER\000"
 1908      455F5741 
 1908      49545F4D 
ARM GAS  G:\Users\Jaxb\AppData\Local\Temp\ccATe0C6.s 			page 40


 1908      45535341 
 1908      47455F51 
 1909              	.LASF11:
 1910 00fc 53544154 		.ascii	"STATE_READY\000"
 1910      455F5245 
 1910      41445900 
 1911              	.LASF31:
 1912 0108 72657365 		.ascii	"reserve_prio\000"
 1912      7276655F 
 1912      7072696F 
 1912      00
 1913              	.LASF43:
 1914 0115 4350555F 		.ascii	"CPU_SR\000"
 1914      535200
 1915              	.LASF3:
 1916 011c 756E7369 		.ascii	"unsigned char\000"
 1916      676E6564 
 1916      20636861 
 1916      7200
 1917              	.LASF7:
 1918 012a 55494E54 		.ascii	"UINT64\000"
 1918      363400
 1919              	.LASF4:
 1920 0131 73686F72 		.ascii	"short unsigned int\000"
 1920      7420756E 
 1920      7369676E 
 1920      65642069 
 1920      6E7400
 1921              	.LASF17:
 1922 0144 53544154 		.ascii	"STATE_WAIT_MESSAGE_QUEUE_TIMEOUT\000"
 1922      455F5741 
 1922      49545F4D 
 1922      45535341 
 1922      47455F51 
 1923              	.LASF29:
 1924 0165 73746163 		.ascii	"stack_end\000"
 1924      6B5F656E 
 1924      6400
 1925              	.LASF14:
 1926 016f 53544154 		.ascii	"STATE_WAIT_MCB_FOREVER\000"
 1926      455F5741 
 1926      49545F4D 
 1926      43425F46 
 1926      4F524556 
 1927              	.LASF51:
 1928 0186 7461736B 		.ascii	"task_creat\000"
 1928      5F637265 
 1928      617400
 1929              	.LASF35:
 1930 0191 73757370 		.ascii	"suspend_list\000"
 1930      656E645F 
 1930      6C697374 
 1930      00
 1931              	.LASF21:
 1932 019e 5441534B 		.ascii	"TASK_STATE\000"
 1932      5F535441 
 1932      544500
ARM GAS  G:\Users\Jaxb\AppData\Local\Temp\ccATe0C6.s 			page 41


 1933              	.LASF5:
 1934 01a9 756E7369 		.ascii	"unsigned int\000"
 1934      676E6564 
 1934      20696E74 
 1934      00
 1935              	.LASF26:
 1936 01b6 7461736B 		.ascii	"task_control_block_struct\000"
 1936      5F636F6E 
 1936      74726F6C 
 1936      5F626C6F 
 1936      636B5F73 
 1937              	.LASF54:
 1938 01d0 73746174 		.ascii	"state\000"
 1938      6500
 1939              	.LASF8:
 1940 01d6 6C6F6E67 		.ascii	"long long unsigned int\000"
 1940      206C6F6E 
 1940      6720756E 
 1940      7369676E 
 1940      65642069 
 1941              	.LASF34:
 1942 01ed 73616D65 		.ascii	"same_prio_list\000"
 1942      5F707269 
 1942      6F5F6C69 
 1942      737400
 1943              	.LASF60:
 1944 01fc 5461736B 		.ascii	"Task_State\000"
 1944      5F537461 
 1944      746500
 1945              	.LASF20:
 1946 0207 53544154 		.ascii	"STATE_WAIT_MUTEX_FOREVER\000"
 1946      455F5741 
 1946      49545F4D 
 1946      55544558 
 1946      5F464F52 
 1947              	.LASF52:
 1948 0220 66756E63 		.ascii	"function\000"
 1948      74696F6E 
 1948      00
 1949              	.LASF22:
 1950 0229 53544143 		.ascii	"STACK_TYPE\000"
 1950      4B5F5459 
 1950      504500
 1951              	.LASF25:
 1952 0234 6C697374 		.ascii	"list_head\000"
 1952      5F686561 
 1952      6400
 1953              	.LASF58:
 1954 023e 2E2E2F2E 		.ascii	"../../source/src/kernel/OS_CORE/TCB.c\000"
 1954      2E2F736F 
 1954      75726365 
 1954      2F737263 
 1954      2F6B6572 
 1955              	.LASF2:
 1956 0264 6C6F6E67 		.ascii	"long long int\000"
 1956      206C6F6E 
 1956      6720696E 
ARM GAS  G:\Users\Jaxb\AppData\Local\Temp\ccATe0C6.s 			page 42


 1956      7400
 1957              	.LASF28:
 1958 0272 73746163 		.ascii	"stack_size\000"
 1958      6B5F7369 
 1958      7A6500
 1959              	.LASF62:
 1960 027d 494E4954 		.ascii	"INIT_LIST_HEAD\000"
 1960      5F4C4953 
 1960      545F4845 
 1960      414400
 1961              	.LASF36:
 1962 028c 6E616D65 		.ascii	"name\000"
 1962      00
 1963              	.LASF39:
 1964 0291 61747472 		.ascii	"attribution\000"
 1964      69627574 
 1964      696F6E00 
 1965              	.LASF6:
 1966 029d 55494E54 		.ascii	"UINT32\000"
 1966      333200
 1967              	.LASF42:
 1968 02a4 4350555F 		.ascii	"CPU_INT32U\000"
 1968      494E5433 
 1968      325500
 1969              	.LASF53:
 1970 02af 70617261 		.ascii	"para\000"
 1970      00
 1971              	.LASF1:
 1972 02b4 73686F72 		.ascii	"short int\000"
 1972      7420696E 
 1972      7400
 1973              	.LASF46:
 1974 02be 4F535443 		.ascii	"OSTCBHighRdyPtr\000"
 1974      42486967 
 1974      68526479 
 1974      50747200 
 1975              	.LASF45:
 1976 02ce 4F535443 		.ascii	"OSTCBCurPtr\000"
 1976      42437572 
 1976      50747200 
 1977              	.LASF57:
 1978 02da 474E5520 		.ascii	"GNU C11 7.3.1 20180622 (release) [ARM/embedded-7-br"
 1978      43313120 
 1978      372E332E 
 1978      31203230 
 1978      31383036 
 1979 030d 616E6368 		.ascii	"anch revision 261907] -mcpu=cortex-m3 -mthumb -mapc"
 1979      20726576 
 1979      6973696F 
 1979      6E203236 
 1979      31393037 
 1980 0340 732D6672 		.ascii	"s-frame -mthumb-interwork -mcpu=cortex-m3 -mthumb -"
 1980      616D6520 
 1980      2D6D7468 
 1980      756D622D 
 1980      696E7465 
 1981 0373 67647761 		.ascii	"gdwarf-2 -O0\000"
ARM GAS  G:\Users\Jaxb\AppData\Local\Temp\ccATe0C6.s 			page 43


 1981      72662D32 
 1981      202D4F30 
 1981      00
 1982              	.LASF41:
 1983 0380 63686172 		.ascii	"char\000"
 1983      00
 1984              	.LASF15:
 1985 0385 53544154 		.ascii	"STATE_WAIT_MCB_TIMEOUT\000"
 1985      455F5741 
 1985      49545F4D 
 1985      43425F54 
 1985      494D454F 
 1986              	.LASF0:
 1987 039c 7369676E 		.ascii	"signed char\000"
 1987      65642063 
 1987      68617200 
 1988              	.LASF18:
 1989 03a8 53544154 		.ascii	"STATE_PUT_MESSAGE_QUEUE_FOREVER\000"
 1989      455F5055 
 1989      545F4D45 
 1989      53534147 
 1989      455F5155 
 1990              	.LASF13:
 1991 03c8 53544154 		.ascii	"STATE_SUSPEND_NORMAL\000"
 1991      455F5355 
 1991      5350454E 
 1991      445F4E4F 
 1991      524D414C 
 1992              	.LASF47:
 1993 03dd 7461736B 		.ascii	"task_delete\000"
 1993      5F64656C 
 1993      65746500 
 1994              	.LASF44:
 1995 03e9 675F696E 		.ascii	"g_interrupt_count\000"
 1995      74657272 
 1995      7570745F 
 1995      636F756E 
 1995      7400
 1996              	.LASF40:
 1997 03fb 64656C61 		.ascii	"delay_reach_time\000"
 1997      795F7265 
 1997      6163685F 
 1997      74696D65 
 1997      00
 1998              	.LASF10:
 1999 040c 70726576 		.ascii	"prev\000"
 1999      00
 2000              	.LASF59:
 2001 0411 463A5C6B 		.ascii	"F:\\kaka\\KAKAOS\\C\\windows\\Project\\RVMDK\243\250"
 2001      616B615C 
 2001      4B414B41 
 2001      4F535C43 
 2001      5C77696E 
 2002 0439 757635A3 		.ascii	"uv5\243\251\000"
 2002      A900
 2003              		.ident	"GCC: (GNU Tools for Arm Embedded Processors 7-2018-q2-update) 7.3.1 20180622 (release) [AR
ARM GAS  G:\Users\Jaxb\AppData\Local\Temp\ccATe0C6.s 			page 44


DEFINED SYMBOLS
                            *ABS*:00000000 TCB.c
G:\Users\Jaxb\AppData\Local\Temp\ccATe0C6.s:15     .text:00000000 $t
G:\Users\Jaxb\AppData\Local\Temp\ccATe0C6.s:21     .text:00000000 INIT_LIST_HEAD
                            *COM*:00000004 OSTCBCurPtr
                            *COM*:00000004 OSTCBHighRdyPtr
G:\Users\Jaxb\AppData\Local\Temp\ccATe0C6.s:72     .bss:00000000 g_interrupt_count
G:\Users\Jaxb\AppData\Local\Temp\ccATe0C6.s:69     .bss:00000000 $d
G:\Users\Jaxb\AppData\Local\Temp\ccATe0C6.s:81     .text:0000001e delete_myself
G:\Users\Jaxb\AppData\Local\Temp\ccATe0C6.s:637    .text:000002c4 task_delete
G:\Users\Jaxb\AppData\Local\Temp\ccATe0C6.s:107    .text:00000030 $d
G:\Users\Jaxb\AppData\Local\Temp\ccATe0C6.s:112    .rodata:00000000 $d
G:\Users\Jaxb\AppData\Local\Temp\ccATe0C6.s:128    .text:00000034 $t
G:\Users\Jaxb\AppData\Local\Temp\ccATe0C6.s:135    .text:00000034 task_init
G:\Users\Jaxb\AppData\Local\Temp\ccATe0C6.s:336    .text:00000168 $d
G:\Users\Jaxb\AppData\Local\Temp\ccATe0C6.s:354    .text:0000017c $t
G:\Users\Jaxb\AppData\Local\Temp\ccATe0C6.s:361    .text:0000017c task_creat
G:\Users\Jaxb\AppData\Local\Temp\ccATe0C6.s:476    .text:00000214 $d
G:\Users\Jaxb\AppData\Local\Temp\ccATe0C6.s:492    .text:00000220 $t
G:\Users\Jaxb\AppData\Local\Temp\ccATe0C6.s:499    .text:00000220 task_change_prio
G:\Users\Jaxb\AppData\Local\Temp\ccATe0C6.s:618    .text:000002b8 $d
G:\Users\Jaxb\AppData\Local\Temp\ccATe0C6.s:630    .text:000002c4 $t
G:\Users\Jaxb\AppData\Local\Temp\ccATe0C6.s:747    .text:00000358 $d

UNDEFINED SYMBOLS
_ASSERT
ka_printf
ka_malloc
ka_memset
set_register
register_in_TCB_list
ka_free
CPU_SR_Save
delete_from_TCB_list
delete_TCB_from_ready
insert_ready_TCB
CPU_SR_Restore
schedule
remove_from_suspend_list
remove_from_delay_heap
