ARM GAS  G:\Users\Jaxb\AppData\Local\Temp\ccQ8TpyX.s 			page 1


   1              		.cpu cortex-m3
   2              		.eabi_attribute 20, 1
   3              		.eabi_attribute 21, 1
   4              		.eabi_attribute 23, 3
   5              		.eabi_attribute 24, 1
   6              		.eabi_attribute 25, 1
   7              		.eabi_attribute 26, 1
   8              		.eabi_attribute 30, 2
   9              		.eabi_attribute 34, 1
  10              		.eabi_attribute 18, 4
  11              		.file	"user.c"
  12              		.text
  13              	.Ltext0:
  14              		.cfi_sections	.debug_frame
  15              		.align	1
  16              		.p2align 2,,3
  17              		.global	three
  18              		.syntax unified
  19              		.thumb
  20              		.thumb_func
  21              		.fpu softvfp
  22              		.type	three, %function
  23              	three:
  24              	.LFB16:
  25              		.file 1 "../../source/main/user.c"
   1:../../source/main/user.c **** #include "user.h"
   2:../../source/main/user.c **** #include "osinit.h"
   3:../../source/main/user.c **** #include <os_delay.h>
   4:../../source/main/user.c **** 
   5:../../source/main/user.c **** 
   6:../../source/main/user.c **** extern volatile TCB *OSTCBCurPtr;
   7:../../source/main/user.c **** extern volatile TCB *OSTCBHighRdyPtr;
   8:../../source/main/user.c **** 
   9:../../source/main/user.c **** #if 0
  10:../../source/main/user.c **** void three(void *para)
  11:../../source/main/user.c **** {
  12:../../source/main/user.c **** 	ka_printf("go into task three\n");
  13:../../source/main/user.c **** 	ka_printf("get out of task three\n");
  14:../../source/main/user.c **** }
  15:../../source/main/user.c **** void four(void *para)
  16:../../source/main/user.c **** {
  17:../../source/main/user.c **** 	while(1)
  18:../../source/main/user.c **** 	{
  19:../../source/main/user.c **** 		ka_printf("four\n");
  20:../../source/main/user.c **** 		suspend();
  21:../../source/main/user.c **** 	}
  22:../../source/main/user.c **** }
  23:../../source/main/user.c **** 
  24:../../source/main/user.c **** void five(void *para)
  25:../../source/main/user.c **** {
  26:../../source/main/user.c **** int i,j;
  27:../../source/main/user.c **** 	while(1)
  28:../../source/main/user.c **** 	{
  29:../../source/main/user.c **** 			//ka_printf("55\n");
  30:../../source/main/user.c **** 		for(i=0;i<5000;++i)
  31:../../source/main/user.c **** 		{
  32:../../source/main/user.c **** 			for(j=0;j<1000;++j)
ARM GAS  G:\Users\Jaxb\AppData\Local\Temp\ccQ8TpyX.s 			page 2


  33:../../source/main/user.c **** 			{
  34:../../source/main/user.c **** 				;
  35:../../source/main/user.c **** 			}
  36:../../source/main/user.c **** 		}
  37:../../source/main/user.c **** 	}
  38:../../source/main/user.c **** }
  39:../../source/main/user.c **** 
  40:../../source/main/user.c **** void six(void *para)
  41:../../source/main/user.c **** {
  42:../../source/main/user.c **** int i,j;
  43:../../source/main/user.c **** 	while(1)
  44:../../source/main/user.c **** 	{
  45:../../source/main/user.c **** 			ka_printf("six\n");
  46:../../source/main/user.c **** 		for(i=0;i<5000;++i)
  47:../../source/main/user.c **** 		{
  48:../../source/main/user.c **** 			for(j=0;j<1000;++j)
  49:../../source/main/user.c **** 			{
  50:../../source/main/user.c **** 				;
  51:../../source/main/user.c **** 			}
  52:../../source/main/user.c **** 		}
  53:../../source/main/user.c **** 		
  54:../../source/main/user.c **** 	}
  55:../../source/main/user.c **** }
  56:../../source/main/user.c **** #endif
  57:../../source/main/user.c **** 
  58:../../source/main/user.c **** #if 0
  59:../../source/main/user.c **** static void ka(void *para)
  60:../../source/main/user.c **** {
  61:../../source/main/user.c **** 	ka_printf("task three timer test\n");
  62:../../source/main/user.c **** }
  63:../../source/main/user.c **** struct timer kaka;
  64:../../source/main/user.c **** void three(void *para)
  65:../../source/main/user.c **** {
  66:../../source/main/user.c **** 	
  67:../../source/main/user.c **** 	if(timer_init(&kaka,TIMER_PERIODIC,"test",ka,NULL,15,10) < 0)
  68:../../source/main/user.c **** 	{
  69:../../source/main/user.c **** 		ka_printf("fatal error\n");
  70:../../source/main/user.c **** 	}
  71:../../source/main/user.c **** 	if(timer_enable(&kaka) < 0)
  72:../../source/main/user.c **** 	{
  73:../../source/main/user.c **** 		ka_printf("fatal error\n");
  74:../../source/main/user.c **** 	}
  75:../../source/main/user.c **** 	suspend();
  76:../../source/main/user.c **** 	while(1)
  77:../../source/main/user.c **** 	{
  78:../../source/main/user.c **** 
  79:../../source/main/user.c **** 	}
  80:../../source/main/user.c **** }
  81:../../source/main/user.c **** void four(void *para)
  82:../../source/main/user.c **** {
  83:../../source/main/user.c **** 	while(1)
  84:../../source/main/user.c **** 	{
  85:../../source/main/user.c **** 		ka_printf("four\n");
  86:../../source/main/user.c **** 		sleep(HZ);
  87:../../source/main/user.c **** 	}
  88:../../source/main/user.c **** }
  89:../../source/main/user.c **** #endif
ARM GAS  G:\Users\Jaxb\AppData\Local\Temp\ccQ8TpyX.s 			page 3


  90:../../source/main/user.c **** 
  91:../../source/main/user.c **** #if 0 //test timer
  92:../../source/main/user.c **** static void ka(void *para)
  93:../../source/main/user.c **** {
  94:../../source/main/user.c **** 	ka_printf("task three timer test ka\n");
  95:../../source/main/user.c **** }
  96:../../source/main/user.c **** 
  97:../../source/main/user.c **** static void kb(void *para)
  98:../../source/main/user.c **** {
  99:../../source/main/user.c **** 	ka_printf("task three timer test kb\n");
 100:../../source/main/user.c **** }
 101:../../source/main/user.c **** struct timer timer1;
 102:../../source/main/user.c **** struct timer timer0;
 103:../../source/main/user.c **** void three(void *para)
 104:../../source/main/user.c **** {
 105:../../source/main/user.c **** 	timer_init(&timer0, TIMER_ONE_TIME, "T1", ka, 0, 15, 8);
 106:../../source/main/user.c **** 	timer_enable(&timer0);
 107:../../source/main/user.c **** 	suspend();
 108:../../source/main/user.c **** }
 109:../../source/main/user.c **** 
 110:../../source/main/user.c **** void four(void *para)
 111:../../source/main/user.c **** {
 112:../../source/main/user.c **** 	timer_init(&timer1, TIMER_TIME, "T2", kb, 0, 20, 8);
 113:../../source/main/user.c **** 	timer_enable(&timer1);
 114:../../source/main/user.c **** 	suspend();
 115:../../source/main/user.c **** }
 116:../../source/main/user.c **** 
 117:../../source/main/user.c **** #endif
 118:../../source/main/user.c **** 
 119:../../source/main/user.c **** #if 0
 120:../../source/main/user.c **** void three(void *para)
 121:../../source/main/user.c **** {
 122:../../source/main/user.c **** 	int i = 5;
 123:../../source/main/user.c **** 	int ia = 7;
 124:../../source/main/user.c **** 	double kaka = 6.66;
 125:../../source/main/user.c **** 	shell_insert_variable_INT("i",&i);
 126:../../source/main/user.c **** 	shell_insert_variable_INT("ia",&ia);
 127:../../source/main/user.c **** 	shell_insert_variable_FLOAT("kaka",&kaka);
 128:../../source/main/user.c **** 	ka_printf("address of i is %x\n",&i);
 129:../../source/main/user.c **** 	ka_printf("address of ia is %x\n",&ia);
 130:../../source/main/user.c **** 	ka_printf("address of kaka is %x\n",&kaka);
 131:../../source/main/user.c **** 	ka_printf("i is %d\n",i);
 132:../../source/main/user.c **** 	ka_printf("ia is %d\n",ia);
 133:../../source/main/user.c **** 	ka_printf("kaka is %f\n",kaka);
 134:../../source/main/user.c **** 	INSERT_BREAK_POINT();
 135:../../source/main/user.c **** 	ka_printf("i is %d\n",i);
 136:../../source/main/user.c **** 	ka_printf("ia is %d\n",ia);
 137:../../source/main/user.c **** 	ka_printf("kaka is %f\n",kaka);
 138:../../source/main/user.c **** 	INSERT_BREAK_POINT();
 139:../../source/main/user.c **** 	ka_printf("i is %d\n",i);
 140:../../source/main/user.c **** 	ka_printf("ia is %d\n",ia);
 141:../../source/main/user.c **** 	ka_printf("kaka is %f\n",kaka);
 142:../../source/main/user.c **** 	while(1)
 143:../../source/main/user.c **** 	{
 144:../../source/main/user.c **** 		ka_printf("three\n");	
 145:../../source/main/user.c **** 		sleep(10);	
 146:../../source/main/user.c **** 	}	
ARM GAS  G:\Users\Jaxb\AppData\Local\Temp\ccQ8TpyX.s 			page 4


 147:../../source/main/user.c **** }
 148:../../source/main/user.c **** #endif
 149:../../source/main/user.c **** 
 150:../../source/main/user.c **** #if 0
 151:../../source/main/user.c **** void six(void *para)
 152:../../source/main/user.c **** {
 153:../../source/main/user.c **** 	
 154:../../source/main/user.c **** }
 155:../../source/main/user.c **** void five(void *para)
 156:../../source/main/user.c **** {
 157:../../source/main/user.c **** 	while(1)
 158:../../source/main/user.c **** 	{
 159:../../source/main/user.c **** 		ka_printf("five\n");	
 160:../../source/main/user.c **** 		sleep(20);	
 161:../../source/main/user.c **** 	}	
 162:../../source/main/user.c **** }
 163:../../source/main/user.c **** void four(void *para)
 164:../../source/main/user.c **** {
 165:../../source/main/user.c **** 	while(1)
 166:../../source/main/user.c **** 	{
 167:../../source/main/user.c **** 		ka_printf("four\n");	
 168:../../source/main/user.c **** 		sleep(30);	
 169:../../source/main/user.c **** 	}	
 170:../../source/main/user.c **** }
 171:../../source/main/user.c **** void three(void *para)
 172:../../source/main/user.c **** {
 173:../../source/main/user.c **** 		void *ptr[64];
 174:../../source/main/user.c **** int i;
 175:../../source/main/user.c **** 	for(i=0;i<64;++i)
 176:../../source/main/user.c **** 	{
 177:../../source/main/user.c **** 		ptr[i] = KA_MALLOC(sizeof(int));
 178:../../source/main/user.c **** 		ka_printf("%d get ptr address is %x \n",i,(int)ptr[i]);
 179:../../source/main/user.c **** 		ka_printf("value %d is %x\n",i,*(int *)ptr[i]);
 180:../../source/main/user.c **** 		*(int *)ptr[i] = 66;
 181:../../source/main/user.c **** 	}
 182:../../source/main/user.c **** 	
 183:../../source/main/user.c **** 	void *kaka = KA_MALLOC(48);
 184:../../source/main/user.c **** 	ka_printf("ptr--kaka get ptr address is %x \n",(int)kaka);
 185:../../source/main/user.c **** 	
 186:../../source/main/user.c **** 	//sleep(300);
 187:../../source/main/user.c **** 	
 188:../../source/main/user.c **** 	ka_free(kaka);
 189:../../source/main/user.c **** 	ka_printf("free complete\n");
 190:../../source/main/user.c **** 	ka_free(ptr[24]);
 191:../../source/main/user.c **** 	ka_printf("free complete\n");
 192:../../source/main/user.c **** 	
 193:../../source/main/user.c **** 	ka_free(ptr[31]);
 194:../../source/main/user.c **** 	ka_printf("free complete\n");
 195:../../source/main/user.c **** 	ka_free(ptr[7]);
 196:../../source/main/user.c **** 	
 197:../../source/main/user.c **** 	ka_free(ptr[62]);
 198:../../source/main/user.c **** 	
 199:../../source/main/user.c **** 	ka_printf("free complete\n");
 200:../../source/main/user.c **** 	
 201:../../source/main/user.c **** 	kaka = KA_MALLOC(120);
 202:../../source/main/user.c **** 	ka_printf("ptr--kaka get ptr address is %x \n",(int)kaka);
 203:../../source/main/user.c **** 	
ARM GAS  G:\Users\Jaxb\AppData\Local\Temp\ccQ8TpyX.s 			page 5


 204:../../source/main/user.c **** 	//sleep(300);
 205:../../source/main/user.c **** 	
 206:../../source/main/user.c **** 	ka_free(kaka);
 207:../../source/main/user.c **** 	ka_printf("free kaka complete\n");
 208:../../source/main/user.c **** 	
 209:../../source/main/user.c **** 	while(1)
 210:../../source/main/user.c **** 	{
 211:../../source/main/user.c **** 	}	
 212:../../source/main/user.c **** }
 213:../../source/main/user.c **** #endif
 214:../../source/main/user.c **** 
 215:../../source/main/user.c **** #if 0 // test int sleep(unsigned int)
 216:../../source/main/user.c **** void three(void *para)
 217:../../source/main/user.c **** {
 218:../../source/main/user.c **** 	TCB *TCB_ptr4,*TCB_ptr5;
 219:../../source/main/user.c **** 	if(0 != task_creat_ready(256,5,5,"five",five,NULL,&TCB_ptr5))
 220:../../source/main/user.c **** 	{
 221:../../source/main/user.c **** 		ka_printf("os_init_fail...stop booting...\n");
 222:../../source/main/user.c **** 		while(1);
 223:../../source/main/user.c **** 	}
 224:../../source/main/user.c **** 	if(0 != task_creat_ready(256,5,5,"four",four,NULL,&TCB_ptr4))
 225:../../source/main/user.c **** 	{
 226:../../source/main/user.c **** 		ka_printf("os_init_fail...stop booting...\n");
 227:../../source/main/user.c **** 		while(1);
 228:../../source/main/user.c **** 	}
 229:../../source/main/user.c **** 	int ret = sleep(30);
 230:../../source/main/user.c **** 	ka_printf("task three ret is %d\n",ret);
 231:../../source/main/user.c **** 	if(0 != remove_from_delay_heap(TCB_ptr5))
 232:../../source/main/user.c **** 	{
 233:../../source/main/user.c **** 		ka_printf("fatal error\n");
 234:../../source/main/user.c **** 	}
 235:../../source/main/user.c **** 	if(0 != remove_from_delay_heap(TCB_ptr4))
 236:../../source/main/user.c **** 	{
 237:../../source/main/user.c **** 		ka_printf("fatal error\n");
 238:../../source/main/user.c **** 	}
 239:../../source/main/user.c **** 	suspend();
 240:../../source/main/user.c **** 	while(1);
 241:../../source/main/user.c **** }
 242:../../source/main/user.c **** 
 243:../../source/main/user.c **** void five(void *para)
 244:../../source/main/user.c **** {
 245:../../source/main/user.c **** 	int ret = sleep(58);
 246:../../source/main/user.c **** 	ka_printf("task five ret is %d\n",ret);
 247:../../source/main/user.c **** 	suspend();
 248:../../source/main/user.c **** 	while(1);
 249:../../source/main/user.c **** }
 250:../../source/main/user.c **** void four(void *para)
 251:../../source/main/user.c **** {
 252:../../source/main/user.c **** 	int ret = sleep(40);
 253:../../source/main/user.c **** 	ka_printf("task four ret is %d\n",ret);
 254:../../source/main/user.c **** 	suspend();
 255:../../source/main/user.c **** 	while(1);
 256:../../source/main/user.c **** }
 257:../../source/main/user.c **** #endif
 258:../../source/main/user.c **** 
 259:../../source/main/user.c **** #if 0 // test message queue
 260:../../source/main/user.c **** MQB MQB_test;
ARM GAS  G:\Users\Jaxb\AppData\Local\Temp\ccQ8TpyX.s 			page 6


 261:../../source/main/user.c **** 
 262:../../source/main/user.c **** void three(void *para)
 263:../../source/main/user.c **** {
 264:../../source/main/user.c **** 	int i;
 265:../../source/main/user.c **** 	msg_init(&MQB_test,"test",3);
 266:../../source/main/user.c **** 	struct message array[10];
 267:../../source/main/user.c **** 	array[9].tick = 1;
 268:../../source/main/user.c **** //	for(i=0;i<4;++i)
 269:../../source/main/user.c **** //	{
 270:../../source/main/user.c **** //		if(0 != message_init(array+i,4,(void *)i))
 271:../../source/main/user.c **** //		{
 272:../../source/main/user.c **** //			ka_printf("message_init error\n");
 273:../../source/main/user.c **** //		}
 274:../../source/main/user.c **** //	}
 275:../../source/main/user.c **** //	for(i=0;i<3;++i)
 276:../../source/main/user.c **** //	{
 277:../../source/main/user.c **** //		if(0 != msg_send(&MQB_test,array+i,MSG_FLAG_NON_BLOCKING,456))
 278:../../source/main/user.c **** //		{
 279:../../source/main/user.c **** //			ka_printf("msg_send error\n");
 280:../../source/main/user.c **** //		}
 281:../../source/main/user.c **** //	}
 282:../../source/main/user.c **** //	if(0 != msg_send(&MQB_test,array+i,MSG_FLAG_WAIT,20))
 283:../../source/main/user.c **** //	{
 284:../../source/main/user.c **** //		ka_printf("msg_send error\n");
 285:../../source/main/user.c **** //	}
 286:../../source/main/user.c **** 	ka_printf("complete\n");
 287:../../source/main/user.c **** 	suspend();
 288:../../source/main/user.c **** 	while(1);
 289:../../source/main/user.c **** }
 290:../../source/main/user.c **** 	
 291:../../source/main/user.c **** 
 292:../../source/main/user.c **** void four(void *para)
 293:../../source/main/user.c **** {
 294:../../source/main/user.c **** 	struct message *message_ptr;
 295:../../source/main/user.c **** 	while(1)
 296:../../source/main/user.c **** 	{
 297:../../source/main/user.c **** 		if(0 != msg_receive(&MQB_test,&message_ptr,MSG_FLAG_WAIT,0))
 298:../../source/main/user.c **** 		{
 299:../../source/main/user.c **** 			ka_printf("msg_send error\n");
 300:../../source/main/user.c **** 		}
 301:../../source/main/user.c **** 		else
 302:../../source/main/user.c **** 		{
 303:../../source/main/user.c **** 			ka_printf("task four get a message\n");
 304:../../source/main/user.c **** 			ka_printf("size is %u\n",message_ptr->message_size);
 305:../../source/main/user.c **** 			ka_printf("data is %u\n",(unsigned int)(message_ptr->message_data_ptr));
 306:../../source/main/user.c **** 			ka_printf("tick is %l\n",message_ptr->tick);
 307:../../source/main/user.c **** 			ka_printf("=====================================");
 308:../../source/main/user.c **** 		}
 309:../../source/main/user.c **** 	}
 310:../../source/main/user.c **** }
 311:../../source/main/user.c **** #endif
 312:../../source/main/user.c **** 
 313:../../source/main/user.c **** 
 314:../../source/main/user.c **** #if 0 //test mutex
 315:../../source/main/user.c **** MUTEX kaka;
 316:../../source/main/user.c **** 
 317:../../source/main/user.c **** void three(void *para)
ARM GAS  G:\Users\Jaxb\AppData\Local\Temp\ccQ8TpyX.s 			page 7


 318:../../source/main/user.c **** {
 319:../../source/main/user.c **** 	sleep(10*HZ);
 320:../../source/main/user.c **** 	mutex_lock(&kaka);
 321:../../source/main/user.c **** 	ka_printf("task three success to lock mutex\n");
 322:../../source/main/user.c **** 	ka_printf("now task three prio is %u\n",OSTCBCurPtr->prio);
 323:../../source/main/user.c **** 	ka_printf("release lock\n");
 324:../../source/main/user.c **** 	int ret = mutex_unlock(&kaka);
 325:../../source/main/user.c **** 	ka_printf("task three unlock ret is %d\n",ret);
 326:../../source/main/user.c **** 	ka_printf("now task three prio is %u\n",OSTCBCurPtr->prio);
 327:../../source/main/user.c **** }
 328:../../source/main/user.c **** 
 329:../../source/main/user.c **** void four(void *para)
 330:../../source/main/user.c **** {
 331:../../source/main/user.c **** 	sleep(5*HZ);
 332:../../source/main/user.c **** 	mutex_lock(&kaka);
 333:../../source/main/user.c **** 	ka_printf("task four success to lock mutex\n");
 334:../../source/main/user.c **** 	ka_printf("now task four prio is %u\n",OSTCBCurPtr->prio);
 335:../../source/main/user.c **** 	ka_printf("release lock\n");
 336:../../source/main/user.c **** 	int ret = mutex_unlock(&kaka);
 337:../../source/main/user.c **** 	ka_printf("task four unlock ret is %d\n",ret);
 338:../../source/main/user.c **** 	ka_printf("now task four prio is %u\n",OSTCBCurPtr->prio);
 339:../../source/main/user.c **** }
 340:../../source/main/user.c **** 
 341:../../source/main/user.c **** void five(void *para)
 342:../../source/main/user.c **** {
 343:../../source/main/user.c **** 	mutex_init(&kaka);
 344:../../source/main/user.c **** 	int ret = mutex_lock(&kaka);
 345:../../source/main/user.c **** 	if(0 > ret)
 346:../../source/main/user.c **** 	{
 347:../../source/main/user.c **** 		ka_printf("lock fail\n");
 348:../../source/main/user.c **** 	}
 349:../../source/main/user.c **** 	else
 350:../../source/main/user.c **** 	{
 351:../../source/main/user.c **** 		ka_printf("task five success to lock mutex\n");
 352:../../source/main/user.c **** 	}
 353:../../source/main/user.c **** 	sleep(7*HZ);
 354:../../source/main/user.c **** 	ka_printf("now task five prio is %u\n",OSTCBCurPtr->prio);
 355:../../source/main/user.c **** 	sleep(5*HZ);
 356:../../source/main/user.c **** 	ka_printf("now task five prio is %u\n",OSTCBCurPtr->prio);
 357:../../source/main/user.c **** 	ret = mutex_unlock(&kaka);
 358:../../source/main/user.c **** 	ka_printf("task five unlock ret is %d\n",ret);
 359:../../source/main/user.c **** 	ka_printf("now task five prio is %u\n",OSTCBCurPtr->prio);
 360:../../source/main/user.c **** }
 361:../../source/main/user.c **** 
 362:../../source/main/user.c **** #endif
 363:../../source/main/user.c **** #if 0 //test delay_ms
 364:../../source/main/user.c **** #include "bsp_led.h"  
 365:../../source/main/user.c **** void three(void *para)
 366:../../source/main/user.c **** {
 367:../../source/main/user.c **** 	LED_GPIO_Config();
 368:../../source/main/user.c **** 
 369:../../source/main/user.c **** 	LED1_OFF;
 370:../../source/main/user.c **** 	delay_ms(10);
 371:../../source/main/user.c **** 	LED1_ON;
 372:../../source/main/user.c **** 
 373:../../source/main/user.c **** }
 374:../../source/main/user.c **** #endif
ARM GAS  G:\Users\Jaxb\AppData\Local\Temp\ccQ8TpyX.s 			page 8


 375:../../source/main/user.c **** 
 376:../../source/main/user.c **** #if 0 //test context switch's time
 377:../../source/main/user.c **** #include "bsp_led.h"
 378:../../source/main/user.c **** void three(void *para)
 379:../../source/main/user.c **** {
 380:../../source/main/user.c **** 	LED_GPIO_Config();
 381:../../source/main/user.c **** 	LED1_OFF;
 382:../../source/main/user.c **** 	sleep(100);
 383:../../source/main/user.c **** 	//suspend();
 384:../../source/main/user.c **** 	while(1);
 385:../../source/main/user.c **** }
 386:../../source/main/user.c **** 
 387:../../source/main/user.c **** void four(void *para)
 388:../../source/main/user.c **** {
 389:../../source/main/user.c **** 	LED1_ON;
 390:../../source/main/user.c **** 	while(1);
 391:../../source/main/user.c **** }
 392:../../source/main/user.c **** //void five(void *para)
 393:../../source/main/user.c **** //{
 394:../../source/main/user.c **** //	while(1);
 395:../../source/main/user.c **** //}
 396:../../source/main/user.c **** //void six(void *para)
 397:../../source/main/user.c **** //{
 398:../../source/main/user.c **** //	while(1);
 399:../../source/main/user.c **** //}
 400:../../source/main/user.c **** #endif
 401:../../source/main/user.c **** 
 402:../../source/main/user.c **** #if 0 //test new memory management
 403:../../source/main/user.c **** 
 404:../../source/main/user.c **** void three(void *para)
 405:../../source/main/user.c **** {
 406:../../source/main/user.c **** 	void *ptr[31];
 407:../../source/main/user.c **** 	int i;
 408:../../source/main/user.c **** 	get_os_buddy_ptr_head();
 409:../../source/main/user.c **** 	ka_printf("%p\n",alloc_power2_page());
 410:../../source/main/user.c **** 	ka_printf("%p\n",alloc_power3_page());
 411:../../source/main/user.c **** 	ka_printf("%p\n",alloc_power4_page());
 412:../../source/main/user.c **** 	ka_printf("%p\n",alloc_power6_page());
 413:../../source/main/user.c **** 	while(1)
 414:../../source/main/user.c **** 	{
 415:../../source/main/user.c **** 		for(i=0;i<31;++i)
 416:../../source/main/user.c **** 		{
 417:../../source/main/user.c **** 			ptr[i] = ka_malloc(500);
 418:../../source/main/user.c **** 			ka_printf("ptr[%d] is %p\n",i,ptr[i]);
 419:../../source/main/user.c **** 		}
 420:../../source/main/user.c **** 		sleep(200 * HZ);
 421:../../source/main/user.c **** 		for(i=0;i<31;++i)
 422:../../source/main/user.c **** 		{
 423:../../source/main/user.c **** 			ka_free(ptr[i]);
 424:../../source/main/user.c **** 		}
 425:../../source/main/user.c **** 		ka_printf("free complete\n");
 426:../../source/main/user.c **** 		sleep(500 * HZ);
 427:../../source/main/user.c **** 	}
 428:../../source/main/user.c **** }
 429:../../source/main/user.c **** 
 430:../../source/main/user.c **** #endif
 431:../../source/main/user.c **** 
ARM GAS  G:\Users\Jaxb\AppData\Local\Temp\ccQ8TpyX.s 			page 9


 432:../../source/main/user.c **** #if 0 //test delete_MCB()
 433:../../source/main/user.c **** 
 434:../../source/main/user.c **** MCB kaka;
 435:../../source/main/user.c **** 
 436:../../source/main/user.c **** void three(void *para)
 437:../../source/main/user.c **** {
 438:../../source/main/user.c **** 	init_MCB(&kaka,0);
 439:../../source/main/user.c **** 	ka_printf("task three going to p()\n");
 440:../../source/main/user.c **** 	int ret = p(&kaka,MCB_FLAG_WAIT,0);
 441:../../source/main/user.c **** 	ka_printf("task three ret is %d\n",ret);
 442:../../source/main/user.c **** }
 443:../../source/main/user.c **** 
 444:../../source/main/user.c **** void four(void *para)
 445:../../source/main/user.c **** {
 446:../../source/main/user.c **** 	ka_printf("task four going to p()\n");
 447:../../source/main/user.c **** 	int ret = p(&kaka,MCB_FLAG_WAIT,0);
 448:../../source/main/user.c **** 	ka_printf("task four ret is %d\n",ret);
 449:../../source/main/user.c **** }
 450:../../source/main/user.c **** 
 451:../../source/main/user.c **** void five(void *para)
 452:../../source/main/user.c **** {
 453:../../source/main/user.c **** 	ka_printf("task five going to delete_MCB()\n");
 454:../../source/main/user.c **** 	delete_MCB(&kaka);
 455:../../source/main/user.c **** 	ka_printf("delete completed\n");
 456:../../source/main/user.c **** }
 457:../../source/main/user.c **** 
 458:../../source/main/user.c **** #endif
 459:../../source/main/user.c **** 
 460:../../source/main/user.c **** #if 0 //test msg_del()
 461:../../source/main/user.c **** 
 462:../../source/main/user.c **** MQB kaka;
 463:../../source/main/user.c **** 
 464:../../source/main/user.c **** void three(void *para)
 465:../../source/main/user.c **** {
 466:../../source/main/user.c **** 	struct message *a;
 467:../../source/main/user.c **** 	msg_init(&kaka,"kaka",8);
 468:../../source/main/user.c **** 	ka_printf("task three going to msg_receive()\n");
 469:../../source/main/user.c **** 	int ret = msg_receive(&kaka,&a,MSG_FLAG_WAIT,0);
 470:../../source/main/user.c **** 	ka_printf("task three ret is %d\n",ret);
 471:../../source/main/user.c **** }
 472:../../source/main/user.c **** 
 473:../../source/main/user.c **** void four(void *para)
 474:../../source/main/user.c **** {
 475:../../source/main/user.c **** 	struct message *a;
 476:../../source/main/user.c **** 	ka_printf("task four going to msg_receive()\n");
 477:../../source/main/user.c **** 	int ret = msg_receive(&kaka,&a,MSG_FLAG_WAIT,0);
 478:../../source/main/user.c **** 	ka_printf("task four ret is %d\n",ret);
 479:../../source/main/user.c **** }
 480:../../source/main/user.c **** 
 481:../../source/main/user.c **** void five(void *para)
 482:../../source/main/user.c **** {
 483:../../source/main/user.c **** 	ka_printf("task five going to msg_del()\n");
 484:../../source/main/user.c **** 	msg_del(&kaka);
 485:../../source/main/user.c **** 	ka_printf("delete completed\n");
 486:../../source/main/user.c **** }
 487:../../source/main/user.c **** 
 488:../../source/main/user.c **** #endif
ARM GAS  G:\Users\Jaxb\AppData\Local\Temp\ccQ8TpyX.s 			page 10


 489:../../source/main/user.c **** 
 490:../../source/main/user.c **** #if 0 //test mutex_del()
 491:../../source/main/user.c **** 
 492:../../source/main/user.c **** MUTEX kaka;
 493:../../source/main/user.c **** 
 494:../../source/main/user.c **** void three(void *para)
 495:../../source/main/user.c **** {
 496:../../source/main/user.c **** 	mutex_init(&kaka);
 497:../../source/main/user.c **** 	sleep(5*HZ);
 498:../../source/main/user.c **** 	ka_printf("task three going to mutex_lock()\n");
 499:../../source/main/user.c **** 	int ret = mutex_lock(&kaka);
 500:../../source/main/user.c **** 	ka_printf("task three ret is %d\n",ret);
 501:../../source/main/user.c **** }
 502:../../source/main/user.c **** 
 503:../../source/main/user.c **** void four(void *para)
 504:../../source/main/user.c **** {
 505:../../source/main/user.c **** 	sleep(5*HZ);
 506:../../source/main/user.c **** 	ka_printf("task four going to mutex_lock()\n");
 507:../../source/main/user.c **** 	int ret = mutex_lock(&kaka);
 508:../../source/main/user.c **** 	ka_printf("task four ret is %d\n",ret);
 509:../../source/main/user.c **** }
 510:../../source/main/user.c **** 
 511:../../source/main/user.c **** void five(void *para)
 512:../../source/main/user.c **** {
 513:../../source/main/user.c **** 	ka_printf("task five going to mutex_lock()\n");
 514:../../source/main/user.c **** 	mutex_lock(&kaka);
 515:../../source/main/user.c **** 	sleep(10*HZ);
 516:../../source/main/user.c **** 	ka_printf("task five going to mutex_del()\n");
 517:../../source/main/user.c **** 	mutex_del(&kaka);
 518:../../source/main/user.c **** 	ka_printf("delete completed\n");
 519:../../source/main/user.c **** }
 520:../../source/main/user.c **** 
 521:../../source/main/user.c **** #endif
 522:../../source/main/user.c **** 
 523:../../source/main/user.c **** #if 0 //test MCB
 524:../../source/main/user.c **** 
 525:../../source/main/user.c **** MCB kaka;
 526:../../source/main/user.c **** 
 527:../../source/main/user.c **** void three(void *para)
 528:../../source/main/user.c **** {
 529:../../source/main/user.c **** 	init_MCB_binary(&kaka,0);
 530:../../source/main/user.c **** //	ka_printf("task three p()\n");
 531:../../source/main/user.c **** //	p(&kaka,MCB_FLAG_WAIT,0);
 532:../../source/main/user.c **** //	ka_printf("task three p()\n");
 533:../../source/main/user.c **** //	p(&kaka,MCB_FLAG_WAIT,0);
 534:../../source/main/user.c **** //	ka_printf("task three sleep()\n");
 535:../../source/main/user.c **** //	sleep(50);
 536:../../source/main/user.c **** 	ka_printf("task three v()\n");
 537:../../source/main/user.c **** 	v(&kaka);
 538:../../source/main/user.c **** 	ka_printf("task three v()\n");
 539:../../source/main/user.c **** 	v(&kaka);
 540:../../source/main/user.c **** }
 541:../../source/main/user.c **** 
 542:../../source/main/user.c **** void four(void *para)
 543:../../source/main/user.c **** {
 544:../../source/main/user.c **** //	ka_printf("task four p()\n");
 545:../../source/main/user.c **** //	p(&kaka,MCB_FLAG_WAIT,0);
ARM GAS  G:\Users\Jaxb\AppData\Local\Temp\ccQ8TpyX.s 			page 11


 546:../../source/main/user.c **** 	ka_printf("task four p()\n");
 547:../../source/main/user.c **** 	p(&kaka,MCB_FLAG_WAIT,0);
 548:../../source/main/user.c **** 	ka_printf("task four sleep()\n");
 549:../../source/main/user.c **** 	sleep(50);
 550:../../source/main/user.c **** 	ka_printf("task four v()\n");
 551:../../source/main/user.c **** 	v(&kaka);
 552:../../source/main/user.c **** 	ka_printf("task four v()\n");
 553:../../source/main/user.c **** 	v(&kaka);
 554:../../source/main/user.c **** }
 555:../../source/main/user.c **** 
 556:../../source/main/user.c **** void five(void *para)
 557:../../source/main/user.c **** {
 558:../../source/main/user.c **** //	ka_printf("task five p()\n");
 559:../../source/main/user.c **** //	p(&kaka,MCB_FLAG_WAIT,0);
 560:../../source/main/user.c **** 	ka_printf("task five p()\n");
 561:../../source/main/user.c **** 	p(&kaka,MCB_FLAG_WAIT,0);
 562:../../source/main/user.c **** 	ka_printf("task five sleep()\n");
 563:../../source/main/user.c **** 	sleep(50);
 564:../../source/main/user.c **** 	ka_printf("task five v()\n");
 565:../../source/main/user.c **** 	v(&kaka);
 566:../../source/main/user.c **** 	ka_printf("task five v()\n");
 567:../../source/main/user.c **** 	v(&kaka);
 568:../../source/main/user.c **** }
 569:../../source/main/user.c **** 
 570:../../source/main/user.c **** #endif
 571:../../source/main/user.c **** 
 572:../../source/main/user.c **** #if 1//test malloc
 573:../../source/main/user.c **** void three(void *para)
 574:../../source/main/user.c **** {
  26              		.loc 1 574 0
  27              		.cfi_startproc
  28              		@ args = 0, pretend = 0, frame = 40
  29              		@ frame_needed = 0, uses_anonymous_args = 0
  30              	.LVL0:
  31 0000 F0B5     		push	{r4, r5, r6, r7, lr}
  32              	.LCFI0:
  33              		.cfi_def_cfa_offset 20
  34              		.cfi_offset 4, -20
  35              		.cfi_offset 5, -16
  36              		.cfi_offset 6, -12
  37              		.cfi_offset 7, -8
  38              		.cfi_offset 14, -4
  39 0002 8BB0     		sub	sp, sp, #44
  40              	.LCFI1:
  41              		.cfi_def_cfa_offset 64
  42 0004 6D46     		mov	r5, sp
 575:../../source/main/user.c **** 	void *ptr[10];
 576:../../source/main/user.c **** 	unsigned int i;
 577:../../source/main/user.c **** 	ka_printf("going to task three\n");
  43              		.loc 1 577 0
  44 0006 1D48     		ldr	r0, .L7
  45              	.LVL1:
  46 0008 FFF7FEFF 		bl	ka_printf
  47              	.LVL2:
  48 000c 2E46     		mov	r6, r5
 578:../../source/main/user.c **** 	for(i=0;i<10;++i)
  49              		.loc 1 578 0
ARM GAS  G:\Users\Jaxb\AppData\Local\Temp\ccQ8TpyX.s 			page 12


  50 000e 0024     		movs	r4, #0
 579:../../source/main/user.c **** 	{
 580:../../source/main/user.c **** 		ptr[i] = ka_malloc(700);
 581:../../source/main/user.c **** 		ka_printf("i is %u,address is %p\n",i,ptr[i]);
  51              		.loc 1 581 0
  52 0010 1B4F     		ldr	r7, .L7+4
  53              	.LVL3:
  54              	.L2:
 580:../../source/main/user.c **** 		ka_printf("i is %u,address is %p\n",i,ptr[i]);
  55              		.loc 1 580 0 discriminator 3
  56 0012 4FF42F70 		mov	r0, #700
  57 0016 FFF7FEFF 		bl	ka_malloc
  58              	.LVL4:
  59 001a 0346     		mov	r3, r0
  60              		.loc 1 581 0 discriminator 3
  61 001c 2146     		mov	r1, r4
  62 001e 0246     		mov	r2, r0
 578:../../source/main/user.c **** 	for(i=0;i<10;++i)
  63              		.loc 1 578 0 discriminator 3
  64 0020 0134     		adds	r4, r4, #1
  65              	.LVL5:
  66              		.loc 1 581 0 discriminator 3
  67 0022 3846     		mov	r0, r7
 580:../../source/main/user.c **** 		ka_printf("i is %u,address is %p\n",i,ptr[i]);
  68              		.loc 1 580 0 discriminator 3
  69 0024 46F8043B 		str	r3, [r6], #4
  70              		.loc 1 581 0 discriminator 3
  71 0028 FFF7FEFF 		bl	ka_printf
  72              	.LVL6:
 578:../../source/main/user.c **** 	for(i=0;i<10;++i)
  73              		.loc 1 578 0 discriminator 3
  74 002c 0A2C     		cmp	r4, #10
  75 002e F0D1     		bne	.L2
 582:../../source/main/user.c **** 	}
 583:../../source/main/user.c **** 	INSERT_BREAK_POINT();
  76              		.loc 1 583 0
  77 0030 144A     		ldr	r2, .L7+8
  78 0032 40F24721 		movw	r1, #583
  79 0036 1448     		ldr	r0, .L7+12
  80 0038 FFF7FEFF 		bl	insert_break_point
  81              	.LVL7:
 584:../../source/main/user.c **** 	ka_printf("release address\n");
  82              		.loc 1 584 0
  83 003c 1348     		ldr	r0, .L7+16
  84 003e FFF7FEFF 		bl	ka_printf
  85              	.LVL8:
 585:../../source/main/user.c **** 	for(i=0;i<10;++i)
 586:../../source/main/user.c **** 	{
 587:../../source/main/user.c **** 		ka_free(ptr[i]);
 588:../../source/main/user.c **** 		INSERT_BREAK_POINT();
  86              		.loc 1 588 0
  87 0042 104F     		ldr	r7, .L7+8
  88 0044 104E     		ldr	r6, .L7+12
  89 0046 05F12804 		add	r4, r5, #40
  90              	.LVL9:
  91              	.L3:
 587:../../source/main/user.c **** 		INSERT_BREAK_POINT();
ARM GAS  G:\Users\Jaxb\AppData\Local\Temp\ccQ8TpyX.s 			page 13


  92              		.loc 1 587 0 discriminator 3
  93 004a 55F8040B 		ldr	r0, [r5], #4
  94 004e FFF7FEFF 		bl	ka_free
  95              	.LVL10:
  96              		.loc 1 588 0 discriminator 3
  97 0052 3A46     		mov	r2, r7
  98 0054 4FF41371 		mov	r1, #588
  99 0058 3046     		mov	r0, r6
 100 005a FFF7FEFF 		bl	insert_break_point
 101              	.LVL11:
 585:../../source/main/user.c **** 	for(i=0;i<10;++i)
 102              		.loc 1 585 0 discriminator 3
 103 005e AC42     		cmp	r4, r5
 104 0060 F3D1     		bne	.L3
 589:../../source/main/user.c **** 	}
 590:../../source/main/user.c **** 	INSERT_BREAK_POINT();
 105              		.loc 1 590 0
 106 0062 084A     		ldr	r2, .L7+8
 107 0064 40F24E21 		movw	r1, #590
 108 0068 0748     		ldr	r0, .L7+12
 109 006a FFF7FEFF 		bl	insert_break_point
 110              	.LVL12:
 591:../../source/main/user.c **** 	ka_printf("end\n");
 111              		.loc 1 591 0
 112 006e 0848     		ldr	r0, .L7+20
 592:../../source/main/user.c **** }
 113              		.loc 1 592 0
 114 0070 0BB0     		add	sp, sp, #44
 115              	.LCFI2:
 116              		.cfi_def_cfa_offset 20
 117              		@ sp needed
 118 0072 BDE8F040 		pop	{r4, r5, r6, r7, lr}
 119              	.LCFI3:
 120              		.cfi_restore 14
 121              		.cfi_restore 7
 122              		.cfi_restore 6
 123              		.cfi_restore 5
 124              		.cfi_restore 4
 125              		.cfi_def_cfa_offset 0
 591:../../source/main/user.c **** 	ka_printf("end\n");
 126              		.loc 1 591 0
 127 0076 FFF7FEBF 		b	ka_printf
 128              	.LVL13:
 129              	.L8:
 130 007a 00BF     		.align	2
 131              	.L7:
 132 007c 00000000 		.word	.LC0
 133 0080 18000000 		.word	.LC1
 134 0084 00000000 		.word	.LANCHOR0
 135 0088 30000000 		.word	.LC2
 136 008c 4C000000 		.word	.LC3
 137 0090 60000000 		.word	.LC4
 138              		.cfi_endproc
 139              	.LFE16:
 140              		.size	three, .-three
 141              		.section	.rodata
 142              		.align	2
ARM GAS  G:\Users\Jaxb\AppData\Local\Temp\ccQ8TpyX.s 			page 14


 143              		.set	.LANCHOR0,. + 0
 144              		.type	__FUNCTION__.4748, %object
 145              		.size	__FUNCTION__.4748, 6
 146              	__FUNCTION__.4748:
 147 0000 74687265 		.ascii	"three\000"
 147      6500
 148              		.section	.rodata.str1.4,"aMS",%progbits,1
 149              		.align	2
 150              	.LC0:
 151 0000 676F696E 		.ascii	"going to task three\012\000"
 151      6720746F 
 151      20746173 
 151      6B207468 
 151      7265650A 
 152 0015 000000   		.space	3
 153              	.LC1:
 154 0018 69206973 		.ascii	"i is %u,address is %p\012\000"
 154      2025752C 
 154      61646472 
 154      65737320 
 154      69732025 
 155 002f 00       		.space	1
 156              	.LC2:
 157 0030 2E2E2F2E 		.ascii	"../../source/main/user.c\000"
 157      2E2F736F 
 157      75726365 
 157      2F6D6169 
 157      6E2F7573 
 158 0049 000000   		.space	3
 159              	.LC3:
 160 004c 72656C65 		.ascii	"release address\012\000"
 160      61736520 
 160      61646472 
 160      6573730A 
 160      00
 161 005d 000000   		.space	3
 162              	.LC4:
 163 0060 656E640A 		.ascii	"end\012\000"
 163      00
 164              		.text
 165              	.Letext0:
 166              		.file 2 "../../source/include/os_cpu/kakaosstdint.h"
 167              		.file 3 "../../source/include/os_lib/double_linked_list.h"
 168              		.file 4 "../../source/include/os_core/task_state.h"
 169              		.file 5 "../../source/include/os_core/TCB.h"
 170              		.file 6 "../../source/include/os_lib/myMicroLIB.h"
 171              		.file 7 "../../source/include/shell/shell_debug.h"