ARM GAS  G:\Users\Jaxb\AppData\Local\Temp\ccbjwyeW.s 			page 1


   1              		.cpu cortex-m3
   2              		.eabi_attribute 20, 1
   3              		.eabi_attribute 21, 1
   4              		.eabi_attribute 23, 3
   5              		.eabi_attribute 24, 1
   6              		.eabi_attribute 25, 1
   7              		.eabi_attribute 26, 1
   8              		.eabi_attribute 30, 2
   9              		.eabi_attribute 34, 1
  10              		.eabi_attribute 18, 4
  11              		.file	"vector.c"
  12              		.text
  13              	.Ltext0:
  14              		.cfi_sections	.debug_frame
  15              		.align	1
  16              		.p2align 2,,3
  17              		.global	Vector_init
  18              		.syntax unified
  19              		.thumb
  20              		.thumb_func
  21              		.fpu softvfp
  22              		.type	Vector_init, %function
  23              	Vector_init:
  24              	.LFB2:
  25              		.file 1 "../../source/src/user/OS_LIB/vector.c"
   1:../../source/src/user/OS_LIB/vector.c **** #include <vector.h>
   2:../../source/src/user/OS_LIB/vector.c **** #include <os_error.h>
   3:../../source/src/user/OS_LIB/vector.c **** #include <myMicroLIB.h>
   4:../../source/src/user/OS_LIB/vector.c **** #include <myassert.h>
   5:../../source/src/user/OS_LIB/vector.c **** #include <kakaosstdint.h>
   6:../../source/src/user/OS_LIB/vector.c **** 
   7:../../source/src/user/OS_LIB/vector.c **** /*
   8:../../source/src/user/OS_LIB/vector.c **** initilize the Vector entity with vector_ptr->max_len = size,vector_ptr->cur_len = 0,
   9:../../source/src/user/OS_LIB/vector.c **** vector_ptr->data_size = len_per_data; then use malloc() to allocate room 
  10:../../source/src/user/OS_LIB/vector.c ****  */
  11:../../source/src/user/OS_LIB/vector.c **** int Vector_init(Vector *vector_ptr,unsigned int size,int len_per_data,unsigned int extension_factor
  12:../../source/src/user/OS_LIB/vector.c **** {
  26              		.loc 1 12 0
  27              		.cfi_startproc
  28              		@ args = 0, pretend = 0, frame = 8
  29              		@ frame_needed = 0, uses_anonymous_args = 0
  30              	.LVL0:
  31 0000 30B5     		push	{r4, r5, lr}
  32              	.LCFI0:
  33              		.cfi_def_cfa_offset 12
  34              		.cfi_offset 4, -12
  35              		.cfi_offset 5, -8
  36              		.cfi_offset 14, -4
  13:../../source/src/user/OS_LIB/vector.c **** 	ASSERT(NULL != vector_ptr);
  37              		.loc 1 13 0
  38 0002 0446     		mov	r4, r0
  12:../../source/src/user/OS_LIB/vector.c **** 	ASSERT(NULL != vector_ptr);
  39              		.loc 1 12 0
  40 0004 83B0     		sub	sp, sp, #12
  41              	.LCFI1:
  42              		.cfi_def_cfa_offset 24
  43              		.loc 1 13 0
ARM GAS  G:\Users\Jaxb\AppData\Local\Temp\ccbjwyeW.s 			page 2


  44 0006 88B1     		cbz	r0, .L10
  14:../../source/src/user/OS_LIB/vector.c **** 	ASSERT(len_per_data > 0);
  45              		.loc 1 14 0
  46 0008 002A     		cmp	r2, #0
  47 000a 22DD     		ble	.L11
  15:../../source/src/user/OS_LIB/vector.c **** #if CONFIG_PARA_CHECK
  16:../../source/src/user/OS_LIB/vector.c **** 	if(NULL == vector_ptr)
  17:../../source/src/user/OS_LIB/vector.c **** 	{
  18:../../source/src/user/OS_LIB/vector.c **** 		OS_ERROR_PARA_MESSAGE_DISPLAY(Vector_init,vector_ptr);
  19:../../source/src/user/OS_LIB/vector.c **** 		return -ERROR_NULL_INPUT_PTR;
  20:../../source/src/user/OS_LIB/vector.c **** 	}
  21:../../source/src/user/OS_LIB/vector.c **** 	if(len_per_data <= 0)
  22:../../source/src/user/OS_LIB/vector.c **** 	{
  23:../../source/src/user/OS_LIB/vector.c **** 		OS_ERROR_PARA_MESSAGE_DISPLAY(Vector_init,len_per_data);
  24:../../source/src/user/OS_LIB/vector.c **** 		return -ERROR_VALUELESS_INPUT;
  25:../../source/src/user/OS_LIB/vector.c **** 	}
  26:../../source/src/user/OS_LIB/vector.c **** #endif
  27:../../source/src/user/OS_LIB/vector.c **** 	vector_ptr->max_len = size;
  28:../../source/src/user/OS_LIB/vector.c **** 	vector_ptr->cur_len = 0;
  48              		.loc 1 28 0
  49 000c 0025     		movs	r5, #0
  29:../../source/src/user/OS_LIB/vector.c **** 	vector_ptr->data_size = len_per_data;
  30:../../source/src/user/OS_LIB/vector.c **** 	vector_ptr->extension_factor = extension_factor;
  50              		.loc 1 30 0
  51 000e C4E90323 		strd	r2, r3, [r4, #12]
  27:../../source/src/user/OS_LIB/vector.c **** 	vector_ptr->cur_len = 0;
  52              		.loc 1 27 0
  53 0012 6160     		str	r1, [r4, #4]
  31:../../source/src/user/OS_LIB/vector.c **** 	vector_ptr->data_ptr = f_malloc(vector_ptr->max_len * vector_ptr->data_size);
  54              		.loc 1 31 0
  55 0014 01FB02F0 		mul	r0, r1, r2
  56              	.LVL1:
  28:../../source/src/user/OS_LIB/vector.c **** 	vector_ptr->data_size = len_per_data;
  57              		.loc 1 28 0
  58 0018 A560     		str	r5, [r4, #8]
  59              		.loc 1 31 0
  60 001a FFF7FEFF 		bl	ka_malloc
  61              	.LVL2:
  32:../../source/src/user/OS_LIB/vector.c **** 	if(NULL == vector_ptr->data_ptr)
  62              		.loc 1 32 0
  63 001e B0FA80F3 		clz	r3, r0
  64 0022 5B09     		lsrs	r3, r3, #5
  31:../../source/src/user/OS_LIB/vector.c **** 	vector_ptr->data_ptr = f_malloc(vector_ptr->max_len * vector_ptr->data_size);
  65              		.loc 1 31 0
  66 0024 2060     		str	r0, [r4]
  67              		.loc 1 32 0
  68 0026 5842     		negs	r0, r3
  69              	.L1:
  33:../../source/src/user/OS_LIB/vector.c **** 	{
  34:../../source/src/user/OS_LIB/vector.c **** 		return -ERROR_ALLOCATE_ROOM;
  35:../../source/src/user/OS_LIB/vector.c **** 	}
  36:../../source/src/user/OS_LIB/vector.c **** 	return FUN_EXECUTE_SUCCESSFULLY;
  37:../../source/src/user/OS_LIB/vector.c **** }
  70              		.loc 1 37 0
  71 0028 03B0     		add	sp, sp, #12
  72              	.LCFI2:
  73              		.cfi_remember_state
ARM GAS  G:\Users\Jaxb\AppData\Local\Temp\ccbjwyeW.s 			page 3


  74              		.cfi_def_cfa_offset 12
  75              		@ sp needed
  76 002a 30BD     		pop	{r4, r5, pc}
  77              	.LVL3:
  78              	.L10:
  79              	.LCFI3:
  80              		.cfi_restore_state
  13:../../source/src/user/OS_LIB/vector.c **** 	ASSERT(len_per_data > 0);
  81              		.loc 1 13 0 discriminator 1
  82 002c 0D21     		movs	r1, #13
  83              	.LVL4:
  84 002e 0E48     		ldr	r0, .L12
  85              	.LVL5:
  86 0030 0192     		str	r2, [sp, #4]
  87 0032 FFF7FEFF 		bl	_ASSERT
  88              	.LVL6:
  14:../../source/src/user/OS_LIB/vector.c **** #if CONFIG_PARA_CHECK
  89              		.loc 1 14 0 discriminator 1
  90 0036 019A     		ldr	r2, [sp, #4]
  91 0038 002A     		cmp	r2, #0
  92 003a 03DC     		bgt	.L5
  93 003c 0E21     		movs	r1, #14
  94 003e 0A48     		ldr	r0, .L12
  95 0040 FFF7FEFF 		bl	_ASSERT
  96              	.LVL7:
  97              	.L5:
  18:../../source/src/user/OS_LIB/vector.c **** 		return -ERROR_NULL_INPUT_PTR;
  98              		.loc 1 18 0
  99 0044 0948     		ldr	r0, .L12+4
 100 0046 FFF7FEFF 		bl	ka_printf
 101              	.LVL8:
  19:../../source/src/user/OS_LIB/vector.c **** 	}
 102              		.loc 1 19 0
 103 004a 6FF0FE00 		mvn	r0, #254
 104              		.loc 1 37 0
 105 004e 03B0     		add	sp, sp, #12
 106              	.LCFI4:
 107              		.cfi_remember_state
 108              		.cfi_def_cfa_offset 12
 109              		@ sp needed
 110 0050 30BD     		pop	{r4, r5, pc}
 111              	.LVL9:
 112              	.L11:
 113              	.LCFI5:
 114              		.cfi_restore_state
  14:../../source/src/user/OS_LIB/vector.c **** #if CONFIG_PARA_CHECK
 115              		.loc 1 14 0
 116 0052 0E21     		movs	r1, #14
 117              	.LVL10:
 118 0054 0448     		ldr	r0, .L12
 119              	.LVL11:
 120 0056 FFF7FEFF 		bl	_ASSERT
 121              	.LVL12:
  23:../../source/src/user/OS_LIB/vector.c **** 		return -ERROR_VALUELESS_INPUT;
 122              		.loc 1 23 0
 123 005a 0548     		ldr	r0, .L12+8
 124 005c FFF7FEFF 		bl	ka_printf
ARM GAS  G:\Users\Jaxb\AppData\Local\Temp\ccbjwyeW.s 			page 4


 125              	.LVL13:
  24:../../source/src/user/OS_LIB/vector.c **** 	}
 126              		.loc 1 24 0
 127 0060 6FF0FD00 		mvn	r0, #253
 128 0064 E0E7     		b	.L1
 129              	.L13:
 130 0066 00BF     		.align	2
 131              	.L12:
 132 0068 00000000 		.word	.LC0
 133 006c 28000000 		.word	.LC1
 134 0070 60000000 		.word	.LC2
 135              		.cfi_endproc
 136              	.LFE2:
 137              		.size	Vector_init, .-Vector_init
 138              		.align	1
 139              		.p2align 2,,3
 140              		.global	Vector_push_back
 141              		.syntax unified
 142              		.thumb
 143              		.thumb_func
 144              		.fpu softvfp
 145              		.type	Vector_push_back, %function
 146              	Vector_push_back:
 147              	.LFB4:
  38:../../source/src/user/OS_LIB/vector.c **** 
  39:../../source/src/user/OS_LIB/vector.c **** /*
  40:../../source/src/user/OS_LIB/vector.c **** allocate a bigger room for vector with factor extension_factor
  41:../../source/src/user/OS_LIB/vector.c **** then change the attribution max_len
  42:../../source/src/user/OS_LIB/vector.c ****  */
  43:../../source/src/user/OS_LIB/vector.c **** static int expand_room(Vector *vector_ptr)
  44:../../source/src/user/OS_LIB/vector.c **** {
  45:../../source/src/user/OS_LIB/vector.c **** 	ASSERT(NULL != vector_ptr);
  46:../../source/src/user/OS_LIB/vector.c **** 	ASSERT(vector_ptr->cur_len == vector_ptr->max_len);
  47:../../source/src/user/OS_LIB/vector.c **** 
  48:../../source/src/user/OS_LIB/vector.c **** 	void *buffer_ptr = vector_ptr->data_ptr;
  49:../../source/src/user/OS_LIB/vector.c **** 	if(VFISMUL(vector_ptr->extension_factor))
  50:../../source/src/user/OS_LIB/vector.c **** 	{
  51:../../source/src/user/OS_LIB/vector.c **** 		vector_ptr->data_ptr = f_malloc(GET_EXPENSION_FACTOR(vector_ptr->extension_factor) * vector_ptr->
  52:../../source/src/user/OS_LIB/vector.c **** 	}
  53:../../source/src/user/OS_LIB/vector.c **** 	else
  54:../../source/src/user/OS_LIB/vector.c **** 	{
  55:../../source/src/user/OS_LIB/vector.c **** 		vector_ptr->data_ptr = f_malloc((GET_EXPENSION_FACTOR(vector_ptr->extension_factor) + vector_ptr-
  56:../../source/src/user/OS_LIB/vector.c **** 	}
  57:../../source/src/user/OS_LIB/vector.c **** 	ASSERT(NULL != vector_ptr->data_ptr);
  58:../../source/src/user/OS_LIB/vector.c **** 	if(NULL == vector_ptr->data_ptr)
  59:../../source/src/user/OS_LIB/vector.c **** 	{
  60:../../source/src/user/OS_LIB/vector.c **** 		return -ERROR_ALLOCATE_ROOM;
  61:../../source/src/user/OS_LIB/vector.c **** 	}
  62:../../source/src/user/OS_LIB/vector.c **** 	f_memcpy(vector_ptr->data_ptr,buffer_ptr,vector_ptr->max_len * vector_ptr->data_size);
  63:../../source/src/user/OS_LIB/vector.c **** 	if(VFISMUL(vector_ptr->extension_factor))
  64:../../source/src/user/OS_LIB/vector.c **** 	{
  65:../../source/src/user/OS_LIB/vector.c **** 		vector_ptr->max_len *= GET_EXPENSION_FACTOR(vector_ptr->extension_factor);
  66:../../source/src/user/OS_LIB/vector.c **** 	}
  67:../../source/src/user/OS_LIB/vector.c **** 	else
  68:../../source/src/user/OS_LIB/vector.c **** 	{
  69:../../source/src/user/OS_LIB/vector.c **** 		vector_ptr->max_len += GET_EXPENSION_FACTOR(vector_ptr->extension_factor);
  70:../../source/src/user/OS_LIB/vector.c **** 	}
ARM GAS  G:\Users\Jaxb\AppData\Local\Temp\ccbjwyeW.s 			page 5


  71:../../source/src/user/OS_LIB/vector.c **** 	
  72:../../source/src/user/OS_LIB/vector.c **** 	f_free(buffer_ptr);
  73:../../source/src/user/OS_LIB/vector.c **** 	return FUN_EXECUTE_SUCCESSFULLY;
  74:../../source/src/user/OS_LIB/vector.c **** }
  75:../../source/src/user/OS_LIB/vector.c **** 
  76:../../source/src/user/OS_LIB/vector.c **** /*
  77:../../source/src/user/OS_LIB/vector.c **** add a data at tail
  78:../../source/src/user/OS_LIB/vector.c ****  */
  79:../../source/src/user/OS_LIB/vector.c **** int Vector_push_back(Vector *vector_ptr,void *push_data_ptr)
  80:../../source/src/user/OS_LIB/vector.c **** {
 148              		.loc 1 80 0
 149              		.cfi_startproc
 150              		@ args = 0, pretend = 0, frame = 0
 151              		@ frame_needed = 0, uses_anonymous_args = 0
 152              	.LVL14:
 153 0074 70B5     		push	{r4, r5, r6, lr}
 154              	.LCFI6:
 155              		.cfi_def_cfa_offset 16
 156              		.cfi_offset 4, -16
 157              		.cfi_offset 5, -12
 158              		.cfi_offset 6, -8
 159              		.cfi_offset 14, -4
 160              		.loc 1 80 0
 161 0076 0D46     		mov	r5, r1
  81:../../source/src/user/OS_LIB/vector.c **** 	ASSERT(NULL != vector_ptr);
 162              		.loc 1 81 0
 163 0078 0446     		mov	r4, r0
 164 007a 0028     		cmp	r0, #0
 165 007c 47D0     		beq	.L29
  82:../../source/src/user/OS_LIB/vector.c **** 	ASSERT(NULL != push_data_ptr);
 166              		.loc 1 82 0
 167 007e 0029     		cmp	r1, #0
 168 0080 4AD0     		beq	.L26
  83:../../source/src/user/OS_LIB/vector.c **** #if CONFIG_PARA_CHECK
  84:../../source/src/user/OS_LIB/vector.c **** 	if((NULL == vector_ptr) || (NULL == push_data_ptr))
  85:../../source/src/user/OS_LIB/vector.c **** 	{
  86:../../source/src/user/OS_LIB/vector.c **** 		OS_ERROR_PARA_MESSAGE_DISPLAY(Vector_push_back,vector_ptr);
  87:../../source/src/user/OS_LIB/vector.c **** 		OS_ERROR_PARA_MESSAGE_DISPLAY(Vector_push_back,push_data_ptr);
  88:../../source/src/user/OS_LIB/vector.c **** 		return -ERROR_NULL_INPUT_PTR;
  89:../../source/src/user/OS_LIB/vector.c **** 	}
  90:../../source/src/user/OS_LIB/vector.c **** #endif
  91:../../source/src/user/OS_LIB/vector.c **** 	if(vector_ptr->cur_len < vector_ptr->max_len)
 169              		.loc 1 91 0
 170 0082 D4E90130 		ldrd	r3, r0, [r4, #4]
 171              	.LVL15:
 172 0086 9842     		cmp	r0, r3
 173 0088 3ED3     		bcc	.L30
  92:../../source/src/user/OS_LIB/vector.c **** 	{
  93:../../source/src/user/OS_LIB/vector.c **** 		f_memcpy((char*)(vector_ptr->data_ptr) + vector_ptr->cur_len * vector_ptr->data_size,push_data_pt
  94:../../source/src/user/OS_LIB/vector.c **** 		++(vector_ptr->cur_len);
  95:../../source/src/user/OS_LIB/vector.c **** 	}
  96:../../source/src/user/OS_LIB/vector.c **** 	else
  97:../../source/src/user/OS_LIB/vector.c **** 	{
  98:../../source/src/user/OS_LIB/vector.c **** 		ASSERT(vector_ptr->cur_len == vector_ptr->max_len);
 174              		.loc 1 98 0
 175 008a 2FD1     		bne	.L31
 176              	.LVL16:
ARM GAS  G:\Users\Jaxb\AppData\Local\Temp\ccbjwyeW.s 			page 6


 177              	.L19:
 178              	.LBB4:
 179              	.LBB5:
  49:../../source/src/user/OS_LIB/vector.c **** 	{
 180              		.loc 1 49 0
 181 008c 2269     		ldr	r2, [r4, #16]
 182 008e E068     		ldr	r0, [r4, #12]
 183 0090 002A     		cmp	r2, #0
  51:../../source/src/user/OS_LIB/vector.c **** 	}
 184              		.loc 1 51 0
 185 0092 BABF     		itte	lt
 186 0094 22F00042 		biclt	r2, r2, #-2147483648
 187 0098 5043     		mullt	r0, r0, r2
  55:../../source/src/user/OS_LIB/vector.c **** 	}
 188              		.loc 1 55 0
 189 009a 9B18     		addge	r3, r3, r2
 190 009c 00FB03F0 		mul	r0, r0, r3
  48:../../source/src/user/OS_LIB/vector.c **** 	if(VFISMUL(vector_ptr->extension_factor))
 191              		.loc 1 48 0
 192 00a0 2668     		ldr	r6, [r4]
 193              	.LVL17:
  55:../../source/src/user/OS_LIB/vector.c **** 	}
 194              		.loc 1 55 0
 195 00a2 FFF7FEFF 		bl	ka_malloc
 196              	.LVL18:
 197 00a6 2060     		str	r0, [r4]
  57:../../source/src/user/OS_LIB/vector.c **** 	if(NULL == vector_ptr->data_ptr)
 198              		.loc 1 57 0
 199 00a8 0028     		cmp	r0, #0
 200 00aa 42D0     		beq	.L32
 201              	.L22:
  62:../../source/src/user/OS_LIB/vector.c **** 	if(VFISMUL(vector_ptr->extension_factor))
 202              		.loc 1 62 0
 203 00ac 6368     		ldr	r3, [r4, #4]
 204 00ae E268     		ldr	r2, [r4, #12]
 205 00b0 3146     		mov	r1, r6
 206 00b2 02FB03F2 		mul	r2, r2, r3
 207 00b6 FFF7FEFF 		bl	ka_memcpy
 208              	.LVL19:
  63:../../source/src/user/OS_LIB/vector.c **** 	{
 209              		.loc 1 63 0
 210 00ba 2369     		ldr	r3, [r4, #16]
  65:../../source/src/user/OS_LIB/vector.c **** 	}
 211              		.loc 1 65 0
 212 00bc 6268     		ldr	r2, [r4, #4]
  63:../../source/src/user/OS_LIB/vector.c **** 	{
 213              		.loc 1 63 0
 214 00be 002B     		cmp	r3, #0
  65:../../source/src/user/OS_LIB/vector.c **** 	}
 215              		.loc 1 65 0
 216 00c0 BABF     		itte	lt
 217 00c2 23F00043 		biclt	r3, r3, #-2147483648
 218 00c6 5343     		mullt	r3, r3, r2
  69:../../source/src/user/OS_LIB/vector.c **** 	}
 219              		.loc 1 69 0
 220 00c8 9B18     		addge	r3, r3, r2
 221 00ca 6360     		str	r3, [r4, #4]
ARM GAS  G:\Users\Jaxb\AppData\Local\Temp\ccbjwyeW.s 			page 7


  72:../../source/src/user/OS_LIB/vector.c **** 	return FUN_EXECUTE_SUCCESSFULLY;
 222              		.loc 1 72 0
 223 00cc 3046     		mov	r0, r6
 224 00ce FFF7FEFF 		bl	ka_free
 225              	.LVL20:
 226              	.LBE5:
 227              	.LBE4:
  99:../../source/src/user/OS_LIB/vector.c **** 		if(expand_room(vector_ptr) < 0)
 100:../../source/src/user/OS_LIB/vector.c **** 		{
 101:../../source/src/user/OS_LIB/vector.c **** 			return -ERROR_ALLOCATE_ROOM;
 102:../../source/src/user/OS_LIB/vector.c **** 		}
 103:../../source/src/user/OS_LIB/vector.c **** 		f_memcpy((char*)(vector_ptr->data_ptr) + vector_ptr->cur_len * vector_ptr->data_size,push_data_pt
 228              		.loc 1 103 0
 229 00d2 D4E90202 		ldrd	r0, r2, [r4, #8]
 230 00d6 2946     		mov	r1, r5
 231 00d8 2368     		ldr	r3, [r4]
 232              	.LVL21:
 233              	.L28:
 234 00da 00FB0230 		mla	r0, r0, r2, r3
 235 00de FFF7FEFF 		bl	ka_memcpy
 236              	.LVL22:
 104:../../source/src/user/OS_LIB/vector.c **** 		++(vector_ptr->cur_len);
 237              		.loc 1 104 0
 238 00e2 A368     		ldr	r3, [r4, #8]
 105:../../source/src/user/OS_LIB/vector.c **** 	}
 106:../../source/src/user/OS_LIB/vector.c **** 	return FUN_EXECUTE_SUCCESSFULLY;
 239              		.loc 1 106 0
 240 00e4 0020     		movs	r0, #0
 104:../../source/src/user/OS_LIB/vector.c **** 		++(vector_ptr->cur_len);
 241              		.loc 1 104 0
 242 00e6 0133     		adds	r3, r3, #1
 243 00e8 A360     		str	r3, [r4, #8]
 107:../../source/src/user/OS_LIB/vector.c **** }
 244              		.loc 1 107 0
 245 00ea 70BD     		pop	{r4, r5, r6, pc}
 246              	.LVL23:
 247              	.L31:
  98:../../source/src/user/OS_LIB/vector.c **** 		if(expand_room(vector_ptr) < 0)
 248              		.loc 1 98 0 discriminator 1
 249 00ec 6221     		movs	r1, #98
 250              	.LVL24:
 251 00ee 1648     		ldr	r0, .L33
 252 00f0 FFF7FEFF 		bl	_ASSERT
 253              	.LVL25:
 254              	.LBB8:
 255              	.LBB6:
  46:../../source/src/user/OS_LIB/vector.c **** 
 256              		.loc 1 46 0 discriminator 1
 257 00f4 D4E90132 		ldrd	r3, r2, [r4, #4]
 258 00f8 9A42     		cmp	r2, r3
 259 00fa C7D0     		beq	.L19
  46:../../source/src/user/OS_LIB/vector.c **** 
 260              		.loc 1 46 0 is_stmt 0
 261 00fc 2E21     		movs	r1, #46
 262 00fe 1248     		ldr	r0, .L33
 263 0100 FFF7FEFF 		bl	_ASSERT
 264              	.LVL26:
ARM GAS  G:\Users\Jaxb\AppData\Local\Temp\ccbjwyeW.s 			page 8


 265 0104 6368     		ldr	r3, [r4, #4]
 266 0106 C1E7     		b	.L19
 267              	.LVL27:
 268              	.L30:
 269              	.LBE6:
 270              	.LBE8:
  93:../../source/src/user/OS_LIB/vector.c **** 		++(vector_ptr->cur_len);
 271              		.loc 1 93 0 is_stmt 1
 272 0108 E268     		ldr	r2, [r4, #12]
 273 010a 2368     		ldr	r3, [r4]
 274 010c E5E7     		b	.L28
 275              	.LVL28:
 276              	.L29:
  81:../../source/src/user/OS_LIB/vector.c **** 	ASSERT(NULL != push_data_ptr);
 277              		.loc 1 81 0 discriminator 1
 278 010e 5121     		movs	r1, #81
 279              	.LVL29:
 280 0110 0D48     		ldr	r0, .L33
 281              	.LVL30:
 282 0112 FFF7FEFF 		bl	_ASSERT
 283              	.LVL31:
  82:../../source/src/user/OS_LIB/vector.c **** #if CONFIG_PARA_CHECK
 284              		.loc 1 82 0 discriminator 1
 285 0116 1DB9     		cbnz	r5, .L16
 286              	.L26:
  82:../../source/src/user/OS_LIB/vector.c **** #if CONFIG_PARA_CHECK
 287              		.loc 1 82 0 is_stmt 0
 288 0118 5221     		movs	r1, #82
 289 011a 0B48     		ldr	r0, .L33
 290 011c FFF7FEFF 		bl	_ASSERT
 291              	.LVL32:
 292              	.L16:
  86:../../source/src/user/OS_LIB/vector.c **** 		OS_ERROR_PARA_MESSAGE_DISPLAY(Vector_push_back,push_data_ptr);
 293              		.loc 1 86 0 is_stmt 1
 294 0120 0A48     		ldr	r0, .L33+4
 295 0122 FFF7FEFF 		bl	ka_printf
 296              	.LVL33:
  87:../../source/src/user/OS_LIB/vector.c **** 		return -ERROR_NULL_INPUT_PTR;
 297              		.loc 1 87 0
 298 0126 0A48     		ldr	r0, .L33+8
 299 0128 FFF7FEFF 		bl	ka_printf
 300              	.LVL34:
  88:../../source/src/user/OS_LIB/vector.c **** 	}
 301              		.loc 1 88 0
 302 012c 6FF0FE00 		mvn	r0, #254
 303              		.loc 1 107 0
 304 0130 70BD     		pop	{r4, r5, r6, pc}
 305              	.LVL35:
 306              	.L32:
 307              	.LBB9:
 308              	.LBB7:
  57:../../source/src/user/OS_LIB/vector.c **** 	if(NULL == vector_ptr->data_ptr)
 309              		.loc 1 57 0
 310 0132 0548     		ldr	r0, .L33
 311 0134 3921     		movs	r1, #57
 312 0136 FFF7FEFF 		bl	_ASSERT
 313              	.LVL36:
ARM GAS  G:\Users\Jaxb\AppData\Local\Temp\ccbjwyeW.s 			page 9


  58:../../source/src/user/OS_LIB/vector.c **** 	{
 314              		.loc 1 58 0
 315 013a 2068     		ldr	r0, [r4]
 316 013c 0028     		cmp	r0, #0
 317 013e B5D1     		bne	.L22
 318              	.LBE7:
 319              	.LBE9:
 101:../../source/src/user/OS_LIB/vector.c **** 		}
 320              		.loc 1 101 0
 321 0140 4FF0FF30 		mov	r0, #-1
 322              		.loc 1 107 0
 323 0144 70BD     		pop	{r4, r5, r6, pc}
 324              	.LVL37:
 325              	.L34:
 326 0146 00BF     		.align	2
 327              	.L33:
 328 0148 00000000 		.word	.LC0
 329 014c 98000000 		.word	.LC3
 330 0150 D4000000 		.word	.LC4
 331              		.cfi_endproc
 332              	.LFE4:
 333              		.size	Vector_push_back, .-Vector_push_back
 334              		.align	1
 335              		.p2align 2,,3
 336              		.global	Vector_pop_back
 337              		.syntax unified
 338              		.thumb
 339              		.thumb_func
 340              		.fpu softvfp
 341              		.type	Vector_pop_back, %function
 342              	Vector_pop_back:
 343              	.LFB5:
 108:../../source/src/user/OS_LIB/vector.c **** 
 109:../../source/src/user/OS_LIB/vector.c **** /*
 110:../../source/src/user/OS_LIB/vector.c **** pop the tail datta and store it into pop_data_ptr
 111:../../source/src/user/OS_LIB/vector.c ****  */
 112:../../source/src/user/OS_LIB/vector.c **** int Vector_pop_back(Vector *vector_ptr,void *pop_data_ptr)
 113:../../source/src/user/OS_LIB/vector.c **** {
 344              		.loc 1 113 0
 345              		.cfi_startproc
 346              		@ args = 0, pretend = 0, frame = 0
 347              		@ frame_needed = 0, uses_anonymous_args = 0
 348              	.LVL38:
 349 0154 10B5     		push	{r4, lr}
 350              	.LCFI7:
 351              		.cfi_def_cfa_offset 8
 352              		.cfi_offset 4, -8
 353              		.cfi_offset 14, -4
 114:../../source/src/user/OS_LIB/vector.c **** 	ASSERT(NULL != vector_ptr);
 354              		.loc 1 114 0
 355 0156 68B1     		cbz	r0, .L43
 115:../../source/src/user/OS_LIB/vector.c **** #if CONFIG_PARA_CHECK
 116:../../source/src/user/OS_LIB/vector.c **** 	if(NULL == vector_ptr)
 117:../../source/src/user/OS_LIB/vector.c **** 	{
 118:../../source/src/user/OS_LIB/vector.c **** 		OS_ERROR_PARA_MESSAGE_DISPLAY(Vector_pop_back,vector_ptr);
 119:../../source/src/user/OS_LIB/vector.c **** 		return -ERROR_NULL_INPUT_PTR;
 120:../../source/src/user/OS_LIB/vector.c **** 	}
ARM GAS  G:\Users\Jaxb\AppData\Local\Temp\ccbjwyeW.s 			page 10


 121:../../source/src/user/OS_LIB/vector.c **** #endif
 122:../../source/src/user/OS_LIB/vector.c **** //	ASSERT(vector_ptr->cur_len >= 0);
 123:../../source/src/user/OS_LIB/vector.c **** 	if(0 == vector_ptr->cur_len)
 356              		.loc 1 123 0
 357 0158 8368     		ldr	r3, [r0, #8]
 358 015a ABB1     		cbz	r3, .L44
 124:../../source/src/user/OS_LIB/vector.c **** 	{
 125:../../source/src/user/OS_LIB/vector.c **** 		return -ERROR_DATA_EMPTY;
 126:../../source/src/user/OS_LIB/vector.c **** 	}
 127:../../source/src/user/OS_LIB/vector.c **** 	--(vector_ptr->cur_len);
 359              		.loc 1 127 0
 360 015c 013B     		subs	r3, r3, #1
 361 015e 8360     		str	r3, [r0, #8]
 128:../../source/src/user/OS_LIB/vector.c **** 	if(pop_data_ptr) // if NULL != pop_data_ptr
 362              		.loc 1 128 0
 363 0160 31B1     		cbz	r1, .L42
 129:../../source/src/user/OS_LIB/vector.c **** 		f_memcpy(pop_data_ptr,(char*)(vector_ptr->data_ptr) + vector_ptr->cur_len * vector_ptr->data_size
 364              		.loc 1 129 0
 365 0162 C268     		ldr	r2, [r0, #12]
 366 0164 0468     		ldr	r4, [r0]
 367 0166 0846     		mov	r0, r1
 368              	.LVL39:
 369 0168 02FB0341 		mla	r1, r2, r3, r4
 370              	.LVL40:
 371 016c FFF7FEFF 		bl	ka_memcpy
 372              	.LVL41:
 373              	.L42:
 130:../../source/src/user/OS_LIB/vector.c **** 	return FUN_EXECUTE_SUCCESSFULLY;
 374              		.loc 1 130 0
 375 0170 0020     		movs	r0, #0
 131:../../source/src/user/OS_LIB/vector.c **** }
 376              		.loc 1 131 0
 377 0172 10BD     		pop	{r4, pc}
 378              	.LVL42:
 379              	.L43:
 114:../../source/src/user/OS_LIB/vector.c **** #if CONFIG_PARA_CHECK
 380              		.loc 1 114 0 discriminator 1
 381 0174 7221     		movs	r1, #114
 382              	.LVL43:
 383 0176 0648     		ldr	r0, .L45
 384              	.LVL44:
 385 0178 FFF7FEFF 		bl	_ASSERT
 386              	.LVL45:
 118:../../source/src/user/OS_LIB/vector.c **** 		return -ERROR_NULL_INPUT_PTR;
 387              		.loc 1 118 0 discriminator 1
 388 017c 0548     		ldr	r0, .L45+4
 389 017e FFF7FEFF 		bl	ka_printf
 390              	.LVL46:
 119:../../source/src/user/OS_LIB/vector.c **** 	}
 391              		.loc 1 119 0 discriminator 1
 392 0182 6FF0FE00 		mvn	r0, #254
 393              		.loc 1 131 0 discriminator 1
 394 0186 10BD     		pop	{r4, pc}
 395              	.LVL47:
 396              	.L44:
 125:../../source/src/user/OS_LIB/vector.c **** 	}
 397              		.loc 1 125 0
ARM GAS  G:\Users\Jaxb\AppData\Local\Temp\ccbjwyeW.s 			page 11


 398 0188 6FF00100 		mvn	r0, #1
 399              	.LVL48:
 400              		.loc 1 131 0
 401 018c 10BD     		pop	{r4, pc}
 402              	.L46:
 403 018e 00BF     		.align	2
 404              	.L45:
 405 0190 00000000 		.word	.LC0
 406 0194 14010000 		.word	.LC5
 407              		.cfi_endproc
 408              	.LFE5:
 409              		.size	Vector_pop_back, .-Vector_pop_back
 410              		.align	1
 411              		.p2align 2,,3
 412              		.global	Vector_get_index_data
 413              		.syntax unified
 414              		.thumb
 415              		.thumb_func
 416              		.fpu softvfp
 417              		.type	Vector_get_index_data, %function
 418              	Vector_get_index_data:
 419              	.LFB6:
 132:../../source/src/user/OS_LIB/vector.c **** 
 133:../../source/src/user/OS_LIB/vector.c **** /*
 134:../../source/src/user/OS_LIB/vector.c **** get vector[index] data into *data_store_ptr
 135:../../source/src/user/OS_LIB/vector.c ****  */
 136:../../source/src/user/OS_LIB/vector.c **** int Vector_get_index_data(Vector *vector_ptr,unsigned int index,void *data_store_ptr)
 137:../../source/src/user/OS_LIB/vector.c **** {
 420              		.loc 1 137 0
 421              		.cfi_startproc
 422              		@ args = 0, pretend = 0, frame = 0
 423              		@ frame_needed = 0, uses_anonymous_args = 0
 424              	.LVL49:
 425 0198 10B5     		push	{r4, lr}
 426              	.LCFI8:
 427              		.cfi_def_cfa_offset 8
 428              		.cfi_offset 4, -8
 429              		.cfi_offset 14, -4
 430              		.loc 1 137 0
 431 019a 1446     		mov	r4, r2
 138:../../source/src/user/OS_LIB/vector.c **** 	ASSERT(NULL != vector_ptr);
 432              		.loc 1 138 0
 433 019c 60B1     		cbz	r0, .L54
 139:../../source/src/user/OS_LIB/vector.c **** 	ASSERT(NULL != data_store_ptr);
 434              		.loc 1 139 0
 435 019e 82B1     		cbz	r2, .L53
 140:../../source/src/user/OS_LIB/vector.c **** #if CONFIG_PARA_CHECK
 141:../../source/src/user/OS_LIB/vector.c **** 	if((NULL == vector_ptr) || (NULL == data_store_ptr))
 142:../../source/src/user/OS_LIB/vector.c **** 	{
 143:../../source/src/user/OS_LIB/vector.c **** 		OS_ERROR_PARA_MESSAGE_DISPLAY(Vector_get_index_data,vector_ptr);
 144:../../source/src/user/OS_LIB/vector.c **** 		OS_ERROR_PARA_MESSAGE_DISPLAY(Vector_get_index_data,data_store_ptr);
 145:../../source/src/user/OS_LIB/vector.c **** 		return -ERROR_NULL_INPUT_PTR;
 146:../../source/src/user/OS_LIB/vector.c **** 	}
 147:../../source/src/user/OS_LIB/vector.c **** 	if(index >= vector_ptr->max_len)
 436              		.loc 1 147 0
 437 01a0 4368     		ldr	r3, [r0, #4]
 438 01a2 8B42     		cmp	r3, r1
ARM GAS  G:\Users\Jaxb\AppData\Local\Temp\ccbjwyeW.s 			page 12


 439 01a4 1AD9     		bls	.L55
 148:../../source/src/user/OS_LIB/vector.c **** 	{
 149:../../source/src/user/OS_LIB/vector.c **** 		OS_ERROR_PARA_MESSAGE_DISPLAY(Vector_get_index_data,index);
 150:../../source/src/user/OS_LIB/vector.c **** 		return -ERROR_VALUELESS_INPUT;
 151:../../source/src/user/OS_LIB/vector.c **** 	}
 152:../../source/src/user/OS_LIB/vector.c **** #endif
 153:../../source/src/user/OS_LIB/vector.c **** 	f_memcpy(data_store_ptr,(char*)(vector_ptr->data_ptr) + index * vector_ptr->data_size,vector_ptr->
 440              		.loc 1 153 0
 441 01a6 C268     		ldr	r2, [r0, #12]
 442              	.LVL50:
 443 01a8 0368     		ldr	r3, [r0]
 444 01aa 2046     		mov	r0, r4
 445              	.LVL51:
 446 01ac 01FB0231 		mla	r1, r1, r2, r3
 447              	.LVL52:
 448 01b0 FFF7FEFF 		bl	ka_memcpy
 449              	.LVL53:
 154:../../source/src/user/OS_LIB/vector.c **** 	return FUN_EXECUTE_SUCCESSFULLY;
 450              		.loc 1 154 0
 451 01b4 0020     		movs	r0, #0
 155:../../source/src/user/OS_LIB/vector.c **** }
 452              		.loc 1 155 0
 453 01b6 10BD     		pop	{r4, pc}
 454              	.LVL54:
 455              	.L54:
 138:../../source/src/user/OS_LIB/vector.c **** 	ASSERT(NULL != data_store_ptr);
 456              		.loc 1 138 0 discriminator 1
 457 01b8 8A21     		movs	r1, #138
 458              	.LVL55:
 459 01ba 0B48     		ldr	r0, .L56
 460              	.LVL56:
 461 01bc FFF7FEFF 		bl	_ASSERT
 462              	.LVL57:
 139:../../source/src/user/OS_LIB/vector.c **** #if CONFIG_PARA_CHECK
 463              		.loc 1 139 0 discriminator 1
 464 01c0 1CB9     		cbnz	r4, .L49
 465              	.L53:
 139:../../source/src/user/OS_LIB/vector.c **** #if CONFIG_PARA_CHECK
 466              		.loc 1 139 0 is_stmt 0
 467 01c2 8B21     		movs	r1, #139
 468 01c4 0848     		ldr	r0, .L56
 469 01c6 FFF7FEFF 		bl	_ASSERT
 470              	.LVL58:
 471              	.L49:
 143:../../source/src/user/OS_LIB/vector.c **** 		OS_ERROR_PARA_MESSAGE_DISPLAY(Vector_get_index_data,data_store_ptr);
 472              		.loc 1 143 0 is_stmt 1
 473 01ca 0848     		ldr	r0, .L56+4
 474 01cc FFF7FEFF 		bl	ka_printf
 475              	.LVL59:
 144:../../source/src/user/OS_LIB/vector.c **** 		return -ERROR_NULL_INPUT_PTR;
 476              		.loc 1 144 0
 477 01d0 0748     		ldr	r0, .L56+8
 478 01d2 FFF7FEFF 		bl	ka_printf
 479              	.LVL60:
 145:../../source/src/user/OS_LIB/vector.c **** 	}
 480              		.loc 1 145 0
 481 01d6 6FF0FE00 		mvn	r0, #254
ARM GAS  G:\Users\Jaxb\AppData\Local\Temp\ccbjwyeW.s 			page 13


 482              		.loc 1 155 0
 483 01da 10BD     		pop	{r4, pc}
 484              	.LVL61:
 485              	.L55:
 149:../../source/src/user/OS_LIB/vector.c **** 		return -ERROR_VALUELESS_INPUT;
 486              		.loc 1 149 0
 487 01dc 0548     		ldr	r0, .L56+12
 488              	.LVL62:
 489 01de FFF7FEFF 		bl	ka_printf
 490              	.LVL63:
 150:../../source/src/user/OS_LIB/vector.c **** 	}
 491              		.loc 1 150 0
 492 01e2 6FF0FD00 		mvn	r0, #253
 493              		.loc 1 155 0
 494 01e6 10BD     		pop	{r4, pc}
 495              	.LVL64:
 496              	.L57:
 497              		.align	2
 498              	.L56:
 499 01e8 00000000 		.word	.LC0
 500 01ec 50010000 		.word	.LC6
 501 01f0 90010000 		.word	.LC7
 502 01f4 D4010000 		.word	.LC8
 503              		.cfi_endproc
 504              	.LFE6:
 505              		.size	Vector_get_index_data, .-Vector_get_index_data
 506              		.align	1
 507              		.p2align 2,,3
 508              		.global	Vector_set_index_data
 509              		.syntax unified
 510              		.thumb
 511              		.thumb_func
 512              		.fpu softvfp
 513              		.type	Vector_set_index_data, %function
 514              	Vector_set_index_data:
 515              	.LFB7:
 156:../../source/src/user/OS_LIB/vector.c **** 
 157:../../source/src/user/OS_LIB/vector.c **** /*
 158:../../source/src/user/OS_LIB/vector.c **** set vector[index] data with *data_store_ptr
 159:../../source/src/user/OS_LIB/vector.c ****  */
 160:../../source/src/user/OS_LIB/vector.c **** int Vector_set_index_data(Vector *vector_ptr,unsigned int index,void *data_store_ptr)
 161:../../source/src/user/OS_LIB/vector.c **** {
 516              		.loc 1 161 0
 517              		.cfi_startproc
 518              		@ args = 0, pretend = 0, frame = 0
 519              		@ frame_needed = 0, uses_anonymous_args = 0
 520              	.LVL65:
 521 01f8 10B5     		push	{r4, lr}
 522              	.LCFI9:
 523              		.cfi_def_cfa_offset 8
 524              		.cfi_offset 4, -8
 525              		.cfi_offset 14, -4
 526              		.loc 1 161 0
 527 01fa 0B46     		mov	r3, r1
 528 01fc 1446     		mov	r4, r2
 162:../../source/src/user/OS_LIB/vector.c **** 	ASSERT(NULL != vector_ptr);
 529              		.loc 1 162 0
ARM GAS  G:\Users\Jaxb\AppData\Local\Temp\ccbjwyeW.s 			page 14


 530 01fe 60B1     		cbz	r0, .L65
 163:../../source/src/user/OS_LIB/vector.c **** 	ASSERT(NULL != data_store_ptr);
 531              		.loc 1 163 0
 532 0200 82B1     		cbz	r2, .L64
 164:../../source/src/user/OS_LIB/vector.c **** #if CONFIG_PARA_CHECK
 165:../../source/src/user/OS_LIB/vector.c **** 	if((NULL == vector_ptr) || (NULL == data_store_ptr))
 166:../../source/src/user/OS_LIB/vector.c **** 	{
 167:../../source/src/user/OS_LIB/vector.c **** 		OS_ERROR_PARA_MESSAGE_DISPLAY(Vector_set_index_data,vector_ptr);
 168:../../source/src/user/OS_LIB/vector.c **** 		OS_ERROR_PARA_MESSAGE_DISPLAY(Vector_set_index_data,data_store_ptr);
 169:../../source/src/user/OS_LIB/vector.c **** 		return -ERROR_NULL_INPUT_PTR;
 170:../../source/src/user/OS_LIB/vector.c **** 	}
 171:../../source/src/user/OS_LIB/vector.c **** 	if(index >= vector_ptr->max_len)
 533              		.loc 1 171 0
 534 0202 4268     		ldr	r2, [r0, #4]
 535              	.LVL66:
 536 0204 9A42     		cmp	r2, r3
 537 0206 1AD9     		bls	.L66
 172:../../source/src/user/OS_LIB/vector.c **** 	{
 173:../../source/src/user/OS_LIB/vector.c **** 		OS_ERROR_PARA_MESSAGE_DISPLAY(Vector_set_index_data,index);
 174:../../source/src/user/OS_LIB/vector.c **** 		return -ERROR_VALUELESS_INPUT;
 175:../../source/src/user/OS_LIB/vector.c **** 	}
 176:../../source/src/user/OS_LIB/vector.c **** #endif
 177:../../source/src/user/OS_LIB/vector.c **** 	f_memcpy((char*)(vector_ptr->data_ptr) + index * vector_ptr->data_size,data_store_ptr,vector_ptr->
 538              		.loc 1 177 0
 539 0208 C268     		ldr	r2, [r0, #12]
 540 020a 0068     		ldr	r0, [r0]
 541              	.LVL67:
 542 020c 2146     		mov	r1, r4
 543              	.LVL68:
 544 020e 03FB0200 		mla	r0, r3, r2, r0
 545 0212 FFF7FEFF 		bl	ka_memcpy
 546              	.LVL69:
 178:../../source/src/user/OS_LIB/vector.c **** 	return FUN_EXECUTE_SUCCESSFULLY;
 547              		.loc 1 178 0
 548 0216 0020     		movs	r0, #0
 179:../../source/src/user/OS_LIB/vector.c **** }
 549              		.loc 1 179 0
 550 0218 10BD     		pop	{r4, pc}
 551              	.LVL70:
 552              	.L65:
 162:../../source/src/user/OS_LIB/vector.c **** 	ASSERT(NULL != data_store_ptr);
 553              		.loc 1 162 0 discriminator 1
 554 021a A221     		movs	r1, #162
 555              	.LVL71:
 556 021c 0B48     		ldr	r0, .L67
 557              	.LVL72:
 558 021e FFF7FEFF 		bl	_ASSERT
 559              	.LVL73:
 163:../../source/src/user/OS_LIB/vector.c **** #if CONFIG_PARA_CHECK
 560              		.loc 1 163 0 discriminator 1
 561 0222 1CB9     		cbnz	r4, .L60
 562              	.L64:
 163:../../source/src/user/OS_LIB/vector.c **** #if CONFIG_PARA_CHECK
 563              		.loc 1 163 0 is_stmt 0
 564 0224 A321     		movs	r1, #163
 565 0226 0948     		ldr	r0, .L67
 566 0228 FFF7FEFF 		bl	_ASSERT
ARM GAS  G:\Users\Jaxb\AppData\Local\Temp\ccbjwyeW.s 			page 15


 567              	.LVL74:
 568              	.L60:
 167:../../source/src/user/OS_LIB/vector.c **** 		OS_ERROR_PARA_MESSAGE_DISPLAY(Vector_set_index_data,data_store_ptr);
 569              		.loc 1 167 0 is_stmt 1
 570 022c 0848     		ldr	r0, .L67+4
 571 022e FFF7FEFF 		bl	ka_printf
 572              	.LVL75:
 168:../../source/src/user/OS_LIB/vector.c **** 		return -ERROR_NULL_INPUT_PTR;
 573              		.loc 1 168 0
 574 0232 0848     		ldr	r0, .L67+8
 575 0234 FFF7FEFF 		bl	ka_printf
 576              	.LVL76:
 169:../../source/src/user/OS_LIB/vector.c **** 	}
 577              		.loc 1 169 0
 578 0238 6FF0FE00 		mvn	r0, #254
 579              		.loc 1 179 0
 580 023c 10BD     		pop	{r4, pc}
 581              	.LVL77:
 582              	.L66:
 173:../../source/src/user/OS_LIB/vector.c **** 		return -ERROR_VALUELESS_INPUT;
 583              		.loc 1 173 0
 584 023e 0648     		ldr	r0, .L67+12
 585              	.LVL78:
 586 0240 FFF7FEFF 		bl	ka_printf
 587              	.LVL79:
 174:../../source/src/user/OS_LIB/vector.c **** 	}
 588              		.loc 1 174 0
 589 0244 6FF0FD00 		mvn	r0, #253
 590              		.loc 1 179 0
 591 0248 10BD     		pop	{r4, pc}
 592              	.LVL80:
 593              	.L68:
 594 024a 00BF     		.align	2
 595              	.L67:
 596 024c 00000000 		.word	.LC0
 597 0250 10020000 		.word	.LC9
 598 0254 50020000 		.word	.LC10
 599 0258 94020000 		.word	.LC11
 600              		.cfi_endproc
 601              	.LFE7:
 602              		.size	Vector_set_index_data, .-Vector_set_index_data
 603              		.align	1
 604              		.p2align 2,,3
 605              		.global	Vector_get_index_address
 606              		.syntax unified
 607              		.thumb
 608              		.thumb_func
 609              		.fpu softvfp
 610              		.type	Vector_get_index_address, %function
 611              	Vector_get_index_address:
 612              	.LFB8:
 180:../../source/src/user/OS_LIB/vector.c **** 
 181:../../source/src/user/OS_LIB/vector.c **** int Vector_get_index_address(Vector *vector_ptr,unsigned int index,void **data_add_ptr)
 182:../../source/src/user/OS_LIB/vector.c **** {
 613              		.loc 1 182 0
 614              		.cfi_startproc
 615              		@ args = 0, pretend = 0, frame = 8
ARM GAS  G:\Users\Jaxb\AppData\Local\Temp\ccbjwyeW.s 			page 16


 616              		@ frame_needed = 0, uses_anonymous_args = 0
 617              	.LVL81:
 618 025c 10B5     		push	{r4, lr}
 619              	.LCFI10:
 620              		.cfi_def_cfa_offset 8
 621              		.cfi_offset 4, -8
 622              		.cfi_offset 14, -4
 623 025e 82B0     		sub	sp, sp, #8
 624              	.LCFI11:
 625              		.cfi_def_cfa_offset 16
 183:../../source/src/user/OS_LIB/vector.c **** 	ASSERT(NULL != vector_ptr);
 626              		.loc 1 183 0
 627 0260 58B1     		cbz	r0, .L76
 184:../../source/src/user/OS_LIB/vector.c **** 	ASSERT(NULL != data_add_ptr);
 628              		.loc 1 184 0
 629 0262 8AB1     		cbz	r2, .L75
 185:../../source/src/user/OS_LIB/vector.c **** #if CONFIG_PARA_CHECK
 186:../../source/src/user/OS_LIB/vector.c **** 	if((NULL == vector_ptr) || (NULL == data_add_ptr))
 187:../../source/src/user/OS_LIB/vector.c **** 	{
 188:../../source/src/user/OS_LIB/vector.c **** 		OS_ERROR_PARA_MESSAGE_DISPLAY(Vector_get_index_address,vector_ptr);
 189:../../source/src/user/OS_LIB/vector.c **** 		OS_ERROR_PARA_MESSAGE_DISPLAY(Vector_get_index_address,data_add_ptr);
 190:../../source/src/user/OS_LIB/vector.c **** 		return -ERROR_NULL_INPUT_PTR;
 191:../../source/src/user/OS_LIB/vector.c **** 	}
 192:../../source/src/user/OS_LIB/vector.c **** 	if(index >= vector_ptr->max_len)
 630              		.loc 1 192 0
 631 0264 4368     		ldr	r3, [r0, #4]
 632 0266 8B42     		cmp	r3, r1
 633 0268 1BD9     		bls	.L77
 193:../../source/src/user/OS_LIB/vector.c **** 	{
 194:../../source/src/user/OS_LIB/vector.c **** 		OS_ERROR_PARA_MESSAGE_DISPLAY(Vector_get_index_address,index);
 195:../../source/src/user/OS_LIB/vector.c **** 		return -ERROR_VALUELESS_INPUT;
 196:../../source/src/user/OS_LIB/vector.c **** 	}
 197:../../source/src/user/OS_LIB/vector.c **** #endif
 198:../../source/src/user/OS_LIB/vector.c **** 	*data_add_ptr = (void *)((char*)(vector_ptr->data_ptr) + index * vector_ptr->data_size);
 634              		.loc 1 198 0
 635 026a C468     		ldr	r4, [r0, #12]
 636 026c 0368     		ldr	r3, [r0]
 199:../../source/src/user/OS_LIB/vector.c **** 	return FUN_EXECUTE_SUCCESSFULLY;
 637              		.loc 1 199 0
 638 026e 0020     		movs	r0, #0
 639              	.LVL82:
 198:../../source/src/user/OS_LIB/vector.c **** 	return FUN_EXECUTE_SUCCESSFULLY;
 640              		.loc 1 198 0
 641 0270 04FB0131 		mla	r1, r4, r1, r3
 642              	.LVL83:
 643 0274 1160     		str	r1, [r2]
 644              	.LVL84:
 645              	.L69:
 200:../../source/src/user/OS_LIB/vector.c **** }
 646              		.loc 1 200 0
 647 0276 02B0     		add	sp, sp, #8
 648              	.LCFI12:
 649              		.cfi_remember_state
 650              		.cfi_def_cfa_offset 8
 651              		@ sp needed
 652 0278 10BD     		pop	{r4, pc}
 653              	.LVL85:
ARM GAS  G:\Users\Jaxb\AppData\Local\Temp\ccbjwyeW.s 			page 17


 654              	.L76:
 655              	.LCFI13:
 656              		.cfi_restore_state
 183:../../source/src/user/OS_LIB/vector.c **** 	ASSERT(NULL != data_add_ptr);
 657              		.loc 1 183 0 discriminator 1
 658 027a B721     		movs	r1, #183
 659              	.LVL86:
 660 027c 0C48     		ldr	r0, .L78
 661              	.LVL87:
 662 027e 0192     		str	r2, [sp, #4]
 663 0280 FFF7FEFF 		bl	_ASSERT
 664              	.LVL88:
 184:../../source/src/user/OS_LIB/vector.c **** #if CONFIG_PARA_CHECK
 665              		.loc 1 184 0 discriminator 1
 666 0284 019A     		ldr	r2, [sp, #4]
 667 0286 1AB9     		cbnz	r2, .L71
 668              	.LVL89:
 669              	.L75:
 184:../../source/src/user/OS_LIB/vector.c **** #if CONFIG_PARA_CHECK
 670              		.loc 1 184 0 is_stmt 0
 671 0288 B821     		movs	r1, #184
 672 028a 0948     		ldr	r0, .L78
 673 028c FFF7FEFF 		bl	_ASSERT
 674              	.LVL90:
 675              	.L71:
 188:../../source/src/user/OS_LIB/vector.c **** 		OS_ERROR_PARA_MESSAGE_DISPLAY(Vector_get_index_address,data_add_ptr);
 676              		.loc 1 188 0 is_stmt 1
 677 0290 0848     		ldr	r0, .L78+4
 678 0292 FFF7FEFF 		bl	ka_printf
 679              	.LVL91:
 189:../../source/src/user/OS_LIB/vector.c **** 		return -ERROR_NULL_INPUT_PTR;
 680              		.loc 1 189 0
 681 0296 0848     		ldr	r0, .L78+8
 682 0298 FFF7FEFF 		bl	ka_printf
 683              	.LVL92:
 190:../../source/src/user/OS_LIB/vector.c **** 	}
 684              		.loc 1 190 0
 685 029c 6FF0FE00 		mvn	r0, #254
 686 02a0 E9E7     		b	.L69
 687              	.LVL93:
 688              	.L77:
 194:../../source/src/user/OS_LIB/vector.c **** 		return -ERROR_VALUELESS_INPUT;
 689              		.loc 1 194 0
 690 02a2 0648     		ldr	r0, .L78+12
 691              	.LVL94:
 692 02a4 FFF7FEFF 		bl	ka_printf
 693              	.LVL95:
 195:../../source/src/user/OS_LIB/vector.c **** 	}
 694              		.loc 1 195 0
 695 02a8 6FF0FD00 		mvn	r0, #253
 696 02ac E3E7     		b	.L69
 697              	.L79:
 698 02ae 00BF     		.align	2
 699              	.L78:
 700 02b0 00000000 		.word	.LC0
 701 02b4 D0020000 		.word	.LC12
 702 02b8 14030000 		.word	.LC13
ARM GAS  G:\Users\Jaxb\AppData\Local\Temp\ccbjwyeW.s 			page 18


 703 02bc 5C030000 		.word	.LC14
 704              		.cfi_endproc
 705              	.LFE8:
 706              		.size	Vector_get_index_address, .-Vector_get_index_address
 707              		.align	1
 708              		.p2align 2,,3
 709              		.global	Vector_delete
 710              		.syntax unified
 711              		.thumb
 712              		.thumb_func
 713              		.fpu softvfp
 714              		.type	Vector_delete, %function
 715              	Vector_delete:
 716              	.LFB9:
 201:../../source/src/user/OS_LIB/vector.c **** 
 202:../../source/src/user/OS_LIB/vector.c **** /*
 203:../../source/src/user/OS_LIB/vector.c **** delete vector
 204:../../source/src/user/OS_LIB/vector.c ****  */
 205:../../source/src/user/OS_LIB/vector.c **** inline int Vector_delete(Vector *vector_ptr)
 206:../../source/src/user/OS_LIB/vector.c **** {
 717              		.loc 1 206 0
 718              		.cfi_startproc
 719              		@ args = 0, pretend = 0, frame = 0
 720              		@ frame_needed = 0, uses_anonymous_args = 0
 721              	.LVL96:
 722 02c0 08B5     		push	{r3, lr}
 723              	.LCFI14:
 724              		.cfi_def_cfa_offset 8
 725              		.cfi_offset 3, -8
 726              		.cfi_offset 14, -4
 207:../../source/src/user/OS_LIB/vector.c **** 	ASSERT(NULL != vector_ptr);
 727              		.loc 1 207 0
 728 02c2 20B1     		cbz	r0, .L83
 208:../../source/src/user/OS_LIB/vector.c **** #if CONFIG_PARA_CHECK
 209:../../source/src/user/OS_LIB/vector.c **** 	if(NULL == vector_ptr)
 210:../../source/src/user/OS_LIB/vector.c **** 	{
 211:../../source/src/user/OS_LIB/vector.c **** 		OS_ERROR_PARA_MESSAGE_DISPLAY(Vector_delete,vector_ptr);
 212:../../source/src/user/OS_LIB/vector.c **** 		return -ERROR_NULL_INPUT_PTR;
 213:../../source/src/user/OS_LIB/vector.c **** 	}
 214:../../source/src/user/OS_LIB/vector.c **** #endif
 215:../../source/src/user/OS_LIB/vector.c **** 	f_free(vector_ptr->data_ptr);
 729              		.loc 1 215 0
 730 02c4 0068     		ldr	r0, [r0]
 731              	.LVL97:
 732 02c6 FFF7FEFF 		bl	ka_free
 733              	.LVL98:
 216:../../source/src/user/OS_LIB/vector.c **** 	return FUN_EXECUTE_SUCCESSFULLY;
 734              		.loc 1 216 0
 735 02ca 0020     		movs	r0, #0
 217:../../source/src/user/OS_LIB/vector.c **** }
 736              		.loc 1 217 0
 737 02cc 08BD     		pop	{r3, pc}
 738              	.LVL99:
 739              	.L83:
 207:../../source/src/user/OS_LIB/vector.c **** #if CONFIG_PARA_CHECK
 740              		.loc 1 207 0 discriminator 1
 741 02ce CF21     		movs	r1, #207
ARM GAS  G:\Users\Jaxb\AppData\Local\Temp\ccbjwyeW.s 			page 19


 742 02d0 0448     		ldr	r0, .L84
 743              	.LVL100:
 744 02d2 FFF7FEFF 		bl	_ASSERT
 745              	.LVL101:
 211:../../source/src/user/OS_LIB/vector.c **** 		return -ERROR_NULL_INPUT_PTR;
 746              		.loc 1 211 0 discriminator 1
 747 02d6 0448     		ldr	r0, .L84+4
 748 02d8 FFF7FEFF 		bl	ka_printf
 749              	.LVL102:
 212:../../source/src/user/OS_LIB/vector.c **** 	}
 750              		.loc 1 212 0 discriminator 1
 751 02dc 6FF0FE00 		mvn	r0, #254
 752              		.loc 1 217 0 discriminator 1
 753 02e0 08BD     		pop	{r3, pc}
 754              	.L85:
 755 02e2 00BF     		.align	2
 756              	.L84:
 757 02e4 00000000 		.word	.LC0
 758 02e8 9C030000 		.word	.LC15
 759              		.cfi_endproc
 760              	.LFE9:
 761              		.size	Vector_delete, .-Vector_delete
 762              		.align	1
 763              		.p2align 2,,3
 764              		.global	Vector_erase_data
 765              		.syntax unified
 766              		.thumb
 767              		.thumb_func
 768              		.fpu softvfp
 769              		.type	Vector_erase_data, %function
 770              	Vector_erase_data:
 771              	.LFB10:
 218:../../source/src/user/OS_LIB/vector.c **** 
 219:../../source/src/user/OS_LIB/vector.c **** /*
 220:../../source/src/user/OS_LIB/vector.c **** delete the data between index "from" to "to"
 221:../../source/src/user/OS_LIB/vector.c ****  */
 222:../../source/src/user/OS_LIB/vector.c **** int Vector_erase_data(Vector *vector_ptr,unsigned int from,unsigned int to)
 223:../../source/src/user/OS_LIB/vector.c **** {
 772              		.loc 1 223 0
 773              		.cfi_startproc
 774              		@ args = 0, pretend = 0, frame = 0
 775              		@ frame_needed = 0, uses_anonymous_args = 0
 776              	.LVL103:
 777 02ec F8B5     		push	{r3, r4, r5, r6, r7, lr}
 778              	.LCFI15:
 779              		.cfi_def_cfa_offset 24
 780              		.cfi_offset 3, -24
 781              		.cfi_offset 4, -20
 782              		.cfi_offset 5, -16
 783              		.cfi_offset 6, -12
 784              		.cfi_offset 7, -8
 785              		.cfi_offset 14, -4
 786              		.loc 1 223 0
 787 02ee 0C46     		mov	r4, r1
 788 02f0 1646     		mov	r6, r2
 224:../../source/src/user/OS_LIB/vector.c **** 	ASSERT(NULL != vector_ptr);
 789              		.loc 1 224 0
ARM GAS  G:\Users\Jaxb\AppData\Local\Temp\ccbjwyeW.s 			page 20


 790 02f2 0546     		mov	r5, r0
 791 02f4 90B3     		cbz	r0, .L93
 225:../../source/src/user/OS_LIB/vector.c **** #if CONFIG_PARA_CHECK
 226:../../source/src/user/OS_LIB/vector.c **** 	if(NULL == vector_ptr)
 227:../../source/src/user/OS_LIB/vector.c **** 	{
 228:../../source/src/user/OS_LIB/vector.c **** 		OS_ERROR_PARA_MESSAGE_DISPLAY(Vector_erase_data,vector_ptr);
 229:../../source/src/user/OS_LIB/vector.c **** 		return -ERROR_NULL_INPUT_PTR;
 230:../../source/src/user/OS_LIB/vector.c **** 	}
 231:../../source/src/user/OS_LIB/vector.c **** #endif
 232:../../source/src/user/OS_LIB/vector.c **** 	ASSERT(from <= to);
 792              		.loc 1 232 0
 793 02f6 9142     		cmp	r1, r2
 794 02f8 16D8     		bhi	.L90
 233:../../source/src/user/OS_LIB/vector.c **** #if CONFIG_PARA_CHECK
 234:../../source/src/user/OS_LIB/vector.c **** 	if(from > to)
 235:../../source/src/user/OS_LIB/vector.c **** 	{
 236:../../source/src/user/OS_LIB/vector.c **** 		OS_ERROR_PARA_MESSAGE_DISPLAY(Vector_erase_data,from);
 237:../../source/src/user/OS_LIB/vector.c **** 		OS_ERROR_PARA_MESSAGE_DISPLAY(Vector_erase_data,to);
 238:../../source/src/user/OS_LIB/vector.c **** 		return -ERROR_VALUELESS_INPUT;
 239:../../source/src/user/OS_LIB/vector.c **** 	}
 240:../../source/src/user/OS_LIB/vector.c **** #endif
 241:../../source/src/user/OS_LIB/vector.c **** 	//else (from <= to)
 242:../../source/src/user/OS_LIB/vector.c **** 	ASSERT(to < vector_ptr->cur_len);
 795              		.loc 1 242 0
 796 02fa 8768     		ldr	r7, [r0, #8]
 797 02fc 9742     		cmp	r7, r2
 798 02fe 20D9     		bls	.L94
 799              	.LVL104:
 800              	.L89:
 243:../../source/src/user/OS_LIB/vector.c **** #if CONFIG_PARA_CHECK
 244:../../source/src/user/OS_LIB/vector.c **** 	if(to >= vector_ptr->cur_len)
 245:../../source/src/user/OS_LIB/vector.c **** 	{
 246:../../source/src/user/OS_LIB/vector.c **** 		OS_ERROR_PARA_MESSAGE_DISPLAY(Vector_erase_data,to);
 247:../../source/src/user/OS_LIB/vector.c **** 		return -ERROR_VALUELESS_INPUT;
 248:../../source/src/user/OS_LIB/vector.c **** 	}
 249:../../source/src/user/OS_LIB/vector.c **** #endif
 250:../../source/src/user/OS_LIB/vector.c **** 	f_memcpy((char*)(vector_ptr->data_ptr) + from * vector_ptr->data_size,
 801              		.loc 1 250 0
 802 0300 F243     		mvns	r2, r6
 803 0302 EB68     		ldr	r3, [r5, #12]
 804 0304 2868     		ldr	r0, [r5]
 805 0306 06FB0331 		mla	r1, r6, r3, r3
 806 030a 3A44     		add	r2, r2, r7
 807 030c 03FB02F2 		mul	r2, r3, r2
 808 0310 0144     		add	r1, r1, r0
 809 0312 04FB0300 		mla	r0, r4, r3, r0
 810 0316 FFF7FEFF 		bl	ka_memcpy
 811              	.LVL105:
 251:../../source/src/user/OS_LIB/vector.c **** 		(char*)(vector_ptr->data_ptr) + (to + 1) * vector_ptr->data_size,
 252:../../source/src/user/OS_LIB/vector.c **** 		(vector_ptr->cur_len - to - 1)*vector_ptr->data_size);
 253:../../source/src/user/OS_LIB/vector.c **** 	vector_ptr->cur_len -= to - from + 1;
 812              		.loc 1 253 0
 813 031a A41B     		subs	r4, r4, r6
 814              	.LVL106:
 815 031c AB68     		ldr	r3, [r5, #8]
 816 031e 013C     		subs	r4, r4, #1
 817 0320 1C44     		add	r4, r4, r3
ARM GAS  G:\Users\Jaxb\AppData\Local\Temp\ccbjwyeW.s 			page 21


 818 0322 AC60     		str	r4, [r5, #8]
 254:../../source/src/user/OS_LIB/vector.c **** 	//add memory management here
 255:../../source/src/user/OS_LIB/vector.c **** 	return FUN_EXECUTE_SUCCESSFULLY;
 819              		.loc 1 255 0
 820 0324 0020     		movs	r0, #0
 256:../../source/src/user/OS_LIB/vector.c **** }
 821              		.loc 1 256 0
 822 0326 F8BD     		pop	{r3, r4, r5, r6, r7, pc}
 823              	.LVL107:
 824              	.L90:
 232:../../source/src/user/OS_LIB/vector.c **** #if CONFIG_PARA_CHECK
 825              		.loc 1 232 0 discriminator 1
 826 0328 E821     		movs	r1, #232
 827              	.LVL108:
 828 032a 1148     		ldr	r0, .L95
 829              	.LVL109:
 830 032c FFF7FEFF 		bl	_ASSERT
 831              	.LVL110:
 236:../../source/src/user/OS_LIB/vector.c **** 		OS_ERROR_PARA_MESSAGE_DISPLAY(Vector_erase_data,to);
 832              		.loc 1 236 0 discriminator 1
 833 0330 1048     		ldr	r0, .L95+4
 834 0332 FFF7FEFF 		bl	ka_printf
 835              	.LVL111:
 237:../../source/src/user/OS_LIB/vector.c **** 		return -ERROR_VALUELESS_INPUT;
 836              		.loc 1 237 0 discriminator 1
 837 0336 1048     		ldr	r0, .L95+8
 838 0338 FFF7FEFF 		bl	ka_printf
 839              	.LVL112:
 238:../../source/src/user/OS_LIB/vector.c **** 	}
 840              		.loc 1 238 0 discriminator 1
 841 033c 6FF0FD00 		mvn	r0, #253
 842              		.loc 1 256 0 discriminator 1
 843 0340 F8BD     		pop	{r3, r4, r5, r6, r7, pc}
 844              	.LVL113:
 845              	.L94:
 242:../../source/src/user/OS_LIB/vector.c **** #if CONFIG_PARA_CHECK
 846              		.loc 1 242 0 discriminator 1
 847 0342 F221     		movs	r1, #242
 848              	.LVL114:
 849 0344 0A48     		ldr	r0, .L95
 850              	.LVL115:
 851 0346 FFF7FEFF 		bl	_ASSERT
 852              	.LVL116:
 244:../../source/src/user/OS_LIB/vector.c **** 	{
 853              		.loc 1 244 0 discriminator 1
 854 034a AF68     		ldr	r7, [r5, #8]
 855 034c B742     		cmp	r7, r6
 856 034e D7D8     		bhi	.L89
 246:../../source/src/user/OS_LIB/vector.c **** 		return -ERROR_VALUELESS_INPUT;
 857              		.loc 1 246 0
 858 0350 0948     		ldr	r0, .L95+8
 859 0352 FFF7FEFF 		bl	ka_printf
 860              	.LVL117:
 247:../../source/src/user/OS_LIB/vector.c **** 	}
 861              		.loc 1 247 0
 862 0356 6FF0FD00 		mvn	r0, #253
 863              		.loc 1 256 0
ARM GAS  G:\Users\Jaxb\AppData\Local\Temp\ccbjwyeW.s 			page 22


 864 035a F8BD     		pop	{r3, r4, r5, r6, r7, pc}
 865              	.LVL118:
 866              	.L93:
 224:../../source/src/user/OS_LIB/vector.c **** #if CONFIG_PARA_CHECK
 867              		.loc 1 224 0 discriminator 1
 868 035c E021     		movs	r1, #224
 869              	.LVL119:
 870 035e 0448     		ldr	r0, .L95
 871              	.LVL120:
 872 0360 FFF7FEFF 		bl	_ASSERT
 873              	.LVL121:
 228:../../source/src/user/OS_LIB/vector.c **** 		return -ERROR_NULL_INPUT_PTR;
 874              		.loc 1 228 0 discriminator 1
 875 0364 0548     		ldr	r0, .L95+12
 876 0366 FFF7FEFF 		bl	ka_printf
 877              	.LVL122:
 229:../../source/src/user/OS_LIB/vector.c **** 	}
 878              		.loc 1 229 0 discriminator 1
 879 036a 6FF0FE00 		mvn	r0, #254
 880              		.loc 1 256 0 discriminator 1
 881 036e F8BD     		pop	{r3, r4, r5, r6, r7, pc}
 882              	.LVL123:
 883              	.L96:
 884              		.align	2
 885              	.L95:
 886 0370 00000000 		.word	.LC0
 887 0374 10040000 		.word	.LC17
 888 0378 48040000 		.word	.LC18
 889 037c D4030000 		.word	.LC16
 890              		.cfi_endproc
 891              	.LFE10:
 892              		.size	Vector_erase_data, .-Vector_erase_data
 893              		.align	1
 894              		.p2align 2,,3
 895              		.global	Vector_remove_index_data
 896              		.syntax unified
 897              		.thumb
 898              		.thumb_func
 899              		.fpu softvfp
 900              		.type	Vector_remove_index_data, %function
 901              	Vector_remove_index_data:
 902              	.LFB11:
 257:../../source/src/user/OS_LIB/vector.c **** 
 258:../../source/src/user/OS_LIB/vector.c **** /*
 259:../../source/src/user/OS_LIB/vector.c **** remove the data Vector[index] and store it into *data_store_ptrs
 260:../../source/src/user/OS_LIB/vector.c ****  */
 261:../../source/src/user/OS_LIB/vector.c **** //if data_store_ptr is NULL,do not store
 262:../../source/src/user/OS_LIB/vector.c **** int Vector_remove_index_data(Vector *vector_ptr,unsigned int index,void *data_store_ptr)
 263:../../source/src/user/OS_LIB/vector.c **** {
 903              		.loc 1 263 0
 904              		.cfi_startproc
 905              		@ args = 0, pretend = 0, frame = 0
 906              		@ frame_needed = 0, uses_anonymous_args = 0
 907              	.LVL124:
 908 0380 B0B5     		push	{r4, r5, r7, lr}
 909              	.LCFI16:
 910              		.cfi_def_cfa_offset 16
ARM GAS  G:\Users\Jaxb\AppData\Local\Temp\ccbjwyeW.s 			page 23


 911              		.cfi_offset 4, -16
 912              		.cfi_offset 5, -12
 913              		.cfi_offset 7, -8
 914              		.cfi_offset 14, -4
 915              		.loc 1 263 0
 916 0382 0D46     		mov	r5, r1
 917 0384 1746     		mov	r7, r2
 264:../../source/src/user/OS_LIB/vector.c **** 	ASSERT(NULL != vector_ptr);
 918              		.loc 1 264 0
 919 0386 0446     		mov	r4, r0
 920 0388 60B3     		cbz	r0, .L105
 921              	.LVL125:
 922              	.L98:
 265:../../source/src/user/OS_LIB/vector.c **** 	ASSERT(index < vector_ptr->cur_len);
 923              		.loc 1 265 0
 924 038a A368     		ldr	r3, [r4, #8]
 925 038c AB42     		cmp	r3, r5
 926 038e 1BD9     		bls	.L106
 927              	.L99:
 928 0390 2168     		ldr	r1, [r4]
 929 0392 E268     		ldr	r2, [r4, #12]
 930 0394 02FB0510 		mla	r0, r2, r5, r1
 266:../../source/src/user/OS_LIB/vector.c **** #if CONFIG_PARA_CHECK
 267:../../source/src/user/OS_LIB/vector.c **** 	if(NULL == vector_ptr)
 268:../../source/src/user/OS_LIB/vector.c **** 	{
 269:../../source/src/user/OS_LIB/vector.c **** 		OS_ERROR_PARA_MESSAGE_DISPLAY(Vector_remove_index_data,vector_ptr);
 270:../../source/src/user/OS_LIB/vector.c **** 		return -ERROR_NULL_INPUT_PTR;
 271:../../source/src/user/OS_LIB/vector.c **** 	}
 272:../../source/src/user/OS_LIB/vector.c **** 	if(index >= vector_ptr->cur_len)
 273:../../source/src/user/OS_LIB/vector.c **** 	{
 274:../../source/src/user/OS_LIB/vector.c **** 		OS_ERROR_PARA_MESSAGE_DISPLAY(Vector_remove_index_data,index);
 275:../../source/src/user/OS_LIB/vector.c **** 		return -ERROR_VALUELESS_INPUT;
 276:../../source/src/user/OS_LIB/vector.c **** 	}
 277:../../source/src/user/OS_LIB/vector.c **** #endif
 278:../../source/src/user/OS_LIB/vector.c **** 	if(data_store_ptr)
 931              		.loc 1 278 0
 932 0398 47B1     		cbz	r7, .L101
 279:../../source/src/user/OS_LIB/vector.c **** 	{
 280:../../source/src/user/OS_LIB/vector.c **** 		f_memcpy(data_store_ptr,(char*)(vector_ptr->data_ptr) + index * vector_ptr->data_size,vector_ptr-
 933              		.loc 1 280 0
 934 039a 0146     		mov	r1, r0
 935 039c 3846     		mov	r0, r7
 936 039e FFF7FEFF 		bl	ka_memcpy
 937              	.LVL126:
 938 03a2 D4E90232 		ldrd	r3, r2, [r4, #8]
 939 03a6 2168     		ldr	r1, [r4]
 940 03a8 02FB0510 		mla	r0, r2, r5, r1
 941              	.L101:
 281:../../source/src/user/OS_LIB/vector.c **** 	}
 282:../../source/src/user/OS_LIB/vector.c **** 	f_memcpy((char*)(vector_ptr->data_ptr) + index * vector_ptr->data_size,
 942              		.loc 1 282 0
 943 03ac EF43     		mvns	r7, r5
 944              	.LVL127:
 945 03ae 05FB0225 		mla	r5, r5, r2, r2
 946              	.LVL128:
 947 03b2 3B44     		add	r3, r3, r7
 948 03b4 02FB03F2 		mul	r2, r2, r3
ARM GAS  G:\Users\Jaxb\AppData\Local\Temp\ccbjwyeW.s 			page 24


 949 03b8 2944     		add	r1, r1, r5
 950 03ba FFF7FEFF 		bl	ka_memcpy
 951              	.LVL129:
 283:../../source/src/user/OS_LIB/vector.c **** 		(char*)(vector_ptr->data_ptr) + (index + 1) * vector_ptr->data_size,
 284:../../source/src/user/OS_LIB/vector.c **** 		(vector_ptr->cur_len - index - 1)*vector_ptr->data_size);
 285:../../source/src/user/OS_LIB/vector.c **** 	--vector_ptr->cur_len;
 952              		.loc 1 285 0
 953 03be A368     		ldr	r3, [r4, #8]
 286:../../source/src/user/OS_LIB/vector.c **** 	//add memory management here
 287:../../source/src/user/OS_LIB/vector.c **** 	return FUN_EXECUTE_SUCCESSFULLY;
 954              		.loc 1 287 0
 955 03c0 0020     		movs	r0, #0
 285:../../source/src/user/OS_LIB/vector.c **** 	//add memory management here
 956              		.loc 1 285 0
 957 03c2 013B     		subs	r3, r3, #1
 958 03c4 A360     		str	r3, [r4, #8]
 288:../../source/src/user/OS_LIB/vector.c **** }
 959              		.loc 1 288 0
 960 03c6 B0BD     		pop	{r4, r5, r7, pc}
 961              	.LVL130:
 962              	.L106:
 265:../../source/src/user/OS_LIB/vector.c **** #if CONFIG_PARA_CHECK
 963              		.loc 1 265 0 discriminator 1
 964 03c8 40F20911 		movw	r1, #265
 965 03cc 0848     		ldr	r0, .L107
 966 03ce FFF7FEFF 		bl	_ASSERT
 967              	.LVL131:
 272:../../source/src/user/OS_LIB/vector.c **** 	{
 968              		.loc 1 272 0 discriminator 1
 969 03d2 A368     		ldr	r3, [r4, #8]
 970 03d4 AB42     		cmp	r3, r5
 971 03d6 DBD8     		bhi	.L99
 274:../../source/src/user/OS_LIB/vector.c **** 		return -ERROR_VALUELESS_INPUT;
 972              		.loc 1 274 0
 973 03d8 0648     		ldr	r0, .L107+4
 974 03da FFF7FEFF 		bl	ka_printf
 975              	.LVL132:
 275:../../source/src/user/OS_LIB/vector.c **** 	}
 976              		.loc 1 275 0
 977 03de 6FF0FD00 		mvn	r0, #253
 978              		.loc 1 288 0
 979 03e2 B0BD     		pop	{r4, r5, r7, pc}
 980              	.LVL133:
 981              	.L105:
 264:../../source/src/user/OS_LIB/vector.c **** 	ASSERT(index < vector_ptr->cur_len);
 982              		.loc 1 264 0 discriminator 1
 983 03e4 4FF48471 		mov	r1, #264
 984              	.LVL134:
 985 03e8 0148     		ldr	r0, .L107
 986              	.LVL135:
 987 03ea FFF7FEFF 		bl	_ASSERT
 988              	.LVL136:
 989 03ee CCE7     		b	.L98
 990              	.L108:
 991              		.align	2
 992              	.L107:
 993 03f0 00000000 		.word	.LC0
ARM GAS  G:\Users\Jaxb\AppData\Local\Temp\ccbjwyeW.s 			page 25


 994 03f4 7C040000 		.word	.LC19
 995              		.cfi_endproc
 996              	.LFE11:
 997              		.size	Vector_remove_index_data, .-Vector_remove_index_data
 998              		.align	1
 999              		.p2align 2,,3
 1000              		.global	Vector_set_inner
 1001              		.syntax unified
 1002              		.thumb
 1003              		.thumb_func
 1004              		.fpu softvfp
 1005              		.type	Vector_set_inner, %function
 1006              	Vector_set_inner:
 1007              	.LFB12:
 289:../../source/src/user/OS_LIB/vector.c **** 
 290:../../source/src/user/OS_LIB/vector.c **** /*
 291:../../source/src/user/OS_LIB/vector.c **** 	set Vector[dest_index] = Vector[src_index]
 292:../../source/src/user/OS_LIB/vector.c ****  */ 
 293:../../source/src/user/OS_LIB/vector.c **** int Vector_set_inner(Vector *vector_ptr,unsigned int dest_index,unsigned int src_index)
 294:../../source/src/user/OS_LIB/vector.c **** {
 1008              		.loc 1 294 0
 1009              		.cfi_startproc
 1010              		@ args = 0, pretend = 0, frame = 0
 1011              		@ frame_needed = 0, uses_anonymous_args = 0
 1012              	.LVL137:
 1013 03f8 70B5     		push	{r4, r5, r6, lr}
 1014              	.LCFI17:
 1015              		.cfi_def_cfa_offset 16
 1016              		.cfi_offset 4, -16
 1017              		.cfi_offset 5, -12
 1018              		.cfi_offset 6, -8
 1019              		.cfi_offset 14, -4
 1020              		.loc 1 294 0
 1021 03fa 0D46     		mov	r5, r1
 1022 03fc 1646     		mov	r6, r2
 295:../../source/src/user/OS_LIB/vector.c **** 	ASSERT(NULL != vector_ptr);
 1023              		.loc 1 295 0
 1024 03fe 0446     		mov	r4, r0
 1025 0400 28B3     		cbz	r0, .L116
 1026              	.LVL138:
 1027              	.L110:
 296:../../source/src/user/OS_LIB/vector.c **** 	ASSERT((dest_index < vector_ptr->cur_len) && (src_index < vector_ptr->cur_len));
 1028              		.loc 1 296 0
 1029 0402 A368     		ldr	r3, [r4, #8]
 1030 0404 AB42     		cmp	r3, r5
 1031 0406 0DD9     		bls	.L111
 1032              		.loc 1 296 0 is_stmt 0 discriminator 1
 1033 0408 B342     		cmp	r3, r6
 1034 040a 0BD9     		bls	.L111
 1035              	.L112:
 297:../../source/src/user/OS_LIB/vector.c **** #if CONFIG_PARA_CHECK
 298:../../source/src/user/OS_LIB/vector.c **** 	if(NULL == vector_ptr)
 299:../../source/src/user/OS_LIB/vector.c **** 	{
 300:../../source/src/user/OS_LIB/vector.c **** 		OS_ERROR_PARA_MESSAGE_DISPLAY(Vector_set_inner,vector_ptr);
 301:../../source/src/user/OS_LIB/vector.c **** 		return -ERROR_NULL_INPUT_PTR;
 302:../../source/src/user/OS_LIB/vector.c **** 	}
 303:../../source/src/user/OS_LIB/vector.c **** 	if((dest_index >= vector_ptr->cur_len) || (src_index >= vector_ptr->cur_len))
ARM GAS  G:\Users\Jaxb\AppData\Local\Temp\ccbjwyeW.s 			page 26


 304:../../source/src/user/OS_LIB/vector.c **** 	{
 305:../../source/src/user/OS_LIB/vector.c **** 		OS_ERROR_PARA_MESSAGE_DISPLAY(Vector_set_inner,dest_index);
 306:../../source/src/user/OS_LIB/vector.c **** 		OS_ERROR_PARA_MESSAGE_DISPLAY(Vector_set_inner,src_index);
 307:../../source/src/user/OS_LIB/vector.c **** 		return -ERROR_VALUELESS_INPUT;
 308:../../source/src/user/OS_LIB/vector.c **** 	}
 309:../../source/src/user/OS_LIB/vector.c **** #endif
 310:../../source/src/user/OS_LIB/vector.c **** 	if(dest_index == src_index)
 1036              		.loc 1 310 0 is_stmt 1
 1037 040c B542     		cmp	r5, r6
 1038 040e 1CD0     		beq	.L115
 311:../../source/src/user/OS_LIB/vector.c **** 	{
 312:../../source/src/user/OS_LIB/vector.c **** 		return FUN_EXECUTE_SUCCESSFULLY;
 313:../../source/src/user/OS_LIB/vector.c **** 	}
 314:../../source/src/user/OS_LIB/vector.c **** 	f_memcpy((char*)(vector_ptr->data_ptr) + dest_index * vector_ptr->data_size,
 1039              		.loc 1 314 0
 1040 0410 2068     		ldr	r0, [r4]
 1041 0412 E268     		ldr	r2, [r4, #12]
 1042 0414 06FB0201 		mla	r1, r6, r2, r0
 1043 0418 05FB0200 		mla	r0, r5, r2, r0
 1044 041c FFF7FEFF 		bl	ka_memcpy
 1045              	.LVL139:
 315:../../source/src/user/OS_LIB/vector.c **** 		(char*)(vector_ptr->data_ptr) + src_index * vector_ptr->data_size,
 316:../../source/src/user/OS_LIB/vector.c **** 		vector_ptr->data_size);
 317:../../source/src/user/OS_LIB/vector.c **** 	return FUN_EXECUTE_SUCCESSFULLY;
 1046              		.loc 1 317 0
 1047 0420 0020     		movs	r0, #0
 318:../../source/src/user/OS_LIB/vector.c **** }
 1048              		.loc 1 318 0
 1049 0422 70BD     		pop	{r4, r5, r6, pc}
 1050              	.LVL140:
 1051              	.L111:
 296:../../source/src/user/OS_LIB/vector.c **** #if CONFIG_PARA_CHECK
 1052              		.loc 1 296 0 discriminator 3
 1053 0424 4FF49471 		mov	r1, #296
 1054 0428 0C48     		ldr	r0, .L117
 1055 042a FFF7FEFF 		bl	_ASSERT
 1056              	.LVL141:
 303:../../source/src/user/OS_LIB/vector.c **** 	{
 1057              		.loc 1 303 0 discriminator 3
 1058 042e A368     		ldr	r3, [r4, #8]
 1059 0430 AB42     		cmp	r3, r5
 1060 0432 01D9     		bls	.L113
 303:../../source/src/user/OS_LIB/vector.c **** 	{
 1061              		.loc 1 303 0 is_stmt 0 discriminator 1
 1062 0434 B342     		cmp	r3, r6
 1063 0436 E9D8     		bhi	.L112
 1064              	.L113:
 305:../../source/src/user/OS_LIB/vector.c **** 		OS_ERROR_PARA_MESSAGE_DISPLAY(Vector_set_inner,src_index);
 1065              		.loc 1 305 0 is_stmt 1
 1066 0438 0948     		ldr	r0, .L117+4
 1067 043a FFF7FEFF 		bl	ka_printf
 1068              	.LVL142:
 306:../../source/src/user/OS_LIB/vector.c **** 		return -ERROR_VALUELESS_INPUT;
 1069              		.loc 1 306 0
 1070 043e 0948     		ldr	r0, .L117+8
 1071 0440 FFF7FEFF 		bl	ka_printf
 1072              	.LVL143:
ARM GAS  G:\Users\Jaxb\AppData\Local\Temp\ccbjwyeW.s 			page 27


 307:../../source/src/user/OS_LIB/vector.c **** 	}
 1073              		.loc 1 307 0
 1074 0444 6FF0FD00 		mvn	r0, #253
 1075              		.loc 1 318 0
 1076 0448 70BD     		pop	{r4, r5, r6, pc}
 1077              	.LVL144:
 1078              	.L115:
 312:../../source/src/user/OS_LIB/vector.c **** 	}
 1079              		.loc 1 312 0
 1080 044a 0020     		movs	r0, #0
 1081              		.loc 1 318 0
 1082 044c 70BD     		pop	{r4, r5, r6, pc}
 1083              	.LVL145:
 1084              	.L116:
 295:../../source/src/user/OS_LIB/vector.c **** 	ASSERT((dest_index < vector_ptr->cur_len) && (src_index < vector_ptr->cur_len));
 1085              		.loc 1 295 0 discriminator 1
 1086 044e 40F22711 		movw	r1, #295
 1087              	.LVL146:
 1088 0452 0248     		ldr	r0, .L117
 1089              	.LVL147:
 1090 0454 FFF7FEFF 		bl	_ASSERT
 1091              	.LVL148:
 1092 0458 D3E7     		b	.L110
 1093              	.L118:
 1094 045a 00BF     		.align	2
 1095              	.L117:
 1096 045c 00000000 		.word	.LC0
 1097 0460 BC040000 		.word	.LC20
 1098 0464 F8040000 		.word	.LC21
 1099              		.cfi_endproc
 1100              	.LFE12:
 1101              		.size	Vector_set_inner, .-Vector_set_inner
 1102              		.align	1
 1103              		.p2align 2,,3
 1104              		.global	Vector_swap_inner
 1105              		.syntax unified
 1106              		.thumb
 1107              		.thumb_func
 1108              		.fpu softvfp
 1109              		.type	Vector_swap_inner, %function
 1110              	Vector_swap_inner:
 1111              	.LFB13:
 319:../../source/src/user/OS_LIB/vector.c **** 
 320:../../source/src/user/OS_LIB/vector.c **** /*
 321:../../source/src/user/OS_LIB/vector.c **** swap the data between index "index1" and "index2"
 322:../../source/src/user/OS_LIB/vector.c ****  */
 323:../../source/src/user/OS_LIB/vector.c **** int Vector_swap_inner(Vector *vector_ptr,unsigned int index1,unsigned int index2)
 324:../../source/src/user/OS_LIB/vector.c **** {
 1112              		.loc 1 324 0
 1113              		.cfi_startproc
 1114              		@ args = 0, pretend = 0, frame = 0
 1115              		@ frame_needed = 0, uses_anonymous_args = 0
 1116              	.LVL149:
 1117 0468 F8B5     		push	{r3, r4, r5, r6, r7, lr}
 1118              	.LCFI18:
 1119              		.cfi_def_cfa_offset 24
 1120              		.cfi_offset 3, -24
ARM GAS  G:\Users\Jaxb\AppData\Local\Temp\ccbjwyeW.s 			page 28


 1121              		.cfi_offset 4, -20
 1122              		.cfi_offset 5, -16
 1123              		.cfi_offset 6, -12
 1124              		.cfi_offset 7, -8
 1125              		.cfi_offset 14, -4
 1126              		.loc 1 324 0
 1127 046a 0D46     		mov	r5, r1
 1128 046c 1646     		mov	r6, r2
 325:../../source/src/user/OS_LIB/vector.c **** 	ASSERT(NULL != vector_ptr);
 1129              		.loc 1 325 0
 1130 046e 0446     		mov	r4, r0
 1131 0470 0028     		cmp	r0, #0
 1132 0472 3AD0     		beq	.L127
 1133              	.LVL150:
 1134              	.L120:
 326:../../source/src/user/OS_LIB/vector.c **** 	ASSERT((index1 < vector_ptr->cur_len) && (index2 < vector_ptr->cur_len));
 1135              		.loc 1 326 0
 1136 0474 A368     		ldr	r3, [r4, #8]
 1137 0476 AB42     		cmp	r3, r5
 1138 0478 22D9     		bls	.L121
 1139              		.loc 1 326 0 is_stmt 0 discriminator 1
 1140 047a B342     		cmp	r3, r6
 1141 047c 20D9     		bls	.L121
 1142              	.L122:
 327:../../source/src/user/OS_LIB/vector.c **** #if CONFIG_PARA_CHECK
 328:../../source/src/user/OS_LIB/vector.c **** 	if(NULL == vector_ptr)
 329:../../source/src/user/OS_LIB/vector.c **** 	{
 330:../../source/src/user/OS_LIB/vector.c **** 		OS_ERROR_PARA_MESSAGE_DISPLAY(Vector_swap_inner,vector_ptr);
 331:../../source/src/user/OS_LIB/vector.c **** 		return -ERROR_NULL_INPUT_PTR;
 332:../../source/src/user/OS_LIB/vector.c **** 	}
 333:../../source/src/user/OS_LIB/vector.c **** 	if((index1 >= vector_ptr->cur_len) || (index2 >= vector_ptr->cur_len))
 334:../../source/src/user/OS_LIB/vector.c **** 	{
 335:../../source/src/user/OS_LIB/vector.c **** 		OS_ERROR_PARA_MESSAGE_DISPLAY(Vector_swap_inner,index1);
 336:../../source/src/user/OS_LIB/vector.c **** 		OS_ERROR_PARA_MESSAGE_DISPLAY(Vector_swap_inner,index2);
 337:../../source/src/user/OS_LIB/vector.c **** 		return -ERROR_VALUELESS_INPUT;
 338:../../source/src/user/OS_LIB/vector.c **** 	}
 339:../../source/src/user/OS_LIB/vector.c **** #endif
 340:../../source/src/user/OS_LIB/vector.c **** 	if(index1 == index2)
 1143              		.loc 1 340 0 is_stmt 1
 1144 047e B542     		cmp	r5, r6
 1145 0480 31D0     		beq	.L125
 341:../../source/src/user/OS_LIB/vector.c **** 	{
 342:../../source/src/user/OS_LIB/vector.c **** 		return FUN_EXECUTE_SUCCESSFULLY;
 343:../../source/src/user/OS_LIB/vector.c **** 	}
 344:../../source/src/user/OS_LIB/vector.c **** 	void *buffer = f_malloc(vector_ptr->data_size);
 1146              		.loc 1 344 0
 1147 0482 E068     		ldr	r0, [r4, #12]
 1148 0484 FFF7FEFF 		bl	ka_malloc
 1149              	.LVL151:
 345:../../source/src/user/OS_LIB/vector.c **** 	if(NULL == buffer)
 1150              		.loc 1 345 0
 1151 0488 0746     		mov	r7, r0
 1152 048a A0B3     		cbz	r0, .L126
 346:../../source/src/user/OS_LIB/vector.c **** 		return -ERROR_ALLOCATE_ROOM;
 347:../../source/src/user/OS_LIB/vector.c **** 	f_memcpy(buffer,
 1153              		.loc 1 347 0
 1154 048c E268     		ldr	r2, [r4, #12]
ARM GAS  G:\Users\Jaxb\AppData\Local\Temp\ccbjwyeW.s 			page 29


 1155 048e 2168     		ldr	r1, [r4]
 1156 0490 05FB0211 		mla	r1, r5, r2, r1
 1157 0494 FFF7FEFF 		bl	ka_memcpy
 1158              	.LVL152:
 348:../../source/src/user/OS_LIB/vector.c **** 		(char*)(vector_ptr->data_ptr) + index1 * vector_ptr->data_size,
 349:../../source/src/user/OS_LIB/vector.c **** 		vector_ptr->data_size);
 350:../../source/src/user/OS_LIB/vector.c **** 	f_memcpy((char*)(vector_ptr->data_ptr) + index1 * vector_ptr->data_size,
 1159              		.loc 1 350 0
 1160 0498 E268     		ldr	r2, [r4, #12]
 1161 049a 2168     		ldr	r1, [r4]
 1162 049c 05FB0210 		mla	r0, r5, r2, r1
 1163 04a0 06FB0211 		mla	r1, r6, r2, r1
 1164 04a4 FFF7FEFF 		bl	ka_memcpy
 1165              	.LVL153:
 351:../../source/src/user/OS_LIB/vector.c **** 		(char*)(vector_ptr->data_ptr) + index2 * vector_ptr->data_size,
 352:../../source/src/user/OS_LIB/vector.c **** 		vector_ptr->data_size);
 353:../../source/src/user/OS_LIB/vector.c **** 	f_memcpy((char*)(vector_ptr->data_ptr) + index2 * vector_ptr->data_size,
 1166              		.loc 1 353 0
 1167 04a8 E268     		ldr	r2, [r4, #12]
 1168 04aa 2068     		ldr	r0, [r4]
 1169 04ac 3946     		mov	r1, r7
 1170 04ae 06FB0200 		mla	r0, r6, r2, r0
 1171 04b2 FFF7FEFF 		bl	ka_memcpy
 1172              	.LVL154:
 354:../../source/src/user/OS_LIB/vector.c **** 		buffer,
 355:../../source/src/user/OS_LIB/vector.c **** 		vector_ptr->data_size);
 356:../../source/src/user/OS_LIB/vector.c **** 	f_free(buffer);
 1173              		.loc 1 356 0
 1174 04b6 3846     		mov	r0, r7
 1175 04b8 FFF7FEFF 		bl	ka_free
 1176              	.LVL155:
 357:../../source/src/user/OS_LIB/vector.c **** 	return FUN_EXECUTE_SUCCESSFULLY;
 1177              		.loc 1 357 0
 1178 04bc 0020     		movs	r0, #0
 358:../../source/src/user/OS_LIB/vector.c **** }
 1179              		.loc 1 358 0
 1180 04be F8BD     		pop	{r3, r4, r5, r6, r7, pc}
 1181              	.LVL156:
 1182              	.L121:
 326:../../source/src/user/OS_LIB/vector.c **** #if CONFIG_PARA_CHECK
 1183              		.loc 1 326 0 discriminator 3
 1184 04c0 4FF4A371 		mov	r1, #326
 1185 04c4 0D48     		ldr	r0, .L128
 1186 04c6 FFF7FEFF 		bl	_ASSERT
 1187              	.LVL157:
 333:../../source/src/user/OS_LIB/vector.c **** 	{
 1188              		.loc 1 333 0 discriminator 3
 1189 04ca A368     		ldr	r3, [r4, #8]
 1190 04cc AB42     		cmp	r3, r5
 1191 04ce 01D9     		bls	.L123
 333:../../source/src/user/OS_LIB/vector.c **** 	{
 1192              		.loc 1 333 0 is_stmt 0 discriminator 1
 1193 04d0 B342     		cmp	r3, r6
 1194 04d2 D4D8     		bhi	.L122
 1195              	.L123:
 335:../../source/src/user/OS_LIB/vector.c **** 		OS_ERROR_PARA_MESSAGE_DISPLAY(Vector_swap_inner,index2);
 1196              		.loc 1 335 0 is_stmt 1
ARM GAS  G:\Users\Jaxb\AppData\Local\Temp\ccbjwyeW.s 			page 30


 1197 04d4 0A48     		ldr	r0, .L128+4
 1198 04d6 FFF7FEFF 		bl	ka_printf
 1199              	.LVL158:
 336:../../source/src/user/OS_LIB/vector.c **** 		return -ERROR_VALUELESS_INPUT;
 1200              		.loc 1 336 0
 1201 04da 0A48     		ldr	r0, .L128+8
 1202 04dc FFF7FEFF 		bl	ka_printf
 1203              	.LVL159:
 337:../../source/src/user/OS_LIB/vector.c **** 	}
 1204              		.loc 1 337 0
 1205 04e0 6FF0FD00 		mvn	r0, #253
 1206              		.loc 1 358 0
 1207 04e4 F8BD     		pop	{r3, r4, r5, r6, r7, pc}
 1208              	.LVL160:
 1209              	.L125:
 342:../../source/src/user/OS_LIB/vector.c **** 	}
 1210              		.loc 1 342 0
 1211 04e6 0020     		movs	r0, #0
 1212              		.loc 1 358 0
 1213 04e8 F8BD     		pop	{r3, r4, r5, r6, r7, pc}
 1214              	.LVL161:
 1215              	.L127:
 325:../../source/src/user/OS_LIB/vector.c **** 	ASSERT((index1 < vector_ptr->cur_len) && (index2 < vector_ptr->cur_len));
 1216              		.loc 1 325 0 discriminator 1
 1217 04ea 40F24511 		movw	r1, #325
 1218              	.LVL162:
 1219 04ee 0348     		ldr	r0, .L128
 1220              	.LVL163:
 1221 04f0 FFF7FEFF 		bl	_ASSERT
 1222              	.LVL164:
 1223 04f4 BEE7     		b	.L120
 1224              	.LVL165:
 1225              	.L126:
 346:../../source/src/user/OS_LIB/vector.c **** 	f_memcpy(buffer,
 1226              		.loc 1 346 0
 1227 04f6 4FF0FF30 		mov	r0, #-1
 1228              	.LVL166:
 1229              		.loc 1 358 0
 1230 04fa F8BD     		pop	{r3, r4, r5, r6, r7, pc}
 1231              	.LVL167:
 1232              	.L129:
 1233              		.align	2
 1234              	.L128:
 1235 04fc 00000000 		.word	.LC0
 1236 0500 34050000 		.word	.LC22
 1237 0504 6C050000 		.word	.LC23
 1238              		.cfi_endproc
 1239              	.LFE13:
 1240              		.size	Vector_swap_inner, .-Vector_swap_inner
 1241              		.section	.rodata.str1.4,"aMS",%progbits,1
 1242              		.align	2
 1243              	.LC0:
 1244 0000 2E2E2F2E 		.ascii	"../../source/src/user/OS_LIB/vector.c\000"
 1244      2E2F736F 
 1244      75726365 
 1244      2F737263 
 1244      2F757365 
ARM GAS  G:\Users\Jaxb\AppData\Local\Temp\ccbjwyeW.s 			page 31


 1245 0026 0000     		.space	2
 1246              	.LC1:
 1247 0028 6572726F 		.ascii	"error fun name : Vector_init\012error para : vector"
 1247      72206675 
 1247      6E206E61 
 1247      6D65203A 
 1247      20566563 
 1248 0058 5F707472 		.ascii	"_ptr\012\000"
 1248      0A00
 1249 005e 0000     		.space	2
 1250              	.LC2:
 1251 0060 6572726F 		.ascii	"error fun name : Vector_init\012error para : len_pe"
 1251      72206675 
 1251      6E206E61 
 1251      6D65203A 
 1251      20566563 
 1252 0090 725F6461 		.ascii	"r_data\012\000"
 1252      74610A00 
 1253              	.LC3:
 1254 0098 6572726F 		.ascii	"error fun name : Vector_push_back\012error para : v"
 1254      72206675 
 1254      6E206E61 
 1254      6D65203A 
 1254      20566563 
 1255 00c8 6563746F 		.ascii	"ector_ptr\012\000"
 1255      725F7074 
 1255      720A00
 1256 00d3 00       		.space	1
 1257              	.LC4:
 1258 00d4 6572726F 		.ascii	"error fun name : Vector_push_back\012error para : p"
 1258      72206675 
 1258      6E206E61 
 1258      6D65203A 
 1258      20566563 
 1259 0104 7573685F 		.ascii	"ush_data_ptr\012\000"
 1259      64617461 
 1259      5F707472 
 1259      0A00
 1260 0112 0000     		.space	2
 1261              	.LC5:
 1262 0114 6572726F 		.ascii	"error fun name : Vector_pop_back\012error para : ve"
 1262      72206675 
 1262      6E206E61 
 1262      6D65203A 
 1262      20566563 
 1263 0144 63746F72 		.ascii	"ctor_ptr\012\000"
 1263      5F707472 
 1263      0A00
 1264 014e 0000     		.space	2
 1265              	.LC6:
 1266 0150 6572726F 		.ascii	"error fun name : Vector_get_index_data\012error par"
 1266      72206675 
 1266      6E206E61 
 1266      6D65203A 
 1266      20566563 
 1267 0180 61203A20 		.ascii	"a : vector_ptr\012\000"
 1267      76656374 
ARM GAS  G:\Users\Jaxb\AppData\Local\Temp\ccbjwyeW.s 			page 32


 1267      6F725F70 
 1267      74720A00 
 1268              	.LC7:
 1269 0190 6572726F 		.ascii	"error fun name : Vector_get_index_data\012error par"
 1269      72206675 
 1269      6E206E61 
 1269      6D65203A 
 1269      20566563 
 1270 01c0 61203A20 		.ascii	"a : data_store_ptr\012\000"
 1270      64617461 
 1270      5F73746F 
 1270      72655F70 
 1270      74720A00 
 1271              	.LC8:
 1272 01d4 6572726F 		.ascii	"error fun name : Vector_get_index_data\012error par"
 1272      72206675 
 1272      6E206E61 
 1272      6D65203A 
 1272      20566563 
 1273 0204 61203A20 		.ascii	"a : index\012\000"
 1273      696E6465 
 1273      780A00
 1274 020f 00       		.space	1
 1275              	.LC9:
 1276 0210 6572726F 		.ascii	"error fun name : Vector_set_index_data\012error par"
 1276      72206675 
 1276      6E206E61 
 1276      6D65203A 
 1276      20566563 
 1277 0240 61203A20 		.ascii	"a : vector_ptr\012\000"
 1277      76656374 
 1277      6F725F70 
 1277      74720A00 
 1278              	.LC10:
 1279 0250 6572726F 		.ascii	"error fun name : Vector_set_index_data\012error par"
 1279      72206675 
 1279      6E206E61 
 1279      6D65203A 
 1279      20566563 
 1280 0280 61203A20 		.ascii	"a : data_store_ptr\012\000"
 1280      64617461 
 1280      5F73746F 
 1280      72655F70 
 1280      74720A00 
 1281              	.LC11:
 1282 0294 6572726F 		.ascii	"error fun name : Vector_set_index_data\012error par"
 1282      72206675 
 1282      6E206E61 
 1282      6D65203A 
 1282      20566563 
 1283 02c4 61203A20 		.ascii	"a : index\012\000"
 1283      696E6465 
 1283      780A00
 1284 02cf 00       		.space	1
 1285              	.LC12:
 1286 02d0 6572726F 		.ascii	"error fun name : Vector_get_index_address\012error "
 1286      72206675 
ARM GAS  G:\Users\Jaxb\AppData\Local\Temp\ccbjwyeW.s 			page 33


 1286      6E206E61 
 1286      6D65203A 
 1286      20566563 
 1287 0300 70617261 		.ascii	"para : vector_ptr\012\000"
 1287      203A2076 
 1287      6563746F 
 1287      725F7074 
 1287      720A00
 1288 0313 00       		.space	1
 1289              	.LC13:
 1290 0314 6572726F 		.ascii	"error fun name : Vector_get_index_address\012error "
 1290      72206675 
 1290      6E206E61 
 1290      6D65203A 
 1290      20566563 
 1291 0344 70617261 		.ascii	"para : data_add_ptr\012\000"
 1291      203A2064 
 1291      6174615F 
 1291      6164645F 
 1291      7074720A 
 1292 0359 000000   		.space	3
 1293              	.LC14:
 1294 035c 6572726F 		.ascii	"error fun name : Vector_get_index_address\012error "
 1294      72206675 
 1294      6E206E61 
 1294      6D65203A 
 1294      20566563 
 1295 038c 70617261 		.ascii	"para : index\012\000"
 1295      203A2069 
 1295      6E646578 
 1295      0A00
 1296 039a 0000     		.space	2
 1297              	.LC15:
 1298 039c 6572726F 		.ascii	"error fun name : Vector_delete\012error para : vect"
 1298      72206675 
 1298      6E206E61 
 1298      6D65203A 
 1298      20566563 
 1299 03cc 6F725F70 		.ascii	"or_ptr\012\000"
 1299      74720A00 
 1300              	.LC16:
 1301 03d4 6572726F 		.ascii	"error fun name : Vector_erase_data\012error para : "
 1301      72206675 
 1301      6E206E61 
 1301      6D65203A 
 1301      20566563 
 1302 0404 76656374 		.ascii	"vector_ptr\012\000"
 1302      6F725F70 
 1302      74720A00 
 1303              	.LC17:
 1304 0410 6572726F 		.ascii	"error fun name : Vector_erase_data\012error para : "
 1304      72206675 
 1304      6E206E61 
 1304      6D65203A 
 1304      20566563 
 1305 0440 66726F6D 		.ascii	"from\012\000"
 1305      0A00
ARM GAS  G:\Users\Jaxb\AppData\Local\Temp\ccbjwyeW.s 			page 34


 1306 0446 0000     		.space	2
 1307              	.LC18:
 1308 0448 6572726F 		.ascii	"error fun name : Vector_erase_data\012error para : "
 1308      72206675 
 1308      6E206E61 
 1308      6D65203A 
 1308      20566563 
 1309 0478 746F0A00 		.ascii	"to\012\000"
 1310              	.LC19:
 1311 047c 6572726F 		.ascii	"error fun name : Vector_remove_index_data\012error "
 1311      72206675 
 1311      6E206E61 
 1311      6D65203A 
 1311      20566563 
 1312 04ac 70617261 		.ascii	"para : index\012\000"
 1312      203A2069 
 1312      6E646578 
 1312      0A00
 1313 04ba 0000     		.space	2
 1314              	.LC20:
 1315 04bc 6572726F 		.ascii	"error fun name : Vector_set_inner\012error para : d"
 1315      72206675 
 1315      6E206E61 
 1315      6D65203A 
 1315      20566563 
 1316 04ec 6573745F 		.ascii	"est_index\012\000"
 1316      696E6465 
 1316      780A00
 1317 04f7 00       		.space	1
 1318              	.LC21:
 1319 04f8 6572726F 		.ascii	"error fun name : Vector_set_inner\012error para : s"
 1319      72206675 
 1319      6E206E61 
 1319      6D65203A 
 1319      20566563 
 1320 0528 72635F69 		.ascii	"rc_index\012\000"
 1320      6E646578 
 1320      0A00
 1321 0532 0000     		.space	2
 1322              	.LC22:
 1323 0534 6572726F 		.ascii	"error fun name : Vector_swap_inner\012error para : "
 1323      72206675 
 1323      6E206E61 
 1323      6D65203A 
 1323      20566563 
 1324 0564 696E6465 		.ascii	"index1\012\000"
 1324      78310A00 
 1325              	.LC23:
 1326 056c 6572726F 		.ascii	"error fun name : Vector_swap_inner\012error para : "
 1326      72206675 
 1326      6E206E61 
 1326      6D65203A 
 1326      20566563 
 1327 059c 696E6465 		.ascii	"index2\012\000"
 1327      78320A00 
 1328              		.text
 1329              	.Letext0:
ARM GAS  G:\Users\Jaxb\AppData\Local\Temp\ccbjwyeW.s 			page 35


 1330              		.file 2 "../../source/include/os_lib/vector.h"
 1331              		.file 3 "../../source/include/os_lib/myMicroLIB.h"
 1332              		.file 4 "../../source/include/os_lib/myassert.h"